ARM GAS  /var/folders/d2/nstgp4h54kz7g1l847x_b8wc0000gn/T//ccCXkMqz.s 			page 1


   1              		.cpu cortex-m4
   2              		.eabi_attribute 27, 1
   3              		.eabi_attribute 28, 1
   4              		.eabi_attribute 20, 1
   5              		.eabi_attribute 21, 1
   6              		.eabi_attribute 23, 3
   7              		.eabi_attribute 24, 1
   8              		.eabi_attribute 25, 1
   9              		.eabi_attribute 26, 1
  10              		.eabi_attribute 30, 6
  11              		.eabi_attribute 34, 1
  12              		.eabi_attribute 18, 4
  13              		.file	"adc.c"
  14              		.section	.text.port_lock,"ax",%progbits
  15              		.align	1
  16              		.syntax unified
  17              		.thumb
  18              		.thumb_func
  19              		.fpu fpv4-sp-d16
  20              		.type	port_lock, %function
  21              	port_lock:
  22              		@ args = 0, pretend = 0, frame = 8
  23              		@ frame_needed = 1, uses_anonymous_args = 0
  24              		@ link register save eliminated.
  25 0000 80B4     		push	{r7}
  26 0002 83B0     		sub	sp, sp, #12
  27 0004 00AF     		add	r7, sp, #0
  28 0006 2023     		movs	r3, #32
  29 0008 7B60     		str	r3, [r7, #4]
  30 000a 7B68     		ldr	r3, [r7, #4]
  31              		.syntax unified
  32              	@ 546 "../e-puck2_main-processor/ChibiOS//os/ext/CMSIS/include/core_cmFunc.h" 1
  33 000c 83F31188 		MSR basepri, r3
  34              	@ 0 "" 2
  35              		.thumb
  36              		.syntax unified
  37 0010 00BF     		nop
  38 0012 0C37     		adds	r7, r7, #12
  39 0014 BD46     		mov	sp, r7
  40              		@ sp needed
  41 0016 5DF8047B 		ldr	r7, [sp], #4
  42 001a 7047     		bx	lr
  43              		.size	port_lock, .-port_lock
  44              		.section	.text.port_unlock,"ax",%progbits
  45              		.align	1
  46              		.syntax unified
  47              		.thumb
  48              		.thumb_func
  49              		.fpu fpv4-sp-d16
  50              		.type	port_unlock, %function
  51              	port_unlock:
  52              		@ args = 0, pretend = 0, frame = 8
  53              		@ frame_needed = 1, uses_anonymous_args = 0
  54              		@ link register save eliminated.
  55 0000 80B4     		push	{r7}
  56 0002 83B0     		sub	sp, sp, #12
  57 0004 00AF     		add	r7, sp, #0
ARM GAS  /var/folders/d2/nstgp4h54kz7g1l847x_b8wc0000gn/T//ccCXkMqz.s 			page 2


  58 0006 0023     		movs	r3, #0
  59 0008 7B60     		str	r3, [r7, #4]
  60 000a 7B68     		ldr	r3, [r7, #4]
  61              		.syntax unified
  62              	@ 546 "../e-puck2_main-processor/ChibiOS//os/ext/CMSIS/include/core_cmFunc.h" 1
  63 000c 83F31188 		MSR basepri, r3
  64              	@ 0 "" 2
  65              		.thumb
  66              		.syntax unified
  67 0010 00BF     		nop
  68 0012 0C37     		adds	r7, r7, #12
  69 0014 BD46     		mov	sp, r7
  70              		@ sp needed
  71 0016 5DF8047B 		ldr	r7, [sp], #4
  72 001a 7047     		bx	lr
  73              		.size	port_unlock, .-port_unlock
  74              		.section	.text.chSysLock,"ax",%progbits
  75              		.align	1
  76              		.syntax unified
  77              		.thumb
  78              		.thumb_func
  79              		.fpu fpv4-sp-d16
  80              		.type	chSysLock, %function
  81              	chSysLock:
  82              		@ args = 0, pretend = 0, frame = 0
  83              		@ frame_needed = 1, uses_anonymous_args = 0
  84 0000 80B5     		push	{r7, lr}
  85 0002 00AF     		add	r7, sp, #0
  86 0004 FFF7FEFF 		bl	port_lock
  87 0008 FFF7FEFF 		bl	_stats_start_measure_crit_thd
  88 000c FFF7FEFF 		bl	_dbg_check_lock
  89 0010 00BF     		nop
  90 0012 80BD     		pop	{r7, pc}
  91              		.size	chSysLock, .-chSysLock
  92              		.section	.text.chSysUnlock,"ax",%progbits
  93              		.align	1
  94              		.syntax unified
  95              		.thumb
  96              		.thumb_func
  97              		.fpu fpv4-sp-d16
  98              		.type	chSysUnlock, %function
  99              	chSysUnlock:
 100              		@ args = 0, pretend = 0, frame = 0
 101              		@ frame_needed = 1, uses_anonymous_args = 0
 102 0000 80B5     		push	{r7, lr}
 103 0002 00AF     		add	r7, sp, #0
 104 0004 FFF7FEFF 		bl	_dbg_check_unlock
 105 0008 FFF7FEFF 		bl	_stats_stop_measure_crit_thd
 106 000c 094B     		ldr	r3, .L6
 107 000e 1B68     		ldr	r3, [r3]
 108 0010 084A     		ldr	r2, .L6
 109 0012 9342     		cmp	r3, r2
 110 0014 0AD0     		beq	.L5
 111 0016 074B     		ldr	r3, .L6
 112 0018 9B69     		ldr	r3, [r3, #24]
 113 001a 9A68     		ldr	r2, [r3, #8]
 114 001c 054B     		ldr	r3, .L6
ARM GAS  /var/folders/d2/nstgp4h54kz7g1l847x_b8wc0000gn/T//ccCXkMqz.s 			page 3


 115 001e 1B68     		ldr	r3, [r3]
 116 0020 9B68     		ldr	r3, [r3, #8]
 117 0022 9A42     		cmp	r2, r3
 118 0024 02D2     		bcs	.L5
 119 0026 0448     		ldr	r0, .L6+4
 120 0028 FFF7FEFF 		bl	chSysHalt
 121              	.L5:
 122 002c FFF7FEFF 		bl	port_unlock
 123 0030 00BF     		nop
 124 0032 80BD     		pop	{r7, pc}
 125              	.L7:
 126              		.align	2
 127              	.L6:
 128 0034 00000000 		.word	ch
 129 0038 00000000 		.word	__func__.7153
 130              		.size	chSysUnlock, .-chSysUnlock
 131              		.section	.text.osalSysLock,"ax",%progbits
 132              		.align	1
 133              		.syntax unified
 134              		.thumb
 135              		.thumb_func
 136              		.fpu fpv4-sp-d16
 137              		.type	osalSysLock, %function
 138              	osalSysLock:
 139              		@ args = 0, pretend = 0, frame = 0
 140              		@ frame_needed = 1, uses_anonymous_args = 0
 141 0000 80B5     		push	{r7, lr}
 142 0002 00AF     		add	r7, sp, #0
 143 0004 FFF7FEFF 		bl	chSysLock
 144 0008 00BF     		nop
 145 000a 80BD     		pop	{r7, pc}
 146              		.size	osalSysLock, .-osalSysLock
 147              		.section	.text.osalSysUnlock,"ax",%progbits
 148              		.align	1
 149              		.syntax unified
 150              		.thumb
 151              		.thumb_func
 152              		.fpu fpv4-sp-d16
 153              		.type	osalSysUnlock, %function
 154              	osalSysUnlock:
 155              		@ args = 0, pretend = 0, frame = 0
 156              		@ frame_needed = 1, uses_anonymous_args = 0
 157 0000 80B5     		push	{r7, lr}
 158 0002 00AF     		add	r7, sp, #0
 159 0004 FFF7FEFF 		bl	chSysUnlock
 160 0008 00BF     		nop
 161 000a 80BD     		pop	{r7, pc}
 162              		.size	osalSysUnlock, .-osalSysUnlock
 163              		.section	.text.osalThreadSuspendS,"ax",%progbits
 164              		.align	1
 165              		.syntax unified
 166              		.thumb
 167              		.thumb_func
 168              		.fpu fpv4-sp-d16
 169              		.type	osalThreadSuspendS, %function
 170              	osalThreadSuspendS:
 171              		@ args = 0, pretend = 0, frame = 8
ARM GAS  /var/folders/d2/nstgp4h54kz7g1l847x_b8wc0000gn/T//ccCXkMqz.s 			page 4


 172              		@ frame_needed = 1, uses_anonymous_args = 0
 173 0000 80B5     		push	{r7, lr}
 174 0002 82B0     		sub	sp, sp, #8
 175 0004 00AF     		add	r7, sp, #0
 176 0006 7860     		str	r0, [r7, #4]
 177 0008 7868     		ldr	r0, [r7, #4]
 178 000a FFF7FEFF 		bl	chThdSuspendS
 179 000e 0346     		mov	r3, r0
 180 0010 1846     		mov	r0, r3
 181 0012 0837     		adds	r7, r7, #8
 182 0014 BD46     		mov	sp, r7
 183              		@ sp needed
 184 0016 80BD     		pop	{r7, pc}
 185              		.size	osalThreadSuspendS, .-osalThreadSuspendS
 186              		.section	.text.osalThreadResumeI,"ax",%progbits
 187              		.align	1
 188              		.syntax unified
 189              		.thumb
 190              		.thumb_func
 191              		.fpu fpv4-sp-d16
 192              		.type	osalThreadResumeI, %function
 193              	osalThreadResumeI:
 194              		@ args = 0, pretend = 0, frame = 8
 195              		@ frame_needed = 1, uses_anonymous_args = 0
 196 0000 80B5     		push	{r7, lr}
 197 0002 82B0     		sub	sp, sp, #8
 198 0004 00AF     		add	r7, sp, #0
 199 0006 7860     		str	r0, [r7, #4]
 200 0008 3960     		str	r1, [r7]
 201 000a 3968     		ldr	r1, [r7]
 202 000c 7868     		ldr	r0, [r7, #4]
 203 000e FFF7FEFF 		bl	chThdResumeI
 204 0012 00BF     		nop
 205 0014 0837     		adds	r7, r7, #8
 206 0016 BD46     		mov	sp, r7
 207              		@ sp needed
 208 0018 80BD     		pop	{r7, pc}
 209              		.size	osalThreadResumeI, .-osalThreadResumeI
 210              		.section	.text.osalThreadResumeS,"ax",%progbits
 211              		.align	1
 212              		.syntax unified
 213              		.thumb
 214              		.thumb_func
 215              		.fpu fpv4-sp-d16
 216              		.type	osalThreadResumeS, %function
 217              	osalThreadResumeS:
 218              		@ args = 0, pretend = 0, frame = 8
 219              		@ frame_needed = 1, uses_anonymous_args = 0
 220 0000 80B5     		push	{r7, lr}
 221 0002 82B0     		sub	sp, sp, #8
 222 0004 00AF     		add	r7, sp, #0
 223 0006 7860     		str	r0, [r7, #4]
 224 0008 3960     		str	r1, [r7]
 225 000a 3968     		ldr	r1, [r7]
 226 000c 7868     		ldr	r0, [r7, #4]
 227 000e FFF7FEFF 		bl	chThdResumeS
 228 0012 00BF     		nop
ARM GAS  /var/folders/d2/nstgp4h54kz7g1l847x_b8wc0000gn/T//ccCXkMqz.s 			page 5


 229 0014 0837     		adds	r7, r7, #8
 230 0016 BD46     		mov	sp, r7
 231              		@ sp needed
 232 0018 80BD     		pop	{r7, pc}
 233              		.size	osalThreadResumeS, .-osalThreadResumeS
 234              		.section	.text.osalMutexObjectInit,"ax",%progbits
 235              		.align	1
 236              		.syntax unified
 237              		.thumb
 238              		.thumb_func
 239              		.fpu fpv4-sp-d16
 240              		.type	osalMutexObjectInit, %function
 241              	osalMutexObjectInit:
 242              		@ args = 0, pretend = 0, frame = 8
 243              		@ frame_needed = 1, uses_anonymous_args = 0
 244 0000 80B5     		push	{r7, lr}
 245 0002 82B0     		sub	sp, sp, #8
 246 0004 00AF     		add	r7, sp, #0
 247 0006 7860     		str	r0, [r7, #4]
 248 0008 7868     		ldr	r0, [r7, #4]
 249 000a FFF7FEFF 		bl	chMtxObjectInit
 250 000e 00BF     		nop
 251 0010 0837     		adds	r7, r7, #8
 252 0012 BD46     		mov	sp, r7
 253              		@ sp needed
 254 0014 80BD     		pop	{r7, pc}
 255              		.size	osalMutexObjectInit, .-osalMutexObjectInit
 256              		.section	.text.osalMutexLock,"ax",%progbits
 257              		.align	1
 258              		.syntax unified
 259              		.thumb
 260              		.thumb_func
 261              		.fpu fpv4-sp-d16
 262              		.type	osalMutexLock, %function
 263              	osalMutexLock:
 264              		@ args = 0, pretend = 0, frame = 8
 265              		@ frame_needed = 1, uses_anonymous_args = 0
 266 0000 80B5     		push	{r7, lr}
 267 0002 82B0     		sub	sp, sp, #8
 268 0004 00AF     		add	r7, sp, #0
 269 0006 7860     		str	r0, [r7, #4]
 270 0008 7868     		ldr	r0, [r7, #4]
 271 000a FFF7FEFF 		bl	chMtxLock
 272 000e 00BF     		nop
 273 0010 0837     		adds	r7, r7, #8
 274 0012 BD46     		mov	sp, r7
 275              		@ sp needed
 276 0014 80BD     		pop	{r7, pc}
 277              		.size	osalMutexLock, .-osalMutexLock
 278              		.section	.text.osalMutexUnlock,"ax",%progbits
 279              		.align	1
 280              		.syntax unified
 281              		.thumb
 282              		.thumb_func
 283              		.fpu fpv4-sp-d16
 284              		.type	osalMutexUnlock, %function
 285              	osalMutexUnlock:
ARM GAS  /var/folders/d2/nstgp4h54kz7g1l847x_b8wc0000gn/T//ccCXkMqz.s 			page 6


 286              		@ args = 0, pretend = 0, frame = 8
 287              		@ frame_needed = 1, uses_anonymous_args = 0
 288 0000 80B5     		push	{r7, lr}
 289 0002 82B0     		sub	sp, sp, #8
 290 0004 00AF     		add	r7, sp, #0
 291 0006 7860     		str	r0, [r7, #4]
 292 0008 7868     		ldr	r0, [r7, #4]
 293 000a FFF7FEFF 		bl	chMtxUnlock
 294 000e 00BF     		nop
 295 0010 0837     		adds	r7, r7, #8
 296 0012 BD46     		mov	sp, r7
 297              		@ sp needed
 298 0014 80BD     		pop	{r7, pc}
 299              		.size	osalMutexUnlock, .-osalMutexUnlock
 300              		.section	.text.adcInit,"ax",%progbits
 301              		.align	1
 302              		.global	adcInit
 303              		.syntax unified
 304              		.thumb
 305              		.thumb_func
 306              		.fpu fpv4-sp-d16
 307              		.type	adcInit, %function
 308              	adcInit:
 309              		@ args = 0, pretend = 0, frame = 0
 310              		@ frame_needed = 1, uses_anonymous_args = 0
 311 0000 80B5     		push	{r7, lr}
 312 0002 00AF     		add	r7, sp, #0
 313 0004 FFF7FEFF 		bl	adc_lld_init
 314 0008 00BF     		nop
 315 000a 80BD     		pop	{r7, pc}
 316              		.size	adcInit, .-adcInit
 317              		.section	.text.adcObjectInit,"ax",%progbits
 318              		.align	1
 319              		.global	adcObjectInit
 320              		.syntax unified
 321              		.thumb
 322              		.thumb_func
 323              		.fpu fpv4-sp-d16
 324              		.type	adcObjectInit, %function
 325              	adcObjectInit:
 326              		@ args = 0, pretend = 0, frame = 8
 327              		@ frame_needed = 1, uses_anonymous_args = 0
 328 0000 80B5     		push	{r7, lr}
 329 0002 82B0     		sub	sp, sp, #8
 330 0004 00AF     		add	r7, sp, #0
 331 0006 7860     		str	r0, [r7, #4]
 332 0008 7B68     		ldr	r3, [r7, #4]
 333 000a 0122     		movs	r2, #1
 334 000c 1A70     		strb	r2, [r3]
 335 000e 7B68     		ldr	r3, [r7, #4]
 336 0010 0022     		movs	r2, #0
 337 0012 5A60     		str	r2, [r3, #4]
 338 0014 7B68     		ldr	r3, [r7, #4]
 339 0016 0022     		movs	r2, #0
 340 0018 9A60     		str	r2, [r3, #8]
 341 001a 7B68     		ldr	r3, [r7, #4]
 342 001c 0022     		movs	r2, #0
ARM GAS  /var/folders/d2/nstgp4h54kz7g1l847x_b8wc0000gn/T//ccCXkMqz.s 			page 7


 343 001e DA60     		str	r2, [r3, #12]
 344 0020 7B68     		ldr	r3, [r7, #4]
 345 0022 0022     		movs	r2, #0
 346 0024 1A61     		str	r2, [r3, #16]
 347 0026 7B68     		ldr	r3, [r7, #4]
 348 0028 0022     		movs	r2, #0
 349 002a 5A61     		str	r2, [r3, #20]
 350 002c 7B68     		ldr	r3, [r7, #4]
 351 002e 1833     		adds	r3, r3, #24
 352 0030 1846     		mov	r0, r3
 353 0032 FFF7FEFF 		bl	osalMutexObjectInit
 354 0036 00BF     		nop
 355 0038 0837     		adds	r7, r7, #8
 356 003a BD46     		mov	sp, r7
 357              		@ sp needed
 358 003c 80BD     		pop	{r7, pc}
 359              		.size	adcObjectInit, .-adcObjectInit
 360              		.section	.text.adcStart,"ax",%progbits
 361              		.align	1
 362              		.global	adcStart
 363              		.syntax unified
 364              		.thumb
 365              		.thumb_func
 366              		.fpu fpv4-sp-d16
 367              		.type	adcStart, %function
 368              	adcStart:
 369              		@ args = 0, pretend = 0, frame = 8
 370              		@ frame_needed = 1, uses_anonymous_args = 0
 371 0000 80B5     		push	{r7, lr}
 372 0002 82B0     		sub	sp, sp, #8
 373 0004 00AF     		add	r7, sp, #0
 374 0006 7860     		str	r0, [r7, #4]
 375 0008 3960     		str	r1, [r7]
 376 000a 7B68     		ldr	r3, [r7, #4]
 377 000c 002B     		cmp	r3, #0
 378 000e 02D1     		bne	.L20
 379 0010 0F48     		ldr	r0, .L22
 380 0012 FFF7FEFF 		bl	chSysHalt
 381              	.L20:
 382 0016 FFF7FEFF 		bl	osalSysLock
 383 001a 7B68     		ldr	r3, [r7, #4]
 384 001c 1B78     		ldrb	r3, [r3]	@ zero_extendqisi2
 385 001e 012B     		cmp	r3, #1
 386 0020 06D0     		beq	.L21
 387 0022 7B68     		ldr	r3, [r7, #4]
 388 0024 1B78     		ldrb	r3, [r3]	@ zero_extendqisi2
 389 0026 022B     		cmp	r3, #2
 390 0028 02D0     		beq	.L21
 391 002a 0948     		ldr	r0, .L22
 392 002c FFF7FEFF 		bl	chSysHalt
 393              	.L21:
 394 0030 7B68     		ldr	r3, [r7, #4]
 395 0032 3A68     		ldr	r2, [r7]
 396 0034 5A60     		str	r2, [r3, #4]
 397 0036 7868     		ldr	r0, [r7, #4]
 398 0038 FFF7FEFF 		bl	adc_lld_start
 399 003c 7B68     		ldr	r3, [r7, #4]
ARM GAS  /var/folders/d2/nstgp4h54kz7g1l847x_b8wc0000gn/T//ccCXkMqz.s 			page 8


 400 003e 0222     		movs	r2, #2
 401 0040 1A70     		strb	r2, [r3]
 402 0042 FFF7FEFF 		bl	osalSysUnlock
 403 0046 00BF     		nop
 404 0048 0837     		adds	r7, r7, #8
 405 004a BD46     		mov	sp, r7
 406              		@ sp needed
 407 004c 80BD     		pop	{r7, pc}
 408              	.L23:
 409 004e 00BF     		.align	2
 410              	.L22:
 411 0050 00000000 		.word	__func__.9848
 412              		.size	adcStart, .-adcStart
 413              		.section	.text.adcStop,"ax",%progbits
 414              		.align	1
 415              		.global	adcStop
 416              		.syntax unified
 417              		.thumb
 418              		.thumb_func
 419              		.fpu fpv4-sp-d16
 420              		.type	adcStop, %function
 421              	adcStop:
 422              		@ args = 0, pretend = 0, frame = 8
 423              		@ frame_needed = 1, uses_anonymous_args = 0
 424 0000 80B5     		push	{r7, lr}
 425 0002 82B0     		sub	sp, sp, #8
 426 0004 00AF     		add	r7, sp, #0
 427 0006 7860     		str	r0, [r7, #4]
 428 0008 7B68     		ldr	r3, [r7, #4]
 429 000a 002B     		cmp	r3, #0
 430 000c 02D1     		bne	.L25
 431 000e 0E48     		ldr	r0, .L27
 432 0010 FFF7FEFF 		bl	chSysHalt
 433              	.L25:
 434 0014 FFF7FEFF 		bl	osalSysLock
 435 0018 7B68     		ldr	r3, [r7, #4]
 436 001a 1B78     		ldrb	r3, [r3]	@ zero_extendqisi2
 437 001c 012B     		cmp	r3, #1
 438 001e 06D0     		beq	.L26
 439 0020 7B68     		ldr	r3, [r7, #4]
 440 0022 1B78     		ldrb	r3, [r3]	@ zero_extendqisi2
 441 0024 022B     		cmp	r3, #2
 442 0026 02D0     		beq	.L26
 443 0028 0748     		ldr	r0, .L27
 444 002a FFF7FEFF 		bl	chSysHalt
 445              	.L26:
 446 002e 7868     		ldr	r0, [r7, #4]
 447 0030 FFF7FEFF 		bl	adc_lld_stop
 448 0034 7B68     		ldr	r3, [r7, #4]
 449 0036 0122     		movs	r2, #1
 450 0038 1A70     		strb	r2, [r3]
 451 003a FFF7FEFF 		bl	osalSysUnlock
 452 003e 00BF     		nop
 453 0040 0837     		adds	r7, r7, #8
 454 0042 BD46     		mov	sp, r7
 455              		@ sp needed
 456 0044 80BD     		pop	{r7, pc}
ARM GAS  /var/folders/d2/nstgp4h54kz7g1l847x_b8wc0000gn/T//ccCXkMqz.s 			page 9


 457              	.L28:
 458 0046 00BF     		.align	2
 459              	.L27:
 460 0048 00000000 		.word	__func__.9852
 461              		.size	adcStop, .-adcStop
 462              		.section	.text.adcStartConversion,"ax",%progbits
 463              		.align	1
 464              		.global	adcStartConversion
 465              		.syntax unified
 466              		.thumb
 467              		.thumb_func
 468              		.fpu fpv4-sp-d16
 469              		.type	adcStartConversion, %function
 470              	adcStartConversion:
 471              		@ args = 0, pretend = 0, frame = 16
 472              		@ frame_needed = 1, uses_anonymous_args = 0
 473 0000 80B5     		push	{r7, lr}
 474 0002 84B0     		sub	sp, sp, #16
 475 0004 00AF     		add	r7, sp, #0
 476 0006 F860     		str	r0, [r7, #12]
 477 0008 B960     		str	r1, [r7, #8]
 478 000a 7A60     		str	r2, [r7, #4]
 479 000c 3B60     		str	r3, [r7]
 480 000e FFF7FEFF 		bl	osalSysLock
 481 0012 3B68     		ldr	r3, [r7]
 482 0014 7A68     		ldr	r2, [r7, #4]
 483 0016 B968     		ldr	r1, [r7, #8]
 484 0018 F868     		ldr	r0, [r7, #12]
 485 001a FFF7FEFF 		bl	adcStartConversionI
 486 001e FFF7FEFF 		bl	osalSysUnlock
 487 0022 00BF     		nop
 488 0024 1037     		adds	r7, r7, #16
 489 0026 BD46     		mov	sp, r7
 490              		@ sp needed
 491 0028 80BD     		pop	{r7, pc}
 492              		.size	adcStartConversion, .-adcStartConversion
 493              		.section	.text.adcStartConversionI,"ax",%progbits
 494              		.align	1
 495              		.global	adcStartConversionI
 496              		.syntax unified
 497              		.thumb
 498              		.thumb_func
 499              		.fpu fpv4-sp-d16
 500              		.type	adcStartConversionI, %function
 501              	adcStartConversionI:
 502              		@ args = 0, pretend = 0, frame = 16
 503              		@ frame_needed = 1, uses_anonymous_args = 0
 504 0000 80B5     		push	{r7, lr}
 505 0002 84B0     		sub	sp, sp, #16
 506 0004 00AF     		add	r7, sp, #0
 507 0006 F860     		str	r0, [r7, #12]
 508 0008 B960     		str	r1, [r7, #8]
 509 000a 7A60     		str	r2, [r7, #4]
 510 000c 3B60     		str	r3, [r7]
 511 000e FFF7FEFF 		bl	chDbgCheckClassI
 512 0012 FB68     		ldr	r3, [r7, #12]
 513 0014 002B     		cmp	r3, #0
ARM GAS  /var/folders/d2/nstgp4h54kz7g1l847x_b8wc0000gn/T//ccCXkMqz.s 			page 10


 514 0016 0DD0     		beq	.L31
 515 0018 BB68     		ldr	r3, [r7, #8]
 516 001a 002B     		cmp	r3, #0
 517 001c 0AD0     		beq	.L31
 518 001e 7B68     		ldr	r3, [r7, #4]
 519 0020 002B     		cmp	r3, #0
 520 0022 07D0     		beq	.L31
 521 0024 3B68     		ldr	r3, [r7]
 522 0026 012B     		cmp	r3, #1
 523 0028 07D0     		beq	.L34
 524 002a 3B68     		ldr	r3, [r7]
 525 002c 03F00103 		and	r3, r3, #1
 526 0030 002B     		cmp	r3, #0
 527 0032 02D0     		beq	.L34
 528              	.L31:
 529 0034 1248     		ldr	r0, .L35
 530 0036 FFF7FEFF 		bl	chSysHalt
 531              	.L34:
 532 003a FB68     		ldr	r3, [r7, #12]
 533 003c 1B78     		ldrb	r3, [r3]	@ zero_extendqisi2
 534 003e 022B     		cmp	r3, #2
 535 0040 0AD0     		beq	.L33
 536 0042 FB68     		ldr	r3, [r7, #12]
 537 0044 1B78     		ldrb	r3, [r3]	@ zero_extendqisi2
 538 0046 042B     		cmp	r3, #4
 539 0048 06D0     		beq	.L33
 540 004a FB68     		ldr	r3, [r7, #12]
 541 004c 1B78     		ldrb	r3, [r3]	@ zero_extendqisi2
 542 004e 052B     		cmp	r3, #5
 543 0050 02D0     		beq	.L33
 544 0052 0B48     		ldr	r0, .L35
 545 0054 FFF7FEFF 		bl	chSysHalt
 546              	.L33:
 547 0058 FB68     		ldr	r3, [r7, #12]
 548 005a 7A68     		ldr	r2, [r7, #4]
 549 005c 9A60     		str	r2, [r3, #8]
 550 005e FB68     		ldr	r3, [r7, #12]
 551 0060 3A68     		ldr	r2, [r7]
 552 0062 DA60     		str	r2, [r3, #12]
 553 0064 FB68     		ldr	r3, [r7, #12]
 554 0066 BA68     		ldr	r2, [r7, #8]
 555 0068 1A61     		str	r2, [r3, #16]
 556 006a FB68     		ldr	r3, [r7, #12]
 557 006c 0322     		movs	r2, #3
 558 006e 1A70     		strb	r2, [r3]
 559 0070 F868     		ldr	r0, [r7, #12]
 560 0072 FFF7FEFF 		bl	adc_lld_start_conversion
 561 0076 00BF     		nop
 562 0078 1037     		adds	r7, r7, #16
 563 007a BD46     		mov	sp, r7
 564              		@ sp needed
 565 007c 80BD     		pop	{r7, pc}
 566              	.L36:
 567 007e 00BF     		.align	2
 568              	.L35:
 569 0080 00000000 		.word	__func__.9865
 570              		.size	adcStartConversionI, .-adcStartConversionI
ARM GAS  /var/folders/d2/nstgp4h54kz7g1l847x_b8wc0000gn/T//ccCXkMqz.s 			page 11


 571              		.section	.text.adcStopConversion,"ax",%progbits
 572              		.align	1
 573              		.global	adcStopConversion
 574              		.syntax unified
 575              		.thumb
 576              		.thumb_func
 577              		.fpu fpv4-sp-d16
 578              		.type	adcStopConversion, %function
 579              	adcStopConversion:
 580              		@ args = 0, pretend = 0, frame = 8
 581              		@ frame_needed = 1, uses_anonymous_args = 0
 582 0000 80B5     		push	{r7, lr}
 583 0002 82B0     		sub	sp, sp, #8
 584 0004 00AF     		add	r7, sp, #0
 585 0006 7860     		str	r0, [r7, #4]
 586 0008 7B68     		ldr	r3, [r7, #4]
 587 000a 002B     		cmp	r3, #0
 588 000c 02D1     		bne	.L38
 589 000e 1548     		ldr	r0, .L41
 590 0010 FFF7FEFF 		bl	chSysHalt
 591              	.L38:
 592 0014 FFF7FEFF 		bl	osalSysLock
 593 0018 7B68     		ldr	r3, [r7, #4]
 594 001a 1B78     		ldrb	r3, [r3]	@ zero_extendqisi2
 595 001c 022B     		cmp	r3, #2
 596 001e 06D0     		beq	.L39
 597 0020 7B68     		ldr	r3, [r7, #4]
 598 0022 1B78     		ldrb	r3, [r3]	@ zero_extendqisi2
 599 0024 032B     		cmp	r3, #3
 600 0026 02D0     		beq	.L39
 601 0028 0E48     		ldr	r0, .L41
 602 002a FFF7FEFF 		bl	chSysHalt
 603              	.L39:
 604 002e 7B68     		ldr	r3, [r7, #4]
 605 0030 1B78     		ldrb	r3, [r3]	@ zero_extendqisi2
 606 0032 022B     		cmp	r3, #2
 607 0034 0FD0     		beq	.L40
 608 0036 7868     		ldr	r0, [r7, #4]
 609 0038 FFF7FEFF 		bl	adc_lld_stop_conversion
 610 003c 7B68     		ldr	r3, [r7, #4]
 611 003e 0022     		movs	r2, #0
 612 0040 1A61     		str	r2, [r3, #16]
 613 0042 7B68     		ldr	r3, [r7, #4]
 614 0044 0222     		movs	r2, #2
 615 0046 1A70     		strb	r2, [r3]
 616 0048 7B68     		ldr	r3, [r7, #4]
 617 004a 1433     		adds	r3, r3, #20
 618 004c 6FF00101 		mvn	r1, #1
 619 0050 1846     		mov	r0, r3
 620 0052 FFF7FEFF 		bl	osalThreadResumeS
 621              	.L40:
 622 0056 FFF7FEFF 		bl	osalSysUnlock
 623 005a 00BF     		nop
 624 005c 0837     		adds	r7, r7, #8
 625 005e BD46     		mov	sp, r7
 626              		@ sp needed
 627 0060 80BD     		pop	{r7, pc}
ARM GAS  /var/folders/d2/nstgp4h54kz7g1l847x_b8wc0000gn/T//ccCXkMqz.s 			page 12


 628              	.L42:
 629 0062 00BF     		.align	2
 630              	.L41:
 631 0064 00000000 		.word	__func__.9869
 632              		.size	adcStopConversion, .-adcStopConversion
 633              		.section	.text.adcStopConversionI,"ax",%progbits
 634              		.align	1
 635              		.global	adcStopConversionI
 636              		.syntax unified
 637              		.thumb
 638              		.thumb_func
 639              		.fpu fpv4-sp-d16
 640              		.type	adcStopConversionI, %function
 641              	adcStopConversionI:
 642              		@ args = 0, pretend = 0, frame = 8
 643              		@ frame_needed = 1, uses_anonymous_args = 0
 644 0000 80B5     		push	{r7, lr}
 645 0002 82B0     		sub	sp, sp, #8
 646 0004 00AF     		add	r7, sp, #0
 647 0006 7860     		str	r0, [r7, #4]
 648 0008 FFF7FEFF 		bl	chDbgCheckClassI
 649 000c 7B68     		ldr	r3, [r7, #4]
 650 000e 002B     		cmp	r3, #0
 651 0010 02D1     		bne	.L47
 652 0012 1548     		ldr	r0, .L49
 653 0014 FFF7FEFF 		bl	chSysHalt
 654              	.L47:
 655 0018 7B68     		ldr	r3, [r7, #4]
 656 001a 1B78     		ldrb	r3, [r3]	@ zero_extendqisi2
 657 001c 022B     		cmp	r3, #2
 658 001e 0AD0     		beq	.L45
 659 0020 7B68     		ldr	r3, [r7, #4]
 660 0022 1B78     		ldrb	r3, [r3]	@ zero_extendqisi2
 661 0024 032B     		cmp	r3, #3
 662 0026 06D0     		beq	.L45
 663 0028 7B68     		ldr	r3, [r7, #4]
 664 002a 1B78     		ldrb	r3, [r3]	@ zero_extendqisi2
 665 002c 042B     		cmp	r3, #4
 666 002e 02D0     		beq	.L45
 667 0030 0D48     		ldr	r0, .L49
 668 0032 FFF7FEFF 		bl	chSysHalt
 669              	.L45:
 670 0036 7B68     		ldr	r3, [r7, #4]
 671 0038 1B78     		ldrb	r3, [r3]	@ zero_extendqisi2
 672 003a 022B     		cmp	r3, #2
 673 003c 0FD0     		beq	.L48
 674 003e 7868     		ldr	r0, [r7, #4]
 675 0040 FFF7FEFF 		bl	adc_lld_stop_conversion
 676 0044 7B68     		ldr	r3, [r7, #4]
 677 0046 0022     		movs	r2, #0
 678 0048 1A61     		str	r2, [r3, #16]
 679 004a 7B68     		ldr	r3, [r7, #4]
 680 004c 0222     		movs	r2, #2
 681 004e 1A70     		strb	r2, [r3]
 682 0050 7B68     		ldr	r3, [r7, #4]
 683 0052 1433     		adds	r3, r3, #20
 684 0054 6FF00101 		mvn	r1, #1
ARM GAS  /var/folders/d2/nstgp4h54kz7g1l847x_b8wc0000gn/T//ccCXkMqz.s 			page 13


 685 0058 1846     		mov	r0, r3
 686 005a FFF7FEFF 		bl	osalThreadResumeI
 687              	.L48:
 688 005e 00BF     		nop
 689 0060 0837     		adds	r7, r7, #8
 690 0062 BD46     		mov	sp, r7
 691              		@ sp needed
 692 0064 80BD     		pop	{r7, pc}
 693              	.L50:
 694 0066 00BF     		.align	2
 695              	.L49:
 696 0068 00000000 		.word	__func__.9873
 697              		.size	adcStopConversionI, .-adcStopConversionI
 698              		.section	.text.adcConvert,"ax",%progbits
 699              		.align	1
 700              		.global	adcConvert
 701              		.syntax unified
 702              		.thumb
 703              		.thumb_func
 704              		.fpu fpv4-sp-d16
 705              		.type	adcConvert, %function
 706              	adcConvert:
 707              		@ args = 0, pretend = 0, frame = 24
 708              		@ frame_needed = 1, uses_anonymous_args = 0
 709 0000 80B5     		push	{r7, lr}
 710 0002 86B0     		sub	sp, sp, #24
 711 0004 00AF     		add	r7, sp, #0
 712 0006 F860     		str	r0, [r7, #12]
 713 0008 B960     		str	r1, [r7, #8]
 714 000a 7A60     		str	r2, [r7, #4]
 715 000c 3B60     		str	r3, [r7]
 716 000e FFF7FEFF 		bl	osalSysLock
 717 0012 FB68     		ldr	r3, [r7, #12]
 718 0014 5B69     		ldr	r3, [r3, #20]
 719 0016 002B     		cmp	r3, #0
 720 0018 02D0     		beq	.L52
 721 001a 0B48     		ldr	r0, .L54
 722 001c FFF7FEFF 		bl	chSysHalt
 723              	.L52:
 724 0020 3B68     		ldr	r3, [r7]
 725 0022 7A68     		ldr	r2, [r7, #4]
 726 0024 B968     		ldr	r1, [r7, #8]
 727 0026 F868     		ldr	r0, [r7, #12]
 728 0028 FFF7FEFF 		bl	adcStartConversionI
 729 002c FB68     		ldr	r3, [r7, #12]
 730 002e 1433     		adds	r3, r3, #20
 731 0030 1846     		mov	r0, r3
 732 0032 FFF7FEFF 		bl	osalThreadSuspendS
 733 0036 7861     		str	r0, [r7, #20]
 734 0038 FFF7FEFF 		bl	osalSysUnlock
 735 003c 7B69     		ldr	r3, [r7, #20]
 736 003e 1846     		mov	r0, r3
 737 0040 1837     		adds	r7, r7, #24
 738 0042 BD46     		mov	sp, r7
 739              		@ sp needed
 740 0044 80BD     		pop	{r7, pc}
 741              	.L55:
ARM GAS  /var/folders/d2/nstgp4h54kz7g1l847x_b8wc0000gn/T//ccCXkMqz.s 			page 14


 742 0046 00BF     		.align	2
 743              	.L54:
 744 0048 00000000 		.word	__func__.9881
 745              		.size	adcConvert, .-adcConvert
 746              		.section	.text.adcAcquireBus,"ax",%progbits
 747              		.align	1
 748              		.global	adcAcquireBus
 749              		.syntax unified
 750              		.thumb
 751              		.thumb_func
 752              		.fpu fpv4-sp-d16
 753              		.type	adcAcquireBus, %function
 754              	adcAcquireBus:
 755              		@ args = 0, pretend = 0, frame = 8
 756              		@ frame_needed = 1, uses_anonymous_args = 0
 757 0000 80B5     		push	{r7, lr}
 758 0002 82B0     		sub	sp, sp, #8
 759 0004 00AF     		add	r7, sp, #0
 760 0006 7860     		str	r0, [r7, #4]
 761 0008 7B68     		ldr	r3, [r7, #4]
 762 000a 002B     		cmp	r3, #0
 763 000c 02D1     		bne	.L57
 764 000e 0648     		ldr	r0, .L58
 765 0010 FFF7FEFF 		bl	chSysHalt
 766              	.L57:
 767 0014 7B68     		ldr	r3, [r7, #4]
 768 0016 1833     		adds	r3, r3, #24
 769 0018 1846     		mov	r0, r3
 770 001a FFF7FEFF 		bl	osalMutexLock
 771 001e 00BF     		nop
 772 0020 0837     		adds	r7, r7, #8
 773 0022 BD46     		mov	sp, r7
 774              		@ sp needed
 775 0024 80BD     		pop	{r7, pc}
 776              	.L59:
 777 0026 00BF     		.align	2
 778              	.L58:
 779 0028 00000000 		.word	__func__.9885
 780              		.size	adcAcquireBus, .-adcAcquireBus
 781              		.section	.text.adcReleaseBus,"ax",%progbits
 782              		.align	1
 783              		.global	adcReleaseBus
 784              		.syntax unified
 785              		.thumb
 786              		.thumb_func
 787              		.fpu fpv4-sp-d16
 788              		.type	adcReleaseBus, %function
 789              	adcReleaseBus:
 790              		@ args = 0, pretend = 0, frame = 8
 791              		@ frame_needed = 1, uses_anonymous_args = 0
 792 0000 80B5     		push	{r7, lr}
 793 0002 82B0     		sub	sp, sp, #8
 794 0004 00AF     		add	r7, sp, #0
 795 0006 7860     		str	r0, [r7, #4]
 796 0008 7B68     		ldr	r3, [r7, #4]
 797 000a 002B     		cmp	r3, #0
 798 000c 02D1     		bne	.L61
ARM GAS  /var/folders/d2/nstgp4h54kz7g1l847x_b8wc0000gn/T//ccCXkMqz.s 			page 15


 799 000e 0648     		ldr	r0, .L62
 800 0010 FFF7FEFF 		bl	chSysHalt
 801              	.L61:
 802 0014 7B68     		ldr	r3, [r7, #4]
 803 0016 1833     		adds	r3, r3, #24
 804 0018 1846     		mov	r0, r3
 805 001a FFF7FEFF 		bl	osalMutexUnlock
 806 001e 00BF     		nop
 807 0020 0837     		adds	r7, r7, #8
 808 0022 BD46     		mov	sp, r7
 809              		@ sp needed
 810 0024 80BD     		pop	{r7, pc}
 811              	.L63:
 812 0026 00BF     		.align	2
 813              	.L62:
 814 0028 00000000 		.word	__func__.9889
 815              		.size	adcReleaseBus, .-adcReleaseBus
 816              		.section	.rodata.__func__.9848,"a",%progbits
 817              		.align	2
 818              		.type	__func__.9848, %object
 819              		.size	__func__.9848, 9
 820              	__func__.9848:
 821 0000 61646353 		.ascii	"adcStart\000"
 821      74617274 
 821      00
 822              		.section	.rodata.__func__.7153,"a",%progbits
 823              		.align	2
 824              		.type	__func__.7153, %object
 825              		.size	__func__.7153, 12
 826              	__func__.7153:
 827 0000 63685379 		.ascii	"chSysUnlock\000"
 827      73556E6C 
 827      6F636B00 
 828              		.section	.rodata.__func__.9852,"a",%progbits
 829              		.align	2
 830              		.type	__func__.9852, %object
 831              		.size	__func__.9852, 8
 832              	__func__.9852:
 833 0000 61646353 		.ascii	"adcStop\000"
 833      746F7000 
 834              		.section	.rodata.__func__.9865,"a",%progbits
 835              		.align	2
 836              		.type	__func__.9865, %object
 837              		.size	__func__.9865, 20
 838              	__func__.9865:
 839 0000 61646353 		.ascii	"adcStartConversionI\000"
 839      74617274 
 839      436F6E76 
 839      65727369 
 839      6F6E4900 
 840              		.section	.rodata.__func__.9869,"a",%progbits
 841              		.align	2
 842              		.type	__func__.9869, %object
 843              		.size	__func__.9869, 18
 844              	__func__.9869:
 845 0000 61646353 		.ascii	"adcStopConversion\000"
 845      746F7043 
ARM GAS  /var/folders/d2/nstgp4h54kz7g1l847x_b8wc0000gn/T//ccCXkMqz.s 			page 16


 845      6F6E7665 
 845      7273696F 
 845      6E00
 846              		.section	.rodata.__func__.9873,"a",%progbits
 847              		.align	2
 848              		.type	__func__.9873, %object
 849              		.size	__func__.9873, 19
 850              	__func__.9873:
 851 0000 61646353 		.ascii	"adcStopConversionI\000"
 851      746F7043 
 851      6F6E7665 
 851      7273696F 
 851      6E4900
 852              		.section	.rodata.__func__.9881,"a",%progbits
 853              		.align	2
 854              		.type	__func__.9881, %object
 855              		.size	__func__.9881, 11
 856              	__func__.9881:
 857 0000 61646343 		.ascii	"adcConvert\000"
 857      6F6E7665 
 857      727400
 858              		.section	.rodata.__func__.9885,"a",%progbits
 859              		.align	2
 860              		.type	__func__.9885, %object
 861              		.size	__func__.9885, 14
 862              	__func__.9885:
 863 0000 61646341 		.ascii	"adcAcquireBus\000"
 863      63717569 
 863      72654275 
 863      7300
 864              		.section	.rodata.__func__.9889,"a",%progbits
 865              		.align	2
 866              		.type	__func__.9889, %object
 867              		.size	__func__.9889, 14
 868              	__func__.9889:
 869 0000 61646352 		.ascii	"adcReleaseBus\000"
 869      656C6561 
 869      73654275 
 869      7300
 870              		.ident	"GCC: (GNU Tools for Arm Embedded Processors 7-2017-q4-major) 7.2.1 20170904 (release) [ARM
ARM GAS  /var/folders/d2/nstgp4h54kz7g1l847x_b8wc0000gn/T//ccCXkMqz.s 			page 17

