ARM GAS  /var/folders/d2/nstgp4h54kz7g1l847x_b8wc0000gn/T//cc9CKuMh.s 			page 1


   1              		.cpu cortex-m4
   2              		.eabi_attribute 27, 1
   3              		.eabi_attribute 28, 1
   4              		.eabi_attribute 20, 1
   5              		.eabi_attribute 21, 1
   6              		.eabi_attribute 23, 3
   7              		.eabi_attribute 24, 1
   8              		.eabi_attribute 25, 1
   9              		.eabi_attribute 26, 1
  10              		.eabi_attribute 30, 2
  11              		.eabi_attribute 34, 1
  12              		.eabi_attribute 18, 4
  13              		.file	"adc_lld.c"
  14              		.text
  15              	.Ltext0:
  16              		.cfi_sections	.debug_frame
  17              		.section	.text.adc_lld_init,"ax",%progbits
  18              		.align	1
  19              		.p2align 4,,15
  20              		.global	adc_lld_init
  21              		.syntax unified
  22              		.thumb
  23              		.thumb_func
  24              		.fpu fpv4-sp-d16
  25              		.type	adc_lld_init, %function
  26              	adc_lld_init:
  27              	.LFB258:
  28              		.file 1 "../e-puck2_main-processor/ChibiOS//os/hal/ports/STM32/STM32F4xx/adc_lld.c"
  29              		.loc 1 170 0
  30              		.cfi_startproc
  31              		@ args = 0, pretend = 0, frame = 8
  32              		@ frame_needed = 0, uses_anonymous_args = 0
  33 0000 2DE9F041 		push	{r4, r5, r6, r7, r8, lr}
  34              		.cfi_def_cfa_offset 24
  35              		.cfi_offset 4, -24
  36              		.cfi_offset 5, -20
  37              		.cfi_offset 6, -16
  38              		.cfi_offset 7, -12
  39              		.cfi_offset 8, -8
  40              		.cfi_offset 14, -4
  41              		.loc 1 174 0
  42 0004 194F     		ldr	r7, .L7
  43              		.loc 1 170 0
  44 0006 DFF88C80 		ldr	r8, .L7+40
  45              		.loc 1 187 0
  46 000a 194E     		ldr	r6, .L7+4
  47              		.loc 1 170 0
  48 000c D8F80030 		ldr	r3, [r8]
  49              		.loc 1 176 0
  50 0010 184C     		ldr	r4, .L7+8
  51              		.loc 1 200 0
  52 0012 194D     		ldr	r5, .L7+12
  53              		.loc 1 170 0
  54 0014 82B0     		sub	sp, sp, #8
  55              		.cfi_def_cfa_offset 32
  56              		.loc 1 174 0
  57 0016 3846     		mov	r0, r7
ARM GAS  /var/folders/d2/nstgp4h54kz7g1l847x_b8wc0000gn/T//cc9CKuMh.s 			page 2


  58              		.loc 1 170 0
  59 0018 0193     		str	r3, [sp, #4]
  60              		.loc 1 174 0
  61 001a FFF7FEFF 		bl	adcObjectInit
  62              	.LVL0:
  63              		.loc 1 175 0
  64 001e 174B     		ldr	r3, .L7+16
  65 0020 FB62     		str	r3, [r7, #44]
  66              		.loc 1 187 0
  67 0022 3046     		mov	r0, r6
  68              		.loc 1 177 0
  69 0024 164B     		ldr	r3, .L7+20
  70 0026 7B63     		str	r3, [r7, #52]
  71              		.loc 1 176 0
  72 0028 3C63     		str	r4, [r7, #48]
  73              		.loc 1 187 0
  74 002a FFF7FEFF 		bl	adcObjectInit
  75              	.LVL1:
  76              		.loc 1 188 0
  77 002e 154A     		ldr	r2, .L7+24
  78              		.loc 1 190 0
  79 0030 154B     		ldr	r3, .L7+28
  80              		.loc 1 188 0
  81 0032 F262     		str	r2, [r6, #44]
  82              		.loc 1 200 0
  83 0034 2846     		mov	r0, r5
  84              		.loc 1 189 0
  85 0036 A4F11802 		sub	r2, r4, #24
  86 003a 3263     		str	r2, [r6, #48]
  87              		.loc 1 190 0
  88 003c 7363     		str	r3, [r6, #52]
  89              		.loc 1 200 0
  90 003e FFF7FEFF 		bl	adcObjectInit
  91              	.LVL2:
  92              		.loc 1 213 0
  93 0042 019A     		ldr	r2, [sp, #4]
  94 0044 D8F80030 		ldr	r3, [r8]
  95              		.loc 1 203 0
  96 0048 1049     		ldr	r1, .L7+32
  97              		.loc 1 201 0
  98 004a 1148     		ldr	r0, .L7+36
  99 004c E862     		str	r0, [r5, #44]
 100              		.loc 1 202 0
 101 004e 243C     		subs	r4, r4, #36
 102              		.loc 1 213 0
 103 0050 9A42     		cmp	r2, r3
 104              		.loc 1 203 0
 105 0052 C5E90C41 		strd	r4, r1, [r5, #48]
 106              		.loc 1 213 0
 107 0056 06D1     		bne	.L6
 108 0058 0621     		movs	r1, #6
 109 005a 1220     		movs	r0, #18
 110              		.loc 1 214 0
 111 005c 02B0     		add	sp, sp, #8
 112              		.cfi_remember_state
 113              		.cfi_def_cfa_offset 24
 114              		@ sp needed
ARM GAS  /var/folders/d2/nstgp4h54kz7g1l847x_b8wc0000gn/T//cc9CKuMh.s 			page 3


 115 005e BDE8F041 		pop	{r4, r5, r6, r7, r8, lr}
 116              		.cfi_restore 14
 117              		.cfi_restore 8
 118              		.cfi_restore 7
 119              		.cfi_restore 6
 120              		.cfi_restore 5
 121              		.cfi_restore 4
 122              		.cfi_def_cfa_offset 0
 123              		.loc 1 213 0
 124 0062 FFF7FEBF 		b	nvicEnableVector
 125              	.LVL3:
 126              	.L6:
 127              		.cfi_restore_state
 128 0066 FFF7FEFF 		bl	__stack_chk_fail
 129              	.LVL4:
 130              	.L8:
 131 006a 00BF     		.align	2
 132              	.L7:
 133 006c 00000000 		.word	.LANCHOR0
 134 0070 00000000 		.word	.LANCHOR1
 135 0074 90000000 		.word	_stm32_dma_streams+144
 136 0078 00000000 		.word	.LANCHOR2
 137 007c 00200140 		.word	1073815552
 138 0080 162C0200 		.word	142358
 139 0084 00210140 		.word	1073815808
 140 0088 162C0202 		.word	33696790
 141 008c 162C0204 		.word	67251222
 142 0090 00220140 		.word	1073816064
 143 0094 00000000 		.word	__stack_chk_guard
 144              		.cfi_endproc
 145              	.LFE258:
 146              		.size	adc_lld_init, .-adc_lld_init
 147              		.section	.text.adc_lld_start,"ax",%progbits
 148              		.align	1
 149              		.p2align 4,,15
 150              		.global	adc_lld_start
 151              		.syntax unified
 152              		.thumb
 153              		.thumb_func
 154              		.fpu fpv4-sp-d16
 155              		.type	adc_lld_start, %function
 156              	adc_lld_start:
 157              	.LFB259:
 158              		.loc 1 223 0
 159              		.cfi_startproc
 160              		@ args = 0, pretend = 0, frame = 8
 161              		@ frame_needed = 0, uses_anonymous_args = 0
 162              	.LVL5:
 163 0000 70B5     		push	{r4, r5, r6, lr}
 164              		.cfi_def_cfa_offset 16
 165              		.cfi_offset 4, -16
 166              		.cfi_offset 5, -12
 167              		.cfi_offset 6, -8
 168              		.cfi_offset 14, -4
 169 0002 344D     		ldr	r5, .L36
 170              		.loc 1 226 0
 171 0004 0378     		ldrb	r3, [r0]	@ zero_extendqisi2
ARM GAS  /var/folders/d2/nstgp4h54kz7g1l847x_b8wc0000gn/T//cc9CKuMh.s 			page 4


 172              		.loc 1 223 0
 173 0006 2A68     		ldr	r2, [r5]
 174 0008 82B0     		sub	sp, sp, #8
 175              		.cfi_def_cfa_offset 24
 176              		.loc 1 226 0
 177 000a 012B     		cmp	r3, #1
 178              		.loc 1 223 0
 179 000c 0192     		str	r2, [sp, #4]
 180              		.loc 1 226 0
 181 000e 05D0     		beq	.L28
 182              	.LVL6:
 183              	.L9:
 184              		.loc 1 277 0
 185 0010 019A     		ldr	r2, [sp, #4]
 186 0012 2B68     		ldr	r3, [r5]
 187 0014 9A42     		cmp	r2, r3
 188 0016 5BD1     		bne	.L29
 189 0018 02B0     		add	sp, sp, #8
 190              		.cfi_remember_state
 191              		.cfi_def_cfa_offset 16
 192              		@ sp needed
 193 001a 70BD     		pop	{r4, r5, r6, pc}
 194              	.LVL7:
 195              	.L28:
 196              		.cfi_restore_state
 197              		.loc 1 228 0
 198 001c 2E4E     		ldr	r6, .L36+4
 199 001e B042     		cmp	r0, r6
 200 0020 0446     		mov	r4, r0
 201 0022 38D0     		beq	.L30
 202              		.loc 1 241 0
 203 0024 2D4E     		ldr	r6, .L36+8
 204 0026 B042     		cmp	r0, r6
 205 0028 24D0     		beq	.L31
 206              		.loc 1 254 0
 207 002a 2D4E     		ldr	r6, .L36+12
 208 002c B042     		cmp	r0, r6
 209 002e 0FD0     		beq	.L32
 210              	.LVL8:
 211              	.L13:
 212              		.loc 1 268 0
 213 0030 2C4A     		ldr	r2, .L36+16
 214 0032 5368     		ldr	r3, [r2, #4]
 215 0034 03F44003 		and	r3, r3, #12582912
 216 0038 43F44033 		orr	r3, r3, #196608
 217 003c 5360     		str	r3, [r2, #4]
 218              		.loc 1 273 0
 219 003e E26A     		ldr	r2, [r4, #44]
 220 0040 0023     		movs	r3, #0
 221 0042 5360     		str	r3, [r2, #4]
 222              		.loc 1 274 0
 223 0044 E26A     		ldr	r2, [r4, #44]
 224 0046 9360     		str	r3, [r2, #8]
 225              		.loc 1 275 0
 226 0048 E36A     		ldr	r3, [r4, #44]
 227 004a 0122     		movs	r2, #1
 228 004c 9A60     		str	r2, [r3, #8]
ARM GAS  /var/folders/d2/nstgp4h54kz7g1l847x_b8wc0000gn/T//cc9CKuMh.s 			page 5


 229              		.loc 1 277 0
 230 004e DFE7     		b	.L9
 231              	.LVL9:
 232              	.L32:
 233              	.LBB160:
 234              		.loc 1 256 0
 235 0050 0346     		mov	r3, r0
 236 0052 254A     		ldr	r2, .L36+20
 237 0054 006B     		ldr	r0, [r0, #48]
 238              	.LVL10:
 239 0056 0621     		movs	r1, #6
 240 0058 FFF7FEFF 		bl	dmaStreamAllocate
 241              	.LVL11:
 242              		.loc 1 260 0
 243 005c 0028     		cmp	r0, #0
 244 005e 33D1     		bne	.L33
 245              	.LVL12:
 246              	.L16:
 247              		.loc 1 261 0
 248 0060 336B     		ldr	r3, [r6, #48]
 249              		.loc 1 262 0
 250 0062 224A     		ldr	r2, .L36+24
 251              		.loc 1 261 0
 252 0064 1B68     		ldr	r3, [r3]
 253 0066 2249     		ldr	r1, .L36+28
 254 0068 9960     		str	r1, [r3, #8]
 255              		.loc 1 262 0
 256 006a 536C     		ldr	r3, [r2, #68]
 257 006c 43F48063 		orr	r3, r3, #1024
 258 0070 5364     		str	r3, [r2, #68]
 259 0072 DDE7     		b	.L13
 260              	.LVL13:
 261              	.L31:
 262              	.LBE160:
 263              	.LBB161:
 264              		.loc 1 243 0
 265 0074 0346     		mov	r3, r0
 266 0076 1C4A     		ldr	r2, .L36+20
 267 0078 006B     		ldr	r0, [r0, #48]
 268              	.LVL14:
 269 007a 0621     		movs	r1, #6
 270 007c FFF7FEFF 		bl	dmaStreamAllocate
 271              	.LVL15:
 272              		.loc 1 247 0
 273 0080 F0B9     		cbnz	r0, .L34
 274              	.LVL16:
 275              	.L15:
 276              		.loc 1 248 0
 277 0082 336B     		ldr	r3, [r6, #48]
 278              		.loc 1 249 0
 279 0084 194A     		ldr	r2, .L36+24
 280              		.loc 1 248 0
 281 0086 1B68     		ldr	r3, [r3]
 282 0088 1A49     		ldr	r1, .L36+32
 283 008a 9960     		str	r1, [r3, #8]
 284              		.loc 1 249 0
 285 008c 536C     		ldr	r3, [r2, #68]
ARM GAS  /var/folders/d2/nstgp4h54kz7g1l847x_b8wc0000gn/T//cc9CKuMh.s 			page 6


 286 008e 43F40073 		orr	r3, r3, #512
 287 0092 5364     		str	r3, [r2, #68]
 288 0094 CCE7     		b	.L13
 289              	.LVL17:
 290              	.L30:
 291              	.LBE161:
 292              	.LBB162:
 293              		.loc 1 230 0
 294 0096 0346     		mov	r3, r0
 295 0098 134A     		ldr	r2, .L36+20
 296 009a 006B     		ldr	r0, [r0, #48]
 297              	.LVL18:
 298 009c 0621     		movs	r1, #6
 299 009e FFF7FEFF 		bl	dmaStreamAllocate
 300              	.LVL19:
 301              		.loc 1 234 0
 302 00a2 48B9     		cbnz	r0, .L35
 303              	.LVL20:
 304              	.L12:
 305              		.loc 1 235 0
 306 00a4 336B     		ldr	r3, [r6, #48]
 307              		.loc 1 236 0
 308 00a6 114A     		ldr	r2, .L36+24
 309              		.loc 1 235 0
 310 00a8 1B68     		ldr	r3, [r3]
 311 00aa 1349     		ldr	r1, .L36+36
 312 00ac 9960     		str	r1, [r3, #8]
 313              		.loc 1 236 0
 314 00ae 536C     		ldr	r3, [r2, #68]
 315 00b0 43F48073 		orr	r3, r3, #256
 316 00b4 5364     		str	r3, [r2, #68]
 317 00b6 BBE7     		b	.L13
 318              	.LVL21:
 319              	.L35:
 320              		.loc 1 234 0 discriminator 2
 321 00b8 1048     		ldr	r0, .L36+40
 322              	.LVL22:
 323 00ba FFF7FEFF 		bl	chSysHalt
 324              	.LVL23:
 325 00be F1E7     		b	.L12
 326              	.LVL24:
 327              	.L34:
 328              	.LBE162:
 329              	.LBB163:
 330              		.loc 1 247 0 discriminator 2
 331 00c0 0E48     		ldr	r0, .L36+40
 332              	.LVL25:
 333 00c2 FFF7FEFF 		bl	chSysHalt
 334              	.LVL26:
 335 00c6 DCE7     		b	.L15
 336              	.LVL27:
 337              	.L33:
 338              	.LBE163:
 339              	.LBB164:
 340              		.loc 1 260 0 discriminator 2
 341 00c8 0C48     		ldr	r0, .L36+40
 342              	.LVL28:
ARM GAS  /var/folders/d2/nstgp4h54kz7g1l847x_b8wc0000gn/T//cc9CKuMh.s 			page 7


 343 00ca FFF7FEFF 		bl	chSysHalt
 344              	.LVL29:
 345 00ce C7E7     		b	.L16
 346              	.LVL30:
 347              	.L29:
 348              	.LBE164:
 349              		.loc 1 277 0
 350 00d0 FFF7FEFF 		bl	__stack_chk_fail
 351              	.LVL31:
 352              	.L37:
 353              		.align	2
 354              	.L36:
 355 00d4 00000000 		.word	__stack_chk_guard
 356 00d8 00000000 		.word	.LANCHOR0
 357 00dc 00000000 		.word	.LANCHOR1
 358 00e0 00000000 		.word	.LANCHOR2
 359 00e4 00230140 		.word	1073816320
 360 00e8 00000000 		.word	adc_lld_serve_rx_interrupt
 361 00ec 00380240 		.word	1073887232
 362 00f0 4C220140 		.word	1073816140
 363 00f4 4C210140 		.word	1073815884
 364 00f8 4C200140 		.word	1073815628
 365 00fc 00000000 		.word	.LANCHOR3
 366              		.cfi_endproc
 367              	.LFE259:
 368              		.size	adc_lld_start, .-adc_lld_start
 369              		.section	.text.adc_lld_stop,"ax",%progbits
 370              		.align	1
 371              		.p2align 4,,15
 372              		.global	adc_lld_stop
 373              		.syntax unified
 374              		.thumb
 375              		.thumb_func
 376              		.fpu fpv4-sp-d16
 377              		.type	adc_lld_stop, %function
 378              	adc_lld_stop:
 379              	.LFB260:
 380              		.loc 1 286 0
 381              		.cfi_startproc
 382              		@ args = 0, pretend = 0, frame = 8
 383              		@ frame_needed = 0, uses_anonymous_args = 0
 384              	.LVL32:
 385 0000 30B5     		push	{r4, r5, lr}
 386              		.cfi_def_cfa_offset 12
 387              		.cfi_offset 4, -12
 388              		.cfi_offset 5, -8
 389              		.cfi_offset 14, -4
 390 0002 194D     		ldr	r5, .L50
 391              		.loc 1 289 0
 392 0004 0378     		ldrb	r3, [r0]	@ zero_extendqisi2
 393              		.loc 1 286 0
 394 0006 2A68     		ldr	r2, [r5]
 395 0008 83B0     		sub	sp, sp, #12
 396              		.cfi_def_cfa_offset 24
 397              		.loc 1 289 0
 398 000a 022B     		cmp	r3, #2
 399              		.loc 1 286 0
ARM GAS  /var/folders/d2/nstgp4h54kz7g1l847x_b8wc0000gn/T//cc9CKuMh.s 			page 8


 400 000c 0192     		str	r2, [sp, #4]
 401              		.loc 1 289 0
 402 000e 05D0     		beq	.L46
 403              	.LVL33:
 404              	.L38:
 405              		.loc 1 309 0
 406 0010 019A     		ldr	r2, [sp, #4]
 407 0012 2B68     		ldr	r3, [r5]
 408 0014 9A42     		cmp	r2, r3
 409 0016 25D1     		bne	.L47
 410 0018 03B0     		add	sp, sp, #12
 411              		.cfi_remember_state
 412              		.cfi_def_cfa_offset 12
 413              		@ sp needed
 414 001a 30BD     		pop	{r4, r5, pc}
 415              	.LVL34:
 416              	.L46:
 417              		.cfi_restore_state
 418 001c 0446     		mov	r4, r0
 419              		.loc 1 290 0
 420 001e 006B     		ldr	r0, [r0, #48]
 421              	.LVL35:
 422 0020 FFF7FEFF 		bl	dmaStreamRelease
 423              	.LVL36:
 424              		.loc 1 291 0
 425 0024 E16A     		ldr	r1, [r4, #44]
 426              		.loc 1 295 0
 427 0026 114A     		ldr	r2, .L50+4
 428              		.loc 1 291 0
 429 0028 0023     		movs	r3, #0
 430 002a 4B60     		str	r3, [r1, #4]
 431              		.loc 1 292 0
 432 002c E16A     		ldr	r1, [r4, #44]
 433              		.loc 1 295 0
 434 002e 9442     		cmp	r4, r2
 435              		.loc 1 292 0
 436 0030 8B60     		str	r3, [r1, #8]
 437              		.loc 1 295 0
 438 0032 0BD0     		beq	.L48
 439              		.loc 1 300 0
 440 0034 0E4B     		ldr	r3, .L50+8
 441 0036 9C42     		cmp	r4, r3
 442 0038 0ED0     		beq	.L49
 443              		.loc 1 305 0
 444 003a 0E4B     		ldr	r3, .L50+12
 445 003c 9C42     		cmp	r4, r3
 446 003e E7D1     		bne	.L38
 447              		.loc 1 306 0
 448 0040 0D4A     		ldr	r2, .L50+16
 449 0042 536C     		ldr	r3, [r2, #68]
 450 0044 23F48063 		bic	r3, r3, #1024
 451 0048 5364     		str	r3, [r2, #68]
 452              		.loc 1 309 0
 453 004a E1E7     		b	.L38
 454              	.L48:
 455              		.loc 1 296 0
 456 004c 0A4A     		ldr	r2, .L50+16
ARM GAS  /var/folders/d2/nstgp4h54kz7g1l847x_b8wc0000gn/T//cc9CKuMh.s 			page 9


 457 004e 536C     		ldr	r3, [r2, #68]
 458 0050 23F48073 		bic	r3, r3, #256
 459 0054 5364     		str	r3, [r2, #68]
 460 0056 DBE7     		b	.L38
 461              	.L49:
 462              		.loc 1 301 0
 463 0058 074A     		ldr	r2, .L50+16
 464 005a 536C     		ldr	r3, [r2, #68]
 465 005c 23F40073 		bic	r3, r3, #512
 466 0060 5364     		str	r3, [r2, #68]
 467 0062 D5E7     		b	.L38
 468              	.LVL37:
 469              	.L47:
 470              		.loc 1 309 0
 471 0064 FFF7FEFF 		bl	__stack_chk_fail
 472              	.LVL38:
 473              	.L51:
 474              		.align	2
 475              	.L50:
 476 0068 00000000 		.word	__stack_chk_guard
 477 006c 00000000 		.word	.LANCHOR0
 478 0070 00000000 		.word	.LANCHOR1
 479 0074 00000000 		.word	.LANCHOR2
 480 0078 00380240 		.word	1073887232
 481              		.cfi_endproc
 482              	.LFE260:
 483              		.size	adc_lld_stop, .-adc_lld_stop
 484              		.section	.text.adc_lld_start_conversion,"ax",%progbits
 485              		.align	1
 486              		.p2align 4,,15
 487              		.global	adc_lld_start_conversion
 488              		.syntax unified
 489              		.thumb
 490              		.thumb_func
 491              		.fpu fpv4-sp-d16
 492              		.type	adc_lld_start_conversion, %function
 493              	adc_lld_start_conversion:
 494              	.LFB261:
 495              		.loc 1 318 0
 496              		.cfi_startproc
 497              		@ args = 0, pretend = 0, frame = 8
 498              		@ frame_needed = 0, uses_anonymous_args = 0
 499              	.LVL39:
 500 0000 70B5     		push	{r4, r5, r6, lr}
 501              		.cfi_def_cfa_offset 16
 502              		.cfi_offset 4, -16
 503              		.cfi_offset 5, -12
 504              		.cfi_offset 6, -8
 505              		.cfi_offset 14, -4
 506              		.loc 1 321 0
 507 0002 0369     		ldr	r3, [r0, #16]
 508              	.LVL40:
 509              		.loc 1 318 0
 510 0004 2C49     		ldr	r1, .L64
 511              		.loc 1 325 0
 512 0006 1A78     		ldrb	r2, [r3]	@ zero_extendqisi2
 513              		.loc 1 318 0
ARM GAS  /var/folders/d2/nstgp4h54kz7g1l847x_b8wc0000gn/T//cc9CKuMh.s 			page 10


 514 0008 0C68     		ldr	r4, [r1]
 515 000a 82B0     		sub	sp, sp, #8
 516              		.cfi_def_cfa_offset 24
 517              		.loc 1 318 0
 518 000c 0194     		str	r4, [sp, #4]
 519              		.loc 1 324 0
 520 000e 446B     		ldr	r4, [r0, #52]
 521              	.LVL41:
 522              		.loc 1 325 0
 523 0010 32B1     		cbz	r2, .L53
 524              	.LVL42:
 525              		.loc 1 327 0
 526 0012 C268     		ldr	r2, [r0, #12]
 527 0014 012A     		cmp	r2, #1
 528              		.loc 1 326 0
 529 0016 94BF     		ite	ls
 530 0018 44F48074 		orrls	r4, r4, #256
 531              	.LVL43:
 532              		.loc 1 330 0
 533 001c 44F48474 		orrhi	r4, r4, #264
 534              	.LVL44:
 535              	.L53:
 536              		.loc 1 333 0
 537 0020 026B     		ldr	r2, [r0, #48]
 538 0022 8568     		ldr	r5, [r0, #8]
 539 0024 1268     		ldr	r2, [r2]
 540 0026 D560     		str	r5, [r2, #12]
 541              		.loc 1 334 0
 542 0028 056B     		ldr	r5, [r0, #48]
 543 002a 5E88     		ldrh	r6, [r3, #2]
 544 002c C268     		ldr	r2, [r0, #12]
 545 002e 2D68     		ldr	r5, [r5]
 546 0030 02FB06F2 		mul	r2, r2, r6
 547 0034 6A60     		str	r2, [r5, #4]
 548              		.loc 1 336 0
 549 0036 026B     		ldr	r2, [r0, #48]
 550 0038 1268     		ldr	r2, [r2]
 551 003a 1460     		str	r4, [r2]
 552              		.loc 1 337 0
 553 003c 026B     		ldr	r2, [r0, #48]
 554 003e 1468     		ldr	r4, [r2]
 555              	.LVL45:
 556 0040 2268     		ldr	r2, [r4]
 557 0042 42F00102 		orr	r2, r2, #1
 558 0046 2260     		str	r2, [r4]
 559              		.loc 1 340 0
 560 0048 C26A     		ldr	r2, [r0, #44]
 561 004a 0024     		movs	r4, #0
 562 004c 1460     		str	r4, [r2]
 563              		.loc 1 341 0
 564 004e C26A     		ldr	r2, [r0, #44]
 565 0050 5C69     		ldr	r4, [r3, #20]
 566 0052 D460     		str	r4, [r2, #12]
 567              		.loc 1 342 0
 568 0054 C26A     		ldr	r2, [r0, #44]
 569 0056 9C69     		ldr	r4, [r3, #24]
 570 0058 1461     		str	r4, [r2, #16]
ARM GAS  /var/folders/d2/nstgp4h54kz7g1l847x_b8wc0000gn/T//cc9CKuMh.s 			page 11


 571              		.loc 1 343 0
 572 005a C26A     		ldr	r2, [r0, #44]
 573 005c DC69     		ldr	r4, [r3, #28]
 574 005e D462     		str	r4, [r2, #44]
 575              		.loc 1 344 0
 576 0060 C26A     		ldr	r2, [r0, #44]
 577 0062 1C6A     		ldr	r4, [r3, #32]
 578 0064 1463     		str	r4, [r2, #48]
 579              		.loc 1 345 0
 580 0066 C26A     		ldr	r2, [r0, #44]
 581 0068 5C6A     		ldr	r4, [r3, #36]
 582 006a 5463     		str	r4, [r2, #52]
 583              		.loc 1 348 0
 584 006c DA68     		ldr	r2, [r3, #12]
 585 006e C46A     		ldr	r4, [r0, #44]
 586 0070 42F08062 		orr	r2, r2, #67108864
 587 0074 42F48072 		orr	r2, r2, #256
 588 0078 6260     		str	r2, [r4, #4]
 589              		.loc 1 351 0
 590 007a 1B69     		ldr	r3, [r3, #16]
 591              	.LVL46:
 592              		.loc 1 355 0
 593 007c 5A00     		lsls	r2, r3, #1
 594 007e 0BD4     		bmi	.L62
 595              		.loc 1 351 0
 596 0080 43F44073 		orr	r3, r3, #768
 597              	.LVL47:
 598              		.loc 1 363 0
 599 0084 C26A     		ldr	r2, [r0, #44]
 600              		.loc 1 351 0
 601 0086 43F00103 		orr	r3, r3, #1
 602              		.loc 1 363 0
 603 008a 9360     		str	r3, [r2, #8]
 604              	.L52:
 605              		.loc 1 364 0
 606 008c 019A     		ldr	r2, [sp, #4]
 607 008e 0B68     		ldr	r3, [r1]
 608 0090 9A42     		cmp	r2, r3
 609 0092 0ED1     		bne	.L63
 610 0094 02B0     		add	sp, sp, #8
 611              		.cfi_remember_state
 612              		.cfi_def_cfa_offset 16
 613              		@ sp needed
 614 0096 70BD     		pop	{r4, r5, r6, pc}
 615              	.LVL48:
 616              	.L62:
 617              		.cfi_restore_state
 618              		.loc 1 357 0
 619 0098 23F08042 		bic	r2, r3, #1073741824
 620 009c 40F20334 		movw	r4, #771
 621 00a0 C56A     		ldr	r5, [r0, #44]
 622 00a2 22F00202 		bic	r2, r2, #2
 623 00a6 2243     		orrs	r2, r2, r4
 624 00a8 AA60     		str	r2, [r5, #8]
 625              		.loc 1 360 0
 626 00aa C26A     		ldr	r2, [r0, #44]
 627 00ac 2343     		orrs	r3, r3, r4
ARM GAS  /var/folders/d2/nstgp4h54kz7g1l847x_b8wc0000gn/T//cc9CKuMh.s 			page 12


 628              	.LVL49:
 629 00ae 9360     		str	r3, [r2, #8]
 630 00b0 ECE7     		b	.L52
 631              	.L63:
 632              		.loc 1 364 0
 633 00b2 FFF7FEFF 		bl	__stack_chk_fail
 634              	.LVL50:
 635              	.L65:
 636 00b6 00BF     		.align	2
 637              	.L64:
 638 00b8 00000000 		.word	__stack_chk_guard
 639              		.cfi_endproc
 640              	.LFE261:
 641              		.size	adc_lld_start_conversion, .-adc_lld_start_conversion
 642              		.section	.text.adc_lld_stop_conversion,"ax",%progbits
 643              		.align	1
 644              		.p2align 4,,15
 645              		.global	adc_lld_stop_conversion
 646              		.syntax unified
 647              		.thumb
 648              		.thumb_func
 649              		.fpu fpv4-sp-d16
 650              		.type	adc_lld_stop_conversion, %function
 651              	adc_lld_stop_conversion:
 652              	.LFB262:
 653              		.loc 1 373 0
 654              		.cfi_startproc
 655              		@ args = 0, pretend = 0, frame = 8
 656              		@ frame_needed = 0, uses_anonymous_args = 0
 657              	.LVL51:
 658 0000 30B5     		push	{r4, r5, lr}
 659              		.cfi_def_cfa_offset 12
 660              		.cfi_offset 4, -12
 661              		.cfi_offset 5, -8
 662              		.cfi_offset 14, -4
 663              		.loc 1 375 0
 664 0002 026B     		ldr	r2, [r0, #48]
 665              		.loc 1 373 0
 666 0004 114C     		ldr	r4, .L72
 667              		.loc 1 375 0
 668 0006 1268     		ldr	r2, [r2]
 669              		.loc 1 373 0
 670 0008 2368     		ldr	r3, [r4]
 671 000a 83B0     		sub	sp, sp, #12
 672              		.cfi_def_cfa_offset 24
 673              		.loc 1 373 0
 674 000c 0193     		str	r3, [sp, #4]
 675              		.loc 1 375 0
 676 000e 1368     		ldr	r3, [r2]
 677 0010 23F01F03 		bic	r3, r3, #31
 678 0014 1360     		str	r3, [r2]
 679 0016 016B     		ldr	r1, [r0, #48]
 680 0018 0A68     		ldr	r2, [r1]
 681              	.L67:
 682              		.loc 1 375 0 is_stmt 0 discriminator 2
 683 001a 1368     		ldr	r3, [r2]
 684 001c 13F00103 		ands	r3, r3, #1
ARM GAS  /var/folders/d2/nstgp4h54kz7g1l847x_b8wc0000gn/T//cc9CKuMh.s 			page 13


 685 0020 FBD1     		bne	.L67
 686              		.loc 1 375 0 discriminator 3
 687 0022 0D7A     		ldrb	r5, [r1, #8]	@ zero_extendqisi2
 688 0024 4968     		ldr	r1, [r1, #4]
 689 0026 3D22     		movs	r2, #61
 690 0028 AA40     		lsls	r2, r2, r5
 691 002a 0A60     		str	r2, [r1]
 692              		.loc 1 376 0 is_stmt 1 discriminator 3
 693 002c C26A     		ldr	r2, [r0, #44]
 694 002e 5360     		str	r3, [r2, #4]
 695              		.loc 1 377 0 discriminator 3
 696 0030 C26A     		ldr	r2, [r0, #44]
 697 0032 9360     		str	r3, [r2, #8]
 698              		.loc 1 378 0 discriminator 3
 699 0034 C36A     		ldr	r3, [r0, #44]
 700 0036 0122     		movs	r2, #1
 701 0038 9A60     		str	r2, [r3, #8]
 702              		.loc 1 379 0 discriminator 3
 703 003a 019A     		ldr	r2, [sp, #4]
 704 003c 2368     		ldr	r3, [r4]
 705 003e 9A42     		cmp	r2, r3
 706 0040 01D1     		bne	.L71
 707              		.loc 1 379 0 is_stmt 0
 708 0042 03B0     		add	sp, sp, #12
 709              		.cfi_remember_state
 710              		.cfi_def_cfa_offset 12
 711              		@ sp needed
 712 0044 30BD     		pop	{r4, r5, pc}
 713              	.L71:
 714              		.cfi_restore_state
 715 0046 FFF7FEFF 		bl	__stack_chk_fail
 716              	.LVL52:
 717              	.L73:
 718 004a 00BF     		.align	2
 719              	.L72:
 720 004c 00000000 		.word	__stack_chk_guard
 721              		.cfi_endproc
 722              	.LFE262:
 723              		.size	adc_lld_stop_conversion, .-adc_lld_stop_conversion
 724              		.section	.text.Vector88,"ax",%progbits
 725              		.align	1
 726              		.p2align 4,,15
 727              		.global	Vector88
 728              		.syntax unified
 729              		.thumb
 730              		.thumb_func
 731              		.fpu fpv4-sp-d16
 732              		.type	Vector88, %function
 733              	Vector88:
 734              	.LFB257:
 735              		.loc 1 110 0 is_stmt 1
 736              		.cfi_startproc
 737              		@ args = 0, pretend = 0, frame = 8
 738              		@ frame_needed = 0, uses_anonymous_args = 0
 739 0000 70B5     		push	{r4, r5, r6, lr}
 740              		.cfi_def_cfa_offset 16
 741              		.cfi_offset 4, -16
ARM GAS  /var/folders/d2/nstgp4h54kz7g1l847x_b8wc0000gn/T//cc9CKuMh.s 			page 14


 742              		.cfi_offset 5, -12
 743              		.cfi_offset 6, -8
 744              		.cfi_offset 14, -4
 745 0002 574C     		ldr	r4, .L120
 746 0004 82B0     		sub	sp, sp, #8
 747              		.cfi_def_cfa_offset 24
 748              		.loc 1 110 0
 749 0006 2368     		ldr	r3, [r4]
 750 0008 0193     		str	r3, [sp, #4]
 751              		.loc 1 113 0
 752 000a FFF7FEFF 		bl	_stats_increase_irq
 753              	.LVL53:
 754 000e FFF7FEFF 		bl	_dbg_check_enter_isr
 755              	.LVL54:
 756              		.loc 1 116 0
 757 0012 544B     		ldr	r3, .L120+4
 758 0014 1A68     		ldr	r2, [r3]
 759              	.LVL55:
 760              		.loc 1 117 0
 761 0016 0021     		movs	r1, #0
 762 0018 1960     		str	r1, [r3]
 763              		.loc 1 120 0
 764 001a 9106     		lsls	r1, r2, #26
 765 001c 05D5     		bpl	.L75
 766              		.loc 1 120 0 is_stmt 0 discriminator 1
 767 001e 524D     		ldr	r5, .L120+8
 768 0020 2B6B     		ldr	r3, [r5, #48]
 769 0022 1B68     		ldr	r3, [r3]
 770 0024 5B68     		ldr	r3, [r3, #4]
 771 0026 002B     		cmp	r3, #0
 772 0028 6FD1     		bne	.L117
 773              	.LVL56:
 774              	.L75:
 775              		.loc 1 130 0 is_stmt 1
 776 002a 504B     		ldr	r3, .L120+12
 777 002c 1A68     		ldr	r2, [r3]
 778              	.LVL57:
 779              		.loc 1 131 0
 780 002e 0021     		movs	r1, #0
 781              		.loc 1 134 0
 782 0030 9206     		lsls	r2, r2, #26
 783              	.LVL58:
 784              		.loc 1 131 0
 785 0032 1960     		str	r1, [r3]
 786              		.loc 1 134 0
 787 0034 05D5     		bpl	.L79
 788              		.loc 1 134 0 is_stmt 0 discriminator 1
 789 0036 4E4D     		ldr	r5, .L120+16
 790 0038 2B6B     		ldr	r3, [r5, #48]
 791 003a 1B68     		ldr	r3, [r3]
 792 003c 5B68     		ldr	r3, [r3, #4]
 793 003e 002B     		cmp	r3, #0
 794 0040 3BD1     		bne	.L118
 795              	.L79:
 796              		.loc 1 144 0 is_stmt 1
 797 0042 4C4B     		ldr	r3, .L120+20
 798 0044 1A68     		ldr	r2, [r3]
ARM GAS  /var/folders/d2/nstgp4h54kz7g1l847x_b8wc0000gn/T//cc9CKuMh.s 			page 15


 799              	.LVL59:
 800              		.loc 1 145 0
 801 0046 0021     		movs	r1, #0
 802 0048 1960     		str	r1, [r3]
 803              		.loc 1 148 0
 804 004a 9306     		lsls	r3, r2, #26
 805 004c 2AD5     		bpl	.L83
 806              		.loc 1 148 0 is_stmt 0 discriminator 1
 807 004e 4A4D     		ldr	r5, .L120+24
 808 0050 2B6B     		ldr	r3, [r5, #48]
 809 0052 1B68     		ldr	r3, [r3]
 810 0054 5B68     		ldr	r3, [r3, #4]
 811 0056 2BB3     		cbz	r3, .L83
 812              		.loc 1 151 0 is_stmt 1
 813 0058 2B69     		ldr	r3, [r5, #16]
 814 005a 1BB3     		cbz	r3, .L83
 815              		.loc 1 152 0
 816 005c 2846     		mov	r0, r5
 817 005e FFF7FEFF 		bl	adc_lld_stop_conversion
 818              	.LVL60:
 819 0062 2B69     		ldr	r3, [r5, #16]
 820 0064 9B68     		ldr	r3, [r3, #8]
 821 0066 4BB1     		cbz	r3, .L85
 822              		.loc 1 152 0 is_stmt 0 discriminator 1
 823 0068 0522     		movs	r2, #5
 824 006a 2A70     		strb	r2, [r5]
 825 006c 0121     		movs	r1, #1
 826 006e 2846     		mov	r0, r5
 827 0070 9847     		blx	r3
 828              	.LVL61:
 829 0072 2B78     		ldrb	r3, [r5]	@ zero_extendqisi2
 830 0074 052B     		cmp	r3, #5
 831 0076 04BF     		itt	eq
 832 0078 0223     		moveq	r3, #2
 833 007a 2B70     		strbeq	r3, [r5]
 834              	.L85:
 835              		.loc 1 152 0 discriminator 5
 836 007c 0026     		movs	r6, #0
 837 007e 2E61     		str	r6, [r5, #16]
 838              	.LVL62:
 839              	.LBB165:
 840              	.LBB166:
 841              	.LBB167:
 842              	.LBB168:
 843              	.LBB169:
 844              	.LBB170:
 845              	.LBB171:
 846              		.file 2 "../e-puck2_main-processor/ChibiOS//os/ext/CMSIS/include/core_cmFunc.h"
 847              		.loc 2 546 0 is_stmt 1 discriminator 5
 848 0080 2023     		movs	r3, #32
 849              		.syntax unified
 850              	@ 546 "../e-puck2_main-processor/ChibiOS//os/ext/CMSIS/include/core_cmFunc.h" 1
 851 0082 83F31188 		MSR basepri, r3
 852              	@ 0 "" 2
 853              	.LVL63:
 854              		.thumb
 855              		.syntax unified
ARM GAS  /var/folders/d2/nstgp4h54kz7g1l847x_b8wc0000gn/T//cc9CKuMh.s 			page 16


 856              	.LBE171:
 857              	.LBE170:
 858              	.LBE169:
 859              	.LBE168:
 860              		.file 3 "../e-puck2_main-processor/ChibiOS//os/rt/include/chsys.h"
 861              		.loc 3 389 0 discriminator 5
 862 0086 FFF7FEFF 		bl	_stats_start_measure_crit_isr
 863              	.LVL64:
 864              		.loc 3 390 0 discriminator 5
 865 008a FFF7FEFF 		bl	_dbg_check_lock_from_isr
 866              	.LVL65:
 867              	.LBE167:
 868              	.LBE166:
 869              	.LBE165:
 870              	.LBB172:
 871              	.LBB173:
 872              		.file 4 "../e-puck2_main-processor/ChibiOS//os/hal/osal/rt/osal.h"
 873              		.loc 4 682 0 discriminator 5
 874 008e 4FF0FF31 		mov	r1, #-1
 875 0092 3A48     		ldr	r0, .L120+28
 876 0094 FFF7FEFF 		bl	chThdResumeI
 877              	.LVL66:
 878              	.LBE173:
 879              	.LBE172:
 880              	.LBB174:
 881              	.LBB175:
 882              	.LBB176:
 883              		.loc 3 408 0 discriminator 5
 884 0098 FFF7FEFF 		bl	_dbg_check_unlock_from_isr
 885              	.LVL67:
 886              		.loc 3 409 0 discriminator 5
 887 009c FFF7FEFF 		bl	_stats_stop_measure_crit_isr
 888              	.LVL68:
 889              	.LBB177:
 890              	.LBB178:
 891              	.LBB179:
 892              	.LBB180:
 893              		.loc 2 546 0 discriminator 5
 894              		.syntax unified
 895              	@ 546 "../e-puck2_main-processor/ChibiOS//os/ext/CMSIS/include/core_cmFunc.h" 1
 896 00a0 86F31188 		MSR basepri, r6
 897              	@ 0 "" 2
 898              	.LVL69:
 899              		.thumb
 900              		.syntax unified
 901              	.L83:
 902              	.LBE180:
 903              	.LBE179:
 904              	.LBE178:
 905              	.LBE177:
 906              	.LBE176:
 907              	.LBE175:
 908              	.LBE174:
 909              		.loc 1 157 0
 910 00a4 FFF7FEFF 		bl	_dbg_check_leave_isr
 911              	.LVL70:
 912 00a8 019A     		ldr	r2, [sp, #4]
ARM GAS  /var/folders/d2/nstgp4h54kz7g1l847x_b8wc0000gn/T//cc9CKuMh.s 			page 17


 913 00aa 2368     		ldr	r3, [r4]
 914 00ac 9A42     		cmp	r2, r3
 915 00ae 54D1     		bne	.L119
 916              		.loc 1 158 0
 917 00b0 02B0     		add	sp, sp, #8
 918              		.cfi_remember_state
 919              		.cfi_def_cfa_offset 16
 920              		@ sp needed
 921 00b2 BDE87040 		pop	{r4, r5, r6, lr}
 922              		.cfi_restore 14
 923              		.cfi_restore 6
 924              		.cfi_restore 5
 925              		.cfi_restore 4
 926              		.cfi_def_cfa_offset 0
 927              		.loc 1 157 0
 928 00b6 FFF7FEBF 		b	_port_irq_epilogue
 929              	.LVL71:
 930              	.L118:
 931              		.cfi_restore_state
 932              		.loc 1 137 0
 933 00ba 2B69     		ldr	r3, [r5, #16]
 934 00bc 002B     		cmp	r3, #0
 935 00be C0D0     		beq	.L79
 936              		.loc 1 138 0
 937 00c0 2846     		mov	r0, r5
 938 00c2 FFF7FEFF 		bl	adc_lld_stop_conversion
 939              	.LVL72:
 940 00c6 2B69     		ldr	r3, [r5, #16]
 941 00c8 9B68     		ldr	r3, [r3, #8]
 942 00ca 4BB1     		cbz	r3, .L81
 943              		.loc 1 138 0 is_stmt 0 discriminator 1
 944 00cc 0522     		movs	r2, #5
 945 00ce 2A70     		strb	r2, [r5]
 946 00d0 0121     		movs	r1, #1
 947 00d2 2846     		mov	r0, r5
 948 00d4 9847     		blx	r3
 949              	.LVL73:
 950 00d6 2B78     		ldrb	r3, [r5]	@ zero_extendqisi2
 951 00d8 052B     		cmp	r3, #5
 952 00da 04BF     		itt	eq
 953 00dc 0223     		moveq	r3, #2
 954 00de 2B70     		strbeq	r3, [r5]
 955              	.L81:
 956              		.loc 1 138 0 discriminator 5
 957 00e0 0026     		movs	r6, #0
 958 00e2 2E61     		str	r6, [r5, #16]
 959              	.LVL74:
 960              	.LBB181:
 961              	.LBB182:
 962              	.LBB183:
 963              	.LBB184:
 964              	.LBB185:
 965              	.LBB186:
 966              	.LBB187:
 967              		.loc 2 546 0 is_stmt 1 discriminator 5
 968 00e4 2023     		movs	r3, #32
 969              		.syntax unified
ARM GAS  /var/folders/d2/nstgp4h54kz7g1l847x_b8wc0000gn/T//cc9CKuMh.s 			page 18


 970              	@ 546 "../e-puck2_main-processor/ChibiOS//os/ext/CMSIS/include/core_cmFunc.h" 1
 971 00e6 83F31188 		MSR basepri, r3
 972              	@ 0 "" 2
 973              	.LVL75:
 974              		.thumb
 975              		.syntax unified
 976              	.LBE187:
 977              	.LBE186:
 978              	.LBE185:
 979              	.LBE184:
 980              		.loc 3 389 0 discriminator 5
 981 00ea FFF7FEFF 		bl	_stats_start_measure_crit_isr
 982              	.LVL76:
 983              		.loc 3 390 0 discriminator 5
 984 00ee FFF7FEFF 		bl	_dbg_check_lock_from_isr
 985              	.LVL77:
 986              	.LBE183:
 987              	.LBE182:
 988              	.LBE181:
 989              	.LBB188:
 990              	.LBB189:
 991              		.loc 4 682 0 discriminator 5
 992 00f2 4FF0FF31 		mov	r1, #-1
 993 00f6 2248     		ldr	r0, .L120+32
 994 00f8 FFF7FEFF 		bl	chThdResumeI
 995              	.LVL78:
 996              	.LBE189:
 997              	.LBE188:
 998              	.LBB190:
 999              	.LBB191:
 1000              	.LBB192:
 1001              		.loc 3 408 0 discriminator 5
 1002 00fc FFF7FEFF 		bl	_dbg_check_unlock_from_isr
 1003              	.LVL79:
 1004              		.loc 3 409 0 discriminator 5
 1005 0100 FFF7FEFF 		bl	_stats_stop_measure_crit_isr
 1006              	.LVL80:
 1007              	.LBB193:
 1008              	.LBB194:
 1009              	.LBB195:
 1010              	.LBB196:
 1011              		.loc 2 546 0 discriminator 5
 1012              		.syntax unified
 1013              	@ 546 "../e-puck2_main-processor/ChibiOS//os/ext/CMSIS/include/core_cmFunc.h" 1
 1014 0104 86F31188 		MSR basepri, r6
 1015              	@ 0 "" 2
 1016              	.LVL81:
 1017              		.thumb
 1018              		.syntax unified
 1019 0108 9BE7     		b	.L79
 1020              	.LVL82:
 1021              	.L117:
 1022              	.LBE196:
 1023              	.LBE195:
 1024              	.LBE194:
 1025              	.LBE193:
 1026              	.LBE192:
ARM GAS  /var/folders/d2/nstgp4h54kz7g1l847x_b8wc0000gn/T//cc9CKuMh.s 			page 19


 1027              	.LBE191:
 1028              	.LBE190:
 1029              		.loc 1 123 0
 1030 010a 2B69     		ldr	r3, [r5, #16]
 1031 010c 002B     		cmp	r3, #0
 1032 010e 8CD0     		beq	.L75
 1033              		.loc 1 124 0
 1034 0110 2846     		mov	r0, r5
 1035 0112 FFF7FEFF 		bl	adc_lld_stop_conversion
 1036              	.LVL83:
 1037 0116 2B69     		ldr	r3, [r5, #16]
 1038 0118 9B68     		ldr	r3, [r3, #8]
 1039 011a 4BB1     		cbz	r3, .L77
 1040              		.loc 1 124 0 is_stmt 0 discriminator 1
 1041 011c 0522     		movs	r2, #5
 1042 011e 2A70     		strb	r2, [r5]
 1043 0120 0121     		movs	r1, #1
 1044 0122 2846     		mov	r0, r5
 1045 0124 9847     		blx	r3
 1046              	.LVL84:
 1047 0126 2B78     		ldrb	r3, [r5]	@ zero_extendqisi2
 1048 0128 052B     		cmp	r3, #5
 1049 012a 04BF     		itt	eq
 1050 012c 0223     		moveq	r3, #2
 1051 012e 2B70     		strbeq	r3, [r5]
 1052              	.L77:
 1053              		.loc 1 124 0 discriminator 5
 1054 0130 0026     		movs	r6, #0
 1055 0132 2E61     		str	r6, [r5, #16]
 1056              	.LVL85:
 1057              	.LBB197:
 1058              	.LBB198:
 1059              	.LBB199:
 1060              	.LBB200:
 1061              	.LBB201:
 1062              	.LBB202:
 1063              	.LBB203:
 1064              		.loc 2 546 0 is_stmt 1 discriminator 5
 1065 0134 2023     		movs	r3, #32
 1066              		.syntax unified
 1067              	@ 546 "../e-puck2_main-processor/ChibiOS//os/ext/CMSIS/include/core_cmFunc.h" 1
 1068 0136 83F31188 		MSR basepri, r3
 1069              	@ 0 "" 2
 1070              	.LVL86:
 1071              		.thumb
 1072              		.syntax unified
 1073              	.LBE203:
 1074              	.LBE202:
 1075              	.LBE201:
 1076              	.LBE200:
 1077              		.loc 3 389 0 discriminator 5
 1078 013a FFF7FEFF 		bl	_stats_start_measure_crit_isr
 1079              	.LVL87:
 1080              		.loc 3 390 0 discriminator 5
 1081 013e FFF7FEFF 		bl	_dbg_check_lock_from_isr
 1082              	.LVL88:
 1083              	.LBE199:
ARM GAS  /var/folders/d2/nstgp4h54kz7g1l847x_b8wc0000gn/T//cc9CKuMh.s 			page 20


 1084              	.LBE198:
 1085              	.LBE197:
 1086              	.LBB204:
 1087              	.LBB205:
 1088              		.loc 4 682 0 discriminator 5
 1089 0142 4FF0FF31 		mov	r1, #-1
 1090 0146 0F48     		ldr	r0, .L120+36
 1091 0148 FFF7FEFF 		bl	chThdResumeI
 1092              	.LVL89:
 1093              	.LBE205:
 1094              	.LBE204:
 1095              	.LBB206:
 1096              	.LBB207:
 1097              	.LBB208:
 1098              		.loc 3 408 0 discriminator 5
 1099 014c FFF7FEFF 		bl	_dbg_check_unlock_from_isr
 1100              	.LVL90:
 1101              		.loc 3 409 0 discriminator 5
 1102 0150 FFF7FEFF 		bl	_stats_stop_measure_crit_isr
 1103              	.LVL91:
 1104              	.LBB209:
 1105              	.LBB210:
 1106              	.LBB211:
 1107              	.LBB212:
 1108              		.loc 2 546 0 discriminator 5
 1109              		.syntax unified
 1110              	@ 546 "../e-puck2_main-processor/ChibiOS//os/ext/CMSIS/include/core_cmFunc.h" 1
 1111 0154 86F31188 		MSR basepri, r6
 1112              	@ 0 "" 2
 1113              	.LVL92:
 1114              		.thumb
 1115              		.syntax unified
 1116 0158 67E7     		b	.L75
 1117              	.L119:
 1118              	.LBE212:
 1119              	.LBE211:
 1120              	.LBE210:
 1121              	.LBE209:
 1122              	.LBE208:
 1123              	.LBE207:
 1124              	.LBE206:
 1125              		.loc 1 157 0
 1126 015a FFF7FEFF 		bl	__stack_chk_fail
 1127              	.LVL93:
 1128              	.L121:
 1129 015e 00BF     		.align	2
 1130              	.L120:
 1131 0160 00000000 		.word	__stack_chk_guard
 1132 0164 00200140 		.word	1073815552
 1133 0168 00000000 		.word	.LANCHOR0
 1134 016c 00210140 		.word	1073815808
 1135 0170 00000000 		.word	.LANCHOR1
 1136 0174 00220140 		.word	1073816064
 1137 0178 00000000 		.word	.LANCHOR2
 1138 017c 14000000 		.word	.LANCHOR2+20
 1139 0180 14000000 		.word	.LANCHOR1+20
 1140 0184 14000000 		.word	.LANCHOR0+20
ARM GAS  /var/folders/d2/nstgp4h54kz7g1l847x_b8wc0000gn/T//cc9CKuMh.s 			page 21


 1141              		.cfi_endproc
 1142              	.LFE257:
 1143              		.size	Vector88, .-Vector88
 1144              		.section	.text.adc_lld_serve_rx_interrupt,"ax",%progbits
 1145              		.align	1
 1146              		.p2align 4,,15
 1147              		.syntax unified
 1148              		.thumb
 1149              		.thumb_func
 1150              		.fpu fpv4-sp-d16
 1151              		.type	adc_lld_serve_rx_interrupt, %function
 1152              	adc_lld_serve_rx_interrupt:
 1153              	.LFB256:
 1154              		.loc 1 75 0
 1155              		.cfi_startproc
 1156              		@ args = 0, pretend = 0, frame = 8
 1157              		@ frame_needed = 0, uses_anonymous_args = 0
 1158              	.LVL94:
 1159 0000 F0B5     		push	{r4, r5, r6, r7, lr}
 1160              		.cfi_def_cfa_offset 20
 1161              		.cfi_offset 4, -20
 1162              		.cfi_offset 5, -16
 1163              		.cfi_offset 6, -12
 1164              		.cfi_offset 7, -8
 1165              		.cfi_offset 14, -4
 1166 0002 484D     		ldr	r5, .L156
 1167 0004 83B0     		sub	sp, sp, #12
 1168              		.cfi_def_cfa_offset 32
 1169              		.loc 1 75 0
 1170 0006 2B68     		ldr	r3, [r5]
 1171 0008 0193     		str	r3, [sp, #4]
 1172              		.loc 1 78 0
 1173 000a 11F00C0F 		tst	r1, #12
 1174              		.loc 1 75 0
 1175 000e 0446     		mov	r4, r0
 1176              		.loc 1 78 0
 1177 0010 1DD1     		bne	.L155
 1178              	.LVL95:
 1179              	.LBB264:
 1180              	.LBB265:
 1181              		.loc 1 86 0
 1182 0012 0369     		ldr	r3, [r0, #16]
 1183 0014 002B     		cmp	r3, #0
 1184 0016 3FD0     		beq	.L122
 1185              		.loc 1 87 0
 1186 0018 8E06     		lsls	r6, r1, #26
 1187 001a 43D5     		bpl	.L128
 1188              		.loc 1 89 0
 1189 001c 1A78     		ldrb	r2, [r3]	@ zero_extendqisi2
 1190 001e 002A     		cmp	r2, #0
 1191 0020 50D0     		beq	.L129
 1192 0022 5E68     		ldr	r6, [r3, #4]
 1193 0024 002E     		cmp	r6, #0
 1194 0026 37D0     		beq	.L122
 1195 0028 D0E90212 		ldrd	r1, r2, [r0, #8]
 1196              	.LVL96:
 1197 002c 012A     		cmp	r2, #1
ARM GAS  /var/folders/d2/nstgp4h54kz7g1l847x_b8wc0000gn/T//cc9CKuMh.s 			page 22


 1198 002e 71D9     		bls	.L130
 1199              	.LBB266:
 1200 0030 019F     		ldr	r7, [sp, #4]
 1201 0032 2C68     		ldr	r4, [r5]
 1202 0034 A742     		cmp	r7, r4
 1203 0036 4FEA5202 		lsr	r2, r2, #1
 1204              	.LVL97:
 1205 003a 71D1     		bne	.L154
 1206 003c 5B88     		ldrh	r3, [r3, #2]
 1207              	.LVL98:
 1208 003e 5400     		lsls	r4, r2, #1
 1209 0040 04FB0311 		mla	r1, r4, r3, r1
 1210 0044 3346     		mov	r3, r6
 1211              	.LVL99:
 1212              	.L153:
 1213              	.LBE266:
 1214              	.LBE265:
 1215              	.LBE264:
 1216              		.loc 1 97 0
 1217 0046 03B0     		add	sp, sp, #12
 1218              		.cfi_remember_state
 1219              		.cfi_def_cfa_offset 20
 1220              		@ sp needed
 1221 0048 BDE8F040 		pop	{r4, r5, r6, r7, lr}
 1222              		.cfi_restore 14
 1223              		.cfi_restore 7
 1224              		.cfi_restore 6
 1225              		.cfi_restore 5
 1226              		.cfi_restore 4
 1227              		.cfi_def_cfa_offset 0
 1228              	.LBB286:
 1229              	.LBB283:
 1230              		.loc 1 93 0
 1231 004c 1847     		bx	r3	@ indirect register sibling call
 1232              	.LVL100:
 1233              	.L155:
 1234              		.cfi_restore_state
 1235              	.LBE283:
 1236              	.LBE286:
 1237              		.loc 1 81 0
 1238 004e FFF7FEFF 		bl	adc_lld_stop_conversion
 1239              	.LVL101:
 1240 0052 2369     		ldr	r3, [r4, #16]
 1241 0054 9A68     		ldr	r2, [r3, #8]
 1242 0056 52B1     		cbz	r2, .L125
 1243              		.loc 1 81 0 is_stmt 0 discriminator 1
 1244 0058 0522     		movs	r2, #5
 1245 005a 2270     		strb	r2, [r4]
 1246 005c 9B68     		ldr	r3, [r3, #8]
 1247 005e 0021     		movs	r1, #0
 1248 0060 2046     		mov	r0, r4
 1249 0062 9847     		blx	r3
 1250              	.LVL102:
 1251 0064 2378     		ldrb	r3, [r4]	@ zero_extendqisi2
 1252 0066 052B     		cmp	r3, #5
 1253 0068 04BF     		itt	eq
 1254 006a 0223     		moveq	r3, #2
ARM GAS  /var/folders/d2/nstgp4h54kz7g1l847x_b8wc0000gn/T//cc9CKuMh.s 			page 23


 1255 006c 2370     		strbeq	r3, [r4]
 1256              	.L125:
 1257              		.loc 1 81 0 discriminator 5
 1258 006e 0026     		movs	r6, #0
 1259 0070 2661     		str	r6, [r4, #16]
 1260              	.LVL103:
 1261              	.LBB287:
 1262              	.LBB288:
 1263              	.LBB289:
 1264              	.LBB290:
 1265              	.LBB291:
 1266              	.LBB292:
 1267              	.LBB293:
 1268              		.loc 2 546 0 is_stmt 1 discriminator 5
 1269 0072 2023     		movs	r3, #32
 1270              		.syntax unified
 1271              	@ 546 "../e-puck2_main-processor/ChibiOS//os/ext/CMSIS/include/core_cmFunc.h" 1
 1272 0074 83F31188 		MSR basepri, r3
 1273              	@ 0 "" 2
 1274              	.LVL104:
 1275              		.thumb
 1276              		.syntax unified
 1277              	.LBE293:
 1278              	.LBE292:
 1279              	.LBE291:
 1280              	.LBE290:
 1281              		.loc 3 389 0 discriminator 5
 1282 0078 FFF7FEFF 		bl	_stats_start_measure_crit_isr
 1283              	.LVL105:
 1284              		.loc 3 390 0 discriminator 5
 1285 007c FFF7FEFF 		bl	_dbg_check_lock_from_isr
 1286              	.LVL106:
 1287              	.LBE289:
 1288              	.LBE288:
 1289              	.LBE287:
 1290              	.LBB294:
 1291              	.LBB295:
 1292              		.loc 4 682 0 discriminator 5
 1293 0080 04F11400 		add	r0, r4, #20
 1294              	.LVL107:
 1295 0084 4FF0FF31 		mov	r1, #-1
 1296 0088 FFF7FEFF 		bl	chThdResumeI
 1297              	.LVL108:
 1298              	.LBE295:
 1299              	.LBE294:
 1300              	.LBB296:
 1301              	.LBB297:
 1302              	.LBB298:
 1303              		.loc 3 408 0 discriminator 5
 1304 008c FFF7FEFF 		bl	_dbg_check_unlock_from_isr
 1305              	.LVL109:
 1306              		.loc 3 409 0 discriminator 5
 1307 0090 FFF7FEFF 		bl	_stats_stop_measure_crit_isr
 1308              	.LVL110:
 1309              	.LBB299:
 1310              	.LBB300:
 1311              	.LBB301:
ARM GAS  /var/folders/d2/nstgp4h54kz7g1l847x_b8wc0000gn/T//cc9CKuMh.s 			page 24


 1312              	.LBB302:
 1313              		.loc 2 546 0 discriminator 5
 1314              		.syntax unified
 1315              	@ 546 "../e-puck2_main-processor/ChibiOS//os/ext/CMSIS/include/core_cmFunc.h" 1
 1316 0094 86F31188 		MSR basepri, r6
 1317              	@ 0 "" 2
 1318              	.LVL111:
 1319              		.thumb
 1320              		.syntax unified
 1321              	.L122:
 1322              	.LBE302:
 1323              	.LBE301:
 1324              	.LBE300:
 1325              	.LBE299:
 1326              	.LBE298:
 1327              	.LBE297:
 1328              	.LBE296:
 1329              		.loc 1 97 0
 1330 0098 019A     		ldr	r2, [sp, #4]
 1331 009a 2B68     		ldr	r3, [r5]
 1332 009c 9A42     		cmp	r2, r3
 1333 009e 3FD1     		bne	.L154
 1334 00a0 03B0     		add	sp, sp, #12
 1335              		.cfi_remember_state
 1336              		.cfi_def_cfa_offset 20
 1337              		@ sp needed
 1338 00a2 F0BD     		pop	{r4, r5, r6, r7, pc}
 1339              	.LVL112:
 1340              	.L128:
 1341              		.cfi_restore_state
 1342              	.LBB303:
 1343              	.LBB284:
 1344              		.loc 1 91 0
 1345 00a4 CA06     		lsls	r2, r1, #27
 1346 00a6 F7D5     		bpl	.L122
 1347              		.loc 1 93 0
 1348 00a8 5B68     		ldr	r3, [r3, #4]
 1349 00aa 002B     		cmp	r3, #0
 1350 00ac F4D0     		beq	.L122
 1351 00ae 0199     		ldr	r1, [sp, #4]
 1352              	.LVL113:
 1353 00b0 2A68     		ldr	r2, [r5]
 1354 00b2 9142     		cmp	r1, r2
 1355 00b4 34D1     		bne	.L154
 1356 00b6 D0E90212 		ldrd	r1, r2, [r0, #8]
 1357 00ba 5208     		lsrs	r2, r2, #1
 1358              	.LBE284:
 1359              	.LBE303:
 1360              		.loc 1 97 0
 1361 00bc 03B0     		add	sp, sp, #12
 1362              		.cfi_remember_state
 1363              		.cfi_def_cfa_offset 20
 1364              		@ sp needed
 1365 00be BDE8F040 		pop	{r4, r5, r6, r7, lr}
 1366              		.cfi_restore 14
 1367              		.cfi_restore 7
 1368              		.cfi_restore 6
ARM GAS  /var/folders/d2/nstgp4h54kz7g1l847x_b8wc0000gn/T//cc9CKuMh.s 			page 25


 1369              		.cfi_restore 5
 1370              		.cfi_restore 4
 1371              		.cfi_def_cfa_offset 0
 1372              	.LBB304:
 1373              	.LBB285:
 1374              		.loc 1 93 0
 1375 00c2 1847     		bx	r3	@ indirect register sibling call
 1376              	.LVL114:
 1377              	.L129:
 1378              		.cfi_restore_state
 1379              		.loc 1 89 0
 1380 00c4 FFF7FEFF 		bl	adc_lld_stop_conversion
 1381              	.LVL115:
 1382 00c8 2369     		ldr	r3, [r4, #16]
 1383 00ca 5A68     		ldr	r2, [r3, #4]
 1384 00cc EAB1     		cbz	r2, .L133
 1385 00ce 0422     		movs	r2, #4
 1386 00d0 2270     		strb	r2, [r4]
 1387 00d2 5B68     		ldr	r3, [r3, #4]
 1388 00d4 D4E90212 		ldrd	r1, r2, [r4, #8]
 1389 00d8 2046     		mov	r0, r4
 1390 00da 9847     		blx	r3
 1391              	.LVL116:
 1392 00dc 2378     		ldrb	r3, [r4]	@ zero_extendqisi2
 1393 00de 042B     		cmp	r3, #4
 1394 00e0 13D0     		beq	.L133
 1395              	.L134:
 1396              	.LVL117:
 1397              	.LBB267:
 1398              	.LBB268:
 1399              	.LBB269:
 1400              	.LBB270:
 1401              	.LBB271:
 1402              	.LBB272:
 1403              	.LBB273:
 1404              		.loc 2 546 0
 1405 00e2 2023     		movs	r3, #32
 1406              		.syntax unified
 1407              	@ 546 "../e-puck2_main-processor/ChibiOS//os/ext/CMSIS/include/core_cmFunc.h" 1
 1408 00e4 83F31188 		MSR basepri, r3
 1409              	@ 0 "" 2
 1410              	.LVL118:
 1411              		.thumb
 1412              		.syntax unified
 1413              	.LBE273:
 1414              	.LBE272:
 1415              	.LBE271:
 1416              	.LBE270:
 1417              		.loc 3 389 0
 1418 00e8 FFF7FEFF 		bl	_stats_start_measure_crit_isr
 1419              	.LVL119:
 1420              		.loc 3 390 0
 1421 00ec FFF7FEFF 		bl	_dbg_check_lock_from_isr
 1422              	.LVL120:
 1423              	.LBE269:
 1424              	.LBE268:
 1425              	.LBE267:
ARM GAS  /var/folders/d2/nstgp4h54kz7g1l847x_b8wc0000gn/T//cc9CKuMh.s 			page 26


 1426              	.LBB274:
 1427              	.LBB275:
 1428              		.loc 4 682 0
 1429 00f0 04F11400 		add	r0, r4, #20
 1430              	.LVL121:
 1431 00f4 0021     		movs	r1, #0
 1432 00f6 FFF7FEFF 		bl	chThdResumeI
 1433              	.LVL122:
 1434              	.LBE275:
 1435              	.LBE274:
 1436              	.LBB276:
 1437              	.LBB277:
 1438              	.LBB278:
 1439              		.loc 3 408 0
 1440 00fa FFF7FEFF 		bl	_dbg_check_unlock_from_isr
 1441              	.LVL123:
 1442              		.loc 3 409 0
 1443 00fe FFF7FEFF 		bl	_stats_stop_measure_crit_isr
 1444              	.LVL124:
 1445              	.LBB279:
 1446              	.LBB280:
 1447              	.LBB281:
 1448              	.LBB282:
 1449              		.loc 2 546 0
 1450 0102 0023     		movs	r3, #0
 1451              		.syntax unified
 1452              	@ 546 "../e-puck2_main-processor/ChibiOS//os/ext/CMSIS/include/core_cmFunc.h" 1
 1453 0104 83F31188 		MSR basepri, r3
 1454              	@ 0 "" 2
 1455              	.LVL125:
 1456              		.thumb
 1457              		.syntax unified
 1458 0108 C6E7     		b	.L122
 1459              	.L133:
 1460              	.LBE282:
 1461              	.LBE281:
 1462              	.LBE280:
 1463              	.LBE279:
 1464              	.LBE278:
 1465              	.LBE277:
 1466              	.LBE276:
 1467              		.loc 1 89 0
 1468 010a 0222     		movs	r2, #2
 1469 010c 0023     		movs	r3, #0
 1470 010e 2270     		strb	r2, [r4]
 1471 0110 2361     		str	r3, [r4, #16]
 1472 0112 E6E7     		b	.L134
 1473              	.LVL126:
 1474              	.L130:
 1475 0114 019C     		ldr	r4, [sp, #4]
 1476 0116 2B68     		ldr	r3, [r5]
 1477 0118 9C42     		cmp	r4, r3
 1478 011a 08BF     		it	eq
 1479 011c 3346     		moveq	r3, r6
 1480 011e 92D0     		beq	.L153
 1481              	.LVL127:
 1482              	.L154:
ARM GAS  /var/folders/d2/nstgp4h54kz7g1l847x_b8wc0000gn/T//cc9CKuMh.s 			page 27


 1483              	.LBE285:
 1484              	.LBE304:
 1485              		.loc 1 97 0
 1486 0120 FFF7FEFF 		bl	__stack_chk_fail
 1487              	.LVL128:
 1488              	.L157:
 1489              		.align	2
 1490              	.L156:
 1491 0124 00000000 		.word	__stack_chk_guard
 1492              		.cfi_endproc
 1493              	.LFE256:
 1494              		.size	adc_lld_serve_rx_interrupt, .-adc_lld_serve_rx_interrupt
 1495              		.section	.text.adcSTM32EnableTSVREFE,"ax",%progbits
 1496              		.align	1
 1497              		.p2align 4,,15
 1498              		.global	adcSTM32EnableTSVREFE
 1499              		.syntax unified
 1500              		.thumb
 1501              		.thumb_func
 1502              		.fpu fpv4-sp-d16
 1503              		.type	adcSTM32EnableTSVREFE, %function
 1504              	adcSTM32EnableTSVREFE:
 1505              	.LFB263:
 1506              		.loc 1 387 0
 1507              		.cfi_startproc
 1508              		@ args = 0, pretend = 0, frame = 8
 1509              		@ frame_needed = 0, uses_anonymous_args = 0
 1510 0000 00B5     		push	{lr}
 1511              		.cfi_def_cfa_offset 4
 1512              		.cfi_offset 14, -4
 1513 0002 094A     		ldr	r2, .L162
 1514              		.loc 1 389 0
 1515 0004 0949     		ldr	r1, .L162+4
 1516              		.loc 1 387 0
 1517 0006 1368     		ldr	r3, [r2]
 1518 0008 83B0     		sub	sp, sp, #12
 1519              		.cfi_def_cfa_offset 16
 1520              		.loc 1 387 0
 1521 000a 0193     		str	r3, [sp, #4]
 1522              		.loc 1 389 0
 1523 000c 4B68     		ldr	r3, [r1, #4]
 1524 000e 43F40003 		orr	r3, r3, #8388608
 1525 0012 4B60     		str	r3, [r1, #4]
 1526              		.loc 1 390 0
 1527 0014 0199     		ldr	r1, [sp, #4]
 1528 0016 1368     		ldr	r3, [r2]
 1529 0018 9942     		cmp	r1, r3
 1530 001a 02D1     		bne	.L161
 1531 001c 03B0     		add	sp, sp, #12
 1532              		.cfi_remember_state
 1533              		.cfi_def_cfa_offset 4
 1534              		@ sp needed
 1535 001e 5DF804FB 		ldr	pc, [sp], #4
 1536              	.L161:
 1537              		.cfi_restore_state
 1538 0022 FFF7FEFF 		bl	__stack_chk_fail
 1539              	.LVL129:
ARM GAS  /var/folders/d2/nstgp4h54kz7g1l847x_b8wc0000gn/T//cc9CKuMh.s 			page 28


 1540              	.L163:
 1541 0026 00BF     		.align	2
 1542              	.L162:
 1543 0028 00000000 		.word	__stack_chk_guard
 1544 002c 00230140 		.word	1073816320
 1545              		.cfi_endproc
 1546              	.LFE263:
 1547              		.size	adcSTM32EnableTSVREFE, .-adcSTM32EnableTSVREFE
 1548              		.section	.text.adcSTM32DisableTSVREFE,"ax",%progbits
 1549              		.align	1
 1550              		.p2align 4,,15
 1551              		.global	adcSTM32DisableTSVREFE
 1552              		.syntax unified
 1553              		.thumb
 1554              		.thumb_func
 1555              		.fpu fpv4-sp-d16
 1556              		.type	adcSTM32DisableTSVREFE, %function
 1557              	adcSTM32DisableTSVREFE:
 1558              	.LFB264:
 1559              		.loc 1 398 0
 1560              		.cfi_startproc
 1561              		@ args = 0, pretend = 0, frame = 8
 1562              		@ frame_needed = 0, uses_anonymous_args = 0
 1563 0000 00B5     		push	{lr}
 1564              		.cfi_def_cfa_offset 4
 1565              		.cfi_offset 14, -4
 1566 0002 094A     		ldr	r2, .L168
 1567              		.loc 1 400 0
 1568 0004 0949     		ldr	r1, .L168+4
 1569              		.loc 1 398 0
 1570 0006 1368     		ldr	r3, [r2]
 1571 0008 83B0     		sub	sp, sp, #12
 1572              		.cfi_def_cfa_offset 16
 1573              		.loc 1 398 0
 1574 000a 0193     		str	r3, [sp, #4]
 1575              		.loc 1 400 0
 1576 000c 4B68     		ldr	r3, [r1, #4]
 1577 000e 23F40003 		bic	r3, r3, #8388608
 1578 0012 4B60     		str	r3, [r1, #4]
 1579              		.loc 1 401 0
 1580 0014 0199     		ldr	r1, [sp, #4]
 1581 0016 1368     		ldr	r3, [r2]
 1582 0018 9942     		cmp	r1, r3
 1583 001a 02D1     		bne	.L167
 1584 001c 03B0     		add	sp, sp, #12
 1585              		.cfi_remember_state
 1586              		.cfi_def_cfa_offset 4
 1587              		@ sp needed
 1588 001e 5DF804FB 		ldr	pc, [sp], #4
 1589              	.L167:
 1590              		.cfi_restore_state
 1591 0022 FFF7FEFF 		bl	__stack_chk_fail
 1592              	.LVL130:
 1593              	.L169:
 1594 0026 00BF     		.align	2
 1595              	.L168:
 1596 0028 00000000 		.word	__stack_chk_guard
ARM GAS  /var/folders/d2/nstgp4h54kz7g1l847x_b8wc0000gn/T//cc9CKuMh.s 			page 29


 1597 002c 00230140 		.word	1073816320
 1598              		.cfi_endproc
 1599              	.LFE264:
 1600              		.size	adcSTM32DisableTSVREFE, .-adcSTM32DisableTSVREFE
 1601              		.section	.text.adcSTM32EnableVBATE,"ax",%progbits
 1602              		.align	1
 1603              		.p2align 4,,15
 1604              		.global	adcSTM32EnableVBATE
 1605              		.syntax unified
 1606              		.thumb
 1607              		.thumb_func
 1608              		.fpu fpv4-sp-d16
 1609              		.type	adcSTM32EnableVBATE, %function
 1610              	adcSTM32EnableVBATE:
 1611              	.LFB265:
 1612              		.loc 1 409 0
 1613              		.cfi_startproc
 1614              		@ args = 0, pretend = 0, frame = 8
 1615              		@ frame_needed = 0, uses_anonymous_args = 0
 1616 0000 00B5     		push	{lr}
 1617              		.cfi_def_cfa_offset 4
 1618              		.cfi_offset 14, -4
 1619 0002 094A     		ldr	r2, .L174
 1620              		.loc 1 411 0
 1621 0004 0949     		ldr	r1, .L174+4
 1622              		.loc 1 409 0
 1623 0006 1368     		ldr	r3, [r2]
 1624 0008 83B0     		sub	sp, sp, #12
 1625              		.cfi_def_cfa_offset 16
 1626              		.loc 1 409 0
 1627 000a 0193     		str	r3, [sp, #4]
 1628              		.loc 1 411 0
 1629 000c 4B68     		ldr	r3, [r1, #4]
 1630 000e 43F48003 		orr	r3, r3, #4194304
 1631 0012 4B60     		str	r3, [r1, #4]
 1632              		.loc 1 412 0
 1633 0014 0199     		ldr	r1, [sp, #4]
 1634 0016 1368     		ldr	r3, [r2]
 1635 0018 9942     		cmp	r1, r3
 1636 001a 02D1     		bne	.L173
 1637 001c 03B0     		add	sp, sp, #12
 1638              		.cfi_remember_state
 1639              		.cfi_def_cfa_offset 4
 1640              		@ sp needed
 1641 001e 5DF804FB 		ldr	pc, [sp], #4
 1642              	.L173:
 1643              		.cfi_restore_state
 1644 0022 FFF7FEFF 		bl	__stack_chk_fail
 1645              	.LVL131:
 1646              	.L175:
 1647 0026 00BF     		.align	2
 1648              	.L174:
 1649 0028 00000000 		.word	__stack_chk_guard
 1650 002c 00230140 		.word	1073816320
 1651              		.cfi_endproc
 1652              	.LFE265:
 1653              		.size	adcSTM32EnableVBATE, .-adcSTM32EnableVBATE
ARM GAS  /var/folders/d2/nstgp4h54kz7g1l847x_b8wc0000gn/T//cc9CKuMh.s 			page 30


 1654              		.section	.text.adcSTM32DisableVBATE,"ax",%progbits
 1655              		.align	1
 1656              		.p2align 4,,15
 1657              		.global	adcSTM32DisableVBATE
 1658              		.syntax unified
 1659              		.thumb
 1660              		.thumb_func
 1661              		.fpu fpv4-sp-d16
 1662              		.type	adcSTM32DisableVBATE, %function
 1663              	adcSTM32DisableVBATE:
 1664              	.LFB266:
 1665              		.loc 1 420 0
 1666              		.cfi_startproc
 1667              		@ args = 0, pretend = 0, frame = 8
 1668              		@ frame_needed = 0, uses_anonymous_args = 0
 1669 0000 00B5     		push	{lr}
 1670              		.cfi_def_cfa_offset 4
 1671              		.cfi_offset 14, -4
 1672 0002 094A     		ldr	r2, .L180
 1673              		.loc 1 422 0
 1674 0004 0949     		ldr	r1, .L180+4
 1675              		.loc 1 420 0
 1676 0006 1368     		ldr	r3, [r2]
 1677 0008 83B0     		sub	sp, sp, #12
 1678              		.cfi_def_cfa_offset 16
 1679              		.loc 1 420 0
 1680 000a 0193     		str	r3, [sp, #4]
 1681              		.loc 1 422 0
 1682 000c 4B68     		ldr	r3, [r1, #4]
 1683 000e 23F48003 		bic	r3, r3, #4194304
 1684 0012 4B60     		str	r3, [r1, #4]
 1685              		.loc 1 423 0
 1686 0014 0199     		ldr	r1, [sp, #4]
 1687 0016 1368     		ldr	r3, [r2]
 1688 0018 9942     		cmp	r1, r3
 1689 001a 02D1     		bne	.L179
 1690 001c 03B0     		add	sp, sp, #12
 1691              		.cfi_remember_state
 1692              		.cfi_def_cfa_offset 4
 1693              		@ sp needed
 1694 001e 5DF804FB 		ldr	pc, [sp], #4
 1695              	.L179:
 1696              		.cfi_restore_state
 1697 0022 FFF7FEFF 		bl	__stack_chk_fail
 1698              	.LVL132:
 1699              	.L181:
 1700 0026 00BF     		.align	2
 1701              	.L180:
 1702 0028 00000000 		.word	__stack_chk_guard
 1703 002c 00230140 		.word	1073816320
 1704              		.cfi_endproc
 1705              	.LFE266:
 1706              		.size	adcSTM32DisableVBATE, .-adcSTM32DisableVBATE
 1707              		.global	ADCD3
 1708              		.global	ADCD2
 1709              		.global	ADCD1
 1710              		.section	.bss.ADCD1,"aw",%nobits
ARM GAS  /var/folders/d2/nstgp4h54kz7g1l847x_b8wc0000gn/T//cc9CKuMh.s 			page 31


 1711              		.align	2
 1712              		.set	.LANCHOR0,. + 0
 1713              		.type	ADCD1, %object
 1714              		.size	ADCD1, 56
 1715              	ADCD1:
 1716 0000 00000000 		.space	56
 1716      00000000 
 1716      00000000 
 1716      00000000 
 1716      00000000 
 1717              		.section	.bss.ADCD2,"aw",%nobits
 1718              		.align	2
 1719              		.set	.LANCHOR1,. + 0
 1720              		.type	ADCD2, %object
 1721              		.size	ADCD2, 56
 1722              	ADCD2:
 1723 0000 00000000 		.space	56
 1723      00000000 
 1723      00000000 
 1723      00000000 
 1723      00000000 
 1724              		.section	.bss.ADCD3,"aw",%nobits
 1725              		.align	2
 1726              		.set	.LANCHOR2,. + 0
 1727              		.type	ADCD3, %object
 1728              		.size	ADCD3, 56
 1729              	ADCD3:
 1730 0000 00000000 		.space	56
 1730      00000000 
 1730      00000000 
 1730      00000000 
 1730      00000000 
 1731              		.section	.rodata.__func__.9858,"a",%progbits
 1732              		.align	2
 1733              		.set	.LANCHOR3,. + 0
 1734              		.type	__func__.9858, %object
 1735              		.size	__func__.9858, 14
 1736              	__func__.9858:
 1737 0000 6164635F 		.ascii	"adc_lld_start\000"
 1737      6C6C645F 
 1737      73746172 
 1737      7400
 1738              		.text
 1739              	.Letext0:
 1740              		.file 5 "/Applications/Eclipse_e-puck2.app/Contents/Eclipse_e-puck2/Tools/gcc-arm-none-eabi-7-2017
 1741              		.file 6 "/Applications/Eclipse_e-puck2.app/Contents/Eclipse_e-puck2/Tools/gcc-arm-none-eabi-7-2017
 1742              		.file 7 "/Applications/Eclipse_e-puck2.app/Contents/Eclipse_e-puck2/Tools/gcc-arm-none-eabi-7-2017
 1743              		.file 8 "../e-puck2_main-processor/ChibiOS//os/rt/ports/ARMCMx/compilers/GCC/chtypes.h"
 1744              		.file 9 "../e-puck2_main-processor/ChibiOS//os/rt/include/chsystypes.h"
 1745              		.file 10 "../e-puck2_main-processor/ChibiOS//os/rt/include/chschd.h"
 1746              		.file 11 "../e-puck2_main-processor/ChibiOS//os/ext/CMSIS/include/core_cm4.h"
 1747              		.file 12 "../e-puck2_main-processor/ChibiOS//os/ext/CMSIS/ST/system_stm32f4xx.h"
 1748              		.file 13 "../e-puck2_main-processor/ChibiOS//os/ext/CMSIS/ST/stm32f407xx.h"
 1749              		.file 14 "../e-puck2_main-processor/ChibiOS//os/rt/ports/ARMCMx/chcore.h"
 1750              		.file 15 "../e-puck2_main-processor/ChibiOS//os/rt/ports/ARMCMx/chcore_v7m.h"
 1751              		.file 16 "../e-puck2_main-processor/ChibiOS//os/rt/include/chdebug.h"
 1752              		.file 17 "../e-puck2_main-processor/ChibiOS//os/rt/include/chtm.h"
ARM GAS  /var/folders/d2/nstgp4h54kz7g1l847x_b8wc0000gn/T//cc9CKuMh.s 			page 32


 1753              		.file 18 "../e-puck2_main-processor/ChibiOS//os/rt/include/chstats.h"
 1754              		.file 19 "../e-puck2_main-processor/ChibiOS//os/rt/include/chsem.h"
 1755              		.file 20 "../e-puck2_main-processor/ChibiOS//os/rt/include/chmtx.h"
 1756              		.file 21 "../e-puck2_main-processor/ChibiOS//os/rt/include/chregistry.h"
 1757              		.file 22 "../e-puck2_main-processor/ChibiOS//os/rt/include/chevents.h"
 1758              		.file 23 "../e-puck2_main-processor/ChibiOS//os/rt/include/chqueues.h"
 1759              		.file 24 "../e-puck2_main-processor/ChibiOS//os/hal/ports/STM32/STM32F4xx/stm32_dma.h"
 1760              		.file 25 "../e-puck2_main-processor/ChibiOS//os/hal/include/hal_ioblock.h"
 1761              		.file 26 "../e-puck2_main-processor/ChibiOS//os/hal/ports/STM32/LLD/GPIOv2/pal_lld.h"
 1762              		.file 27 "../e-puck2_main-processor/ChibiOS//os/hal/include/adc.h"
 1763              		.file 28 "../e-puck2_main-processor/ChibiOS//os/hal/ports/STM32/STM32F4xx/adc_lld.h"
 1764              		.file 29 "../e-puck2_main-processor/ChibiOS//os/hal/include/can.h"
 1765              		.file 30 "../e-puck2_main-processor/ChibiOS//os/hal/ports/STM32/LLD/can_lld.h"
 1766              		.file 31 "../e-puck2_main-processor/ChibiOS//os/hal/include/dac.h"
 1767              		.file 32 "../e-puck2_main-processor/ChibiOS//os/hal/ports/STM32/LLD/DACv1/dac_lld.h"
 1768              		.file 33 "../e-puck2_main-processor/ChibiOS//os/hal/include/ext.h"
 1769              		.file 34 "../e-puck2_main-processor/ChibiOS//os/hal/ports/STM32/LLD/ext_lld.h"
 1770              		.file 35 "../e-puck2_main-processor/ChibiOS//os/hal/include/gpt.h"
 1771              		.file 36 "../e-puck2_main-processor/ChibiOS//os/hal/ports/STM32/LLD/TIMv1/gpt_lld.h"
 1772              		.file 37 "../e-puck2_main-processor/ChibiOS//os/hal/ports/STM32/LLD/TIMv1/stm32_tim.h"
 1773              		.file 38 "../e-puck2_main-processor/ChibiOS//os/hal/include/i2c.h"
 1774              		.file 39 "../e-puck2_main-processor/ChibiOS//os/hal/ports/STM32/LLD/I2Cv1/i2c_lld.h"
 1775              		.file 40 "../e-puck2_main-processor/ChibiOS//os/hal/include/i2s.h"
 1776              		.file 41 "../e-puck2_main-processor/ChibiOS//os/hal/ports/STM32/LLD/SPIv1/i2s_lld.h"
 1777              		.file 42 "../e-puck2_main-processor/ChibiOS//os/hal/include/pwm.h"
 1778              		.file 43 "../e-puck2_main-processor/ChibiOS//os/hal/ports/STM32/LLD/TIMv1/pwm_lld.h"
 1779              		.file 44 "../e-puck2_main-processor/ChibiOS//os/hal/include/serial.h"
 1780              		.file 45 "../e-puck2_main-processor/ChibiOS//os/hal/ports/STM32/LLD/USARTv1/serial_lld.h"
 1781              		.file 46 "../e-puck2_main-processor/ChibiOS//os/hal/include/sdc.h"
 1782              		.file 47 "../e-puck2_main-processor/ChibiOS//os/hal/ports/STM32/LLD/sdc_lld.h"
 1783              		.file 48 "../e-puck2_main-processor/ChibiOS//os/hal/include/spi.h"
 1784              		.file 49 "../e-puck2_main-processor/ChibiOS//os/hal/ports/STM32/LLD/SPIv1/spi_lld.h"
 1785              		.file 50 "../e-puck2_main-processor/ChibiOS//os/hal/include/usb.h"
 1786              		.file 51 "../e-puck2_main-processor/ChibiOS//os/hal/ports/STM32/LLD/OTGv1/usb_lld.h"
 1787              		.file 52 "../e-puck2_main-processor/ChibiOS//os/hal/ports/STM32/LLD/OTGv1/stm32_otg.h"
 1788              		.file 53 "../e-puck2_main-processor/ChibiOS//os/hal/ports/common/ARMCMx/nvic.h"
 1789              		.file 54 "../e-puck2_main-processor/ChibiOS//os/rt/include/chthreads.h"