ARM GAS  /var/folders/d2/nstgp4h54kz7g1l847x_b8wc0000gn/T//ccaLMcAL.s 			page 1


   1              		.cpu cortex-m4
   2              		.eabi_attribute 27, 1
   3              		.eabi_attribute 28, 1
   4              		.eabi_attribute 20, 1
   5              		.eabi_attribute 21, 1
   6              		.eabi_attribute 23, 3
   7              		.eabi_attribute 24, 1
   8              		.eabi_attribute 25, 1
   9              		.eabi_attribute 26, 1
  10              		.eabi_attribute 30, 6
  11              		.eabi_attribute 34, 1
  12              		.eabi_attribute 18, 4
  13              		.file	"adc_lld.c"
  14              		.section	.text.port_lock,"ax",%progbits
  15              		.align	1
  16              		.syntax unified
  17              		.thumb
  18              		.thumb_func
  19              		.fpu fpv4-sp-d16
  20              		.type	port_lock, %function
  21              	port_lock:
  22              		@ args = 0, pretend = 0, frame = 8
  23              		@ frame_needed = 1, uses_anonymous_args = 0
  24              		@ link register save eliminated.
  25 0000 80B4     		push	{r7}
  26 0002 83B0     		sub	sp, sp, #12
  27 0004 00AF     		add	r7, sp, #0
  28 0006 2023     		movs	r3, #32
  29 0008 7B60     		str	r3, [r7, #4]
  30 000a 7B68     		ldr	r3, [r7, #4]
  31              		.syntax unified
  32              	@ 546 "../e-puck2_main-processor/ChibiOS//os/ext/CMSIS/include/core_cmFunc.h" 1
  33 000c 83F31188 		MSR basepri, r3
  34              	@ 0 "" 2
  35              		.thumb
  36              		.syntax unified
  37 0010 00BF     		nop
  38 0012 0C37     		adds	r7, r7, #12
  39 0014 BD46     		mov	sp, r7
  40              		@ sp needed
  41 0016 5DF8047B 		ldr	r7, [sp], #4
  42 001a 7047     		bx	lr
  43              		.size	port_lock, .-port_lock
  44              		.section	.text.port_unlock,"ax",%progbits
  45              		.align	1
  46              		.syntax unified
  47              		.thumb
  48              		.thumb_func
  49              		.fpu fpv4-sp-d16
  50              		.type	port_unlock, %function
  51              	port_unlock:
  52              		@ args = 0, pretend = 0, frame = 8
  53              		@ frame_needed = 1, uses_anonymous_args = 0
  54              		@ link register save eliminated.
  55 0000 80B4     		push	{r7}
  56 0002 83B0     		sub	sp, sp, #12
  57 0004 00AF     		add	r7, sp, #0
ARM GAS  /var/folders/d2/nstgp4h54kz7g1l847x_b8wc0000gn/T//ccaLMcAL.s 			page 2


  58 0006 0023     		movs	r3, #0
  59 0008 7B60     		str	r3, [r7, #4]
  60 000a 7B68     		ldr	r3, [r7, #4]
  61              		.syntax unified
  62              	@ 546 "../e-puck2_main-processor/ChibiOS//os/ext/CMSIS/include/core_cmFunc.h" 1
  63 000c 83F31188 		MSR basepri, r3
  64              	@ 0 "" 2
  65              		.thumb
  66              		.syntax unified
  67 0010 00BF     		nop
  68 0012 0C37     		adds	r7, r7, #12
  69 0014 BD46     		mov	sp, r7
  70              		@ sp needed
  71 0016 5DF8047B 		ldr	r7, [sp], #4
  72 001a 7047     		bx	lr
  73              		.size	port_unlock, .-port_unlock
  74              		.section	.text.port_lock_from_isr,"ax",%progbits
  75              		.align	1
  76              		.syntax unified
  77              		.thumb
  78              		.thumb_func
  79              		.fpu fpv4-sp-d16
  80              		.type	port_lock_from_isr, %function
  81              	port_lock_from_isr:
  82              		@ args = 0, pretend = 0, frame = 0
  83              		@ frame_needed = 1, uses_anonymous_args = 0
  84 0000 80B5     		push	{r7, lr}
  85 0002 00AF     		add	r7, sp, #0
  86 0004 FFF7FEFF 		bl	port_lock
  87 0008 00BF     		nop
  88 000a 80BD     		pop	{r7, pc}
  89              		.size	port_lock_from_isr, .-port_lock_from_isr
  90              		.section	.text.port_unlock_from_isr,"ax",%progbits
  91              		.align	1
  92              		.syntax unified
  93              		.thumb
  94              		.thumb_func
  95              		.fpu fpv4-sp-d16
  96              		.type	port_unlock_from_isr, %function
  97              	port_unlock_from_isr:
  98              		@ args = 0, pretend = 0, frame = 0
  99              		@ frame_needed = 1, uses_anonymous_args = 0
 100 0000 80B5     		push	{r7, lr}
 101 0002 00AF     		add	r7, sp, #0
 102 0004 FFF7FEFF 		bl	port_unlock
 103 0008 00BF     		nop
 104 000a 80BD     		pop	{r7, pc}
 105              		.size	port_unlock_from_isr, .-port_unlock_from_isr
 106              		.section	.text.chSysLockFromISR,"ax",%progbits
 107              		.align	1
 108              		.syntax unified
 109              		.thumb
 110              		.thumb_func
 111              		.fpu fpv4-sp-d16
 112              		.type	chSysLockFromISR, %function
 113              	chSysLockFromISR:
 114              		@ args = 0, pretend = 0, frame = 0
ARM GAS  /var/folders/d2/nstgp4h54kz7g1l847x_b8wc0000gn/T//ccaLMcAL.s 			page 3


 115              		@ frame_needed = 1, uses_anonymous_args = 0
 116 0000 80B5     		push	{r7, lr}
 117 0002 00AF     		add	r7, sp, #0
 118 0004 FFF7FEFF 		bl	port_lock_from_isr
 119 0008 FFF7FEFF 		bl	_stats_start_measure_crit_isr
 120 000c FFF7FEFF 		bl	_dbg_check_lock_from_isr
 121 0010 00BF     		nop
 122 0012 80BD     		pop	{r7, pc}
 123              		.size	chSysLockFromISR, .-chSysLockFromISR
 124              		.section	.text.chSysUnlockFromISR,"ax",%progbits
 125              		.align	1
 126              		.syntax unified
 127              		.thumb
 128              		.thumb_func
 129              		.fpu fpv4-sp-d16
 130              		.type	chSysUnlockFromISR, %function
 131              	chSysUnlockFromISR:
 132              		@ args = 0, pretend = 0, frame = 0
 133              		@ frame_needed = 1, uses_anonymous_args = 0
 134 0000 80B5     		push	{r7, lr}
 135 0002 00AF     		add	r7, sp, #0
 136 0004 FFF7FEFF 		bl	_dbg_check_unlock_from_isr
 137 0008 FFF7FEFF 		bl	_stats_stop_measure_crit_isr
 138 000c FFF7FEFF 		bl	port_unlock_from_isr
 139 0010 00BF     		nop
 140 0012 80BD     		pop	{r7, pc}
 141              		.size	chSysUnlockFromISR, .-chSysUnlockFromISR
 142              		.section	.text.osalSysLockFromISR,"ax",%progbits
 143              		.align	1
 144              		.syntax unified
 145              		.thumb
 146              		.thumb_func
 147              		.fpu fpv4-sp-d16
 148              		.type	osalSysLockFromISR, %function
 149              	osalSysLockFromISR:
 150              		@ args = 0, pretend = 0, frame = 0
 151              		@ frame_needed = 1, uses_anonymous_args = 0
 152 0000 80B5     		push	{r7, lr}
 153 0002 00AF     		add	r7, sp, #0
 154 0004 FFF7FEFF 		bl	chSysLockFromISR
 155 0008 00BF     		nop
 156 000a 80BD     		pop	{r7, pc}
 157              		.size	osalSysLockFromISR, .-osalSysLockFromISR
 158              		.section	.text.osalSysUnlockFromISR,"ax",%progbits
 159              		.align	1
 160              		.syntax unified
 161              		.thumb
 162              		.thumb_func
 163              		.fpu fpv4-sp-d16
 164              		.type	osalSysUnlockFromISR, %function
 165              	osalSysUnlockFromISR:
 166              		@ args = 0, pretend = 0, frame = 0
 167              		@ frame_needed = 1, uses_anonymous_args = 0
 168 0000 80B5     		push	{r7, lr}
 169 0002 00AF     		add	r7, sp, #0
 170 0004 FFF7FEFF 		bl	chSysUnlockFromISR
 171 0008 00BF     		nop
ARM GAS  /var/folders/d2/nstgp4h54kz7g1l847x_b8wc0000gn/T//ccaLMcAL.s 			page 4


 172 000a 80BD     		pop	{r7, pc}
 173              		.size	osalSysUnlockFromISR, .-osalSysUnlockFromISR
 174              		.section	.text.osalThreadResumeI,"ax",%progbits
 175              		.align	1
 176              		.syntax unified
 177              		.thumb
 178              		.thumb_func
 179              		.fpu fpv4-sp-d16
 180              		.type	osalThreadResumeI, %function
 181              	osalThreadResumeI:
 182              		@ args = 0, pretend = 0, frame = 8
 183              		@ frame_needed = 1, uses_anonymous_args = 0
 184 0000 80B5     		push	{r7, lr}
 185 0002 82B0     		sub	sp, sp, #8
 186 0004 00AF     		add	r7, sp, #0
 187 0006 7860     		str	r0, [r7, #4]
 188 0008 3960     		str	r1, [r7]
 189 000a 3968     		ldr	r1, [r7]
 190 000c 7868     		ldr	r0, [r7, #4]
 191 000e FFF7FEFF 		bl	chThdResumeI
 192 0012 00BF     		nop
 193 0014 0837     		adds	r7, r7, #8
 194 0016 BD46     		mov	sp, r7
 195              		@ sp needed
 196 0018 80BD     		pop	{r7, pc}
 197              		.size	osalThreadResumeI, .-osalThreadResumeI
 198              		.global	ADCD1
 199              		.section	.bss.ADCD1,"aw",%nobits
 200              		.align	2
 201              		.type	ADCD1, %object
 202              		.size	ADCD1, 56
 203              	ADCD1:
 204 0000 00000000 		.space	56
 204      00000000 
 204      00000000 
 204      00000000 
 204      00000000 
 205              		.global	ADCD2
 206              		.section	.bss.ADCD2,"aw",%nobits
 207              		.align	2
 208              		.type	ADCD2, %object
 209              		.size	ADCD2, 56
 210              	ADCD2:
 211 0000 00000000 		.space	56
 211      00000000 
 211      00000000 
 211      00000000 
 211      00000000 
 212              		.global	ADCD3
 213              		.section	.bss.ADCD3,"aw",%nobits
 214              		.align	2
 215              		.type	ADCD3, %object
 216              		.size	ADCD3, 56
 217              	ADCD3:
 218 0000 00000000 		.space	56
 218      00000000 
 218      00000000 
ARM GAS  /var/folders/d2/nstgp4h54kz7g1l847x_b8wc0000gn/T//ccaLMcAL.s 			page 5


 218      00000000 
 218      00000000 
 219              		.section	.text.adc_lld_serve_rx_interrupt,"ax",%progbits
 220              		.align	1
 221              		.syntax unified
 222              		.thumb
 223              		.thumb_func
 224              		.fpu fpv4-sp-d16
 225              		.type	adc_lld_serve_rx_interrupt, %function
 226              	adc_lld_serve_rx_interrupt:
 227              		@ args = 0, pretend = 0, frame = 16
 228              		@ frame_needed = 1, uses_anonymous_args = 0
 229 0000 80B5     		push	{r7, lr}
 230 0002 84B0     		sub	sp, sp, #16
 231 0004 00AF     		add	r7, sp, #0
 232 0006 7860     		str	r0, [r7, #4]
 233 0008 3960     		str	r1, [r7]
 234 000a 3B68     		ldr	r3, [r7]
 235 000c 03F00C03 		and	r3, r3, #12
 236 0010 002B     		cmp	r3, #0
 237 0012 26D0     		beq	.L11
 238 0014 7868     		ldr	r0, [r7, #4]
 239 0016 FFF7FEFF 		bl	adc_lld_stop_conversion
 240 001a 7B68     		ldr	r3, [r7, #4]
 241 001c 1B69     		ldr	r3, [r3, #16]
 242 001e 9B68     		ldr	r3, [r3, #8]
 243 0020 002B     		cmp	r3, #0
 244 0022 0FD0     		beq	.L12
 245 0024 7B68     		ldr	r3, [r7, #4]
 246 0026 0522     		movs	r2, #5
 247 0028 1A70     		strb	r2, [r3]
 248 002a 7B68     		ldr	r3, [r7, #4]
 249 002c 1B69     		ldr	r3, [r3, #16]
 250 002e 9B68     		ldr	r3, [r3, #8]
 251 0030 0021     		movs	r1, #0
 252 0032 7868     		ldr	r0, [r7, #4]
 253 0034 9847     		blx	r3
 254 0036 7B68     		ldr	r3, [r7, #4]
 255 0038 1B78     		ldrb	r3, [r3]	@ zero_extendqisi2
 256 003a 052B     		cmp	r3, #5
 257 003c 02D1     		bne	.L12
 258 003e 7B68     		ldr	r3, [r7, #4]
 259 0040 0222     		movs	r2, #2
 260 0042 1A70     		strb	r2, [r3]
 261              	.L12:
 262 0044 7B68     		ldr	r3, [r7, #4]
 263 0046 0022     		movs	r2, #0
 264 0048 1A61     		str	r2, [r3, #16]
 265 004a FFF7FEFF 		bl	osalSysLockFromISR
 266 004e 7B68     		ldr	r3, [r7, #4]
 267 0050 1433     		adds	r3, r3, #20
 268 0052 4FF0FF31 		mov	r1, #-1
 269 0056 1846     		mov	r0, r3
 270 0058 FFF7FEFF 		bl	osalThreadResumeI
 271 005c FFF7FEFF 		bl	osalSysUnlockFromISR
 272 0060 7CE0     		b	.L22
 273              	.L11:
ARM GAS  /var/folders/d2/nstgp4h54kz7g1l847x_b8wc0000gn/T//ccaLMcAL.s 			page 6


 274 0062 7B68     		ldr	r3, [r7, #4]
 275 0064 1B69     		ldr	r3, [r3, #16]
 276 0066 002B     		cmp	r3, #0
 277 0068 78D0     		beq	.L22
 278 006a 3B68     		ldr	r3, [r7]
 279 006c 03F02003 		and	r3, r3, #32
 280 0070 002B     		cmp	r3, #0
 281 0072 5FD0     		beq	.L14
 282 0074 7B68     		ldr	r3, [r7, #4]
 283 0076 1B69     		ldr	r3, [r3, #16]
 284 0078 1B78     		ldrb	r3, [r3]	@ zero_extendqisi2
 285 007a 002B     		cmp	r3, #0
 286 007c 2AD0     		beq	.L15
 287 007e 7B68     		ldr	r3, [r7, #4]
 288 0080 1B69     		ldr	r3, [r3, #16]
 289 0082 5B68     		ldr	r3, [r3, #4]
 290 0084 002B     		cmp	r3, #0
 291 0086 69D0     		beq	.L22
 292 0088 7B68     		ldr	r3, [r7, #4]
 293 008a DB68     		ldr	r3, [r3, #12]
 294 008c 012B     		cmp	r3, #1
 295 008e 17D9     		bls	.L17
 296 0090 7B68     		ldr	r3, [r7, #4]
 297 0092 DB68     		ldr	r3, [r3, #12]
 298 0094 5B08     		lsrs	r3, r3, #1
 299 0096 FB60     		str	r3, [r7, #12]
 300 0098 7B68     		ldr	r3, [r7, #4]
 301 009a 1B69     		ldr	r3, [r3, #16]
 302 009c 5B88     		ldrh	r3, [r3, #2]
 303 009e 1A46     		mov	r2, r3
 304 00a0 FB68     		ldr	r3, [r7, #12]
 305 00a2 02FB03F3 		mul	r3, r2, r3
 306 00a6 BB60     		str	r3, [r7, #8]
 307 00a8 7B68     		ldr	r3, [r7, #4]
 308 00aa 1B69     		ldr	r3, [r3, #16]
 309 00ac 5B68     		ldr	r3, [r3, #4]
 310 00ae 7A68     		ldr	r2, [r7, #4]
 311 00b0 9168     		ldr	r1, [r2, #8]
 312 00b2 BA68     		ldr	r2, [r7, #8]
 313 00b4 5200     		lsls	r2, r2, #1
 314 00b6 1144     		add	r1, r1, r2
 315 00b8 FA68     		ldr	r2, [r7, #12]
 316 00ba 7868     		ldr	r0, [r7, #4]
 317 00bc 9847     		blx	r3
 318 00be 4DE0     		b	.L22
 319              	.L17:
 320 00c0 7B68     		ldr	r3, [r7, #4]
 321 00c2 1B69     		ldr	r3, [r3, #16]
 322 00c4 5B68     		ldr	r3, [r3, #4]
 323 00c6 7A68     		ldr	r2, [r7, #4]
 324 00c8 9168     		ldr	r1, [r2, #8]
 325 00ca 7A68     		ldr	r2, [r7, #4]
 326 00cc D268     		ldr	r2, [r2, #12]
 327 00ce 7868     		ldr	r0, [r7, #4]
 328 00d0 9847     		blx	r3
 329 00d2 43E0     		b	.L22
 330              	.L15:
ARM GAS  /var/folders/d2/nstgp4h54kz7g1l847x_b8wc0000gn/T//ccaLMcAL.s 			page 7


 331 00d4 7868     		ldr	r0, [r7, #4]
 332 00d6 FFF7FEFF 		bl	adc_lld_stop_conversion
 333 00da 7B68     		ldr	r3, [r7, #4]
 334 00dc 1B69     		ldr	r3, [r3, #16]
 335 00de 5B68     		ldr	r3, [r3, #4]
 336 00e0 002B     		cmp	r3, #0
 337 00e2 16D0     		beq	.L19
 338 00e4 7B68     		ldr	r3, [r7, #4]
 339 00e6 0422     		movs	r2, #4
 340 00e8 1A70     		strb	r2, [r3]
 341 00ea 7B68     		ldr	r3, [r7, #4]
 342 00ec 1B69     		ldr	r3, [r3, #16]
 343 00ee 5B68     		ldr	r3, [r3, #4]
 344 00f0 7A68     		ldr	r2, [r7, #4]
 345 00f2 9168     		ldr	r1, [r2, #8]
 346 00f4 7A68     		ldr	r2, [r7, #4]
 347 00f6 D268     		ldr	r2, [r2, #12]
 348 00f8 7868     		ldr	r0, [r7, #4]
 349 00fa 9847     		blx	r3
 350 00fc 7B68     		ldr	r3, [r7, #4]
 351 00fe 1B78     		ldrb	r3, [r3]	@ zero_extendqisi2
 352 0100 042B     		cmp	r3, #4
 353 0102 0CD1     		bne	.L21
 354 0104 7B68     		ldr	r3, [r7, #4]
 355 0106 0222     		movs	r2, #2
 356 0108 1A70     		strb	r2, [r3]
 357 010a 7B68     		ldr	r3, [r7, #4]
 358 010c 0022     		movs	r2, #0
 359 010e 1A61     		str	r2, [r3, #16]
 360 0110 05E0     		b	.L21
 361              	.L19:
 362 0112 7B68     		ldr	r3, [r7, #4]
 363 0114 0222     		movs	r2, #2
 364 0116 1A70     		strb	r2, [r3]
 365 0118 7B68     		ldr	r3, [r7, #4]
 366 011a 0022     		movs	r2, #0
 367 011c 1A61     		str	r2, [r3, #16]
 368              	.L21:
 369 011e FFF7FEFF 		bl	osalSysLockFromISR
 370 0122 7B68     		ldr	r3, [r7, #4]
 371 0124 1433     		adds	r3, r3, #20
 372 0126 0021     		movs	r1, #0
 373 0128 1846     		mov	r0, r3
 374 012a FFF7FEFF 		bl	osalThreadResumeI
 375 012e FFF7FEFF 		bl	osalSysUnlockFromISR
 376 0132 13E0     		b	.L22
 377              	.L14:
 378 0134 3B68     		ldr	r3, [r7]
 379 0136 03F01003 		and	r3, r3, #16
 380 013a 002B     		cmp	r3, #0
 381 013c 0ED0     		beq	.L22
 382 013e 7B68     		ldr	r3, [r7, #4]
 383 0140 1B69     		ldr	r3, [r3, #16]
 384 0142 5B68     		ldr	r3, [r3, #4]
 385 0144 002B     		cmp	r3, #0
 386 0146 09D0     		beq	.L22
 387 0148 7B68     		ldr	r3, [r7, #4]
ARM GAS  /var/folders/d2/nstgp4h54kz7g1l847x_b8wc0000gn/T//ccaLMcAL.s 			page 8


 388 014a 1B69     		ldr	r3, [r3, #16]
 389 014c 5B68     		ldr	r3, [r3, #4]
 390 014e 7A68     		ldr	r2, [r7, #4]
 391 0150 9168     		ldr	r1, [r2, #8]
 392 0152 7A68     		ldr	r2, [r7, #4]
 393 0154 D268     		ldr	r2, [r2, #12]
 394 0156 5208     		lsrs	r2, r2, #1
 395 0158 7868     		ldr	r0, [r7, #4]
 396 015a 9847     		blx	r3
 397              	.L22:
 398 015c 00BF     		nop
 399 015e 1037     		adds	r7, r7, #16
 400 0160 BD46     		mov	sp, r7
 401              		@ sp needed
 402 0162 80BD     		pop	{r7, pc}
 403              		.size	adc_lld_serve_rx_interrupt, .-adc_lld_serve_rx_interrupt
 404              		.section	.text.Vector88,"ax",%progbits
 405              		.align	1
 406              		.global	Vector88
 407              		.syntax unified
 408              		.thumb
 409              		.thumb_func
 410              		.fpu fpv4-sp-d16
 411              		.type	Vector88, %function
 412              	Vector88:
 413              		@ args = 0, pretend = 0, frame = 8
 414              		@ frame_needed = 1, uses_anonymous_args = 0
 415 0000 80B5     		push	{r7, lr}
 416 0002 82B0     		sub	sp, sp, #8
 417 0004 00AF     		add	r7, sp, #0
 418 0006 FFF7FEFF 		bl	_stats_increase_irq
 419 000a FFF7FEFF 		bl	_dbg_check_enter_isr
 420 000e 594B     		ldr	r3, .L30
 421 0010 1B68     		ldr	r3, [r3]
 422 0012 7B60     		str	r3, [r7, #4]
 423 0014 574B     		ldr	r3, .L30
 424 0016 0022     		movs	r2, #0
 425 0018 1A60     		str	r2, [r3]
 426 001a 7B68     		ldr	r3, [r7, #4]
 427 001c 03F02003 		and	r3, r3, #32
 428 0020 002B     		cmp	r3, #0
 429 0022 2DD0     		beq	.L24
 430 0024 544B     		ldr	r3, .L30+4
 431 0026 1B6B     		ldr	r3, [r3, #48]
 432 0028 1B68     		ldr	r3, [r3]
 433 002a 5B68     		ldr	r3, [r3, #4]
 434 002c 002B     		cmp	r3, #0
 435 002e 27D0     		beq	.L24
 436 0030 514B     		ldr	r3, .L30+4
 437 0032 1B69     		ldr	r3, [r3, #16]
 438 0034 002B     		cmp	r3, #0
 439 0036 23D0     		beq	.L24
 440 0038 4F48     		ldr	r0, .L30+4
 441 003a FFF7FEFF 		bl	adc_lld_stop_conversion
 442 003e 4E4B     		ldr	r3, .L30+4
 443 0040 1B69     		ldr	r3, [r3, #16]
 444 0042 9B68     		ldr	r3, [r3, #8]
ARM GAS  /var/folders/d2/nstgp4h54kz7g1l847x_b8wc0000gn/T//ccaLMcAL.s 			page 9


 445 0044 002B     		cmp	r3, #0
 446 0046 0FD0     		beq	.L25
 447 0048 4B4B     		ldr	r3, .L30+4
 448 004a 0522     		movs	r2, #5
 449 004c 1A70     		strb	r2, [r3]
 450 004e 4A4B     		ldr	r3, .L30+4
 451 0050 1B69     		ldr	r3, [r3, #16]
 452 0052 9B68     		ldr	r3, [r3, #8]
 453 0054 0121     		movs	r1, #1
 454 0056 4848     		ldr	r0, .L30+4
 455 0058 9847     		blx	r3
 456 005a 474B     		ldr	r3, .L30+4
 457 005c 1B78     		ldrb	r3, [r3]	@ zero_extendqisi2
 458 005e 052B     		cmp	r3, #5
 459 0060 02D1     		bne	.L25
 460 0062 454B     		ldr	r3, .L30+4
 461 0064 0222     		movs	r2, #2
 462 0066 1A70     		strb	r2, [r3]
 463              	.L25:
 464 0068 434B     		ldr	r3, .L30+4
 465 006a 0022     		movs	r2, #0
 466 006c 1A61     		str	r2, [r3, #16]
 467 006e FFF7FEFF 		bl	osalSysLockFromISR
 468 0072 4FF0FF31 		mov	r1, #-1
 469 0076 4148     		ldr	r0, .L30+8
 470 0078 FFF7FEFF 		bl	osalThreadResumeI
 471 007c FFF7FEFF 		bl	osalSysUnlockFromISR
 472              	.L24:
 473 0080 3F4B     		ldr	r3, .L30+12
 474 0082 1B68     		ldr	r3, [r3]
 475 0084 7B60     		str	r3, [r7, #4]
 476 0086 3E4B     		ldr	r3, .L30+12
 477 0088 0022     		movs	r2, #0
 478 008a 1A60     		str	r2, [r3]
 479 008c 7B68     		ldr	r3, [r7, #4]
 480 008e 03F02003 		and	r3, r3, #32
 481 0092 002B     		cmp	r3, #0
 482 0094 2DD0     		beq	.L26
 483 0096 3B4B     		ldr	r3, .L30+16
 484 0098 1B6B     		ldr	r3, [r3, #48]
 485 009a 1B68     		ldr	r3, [r3]
 486 009c 5B68     		ldr	r3, [r3, #4]
 487 009e 002B     		cmp	r3, #0
 488 00a0 27D0     		beq	.L26
 489 00a2 384B     		ldr	r3, .L30+16
 490 00a4 1B69     		ldr	r3, [r3, #16]
 491 00a6 002B     		cmp	r3, #0
 492 00a8 23D0     		beq	.L26
 493 00aa 3648     		ldr	r0, .L30+16
 494 00ac FFF7FEFF 		bl	adc_lld_stop_conversion
 495 00b0 344B     		ldr	r3, .L30+16
 496 00b2 1B69     		ldr	r3, [r3, #16]
 497 00b4 9B68     		ldr	r3, [r3, #8]
 498 00b6 002B     		cmp	r3, #0
 499 00b8 0FD0     		beq	.L27
 500 00ba 324B     		ldr	r3, .L30+16
 501 00bc 0522     		movs	r2, #5
ARM GAS  /var/folders/d2/nstgp4h54kz7g1l847x_b8wc0000gn/T//ccaLMcAL.s 			page 10


 502 00be 1A70     		strb	r2, [r3]
 503 00c0 304B     		ldr	r3, .L30+16
 504 00c2 1B69     		ldr	r3, [r3, #16]
 505 00c4 9B68     		ldr	r3, [r3, #8]
 506 00c6 0121     		movs	r1, #1
 507 00c8 2E48     		ldr	r0, .L30+16
 508 00ca 9847     		blx	r3
 509 00cc 2D4B     		ldr	r3, .L30+16
 510 00ce 1B78     		ldrb	r3, [r3]	@ zero_extendqisi2
 511 00d0 052B     		cmp	r3, #5
 512 00d2 02D1     		bne	.L27
 513 00d4 2B4B     		ldr	r3, .L30+16
 514 00d6 0222     		movs	r2, #2
 515 00d8 1A70     		strb	r2, [r3]
 516              	.L27:
 517 00da 2A4B     		ldr	r3, .L30+16
 518 00dc 0022     		movs	r2, #0
 519 00de 1A61     		str	r2, [r3, #16]
 520 00e0 FFF7FEFF 		bl	osalSysLockFromISR
 521 00e4 4FF0FF31 		mov	r1, #-1
 522 00e8 2748     		ldr	r0, .L30+20
 523 00ea FFF7FEFF 		bl	osalThreadResumeI
 524 00ee FFF7FEFF 		bl	osalSysUnlockFromISR
 525              	.L26:
 526 00f2 264B     		ldr	r3, .L30+24
 527 00f4 1B68     		ldr	r3, [r3]
 528 00f6 7B60     		str	r3, [r7, #4]
 529 00f8 244B     		ldr	r3, .L30+24
 530 00fa 0022     		movs	r2, #0
 531 00fc 1A60     		str	r2, [r3]
 532 00fe 7B68     		ldr	r3, [r7, #4]
 533 0100 03F02003 		and	r3, r3, #32
 534 0104 002B     		cmp	r3, #0
 535 0106 2DD0     		beq	.L28
 536 0108 214B     		ldr	r3, .L30+28
 537 010a 1B6B     		ldr	r3, [r3, #48]
 538 010c 1B68     		ldr	r3, [r3]
 539 010e 5B68     		ldr	r3, [r3, #4]
 540 0110 002B     		cmp	r3, #0
 541 0112 27D0     		beq	.L28
 542 0114 1E4B     		ldr	r3, .L30+28
 543 0116 1B69     		ldr	r3, [r3, #16]
 544 0118 002B     		cmp	r3, #0
 545 011a 23D0     		beq	.L28
 546 011c 1C48     		ldr	r0, .L30+28
 547 011e FFF7FEFF 		bl	adc_lld_stop_conversion
 548 0122 1B4B     		ldr	r3, .L30+28
 549 0124 1B69     		ldr	r3, [r3, #16]
 550 0126 9B68     		ldr	r3, [r3, #8]
 551 0128 002B     		cmp	r3, #0
 552 012a 0FD0     		beq	.L29
 553 012c 184B     		ldr	r3, .L30+28
 554 012e 0522     		movs	r2, #5
 555 0130 1A70     		strb	r2, [r3]
 556 0132 174B     		ldr	r3, .L30+28
 557 0134 1B69     		ldr	r3, [r3, #16]
 558 0136 9B68     		ldr	r3, [r3, #8]
ARM GAS  /var/folders/d2/nstgp4h54kz7g1l847x_b8wc0000gn/T//ccaLMcAL.s 			page 11


 559 0138 0121     		movs	r1, #1
 560 013a 1548     		ldr	r0, .L30+28
 561 013c 9847     		blx	r3
 562 013e 144B     		ldr	r3, .L30+28
 563 0140 1B78     		ldrb	r3, [r3]	@ zero_extendqisi2
 564 0142 052B     		cmp	r3, #5
 565 0144 02D1     		bne	.L29
 566 0146 124B     		ldr	r3, .L30+28
 567 0148 0222     		movs	r2, #2
 568 014a 1A70     		strb	r2, [r3]
 569              	.L29:
 570 014c 104B     		ldr	r3, .L30+28
 571 014e 0022     		movs	r2, #0
 572 0150 1A61     		str	r2, [r3, #16]
 573 0152 FFF7FEFF 		bl	osalSysLockFromISR
 574 0156 4FF0FF31 		mov	r1, #-1
 575 015a 0E48     		ldr	r0, .L30+32
 576 015c FFF7FEFF 		bl	osalThreadResumeI
 577 0160 FFF7FEFF 		bl	osalSysUnlockFromISR
 578              	.L28:
 579 0164 FFF7FEFF 		bl	_dbg_check_leave_isr
 580 0168 FFF7FEFF 		bl	_port_irq_epilogue
 581 016c 00BF     		nop
 582 016e 0837     		adds	r7, r7, #8
 583 0170 BD46     		mov	sp, r7
 584              		@ sp needed
 585 0172 80BD     		pop	{r7, pc}
 586              	.L31:
 587              		.align	2
 588              	.L30:
 589 0174 00200140 		.word	1073815552
 590 0178 00000000 		.word	ADCD1
 591 017c 14000000 		.word	ADCD1+20
 592 0180 00210140 		.word	1073815808
 593 0184 00000000 		.word	ADCD2
 594 0188 14000000 		.word	ADCD2+20
 595 018c 00220140 		.word	1073816064
 596 0190 00000000 		.word	ADCD3
 597 0194 14000000 		.word	ADCD3+20
 598              		.size	Vector88, .-Vector88
 599              		.section	.text.adc_lld_init,"ax",%progbits
 600              		.align	1
 601              		.global	adc_lld_init
 602              		.syntax unified
 603              		.thumb
 604              		.thumb_func
 605              		.fpu fpv4-sp-d16
 606              		.type	adc_lld_init, %function
 607              	adc_lld_init:
 608              		@ args = 0, pretend = 0, frame = 0
 609              		@ frame_needed = 1, uses_anonymous_args = 0
 610 0000 80B5     		push	{r7, lr}
 611 0002 00AF     		add	r7, sp, #0
 612 0004 1448     		ldr	r0, .L33
 613 0006 FFF7FEFF 		bl	adcObjectInit
 614 000a 134B     		ldr	r3, .L33
 615 000c 134A     		ldr	r2, .L33+4
ARM GAS  /var/folders/d2/nstgp4h54kz7g1l847x_b8wc0000gn/T//ccaLMcAL.s 			page 12


 616 000e DA62     		str	r2, [r3, #44]
 617 0010 114B     		ldr	r3, .L33
 618 0012 134A     		ldr	r2, .L33+8
 619 0014 1A63     		str	r2, [r3, #48]
 620 0016 104B     		ldr	r3, .L33
 621 0018 124A     		ldr	r2, .L33+12
 622 001a 5A63     		str	r2, [r3, #52]
 623 001c 1248     		ldr	r0, .L33+16
 624 001e FFF7FEFF 		bl	adcObjectInit
 625 0022 114B     		ldr	r3, .L33+16
 626 0024 114A     		ldr	r2, .L33+20
 627 0026 DA62     		str	r2, [r3, #44]
 628 0028 0F4B     		ldr	r3, .L33+16
 629 002a 114A     		ldr	r2, .L33+24
 630 002c 1A63     		str	r2, [r3, #48]
 631 002e 0E4B     		ldr	r3, .L33+16
 632 0030 104A     		ldr	r2, .L33+28
 633 0032 5A63     		str	r2, [r3, #52]
 634 0034 1048     		ldr	r0, .L33+32
 635 0036 FFF7FEFF 		bl	adcObjectInit
 636 003a 0F4B     		ldr	r3, .L33+32
 637 003c 0F4A     		ldr	r2, .L33+36
 638 003e DA62     		str	r2, [r3, #44]
 639 0040 0D4B     		ldr	r3, .L33+32
 640 0042 0F4A     		ldr	r2, .L33+40
 641 0044 1A63     		str	r2, [r3, #48]
 642 0046 0C4B     		ldr	r3, .L33+32
 643 0048 0E4A     		ldr	r2, .L33+44
 644 004a 5A63     		str	r2, [r3, #52]
 645 004c 0621     		movs	r1, #6
 646 004e 1220     		movs	r0, #18
 647 0050 FFF7FEFF 		bl	nvicEnableVector
 648 0054 00BF     		nop
 649 0056 80BD     		pop	{r7, pc}
 650              	.L34:
 651              		.align	2
 652              	.L33:
 653 0058 00000000 		.word	ADCD1
 654 005c 00200140 		.word	1073815552
 655 0060 90000000 		.word	_stm32_dma_streams+144
 656 0064 162C0200 		.word	142358
 657 0068 00000000 		.word	ADCD2
 658 006c 00210140 		.word	1073815808
 659 0070 78000000 		.word	_stm32_dma_streams+120
 660 0074 162C0202 		.word	33696790
 661 0078 00000000 		.word	ADCD3
 662 007c 00220140 		.word	1073816064
 663 0080 6C000000 		.word	_stm32_dma_streams+108
 664 0084 162C0204 		.word	67251222
 665              		.size	adc_lld_init, .-adc_lld_init
 666              		.section	.text.adc_lld_start,"ax",%progbits
 667              		.align	1
 668              		.global	adc_lld_start
 669              		.syntax unified
 670              		.thumb
 671              		.thumb_func
 672              		.fpu fpv4-sp-d16
ARM GAS  /var/folders/d2/nstgp4h54kz7g1l847x_b8wc0000gn/T//ccaLMcAL.s 			page 13


 673              		.type	adc_lld_start, %function
 674              	adc_lld_start:
 675              		@ args = 0, pretend = 0, frame = 16
 676              		@ frame_needed = 1, uses_anonymous_args = 0
 677 0000 80B5     		push	{r7, lr}
 678 0002 84B0     		sub	sp, sp, #16
 679 0004 00AF     		add	r7, sp, #0
 680 0006 7860     		str	r0, [r7, #4]
 681 0008 7B68     		ldr	r3, [r7, #4]
 682 000a 1B78     		ldrb	r3, [r3]	@ zero_extendqisi2
 683 000c 012B     		cmp	r3, #1
 684 000e 6DD1     		bne	.L43
 685 0010 7B68     		ldr	r3, [r7, #4]
 686 0012 384A     		ldr	r2, .L44
 687 0014 9342     		cmp	r3, r2
 688 0016 19D1     		bne	.L37
 689 0018 7B68     		ldr	r3, [r7, #4]
 690 001a 186B     		ldr	r0, [r3, #48]
 691 001c 7B68     		ldr	r3, [r7, #4]
 692 001e 364A     		ldr	r2, .L44+4
 693 0020 0621     		movs	r1, #6
 694 0022 FFF7FEFF 		bl	dmaStreamAllocate
 695 0026 0346     		mov	r3, r0
 696 0028 FB73     		strb	r3, [r7, #15]
 697 002a FB7B     		ldrb	r3, [r7, #15]	@ zero_extendqisi2
 698 002c 002B     		cmp	r3, #0
 699 002e 02D0     		beq	.L38
 700 0030 3248     		ldr	r0, .L44+8
 701 0032 FFF7FEFF 		bl	chSysHalt
 702              	.L38:
 703 0036 7B68     		ldr	r3, [r7, #4]
 704 0038 1B6B     		ldr	r3, [r3, #48]
 705 003a 1B68     		ldr	r3, [r3]
 706 003c 304A     		ldr	r2, .L44+12
 707 003e 9A60     		str	r2, [r3, #8]
 708 0040 304B     		ldr	r3, .L44+16
 709 0042 5B6C     		ldr	r3, [r3, #68]
 710 0044 2F4A     		ldr	r2, .L44+16
 711 0046 43F48073 		orr	r3, r3, #256
 712 004a 5364     		str	r3, [r2, #68]
 713              	.L37:
 714 004c 7B68     		ldr	r3, [r7, #4]
 715 004e 2E4A     		ldr	r2, .L44+20
 716 0050 9342     		cmp	r3, r2
 717 0052 19D1     		bne	.L39
 718 0054 7B68     		ldr	r3, [r7, #4]
 719 0056 186B     		ldr	r0, [r3, #48]
 720 0058 7B68     		ldr	r3, [r7, #4]
 721 005a 274A     		ldr	r2, .L44+4
 722 005c 0621     		movs	r1, #6
 723 005e FFF7FEFF 		bl	dmaStreamAllocate
 724 0062 0346     		mov	r3, r0
 725 0064 BB73     		strb	r3, [r7, #14]
 726 0066 BB7B     		ldrb	r3, [r7, #14]	@ zero_extendqisi2
 727 0068 002B     		cmp	r3, #0
 728 006a 02D0     		beq	.L40
 729 006c 2348     		ldr	r0, .L44+8
ARM GAS  /var/folders/d2/nstgp4h54kz7g1l847x_b8wc0000gn/T//ccaLMcAL.s 			page 14


 730 006e FFF7FEFF 		bl	chSysHalt
 731              	.L40:
 732 0072 7B68     		ldr	r3, [r7, #4]
 733 0074 1B6B     		ldr	r3, [r3, #48]
 734 0076 1B68     		ldr	r3, [r3]
 735 0078 244A     		ldr	r2, .L44+24
 736 007a 9A60     		str	r2, [r3, #8]
 737 007c 214B     		ldr	r3, .L44+16
 738 007e 5B6C     		ldr	r3, [r3, #68]
 739 0080 204A     		ldr	r2, .L44+16
 740 0082 43F40073 		orr	r3, r3, #512
 741 0086 5364     		str	r3, [r2, #68]
 742              	.L39:
 743 0088 7B68     		ldr	r3, [r7, #4]
 744 008a 214A     		ldr	r2, .L44+28
 745 008c 9342     		cmp	r3, r2
 746 008e 19D1     		bne	.L41
 747 0090 7B68     		ldr	r3, [r7, #4]
 748 0092 186B     		ldr	r0, [r3, #48]
 749 0094 7B68     		ldr	r3, [r7, #4]
 750 0096 184A     		ldr	r2, .L44+4
 751 0098 0621     		movs	r1, #6
 752 009a FFF7FEFF 		bl	dmaStreamAllocate
 753 009e 0346     		mov	r3, r0
 754 00a0 7B73     		strb	r3, [r7, #13]
 755 00a2 7B7B     		ldrb	r3, [r7, #13]	@ zero_extendqisi2
 756 00a4 002B     		cmp	r3, #0
 757 00a6 02D0     		beq	.L42
 758 00a8 1448     		ldr	r0, .L44+8
 759 00aa FFF7FEFF 		bl	chSysHalt
 760              	.L42:
 761 00ae 7B68     		ldr	r3, [r7, #4]
 762 00b0 1B6B     		ldr	r3, [r3, #48]
 763 00b2 1B68     		ldr	r3, [r3]
 764 00b4 174A     		ldr	r2, .L44+32
 765 00b6 9A60     		str	r2, [r3, #8]
 766 00b8 124B     		ldr	r3, .L44+16
 767 00ba 5B6C     		ldr	r3, [r3, #68]
 768 00bc 114A     		ldr	r2, .L44+16
 769 00be 43F48063 		orr	r3, r3, #1024
 770 00c2 5364     		str	r3, [r2, #68]
 771              	.L41:
 772 00c4 144B     		ldr	r3, .L44+36
 773 00c6 5B68     		ldr	r3, [r3, #4]
 774 00c8 03F44003 		and	r3, r3, #12582912
 775 00cc 124A     		ldr	r2, .L44+36
 776 00ce 43F44033 		orr	r3, r3, #196608
 777 00d2 5360     		str	r3, [r2, #4]
 778 00d4 7B68     		ldr	r3, [r7, #4]
 779 00d6 DB6A     		ldr	r3, [r3, #44]
 780 00d8 0022     		movs	r2, #0
 781 00da 5A60     		str	r2, [r3, #4]
 782 00dc 7B68     		ldr	r3, [r7, #4]
 783 00de DB6A     		ldr	r3, [r3, #44]
 784 00e0 0022     		movs	r2, #0
 785 00e2 9A60     		str	r2, [r3, #8]
 786 00e4 7B68     		ldr	r3, [r7, #4]
ARM GAS  /var/folders/d2/nstgp4h54kz7g1l847x_b8wc0000gn/T//ccaLMcAL.s 			page 15


 787 00e6 DB6A     		ldr	r3, [r3, #44]
 788 00e8 0122     		movs	r2, #1
 789 00ea 9A60     		str	r2, [r3, #8]
 790              	.L43:
 791 00ec 00BF     		nop
 792 00ee 1037     		adds	r7, r7, #16
 793 00f0 BD46     		mov	sp, r7
 794              		@ sp needed
 795 00f2 80BD     		pop	{r7, pc}
 796              	.L45:
 797              		.align	2
 798              	.L44:
 799 00f4 00000000 		.word	ADCD1
 800 00f8 00000000 		.word	adc_lld_serve_rx_interrupt
 801 00fc 00000000 		.word	__func__.9858
 802 0100 4C200140 		.word	1073815628
 803 0104 00380240 		.word	1073887232
 804 0108 00000000 		.word	ADCD2
 805 010c 4C210140 		.word	1073815884
 806 0110 00000000 		.word	ADCD3
 807 0114 4C220140 		.word	1073816140
 808 0118 00230140 		.word	1073816320
 809              		.size	adc_lld_start, .-adc_lld_start
 810              		.section	.text.adc_lld_stop,"ax",%progbits
 811              		.align	1
 812              		.global	adc_lld_stop
 813              		.syntax unified
 814              		.thumb
 815              		.thumb_func
 816              		.fpu fpv4-sp-d16
 817              		.type	adc_lld_stop, %function
 818              	adc_lld_stop:
 819              		@ args = 0, pretend = 0, frame = 8
 820              		@ frame_needed = 1, uses_anonymous_args = 0
 821 0000 80B5     		push	{r7, lr}
 822 0002 82B0     		sub	sp, sp, #8
 823 0004 00AF     		add	r7, sp, #0
 824 0006 7860     		str	r0, [r7, #4]
 825 0008 7B68     		ldr	r3, [r7, #4]
 826 000a 1B78     		ldrb	r3, [r3]	@ zero_extendqisi2
 827 000c 022B     		cmp	r3, #2
 828 000e 2AD1     		bne	.L50
 829 0010 7B68     		ldr	r3, [r7, #4]
 830 0012 1B6B     		ldr	r3, [r3, #48]
 831 0014 1846     		mov	r0, r3
 832 0016 FFF7FEFF 		bl	dmaStreamRelease
 833 001a 7B68     		ldr	r3, [r7, #4]
 834 001c DB6A     		ldr	r3, [r3, #44]
 835 001e 0022     		movs	r2, #0
 836 0020 5A60     		str	r2, [r3, #4]
 837 0022 7B68     		ldr	r3, [r7, #4]
 838 0024 DB6A     		ldr	r3, [r3, #44]
 839 0026 0022     		movs	r2, #0
 840 0028 9A60     		str	r2, [r3, #8]
 841 002a 7B68     		ldr	r3, [r7, #4]
 842 002c 104A     		ldr	r2, .L51
 843 002e 9342     		cmp	r3, r2
ARM GAS  /var/folders/d2/nstgp4h54kz7g1l847x_b8wc0000gn/T//ccaLMcAL.s 			page 16


 844 0030 05D1     		bne	.L48
 845 0032 104B     		ldr	r3, .L51+4
 846 0034 5B6C     		ldr	r3, [r3, #68]
 847 0036 0F4A     		ldr	r2, .L51+4
 848 0038 23F48073 		bic	r3, r3, #256
 849 003c 5364     		str	r3, [r2, #68]
 850              	.L48:
 851 003e 7B68     		ldr	r3, [r7, #4]
 852 0040 0D4A     		ldr	r2, .L51+8
 853 0042 9342     		cmp	r3, r2
 854 0044 05D1     		bne	.L49
 855 0046 0B4B     		ldr	r3, .L51+4
 856 0048 5B6C     		ldr	r3, [r3, #68]
 857 004a 0A4A     		ldr	r2, .L51+4
 858 004c 23F40073 		bic	r3, r3, #512
 859 0050 5364     		str	r3, [r2, #68]
 860              	.L49:
 861 0052 7B68     		ldr	r3, [r7, #4]
 862 0054 094A     		ldr	r2, .L51+12
 863 0056 9342     		cmp	r3, r2
 864 0058 05D1     		bne	.L50
 865 005a 064B     		ldr	r3, .L51+4
 866 005c 5B6C     		ldr	r3, [r3, #68]
 867 005e 054A     		ldr	r2, .L51+4
 868 0060 23F48063 		bic	r3, r3, #1024
 869 0064 5364     		str	r3, [r2, #68]
 870              	.L50:
 871 0066 00BF     		nop
 872 0068 0837     		adds	r7, r7, #8
 873 006a BD46     		mov	sp, r7
 874              		@ sp needed
 875 006c 80BD     		pop	{r7, pc}
 876              	.L52:
 877 006e 00BF     		.align	2
 878              	.L51:
 879 0070 00000000 		.word	ADCD1
 880 0074 00380240 		.word	1073887232
 881 0078 00000000 		.word	ADCD2
 882 007c 00000000 		.word	ADCD3
 883              		.size	adc_lld_stop, .-adc_lld_stop
 884              		.section	.text.adc_lld_start_conversion,"ax",%progbits
 885              		.align	1
 886              		.global	adc_lld_start_conversion
 887              		.syntax unified
 888              		.thumb
 889              		.thumb_func
 890              		.fpu fpv4-sp-d16
 891              		.type	adc_lld_start_conversion, %function
 892              	adc_lld_start_conversion:
 893              		@ args = 0, pretend = 0, frame = 24
 894              		@ frame_needed = 1, uses_anonymous_args = 0
 895              		@ link register save eliminated.
 896 0000 80B4     		push	{r7}
 897 0002 87B0     		sub	sp, sp, #28
 898 0004 00AF     		add	r7, sp, #0
 899 0006 7860     		str	r0, [r7, #4]
 900 0008 7B68     		ldr	r3, [r7, #4]
ARM GAS  /var/folders/d2/nstgp4h54kz7g1l847x_b8wc0000gn/T//ccaLMcAL.s 			page 17


 901 000a 1B69     		ldr	r3, [r3, #16]
 902 000c 3B61     		str	r3, [r7, #16]
 903 000e 7B68     		ldr	r3, [r7, #4]
 904 0010 5B6B     		ldr	r3, [r3, #52]
 905 0012 7B61     		str	r3, [r7, #20]
 906 0014 3B69     		ldr	r3, [r7, #16]
 907 0016 1B78     		ldrb	r3, [r3]	@ zero_extendqisi2
 908 0018 002B     		cmp	r3, #0
 909 001a 0BD0     		beq	.L54
 910 001c 7B69     		ldr	r3, [r7, #20]
 911 001e 43F48073 		orr	r3, r3, #256
 912 0022 7B61     		str	r3, [r7, #20]
 913 0024 7B68     		ldr	r3, [r7, #4]
 914 0026 DB68     		ldr	r3, [r3, #12]
 915 0028 012B     		cmp	r3, #1
 916 002a 03D9     		bls	.L54
 917 002c 7B69     		ldr	r3, [r7, #20]
 918 002e 43F00803 		orr	r3, r3, #8
 919 0032 7B61     		str	r3, [r7, #20]
 920              	.L54:
 921 0034 7B68     		ldr	r3, [r7, #4]
 922 0036 9A68     		ldr	r2, [r3, #8]
 923 0038 7B68     		ldr	r3, [r7, #4]
 924 003a 1B6B     		ldr	r3, [r3, #48]
 925 003c 1B68     		ldr	r3, [r3]
 926 003e DA60     		str	r2, [r3, #12]
 927 0040 3B69     		ldr	r3, [r7, #16]
 928 0042 5B88     		ldrh	r3, [r3, #2]
 929 0044 1946     		mov	r1, r3
 930 0046 7B68     		ldr	r3, [r7, #4]
 931 0048 DA68     		ldr	r2, [r3, #12]
 932 004a 7B68     		ldr	r3, [r7, #4]
 933 004c 1B6B     		ldr	r3, [r3, #48]
 934 004e 1B68     		ldr	r3, [r3]
 935 0050 02FB01F2 		mul	r2, r2, r1
 936 0054 5A60     		str	r2, [r3, #4]
 937 0056 7B68     		ldr	r3, [r7, #4]
 938 0058 1B6B     		ldr	r3, [r3, #48]
 939 005a 1B68     		ldr	r3, [r3]
 940 005c 7A69     		ldr	r2, [r7, #20]
 941 005e 1A60     		str	r2, [r3]
 942 0060 7B68     		ldr	r3, [r7, #4]
 943 0062 1B6B     		ldr	r3, [r3, #48]
 944 0064 1B68     		ldr	r3, [r3]
 945 0066 1A68     		ldr	r2, [r3]
 946 0068 7B68     		ldr	r3, [r7, #4]
 947 006a 1B6B     		ldr	r3, [r3, #48]
 948 006c 1B68     		ldr	r3, [r3]
 949 006e 42F00102 		orr	r2, r2, #1
 950 0072 1A60     		str	r2, [r3]
 951 0074 7B68     		ldr	r3, [r7, #4]
 952 0076 DB6A     		ldr	r3, [r3, #44]
 953 0078 0022     		movs	r2, #0
 954 007a 1A60     		str	r2, [r3]
 955 007c 7B68     		ldr	r3, [r7, #4]
 956 007e DB6A     		ldr	r3, [r3, #44]
 957 0080 3A69     		ldr	r2, [r7, #16]
ARM GAS  /var/folders/d2/nstgp4h54kz7g1l847x_b8wc0000gn/T//ccaLMcAL.s 			page 18


 958 0082 5269     		ldr	r2, [r2, #20]
 959 0084 DA60     		str	r2, [r3, #12]
 960 0086 7B68     		ldr	r3, [r7, #4]
 961 0088 DB6A     		ldr	r3, [r3, #44]
 962 008a 3A69     		ldr	r2, [r7, #16]
 963 008c 9269     		ldr	r2, [r2, #24]
 964 008e 1A61     		str	r2, [r3, #16]
 965 0090 7B68     		ldr	r3, [r7, #4]
 966 0092 DB6A     		ldr	r3, [r3, #44]
 967 0094 3A69     		ldr	r2, [r7, #16]
 968 0096 D269     		ldr	r2, [r2, #28]
 969 0098 DA62     		str	r2, [r3, #44]
 970 009a 7B68     		ldr	r3, [r7, #4]
 971 009c DB6A     		ldr	r3, [r3, #44]
 972 009e 3A69     		ldr	r2, [r7, #16]
 973 00a0 126A     		ldr	r2, [r2, #32]
 974 00a2 1A63     		str	r2, [r3, #48]
 975 00a4 7B68     		ldr	r3, [r7, #4]
 976 00a6 DB6A     		ldr	r3, [r3, #44]
 977 00a8 3A69     		ldr	r2, [r7, #16]
 978 00aa 526A     		ldr	r2, [r2, #36]
 979 00ac 5A63     		str	r2, [r3, #52]
 980 00ae 3B69     		ldr	r3, [r7, #16]
 981 00b0 DB68     		ldr	r3, [r3, #12]
 982 00b2 7A68     		ldr	r2, [r7, #4]
 983 00b4 D26A     		ldr	r2, [r2, #44]
 984 00b6 43F08063 		orr	r3, r3, #67108864
 985 00ba 43F48073 		orr	r3, r3, #256
 986 00be 5360     		str	r3, [r2, #4]
 987 00c0 3B69     		ldr	r3, [r7, #16]
 988 00c2 1B69     		ldr	r3, [r3, #16]
 989 00c4 43F44073 		orr	r3, r3, #768
 990 00c8 43F00103 		orr	r3, r3, #1
 991 00cc FB60     		str	r3, [r7, #12]
 992 00ce FB68     		ldr	r3, [r7, #12]
 993 00d0 03F08043 		and	r3, r3, #1073741824
 994 00d4 002B     		cmp	r3, #0
 995 00d6 10D0     		beq	.L55
 996 00d8 FB68     		ldr	r3, [r7, #12]
 997 00da 23F08043 		bic	r3, r3, #1073741824
 998 00de 23F00203 		bic	r3, r3, #2
 999 00e2 7A68     		ldr	r2, [r7, #4]
 1000 00e4 D26A     		ldr	r2, [r2, #44]
 1001 00e6 43F00203 		orr	r3, r3, #2
 1002 00ea 9360     		str	r3, [r2, #8]
 1003 00ec 7B68     		ldr	r3, [r7, #4]
 1004 00ee DB6A     		ldr	r3, [r3, #44]
 1005 00f0 FA68     		ldr	r2, [r7, #12]
 1006 00f2 42F00202 		orr	r2, r2, #2
 1007 00f6 9A60     		str	r2, [r3, #8]
 1008 00f8 03E0     		b	.L57
 1009              	.L55:
 1010 00fa 7B68     		ldr	r3, [r7, #4]
 1011 00fc DB6A     		ldr	r3, [r3, #44]
 1012 00fe FA68     		ldr	r2, [r7, #12]
 1013 0100 9A60     		str	r2, [r3, #8]
 1014              	.L57:
ARM GAS  /var/folders/d2/nstgp4h54kz7g1l847x_b8wc0000gn/T//ccaLMcAL.s 			page 19


 1015 0102 00BF     		nop
 1016 0104 1C37     		adds	r7, r7, #28
 1017 0106 BD46     		mov	sp, r7
 1018              		@ sp needed
 1019 0108 5DF8047B 		ldr	r7, [sp], #4
 1020 010c 7047     		bx	lr
 1021              		.size	adc_lld_start_conversion, .-adc_lld_start_conversion
 1022              		.section	.text.adc_lld_stop_conversion,"ax",%progbits
 1023              		.align	1
 1024              		.global	adc_lld_stop_conversion
 1025              		.syntax unified
 1026              		.thumb
 1027              		.thumb_func
 1028              		.fpu fpv4-sp-d16
 1029              		.type	adc_lld_stop_conversion, %function
 1030              	adc_lld_stop_conversion:
 1031              		@ args = 0, pretend = 0, frame = 8
 1032              		@ frame_needed = 1, uses_anonymous_args = 0
 1033              		@ link register save eliminated.
 1034 0000 80B4     		push	{r7}
 1035 0002 83B0     		sub	sp, sp, #12
 1036 0004 00AF     		add	r7, sp, #0
 1037 0006 7860     		str	r0, [r7, #4]
 1038 0008 7B68     		ldr	r3, [r7, #4]
 1039 000a 1B6B     		ldr	r3, [r3, #48]
 1040 000c 1B68     		ldr	r3, [r3]
 1041 000e 1A68     		ldr	r2, [r3]
 1042 0010 7B68     		ldr	r3, [r7, #4]
 1043 0012 1B6B     		ldr	r3, [r3, #48]
 1044 0014 1B68     		ldr	r3, [r3]
 1045 0016 22F01F02 		bic	r2, r2, #31
 1046 001a 1A60     		str	r2, [r3]
 1047 001c 00BF     		nop
 1048              	.L59:
 1049 001e 7B68     		ldr	r3, [r7, #4]
 1050 0020 1B6B     		ldr	r3, [r3, #48]
 1051 0022 1B68     		ldr	r3, [r3]
 1052 0024 1B68     		ldr	r3, [r3]
 1053 0026 03F00103 		and	r3, r3, #1
 1054 002a 002B     		cmp	r3, #0
 1055 002c F7D1     		bne	.L59
 1056 002e 7B68     		ldr	r3, [r7, #4]
 1057 0030 1B6B     		ldr	r3, [r3, #48]
 1058 0032 1B7A     		ldrb	r3, [r3, #8]	@ zero_extendqisi2
 1059 0034 1A46     		mov	r2, r3
 1060 0036 3D23     		movs	r3, #61
 1061 0038 03FA02F2 		lsl	r2, r3, r2
 1062 003c 7B68     		ldr	r3, [r7, #4]
 1063 003e 1B6B     		ldr	r3, [r3, #48]
 1064 0040 5B68     		ldr	r3, [r3, #4]
 1065 0042 1A60     		str	r2, [r3]
 1066 0044 7B68     		ldr	r3, [r7, #4]
 1067 0046 DB6A     		ldr	r3, [r3, #44]
 1068 0048 0022     		movs	r2, #0
 1069 004a 5A60     		str	r2, [r3, #4]
 1070 004c 7B68     		ldr	r3, [r7, #4]
 1071 004e DB6A     		ldr	r3, [r3, #44]
ARM GAS  /var/folders/d2/nstgp4h54kz7g1l847x_b8wc0000gn/T//ccaLMcAL.s 			page 20


 1072 0050 0022     		movs	r2, #0
 1073 0052 9A60     		str	r2, [r3, #8]
 1074 0054 7B68     		ldr	r3, [r7, #4]
 1075 0056 DB6A     		ldr	r3, [r3, #44]
 1076 0058 0122     		movs	r2, #1
 1077 005a 9A60     		str	r2, [r3, #8]
 1078 005c 00BF     		nop
 1079 005e 0C37     		adds	r7, r7, #12
 1080 0060 BD46     		mov	sp, r7
 1081              		@ sp needed
 1082 0062 5DF8047B 		ldr	r7, [sp], #4
 1083 0066 7047     		bx	lr
 1084              		.size	adc_lld_stop_conversion, .-adc_lld_stop_conversion
 1085              		.section	.text.adcSTM32EnableTSVREFE,"ax",%progbits
 1086              		.align	1
 1087              		.global	adcSTM32EnableTSVREFE
 1088              		.syntax unified
 1089              		.thumb
 1090              		.thumb_func
 1091              		.fpu fpv4-sp-d16
 1092              		.type	adcSTM32EnableTSVREFE, %function
 1093              	adcSTM32EnableTSVREFE:
 1094              		@ args = 0, pretend = 0, frame = 0
 1095              		@ frame_needed = 1, uses_anonymous_args = 0
 1096              		@ link register save eliminated.
 1097 0000 80B4     		push	{r7}
 1098 0002 00AF     		add	r7, sp, #0
 1099 0004 054B     		ldr	r3, .L61
 1100 0006 5B68     		ldr	r3, [r3, #4]
 1101 0008 044A     		ldr	r2, .L61
 1102 000a 43F40003 		orr	r3, r3, #8388608
 1103 000e 5360     		str	r3, [r2, #4]
 1104 0010 00BF     		nop
 1105 0012 BD46     		mov	sp, r7
 1106              		@ sp needed
 1107 0014 5DF8047B 		ldr	r7, [sp], #4
 1108 0018 7047     		bx	lr
 1109              	.L62:
 1110 001a 00BF     		.align	2
 1111              	.L61:
 1112 001c 00230140 		.word	1073816320
 1113              		.size	adcSTM32EnableTSVREFE, .-adcSTM32EnableTSVREFE
 1114              		.section	.text.adcSTM32DisableTSVREFE,"ax",%progbits
 1115              		.align	1
 1116              		.global	adcSTM32DisableTSVREFE
 1117              		.syntax unified
 1118              		.thumb
 1119              		.thumb_func
 1120              		.fpu fpv4-sp-d16
 1121              		.type	adcSTM32DisableTSVREFE, %function
 1122              	adcSTM32DisableTSVREFE:
 1123              		@ args = 0, pretend = 0, frame = 0
 1124              		@ frame_needed = 1, uses_anonymous_args = 0
 1125              		@ link register save eliminated.
 1126 0000 80B4     		push	{r7}
 1127 0002 00AF     		add	r7, sp, #0
 1128 0004 054B     		ldr	r3, .L64
ARM GAS  /var/folders/d2/nstgp4h54kz7g1l847x_b8wc0000gn/T//ccaLMcAL.s 			page 21


 1129 0006 5B68     		ldr	r3, [r3, #4]
 1130 0008 044A     		ldr	r2, .L64
 1131 000a 23F40003 		bic	r3, r3, #8388608
 1132 000e 5360     		str	r3, [r2, #4]
 1133 0010 00BF     		nop
 1134 0012 BD46     		mov	sp, r7
 1135              		@ sp needed
 1136 0014 5DF8047B 		ldr	r7, [sp], #4
 1137 0018 7047     		bx	lr
 1138              	.L65:
 1139 001a 00BF     		.align	2
 1140              	.L64:
 1141 001c 00230140 		.word	1073816320
 1142              		.size	adcSTM32DisableTSVREFE, .-adcSTM32DisableTSVREFE
 1143              		.section	.text.adcSTM32EnableVBATE,"ax",%progbits
 1144              		.align	1
 1145              		.global	adcSTM32EnableVBATE
 1146              		.syntax unified
 1147              		.thumb
 1148              		.thumb_func
 1149              		.fpu fpv4-sp-d16
 1150              		.type	adcSTM32EnableVBATE, %function
 1151              	adcSTM32EnableVBATE:
 1152              		@ args = 0, pretend = 0, frame = 0
 1153              		@ frame_needed = 1, uses_anonymous_args = 0
 1154              		@ link register save eliminated.
 1155 0000 80B4     		push	{r7}
 1156 0002 00AF     		add	r7, sp, #0
 1157 0004 054B     		ldr	r3, .L67
 1158 0006 5B68     		ldr	r3, [r3, #4]
 1159 0008 044A     		ldr	r2, .L67
 1160 000a 43F48003 		orr	r3, r3, #4194304
 1161 000e 5360     		str	r3, [r2, #4]
 1162 0010 00BF     		nop
 1163 0012 BD46     		mov	sp, r7
 1164              		@ sp needed
 1165 0014 5DF8047B 		ldr	r7, [sp], #4
 1166 0018 7047     		bx	lr
 1167              	.L68:
 1168 001a 00BF     		.align	2
 1169              	.L67:
 1170 001c 00230140 		.word	1073816320
 1171              		.size	adcSTM32EnableVBATE, .-adcSTM32EnableVBATE
 1172              		.section	.text.adcSTM32DisableVBATE,"ax",%progbits
 1173              		.align	1
 1174              		.global	adcSTM32DisableVBATE
 1175              		.syntax unified
 1176              		.thumb
 1177              		.thumb_func
 1178              		.fpu fpv4-sp-d16
 1179              		.type	adcSTM32DisableVBATE, %function
 1180              	adcSTM32DisableVBATE:
 1181              		@ args = 0, pretend = 0, frame = 0
 1182              		@ frame_needed = 1, uses_anonymous_args = 0
 1183              		@ link register save eliminated.
 1184 0000 80B4     		push	{r7}
 1185 0002 00AF     		add	r7, sp, #0
ARM GAS  /var/folders/d2/nstgp4h54kz7g1l847x_b8wc0000gn/T//ccaLMcAL.s 			page 22


 1186 0004 054B     		ldr	r3, .L70
 1187 0006 5B68     		ldr	r3, [r3, #4]
 1188 0008 044A     		ldr	r2, .L70
 1189 000a 23F48003 		bic	r3, r3, #4194304
 1190 000e 5360     		str	r3, [r2, #4]
 1191 0010 00BF     		nop
 1192 0012 BD46     		mov	sp, r7
 1193              		@ sp needed
 1194 0014 5DF8047B 		ldr	r7, [sp], #4
 1195 0018 7047     		bx	lr
 1196              	.L71:
 1197 001a 00BF     		.align	2
 1198              	.L70:
 1199 001c 00230140 		.word	1073816320
 1200              		.size	adcSTM32DisableVBATE, .-adcSTM32DisableVBATE
 1201              		.section	.rodata.__func__.9858,"a",%progbits
 1202              		.align	2
 1203              		.type	__func__.9858, %object
 1204              		.size	__func__.9858, 14
 1205              	__func__.9858:
 1206 0000 6164635F 		.ascii	"adc_lld_start\000"
 1206      6C6C645F 
 1206      73746172 
 1206      7400
 1207              		.ident	"GCC: (GNU Tools for Arm Embedded Processors 7-2017-q4-major) 7.2.1 20170904 (release) [ARM
ARM GAS  /var/folders/d2/nstgp4h54kz7g1l847x_b8wc0000gn/T//ccaLMcAL.s 			page 23


DEFINED SYMBOLS
                            *ABS*:0000000000000000 adc_lld.c
/var/folders/d2/nstgp4h54kz7g1l847x_b8wc0000gn/T//ccaLMcAL.s:15     .text.port_lock:0000000000000000 $t
/var/folders/d2/nstgp4h54kz7g1l847x_b8wc0000gn/T//ccaLMcAL.s:21     .text.port_lock:0000000000000000 port_lock
/var/folders/d2/nstgp4h54kz7g1l847x_b8wc0000gn/T//ccaLMcAL.s:45     .text.port_unlock:0000000000000000 $t
/var/folders/d2/nstgp4h54kz7g1l847x_b8wc0000gn/T//ccaLMcAL.s:51     .text.port_unlock:0000000000000000 port_unlock
/var/folders/d2/nstgp4h54kz7g1l847x_b8wc0000gn/T//ccaLMcAL.s:75     .text.port_lock_from_isr:0000000000000000 $t
/var/folders/d2/nstgp4h54kz7g1l847x_b8wc0000gn/T//ccaLMcAL.s:81     .text.port_lock_from_isr:0000000000000000 port_lock_from_isr
/var/folders/d2/nstgp4h54kz7g1l847x_b8wc0000gn/T//ccaLMcAL.s:91     .text.port_unlock_from_isr:0000000000000000 $t
/var/folders/d2/nstgp4h54kz7g1l847x_b8wc0000gn/T//ccaLMcAL.s:97     .text.port_unlock_from_isr:0000000000000000 port_unlock_from_isr
/var/folders/d2/nstgp4h54kz7g1l847x_b8wc0000gn/T//ccaLMcAL.s:107    .text.chSysLockFromISR:0000000000000000 $t
/var/folders/d2/nstgp4h54kz7g1l847x_b8wc0000gn/T//ccaLMcAL.s:113    .text.chSysLockFromISR:0000000000000000 chSysLockFromISR
/var/folders/d2/nstgp4h54kz7g1l847x_b8wc0000gn/T//ccaLMcAL.s:125    .text.chSysUnlockFromISR:0000000000000000 $t
/var/folders/d2/nstgp4h54kz7g1l847x_b8wc0000gn/T//ccaLMcAL.s:131    .text.chSysUnlockFromISR:0000000000000000 chSysUnlockFromISR
/var/folders/d2/nstgp4h54kz7g1l847x_b8wc0000gn/T//ccaLMcAL.s:143    .text.osalSysLockFromISR:0000000000000000 $t
/var/folders/d2/nstgp4h54kz7g1l847x_b8wc0000gn/T//ccaLMcAL.s:149    .text.osalSysLockFromISR:0000000000000000 osalSysLockFromISR
/var/folders/d2/nstgp4h54kz7g1l847x_b8wc0000gn/T//ccaLMcAL.s:159    .text.osalSysUnlockFromISR:0000000000000000 $t
/var/folders/d2/nstgp4h54kz7g1l847x_b8wc0000gn/T//ccaLMcAL.s:165    .text.osalSysUnlockFromISR:0000000000000000 osalSysUnlockFromISR
/var/folders/d2/nstgp4h54kz7g1l847x_b8wc0000gn/T//ccaLMcAL.s:175    .text.osalThreadResumeI:0000000000000000 $t
/var/folders/d2/nstgp4h54kz7g1l847x_b8wc0000gn/T//ccaLMcAL.s:181    .text.osalThreadResumeI:0000000000000000 osalThreadResumeI
/var/folders/d2/nstgp4h54kz7g1l847x_b8wc0000gn/T//ccaLMcAL.s:203    .bss.ADCD1:0000000000000000 ADCD1
/var/folders/d2/nstgp4h54kz7g1l847x_b8wc0000gn/T//ccaLMcAL.s:200    .bss.ADCD1:0000000000000000 $d
/var/folders/d2/nstgp4h54kz7g1l847x_b8wc0000gn/T//ccaLMcAL.s:210    .bss.ADCD2:0000000000000000 ADCD2
/var/folders/d2/nstgp4h54kz7g1l847x_b8wc0000gn/T//ccaLMcAL.s:207    .bss.ADCD2:0000000000000000 $d
/var/folders/d2/nstgp4h54kz7g1l847x_b8wc0000gn/T//ccaLMcAL.s:217    .bss.ADCD3:0000000000000000 ADCD3
/var/folders/d2/nstgp4h54kz7g1l847x_b8wc0000gn/T//ccaLMcAL.s:214    .bss.ADCD3:0000000000000000 $d
/var/folders/d2/nstgp4h54kz7g1l847x_b8wc0000gn/T//ccaLMcAL.s:220    .text.adc_lld_serve_rx_interrupt:0000000000000000 $t
/var/folders/d2/nstgp4h54kz7g1l847x_b8wc0000gn/T//ccaLMcAL.s:226    .text.adc_lld_serve_rx_interrupt:0000000000000000 adc_lld_serve_rx_interrupt
/var/folders/d2/nstgp4h54kz7g1l847x_b8wc0000gn/T//ccaLMcAL.s:1030   .text.adc_lld_stop_conversion:0000000000000000 adc_lld_stop_conversion
/var/folders/d2/nstgp4h54kz7g1l847x_b8wc0000gn/T//ccaLMcAL.s:405    .text.Vector88:0000000000000000 $t
/var/folders/d2/nstgp4h54kz7g1l847x_b8wc0000gn/T//ccaLMcAL.s:412    .text.Vector88:0000000000000000 Vector88
/var/folders/d2/nstgp4h54kz7g1l847x_b8wc0000gn/T//ccaLMcAL.s:589    .text.Vector88:0000000000000174 $d
/var/folders/d2/nstgp4h54kz7g1l847x_b8wc0000gn/T//ccaLMcAL.s:600    .text.adc_lld_init:0000000000000000 $t
/var/folders/d2/nstgp4h54kz7g1l847x_b8wc0000gn/T//ccaLMcAL.s:607    .text.adc_lld_init:0000000000000000 adc_lld_init
/var/folders/d2/nstgp4h54kz7g1l847x_b8wc0000gn/T//ccaLMcAL.s:653    .text.adc_lld_init:0000000000000058 $d
/var/folders/d2/nstgp4h54kz7g1l847x_b8wc0000gn/T//ccaLMcAL.s:667    .text.adc_lld_start:0000000000000000 $t
/var/folders/d2/nstgp4h54kz7g1l847x_b8wc0000gn/T//ccaLMcAL.s:674    .text.adc_lld_start:0000000000000000 adc_lld_start
/var/folders/d2/nstgp4h54kz7g1l847x_b8wc0000gn/T//ccaLMcAL.s:799    .text.adc_lld_start:00000000000000f4 $d
/var/folders/d2/nstgp4h54kz7g1l847x_b8wc0000gn/T//ccaLMcAL.s:1205   .rodata.__func__.9858:0000000000000000 __func__.9858
/var/folders/d2/nstgp4h54kz7g1l847x_b8wc0000gn/T//ccaLMcAL.s:811    .text.adc_lld_stop:0000000000000000 $t
/var/folders/d2/nstgp4h54kz7g1l847x_b8wc0000gn/T//ccaLMcAL.s:818    .text.adc_lld_stop:0000000000000000 adc_lld_stop
/var/folders/d2/nstgp4h54kz7g1l847x_b8wc0000gn/T//ccaLMcAL.s:879    .text.adc_lld_stop:0000000000000070 $d
/var/folders/d2/nstgp4h54kz7g1l847x_b8wc0000gn/T//ccaLMcAL.s:885    .text.adc_lld_start_conversion:0000000000000000 $t
/var/folders/d2/nstgp4h54kz7g1l847x_b8wc0000gn/T//ccaLMcAL.s:892    .text.adc_lld_start_conversion:0000000000000000 adc_lld_start_conversion
/var/folders/d2/nstgp4h54kz7g1l847x_b8wc0000gn/T//ccaLMcAL.s:1023   .text.adc_lld_stop_conversion:0000000000000000 $t
/var/folders/d2/nstgp4h54kz7g1l847x_b8wc0000gn/T//ccaLMcAL.s:1086   .text.adcSTM32EnableTSVREFE:0000000000000000 $t
/var/folders/d2/nstgp4h54kz7g1l847x_b8wc0000gn/T//ccaLMcAL.s:1093   .text.adcSTM32EnableTSVREFE:0000000000000000 adcSTM32EnableTSVREFE
/var/folders/d2/nstgp4h54kz7g1l847x_b8wc0000gn/T//ccaLMcAL.s:1112   .text.adcSTM32EnableTSVREFE:000000000000001c $d
/var/folders/d2/nstgp4h54kz7g1l847x_b8wc0000gn/T//ccaLMcAL.s:1115   .text.adcSTM32DisableTSVREFE:0000000000000000 $t
/var/folders/d2/nstgp4h54kz7g1l847x_b8wc0000gn/T//ccaLMcAL.s:1122   .text.adcSTM32DisableTSVREFE:0000000000000000 adcSTM32DisableTSVREFE
/var/folders/d2/nstgp4h54kz7g1l847x_b8wc0000gn/T//ccaLMcAL.s:1141   .text.adcSTM32DisableTSVREFE:000000000000001c $d
/var/folders/d2/nstgp4h54kz7g1l847x_b8wc0000gn/T//ccaLMcAL.s:1144   .text.adcSTM32EnableVBATE:0000000000000000 $t
/var/folders/d2/nstgp4h54kz7g1l847x_b8wc0000gn/T//ccaLMcAL.s:1151   .text.adcSTM32EnableVBATE:0000000000000000 adcSTM32EnableVBATE
/var/folders/d2/nstgp4h54kz7g1l847x_b8wc0000gn/T//ccaLMcAL.s:1170   .text.adcSTM32EnableVBATE:000000000000001c $d
/var/folders/d2/nstgp4h54kz7g1l847x_b8wc0000gn/T//ccaLMcAL.s:1173   .text.adcSTM32DisableVBATE:0000000000000000 $t
/var/folders/d2/nstgp4h54kz7g1l847x_b8wc0000gn/T//ccaLMcAL.s:1180   .text.adcSTM32DisableVBATE:0000000000000000 adcSTM32DisableVBATE
/var/folders/d2/nstgp4h54kz7g1l847x_b8wc0000gn/T//ccaLMcAL.s:1199   .text.adcSTM32DisableVBATE:000000000000001c $d
ARM GAS  /var/folders/d2/nstgp4h54kz7g1l847x_b8wc0000gn/T//ccaLMcAL.s 			page 24


/var/folders/d2/nstgp4h54kz7g1l847x_b8wc0000gn/T//ccaLMcAL.s:1202   .rodata.__func__.9858:0000000000000000 $d

UNDEFINED SYMBOLS
_stats_start_measure_crit_isr
_dbg_check_lock_from_isr
_dbg_check_unlock_from_isr
_stats_stop_measure_crit_isr
chThdResumeI
_stats_increase_irq
_dbg_check_enter_isr
_dbg_check_leave_isr
_port_irq_epilogue
adcObjectInit
nvicEnableVector
_stm32_dma_streams
dmaStreamAllocate
chSysHalt
dmaStreamRelease
