ARM GAS  /var/folders/d2/nstgp4h54kz7g1l847x_b8wc0000gn/T//ccQq9WRP.s 			page 1


   1              		.cpu cortex-m4
   2              		.eabi_attribute 27, 1
   3              		.eabi_attribute 28, 1
   4              		.eabi_attribute 20, 1
   5              		.eabi_attribute 21, 1
   6              		.eabi_attribute 23, 3
   7              		.eabi_attribute 24, 1
   8              		.eabi_attribute 25, 1
   9              		.eabi_attribute 26, 1
  10              		.eabi_attribute 30, 6
  11              		.eabi_attribute 34, 1
  12              		.eabi_attribute 18, 4
  13              		.file	"aseba_bridge.c"
  14              		.section	.text.chRegSetThreadName,"ax",%progbits
  15              		.align	1
  16              		.syntax unified
  17              		.thumb
  18              		.thumb_func
  19              		.fpu fpv4-sp-d16
  20              		.type	chRegSetThreadName, %function
  21              	chRegSetThreadName:
  22              		@ args = 0, pretend = 0, frame = 8
  23              		@ frame_needed = 1, uses_anonymous_args = 0
  24              		@ link register save eliminated.
  25 0000 80B4     		push	{r7}
  26 0002 83B0     		sub	sp, sp, #12
  27 0004 00AF     		add	r7, sp, #0
  28 0006 7860     		str	r0, [r7, #4]
  29 0008 044B     		ldr	r3, .L2
  30 000a 9B69     		ldr	r3, [r3, #24]
  31 000c 7A68     		ldr	r2, [r7, #4]
  32 000e 9A61     		str	r2, [r3, #24]
  33 0010 00BF     		nop
  34 0012 0C37     		adds	r7, r7, #12
  35 0014 BD46     		mov	sp, r7
  36              		@ sp needed
  37 0016 5DF8047B 		ldr	r7, [sp], #4
  38 001a 7047     		bx	lr
  39              	.L3:
  40              		.align	2
  41              	.L2:
  42 001c 00000000 		.word	ch
  43              		.size	chRegSetThreadName, .-chRegSetThreadName
  44              		.section	.bss.is_bridge,"aw",%nobits
  45              		.type	is_bridge, %object
  46              		.size	is_bridge, 1
  47              	is_bridge:
  48 0000 00       		.space	1
  49              		.section	.text.aseba_bridge,"ax",%progbits
  50              		.align	1
  51              		.global	aseba_bridge
  52              		.syntax unified
  53              		.thumb
  54              		.thumb_func
  55              		.fpu fpv4-sp-d16
  56              		.type	aseba_bridge, %function
  57              	aseba_bridge:
ARM GAS  /var/folders/d2/nstgp4h54kz7g1l847x_b8wc0000gn/T//ccQq9WRP.s 			page 2


  58              		@ args = 0, pretend = 0, frame = 8
  59              		@ frame_needed = 1, uses_anonymous_args = 0
  60 0000 80B5     		push	{r7, lr}
  61 0002 84B0     		sub	sp, sp, #16
  62 0004 02AF     		add	r7, sp, #8
  63 0006 7860     		str	r0, [r7, #4]
  64 0008 104B     		ldr	r3, .L5
  65 000a 0122     		movs	r2, #1
  66 000c 1A70     		strb	r2, [r3]
  67 000e 7B68     		ldr	r3, [r7, #4]
  68 0010 0093     		str	r3, [sp]
  69 0012 0F4B     		ldr	r3, .L5+4
  70 0014 4022     		movs	r2, #64
  71 0016 4FF4AF61 		mov	r1, #1400
  72 001a 0E48     		ldr	r0, .L5+8
  73 001c FFF7FEFF 		bl	chThdCreateStatic
  74 0020 7B68     		ldr	r3, [r7, #4]
  75 0022 0093     		str	r3, [sp]
  76 0024 0C4B     		ldr	r3, .L5+12
  77 0026 4022     		movs	r2, #64
  78 0028 4FF4AF61 		mov	r1, #1400
  79 002c 0B48     		ldr	r0, .L5+16
  80 002e FFF7FEFF 		bl	chThdCreateStatic
  81 0032 0023     		movs	r3, #0
  82 0034 0093     		str	r3, [sp]
  83 0036 0A4B     		ldr	r3, .L5+20
  84 0038 4022     		movs	r2, #64
  85 003a 4FF41E71 		mov	r1, #632
  86 003e 0948     		ldr	r0, .L5+24
  87 0040 FFF7FEFF 		bl	chThdCreateStatic
  88 0044 00BF     		nop
  89 0046 0837     		adds	r7, r7, #8
  90 0048 BD46     		mov	sp, r7
  91              		@ sp needed
  92 004a 80BD     		pop	{r7, pc}
  93              	.L6:
  94              		.align	2
  95              	.L5:
  96 004c 00000000 		.word	is_bridge
  97 0050 00000000 		.word	aseba_bridge_uart_to_can
  98 0054 00000000 		.word	uart_to_can_wa.10713
  99 0058 00000000 		.word	aseba_bridge_can_to_uart
 100 005c 00000000 		.word	can_to_uart_wa.10714
 101 0060 00000000 		.word	led_thread
 102 0064 00000000 		.word	led_thread_wa.10715
 103              		.size	aseba_bridge, .-aseba_bridge
 104              		.section	.rodata
 105              		.align	2
 106              	.LC0:
 107 0000 61736562 		.ascii	"aseba uart -> can\000"
 107      61207561 
 107      7274202D 
 107      3E206361 
 107      6E00
 108              		.section	.text.aseba_bridge_uart_to_can,"ax",%progbits
 109              		.align	1
 110              		.syntax unified
ARM GAS  /var/folders/d2/nstgp4h54kz7g1l847x_b8wc0000gn/T//ccQq9WRP.s 			page 3


 111              		.thumb
 112              		.thumb_func
 113              		.fpu fpv4-sp-d16
 114              		.type	aseba_bridge_uart_to_can, %function
 115              	aseba_bridge_uart_to_can:
 116              		@ args = 0, pretend = 0, frame = 544
 117              		@ frame_needed = 1, uses_anonymous_args = 0
 118 0000 80B5     		push	{r7, lr}
 119 0002 ADF5087D 		sub	sp, sp, #544
 120 0006 00AF     		add	r7, sp, #0
 121 0008 3B1D     		adds	r3, r7, #4
 122 000a 1860     		str	r0, [r3]
 123 000c 1E48     		ldr	r0, .L9
 124 000e FFF7FEFF 		bl	chRegSetThreadName
 125 0012 3B1D     		adds	r3, r7, #4
 126 0014 1B68     		ldr	r3, [r3]
 127 0016 C7F81C32 		str	r3, [r7, #540]
 128              	.L8:
 129 001a D7F81C32 		ldr	r3, [r7, #540]
 130 001e 1B68     		ldr	r3, [r3]
 131 0020 5B68     		ldr	r3, [r3, #4]
 132 0022 07F50571 		add	r1, r7, #532
 133 0026 0222     		movs	r2, #2
 134 0028 D7F81C02 		ldr	r0, [r7, #540]
 135 002c 9847     		blx	r3
 136 002e D7F81C32 		ldr	r3, [r7, #540]
 137 0032 1B68     		ldr	r3, [r3]
 138 0034 5B68     		ldr	r3, [r3, #4]
 139 0036 07F50671 		add	r1, r7, #536
 140 003a 0222     		movs	r2, #2
 141 003c D7F81C02 		ldr	r0, [r7, #540]
 142 0040 9847     		blx	r3
 143 0042 D7F81C32 		ldr	r3, [r7, #540]
 144 0046 1B68     		ldr	r3, [r3]
 145 0048 5B68     		ldr	r3, [r3, #4]
 146 004a B7F81422 		ldrh	r2, [r7, #532]
 147 004e 0232     		adds	r2, r2, #2
 148 0050 07F10C01 		add	r1, r7, #12
 149 0054 D7F81C02 		ldr	r0, [r7, #540]
 150 0058 9847     		blx	r3
 151 005a 0C4B     		ldr	r3, .L9+4
 152 005c 5B69     		ldr	r3, [r3, #20]
 153 005e 0B4A     		ldr	r2, .L9+4
 154 0060 83F04003 		eor	r3, r3, #64
 155 0064 5361     		str	r3, [r2, #20]
 156 0066 FFF7FEFF 		bl	aseba_can_lock
 157 006a B7F81432 		ldrh	r3, [r7, #532]
 158 006e 0233     		adds	r3, r3, #2
 159 0070 1946     		mov	r1, r3
 160 0072 B7F81822 		ldrh	r2, [r7, #536]
 161 0076 07F10C03 		add	r3, r7, #12
 162 007a 1846     		mov	r0, r3
 163 007c FFF7FEFF 		bl	AsebaCanSendSpecificSource
 164 0080 FFF7FEFF 		bl	aseba_can_unlock
 165 0084 C9E7     		b	.L8
 166              	.L10:
 167 0086 00BF     		.align	2
ARM GAS  /var/folders/d2/nstgp4h54kz7g1l847x_b8wc0000gn/T//ccQq9WRP.s 			page 4


 168              	.L9:
 169 0088 00000000 		.word	.LC0
 170 008c 000C0240 		.word	1073875968
 171              		.size	aseba_bridge_uart_to_can, .-aseba_bridge_uart_to_can
 172              		.section	.rodata
 173 0012 0000     		.align	2
 174              	.LC1:
 175 0014 61736562 		.ascii	"aseba can -> uart\000"
 175      61206361 
 175      6E202D3E 
 175      20756172 
 175      7400
 176              		.section	.text.aseba_bridge_can_to_uart,"ax",%progbits
 177              		.align	1
 178              		.syntax unified
 179              		.thumb
 180              		.thumb_func
 181              		.fpu fpv4-sp-d16
 182              		.type	aseba_bridge_can_to_uart, %function
 183              	aseba_bridge_can_to_uart:
 184              		@ args = 0, pretend = 0, frame = 544
 185              		@ frame_needed = 1, uses_anonymous_args = 0
 186 0000 80B5     		push	{r7, lr}
 187 0002 ADF5087D 		sub	sp, sp, #544
 188 0006 00AF     		add	r7, sp, #0
 189 0008 3B1D     		adds	r3, r7, #4
 190 000a 1860     		str	r0, [r3]
 191 000c 2348     		ldr	r0, .L14
 192 000e FFF7FEFF 		bl	chRegSetThreadName
 193 0012 3B1D     		adds	r3, r7, #4
 194 0014 1B68     		ldr	r3, [r3]
 195 0016 C7F81C32 		str	r3, [r7, #540]
 196              	.L13:
 197 001a 07F50672 		add	r2, r7, #536
 198 001e 07F10C03 		add	r3, r7, #12
 199 0022 40F20621 		movw	r1, #518
 200 0026 1846     		mov	r0, r3
 201 0028 FFF7FEFF 		bl	AsebaCanRecv
 202 002c 0346     		mov	r3, r0
 203 002e A7F81432 		strh	r3, [r7, #532]	@ movhi
 204 0032 B7F81432 		ldrh	r3, [r7, #532]
 205 0036 002B     		cmp	r3, #0
 206 0038 2BD0     		beq	.L12
 207 003a 194B     		ldr	r3, .L14+4
 208 003c 5B69     		ldr	r3, [r3, #20]
 209 003e 184A     		ldr	r2, .L14+4
 210 0040 83F02003 		eor	r3, r3, #32
 211 0044 5361     		str	r3, [r2, #20]
 212 0046 B7F81432 		ldrh	r3, [r7, #532]
 213 004a 023B     		subs	r3, r3, #2
 214 004c 9BB2     		uxth	r3, r3
 215 004e A7F81432 		strh	r3, [r7, #532]	@ movhi
 216 0052 D7F81C32 		ldr	r3, [r7, #540]
 217 0056 1B68     		ldr	r3, [r3]
 218 0058 1B68     		ldr	r3, [r3]
 219 005a 07F50571 		add	r1, r7, #532
 220 005e 0222     		movs	r2, #2
ARM GAS  /var/folders/d2/nstgp4h54kz7g1l847x_b8wc0000gn/T//ccQq9WRP.s 			page 5


 221 0060 D7F81C02 		ldr	r0, [r7, #540]
 222 0064 9847     		blx	r3
 223 0066 D7F81C32 		ldr	r3, [r7, #540]
 224 006a 1B68     		ldr	r3, [r3]
 225 006c 1B68     		ldr	r3, [r3]
 226 006e 07F50671 		add	r1, r7, #536
 227 0072 0222     		movs	r2, #2
 228 0074 D7F81C02 		ldr	r0, [r7, #540]
 229 0078 9847     		blx	r3
 230 007a D7F81C32 		ldr	r3, [r7, #540]
 231 007e 1B68     		ldr	r3, [r3]
 232 0080 1B68     		ldr	r3, [r3]
 233 0082 B7F81422 		ldrh	r2, [r7, #532]
 234 0086 0232     		adds	r2, r2, #2
 235 0088 07F10C01 		add	r1, r7, #12
 236 008c D7F81C02 		ldr	r0, [r7, #540]
 237 0090 9847     		blx	r3
 238              	.L12:
 239 0092 0120     		movs	r0, #1
 240 0094 FFF7FEFF 		bl	chThdSleep
 241 0098 BFE7     		b	.L13
 242              	.L15:
 243 009a 00BF     		.align	2
 244              	.L14:
 245 009c 14000000 		.word	.LC1
 246 00a0 000C0240 		.word	1073875968
 247              		.size	aseba_bridge_can_to_uart, .-aseba_bridge_can_to_uart
 248              		.section	.text.led_thread,"ax",%progbits
 249              		.align	1
 250              		.syntax unified
 251              		.thumb
 252              		.thumb_func
 253              		.fpu fpv4-sp-d16
 254              		.type	led_thread, %function
 255              	led_thread:
 256              		@ args = 0, pretend = 0, frame = 8
 257              		@ frame_needed = 1, uses_anonymous_args = 0
 258 0000 80B5     		push	{r7, lr}
 259 0002 82B0     		sub	sp, sp, #8
 260 0004 00AF     		add	r7, sp, #0
 261 0006 7860     		str	r0, [r7, #4]
 262              	.L17:
 263 0008 074B     		ldr	r3, .L18
 264 000a 2022     		movs	r2, #32
 265 000c 1A83     		strh	r2, [r3, #24]	@ movhi
 266 000e 4FF49670 		mov	r0, #300
 267 0012 FFF7FEFF 		bl	chThdSleep
 268 0016 044B     		ldr	r3, .L18
 269 0018 2022     		movs	r2, #32
 270 001a 5A83     		strh	r2, [r3, #26]	@ movhi
 271 001c 4FF49670 		mov	r0, #300
 272 0020 FFF7FEFF 		bl	chThdSleep
 273 0024 F0E7     		b	.L17
 274              	.L19:
 275 0026 00BF     		.align	2
 276              	.L18:
 277 0028 000C0240 		.word	1073875968
ARM GAS  /var/folders/d2/nstgp4h54kz7g1l847x_b8wc0000gn/T//ccQq9WRP.s 			page 6


 278              		.size	led_thread, .-led_thread
 279              		.section	.text.aseba_is_bridge,"ax",%progbits
 280              		.align	1
 281              		.global	aseba_is_bridge
 282              		.syntax unified
 283              		.thumb
 284              		.thumb_func
 285              		.fpu fpv4-sp-d16
 286              		.type	aseba_is_bridge, %function
 287              	aseba_is_bridge:
 288              		@ args = 0, pretend = 0, frame = 0
 289              		@ frame_needed = 1, uses_anonymous_args = 0
 290              		@ link register save eliminated.
 291 0000 80B4     		push	{r7}
 292 0002 00AF     		add	r7, sp, #0
 293 0004 034B     		ldr	r3, .L22
 294 0006 1B78     		ldrb	r3, [r3]	@ zero_extendqisi2
 295 0008 1846     		mov	r0, r3
 296 000a BD46     		mov	sp, r7
 297              		@ sp needed
 298 000c 5DF8047B 		ldr	r7, [sp], #4
 299 0010 7047     		bx	lr
 300              	.L23:
 301 0012 00BF     		.align	2
 302              	.L22:
 303 0014 00000000 		.word	is_bridge
 304              		.size	aseba_is_bridge, .-aseba_is_bridge
 305              		.section	.bss.uart_to_can_wa.10713,"aw",%nobits
 306              		.align	3
 307              		.type	uart_to_can_wa.10713, %object
 308              		.size	uart_to_can_wa.10713, 1400
 309              	uart_to_can_wa.10713:
 310 0000 00000000 		.space	1400
 310      00000000 
 310      00000000 
 310      00000000 
 310      00000000 
 311              		.section	.bss.can_to_uart_wa.10714,"aw",%nobits
 312              		.align	3
 313              		.type	can_to_uart_wa.10714, %object
 314              		.size	can_to_uart_wa.10714, 1400
 315              	can_to_uart_wa.10714:
 316 0000 00000000 		.space	1400
 316      00000000 
 316      00000000 
 316      00000000 
 316      00000000 
 317              		.section	.bss.led_thread_wa.10715,"aw",%nobits
 318              		.align	3
 319              		.type	led_thread_wa.10715, %object
 320              		.size	led_thread_wa.10715, 632
 321              	led_thread_wa.10715:
 322 0000 00000000 		.space	632
 322      00000000 
 322      00000000 
 322      00000000 
 322      00000000 
ARM GAS  /var/folders/d2/nstgp4h54kz7g1l847x_b8wc0000gn/T//ccQq9WRP.s 			page 7


 323              		.ident	"GCC: (GNU Tools for Arm Embedded Processors 7-2017-q4-major) 7.2.1 20170904 (release) [ARM
ARM GAS  /var/folders/d2/nstgp4h54kz7g1l847x_b8wc0000gn/T//ccQq9WRP.s 			page 8

