ARM GAS  /var/folders/d2/nstgp4h54kz7g1l847x_b8wc0000gn/T//cc05Vlmi.s 			page 1


   1              		.cpu cortex-m4
   2              		.eabi_attribute 27, 1
   3              		.eabi_attribute 28, 1
   4              		.eabi_attribute 20, 1
   5              		.eabi_attribute 21, 1
   6              		.eabi_attribute 23, 3
   7              		.eabi_attribute 24, 1
   8              		.eabi_attribute 25, 1
   9              		.eabi_attribute 26, 1
  10              		.eabi_attribute 30, 6
  11              		.eabi_attribute 34, 1
  12              		.eabi_attribute 18, 4
  13              		.file	"aseba_can_interface.c"
  14              		.section	.text.chRegSetThreadName,"ax",%progbits
  15              		.align	1
  16              		.syntax unified
  17              		.thumb
  18              		.thumb_func
  19              		.fpu fpv4-sp-d16
  20              		.type	chRegSetThreadName, %function
  21              	chRegSetThreadName:
  22              		@ args = 0, pretend = 0, frame = 8
  23              		@ frame_needed = 1, uses_anonymous_args = 0
  24              		@ link register save eliminated.
  25 0000 80B4     		push	{r7}
  26 0002 83B0     		sub	sp, sp, #12
  27 0004 00AF     		add	r7, sp, #0
  28 0006 7860     		str	r0, [r7, #4]
  29 0008 044B     		ldr	r3, .L2
  30 000a 9B69     		ldr	r3, [r3, #24]
  31 000c 7A68     		ldr	r2, [r7, #4]
  32 000e 9A61     		str	r2, [r3, #24]
  33 0010 00BF     		nop
  34 0012 0C37     		adds	r7, r7, #12
  35 0014 BD46     		mov	sp, r7
  36              		@ sp needed
  37 0016 5DF8047B 		ldr	r7, [sp], #4
  38 001a 7047     		bx	lr
  39              	.L3:
  40              		.align	2
  41              	.L2:
  42 001c 00000000 		.word	ch
  43              		.size	chRegSetThreadName, .-chRegSetThreadName
  44              		.global	aseba_can_send_queue
  45              		.section	.bss.aseba_can_send_queue,"aw",%nobits
  46              		.align	2
  47              		.type	aseba_can_send_queue, %object
  48              		.size	aseba_can_send_queue, 6144
  49              	aseba_can_send_queue:
  50 0000 00000000 		.space	6144
  50      00000000 
  50      00000000 
  50      00000000 
  50      00000000 
  51              		.global	aseba_can_receive_queue
  52              		.section	.bss.aseba_can_receive_queue,"aw",%nobits
  53              		.align	2
ARM GAS  /var/folders/d2/nstgp4h54kz7g1l847x_b8wc0000gn/T//cc05Vlmi.s 			page 2


  54              		.type	aseba_can_receive_queue, %object
  55              		.size	aseba_can_receive_queue, 6144
  56              	aseba_can_receive_queue:
  57 0000 00000000 		.space	6144
  57      00000000 
  57      00000000 
  57      00000000 
  57      00000000 
  58              		.section	.bss.can_rx_thread_wa,"aw",%nobits
  59              		.align	3
  60              		.type	can_rx_thread_wa, %object
  61              		.size	can_rx_thread_wa, 632
  62              	can_rx_thread_wa:
  63 0000 00000000 		.space	632
  63      00000000 
  63      00000000 
  63      00000000 
  63      00000000 
  64              		.section	.rodata
  65              		.align	2
  66              	.LC0:
  67 0000 43414E20 		.ascii	"CAN rx\000"
  67      727800
  68              		.section	.text.can_rx_thread,"ax",%progbits
  69              		.align	1
  70              		.syntax unified
  71              		.thumb
  72              		.thumb_func
  73              		.fpu fpv4-sp-d16
  74              		.type	can_rx_thread, %function
  75              	can_rx_thread:
  76              		@ args = 0, pretend = 0, frame = 48
  77              		@ frame_needed = 1, uses_anonymous_args = 0
  78 0000 80B5     		push	{r7, lr}
  79 0002 8CB0     		sub	sp, sp, #48
  80 0004 00AF     		add	r7, sp, #0
  81 0006 7860     		str	r0, [r7, #4]
  82 0008 2748     		ldr	r0, .L16
  83 000a FFF7FEFF 		bl	chRegSetThreadName
  84              	.L12:
  85 000e 07F11402 		add	r2, r7, #20
  86 0012 4FF47A73 		mov	r3, #1000
  87 0016 0021     		movs	r1, #0
  88 0018 2448     		ldr	r0, .L16+4
  89 001a FFF7FEFF 		bl	canReceive
  90 001e B862     		str	r0, [r7, #40]
  91 0020 BB6A     		ldr	r3, [r7, #40]
  92 0022 002B     		cmp	r3, #0
  93 0024 3AD1     		bne	.L13
  94 0026 3B7E     		ldrb	r3, [r7, #24]	@ zero_extendqisi2
  95 0028 03F02003 		and	r3, r3, #32
  96 002c DBB2     		uxtb	r3, r3
  97 002e 002B     		cmp	r3, #0
  98 0030 36D1     		bne	.L14
  99 0032 3B7E     		ldrb	r3, [r7, #24]	@ zero_extendqisi2
 100 0034 03F01003 		and	r3, r3, #16
 101 0038 DBB2     		uxtb	r3, r3
ARM GAS  /var/folders/d2/nstgp4h54kz7g1l847x_b8wc0000gn/T//cc05Vlmi.s 			page 3


 102 003a 002B     		cmp	r3, #0
 103 003c 32D1     		bne	.L15
 104 003e BB8B     		ldrh	r3, [r7, #28]	@ movhi
 105 0040 C3F30A03 		ubfx	r3, r3, #0, #11
 106 0044 9AB2     		uxth	r2, r3
 107 0046 3B8A     		ldrh	r3, [r7, #16]	@ movhi
 108 0048 62F30A03 		bfi	r3, r2, #0, #11
 109 004c 3B82     		strh	r3, [r7, #16]	@ movhi
 110 004e 3B7E     		ldrb	r3, [r7, #24]
 111 0050 C3F30303 		ubfx	r3, r3, #0, #4
 112 0054 DAB2     		uxtb	r2, r3
 113 0056 7B7C     		ldrb	r3, [r7, #17]
 114 0058 62F3C603 		bfi	r3, r2, #3, #4
 115 005c 7B74     		strb	r3, [r7, #17]
 116 005e 0023     		movs	r3, #0
 117 0060 FB62     		str	r3, [r7, #44]
 118 0062 0DE0     		b	.L9
 119              	.L10:
 120 0064 07F12002 		add	r2, r7, #32
 121 0068 FB6A     		ldr	r3, [r7, #44]
 122 006a 1344     		add	r3, r3, r2
 123 006c 1978     		ldrb	r1, [r3]	@ zero_extendqisi2
 124 006e 07F10802 		add	r2, r7, #8
 125 0072 FB6A     		ldr	r3, [r7, #44]
 126 0074 1344     		add	r3, r3, r2
 127 0076 0A46     		mov	r2, r1
 128 0078 1A70     		strb	r2, [r3]
 129 007a FB6A     		ldr	r3, [r7, #44]
 130 007c 0133     		adds	r3, r3, #1
 131 007e FB62     		str	r3, [r7, #44]
 132              	.L9:
 133 0080 7B7C     		ldrb	r3, [r7, #17]
 134 0082 C3F3C303 		ubfx	r3, r3, #3, #4
 135 0086 DBB2     		uxtb	r3, r3
 136 0088 1A46     		mov	r2, r3
 137 008a FB6A     		ldr	r3, [r7, #44]
 138 008c 9342     		cmp	r3, r2
 139 008e E9DB     		blt	.L10
 140 0090 07F10803 		add	r3, r7, #8
 141 0094 1846     		mov	r0, r3
 142 0096 FFF7FEFF 		bl	AsebaCanFrameReceived
 143 009a B8E7     		b	.L12
 144              	.L13:
 145 009c 00BF     		nop
 146 009e B6E7     		b	.L12
 147              	.L14:
 148 00a0 00BF     		nop
 149 00a2 B4E7     		b	.L12
 150              	.L15:
 151 00a4 00BF     		nop
 152 00a6 B2E7     		b	.L12
 153              	.L17:
 154              		.align	2
 155              	.L16:
 156 00a8 00000000 		.word	.LC0
 157 00ac 00000000 		.word	CAND1
 158              		.size	can_rx_thread, .-can_rx_thread
ARM GAS  /var/folders/d2/nstgp4h54kz7g1l847x_b8wc0000gn/T//cc05Vlmi.s 			page 4


 159              		.section	.text.can_init,"ax",%progbits
 160              		.align	1
 161              		.global	can_init
 162              		.syntax unified
 163              		.thumb
 164              		.thumb_func
 165              		.fpu fpv4-sp-d16
 166              		.type	can_init, %function
 167              	can_init:
 168              		@ args = 0, pretend = 0, frame = 0
 169              		@ frame_needed = 1, uses_anonymous_args = 0
 170 0000 80B5     		push	{r7, lr}
 171 0002 00AF     		add	r7, sp, #0
 172 0004 0249     		ldr	r1, .L19
 173 0006 0348     		ldr	r0, .L19+4
 174 0008 FFF7FEFF 		bl	canStart
 175 000c 00BF     		nop
 176 000e 80BD     		pop	{r7, pc}
 177              	.L20:
 178              		.align	2
 179              	.L19:
 180 0010 00000000 		.word	can1_config.10597
 181 0014 00000000 		.word	CAND1
 182              		.size	can_init, .-can_init
 183              		.section	.text.aseba_can_rx_dropped,"ax",%progbits
 184              		.align	1
 185              		.global	aseba_can_rx_dropped
 186              		.syntax unified
 187              		.thumb
 188              		.thumb_func
 189              		.fpu fpv4-sp-d16
 190              		.type	aseba_can_rx_dropped, %function
 191              	aseba_can_rx_dropped:
 192              		@ args = 0, pretend = 0, frame = 0
 193              		@ frame_needed = 1, uses_anonymous_args = 0
 194              		@ link register save eliminated.
 195 0000 80B4     		push	{r7}
 196 0002 00AF     		add	r7, sp, #0
 197 0004 00BF     		nop
 198 0006 BD46     		mov	sp, r7
 199              		@ sp needed
 200 0008 5DF8047B 		ldr	r7, [sp], #4
 201 000c 7047     		bx	lr
 202              		.size	aseba_can_rx_dropped, .-aseba_can_rx_dropped
 203              		.section	.text.aseba_can_tx_dropped,"ax",%progbits
 204              		.align	1
 205              		.global	aseba_can_tx_dropped
 206              		.syntax unified
 207              		.thumb
 208              		.thumb_func
 209              		.fpu fpv4-sp-d16
 210              		.type	aseba_can_tx_dropped, %function
 211              	aseba_can_tx_dropped:
 212              		@ args = 0, pretend = 0, frame = 0
 213              		@ frame_needed = 1, uses_anonymous_args = 0
 214              		@ link register save eliminated.
 215 0000 80B4     		push	{r7}
ARM GAS  /var/folders/d2/nstgp4h54kz7g1l847x_b8wc0000gn/T//cc05Vlmi.s 			page 5


 216 0002 00AF     		add	r7, sp, #0
 217 0004 00BF     		nop
 218 0006 BD46     		mov	sp, r7
 219              		@ sp needed
 220 0008 5DF8047B 		ldr	r7, [sp], #4
 221 000c 7047     		bx	lr
 222              		.size	aseba_can_tx_dropped, .-aseba_can_tx_dropped
 223              		.section	.text.aseba_can_send_frame,"ax",%progbits
 224              		.align	1
 225              		.global	aseba_can_send_frame
 226              		.syntax unified
 227              		.thumb
 228              		.thumb_func
 229              		.fpu fpv4-sp-d16
 230              		.type	aseba_can_send_frame, %function
 231              	aseba_can_send_frame:
 232              		@ args = 0, pretend = 0, frame = 32
 233              		@ frame_needed = 1, uses_anonymous_args = 0
 234 0000 80B5     		push	{r7, lr}
 235 0002 88B0     		sub	sp, sp, #32
 236 0004 00AF     		add	r7, sp, #0
 237 0006 7860     		str	r0, [r7, #4]
 238 0008 FFF7FEFF 		bl	aseba_can_lock
 239 000c 7B68     		ldr	r3, [r7, #4]
 240 000e 5B7A     		ldrb	r3, [r3, #9]
 241 0010 C3F3C303 		ubfx	r3, r3, #3, #4
 242 0014 DAB2     		uxtb	r2, r3
 243 0016 3B7B     		ldrb	r3, [r7, #12]
 244 0018 62F30303 		bfi	r3, r2, #0, #4
 245 001c 3B73     		strb	r3, [r7, #12]
 246 001e 3B7B     		ldrb	r3, [r7, #12]
 247 0020 6FF30413 		bfc	r3, #4, #1
 248 0024 3B73     		strb	r3, [r7, #12]
 249 0026 3B7B     		ldrb	r3, [r7, #12]
 250 0028 6FF34513 		bfc	r3, #5, #1
 251 002c 3B73     		strb	r3, [r7, #12]
 252 002e 7B68     		ldr	r3, [r7, #4]
 253 0030 1B89     		ldrh	r3, [r3, #8]	@ movhi
 254 0032 C3F30A03 		ubfx	r3, r3, #0, #11
 255 0036 9AB2     		uxth	r2, r3
 256 0038 3B8A     		ldrh	r3, [r7, #16]	@ movhi
 257 003a 62F30A03 		bfi	r3, r2, #0, #11
 258 003e 3B82     		strh	r3, [r7, #16]	@ movhi
 259 0040 0023     		movs	r3, #0
 260 0042 FB61     		str	r3, [r7, #28]
 261 0044 0CE0     		b	.L24
 262              	.L25:
 263 0046 7A68     		ldr	r2, [r7, #4]
 264 0048 FB69     		ldr	r3, [r7, #28]
 265 004a 1344     		add	r3, r3, r2
 266 004c 1978     		ldrb	r1, [r3]	@ zero_extendqisi2
 267 004e 07F11402 		add	r2, r7, #20
 268 0052 FB69     		ldr	r3, [r7, #28]
 269 0054 1344     		add	r3, r3, r2
 270 0056 0A46     		mov	r2, r1
 271 0058 1A70     		strb	r2, [r3]
 272 005a FB69     		ldr	r3, [r7, #28]
ARM GAS  /var/folders/d2/nstgp4h54kz7g1l847x_b8wc0000gn/T//cc05Vlmi.s 			page 6


 273 005c 0133     		adds	r3, r3, #1
 274 005e FB61     		str	r3, [r7, #28]
 275              	.L24:
 276 0060 7B68     		ldr	r3, [r7, #4]
 277 0062 5B7A     		ldrb	r3, [r3, #9]
 278 0064 C3F3C303 		ubfx	r3, r3, #3, #4
 279 0068 DBB2     		uxtb	r3, r3
 280 006a 1A46     		mov	r2, r3
 281 006c FB69     		ldr	r3, [r7, #28]
 282 006e 9342     		cmp	r3, r2
 283 0070 E9DB     		blt	.L25
 284 0072 07F10C02 		add	r2, r7, #12
 285 0076 6423     		movs	r3, #100
 286 0078 0021     		movs	r1, #0
 287 007a 0748     		ldr	r0, .L26
 288 007c FFF7FEFF 		bl	canTransmit
 289 0080 0120     		movs	r0, #1
 290 0082 FFF7FEFF 		bl	chThdSleep
 291 0086 FFF7FEFF 		bl	AsebaCanFrameSent
 292 008a FFF7FEFF 		bl	aseba_can_unlock
 293 008e 00BF     		nop
 294 0090 2037     		adds	r7, r7, #32
 295 0092 BD46     		mov	sp, r7
 296              		@ sp needed
 297 0094 80BD     		pop	{r7, pc}
 298              	.L27:
 299 0096 00BF     		.align	2
 300              	.L26:
 301 0098 00000000 		.word	CAND1
 302              		.size	aseba_can_send_frame, .-aseba_can_send_frame
 303              		.section	.text.aseba_can_is_frame_room,"ax",%progbits
 304              		.align	1
 305              		.global	aseba_can_is_frame_room
 306              		.syntax unified
 307              		.thumb
 308              		.thumb_func
 309              		.fpu fpv4-sp-d16
 310              		.type	aseba_can_is_frame_room, %function
 311              	aseba_can_is_frame_room:
 312              		@ args = 0, pretend = 0, frame = 0
 313              		@ frame_needed = 1, uses_anonymous_args = 0
 314 0000 80B5     		push	{r7, lr}
 315 0002 00AF     		add	r7, sp, #0
 316 0004 0021     		movs	r1, #0
 317 0006 0348     		ldr	r0, .L30
 318 0008 FFF7FEFF 		bl	can_lld_is_tx_empty
 319 000c 0346     		mov	r3, r0
 320 000e 1846     		mov	r0, r3
 321 0010 80BD     		pop	{r7, pc}
 322              	.L31:
 323 0012 00BF     		.align	2
 324              	.L30:
 325 0014 00000000 		.word	CAND1
 326              		.size	aseba_can_is_frame_room, .-aseba_can_is_frame_room
 327              		.section	.text.aseba_can_start,"ax",%progbits
 328              		.align	1
 329              		.global	aseba_can_start
ARM GAS  /var/folders/d2/nstgp4h54kz7g1l847x_b8wc0000gn/T//cc05Vlmi.s 			page 7


 330              		.syntax unified
 331              		.thumb
 332              		.thumb_func
 333              		.fpu fpv4-sp-d16
 334              		.type	aseba_can_start, %function
 335              	aseba_can_start:
 336              		@ args = 0, pretend = 0, frame = 8
 337              		@ frame_needed = 1, uses_anonymous_args = 0
 338 0000 80B5     		push	{r7, lr}
 339 0002 88B0     		sub	sp, sp, #32
 340 0004 06AF     		add	r7, sp, #24
 341 0006 7860     		str	r0, [r7, #4]
 342 0008 FFF7FEFF 		bl	can_init
 343 000c 0023     		movs	r3, #0
 344 000e 0093     		str	r3, [sp]
 345 0010 0E4B     		ldr	r3, .L33
 346 0012 4122     		movs	r2, #65
 347 0014 4FF41E71 		mov	r1, #632
 348 0018 0D48     		ldr	r0, .L33+4
 349 001a FFF7FEFF 		bl	chThdCreateStatic
 350 001e 7B68     		ldr	r3, [r7, #4]
 351 0020 1888     		ldrh	r0, [r3]
 352 0022 4FF40073 		mov	r3, #512
 353 0026 0493     		str	r3, [sp, #16]
 354 0028 0A4B     		ldr	r3, .L33+8
 355 002a 0393     		str	r3, [sp, #12]
 356 002c 4FF40073 		mov	r3, #512
 357 0030 0293     		str	r3, [sp, #8]
 358 0032 094B     		ldr	r3, .L33+12
 359 0034 0193     		str	r3, [sp, #4]
 360 0036 094B     		ldr	r3, .L33+16
 361 0038 0093     		str	r3, [sp]
 362 003a 094B     		ldr	r3, .L33+20
 363 003c 094A     		ldr	r2, .L33+24
 364 003e 0A49     		ldr	r1, .L33+28
 365 0040 FFF7FEFF 		bl	AsebaCanInit
 366 0044 00BF     		nop
 367 0046 0837     		adds	r7, r7, #8
 368 0048 BD46     		mov	sp, r7
 369              		@ sp needed
 370 004a 80BD     		pop	{r7, pc}
 371              	.L34:
 372              		.align	2
 373              	.L33:
 374 004c 00000000 		.word	can_rx_thread
 375 0050 00000000 		.word	can_rx_thread_wa
 376 0054 00000000 		.word	aseba_can_receive_queue
 377 0058 00000000 		.word	aseba_can_send_queue
 378 005c 00000000 		.word	aseba_can_tx_dropped
 379 0060 00000000 		.word	aseba_can_rx_dropped
 380 0064 00000000 		.word	aseba_can_is_frame_room
 381 0068 00000000 		.word	aseba_can_send_frame
 382              		.size	aseba_can_start, .-aseba_can_start
 383              		.section	.data.can_lock,"aw",%progbits
 384              		.align	2
 385              		.type	can_lock, %object
 386              		.size	can_lock, 20
ARM GAS  /var/folders/d2/nstgp4h54kz7g1l847x_b8wc0000gn/T//cc05Vlmi.s 			page 8


 387              	can_lock:
 388 0000 00000000 		.word	can_lock
 389 0004 00000000 		.word	can_lock
 390 0008 00000000 		.word	0
 391 000c 00000000 		.word	0
 392 0010 00000000 		.word	0
 393              		.section	.text.aseba_can_lock,"ax",%progbits
 394              		.align	1
 395              		.global	aseba_can_lock
 396              		.syntax unified
 397              		.thumb
 398              		.thumb_func
 399              		.fpu fpv4-sp-d16
 400              		.type	aseba_can_lock, %function
 401              	aseba_can_lock:
 402              		@ args = 0, pretend = 0, frame = 0
 403              		@ frame_needed = 1, uses_anonymous_args = 0
 404 0000 80B5     		push	{r7, lr}
 405 0002 00AF     		add	r7, sp, #0
 406 0004 0248     		ldr	r0, .L36
 407 0006 FFF7FEFF 		bl	chMtxLock
 408 000a 00BF     		nop
 409 000c 80BD     		pop	{r7, pc}
 410              	.L37:
 411 000e 00BF     		.align	2
 412              	.L36:
 413 0010 00000000 		.word	can_lock
 414              		.size	aseba_can_lock, .-aseba_can_lock
 415              		.section	.text.aseba_can_unlock,"ax",%progbits
 416              		.align	1
 417              		.global	aseba_can_unlock
 418              		.syntax unified
 419              		.thumb
 420              		.thumb_func
 421              		.fpu fpv4-sp-d16
 422              		.type	aseba_can_unlock, %function
 423              	aseba_can_unlock:
 424              		@ args = 0, pretend = 0, frame = 0
 425              		@ frame_needed = 1, uses_anonymous_args = 0
 426 0000 80B5     		push	{r7, lr}
 427 0002 00AF     		add	r7, sp, #0
 428 0004 0248     		ldr	r0, .L39
 429 0006 FFF7FEFF 		bl	chMtxUnlock
 430 000a 00BF     		nop
 431 000c 80BD     		pop	{r7, pc}
 432              	.L40:
 433 000e 00BF     		.align	2
 434              	.L39:
 435 0010 00000000 		.word	can_lock
 436              		.size	aseba_can_unlock, .-aseba_can_unlock
 437              		.section	.rodata.can1_config.10597,"a",%progbits
 438              		.align	2
 439              		.type	can1_config.10597, %object
 440              		.size	can1_config.10597, 8
 441              	can1_config.10597:
 442 0000 44000000 		.word	68
 443 0004 01007B00 		.word	8060929
ARM GAS  /var/folders/d2/nstgp4h54kz7g1l847x_b8wc0000gn/T//cc05Vlmi.s 			page 9


 444              		.ident	"GCC: (GNU Tools for Arm Embedded Processors 7-2017-q4-major) 7.2.1 20170904 (release) [ARM
ARM GAS  /var/folders/d2/nstgp4h54kz7g1l847x_b8wc0000gn/T//cc05Vlmi.s 			page 10

