ARM GAS  /var/folders/d2/nstgp4h54kz7g1l847x_b8wc0000gn/T//ccB20FE7.s 			page 1


   1              		.cpu cortex-m4
   2              		.eabi_attribute 27, 1
   3              		.eabi_attribute 28, 1
   4              		.eabi_attribute 20, 1
   5              		.eabi_attribute 21, 1
   6              		.eabi_attribute 23, 3
   7              		.eabi_attribute 24, 1
   8              		.eabi_attribute 25, 1
   9              		.eabi_attribute 26, 1
  10              		.eabi_attribute 30, 2
  11              		.eabi_attribute 34, 1
  12              		.eabi_attribute 18, 4
  13              		.file	"Asercom2.c"
  14              		.text
  15              	.Ltext0:
  16              		.cfi_sections	.debug_frame
  17              		.section	.text.run_asercom2,"ax",%progbits
  18              		.align	1
  19              		.p2align 4,,15
  20              		.global	run_asercom2
  21              		.syntax unified
  22              		.thumb
  23              		.thumb_func
  24              		.fpu fpv4-sp-d16
  25              		.type	run_asercom2, %function
  26              	run_asercom2:
  27              	.LFB259:
  28              		.file 1 "../e-puck2_main-processor/src/epuck1x/Asercom2.c"
  29              		.loc 1 75 0
  30              		.cfi_startproc
  31              		@ args = 0, pretend = 0, frame = 80
  32              		@ frame_needed = 0, uses_anonymous_args = 0
  33 0000 2DE9F04F 		push	{r4, r5, r6, r7, r8, r9, r10, fp, lr}
  34              		.cfi_def_cfa_offset 36
  35              		.cfi_offset 4, -36
  36              		.cfi_offset 5, -32
  37              		.cfi_offset 6, -28
  38              		.cfi_offset 7, -24
  39              		.cfi_offset 8, -20
  40              		.cfi_offset 9, -16
  41              		.cfi_offset 10, -12
  42              		.cfi_offset 11, -8
  43              		.cfi_offset 14, -4
  44 0004 2DED028B 		vpush.64	{d8}
  45              		.cfi_def_cfa_offset 44
  46              		.cfi_offset 80, -44
  47              		.cfi_offset 81, -40
  48 0008 AE4B     		ldr	r3, .L775
  49 000a 9BB0     		sub	sp, sp, #108
  50              		.cfi_def_cfa_offset 152
  51              		.loc 1 75 0
  52 000c 1B68     		ldr	r3, [r3]
  53 000e 1993     		str	r3, [sp, #100]
  54              	.LVL0:
  55              		.loc 1 94 0
  56 0010 0023     		movs	r3, #0
  57 0012 1793     		str	r3, [sp, #92]
ARM GAS  /var/folders/d2/nstgp4h54kz7g1l847x_b8wc0000gn/T//ccB20FE7.s 			page 2


  58 0014 CDE91433 		strd	r3, r3, [sp, #80]
  59 0018 1693     		str	r3, [sp, #88]
  60 001a CDF85F30 		str	r3, [sp, #95]	@ unaligned
  61              		.loc 1 98 0
  62 001e FFF7FEFF 		bl	e_init_motors
  63              	.LVL1:
  64              		.loc 1 102 0
  65 0022 FFF7FEFF 		bl	getselector
  66              	.LVL2:
  67 0026 A84B     		ldr	r3, .L775+4
  68              		.loc 1 103 0
  69 0028 0328     		cmp	r0, #3
  70              		.loc 1 102 0
  71 002a 1860     		str	r0, [r3]
  72              		.loc 1 103 0
  73 002c 02F07483 		beq	.L436
  74              		.loc 1 103 0 is_stmt 0 discriminator 1
  75 0030 A0F10F03 		sub	r3, r0, #15
  76 0034 B3FA83F3 		clz	r3, r3
  77 0038 5B09     		lsrs	r3, r3, #5
  78              		.loc 1 108 0 is_stmt 1 discriminator 1
  79 003a 0A28     		cmp	r0, #10
  80              		.loc 1 103 0 discriminator 1
  81 003c 0793     		str	r3, [sp, #28]
  82              	.LVL3:
  83              		.loc 1 108 0 discriminator 1
  84 003e 42F06D83 		bne	.L2
  85              		.loc 1 121 0
  86 0042 FFF7FEFF 		bl	e_init_remote_control
  87              	.LVL4:
  88              		.loc 1 137 0
  89 0046 A14B     		ldr	r3, .L775+8
  90              		.loc 1 132 0
  91 0048 A14C     		ldr	r4, .L775+12
  92              		.loc 1 129 0
  93 004a A24A     		ldr	r2, .L775+16
  94              		.loc 1 134 0
  95 004c A24D     		ldr	r5, .L775+20
  96              		.loc 1 135 0
  97 004e A34E     		ldr	r6, .L775+24
  98              		.loc 1 136 0
  99 0050 A34F     		ldr	r7, .L775+28
 100              		.loc 1 137 0
 101 0052 0E93     		str	r3, [sp, #56]
 102              		.loc 1 129 0
 103 0054 4FF6FE71 		movw	r1, #65534
 104 0058 0123     		movs	r3, #1
 105 005a 7F20     		movs	r0, #127
 106              		.loc 1 132 0
 107 005c 1294     		str	r4, [sp, #72]
 108              		.loc 1 134 0
 109 005e 1095     		str	r5, [sp, #64]
 110              		.loc 1 135 0
 111 0060 1196     		str	r6, [sp, #68]
 112              		.loc 1 136 0
 113 0062 1397     		str	r7, [sp, #76]
 114              		.loc 1 129 0
ARM GAS  /var/folders/d2/nstgp4h54kz7g1l847x_b8wc0000gn/T//ccB20FE7.s 			page 3


 115 0064 FFF7FEFF 		bl	ReadEE
 116              	.LVL5:
 117              		.loc 1 132 0
 118 0068 0122     		movs	r2, #1
 119              		.loc 1 134 0
 120 006a 2823     		movs	r3, #40
 121              		.loc 1 132 0
 122 006c 2260     		str	r2, [r4]
 123              		.loc 1 109 0
 124 006e 9046     		mov	r8, r2
 125              		.loc 1 137 0
 126 0070 0E9A     		ldr	r2, [sp, #56]
 127              		.loc 1 134 0
 128 0072 2B60     		str	r3, [r5]
 129              		.loc 1 136 0
 130 0074 0821     		movs	r1, #8
 131              		.loc 1 135 0
 132 0076 3360     		str	r3, [r6]
 133              		.loc 1 137 0
 134 0078 4FF44863 		mov	r3, #3200
 135              		.loc 1 136 0
 136 007c 3960     		str	r1, [r7]
 137              		.loc 1 137 0
 138 007e 1360     		str	r3, [r2]
 139              	.LVL6:
 140              	.L7:
 141              		.loc 1 111 0
 142 0080 0023     		movs	r3, #0
 143 0082 DFF864A2 		ldr	r10, .L775+36
 144 0086 DFF878B2 		ldr	fp, .L775+60
 145 008a 964F     		ldr	r7, .L775+32
 146 008c DFF87492 		ldr	r9, .L775+64
 147 0090 0F93     		str	r3, [sp, #60]
 148 0092 0693     		str	r3, [sp, #24]
 149              	.LVL7:
 150              	.L5:
 151              		.loc 1 163 0
 152 0094 B8F1000F 		cmp	r8, #0
 153 0098 23D1     		bne	.L10
 154              	.LVL8:
 155              	.L708:
 156              		.loc 1 165 0
 157 009a 079B     		ldr	r3, [sp, #28]
 158 009c 002B     		cmp	r3, #0
 159 009e 00F08980 		beq	.L699
 160              	.L741:
 161              		.loc 1 166 0
 162 00a2 914D     		ldr	r5, .L775+36
 163              	.LVL9:
 164              	.L11:
 165 00a4 2846     		mov	r0, r5
 166 00a6 FFF7FEFF 		bl	e_getchar_uart1
 167              	.LVL10:
 168 00aa 0446     		mov	r4, r0
 169 00ac C8B9     		cbnz	r0, .L10
 170              		.loc 1 169 0
 171 00ae FFF7FEFF 		bl	e_get_data
ARM GAS  /var/folders/d2/nstgp4h54kz7g1l847x_b8wc0000gn/T//ccB20FE7.s 			page 4


 172              	.LVL11:
 173 00b2 0646     		mov	r6, r0
 174              	.LVL12:
 175              		.loc 1 170 0
 176 00b4 FFF7FEFF 		bl	e_get_address
 177              	.LVL13:
 178              		.loc 1 171 0
 179 00b8 10F0F70F 		tst	r0, #247
 180 00bc F2D1     		bne	.L11
 181              		.loc 1 171 0 is_stmt 0 discriminator 3
 182 00be 069B     		ldr	r3, [sp, #24]
 183 00c0 B342     		cmp	r3, r6
 184 00c2 EFD0     		beq	.L11
 185              		.loc 1 172 0 is_stmt 1
 186 00c4 092E     		cmp	r6, #9
 187 00c6 01F26186 		bhi	.L14
 188 00ca DFE816F0 		tbh	[pc, r6, lsl #1]
 189              	.L16:
 190 00ce 1D01     		.2byte	(.L15-.L16)/2
 191 00d0 F100     		.2byte	(.L17-.L16)/2
 192 00d2 EA00     		.2byte	(.L18-.L16)/2
 193 00d4 E100     		.2byte	(.L19-.L16)/2
 194 00d6 DE00     		.2byte	(.L20-.L16)/2
 195 00d8 D800     		.2byte	(.L21-.L16)/2
 196 00da D500     		.2byte	(.L22-.L16)/2
 197 00dc CE00     		.2byte	(.L23-.L16)/2
 198 00de C700     		.2byte	(.L24-.L16)/2
 199 00e0 B700     		.2byte	(.L25-.L16)/2
 200              	.LVL14:
 201              		.p2align 1
 202              	.L10:
 203              		.loc 1 291 0
 204 00e2 9AF80030 		ldrb	r3, [r10]	@ zero_extendqisi2
 205 00e6 1C06     		lsls	r4, r3, #24
 206 00e8 00F16D81 		bmi	.L736
 207              		.loc 1 953 0
 208 00ec 002B     		cmp	r3, #0
 209 00ee D1D0     		beq	.L5
 210              		.loc 1 954 0
 211 00f0 B8F1000F 		cmp	r8, #0
 212 00f4 41F03286 		bne	.L196
 213              		.loc 1 956 0
 214 00f8 079A     		ldr	r2, [sp, #28]
 215              		.loc 1 957 0
 216 00fa 7B4C     		ldr	r4, .L775+36
 217              		.loc 1 956 0
 218 00fc 002A     		cmp	r2, #0
 219 00fe 7FD0     		beq	.L198
 220 0100 04E0     		b	.L197
 221              	.L199:
 222              		.loc 1 957 0 discriminator 4
 223 0102 2046     		mov	r0, r4
 224 0104 FFF7FEFF 		bl	e_getchar_uart1
 225              	.LVL15:
 226 0108 9AF80030 		ldrb	r3, [r10]	@ zero_extendqisi2
 227              	.L197:
 228              		.loc 1 957 0 is_stmt 0 discriminator 1
ARM GAS  /var/folders/d2/nstgp4h54kz7g1l847x_b8wc0000gn/T//ccB20FE7.s 			page 5


 229 010c 0A2B     		cmp	r3, #10
 230 010e F8D0     		beq	.L199
 231              		.loc 1 957 0 discriminator 3
 232 0110 0D2B     		cmp	r3, #13
 233 0112 F6D0     		beq	.L199
 234              		.loc 1 962 0 is_stmt 1
 235 0114 0122     		movs	r2, #1
 236              		.loc 1 961 0
 237 0116 3B70     		strb	r3, [r7]
 238              		.loc 1 962 0
 239 0118 CBF80020 		str	r2, [fp]
 240              		.loc 1 966 0
 241 011c 724C     		ldr	r4, .L775+36
 242 011e 05E0     		b	.L207
 243              	.L737:
 244 0120 9AF80030 		ldrb	r3, [r10]	@ zero_extendqisi2
 245              		.loc 1 967 0
 246 0124 0A2B     		cmp	r3, #10
 247 0126 11D0     		beq	.L213
 248              	.L205:
 249              		.loc 1 967 0 is_stmt 0 discriminator 1
 250 0128 0D2B     		cmp	r3, #13
 251 012a 0FD0     		beq	.L213
 252              	.L207:
 253              		.loc 1 966 0 is_stmt 1
 254 012c 2046     		mov	r0, r4
 255 012e FFF7FEFF 		bl	e_getchar_uart1
 256              	.LVL16:
 257 0132 0028     		cmp	r0, #0
 258 0134 F4D0     		beq	.L737
 259              		.loc 1 966 0 is_stmt 0 discriminator 1
 260 0136 DBF80020 		ldr	r2, [fp]
 261 013a 9AF80030 		ldrb	r3, [r10]	@ zero_extendqisi2
 262 013e BB54     		strb	r3, [r7, r2]
 263              		.loc 1 967 0 is_stmt 1 discriminator 1
 264 0140 0A2B     		cmp	r3, #10
 265              		.loc 1 966 0 discriminator 1
 266 0142 02F10102 		add	r2, r2, #1
 267 0146 CBF80020 		str	r2, [fp]
 268              		.loc 1 967 0 discriminator 1
 269 014a EDD1     		bne	.L205
 270              	.L213:
 271 014c DBF80030 		ldr	r3, [fp]
 272              		.loc 1 972 0
 273 0150 0022     		movs	r2, #0
 274 0152 FA54     		strb	r2, [r7, r3]
 275              		.loc 1 974 0
 276 0154 3C78     		ldrb	r4, [r7]	@ zero_extendqisi2
 277 0156 591C     		adds	r1, r3, #1
 278 0158 622C     		cmp	r4, #98
 279              		.loc 1 972 0
 280 015a CBF80010 		str	r1, [fp]
 281              		.loc 1 974 0
 282 015e 01F0E787 		beq	.L738
 283              	.L431:
 284              		.loc 1 974 0 is_stmt 0 discriminator 1
 285 0162 672C     		cmp	r4, #103
ARM GAS  /var/folders/d2/nstgp4h54kz7g1l847x_b8wc0000gn/T//ccB20FE7.s 			page 6


 286 0164 40F09887 		bne	.L739
 287              	.L214:
 288              	.LBB2:
 289              		.loc 1 1070 0 is_stmt 1
 290 0168 B8F1000F 		cmp	r8, #0
 291 016c 41F0D887 		bne	.L270
 292              		.loc 1 1071 0
 293 0170 FFF7FEFF 		bl	getXAxisGyro
 294              	.LVL17:
 295 0174 0446     		mov	r4, r0
 296 0176 FFF7FEFF 		bl	getYAxisGyro
 297              	.LVL18:
 298 017a 0546     		mov	r5, r0
 299 017c FFF7FEFF 		bl	getZAxisGyro
 300              	.LVL19:
 301 0180 2B46     		mov	r3, r5
 302 0182 0090     		str	r0, [sp]
 303 0184 2246     		mov	r2, r4
 304 0186 5949     		ldr	r1, .L775+40
 305 0188 5648     		ldr	r0, .L775+32
 306 018a FFF7FEFF 		bl	sprintf
 307              	.LVL20:
 308              		.loc 1 1077 0
 309 018e 079B     		ldr	r3, [sp, #28]
 310 0190 002B     		cmp	r3, #0
 311 0192 02F06880 		beq	.L740
 312              		.loc 1 1078 0
 313 0196 5348     		ldr	r0, .L775+32
 314 0198 FFF7FEFF 		bl	strlen
 315              	.LVL21:
 316 019c 0146     		mov	r1, r0
 317 019e 5148     		ldr	r0, .L775+32
 318 01a0 FFF7FEFF 		bl	e_send_uart1_char
 319              	.LVL22:
 320              	.L273:
 321              		.loc 1 1078 0 is_stmt 0 discriminator 2
 322 01a4 FFF7FEFF 		bl	e_uart1_sending
 323              	.LVL23:
 324 01a8 0028     		cmp	r0, #0
 325 01aa FBD1     		bne	.L273
 326              	.LVL24:
 327              	.LBE2:
 328              		.loc 1 165 0 is_stmt 1
 329 01ac 079B     		ldr	r3, [sp, #28]
 330 01ae 002B     		cmp	r3, #0
 331 01b0 7FF477AF 		bne	.L741
 332              	.LVL25:
 333              	.L699:
 334              		.loc 1 228 0
 335 01b4 4C4D     		ldr	r5, .L775+36
 336              	.LVL26:
 337              	.L12:
 338 01b6 2846     		mov	r0, r5
 339 01b8 FFF7FEFF 		bl	e_getchar_uart2
 340              	.LVL27:
 341 01bc 0446     		mov	r4, r0
 342 01be 0028     		cmp	r0, #0
ARM GAS  /var/folders/d2/nstgp4h54kz7g1l847x_b8wc0000gn/T//ccB20FE7.s 			page 7


 343 01c0 8FD1     		bne	.L10
 344              		.loc 1 231 0
 345 01c2 FFF7FEFF 		bl	e_get_data
 346              	.LVL28:
 347 01c6 0646     		mov	r6, r0
 348              	.LVL29:
 349              		.loc 1 232 0
 350 01c8 FFF7FEFF 		bl	e_get_address
 351              	.LVL30:
 352              		.loc 1 233 0
 353 01cc 10F0F70F 		tst	r0, #247
 354 01d0 F1D1     		bne	.L12
 355              		.loc 1 233 0 is_stmt 0 discriminator 3
 356 01d2 069B     		ldr	r3, [sp, #24]
 357 01d4 B342     		cmp	r3, r6
 358 01d6 EED0     		beq	.L12
 359              		.loc 1 234 0 is_stmt 1
 360 01d8 092E     		cmp	r6, #9
 361 01da 01F2DE85 		bhi	.L30
 362 01de DFE816F0 		tbh	[pc, r6, lsl #1]
 363              	.L32:
 364 01e2 E400     		.2byte	(.L31-.L32)/2
 365 01e4 DB00     		.2byte	(.L33-.L32)/2
 366 01e6 D400     		.2byte	(.L34-.L32)/2
 367 01e8 CB00     		.2byte	(.L35-.L32)/2
 368 01ea C800     		.2byte	(.L36-.L32)/2
 369 01ec C200     		.2byte	(.L37-.L32)/2
 370 01ee BF00     		.2byte	(.L38-.L32)/2
 371 01f0 B800     		.2byte	(.L39-.L32)/2
 372 01f2 B100     		.2byte	(.L40-.L32)/2
 373 01f4 A100     		.2byte	(.L41-.L32)/2
 374              	.LVL31:
 375              		.p2align 1
 376              	.L201:
 377              		.loc 1 959 0 discriminator 4
 378 01f6 2046     		mov	r0, r4
 379 01f8 FFF7FEFF 		bl	e_getchar_uart2
 380              	.LVL32:
 381 01fc 9AF80030 		ldrb	r3, [r10]	@ zero_extendqisi2
 382              	.L198:
 383              		.loc 1 959 0 is_stmt 0 discriminator 1
 384 0200 0A2B     		cmp	r3, #10
 385 0202 F8D0     		beq	.L201
 386              		.loc 1 959 0 discriminator 3
 387 0204 0D2B     		cmp	r3, #13
 388 0206 F6D0     		beq	.L201
 389              		.loc 1 962 0 is_stmt 1
 390 0208 0122     		movs	r2, #1
 391              		.loc 1 961 0
 392 020a 3B70     		strb	r3, [r7]
 393              		.loc 1 962 0
 394 020c CBF80020 		str	r2, [fp]
 395              		.loc 1 969 0
 396 0210 354C     		ldr	r4, .L775+36
 397 0212 05E0     		b	.L212
 398              	.L742:
 399 0214 9AF80030 		ldrb	r3, [r10]	@ zero_extendqisi2
ARM GAS  /var/folders/d2/nstgp4h54kz7g1l847x_b8wc0000gn/T//ccB20FE7.s 			page 8


 400              	.L210:
 401              		.loc 1 970 0
 402 0218 0A2B     		cmp	r3, #10
 403 021a 97D0     		beq	.L213
 404              		.loc 1 970 0 is_stmt 0 discriminator 1
 405 021c 0D2B     		cmp	r3, #13
 406 021e 95D0     		beq	.L213
 407              	.L212:
 408              		.loc 1 969 0 is_stmt 1
 409 0220 2046     		mov	r0, r4
 410 0222 FFF7FEFF 		bl	e_getchar_uart2
 411              	.LVL33:
 412 0226 0028     		cmp	r0, #0
 413 0228 F4D0     		beq	.L742
 414              		.loc 1 969 0 is_stmt 0 discriminator 1
 415 022a DBF80020 		ldr	r2, [fp]
 416 022e 9AF80030 		ldrb	r3, [r10]	@ zero_extendqisi2
 417 0232 BB54     		strb	r3, [r7, r2]
 418 0234 0132     		adds	r2, r2, #1
 419 0236 CBF80020 		str	r2, [fp]
 420 023a EDE7     		b	.L210
 421              	.LVL34:
 422              	.L25:
 423              		.loc 1 206 0 is_stmt 1
 424 023c 2C4B     		ldr	r3, .L775+44
 425              	.L727:
 426              		.loc 1 207 0
 427 023e 2D4A     		ldr	r2, .L775+48
 428 0240 2D49     		ldr	r1, .L775+52
 429 0242 1160     		str	r1, [r2]
 430              		.loc 1 206 0
 431 0244 2D4A     		ldr	r2, .L775+56
 432              		.loc 1 208 0
 433 0246 0C46     		mov	r4, r1
 434              		.loc 1 206 0
 435 0248 1360     		str	r3, [r2]
 436              	.LVL35:
 437              	.L26:
 438              		.loc 1 220 0
 439 024a 2046     		mov	r0, r4
 440 024c FFF7FEFF 		bl	e_set_speed_left
 441              	.LVL36:
 442              		.loc 1 221 0
 443 0250 2A4B     		ldr	r3, .L775+56
 444 0252 1868     		ldr	r0, [r3]
 445 0254 FFF7FEFF 		bl	e_set_speed_right
 446              	.LVL37:
 447 0258 0696     		str	r6, [sp, #24]
 448 025a 23E7     		b	.L11
 449              	.LVL38:
 450              	.L24:
 451              		.loc 1 202 0
 452 025c 274A     		ldr	r2, .L775+56
 453 025e 264B     		ldr	r3, .L775+52
 454 0260 1360     		str	r3, [r2]
 455              		.loc 1 203 0
 456 0262 244A     		ldr	r2, .L775+48
ARM GAS  /var/folders/d2/nstgp4h54kz7g1l847x_b8wc0000gn/T//ccB20FE7.s 			page 9


 457              		.loc 1 204 0
 458 0264 1C46     		mov	r4, r3
 459              		.loc 1 203 0
 460 0266 1360     		str	r3, [r2]
 461              		.loc 1 204 0
 462 0268 EFE7     		b	.L26
 463              	.L23:
 464              		.loc 1 199 0
 465 026a 214C     		ldr	r4, .L775+44
 466              	.L728:
 467              		.loc 1 198 0
 468 026c 234B     		ldr	r3, .L775+56
 469 026e 224A     		ldr	r2, .L775+52
 470 0270 1A60     		str	r2, [r3]
 471              		.loc 1 199 0
 472 0272 204B     		ldr	r3, .L775+48
 473 0274 1C60     		str	r4, [r3]
 474              		.loc 1 200 0
 475 0276 E8E7     		b	.L26
 476              	.L22:
 477              		.loc 1 195 0
 478 0278 4FF41674 		mov	r4, #600
 479 027c F6E7     		b	.L728
 480              	.L21:
 481              		.loc 1 190 0
 482 027e 1F4A     		ldr	r2, .L775+56
 483 0280 0023     		movs	r3, #0
 484 0282 1360     		str	r3, [r2]
 485              		.loc 1 191 0
 486 0284 1B4A     		ldr	r2, .L775+48
 487 0286 1360     		str	r3, [r2]
 488              		.loc 1 192 0
 489 0288 DFE7     		b	.L26
 490              	.L20:
 491              		.loc 1 186 0
 492 028a 4FF41673 		mov	r3, #600
 493 028e D6E7     		b	.L727
 494              	.L19:
 495              		.loc 1 182 0
 496 0290 1A4A     		ldr	r2, .L775+56
 497 0292 4FF49673 		mov	r3, #300
 498 0296 1360     		str	r3, [r2]
 499              		.loc 1 183 0
 500 0298 164B     		ldr	r3, .L775+48
 501 029a 4FF41674 		mov	r4, #600
 502 029e 1C60     		str	r4, [r3]
 503              		.loc 1 184 0
 504 02a0 D3E7     		b	.L26
 505              	.L18:
 506              		.loc 1 178 0
 507 02a2 164B     		ldr	r3, .L775+56
 508 02a4 4FF41674 		mov	r4, #600
 509 02a8 1C60     		str	r4, [r3]
 510              		.loc 1 179 0
 511 02aa 124B     		ldr	r3, .L775+48
 512 02ac 1C60     		str	r4, [r3]
 513              		.loc 1 180 0
ARM GAS  /var/folders/d2/nstgp4h54kz7g1l847x_b8wc0000gn/T//ccB20FE7.s 			page 10


 514 02ae CCE7     		b	.L26
 515              	.L17:
 516              		.loc 1 174 0
 517 02b0 124A     		ldr	r2, .L775+56
 518 02b2 4FF41673 		mov	r3, #600
 519 02b6 1360     		str	r3, [r2]
 520              		.loc 1 175 0
 521 02b8 0E4B     		ldr	r3, .L775+48
 522 02ba 4FF49674 		mov	r4, #300
 523 02be 1C60     		str	r4, [r3]
 524              		.loc 1 176 0
 525 02c0 C3E7     		b	.L26
 526              	.L776:
 527 02c2 00BF     		.align	2
 528              	.L775:
 529 02c4 00000000 		.word	__stack_chk_guard
 530 02c8 00000000 		.word	selector
 531 02cc 00000000 		.word	.LANCHOR5
 532 02d0 00000000 		.word	.LANCHOR1
 533 02d4 00000000 		.word	.LANCHOR0
 534 02d8 00000000 		.word	.LANCHOR2
 535 02dc 00000000 		.word	.LANCHOR3
 536 02e0 00000000 		.word	.LANCHOR4
 537 02e4 00000000 		.word	buffer
 538 02e8 00000000 		.word	c
 539 02ec F8000000 		.word	.LC13
 540 02f0 D4FEFFFF 		.word	-300
 541 02f4 00000000 		.word	.LANCHOR7
 542 02f8 A8FDFFFF 		.word	-600
 543 02fc 00000000 		.word	.LANCHOR6
 544 0300 00000000 		.word	.LANCHOR9
 545 0304 00000000 		.word	.LANCHOR17
 546              	.L15:
 547              		.loc 1 210 0
 548 0308 964B     		ldr	r3, .L777
 549 030a 1B78     		ldrb	r3, [r3]	@ zero_extendqisi2
 550 030c 002B     		cmp	r3, #0
 551 030e 01F08E86 		beq	.L743
 552              	.LVL39:
 553              	.L27:
 554              		.loc 1 214 0
 555 0312 41F65071 		movw	r1, #8016
 556 0316 42F61430 		movw	r0, #11028
 557 031a FFF7FEFF 		bl	e_play_sound
 558              	.LVL40:
 559 031e 924B     		ldr	r3, .L777+4
 560 0320 1C68     		ldr	r4, [r3]
 561              		.loc 1 215 0
 562 0322 92E7     		b	.L26
 563              	.LVL41:
 564              	.L41:
 565              		.loc 1 268 0
 566 0324 914B     		ldr	r3, .L777+8
 567              	.L729:
 568              		.loc 1 269 0
 569 0326 904A     		ldr	r2, .L777+4
 570 0328 9149     		ldr	r1, .L777+12
ARM GAS  /var/folders/d2/nstgp4h54kz7g1l847x_b8wc0000gn/T//ccB20FE7.s 			page 11


 571 032a 1160     		str	r1, [r2]
 572              		.loc 1 268 0
 573 032c 914A     		ldr	r2, .L777+16
 574              		.loc 1 270 0
 575 032e 0C46     		mov	r4, r1
 576              		.loc 1 268 0
 577 0330 1360     		str	r3, [r2]
 578              	.LVL42:
 579              	.L42:
 580              		.loc 1 282 0
 581 0332 2046     		mov	r0, r4
 582 0334 FFF7FEFF 		bl	e_set_speed_left
 583              	.LVL43:
 584              		.loc 1 283 0
 585 0338 8E4B     		ldr	r3, .L777+16
 586 033a 1868     		ldr	r0, [r3]
 587 033c FFF7FEFF 		bl	e_set_speed_right
 588              	.LVL44:
 589 0340 0696     		str	r6, [sp, #24]
 590 0342 38E7     		b	.L12
 591              	.LVL45:
 592              	.L40:
 593              		.loc 1 264 0
 594 0344 8B4A     		ldr	r2, .L777+16
 595 0346 8A4B     		ldr	r3, .L777+12
 596 0348 1360     		str	r3, [r2]
 597              		.loc 1 265 0
 598 034a 874A     		ldr	r2, .L777+4
 599              		.loc 1 266 0
 600 034c 1C46     		mov	r4, r3
 601              		.loc 1 265 0
 602 034e 1360     		str	r3, [r2]
 603              		.loc 1 266 0
 604 0350 EFE7     		b	.L42
 605              	.L39:
 606              		.loc 1 261 0
 607 0352 864C     		ldr	r4, .L777+8
 608              	.L730:
 609              		.loc 1 260 0
 610 0354 874B     		ldr	r3, .L777+16
 611 0356 864A     		ldr	r2, .L777+12
 612 0358 1A60     		str	r2, [r3]
 613              		.loc 1 261 0
 614 035a 834B     		ldr	r3, .L777+4
 615 035c 1C60     		str	r4, [r3]
 616              		.loc 1 262 0
 617 035e E8E7     		b	.L42
 618              	.L38:
 619              		.loc 1 257 0
 620 0360 4FF41674 		mov	r4, #600
 621 0364 F6E7     		b	.L730
 622              	.L37:
 623              		.loc 1 252 0
 624 0366 834A     		ldr	r2, .L777+16
 625 0368 0023     		movs	r3, #0
 626 036a 1360     		str	r3, [r2]
 627              		.loc 1 253 0
ARM GAS  /var/folders/d2/nstgp4h54kz7g1l847x_b8wc0000gn/T//ccB20FE7.s 			page 12


 628 036c 7E4A     		ldr	r2, .L777+4
 629 036e 1360     		str	r3, [r2]
 630              		.loc 1 254 0
 631 0370 DFE7     		b	.L42
 632              	.L36:
 633              		.loc 1 248 0
 634 0372 4FF41673 		mov	r3, #600
 635 0376 D6E7     		b	.L729
 636              	.L35:
 637              		.loc 1 244 0
 638 0378 7E4A     		ldr	r2, .L777+16
 639 037a 4FF49673 		mov	r3, #300
 640 037e 1360     		str	r3, [r2]
 641              		.loc 1 245 0
 642 0380 794B     		ldr	r3, .L777+4
 643 0382 4FF41674 		mov	r4, #600
 644 0386 1C60     		str	r4, [r3]
 645              		.loc 1 246 0
 646 0388 D3E7     		b	.L42
 647              	.L34:
 648              		.loc 1 240 0
 649 038a 7A4B     		ldr	r3, .L777+16
 650 038c 4FF41674 		mov	r4, #600
 651 0390 1C60     		str	r4, [r3]
 652              		.loc 1 241 0
 653 0392 754B     		ldr	r3, .L777+4
 654 0394 1C60     		str	r4, [r3]
 655              		.loc 1 242 0
 656 0396 CCE7     		b	.L42
 657              	.L33:
 658              		.loc 1 236 0
 659 0398 764A     		ldr	r2, .L777+16
 660 039a 4FF41673 		mov	r3, #600
 661 039e 1360     		str	r3, [r2]
 662              		.loc 1 237 0
 663 03a0 714B     		ldr	r3, .L777+4
 664 03a2 4FF49674 		mov	r4, #300
 665 03a6 1C60     		str	r4, [r3]
 666              		.loc 1 238 0
 667 03a8 C3E7     		b	.L42
 668              	.L31:
 669              		.loc 1 272 0
 670 03aa 6E4B     		ldr	r3, .L777
 671 03ac 1B78     		ldrb	r3, [r3]	@ zero_extendqisi2
 672 03ae 002B     		cmp	r3, #0
 673 03b0 01F04486 		beq	.L744
 674              	.LVL46:
 675              	.L43:
 676              		.loc 1 276 0
 677 03b4 41F65071 		movw	r1, #8016
 678 03b8 42F61430 		movw	r0, #11028
 679 03bc FFF7FEFF 		bl	e_play_sound
 680              	.LVL47:
 681 03c0 694B     		ldr	r3, .L777+4
 682 03c2 1C68     		ldr	r4, [r3]
 683              		.loc 1 277 0
 684 03c4 B5E7     		b	.L42
ARM GAS  /var/folders/d2/nstgp4h54kz7g1l847x_b8wc0000gn/T//ccB20FE7.s 			page 13


 685              	.LVL48:
 686              	.L736:
 687              		.loc 1 292 0
 688 03c6 0022     		movs	r2, #0
 689              		.loc 1 928 0
 690 03c8 6B4E     		ldr	r6, .L777+20
 691              		.loc 1 657 0
 692 03ca 9FED6C8A 		vldr.32	s16, .L777+24
 693              		.loc 1 292 0
 694 03ce CBF80020 		str	r2, [fp]
 695 03d2 5B42     		negs	r3, r3
 696 03d4 4546     		mov	r5, r8
 697              	.L46:
 698              		.loc 1 294 0
 699 03d6 DAB2     		uxtb	r2, r3
 700 03d8 083A     		subs	r2, r2, #8
 701 03da 6F2A     		cmp	r2, #111
 702 03dc 00F29180 		bhi	.L47
 703 03e0 DFE812F0 		tbh	[pc, r2, lsl #1]
 704              	.L49:
 705 03e4 D400     		.2byte	(.L48-.L49)/2
 706 03e6 9A03     		.2byte	(.L50-.L49)/2
 707 03e8 5403     		.2byte	(.L51-.L49)/2
 708 03ea 4B03     		.2byte	(.L52-.L49)/2
 709 03ec 2303     		.2byte	(.L53-.L49)/2
 710 03ee 9404     		.2byte	(.L54-.L49)/2
 711 03f0 8704     		.2byte	(.L55-.L49)/2
 712 03f2 8F00     		.2byte	(.L47-.L49)/2
 713 03f4 8F00     		.2byte	(.L47-.L49)/2
 714 03f6 8F00     		.2byte	(.L47-.L49)/2
 715 03f8 8F00     		.2byte	(.L47-.L49)/2
 716 03fa 8F00     		.2byte	(.L47-.L49)/2
 717 03fc 8F00     		.2byte	(.L47-.L49)/2
 718 03fe 8F00     		.2byte	(.L47-.L49)/2
 719 0400 8F00     		.2byte	(.L47-.L49)/2
 720 0402 8F00     		.2byte	(.L47-.L49)/2
 721 0404 8F00     		.2byte	(.L47-.L49)/2
 722 0406 8F00     		.2byte	(.L47-.L49)/2
 723 0408 8F00     		.2byte	(.L47-.L49)/2
 724 040a 8F00     		.2byte	(.L47-.L49)/2
 725 040c 8F00     		.2byte	(.L47-.L49)/2
 726 040e 8F00     		.2byte	(.L47-.L49)/2
 727 0410 8F00     		.2byte	(.L47-.L49)/2
 728 0412 8F00     		.2byte	(.L47-.L49)/2
 729 0414 8F00     		.2byte	(.L47-.L49)/2
 730 0416 8F00     		.2byte	(.L47-.L49)/2
 731 0418 8F00     		.2byte	(.L47-.L49)/2
 732 041a 8F00     		.2byte	(.L47-.L49)/2
 733 041c 8F00     		.2byte	(.L47-.L49)/2
 734 041e 8F00     		.2byte	(.L47-.L49)/2
 735 0420 8F00     		.2byte	(.L47-.L49)/2
 736 0422 8F00     		.2byte	(.L47-.L49)/2
 737 0424 8F00     		.2byte	(.L47-.L49)/2
 738 0426 8F00     		.2byte	(.L47-.L49)/2
 739 0428 8F00     		.2byte	(.L47-.L49)/2
 740 042a 8F00     		.2byte	(.L47-.L49)/2
 741 042c 8F00     		.2byte	(.L47-.L49)/2
ARM GAS  /var/folders/d2/nstgp4h54kz7g1l847x_b8wc0000gn/T//ccB20FE7.s 			page 14


 742 042e 8F00     		.2byte	(.L47-.L49)/2
 743 0430 8F00     		.2byte	(.L47-.L49)/2
 744 0432 8F00     		.2byte	(.L47-.L49)/2
 745 0434 8F00     		.2byte	(.L47-.L49)/2
 746 0436 8F00     		.2byte	(.L47-.L49)/2
 747 0438 8F00     		.2byte	(.L47-.L49)/2
 748 043a 8F00     		.2byte	(.L47-.L49)/2
 749 043c 8F00     		.2byte	(.L47-.L49)/2
 750 043e 8F00     		.2byte	(.L47-.L49)/2
 751 0440 8F00     		.2byte	(.L47-.L49)/2
 752 0442 8F00     		.2byte	(.L47-.L49)/2
 753 0444 8F00     		.2byte	(.L47-.L49)/2
 754 0446 8F00     		.2byte	(.L47-.L49)/2
 755 0448 8F00     		.2byte	(.L47-.L49)/2
 756 044a 8F00     		.2byte	(.L47-.L49)/2
 757 044c 8F00     		.2byte	(.L47-.L49)/2
 758 044e 8F00     		.2byte	(.L47-.L49)/2
 759 0450 8F00     		.2byte	(.L47-.L49)/2
 760 0452 8F00     		.2byte	(.L47-.L49)/2
 761 0454 8F00     		.2byte	(.L47-.L49)/2
 762 0456 A204     		.2byte	(.L56-.L49)/2
 763 0458 8F00     		.2byte	(.L47-.L49)/2
 764 045a 8F00     		.2byte	(.L47-.L49)/2
 765 045c 9202     		.2byte	(.L57-.L49)/2
 766 045e A605     		.2byte	(.L58-.L49)/2
 767 0460 8F00     		.2byte	(.L47-.L49)/2
 768 0462 8F00     		.2byte	(.L47-.L49)/2
 769 0464 8F00     		.2byte	(.L47-.L49)/2
 770 0466 DC04     		.2byte	(.L59-.L49)/2
 771 0468 8F00     		.2byte	(.L47-.L49)/2
 772 046a 8F00     		.2byte	(.L47-.L49)/2
 773 046c 6605     		.2byte	(.L60-.L49)/2
 774 046e E902     		.2byte	(.L61-.L49)/2
 775 0470 8F05     		.2byte	(.L62-.L49)/2
 776 0472 7104     		.2byte	(.L63-.L49)/2
 777 0474 0E05     		.2byte	(.L64-.L49)/2
 778 0476 A900     		.2byte	(.L65-.L49)/2
 779 0478 8F00     		.2byte	(.L47-.L49)/2
 780 047a 8F00     		.2byte	(.L47-.L49)/2
 781 047c 8F00     		.2byte	(.L47-.L49)/2
 782 047e 8F00     		.2byte	(.L47-.L49)/2
 783 0480 8F00     		.2byte	(.L47-.L49)/2
 784 0482 3B04     		.2byte	(.L66-.L49)/2
 785 0484 8F00     		.2byte	(.L47-.L49)/2
 786 0486 8F00     		.2byte	(.L47-.L49)/2
 787 0488 8F00     		.2byte	(.L47-.L49)/2
 788 048a 8F00     		.2byte	(.L47-.L49)/2
 789 048c 8F00     		.2byte	(.L47-.L49)/2
 790 048e 8F00     		.2byte	(.L47-.L49)/2
 791 0490 8F00     		.2byte	(.L47-.L49)/2
 792 0492 8F00     		.2byte	(.L47-.L49)/2
 793 0494 8F00     		.2byte	(.L47-.L49)/2
 794 0496 7000     		.2byte	(.L67-.L49)/2
 795 0498 1703     		.2byte	(.L68-.L49)/2
 796 049a 8F00     		.2byte	(.L47-.L49)/2
 797 049c 8F00     		.2byte	(.L47-.L49)/2
 798 049e 8F00     		.2byte	(.L47-.L49)/2
ARM GAS  /var/folders/d2/nstgp4h54kz7g1l847x_b8wc0000gn/T//ccB20FE7.s 			page 15


 799 04a0 8F00     		.2byte	(.L47-.L49)/2
 800 04a2 7302     		.2byte	(.L69-.L49)/2
 801 04a4 8F00     		.2byte	(.L47-.L49)/2
 802 04a6 8F00     		.2byte	(.L47-.L49)/2
 803 04a8 8F00     		.2byte	(.L47-.L49)/2
 804 04aa 8F00     		.2byte	(.L47-.L49)/2
 805 04ac 8F00     		.2byte	(.L47-.L49)/2
 806 04ae 8F00     		.2byte	(.L47-.L49)/2
 807 04b0 8F00     		.2byte	(.L47-.L49)/2
 808 04b2 8F00     		.2byte	(.L47-.L49)/2
 809 04b4 8F00     		.2byte	(.L47-.L49)/2
 810 04b6 8F00     		.2byte	(.L47-.L49)/2
 811 04b8 8F00     		.2byte	(.L47-.L49)/2
 812 04ba 8F00     		.2byte	(.L47-.L49)/2
 813 04bc 6902     		.2byte	(.L70-.L49)/2
 814 04be 4D02     		.2byte	(.L71-.L49)/2
 815 04c0 8F00     		.2byte	(.L47-.L49)/2
 816 04c2 B805     		.2byte	(.L72-.L49)/2
 817              		.p2align 1
 818              	.L67:
 819              		.loc 1 633 0
 820 04c4 002D     		cmp	r5, #0
 821 04c6 01F0D884 		beq	.L745
 822              		.loc 1 641 0
 823 04ca 2D49     		ldr	r1, .L777+28
 824 04cc 0022     		movs	r2, #0
 825 04ce 0A60     		str	r2, [r1]
 826              		.loc 1 642 0
 827 04d0 2C49     		ldr	r1, .L777+32
 828 04d2 0A60     		str	r2, [r1]
 829              		.loc 1 643 0
 830 04d4 2C49     		ldr	r1, .L777+36
 831 04d6 1346     		mov	r3, r2
 832 04d8 0A60     		str	r2, [r1]
 833 04da 9046     		mov	r8, r2
 834 04dc 1046     		mov	r0, r2
 835 04de 9446     		mov	ip, r2
 836 04e0 1446     		mov	r4, r2
 837 04e2 9646     		mov	lr, r2
 838              	.L126:
 839              		.loc 1 645 0
 840 04e4 DBF80020 		ldr	r2, [fp]
 841              		.loc 1 646 0
 842 04e8 B918     		adds	r1, r7, r2
 843              		.loc 1 645 0
 844 04ea 07F802E0 		strb	lr, [r7, r2]
 845              		.loc 1 650 0
 846 04ee 0632     		adds	r2, r2, #6
 847              		.loc 1 646 0
 848 04f0 4C70     		strb	r4, [r1, #1]
 849              		.loc 1 647 0
 850 04f2 81F802C0 		strb	ip, [r1, #2]
 851              		.loc 1 648 0
 852 04f6 C870     		strb	r0, [r1, #3]
 853              		.loc 1 649 0
 854 04f8 81F80480 		strb	r8, [r1, #4]
 855              		.loc 1 650 0
ARM GAS  /var/folders/d2/nstgp4h54kz7g1l847x_b8wc0000gn/T//ccB20FE7.s 			page 16


 856 04fc 4B71     		strb	r3, [r1, #5]
 857 04fe CBF80020 		str	r2, [fp]
 858              	.L47:
 859              		.loc 1 925 0
 860 0502 35B9     		cbnz	r5, .L733
 861              	.L122:
 862              		.loc 1 927 0
 863 0504 079B     		ldr	r3, [sp, #28]
 864 0506 5BB1     		cbz	r3, .L190
 865              	.L191:
 866              		.loc 1 928 0 discriminator 1
 867 0508 3046     		mov	r0, r6
 868 050a FFF7FEFF 		bl	e_getchar_uart1
 869              	.LVL49:
 870 050e 0028     		cmp	r0, #0
 871 0510 FAD0     		beq	.L191
 872              	.L733:
 873 0512 9AF80030 		ldrb	r3, [r10]	@ zero_extendqisi2
 874              	.L170:
 875              		.loc 1 932 0
 876 0516 002B     		cmp	r3, #0
 877 0518 00F09385 		beq	.L707
 878 051c 5B42     		negs	r3, r3
 879 051e 5AE7     		b	.L46
 880              	.L190:
 881              		.loc 1 930 0 discriminator 1
 882 0520 3046     		mov	r0, r6
 883 0522 FFF7FEFF 		bl	e_getchar_uart2
 884              	.LVL50:
 885 0526 0028     		cmp	r0, #0
 886 0528 F3D1     		bne	.L733
 887              		.loc 1 930 0 is_stmt 0
 888 052a 3046     		mov	r0, r6
 889 052c FFF7FEFF 		bl	e_getchar_uart2
 890              	.LVL51:
 891 0530 0028     		cmp	r0, #0
 892 0532 F5D0     		beq	.L190
 893 0534 EDE7     		b	.L733
 894              	.L65:
 895              		.loc 1 840 0 is_stmt 1
 896 0536 FFF7FEFF 		bl	e_get_steps_left
 897              	.LVL52:
 898              		.loc 1 841 0
 899 053a DBF80030 		ldr	r3, [fp]
 900              		.loc 1 842 0
 901 053e FA18     		adds	r2, r7, r3
 902              		.loc 1 841 0
 903 0540 F854     		strb	r0, [r7, r3]
 904              		.loc 1 842 0
 905 0542 0112     		asrs	r1, r0, #8
 906 0544 0233     		adds	r3, r3, #2
 907 0546 5170     		strb	r1, [r2, #1]
 908 0548 CBF80030 		str	r3, [fp]
 909              		.loc 1 843 0
 910 054c FFF7FEFF 		bl	e_get_steps_right
 911              	.LVL53:
 912              	.L732:
ARM GAS  /var/folders/d2/nstgp4h54kz7g1l847x_b8wc0000gn/T//ccB20FE7.s 			page 17


 913              		.loc 1 844 0
 914 0550 DBF80030 		ldr	r3, [fp]
 915              		.loc 1 845 0
 916 0554 FA18     		adds	r2, r7, r3
 917              		.loc 1 844 0
 918 0556 F854     		strb	r0, [r7, r3]
 919              		.loc 1 845 0
 920 0558 0112     		asrs	r1, r0, #8
 921 055a 0233     		adds	r3, r3, #2
 922 055c 5170     		strb	r1, [r2, #1]
 923 055e CBF80030 		str	r3, [fp]
 924              		.loc 1 846 0
 925 0562 CEE7     		b	.L47
 926              	.L778:
 927              		.align	2
 928              	.L777:
 929 0564 00000000 		.word	.LANCHOR8
 930 0568 00000000 		.word	.LANCHOR7
 931 056c D4FEFFFF 		.word	-300
 932 0570 A8FDFFFF 		.word	-600
 933 0574 00000000 		.word	.LANCHOR6
 934 0578 00000000 		.word	c
 935 057c 00000000 		.word	0
 936 0580 00000000 		.word	.LANCHOR10
 937 0584 00000000 		.word	.LANCHOR11
 938 0588 00000000 		.word	.LANCHOR12
 939              	.L48:
 940              		.loc 1 297 0
 941 058c 002D     		cmp	r5, #0
 942 058e 01F0D684 		beq	.L746
 943              		.loc 1 302 0
 944 0592 D649     		ldr	r1, .L779
 945 0594 0022     		movs	r2, #0
 946 0596 0A60     		str	r2, [r1]
 947              		.loc 1 303 0
 948 0598 D549     		ldr	r1, .L779+4
 949 059a 0A60     		str	r2, [r1]
 950              		.loc 1 304 0
 951 059c D549     		ldr	r1, .L779+8
 952 059e 1346     		mov	r3, r2
 953 05a0 0A60     		str	r2, [r1]
 954 05a2 9046     		mov	r8, r2
 955 05a4 1046     		mov	r0, r2
 956 05a6 9446     		mov	ip, r2
 957 05a8 1446     		mov	r4, r2
 958 05aa 9646     		mov	lr, r2
 959              	.L74:
 960              		.loc 1 306 0
 961 05ac DBF80020 		ldr	r2, [fp]
 962              		.loc 1 307 0
 963 05b0 B918     		adds	r1, r7, r2
 964              		.loc 1 306 0
 965 05b2 07F802E0 		strb	lr, [r7, r2]
 966              		.loc 1 311 0
 967 05b6 0632     		adds	r2, r2, #6
 968              		.loc 1 307 0
 969 05b8 4C70     		strb	r4, [r1, #1]
ARM GAS  /var/folders/d2/nstgp4h54kz7g1l847x_b8wc0000gn/T//ccB20FE7.s 			page 18


 970              		.loc 1 308 0
 971 05ba 81F802C0 		strb	ip, [r1, #2]
 972              		.loc 1 309 0
 973 05be C870     		strb	r0, [r1, #3]
 974              		.loc 1 310 0
 975 05c0 81F80480 		strb	r8, [r1, #4]
 976              		.loc 1 311 0
 977 05c4 4B71     		strb	r3, [r1, #5]
 978 05c6 CBF80020 		str	r2, [fp]
 979              		.loc 1 313 0
 980 05ca 002D     		cmp	r5, #0
 981 05cc 01F09484 		beq	.L747
 982              		.loc 1 318 0
 983 05d0 0021     		movs	r1, #0
 984              		.loc 1 316 0
 985 05d2 C94B     		ldr	r3, .L779+12
 986              		.loc 1 318 0
 987 05d4 CDE90C11 		strd	r1, r1, [sp, #48]
 988 05d8 CDE90A11 		strd	r1, r1, [sp, #40]
 989 05dc CDE90811 		strd	r1, r1, [sp, #32]
 990              		.loc 1 316 0
 991 05e0 83ED008A 		vstr.32	s16, [r3]
 992              		.loc 1 317 0
 993 05e4 83ED028A 		vstr.32	s16, [r3, #8]
 994              		.loc 1 318 0
 995 05e8 83ED018A 		vstr.32	s16, [r3, #4]
 996 05ec 0C46     		mov	r4, r1
 997 05ee 8C46     		mov	ip, r1
 998 05f0 8E46     		mov	lr, r1
 999 05f2 8846     		mov	r8, r1
 1000 05f4 0846     		mov	r0, r1
 1001              	.L76:
 1002              	.LVL54:
 1003              		.loc 1 323 0
 1004 05f6 BB18     		adds	r3, r7, r2
 1005              		.loc 1 321 0
 1006 05f8 B854     		strb	r0, [r7, r2]
 1007              	.LVL55:
 1008              		.loc 1 330 0
 1009 05fa 1C71     		strb	r4, [r3, #4]
 1010              		.loc 1 332 0
 1011 05fc 9DF82040 		ldrb	r4, [sp, #32]	@ zero_extendqisi2
 1012 0600 5C71     		strb	r4, [r3, #5]
 1013              		.loc 1 334 0
 1014 0602 9DF82440 		ldrb	r4, [sp, #36]	@ zero_extendqisi2
 1015 0606 9C71     		strb	r4, [r3, #6]
 1016              		.loc 1 336 0
 1017 0608 9DF82840 		ldrb	r4, [sp, #40]	@ zero_extendqisi2
 1018 060c DC71     		strb	r4, [r3, #7]
 1019              		.loc 1 339 0
 1020 060e 9DF82C40 		ldrb	r4, [sp, #44]	@ zero_extendqisi2
 1021 0612 1C72     		strb	r4, [r3, #8]
 1022              		.loc 1 341 0
 1023 0614 9DF83040 		ldrb	r4, [sp, #48]	@ zero_extendqisi2
 1024 0618 5C72     		strb	r4, [r3, #9]
 1025              		.loc 1 345 0
 1026 061a 02F10C00 		add	r0, r2, #12
ARM GAS  /var/folders/d2/nstgp4h54kz7g1l847x_b8wc0000gn/T//ccB20FE7.s 			page 19


 1027              		.loc 1 343 0
 1028 061e 9DF83440 		ldrb	r4, [sp, #52]	@ zero_extendqisi2
 1029              		.loc 1 323 0
 1030 0622 83F80180 		strb	r8, [r3, #1]
 1031              	.LVL56:
 1032              		.loc 1 325 0
 1033 0626 83F802E0 		strb	lr, [r3, #2]
 1034              	.LVL57:
 1035              		.loc 1 327 0
 1036 062a 83F803C0 		strb	ip, [r3, #3]
 1037              	.LVL58:
 1038              		.loc 1 343 0
 1039 062e 9C72     		strb	r4, [r3, #10]
 1040              	.LVL59:
 1041              		.loc 1 345 0
 1042 0630 D972     		strb	r1, [r3, #11]
 1043 0632 CBF80000 		str	r0, [fp]
 1044              		.loc 1 348 0
 1045 0636 002D     		cmp	r5, #0
 1046 0638 01F04284 		beq	.L748
 1047              		.loc 1 357 0
 1048 063c 0021     		movs	r1, #0
 1049              		.loc 1 362 0
 1050 063e 1232     		adds	r2, r2, #18
 1051              		.loc 1 357 0
 1052 0640 3954     		strb	r1, [r7, r0]
 1053              		.loc 1 362 0
 1054 0642 CBF80020 		str	r2, [fp]
 1055              		.loc 1 358 0
 1056 0646 5973     		strb	r1, [r3, #13]
 1057              		.loc 1 359 0
 1058 0648 9973     		strb	r1, [r3, #14]
 1059              		.loc 1 360 0
 1060 064a D973     		strb	r1, [r3, #15]
 1061              		.loc 1 361 0
 1062 064c 1974     		strb	r1, [r3, #16]
 1063              		.loc 1 362 0
 1064 064e 5974     		strb	r1, [r3, #17]
 1065              	.L78:
 1066              		.loc 1 366 0
 1067 0650 0020     		movs	r0, #0
 1068 0652 C9F80000 		str	r0, [r9]
 1069              	.L79:
 1070              		.loc 1 367 0 discriminator 3
 1071 0656 C0B2     		uxtb	r0, r0
 1072 0658 FFF7FEFF 		bl	get_magnetic_field
 1073              	.LVL60:
 1074              		.loc 1 369 0 discriminator 3
 1075 065c DBF80020 		ldr	r2, [fp]
 1076              		.loc 1 366 0 discriminator 3
 1077 0660 D9F80000 		ldr	r0, [r9]
 1078              		.loc 1 368 0 discriminator 3
 1079 0664 10EE103A 		vmov	r3, s0	@ int
 1080              	.LVL61:
 1081              		.loc 1 370 0 discriminator 3
 1082 0668 B918     		adds	r1, r7, r2
 1083 066a 1C0A     		lsrs	r4, r3, #8
ARM GAS  /var/folders/d2/nstgp4h54kz7g1l847x_b8wc0000gn/T//ccB20FE7.s 			page 20


 1084              		.loc 1 369 0 discriminator 3
 1085 066c BB54     		strb	r3, [r7, r2]
 1086              		.loc 1 366 0 discriminator 3
 1087 066e 0130     		adds	r0, r0, #1
 1088              		.loc 1 370 0 discriminator 3
 1089 0670 4C70     		strb	r4, [r1, #1]
 1090              		.loc 1 371 0 discriminator 3
 1091 0672 1C0C     		lsrs	r4, r3, #16
 1092 0674 8C70     		strb	r4, [r1, #2]
 1093              		.loc 1 372 0 discriminator 3
 1094 0676 1B0E     		lsrs	r3, r3, #24
 1095 0678 141D     		adds	r4, r2, #4
 1096              		.loc 1 366 0 discriminator 3
 1097 067a 0228     		cmp	r0, #2
 1098              		.loc 1 372 0 discriminator 3
 1099 067c CB70     		strb	r3, [r1, #3]
 1100 067e CBF80040 		str	r4, [fp]
 1101              		.loc 1 366 0 discriminator 3
 1102 0682 C9F80000 		str	r0, [r9]
 1103 0686 E6DD     		ble	.L79
 1104              		.loc 1 376 0
 1105 0688 002D     		cmp	r5, #0
 1106 068a 01F0CF83 		beq	.L749
 1107              		.loc 1 379 0
 1108 068e 0023     		movs	r3, #0
 1109 0690 0532     		adds	r2, r2, #5
 1110 0692 3B55     		strb	r3, [r7, r4]
 1111 0694 CBF80020 		str	r2, [fp]
 1112              	.LVL62:
 1113              	.L81:
 1114              		.loc 1 383 0
 1115 0698 0020     		movs	r0, #0
 1116 069a C9F80000 		str	r0, [r9]
 1117              	.L82:
 1118              		.loc 1 384 0 discriminator 3
 1119 069e FFF7FEFF 		bl	e_get_calibrated_prox
 1120              	.LVL63:
 1121              		.loc 1 385 0 discriminator 3
 1122 06a2 DBF80020 		ldr	r2, [fp]
 1123              		.loc 1 383 0 discriminator 3
 1124 06a6 D9F80030 		ldr	r3, [r9]
 1125              		.loc 1 385 0 discriminator 3
 1126 06aa B854     		strb	r0, [r7, r2]
 1127              		.loc 1 386 0 discriminator 3
 1128 06ac BC18     		adds	r4, r7, r2
 1129 06ae 0112     		asrs	r1, r0, #8
 1130              		.loc 1 383 0 discriminator 3
 1131 06b0 581C     		adds	r0, r3, #1
 1132              		.loc 1 386 0 discriminator 3
 1133 06b2 0232     		adds	r2, r2, #2
 1134              		.loc 1 383 0 discriminator 3
 1135 06b4 0728     		cmp	r0, #7
 1136              		.loc 1 386 0 discriminator 3
 1137 06b6 6170     		strb	r1, [r4, #1]
 1138 06b8 CBF80020 		str	r2, [fp]
 1139              		.loc 1 383 0 discriminator 3
 1140 06bc C9F80000 		str	r0, [r9]
ARM GAS  /var/folders/d2/nstgp4h54kz7g1l847x_b8wc0000gn/T//ccB20FE7.s 			page 21


 1141 06c0 EDDD     		ble	.L82
 1142              		.loc 1 390 0
 1143 06c2 0020     		movs	r0, #0
 1144 06c4 C9F80000 		str	r0, [r9]
 1145              	.L83:
 1146              		.loc 1 391 0 discriminator 3
 1147 06c8 FFF7FEFF 		bl	e_get_ambient_light
 1148              	.LVL64:
 1149              		.loc 1 392 0 discriminator 3
 1150 06cc DBF80010 		ldr	r1, [fp]
 1151              		.loc 1 390 0 discriminator 3
 1152 06d0 D9F80030 		ldr	r3, [r9]
 1153              		.loc 1 392 0 discriminator 3
 1154 06d4 7854     		strb	r0, [r7, r1]
 1155              		.loc 1 393 0 discriminator 3
 1156 06d6 0212     		asrs	r2, r0, #8
 1157 06d8 7C18     		adds	r4, r7, r1
 1158              		.loc 1 390 0 discriminator 3
 1159 06da 581C     		adds	r0, r3, #1
 1160 06dc 0728     		cmp	r0, #7
 1161              		.loc 1 393 0 discriminator 3
 1162 06de 01F10203 		add	r3, r1, #2
 1163 06e2 6270     		strb	r2, [r4, #1]
 1164 06e4 CBF80030 		str	r3, [fp]
 1165              		.loc 1 390 0 discriminator 3
 1166 06e8 C9F80000 		str	r0, [r9]
 1167 06ec ECDD     		ble	.L83
 1168              		.loc 1 397 0
 1169 06ee 002D     		cmp	r5, #0
 1170 06f0 01F08F83 		beq	.L750
 1171              		.loc 1 402 0
 1172 06f4 0022     		movs	r2, #0
 1173              		.loc 1 403 0
 1174 06f6 0431     		adds	r1, r1, #4
 1175              		.loc 1 402 0
 1176 06f8 FA54     		strb	r2, [r7, r3]
 1177              		.loc 1 403 0
 1178 06fa CBF80010 		str	r1, [fp]
 1179 06fe E270     		strb	r2, [r4, #3]
 1180              	.L85:
 1181              		.loc 1 407 0
 1182 0700 0020     		movs	r0, #0
 1183 0702 FFF7FEFF 		bl	e_get_micro_volume
 1184              	.LVL65:
 1185              		.loc 1 408 0
 1186 0706 DBF80030 		ldr	r3, [fp]
 1187              		.loc 1 409 0
 1188 070a FA18     		adds	r2, r7, r3
 1189 070c 0112     		asrs	r1, r0, #8
 1190              		.loc 1 408 0
 1191 070e F854     		strb	r0, [r7, r3]
 1192              		.loc 1 409 0
 1193 0710 0233     		adds	r3, r3, #2
 1194              		.loc 1 410 0
 1195 0712 0120     		movs	r0, #1
 1196              		.loc 1 409 0
 1197 0714 5170     		strb	r1, [r2, #1]
ARM GAS  /var/folders/d2/nstgp4h54kz7g1l847x_b8wc0000gn/T//ccB20FE7.s 			page 22


 1198 0716 CBF80030 		str	r3, [fp]
 1199              		.loc 1 410 0
 1200 071a FFF7FEFF 		bl	e_get_micro_volume
 1201              	.LVL66:
 1202              		.loc 1 411 0
 1203 071e DBF80030 		ldr	r3, [fp]
 1204              		.loc 1 412 0
 1205 0722 FA18     		adds	r2, r7, r3
 1206 0724 0112     		asrs	r1, r0, #8
 1207              		.loc 1 411 0
 1208 0726 F854     		strb	r0, [r7, r3]
 1209              		.loc 1 412 0
 1210 0728 0233     		adds	r3, r3, #2
 1211              		.loc 1 413 0
 1212 072a 0220     		movs	r0, #2
 1213              		.loc 1 412 0
 1214 072c 5170     		strb	r1, [r2, #1]
 1215 072e CBF80030 		str	r3, [fp]
 1216              		.loc 1 413 0
 1217 0732 FFF7FEFF 		bl	e_get_micro_volume
 1218              	.LVL67:
 1219              		.loc 1 414 0
 1220 0736 DBF80030 		ldr	r3, [fp]
 1221              		.loc 1 415 0
 1222 073a FA18     		adds	r2, r7, r3
 1223 073c 0112     		asrs	r1, r0, #8
 1224              		.loc 1 414 0
 1225 073e F854     		strb	r0, [r7, r3]
 1226              		.loc 1 415 0
 1227 0740 0233     		adds	r3, r3, #2
 1228              		.loc 1 416 0
 1229 0742 0320     		movs	r0, #3
 1230              		.loc 1 415 0
 1231 0744 5170     		strb	r1, [r2, #1]
 1232 0746 CBF80030 		str	r3, [fp]
 1233              		.loc 1 416 0
 1234 074a FFF7FEFF 		bl	e_get_micro_volume
 1235              	.LVL68:
 1236              		.loc 1 417 0
 1237 074e DBF80030 		ldr	r3, [fp]
 1238              		.loc 1 418 0
 1239 0752 FA18     		adds	r2, r7, r3
 1240 0754 0112     		asrs	r1, r0, #8
 1241              		.loc 1 417 0
 1242 0756 F854     		strb	r0, [r7, r3]
 1243              		.loc 1 418 0
 1244 0758 0233     		adds	r3, r3, #2
 1245 075a 5170     		strb	r1, [r2, #1]
 1246 075c CBF80030 		str	r3, [fp]
 1247              		.loc 1 421 0
 1248 0760 FFF7FEFF 		bl	e_get_steps_left
 1249              	.LVL69:
 1250              		.loc 1 422 0
 1251 0764 DBF80030 		ldr	r3, [fp]
 1252              		.loc 1 423 0
 1253 0768 FA18     		adds	r2, r7, r3
 1254 076a 0112     		asrs	r1, r0, #8
ARM GAS  /var/folders/d2/nstgp4h54kz7g1l847x_b8wc0000gn/T//ccB20FE7.s 			page 23


 1255              		.loc 1 422 0
 1256 076c F854     		strb	r0, [r7, r3]
 1257              		.loc 1 423 0
 1258 076e 0233     		adds	r3, r3, #2
 1259 0770 5170     		strb	r1, [r2, #1]
 1260 0772 CBF80030 		str	r3, [fp]
 1261              		.loc 1 424 0
 1262 0776 FFF7FEFF 		bl	e_get_steps_right
 1263              	.LVL70:
 1264              		.loc 1 425 0
 1265 077a DBF80030 		ldr	r3, [fp]
 1266              		.loc 1 426 0
 1267 077e FA18     		adds	r2, r7, r3
 1268 0780 0112     		asrs	r1, r0, #8
 1269              		.loc 1 425 0
 1270 0782 F854     		strb	r0, [r7, r3]
 1271              		.loc 1 426 0
 1272 0784 0233     		adds	r3, r3, #2
 1273 0786 5170     		strb	r1, [r2, #1]
 1274 0788 CBF80030 		str	r3, [fp]
 1275              		.loc 1 429 0
 1276 078c FFF7FEFF 		bl	getBatteryValueRaw
 1277              	.LVL71:
 1278              		.loc 1 430 0
 1279 0790 DBF80030 		ldr	r3, [fp]
 1280              		.loc 1 431 0
 1281 0794 FA18     		adds	r2, r7, r3
 1282              		.loc 1 430 0
 1283 0796 F854     		strb	r0, [r7, r3]
 1284              		.loc 1 431 0
 1285 0798 010A     		lsrs	r1, r0, #8
 1286 079a 0233     		adds	r3, r3, #2
 1287 079c 5170     		strb	r1, [r2, #1]
 1288 079e CBF80030 		str	r3, [fp]
 1289              		.loc 1 434 0
 1290 07a2 FFF7FEFF 		bl	sdio_is_present
 1291              	.LVL72:
 1292 07a6 0028     		cmp	r0, #0
 1293 07a8 41F05683 		bne	.L751
 1294              		.loc 1 439 0
 1295 07ac DBF80040 		ldr	r4, [fp]
 1296 07b0 3855     		strb	r0, [r7, r4]
 1297 07b2 0134     		adds	r4, r4, #1
 1298              	.L87:
 1299              		.loc 1 443 0
 1300 07b4 631C     		adds	r3, r4, #1
 1301 07b6 CBF80030 		str	r3, [fp]
 1302 07ba FFF7FEFF 		bl	e_get_check
 1303              	.LVL73:
 1304              		.loc 1 444 0
 1305 07be DBF80080 		ldr	r8, [fp]
 1306              		.loc 1 443 0
 1307 07c2 3855     		strb	r0, [r7, r4]
 1308              		.loc 1 444 0
 1309 07c4 08F10103 		add	r3, r8, #1
 1310 07c8 CBF80030 		str	r3, [fp]
 1311 07cc FFF7FEFF 		bl	e_get_address
ARM GAS  /var/folders/d2/nstgp4h54kz7g1l847x_b8wc0000gn/T//ccB20FE7.s 			page 24


 1312              	.LVL74:
 1313              		.loc 1 445 0
 1314 07d0 DBF80040 		ldr	r4, [fp]
 1315              		.loc 1 444 0
 1316 07d4 07F80800 		strb	r0, [r7, r8]
 1317              		.loc 1 445 0
 1318 07d8 631C     		adds	r3, r4, #1
 1319 07da CBF80030 		str	r3, [fp]
 1320 07de FFF7FEFF 		bl	e_get_data
 1321              	.LVL75:
 1322              		.loc 1 448 0
 1323 07e2 464A     		ldr	r2, .L779+16
 1324              		.loc 1 445 0
 1325 07e4 3855     		strb	r0, [r7, r4]
 1326              		.loc 1 448 0
 1327 07e6 464C     		ldr	r4, .L779+20
 1328 07e8 2369     		ldr	r3, [r4, #16]
 1329 07ea 2169     		ldr	r1, [r4, #16]
 1330 07ec 1069     		ldr	r0, [r2, #16]
 1331 07ee 2269     		ldr	r2, [r4, #16]
 1332 07f0 C0F30010 		ubfx	r0, r0, #4, #1
 1333 07f4 C1F3C031 		ubfx	r1, r1, #15, #1
 1334 07f8 01EB4001 		add	r1, r1, r0, lsl #1
 1335 07fc C2F38032 		ubfx	r2, r2, #14, #1
 1336 0800 02EB4102 		add	r2, r2, r1, lsl #1
 1337 0804 C3F34033 		ubfx	r3, r3, #13, #1
 1338              		.loc 1 449 0
 1339 0808 DBF80010 		ldr	r1, [fp]
 1340              		.loc 1 448 0
 1341 080c 03EB4203 		add	r3, r3, r2, lsl #1
 1342 0810 3C4A     		ldr	r2, .L779+24
 1343              		.loc 1 449 0
 1344 0812 7B54     		strb	r3, [r7, r1]
 1345              		.loc 1 452 0
 1346 0814 0020     		movs	r0, #0
 1347              		.loc 1 449 0
 1348 0816 0131     		adds	r1, r1, #1
 1349              		.loc 1 448 0
 1350 0818 1360     		str	r3, [r2]
 1351              		.loc 1 449 0
 1352 081a CBF80010 		str	r1, [fp]
 1353              		.loc 1 452 0
 1354 081e C9F80000 		str	r0, [r9]
 1355              	.L88:
 1356              		.loc 1 453 0 discriminator 3
 1357 0822 FFF7FEFF 		bl	get_ground_prox
 1358              	.LVL76:
 1359              		.loc 1 454 0 discriminator 3
 1360 0826 DBF80020 		ldr	r2, [fp]
 1361              		.loc 1 452 0 discriminator 3
 1362 082a D9F80030 		ldr	r3, [r9]
 1363              		.loc 1 454 0 discriminator 3
 1364 082e B854     		strb	r0, [r7, r2]
 1365              		.loc 1 455 0 discriminator 3
 1366 0830 BC18     		adds	r4, r7, r2
 1367 0832 0112     		asrs	r1, r0, #8
 1368              		.loc 1 452 0 discriminator 3
ARM GAS  /var/folders/d2/nstgp4h54kz7g1l847x_b8wc0000gn/T//ccB20FE7.s 			page 25


 1369 0834 581C     		adds	r0, r3, #1
 1370              		.loc 1 455 0 discriminator 3
 1371 0836 0232     		adds	r2, r2, #2
 1372              		.loc 1 452 0 discriminator 3
 1373 0838 0228     		cmp	r0, #2
 1374              		.loc 1 455 0 discriminator 3
 1375 083a 6170     		strb	r1, [r4, #1]
 1376 083c CBF80020 		str	r2, [fp]
 1377              		.loc 1 452 0 discriminator 3
 1378 0840 C9F80000 		str	r0, [r9]
 1379 0844 EDDD     		ble	.L88
 1380              		.loc 1 459 0
 1381 0846 0020     		movs	r0, #0
 1382 0848 C9F80000 		str	r0, [r9]
 1383              	.L89:
 1384              		.loc 1 460 0 discriminator 3
 1385 084c FFF7FEFF 		bl	get_ground_ambient_light
 1386              	.LVL77:
 1387              		.loc 1 461 0 discriminator 3
 1388 0850 DBF80010 		ldr	r1, [fp]
 1389              		.loc 1 459 0 discriminator 3
 1390 0854 D9F80030 		ldr	r3, [r9]
 1391              		.loc 1 461 0 discriminator 3
 1392 0858 7854     		strb	r0, [r7, r1]
 1393              		.loc 1 462 0 discriminator 3
 1394 085a 0212     		asrs	r2, r0, #8
 1395 085c 7C18     		adds	r4, r7, r1
 1396              		.loc 1 459 0 discriminator 3
 1397 085e 581C     		adds	r0, r3, #1
 1398 0860 0228     		cmp	r0, #2
 1399              		.loc 1 462 0 discriminator 3
 1400 0862 01F10203 		add	r3, r1, #2
 1401 0866 6270     		strb	r2, [r4, #1]
 1402 0868 CBF80030 		str	r3, [fp]
 1403              		.loc 1 459 0 discriminator 3
 1404 086c C9F80000 		str	r0, [r9]
 1405 0870 ECDD     		ble	.L89
 1406              		.loc 1 466 0
 1407 0872 0331     		adds	r1, r1, #3
 1408 0874 0022     		movs	r2, #0
 1409 0876 CBF80010 		str	r1, [fp]
 1410 087a FA54     		strb	r2, [r7, r3]
 1411              		.loc 1 467 0
 1412 087c 41E6     		b	.L47
 1413              	.LVL78:
 1414              	.L71:
 1415              		.loc 1 857 0
 1416 087e 0020     		movs	r0, #0
 1417 0880 FFF7FEFF 		bl	e_get_micro_volume
 1418              	.LVL79:
 1419              		.loc 1 858 0
 1420 0884 DBF80030 		ldr	r3, [fp]
 1421              		.loc 1 859 0
 1422 0888 FA18     		adds	r2, r7, r3
 1423              		.loc 1 858 0
 1424 088a F854     		strb	r0, [r7, r3]
 1425              		.loc 1 859 0
ARM GAS  /var/folders/d2/nstgp4h54kz7g1l847x_b8wc0000gn/T//ccB20FE7.s 			page 26


 1426 088c 0112     		asrs	r1, r0, #8
 1427 088e 0233     		adds	r3, r3, #2
 1428              		.loc 1 861 0
 1429 0890 0120     		movs	r0, #1
 1430              		.loc 1 859 0
 1431 0892 5170     		strb	r1, [r2, #1]
 1432 0894 CBF80030 		str	r3, [fp]
 1433              		.loc 1 861 0
 1434 0898 FFF7FEFF 		bl	e_get_micro_volume
 1435              	.LVL80:
 1436              		.loc 1 862 0
 1437 089c DBF80030 		ldr	r3, [fp]
 1438              		.loc 1 863 0
 1439 08a0 FA18     		adds	r2, r7, r3
 1440              		.loc 1 862 0
 1441 08a2 F854     		strb	r0, [r7, r3]
 1442              		.loc 1 863 0
 1443 08a4 0112     		asrs	r1, r0, #8
 1444 08a6 0233     		adds	r3, r3, #2
 1445              		.loc 1 865 0
 1446 08a8 0220     		movs	r0, #2
 1447              		.loc 1 863 0
 1448 08aa 5170     		strb	r1, [r2, #1]
 1449 08ac CBF80030 		str	r3, [fp]
 1450              		.loc 1 865 0
 1451 08b0 FFF7FEFF 		bl	e_get_micro_volume
 1452              	.LVL81:
 1453 08b4 4CE6     		b	.L732
 1454              	.L70:
 1455              		.loc 1 849 0
 1456 08b6 002D     		cmp	r5, #0
 1457 08b8 41F0C282 		bne	.L169
 1458              		.loc 1 850 0
 1459 08bc DBF80030 		ldr	r3, [fp]
 1460 08c0 5A1C     		adds	r2, r3, #1
 1461 08c2 FD54     		strb	r5, [r7, r3]
 1462 08c4 CBF80020 		str	r2, [fp]
 1463 08c8 1CE6     		b	.L122
 1464              	.L69:
 1465              		.loc 1 728 0
 1466 08ca 002D     		cmp	r5, #0
 1467 08cc 01F06683 		beq	.L752
 1468              		.loc 1 737 0
 1469 08d0 DBF80000 		ldr	r0, [fp]
 1470              		.loc 1 738 0
 1471 08d4 3918     		adds	r1, r7, r0
 1472              		.loc 1 737 0
 1473 08d6 0022     		movs	r2, #0
 1474              		.loc 1 742 0
 1475 08d8 841D     		adds	r4, r0, #6
 1476              		.loc 1 737 0
 1477 08da 3A54     		strb	r2, [r7, r0]
 1478              		.loc 1 742 0
 1479 08dc CBF80040 		str	r4, [fp]
 1480              		.loc 1 738 0
 1481 08e0 4A70     		strb	r2, [r1, #1]
 1482              		.loc 1 739 0
ARM GAS  /var/folders/d2/nstgp4h54kz7g1l847x_b8wc0000gn/T//ccB20FE7.s 			page 27


 1483 08e2 8A70     		strb	r2, [r1, #2]
 1484              		.loc 1 740 0
 1485 08e4 CA70     		strb	r2, [r1, #3]
 1486              		.loc 1 741 0
 1487 08e6 0A71     		strb	r2, [r1, #4]
 1488              		.loc 1 742 0
 1489 08e8 4A71     		strb	r2, [r1, #5]
 1490 08ea 74E5     		b	.L46
 1491              	.L780:
 1492              		.align	2
 1493              	.L779:
 1494 08ec 00000000 		.word	.LANCHOR10
 1495 08f0 00000000 		.word	.LANCHOR11
 1496 08f4 00000000 		.word	.LANCHOR12
 1497 08f8 00000000 		.word	.LANCHOR13
 1498 08fc 000C0240 		.word	1073875968
 1499 0900 00080240 		.word	1073874944
 1500 0904 00000000 		.word	selector
 1501              	.L57:
 1502              		.loc 1 697 0
 1503 0908 002D     		cmp	r5, #0
 1504 090a 41F05882 		bne	.L129
 1505              		.loc 1 699 0
 1506 090e 079B     		ldr	r3, [sp, #28]
 1507              		.loc 1 700 0
 1508 0910 7C4C     		ldr	r4, .L781
 1509              		.loc 1 699 0
 1510 0912 002B     		cmp	r3, #0
 1511 0914 2FD0     		beq	.L130
 1512              	.L131:
 1513              		.loc 1 700 0 discriminator 1
 1514 0916 2046     		mov	r0, r4
 1515 0918 FFF7FEFF 		bl	e_getchar_uart1
 1516              	.LVL82:
 1517 091c 0028     		cmp	r0, #0
 1518 091e FAD0     		beq	.L131
 1519              		.loc 1 701 0
 1520 0920 794C     		ldr	r4, .L781+4
 1521              	.L132:
 1522              		.loc 1 701 0 is_stmt 0 discriminator 1
 1523 0922 2046     		mov	r0, r4
 1524 0924 FFF7FEFF 		bl	e_getchar_uart1
 1525              	.LVL83:
 1526 0928 0028     		cmp	r0, #0
 1527 092a FAD0     		beq	.L132
 1528              		.loc 1 706 0 is_stmt 1
 1529 092c 764B     		ldr	r3, .L781+4
 1530              		.loc 1 710 0
 1531 092e 754C     		ldr	r4, .L781
 1532              		.loc 1 706 0
 1533 0930 1A78     		ldrb	r2, [r3]	@ zero_extendqisi2
 1534 0932 744B     		ldr	r3, .L781
 1535 0934 1B78     		ldrb	r3, [r3]	@ zero_extendqisi2
 1536 0936 03EB0223 		add	r3, r3, r2, lsl #8
 1537 093a 744A     		ldr	r2, .L781+8
 1538 093c 1360     		str	r3, [r2]
 1539              	.L136:
ARM GAS  /var/folders/d2/nstgp4h54kz7g1l847x_b8wc0000gn/T//ccB20FE7.s 			page 28


 1540              		.loc 1 710 0 discriminator 1
 1541 093e 2046     		mov	r0, r4
 1542 0940 FFF7FEFF 		bl	e_getchar_uart1
 1543              	.LVL84:
 1544 0944 0028     		cmp	r0, #0
 1545 0946 FAD0     		beq	.L136
 1546              		.loc 1 711 0
 1547 0948 6F4C     		ldr	r4, .L781+4
 1548              	.L137:
 1549              		.loc 1 711 0 is_stmt 0 discriminator 1
 1550 094a 2046     		mov	r0, r4
 1551 094c FFF7FEFF 		bl	e_getchar_uart1
 1552              	.LVL85:
 1553 0950 0028     		cmp	r0, #0
 1554 0952 FAD0     		beq	.L137
 1555              	.L702:
 1556 0954 6C4B     		ldr	r3, .L781+4
 1557 0956 6D49     		ldr	r1, .L781+8
 1558 0958 1A78     		ldrb	r2, [r3]	@ zero_extendqisi2
 1559 095a 6A4B     		ldr	r3, .L781
 1560 095c 0868     		ldr	r0, [r1]
 1561 095e 1B78     		ldrb	r3, [r3]	@ zero_extendqisi2
 1562 0960 03EB0223 		add	r3, r3, r2, lsl #8
 1563              	.L141:
 1564              		.loc 1 716 0 is_stmt 1
 1565 0964 6A4A     		ldr	r2, .L781+12
 1566 0966 1446     		mov	r4, r2
 1567 0968 1360     		str	r3, [r2]
 1568              		.loc 1 717 0
 1569 096a FFF7FEFF 		bl	e_set_speed_left
 1570              	.LVL86:
 1571              		.loc 1 718 0
 1572 096e 2068     		ldr	r0, [r4]
 1573 0970 FFF7FEFF 		bl	e_set_speed_right
 1574              	.LVL87:
 1575              		.loc 1 719 0
 1576 0974 C5E5     		b	.L47
 1577              	.L130:
 1578              		.loc 1 703 0 discriminator 1
 1579 0976 2046     		mov	r0, r4
 1580 0978 FFF7FEFF 		bl	e_getchar_uart2
 1581              	.LVL88:
 1582 097c 0028     		cmp	r0, #0
 1583 097e FAD0     		beq	.L130
 1584              		.loc 1 704 0
 1585 0980 614C     		ldr	r4, .L781+4
 1586              	.L134:
 1587              		.loc 1 704 0 is_stmt 0 discriminator 1
 1588 0982 2046     		mov	r0, r4
 1589 0984 FFF7FEFF 		bl	e_getchar_uart2
 1590              	.LVL89:
 1591 0988 0028     		cmp	r0, #0
 1592 098a FAD0     		beq	.L134
 1593              		.loc 1 706 0 is_stmt 1
 1594 098c 5E4B     		ldr	r3, .L781+4
 1595              		.loc 1 713 0
 1596 098e 5D4C     		ldr	r4, .L781
ARM GAS  /var/folders/d2/nstgp4h54kz7g1l847x_b8wc0000gn/T//ccB20FE7.s 			page 29


 1597              		.loc 1 706 0
 1598 0990 1A78     		ldrb	r2, [r3]	@ zero_extendqisi2
 1599 0992 5C4B     		ldr	r3, .L781
 1600 0994 1B78     		ldrb	r3, [r3]	@ zero_extendqisi2
 1601 0996 03EB0223 		add	r3, r3, r2, lsl #8
 1602 099a 5C4A     		ldr	r2, .L781+8
 1603 099c 1360     		str	r3, [r2]
 1604              	.L139:
 1605              		.loc 1 713 0 discriminator 1
 1606 099e 2046     		mov	r0, r4
 1607 09a0 FFF7FEFF 		bl	e_getchar_uart2
 1608              	.LVL90:
 1609 09a4 0028     		cmp	r0, #0
 1610 09a6 FAD0     		beq	.L139
 1611              		.loc 1 714 0
 1612 09a8 574C     		ldr	r4, .L781+4
 1613              	.L140:
 1614              		.loc 1 714 0 is_stmt 0 discriminator 1
 1615 09aa 2046     		mov	r0, r4
 1616 09ac FFF7FEFF 		bl	e_getchar_uart2
 1617              	.LVL91:
 1618 09b0 0028     		cmp	r0, #0
 1619 09b2 FAD0     		beq	.L140
 1620 09b4 CEE7     		b	.L702
 1621              	.L61:
 1622              		.loc 1 781 0 is_stmt 1
 1623 09b6 002D     		cmp	r5, #0
 1624 09b8 7FF40DAD 		bne	.L46
 1625              		.loc 1 782 0
 1626 09bc C9F80050 		str	r5, [r9]
 1627 09c0 2846     		mov	r0, r5
 1628              	.L151:
 1629              		.loc 1 783 0 discriminator 3
 1630 09c2 FFF7FEFF 		bl	get_ground_prox
 1631              	.LVL92:
 1632              		.loc 1 784 0 discriminator 3
 1633 09c6 DBF80020 		ldr	r2, [fp]
 1634              		.loc 1 782 0 discriminator 3
 1635 09ca D9F80030 		ldr	r3, [r9]
 1636              		.loc 1 784 0 discriminator 3
 1637 09ce B854     		strb	r0, [r7, r2]
 1638              		.loc 1 785 0 discriminator 3
 1639 09d0 BC18     		adds	r4, r7, r2
 1640 09d2 0112     		asrs	r1, r0, #8
 1641              		.loc 1 782 0 discriminator 3
 1642 09d4 581C     		adds	r0, r3, #1
 1643              		.loc 1 785 0 discriminator 3
 1644 09d6 0232     		adds	r2, r2, #2
 1645              		.loc 1 782 0 discriminator 3
 1646 09d8 0228     		cmp	r0, #2
 1647              		.loc 1 785 0 discriminator 3
 1648 09da 6170     		strb	r1, [r4, #1]
 1649 09dc CBF80020 		str	r2, [fp]
 1650              		.loc 1 782 0 discriminator 3
 1651 09e0 C9F80000 		str	r0, [r9]
 1652 09e4 EDDD     		ble	.L151
 1653              		.loc 1 788 0
ARM GAS  /var/folders/d2/nstgp4h54kz7g1l847x_b8wc0000gn/T//ccB20FE7.s 			page 30


 1654 09e6 0320     		movs	r0, #3
 1655 09e8 C9F80000 		str	r0, [r9]
 1656              	.L152:
 1657              		.loc 1 789 0 discriminator 3
 1658 09ec FFF7FEFF 		bl	get_ground_prox
 1659              	.LVL93:
 1660              		.loc 1 790 0 discriminator 3
 1661 09f0 DBF80020 		ldr	r2, [fp]
 1662              		.loc 1 788 0 discriminator 3
 1663 09f4 D9F80030 		ldr	r3, [r9]
 1664              		.loc 1 790 0 discriminator 3
 1665 09f8 B854     		strb	r0, [r7, r2]
 1666              		.loc 1 791 0 discriminator 3
 1667 09fa BC18     		adds	r4, r7, r2
 1668 09fc 0112     		asrs	r1, r0, #8
 1669              		.loc 1 788 0 discriminator 3
 1670 09fe 581C     		adds	r0, r3, #1
 1671              		.loc 1 791 0 discriminator 3
 1672 0a00 0232     		adds	r2, r2, #2
 1673              		.loc 1 788 0 discriminator 3
 1674 0a02 0328     		cmp	r0, #3
 1675              		.loc 1 791 0 discriminator 3
 1676 0a04 6170     		strb	r1, [r4, #1]
 1677 0a06 CBF80020 		str	r2, [fp]
 1678              		.loc 1 788 0 discriminator 3
 1679 0a0a C9F80000 		str	r0, [r9]
 1680 0a0e EDDD     		ble	.L152
 1681 0a10 78E5     		b	.L122
 1682              	.L68:
 1683              		.loc 1 691 0
 1684 0a12 FFF7FEFF 		bl	getBatteryValueRaw
 1685              	.LVL94:
 1686              		.loc 1 692 0
 1687 0a16 DBF80030 		ldr	r3, [fp]
 1688              		.loc 1 693 0
 1689 0a1a FA18     		adds	r2, r7, r3
 1690              		.loc 1 692 0
 1691 0a1c F854     		strb	r0, [r7, r3]
 1692              		.loc 1 693 0
 1693 0a1e 010A     		lsrs	r1, r0, #8
 1694 0a20 0233     		adds	r3, r3, #2
 1695 0a22 5170     		strb	r1, [r2, #1]
 1696 0a24 CBF80030 		str	r3, [fp]
 1697              		.loc 1 694 0
 1698 0a28 6BE5     		b	.L47
 1699              	.LVL95:
 1700              	.L53:
 1701              		.loc 1 594 0
 1702 0a2a 0020     		movs	r0, #0
 1703 0a2c FFF7FEFF 		bl	e_get_micro_volume
 1704              	.LVL96:
 1705              		.loc 1 595 0
 1706 0a30 DBF80030 		ldr	r3, [fp]
 1707              		.loc 1 596 0
 1708 0a34 FA18     		adds	r2, r7, r3
 1709              		.loc 1 595 0
 1710 0a36 F854     		strb	r0, [r7, r3]
ARM GAS  /var/folders/d2/nstgp4h54kz7g1l847x_b8wc0000gn/T//ccB20FE7.s 			page 31


 1711              		.loc 1 596 0
 1712 0a38 0112     		asrs	r1, r0, #8
 1713 0a3a 0233     		adds	r3, r3, #2
 1714              		.loc 1 598 0
 1715 0a3c 0120     		movs	r0, #1
 1716              		.loc 1 596 0
 1717 0a3e 5170     		strb	r1, [r2, #1]
 1718 0a40 CBF80030 		str	r3, [fp]
 1719              		.loc 1 598 0
 1720 0a44 FFF7FEFF 		bl	e_get_micro_volume
 1721              	.LVL97:
 1722              		.loc 1 599 0
 1723 0a48 DBF80030 		ldr	r3, [fp]
 1724              		.loc 1 600 0
 1725 0a4c FA18     		adds	r2, r7, r3
 1726              		.loc 1 599 0
 1727 0a4e F854     		strb	r0, [r7, r3]
 1728              		.loc 1 600 0
 1729 0a50 0112     		asrs	r1, r0, #8
 1730 0a52 0233     		adds	r3, r3, #2
 1731              		.loc 1 602 0
 1732 0a54 0220     		movs	r0, #2
 1733              		.loc 1 600 0
 1734 0a56 5170     		strb	r1, [r2, #1]
 1735 0a58 CBF80030 		str	r3, [fp]
 1736              		.loc 1 602 0
 1737 0a5c FFF7FEFF 		bl	e_get_micro_volume
 1738              	.LVL98:
 1739              		.loc 1 603 0
 1740 0a60 DBF80030 		ldr	r3, [fp]
 1741              		.loc 1 604 0
 1742 0a64 FA18     		adds	r2, r7, r3
 1743              		.loc 1 603 0
 1744 0a66 F854     		strb	r0, [r7, r3]
 1745              		.loc 1 604 0
 1746 0a68 0112     		asrs	r1, r0, #8
 1747 0a6a 0233     		adds	r3, r3, #2
 1748              		.loc 1 606 0
 1749 0a6c 0320     		movs	r0, #3
 1750              		.loc 1 604 0
 1751 0a6e 5170     		strb	r1, [r2, #1]
 1752 0a70 CBF80030 		str	r3, [fp]
 1753              		.loc 1 606 0
 1754 0a74 FFF7FEFF 		bl	e_get_micro_volume
 1755              	.LVL99:
 1756 0a78 6AE5     		b	.L732
 1757              	.L52:
 1758              		.loc 1 590 0
 1759 0a7a DBF80040 		ldr	r4, [fp]
 1760 0a7e 631C     		adds	r3, r4, #1
 1761 0a80 CBF80030 		str	r3, [fp]
 1762 0a84 FFF7FEFF 		bl	button_get_state
 1763              	.LVL100:
 1764 0a88 3855     		strb	r0, [r7, r4]
 1765              		.loc 1 591 0
 1766 0a8a 3AE5     		b	.L47
 1767              	.L51:
ARM GAS  /var/folders/d2/nstgp4h54kz7g1l847x_b8wc0000gn/T//ccB20FE7.s 			page 32


 1768              		.loc 1 574 0
 1769 0a8c 0020     		movs	r0, #0
 1770 0a8e 079C     		ldr	r4, [sp, #28]
 1771 0a90 C9F80000 		str	r0, [r9]
 1772              	.L120:
 1773              		.loc 1 575 0
 1774 0a94 5DB9     		cbnz	r5, .L115
 1775              		.loc 1 577 0
 1776 0a96 74B3     		cbz	r4, .L116
 1777 0a98 01E0     		b	.L118
 1778              	.L117:
 1779 0a9a D9F80000 		ldr	r0, [r9]
 1780              	.L118:
 1781              		.loc 1 578 0 discriminator 1
 1782 0a9e 1D4B     		ldr	r3, .L781+16
 1783 0aa0 1844     		add	r0, r0, r3
 1784 0aa2 FFF7FEFF 		bl	e_getchar_uart1
 1785              	.LVL101:
 1786 0aa6 0028     		cmp	r0, #0
 1787 0aa8 F7D0     		beq	.L117
 1788              	.L731:
 1789 0aaa D9F80000 		ldr	r0, [r9]
 1790              	.L115:
 1791              		.loc 1 574 0 discriminator 2
 1792 0aae 0130     		adds	r0, r0, #1
 1793 0ab0 0B28     		cmp	r0, #11
 1794 0ab2 C9F80000 		str	r0, [r9]
 1795 0ab6 EDDD     		ble	.L120
 1796              		.loc 1 583 0
 1797 0ab8 164B     		ldr	r3, .L781+16
 1798 0aba 1A46     		mov	r2, r3
 1799 0abc 1146     		mov	r1, r2
 1800 0abe 0C46     		mov	r4, r1
 1801 0ac0 9B78     		ldrb	r3, [r3, #2]	@ zero_extendqisi2
 1802 0ac2 5278     		ldrb	r2, [r2, #1]	@ zero_extendqisi2
 1803 0ac4 0978     		ldrb	r1, [r1]	@ zero_extendqisi2
 1804 0ac6 0020     		movs	r0, #0
 1805 0ac8 FFF7FEFF 		bl	set_rgb_led
 1806              	.LVL102:
 1807              		.loc 1 584 0
 1808 0acc 6379     		ldrb	r3, [r4, #5]	@ zero_extendqisi2
 1809 0ace 2279     		ldrb	r2, [r4, #4]	@ zero_extendqisi2
 1810 0ad0 E178     		ldrb	r1, [r4, #3]	@ zero_extendqisi2
 1811 0ad2 0120     		movs	r0, #1
 1812 0ad4 FFF7FEFF 		bl	set_rgb_led
 1813              	.LVL103:
 1814              		.loc 1 585 0
 1815 0ad8 237A     		ldrb	r3, [r4, #8]	@ zero_extendqisi2
 1816 0ada E279     		ldrb	r2, [r4, #7]	@ zero_extendqisi2
 1817 0adc A179     		ldrb	r1, [r4, #6]	@ zero_extendqisi2
 1818 0ade 0220     		movs	r0, #2
 1819 0ae0 FFF7FEFF 		bl	set_rgb_led
 1820              	.LVL104:
 1821              		.loc 1 586 0
 1822 0ae4 E37A     		ldrb	r3, [r4, #11]	@ zero_extendqisi2
 1823 0ae6 A27A     		ldrb	r2, [r4, #10]	@ zero_extendqisi2
 1824 0ae8 617A     		ldrb	r1, [r4, #9]	@ zero_extendqisi2
ARM GAS  /var/folders/d2/nstgp4h54kz7g1l847x_b8wc0000gn/T//ccB20FE7.s 			page 33


 1825 0aea 0320     		movs	r0, #3
 1826 0aec FFF7FEFF 		bl	set_rgb_led
 1827              	.LVL105:
 1828              		.loc 1 587 0
 1829 0af0 07E5     		b	.L47
 1830              	.L119:
 1831 0af2 D9F80000 		ldr	r0, [r9]
 1832              	.L116:
 1833              		.loc 1 580 0 discriminator 1
 1834 0af6 074B     		ldr	r3, .L781+16
 1835 0af8 1844     		add	r0, r0, r3
 1836 0afa FFF7FEFF 		bl	e_getchar_uart2
 1837              	.LVL106:
 1838 0afe 0028     		cmp	r0, #0
 1839 0b00 F7D0     		beq	.L119
 1840 0b02 D2E7     		b	.L731
 1841              	.L782:
 1842              		.align	2
 1843              	.L781:
 1844 0b04 00000000 		.word	.LANCHOR19
 1845 0b08 00000000 		.word	.LANCHOR20
 1846 0b0c 00000000 		.word	.LANCHOR7
 1847 0b10 00000000 		.word	.LANCHOR6
 1848 0b14 00000000 		.word	.LANCHOR18
 1849              	.L50:
 1850              		.loc 1 471 0
 1851 0b18 55B9     		cbnz	r5, .L90
 1852              		.loc 1 473 0
 1853 0b1a 079B     		ldr	r3, [sp, #28]
 1854 0b1c 002B     		cmp	r3, #0
 1855 0b1e 01F05183 		beq	.L91
 1856              		.loc 1 474 0
 1857 0b22 AF4B     		ldr	r3, .L783
 1858 0b24 AE48     		ldr	r0, .L783
 1859 0b26 1B68     		ldr	r3, [r3]
 1860 0b28 1322     		movs	r2, #19
 1861 0b2a 5B68     		ldr	r3, [r3, #4]
 1862 0b2c 14A9     		add	r1, sp, #80
 1863 0b2e 9847     		blx	r3
 1864              	.LVL107:
 1865              	.L90:
 1866              		.loc 1 484 0
 1867 0b30 FFF7FEFF 		bl	serial_get_last_errors
 1868              	.LVL108:
 1869 0b34 0028     		cmp	r0, #0
 1870 0b36 41F06881 		bne	.L753
 1871              		.loc 1 492 0
 1872 0b3a 9DF85020 		ldrb	r2, [sp, #80]	@ zero_extendqisi2
 1873 0b3e D007     		lsls	r0, r2, #31
 1874 0b40 01F1E882 		bmi	.L754
 1875              	.L94:
 1876              		.loc 1 503 0
 1877 0b44 9DF85410 		ldrb	r1, [sp, #84]	@ zero_extendqisi2
 1878 0b48 9DF85330 		ldrb	r3, [sp, #83]	@ zero_extendqisi2
 1879              		.loc 1 502 0
 1880 0b4c 9DF85240 		ldrb	r4, [sp, #82]	@ zero_extendqisi2
 1881 0b50 9DF85100 		ldrb	r0, [sp, #81]	@ zero_extendqisi2
ARM GAS  /var/folders/d2/nstgp4h54kz7g1l847x_b8wc0000gn/T//ccB20FE7.s 			page 34


 1882              		.loc 1 503 0
 1883 0b54 03EB0123 		add	r3, r3, r1, lsl #8
 1884              		.loc 1 502 0
 1885 0b58 A249     		ldr	r1, .L783+4
 1886 0b5a 00EB0420 		add	r0, r0, r4, lsl #8
 1887              		.loc 1 503 0
 1888 0b5e A24C     		ldr	r4, .L783+8
 1889              		.loc 1 502 0
 1890 0b60 0860     		str	r0, [r1]
 1891              		.loc 1 505 0
 1892 0b62 5107     		lsls	r1, r2, #29
 1893              		.loc 1 503 0
 1894 0b64 2360     		str	r3, [r4]
 1895              		.loc 1 505 0
 1896 0b66 41F13E81 		bpl	.L95
 1897              		.loc 1 506 0
 1898 0b6a FFF7FEFF 		bl	e_set_steps_left
 1899              	.LVL109:
 1900              		.loc 1 507 0
 1901 0b6e 2068     		ldr	r0, [r4]
 1902 0b70 FFF7FEFF 		bl	e_set_steps_right
 1903              	.LVL110:
 1904              	.L96:
 1905              		.loc 1 514 0
 1906 0b74 9DF85510 		ldrb	r1, [sp, #85]	@ zero_extendqisi2
 1907 0b78 11F00101 		ands	r1, r1, #1
 1908              		.loc 1 517 0
 1909 0b7c 0EBF     		itee	eq
 1910 0b7e 0846     		moveq	r0, r1
 1911              		.loc 1 515 0
 1912 0b80 0020     		movne	r0, #0
 1913 0b82 0121     		movne	r1, #1
 1914              		.loc 1 517 0
 1915 0b84 FFF7FEFF 		bl	set_led
 1916              	.LVL111:
 1917              		.loc 1 519 0
 1918 0b88 9DF85510 		ldrb	r1, [sp, #85]	@ zero_extendqisi2
 1919 0b8c 11F00201 		ands	r1, r1, #2
 1920              		.loc 1 520 0
 1921 0b90 1ABF     		itte	ne
 1922 0b92 0121     		movne	r1, #1
 1923 0b94 0846     		movne	r0, r1
 1924              		.loc 1 522 0
 1925 0b96 0120     		moveq	r0, #1
 1926 0b98 FFF7FEFF 		bl	set_led
 1927              	.LVL112:
 1928              		.loc 1 524 0
 1929 0b9c 9DF85510 		ldrb	r1, [sp, #85]	@ zero_extendqisi2
 1930 0ba0 11F00401 		ands	r1, r1, #4
 1931              		.loc 1 525 0
 1932 0ba4 18BF     		it	ne
 1933 0ba6 0121     		movne	r1, #1
 1934              		.loc 1 527 0
 1935 0ba8 0220     		movs	r0, #2
 1936 0baa FFF7FEFF 		bl	set_led
 1937              	.LVL113:
 1938              		.loc 1 529 0
ARM GAS  /var/folders/d2/nstgp4h54kz7g1l847x_b8wc0000gn/T//ccB20FE7.s 			page 35


 1939 0bae 9DF85510 		ldrb	r1, [sp, #85]	@ zero_extendqisi2
 1940 0bb2 11F00801 		ands	r1, r1, #8
 1941              		.loc 1 530 0
 1942 0bb6 18BF     		it	ne
 1943 0bb8 0121     		movne	r1, #1
 1944              		.loc 1 532 0
 1945 0bba 0320     		movs	r0, #3
 1946 0bbc FFF7FEFF 		bl	set_led
 1947              	.LVL114:
 1948              		.loc 1 534 0
 1949 0bc0 9DF85500 		ldrb	r0, [sp, #85]	@ zero_extendqisi2
 1950 0bc4 10F01000 		ands	r0, r0, #16
 1951              		.loc 1 535 0
 1952 0bc8 18BF     		it	ne
 1953 0bca 0120     		movne	r0, #1
 1954              		.loc 1 537 0
 1955 0bcc FFF7FEFF 		bl	set_body_led
 1956              	.LVL115:
 1957              		.loc 1 539 0
 1958 0bd0 9DF85500 		ldrb	r0, [sp, #85]	@ zero_extendqisi2
 1959 0bd4 10F02000 		ands	r0, r0, #32
 1960              		.loc 1 540 0
 1961 0bd8 18BF     		it	ne
 1962 0bda 0120     		movne	r0, #1
 1963              		.loc 1 542 0
 1964 0bdc FFF7FEFF 		bl	set_front_led
 1965              	.LVL116:
 1966              		.loc 1 546 0
 1967 0be0 9DF85830 		ldrb	r3, [sp, #88]	@ zero_extendqisi2
 1968 0be4 9DF85720 		ldrb	r2, [sp, #87]	@ zero_extendqisi2
 1969 0be8 9DF85610 		ldrb	r1, [sp, #86]	@ zero_extendqisi2
 1970 0bec 0020     		movs	r0, #0
 1971 0bee FFF7FEFF 		bl	set_rgb_led
 1972              	.LVL117:
 1973              		.loc 1 547 0
 1974 0bf2 9DF85B30 		ldrb	r3, [sp, #91]	@ zero_extendqisi2
 1975 0bf6 9DF85A20 		ldrb	r2, [sp, #90]	@ zero_extendqisi2
 1976 0bfa 9DF85910 		ldrb	r1, [sp, #89]	@ zero_extendqisi2
 1977 0bfe 0120     		movs	r0, #1
 1978 0c00 FFF7FEFF 		bl	set_rgb_led
 1979              	.LVL118:
 1980              		.loc 1 548 0
 1981 0c04 9DF85E30 		ldrb	r3, [sp, #94]	@ zero_extendqisi2
 1982 0c08 9DF85D20 		ldrb	r2, [sp, #93]	@ zero_extendqisi2
 1983 0c0c 9DF85C10 		ldrb	r1, [sp, #92]	@ zero_extendqisi2
 1984 0c10 0220     		movs	r0, #2
 1985 0c12 FFF7FEFF 		bl	set_rgb_led
 1986              	.LVL119:
 1987              		.loc 1 549 0
 1988 0c16 9DF86130 		ldrb	r3, [sp, #97]	@ zero_extendqisi2
 1989 0c1a 9DF86020 		ldrb	r2, [sp, #96]	@ zero_extendqisi2
 1990 0c1e 9DF85F10 		ldrb	r1, [sp, #95]	@ zero_extendqisi2
 1991 0c22 0320     		movs	r0, #3
 1992 0c24 FFF7FEFF 		bl	set_rgb_led
 1993              	.LVL120:
 1994              		.loc 1 552 0
 1995 0c28 9DF86230 		ldrb	r3, [sp, #98]	@ zero_extendqisi2
ARM GAS  /var/folders/d2/nstgp4h54kz7g1l847x_b8wc0000gn/T//ccB20FE7.s 			page 36


 1996 0c2c DA07     		lsls	r2, r3, #31
 1997 0c2e 01F13E82 		bmi	.L755
 1998              		.loc 1 555 0
 1999 0c32 9C07     		lsls	r4, r3, #30
 2000 0c34 01F14582 		bmi	.L756
 2001              	.L110:
 2002              		.loc 1 558 0
 2003 0c38 5807     		lsls	r0, r3, #29
 2004 0c3a 01F14C82 		bmi	.L757
 2005              	.L111:
 2006              		.loc 1 561 0
 2007 0c3e 1907     		lsls	r1, r3, #28
 2008 0c40 01F15382 		bmi	.L758
 2009              	.L112:
 2010              		.loc 1 564 0
 2011 0c44 DA06     		lsls	r2, r3, #27
 2012 0c46 01F15B82 		bmi	.L759
 2013              	.L113:
 2014              		.loc 1 567 0
 2015 0c4a 9B06     		lsls	r3, r3, #26
 2016 0c4c 7FF559AC 		bpl	.L47
 2017              		.loc 1 568 0
 2018 0c50 FFF7FEFF 		bl	e_close_sound
 2019              	.LVL121:
 2020              		.loc 1 569 0
 2021 0c54 FFF7FEFF 		bl	stopCurrentMelody
 2022              	.LVL122:
 2023 0c58 53E4     		b	.L47
 2024              	.L66:
 2025              		.loc 1 882 0
 2026 0c5a 002D     		cmp	r5, #0
 2027 0c5c 7FF4BBAB 		bne	.L46
 2028              		.loc 1 883 0
 2029 0c60 079B     		ldr	r3, [sp, #28]
 2030              		.loc 1 884 0
 2031 0c62 624C     		ldr	r4, .L783+12
 2032              		.loc 1 883 0
 2033 0c64 EBB1     		cbz	r3, .L171
 2034              	.L172:
 2035              		.loc 1 884 0 discriminator 1
 2036 0c66 2046     		mov	r0, r4
 2037 0c68 FFF7FEFF 		bl	e_getchar_uart1
 2038              	.LVL123:
 2039 0c6c 0028     		cmp	r0, #0
 2040 0c6e FAD0     		beq	.L172
 2041              		.loc 1 885 0
 2042 0c70 5F4C     		ldr	r4, .L783+16
 2043              	.L173:
 2044              		.loc 1 885 0 is_stmt 0 discriminator 1
 2045 0c72 2046     		mov	r0, r4
 2046 0c74 FFF7FEFF 		bl	e_getchar_uart1
 2047              	.LVL124:
 2048 0c78 0028     		cmp	r0, #0
 2049 0c7a FAD0     		beq	.L173
 2050              		.loc 1 886 0 is_stmt 1
 2051 0c7c 5D4C     		ldr	r4, .L783+20
 2052              	.L174:
ARM GAS  /var/folders/d2/nstgp4h54kz7g1l847x_b8wc0000gn/T//ccB20FE7.s 			page 37


 2053              		.loc 1 886 0 is_stmt 0 discriminator 1
 2054 0c7e 2046     		mov	r0, r4
 2055 0c80 FFF7FEFF 		bl	e_getchar_uart1
 2056              	.LVL125:
 2057 0c84 0028     		cmp	r0, #0
 2058 0c86 FAD0     		beq	.L174
 2059              	.L175:
 2060              		.loc 1 892 0 is_stmt 1
 2061 0c88 FFF7FEFF 		bl	e_i2cp_enable
 2062              	.LVL126:
 2063              		.loc 1 893 0
 2064 0c8c 594B     		ldr	r3, .L783+20
 2065 0c8e 1A78     		ldrb	r2, [r3]	@ zero_extendqisi2
 2066 0c90 574B     		ldr	r3, .L783+16
 2067 0c92 1978     		ldrb	r1, [r3]	@ zero_extendqisi2
 2068 0c94 554B     		ldr	r3, .L783+12
 2069 0c96 1878     		ldrb	r0, [r3]	@ zero_extendqisi2
 2070 0c98 FFF7FEFF 		bl	e_i2cp_write
 2071              	.LVL127:
 2072              		.loc 1 894 0
 2073 0c9c FFF7FEFF 		bl	e_i2cp_disable
 2074              	.LVL128:
 2075 0ca0 30E4     		b	.L122
 2076              	.L171:
 2077              		.loc 1 888 0 discriminator 1
 2078 0ca2 2046     		mov	r0, r4
 2079 0ca4 FFF7FEFF 		bl	e_getchar_uart2
 2080              	.LVL129:
 2081 0ca8 0028     		cmp	r0, #0
 2082 0caa FAD0     		beq	.L171
 2083              		.loc 1 889 0
 2084 0cac 504C     		ldr	r4, .L783+16
 2085              	.L176:
 2086              		.loc 1 889 0 is_stmt 0 discriminator 1
 2087 0cae 2046     		mov	r0, r4
 2088 0cb0 FFF7FEFF 		bl	e_getchar_uart2
 2089              	.LVL130:
 2090 0cb4 0028     		cmp	r0, #0
 2091 0cb6 FAD0     		beq	.L176
 2092              		.loc 1 890 0 is_stmt 1
 2093 0cb8 4E4C     		ldr	r4, .L783+20
 2094              	.L177:
 2095              		.loc 1 890 0 is_stmt 0 discriminator 1
 2096 0cba 2046     		mov	r0, r4
 2097 0cbc FFF7FEFF 		bl	e_getchar_uart2
 2098              	.LVL131:
 2099 0cc0 0028     		cmp	r0, #0
 2100 0cc2 FAD0     		beq	.L177
 2101 0cc4 E0E7     		b	.L175
 2102              	.L63:
 2103              		.loc 1 808 0 is_stmt 1
 2104 0cc6 0020     		movs	r0, #0
 2105 0cc8 C9F80000 		str	r0, [r9]
 2106              	.L155:
 2107              		.loc 1 809 0 discriminator 3
 2108 0ccc FFF7FEFF 		bl	e_get_ambient_light
 2109              	.LVL132:
ARM GAS  /var/folders/d2/nstgp4h54kz7g1l847x_b8wc0000gn/T//ccB20FE7.s 			page 38


 2110              		.loc 1 810 0 discriminator 3
 2111 0cd0 DBF80020 		ldr	r2, [fp]
 2112              		.loc 1 808 0 discriminator 3
 2113 0cd4 D9F80030 		ldr	r3, [r9]
 2114              		.loc 1 810 0 discriminator 3
 2115 0cd8 B854     		strb	r0, [r7, r2]
 2116              		.loc 1 811 0 discriminator 3
 2117 0cda BC18     		adds	r4, r7, r2
 2118 0cdc 0112     		asrs	r1, r0, #8
 2119              		.loc 1 808 0 discriminator 3
 2120 0cde 581C     		adds	r0, r3, #1
 2121              		.loc 1 811 0 discriminator 3
 2122 0ce0 0232     		adds	r2, r2, #2
 2123              		.loc 1 808 0 discriminator 3
 2124 0ce2 0728     		cmp	r0, #7
 2125              		.loc 1 811 0 discriminator 3
 2126 0ce4 6170     		strb	r1, [r4, #1]
 2127 0ce6 CBF80020 		str	r2, [fp]
 2128              		.loc 1 808 0 discriminator 3
 2129 0cea C9F80000 		str	r0, [r9]
 2130 0cee EDDD     		ble	.L155
 2131 0cf0 07E4     		b	.L47
 2132              	.L55:
 2133              		.loc 1 623 0
 2134 0cf2 FFF7FEFF 		bl	sdio_is_present
 2135              	.LVL133:
 2136 0cf6 0028     		cmp	r0, #0
 2137 0cf8 41F04181 		bne	.L760
 2138              		.loc 1 628 0
 2139 0cfc DBF80030 		ldr	r3, [fp]
 2140 0d00 5A1C     		adds	r2, r3, #1
 2141 0d02 F854     		strb	r0, [r7, r3]
 2142 0d04 CBF80020 		str	r2, [fp]
 2143 0d08 FFF7FBBB 		b	.L47
 2144              	.L54:
 2145              		.loc 1 612 0
 2146 0d0c 002D     		cmp	r5, #0
 2147 0d0e 01F06181 		beq	.L761
 2148              		.loc 1 617 0
 2149 0d12 DBF80020 		ldr	r2, [fp]
 2150              		.loc 1 618 0
 2151 0d16 B818     		adds	r0, r7, r2
 2152              		.loc 1 617 0
 2153 0d18 0021     		movs	r1, #0
 2154              		.loc 1 618 0
 2155 0d1a 941C     		adds	r4, r2, #2
 2156              		.loc 1 617 0
 2157 0d1c B954     		strb	r1, [r7, r2]
 2158              		.loc 1 618 0
 2159 0d1e CBF80040 		str	r4, [fp]
 2160 0d22 4170     		strb	r1, [r0, #1]
 2161 0d24 FFF757BB 		b	.L46
 2162              	.L56:
 2163              		.loc 1 654 0
 2164 0d28 002D     		cmp	r5, #0
 2165 0d2a 01F06081 		beq	.L762
 2166              		.loc 1 659 0
ARM GAS  /var/folders/d2/nstgp4h54kz7g1l847x_b8wc0000gn/T//ccB20FE7.s 			page 39


 2167 0d2e 0022     		movs	r2, #0
 2168              		.loc 1 657 0
 2169 0d30 314B     		ldr	r3, .L783+24
 2170              		.loc 1 659 0
 2171 0d32 0992     		str	r2, [sp, #36]
 2172 0d34 CDE90C22 		strd	r2, r2, [sp, #48]
 2173 0d38 CDE90A22 		strd	r2, r2, [sp, #40]
 2174              		.loc 1 657 0
 2175 0d3c 83ED008A 		vstr.32	s16, [r3]
 2176              		.loc 1 658 0
 2177 0d40 83ED028A 		vstr.32	s16, [r3, #8]
 2178              		.loc 1 659 0
 2179 0d44 83ED018A 		vstr.32	s16, [r3, #4]
 2180 0d48 1046     		mov	r0, r2
 2181 0d4a 1446     		mov	r4, r2
 2182 0d4c 0892     		str	r2, [sp, #32]
 2183 0d4e 9446     		mov	ip, r2
 2184 0d50 9646     		mov	lr, r2
 2185 0d52 9046     		mov	r8, r2
 2186              	.L128:
 2187              	.LVL134:
 2188              		.loc 1 662 0
 2189 0d54 DBF80010 		ldr	r1, [fp]
 2190              		.loc 1 664 0
 2191 0d58 7B18     		adds	r3, r7, r1
 2192              		.loc 1 662 0
 2193 0d5a 07F80180 		strb	r8, [r7, r1]
 2194              	.LVL135:
 2195              		.loc 1 686 0
 2196 0d5e 01F10C08 		add	r8, r1, #12
 2197              		.loc 1 668 0
 2198 0d62 9DF82010 		ldrb	r1, [sp, #32]	@ zero_extendqisi2
 2199 0d66 D970     		strb	r1, [r3, #3]
 2200              		.loc 1 675 0
 2201 0d68 9DF82410 		ldrb	r1, [sp, #36]	@ zero_extendqisi2
 2202 0d6c 9971     		strb	r1, [r3, #6]
 2203              		.loc 1 677 0
 2204 0d6e 9DF82810 		ldrb	r1, [sp, #40]	@ zero_extendqisi2
 2205 0d72 D971     		strb	r1, [r3, #7]
 2206              		.loc 1 680 0
 2207 0d74 9DF82C10 		ldrb	r1, [sp, #44]	@ zero_extendqisi2
 2208 0d78 1972     		strb	r1, [r3, #8]
 2209              		.loc 1 682 0
 2210 0d7a 9DF83010 		ldrb	r1, [sp, #48]	@ zero_extendqisi2
 2211 0d7e 5972     		strb	r1, [r3, #9]
 2212              		.loc 1 684 0
 2213 0d80 9DF83410 		ldrb	r1, [sp, #52]	@ zero_extendqisi2
 2214              		.loc 1 664 0
 2215 0d84 83F801E0 		strb	lr, [r3, #1]
 2216              	.LVL136:
 2217              		.loc 1 666 0
 2218 0d88 83F802C0 		strb	ip, [r3, #2]
 2219              	.LVL137:
 2220              		.loc 1 671 0
 2221 0d8c 1C71     		strb	r4, [r3, #4]
 2222              	.LVL138:
 2223              		.loc 1 673 0
ARM GAS  /var/folders/d2/nstgp4h54kz7g1l847x_b8wc0000gn/T//ccB20FE7.s 			page 40


 2224 0d8e 5871     		strb	r0, [r3, #5]
 2225              	.LVL139:
 2226              		.loc 1 684 0
 2227 0d90 9972     		strb	r1, [r3, #10]
 2228              	.LVL140:
 2229              		.loc 1 686 0
 2230 0d92 DA72     		strb	r2, [r3, #11]
 2231 0d94 CBF80080 		str	r8, [fp]
 2232              		.loc 1 687 0
 2233 0d98 FFF7B3BB 		b	.L47
 2234              	.LVL141:
 2235              	.L59:
 2236              		.loc 1 747 0
 2237 0d9c 002D     		cmp	r5, #0
 2238 0d9e 7FF41AAB 		bne	.L46
 2239              		.loc 1 748 0
 2240 0da2 DBF80030 		ldr	r3, [fp]
 2241 0da6 0333     		adds	r3, r3, #3
 2242 0da8 F818     		adds	r0, r7, r3
 2243 0daa FFF7FEFF 		bl	e_poxxxx_launch_capture
 2244              	.LVL142:
 2245              		.loc 1 750 0
 2246 0dae 1299     		ldr	r1, [sp, #72]
 2247 0db0 DBF80030 		ldr	r3, [fp]
 2248              		.loc 1 754 0
 2249 0db4 0E9A     		ldr	r2, [sp, #56]
 2250              		.loc 1 750 0
 2251 0db6 0868     		ldr	r0, [r1]
 2252              		.loc 1 751 0
 2253 0db8 1099     		ldr	r1, [sp, #64]
 2254              		.loc 1 750 0
 2255 0dba F854     		strb	r0, [r7, r3]
 2256              		.loc 1 754 0
 2257 0dbc 1268     		ldr	r2, [r2]
 2258              		.loc 1 751 0
 2259 0dbe 0968     		ldr	r1, [r1]
 2260              		.loc 1 752 0
 2261 0dc0 D81C     		adds	r0, r3, #3
 2262              		.loc 1 751 0
 2263 0dc2 3B44     		add	r3, r3, r7
 2264              		.loc 1 754 0
 2265 0dc4 0244     		add	r2, r2, r0
 2266              		.loc 1 751 0
 2267 0dc6 5970     		strb	r1, [r3, #1]
 2268              		.loc 1 752 0
 2269 0dc8 1199     		ldr	r1, [sp, #68]
 2270              		.loc 1 754 0
 2271 0dca CBF80020 		str	r2, [fp]
 2272              		.loc 1 753 0
 2273 0dce 82B2     		uxth	r2, r0
 2274              		.loc 1 752 0
 2275 0dd0 0968     		ldr	r1, [r1]
 2276              		.loc 1 753 0
 2277 0dd2 0F92     		str	r2, [sp, #60]
 2278              	.LVL143:
 2279              		.loc 1 749 0
 2280 0dd4 094A     		ldr	r2, .L783+28
ARM GAS  /var/folders/d2/nstgp4h54kz7g1l847x_b8wc0000gn/T//ccB20FE7.s 			page 41


 2281              	.LVL144:
 2282              		.loc 1 752 0
 2283 0dd6 9970     		strb	r1, [r3, #2]
 2284              		.loc 1 749 0
 2285 0dd8 0123     		movs	r3, #1
 2286 0dda 1370     		strb	r3, [r2]
 2287 0ddc FFF792BB 		b	.L122
 2288              	.L784:
 2289              		.align	2
 2290              	.L783:
 2291 0de0 00000000 		.word	SD3
 2292 0de4 00000000 		.word	.LANCHOR7
 2293 0de8 00000000 		.word	.LANCHOR6
 2294 0dec 00000000 		.word	.LANCHOR24
 2295 0df0 00000000 		.word	.LANCHOR25
 2296 0df4 00000000 		.word	.LANCHOR26
 2297 0df8 00000000 		.word	.LANCHOR13
 2298 0dfc 00000000 		.word	.LANCHOR21
 2299              	.LVL145:
 2300              	.L64:
 2301              		.loc 1 816 0
 2302 0e00 002D     		cmp	r5, #0
 2303 0e02 40F0D187 		bne	.L156
 2304              		.loc 1 818 0
 2305 0e06 079B     		ldr	r3, [sp, #28]
 2306              		.loc 1 819 0
 2307 0e08 9B4C     		ldr	r4, .L785
 2308              		.loc 1 818 0
 2309 0e0a 002B     		cmp	r3, #0
 2310 0e0c 30D0     		beq	.L157
 2311              	.L158:
 2312              		.loc 1 819 0 discriminator 1
 2313 0e0e 2046     		mov	r0, r4
 2314 0e10 FFF7FEFF 		bl	e_getchar_uart1
 2315              	.LVL146:
 2316 0e14 0028     		cmp	r0, #0
 2317 0e16 FAD0     		beq	.L158
 2318              		.loc 1 820 0
 2319 0e18 984C     		ldr	r4, .L785+4
 2320              	.L159:
 2321              		.loc 1 820 0 is_stmt 0 discriminator 1
 2322 0e1a 2046     		mov	r0, r4
 2323 0e1c FFF7FEFF 		bl	e_getchar_uart1
 2324              	.LVL147:
 2325 0e20 0028     		cmp	r0, #0
 2326 0e22 FAD0     		beq	.L159
 2327              		.loc 1 825 0 is_stmt 1
 2328 0e24 954B     		ldr	r3, .L785+4
 2329              		.loc 1 829 0
 2330 0e26 944C     		ldr	r4, .L785
 2331              		.loc 1 825 0
 2332 0e28 1A78     		ldrb	r2, [r3]	@ zero_extendqisi2
 2333 0e2a 934B     		ldr	r3, .L785
 2334 0e2c 1B78     		ldrb	r3, [r3]	@ zero_extendqisi2
 2335 0e2e 03EB0223 		add	r3, r3, r2, lsl #8
 2336 0e32 934A     		ldr	r2, .L785+8
 2337 0e34 1360     		str	r3, [r2]
ARM GAS  /var/folders/d2/nstgp4h54kz7g1l847x_b8wc0000gn/T//ccB20FE7.s 			page 42


 2338              	.L163:
 2339              		.loc 1 829 0 discriminator 1
 2340 0e36 2046     		mov	r0, r4
 2341 0e38 FFF7FEFF 		bl	e_getchar_uart1
 2342              	.LVL148:
 2343 0e3c 0028     		cmp	r0, #0
 2344 0e3e FAD0     		beq	.L163
 2345              		.loc 1 830 0
 2346 0e40 8E4C     		ldr	r4, .L785+4
 2347              	.L164:
 2348              		.loc 1 830 0 is_stmt 0 discriminator 1
 2349 0e42 2046     		mov	r0, r4
 2350 0e44 FFF7FEFF 		bl	e_getchar_uart1
 2351              	.LVL149:
 2352 0e48 0028     		cmp	r0, #0
 2353 0e4a FAD0     		beq	.L164
 2354              	.L706:
 2355 0e4c 8B4B     		ldr	r3, .L785+4
 2356 0e4e 8C49     		ldr	r1, .L785+8
 2357 0e50 1A78     		ldrb	r2, [r3]	@ zero_extendqisi2
 2358 0e52 894B     		ldr	r3, .L785
 2359 0e54 0868     		ldr	r0, [r1]
 2360 0e56 1B78     		ldrb	r3, [r3]	@ zero_extendqisi2
 2361 0e58 03EB0223 		add	r3, r3, r2, lsl #8
 2362              	.L168:
 2363              		.loc 1 835 0 is_stmt 1
 2364 0e5c 894A     		ldr	r2, .L785+12
 2365 0e5e 1446     		mov	r4, r2
 2366 0e60 1360     		str	r3, [r2]
 2367              		.loc 1 836 0
 2368 0e62 FFF7FEFF 		bl	e_set_steps_left
 2369              	.LVL150:
 2370              		.loc 1 837 0
 2371 0e66 2068     		ldr	r0, [r4]
 2372 0e68 FFF7FEFF 		bl	e_set_steps_right
 2373              	.LVL151:
 2374              		.loc 1 838 0
 2375 0e6c FFF749BB 		b	.L47
 2376              	.L157:
 2377              		.loc 1 822 0 discriminator 1
 2378 0e70 2046     		mov	r0, r4
 2379 0e72 FFF7FEFF 		bl	e_getchar_uart2
 2380              	.LVL152:
 2381 0e76 0028     		cmp	r0, #0
 2382 0e78 FAD0     		beq	.L157
 2383              		.loc 1 823 0
 2384 0e7a 804C     		ldr	r4, .L785+4
 2385              	.L161:
 2386              		.loc 1 823 0 is_stmt 0 discriminator 1
 2387 0e7c 2046     		mov	r0, r4
 2388 0e7e FFF7FEFF 		bl	e_getchar_uart2
 2389              	.LVL153:
 2390 0e82 0028     		cmp	r0, #0
 2391 0e84 FAD0     		beq	.L161
 2392              		.loc 1 825 0 is_stmt 1
 2393 0e86 7D4B     		ldr	r3, .L785+4
 2394              		.loc 1 832 0
ARM GAS  /var/folders/d2/nstgp4h54kz7g1l847x_b8wc0000gn/T//ccB20FE7.s 			page 43


 2395 0e88 7B4C     		ldr	r4, .L785
 2396              		.loc 1 825 0
 2397 0e8a 1A78     		ldrb	r2, [r3]	@ zero_extendqisi2
 2398 0e8c 7A4B     		ldr	r3, .L785
 2399 0e8e 1B78     		ldrb	r3, [r3]	@ zero_extendqisi2
 2400 0e90 03EB0223 		add	r3, r3, r2, lsl #8
 2401 0e94 7A4A     		ldr	r2, .L785+8
 2402 0e96 1360     		str	r3, [r2]
 2403              	.L166:
 2404              		.loc 1 832 0 discriminator 1
 2405 0e98 2046     		mov	r0, r4
 2406 0e9a FFF7FEFF 		bl	e_getchar_uart2
 2407              	.LVL154:
 2408 0e9e 0028     		cmp	r0, #0
 2409 0ea0 FAD0     		beq	.L166
 2410              		.loc 1 833 0
 2411 0ea2 764C     		ldr	r4, .L785+4
 2412              	.L167:
 2413              		.loc 1 833 0 is_stmt 0 discriminator 1
 2414 0ea4 2046     		mov	r0, r4
 2415 0ea6 FFF7FEFF 		bl	e_getchar_uart2
 2416              	.LVL155:
 2417 0eaa 0028     		cmp	r0, #0
 2418 0eac FAD0     		beq	.L167
 2419 0eae CDE7     		b	.L706
 2420              	.L60:
 2421              		.loc 1 758 0 is_stmt 1
 2422 0eb0 6DB9     		cbnz	r5, .L143
 2423              		.loc 1 760 0
 2424 0eb2 079B     		ldr	r3, [sp, #28]
 2425              		.loc 1 761 0
 2426 0eb4 704C     		ldr	r4, .L785
 2427              		.loc 1 760 0
 2428 0eb6 C3B1     		cbz	r3, .L144
 2429              	.L145:
 2430              		.loc 1 761 0 discriminator 1
 2431 0eb8 2046     		mov	r0, r4
 2432 0eba FFF7FEFF 		bl	e_getchar_uart1
 2433              	.LVL156:
 2434 0ebe 0028     		cmp	r0, #0
 2435 0ec0 FAD0     		beq	.L145
 2436              		.loc 1 762 0
 2437 0ec2 6E4C     		ldr	r4, .L785+4
 2438              	.L146:
 2439              		.loc 1 762 0 is_stmt 0 discriminator 1
 2440 0ec4 2046     		mov	r0, r4
 2441 0ec6 FFF7FEFF 		bl	e_getchar_uart1
 2442              	.LVL157:
 2443 0eca 0028     		cmp	r0, #0
 2444 0ecc FAD0     		beq	.L146
 2445              	.L143:
 2446              		.loc 1 767 0 is_stmt 1
 2447 0ece 6A4B     		ldr	r3, .L785
 2448 0ed0 6A4A     		ldr	r2, .L785+4
 2449 0ed2 1B78     		ldrb	r3, [r3]	@ zero_extendqisi2
 2450 0ed4 1078     		ldrb	r0, [r2]	@ zero_extendqisi2
 2451 0ed6 082B     		cmp	r3, #8
ARM GAS  /var/folders/d2/nstgp4h54kz7g1l847x_b8wc0000gn/T//ccB20FE7.s 			page 44


 2452 0ed8 00F09387 		beq	.L149
 2453 0edc 092B     		cmp	r3, #9
 2454 0ede 40F08A87 		bne	.L763
 2455              		.loc 1 772 0
 2456 0ee2 FFF7FEFF 		bl	e_set_front_led
 2457              	.LVL158:
 2458              		.loc 1 773 0
 2459 0ee6 FFF70CBB 		b	.L47
 2460              	.L144:
 2461              		.loc 1 764 0 discriminator 1
 2462 0eea 2046     		mov	r0, r4
 2463 0eec FFF7FEFF 		bl	e_getchar_uart2
 2464              	.LVL159:
 2465 0ef0 0028     		cmp	r0, #0
 2466 0ef2 FAD0     		beq	.L144
 2467              		.loc 1 765 0
 2468 0ef4 614C     		ldr	r4, .L785+4
 2469              	.L147:
 2470              		.loc 1 765 0 is_stmt 0 discriminator 1
 2471 0ef6 2046     		mov	r0, r4
 2472 0ef8 FFF7FEFF 		bl	e_getchar_uart2
 2473              	.LVL160:
 2474 0efc 0028     		cmp	r0, #0
 2475 0efe FAD0     		beq	.L147
 2476 0f00 E5E7     		b	.L143
 2477              	.L62:
 2478              		.loc 1 801 0 is_stmt 1
 2479 0f02 0020     		movs	r0, #0
 2480 0f04 C9F80000 		str	r0, [r9]
 2481              	.L153:
 2482              		.loc 1 802 0 discriminator 3
 2483 0f08 FFF7FEFF 		bl	e_get_calibrated_prox
 2484              	.LVL161:
 2485              		.loc 1 803 0 discriminator 3
 2486 0f0c DBF80020 		ldr	r2, [fp]
 2487              		.loc 1 801 0 discriminator 3
 2488 0f10 D9F80030 		ldr	r3, [r9]
 2489              		.loc 1 803 0 discriminator 3
 2490 0f14 B854     		strb	r0, [r7, r2]
 2491              		.loc 1 804 0 discriminator 3
 2492 0f16 BC18     		adds	r4, r7, r2
 2493 0f18 0112     		asrs	r1, r0, #8
 2494              		.loc 1 801 0 discriminator 3
 2495 0f1a 581C     		adds	r0, r3, #1
 2496              		.loc 1 804 0 discriminator 3
 2497 0f1c 0232     		adds	r2, r2, #2
 2498              		.loc 1 801 0 discriminator 3
 2499 0f1e 0728     		cmp	r0, #7
 2500              		.loc 1 804 0 discriminator 3
 2501 0f20 6170     		strb	r1, [r4, #1]
 2502 0f22 CBF80020 		str	r2, [fp]
 2503              		.loc 1 801 0 discriminator 3
 2504 0f26 C9F80000 		str	r0, [r9]
 2505 0f2a EDDD     		ble	.L153
 2506 0f2c FFF7E9BA 		b	.L47
 2507              	.L58:
 2508              		.loc 1 721 0
ARM GAS  /var/folders/d2/nstgp4h54kz7g1l847x_b8wc0000gn/T//ccB20FE7.s 			page 45


 2509 0f30 554A     		ldr	r2, .L785+16
 2510 0f32 DBF80030 		ldr	r3, [fp]
 2511              		.loc 1 723 0
 2512 0f36 5549     		ldr	r1, .L785+20
 2513              		.loc 1 721 0
 2514 0f38 1268     		ldr	r2, [r2]
 2515              		.loc 1 723 0
 2516 0f3a 0868     		ldr	r0, [r1]
 2517              		.loc 1 721 0
 2518 0f3c FA54     		strb	r2, [r7, r3]
 2519              		.loc 1 722 0
 2520 0f3e F918     		adds	r1, r7, r3
 2521 0f40 1212     		asrs	r2, r2, #8
 2522              		.loc 1 724 0
 2523 0f42 0433     		adds	r3, r3, #4
 2524              		.loc 1 722 0
 2525 0f44 4A70     		strb	r2, [r1, #1]
 2526              		.loc 1 724 0
 2527 0f46 0212     		asrs	r2, r0, #8
 2528 0f48 CBF80030 		str	r3, [fp]
 2529              		.loc 1 723 0
 2530 0f4c 8870     		strb	r0, [r1, #2]
 2531              		.loc 1 724 0
 2532 0f4e CA70     		strb	r2, [r1, #3]
 2533              		.loc 1 725 0
 2534 0f50 FFF7D7BA 		b	.L47
 2535              	.L72:
 2536              		.loc 1 898 0
 2537 0f54 002D     		cmp	r5, #0
 2538 0f56 7FF43EAA 		bne	.L46
 2539              		.loc 1 899 0
 2540 0f5a FFF7FEFF 		bl	e_i2cp_enable
 2541              	.LVL162:
 2542              		.loc 1 900 0
 2543 0f5e C9F80050 		str	r5, [r9]
 2544 0f62 2846     		mov	r0, r5
 2545 0f64 01E0     		b	.L179
 2546              	.L764:
 2547 0f66 D9F80000 		ldr	r0, [r9]
 2548              	.L179:
 2549              		.loc 1 901 0 discriminator 1
 2550 0f6a 3844     		add	r0, r0, r7
 2551 0f6c FFF7FEFF 		bl	e_getchar_uart1
 2552              	.LVL163:
 2553 0f70 0028     		cmp	r0, #0
 2554 0f72 F8D0     		beq	.L764
 2555              		.loc 1 900 0 discriminator 2
 2556 0f74 D9F80000 		ldr	r0, [r9]
 2557 0f78 0130     		adds	r0, r0, #1
 2558 0f7a 1728     		cmp	r0, #23
 2559 0f7c C9F80000 		str	r0, [r9]
 2560 0f80 F3DD     		ble	.L179
 2561              		.loc 1 903 0
 2562 0f82 9220     		movs	r0, #146
 2563 0f84 C9F80000 		str	r0, [r9]
 2564 0f88 01E0     		b	.L182
 2565              	.L765:
ARM GAS  /var/folders/d2/nstgp4h54kz7g1l847x_b8wc0000gn/T//ccB20FE7.s 			page 46


 2566 0f8a D9F80000 		ldr	r0, [r9]
 2567              	.L182:
 2568              		.loc 1 904 0 discriminator 1
 2569 0f8e 7A38     		subs	r0, r0, #122
 2570 0f90 3844     		add	r0, r0, r7
 2571 0f92 FFF7FEFF 		bl	e_getchar_uart1
 2572              	.LVL164:
 2573 0f96 0028     		cmp	r0, #0
 2574 0f98 F7D0     		beq	.L765
 2575              		.loc 1 903 0 discriminator 2
 2576 0f9a D9F80000 		ldr	r0, [r9]
 2577 0f9e 0130     		adds	r0, r0, #1
 2578 0fa0 9428     		cmp	r0, #148
 2579 0fa2 C9F80000 		str	r0, [r9]
 2580 0fa6 F2DD     		ble	.L182
 2581              		.loc 1 906 0
 2582 0fa8 A420     		movs	r0, #164
 2583 0faa C9F80000 		str	r0, [r9]
 2584 0fae 01E0     		b	.L185
 2585              	.L766:
 2586 0fb0 D9F80000 		ldr	r0, [r9]
 2587              	.L185:
 2588              		.loc 1 907 0 discriminator 1
 2589 0fb4 8938     		subs	r0, r0, #137
 2590 0fb6 3844     		add	r0, r0, r7
 2591 0fb8 FFF7FEFF 		bl	e_getchar_uart1
 2592              	.LVL165:
 2593 0fbc 0028     		cmp	r0, #0
 2594 0fbe F7D0     		beq	.L766
 2595              		.loc 1 906 0 discriminator 2
 2596 0fc0 D9F80000 		ldr	r0, [r9]
 2597 0fc4 0130     		adds	r0, r0, #1
 2598 0fc6 AB28     		cmp	r0, #171
 2599 0fc8 C9F80000 		str	r0, [r9]
 2600 0fcc F2DD     		ble	.L185
 2601              		.loc 1 909 0
 2602 0fce 0021     		movs	r1, #0
 2603 0fd0 C9F80010 		str	r1, [r9]
 2604              	.L187:
 2605              		.loc 1 910 0 discriminator 3
 2606 0fd4 7A5C     		ldrb	r2, [r7, r1]	@ zero_extendqisi2
 2607 0fd6 B020     		movs	r0, #176
 2608 0fd8 C9B2     		uxtb	r1, r1
 2609 0fda FFF7FEFF 		bl	e_i2cp_write
 2610              	.LVL166:
 2611              		.loc 1 909 0 discriminator 3
 2612 0fde D9F80010 		ldr	r1, [r9]
 2613 0fe2 0131     		adds	r1, r1, #1
 2614 0fe4 1729     		cmp	r1, #23
 2615 0fe6 C9F80010 		str	r1, [r9]
 2616 0fea F3DD     		ble	.L187
 2617              		.loc 1 912 0
 2618 0fec 9221     		movs	r1, #146
 2619 0fee C9F80010 		str	r1, [r9]
 2620              	.L188:
 2621              		.loc 1 913 0 discriminator 3
 2622 0ff2 7B18     		adds	r3, r7, r1
ARM GAS  /var/folders/d2/nstgp4h54kz7g1l847x_b8wc0000gn/T//ccB20FE7.s 			page 47


 2623 0ff4 B020     		movs	r0, #176
 2624 0ff6 C9B2     		uxtb	r1, r1
 2625 0ff8 13F87A2C 		ldrb	r2, [r3, #-122]	@ zero_extendqisi2
 2626 0ffc FFF7FEFF 		bl	e_i2cp_write
 2627              	.LVL167:
 2628              		.loc 1 912 0 discriminator 3
 2629 1000 D9F80010 		ldr	r1, [r9]
 2630 1004 0131     		adds	r1, r1, #1
 2631 1006 9429     		cmp	r1, #148
 2632 1008 C9F80010 		str	r1, [r9]
 2633 100c F1DD     		ble	.L188
 2634              		.loc 1 915 0
 2635 100e A421     		movs	r1, #164
 2636 1010 C9F80010 		str	r1, [r9]
 2637              	.L189:
 2638              		.loc 1 916 0 discriminator 3
 2639 1014 7B18     		adds	r3, r7, r1
 2640 1016 B020     		movs	r0, #176
 2641 1018 C9B2     		uxtb	r1, r1
 2642 101a 13F8892C 		ldrb	r2, [r3, #-137]	@ zero_extendqisi2
 2643 101e FFF7FEFF 		bl	e_i2cp_write
 2644              	.LVL168:
 2645              		.loc 1 915 0 discriminator 3
 2646 1022 D9F80010 		ldr	r1, [r9]
 2647 1026 0131     		adds	r1, r1, #1
 2648 1028 AB29     		cmp	r1, #171
 2649 102a C9F80010 		str	r1, [r9]
 2650 102e F1DD     		ble	.L189
 2651              		.loc 1 918 0
 2652 1030 0122     		movs	r2, #1
 2653 1032 9121     		movs	r1, #145
 2654 1034 B020     		movs	r0, #176
 2655 1036 FFF7FEFF 		bl	e_i2cp_write
 2656              	.LVL169:
 2657              		.loc 1 919 0
 2658 103a FFF7FEFF 		bl	e_i2cp_disable
 2659              	.LVL170:
 2660 103e FFF761BA 		b	.L122
 2661              	.L707:
 2662              		.loc 1 933 0
 2663 1042 DBF80010 		ldr	r1, [fp]
 2664 1046 A846     		mov	r8, r5
 2665 1048 0029     		cmp	r1, #0
 2666 104a 3FF423A8 		beq	.L5
 2667              		.loc 1 934 0
 2668 104e 002D     		cmp	r5, #0
 2669 1050 7FF420A8 		bne	.L5
 2670              		.loc 1 935 0
 2671 1054 0E4B     		ldr	r3, .L785+24
 2672 1056 1B78     		ldrb	r3, [r3]	@ zero_extendqisi2
 2673 1058 002B     		cmp	r3, #0
 2674 105a 41F01780 		bne	.L767
 2675              	.L193:
 2676              		.loc 1 944 0
 2677 105e 079B     		ldr	r3, [sp, #28]
 2678 1060 002B     		cmp	r3, #0
 2679 1062 00F0B786 		beq	.L768
ARM GAS  /var/folders/d2/nstgp4h54kz7g1l847x_b8wc0000gn/T//ccB20FE7.s 			page 48


 2680              		.loc 1 945 0
 2681 1066 0B48     		ldr	r0, .L785+28
 2682 1068 FFF7FEFF 		bl	e_send_uart1_char
 2683              	.LVL171:
 2684              	.L194:
 2685              		.loc 1 946 0 discriminator 1
 2686 106c FFF7FEFF 		bl	e_uart1_sending
 2687              	.LVL172:
 2688 1070 0028     		cmp	r0, #0
 2689 1072 FBD1     		bne	.L194
 2690 1074 FFF711B8 		b	.L708
 2691              	.L786:
 2692              		.align	2
 2693              	.L785:
 2694 1078 00000000 		.word	.LANCHOR19
 2695 107c 00000000 		.word	.LANCHOR20
 2696 1080 00000000 		.word	.LANCHOR22
 2697 1084 00000000 		.word	.LANCHOR23
 2698 1088 00000000 		.word	.LANCHOR7
 2699 108c 00000000 		.word	.LANCHOR6
 2700 1090 00000000 		.word	.LANCHOR21
 2701 1094 00000000 		.word	buffer
 2702              	.L739:
 2703              	.LVL173:
 2704              	.LBB3:
 2705              		.loc 1 975 0
 2706 1098 FFF7FEFF 		bl	__locale_ctype_ptr
 2707              	.LVL174:
 2708 109c 2044     		add	r0, r0, r4
 2709 109e 4378     		ldrb	r3, [r0, #1]	@ zero_extendqisi2
 2710 10a0 03F00303 		and	r3, r3, #3
 2711 10a4 022B     		cmp	r3, #2
 2712 10a6 08BF     		it	eq
 2713 10a8 203C     		subeq	r4, r4, #32
 2714              	.LVL175:
 2715              	.LBE3:
 2716 10aa E4B2     		uxtb	r4, r4
 2717              		.loc 1 977 0
 2718 10ac A4F14103 		sub	r3, r4, #65
 2719              		.loc 1 975 0
 2720 10b0 3C70     		strb	r4, [r7]
 2721              		.loc 1 977 0
 2722 10b2 332B     		cmp	r3, #51
 2723 10b4 00F24086 		bhi	.L216
 2724 10b8 01A2     		adr	r2, .L218
 2725 10ba 52F823F0 		ldr	pc, [r2, r3, lsl #2]
 2726 10be 00BF     		.p2align 2
 2727              	.L218:
 2728 10c0 79150000 		.word	.L217+1
 2729 10c4 E5130000 		.word	.L219+1
 2730 10c8 0D190000 		.word	.L220+1
 2731 10cc 93180000 		.word	.L221+1
 2732 10d0 D3180000 		.word	.L222+1
 2733 10d4 BD140000 		.word	.L223+1
 2734 10d8 4B180000 		.word	.L224+1
 2735 10dc 79160000 		.word	.L225+1
 2736 10e0 411A0000 		.word	.L226+1
ARM GAS  /var/folders/d2/nstgp4h54kz7g1l847x_b8wc0000gn/T//ccB20FE7.s 			page 49


 2737 10e4 D5120000 		.word	.L227+1
 2738 10e8 B31B0000 		.word	.L228+1
 2739 10ec D31A0000 		.word	.L229+1
 2740 10f0 0F1B0000 		.word	.L230+1
 2741 10f4 F3140000 		.word	.L231+1
 2742 10f8 051C0000 		.word	.L232+1
 2743 10fc 011A0000 		.word	.L233+1
 2744 1100 731B0000 		.word	.L234+1
 2745 1104 95000000 		.word	.L5+1
 2746 1108 AD130000 		.word	.L235+1
 2747 110c 1B160000 		.word	.L236+1
 2748 1110 CD150000 		.word	.L237+1
 2749 1114 8D1A0000 		.word	.L238+1
 2750 1118 1B140000 		.word	.L239+1
 2751 111c 391D0000 		.word	.L216+1
 2752 1120 37120000 		.word	.L240+1
 2753 1124 C9110000 		.word	.L241+1
 2754 1128 391D0000 		.word	.L216+1
 2755 112c 391D0000 		.word	.L216+1
 2756 1130 391D0000 		.word	.L216+1
 2757 1134 391D0000 		.word	.L216+1
 2758 1138 391D0000 		.word	.L216+1
 2759 113c 391D0000 		.word	.L216+1
 2760 1140 391D0000 		.word	.L216+1
 2761 1144 75260000 		.word	.L242+1
 2762 1148 391D0000 		.word	.L216+1
 2763 114c 391D0000 		.word	.L216+1
 2764 1150 391D0000 		.word	.L216+1
 2765 1154 391D0000 		.word	.L216+1
 2766 1158 69010000 		.word	.L214+1
 2767 115c 391D0000 		.word	.L216+1
 2768 1160 391D0000 		.word	.L216+1
 2769 1164 391D0000 		.word	.L216+1
 2770 1168 391D0000 		.word	.L216+1
 2771 116c 391D0000 		.word	.L216+1
 2772 1170 391D0000 		.word	.L216+1
 2773 1174 391D0000 		.word	.L216+1
 2774 1178 391D0000 		.word	.L216+1
 2775 117c 391D0000 		.word	.L216+1
 2776 1180 391D0000 		.word	.L216+1
 2777 1184 391D0000 		.word	.L216+1
 2778 1188 391D0000 		.word	.L216+1
 2779 118c 91110000 		.word	.L243+1
 2780              		.p2align 1
 2781              	.L243:
 2782              	.LBB4:
 2783              		.loc 1 1409 0
 2784 1190 B8F1000F 		cmp	r8, #0
 2785 1194 40F0E887 		bne	.L392
 2786              		.loc 1 1410 0
 2787 1198 FFF7FEFF 		bl	getTemperature
 2788              	.LVL176:
 2789 119c B249     		ldr	r1, .L787
 2790 119e 0246     		mov	r2, r0
 2791 11a0 B248     		ldr	r0, .L787+4
 2792 11a2 FFF7FEFF 		bl	sprintf
 2793              	.LVL177:
ARM GAS  /var/folders/d2/nstgp4h54kz7g1l847x_b8wc0000gn/T//ccB20FE7.s 			page 50


 2794              		.loc 1 1416 0
 2795 11a6 079B     		ldr	r3, [sp, #28]
 2796 11a8 002B     		cmp	r3, #0
 2797 11aa 01F0BF80 		beq	.L769
 2798              		.loc 1 1417 0
 2799 11ae AF48     		ldr	r0, .L787+4
 2800 11b0 FFF7FEFF 		bl	strlen
 2801              	.LVL178:
 2802 11b4 0146     		mov	r1, r0
 2803 11b6 AD48     		ldr	r0, .L787+4
 2804 11b8 FFF7FEFF 		bl	e_send_uart1_char
 2805              	.LVL179:
 2806              	.L395:
 2807              		.loc 1 1417 0 is_stmt 0 discriminator 2
 2808 11bc FFF7FEFF 		bl	e_uart1_sending
 2809              	.LVL180:
 2810 11c0 0028     		cmp	r0, #0
 2811 11c2 FBD1     		bne	.L395
 2812 11c4 FEF769BF 		b	.L708
 2813              	.L241:
 2814              		.loc 1 1485 0 is_stmt 1
 2815 11c8 B8F1000F 		cmp	r8, #0
 2816 11cc 7EF462AF 		bne	.L5
 2817              		.loc 1 1486 0
 2818 11d0 0223     		movs	r3, #2
 2819              		.loc 1 1491 0
 2820 11d2 A74D     		ldr	r5, .L787+8
 2821 11d4 A54C     		ldr	r4, .L787+4
 2822              		.loc 1 1486 0
 2823 11d6 C9F80030 		str	r3, [r9]
 2824 11da 079E     		ldr	r6, [sp, #28]
 2825 11dc 07E0     		b	.L423
 2826              	.L419:
 2827 11de D9F80030 		ldr	r3, [r9]
 2828 11e2 0233     		adds	r3, r3, #2
 2829 11e4 FE2B     		cmp	r3, #254
 2830 11e6 C9F80030 		str	r3, [r9]
 2831 11ea 3EF756AF 		bgt	.L708
 2832              	.L423:
 2833              		.loc 1 1487 0
 2834 11ee FFF7FEFF 		bl	e_i2cp_enable
 2835              	.LVL181:
 2836              		.loc 1 1488 0
 2837 11f2 0021     		movs	r1, #0
 2838 11f4 99F80000 		ldrb	r0, [r9]	@ zero_extendqisi2
 2839 11f8 FFF7FEFF 		bl	e_i2cp_read
 2840              	.LVL182:
 2841 11fc 9D4B     		ldr	r3, .L787+12
 2842 11fe 1860     		str	r0, [r3]
 2843              		.loc 1 1489 0
 2844 1200 FFF7FEFF 		bl	e_i2cp_disable
 2845              	.LVL183:
 2846              		.loc 1 1490 0
 2847 1204 9B4B     		ldr	r3, .L787+12
 2848 1206 1B68     		ldr	r3, [r3]
 2849 1208 002B     		cmp	r3, #0
 2850 120a E8DB     		blt	.L419
ARM GAS  /var/folders/d2/nstgp4h54kz7g1l847x_b8wc0000gn/T//ccB20FE7.s 			page 51


 2851              		.loc 1 1491 0
 2852 120c D9F80020 		ldr	r2, [r9]
 2853 1210 2946     		mov	r1, r5
 2854 1212 2046     		mov	r0, r4
 2855 1214 FFF7FEFF 		bl	sprintf
 2856              	.LVL184:
 2857              		.loc 1 1493 0
 2858 1218 2046     		mov	r0, r4
 2859              		.loc 1 1492 0
 2860 121a 002E     		cmp	r6, #0
 2861 121c 00F0C687 		beq	.L420
 2862              		.loc 1 1493 0
 2863 1220 FFF7FEFF 		bl	strlen
 2864              	.LVL185:
 2865 1224 0146     		mov	r1, r0
 2866 1226 2046     		mov	r0, r4
 2867 1228 FFF7FEFF 		bl	e_send_uart1_char
 2868              	.LVL186:
 2869              	.L421:
 2870              		.loc 1 1493 0 is_stmt 0 discriminator 2
 2871 122c FFF7FEFF 		bl	e_uart1_sending
 2872              	.LVL187:
 2873 1230 0028     		cmp	r0, #0
 2874 1232 FBD1     		bne	.L421
 2875 1234 D3E7     		b	.L419
 2876              	.L240:
 2877              		.loc 1 1464 0 is_stmt 1
 2878 1236 B8F1000F 		cmp	r8, #0
 2879 123a 7EF42BAF 		bne	.L5
 2880              		.loc 1 1465 0
 2881 123e 8E4B     		ldr	r3, .L787+16
 2882 1240 8E4A     		ldr	r2, .L787+20
 2883 1242 8F49     		ldr	r1, .L787+24
 2884 1244 8948     		ldr	r0, .L787+4
 2885 1246 FFF7FEFF 		bl	sscanf
 2886              	.LVL188:
 2887              		.loc 1 1466 0
 2888 124a 8B4B     		ldr	r3, .L787+16
 2889 124c 8B4A     		ldr	r2, .L787+20
 2890 124e 1B68     		ldr	r3, [r3]
 2891 1250 1268     		ldr	r2, [r2]
 2892 1252 8C49     		ldr	r1, .L787+28
 2893 1254 8548     		ldr	r0, .L787+4
 2894 1256 FFF7FEFF 		bl	sprintf
 2895              	.LVL189:
 2896              		.loc 1 1467 0
 2897 125a 079B     		ldr	r3, [sp, #28]
 2898              		.loc 1 1468 0
 2899 125c 8348     		ldr	r0, .L787+4
 2900              		.loc 1 1467 0
 2901 125e 002B     		cmp	r3, #0
 2902 1260 01F0D781 		beq	.L411
 2903              		.loc 1 1468 0
 2904 1264 FFF7FEFF 		bl	strlen
 2905              	.LVL190:
 2906 1268 0146     		mov	r1, r0
 2907 126a 8048     		ldr	r0, .L787+4
ARM GAS  /var/folders/d2/nstgp4h54kz7g1l847x_b8wc0000gn/T//ccB20FE7.s 			page 52


 2908 126c FFF7FEFF 		bl	e_send_uart1_char
 2909              	.LVL191:
 2910              	.L412:
 2911              		.loc 1 1468 0 is_stmt 0 discriminator 2
 2912 1270 FFF7FEFF 		bl	e_uart1_sending
 2913              	.LVL192:
 2914 1274 0028     		cmp	r0, #0
 2915 1276 FBD1     		bne	.L412
 2916              	.L413:
 2917              		.loc 1 1472 0 is_stmt 1
 2918 1278 FFF7FEFF 		bl	e_i2cp_enable
 2919              	.LVL193:
 2920              		.loc 1 1473 0
 2921 127c 7E4B     		ldr	r3, .L787+16
 2922 127e 1978     		ldrb	r1, [r3]	@ zero_extendqisi2
 2923 1280 7E4B     		ldr	r3, .L787+20
 2924 1282 1878     		ldrb	r0, [r3]	@ zero_extendqisi2
 2925 1284 FFF7FEFF 		bl	e_i2cp_read
 2926              	.LVL194:
 2927 1288 7A4B     		ldr	r3, .L787+12
 2928 128a 1C46     		mov	r4, r3
 2929 128c 1860     		str	r0, [r3]
 2930              		.loc 1 1474 0
 2931 128e FFF7FEFF 		bl	e_i2cp_disable
 2932              	.LVL195:
 2933              		.loc 1 1475 0
 2934 1292 7D49     		ldr	r1, .L787+32
 2935 1294 2268     		ldr	r2, [r4]
 2936 1296 7548     		ldr	r0, .L787+4
 2937 1298 FFF7FEFF 		bl	sprintf
 2938              	.LVL196:
 2939              		.loc 1 1476 0
 2940 129c 7348     		ldr	r0, .L787+4
 2941 129e FFF7FEFF 		bl	strlen
 2942              	.LVL197:
 2943 12a2 0146     		mov	r1, r0
 2944 12a4 7148     		ldr	r0, .L787+4
 2945 12a6 FFF7FEFF 		bl	e_send_uart1_char
 2946              	.LVL198:
 2947              	.L415:
 2948              		.loc 1 1476 0 is_stmt 0 discriminator 2
 2949 12aa FFF7FEFF 		bl	e_uart1_sending
 2950              	.LVL199:
 2951 12ae 0028     		cmp	r0, #0
 2952 12b0 FBD1     		bne	.L415
 2953 12b2 6E48     		ldr	r0, .L787+4
 2954 12b4 FFF7FEFF 		bl	strlen
 2955              	.LVL200:
 2956              		.loc 1 1477 0 is_stmt 1
 2957 12b8 079B     		ldr	r3, [sp, #28]
 2958 12ba 0146     		mov	r1, r0
 2959              		.loc 1 1478 0
 2960 12bc 6B48     		ldr	r0, .L787+4
 2961              		.loc 1 1477 0
 2962 12be 002B     		cmp	r3, #0
 2963 12c0 01F0B381 		beq	.L416
 2964              		.loc 1 1478 0
ARM GAS  /var/folders/d2/nstgp4h54kz7g1l847x_b8wc0000gn/T//ccB20FE7.s 			page 53


 2965 12c4 FFF7FEFF 		bl	e_send_uart1_char
 2966              	.LVL201:
 2967              	.L417:
 2968              		.loc 1 1478 0 is_stmt 0 discriminator 2
 2969 12c8 FFF7FEFF 		bl	e_uart1_sending
 2970              	.LVL202:
 2971 12cc 0028     		cmp	r0, #0
 2972 12ce FBD1     		bne	.L417
 2973 12d0 FEF7E3BE 		b	.L708
 2974              	.L227:
 2975              		.loc 1 1214 0 is_stmt 1
 2976 12d4 B8F1000F 		cmp	r8, #0
 2977 12d8 7EF4DCAE 		bne	.L5
 2978              		.loc 1 1217 0
 2979 12dc 139B     		ldr	r3, [sp, #76]
 2980 12de 6B4D     		ldr	r5, .L787+36
 2981 12e0 6B4E     		ldr	r6, .L787+40
 2982 12e2 0193     		str	r3, [sp, #4]
 2983              		.loc 1 1215 0
 2984 12e4 4FF0FF34 		mov	r4, #-1
 2985              		.loc 1 1217 0
 2986 12e8 119B     		ldr	r3, [sp, #68]
 2987 12ea 0093     		str	r3, [sp]
 2988 12ec 0395     		str	r5, [sp, #12]
 2989 12ee 0296     		str	r6, [sp, #8]
 2990 12f0 684B     		ldr	r3, .L787+44
 2991 12f2 694A     		ldr	r2, .L787+48
 2992 12f4 6949     		ldr	r1, .L787+52
 2993 12f6 5D48     		ldr	r0, .L787+4
 2994              		.loc 1 1215 0
 2995 12f8 3460     		str	r4, [r6]
 2996              		.loc 1 1216 0
 2997 12fa 2C60     		str	r4, [r5]
 2998              		.loc 1 1217 0
 2999 12fc FFF7FEFF 		bl	sscanf
 3000              	.LVL203:
 3001              		.loc 1 1218 0
 3002 1300 129A     		ldr	r2, [sp, #72]
 3003 1302 1368     		ldr	r3, [r2]
 3004 1304 002B     		cmp	r3, #0
 3005 1306 41F06681 		bne	.L342
 3006              		.loc 1 1219 0
 3007 130a 109A     		ldr	r2, [sp, #64]
 3008 130c 119B     		ldr	r3, [sp, #68]
 3009 130e 1268     		ldr	r2, [r2]
 3010 1310 1B68     		ldr	r3, [r3]
 3011 1312 03FB02F3 		mul	r3, r3, r2
 3012 1316 0E9A     		ldr	r2, [sp, #56]
 3013 1318 1360     		str	r3, [r2]
 3014              	.L343:
 3015              		.loc 1 1222 0
 3016 131a 41F22802 		movw	r2, #4136
 3017 131e 9342     		cmp	r3, r2
 3018 1320 0BDD     		ble	.L344
 3019              		.loc 1 1223 0
 3020 1322 1299     		ldr	r1, [sp, #72]
 3021 1324 0122     		movs	r2, #1
ARM GAS  /var/folders/d2/nstgp4h54kz7g1l847x_b8wc0000gn/T//ccB20FE7.s 			page 54


 3022 1326 0A60     		str	r2, [r1]
 3023              		.loc 1 1224 0
 3024 1328 1099     		ldr	r1, [sp, #64]
 3025 132a 2823     		movs	r3, #40
 3026 132c 0B60     		str	r3, [r1]
 3027              		.loc 1 1225 0
 3028 132e 1199     		ldr	r1, [sp, #68]
 3029 1330 0B60     		str	r3, [r1]
 3030              		.loc 1 1226 0
 3031 1332 0E9B     		ldr	r3, [sp, #56]
 3032 1334 4FF44862 		mov	r2, #3200
 3033 1338 1A60     		str	r2, [r3]
 3034              	.L344:
 3035              		.loc 1 1228 0
 3036 133a FFF7FEFF 		bl	e_poxxxx_init_cam
 3037              	.LVL204:
 3038              		.loc 1 1229 0
 3039 133e 544B     		ldr	r3, .L787+40
 3040 1340 1868     		ldr	r0, [r3]
 3041              		.loc 1 1230 0
 3042 1342 139B     		ldr	r3, [sp, #76]
 3043 1344 1D68     		ldr	r5, [r3]
 3044 1346 109B     		ldr	r3, [sp, #64]
 3045 1348 1A68     		ldr	r2, [r3]
 3046              		.loc 1 1229 0
 3047 134a 461C     		adds	r6, r0, #1
 3048              		.loc 1 1230 0
 3049 134c 02FB05F2 		mul	r2, r2, r5
 3050              		.loc 1 1229 0
 3051 1350 06D1     		bne	.L346
 3052              		.loc 1 1230 0
 3053 1352 C2F52070 		rsb	r0, r2, #640
 3054 1356 00EBD070 		add	r0, r0, r0, lsr #31
 3055 135a 4D4B     		ldr	r3, .L787+40
 3056 135c 4010     		asrs	r0, r0, #1
 3057 135e 1860     		str	r0, [r3]
 3058              	.L346:
 3059              		.loc 1 1232 0
 3060 1360 4A49     		ldr	r1, .L787+36
 3061 1362 119B     		ldr	r3, [sp, #68]
 3062 1364 0968     		ldr	r1, [r1]
 3063 1366 1B68     		ldr	r3, [r3]
 3064 1368 4C1C     		adds	r4, r1, #1
 3065 136a 03FB05F3 		mul	r3, r3, r5
 3066 136e 06D1     		bne	.L347
 3067              		.loc 1 1233 0
 3068 1370 C3F5F071 		rsb	r1, r3, #480
 3069 1374 01EBD171 		add	r1, r1, r1, lsr #31
 3070 1378 444C     		ldr	r4, .L787+36
 3071 137a 4910     		asrs	r1, r1, #1
 3072 137c 2160     		str	r1, [r4]
 3073              	.L347:
 3074              		.loc 1 1235 0
 3075 137e 129C     		ldr	r4, [sp, #72]
 3076 1380 2468     		ldr	r4, [r4]
 3077 1382 0294     		str	r4, [sp, #8]
 3078 1384 CDE90055 		strd	r5, r5, [sp]
ARM GAS  /var/folders/d2/nstgp4h54kz7g1l847x_b8wc0000gn/T//ccB20FE7.s 			page 55


 3079 1388 FFF7FEFF 		bl	e_poxxxx_config_cam
 3080              	.LVL205:
 3081              		.loc 1 1236 0
 3082 138c FFF7FEFF 		bl	e_poxxxx_write_cam_registers
 3083              	.LVL206:
 3084              		.loc 1 1237 0
 3085 1390 079B     		ldr	r3, [sp, #28]
 3086              		.loc 1 1238 0
 3087 1392 4348     		ldr	r0, .L787+56
 3088 1394 0321     		movs	r1, #3
 3089              		.loc 1 1237 0
 3090 1396 002B     		cmp	r3, #0
 3091 1398 01F00481 		beq	.L348
 3092              		.loc 1 1238 0
 3093 139c FFF7FEFF 		bl	e_send_uart1_char
 3094              	.LVL207:
 3095              	.L349:
 3096              		.loc 1 1238 0 is_stmt 0 discriminator 2
 3097 13a0 FFF7FEFF 		bl	e_uart1_sending
 3098              	.LVL208:
 3099 13a4 0028     		cmp	r0, #0
 3100 13a6 FBD1     		bne	.L349
 3101 13a8 FEF777BE 		b	.L708
 3102              	.L235:
 3103              		.loc 1 1365 0 is_stmt 1
 3104 13ac 0020     		movs	r0, #0
 3105 13ae FFF7FEFF 		bl	e_set_speed_left
 3106              	.LVL209:
 3107              		.loc 1 1366 0
 3108 13b2 0020     		movs	r0, #0
 3109 13b4 FFF7FEFF 		bl	e_set_speed_right
 3110              	.LVL210:
 3111              		.loc 1 1367 0
 3112 13b8 0021     		movs	r1, #0
 3113 13ba 0820     		movs	r0, #8
 3114 13bc FFF7FEFF 		bl	e_set_led
 3115              	.LVL211:
 3116              		.loc 1 1368 0
 3117 13c0 B8F1000F 		cmp	r8, #0
 3118 13c4 7EF466AE 		bne	.L5
 3119              		.loc 1 1370 0
 3120 13c8 079B     		ldr	r3, [sp, #28]
 3121              		.loc 1 1371 0
 3122 13ca 3648     		ldr	r0, .L787+60
 3123 13cc 0321     		movs	r1, #3
 3124              		.loc 1 1370 0
 3125 13ce 002B     		cmp	r3, #0
 3126 13d0 00F05687 		beq	.L377
 3127              		.loc 1 1371 0
 3128 13d4 FFF7FEFF 		bl	e_send_uart1_char
 3129              	.LVL212:
 3130              	.L378:
 3131              		.loc 1 1371 0 is_stmt 0 discriminator 2
 3132 13d8 FFF7FEFF 		bl	e_uart1_sending
 3133              	.LVL213:
 3134 13dc 0028     		cmp	r0, #0
 3135 13de FBD1     		bne	.L378
ARM GAS  /var/folders/d2/nstgp4h54kz7g1l847x_b8wc0000gn/T//ccB20FE7.s 			page 56


 3136 13e0 FEF75BBE 		b	.L708
 3137              	.L219:
 3138              		.loc 1 1003 0 is_stmt 1
 3139 13e4 304A     		ldr	r2, .L787+64
 3140 13e6 3149     		ldr	r1, .L787+68
 3141 13e8 2048     		ldr	r0, .L787+4
 3142 13ea FFF7FEFF 		bl	sscanf
 3143              	.LVL214:
 3144              		.loc 1 1004 0
 3145 13ee 2E4B     		ldr	r3, .L787+64
 3146 13f0 1868     		ldr	r0, [r3]
 3147 13f2 FFF7FEFF 		bl	e_set_body_led
 3148              	.LVL215:
 3149              		.loc 1 1005 0
 3150 13f6 B8F1000F 		cmp	r8, #0
 3151 13fa 7EF44BAE 		bne	.L5
 3152              		.loc 1 1007 0
 3153 13fe 079B     		ldr	r3, [sp, #28]
 3154              		.loc 1 1008 0
 3155 1400 2B48     		ldr	r0, .L787+72
 3156 1402 0321     		movs	r1, #3
 3157              		.loc 1 1007 0
 3158 1404 002B     		cmp	r3, #0
 3159 1406 00F02687 		beq	.L252
 3160              		.loc 1 1008 0
 3161 140a FFF7FEFF 		bl	e_send_uart1_char
 3162              	.LVL216:
 3163              	.L253:
 3164              		.loc 1 1008 0 is_stmt 0 discriminator 2
 3165 140e FFF7FEFF 		bl	e_uart1_sending
 3166              	.LVL217:
 3167 1412 0028     		cmp	r0, #0
 3168 1414 FBD1     		bne	.L253
 3169 1416 FEF740BE 		b	.L708
 3170              	.L239:
 3171              		.loc 1 1451 0 is_stmt 1
 3172 141a B8F1000F 		cmp	r8, #0
 3173 141e 7EF439AE 		bne	.L5
 3174              		.loc 1 1452 0
 3175 1422 144B     		ldr	r3, .L787+12
 3176 1424 154A     		ldr	r2, .L787+20
 3177 1426 2349     		ldr	r1, .L787+76
 3178 1428 0093     		str	r3, [sp]
 3179 142a 1C46     		mov	r4, r3
 3180 142c 0F48     		ldr	r0, .L787+4
 3181 142e 124B     		ldr	r3, .L787+16
 3182 1430 FFF7FEFF 		bl	sscanf
 3183              	.LVL218:
 3184              		.loc 1 1453 0
 3185 1434 FFF7FEFF 		bl	e_i2cp_enable
 3186              	.LVL219:
 3187              		.loc 1 1454 0
 3188 1438 0F4B     		ldr	r3, .L787+16
 3189 143a 2278     		ldrb	r2, [r4]	@ zero_extendqisi2
 3190 143c 1978     		ldrb	r1, [r3]	@ zero_extendqisi2
 3191 143e 0F4B     		ldr	r3, .L787+20
 3192 1440 1878     		ldrb	r0, [r3]	@ zero_extendqisi2
ARM GAS  /var/folders/d2/nstgp4h54kz7g1l847x_b8wc0000gn/T//ccB20FE7.s 			page 57


 3193 1442 FFF7FEFF 		bl	e_i2cp_write
 3194              	.LVL220:
 3195              		.loc 1 1455 0
 3196 1446 FFF7FEFF 		bl	e_i2cp_disable
 3197              	.LVL221:
 3198              		.loc 1 1456 0
 3199 144a 079B     		ldr	r3, [sp, #28]
 3200              		.loc 1 1457 0
 3201 144c 1A48     		ldr	r0, .L787+80
 3202 144e 0321     		movs	r1, #3
 3203              		.loc 1 1456 0
 3204 1450 002B     		cmp	r3, #0
 3205 1452 01F0AF80 		beq	.L408
 3206              		.loc 1 1457 0
 3207 1456 FFF7FEFF 		bl	e_send_uart1_char
 3208              	.LVL222:
 3209              	.L409:
 3210              		.loc 1 1457 0 is_stmt 0 discriminator 2
 3211 145a FFF7FEFF 		bl	e_uart1_sending
 3212              	.LVL223:
 3213 145e 0028     		cmp	r0, #0
 3214 1460 FBD1     		bne	.L409
 3215 1462 FEF71ABE 		b	.L708
 3216              	.L788:
 3217 1466 00BF     		.align	2
 3218              	.L787:
 3219 1468 B40A0000 		.word	.LC85
 3220 146c 00000000 		.word	buffer
 3221 1470 2C0B0000 		.word	.LC94
 3222 1474 00000000 		.word	.LANCHOR26
 3223 1478 00000000 		.word	.LANCHOR25
 3224 147c 00000000 		.word	.LANCHOR24
 3225 1480 0C0B0000 		.word	.LC91
 3226 1484 180B0000 		.word	.LC92
 3227 1488 240B0000 		.word	.LC93
 3228 148c 00000000 		.word	.LANCHOR29
 3229 1490 00000000 		.word	.LANCHOR28
 3230 1494 00000000 		.word	.LANCHOR2
 3231 1498 00000000 		.word	.LANCHOR1
 3232 149c D0090000 		.word	.LC71
 3233 14a0 E8090000 		.word	.LC72
 3234 14a4 A40A0000 		.word	.LC82
 3235 14a8 00000000 		.word	.LANCHOR27
 3236 14ac 88000000 		.word	.LC4
 3237 14b0 90000000 		.word	.LC5
 3238 14b4 FC0A0000 		.word	.LC89
 3239 14b8 080B0000 		.word	.LC90
 3240              	.L223:
 3241              		.loc 1 1047 0 is_stmt 1
 3242 14bc 644A     		ldr	r2, .L789
 3243 14be 6549     		ldr	r1, .L789+4
 3244 14c0 6548     		ldr	r0, .L789+8
 3245 14c2 FFF7FEFF 		bl	sscanf
 3246              	.LVL224:
 3247              		.loc 1 1048 0
 3248 14c6 624B     		ldr	r3, .L789
 3249 14c8 1868     		ldr	r0, [r3]
ARM GAS  /var/folders/d2/nstgp4h54kz7g1l847x_b8wc0000gn/T//ccB20FE7.s 			page 58


 3250 14ca FFF7FEFF 		bl	e_set_front_led
 3251              	.LVL225:
 3252              		.loc 1 1049 0
 3253 14ce B8F1000F 		cmp	r8, #0
 3254 14d2 7EF4DFAD 		bne	.L5
 3255              		.loc 1 1051 0
 3256 14d6 079B     		ldr	r3, [sp, #28]
 3257              		.loc 1 1052 0
 3258 14d8 6048     		ldr	r0, .L789+12
 3259 14da 0321     		movs	r1, #3
 3260              		.loc 1 1051 0
 3261 14dc 002B     		cmp	r3, #0
 3262 14de 00F05287 		beq	.L264
 3263              		.loc 1 1052 0
 3264 14e2 FFF7FEFF 		bl	e_send_uart1_char
 3265              	.LVL226:
 3266              	.L265:
 3267              		.loc 1 1052 0 is_stmt 0 discriminator 2
 3268 14e6 FFF7FEFF 		bl	e_uart1_sending
 3269              	.LVL227:
 3270 14ea 0028     		cmp	r0, #0
 3271 14ec FBD1     		bne	.L265
 3272 14ee FEF7D4BD 		b	.L708
 3273              	.L231:
 3274              		.loc 1 1311 0 is_stmt 1
 3275 14f2 0020     		movs	r0, #0
 3276 14f4 FFF7FEFF 		bl	e_get_calibrated_prox
 3277              	.LVL228:
 3278 14f8 0B90     		str	r0, [sp, #44]
 3279 14fa 0120     		movs	r0, #1
 3280 14fc FFF7FEFF 		bl	e_get_calibrated_prox
 3281              	.LVL229:
 3282 1500 0446     		mov	r4, r0
 3283 1502 0220     		movs	r0, #2
 3284 1504 FFF7FEFF 		bl	e_get_calibrated_prox
 3285              	.LVL230:
 3286 1508 0890     		str	r0, [sp, #32]
 3287 150a 0320     		movs	r0, #3
 3288 150c FFF7FEFF 		bl	e_get_calibrated_prox
 3289              	.LVL231:
 3290 1510 0546     		mov	r5, r0
 3291 1512 0420     		movs	r0, #4
 3292 1514 FFF7FEFF 		bl	e_get_calibrated_prox
 3293              	.LVL232:
 3294 1518 0646     		mov	r6, r0
 3295 151a 0520     		movs	r0, #5
 3296 151c FFF7FEFF 		bl	e_get_calibrated_prox
 3297              	.LVL233:
 3298 1520 0A90     		str	r0, [sp, #40]
 3299 1522 0620     		movs	r0, #6
 3300 1524 FFF7FEFF 		bl	e_get_calibrated_prox
 3301              	.LVL234:
 3302 1528 0990     		str	r0, [sp, #36]
 3303 152a 0720     		movs	r0, #7
 3304 152c FFF7FEFF 		bl	e_get_calibrated_prox
 3305              	.LVL235:
 3306 1530 089B     		ldr	r3, [sp, #32]
ARM GAS  /var/folders/d2/nstgp4h54kz7g1l847x_b8wc0000gn/T//ccB20FE7.s 			page 59


 3307 1532 0A99     		ldr	r1, [sp, #40]
 3308 1534 0093     		str	r3, [sp]
 3309 1536 099B     		ldr	r3, [sp, #36]
 3310 1538 0590     		str	r0, [sp, #20]
 3311 153a 0493     		str	r3, [sp, #16]
 3312 153c CDE90261 		strd	r6, r1, [sp, #8]
 3313 1540 0195     		str	r5, [sp, #4]
 3314 1542 2346     		mov	r3, r4
 3315 1544 0B9A     		ldr	r2, [sp, #44]
 3316 1546 4649     		ldr	r1, .L789+16
 3317 1548 4348     		ldr	r0, .L789+8
 3318 154a FFF7FEFF 		bl	sprintf
 3319              	.LVL236:
 3320              		.loc 1 1314 0
 3321 154e B8F1000F 		cmp	r8, #0
 3322 1552 7EF49FAD 		bne	.L5
 3323 1556 4048     		ldr	r0, .L789+8
 3324 1558 FFF7FEFF 		bl	strlen
 3325              	.LVL237:
 3326              		.loc 1 1316 0
 3327 155c 079B     		ldr	r3, [sp, #28]
 3328 155e 0146     		mov	r1, r0
 3329              		.loc 1 1317 0
 3330 1560 3D48     		ldr	r0, .L789+8
 3331              		.loc 1 1316 0
 3332 1562 002B     		cmp	r3, #0
 3333 1564 00F09486 		beq	.L365
 3334              		.loc 1 1317 0
 3335 1568 FFF7FEFF 		bl	e_send_uart1_char
 3336              	.LVL238:
 3337              	.L366:
 3338              		.loc 1 1317 0 is_stmt 0 discriminator 2
 3339 156c FFF7FEFF 		bl	e_uart1_sending
 3340              	.LVL239:
 3341 1570 0028     		cmp	r0, #0
 3342 1572 FBD1     		bne	.L366
 3343 1574 FEF791BD 		b	.L708
 3344              	.L217:
 3345              		.loc 1 979 0 is_stmt 1
 3346 1578 B8F1000F 		cmp	r8, #0
 3347 157c 40F01486 		bne	.L244
 3348              		.loc 1 980 0
 3349 1580 0121     		movs	r1, #1
 3350 1582 4046     		mov	r0, r8
 3351 1584 FFF7FEFF 		bl	e_get_acc_filtered
 3352              	.LVL240:
 3353 1588 0121     		movs	r1, #1
 3354 158a 0446     		mov	r4, r0
 3355 158c 0846     		mov	r0, r1
 3356 158e FFF7FEFF 		bl	e_get_acc_filtered
 3357              	.LVL241:
 3358 1592 0121     		movs	r1, #1
 3359 1594 0546     		mov	r5, r0
 3360 1596 0220     		movs	r0, #2
 3361 1598 FFF7FEFF 		bl	e_get_acc_filtered
 3362              	.LVL242:
 3363 159c 2B46     		mov	r3, r5
ARM GAS  /var/folders/d2/nstgp4h54kz7g1l847x_b8wc0000gn/T//ccB20FE7.s 			page 60


 3364 159e 0090     		str	r0, [sp]
 3365 15a0 2246     		mov	r2, r4
 3366 15a2 3049     		ldr	r1, .L789+20
 3367 15a4 2C48     		ldr	r0, .L789+8
 3368 15a6 FFF7FEFF 		bl	sprintf
 3369              	.LVL243:
 3370              		.loc 1 986 0
 3371 15aa 079B     		ldr	r3, [sp, #28]
 3372 15ac 002B     		cmp	r3, #0
 3373 15ae 00F0B086 		beq	.L770
 3374              		.loc 1 987 0
 3375 15b2 2948     		ldr	r0, .L789+8
 3376 15b4 FFF7FEFF 		bl	strlen
 3377              	.LVL244:
 3378 15b8 0146     		mov	r1, r0
 3379 15ba 2748     		ldr	r0, .L789+8
 3380 15bc FFF7FEFF 		bl	e_send_uart1_char
 3381              	.LVL245:
 3382              	.L247:
 3383              		.loc 1 987 0 is_stmt 0 discriminator 2
 3384 15c0 FFF7FEFF 		bl	e_uart1_sending
 3385              	.LVL246:
 3386 15c4 0028     		cmp	r0, #0
 3387 15c6 FBD1     		bne	.L247
 3388 15c8 FEF767BD 		b	.L708
 3389              	.L237:
 3390              		.loc 1 1424 0 is_stmt 1
 3391 15cc 0020     		movs	r0, #0
 3392 15ce FFF7FEFF 		bl	e_get_micro_volume
 3393              	.LVL247:
 3394 15d2 0446     		mov	r4, r0
 3395 15d4 0120     		movs	r0, #1
 3396 15d6 FFF7FEFF 		bl	e_get_micro_volume
 3397              	.LVL248:
 3398 15da 0546     		mov	r5, r0
 3399 15dc 0220     		movs	r0, #2
 3400 15de FFF7FEFF 		bl	e_get_micro_volume
 3401              	.LVL249:
 3402 15e2 2B46     		mov	r3, r5
 3403 15e4 0090     		str	r0, [sp]
 3404 15e6 2246     		mov	r2, r4
 3405 15e8 1F49     		ldr	r1, .L789+24
 3406 15ea 1B48     		ldr	r0, .L789+8
 3407 15ec FFF7FEFF 		bl	sprintf
 3408              	.LVL250:
 3409              		.loc 1 1425 0
 3410 15f0 B8F1000F 		cmp	r8, #0
 3411 15f4 7EF44EAD 		bne	.L5
 3412 15f8 1748     		ldr	r0, .L789+8
 3413 15fa FFF7FEFF 		bl	strlen
 3414              	.LVL251:
 3415              		.loc 1 1427 0
 3416 15fe 079B     		ldr	r3, [sp, #28]
 3417 1600 0146     		mov	r1, r0
 3418              		.loc 1 1428 0
 3419 1602 1548     		ldr	r0, .L789+8
 3420              		.loc 1 1427 0
ARM GAS  /var/folders/d2/nstgp4h54kz7g1l847x_b8wc0000gn/T//ccB20FE7.s 			page 61


 3421 1604 002B     		cmp	r3, #0
 3422 1606 00F05386 		beq	.L397
 3423              		.loc 1 1428 0
 3424 160a FFF7FEFF 		bl	e_send_uart1_char
 3425              	.LVL252:
 3426              	.L398:
 3427              		.loc 1 1428 0 is_stmt 0 discriminator 2
 3428 160e FFF7FEFF 		bl	e_uart1_sending
 3429              	.LVL253:
 3430 1612 0028     		cmp	r0, #0
 3431 1614 FBD1     		bne	.L398
 3432 1616 FEF740BD 		b	.L708
 3433              	.L236:
 3434              		.loc 1 1377 0 is_stmt 1
 3435 161a 144A     		ldr	r2, .L789+28
 3436 161c 1449     		ldr	r1, .L789+32
 3437 161e 0E48     		ldr	r0, .L789+8
 3438 1620 FFF7FEFF 		bl	sscanf
 3439              	.LVL254:
 3440              		.loc 1 1378 0
 3441 1624 134B     		ldr	r3, .L789+36
 3442 1626 1B78     		ldrb	r3, [r3]	@ zero_extendqisi2
 3443 1628 23B9     		cbnz	r3, .L380
 3444              		.loc 1 1379 0
 3445 162a FFF7FEFF 		bl	e_init_sound
 3446              	.LVL255:
 3447              		.loc 1 1380 0
 3448 162e 114A     		ldr	r2, .L789+36
 3449 1630 0123     		movs	r3, #1
 3450 1632 1370     		strb	r3, [r2]
 3451              	.L380:
 3452              		.loc 1 1382 0
 3453 1634 0D4B     		ldr	r3, .L789+28
 3454 1636 1B68     		ldr	r3, [r3]
 3455 1638 013B     		subs	r3, r3, #1
 3456 163a 042B     		cmp	r3, #4
 3457 163c 00F2C287 		bhi	.L381
 3458 1640 DFE813F0 		tbh	[pc, r3, lsl #1]
 3459              	.L383:
 3460 1644 4E03     		.2byte	(.L382-.L383)/2
 3461 1646 4803     		.2byte	(.L384-.L383)/2
 3462 1648 4203     		.2byte	(.L385-.L383)/2
 3463 164a 3B03     		.2byte	(.L386-.L383)/2
 3464 164c 2303     		.2byte	(.L387-.L383)/2
 3465              		.p2align 1
 3466              	.L790:
 3467 164e 00BF     		.align	2
 3468              	.L789:
 3469 1650 00000000 		.word	.LANCHOR27
 3470 1654 B8000000 		.word	.LC10
 3471 1658 00000000 		.word	buffer
 3472 165c C0000000 		.word	.LC11
 3473 1660 500A0000 		.word	.LC77
 3474 1664 5C000000 		.word	.LC1
 3475 1668 C40A0000 		.word	.LC87
 3476 166c 00000000 		.word	.LANCHOR31
 3477 1670 A80A0000 		.word	.LC83
ARM GAS  /var/folders/d2/nstgp4h54kz7g1l847x_b8wc0000gn/T//ccB20FE7.s 			page 62


 3478 1674 00000000 		.word	.LANCHOR8
 3479              	.L225:
 3480              		.loc 1 1085 0
 3481 1678 B8F1000F 		cmp	r8, #0
 3482 167c 7EF40AAD 		bne	.L5
 3483              		.loc 1 1123 0
 3484 1680 079B     		ldr	r3, [sp, #28]
 3485              		.loc 1 1124 0
 3486 1682 BA48     		ldr	r0, .L791
 3487 1684 0121     		movs	r1, #1
 3488              		.loc 1 1123 0
 3489 1686 002B     		cmp	r3, #0
 3490 1688 00F0A286 		beq	.L275
 3491              		.loc 1 1124 0
 3492 168c FFF7FEFF 		bl	e_send_uart1_char
 3493              	.LVL256:
 3494              	.L276:
 3495              		.loc 1 1124 0 is_stmt 0 discriminator 2
 3496 1690 FFF7FEFF 		bl	e_uart1_sending
 3497              	.LVL257:
 3498 1694 0028     		cmp	r0, #0
 3499 1696 FBD1     		bne	.L276
 3500              		.loc 1 1125 0 is_stmt 1
 3501 1698 2121     		movs	r1, #33
 3502 169a B548     		ldr	r0, .L791+4
 3503 169c FFF7FEFF 		bl	e_send_uart1_char
 3504              	.LVL258:
 3505              	.L277:
 3506              		.loc 1 1125 0 is_stmt 0 discriminator 2
 3507 16a0 FFF7FEFF 		bl	e_uart1_sending
 3508              	.LVL259:
 3509 16a4 0028     		cmp	r0, #0
 3510 16a6 FBD1     		bne	.L277
 3511              		.loc 1 1126 0 is_stmt 1
 3512 16a8 3121     		movs	r1, #49
 3513 16aa B248     		ldr	r0, .L791+8
 3514 16ac FFF7FEFF 		bl	e_send_uart1_char
 3515              	.LVL260:
 3516              	.L278:
 3517              		.loc 1 1126 0 is_stmt 0 discriminator 2
 3518 16b0 FFF7FEFF 		bl	e_uart1_sending
 3519              	.LVL261:
 3520 16b4 0028     		cmp	r0, #0
 3521 16b6 FBD1     		bne	.L278
 3522              		.loc 1 1127 0 is_stmt 1
 3523 16b8 FFF7FEFF 		bl	isEpuckVersion1_3
 3524              	.LVL262:
 3525 16bc 0028     		cmp	r0, #0
 3526 16be 00F09587 		beq	.L279
 3527              		.loc 1 1128 0
 3528 16c2 2121     		movs	r1, #33
 3529 16c4 AC48     		ldr	r0, .L791+12
 3530 16c6 FFF7FEFF 		bl	e_send_uart1_char
 3531              	.LVL263:
 3532              	.L280:
 3533              		.loc 1 1128 0 is_stmt 0 discriminator 2
 3534 16ca FFF7FEFF 		bl	e_uart1_sending
ARM GAS  /var/folders/d2/nstgp4h54kz7g1l847x_b8wc0000gn/T//ccB20FE7.s 			page 63


 3535              	.LVL264:
 3536 16ce 0028     		cmp	r0, #0
 3537 16d0 FBD1     		bne	.L280
 3538              	.L281:
 3539              		.loc 1 1132 0 is_stmt 1
 3540 16d2 2521     		movs	r1, #37
 3541 16d4 A948     		ldr	r0, .L791+16
 3542 16d6 FFF7FEFF 		bl	e_send_uart1_char
 3543              	.LVL265:
 3544              	.L283:
 3545              		.loc 1 1132 0 is_stmt 0 discriminator 2
 3546 16da FFF7FEFF 		bl	e_uart1_sending
 3547              	.LVL266:
 3548 16de 0028     		cmp	r0, #0
 3549 16e0 FBD1     		bne	.L283
 3550              		.loc 1 1133 0 is_stmt 1
 3551 16e2 2E21     		movs	r1, #46
 3552 16e4 A648     		ldr	r0, .L791+20
 3553 16e6 FFF7FEFF 		bl	e_send_uart1_char
 3554              	.LVL267:
 3555              	.L284:
 3556              		.loc 1 1133 0 is_stmt 0 discriminator 2
 3557 16ea FFF7FEFF 		bl	e_uart1_sending
 3558              	.LVL268:
 3559 16ee 0028     		cmp	r0, #0
 3560 16f0 FBD1     		bne	.L284
 3561              		.loc 1 1134 0 is_stmt 1
 3562 16f2 2E21     		movs	r1, #46
 3563 16f4 A348     		ldr	r0, .L791+24
 3564 16f6 FFF7FEFF 		bl	e_send_uart1_char
 3565              	.LVL269:
 3566              	.L285:
 3567              		.loc 1 1134 0 is_stmt 0 discriminator 2
 3568 16fa FFF7FEFF 		bl	e_uart1_sending
 3569              	.LVL270:
 3570 16fe 0028     		cmp	r0, #0
 3571 1700 FBD1     		bne	.L285
 3572              		.loc 1 1135 0 is_stmt 1
 3573 1702 3221     		movs	r1, #50
 3574 1704 A048     		ldr	r0, .L791+28
 3575 1706 FFF7FEFF 		bl	e_send_uart1_char
 3576              	.LVL271:
 3577              	.L286:
 3578              		.loc 1 1135 0 is_stmt 0 discriminator 2
 3579 170a FFF7FEFF 		bl	e_uart1_sending
 3580              	.LVL272:
 3581 170e 0028     		cmp	r0, #0
 3582 1710 FBD1     		bne	.L286
 3583              		.loc 1 1137 0 is_stmt 1
 3584 1712 1F21     		movs	r1, #31
 3585 1714 9D48     		ldr	r0, .L791+32
 3586 1716 FFF7FEFF 		bl	e_send_uart1_char
 3587              	.LVL273:
 3588              	.L287:
 3589              		.loc 1 1137 0 is_stmt 0 discriminator 2
 3590 171a FFF7FEFF 		bl	e_uart1_sending
 3591              	.LVL274:
ARM GAS  /var/folders/d2/nstgp4h54kz7g1l847x_b8wc0000gn/T//ccB20FE7.s 			page 64


 3592 171e 0028     		cmp	r0, #0
 3593 1720 FBD1     		bne	.L287
 3594              		.loc 1 1139 0 is_stmt 1
 3595 1722 FFF7FEFF 		bl	isEpuckVersion1_3
 3596              	.LVL275:
 3597 1726 0028     		cmp	r0, #0
 3598 1728 40F09A87 		bne	.L771
 3599              	.L288:
 3600              		.loc 1 1142 0
 3601 172c 1821     		movs	r1, #24
 3602 172e 9848     		ldr	r0, .L791+36
 3603 1730 FFF7FEFF 		bl	e_send_uart1_char
 3604              	.LVL276:
 3605              	.L290:
 3606              		.loc 1 1142 0 is_stmt 0 discriminator 2
 3607 1734 FFF7FEFF 		bl	e_uart1_sending
 3608              	.LVL277:
 3609 1738 0028     		cmp	r0, #0
 3610 173a FBD1     		bne	.L290
 3611              		.loc 1 1143 0 is_stmt 1
 3612 173c 2821     		movs	r1, #40
 3613 173e 9548     		ldr	r0, .L791+40
 3614 1740 FFF7FEFF 		bl	e_send_uart1_char
 3615              	.LVL278:
 3616              	.L291:
 3617              		.loc 1 1143 0 is_stmt 0 discriminator 2
 3618 1744 FFF7FEFF 		bl	e_uart1_sending
 3619              	.LVL279:
 3620 1748 0028     		cmp	r0, #0
 3621 174a FBD1     		bne	.L291
 3622              		.loc 1 1144 0 is_stmt 1
 3623 174c 4F21     		movs	r1, #79
 3624 174e 9248     		ldr	r0, .L791+44
 3625 1750 FFF7FEFF 		bl	e_send_uart1_char
 3626              	.LVL280:
 3627              	.L292:
 3628              		.loc 1 1144 0 is_stmt 0 discriminator 2
 3629 1754 FFF7FEFF 		bl	e_uart1_sending
 3630              	.LVL281:
 3631 1758 0028     		cmp	r0, #0
 3632 175a FBD1     		bne	.L292
 3633              		.loc 1 1145 0 is_stmt 1
 3634 175c 2F21     		movs	r1, #47
 3635 175e 8F48     		ldr	r0, .L791+48
 3636 1760 FFF7FEFF 		bl	e_send_uart1_char
 3637              	.LVL282:
 3638              	.L293:
 3639              		.loc 1 1145 0 is_stmt 0 discriminator 2
 3640 1764 FFF7FEFF 		bl	e_uart1_sending
 3641              	.LVL283:
 3642 1768 0028     		cmp	r0, #0
 3643 176a FBD1     		bne	.L293
 3644              		.loc 1 1146 0 is_stmt 1
 3645 176c 3321     		movs	r1, #51
 3646 176e 8C48     		ldr	r0, .L791+52
 3647 1770 FFF7FEFF 		bl	e_send_uart1_char
 3648              	.LVL284:
ARM GAS  /var/folders/d2/nstgp4h54kz7g1l847x_b8wc0000gn/T//ccB20FE7.s 			page 65


 3649              	.L294:
 3650              		.loc 1 1146 0 is_stmt 0 discriminator 2
 3651 1774 FFF7FEFF 		bl	e_uart1_sending
 3652              	.LVL285:
 3653 1778 0028     		cmp	r0, #0
 3654 177a FBD1     		bne	.L294
 3655              		.loc 1 1148 0 is_stmt 1
 3656 177c 2121     		movs	r1, #33
 3657 177e 8948     		ldr	r0, .L791+56
 3658 1780 FFF7FEFF 		bl	e_send_uart1_char
 3659              	.LVL286:
 3660              	.L295:
 3661              		.loc 1 1148 0 is_stmt 0 discriminator 2
 3662 1784 FFF7FEFF 		bl	e_uart1_sending
 3663              	.LVL287:
 3664 1788 0028     		cmp	r0, #0
 3665 178a FBD1     		bne	.L295
 3666              		.loc 1 1150 0 is_stmt 1
 3667 178c 1D21     		movs	r1, #29
 3668 178e 8648     		ldr	r0, .L791+60
 3669 1790 FFF7FEFF 		bl	e_send_uart1_char
 3670              	.LVL288:
 3671              	.L296:
 3672              		.loc 1 1150 0 is_stmt 0 discriminator 2
 3673 1794 FFF7FEFF 		bl	e_uart1_sending
 3674              	.LVL289:
 3675 1798 0028     		cmp	r0, #0
 3676 179a FBD1     		bne	.L296
 3677              		.loc 1 1151 0 is_stmt 1
 3678 179c 2121     		movs	r1, #33
 3679 179e 8348     		ldr	r0, .L791+64
 3680 17a0 FFF7FEFF 		bl	e_send_uart1_char
 3681              	.LVL290:
 3682              	.L297:
 3683              		.loc 1 1151 0 is_stmt 0 discriminator 2
 3684 17a4 FFF7FEFF 		bl	e_uart1_sending
 3685              	.LVL291:
 3686 17a8 0028     		cmp	r0, #0
 3687 17aa FBD1     		bne	.L297
 3688              		.loc 1 1152 0 is_stmt 1
 3689 17ac 3121     		movs	r1, #49
 3690 17ae 8048     		ldr	r0, .L791+68
 3691 17b0 FFF7FEFF 		bl	e_send_uart1_char
 3692              	.LVL292:
 3693              	.L298:
 3694              		.loc 1 1152 0 is_stmt 0 discriminator 2
 3695 17b4 FFF7FEFF 		bl	e_uart1_sending
 3696              	.LVL293:
 3697 17b8 0028     		cmp	r0, #0
 3698 17ba FBD1     		bne	.L298
 3699              		.loc 1 1153 0 is_stmt 1
 3700 17bc 3121     		movs	r1, #49
 3701 17be 7D48     		ldr	r0, .L791+72
 3702 17c0 FFF7FEFF 		bl	e_send_uart1_char
 3703              	.LVL294:
 3704              	.L299:
 3705              		.loc 1 1153 0 is_stmt 0 discriminator 2
ARM GAS  /var/folders/d2/nstgp4h54kz7g1l847x_b8wc0000gn/T//ccB20FE7.s 			page 66


 3706 17c4 FFF7FEFF 		bl	e_uart1_sending
 3707              	.LVL295:
 3708 17c8 0028     		cmp	r0, #0
 3709 17ca FBD1     		bne	.L299
 3710              		.loc 1 1154 0 is_stmt 1
 3711 17cc 2021     		movs	r1, #32
 3712 17ce 7A48     		ldr	r0, .L791+76
 3713 17d0 FFF7FEFF 		bl	e_send_uart1_char
 3714              	.LVL296:
 3715              	.L300:
 3716              		.loc 1 1154 0 is_stmt 0 discriminator 2
 3717 17d4 FFF7FEFF 		bl	e_uart1_sending
 3718              	.LVL297:
 3719 17d8 0028     		cmp	r0, #0
 3720 17da FBD1     		bne	.L300
 3721              		.loc 1 1155 0 is_stmt 1
 3722 17dc 3121     		movs	r1, #49
 3723 17de 7748     		ldr	r0, .L791+80
 3724 17e0 FFF7FEFF 		bl	e_send_uart1_char
 3725              	.LVL298:
 3726              	.L301:
 3727              		.loc 1 1155 0 is_stmt 0 discriminator 2
 3728 17e4 FFF7FEFF 		bl	e_uart1_sending
 3729              	.LVL299:
 3730 17e8 0028     		cmp	r0, #0
 3731 17ea FBD1     		bne	.L301
 3732              		.loc 1 1156 0 is_stmt 1
 3733 17ec 3221     		movs	r1, #50
 3734 17ee 7448     		ldr	r0, .L791+84
 3735 17f0 FFF7FEFF 		bl	e_send_uart1_char
 3736              	.LVL300:
 3737              	.L302:
 3738              		.loc 1 1156 0 is_stmt 0 discriminator 2
 3739 17f4 FFF7FEFF 		bl	e_uart1_sending
 3740              	.LVL301:
 3741 17f8 0028     		cmp	r0, #0
 3742 17fa FBD1     		bne	.L302
 3743              		.loc 1 1157 0 is_stmt 1
 3744 17fc FFF7FEFF 		bl	isEpuckVersion1_3
 3745              	.LVL302:
 3746 1800 0028     		cmp	r0, #0
 3747 1802 40F02387 		bne	.L772
 3748              	.L303:
 3749              		.loc 1 1160 0
 3750 1806 2C21     		movs	r1, #44
 3751 1808 6E48     		ldr	r0, .L791+88
 3752 180a FFF7FEFF 		bl	e_send_uart1_char
 3753              	.LVL303:
 3754              	.L305:
 3755              		.loc 1 1160 0 is_stmt 0 discriminator 2
 3756 180e FFF7FEFF 		bl	e_uart1_sending
 3757              	.LVL304:
 3758 1812 0028     		cmp	r0, #0
 3759 1814 FBD1     		bne	.L305
 3760              		.loc 1 1161 0 is_stmt 1
 3761 1816 2521     		movs	r1, #37
 3762 1818 6B48     		ldr	r0, .L791+92
ARM GAS  /var/folders/d2/nstgp4h54kz7g1l847x_b8wc0000gn/T//ccB20FE7.s 			page 67


 3763 181a FFF7FEFF 		bl	e_send_uart1_char
 3764              	.LVL305:
 3765              	.L306:
 3766              		.loc 1 1161 0 is_stmt 0 discriminator 2
 3767 181e FFF7FEFF 		bl	e_uart1_sending
 3768              	.LVL306:
 3769 1822 0028     		cmp	r0, #0
 3770 1824 FBD1     		bne	.L306
 3771              		.loc 1 1162 0 is_stmt 1
 3772 1826 2B21     		movs	r1, #43
 3773 1828 6848     		ldr	r0, .L791+96
 3774 182a FFF7FEFF 		bl	e_send_uart1_char
 3775              	.LVL307:
 3776              	.L307:
 3777              		.loc 1 1162 0 is_stmt 0 discriminator 2
 3778 182e FFF7FEFF 		bl	e_uart1_sending
 3779              	.LVL308:
 3780 1832 0028     		cmp	r0, #0
 3781 1834 FBD1     		bne	.L307
 3782              		.loc 1 1163 0 is_stmt 1
 3783 1836 2A21     		movs	r1, #42
 3784 1838 6548     		ldr	r0, .L791+100
 3785 183a FFF7FEFF 		bl	e_send_uart1_char
 3786              	.LVL309:
 3787              	.L308:
 3788              		.loc 1 1163 0 is_stmt 0 discriminator 2
 3789 183e FFF7FEFF 		bl	e_uart1_sending
 3790              	.LVL310:
 3791 1842 0028     		cmp	r0, #0
 3792 1844 FBD1     		bne	.L308
 3793 1846 FEF728BC 		b	.L708
 3794              	.L224:
 3795              		.loc 1 1059 0 is_stmt 1
 3796 184a FFF7FEFF 		bl	e_get_check
 3797              	.LVL311:
 3798 184e 0446     		mov	r4, r0
 3799 1850 FFF7FEFF 		bl	e_get_address
 3800              	.LVL312:
 3801 1854 0546     		mov	r5, r0
 3802 1856 FFF7FEFF 		bl	e_get_data
 3803              	.LVL313:
 3804 185a 2B46     		mov	r3, r5
 3805 185c 0090     		str	r0, [sp]
 3806 185e 2246     		mov	r2, r4
 3807 1860 5C49     		ldr	r1, .L791+104
 3808 1862 5D48     		ldr	r0, .L791+108
 3809 1864 FFF7FEFF 		bl	sprintf
 3810              	.LVL314:
 3811              		.loc 1 1060 0
 3812 1868 B8F1000F 		cmp	r8, #0
 3813 186c 7EF412AC 		bne	.L5
 3814 1870 5948     		ldr	r0, .L791+108
 3815 1872 FFF7FEFF 		bl	strlen
 3816              	.LVL315:
 3817              		.loc 1 1062 0
 3818 1876 079B     		ldr	r3, [sp, #28]
 3819 1878 0146     		mov	r1, r0
ARM GAS  /var/folders/d2/nstgp4h54kz7g1l847x_b8wc0000gn/T//ccB20FE7.s 			page 68


 3820              		.loc 1 1063 0
 3821 187a 5748     		ldr	r0, .L791+108
 3822              		.loc 1 1062 0
 3823 187c 002B     		cmp	r3, #0
 3824 187e 00F06A85 		beq	.L267
 3825              		.loc 1 1063 0
 3826 1882 FFF7FEFF 		bl	e_send_uart1_char
 3827              	.LVL316:
 3828              	.L268:
 3829              		.loc 1 1063 0 is_stmt 0 discriminator 2
 3830 1886 FFF7FEFF 		bl	e_uart1_sending
 3831              	.LVL317:
 3832 188a 0028     		cmp	r0, #0
 3833 188c FBD1     		bne	.L268
 3834 188e FEF704BC 		b	.L708
 3835              	.L221:
 3836              		.loc 1 1025 0 is_stmt 1
 3837 1892 524B     		ldr	r3, .L791+112
 3838 1894 524A     		ldr	r2, .L791+116
 3839 1896 5349     		ldr	r1, .L791+120
 3840 1898 4F48     		ldr	r0, .L791+108
 3841 189a FFF7FEFF 		bl	sscanf
 3842              	.LVL318:
 3843              		.loc 1 1026 0
 3844 189e 504B     		ldr	r3, .L791+116
 3845 18a0 1868     		ldr	r0, [r3]
 3846 18a2 FFF7FEFF 		bl	e_set_speed_left
 3847              	.LVL319:
 3848              		.loc 1 1027 0
 3849 18a6 4D4B     		ldr	r3, .L791+112
 3850 18a8 1868     		ldr	r0, [r3]
 3851 18aa FFF7FEFF 		bl	e_set_speed_right
 3852              	.LVL320:
 3853              		.loc 1 1028 0
 3854 18ae B8F1000F 		cmp	r8, #0
 3855 18b2 7EF4EFAB 		bne	.L5
 3856              		.loc 1 1030 0
 3857 18b6 079B     		ldr	r3, [sp, #28]
 3858              		.loc 1 1031 0
 3859 18b8 4B48     		ldr	r0, .L791+124
 3860 18ba 0321     		movs	r1, #3
 3861              		.loc 1 1030 0
 3862 18bc 002B     		cmp	r3, #0
 3863 18be 00F05A85 		beq	.L258
 3864              		.loc 1 1031 0
 3865 18c2 FFF7FEFF 		bl	e_send_uart1_char
 3866              	.LVL321:
 3867              	.L259:
 3868              		.loc 1 1031 0 is_stmt 0 discriminator 2
 3869 18c6 FFF7FEFF 		bl	e_uart1_sending
 3870              	.LVL322:
 3871 18ca 0028     		cmp	r0, #0
 3872 18cc FBD1     		bne	.L259
 3873 18ce FEF7E4BB 		b	.L708
 3874              	.L222:
 3875              		.loc 1 1037 0 is_stmt 1
 3876 18d2 424B     		ldr	r3, .L791+112
ARM GAS  /var/folders/d2/nstgp4h54kz7g1l847x_b8wc0000gn/T//ccB20FE7.s 			page 69


 3877 18d4 424A     		ldr	r2, .L791+116
 3878 18d6 1B68     		ldr	r3, [r3]
 3879 18d8 1268     		ldr	r2, [r2]
 3880 18da 4449     		ldr	r1, .L791+128
 3881 18dc 3E48     		ldr	r0, .L791+108
 3882 18de FFF7FEFF 		bl	sprintf
 3883              	.LVL323:
 3884              		.loc 1 1038 0
 3885 18e2 B8F1000F 		cmp	r8, #0
 3886 18e6 7EF4D5AB 		bne	.L5
 3887 18ea 3B48     		ldr	r0, .L791+108
 3888 18ec FFF7FEFF 		bl	strlen
 3889              	.LVL324:
 3890              		.loc 1 1040 0
 3891 18f0 079B     		ldr	r3, [sp, #28]
 3892 18f2 0146     		mov	r1, r0
 3893              		.loc 1 1041 0
 3894 18f4 3848     		ldr	r0, .L791+108
 3895              		.loc 1 1040 0
 3896 18f6 002B     		cmp	r3, #0
 3897 18f8 00F03585 		beq	.L261
 3898              		.loc 1 1041 0
 3899 18fc FFF7FEFF 		bl	e_send_uart1_char
 3900              	.LVL325:
 3901              	.L262:
 3902              		.loc 1 1041 0 is_stmt 0 discriminator 2
 3903 1900 FFF7FEFF 		bl	e_uart1_sending
 3904              	.LVL326:
 3905 1904 0028     		cmp	r0, #0
 3906 1906 FBD1     		bne	.L262
 3907 1908 FEF7C7BB 		b	.L708
 3908              	.L220:
 3909              		.loc 1 1014 0 is_stmt 1
 3910 190c 384A     		ldr	r2, .L791+132
 3911 190e 3949     		ldr	r1, .L791+136
 3912 1910 1369     		ldr	r3, [r2, #16]
 3913 1912 1069     		ldr	r0, [r2, #16]
 3914 1914 0C69     		ldr	r4, [r1, #16]
 3915 1916 1269     		ldr	r2, [r2, #16]
 3916              		.loc 1 1015 0
 3917 1918 3749     		ldr	r1, .L791+140
 3918              		.loc 1 1014 0
 3919 191a C4F30014 		ubfx	r4, r4, #4, #1
 3920 191e C0F3C030 		ubfx	r0, r0, #15, #1
 3921 1922 00EB4400 		add	r0, r0, r4, lsl #1
 3922 1926 C2F38032 		ubfx	r2, r2, #14, #1
 3923 192a 02EB4002 		add	r2, r2, r0, lsl #1
 3924 192e C3F34033 		ubfx	r3, r3, #13, #1
 3925 1932 03EB4203 		add	r3, r3, r2, lsl #1
 3926 1936 314C     		ldr	r4, .L791+144
 3927              		.loc 1 1015 0
 3928 1938 2748     		ldr	r0, .L791+108
 3929              		.loc 1 1014 0
 3930 193a 2360     		str	r3, [r4]
 3931              		.loc 1 1015 0
 3932 193c 1A46     		mov	r2, r3
 3933 193e FFF7FEFF 		bl	sprintf
ARM GAS  /var/folders/d2/nstgp4h54kz7g1l847x_b8wc0000gn/T//ccB20FE7.s 			page 70


 3934              	.LVL327:
 3935              		.loc 1 1016 0
 3936 1942 B8F1000F 		cmp	r8, #0
 3937 1946 7EF4A5AB 		bne	.L5
 3938 194a 2348     		ldr	r0, .L791+108
 3939 194c FFF7FEFF 		bl	strlen
 3940              	.LVL328:
 3941              		.loc 1 1018 0
 3942 1950 079B     		ldr	r3, [sp, #28]
 3943 1952 0146     		mov	r1, r0
 3944              		.loc 1 1019 0
 3945 1954 2048     		ldr	r0, .L791+108
 3946              		.loc 1 1018 0
 3947 1956 002B     		cmp	r3, #0
 3948 1958 00F07584 		beq	.L255
 3949              		.loc 1 1019 0
 3950 195c FFF7FEFF 		bl	e_send_uart1_char
 3951              	.LVL329:
 3952              	.L256:
 3953              		.loc 1 1019 0 is_stmt 0 discriminator 2
 3954 1960 FFF7FEFF 		bl	e_uart1_sending
 3955              	.LVL330:
 3956 1964 0028     		cmp	r0, #0
 3957 1966 FBD1     		bne	.L256
 3958 1968 FEF797BB 		b	.L708
 3959              	.L792:
 3960              		.align	2
 3961              	.L791:
 3962 196c 14010000 		.word	.LC15
 3963 1970 18010000 		.word	.LC16
 3964 1974 3C010000 		.word	.LC17
 3965 1978 70010000 		.word	.LC18
 3966 197c C4010000 		.word	.LC20
 3967 1980 EC010000 		.word	.LC21
 3968 1984 1C020000 		.word	.LC22
 3969 1988 4C020000 		.word	.LC23
 3970 198c 80020000 		.word	.LC24
 3971 1990 BC020000 		.word	.LC26
 3972 1994 D8020000 		.word	.LC27
 3973 1998 04030000 		.word	.LC28
 3974 199c 54030000 		.word	.LC29
 3975 19a0 84030000 		.word	.LC30
 3976 19a4 B8030000 		.word	.LC31
 3977 19a8 DC030000 		.word	.LC32
 3978 19ac FC030000 		.word	.LC33
 3979 19b0 20040000 		.word	.LC34
 3980 19b4 54040000 		.word	.LC35
 3981 19b8 88040000 		.word	.LC36
 3982 19bc AC040000 		.word	.LC37
 3983 19c0 E0040000 		.word	.LC38
 3984 19c4 34050000 		.word	.LC40
 3985 19c8 64050000 		.word	.LC41
 3986 19cc 8C050000 		.word	.LC42
 3987 19d0 B8050000 		.word	.LC43
 3988 19d4 C4000000 		.word	.LC12
 3989 19d8 00000000 		.word	buffer
 3990 19dc 00000000 		.word	.LANCHOR6
ARM GAS  /var/folders/d2/nstgp4h54kz7g1l847x_b8wc0000gn/T//ccB20FE7.s 			page 71


 3991 19e0 00000000 		.word	.LANCHOR7
 3992 19e4 9C000000 		.word	.LC7
 3993 19e8 A8000000 		.word	.LC8
 3994 19ec AC000000 		.word	.LC9
 3995 19f0 00080240 		.word	1073874944
 3996 19f4 000C0240 		.word	1073875968
 3997 19f8 94000000 		.word	.LC6
 3998 19fc 00000000 		.word	selector
 3999              	.L233:
 4000              		.loc 1 1335 0 is_stmt 1
 4001 1a00 BA4B     		ldr	r3, .L793
 4002 1a02 BB4A     		ldr	r2, .L793+4
 4003 1a04 BB49     		ldr	r1, .L793+8
 4004 1a06 BC48     		ldr	r0, .L793+12
 4005 1a08 FFF7FEFF 		bl	sscanf
 4006              	.LVL331:
 4007              		.loc 1 1336 0
 4008 1a0c B84B     		ldr	r3, .L793+4
 4009 1a0e 1868     		ldr	r0, [r3]
 4010 1a10 FFF7FEFF 		bl	e_set_steps_left
 4011              	.LVL332:
 4012              		.loc 1 1337 0
 4013 1a14 B54B     		ldr	r3, .L793
 4014 1a16 1868     		ldr	r0, [r3]
 4015 1a18 FFF7FEFF 		bl	e_set_steps_right
 4016              	.LVL333:
 4017              		.loc 1 1338 0
 4018 1a1c B8F1000F 		cmp	r8, #0
 4019 1a20 7EF438AB 		bne	.L5
 4020              		.loc 1 1340 0
 4021 1a24 079B     		ldr	r3, [sp, #28]
 4022              		.loc 1 1341 0
 4023 1a26 B548     		ldr	r0, .L793+16
 4024 1a28 0321     		movs	r1, #3
 4025              		.loc 1 1340 0
 4026 1a2a 002B     		cmp	r3, #0
 4027 1a2c 00F03884 		beq	.L371
 4028              		.loc 1 1341 0
 4029 1a30 FFF7FEFF 		bl	e_send_uart1_char
 4030              	.LVL334:
 4031              	.L372:
 4032              		.loc 1 1341 0 is_stmt 0 discriminator 2
 4033 1a34 FFF7FEFF 		bl	e_uart1_sending
 4034              	.LVL335:
 4035 1a38 0028     		cmp	r0, #0
 4036 1a3a FBD1     		bne	.L372
 4037 1a3c FEF72DBB 		b	.L708
 4038              	.L226:
 4039              		.loc 1 1204 0 is_stmt 1
 4040 1a40 B8F1000F 		cmp	r8, #0
 4041 1a44 7EF426AB 		bne	.L5
 4042              		.loc 1 1205 0
 4043 1a48 0E99     		ldr	r1, [sp, #56]
 4044 1a4a 119C     		ldr	r4, [sp, #68]
 4045 1a4c 0868     		ldr	r0, [r1]
 4046 1a4e 1399     		ldr	r1, [sp, #76]
 4047 1a50 109B     		ldr	r3, [sp, #64]
ARM GAS  /var/folders/d2/nstgp4h54kz7g1l847x_b8wc0000gn/T//ccB20FE7.s 			page 72


 4048 1a52 0968     		ldr	r1, [r1]
 4049 1a54 129A     		ldr	r2, [sp, #72]
 4050 1a56 2468     		ldr	r4, [r4]
 4051 1a58 1B68     		ldr	r3, [r3]
 4052 1a5a 1268     		ldr	r2, [r2]
 4053 1a5c 0094     		str	r4, [sp]
 4054 1a5e CDE90110 		strd	r1, r0, [sp, #4]
 4055 1a62 A749     		ldr	r1, .L793+20
 4056 1a64 A448     		ldr	r0, .L793+12
 4057 1a66 FFF7FEFF 		bl	sprintf
 4058              	.LVL336:
 4059              		.loc 1 1206 0
 4060 1a6a 079B     		ldr	r3, [sp, #28]
 4061              		.loc 1 1207 0
 4062 1a6c A248     		ldr	r0, .L793+12
 4063              		.loc 1 1206 0
 4064 1a6e 002B     		cmp	r3, #0
 4065 1a70 00F08C85 		beq	.L339
 4066              		.loc 1 1207 0
 4067 1a74 FFF7FEFF 		bl	strlen
 4068              	.LVL337:
 4069 1a78 0146     		mov	r1, r0
 4070 1a7a 9F48     		ldr	r0, .L793+12
 4071 1a7c FFF7FEFF 		bl	e_send_uart1_char
 4072              	.LVL338:
 4073              	.L340:
 4074              		.loc 1 1207 0 is_stmt 0 discriminator 2
 4075 1a80 FFF7FEFF 		bl	e_uart1_sending
 4076              	.LVL339:
 4077 1a84 0028     		cmp	r0, #0
 4078 1a86 FBD1     		bne	.L340
 4079 1a88 FEF707BB 		b	.L708
 4080              	.L238:
 4081              		.loc 1 1434 0 is_stmt 1
 4082 1a8c B8F1000F 		cmp	r8, #0
 4083 1a90 40F08283 		bne	.L400
 4084              		.loc 1 1436 0
 4085 1a94 079B     		ldr	r3, [sp, #28]
 4086              		.loc 1 1437 0
 4087 1a96 9B48     		ldr	r0, .L793+24
 4088 1a98 2521     		movs	r1, #37
 4089              		.loc 1 1436 0
 4090 1a9a 002B     		cmp	r3, #0
 4091 1a9c 00F02084 		beq	.L401
 4092              		.loc 1 1437 0
 4093 1aa0 FFF7FEFF 		bl	e_send_uart1_char
 4094              	.LVL340:
 4095              	.L402:
 4096              		.loc 1 1437 0 is_stmt 0 discriminator 2
 4097 1aa4 FFF7FEFF 		bl	e_uart1_sending
 4098              	.LVL341:
 4099 1aa8 0028     		cmp	r0, #0
 4100 1aaa FBD1     		bne	.L402
 4101              		.loc 1 1441 0 is_stmt 1
 4102 1aac 964B     		ldr	r3, .L793+28
 4103 1aae 9749     		ldr	r1, .L793+32
 4104 1ab0 1A68     		ldr	r2, [r3]
ARM GAS  /var/folders/d2/nstgp4h54kz7g1l847x_b8wc0000gn/T//ccB20FE7.s 			page 73


 4105 1ab2 9148     		ldr	r0, .L793+12
 4106 1ab4 FFF7FEFF 		bl	sprintf
 4107              	.LVL342:
 4108              		.loc 1 1445 0
 4109 1ab8 8F48     		ldr	r0, .L793+12
 4110 1aba FFF7FEFF 		bl	strlen
 4111              	.LVL343:
 4112 1abe 0146     		mov	r1, r0
 4113 1ac0 8D48     		ldr	r0, .L793+12
 4114 1ac2 FFF7FEFF 		bl	e_send_uart1_char
 4115              	.LVL344:
 4116              	.L406:
 4117              		.loc 1 1445 0 is_stmt 0 discriminator 2
 4118 1ac6 FFF7FEFF 		bl	e_uart1_sending
 4119              	.LVL345:
 4120 1aca 0028     		cmp	r0, #0
 4121 1acc FBD1     		bne	.L406
 4122 1ace FEF7E4BA 		b	.L708
 4123              	.L229:
 4124              		.loc 1 1269 0 is_stmt 1
 4125 1ad2 8F4B     		ldr	r3, .L793+36
 4126 1ad4 8F49     		ldr	r1, .L793+40
 4127 1ad6 904A     		ldr	r2, .L793+44
 4128 1ad8 8748     		ldr	r0, .L793+12
 4129 1ada FFF7FEFF 		bl	sscanf
 4130              	.LVL346:
 4131              		.loc 1 1270 0
 4132 1ade 8C4B     		ldr	r3, .L793+36
 4133 1ae0 1968     		ldr	r1, [r3]
 4134 1ae2 8D4B     		ldr	r3, .L793+44
 4135 1ae4 1868     		ldr	r0, [r3]
 4136 1ae6 FFF7FEFF 		bl	e_set_led
 4137              	.LVL347:
 4138              		.loc 1 1271 0
 4139 1aea B8F1000F 		cmp	r8, #0
 4140 1aee 7EF4D1AA 		bne	.L5
 4141              		.loc 1 1273 0
 4142 1af2 079B     		ldr	r3, [sp, #28]
 4143              		.loc 1 1274 0
 4144 1af4 8948     		ldr	r0, .L793+48
 4145 1af6 0321     		movs	r1, #3
 4146              		.loc 1 1273 0
 4147 1af8 002B     		cmp	r3, #0
 4148 1afa 00F04C84 		beq	.L359
 4149              		.loc 1 1274 0
 4150 1afe FFF7FEFF 		bl	e_send_uart1_char
 4151              	.LVL348:
 4152              	.L360:
 4153              		.loc 1 1274 0 is_stmt 0 discriminator 2
 4154 1b02 FFF7FEFF 		bl	e_uart1_sending
 4155              	.LVL349:
 4156 1b06 0028     		cmp	r0, #0
 4157 1b08 FBD1     		bne	.L360
 4158 1b0a FEF7C6BA 		b	.L708
 4159              	.L230:
 4160              		.loc 1 1282 0 is_stmt 1
 4161 1b0e B8F1000F 		cmp	r8, #0
ARM GAS  /var/folders/d2/nstgp4h54kz7g1l847x_b8wc0000gn/T//ccB20FE7.s 			page 74


 4162 1b12 7EF4BFAA 		bne	.L5
 4163              		.loc 1 1283 0
 4164 1b16 4046     		mov	r0, r8
 4165 1b18 FFF7FEFF 		bl	get_ground_prox
 4166              	.LVL350:
 4167 1b1c 0446     		mov	r4, r0
 4168 1b1e 0120     		movs	r0, #1
 4169 1b20 FFF7FEFF 		bl	get_ground_prox
 4170              	.LVL351:
 4171 1b24 0546     		mov	r5, r0
 4172 1b26 0220     		movs	r0, #2
 4173 1b28 FFF7FEFF 		bl	get_ground_prox
 4174              	.LVL352:
 4175 1b2c 0890     		str	r0, [sp, #32]
 4176 1b2e 0320     		movs	r0, #3
 4177 1b30 FFF7FEFF 		bl	get_ground_prox
 4178              	.LVL353:
 4179 1b34 0646     		mov	r6, r0
 4180 1b36 0420     		movs	r0, #4
 4181 1b38 FFF7FEFF 		bl	get_ground_prox
 4182              	.LVL354:
 4183 1b3c 089B     		ldr	r3, [sp, #32]
 4184 1b3e 0093     		str	r3, [sp]
 4185 1b40 CDE90160 		strd	r6, r0, [sp, #4]
 4186 1b44 2B46     		mov	r3, r5
 4187 1b46 2246     		mov	r2, r4
 4188 1b48 7549     		ldr	r1, .L793+52
 4189 1b4a 6B48     		ldr	r0, .L793+12
 4190 1b4c FFF7FEFF 		bl	sprintf
 4191              	.LVL355:
 4192              		.loc 1 1284 0
 4193 1b50 079B     		ldr	r3, [sp, #28]
 4194              		.loc 1 1285 0
 4195 1b52 6948     		ldr	r0, .L793+12
 4196              		.loc 1 1284 0
 4197 1b54 002B     		cmp	r3, #0
 4198 1b56 00F00D85 		beq	.L362
 4199              		.loc 1 1285 0
 4200 1b5a FFF7FEFF 		bl	strlen
 4201              	.LVL356:
 4202 1b5e 0146     		mov	r1, r0
 4203 1b60 6548     		ldr	r0, .L793+12
 4204 1b62 FFF7FEFF 		bl	e_send_uart1_char
 4205              	.LVL357:
 4206              	.L363:
 4207              		.loc 1 1285 0 is_stmt 0 discriminator 2
 4208 1b66 FFF7FEFF 		bl	e_uart1_sending
 4209              	.LVL358:
 4210 1b6a 0028     		cmp	r0, #0
 4211 1b6c FBD1     		bne	.L363
 4212 1b6e FEF794BA 		b	.L708
 4213              	.L234:
 4214              		.loc 1 1347 0 is_stmt 1
 4215 1b72 FFF7FEFF 		bl	e_get_steps_left
 4216              	.LVL359:
 4217 1b76 0446     		mov	r4, r0
 4218 1b78 FFF7FEFF 		bl	e_get_steps_right
ARM GAS  /var/folders/d2/nstgp4h54kz7g1l847x_b8wc0000gn/T//ccB20FE7.s 			page 75


 4219              	.LVL360:
 4220 1b7c 2246     		mov	r2, r4
 4221 1b7e 0346     		mov	r3, r0
 4222 1b80 6849     		ldr	r1, .L793+56
 4223 1b82 5D48     		ldr	r0, .L793+12
 4224 1b84 FFF7FEFF 		bl	sprintf
 4225              	.LVL361:
 4226              		.loc 1 1348 0
 4227 1b88 B8F1000F 		cmp	r8, #0
 4228 1b8c 7EF482AA 		bne	.L5
 4229 1b90 5948     		ldr	r0, .L793+12
 4230 1b92 FFF7FEFF 		bl	strlen
 4231              	.LVL362:
 4232              		.loc 1 1350 0
 4233 1b96 079B     		ldr	r3, [sp, #28]
 4234 1b98 0146     		mov	r1, r0
 4235              		.loc 1 1351 0
 4236 1b9a 5748     		ldr	r0, .L793+12
 4237              		.loc 1 1350 0
 4238 1b9c 002B     		cmp	r3, #0
 4239 1b9e 00F04A83 		beq	.L374
 4240              		.loc 1 1351 0
 4241 1ba2 FFF7FEFF 		bl	e_send_uart1_char
 4242              	.LVL363:
 4243              	.L375:
 4244              		.loc 1 1351 0 is_stmt 0 discriminator 2
 4245 1ba6 FFF7FEFF 		bl	e_uart1_sending
 4246              	.LVL364:
 4247 1baa 0028     		cmp	r0, #0
 4248 1bac FBD1     		bne	.L375
 4249 1bae FEF774BA 		b	.L708
 4250              	.L228:
 4251              		.loc 1 1245 0 is_stmt 1
 4252 1bb2 B8F1000F 		cmp	r8, #0
 4253 1bb6 40F0DE82 		bne	.L351
 4254              		.loc 1 1247 0
 4255 1bba 079B     		ldr	r3, [sp, #28]
 4256              		.loc 1 1248 0
 4257 1bbc 5A48     		ldr	r0, .L793+60
 4258 1bbe 3E21     		movs	r1, #62
 4259              		.loc 1 1247 0
 4260 1bc0 002B     		cmp	r3, #0
 4261 1bc2 00F01983 		beq	.L352
 4262              		.loc 1 1248 0
 4263 1bc6 FFF7FEFF 		bl	e_send_uart1_char
 4264              	.LVL365:
 4265              	.L353:
 4266              		.loc 1 1248 0 is_stmt 0 discriminator 2
 4267 1bca FFF7FEFF 		bl	e_uart1_sending
 4268              	.LVL366:
 4269 1bce 0028     		cmp	r0, #0
 4270 1bd0 FBD1     		bne	.L353
 4271              		.loc 1 1253 0 is_stmt 1
 4272 1bd2 0121     		movs	r1, #1
 4273 1bd4 0820     		movs	r0, #8
 4274 1bd6 FFF7FEFF 		bl	e_set_led
 4275              	.LVL367:
ARM GAS  /var/folders/d2/nstgp4h54kz7g1l847x_b8wc0000gn/T//ccB20FE7.s 			page 76


 4276              		.loc 1 1255 0
 4277 1bda 4FF4C870 		mov	r0, #400
 4278 1bde FFF7FEFF 		bl	chThdSleep
 4279              	.LVL368:
 4280              		.loc 1 1256 0
 4281 1be2 FFF7FEFF 		bl	e_led_clear
 4282              	.LVL369:
 4283              		.loc 1 1258 0
 4284 1be6 6420     		movs	r0, #100
 4285 1be8 FFF7FEFF 		bl	chThdSleep
 4286              	.LVL370:
 4287              		.loc 1 1259 0
 4288 1bec FFF7FEFF 		bl	e_calibrate_ir
 4289              	.LVL371:
 4290              		.loc 1 1263 0
 4291 1bf0 1921     		movs	r1, #25
 4292 1bf2 4E48     		ldr	r0, .L793+64
 4293 1bf4 FFF7FEFF 		bl	e_send_uart1_char
 4294              	.LVL372:
 4295              	.L357:
 4296              		.loc 1 1263 0 is_stmt 0 discriminator 2
 4297 1bf8 FFF7FEFF 		bl	e_uart1_sending
 4298              	.LVL373:
 4299 1bfc 0028     		cmp	r0, #0
 4300 1bfe FBD1     		bne	.L357
 4301 1c00 FEF74BBA 		b	.L708
 4302              	.LVL374:
 4303              	.L232:
 4304              		.loc 1 1323 0 is_stmt 1
 4305 1c04 0020     		movs	r0, #0
 4306 1c06 FFF7FEFF 		bl	e_get_ambient_light
 4307              	.LVL375:
 4308 1c0a 0B90     		str	r0, [sp, #44]
 4309 1c0c 0120     		movs	r0, #1
 4310 1c0e FFF7FEFF 		bl	e_get_ambient_light
 4311              	.LVL376:
 4312 1c12 0446     		mov	r4, r0
 4313 1c14 0220     		movs	r0, #2
 4314 1c16 FFF7FEFF 		bl	e_get_ambient_light
 4315              	.LVL377:
 4316 1c1a 0890     		str	r0, [sp, #32]
 4317 1c1c 0320     		movs	r0, #3
 4318 1c1e FFF7FEFF 		bl	e_get_ambient_light
 4319              	.LVL378:
 4320 1c22 0546     		mov	r5, r0
 4321 1c24 0420     		movs	r0, #4
 4322 1c26 FFF7FEFF 		bl	e_get_ambient_light
 4323              	.LVL379:
 4324 1c2a 0646     		mov	r6, r0
 4325 1c2c 0520     		movs	r0, #5
 4326 1c2e FFF7FEFF 		bl	e_get_ambient_light
 4327              	.LVL380:
 4328 1c32 0A90     		str	r0, [sp, #40]
 4329 1c34 0620     		movs	r0, #6
 4330 1c36 FFF7FEFF 		bl	e_get_ambient_light
 4331              	.LVL381:
 4332 1c3a 0990     		str	r0, [sp, #36]
ARM GAS  /var/folders/d2/nstgp4h54kz7g1l847x_b8wc0000gn/T//ccB20FE7.s 			page 77


 4333 1c3c 0720     		movs	r0, #7
 4334 1c3e FFF7FEFF 		bl	e_get_ambient_light
 4335              	.LVL382:
 4336 1c42 089B     		ldr	r3, [sp, #32]
 4337 1c44 0A99     		ldr	r1, [sp, #40]
 4338 1c46 0093     		str	r3, [sp]
 4339 1c48 099B     		ldr	r3, [sp, #36]
 4340 1c4a 0590     		str	r0, [sp, #20]
 4341 1c4c 0493     		str	r3, [sp, #16]
 4342 1c4e CDE90261 		strd	r6, r1, [sp, #8]
 4343 1c52 0195     		str	r5, [sp, #4]
 4344 1c54 2346     		mov	r3, r4
 4345 1c56 0B9A     		ldr	r2, [sp, #44]
 4346 1c58 3549     		ldr	r1, .L793+68
 4347 1c5a 2748     		ldr	r0, .L793+12
 4348 1c5c FFF7FEFF 		bl	sprintf
 4349              	.LVL383:
 4350              		.loc 1 1326 0
 4351 1c60 B8F1000F 		cmp	r8, #0
 4352 1c64 7EF416AA 		bne	.L5
 4353 1c68 2348     		ldr	r0, .L793+12
 4354 1c6a FFF7FEFF 		bl	strlen
 4355              	.LVL384:
 4356              		.loc 1 1328 0
 4357 1c6e 079B     		ldr	r3, [sp, #28]
 4358 1c70 0146     		mov	r1, r0
 4359              		.loc 1 1329 0
 4360 1c72 2148     		ldr	r0, .L793+12
 4361              		.loc 1 1328 0
 4362 1c74 002B     		cmp	r3, #0
 4363 1c76 00F02383 		beq	.L368
 4364              		.loc 1 1329 0
 4365 1c7a FFF7FEFF 		bl	e_send_uart1_char
 4366              	.LVL385:
 4367              	.L369:
 4368              		.loc 1 1329 0 is_stmt 0 discriminator 2
 4369 1c7e FFF7FEFF 		bl	e_uart1_sending
 4370              	.LVL386:
 4371 1c82 0028     		cmp	r0, #0
 4372 1c84 FBD1     		bne	.L369
 4373 1c86 FEF708BA 		b	.L708
 4374              	.L387:
 4375              		.loc 1 1391 0 is_stmt 1
 4376 1c8a 41F65071 		movw	r1, #8016
 4377 1c8e 42F61430 		movw	r0, #11028
 4378 1c92 FFF7FEFF 		bl	e_play_sound
 4379              	.LVL387:
 4380              	.L388:
 4381              		.loc 1 1399 0
 4382 1c96 B8F1000F 		cmp	r8, #0
 4383 1c9a 7EF4FBA9 		bne	.L5
 4384              		.loc 1 1401 0
 4385 1c9e 079B     		ldr	r3, [sp, #28]
 4386              		.loc 1 1402 0
 4387 1ca0 2448     		ldr	r0, .L793+72
 4388 1ca2 0321     		movs	r1, #3
 4389              		.loc 1 1401 0
ARM GAS  /var/folders/d2/nstgp4h54kz7g1l847x_b8wc0000gn/T//ccB20FE7.s 			page 78


 4390 1ca4 002B     		cmp	r3, #0
 4391 1ca6 00F09F82 		beq	.L389
 4392              		.loc 1 1402 0
 4393 1caa FFF7FEFF 		bl	e_send_uart1_char
 4394              	.LVL388:
 4395              	.L390:
 4396              		.loc 1 1402 0 is_stmt 0 discriminator 2
 4397 1cae FFF7FEFF 		bl	e_uart1_sending
 4398              	.LVL389:
 4399 1cb2 0028     		cmp	r0, #0
 4400 1cb4 FBD1     		bne	.L390
 4401 1cb6 FEF7F0B9 		b	.L708
 4402              	.L386:
 4403              		.loc 1 1389 0 is_stmt 1
 4404 1cba 40F69461 		movw	r1, #3732
 4405 1cbe 41F67E40 		movw	r0, #7294
 4406 1cc2 FFF7FEFF 		bl	e_play_sound
 4407              	.LVL390:
 4408              		.loc 1 1390 0
 4409 1cc6 E6E7     		b	.L388
 4410              	.L385:
 4411              		.loc 1 1387 0
 4412 1cc8 0022     		movs	r2, #0
 4413 1cca 0221     		movs	r1, #2
 4414 1ccc 0B20     		movs	r0, #11
 4415 1cce FFF7FEFF 		bl	playMelody
 4416              	.LVL391:
 4417              		.loc 1 1388 0
 4418 1cd2 E0E7     		b	.L388
 4419              	.L384:
 4420              		.loc 1 1385 0
 4421 1cd4 0022     		movs	r2, #0
 4422 1cd6 0221     		movs	r1, #2
 4423 1cd8 0420     		movs	r0, #4
 4424 1cda FFF7FEFF 		bl	playMelody
 4425              	.LVL392:
 4426              		.loc 1 1386 0
 4427 1cde DAE7     		b	.L388
 4428              	.L382:
 4429              		.loc 1 1383 0
 4430 1ce0 0022     		movs	r2, #0
 4431 1ce2 0221     		movs	r1, #2
 4432 1ce4 0320     		movs	r0, #3
 4433 1ce6 FFF7FEFF 		bl	playMelody
 4434              	.LVL393:
 4435              		.loc 1 1384 0
 4436 1cea D4E7     		b	.L388
 4437              	.L794:
 4438              		.align	2
 4439              	.L793:
 4440 1cec 00000000 		.word	.LANCHOR23
 4441 1cf0 00000000 		.word	.LANCHOR22
 4442 1cf4 880A0000 		.word	.LC79
 4443 1cf8 00000000 		.word	buffer
 4444 1cfc 940A0000 		.word	.LC80
 4445 1d00 BC090000 		.word	.LC70
 4446 1d04 D40A0000 		.word	.LC88
ARM GAS  /var/folders/d2/nstgp4h54kz7g1l847x_b8wc0000gn/T//ccB20FE7.s 			page 79


 4447 1d08 00000000 		.word	.LANCHOR0
 4448 1d0c 500B0000 		.word	.LC96
 4449 1d10 00000000 		.word	.LANCHOR27
 4450 1d14 2C0A0000 		.word	.LC74
 4451 1d18 00000000 		.word	.LANCHOR30
 4452 1d1c 380A0000 		.word	.LC75
 4453 1d20 3C0A0000 		.word	.LC76
 4454 1d24 980A0000 		.word	.LC81
 4455 1d28 EC090000 		.word	.LC73
 4456 1d2c 640B0000 		.word	.LC97
 4457 1d30 6C0A0000 		.word	.LC78
 4458 1d34 B00A0000 		.word	.LC84
 4459              	.L216:
 4460              		.loc 1 1502 0
 4461 1d38 B8F1000F 		cmp	r8, #0
 4462 1d3c 7EF4AAA9 		bne	.L5
 4463              		.loc 1 1504 0
 4464 1d40 079B     		ldr	r3, [sp, #28]
 4465              		.loc 1 1505 0
 4466 1d42 C248     		ldr	r0, .L795
 4467 1d44 1521     		movs	r1, #21
 4468              		.loc 1 1504 0
 4469 1d46 002B     		cmp	r3, #0
 4470 1d48 00F0C282 		beq	.L424
 4471              		.loc 1 1505 0
 4472 1d4c FFF7FEFF 		bl	e_send_uart1_char
 4473              	.LVL394:
 4474              	.L425:
 4475              		.loc 1 1505 0 is_stmt 0 discriminator 2
 4476 1d50 FFF7FEFF 		bl	e_uart1_sending
 4477              	.LVL395:
 4478 1d54 0028     		cmp	r0, #0
 4479 1d56 FBD1     		bne	.L425
 4480 1d58 FEF79FB9 		b	.L708
 4481              	.L196:
 4482              	.LBE4:
 4483              		.loc 1 974 0 is_stmt 1
 4484 1d5c 1C46     		mov	r4, r3
 4485              		.loc 1 972 0
 4486 1d5e 0222     		movs	r2, #2
 4487              		.loc 1 961 0
 4488 1d60 3B70     		strb	r3, [r7]
 4489              		.loc 1 974 0
 4490 1d62 622C     		cmp	r4, #98
 4491              		.loc 1 972 0
 4492 1d64 4FF00003 		mov	r3, #0
 4493 1d68 CBF80020 		str	r2, [fp]
 4494 1d6c 7B70     		strb	r3, [r7, #1]
 4495              		.loc 1 974 0
 4496 1d6e 7EF4F8A9 		bne	.L431
 4497              	.LBB5:
 4498              		.loc 1 993 0
 4499 1d72 FFF7FEFF 		bl	getBatteryValueRaw
 4500              	.LVL396:
 4501 1d76 0446     		mov	r4, r0
 4502 1d78 FFF7FEFF 		bl	getBatteryValuePercentage
 4503              	.LVL397:
ARM GAS  /var/folders/d2/nstgp4h54kz7g1l847x_b8wc0000gn/T//ccB20FE7.s 			page 80


 4504 1d7c 2246     		mov	r2, r4
 4505 1d7e 0346     		mov	r3, r0
 4506 1d80 B349     		ldr	r1, .L795+4
 4507 1d82 B448     		ldr	r0, .L795+8
 4508 1d84 FFF7FEFF 		bl	sprintf
 4509              	.LVL398:
 4510 1d88 FEF784B9 		b	.L5
 4511              	.LVL399:
 4512              	.L14:
 4513              	.LBE5:
 4514              		.loc 1 217 0
 4515 1d8c B24A     		ldr	r2, .L795+12
 4516 1d8e 0023     		movs	r3, #0
 4517 1d90 1360     		str	r3, [r2]
 4518 1d92 B24A     		ldr	r2, .L795+16
 4519 1d94 1360     		str	r3, [r2]
 4520 1d96 FEF758BA 		b	.L26
 4521              	.LVL400:
 4522              	.L30:
 4523              		.loc 1 279 0
 4524 1d9a AF4A     		ldr	r2, .L795+12
 4525 1d9c 0023     		movs	r3, #0
 4526 1d9e 1360     		str	r3, [r2]
 4527 1da0 AE4A     		ldr	r2, .L795+16
 4528 1da2 1360     		str	r3, [r2]
 4529 1da4 FEF7C5BA 		b	.L42
 4530              	.LVL401:
 4531              	.L156:
 4532              		.loc 1 825 0
 4533 1da8 AD4B     		ldr	r3, .L795+20
 4534 1daa 1A78     		ldrb	r2, [r3]	@ zero_extendqisi2
 4535 1dac AD4B     		ldr	r3, .L795+24
 4536 1dae 1B78     		ldrb	r3, [r3]	@ zero_extendqisi2
 4537 1db0 03EB0223 		add	r3, r3, r2, lsl #8
 4538 1db4 AC4A     		ldr	r2, .L795+28
 4539 1db6 1846     		mov	r0, r3
 4540 1db8 1360     		str	r3, [r2]
 4541 1dba FFF74FB8 		b	.L168
 4542              	.L129:
 4543              		.loc 1 706 0
 4544 1dbe A84B     		ldr	r3, .L795+20
 4545 1dc0 1A78     		ldrb	r2, [r3]	@ zero_extendqisi2
 4546 1dc2 A84B     		ldr	r3, .L795+24
 4547 1dc4 1B78     		ldrb	r3, [r3]	@ zero_extendqisi2
 4548 1dc6 03EB0223 		add	r3, r3, r2, lsl #8
 4549 1dca A34A     		ldr	r2, .L795+12
 4550 1dcc 1846     		mov	r0, r3
 4551 1dce 1360     		str	r3, [r2]
 4552 1dd0 FEF7C8BD 		b	.L141
 4553              	.L768:
 4554              		.loc 1 948 0
 4555 1dd4 9F48     		ldr	r0, .L795+8
 4556 1dd6 FFF7FEFF 		bl	e_send_uart2_char
 4557              	.LVL402:
 4558              	.L195:
 4559              		.loc 1 949 0 discriminator 1
 4560 1dda FFF7FEFF 		bl	e_uart2_sending
ARM GAS  /var/folders/d2/nstgp4h54kz7g1l847x_b8wc0000gn/T//ccB20FE7.s 			page 81


 4561              	.LVL403:
 4562 1dde 0028     		cmp	r0, #0
 4563 1de0 FBD1     		bne	.L195
 4564 1de2 FEF7E7B9 		b	.L699
 4565              	.L95:
 4566              		.loc 1 509 0
 4567 1de6 FFF7FEFF 		bl	e_set_speed_left
 4568              	.LVL404:
 4569              		.loc 1 510 0
 4570 1dea 9C4B     		ldr	r3, .L795+16
 4571 1dec 1868     		ldr	r0, [r3]
 4572 1dee FFF7FEFF 		bl	e_set_speed_right
 4573              	.LVL405:
 4574 1df2 FEF7BFBE 		b	.L96
 4575              	.L763:
 4576              		.loc 1 775 0
 4577 1df6 0146     		mov	r1, r0
 4578 1df8 1846     		mov	r0, r3
 4579 1dfa FFF7FEFF 		bl	e_set_led
 4580              	.LVL406:
 4581              		.loc 1 776 0
 4582 1dfe FEF780BB 		b	.L47
 4583              	.L149:
 4584              		.loc 1 769 0
 4585 1e02 FFF7FEFF 		bl	e_set_body_led
 4586              	.LVL407:
 4587              		.loc 1 770 0
 4588 1e06 FEF77CBB 		b	.L47
 4589              	.L753:
 4590              		.loc 1 487 0
 4591 1e0a FFF7FEFF 		bl	serial_clear_last_errors
 4592              	.LVL408:
 4593              		.loc 1 488 0
 4594 1e0e FEF778BB 		b	.L47
 4595              	.LVL409:
 4596              	.L750:
 4597              		.loc 1 398 0
 4598 1e12 FFF7FEFF 		bl	VL53L0X_get_dist_mm
 4599              	.LVL410:
 4600              		.loc 1 399 0
 4601 1e16 DBF80030 		ldr	r3, [fp]
 4602              		.loc 1 400 0
 4603 1e1a FA18     		adds	r2, r7, r3
 4604              		.loc 1 399 0
 4605 1e1c F854     		strb	r0, [r7, r3]
 4606              		.loc 1 400 0
 4607 1e1e 0112     		asrs	r1, r0, #8
 4608 1e20 0233     		adds	r3, r3, #2
 4609 1e22 5170     		strb	r1, [r2, #1]
 4610 1e24 CBF80030 		str	r3, [fp]
 4611 1e28 FEF76ABC 		b	.L85
 4612              	.LVL411:
 4613              	.L749:
 4614              		.loc 1 377 0
 4615 1e2c FFF7FEFF 		bl	getTemperature
 4616              	.LVL412:
 4617 1e30 DBF80030 		ldr	r3, [fp]
ARM GAS  /var/folders/d2/nstgp4h54kz7g1l847x_b8wc0000gn/T//ccB20FE7.s 			page 82


 4618 1e34 5A1C     		adds	r2, r3, #1
 4619 1e36 F854     		strb	r0, [r7, r3]
 4620 1e38 CBF80020 		str	r2, [fp]
 4621 1e3c FEF72CBC 		b	.L81
 4622              	.LVL413:
 4623              	.L169:
 4624              		.loc 1 852 0
 4625 1e40 FFF7FEFF 		bl	getTemperature
 4626              	.LVL414:
 4627 1e44 DBF80020 		ldr	r2, [fp]
 4628 1e48 9AF80030 		ldrb	r3, [r10]	@ zero_extendqisi2
 4629 1e4c B854     		strb	r0, [r7, r2]
 4630 1e4e 0132     		adds	r2, r2, #1
 4631 1e50 CBF80020 		str	r2, [fp]
 4632 1e54 FEF75FBB 		b	.L170
 4633              	.LVL415:
 4634              	.L751:
 4635              		.loc 1 435 0
 4636 1e58 FFF7FEFF 		bl	sdio_connect
 4637              	.LVL416:
 4638              		.loc 1 436 0
 4639 1e5c DBF80030 		ldr	r3, [fp]
 4640              		.loc 1 435 0
 4641 1e60 B0FA80F0 		clz	r0, r0
 4642 1e64 4009     		lsrs	r0, r0, #5
 4643              		.loc 1 436 0
 4644 1e66 5A1C     		adds	r2, r3, #1
 4645              		.loc 1 435 0
 4646 1e68 F854     		strb	r0, [r7, r3]
 4647              		.loc 1 436 0
 4648 1e6a CBF80020 		str	r2, [fp]
 4649              		.loc 1 437 0
 4650 1e6e FFF7FEFF 		bl	sdio_disconnect
 4651              	.LVL417:
 4652 1e72 DBF80040 		ldr	r4, [fp]
 4653 1e76 FEF79DBC 		b	.L87
 4654              	.LVL418:
 4655              	.L745:
 4656              		.loc 1 634 0
 4657 1e7a 0121     		movs	r1, #1
 4658 1e7c 2846     		mov	r0, r5
 4659 1e7e FFF7FEFF 		bl	e_get_acc_filtered
 4660              	.LVL419:
 4661 1e82 7A4C     		ldr	r4, .L795+32
 4662              		.loc 1 635 0
 4663 1e84 0121     		movs	r1, #1
 4664              		.loc 1 634 0
 4665 1e86 2060     		str	r0, [r4]
 4666              		.loc 1 635 0
 4667 1e88 0846     		mov	r0, r1
 4668 1e8a FFF7FEFF 		bl	e_get_acc_filtered
 4669              	.LVL420:
 4670 1e8e 784B     		ldr	r3, .L795+36
 4671              		.loc 1 636 0
 4672 1e90 0121     		movs	r1, #1
 4673              		.loc 1 635 0
 4674 1e92 1860     		str	r0, [r3]
ARM GAS  /var/folders/d2/nstgp4h54kz7g1l847x_b8wc0000gn/T//ccB20FE7.s 			page 83


 4675              		.loc 1 636 0
 4676 1e94 0220     		movs	r0, #2
 4677 1e96 FFF7FEFF 		bl	e_get_acc_filtered
 4678              	.LVL421:
 4679 1e9a 754B     		ldr	r3, .L795+36
 4680 1e9c 2468     		ldr	r4, [r4]
 4681 1e9e 1A68     		ldr	r2, [r3]
 4682 1ea0 744B     		ldr	r3, .L795+40
 4683 1ea2 5FFA80F8 		uxtb	r8, r0
 4684 1ea6 1860     		str	r0, [r3]
 4685 1ea8 5FFA84FE 		uxtb	lr, r4
 4686 1eac C0F30723 		ubfx	r3, r0, #8, #8
 4687 1eb0 C4F30724 		ubfx	r4, r4, #8, #8
 4688 1eb4 5FFA82FC 		uxtb	ip, r2
 4689 1eb8 C2F30720 		ubfx	r0, r2, #8, #8
 4690 1ebc FEF712BB 		b	.L126
 4691              	.LVL422:
 4692              	.L748:
 4693              		.loc 1 349 0
 4694 1ec0 6D4A     		ldr	r2, .L795+44
 4695 1ec2 6E49     		ldr	r1, .L795+48
 4696 1ec4 6E48     		ldr	r0, .L795+52
 4697 1ec6 FFF7FEFF 		bl	getAllAxesGyro
 4698              	.LVL423:
 4699              		.loc 1 350 0
 4700 1eca 6D4B     		ldr	r3, .L795+52
 4701 1ecc DBF80020 		ldr	r2, [fp]
 4702 1ed0 1968     		ldr	r1, [r3]
 4703              		.loc 1 352 0
 4704 1ed2 6A4B     		ldr	r3, .L795+48
 4705              		.loc 1 350 0
 4706 1ed4 B954     		strb	r1, [r7, r2]
 4707              		.loc 1 352 0
 4708 1ed6 1C68     		ldr	r4, [r3]
 4709              		.loc 1 354 0
 4710 1ed8 674B     		ldr	r3, .L795+44
 4711 1eda 1868     		ldr	r0, [r3]
 4712              		.loc 1 351 0
 4713 1edc BB18     		adds	r3, r7, r2
 4714 1ede 0912     		asrs	r1, r1, #8
 4715              		.loc 1 355 0
 4716 1ee0 0632     		adds	r2, r2, #6
 4717              		.loc 1 351 0
 4718 1ee2 5970     		strb	r1, [r3, #1]
 4719              		.loc 1 355 0
 4720 1ee4 CBF80020 		str	r2, [fp]
 4721              		.loc 1 353 0
 4722 1ee8 2112     		asrs	r1, r4, #8
 4723              		.loc 1 355 0
 4724 1eea 0212     		asrs	r2, r0, #8
 4725              		.loc 1 352 0
 4726 1eec 9C70     		strb	r4, [r3, #2]
 4727              		.loc 1 353 0
 4728 1eee D970     		strb	r1, [r3, #3]
 4729              		.loc 1 354 0
 4730 1ef0 1871     		strb	r0, [r3, #4]
 4731              		.loc 1 355 0
ARM GAS  /var/folders/d2/nstgp4h54kz7g1l847x_b8wc0000gn/T//ccB20FE7.s 			page 84


 4732 1ef2 5A71     		strb	r2, [r3, #5]
 4733 1ef4 FEF7ACBB 		b	.L78
 4734              	.LVL424:
 4735              	.L747:
 4736              		.loc 1 314 0
 4737 1ef8 FFF7FEFF 		bl	e_read_acc_spheric
 4738              	.LVL425:
 4739 1efc 614B     		ldr	r3, .L795+56
 4740 1efe C3ED010A 		vstr.32	s1, [r3, #4]
 4741 1f02 1A79     		ldrb	r2, [r3, #4]	@ zero_extendqisi2
 4742 1f04 83ED021A 		vstr.32	s2, [r3, #8]
 4743 1f08 1446     		mov	r4, r2
 4744 1f0a 5A79     		ldrb	r2, [r3, #5]	@ zero_extendqisi2
 4745 1f0c 0892     		str	r2, [sp, #32]
 4746 1f0e 9A79     		ldrb	r2, [r3, #6]	@ zero_extendqisi2
 4747 1f10 0992     		str	r2, [sp, #36]
 4748 1f12 DA79     		ldrb	r2, [r3, #7]	@ zero_extendqisi2
 4749 1f14 0A92     		str	r2, [sp, #40]
 4750 1f16 1A7A     		ldrb	r2, [r3, #8]	@ zero_extendqisi2
 4751 1f18 0B92     		str	r2, [sp, #44]
 4752 1f1a 5A7A     		ldrb	r2, [r3, #9]	@ zero_extendqisi2
 4753 1f1c 83ED000A 		vstr.32	s0, [r3]
 4754 1f20 0C92     		str	r2, [sp, #48]
 4755 1f22 9A7A     		ldrb	r2, [r3, #10]	@ zero_extendqisi2
 4756 1f24 0D92     		str	r2, [sp, #52]
 4757 1f26 1878     		ldrb	r0, [r3]	@ zero_extendqisi2
 4758 1f28 93F80180 		ldrb	r8, [r3, #1]	@ zero_extendqisi2
 4759 1f2c 93F802E0 		ldrb	lr, [r3, #2]	@ zero_extendqisi2
 4760 1f30 93F803C0 		ldrb	ip, [r3, #3]	@ zero_extendqisi2
 4761 1f34 D97A     		ldrb	r1, [r3, #11]	@ zero_extendqisi2
 4762 1f36 DBF80020 		ldr	r2, [fp]
 4763 1f3a FEF75CBB 		b	.L76
 4764              	.L746:
 4765              		.loc 1 298 0
 4766 1f3e 2846     		mov	r0, r5
 4767 1f40 FFF7FEFF 		bl	e_get_acc
 4768              	.LVL426:
 4769 1f44 494C     		ldr	r4, .L795+32
 4770 1f46 2060     		str	r0, [r4]
 4771              		.loc 1 299 0
 4772 1f48 0120     		movs	r0, #1
 4773 1f4a FFF7FEFF 		bl	e_get_acc
 4774              	.LVL427:
 4775 1f4e 484B     		ldr	r3, .L795+36
 4776 1f50 1860     		str	r0, [r3]
 4777              		.loc 1 300 0
 4778 1f52 0220     		movs	r0, #2
 4779 1f54 FFF7FEFF 		bl	e_get_acc
 4780              	.LVL428:
 4781 1f58 454B     		ldr	r3, .L795+36
 4782 1f5a 2468     		ldr	r4, [r4]
 4783 1f5c 1A68     		ldr	r2, [r3]
 4784 1f5e 454B     		ldr	r3, .L795+40
 4785 1f60 5FFA80F8 		uxtb	r8, r0
 4786 1f64 1860     		str	r0, [r3]
 4787 1f66 5FFA84FE 		uxtb	lr, r4
 4788 1f6a C0F30723 		ubfx	r3, r0, #8, #8
ARM GAS  /var/folders/d2/nstgp4h54kz7g1l847x_b8wc0000gn/T//ccB20FE7.s 			page 85


 4789 1f6e C4F30724 		ubfx	r4, r4, #8, #8
 4790 1f72 5FFA82FC 		uxtb	ip, r2
 4791 1f76 C2F30720 		ubfx	r0, r2, #8, #8
 4792 1f7a FEF717BB 		b	.L74
 4793              	.L760:
 4794              		.loc 1 624 0
 4795 1f7e FFF7FEFF 		bl	sdio_connect
 4796              	.LVL429:
 4797              		.loc 1 625 0
 4798 1f82 DBF80030 		ldr	r3, [fp]
 4799              		.loc 1 624 0
 4800 1f86 B0FA80F0 		clz	r0, r0
 4801              		.loc 1 625 0
 4802 1f8a 5A1C     		adds	r2, r3, #1
 4803              		.loc 1 624 0
 4804 1f8c 4009     		lsrs	r0, r0, #5
 4805 1f8e F854     		strb	r0, [r7, r3]
 4806              		.loc 1 625 0
 4807 1f90 CBF80020 		str	r2, [fp]
 4808              		.loc 1 626 0
 4809 1f94 FFF7FEFF 		bl	sdio_disconnect
 4810              	.LVL430:
 4811 1f98 FEF7B3BA 		b	.L47
 4812              	.L752:
 4813              		.loc 1 729 0
 4814 1f9c 364A     		ldr	r2, .L795+44
 4815 1f9e 3749     		ldr	r1, .L795+48
 4816 1fa0 3748     		ldr	r0, .L795+52
 4817 1fa2 FFF7FEFF 		bl	getAllAxesGyro
 4818              	.LVL431:
 4819              		.loc 1 730 0
 4820 1fa6 364B     		ldr	r3, .L795+52
 4821 1fa8 DBF80020 		ldr	r2, [fp]
 4822 1fac 1968     		ldr	r1, [r3]
 4823              		.loc 1 732 0
 4824 1fae 334B     		ldr	r3, .L795+48
 4825              		.loc 1 730 0
 4826 1fb0 B954     		strb	r1, [r7, r2]
 4827              		.loc 1 732 0
 4828 1fb2 1C68     		ldr	r4, [r3]
 4829              		.loc 1 734 0
 4830 1fb4 304B     		ldr	r3, .L795+44
 4831 1fb6 1868     		ldr	r0, [r3]
 4832              		.loc 1 731 0
 4833 1fb8 BB18     		adds	r3, r7, r2
 4834 1fba 0912     		asrs	r1, r1, #8
 4835              		.loc 1 735 0
 4836 1fbc 0632     		adds	r2, r2, #6
 4837              		.loc 1 731 0
 4838 1fbe 5970     		strb	r1, [r3, #1]
 4839              		.loc 1 735 0
 4840 1fc0 CBF80020 		str	r2, [fp]
 4841              		.loc 1 733 0
 4842 1fc4 2112     		asrs	r1, r4, #8
 4843              		.loc 1 735 0
 4844 1fc6 0212     		asrs	r2, r0, #8
 4845              		.loc 1 732 0
ARM GAS  /var/folders/d2/nstgp4h54kz7g1l847x_b8wc0000gn/T//ccB20FE7.s 			page 86


 4846 1fc8 9C70     		strb	r4, [r3, #2]
 4847              		.loc 1 733 0
 4848 1fca D970     		strb	r1, [r3, #3]
 4849              		.loc 1 734 0
 4850 1fcc 1871     		strb	r0, [r3, #4]
 4851              		.loc 1 735 0
 4852 1fce 5A71     		strb	r2, [r3, #5]
 4853 1fd0 FEF798BA 		b	.L122
 4854              	.L761:
 4855              		.loc 1 613 0
 4856 1fd4 FFF7FEFF 		bl	VL53L0X_get_dist_mm
 4857              	.LVL432:
 4858              		.loc 1 614 0
 4859 1fd8 DBF80030 		ldr	r3, [fp]
 4860              		.loc 1 615 0
 4861 1fdc FA18     		adds	r2, r7, r3
 4862              		.loc 1 614 0
 4863 1fde F854     		strb	r0, [r7, r3]
 4864              		.loc 1 615 0
 4865 1fe0 0112     		asrs	r1, r0, #8
 4866 1fe2 0233     		adds	r3, r3, #2
 4867 1fe4 5170     		strb	r1, [r2, #1]
 4868 1fe6 CBF80030 		str	r3, [fp]
 4869 1fea FEF78BBA 		b	.L122
 4870              	.L762:
 4871              		.loc 1 655 0
 4872 1fee FFF7FEFF 		bl	e_read_acc_spheric
 4873              	.LVL433:
 4874 1ff2 244B     		ldr	r3, .L795+56
 4875 1ff4 83ED000A 		vstr.32	s0, [r3]
 4876 1ff8 C3ED010A 		vstr.32	s1, [r3, #4]
 4877 1ffc DA78     		ldrb	r2, [r3, #3]	@ zero_extendqisi2
 4878 1ffe 0892     		str	r2, [sp, #32]
 4879 2000 9A79     		ldrb	r2, [r3, #6]	@ zero_extendqisi2
 4880 2002 83ED021A 		vstr.32	s2, [r3, #8]
 4881 2006 0992     		str	r2, [sp, #36]
 4882 2008 DA79     		ldrb	r2, [r3, #7]	@ zero_extendqisi2
 4883 200a 0A92     		str	r2, [sp, #40]
 4884 200c 1A7A     		ldrb	r2, [r3, #8]	@ zero_extendqisi2
 4885 200e 0B92     		str	r2, [sp, #44]
 4886 2010 5A7A     		ldrb	r2, [r3, #9]	@ zero_extendqisi2
 4887 2012 0C92     		str	r2, [sp, #48]
 4888 2014 9A7A     		ldrb	r2, [r3, #10]	@ zero_extendqisi2
 4889 2016 0D92     		str	r2, [sp, #52]
 4890 2018 93F80080 		ldrb	r8, [r3]	@ zero_extendqisi2
 4891 201c 93F801E0 		ldrb	lr, [r3, #1]	@ zero_extendqisi2
 4892 2020 93F802C0 		ldrb	ip, [r3, #2]	@ zero_extendqisi2
 4893 2024 1C79     		ldrb	r4, [r3, #4]	@ zero_extendqisi2
 4894 2026 5879     		ldrb	r0, [r3, #5]	@ zero_extendqisi2
 4895 2028 DA7A     		ldrb	r2, [r3, #11]	@ zero_extendqisi2
 4896 202a FEF793BE 		b	.L128
 4897              	.LVL434:
 4898              	.L743:
 4899              		.loc 1 211 0
 4900 202e FFF7FEFF 		bl	e_init_sound
 4901              	.LVL435:
 4902              		.loc 1 212 0
ARM GAS  /var/folders/d2/nstgp4h54kz7g1l847x_b8wc0000gn/T//ccB20FE7.s 			page 87


 4903 2032 154A     		ldr	r2, .L795+60
 4904 2034 0123     		movs	r3, #1
 4905 2036 1370     		strb	r3, [r2]
 4906 2038 FEF76BB9 		b	.L27
 4907              	.LVL436:
 4908              	.L744:
 4909              		.loc 1 273 0
 4910 203c FFF7FEFF 		bl	e_init_sound
 4911              	.LVL437:
 4912              		.loc 1 274 0
 4913 2040 114A     		ldr	r2, .L795+60
 4914 2042 0123     		movs	r3, #1
 4915 2044 1370     		strb	r3, [r2]
 4916 2046 FEF7B5B9 		b	.L43
 4917              	.L796:
 4918 204a 00BF     		.align	2
 4919              	.L795:
 4920 204c 380B0000 		.word	.LC95
 4921 2050 78000000 		.word	.LC3
 4922 2054 00000000 		.word	buffer
 4923 2058 00000000 		.word	.LANCHOR7
 4924 205c 00000000 		.word	.LANCHOR6
 4925 2060 00000000 		.word	.LANCHOR20
 4926 2064 00000000 		.word	.LANCHOR19
 4927 2068 00000000 		.word	.LANCHOR22
 4928 206c 00000000 		.word	.LANCHOR10
 4929 2070 00000000 		.word	.LANCHOR11
 4930 2074 00000000 		.word	.LANCHOR12
 4931 2078 00000000 		.word	.LANCHOR14
 4932 207c 00000000 		.word	.LANCHOR15
 4933 2080 00000000 		.word	.LANCHOR16
 4934 2084 00000000 		.word	.LANCHOR13
 4935 2088 00000000 		.word	.LANCHOR8
 4936              	.LVL438:
 4937              	.L767:
 4938              		.loc 1 936 0
 4939 208c C64B     		ldr	r3, .L797
 4940 208e 1D70     		strb	r5, [r3]
 4941              		.loc 1 937 0
 4942 2090 FFF7FEFF 		bl	e_poxxxx_wait_img_ready
 4943              	.LVL439:
 4944              		.loc 1 938 0
 4945 2094 FFF7FEFF 		bl	cam_get_last_image_ptr
 4946              	.LVL440:
 4947 2098 0E9B     		ldr	r3, [sp, #56]
 4948 209a 1A68     		ldr	r2, [r3]
 4949 209c 0F9B     		ldr	r3, [sp, #60]
 4950 209e 0146     		mov	r1, r0
 4951 20a0 F818     		adds	r0, r7, r3
 4952 20a2 FFF7FEFF 		bl	memcpy
 4953              	.LVL441:
 4954 20a6 DBF80010 		ldr	r1, [fp]
 4955 20aa FEF7D8BF 		b	.L193
 4956              	.L755:
 4957              		.loc 1 553 0
 4958 20ae 0022     		movs	r2, #0
 4959 20b0 0221     		movs	r1, #2
ARM GAS  /var/folders/d2/nstgp4h54kz7g1l847x_b8wc0000gn/T//ccB20FE7.s 			page 88


 4960 20b2 0320     		movs	r0, #3
 4961 20b4 FFF7FEFF 		bl	playMelody
 4962              	.LVL442:
 4963 20b8 9DF86230 		ldrb	r3, [sp, #98]	@ zero_extendqisi2
 4964              		.loc 1 555 0
 4965 20bc 9C07     		lsls	r4, r3, #30
 4966 20be 7EF5BBAD 		bpl	.L110
 4967              	.L756:
 4968              		.loc 1 556 0
 4969 20c2 0420     		movs	r0, #4
 4970 20c4 0022     		movs	r2, #0
 4971 20c6 0221     		movs	r1, #2
 4972 20c8 FFF7FEFF 		bl	playMelody
 4973              	.LVL443:
 4974 20cc 9DF86230 		ldrb	r3, [sp, #98]	@ zero_extendqisi2
 4975              		.loc 1 558 0
 4976 20d0 5807     		lsls	r0, r3, #29
 4977 20d2 7EF5B4AD 		bpl	.L111
 4978              	.L757:
 4979              		.loc 1 559 0
 4980 20d6 0221     		movs	r1, #2
 4981 20d8 0022     		movs	r2, #0
 4982 20da 0B20     		movs	r0, #11
 4983 20dc FFF7FEFF 		bl	playMelody
 4984              	.LVL444:
 4985 20e0 9DF86230 		ldrb	r3, [sp, #98]	@ zero_extendqisi2
 4986              		.loc 1 561 0
 4987 20e4 1907     		lsls	r1, r3, #28
 4988 20e6 7EF5ADAD 		bpl	.L112
 4989              	.L758:
 4990              		.loc 1 562 0
 4991 20ea 40F69461 		movw	r1, #3732
 4992 20ee 41F67E40 		movw	r0, #7294
 4993 20f2 FFF7FEFF 		bl	e_play_sound
 4994              	.LVL445:
 4995 20f6 9DF86230 		ldrb	r3, [sp, #98]	@ zero_extendqisi2
 4996              		.loc 1 564 0
 4997 20fa DA06     		lsls	r2, r3, #27
 4998 20fc 7EF5A5AD 		bpl	.L113
 4999              	.L759:
 5000              		.loc 1 565 0
 5001 2100 41F65071 		movw	r1, #8016
 5002 2104 42F61430 		movw	r0, #11028
 5003 2108 FFF7FEFF 		bl	e_play_sound
 5004              	.LVL446:
 5005 210c 9DF86230 		ldrb	r3, [sp, #98]	@ zero_extendqisi2
 5006 2110 FEF79BBD 		b	.L113
 5007              	.L754:
 5008              		.loc 1 493 0
 5009 2114 FFF7FEFF 		bl	calibrate_ir
 5010              	.LVL447:
 5011 2118 9DF85020 		ldrb	r2, [sp, #80]	@ zero_extendqisi2
 5012 211c FEF712BD 		b	.L94
 5013              	.L270:
 5014              	.LBB6:
 5015              		.loc 1 1073 0
 5016 2120 A24B     		ldr	r3, .L797+4
ARM GAS  /var/folders/d2/nstgp4h54kz7g1l847x_b8wc0000gn/T//ccB20FE7.s 			page 89


 5017              	.L726:
 5018 2122 03CB     		ldmia	r3!, {r0, r1}
 5019 2124 1B88     		ldrh	r3, [r3]	@ unaligned
 5020 2126 3B81     		strh	r3, [r7, #8]	@ unaligned
 5021 2128 3860     		str	r0, [r7]	@ unaligned
 5022 212a 7960     		str	r1, [r7, #4]	@ unaligned
 5023 212c FDF7B2BF 		b	.L5
 5024              	.L738:
 5025              		.loc 1 993 0
 5026 2130 FFF7FEFF 		bl	getBatteryValueRaw
 5027              	.LVL448:
 5028 2134 0446     		mov	r4, r0
 5029 2136 FFF7FEFF 		bl	getBatteryValuePercentage
 5030              	.LVL449:
 5031 213a 2246     		mov	r2, r4
 5032 213c 0346     		mov	r3, r0
 5033 213e 9C49     		ldr	r1, .L797+8
 5034 2140 9C48     		ldr	r0, .L797+12
 5035 2142 FFF7FEFF 		bl	sprintf
 5036              	.LVL450:
 5037              	.L433:
 5038 2146 9B48     		ldr	r0, .L797+12
 5039 2148 FFF7FEFF 		bl	strlen
 5040              	.LVL451:
 5041              		.loc 1 996 0
 5042 214c 079B     		ldr	r3, [sp, #28]
 5043 214e 0146     		mov	r1, r0
 5044              		.loc 1 997 0
 5045 2150 9848     		ldr	r0, .L797+12
 5046              		.loc 1 996 0
 5047 2152 002B     		cmp	r3, #0
 5048 2154 00F0F780 		beq	.L249
 5049              		.loc 1 997 0
 5050 2158 FFF7FEFF 		bl	e_send_uart1_char
 5051              	.LVL452:
 5052              	.L250:
 5053              		.loc 1 997 0 is_stmt 0 discriminator 2
 5054 215c FFF7FEFF 		bl	e_uart1_sending
 5055              	.LVL453:
 5056 2160 0028     		cmp	r0, #0
 5057 2162 FBD1     		bne	.L250
 5058 2164 FDF799BF 		b	.L708
 5059              	.L392:
 5060              		.loc 1 1412 0 is_stmt 1
 5061 2168 934B     		ldr	r3, .L797+16
 5062 216a 1868     		ldr	r0, [r3]
 5063 216c 9B88     		ldrh	r3, [r3, #4]	@ unaligned
 5064 216e 3860     		str	r0, [r7]	@ unaligned
 5065 2170 BB80     		strh	r3, [r7, #4]	@ unaligned
 5066 2172 FDF78FBF 		b	.L5
 5067              	.L351:
 5068              		.loc 1 1253 0
 5069 2176 0121     		movs	r1, #1
 5070 2178 0820     		movs	r0, #8
 5071 217a FFF7FEFF 		bl	e_set_led
 5072              	.LVL454:
 5073              		.loc 1 1255 0
ARM GAS  /var/folders/d2/nstgp4h54kz7g1l847x_b8wc0000gn/T//ccB20FE7.s 			page 90


 5074 217e 4FF4C870 		mov	r0, #400
 5075 2182 FFF7FEFF 		bl	chThdSleep
 5076              	.LVL455:
 5077              		.loc 1 1256 0
 5078 2186 FFF7FEFF 		bl	e_led_clear
 5079              	.LVL456:
 5080              		.loc 1 1258 0
 5081 218a 6420     		movs	r0, #100
 5082 218c FFF7FEFF 		bl	chThdSleep
 5083              	.LVL457:
 5084              		.loc 1 1259 0
 5085 2190 FFF7FEFF 		bl	e_calibrate_ir
 5086              	.LVL458:
 5087 2194 FDF77EBF 		b	.L5
 5088              	.LVL459:
 5089              	.L400:
 5090              		.loc 1 1441 0
 5091 2198 884B     		ldr	r3, .L797+20
 5092 219a 8949     		ldr	r1, .L797+24
 5093 219c 1A68     		ldr	r2, [r3]
 5094 219e 8548     		ldr	r0, .L797+12
 5095 21a0 FFF7FEFF 		bl	sprintf
 5096              	.LVL460:
 5097 21a4 FDF776BF 		b	.L5
 5098              	.L244:
 5099              		.loc 1 982 0
 5100 21a8 864B     		ldr	r3, .L797+28
 5101 21aa BAE7     		b	.L726
 5102              	.L420:
 5103              		.loc 1 1495 0
 5104 21ac FFF7FEFF 		bl	strlen
 5105              	.LVL461:
 5106 21b0 0146     		mov	r1, r0
 5107 21b2 2046     		mov	r0, r4
 5108 21b4 FFF7FEFF 		bl	e_send_uart2_char
 5109              	.LVL462:
 5110              	.L422:
 5111              		.loc 1 1495 0 is_stmt 0 discriminator 2
 5112 21b8 FFF7FEFF 		bl	e_uart2_sending
 5113              	.LVL463:
 5114 21bc 0028     		cmp	r0, #0
 5115 21be FBD1     		bne	.L422
 5116 21c0 FFF70DB8 		b	.L419
 5117              	.L91:
 5118              	.LBE6:
 5119              		.loc 1 476 0 is_stmt 1
 5120 21c4 804A     		ldr	r2, .L797+32
 5121 21c6 D2F85432 		ldr	r3, [r2, #596]
 5122 21ca 1B68     		ldr	r3, [r3]
 5123 21cc 1B78     		ldrb	r3, [r3]	@ zero_extendqisi2
 5124 21ce 042B     		cmp	r3, #4
 5125 21d0 05D1     		bne	.L92
 5126              		.loc 1 477 0
 5127 21d2 1368     		ldr	r3, [r2]
 5128 21d4 1046     		mov	r0, r2
 5129 21d6 5B68     		ldr	r3, [r3, #4]
 5130 21d8 1322     		movs	r2, #19
ARM GAS  /var/folders/d2/nstgp4h54kz7g1l847x_b8wc0000gn/T//ccB20FE7.s 			page 91


 5131 21da 14A9     		add	r1, sp, #80
 5132 21dc 9847     		blx	r3
 5133              	.LVL464:
 5134              	.L92:
 5135              		.loc 1 480 0
 5136 21de 0A20     		movs	r0, #10
 5137 21e0 FFF7FEFF 		bl	chThdSleep
 5138              	.LVL465:
 5139 21e4 FEF7A4BC 		b	.L90
 5140              	.L389:
 5141              	.LBB7:
 5142              		.loc 1 1404 0
 5143 21e8 FFF7FEFF 		bl	e_send_uart2_char
 5144              	.LVL466:
 5145              	.L391:
 5146              		.loc 1 1404 0 is_stmt 0 discriminator 2
 5147 21ec FFF7FEFF 		bl	e_uart2_sending
 5148              	.LVL467:
 5149 21f0 0028     		cmp	r0, #0
 5150 21f2 FBD1     		bne	.L391
 5151 21f4 FDF7DEBF 		b	.L699
 5152              	.L352:
 5153              		.loc 1 1250 0 is_stmt 1
 5154 21f8 FFF7FEFF 		bl	e_send_uart2_char
 5155              	.LVL468:
 5156              	.L355:
 5157              		.loc 1 1250 0 is_stmt 0 discriminator 2
 5158 21fc FFF7FEFF 		bl	e_uart2_sending
 5159              	.LVL469:
 5160 2200 0028     		cmp	r0, #0
 5161 2202 FBD1     		bne	.L355
 5162              		.loc 1 1253 0 is_stmt 1
 5163 2204 0121     		movs	r1, #1
 5164 2206 0820     		movs	r0, #8
 5165 2208 FFF7FEFF 		bl	e_set_led
 5166              	.LVL470:
 5167              		.loc 1 1255 0
 5168 220c 4FF4C870 		mov	r0, #400
 5169 2210 FFF7FEFF 		bl	chThdSleep
 5170              	.LVL471:
 5171              		.loc 1 1256 0
 5172 2214 FFF7FEFF 		bl	e_led_clear
 5173              	.LVL472:
 5174              		.loc 1 1258 0
 5175 2218 6420     		movs	r0, #100
 5176 221a FFF7FEFF 		bl	chThdSleep
 5177              	.LVL473:
 5178              		.loc 1 1259 0
 5179 221e FFF7FEFF 		bl	e_calibrate_ir
 5180              	.LVL474:
 5181              		.loc 1 1265 0
 5182 2222 1921     		movs	r1, #25
 5183 2224 6948     		ldr	r0, .L797+36
 5184 2226 FFF7FEFF 		bl	e_send_uart2_char
 5185              	.LVL475:
 5186              	.L358:
 5187              		.loc 1 1265 0 is_stmt 0 discriminator 2
ARM GAS  /var/folders/d2/nstgp4h54kz7g1l847x_b8wc0000gn/T//ccB20FE7.s 			page 92


 5188 222a FFF7FEFF 		bl	e_uart2_sending
 5189              	.LVL476:
 5190 222e 0028     		cmp	r0, #0
 5191 2230 FBD1     		bne	.L358
 5192 2232 FDF7BFBF 		b	.L699
 5193              	.LVL477:
 5194              	.L374:
 5195              		.loc 1 1353 0 is_stmt 1
 5196 2236 FFF7FEFF 		bl	e_send_uart2_char
 5197              	.LVL478:
 5198              	.L376:
 5199              		.loc 1 1353 0 is_stmt 0 discriminator 2
 5200 223a FFF7FEFF 		bl	e_uart2_sending
 5201              	.LVL479:
 5202 223e 0028     		cmp	r0, #0
 5203 2240 FBD1     		bne	.L376
 5204 2242 FDF7B7BF 		b	.L699
 5205              	.L255:
 5206              		.loc 1 1021 0 is_stmt 1
 5207 2246 FFF7FEFF 		bl	e_send_uart2_char
 5208              	.LVL480:
 5209              	.L257:
 5210              		.loc 1 1021 0 is_stmt 0 discriminator 2
 5211 224a FFF7FEFF 		bl	e_uart2_sending
 5212              	.LVL481:
 5213 224e 0028     		cmp	r0, #0
 5214 2250 FBD1     		bne	.L257
 5215 2252 FDF7AFBF 		b	.L699
 5216              	.L252:
 5217              		.loc 1 1010 0 is_stmt 1
 5218 2256 FFF7FEFF 		bl	e_send_uart2_char
 5219              	.LVL482:
 5220              	.L254:
 5221              		.loc 1 1010 0 is_stmt 0 discriminator 2
 5222 225a FFF7FEFF 		bl	e_uart2_sending
 5223              	.LVL483:
 5224 225e 0028     		cmp	r0, #0
 5225 2260 FBD1     		bne	.L254
 5226 2262 FDF7A7BF 		b	.L699
 5227              	.L740:
 5228              		.loc 1 1080 0 is_stmt 1
 5229 2266 5348     		ldr	r0, .L797+12
 5230 2268 FFF7FEFF 		bl	strlen
 5231              	.LVL484:
 5232 226c 0146     		mov	r1, r0
 5233 226e 5148     		ldr	r0, .L797+12
 5234 2270 FFF7FEFF 		bl	e_send_uart2_char
 5235              	.LVL485:
 5236              	.L274:
 5237              		.loc 1 1080 0 is_stmt 0 discriminator 2
 5238 2274 FFF7FEFF 		bl	e_uart2_sending
 5239              	.LVL486:
 5240 2278 0028     		cmp	r0, #0
 5241 227a FBD1     		bne	.L274
 5242 227c FDF79ABF 		b	.L699
 5243              	.L377:
 5244              		.loc 1 1373 0 is_stmt 1
ARM GAS  /var/folders/d2/nstgp4h54kz7g1l847x_b8wc0000gn/T//ccB20FE7.s 			page 93


 5245 2280 FFF7FEFF 		bl	e_send_uart2_char
 5246              	.LVL487:
 5247              	.L379:
 5248              		.loc 1 1373 0 is_stmt 0 discriminator 2
 5249 2284 FFF7FEFF 		bl	e_uart2_sending
 5250              	.LVL488:
 5251 2288 0028     		cmp	r0, #0
 5252 228a FBD1     		bne	.L379
 5253 228c FDF792BF 		b	.L699
 5254              	.L365:
 5255              		.loc 1 1319 0 is_stmt 1
 5256 2290 FFF7FEFF 		bl	e_send_uart2_char
 5257              	.LVL489:
 5258              	.L367:
 5259              		.loc 1 1319 0 is_stmt 0 discriminator 2
 5260 2294 FFF7FEFF 		bl	e_uart2_sending
 5261              	.LVL490:
 5262 2298 0028     		cmp	r0, #0
 5263 229a FBD1     		bne	.L367
 5264 229c FDF78ABF 		b	.L699
 5265              	.L371:
 5266              		.loc 1 1343 0 is_stmt 1
 5267 22a0 FFF7FEFF 		bl	e_send_uart2_char
 5268              	.LVL491:
 5269              	.L373:
 5270              		.loc 1 1343 0 is_stmt 0 discriminator 2
 5271 22a4 FFF7FEFF 		bl	e_uart2_sending
 5272              	.LVL492:
 5273 22a8 0028     		cmp	r0, #0
 5274 22aa FBD1     		bne	.L373
 5275 22ac FDF782BF 		b	.L699
 5276              	.L397:
 5277              		.loc 1 1430 0 is_stmt 1
 5278 22b0 FFF7FEFF 		bl	e_send_uart2_char
 5279              	.LVL493:
 5280              	.L399:
 5281              		.loc 1 1430 0 is_stmt 0 discriminator 2
 5282 22b4 FFF7FEFF 		bl	e_uart2_sending
 5283              	.LVL494:
 5284 22b8 0028     		cmp	r0, #0
 5285 22ba FBD1     		bne	.L399
 5286 22bc FDF77ABF 		b	.L699
 5287              	.L368:
 5288              		.loc 1 1331 0 is_stmt 1
 5289 22c0 FFF7FEFF 		bl	e_send_uart2_char
 5290              	.LVL495:
 5291              	.L370:
 5292              		.loc 1 1331 0 is_stmt 0 discriminator 2
 5293 22c4 FFF7FEFF 		bl	e_uart2_sending
 5294              	.LVL496:
 5295 22c8 0028     		cmp	r0, #0
 5296 22ca FBD1     		bne	.L370
 5297 22cc FDF772BF 		b	.L699
 5298              	.L424:
 5299              		.loc 1 1507 0 is_stmt 1
 5300 22d0 FFF7FEFF 		bl	e_send_uart2_char
 5301              	.LVL497:
ARM GAS  /var/folders/d2/nstgp4h54kz7g1l847x_b8wc0000gn/T//ccB20FE7.s 			page 94


 5302              	.L426:
 5303              		.loc 1 1507 0 is_stmt 0 discriminator 2
 5304 22d4 FFF7FEFF 		bl	e_uart2_sending
 5305              	.LVL498:
 5306 22d8 0028     		cmp	r0, #0
 5307 22da FBD1     		bne	.L426
 5308 22dc FDF76ABF 		b	.L699
 5309              	.L401:
 5310              		.loc 1 1439 0 is_stmt 1
 5311 22e0 FFF7FEFF 		bl	e_send_uart2_char
 5312              	.LVL499:
 5313              	.L404:
 5314              		.loc 1 1439 0 is_stmt 0 discriminator 2
 5315 22e4 FFF7FEFF 		bl	e_uart2_sending
 5316              	.LVL500:
 5317 22e8 0028     		cmp	r0, #0
 5318 22ea FBD1     		bne	.L404
 5319              		.loc 1 1441 0 is_stmt 1
 5320 22ec 334B     		ldr	r3, .L797+20
 5321 22ee 3449     		ldr	r1, .L797+24
 5322 22f0 1A68     		ldr	r2, [r3]
 5323 22f2 3048     		ldr	r0, .L797+12
 5324 22f4 FFF7FEFF 		bl	sprintf
 5325              	.LVL501:
 5326              		.loc 1 1447 0
 5327 22f8 2E48     		ldr	r0, .L797+12
 5328 22fa FFF7FEFF 		bl	strlen
 5329              	.LVL502:
 5330 22fe 0146     		mov	r1, r0
 5331 2300 2C48     		ldr	r0, .L797+12
 5332 2302 FFF7FEFF 		bl	e_send_uart2_char
 5333              	.LVL503:
 5334              	.L407:
 5335              		.loc 1 1447 0 is_stmt 0 discriminator 2
 5336 2306 FFF7FEFF 		bl	e_uart2_sending
 5337              	.LVL504:
 5338 230a 0028     		cmp	r0, #0
 5339 230c FBD1     		bne	.L407
 5340 230e FDF751BF 		b	.L699
 5341              	.L770:
 5342              		.loc 1 989 0 is_stmt 1
 5343 2312 2848     		ldr	r0, .L797+12
 5344 2314 FFF7FEFF 		bl	strlen
 5345              	.LVL505:
 5346 2318 0146     		mov	r1, r0
 5347 231a 2648     		ldr	r0, .L797+12
 5348 231c FFF7FEFF 		bl	e_send_uart2_char
 5349              	.LVL506:
 5350              	.L248:
 5351              		.loc 1 989 0 is_stmt 0 discriminator 2
 5352 2320 FFF7FEFF 		bl	e_uart2_sending
 5353              	.LVL507:
 5354 2324 0028     		cmp	r0, #0
 5355 2326 FBD1     		bne	.L248
 5356 2328 FDF744BF 		b	.L699
 5357              	.L769:
 5358              		.loc 1 1419 0 is_stmt 1
ARM GAS  /var/folders/d2/nstgp4h54kz7g1l847x_b8wc0000gn/T//ccB20FE7.s 			page 95


 5359 232c 2148     		ldr	r0, .L797+12
 5360 232e FFF7FEFF 		bl	strlen
 5361              	.LVL508:
 5362 2332 0146     		mov	r1, r0
 5363 2334 1F48     		ldr	r0, .L797+12
 5364 2336 FFF7FEFF 		bl	e_send_uart2_char
 5365              	.LVL509:
 5366              	.L396:
 5367              		.loc 1 1419 0 is_stmt 0 discriminator 2
 5368 233a FFF7FEFF 		bl	e_uart2_sending
 5369              	.LVL510:
 5370 233e 0028     		cmp	r0, #0
 5371 2340 FBD1     		bne	.L396
 5372 2342 FDF737BF 		b	.L699
 5373              	.L249:
 5374              		.loc 1 999 0 is_stmt 1
 5375 2346 FFF7FEFF 		bl	e_send_uart2_char
 5376              	.LVL511:
 5377              	.L251:
 5378              		.loc 1 999 0 is_stmt 0 discriminator 2
 5379 234a FFF7FEFF 		bl	e_uart2_sending
 5380              	.LVL512:
 5381 234e 0028     		cmp	r0, #0
 5382 2350 FBD1     		bne	.L251
 5383 2352 FDF72FBF 		b	.L699
 5384              	.L267:
 5385              		.loc 1 1065 0 is_stmt 1
 5386 2356 FFF7FEFF 		bl	e_send_uart2_char
 5387              	.LVL513:
 5388              	.L269:
 5389              		.loc 1 1065 0 is_stmt 0 discriminator 2
 5390 235a FFF7FEFF 		bl	e_uart2_sending
 5391              	.LVL514:
 5392 235e 0028     		cmp	r0, #0
 5393 2360 FBD1     		bne	.L269
 5394 2362 FDF727BF 		b	.L699
 5395              	.L261:
 5396              		.loc 1 1043 0 is_stmt 1
 5397 2366 FFF7FEFF 		bl	e_send_uart2_char
 5398              	.LVL515:
 5399              	.L263:
 5400              		.loc 1 1043 0 is_stmt 0 discriminator 2
 5401 236a FFF7FEFF 		bl	e_uart2_sending
 5402              	.LVL516:
 5403 236e 0028     		cmp	r0, #0
 5404 2370 FBD1     		bne	.L263
 5405 2372 FDF71FBF 		b	.L699
 5406              	.L258:
 5407              		.loc 1 1033 0 is_stmt 1
 5408 2376 FFF7FEFF 		bl	e_send_uart2_char
 5409              	.LVL517:
 5410              	.L260:
 5411              		.loc 1 1033 0 is_stmt 0 discriminator 2
 5412 237a FFF7FEFF 		bl	e_uart2_sending
 5413              	.LVL518:
 5414 237e 0028     		cmp	r0, #0
 5415 2380 FBD1     		bne	.L260
ARM GAS  /var/folders/d2/nstgp4h54kz7g1l847x_b8wc0000gn/T//ccB20FE7.s 			page 96


 5416 2382 FDF717BF 		b	.L699
 5417              	.L264:
 5418              		.loc 1 1054 0 is_stmt 1
 5419 2386 FFF7FEFF 		bl	e_send_uart2_char
 5420              	.LVL519:
 5421              	.L266:
 5422              		.loc 1 1054 0 is_stmt 0 discriminator 2
 5423 238a FFF7FEFF 		bl	e_uart2_sending
 5424              	.LVL520:
 5425 238e 0028     		cmp	r0, #0
 5426 2390 FBD1     		bne	.L266
 5427 2392 FDF70FBF 		b	.L699
 5428              	.L359:
 5429              		.loc 1 1276 0 is_stmt 1
 5430 2396 FFF7FEFF 		bl	e_send_uart2_char
 5431              	.LVL521:
 5432              	.L361:
 5433              		.loc 1 1276 0 is_stmt 0 discriminator 2
 5434 239a FFF7FEFF 		bl	e_uart2_sending
 5435              	.LVL522:
 5436 239e 0028     		cmp	r0, #0
 5437 23a0 FBD1     		bne	.L361
 5438 23a2 FDF707BF 		b	.L699
 5439              	.L798:
 5440 23a6 00BF     		.align	2
 5441              	.L797:
 5442 23a8 00000000 		.word	.LANCHOR21
 5443 23ac 08010000 		.word	.LC14
 5444 23b0 78000000 		.word	.LC3
 5445 23b4 00000000 		.word	buffer
 5446 23b8 BC0A0000 		.word	.LC86
 5447 23bc 00000000 		.word	.LANCHOR0
 5448 23c0 500B0000 		.word	.LC96
 5449 23c4 6C000000 		.word	.LC2
 5450 23c8 00000000 		.word	SDU1
 5451 23cc 640B0000 		.word	.LC97
 5452              	.L275:
 5453              		.loc 1 1165 0 is_stmt 1
 5454 23d0 FFF7FEFF 		bl	e_send_uart2_char
 5455              	.LVL523:
 5456              	.L309:
 5457              		.loc 1 1165 0 is_stmt 0 discriminator 2
 5458 23d4 FFF7FEFF 		bl	e_uart2_sending
 5459              	.LVL524:
 5460 23d8 0028     		cmp	r0, #0
 5461 23da FBD1     		bne	.L309
 5462              		.loc 1 1166 0 is_stmt 1
 5463 23dc FFF7FEFF 		bl	isEpuckVersion1_3
 5464              	.LVL525:
 5465 23e0 0028     		cmp	r0, #0
 5466 23e2 00F02A81 		beq	.L773
 5467              	.L310:
 5468              		.loc 1 1169 0
 5469 23e6 FFF7FEFF 		bl	isEpuckVersion1_3
 5470              	.LVL526:
 5471 23ea 0028     		cmp	r0, #0
 5472 23ec 00F00881 		beq	.L312
ARM GAS  /var/folders/d2/nstgp4h54kz7g1l847x_b8wc0000gn/T//ccB20FE7.s 			page 97


 5473              		.loc 1 1170 0
 5474 23f0 1921     		movs	r1, #25
 5475 23f2 A948     		ldr	r0, .L799
 5476 23f4 FFF7FEFF 		bl	e_send_uart2_char
 5477              	.LVL527:
 5478              	.L313:
 5479              		.loc 1 1170 0 is_stmt 0 discriminator 2
 5480 23f8 FFF7FEFF 		bl	e_uart2_sending
 5481              	.LVL528:
 5482 23fc 0028     		cmp	r0, #0
 5483 23fe FBD1     		bne	.L313
 5484              	.L314:
 5485              		.loc 1 1174 0 is_stmt 1
 5486 2400 2B21     		movs	r1, #43
 5487 2402 A648     		ldr	r0, .L799+4
 5488 2404 FFF7FEFF 		bl	e_send_uart2_char
 5489              	.LVL529:
 5490              	.L316:
 5491              		.loc 1 1174 0 is_stmt 0 discriminator 2
 5492 2408 FFF7FEFF 		bl	e_uart2_sending
 5493              	.LVL530:
 5494 240c 0028     		cmp	r0, #0
 5495 240e FBD1     		bne	.L316
 5496              		.loc 1 1175 0 is_stmt 1
 5497 2410 1D21     		movs	r1, #29
 5498 2412 A348     		ldr	r0, .L799+8
 5499 2414 FFF7FEFF 		bl	e_send_uart2_char
 5500              	.LVL531:
 5501              	.L317:
 5502              		.loc 1 1175 0 is_stmt 0 discriminator 2
 5503 2418 FFF7FEFF 		bl	e_uart2_sending
 5504              	.LVL532:
 5505 241c 0028     		cmp	r0, #0
 5506 241e FBD1     		bne	.L317
 5507              		.loc 1 1176 0 is_stmt 1
 5508 2420 2621     		movs	r1, #38
 5509 2422 A048     		ldr	r0, .L799+12
 5510 2424 FFF7FEFF 		bl	e_send_uart2_char
 5511              	.LVL533:
 5512              	.L318:
 5513              		.loc 1 1176 0 is_stmt 0 discriminator 2
 5514 2428 FFF7FEFF 		bl	e_uart2_sending
 5515              	.LVL534:
 5516 242c 0028     		cmp	r0, #0
 5517 242e FBD1     		bne	.L318
 5518              		.loc 1 1177 0 is_stmt 1
 5519 2430 2621     		movs	r1, #38
 5520 2432 9D48     		ldr	r0, .L799+16
 5521 2434 FFF7FEFF 		bl	e_send_uart2_char
 5522              	.LVL535:
 5523              	.L319:
 5524              		.loc 1 1177 0 is_stmt 0 discriminator 2
 5525 2438 FFF7FEFF 		bl	e_uart2_sending
 5526              	.LVL536:
 5527 243c 0028     		cmp	r0, #0
 5528 243e FBD1     		bne	.L319
 5529              		.loc 1 1178 0 is_stmt 1
ARM GAS  /var/folders/d2/nstgp4h54kz7g1l847x_b8wc0000gn/T//ccB20FE7.s 			page 98


 5530 2440 2C21     		movs	r1, #44
 5531 2442 9A48     		ldr	r0, .L799+20
 5532 2444 FFF7FEFF 		bl	e_send_uart2_char
 5533              	.LVL537:
 5534              	.L320:
 5535              		.loc 1 1178 0 is_stmt 0 discriminator 2
 5536 2448 FFF7FEFF 		bl	e_uart2_sending
 5537              	.LVL538:
 5538 244c 0028     		cmp	r0, #0
 5539 244e FBD1     		bne	.L320
 5540              		.loc 1 1180 0 is_stmt 1
 5541 2450 1721     		movs	r1, #23
 5542 2452 9748     		ldr	r0, .L799+24
 5543 2454 FFF7FEFF 		bl	e_send_uart2_char
 5544              	.LVL539:
 5545              	.L321:
 5546              		.loc 1 1180 0 is_stmt 0 discriminator 2
 5547 2458 FFF7FEFF 		bl	e_uart2_sending
 5548              	.LVL540:
 5549 245c 0028     		cmp	r0, #0
 5550 245e FBD1     		bne	.L321
 5551              		.loc 1 1182 0 is_stmt 1
 5552 2460 1021     		movs	r1, #16
 5553 2462 9448     		ldr	r0, .L799+28
 5554 2464 FFF7FEFF 		bl	e_send_uart2_char
 5555              	.LVL541:
 5556              	.L322:
 5557              		.loc 1 1182 0 is_stmt 0 discriminator 2
 5558 2468 FFF7FEFF 		bl	e_uart2_sending
 5559              	.LVL542:
 5560 246c 0028     		cmp	r0, #0
 5561 246e FBD1     		bne	.L322
 5562              		.loc 1 1183 0 is_stmt 1
 5563 2470 2221     		movs	r1, #34
 5564 2472 9148     		ldr	r0, .L799+32
 5565 2474 FFF7FEFF 		bl	e_send_uart2_char
 5566              	.LVL543:
 5567              	.L323:
 5568              		.loc 1 1183 0 is_stmt 0 discriminator 2
 5569 2478 FFF7FEFF 		bl	e_uart2_sending
 5570              	.LVL544:
 5571 247c 0028     		cmp	r0, #0
 5572 247e FBD1     		bne	.L323
 5573              		.loc 1 1184 0 is_stmt 1
 5574 2480 4D21     		movs	r1, #77
 5575 2482 8E48     		ldr	r0, .L799+36
 5576 2484 FFF7FEFF 		bl	e_send_uart2_char
 5577              	.LVL545:
 5578              	.L324:
 5579              		.loc 1 1184 0 is_stmt 0 discriminator 2
 5580 2488 FFF7FEFF 		bl	e_uart2_sending
 5581              	.LVL546:
 5582 248c 0028     		cmp	r0, #0
 5583 248e FBD1     		bne	.L324
 5584              		.loc 1 1185 0 is_stmt 1
 5585 2490 2721     		movs	r1, #39
 5586 2492 8B48     		ldr	r0, .L799+40
ARM GAS  /var/folders/d2/nstgp4h54kz7g1l847x_b8wc0000gn/T//ccB20FE7.s 			page 99


 5587 2494 FFF7FEFF 		bl	e_send_uart2_char
 5588              	.LVL547:
 5589              	.L325:
 5590              		.loc 1 1185 0 is_stmt 0 discriminator 2
 5591 2498 FFF7FEFF 		bl	e_uart2_sending
 5592              	.LVL548:
 5593 249c 0028     		cmp	r0, #0
 5594 249e FBD1     		bne	.L325
 5595              		.loc 1 1186 0 is_stmt 1
 5596 24a0 2B21     		movs	r1, #43
 5597 24a2 8848     		ldr	r0, .L799+44
 5598 24a4 FFF7FEFF 		bl	e_send_uart2_char
 5599              	.LVL549:
 5600              	.L326:
 5601              		.loc 1 1186 0 is_stmt 0 discriminator 2
 5602 24a8 FFF7FEFF 		bl	e_uart2_sending
 5603              	.LVL550:
 5604 24ac 0028     		cmp	r0, #0
 5605 24ae FBD1     		bne	.L326
 5606              		.loc 1 1188 0 is_stmt 1
 5607 24b0 1921     		movs	r1, #25
 5608 24b2 8548     		ldr	r0, .L799+48
 5609 24b4 FFF7FEFF 		bl	e_send_uart2_char
 5610              	.LVL551:
 5611              	.L327:
 5612              		.loc 1 1188 0 is_stmt 0 discriminator 2
 5613 24b8 FFF7FEFF 		bl	e_uart2_sending
 5614              	.LVL552:
 5615 24bc 0028     		cmp	r0, #0
 5616 24be FBD1     		bne	.L327
 5617              		.loc 1 1190 0 is_stmt 1
 5618 24c0 1521     		movs	r1, #21
 5619 24c2 8248     		ldr	r0, .L799+52
 5620 24c4 FFF7FEFF 		bl	e_send_uart2_char
 5621              	.LVL553:
 5622              	.L328:
 5623              		.loc 1 1190 0 is_stmt 0 discriminator 2
 5624 24c8 FFF7FEFF 		bl	e_uart2_sending
 5625              	.LVL554:
 5626 24cc 0028     		cmp	r0, #0
 5627 24ce FBD1     		bne	.L328
 5628              		.loc 1 1191 0 is_stmt 1
 5629 24d0 1921     		movs	r1, #25
 5630 24d2 7F48     		ldr	r0, .L799+56
 5631 24d4 FFF7FEFF 		bl	e_send_uart2_char
 5632              	.LVL555:
 5633              	.L329:
 5634              		.loc 1 1191 0 is_stmt 0 discriminator 2
 5635 24d8 FFF7FEFF 		bl	e_uart2_sending
 5636              	.LVL556:
 5637 24dc 0028     		cmp	r0, #0
 5638 24de FBD1     		bne	.L329
 5639              		.loc 1 1192 0 is_stmt 1
 5640 24e0 2921     		movs	r1, #41
 5641 24e2 7C48     		ldr	r0, .L799+60
 5642 24e4 FFF7FEFF 		bl	e_send_uart2_char
 5643              	.LVL557:
ARM GAS  /var/folders/d2/nstgp4h54kz7g1l847x_b8wc0000gn/T//ccB20FE7.s 			page 100


 5644              	.L330:
 5645              		.loc 1 1192 0 is_stmt 0 discriminator 2
 5646 24e8 FFF7FEFF 		bl	e_uart2_sending
 5647              	.LVL558:
 5648 24ec 0028     		cmp	r0, #0
 5649 24ee FBD1     		bne	.L330
 5650              		.loc 1 1193 0 is_stmt 1
 5651 24f0 2921     		movs	r1, #41
 5652 24f2 7948     		ldr	r0, .L799+64
 5653 24f4 FFF7FEFF 		bl	e_send_uart2_char
 5654              	.LVL559:
 5655              	.L331:
 5656              		.loc 1 1193 0 is_stmt 0 discriminator 2
 5657 24f8 FFF7FEFF 		bl	e_uart2_sending
 5658              	.LVL560:
 5659 24fc 0028     		cmp	r0, #0
 5660 24fe FBD1     		bne	.L331
 5661              		.loc 1 1194 0 is_stmt 1
 5662 2500 1821     		movs	r1, #24
 5663 2502 7648     		ldr	r0, .L799+68
 5664 2504 FFF7FEFF 		bl	e_send_uart2_char
 5665              	.LVL561:
 5666              	.L332:
 5667              		.loc 1 1194 0 is_stmt 0 discriminator 2
 5668 2508 FFF7FEFF 		bl	e_uart2_sending
 5669              	.LVL562:
 5670 250c 0028     		cmp	r0, #0
 5671 250e FBD1     		bne	.L332
 5672              		.loc 1 1195 0 is_stmt 1
 5673 2510 2921     		movs	r1, #41
 5674 2512 7348     		ldr	r0, .L799+72
 5675 2514 FFF7FEFF 		bl	e_send_uart2_char
 5676              	.LVL563:
 5677              	.L333:
 5678              		.loc 1 1195 0 is_stmt 0 discriminator 2
 5679 2518 FFF7FEFF 		bl	e_uart2_sending
 5680              	.LVL564:
 5681 251c 0028     		cmp	r0, #0
 5682 251e FBD1     		bne	.L333
 5683              		.loc 1 1196 0 is_stmt 1
 5684 2520 2C21     		movs	r1, #44
 5685 2522 7048     		ldr	r0, .L799+76
 5686 2524 FFF7FEFF 		bl	e_send_uart2_char
 5687              	.LVL565:
 5688              	.L334:
 5689              		.loc 1 1196 0 is_stmt 0 discriminator 2
 5690 2528 FFF7FEFF 		bl	e_uart2_sending
 5691              	.LVL566:
 5692 252c 0028     		cmp	r0, #0
 5693 252e FBD1     		bne	.L334
 5694              		.loc 1 1197 0 is_stmt 1
 5695 2530 2421     		movs	r1, #36
 5696 2532 6D48     		ldr	r0, .L799+80
 5697 2534 FFF7FEFF 		bl	e_send_uart2_char
 5698              	.LVL567:
 5699              	.L335:
 5700              		.loc 1 1197 0 is_stmt 0 discriminator 2
ARM GAS  /var/folders/d2/nstgp4h54kz7g1l847x_b8wc0000gn/T//ccB20FE7.s 			page 101


 5701 2538 FFF7FEFF 		bl	e_uart2_sending
 5702              	.LVL568:
 5703 253c 0028     		cmp	r0, #0
 5704 253e FBD1     		bne	.L335
 5705              		.loc 1 1198 0 is_stmt 1
 5706 2540 1D21     		movs	r1, #29
 5707 2542 6A48     		ldr	r0, .L799+84
 5708 2544 FFF7FEFF 		bl	e_send_uart2_char
 5709              	.LVL569:
 5710              	.L336:
 5711              		.loc 1 1198 0 is_stmt 0 discriminator 2
 5712 2548 FFF7FEFF 		bl	e_uart2_sending
 5713              	.LVL570:
 5714 254c 0028     		cmp	r0, #0
 5715 254e FBD1     		bne	.L336
 5716              		.loc 1 1199 0 is_stmt 1
 5717 2550 2521     		movs	r1, #37
 5718 2552 6748     		ldr	r0, .L799+88
 5719 2554 FFF7FEFF 		bl	e_send_uart2_char
 5720              	.LVL571:
 5721              	.L337:
 5722              		.loc 1 1199 0 is_stmt 0 discriminator 2
 5723 2558 FFF7FEFF 		bl	e_uart2_sending
 5724              	.LVL572:
 5725 255c 0028     		cmp	r0, #0
 5726 255e FBD1     		bne	.L337
 5727              		.loc 1 1200 0 is_stmt 1
 5728 2560 2421     		movs	r1, #36
 5729 2562 6448     		ldr	r0, .L799+92
 5730 2564 FFF7FEFF 		bl	e_send_uart2_char
 5731              	.LVL573:
 5732              	.L338:
 5733              		.loc 1 1200 0 is_stmt 0 discriminator 2
 5734 2568 FFF7FEFF 		bl	e_uart2_sending
 5735              	.LVL574:
 5736 256c 0028     		cmp	r0, #0
 5737 256e FBD1     		bne	.L338
 5738 2570 FDF720BE 		b	.L699
 5739              	.L362:
 5740              		.loc 1 1287 0 is_stmt 1
 5741 2574 FFF7FEFF 		bl	strlen
 5742              	.LVL575:
 5743 2578 0146     		mov	r1, r0
 5744 257a 5F48     		ldr	r0, .L799+96
 5745 257c FFF7FEFF 		bl	e_send_uart2_char
 5746              	.LVL576:
 5747              	.L364:
 5748              		.loc 1 1287 0 is_stmt 0 discriminator 2
 5749 2580 FFF7FEFF 		bl	e_uart2_sending
 5750              	.LVL577:
 5751 2584 0028     		cmp	r0, #0
 5752 2586 FBD1     		bne	.L364
 5753 2588 FDF714BE 		b	.L699
 5754              	.L339:
 5755              		.loc 1 1209 0 is_stmt 1
 5756 258c FFF7FEFF 		bl	strlen
 5757              	.LVL578:
ARM GAS  /var/folders/d2/nstgp4h54kz7g1l847x_b8wc0000gn/T//ccB20FE7.s 			page 102


 5758 2590 0146     		mov	r1, r0
 5759 2592 5948     		ldr	r0, .L799+96
 5760 2594 FFF7FEFF 		bl	e_send_uart2_char
 5761              	.LVL579:
 5762              	.L341:
 5763              		.loc 1 1209 0 is_stmt 0 discriminator 2
 5764 2598 FFF7FEFF 		bl	e_uart2_sending
 5765              	.LVL580:
 5766 259c 0028     		cmp	r0, #0
 5767 259e FBD1     		bne	.L341
 5768 25a0 FDF708BE 		b	.L699
 5769              	.L348:
 5770              		.loc 1 1240 0 is_stmt 1
 5771 25a4 FFF7FEFF 		bl	e_send_uart2_char
 5772              	.LVL581:
 5773              	.L350:
 5774              		.loc 1 1240 0 is_stmt 0 discriminator 2
 5775 25a8 FFF7FEFF 		bl	e_uart2_sending
 5776              	.LVL582:
 5777 25ac 0028     		cmp	r0, #0
 5778 25ae FBD1     		bne	.L350
 5779 25b0 FDF700BE 		b	.L699
 5780              	.L408:
 5781              		.loc 1 1459 0 is_stmt 1
 5782 25b4 FFF7FEFF 		bl	e_send_uart2_char
 5783              	.LVL583:
 5784              	.L410:
 5785              		.loc 1 1459 0 is_stmt 0 discriminator 2
 5786 25b8 FFF7FEFF 		bl	e_uart2_sending
 5787              	.LVL584:
 5788 25bc 0028     		cmp	r0, #0
 5789 25be FBD1     		bne	.L410
 5790 25c0 FDF7F8BD 		b	.L699
 5791              	.L381:
 5792              		.loc 1 1394 0 is_stmt 1
 5793 25c4 FFF7FEFF 		bl	e_close_sound
 5794              	.LVL585:
 5795              		.loc 1 1395 0
 5796 25c8 FFF7FEFF 		bl	stopCurrentMelody
 5797              	.LVL586:
 5798              		.loc 1 1396 0
 5799 25cc 4B4A     		ldr	r2, .L799+100
 5800 25ce 0023     		movs	r3, #0
 5801 25d0 1370     		strb	r3, [r2]
 5802              		.loc 1 1397 0
 5803 25d2 FFF760BB 		b	.L388
 5804              	.L342:
 5805              		.loc 1 1221 0
 5806 25d6 109B     		ldr	r3, [sp, #64]
 5807 25d8 1A68     		ldr	r2, [r3]
 5808 25da 119B     		ldr	r3, [sp, #68]
 5809 25dc 1B68     		ldr	r3, [r3]
 5810 25de 03FB02F3 		mul	r3, r3, r2
 5811 25e2 0E9A     		ldr	r2, [sp, #56]
 5812 25e4 5B00     		lsls	r3, r3, #1
 5813 25e6 1360     		str	r3, [r2]
 5814 25e8 FEF797BE 		b	.L343
ARM GAS  /var/folders/d2/nstgp4h54kz7g1l847x_b8wc0000gn/T//ccB20FE7.s 			page 103


 5815              	.L279:
 5816              		.loc 1 1130 0
 5817 25ec 2F21     		movs	r1, #47
 5818 25ee 4448     		ldr	r0, .L799+104
 5819 25f0 FFF7FEFF 		bl	e_send_uart1_char
 5820              	.LVL587:
 5821              	.L282:
 5822              		.loc 1 1130 0 is_stmt 0 discriminator 2
 5823 25f4 FFF7FEFF 		bl	e_uart1_sending
 5824              	.LVL588:
 5825 25f8 0028     		cmp	r0, #0
 5826 25fa FBD1     		bne	.L282
 5827 25fc FFF769B8 		b	.L281
 5828              	.L312:
 5829              		.loc 1 1172 0 is_stmt 1
 5830 2600 2721     		movs	r1, #39
 5831 2602 4048     		ldr	r0, .L799+108
 5832 2604 FFF7FEFF 		bl	e_send_uart2_char
 5833              	.LVL589:
 5834              	.L315:
 5835              		.loc 1 1172 0 is_stmt 0 discriminator 2
 5836 2608 FFF7FEFF 		bl	e_uart2_sending
 5837              	.LVL590:
 5838 260c 0028     		cmp	r0, #0
 5839 260e FBD1     		bne	.L315
 5840 2610 F6E6     		b	.L314
 5841              	.L411:
 5842              		.loc 1 1470 0 is_stmt 1
 5843 2612 FFF7FEFF 		bl	strlen
 5844              	.LVL591:
 5845 2616 0146     		mov	r1, r0
 5846 2618 3748     		ldr	r0, .L799+96
 5847 261a FFF7FEFF 		bl	e_send_uart2_char
 5848              	.LVL592:
 5849              	.L414:
 5850              		.loc 1 1470 0 is_stmt 0 discriminator 2
 5851 261e FFF7FEFF 		bl	e_uart2_sending
 5852              	.LVL593:
 5853 2622 0028     		cmp	r0, #0
 5854 2624 FBD1     		bne	.L414
 5855 2626 FEF727BE 		b	.L413
 5856              	.L416:
 5857              		.loc 1 1480 0 is_stmt 1
 5858 262a FFF7FEFF 		bl	e_send_uart2_char
 5859              	.LVL594:
 5860              	.L418:
 5861              		.loc 1 1480 0 is_stmt 0 discriminator 2
 5862 262e FFF7FEFF 		bl	e_uart2_sending
 5863              	.LVL595:
 5864 2632 0028     		cmp	r0, #0
 5865 2634 FBD1     		bne	.L418
 5866 2636 FDF7BDBD 		b	.L699
 5867              	.L773:
 5868              		.loc 1 1167 0 is_stmt 1
 5869 263a 1921     		movs	r1, #25
 5870 263c 3248     		ldr	r0, .L799+112
 5871 263e FFF7FEFF 		bl	e_send_uart2_char
ARM GAS  /var/folders/d2/nstgp4h54kz7g1l847x_b8wc0000gn/T//ccB20FE7.s 			page 104


 5872              	.LVL596:
 5873              	.L311:
 5874              		.loc 1 1167 0 is_stmt 0 discriminator 2
 5875 2642 FFF7FEFF 		bl	e_uart2_sending
 5876              	.LVL597:
 5877 2646 0028     		cmp	r0, #0
 5878 2648 FBD1     		bne	.L311
 5879 264a CCE6     		b	.L310
 5880              	.L772:
 5881              		.loc 1 1158 0 is_stmt 1
 5882 264c 1F21     		movs	r1, #31
 5883 264e 2F48     		ldr	r0, .L799+116
 5884 2650 FFF7FEFF 		bl	e_send_uart1_char
 5885              	.LVL598:
 5886              	.L304:
 5887              		.loc 1 1158 0 is_stmt 0 discriminator 2
 5888 2654 FFF7FEFF 		bl	e_uart1_sending
 5889              	.LVL599:
 5890 2658 0028     		cmp	r0, #0
 5891 265a FBD1     		bne	.L304
 5892 265c FFF7D3B8 		b	.L303
 5893              	.L771:
 5894              		.loc 1 1140 0 is_stmt 1
 5895 2660 1821     		movs	r1, #24
 5896 2662 2B48     		ldr	r0, .L799+120
 5897 2664 FFF7FEFF 		bl	e_send_uart1_char
 5898              	.LVL600:
 5899              	.L289:
 5900              		.loc 1 1140 0 is_stmt 0 discriminator 2
 5901 2668 FFF7FEFF 		bl	e_uart1_sending
 5902              	.LVL601:
 5903 266c 0028     		cmp	r0, #0
 5904 266e FBD1     		bne	.L289
 5905 2670 FFF75CB8 		b	.L288
 5906              	.L242:
 5907              		.loc 1 993 0 is_stmt 1
 5908 2674 FFF7FEFF 		bl	getBatteryValueRaw
 5909              	.LVL602:
 5910 2678 0446     		mov	r4, r0
 5911 267a FFF7FEFF 		bl	getBatteryValuePercentage
 5912              	.LVL603:
 5913 267e 2246     		mov	r2, r4
 5914 2680 0346     		mov	r3, r0
 5915 2682 2449     		ldr	r1, .L799+124
 5916 2684 1C48     		ldr	r0, .L799+96
 5917 2686 FFF7FEFF 		bl	sprintf
 5918              	.LVL604:
 5919              		.loc 1 994 0
 5920 268a B8F1000F 		cmp	r8, #0
 5921 268e 3FF45AAD 		beq	.L433
 5922 2692 FDF7FFBC 		b	.L5
 5923              	.L800:
 5924 2696 00BF     		.align	2
 5925              	.L799:
 5926 2698 00060000 		.word	.LC45
 5927 269c 44060000 		.word	.LC47
 5928 26a0 70060000 		.word	.LC48
ARM GAS  /var/folders/d2/nstgp4h54kz7g1l847x_b8wc0000gn/T//ccB20FE7.s 			page 105


 5929 26a4 90060000 		.word	.LC49
 5930 26a8 B8060000 		.word	.LC50
 5931 26ac E0060000 		.word	.LC51
 5932 26b0 10070000 		.word	.LC52
 5933 26b4 28070000 		.word	.LC53
 5934 26b8 3C070000 		.word	.LC54
 5935 26bc 60070000 		.word	.LC55
 5936 26c0 B0070000 		.word	.LC56
 5937 26c4 D8070000 		.word	.LC57
 5938 26c8 04080000 		.word	.LC58
 5939 26cc 20080000 		.word	.LC59
 5940 26d0 38080000 		.word	.LC60
 5941 26d4 54080000 		.word	.LC61
 5942 26d8 80080000 		.word	.LC62
 5943 26dc AC080000 		.word	.LC63
 5944 26e0 C8080000 		.word	.LC64
 5945 26e4 F4080000 		.word	.LC65
 5946 26e8 24090000 		.word	.LC66
 5947 26ec 4C090000 		.word	.LC67
 5948 26f0 6C090000 		.word	.LC68
 5949 26f4 94090000 		.word	.LC69
 5950 26f8 00000000 		.word	buffer
 5951 26fc 00000000 		.word	.LANCHOR8
 5952 2700 94010000 		.word	.LC19
 5953 2704 1C060000 		.word	.LC46
 5954 2708 E4050000 		.word	.LC44
 5955 270c 14050000 		.word	.LC39
 5956 2710 A0020000 		.word	.LC25
 5957 2714 78000000 		.word	.LC3
 5958              	.LVL605:
 5959              	.L436:
 5960              	.LBE7:
 5961              		.loc 1 104 0
 5962 2718 0123     		movs	r3, #1
 5963 271a 0793     		str	r3, [sp, #28]
 5964              	.LVL606:
 5965              	.L2:
 5966              		.loc 1 116 0
 5967 271c FFF7FEFF 		bl	e_i2cp_init
 5968              	.LVL607:
 5969              		.loc 1 132 0
 5970 2720 2D4C     		ldr	r4, .L801
 5971              		.loc 1 134 0
 5972 2722 2E4E     		ldr	r6, .L801+4
 5973              		.loc 1 135 0
 5974 2724 2E4F     		ldr	r7, .L801+8
 5975              		.loc 1 121 0
 5976 2726 FFF7FEFF 		bl	e_init_remote_control
 5977              	.LVL608:
 5978              		.loc 1 129 0
 5979 272a 0123     		movs	r3, #1
 5980 272c 2D4A     		ldr	r2, .L801+12
 5981              		.loc 1 132 0
 5982 272e 1294     		str	r4, [sp, #72]
 5983              		.loc 1 129 0
 5984 2730 4FF6FE71 		movw	r1, #65534
 5985 2734 7F20     		movs	r0, #127
ARM GAS  /var/folders/d2/nstgp4h54kz7g1l847x_b8wc0000gn/T//ccB20FE7.s 			page 106


 5986              		.loc 1 134 0
 5987 2736 1096     		str	r6, [sp, #64]
 5988              		.loc 1 135 0
 5989 2738 1197     		str	r7, [sp, #68]
 5990              		.loc 1 129 0
 5991 273a FFF7FEFF 		bl	ReadEE
 5992              	.LVL609:
 5993              		.loc 1 137 0
 5994 273e 2A4B     		ldr	r3, .L801+16
 5995              		.loc 1 139 0
 5996 2740 2A4A     		ldr	r2, .L801+20
 5997              		.loc 1 137 0
 5998 2742 0E93     		str	r3, [sp, #56]
 5999              		.loc 1 132 0
 6000 2744 0123     		movs	r3, #1
 6001              		.loc 1 136 0
 6002 2746 2A48     		ldr	r0, .L801+24
 6003              		.loc 1 139 0
 6004 2748 1268     		ldr	r2, [r2]
 6005              		.loc 1 132 0
 6006 274a 2360     		str	r3, [r4]
 6007              		.loc 1 134 0
 6008 274c 2823     		movs	r3, #40
 6009 274e 3360     		str	r3, [r6]
 6010              		.loc 1 135 0
 6011 2750 3B60     		str	r3, [r7]
 6012              		.loc 1 137 0
 6013 2752 2549     		ldr	r1, .L801+16
 6014              		.loc 1 136 0
 6015 2754 1390     		str	r0, [sp, #76]
 6016 2756 0823     		movs	r3, #8
 6017 2758 0360     		str	r3, [r0]
 6018              		.loc 1 139 0
 6019 275a 0F2A     		cmp	r2, #15
 6020              		.loc 1 137 0
 6021 275c 4FF44863 		mov	r3, #3200
 6022              		.loc 1 136 0
 6023 2760 0546     		mov	r5, r0
 6024              		.loc 1 137 0
 6025 2762 0B60     		str	r3, [r1]
 6026              		.loc 1 139 0
 6027 2764 1AD0     		beq	.L4
 6028              		.loc 1 140 0
 6029 2766 FFF7FEFF 		bl	e_poxxxx_init_cam
 6030              	.LVL610:
 6031              		.loc 1 141 0
 6032 276a 2D68     		ldr	r5, [r5]
 6033 276c 3268     		ldr	r2, [r6]
 6034 276e 3B68     		ldr	r3, [r7]
 6035 2770 2468     		ldr	r4, [r4]
 6036 2772 0294     		str	r4, [sp, #8]
 6037 2774 02FB05F2 		mul	r2, r2, r5
 6038 2778 03FB05F3 		mul	r3, r3, r5
 6039 277c C3F5F071 		rsb	r1, r3, #480
 6040 2780 C2F52070 		rsb	r0, r2, #640
 6041 2784 01EBD171 		add	r1, r1, r1, lsr #31
 6042 2788 00EBD070 		add	r0, r0, r0, lsr #31
ARM GAS  /var/folders/d2/nstgp4h54kz7g1l847x_b8wc0000gn/T//ccB20FE7.s 			page 107


 6043 278c 4910     		asrs	r1, r1, #1
 6044 278e 0195     		str	r5, [sp, #4]
 6045 2790 0095     		str	r5, [sp]
 6046 2792 4010     		asrs	r0, r0, #1
 6047 2794 FFF7FEFF 		bl	e_poxxxx_config_cam
 6048              	.LVL611:
 6049              		.loc 1 142 0
 6050 2798 FFF7FEFF 		bl	e_poxxxx_write_cam_registers
 6051              	.LVL612:
 6052              	.L4:
 6053              		.loc 1 150 0
 6054 279c 079B     		ldr	r3, [sp, #28]
 6055 279e 63B1     		cbz	r3, .L774
 6056              		.loc 1 151 0
 6057 27a0 FFF7FEFF 		bl	e_acc_calibr
 6058              	.LVL613:
 6059              		.loc 1 152 0
 6060 27a4 5821     		movs	r1, #88
 6061 27a6 1348     		ldr	r0, .L801+28
 6062 27a8 FFF7FEFF 		bl	e_send_uart1_char
 6063              	.LVL614:
 6064              	.L6:
 6065              		.loc 1 152 0 is_stmt 0 discriminator 2
 6066 27ac FFF7FEFF 		bl	e_uart1_sending
 6067              	.LVL615:
 6068 27b0 0028     		cmp	r0, #0
 6069 27b2 FBD1     		bne	.L6
 6070              		.loc 1 111 0 is_stmt 1
 6071 27b4 8046     		mov	r8, r0
 6072 27b6 FDF763BC 		b	.L7
 6073              	.L774:
 6074              		.loc 1 156 0
 6075 27ba FFF7FEFF 		bl	e_acc_calibr
 6076              	.LVL616:
 6077              		.loc 1 157 0
 6078 27be 5821     		movs	r1, #88
 6079 27c0 0C48     		ldr	r0, .L801+28
 6080 27c2 FFF7FEFF 		bl	e_send_uart2_char
 6081              	.LVL617:
 6082              	.L8:
 6083              		.loc 1 157 0 is_stmt 0 discriminator 2
 6084 27c6 FFF7FEFF 		bl	e_uart2_sending
 6085              	.LVL618:
 6086 27ca 0790     		str	r0, [sp, #28]
 6087 27cc 0028     		cmp	r0, #0
 6088 27ce FAD1     		bne	.L8
 6089              		.loc 1 111 0 is_stmt 1
 6090 27d0 8046     		mov	r8, r0
 6091 27d2 FDF755BC 		b	.L7
 6092              	.L802:
 6093 27d6 00BF     		.align	2
 6094              	.L801:
 6095 27d8 00000000 		.word	.LANCHOR1
 6096 27dc 00000000 		.word	.LANCHOR2
 6097 27e0 00000000 		.word	.LANCHOR3
 6098 27e4 00000000 		.word	.LANCHOR0
 6099 27e8 00000000 		.word	.LANCHOR5
ARM GAS  /var/folders/d2/nstgp4h54kz7g1l847x_b8wc0000gn/T//ccB20FE7.s 			page 108


 6100 27ec 00000000 		.word	selector
 6101 27f0 00000000 		.word	.LANCHOR4
 6102 27f4 00000000 		.word	.LC0
 6103              		.cfi_endproc
 6104              	.LFE259:
 6105              		.size	run_asercom2, .-run_asercom2
 6106              		.section	.bss.LED_action.13440,"aw",%nobits
 6107              		.align	2
 6108              		.set	.LANCHOR27,. + 0
 6109              		.type	LED_action.13440, %object
 6110              		.size	LED_action.13440, 4
 6111              	LED_action.13440:
 6112 0000 00000000 		.space	4
 6113              		.section	.bss.LED_nbr.13439,"aw",%nobits
 6114              		.align	2
 6115              		.set	.LANCHOR30,. + 0
 6116              		.type	LED_nbr.13439, %object
 6117              		.size	LED_nbr.13439, 4
 6118              	LED_nbr.13439:
 6119 0000 00000000 		.space	4
 6120              		.section	.bss.accelero.13464,"aw",%nobits
 6121              		.align	2
 6122              		.set	.LANCHOR13,. + 0
 6123              		.type	accelero.13464, %object
 6124              		.size	accelero.13464, 12
 6125              	accelero.13464:
 6126 0000 00000000 		.space	12
 6126      00000000 
 6126      00000000 
 6127              		.section	.bss.accx.13441,"aw",%nobits
 6128              		.align	2
 6129              		.set	.LANCHOR10,. + 0
 6130              		.type	accx.13441, %object
 6131              		.size	accx.13441, 4
 6132              	accx.13441:
 6133 0000 00000000 		.space	4
 6134              		.section	.bss.accy.13442,"aw",%nobits
 6135              		.align	2
 6136              		.set	.LANCHOR11,. + 0
 6137              		.type	accy.13442, %object
 6138              		.size	accy.13442, 4
 6139              	accy.13442:
 6140 0000 00000000 		.space	4
 6141              		.section	.bss.accz.13443,"aw",%nobits
 6142              		.align	2
 6143              		.set	.LANCHOR12,. + 0
 6144              		.type	accz.13443, %object
 6145              		.size	accz.13443, 4
 6146              	accz.13443:
 6147 0000 00000000 		.space	4
 6148              		.section	.bss.c1.13429,"aw",%nobits
 6149              		.set	.LANCHOR19,. + 0
 6150              		.type	c1.13429, %object
 6151              		.size	c1.13429, 1
 6152              	c1.13429:
 6153 0000 00       		.space	1
 6154              		.section	.bss.c2.13430,"aw",%nobits
ARM GAS  /var/folders/d2/nstgp4h54kz7g1l847x_b8wc0000gn/T//ccB20FE7.s 			page 109


 6155              		.set	.LANCHOR20,. + 0
 6156              		.type	c2.13430, %object
 6157              		.size	c2.13430, 1
 6158              	c2.13430:
 6159 0000 00       		.space	1
 6160              		.section	.bss.cam_heigth.13450,"aw",%nobits
 6161              		.align	2
 6162              		.set	.LANCHOR3,. + 0
 6163              		.type	cam_heigth.13450, %object
 6164              		.size	cam_heigth.13450, 4
 6165              	cam_heigth.13450:
 6166 0000 00000000 		.space	4
 6167              		.section	.bss.cam_mode.13448,"aw",%nobits
 6168              		.align	2
 6169              		.set	.LANCHOR1,. + 0
 6170              		.type	cam_mode.13448, %object
 6171              		.size	cam_mode.13448, 4
 6172              	cam_mode.13448:
 6173 0000 00000000 		.space	4
 6174              		.section	.bss.cam_size.13452,"aw",%nobits
 6175              		.align	2
 6176              		.set	.LANCHOR5,. + 0
 6177              		.type	cam_size.13452, %object
 6178              		.size	cam_size.13452, 4
 6179              	cam_size.13452:
 6180 0000 00000000 		.space	4
 6181              		.section	.bss.cam_width.13449,"aw",%nobits
 6182              		.align	2
 6183              		.set	.LANCHOR2,. + 0
 6184              		.type	cam_width.13449, %object
 6185              		.size	cam_width.13449, 4
 6186              	cam_width.13449:
 6187 0000 00000000 		.space	4
 6188              		.section	.bss.cam_x1.13453,"aw",%nobits
 6189              		.align	2
 6190              		.set	.LANCHOR28,. + 0
 6191              		.type	cam_x1.13453, %object
 6192              		.size	cam_x1.13453, 4
 6193              	cam_x1.13453:
 6194 0000 00000000 		.space	4
 6195              		.section	.bss.cam_y1.13454,"aw",%nobits
 6196              		.align	2
 6197              		.set	.LANCHOR29,. + 0
 6198              		.type	cam_y1.13454, %object
 6199              		.size	cam_y1.13454, 4
 6200              	cam_y1.13454:
 6201 0000 00000000 		.space	4
 6202              		.section	.bss.cam_zoom.13451,"aw",%nobits
 6203              		.align	2
 6204              		.set	.LANCHOR4,. + 0
 6205              		.type	cam_zoom.13451, %object
 6206              		.size	cam_zoom.13451, 4
 6207              	cam_zoom.13451:
 6208 0000 00000000 		.space	4
 6209              		.section	.bss.first.13455,"aw",%nobits
 6210              		.set	.LANCHOR8,. + 0
 6211              		.type	first.13455, %object
ARM GAS  /var/folders/d2/nstgp4h54kz7g1l847x_b8wc0000gn/T//ccB20FE7.s 			page 110


 6212              		.size	first.13455, 1
 6213              	first.13455:
 6214 0000 00       		.space	1
 6215              		.section	.bss.gyrox.13445,"aw",%nobits
 6216              		.align	2
 6217              		.set	.LANCHOR16,. + 0
 6218              		.type	gyrox.13445, %object
 6219              		.size	gyrox.13445, 4
 6220              	gyrox.13445:
 6221 0000 00000000 		.space	4
 6222              		.section	.bss.gyroy.13446,"aw",%nobits
 6223              		.align	2
 6224              		.set	.LANCHOR15,. + 0
 6225              		.type	gyroy.13446, %object
 6226              		.size	gyroy.13446, 4
 6227              	gyroy.13446:
 6228 0000 00000000 		.space	4
 6229              		.section	.bss.gyroz.13447,"aw",%nobits
 6230              		.align	2
 6231              		.set	.LANCHOR14,. + 0
 6232              		.type	gyroz.13447, %object
 6233              		.size	gyroz.13447, 4
 6234              	gyroz.13447:
 6235 0000 00000000 		.space	4
 6236              		.section	.bss.i.13432,"aw",%nobits
 6237              		.align	2
 6238              		.set	.LANCHOR9,. + 0
 6239              		.type	i.13432, %object
 6240              		.size	i.13432, 4
 6241              	i.13432:
 6242 0000 00000000 		.space	4
 6243              		.section	.bss.j.13433,"aw",%nobits
 6244              		.align	2
 6245              		.set	.LANCHOR17,. + 0
 6246              		.type	j.13433, %object
 6247              		.size	j.13433, 4
 6248              	j.13433:
 6249 0000 00000000 		.space	4
 6250              		.section	.bss.mod.13458,"aw",%nobits
 6251              		.align	2
 6252              		.set	.LANCHOR24,. + 0
 6253              		.type	mod.13458, %object
 6254              		.size	mod.13458, 4
 6255              	mod.13458:
 6256 0000 00000000 		.space	4
 6257              		.section	.bss.positionl.13438,"aw",%nobits
 6258              		.align	2
 6259              		.set	.LANCHOR22,. + 0
 6260              		.type	positionl.13438, %object
 6261              		.size	positionl.13438, 4
 6262              	positionl.13438:
 6263 0000 00000000 		.space	4
 6264              		.section	.bss.positionr.13437,"aw",%nobits
 6265              		.align	2
 6266              		.set	.LANCHOR23,. + 0
 6267              		.type	positionr.13437, %object
 6268              		.size	positionr.13437, 4
ARM GAS  /var/folders/d2/nstgp4h54kz7g1l847x_b8wc0000gn/T//ccB20FE7.s 			page 111


 6269              	positionr.13437:
 6270 0000 00000000 		.space	4
 6271              		.section	.bss.reg.13459,"aw",%nobits
 6272              		.align	2
 6273              		.set	.LANCHOR25,. + 0
 6274              		.type	reg.13459, %object
 6275              		.size	reg.13459, 4
 6276              	reg.13459:
 6277 0000 00000000 		.space	4
 6278              		.section	.bss.rgb_value.13456,"aw",%nobits
 6279              		.align	2
 6280              		.set	.LANCHOR18,. + 0
 6281              		.type	rgb_value.13456, %object
 6282              		.size	rgb_value.13456, 12
 6283              	rgb_value.13456:
 6284 0000 00000000 		.space	12
 6284      00000000 
 6284      00000000 
 6285              		.section	.bss.sound.13444,"aw",%nobits
 6286              		.align	2
 6287              		.set	.LANCHOR31,. + 0
 6288              		.type	sound.13444, %object
 6289              		.size	sound.13444, 4
 6290              	sound.13444:
 6291 0000 00000000 		.space	4
 6292              		.section	.bss.speedl.13436,"aw",%nobits
 6293              		.align	2
 6294              		.set	.LANCHOR7,. + 0
 6295              		.type	speedl.13436, %object
 6296              		.size	speedl.13436, 4
 6297              	speedl.13436:
 6298 0000 00000000 		.space	4
 6299              		.section	.bss.speedr.13435,"aw",%nobits
 6300              		.align	2
 6301              		.set	.LANCHOR6,. + 0
 6302              		.type	speedr.13435, %object
 6303              		.size	speedr.13435, 4
 6304              	speedr.13435:
 6305 0000 00000000 		.space	4
 6306              		.section	.bss.val.13460,"aw",%nobits
 6307              		.align	2
 6308              		.set	.LANCHOR26,. + 0
 6309              		.type	val.13460, %object
 6310              		.size	val.13460, 4
 6311              	val.13460:
 6312 0000 00000000 		.space	4
 6313              		.section	.bss.wait_cam.13431,"aw",%nobits
 6314              		.set	.LANCHOR21,. + 0
 6315              		.type	wait_cam.13431, %object
 6316              		.size	wait_cam.13431, 1
 6317              	wait_cam.13431:
 6318 0000 00       		.space	1
 6319              		.section	.data.HWversion.13472,"aw",%progbits
 6320              		.align	2
 6321              		.set	.LANCHOR0,. + 0
 6322              		.type	HWversion.13472, %object
 6323              		.size	HWversion.13472, 4
ARM GAS  /var/folders/d2/nstgp4h54kz7g1l847x_b8wc0000gn/T//ccB20FE7.s 			page 112


 6324              	HWversion.13472:
 6325 0000 FFFF0000 		.word	65535
 6326              		.section	.rodata.run_asercom2.str1.4,"aMS",%progbits,1
 6327              		.align	2
 6328              	.LC0:
 6329 0000 0C075745 		.ascii	"\014\007WELCOME to the SerCom protocol on e-Puck\015"
 6329      4C434F4D 
 6329      4520746F 
 6329      20746865 
 6329      20536572 
 6330 002b 0A746865 		.ascii	"\012the EPFL education robot type \"H\" for help\015"
 6330      20455046 
 6330      4C206564 
 6330      75636174 
 6330      696F6E20 
 6331 0057 0A00     		.ascii	"\012\000"
 6332 0059 000000   		.space	3
 6333              	.LC1:
 6334 005c 612C2564 		.ascii	"a,%d,%d,%d\015\012\000"
 6334      2C25642C 
 6334      25640D0A 
 6334      00
 6335 0069 000000   		.space	3
 6336              	.LC2:
 6337 006c 612C302C 		.ascii	"a,0,0,0\015\012\000"
 6337      302C300D 
 6337      0A00
 6338 0076 0000     		.space	2
 6339              	.LC3:
 6340 0078 622C2564 		.ascii	"b,%d (%d%%)\015\012\000"
 6340      20282564 
 6340      2525290D 
 6340      0A00
 6341 0086 0000     		.space	2
 6342              	.LC4:
 6343 0088 422C2564 		.ascii	"B,%d\015\000"
 6343      0D00
 6344 008e 0000     		.space	2
 6345              	.LC5:
 6346 0090 620D0A00 		.ascii	"b\015\012\000"
 6347              	.LC6:
 6348 0094 632C2564 		.ascii	"c,%d\015\012\000"
 6348      0D0A00
 6349 009b 00       		.space	1
 6350              	.LC7:
 6351 009c 442C2564 		.ascii	"D,%d,%d\015\000"
 6351      2C25640D 
 6351      00
 6352 00a5 000000   		.space	3
 6353              	.LC8:
 6354 00a8 640D0A00 		.ascii	"d\015\012\000"
 6355              	.LC9:
 6356 00ac 652C2564 		.ascii	"e,%d,%d\015\012\000"
 6356      2C25640D 
 6356      0A00
 6357 00b6 0000     		.space	2
 6358              	.LC10:
ARM GAS  /var/folders/d2/nstgp4h54kz7g1l847x_b8wc0000gn/T//ccB20FE7.s 			page 113


 6359 00b8 462C2564 		.ascii	"F,%d\015\000"
 6359      0D00
 6360 00be 0000     		.space	2
 6361              	.LC11:
 6362 00c0 660D0A00 		.ascii	"f\015\012\000"
 6363              	.LC12:
 6364 00c4 67204952 		.ascii	"g IR check : 0x%x, address : 0x%x, data : 0x%x\015\012"
 6364      20636865 
 6364      636B203A 
 6364      20307825 
 6364      782C2061 
 6365 00f4 00       		.ascii	"\000"
 6366 00f5 000000   		.space	3
 6367              	.LC13:
 6368 00f8 672C2564 		.ascii	"g,%d,%d,%d\015\012\000"
 6368      2C25642C 
 6368      25640D0A 
 6368      00
 6369 0105 000000   		.space	3
 6370              	.LC14:
 6371 0108 672C302C 		.ascii	"g,0,0,0\015\012\000"
 6371      302C300D 
 6371      0A00
 6372 0112 0000     		.space	2
 6373              	.LC15:
 6374 0114 0A00     		.ascii	"\012\000"
 6375 0116 0000     		.space	2
 6376              	.LC16:
 6377 0118 22412220 		.ascii	"\"A\"               Accelerometer\015\012\000"
 6377      20202020 
 6377      20202020 
 6377      20202020 
 6377      20204163 
 6378 013a 0000     		.space	2
 6379              	.LC17:
 6380 013c 22422C23 		.ascii	"\"B,#\"             Body led 0=off 1=on 2=inverse\015"
 6380      22202020 
 6380      20202020 
 6380      20202020 
 6380      2020426F 
 6381 016c 0A00     		.ascii	"\012\000"
 6382 016e 0000     		.space	2
 6383              	.LC18:
 6384 0170 22622220 		.ascii	"\"b\"               Battery value\015\012\000"
 6384      20202020 
 6384      20202020 
 6384      20202020 
 6384      20204261 
 6385 0192 0000     		.space	2
 6386              	.LC19:
 6387 0194 22622220 		.ascii	"\"b\"               Battery state (1=ok, 0=low)\015"
 6387      20202020 
 6387      20202020 
 6387      20202020 
 6387      20204261 
 6388 01c2 0A00     		.ascii	"\012\000"
 6389              	.LC20:
ARM GAS  /var/folders/d2/nstgp4h54kz7g1l847x_b8wc0000gn/T//ccB20FE7.s 			page 114


 6390 01c4 22432220 		.ascii	"\"C\"               Selector position\015\012\000"
 6390      20202020 
 6390      20202020 
 6390      20202020 
 6390      20205365 
 6391 01ea 0000     		.space	2
 6392              	.LC21:
 6393 01ec 22442C23 		.ascii	"\"D,#,#\"           Set motor speed left,right\015\012"
 6393      2C232220 
 6393      20202020 
 6393      20202020 
 6393      20205365 
 6394 021a 00       		.ascii	"\000"
 6395 021b 00       		.space	1
 6396              	.LC22:
 6397 021c 22452220 		.ascii	"\"E\"               Get motor speed left,right\015\012"
 6397      20202020 
 6397      20202020 
 6397      20202020 
 6397      20204765 
 6398 024a 00       		.ascii	"\000"
 6399 024b 00       		.space	1
 6400              	.LC23:
 6401 024c 22462C23 		.ascii	"\"F,#\"             Front led 0=off 1=on 2=inverse\015"
 6401      22202020 
 6401      20202020 
 6401      20202020 
 6401      20204672 
 6402 027d 0A00     		.ascii	"\012\000"
 6403 027f 00       		.space	1
 6404              	.LC24:
 6405 0280 22472220 		.ascii	"\"G\"               IR receiver\015\012\000"
 6405      20202020 
 6405      20202020 
 6405      20202020 
 6405      20204952 
 6406              	.LC25:
 6407 02a0 22672220 		.ascii	"\"g\"               Gyro\015\012\000"
 6407      20202020 
 6407      20202020 
 6407      20202020 
 6407      20204779 
 6408 02b9 000000   		.space	3
 6409              	.LC26:
 6410 02bc 22482220 		.ascii	"\"H\"               Help\015\012\000"
 6410      20202020 
 6410      20202020 
 6410      20202020 
 6410      20204865 
 6411 02d5 000000   		.space	3
 6412              	.LC27:
 6413 02d8 22492220 		.ascii	"\"I\"               Get camera parameter\015\012\000"
 6413      20202020 
 6413      20202020 
 6413      20202020 
 6413      20204765 
 6414 0301 000000   		.space	3
ARM GAS  /var/folders/d2/nstgp4h54kz7g1l847x_b8wc0000gn/T//ccB20FE7.s 			page 115


 6415              	.LC28:
 6416 0304 224A2C23 		.ascii	"\"J,#,#,#,#,#,#\"   Set camera parameter mode,width"
 6416      2C232C23 
 6416      2C232C23 
 6416      2C232220 
 6416      20205365 
 6417 0335 2C686569 		.ascii	",heigth,zoom(1,4 or 8),x1,y1\015\012\000"
 6417      6774682C 
 6417      7A6F6F6D 
 6417      28312C34 
 6417      206F7220 
 6418              	.LC29:
 6419 0354 224B2220 		.ascii	"\"K\"               Calibrate proximity sensors\015"
 6419      20202020 
 6419      20202020 
 6419      20202020 
 6419      20204361 
 6420 0382 0A00     		.ascii	"\012\000"
 6421              	.LC30:
 6422 0384 224C2C23 		.ascii	"\"L,#,#\"           Led number,0=off 1=on 2=inverse"
 6422      2C232220 
 6422      20202020 
 6422      20202020 
 6422      20204C65 
 6423 03b5 0D0A00   		.ascii	"\015\012\000"
 6424              	.LC31:
 6425 03b8 224D2220 		.ascii	"\"M\"               Floor sensors\015\012\000"
 6425      20202020 
 6425      20202020 
 6425      20202020 
 6425      2020466C 
 6426 03da 0000     		.space	2
 6427              	.LC32:
 6428 03dc 224E2220 		.ascii	"\"N\"               Proximity\015\012\000"
 6428      20202020 
 6428      20202020 
 6428      20202020 
 6428      20205072 
 6429 03fa 0000     		.space	2
 6430              	.LC33:
 6431 03fc 224F2220 		.ascii	"\"O\"               Light sensors\015\012\000"
 6431      20202020 
 6431      20202020 
 6431      20202020 
 6431      20204C69 
 6432 041e 0000     		.space	2
 6433              	.LC34:
 6434 0420 22502C23 		.ascii	"\"P,#,#\"           Set motor position left,right\015"
 6434      2C232220 
 6434      20202020 
 6434      20202020 
 6434      20205365 
 6435 0450 0A00     		.ascii	"\012\000"
 6436 0452 0000     		.space	2
 6437              	.LC35:
 6438 0454 22512220 		.ascii	"\"Q\"               Get motor position left,right\015"
 6438      20202020 
ARM GAS  /var/folders/d2/nstgp4h54kz7g1l847x_b8wc0000gn/T//ccB20FE7.s 			page 116


 6438      20202020 
 6438      20202020 
 6438      20204765 
 6439 0484 0A00     		.ascii	"\012\000"
 6440 0486 0000     		.space	2
 6441              	.LC36:
 6442 0488 22522220 		.ascii	"\"R\"               Reset e-puck\015\012\000"
 6442      20202020 
 6442      20202020 
 6442      20202020 
 6442      20205265 
 6443 04a9 000000   		.space	3
 6444              	.LC37:
 6445 04ac 22532220 		.ascii	"\"S\"               Stop e-puck and turn off leds\015"
 6445      20202020 
 6445      20202020 
 6445      20202020 
 6445      20205374 
 6446 04dc 0A00     		.ascii	"\012\000"
 6447 04de 0000     		.space	2
 6448              	.LC38:
 6449 04e0 22542C23 		.ascii	"\"T,#\"             Play sound 1-5 else stop sound\015"
 6449      22202020 
 6449      20202020 
 6449      20202020 
 6449      2020506C 
 6450 0511 0A00     		.ascii	"\012\000"
 6451 0513 00       		.space	1
 6452              	.LC39:
 6453 0514 22742220 		.ascii	"\"t\"               Temperature\015\012\000"
 6453      20202020 
 6453      20202020 
 6453      20202020 
 6453      20205465 
 6454              	.LC40:
 6455 0534 22552220 		.ascii	"\"U\"               Get microphone amplitude\015\012"
 6455      20202020 
 6455      20202020 
 6455      20202020 
 6455      20204765 
 6456 0560 00       		.ascii	"\000"
 6457 0561 000000   		.space	3
 6458              	.LC41:
 6459 0564 22562220 		.ascii	"\"V\"               Version of SerCom\015\012\000"
 6459      20202020 
 6459      20202020 
 6459      20202020 
 6459      20205665 
 6460 058a 0000     		.space	2
 6461              	.LC42:
 6462 058c 22572220 		.ascii	"\"W\"               Write I2C (mod,reg,val)\015\012"
 6462      20202020 
 6462      20202020 
 6462      20202020 
 6462      20205772 
 6463 05b7 00       		.ascii	"\000"
 6464              	.LC43:
ARM GAS  /var/folders/d2/nstgp4h54kz7g1l847x_b8wc0000gn/T//ccB20FE7.s 			page 117


 6465 05b8 22592220 		.ascii	"\"Y\"               Read I2C val=(mod,reg)\015\012\000"
 6465      20202020 
 6465      20202020 
 6465      20202020 
 6465      20205265 
 6466 05e3 00       		.space	1
 6467              	.LC44:
 6468 05e4 22412220 		.ascii	"\"A\"       Accelerometer\015\012\000"
 6468      20202020 
 6468      20204163 
 6468      63656C65 
 6468      726F6D65 
 6469 05fe 0000     		.space	2
 6470              	.LC45:
 6471 0600 22622220 		.ascii	"\"b\"       Battery value\015\012\000"
 6471      20202020 
 6471      20204261 
 6471      74746572 
 6471      79207661 
 6472 061a 0000     		.space	2
 6473              	.LC46:
 6474 061c 22622220 		.ascii	"\"b\"       Battery state (1=ok, 0=low)\015\012\000"
 6474      20202020 
 6474      20204261 
 6474      74746572 
 6474      79207374 
 6475              	.LC47:
 6476 0644 22422C23 		.ascii	"\"B,#\"       Body led 0=off 1=on 2=inverse\015\012"
 6476      22202020 
 6476      20202020 
 6476      426F6479 
 6476      206C6564 
 6477 066f 00       		.ascii	"\000"
 6478              	.LC48:
 6479 0670 22432220 		.ascii	"\"C\"       Selector position\015\012\000"
 6479      20202020 
 6479      20205365 
 6479      6C656374 
 6479      6F722070 
 6480 068e 0000     		.space	2
 6481              	.LC49:
 6482 0690 22442C23 		.ascii	"\"D,#,#\"   Set motor speed left,right\015\012\000"
 6482      2C232220 
 6482      20205365 
 6482      74206D6F 
 6482      746F7220 
 6483 06b7 00       		.space	1
 6484              	.LC50:
 6485 06b8 22452220 		.ascii	"\"E\"       Get motor speed left,right\015\012\000"
 6485      20202020 
 6485      20204765 
 6485      74206D6F 
 6485      746F7220 
 6486 06df 00       		.space	1
 6487              	.LC51:
 6488 06e0 22462C23 		.ascii	"\"F,#\"       Front led 0=off 1=on 2=inverse\015\012"
 6488      22202020 
ARM GAS  /var/folders/d2/nstgp4h54kz7g1l847x_b8wc0000gn/T//ccB20FE7.s 			page 118


 6488      20202020 
 6488      46726F6E 
 6488      74206C65 
 6489 070c 00       		.ascii	"\000"
 6490 070d 000000   		.space	3
 6491              	.LC52:
 6492 0710 22472220 		.ascii	"\"G\"       IR receiver\015\012\000"
 6492      20202020 
 6492      20204952 
 6492      20726563 
 6492      65697665 
 6493              	.LC53:
 6494 0728 22482220 		.ascii	"\"H\"       Help\015\012\000"
 6494      20202020 
 6494      20204865 
 6494      6C700D0A 
 6494      00
 6495 0739 000000   		.space	3
 6496              	.LC54:
 6497 073c 22492220 		.ascii	"\"I\"         Get camera parameter\015\012\000"
 6497      20202020 
 6497      20202020 
 6497      47657420 
 6497      63616D65 
 6498 075f 00       		.space	1
 6499              	.LC55:
 6500 0760 224A2C23 		.ascii	"\"J,#,#,#,#,#,#\" Set camera parameter mode,width,h"
 6500      2C232C23 
 6500      2C232C23 
 6500      2C232220 
 6500      53657420 
 6501 0791 65696774 		.ascii	"eigth,zoom(1,4 or 8),x1,y1\015\012\000"
 6501      682C7A6F 
 6501      6F6D2831 
 6501      2C34206F 
 6501      72203829 
 6502 07ae 0000     		.space	2
 6503              	.LC56:
 6504 07b0 224B2220 		.ascii	"\"K\"       Calibrate proximity sensors\015\012\000"
 6504      20202020 
 6504      20204361 
 6504      6C696272 
 6504      61746520 
 6505              	.LC57:
 6506 07d8 224C2C23 		.ascii	"\"L,#,#\"   Led number,0=off 1=on 2=inverse\015\012"
 6506      2C232220 
 6506      20204C65 
 6506      64206E75 
 6506      6D626572 
 6507 0803 00       		.ascii	"\000"
 6508              	.LC58:
 6509 0804 224D2220 		.ascii	"\"M\"       Floor sensors\015\012\000"
 6509      20202020 
 6509      2020466C 
 6509      6F6F7220 
 6509      73656E73 
 6510 081e 0000     		.space	2
ARM GAS  /var/folders/d2/nstgp4h54kz7g1l847x_b8wc0000gn/T//ccB20FE7.s 			page 119


 6511              	.LC59:
 6512 0820 224E2220 		.ascii	"\"N\"       Proximity\015\012\000"
 6512      20202020 
 6512      20205072 
 6512      6F78696D 
 6512      6974790D 
 6513 0836 0000     		.space	2
 6514              	.LC60:
 6515 0838 224F2220 		.ascii	"\"O\"       Light sensors\015\012\000"
 6515      20202020 
 6515      20204C69 
 6515      67687420 
 6515      73656E73 
 6516 0852 0000     		.space	2
 6517              	.LC61:
 6518 0854 22502C23 		.ascii	"\"P,#,#\"   Set motor position left,right\015\012\000"
 6518      2C232220 
 6518      20205365 
 6518      74206D6F 
 6518      746F7220 
 6519 087e 0000     		.space	2
 6520              	.LC62:
 6521 0880 22512220 		.ascii	"\"Q\"       Get motor position left,right\015\012\000"
 6521      20202020 
 6521      20204765 
 6521      74206D6F 
 6521      746F7220 
 6522 08aa 0000     		.space	2
 6523              	.LC63:
 6524 08ac 22522220 		.ascii	"\"R\"       Reset e-puck\015\012\000"
 6524      20202020 
 6524      20205265 
 6524      73657420 
 6524      652D7075 
 6525 08c5 000000   		.space	3
 6526              	.LC64:
 6527 08c8 22532220 		.ascii	"\"S\"       Stop e-puck and turn off leds\015\012\000"
 6527      20202020 
 6527      20205374 
 6527      6F702065 
 6527      2D707563 
 6528 08f2 0000     		.space	2
 6529              	.LC65:
 6530 08f4 22542C23 		.ascii	"\"T,#\"       Play sound 1-5 else stop sound\015\012"
 6530      22202020 
 6530      20202020 
 6530      506C6179 
 6530      20736F75 
 6531 0920 00       		.ascii	"\000"
 6532 0921 000000   		.space	3
 6533              	.LC66:
 6534 0924 22552220 		.ascii	"\"U\"       Get microphone amplitude\015\012\000"
 6534      20202020 
 6534      20204765 
 6534      74206D69 
 6534      63726F70 
 6535 0949 000000   		.space	3
ARM GAS  /var/folders/d2/nstgp4h54kz7g1l847x_b8wc0000gn/T//ccB20FE7.s 			page 120


 6536              	.LC67:
 6537 094c 22562220 		.ascii	"\"V\"       Version of SerCom\015\012\000"
 6537      20202020 
 6537      20205665 
 6537      7273696F 
 6537      6E206F66 
 6538 096a 0000     		.space	2
 6539              	.LC68:
 6540 096c 22572220 		.ascii	"\"W\"         Write I2C (mod,reg,val)\015\012\000"
 6540      20202020 
 6540      20202020 
 6540      57726974 
 6540      65204932 
 6541 0992 0000     		.space	2
 6542              	.LC69:
 6543 0994 22592220 		.ascii	"\"Y\"         Read I2C val=(mod,reg)\015\012\000"
 6543      20202020 
 6543      20202020 
 6543      52656164 
 6543      20493243 
 6544 09b9 000000   		.space	3
 6545              	.LC70:
 6546 09bc 692C2564 		.ascii	"i,%d,%d,%d,%d,%d\015\012\000"
 6546      2C25642C 
 6546      25642C25 
 6546      642C2564 
 6546      0D0A00
 6547 09cf 00       		.space	1
 6548              	.LC71:
 6549 09d0 4A2C2564 		.ascii	"J,%d,%d,%d,%d,%d,%d\015\000"
 6549      2C25642C 
 6549      25642C25 
 6549      642C2564 
 6549      2C25640D 
 6550 09e5 000000   		.space	3
 6551              	.LC72:
 6552 09e8 6A0D0A00 		.ascii	"j\015\012\000"
 6553              	.LC73:
 6554 09ec 6B2C2053 		.ascii	"k, Starting calibration - Remove any object in sens"
 6554      74617274 
 6554      696E6720 
 6554      63616C69 
 6554      62726174 
 6555 0a1f 6F727320 		.ascii	"ors range\015\012\000"
 6555      72616E67 
 6555      650D0A00 
 6556 0a2b 00       		.space	1
 6557              	.LC74:
 6558 0a2c 4C2C2564 		.ascii	"L,%d,%d\015\000"
 6558      2C25640D 
 6558      00
 6559 0a35 000000   		.space	3
 6560              	.LC75:
 6561 0a38 6C0D0A00 		.ascii	"l\015\012\000"
 6562              	.LC76:
 6563 0a3c 6D2C2564 		.ascii	"m,%d,%d,%d,%d,%d\015\012\000"
 6563      2C25642C 
ARM GAS  /var/folders/d2/nstgp4h54kz7g1l847x_b8wc0000gn/T//ccB20FE7.s 			page 121


 6563      25642C25 
 6563      642C2564 
 6563      0D0A00
 6564 0a4f 00       		.space	1
 6565              	.LC77:
 6566 0a50 6E2C2564 		.ascii	"n,%d,%d,%d,%d,%d,%d,%d,%d\015\012\000"
 6566      2C25642C 
 6566      25642C25 
 6566      642C2564 
 6566      2C25642C 
 6567              	.LC78:
 6568 0a6c 6F2C2564 		.ascii	"o,%d,%d,%d,%d,%d,%d,%d,%d\015\012\000"
 6568      2C25642C 
 6568      25642C25 
 6568      642C2564 
 6568      2C25642C 
 6569              	.LC79:
 6570 0a88 502C2564 		.ascii	"P,%d,%d\015\000"
 6570      2C25640D 
 6570      00
 6571 0a91 000000   		.space	3
 6572              	.LC80:
 6573 0a94 700D0A00 		.ascii	"p\015\012\000"
 6574              	.LC81:
 6575 0a98 712C2564 		.ascii	"q,%d,%d\015\012\000"
 6575      2C25640D 
 6575      0A00
 6576 0aa2 0000     		.space	2
 6577              	.LC82:
 6578 0aa4 730D0A00 		.ascii	"s\015\012\000"
 6579              	.LC83:
 6580 0aa8 542C2564 		.ascii	"T,%d\000"
 6580      00
 6581 0aad 000000   		.space	3
 6582              	.LC84:
 6583 0ab0 740D0A00 		.ascii	"t\015\012\000"
 6584              	.LC85:
 6585 0ab4 742C2564 		.ascii	"t,%d\015\012\000"
 6585      0D0A00
 6586 0abb 00       		.space	1
 6587              	.LC86:
 6588 0abc 742C300D 		.ascii	"t,0\015\012\000"
 6588      0A00
 6589 0ac2 0000     		.space	2
 6590              	.LC87:
 6591 0ac4 752C2564 		.ascii	"u,%d,%d,%d\015\012\000"
 6591      2C25642C 
 6591      25640D0A 
 6591      00
 6592 0ad1 000000   		.space	3
 6593              	.LC88:
 6594 0ad4 762C5665 		.ascii	"v,Version 2.0 January 2018 GCtronic\015\012\000"
 6594      7273696F 
 6594      6E20322E 
 6594      30204A61 
 6594      6E756172 
 6595 0afa 0000     		.space	2
ARM GAS  /var/folders/d2/nstgp4h54kz7g1l847x_b8wc0000gn/T//ccB20FE7.s 			page 122


 6596              	.LC89:
 6597 0afc 572C2564 		.ascii	"W,%d,%d,%d\015\000"
 6597      2C25642C 
 6597      25640D00 
 6598              	.LC90:
 6599 0b08 770D0A00 		.ascii	"w\015\012\000"
 6600              	.LC91:
 6601 0b0c 592C2564 		.ascii	"Y,%d,%d\015\000"
 6601      2C25640D 
 6601      00
 6602 0b15 000000   		.space	3
 6603              	.LC92:
 6604 0b18 792C2564 		.ascii	"y,%d,%d\015\012\000"
 6604      2C25640D 
 6604      0A00
 6605 0b22 0000     		.space	2
 6606              	.LC93:
 6607 0b24 792C2564 		.ascii	"y,%d\015\012\000"
 6607      0D0A00
 6608 0b2b 00       		.space	1
 6609              	.LC94:
 6610 0b2c 25643A20 		.ascii	"%d: %d\015\012\000"
 6610      25640D0A 
 6610      00
 6611 0b35 000000   		.space	3
 6612              	.LC95:
 6613 0b38 7A2C436F 		.ascii	"z,Command not found\015\012\000"
 6613      6D6D616E 
 6613      64206E6F 
 6613      7420666F 
 6613      756E640D 
 6614 0b4e 0000     		.space	2
 6615              	.LC96:
 6616 0b50 48572076 		.ascii	"HW version: %X\015\012\000"
 6616      65727369 
 6616      6F6E3A20 
 6616      25580D0A 
 6616      00
 6617 0b61 000000   		.space	3
 6618              	.LC97:
 6619 0b64 6B2C2043 		.ascii	"k, Calibration finished\015\012\000"
 6619      616C6962 
 6619      72617469 
 6619      6F6E2066 
 6619      696E6973 
 6620              		.text
 6621              	.Letext0:
 6622              		.file 2 "/Applications/Eclipse_e-puck2.app/Contents/Eclipse_e-puck2/Tools/gcc-arm-none-eabi-7-2017
 6623              		.file 3 "/Applications/Eclipse_e-puck2.app/Contents/Eclipse_e-puck2/Tools/gcc-arm-none-eabi-7-2017
 6624              		.file 4 "/Applications/Eclipse_e-puck2.app/Contents/Eclipse_e-puck2/Tools/gcc-arm-none-eabi-7-2017
 6625              		.file 5 "../e-puck2_main-processor/ChibiOS//os/rt/ports/ARMCMx/compilers/GCC/chtypes.h"
 6626              		.file 6 "../e-puck2_main-processor/ChibiOS//os/rt/include/chsystypes.h"
 6627              		.file 7 "../e-puck2_main-processor/ChibiOS//os/rt/include/chschd.h"
 6628              		.file 8 "../e-puck2_main-processor/ChibiOS//os/ext/CMSIS/include/core_cm4.h"
 6629              		.file 9 "../e-puck2_main-processor/ChibiOS//os/ext/CMSIS/ST/system_stm32f4xx.h"
 6630              		.file 10 "../e-puck2_main-processor/ChibiOS//os/ext/CMSIS/ST/stm32f407xx.h"
 6631              		.file 11 "../e-puck2_main-processor/ChibiOS//os/rt/ports/ARMCMx/chcore.h"
ARM GAS  /var/folders/d2/nstgp4h54kz7g1l847x_b8wc0000gn/T//ccB20FE7.s 			page 123


 6632              		.file 12 "../e-puck2_main-processor/ChibiOS//os/rt/ports/ARMCMx/chcore_v7m.h"
 6633              		.file 13 "../e-puck2_main-processor/ChibiOS//os/rt/include/chdebug.h"
 6634              		.file 14 "../e-puck2_main-processor/ChibiOS//os/rt/include/chtm.h"
 6635              		.file 15 "../e-puck2_main-processor/ChibiOS//os/rt/include/chstats.h"
 6636              		.file 16 "../e-puck2_main-processor/ChibiOS//os/rt/include/chsem.h"
 6637              		.file 17 "../e-puck2_main-processor/ChibiOS//os/rt/include/chmtx.h"
 6638              		.file 18 "../e-puck2_main-processor/ChibiOS//os/rt/include/chregistry.h"
 6639              		.file 19 "../e-puck2_main-processor/ChibiOS//os/rt/include/chevents.h"
 6640              		.file 20 "../e-puck2_main-processor/ChibiOS//os/rt/include/chqueues.h"
 6641              		.file 21 "../e-puck2_main-processor/ChibiOS//os/hal/ports/STM32/STM32F4xx/stm32_dma.h"
 6642              		.file 22 "../e-puck2_main-processor/ChibiOS//os/hal/include/hal_ioblock.h"
 6643              		.file 23 "../e-puck2_main-processor/ChibiOS//os/hal/ports/STM32/LLD/GPIOv2/pal_lld.h"
 6644              		.file 24 "../e-puck2_main-processor/ChibiOS//os/hal/include/adc.h"
 6645              		.file 25 "../e-puck2_main-processor/ChibiOS//os/hal/ports/STM32/STM32F4xx/adc_lld.h"
 6646              		.file 26 "../e-puck2_main-processor/ChibiOS//os/hal/include/can.h"
 6647              		.file 27 "../e-puck2_main-processor/ChibiOS//os/hal/ports/STM32/LLD/can_lld.h"
 6648              		.file 28 "../e-puck2_main-processor/ChibiOS//os/hal/include/dac.h"
 6649              		.file 29 "../e-puck2_main-processor/ChibiOS//os/hal/ports/STM32/LLD/DACv1/dac_lld.h"
 6650              		.file 30 "../e-puck2_main-processor/ChibiOS//os/hal/include/ext.h"
 6651              		.file 31 "../e-puck2_main-processor/ChibiOS//os/hal/ports/STM32/LLD/ext_lld.h"
 6652              		.file 32 "../e-puck2_main-processor/ChibiOS//os/hal/include/gpt.h"
 6653              		.file 33 "../e-puck2_main-processor/ChibiOS//os/hal/ports/STM32/LLD/TIMv1/gpt_lld.h"
 6654              		.file 34 "../e-puck2_main-processor/ChibiOS//os/hal/ports/STM32/LLD/TIMv1/stm32_tim.h"
 6655              		.file 35 "../e-puck2_main-processor/ChibiOS//os/hal/include/i2c.h"
 6656              		.file 36 "../e-puck2_main-processor/ChibiOS//os/hal/ports/STM32/LLD/I2Cv1/i2c_lld.h"
 6657              		.file 37 "../e-puck2_main-processor/ChibiOS//os/hal/include/i2s.h"
 6658              		.file 38 "../e-puck2_main-processor/ChibiOS//os/hal/ports/STM32/LLD/SPIv1/i2s_lld.h"
 6659              		.file 39 "../e-puck2_main-processor/ChibiOS//os/hal/include/pwm.h"
 6660              		.file 40 "../e-puck2_main-processor/ChibiOS//os/hal/ports/STM32/LLD/TIMv1/pwm_lld.h"
 6661              		.file 41 "../e-puck2_main-processor/ChibiOS//os/hal/include/serial.h"
 6662              		.file 42 "../e-puck2_main-processor/ChibiOS//os/hal/ports/STM32/LLD/USARTv1/serial_lld.h"
 6663              		.file 43 "../e-puck2_main-processor/ChibiOS//os/hal/include/sdc.h"
 6664              		.file 44 "../e-puck2_main-processor/ChibiOS//os/hal/ports/STM32/LLD/sdc_lld.h"
 6665              		.file 45 "../e-puck2_main-processor/ChibiOS//os/hal/include/spi.h"
 6666              		.file 46 "../e-puck2_main-processor/ChibiOS//os/hal/ports/STM32/LLD/SPIv1/spi_lld.h"
 6667              		.file 47 "../e-puck2_main-processor/ChibiOS//os/hal/include/usb.h"
 6668              		.file 48 "../e-puck2_main-processor/ChibiOS//os/hal/ports/STM32/LLD/OTGv1/usb_lld.h"
 6669              		.file 49 "../e-puck2_main-processor/ChibiOS//os/hal/ports/STM32/LLD/OTGv1/stm32_otg.h"
 6670              		.file 50 "../e-puck2_main-processor/ChibiOS//os/hal/include/serial_usb.h"
 6671              		.file 51 "../e-puck2_main-processor/src/epuck1x/../usbcfg.h"
 6672              		.file 52 "../e-puck2_main-processor/ChibiOS_ext/os/hal/include/../ports/STM32/STM32F4xx/dcmi_lld.h
 6673              		.file 53 "/Applications/Eclipse_e-puck2.app/Contents/Eclipse_e-puck2/Tools/gcc-arm-none-eabi-7-201
 6674              		.file 54 "/Applications/Eclipse_e-puck2.app/Contents/Eclipse_e-puck2/Tools/gcc-arm-none-eabi-7-201
 6675              		.file 55 "/Applications/Eclipse_e-puck2.app/Contents/Eclipse_e-puck2/Tools/gcc-arm-none-eabi-7-201
 6676              		.file 56 "../e-puck2_main-processor/src/msgbus/messagebus.h"
 6677              		.file 57 "/Applications/Eclipse_e-puck2.app/Contents/Eclipse_e-puck2/Tools/gcc-arm-none-eabi-7-201
 6678              		.file 58 "/Applications/Eclipse_e-puck2.app/Contents/Eclipse_e-puck2/Tools/gcc-arm-none-eabi-7-201
 6679              		.file 59 "../e-puck2_main-processor/src/parameter/parameter.h"
 6680              		.file 60 "../e-puck2_main-processor/src/main.h"
 6681              		.file 61 "../e-puck2_main-processor/src/audio/play_melody.h"
 6682              		.file 62 "../e-puck2_main-processor/src/leds.h"
 6683              		.file 63 "/Applications/Eclipse_e-puck2.app/Contents/Eclipse_e-puck2/Tools/gcc-arm-none-eabi-7-201
 6684              		.file 64 "../e-puck2_main-processor/src/epuck1x/a_d/advance_ad_scan/e_acc.h"
 6685              		.file 65 "../e-puck2_main-processor/src/epuck1x/acc_gyro/e_lsm330.h"
 6686              		.file 66 "/Applications/Eclipse_e-puck2.app/Contents/Eclipse_e-puck2/Tools/gcc-arm-none-eabi-7-201
 6687              		.file 67 "/Applications/Eclipse_e-puck2.app/Contents/Eclipse_e-puck2/Tools/gcc-arm-none-eabi-7-201
 6688              		.file 68 "../e-puck2_main-processor/src/epuck1x/uart/e_uart_char.h"
ARM GAS  /var/folders/d2/nstgp4h54kz7g1l847x_b8wc0000gn/T//ccB20FE7.s 			page 124


 6689              		.file 69 "../e-puck2_main-processor/src/epuck1x/I2C/e_I2C_protocol.h"
 6690              		.file 70 "../e-puck2_main-processor/src/epuck1x/camera/fast_2_timer/e_poxxxx.h"
 6691              		.file 71 "../e-puck2_main-processor/src/epuck1x/motor_led/advance_one_timer/e_motors.h"
 6692              		.file 72 "../e-puck2_main-processor/src/epuck1x/motor_led/advance_one_timer/e_led.h"
 6693              		.file 73 "../e-puck2_main-processor/src/epuck1x/a_d/advance_ad_scan/e_prox.h"
 6694              		.file 74 "../e-puck2_main-processor/src/epuck1x/a_d/advance_ad_scan/e_micro.h"
 6695              		.file 75 "../e-puck2_main-processor/src/epuck1x/codec/e_sound.h"
 6696              		.file 76 "../e-puck2_main-processor/src/epuck1x/motor_led/e_init_port.h"
 6697              		.file 77 "../e-puck2_main-processor/src/epuck1x/motor_led/advance_one_timer/e_remote_control.h"
 6698              		.file 78 "../e-puck2_main-processor/src/sensors/ground.h"
 6699              		.file 79 "../e-puck2_main-processor/ChibiOS//os/rt/include/chthreads.h"
 6700              		.file 80 "../e-puck2_main-processor/src/epuck1x/utility/utility.h"
 6701              		.file 81 "../e-puck2_main-processor/src/epuck1x/DataEEPROM.h"
 6702              		.file 82 "../e-puck2_main-processor/src/sensors/imu.h"
 6703              		.file 83 "../e-puck2_main-processor/src/sdio.h"
 6704              		.file 84 "../e-puck2_main-processor/src/button.h"
 6705              		.file 85 "../e-puck2_main-processor/src/serial_comm.h"
 6706              		.file 86 "../e-puck2_main-processor/src/sensors/VL53L0X/VL53L0X.h"
 6707              		.file 87 "../e-puck2_main-processor/src/camera/camera.h"
 6708              		.file 88 "../e-puck2_main-processor/src/sensors/proximity.h"
 6709              		.file 89 "<built-in>"
 6710              		.section	.debug_info,"",%progbits
 6711              	.Ldebug_info0:
 6712 0000 28710000 		.4byte	0x7128
 6713 0004 0400     		.2byte	0x4
 6714 0006 00000000 		.4byte	.Ldebug_abbrev0
 6715 000a 04       		.byte	0x4
 6716 000b 01       		.uleb128 0x1
 6717 000c CC110000 		.4byte	.LASF1047
 6718 0010 0C       		.byte	0xc
 6719 0011 66140000 		.4byte	.LASF1048
 6720 0015 74010000 		.4byte	.LASF1049
 6721 0019 30000000 		.4byte	.Ldebug_ranges0+0x30
 6722 001d 00000000 		.4byte	0
 6723 0021 00000000 		.4byte	.Ldebug_line0
 6724 0025 02       		.uleb128 0x2
 6725 0026 04       		.byte	0x4
 6726 0027 05       		.byte	0x5
 6727 0028 696E7400 		.ascii	"int\000"
 6728 002c 03       		.uleb128 0x3
 6729 002d 5D0F0000 		.4byte	.LASF3
 6730 0031 02       		.byte	0x2
 6731 0032 D8       		.byte	0xd8
 6732 0033 37000000 		.4byte	0x37
 6733 0037 04       		.uleb128 0x4
 6734 0038 04       		.byte	0x4
 6735 0039 07       		.byte	0x7
 6736 003a 9A2A0000 		.4byte	.LASF0
 6737 003e 04       		.uleb128 0x4
 6738 003f 08       		.byte	0x8
 6739 0040 05       		.byte	0x5
 6740 0041 07280000 		.4byte	.LASF1
 6741 0045 04       		.uleb128 0x4
 6742 0046 08       		.byte	0x8
 6743 0047 04       		.byte	0x4
 6744 0048 291D0000 		.4byte	.LASF2
 6745 004c 03       		.uleb128 0x3
ARM GAS  /var/folders/d2/nstgp4h54kz7g1l847x_b8wc0000gn/T//ccB20FE7.s 			page 125


 6746 004d 1D2A0000 		.4byte	.LASF4
 6747 0051 03       		.byte	0x3
 6748 0052 29       		.byte	0x29
 6749 0053 57000000 		.4byte	0x57
 6750 0057 04       		.uleb128 0x4
 6751 0058 01       		.byte	0x1
 6752 0059 06       		.byte	0x6
 6753 005a D5180000 		.4byte	.LASF5
 6754 005e 03       		.uleb128 0x3
 6755 005f 3F010000 		.4byte	.LASF6
 6756 0063 03       		.byte	0x3
 6757 0064 2B       		.byte	0x2b
 6758 0065 69000000 		.4byte	0x69
 6759 0069 04       		.uleb128 0x4
 6760 006a 01       		.byte	0x1
 6761 006b 08       		.byte	0x8
 6762 006c 390B0000 		.4byte	.LASF7
 6763 0070 03       		.uleb128 0x3
 6764 0071 6F090000 		.4byte	.LASF8
 6765 0075 03       		.byte	0x3
 6766 0076 37       		.byte	0x37
 6767 0077 7B000000 		.4byte	0x7b
 6768 007b 04       		.uleb128 0x4
 6769 007c 02       		.byte	0x2
 6770 007d 05       		.byte	0x5
 6771 007e 122B0000 		.4byte	.LASF9
 6772 0082 03       		.uleb128 0x3
 6773 0083 79090000 		.4byte	.LASF10
 6774 0087 03       		.byte	0x3
 6775 0088 39       		.byte	0x39
 6776 0089 8D000000 		.4byte	0x8d
 6777 008d 04       		.uleb128 0x4
 6778 008e 02       		.byte	0x2
 6779 008f 07       		.byte	0x7
 6780 0090 BA180000 		.4byte	.LASF11
 6781 0094 03       		.uleb128 0x3
 6782 0095 55230000 		.4byte	.LASF12
 6783 0099 03       		.byte	0x3
 6784 009a 4D       		.byte	0x4d
 6785 009b 9F000000 		.4byte	0x9f
 6786 009f 04       		.uleb128 0x4
 6787 00a0 04       		.byte	0x4
 6788 00a1 05       		.byte	0x5
 6789 00a2 AD1B0000 		.4byte	.LASF13
 6790 00a6 03       		.uleb128 0x3
 6791 00a7 6F230000 		.4byte	.LASF14
 6792 00ab 03       		.byte	0x3
 6793 00ac 4F       		.byte	0x4f
 6794 00ad B1000000 		.4byte	0xb1
 6795 00b1 04       		.uleb128 0x4
 6796 00b2 04       		.byte	0x4
 6797 00b3 07       		.byte	0x7
 6798 00b4 7D1D0000 		.4byte	.LASF15
 6799 00b8 03       		.uleb128 0x3
 6800 00b9 21140000 		.4byte	.LASF16
 6801 00bd 03       		.byte	0x3
 6802 00be 69       		.byte	0x69
ARM GAS  /var/folders/d2/nstgp4h54kz7g1l847x_b8wc0000gn/T//ccB20FE7.s 			page 126


 6803 00bf C3000000 		.4byte	0xc3
 6804 00c3 04       		.uleb128 0x4
 6805 00c4 08       		.byte	0x8
 6806 00c5 07       		.byte	0x7
 6807 00c6 9E250000 		.4byte	.LASF17
 6808 00ca 03       		.uleb128 0x3
 6809 00cb 7F170000 		.4byte	.LASF18
 6810 00cf 04       		.byte	0x4
 6811 00d0 14       		.byte	0x14
 6812 00d1 4C000000 		.4byte	0x4c
 6813 00d5 03       		.uleb128 0x3
 6814 00d6 990F0000 		.4byte	.LASF19
 6815 00da 04       		.byte	0x4
 6816 00db 18       		.byte	0x18
 6817 00dc 5E000000 		.4byte	0x5e
 6818 00e0 05       		.uleb128 0x5
 6819 00e1 D5000000 		.4byte	0xd5
 6820 00e5 03       		.uleb128 0x3
 6821 00e6 9D180000 		.4byte	.LASF20
 6822 00ea 04       		.byte	0x4
 6823 00eb 20       		.byte	0x20
 6824 00ec 70000000 		.4byte	0x70
 6825 00f0 03       		.uleb128 0x3
 6826 00f1 13030000 		.4byte	.LASF21
 6827 00f5 04       		.byte	0x4
 6828 00f6 24       		.byte	0x24
 6829 00f7 82000000 		.4byte	0x82
 6830 00fb 03       		.uleb128 0x3
 6831 00fc 12050000 		.4byte	.LASF22
 6832 0100 04       		.byte	0x4
 6833 0101 2C       		.byte	0x2c
 6834 0102 94000000 		.4byte	0x94
 6835 0106 06       		.uleb128 0x6
 6836 0107 FB000000 		.4byte	0xfb
 6837 010b 03       		.uleb128 0x3
 6838 010c E51C0000 		.4byte	.LASF23
 6839 0110 04       		.byte	0x4
 6840 0111 30       		.byte	0x30
 6841 0112 A6000000 		.4byte	0xa6
 6842 0116 06       		.uleb128 0x6
 6843 0117 0B010000 		.4byte	0x10b
 6844 011b 05       		.uleb128 0x5
 6845 011c 16010000 		.4byte	0x116
 6846 0120 03       		.uleb128 0x3
 6847 0121 B40C0000 		.4byte	.LASF24
 6848 0125 04       		.byte	0x4
 6849 0126 3C       		.byte	0x3c
 6850 0127 B8000000 		.4byte	0xb8
 6851 012b 03       		.uleb128 0x3
 6852 012c EA0E0000 		.4byte	.LASF25
 6853 0130 05       		.byte	0x5
 6854 0131 45       		.byte	0x45
 6855 0132 0B010000 		.4byte	0x10b
 6856 0136 03       		.uleb128 0x3
 6857 0137 7B070000 		.4byte	.LASF26
 6858 013b 05       		.byte	0x5
 6859 013c 46       		.byte	0x46
ARM GAS  /var/folders/d2/nstgp4h54kz7g1l847x_b8wc0000gn/T//ccB20FE7.s 			page 127


 6860 013d 20010000 		.4byte	0x120
 6861 0141 03       		.uleb128 0x3
 6862 0142 33160000 		.4byte	.LASF27
 6863 0146 05       		.byte	0x5
 6864 0147 48       		.byte	0x48
 6865 0148 D5000000 		.4byte	0xd5
 6866 014c 03       		.uleb128 0x3
 6867 014d 97260000 		.4byte	.LASF28
 6868 0151 05       		.byte	0x5
 6869 0152 49       		.byte	0x49
 6870 0153 D5000000 		.4byte	0xd5
 6871 0157 03       		.uleb128 0x3
 6872 0158 BA150000 		.4byte	.LASF29
 6873 015c 05       		.byte	0x5
 6874 015d 4A       		.byte	0x4a
 6875 015e D5000000 		.4byte	0xd5
 6876 0162 03       		.uleb128 0x3
 6877 0163 1C180000 		.4byte	.LASF30
 6878 0167 05       		.byte	0x5
 6879 0168 4B       		.byte	0x4b
 6880 0169 D5000000 		.4byte	0xd5
 6881 016d 03       		.uleb128 0x3
 6882 016e 33080000 		.4byte	.LASF31
 6883 0172 05       		.byte	0x5
 6884 0173 4C       		.byte	0x4c
 6885 0174 0B010000 		.4byte	0x10b
 6886 0178 03       		.uleb128 0x3
 6887 0179 B1000000 		.4byte	.LASF32
 6888 017d 05       		.byte	0x5
 6889 017e 4D       		.byte	0x4d
 6890 017f FB000000 		.4byte	0xfb
 6891 0183 03       		.uleb128 0x3
 6892 0184 3E1D0000 		.4byte	.LASF33
 6893 0188 05       		.byte	0x5
 6894 0189 4F       		.byte	0x4f
 6895 018a 0B010000 		.4byte	0x10b
 6896 018e 03       		.uleb128 0x3
 6897 018f B1280000 		.4byte	.LASF34
 6898 0193 05       		.byte	0x5
 6899 0194 50       		.byte	0x50
 6900 0195 0B010000 		.4byte	0x10b
 6901 0199 03       		.uleb128 0x3
 6902 019a A6200000 		.4byte	.LASF35
 6903 019e 05       		.byte	0x5
 6904 019f 51       		.byte	0x51
 6905 01a0 FB000000 		.4byte	0xfb
 6906 01a4 03       		.uleb128 0x3
 6907 01a5 00190000 		.4byte	.LASF36
 6908 01a9 05       		.byte	0x5
 6909 01aa 52       		.byte	0x52
 6910 01ab 0B010000 		.4byte	0x10b
 6911 01af 03       		.uleb128 0x3
 6912 01b0 3E050000 		.4byte	.LASF37
 6913 01b4 06       		.byte	0x6
 6914 01b5 33       		.byte	0x33
 6915 01b6 0B010000 		.4byte	0x10b
 6916 01ba 06       		.uleb128 0x6
ARM GAS  /var/folders/d2/nstgp4h54kz7g1l847x_b8wc0000gn/T//ccB20FE7.s 			page 128


 6917 01bb AF010000 		.4byte	0x1af
 6918 01bf 03       		.uleb128 0x3
 6919 01c0 CA040000 		.4byte	.LASF38
 6920 01c4 06       		.byte	0x6
 6921 01c5 3F       		.byte	0x3f
 6922 01c6 CA010000 		.4byte	0x1ca
 6923 01ca 07       		.uleb128 0x7
 6924 01cb 7E0B0000 		.4byte	.LASF62
 6925 01cf 68       		.byte	0x68
 6926 01d0 07       		.byte	0x7
 6927 01d1 C2       		.byte	0xc2
 6928 01d2 E8020000 		.4byte	0x2e8
 6929 01d6 08       		.uleb128 0x8
 6930 01d7 56150000 		.4byte	.LASF39
 6931 01db 07       		.byte	0x7
 6932 01dc C3       		.byte	0xc3
 6933 01dd F3020000 		.4byte	0x2f3
 6934 01e1 00       		.byte	0
 6935 01e2 08       		.uleb128 0x8
 6936 01e3 BF0F0000 		.4byte	.LASF40
 6937 01e7 07       		.byte	0x7
 6938 01e8 C5       		.byte	0xc5
 6939 01e9 F3020000 		.4byte	0x2f3
 6940 01ed 04       		.byte	0x4
 6941 01ee 08       		.uleb128 0x8
 6942 01ef FA130000 		.4byte	.LASF41
 6943 01f3 07       		.byte	0x7
 6944 01f4 C7       		.byte	0xc7
 6945 01f5 6D010000 		.4byte	0x16d
 6946 01f9 08       		.byte	0x8
 6947 01fa 08       		.uleb128 0x8
 6948 01fb 3C0C0000 		.4byte	.LASF42
 6949 01ff 07       		.byte	0x7
 6950 0200 C8       		.byte	0xc8
 6951 0201 9F0D0000 		.4byte	0xd9f
 6952 0205 0C       		.byte	0xc
 6953 0206 08       		.uleb128 0x8
 6954 0207 CA030000 		.4byte	.LASF43
 6955 020b 07       		.byte	0x7
 6956 020c CA       		.byte	0xca
 6957 020d F3020000 		.4byte	0x2f3
 6958 0211 10       		.byte	0x10
 6959 0212 08       		.uleb128 0x8
 6960 0213 4D290000 		.4byte	.LASF44
 6961 0217 07       		.byte	0x7
 6962 0218 CB       		.byte	0xcb
 6963 0219 F3020000 		.4byte	0x2f3
 6964 021d 14       		.byte	0x14
 6965 021e 08       		.uleb128 0x8
 6966 021f 23270000 		.4byte	.LASF45
 6967 0223 07       		.byte	0x7
 6968 0224 D2       		.byte	0xd2
 6969 0225 15110000 		.4byte	0x1115
 6970 0229 18       		.byte	0x18
 6971 022a 08       		.uleb128 0x8
 6972 022b 9B200000 		.4byte	.LASF46
 6973 022f 07       		.byte	0x7
ARM GAS  /var/folders/d2/nstgp4h54kz7g1l847x_b8wc0000gn/T//ccB20FE7.s 			page 129


 6974 0230 D8       		.byte	0xd8
 6975 0231 2C110000 		.4byte	0x112c
 6976 0235 1C       		.byte	0x1c
 6977 0236 08       		.uleb128 0x8
 6978 0237 D62B0000 		.4byte	.LASF47
 6979 023b 07       		.byte	0x7
 6980 023c DD       		.byte	0xdd
 6981 023d 4C010000 		.4byte	0x14c
 6982 0241 20       		.byte	0x20
 6983 0242 08       		.uleb128 0x8
 6984 0243 3D260000 		.4byte	.LASF48
 6985 0247 07       		.byte	0x7
 6986 0248 E1       		.byte	0xe1
 6987 0249 41010000 		.4byte	0x141
 6988 024d 21       		.byte	0x21
 6989 024e 08       		.uleb128 0x8
 6990 024f 8C1B0000 		.4byte	.LASF49
 6991 0253 07       		.byte	0x7
 6992 0254 E6       		.byte	0xe6
 6993 0255 57010000 		.4byte	0x157
 6994 0259 22       		.byte	0x22
 6995 025a 08       		.uleb128 0x8
 6996 025b F6180000 		.4byte	.LASF50
 6997 025f 07       		.byte	0x7
 6998 0260 EC       		.byte	0xec
 6999 0261 62010000 		.4byte	0x162
 7000 0265 23       		.byte	0x23
 7001 0266 08       		.uleb128 0x8
 7002 0267 851B0000 		.4byte	.LASF51
 7003 026b 07       		.byte	0x7
 7004 026c F3       		.byte	0xf3
 7005 026d BA010000 		.4byte	0x1ba
 7006 0271 24       		.byte	0x24
 7007 0272 09       		.uleb128 0x9
 7008 0273 705F7500 		.ascii	"p_u\000"
 7009 0277 07       		.byte	0x7
 7010 0278 3101     		.2byte	0x131
 7011 027a 44100000 		.4byte	0x1044
 7012 027e 28       		.byte	0x28
 7013 027f 0A       		.uleb128 0xa
 7014 0280 BC060000 		.4byte	.LASF52
 7015 0284 07       		.byte	0x7
 7016 0285 3601     		.2byte	0x136
 7017 0287 F9020000 		.4byte	0x2f9
 7018 028b 2C       		.byte	0x2c
 7019 028c 0A       		.uleb128 0xa
 7020 028d 97190000 		.4byte	.LASF53
 7021 0291 07       		.byte	0x7
 7022 0292 3C01     		.2byte	0x13c
 7023 0294 1D030000 		.4byte	0x31d
 7024 0298 30       		.byte	0x30
 7025 0299 0A       		.uleb128 0xa
 7026 029a 9C090000 		.4byte	.LASF54
 7027 029e 07       		.byte	0x7
 7028 029f 4001     		.2byte	0x140
 7029 02a1 78010000 		.4byte	0x178
 7030 02a5 38       		.byte	0x38
ARM GAS  /var/folders/d2/nstgp4h54kz7g1l847x_b8wc0000gn/T//ccB20FE7.s 			page 130


 7031 02a6 0A       		.uleb128 0xa
 7032 02a7 30240000 		.4byte	.LASF55
 7033 02ab 07       		.byte	0x7
 7034 02ac 4601     		.2byte	0x146
 7035 02ae 83010000 		.4byte	0x183
 7036 02b2 3C       		.byte	0x3c
 7037 02b3 0A       		.uleb128 0xa
 7038 02b4 82260000 		.4byte	.LASF56
 7039 02b8 07       		.byte	0x7
 7040 02b9 4D01     		.2byte	0x14d
 7041 02bb 0F110000 		.4byte	0x110f
 7042 02bf 40       		.byte	0x40
 7043 02c0 0A       		.uleb128 0xa
 7044 02c1 69220000 		.4byte	.LASF57
 7045 02c5 07       		.byte	0x7
 7046 02c6 5101     		.2byte	0x151
 7047 02c8 6D010000 		.4byte	0x16d
 7048 02cc 44       		.byte	0x44
 7049 02cd 0A       		.uleb128 0xa
 7050 02ce C2150000 		.4byte	.LASF58
 7051 02d2 07       		.byte	0x7
 7052 02d3 5801     		.2byte	0x158
 7053 02d5 D0030000 		.4byte	0x3d0
 7054 02d9 48       		.byte	0x48
 7055 02da 0A       		.uleb128 0xa
 7056 02db 172C0000 		.4byte	.LASF59
 7057 02df 07       		.byte	0x7
 7058 02e0 5E01     		.2byte	0x15e
 7059 02e2 F50F0000 		.4byte	0xff5
 7060 02e6 50       		.byte	0x50
 7061 02e7 00       		.byte	0
 7062 02e8 03       		.uleb128 0x3
 7063 02e9 B6290000 		.4byte	.LASF60
 7064 02ed 06       		.byte	0x6
 7065 02ee 44       		.byte	0x44
 7066 02ef F3020000 		.4byte	0x2f3
 7067 02f3 0B       		.uleb128 0xb
 7068 02f4 04       		.byte	0x4
 7069 02f5 BF010000 		.4byte	0x1bf
 7070 02f9 03       		.uleb128 0x3
 7071 02fa 06070000 		.4byte	.LASF61
 7072 02fe 06       		.byte	0x6
 7073 02ff 49       		.byte	0x49
 7074 0300 04030000 		.4byte	0x304
 7075 0304 07       		.uleb128 0x7
 7076 0305 F02B0000 		.4byte	.LASF63
 7077 0309 04       		.byte	0x4
 7078 030a 07       		.byte	0x7
 7079 030b B0       		.byte	0xb0
 7080 030c 1D030000 		.4byte	0x31d
 7081 0310 08       		.uleb128 0x8
 7082 0311 56150000 		.4byte	.LASF39
 7083 0315 07       		.byte	0x7
 7084 0316 B1       		.byte	0xb1
 7085 0317 F3020000 		.4byte	0x2f3
 7086 031b 00       		.byte	0
 7087 031c 00       		.byte	0
ARM GAS  /var/folders/d2/nstgp4h54kz7g1l847x_b8wc0000gn/T//ccB20FE7.s 			page 131


 7088 031d 03       		.uleb128 0x3
 7089 031e 6A1B0000 		.4byte	.LASF64
 7090 0322 06       		.byte	0x6
 7091 0323 50       		.byte	0x50
 7092 0324 28030000 		.4byte	0x328
 7093 0328 07       		.uleb128 0x7
 7094 0329 AF030000 		.4byte	.LASF65
 7095 032d 08       		.byte	0x8
 7096 032e 07       		.byte	0x7
 7097 032f B7       		.byte	0xb7
 7098 0330 4D030000 		.4byte	0x34d
 7099 0334 08       		.uleb128 0x8
 7100 0335 56150000 		.4byte	.LASF39
 7101 0339 07       		.byte	0x7
 7102 033a B8       		.byte	0xb8
 7103 033b F3020000 		.4byte	0x2f3
 7104 033f 00       		.byte	0
 7105 0340 08       		.uleb128 0x8
 7106 0341 BF0F0000 		.4byte	.LASF40
 7107 0345 07       		.byte	0x7
 7108 0346 B9       		.byte	0xb9
 7109 0347 F3020000 		.4byte	0x2f3
 7110 034b 04       		.byte	0x4
 7111 034c 00       		.byte	0
 7112 034d 03       		.uleb128 0x3
 7113 034e 710B0000 		.4byte	.LASF66
 7114 0352 06       		.byte	0x6
 7115 0353 57       		.byte	0x57
 7116 0354 58030000 		.4byte	0x358
 7117 0358 0C       		.uleb128 0xc
 7118 0359 3B230000 		.4byte	.LASF67
 7119 035d 1C       		.byte	0x1c
 7120 035e 07       		.byte	0x7
 7121 035f 9001     		.2byte	0x190
 7122 0361 B4030000 		.4byte	0x3b4
 7123 0365 0A       		.uleb128 0xa
 7124 0366 601E0000 		.4byte	.LASF68
 7125 036a 07       		.byte	0x7
 7126 036b 9101     		.2byte	0x191
 7127 036d 1D030000 		.4byte	0x31d
 7128 0371 00       		.byte	0
 7129 0372 0A       		.uleb128 0xa
 7130 0373 65250000 		.4byte	.LASF69
 7131 0377 07       		.byte	0x7
 7132 0378 9201     		.2byte	0x192
 7133 037a 6D010000 		.4byte	0x16d
 7134 037e 08       		.byte	0x8
 7135 037f 0A       		.uleb128 0xa
 7136 0380 CA0E0000 		.4byte	.LASF70
 7137 0384 07       		.byte	0x7
 7138 0385 9401     		.2byte	0x194
 7139 0387 9F0D0000 		.4byte	0xd9f
 7140 038b 0C       		.byte	0xc
 7141 038c 0A       		.uleb128 0xa
 7142 038d AC170000 		.4byte	.LASF71
 7143 0391 07       		.byte	0x7
 7144 0392 9701     		.2byte	0x197
ARM GAS  /var/folders/d2/nstgp4h54kz7g1l847x_b8wc0000gn/T//ccB20FE7.s 			page 132


 7145 0394 F3020000 		.4byte	0x2f3
 7146 0398 10       		.byte	0x10
 7147 0399 0A       		.uleb128 0xa
 7148 039a B70F0000 		.4byte	.LASF72
 7149 039e 07       		.byte	0x7
 7150 039f 9801     		.2byte	0x198
 7151 03a1 F3020000 		.4byte	0x2f3
 7152 03a5 14       		.byte	0x14
 7153 03a6 0A       		.uleb128 0xa
 7154 03a7 680C0000 		.4byte	.LASF73
 7155 03ab 07       		.byte	0x7
 7156 03ac 9B01     		.2byte	0x19b
 7157 03ae F3020000 		.4byte	0x2f3
 7158 03b2 18       		.byte	0x18
 7159 03b3 00       		.byte	0
 7160 03b4 03       		.uleb128 0x3
 7161 03b5 E8210000 		.4byte	.LASF74
 7162 03b9 06       		.byte	0x6
 7163 03ba 5C       		.byte	0x5c
 7164 03bb BF030000 		.4byte	0x3bf
 7165 03bf 0B       		.uleb128 0xb
 7166 03c0 04       		.byte	0x4
 7167 03c1 C5030000 		.4byte	0x3c5
 7168 03c5 0D       		.uleb128 0xd
 7169 03c6 D0030000 		.4byte	0x3d0
 7170 03ca 0E       		.uleb128 0xe
 7171 03cb D0030000 		.4byte	0x3d0
 7172 03cf 00       		.byte	0
 7173 03d0 0F       		.uleb128 0xf
 7174 03d1 04       		.byte	0x4
 7175 03d2 03       		.uleb128 0x3
 7176 03d3 A20E0000 		.4byte	.LASF75
 7177 03d7 06       		.byte	0x6
 7178 03d8 61       		.byte	0x61
 7179 03d9 DD030000 		.4byte	0x3dd
 7180 03dd 0C       		.uleb128 0xc
 7181 03de 2C260000 		.4byte	.LASF76
 7182 03e2 14       		.byte	0x14
 7183 03e3 07       		.byte	0x7
 7184 03e4 6B01     		.2byte	0x16b
 7185 03e6 2C040000 		.4byte	0x42c
 7186 03ea 0A       		.uleb128 0xa
 7187 03eb D00E0000 		.4byte	.LASF77
 7188 03ef 07       		.byte	0x7
 7189 03f0 6C01     		.2byte	0x16c
 7190 03f2 32110000 		.4byte	0x1132
 7191 03f6 00       		.byte	0
 7192 03f7 0A       		.uleb128 0xa
 7193 03f8 170B0000 		.4byte	.LASF78
 7194 03fc 07       		.byte	0x7
 7195 03fd 6D01     		.2byte	0x16d
 7196 03ff 32110000 		.4byte	0x1132
 7197 0403 04       		.byte	0x4
 7198 0404 0A       		.uleb128 0xa
 7199 0405 67180000 		.4byte	.LASF79
 7200 0409 07       		.byte	0x7
 7201 040a 6E01     		.2byte	0x16e
ARM GAS  /var/folders/d2/nstgp4h54kz7g1l847x_b8wc0000gn/T//ccB20FE7.s 			page 133


 7202 040c AF010000 		.4byte	0x1af
 7203 0410 08       		.byte	0x8
 7204 0411 0A       		.uleb128 0xa
 7205 0412 17260000 		.4byte	.LASF80
 7206 0416 07       		.byte	0x7
 7207 0417 6F01     		.2byte	0x16f
 7208 0419 B4030000 		.4byte	0x3b4
 7209 041d 0C       		.byte	0xc
 7210 041e 0A       		.uleb128 0xa
 7211 041f 420C0000 		.4byte	.LASF81
 7212 0423 07       		.byte	0x7
 7213 0424 7101     		.2byte	0x171
 7214 0426 D0030000 		.4byte	0x3d0
 7215 042a 10       		.byte	0x10
 7216 042b 00       		.byte	0
 7217 042c 03       		.uleb128 0x3
 7218 042d 77270000 		.4byte	.LASF82
 7219 0431 06       		.byte	0x6
 7220 0432 66       		.byte	0x66
 7221 0433 37040000 		.4byte	0x437
 7222 0437 0C       		.uleb128 0xc
 7223 0438 F4040000 		.4byte	.LASF83
 7224 043c 10       		.byte	0x10
 7225 043d 07       		.byte	0x7
 7226 043e 7B01     		.2byte	0x17b
 7227 0440 79040000 		.4byte	0x479
 7228 0444 0A       		.uleb128 0xa
 7229 0445 D00E0000 		.4byte	.LASF77
 7230 0449 07       		.byte	0x7
 7231 044a 7C01     		.2byte	0x17c
 7232 044c 32110000 		.4byte	0x1132
 7233 0450 00       		.byte	0
 7234 0451 0A       		.uleb128 0xa
 7235 0452 170B0000 		.4byte	.LASF78
 7236 0456 07       		.byte	0x7
 7237 0457 7E01     		.2byte	0x17e
 7238 0459 32110000 		.4byte	0x1132
 7239 045d 04       		.byte	0x4
 7240 045e 0A       		.uleb128 0xa
 7241 045f 67180000 		.4byte	.LASF79
 7242 0463 07       		.byte	0x7
 7243 0464 8001     		.2byte	0x180
 7244 0466 AF010000 		.4byte	0x1af
 7245 046a 08       		.byte	0x8
 7246 046b 0A       		.uleb128 0xa
 7247 046c 6F020000 		.4byte	.LASF84
 7248 0470 07       		.byte	0x7
 7249 0471 8201     		.2byte	0x182
 7250 0473 BA010000 		.4byte	0x1ba
 7251 0477 0C       		.byte	0xc
 7252 0478 00       		.byte	0
 7253 0479 03       		.uleb128 0x3
 7254 047a 0B0C0000 		.4byte	.LASF85
 7255 047e 06       		.byte	0x6
 7256 047f 6B       		.byte	0x6b
 7257 0480 84040000 		.4byte	0x484
 7258 0484 10       		.uleb128 0x10
ARM GAS  /var/folders/d2/nstgp4h54kz7g1l847x_b8wc0000gn/T//ccB20FE7.s 			page 134


 7259 0485 85230000 		.4byte	.LASF86
 7260 0489 1404     		.2byte	0x414
 7261 048b 07       		.byte	0x7
 7262 048c A201     		.2byte	0x1a2
 7263 048e C7040000 		.4byte	0x4c7
 7264 0492 0A       		.uleb128 0xa
 7265 0493 8E170000 		.4byte	.LASF87
 7266 0497 07       		.byte	0x7
 7267 0498 AA01     		.2byte	0x1aa
 7268 049a 1B110000 		.4byte	0x111b
 7269 049e 00       		.byte	0
 7270 049f 0A       		.uleb128 0xa
 7271 04a0 1A170000 		.4byte	.LASF88
 7272 04a4 07       		.byte	0x7
 7273 04a5 AF01     		.2byte	0x1af
 7274 04a7 99010000 		.4byte	0x199
 7275 04ab 04       		.byte	0x4
 7276 04ac 0A       		.uleb128 0xa
 7277 04ad A6030000 		.4byte	.LASF89
 7278 04b1 07       		.byte	0x7
 7279 04b2 B301     		.2byte	0x1b3
 7280 04b4 99010000 		.4byte	0x199
 7281 04b8 08       		.byte	0x8
 7282 04b9 0A       		.uleb128 0xa
 7283 04ba AE1A0000 		.4byte	.LASF90
 7284 04be 07       		.byte	0x7
 7285 04bf B901     		.2byte	0x1b9
 7286 04c1 870F0000 		.4byte	0xf87
 7287 04c5 0C       		.byte	0xc
 7288 04c6 00       		.byte	0
 7289 04c7 03       		.uleb128 0x3
 7290 04c8 33010000 		.4byte	.LASF91
 7291 04cc 06       		.byte	0x6
 7292 04cd 70       		.byte	0x70
 7293 04ce D2040000 		.4byte	0x4d2
 7294 04d2 10       		.uleb128 0x10
 7295 04d3 971A0000 		.4byte	.LASF92
 7296 04d7 7006     		.2byte	0x670
 7297 04d9 07       		.byte	0x7
 7298 04da C201     		.2byte	0x1c2
 7299 04dc 3F050000 		.4byte	0x53f
 7300 04e0 0A       		.uleb128 0xa
 7301 04e1 00070000 		.4byte	.LASF93
 7302 04e5 07       		.byte	0x7
 7303 04e6 C601     		.2byte	0x1c6
 7304 04e8 4D030000 		.4byte	0x34d
 7305 04ec 00       		.byte	0
 7306 04ed 0A       		.uleb128 0xa
 7307 04ee A6060000 		.4byte	.LASF94
 7308 04f2 07       		.byte	0x7
 7309 04f3 CA01     		.2byte	0x1ca
 7310 04f5 2C040000 		.4byte	0x42c
 7311 04f9 1C       		.byte	0x1c
 7312 04fa 09       		.uleb128 0x9
 7313 04fb 64626700 		.ascii	"dbg\000"
 7314 04ff 07       		.byte	0x7
 7315 0500 CE01     		.2byte	0x1ce
ARM GAS  /var/folders/d2/nstgp4h54kz7g1l847x_b8wc0000gn/T//ccB20FE7.s 			page 135


 7316 0502 79040000 		.4byte	0x479
 7317 0506 2C       		.byte	0x2c
 7318 0507 11       		.uleb128 0x11
 7319 0508 B61B0000 		.4byte	.LASF95
 7320 050c 07       		.byte	0x7
 7321 050d D201     		.2byte	0x1d2
 7322 050f BF010000 		.4byte	0x1bf
 7323 0513 4004     		.2byte	0x440
 7324 0515 12       		.uleb128 0x12
 7325 0516 746D00   		.ascii	"tm\000"
 7326 0519 07       		.byte	0x7
 7327 051a D701     		.2byte	0x1d7
 7328 051c A70F0000 		.4byte	0xfa7
 7329 0520 A804     		.2byte	0x4a8
 7330 0522 11       		.uleb128 0x11
 7331 0523 640F0000 		.4byte	.LASF96
 7332 0527 07       		.byte	0x7
 7333 0528 DD01     		.2byte	0x1dd
 7334 052a 39100000 		.4byte	0x1039
 7335 052e B004     		.2byte	0x4b0
 7336 0530 11       		.uleb128 0x11
 7337 0531 F4250000 		.4byte	.LASF97
 7338 0535 07       		.byte	0x7
 7339 0536 E301     		.2byte	0x1e3
 7340 0538 38110000 		.4byte	0x1138
 7341 053c E804     		.2byte	0x4e8
 7342 053e 00       		.byte	0
 7343 053f 13       		.uleb128 0x13
 7344 0540 0B010000 		.4byte	0x10b
 7345 0544 4F050000 		.4byte	0x54f
 7346 0548 14       		.uleb128 0x14
 7347 0549 37000000 		.4byte	0x37
 7348 054d 01       		.byte	0x1
 7349 054e 00       		.byte	0
 7350 054f 13       		.uleb128 0x13
 7351 0550 0B010000 		.4byte	0x10b
 7352 0554 5F050000 		.4byte	0x55f
 7353 0558 14       		.uleb128 0x14
 7354 0559 37000000 		.4byte	0x37
 7355 055d 07       		.byte	0x7
 7356 055e 00       		.byte	0
 7357 055f 15       		.uleb128 0x15
 7358 0560 71250000 		.4byte	.LASF98
 7359 0564 08       		.byte	0x8
 7360 0565 A706     		.2byte	0x6a7
 7361 0567 06010000 		.4byte	0x106
 7362 056b 16       		.uleb128 0x16
 7363 056c DC190000 		.4byte	.LASF99
 7364 0570 09       		.byte	0x9
 7365 0571 4C       		.byte	0x4c
 7366 0572 0B010000 		.4byte	0x10b
 7367 0576 17       		.uleb128 0x17
 7368 0577 50       		.byte	0x50
 7369 0578 0A       		.byte	0xa
 7370 0579 C4       		.byte	0xc4
 7371 057a 6D060000 		.4byte	0x66d
 7372 057e 18       		.uleb128 0x18
ARM GAS  /var/folders/d2/nstgp4h54kz7g1l847x_b8wc0000gn/T//ccB20FE7.s 			page 136


 7373 057f 535200   		.ascii	"SR\000"
 7374 0582 0A       		.byte	0xa
 7375 0583 C6       		.byte	0xc6
 7376 0584 16010000 		.4byte	0x116
 7377 0588 00       		.byte	0
 7378 0589 18       		.uleb128 0x18
 7379 058a 43523100 		.ascii	"CR1\000"
 7380 058e 0A       		.byte	0xa
 7381 058f C7       		.byte	0xc7
 7382 0590 16010000 		.4byte	0x116
 7383 0594 04       		.byte	0x4
 7384 0595 18       		.uleb128 0x18
 7385 0596 43523200 		.ascii	"CR2\000"
 7386 059a 0A       		.byte	0xa
 7387 059b C8       		.byte	0xc8
 7388 059c 16010000 		.4byte	0x116
 7389 05a0 08       		.byte	0x8
 7390 05a1 08       		.uleb128 0x8
 7391 05a2 04040000 		.4byte	.LASF100
 7392 05a6 0A       		.byte	0xa
 7393 05a7 C9       		.byte	0xc9
 7394 05a8 16010000 		.4byte	0x116
 7395 05ac 0C       		.byte	0xc
 7396 05ad 08       		.uleb128 0x8
 7397 05ae 0A040000 		.4byte	.LASF101
 7398 05b2 0A       		.byte	0xa
 7399 05b3 CA       		.byte	0xca
 7400 05b4 16010000 		.4byte	0x116
 7401 05b8 10       		.byte	0x10
 7402 05b9 08       		.uleb128 0x8
 7403 05ba 490C0000 		.4byte	.LASF102
 7404 05be 0A       		.byte	0xa
 7405 05bf CB       		.byte	0xcb
 7406 05c0 16010000 		.4byte	0x116
 7407 05c4 14       		.byte	0x14
 7408 05c5 08       		.uleb128 0x8
 7409 05c6 4F0C0000 		.4byte	.LASF103
 7410 05ca 0A       		.byte	0xa
 7411 05cb CC       		.byte	0xcc
 7412 05cc 16010000 		.4byte	0x116
 7413 05d0 18       		.byte	0x18
 7414 05d1 08       		.uleb128 0x8
 7415 05d2 550C0000 		.4byte	.LASF104
 7416 05d6 0A       		.byte	0xa
 7417 05d7 CD       		.byte	0xcd
 7418 05d8 16010000 		.4byte	0x116
 7419 05dc 1C       		.byte	0x1c
 7420 05dd 08       		.uleb128 0x8
 7421 05de 5B0C0000 		.4byte	.LASF105
 7422 05e2 0A       		.byte	0xa
 7423 05e3 CE       		.byte	0xce
 7424 05e4 16010000 		.4byte	0x116
 7425 05e8 20       		.byte	0x20
 7426 05e9 18       		.uleb128 0x18
 7427 05ea 48545200 		.ascii	"HTR\000"
 7428 05ee 0A       		.byte	0xa
 7429 05ef CF       		.byte	0xcf
ARM GAS  /var/folders/d2/nstgp4h54kz7g1l847x_b8wc0000gn/T//ccB20FE7.s 			page 137


 7430 05f0 16010000 		.4byte	0x116
 7431 05f4 24       		.byte	0x24
 7432 05f5 18       		.uleb128 0x18
 7433 05f6 4C545200 		.ascii	"LTR\000"
 7434 05fa 0A       		.byte	0xa
 7435 05fb D0       		.byte	0xd0
 7436 05fc 16010000 		.4byte	0x116
 7437 0600 28       		.byte	0x28
 7438 0601 08       		.uleb128 0x8
 7439 0602 61160000 		.4byte	.LASF106
 7440 0606 0A       		.byte	0xa
 7441 0607 D1       		.byte	0xd1
 7442 0608 16010000 		.4byte	0x116
 7443 060c 2C       		.byte	0x2c
 7444 060d 08       		.uleb128 0x8
 7445 060e 66160000 		.4byte	.LASF107
 7446 0612 0A       		.byte	0xa
 7447 0613 D2       		.byte	0xd2
 7448 0614 16010000 		.4byte	0x116
 7449 0618 30       		.byte	0x30
 7450 0619 08       		.uleb128 0x8
 7451 061a 6B160000 		.4byte	.LASF108
 7452 061e 0A       		.byte	0xa
 7453 061f D3       		.byte	0xd3
 7454 0620 16010000 		.4byte	0x116
 7455 0624 34       		.byte	0x34
 7456 0625 08       		.uleb128 0x8
 7457 0626 710E0000 		.4byte	.LASF109
 7458 062a 0A       		.byte	0xa
 7459 062b D4       		.byte	0xd4
 7460 062c 16010000 		.4byte	0x116
 7461 0630 38       		.byte	0x38
 7462 0631 08       		.uleb128 0x8
 7463 0632 42270000 		.4byte	.LASF110
 7464 0636 0A       		.byte	0xa
 7465 0637 D5       		.byte	0xd5
 7466 0638 16010000 		.4byte	0x116
 7467 063c 3C       		.byte	0x3c
 7468 063d 08       		.uleb128 0x8
 7469 063e 47270000 		.4byte	.LASF111
 7470 0642 0A       		.byte	0xa
 7471 0643 D6       		.byte	0xd6
 7472 0644 16010000 		.4byte	0x116
 7473 0648 40       		.byte	0x40
 7474 0649 08       		.uleb128 0x8
 7475 064a 4C270000 		.4byte	.LASF112
 7476 064e 0A       		.byte	0xa
 7477 064f D7       		.byte	0xd7
 7478 0650 16010000 		.4byte	0x116
 7479 0654 44       		.byte	0x44
 7480 0655 08       		.uleb128 0x8
 7481 0656 51270000 		.4byte	.LASF113
 7482 065a 0A       		.byte	0xa
 7483 065b D8       		.byte	0xd8
 7484 065c 16010000 		.4byte	0x116
 7485 0660 48       		.byte	0x48
 7486 0661 18       		.uleb128 0x18
ARM GAS  /var/folders/d2/nstgp4h54kz7g1l847x_b8wc0000gn/T//ccB20FE7.s 			page 138


 7487 0662 445200   		.ascii	"DR\000"
 7488 0665 0A       		.byte	0xa
 7489 0666 D9       		.byte	0xd9
 7490 0667 16010000 		.4byte	0x116
 7491 066b 4C       		.byte	0x4c
 7492 066c 00       		.byte	0
 7493 066d 03       		.uleb128 0x3
 7494 066e AE180000 		.4byte	.LASF114
 7495 0672 0A       		.byte	0xa
 7496 0673 DA       		.byte	0xda
 7497 0674 76050000 		.4byte	0x576
 7498 0678 17       		.uleb128 0x17
 7499 0679 10       		.byte	0x10
 7500 067a 0A       		.byte	0xa
 7501 067b E9       		.byte	0xe9
 7502 067c B1060000 		.4byte	0x6b1
 7503 0680 18       		.uleb128 0x18
 7504 0681 54495200 		.ascii	"TIR\000"
 7505 0685 0A       		.byte	0xa
 7506 0686 EB       		.byte	0xeb
 7507 0687 16010000 		.4byte	0x116
 7508 068b 00       		.byte	0
 7509 068c 08       		.uleb128 0x8
 7510 068d A6130000 		.4byte	.LASF115
 7511 0691 0A       		.byte	0xa
 7512 0692 EC       		.byte	0xec
 7513 0693 16010000 		.4byte	0x116
 7514 0697 04       		.byte	0x4
 7515 0698 08       		.uleb128 0x8
 7516 0699 A81B0000 		.4byte	.LASF116
 7517 069d 0A       		.byte	0xa
 7518 069e ED       		.byte	0xed
 7519 069f 16010000 		.4byte	0x116
 7520 06a3 08       		.byte	0x8
 7521 06a4 08       		.uleb128 0x8
 7522 06a5 07190000 		.4byte	.LASF117
 7523 06a9 0A       		.byte	0xa
 7524 06aa EE       		.byte	0xee
 7525 06ab 16010000 		.4byte	0x116
 7526 06af 0C       		.byte	0xc
 7527 06b0 00       		.byte	0
 7528 06b1 03       		.uleb128 0x3
 7529 06b2 EA060000 		.4byte	.LASF118
 7530 06b6 0A       		.byte	0xa
 7531 06b7 EF       		.byte	0xef
 7532 06b8 78060000 		.4byte	0x678
 7533 06bc 17       		.uleb128 0x17
 7534 06bd 10       		.byte	0x10
 7535 06be 0A       		.byte	0xa
 7536 06bf F5       		.byte	0xf5
 7537 06c0 F5060000 		.4byte	0x6f5
 7538 06c4 18       		.uleb128 0x18
 7539 06c5 52495200 		.ascii	"RIR\000"
 7540 06c9 0A       		.byte	0xa
 7541 06ca F7       		.byte	0xf7
 7542 06cb 16010000 		.4byte	0x116
 7543 06cf 00       		.byte	0
ARM GAS  /var/folders/d2/nstgp4h54kz7g1l847x_b8wc0000gn/T//ccB20FE7.s 			page 139


 7544 06d0 08       		.uleb128 0x8
 7545 06d1 1E230000 		.4byte	.LASF119
 7546 06d5 0A       		.byte	0xa
 7547 06d6 F8       		.byte	0xf8
 7548 06d7 16010000 		.4byte	0x116
 7549 06db 04       		.byte	0x4
 7550 06dc 08       		.uleb128 0x8
 7551 06dd 0D1D0000 		.4byte	.LASF120
 7552 06e1 0A       		.byte	0xa
 7553 06e2 F9       		.byte	0xf9
 7554 06e3 16010000 		.4byte	0x116
 7555 06e7 08       		.byte	0x8
 7556 06e8 08       		.uleb128 0x8
 7557 06e9 781A0000 		.4byte	.LASF121
 7558 06ed 0A       		.byte	0xa
 7559 06ee FA       		.byte	0xfa
 7560 06ef 16010000 		.4byte	0x116
 7561 06f3 0C       		.byte	0xc
 7562 06f4 00       		.byte	0
 7563 06f5 03       		.uleb128 0x3
 7564 06f6 F1210000 		.4byte	.LASF122
 7565 06fa 0A       		.byte	0xa
 7566 06fb FB       		.byte	0xfb
 7567 06fc BC060000 		.4byte	0x6bc
 7568 0700 19       		.uleb128 0x19
 7569 0701 08       		.byte	0x8
 7570 0702 0A       		.byte	0xa
 7571 0703 0101     		.2byte	0x101
 7572 0705 24070000 		.4byte	0x724
 7573 0709 09       		.uleb128 0x9
 7574 070a 46523100 		.ascii	"FR1\000"
 7575 070e 0A       		.byte	0xa
 7576 070f 0301     		.2byte	0x103
 7577 0711 16010000 		.4byte	0x116
 7578 0715 00       		.byte	0
 7579 0716 09       		.uleb128 0x9
 7580 0717 46523200 		.ascii	"FR2\000"
 7581 071b 0A       		.byte	0xa
 7582 071c 0401     		.2byte	0x104
 7583 071e 16010000 		.4byte	0x116
 7584 0722 04       		.byte	0x4
 7585 0723 00       		.byte	0
 7586 0724 1A       		.uleb128 0x1a
 7587 0725 AB130000 		.4byte	.LASF123
 7588 0729 0A       		.byte	0xa
 7589 072a 0501     		.2byte	0x105
 7590 072c 00070000 		.4byte	0x700
 7591 0730 1B       		.uleb128 0x1b
 7592 0731 2003     		.2byte	0x320
 7593 0733 0A       		.byte	0xa
 7594 0734 0B01     		.2byte	0x10b
 7595 0736 66080000 		.4byte	0x866
 7596 073a 09       		.uleb128 0x9
 7597 073b 4D435200 		.ascii	"MCR\000"
 7598 073f 0A       		.byte	0xa
 7599 0740 0D01     		.2byte	0x10d
 7600 0742 16010000 		.4byte	0x116
ARM GAS  /var/folders/d2/nstgp4h54kz7g1l847x_b8wc0000gn/T//ccB20FE7.s 			page 140


 7601 0746 00       		.byte	0
 7602 0747 09       		.uleb128 0x9
 7603 0748 4D535200 		.ascii	"MSR\000"
 7604 074c 0A       		.byte	0xa
 7605 074d 0E01     		.2byte	0x10e
 7606 074f 16010000 		.4byte	0x116
 7607 0753 04       		.byte	0x4
 7608 0754 09       		.uleb128 0x9
 7609 0755 54535200 		.ascii	"TSR\000"
 7610 0759 0A       		.byte	0xa
 7611 075a 0F01     		.2byte	0x10f
 7612 075c 16010000 		.4byte	0x116
 7613 0760 08       		.byte	0x8
 7614 0761 0A       		.uleb128 0xa
 7615 0762 B0100000 		.4byte	.LASF124
 7616 0766 0A       		.byte	0xa
 7617 0767 1001     		.2byte	0x110
 7618 0769 16010000 		.4byte	0x116
 7619 076d 0C       		.byte	0xc
 7620 076e 0A       		.uleb128 0xa
 7621 076f 66110000 		.4byte	.LASF125
 7622 0773 0A       		.byte	0xa
 7623 0774 1101     		.2byte	0x111
 7624 0776 16010000 		.4byte	0x116
 7625 077a 10       		.byte	0x10
 7626 077b 09       		.uleb128 0x9
 7627 077c 49455200 		.ascii	"IER\000"
 7628 0780 0A       		.byte	0xa
 7629 0781 1201     		.2byte	0x112
 7630 0783 16010000 		.4byte	0x116
 7631 0787 14       		.byte	0x14
 7632 0788 09       		.uleb128 0x9
 7633 0789 45535200 		.ascii	"ESR\000"
 7634 078d 0A       		.byte	0xa
 7635 078e 1301     		.2byte	0x113
 7636 0790 16010000 		.4byte	0x116
 7637 0794 18       		.byte	0x18
 7638 0795 09       		.uleb128 0x9
 7639 0796 42545200 		.ascii	"BTR\000"
 7640 079a 0A       		.byte	0xa
 7641 079b 1401     		.2byte	0x114
 7642 079d 16010000 		.4byte	0x116
 7643 07a1 1C       		.byte	0x1c
 7644 07a2 0A       		.uleb128 0xa
 7645 07a3 78240000 		.4byte	.LASF126
 7646 07a7 0A       		.byte	0xa
 7647 07a8 1501     		.2byte	0x115
 7648 07aa 66080000 		.4byte	0x866
 7649 07ae 20       		.byte	0x20
 7650 07af 11       		.uleb128 0x11
 7651 07b0 28150000 		.4byte	.LASF127
 7652 07b4 0A       		.byte	0xa
 7653 07b5 1601     		.2byte	0x116
 7654 07b7 76080000 		.4byte	0x876
 7655 07bb 8001     		.2byte	0x180
 7656 07bd 11       		.uleb128 0x11
 7657 07be C8280000 		.4byte	.LASF128
ARM GAS  /var/folders/d2/nstgp4h54kz7g1l847x_b8wc0000gn/T//ccB20FE7.s 			page 141


 7658 07c2 0A       		.byte	0xa
 7659 07c3 1701     		.2byte	0x117
 7660 07c5 86080000 		.4byte	0x886
 7661 07c9 B001     		.2byte	0x1b0
 7662 07cb 11       		.uleb128 0x11
 7663 07cc 82240000 		.4byte	.LASF129
 7664 07d0 0A       		.byte	0xa
 7665 07d1 1801     		.2byte	0x118
 7666 07d3 96080000 		.4byte	0x896
 7667 07d7 D001     		.2byte	0x1d0
 7668 07d9 12       		.uleb128 0x12
 7669 07da 464D5200 		.ascii	"FMR\000"
 7670 07de 0A       		.byte	0xa
 7671 07df 1901     		.2byte	0x119
 7672 07e1 16010000 		.4byte	0x116
 7673 07e5 0002     		.2byte	0x200
 7674 07e7 11       		.uleb128 0x11
 7675 07e8 DD0C0000 		.4byte	.LASF130
 7676 07ec 0A       		.byte	0xa
 7677 07ed 1A01     		.2byte	0x11a
 7678 07ef 16010000 		.4byte	0x116
 7679 07f3 0402     		.2byte	0x204
 7680 07f5 11       		.uleb128 0x11
 7681 07f6 8C240000 		.4byte	.LASF131
 7682 07fa 0A       		.byte	0xa
 7683 07fb 1B01     		.2byte	0x11b
 7684 07fd 0B010000 		.4byte	0x10b
 7685 0801 0802     		.2byte	0x208
 7686 0803 11       		.uleb128 0x11
 7687 0804 92260000 		.4byte	.LASF132
 7688 0808 0A       		.byte	0xa
 7689 0809 1C01     		.2byte	0x11c
 7690 080b 16010000 		.4byte	0x116
 7691 080f 0C02     		.2byte	0x20c
 7692 0811 11       		.uleb128 0x11
 7693 0812 96240000 		.4byte	.LASF133
 7694 0816 0A       		.byte	0xa
 7695 0817 1D01     		.2byte	0x11d
 7696 0819 0B010000 		.4byte	0x10b
 7697 081d 1002     		.2byte	0x210
 7698 081f 11       		.uleb128 0x11
 7699 0820 591D0000 		.4byte	.LASF134
 7700 0824 0A       		.byte	0xa
 7701 0825 1E01     		.2byte	0x11e
 7702 0827 16010000 		.4byte	0x116
 7703 082b 1402     		.2byte	0x214
 7704 082d 11       		.uleb128 0x11
 7705 082e A0240000 		.4byte	.LASF135
 7706 0832 0A       		.byte	0xa
 7707 0833 1F01     		.2byte	0x11f
 7708 0835 0B010000 		.4byte	0x10b
 7709 0839 1802     		.2byte	0x218
 7710 083b 11       		.uleb128 0x11
 7711 083c 91050000 		.4byte	.LASF136
 7712 0840 0A       		.byte	0xa
 7713 0841 2001     		.2byte	0x120
 7714 0843 16010000 		.4byte	0x116
ARM GAS  /var/folders/d2/nstgp4h54kz7g1l847x_b8wc0000gn/T//ccB20FE7.s 			page 142


 7715 0847 1C02     		.2byte	0x21c
 7716 0849 11       		.uleb128 0x11
 7717 084a AA240000 		.4byte	.LASF137
 7718 084e 0A       		.byte	0xa
 7719 084f 2101     		.2byte	0x121
 7720 0851 4F050000 		.4byte	0x54f
 7721 0855 2002     		.2byte	0x220
 7722 0857 11       		.uleb128 0x11
 7723 0858 9E070000 		.4byte	.LASF138
 7724 085c 0A       		.byte	0xa
 7725 085d 2201     		.2byte	0x122
 7726 085f A6080000 		.4byte	0x8a6
 7727 0863 4002     		.2byte	0x240
 7728 0865 00       		.byte	0
 7729 0866 13       		.uleb128 0x13
 7730 0867 0B010000 		.4byte	0x10b
 7731 086b 76080000 		.4byte	0x876
 7732 086f 14       		.uleb128 0x14
 7733 0870 37000000 		.4byte	0x37
 7734 0874 57       		.byte	0x57
 7735 0875 00       		.byte	0
 7736 0876 13       		.uleb128 0x13
 7737 0877 B1060000 		.4byte	0x6b1
 7738 087b 86080000 		.4byte	0x886
 7739 087f 14       		.uleb128 0x14
 7740 0880 37000000 		.4byte	0x37
 7741 0884 02       		.byte	0x2
 7742 0885 00       		.byte	0
 7743 0886 13       		.uleb128 0x13
 7744 0887 F5060000 		.4byte	0x6f5
 7745 088b 96080000 		.4byte	0x896
 7746 088f 14       		.uleb128 0x14
 7747 0890 37000000 		.4byte	0x37
 7748 0894 01       		.byte	0x1
 7749 0895 00       		.byte	0
 7750 0896 13       		.uleb128 0x13
 7751 0897 0B010000 		.4byte	0x10b
 7752 089b A6080000 		.4byte	0x8a6
 7753 089f 14       		.uleb128 0x14
 7754 08a0 37000000 		.4byte	0x37
 7755 08a4 0B       		.byte	0xb
 7756 08a5 00       		.byte	0
 7757 08a6 13       		.uleb128 0x13
 7758 08a7 24070000 		.4byte	0x724
 7759 08ab B6080000 		.4byte	0x8b6
 7760 08af 14       		.uleb128 0x14
 7761 08b0 37000000 		.4byte	0x37
 7762 08b4 1B       		.byte	0x1b
 7763 08b5 00       		.byte	0
 7764 08b6 1A       		.uleb128 0x1a
 7765 08b7 2C0F0000 		.4byte	.LASF139
 7766 08bb 0A       		.byte	0xa
 7767 08bc 2301     		.2byte	0x123
 7768 08be 30070000 		.4byte	0x730
 7769 08c2 19       		.uleb128 0x19
 7770 08c3 38       		.byte	0x38
 7771 08c4 0A       		.byte	0xa
ARM GAS  /var/folders/d2/nstgp4h54kz7g1l847x_b8wc0000gn/T//ccB20FE7.s 			page 143


 7772 08c5 3601     		.2byte	0x136
 7773 08c7 80090000 		.4byte	0x980
 7774 08cb 09       		.uleb128 0x9
 7775 08cc 435200   		.ascii	"CR\000"
 7776 08cf 0A       		.byte	0xa
 7777 08d0 3801     		.2byte	0x138
 7778 08d2 16010000 		.4byte	0x116
 7779 08d6 00       		.byte	0
 7780 08d7 0A       		.uleb128 0xa
 7781 08d8 501A0000 		.4byte	.LASF140
 7782 08dc 0A       		.byte	0xa
 7783 08dd 3901     		.2byte	0x139
 7784 08df 16010000 		.4byte	0x116
 7785 08e3 04       		.byte	0x4
 7786 08e4 0A       		.uleb128 0xa
 7787 08e5 C6240000 		.4byte	.LASF141
 7788 08e9 0A       		.byte	0xa
 7789 08ea 3A01     		.2byte	0x13a
 7790 08ec 16010000 		.4byte	0x116
 7791 08f0 08       		.byte	0x8
 7792 08f1 0A       		.uleb128 0xa
 7793 08f2 13200000 		.4byte	.LASF142
 7794 08f6 0A       		.byte	0xa
 7795 08f7 3B01     		.2byte	0x13b
 7796 08f9 16010000 		.4byte	0x116
 7797 08fd 0C       		.byte	0xc
 7798 08fe 0A       		.uleb128 0xa
 7799 08ff 1A0C0000 		.4byte	.LASF143
 7800 0903 0A       		.byte	0xa
 7801 0904 3C01     		.2byte	0x13c
 7802 0906 16010000 		.4byte	0x116
 7803 090a 10       		.byte	0x10
 7804 090b 0A       		.uleb128 0xa
 7805 090c CE240000 		.4byte	.LASF144
 7806 0910 0A       		.byte	0xa
 7807 0911 3D01     		.2byte	0x13d
 7808 0913 16010000 		.4byte	0x116
 7809 0917 14       		.byte	0x14
 7810 0918 0A       		.uleb128 0xa
 7811 0919 1B200000 		.4byte	.LASF145
 7812 091d 0A       		.byte	0xa
 7813 091e 3E01     		.2byte	0x13e
 7814 0920 16010000 		.4byte	0x116
 7815 0924 18       		.byte	0x18
 7816 0925 0A       		.uleb128 0xa
 7817 0926 210C0000 		.4byte	.LASF146
 7818 092a 0A       		.byte	0xa
 7819 092b 3F01     		.2byte	0x13f
 7820 092d 16010000 		.4byte	0x116
 7821 0931 1C       		.byte	0x1c
 7822 0932 0A       		.uleb128 0xa
 7823 0933 28250000 		.4byte	.LASF147
 7824 0937 0A       		.byte	0xa
 7825 0938 4001     		.2byte	0x140
 7826 093a 16010000 		.4byte	0x116
 7827 093e 20       		.byte	0x20
 7828 093f 0A       		.uleb128 0xa
ARM GAS  /var/folders/d2/nstgp4h54kz7g1l847x_b8wc0000gn/T//ccB20FE7.s 			page 144


 7829 0940 6D200000 		.4byte	.LASF148
 7830 0944 0A       		.byte	0xa
 7831 0945 4101     		.2byte	0x141
 7832 0947 16010000 		.4byte	0x116
 7833 094b 24       		.byte	0x24
 7834 094c 0A       		.uleb128 0xa
 7835 094d 04290000 		.4byte	.LASF149
 7836 0951 0A       		.byte	0xa
 7837 0952 4201     		.2byte	0x142
 7838 0954 16010000 		.4byte	0x116
 7839 0958 28       		.byte	0x28
 7840 0959 0A       		.uleb128 0xa
 7841 095a 7A020000 		.4byte	.LASF150
 7842 095e 0A       		.byte	0xa
 7843 095f 4301     		.2byte	0x143
 7844 0961 16010000 		.4byte	0x116
 7845 0965 2C       		.byte	0x2c
 7846 0966 0A       		.uleb128 0xa
 7847 0967 7F020000 		.4byte	.LASF151
 7848 096b 0A       		.byte	0xa
 7849 096c 4401     		.2byte	0x144
 7850 096e 16010000 		.4byte	0x116
 7851 0972 30       		.byte	0x30
 7852 0973 09       		.uleb128 0x9
 7853 0974 535200   		.ascii	"SR\000"
 7854 0977 0A       		.byte	0xa
 7855 0978 4501     		.2byte	0x145
 7856 097a 16010000 		.4byte	0x116
 7857 097e 34       		.byte	0x34
 7858 097f 00       		.byte	0
 7859 0980 1A       		.uleb128 0x1a
 7860 0981 09220000 		.4byte	.LASF152
 7861 0985 0A       		.byte	0xa
 7862 0986 4601     		.2byte	0x146
 7863 0988 C2080000 		.4byte	0x8c2
 7864 098c 19       		.uleb128 0x19
 7865 098d 2C       		.byte	0x2c
 7866 098e 0A       		.byte	0xa
 7867 098f 5801     		.2byte	0x158
 7868 0991 220A0000 		.4byte	0xa22
 7869 0995 09       		.uleb128 0x9
 7870 0996 435200   		.ascii	"CR\000"
 7871 0999 0A       		.byte	0xa
 7872 099a 5A01     		.2byte	0x15a
 7873 099c 16010000 		.4byte	0x116
 7874 09a0 00       		.byte	0
 7875 09a1 09       		.uleb128 0x9
 7876 09a2 535200   		.ascii	"SR\000"
 7877 09a5 0A       		.byte	0xa
 7878 09a6 5B01     		.2byte	0x15b
 7879 09a8 16010000 		.4byte	0x116
 7880 09ac 04       		.byte	0x4
 7881 09ad 0A       		.uleb128 0xa
 7882 09ae 660B0000 		.4byte	.LASF153
 7883 09b2 0A       		.byte	0xa
 7884 09b3 5C01     		.2byte	0x15c
 7885 09b5 16010000 		.4byte	0x116
ARM GAS  /var/folders/d2/nstgp4h54kz7g1l847x_b8wc0000gn/T//ccB20FE7.s 			page 145


 7886 09b9 08       		.byte	0x8
 7887 09ba 09       		.uleb128 0x9
 7888 09bb 49455200 		.ascii	"IER\000"
 7889 09bf 0A       		.byte	0xa
 7890 09c0 5D01     		.2byte	0x15d
 7891 09c2 16010000 		.4byte	0x116
 7892 09c6 0C       		.byte	0xc
 7893 09c7 0A       		.uleb128 0xa
 7894 09c8 6C250000 		.4byte	.LASF154
 7895 09cc 0A       		.byte	0xa
 7896 09cd 5E01     		.2byte	0x15e
 7897 09cf 16010000 		.4byte	0x116
 7898 09d3 10       		.byte	0x10
 7899 09d4 09       		.uleb128 0x9
 7900 09d5 49435200 		.ascii	"ICR\000"
 7901 09d9 0A       		.byte	0xa
 7902 09da 5F01     		.2byte	0x15f
 7903 09dc 16010000 		.4byte	0x116
 7904 09e0 14       		.byte	0x14
 7905 09e1 0A       		.uleb128 0xa
 7906 09e2 4A1E0000 		.4byte	.LASF155
 7907 09e6 0A       		.byte	0xa
 7908 09e7 6001     		.2byte	0x160
 7909 09e9 16010000 		.4byte	0x116
 7910 09ed 18       		.byte	0x18
 7911 09ee 0A       		.uleb128 0xa
 7912 09ef F82A0000 		.4byte	.LASF156
 7913 09f3 0A       		.byte	0xa
 7914 09f4 6101     		.2byte	0x161
 7915 09f6 16010000 		.4byte	0x116
 7916 09fa 1C       		.byte	0x1c
 7917 09fb 0A       		.uleb128 0xa
 7918 09fc ED150000 		.4byte	.LASF157
 7919 0a00 0A       		.byte	0xa
 7920 0a01 6201     		.2byte	0x162
 7921 0a03 16010000 		.4byte	0x116
 7922 0a07 20       		.byte	0x20
 7923 0a08 0A       		.uleb128 0xa
 7924 0a09 0F1F0000 		.4byte	.LASF158
 7925 0a0d 0A       		.byte	0xa
 7926 0a0e 6301     		.2byte	0x163
 7927 0a10 16010000 		.4byte	0x116
 7928 0a14 24       		.byte	0x24
 7929 0a15 09       		.uleb128 0x9
 7930 0a16 445200   		.ascii	"DR\000"
 7931 0a19 0A       		.byte	0xa
 7932 0a1a 6401     		.2byte	0x164
 7933 0a1c 16010000 		.4byte	0x116
 7934 0a20 28       		.byte	0x28
 7935 0a21 00       		.byte	0
 7936 0a22 1A       		.uleb128 0x1a
 7937 0a23 9D050000 		.4byte	.LASF159
 7938 0a27 0A       		.byte	0xa
 7939 0a28 6501     		.2byte	0x165
 7940 0a2a 8C090000 		.4byte	0x98c
 7941 0a2e 19       		.uleb128 0x19
 7942 0a2f 18       		.byte	0x18
ARM GAS  /var/folders/d2/nstgp4h54kz7g1l847x_b8wc0000gn/T//ccB20FE7.s 			page 146


 7943 0a30 0A       		.byte	0xa
 7944 0a31 6B01     		.2byte	0x16b
 7945 0a33 850A0000 		.4byte	0xa85
 7946 0a37 09       		.uleb128 0x9
 7947 0a38 435200   		.ascii	"CR\000"
 7948 0a3b 0A       		.byte	0xa
 7949 0a3c 6D01     		.2byte	0x16d
 7950 0a3e 16010000 		.4byte	0x116
 7951 0a42 00       		.byte	0
 7952 0a43 0A       		.uleb128 0xa
 7953 0a44 D0250000 		.4byte	.LASF160
 7954 0a48 0A       		.byte	0xa
 7955 0a49 6E01     		.2byte	0x16e
 7956 0a4b 16010000 		.4byte	0x116
 7957 0a4f 04       		.byte	0x4
 7958 0a50 09       		.uleb128 0x9
 7959 0a51 50415200 		.ascii	"PAR\000"
 7960 0a55 0A       		.byte	0xa
 7961 0a56 6F01     		.2byte	0x16f
 7962 0a58 16010000 		.4byte	0x116
 7963 0a5c 08       		.byte	0x8
 7964 0a5d 0A       		.uleb128 0xa
 7965 0a5e 68050000 		.4byte	.LASF161
 7966 0a62 0A       		.byte	0xa
 7967 0a63 7001     		.2byte	0x170
 7968 0a65 16010000 		.4byte	0x116
 7969 0a69 0C       		.byte	0xc
 7970 0a6a 0A       		.uleb128 0xa
 7971 0a6b E3090000 		.4byte	.LASF162
 7972 0a6f 0A       		.byte	0xa
 7973 0a70 7101     		.2byte	0x171
 7974 0a72 16010000 		.4byte	0x116
 7975 0a76 10       		.byte	0x10
 7976 0a77 09       		.uleb128 0x9
 7977 0a78 46435200 		.ascii	"FCR\000"
 7978 0a7c 0A       		.byte	0xa
 7979 0a7d 7201     		.2byte	0x172
 7980 0a7f 16010000 		.4byte	0x116
 7981 0a83 14       		.byte	0x14
 7982 0a84 00       		.byte	0
 7983 0a85 1A       		.uleb128 0x1a
 7984 0a86 ED090000 		.4byte	.LASF163
 7985 0a8a 0A       		.byte	0xa
 7986 0a8b 7301     		.2byte	0x173
 7987 0a8d 2E0A0000 		.4byte	0xa2e
 7988 0a91 13       		.uleb128 0x13
 7989 0a92 16010000 		.4byte	0x116
 7990 0a96 A10A0000 		.4byte	0xaa1
 7991 0a9a 14       		.uleb128 0x14
 7992 0a9b 37000000 		.4byte	0x37
 7993 0a9f 01       		.byte	0x1
 7994 0aa0 00       		.byte	0
 7995 0aa1 06       		.uleb128 0x6
 7996 0aa2 910A0000 		.4byte	0xa91
 7997 0aa6 13       		.uleb128 0x13
 7998 0aa7 16010000 		.4byte	0x116
 7999 0aab B60A0000 		.4byte	0xab6
ARM GAS  /var/folders/d2/nstgp4h54kz7g1l847x_b8wc0000gn/T//ccB20FE7.s 			page 147


 8000 0aaf 14       		.uleb128 0x14
 8001 0ab0 37000000 		.4byte	0x37
 8002 0ab4 03       		.byte	0x3
 8003 0ab5 00       		.byte	0
 8004 0ab6 06       		.uleb128 0x6
 8005 0ab7 A60A0000 		.4byte	0xaa6
 8006 0abb 19       		.uleb128 0x19
 8007 0abc 28       		.byte	0x28
 8008 0abd 0A       		.byte	0xa
 8009 0abe 3F02     		.2byte	0x23f
 8010 0ac0 460B0000 		.4byte	0xb46
 8011 0ac4 09       		.uleb128 0x9
 8012 0ac5 43523100 		.ascii	"CR1\000"
 8013 0ac9 0A       		.byte	0xa
 8014 0aca 4102     		.2byte	0x241
 8015 0acc 16010000 		.4byte	0x116
 8016 0ad0 00       		.byte	0
 8017 0ad1 09       		.uleb128 0x9
 8018 0ad2 43523200 		.ascii	"CR2\000"
 8019 0ad6 0A       		.byte	0xa
 8020 0ad7 4202     		.2byte	0x242
 8021 0ad9 16010000 		.4byte	0x116
 8022 0add 04       		.byte	0x4
 8023 0ade 0A       		.uleb128 0xa
 8024 0adf 0D2C0000 		.4byte	.LASF164
 8025 0ae3 0A       		.byte	0xa
 8026 0ae4 4302     		.2byte	0x243
 8027 0ae6 16010000 		.4byte	0x116
 8028 0aea 08       		.byte	0x8
 8029 0aeb 0A       		.uleb128 0xa
 8030 0aec 122C0000 		.4byte	.LASF165
 8031 0af0 0A       		.byte	0xa
 8032 0af1 4402     		.2byte	0x244
 8033 0af3 16010000 		.4byte	0x116
 8034 0af7 0C       		.byte	0xc
 8035 0af8 09       		.uleb128 0x9
 8036 0af9 445200   		.ascii	"DR\000"
 8037 0afc 0A       		.byte	0xa
 8038 0afd 4502     		.2byte	0x245
 8039 0aff 16010000 		.4byte	0x116
 8040 0b03 10       		.byte	0x10
 8041 0b04 09       		.uleb128 0x9
 8042 0b05 53523100 		.ascii	"SR1\000"
 8043 0b09 0A       		.byte	0xa
 8044 0b0a 4602     		.2byte	0x246
 8045 0b0c 16010000 		.4byte	0x116
 8046 0b10 14       		.byte	0x14
 8047 0b11 09       		.uleb128 0x9
 8048 0b12 53523200 		.ascii	"SR2\000"
 8049 0b16 0A       		.byte	0xa
 8050 0b17 4702     		.2byte	0x247
 8051 0b19 16010000 		.4byte	0x116
 8052 0b1d 18       		.byte	0x18
 8053 0b1e 09       		.uleb128 0x9
 8054 0b1f 43435200 		.ascii	"CCR\000"
 8055 0b23 0A       		.byte	0xa
 8056 0b24 4802     		.2byte	0x248
ARM GAS  /var/folders/d2/nstgp4h54kz7g1l847x_b8wc0000gn/T//ccB20FE7.s 			page 148


 8057 0b26 16010000 		.4byte	0x116
 8058 0b2a 1C       		.byte	0x1c
 8059 0b2b 0A       		.uleb128 0xa
 8060 0b2c AD060000 		.4byte	.LASF166
 8061 0b30 0A       		.byte	0xa
 8062 0b31 4902     		.2byte	0x249
 8063 0b33 16010000 		.4byte	0x116
 8064 0b37 20       		.byte	0x20
 8065 0b38 0A       		.uleb128 0xa
 8066 0b39 832A0000 		.4byte	.LASF167
 8067 0b3d 0A       		.byte	0xa
 8068 0b3e 4A02     		.2byte	0x24a
 8069 0b40 16010000 		.4byte	0x116
 8070 0b44 24       		.byte	0x24
 8071 0b45 00       		.byte	0
 8072 0b46 1A       		.uleb128 0x1a
 8073 0b47 6C1A0000 		.4byte	.LASF168
 8074 0b4b 0A       		.byte	0xa
 8075 0b4c 4B02     		.2byte	0x24b
 8076 0b4e BB0A0000 		.4byte	0xabb
 8077 0b52 19       		.uleb128 0x19
 8078 0b53 84       		.byte	0x84
 8079 0b54 0A       		.byte	0xa
 8080 0b55 BF02     		.2byte	0x2bf
 8081 0b57 600C0000 		.4byte	0xc60
 8082 0b5b 0A       		.uleb128 0xa
 8083 0b5c A11A0000 		.4byte	.LASF169
 8084 0b60 0A       		.byte	0xa
 8085 0b61 C102     		.2byte	0x2c1
 8086 0b63 16010000 		.4byte	0x116
 8087 0b67 00       		.byte	0
 8088 0b68 0A       		.uleb128 0xa
 8089 0b69 13270000 		.4byte	.LASF170
 8090 0b6d 0A       		.byte	0xa
 8091 0b6e C202     		.2byte	0x2c2
 8092 0b70 16010000 		.4byte	0x116
 8093 0b74 04       		.byte	0x4
 8094 0b75 09       		.uleb128 0x9
 8095 0b76 41524700 		.ascii	"ARG\000"
 8096 0b7a 0A       		.byte	0xa
 8097 0b7b C302     		.2byte	0x2c3
 8098 0b7d 16010000 		.4byte	0x116
 8099 0b81 08       		.byte	0x8
 8100 0b82 09       		.uleb128 0x9
 8101 0b83 434D4400 		.ascii	"CMD\000"
 8102 0b87 0A       		.byte	0xa
 8103 0b88 C402     		.2byte	0x2c4
 8104 0b8a 16010000 		.4byte	0x116
 8105 0b8e 0C       		.byte	0xc
 8106 0b8f 0A       		.uleb128 0xa
 8107 0b90 0C1E0000 		.4byte	.LASF171
 8108 0b94 0A       		.byte	0xa
 8109 0b95 C502     		.2byte	0x2c5
 8110 0b97 1B010000 		.4byte	0x11b
 8111 0b9b 10       		.byte	0x10
 8112 0b9c 0A       		.uleb128 0xa
 8113 0b9d C5070000 		.4byte	.LASF172
ARM GAS  /var/folders/d2/nstgp4h54kz7g1l847x_b8wc0000gn/T//ccB20FE7.s 			page 149


 8114 0ba1 0A       		.byte	0xa
 8115 0ba2 C602     		.2byte	0x2c6
 8116 0ba4 1B010000 		.4byte	0x11b
 8117 0ba8 14       		.byte	0x14
 8118 0ba9 0A       		.uleb128 0xa
 8119 0baa CB070000 		.4byte	.LASF173
 8120 0bae 0A       		.byte	0xa
 8121 0baf C702     		.2byte	0x2c7
 8122 0bb1 1B010000 		.4byte	0x11b
 8123 0bb5 18       		.byte	0x18
 8124 0bb6 0A       		.uleb128 0xa
 8125 0bb7 D1070000 		.4byte	.LASF174
 8126 0bbb 0A       		.byte	0xa
 8127 0bbc C802     		.2byte	0x2c8
 8128 0bbe 1B010000 		.4byte	0x11b
 8129 0bc2 1C       		.byte	0x1c
 8130 0bc3 0A       		.uleb128 0xa
 8131 0bc4 D7070000 		.4byte	.LASF175
 8132 0bc8 0A       		.byte	0xa
 8133 0bc9 C902     		.2byte	0x2c9
 8134 0bcb 1B010000 		.4byte	0x11b
 8135 0bcf 20       		.byte	0x20
 8136 0bd0 0A       		.uleb128 0xa
 8137 0bd1 A5170000 		.4byte	.LASF176
 8138 0bd5 0A       		.byte	0xa
 8139 0bd6 CA02     		.2byte	0x2ca
 8140 0bd8 16010000 		.4byte	0x116
 8141 0bdc 24       		.byte	0x24
 8142 0bdd 0A       		.uleb128 0xa
 8143 0bde 31190000 		.4byte	.LASF177
 8144 0be2 0A       		.byte	0xa
 8145 0be3 CB02     		.2byte	0x2cb
 8146 0be5 16010000 		.4byte	0x116
 8147 0be9 28       		.byte	0x28
 8148 0bea 0A       		.uleb128 0xa
 8149 0beb 6F2A0000 		.4byte	.LASF178
 8150 0bef 0A       		.byte	0xa
 8151 0bf0 CC02     		.2byte	0x2cc
 8152 0bf2 16010000 		.4byte	0x116
 8153 0bf6 2C       		.byte	0x2c
 8154 0bf7 0A       		.uleb128 0xa
 8155 0bf8 062C0000 		.4byte	.LASF179
 8156 0bfc 0A       		.byte	0xa
 8157 0bfd CD02     		.2byte	0x2cd
 8158 0bff 1B010000 		.4byte	0x11b
 8159 0c03 30       		.byte	0x30
 8160 0c04 09       		.uleb128 0x9
 8161 0c05 53544100 		.ascii	"STA\000"
 8162 0c09 0A       		.byte	0xa
 8163 0c0a CE02     		.2byte	0x2ce
 8164 0c0c 1B010000 		.4byte	0x11b
 8165 0c10 34       		.byte	0x34
 8166 0c11 09       		.uleb128 0x9
 8167 0c12 49435200 		.ascii	"ICR\000"
 8168 0c16 0A       		.byte	0xa
 8169 0c17 CF02     		.2byte	0x2cf
 8170 0c19 16010000 		.4byte	0x116
ARM GAS  /var/folders/d2/nstgp4h54kz7g1l847x_b8wc0000gn/T//ccB20FE7.s 			page 150


 8171 0c1d 38       		.byte	0x38
 8172 0c1e 0A       		.uleb128 0xa
 8173 0c1f CB020000 		.4byte	.LASF180
 8174 0c23 0A       		.byte	0xa
 8175 0c24 D002     		.2byte	0x2d0
 8176 0c26 16010000 		.4byte	0x116
 8177 0c2a 3C       		.byte	0x3c
 8178 0c2b 0A       		.uleb128 0xa
 8179 0c2c 78240000 		.4byte	.LASF126
 8180 0c30 0A       		.byte	0xa
 8181 0c31 D102     		.2byte	0x2d1
 8182 0c33 3F050000 		.4byte	0x53f
 8183 0c37 40       		.byte	0x40
 8184 0c38 0A       		.uleb128 0xa
 8185 0c39 47180000 		.4byte	.LASF181
 8186 0c3d 0A       		.byte	0xa
 8187 0c3e D202     		.2byte	0x2d2
 8188 0c40 1B010000 		.4byte	0x11b
 8189 0c44 48       		.byte	0x48
 8190 0c45 0A       		.uleb128 0xa
 8191 0c46 82240000 		.4byte	.LASF129
 8192 0c4a 0A       		.byte	0xa
 8193 0c4b D302     		.2byte	0x2d3
 8194 0c4d 600C0000 		.4byte	0xc60
 8195 0c51 4C       		.byte	0x4c
 8196 0c52 0A       		.uleb128 0xa
 8197 0c53 4F0B0000 		.4byte	.LASF182
 8198 0c57 0A       		.byte	0xa
 8199 0c58 D402     		.2byte	0x2d4
 8200 0c5a 16010000 		.4byte	0x116
 8201 0c5e 80       		.byte	0x80
 8202 0c5f 00       		.byte	0
 8203 0c60 13       		.uleb128 0x13
 8204 0c61 0B010000 		.4byte	0x10b
 8205 0c65 700C0000 		.4byte	0xc70
 8206 0c69 14       		.uleb128 0x14
 8207 0c6a 37000000 		.4byte	0x37
 8208 0c6e 0C       		.byte	0xc
 8209 0c6f 00       		.byte	0
 8210 0c70 1A       		.uleb128 0x1a
 8211 0c71 B5250000 		.4byte	.LASF183
 8212 0c75 0A       		.byte	0xa
 8213 0c76 D502     		.2byte	0x2d5
 8214 0c78 520B0000 		.4byte	0xb52
 8215 0c7c 19       		.uleb128 0x19
 8216 0c7d 24       		.byte	0x24
 8217 0c7e 0A       		.byte	0xa
 8218 0c7f DB02     		.2byte	0x2db
 8219 0c81 F90C0000 		.4byte	0xcf9
 8220 0c85 09       		.uleb128 0x9
 8221 0c86 43523100 		.ascii	"CR1\000"
 8222 0c8a 0A       		.byte	0xa
 8223 0c8b DD02     		.2byte	0x2dd
 8224 0c8d 16010000 		.4byte	0x116
 8225 0c91 00       		.byte	0
 8226 0c92 09       		.uleb128 0x9
 8227 0c93 43523200 		.ascii	"CR2\000"
ARM GAS  /var/folders/d2/nstgp4h54kz7g1l847x_b8wc0000gn/T//ccB20FE7.s 			page 151


 8228 0c97 0A       		.byte	0xa
 8229 0c98 DE02     		.2byte	0x2de
 8230 0c9a 16010000 		.4byte	0x116
 8231 0c9e 04       		.byte	0x4
 8232 0c9f 09       		.uleb128 0x9
 8233 0ca0 535200   		.ascii	"SR\000"
 8234 0ca3 0A       		.byte	0xa
 8235 0ca4 DF02     		.2byte	0x2df
 8236 0ca6 16010000 		.4byte	0x116
 8237 0caa 08       		.byte	0x8
 8238 0cab 09       		.uleb128 0x9
 8239 0cac 445200   		.ascii	"DR\000"
 8240 0caf 0A       		.byte	0xa
 8241 0cb0 E002     		.2byte	0x2e0
 8242 0cb2 16010000 		.4byte	0x116
 8243 0cb6 0C       		.byte	0xc
 8244 0cb7 0A       		.uleb128 0xa
 8245 0cb8 5F090000 		.4byte	.LASF184
 8246 0cbc 0A       		.byte	0xa
 8247 0cbd E102     		.2byte	0x2e1
 8248 0cbf 16010000 		.4byte	0x116
 8249 0cc3 10       		.byte	0x10
 8250 0cc4 0A       		.uleb128 0xa
 8251 0cc5 A10D0000 		.4byte	.LASF185
 8252 0cc9 0A       		.byte	0xa
 8253 0cca E202     		.2byte	0x2e2
 8254 0ccc 16010000 		.4byte	0x116
 8255 0cd0 14       		.byte	0x14
 8256 0cd1 0A       		.uleb128 0xa
 8257 0cd2 7F0C0000 		.4byte	.LASF186
 8258 0cd6 0A       		.byte	0xa
 8259 0cd7 E302     		.2byte	0x2e3
 8260 0cd9 16010000 		.4byte	0x116
 8261 0cdd 18       		.byte	0x18
 8262 0cde 0A       		.uleb128 0xa
 8263 0cdf D5270000 		.4byte	.LASF187
 8264 0ce3 0A       		.byte	0xa
 8265 0ce4 E402     		.2byte	0x2e4
 8266 0ce6 16010000 		.4byte	0x116
 8267 0cea 1C       		.byte	0x1c
 8268 0ceb 0A       		.uleb128 0xa
 8269 0cec F8080000 		.4byte	.LASF188
 8270 0cf0 0A       		.byte	0xa
 8271 0cf1 E502     		.2byte	0x2e5
 8272 0cf3 16010000 		.4byte	0x116
 8273 0cf7 20       		.byte	0x20
 8274 0cf8 00       		.byte	0
 8275 0cf9 1A       		.uleb128 0x1a
 8276 0cfa 0B260000 		.4byte	.LASF189
 8277 0cfe 0A       		.byte	0xa
 8278 0cff E602     		.2byte	0x2e6
 8279 0d01 7C0C0000 		.4byte	0xc7c
 8280 0d05 19       		.uleb128 0x19
 8281 0d06 1C       		.byte	0x1c
 8282 0d07 0A       		.byte	0xa
 8283 0d08 0903     		.2byte	0x309
 8284 0d0a 680D0000 		.4byte	0xd68
ARM GAS  /var/folders/d2/nstgp4h54kz7g1l847x_b8wc0000gn/T//ccB20FE7.s 			page 152


 8285 0d0e 09       		.uleb128 0x9
 8286 0d0f 535200   		.ascii	"SR\000"
 8287 0d12 0A       		.byte	0xa
 8288 0d13 0B03     		.2byte	0x30b
 8289 0d15 16010000 		.4byte	0x116
 8290 0d19 00       		.byte	0
 8291 0d1a 09       		.uleb128 0x9
 8292 0d1b 445200   		.ascii	"DR\000"
 8293 0d1e 0A       		.byte	0xa
 8294 0d1f 0C03     		.2byte	0x30c
 8295 0d21 16010000 		.4byte	0x116
 8296 0d25 04       		.byte	0x4
 8297 0d26 09       		.uleb128 0x9
 8298 0d27 42525200 		.ascii	"BRR\000"
 8299 0d2b 0A       		.byte	0xa
 8300 0d2c 0D03     		.2byte	0x30d
 8301 0d2e 16010000 		.4byte	0x116
 8302 0d32 08       		.byte	0x8
 8303 0d33 09       		.uleb128 0x9
 8304 0d34 43523100 		.ascii	"CR1\000"
 8305 0d38 0A       		.byte	0xa
 8306 0d39 0E03     		.2byte	0x30e
 8307 0d3b 16010000 		.4byte	0x116
 8308 0d3f 0C       		.byte	0xc
 8309 0d40 09       		.uleb128 0x9
 8310 0d41 43523200 		.ascii	"CR2\000"
 8311 0d45 0A       		.byte	0xa
 8312 0d46 0F03     		.2byte	0x30f
 8313 0d48 16010000 		.4byte	0x116
 8314 0d4c 10       		.byte	0x10
 8315 0d4d 09       		.uleb128 0x9
 8316 0d4e 43523300 		.ascii	"CR3\000"
 8317 0d52 0A       		.byte	0xa
 8318 0d53 1003     		.2byte	0x310
 8319 0d55 16010000 		.4byte	0x116
 8320 0d59 14       		.byte	0x14
 8321 0d5a 0A       		.uleb128 0xa
 8322 0d5b 2F2A0000 		.4byte	.LASF190
 8323 0d5f 0A       		.byte	0xa
 8324 0d60 1103     		.2byte	0x311
 8325 0d62 16010000 		.4byte	0x116
 8326 0d66 18       		.byte	0x18
 8327 0d67 00       		.byte	0
 8328 0d68 1A       		.uleb128 0x1a
 8329 0d69 382B0000 		.4byte	.LASF191
 8330 0d6d 0A       		.byte	0xa
 8331 0d6e 1203     		.2byte	0x312
 8332 0d70 050D0000 		.4byte	0xd05
 8333 0d74 13       		.uleb128 0x13
 8334 0d75 16010000 		.4byte	0x116
 8335 0d79 840D0000 		.4byte	0xd84
 8336 0d7d 14       		.uleb128 0x14
 8337 0d7e 37000000 		.4byte	0x37
 8338 0d82 0E       		.byte	0xe
 8339 0d83 00       		.byte	0
 8340 0d84 06       		.uleb128 0x6
 8341 0d85 740D0000 		.4byte	0xd74
ARM GAS  /var/folders/d2/nstgp4h54kz7g1l847x_b8wc0000gn/T//ccB20FE7.s 			page 153


 8342 0d89 03       		.uleb128 0x3
 8343 0d8a 351D0000 		.4byte	.LASF192
 8344 0d8e 0B       		.byte	0xb
 8345 0d8f 65       		.byte	0x65
 8346 0d90 D0030000 		.4byte	0x3d0
 8347 0d94 03       		.uleb128 0x3
 8348 0d95 ED0A0000 		.4byte	.LASF193
 8349 0d99 0B       		.byte	0xb
 8350 0d9a 6D       		.byte	0x6d
 8351 0d9b 20010000 		.4byte	0x120
 8352 0d9f 07       		.uleb128 0x7
 8353 0da0 971C0000 		.4byte	.LASF194
 8354 0da4 04       		.byte	0x4
 8355 0da5 0B       		.byte	0xb
 8356 0da6 89       		.byte	0x89
 8357 0da7 B80D0000 		.4byte	0xdb8
 8358 0dab 18       		.uleb128 0x18
 8359 0dac 72313300 		.ascii	"r13\000"
 8360 0db0 0B       		.byte	0xb
 8361 0db1 8A       		.byte	0x8a
 8362 0db2 F90E0000 		.4byte	0xef9
 8363 0db6 00       		.byte	0
 8364 0db7 00       		.byte	0
 8365 0db8 07       		.uleb128 0x7
 8366 0db9 09000000 		.4byte	.LASF195
 8367 0dbd 64       		.byte	0x64
 8368 0dbe 0C       		.byte	0xc
 8369 0dbf F4       		.byte	0xf4
 8370 0dc0 F90E0000 		.4byte	0xef9
 8371 0dc4 18       		.uleb128 0x18
 8372 0dc5 73313600 		.ascii	"s16\000"
 8373 0dc9 0C       		.byte	0xc
 8374 0dca F6       		.byte	0xf6
 8375 0dcb 890D0000 		.4byte	0xd89
 8376 0dcf 00       		.byte	0
 8377 0dd0 18       		.uleb128 0x18
 8378 0dd1 73313700 		.ascii	"s17\000"
 8379 0dd5 0C       		.byte	0xc
 8380 0dd6 F7       		.byte	0xf7
 8381 0dd7 890D0000 		.4byte	0xd89
 8382 0ddb 04       		.byte	0x4
 8383 0ddc 18       		.uleb128 0x18
 8384 0ddd 73313800 		.ascii	"s18\000"
 8385 0de1 0C       		.byte	0xc
 8386 0de2 F8       		.byte	0xf8
 8387 0de3 890D0000 		.4byte	0xd89
 8388 0de7 08       		.byte	0x8
 8389 0de8 18       		.uleb128 0x18
 8390 0de9 73313900 		.ascii	"s19\000"
 8391 0ded 0C       		.byte	0xc
 8392 0dee F9       		.byte	0xf9
 8393 0def 890D0000 		.4byte	0xd89
 8394 0df3 0C       		.byte	0xc
 8395 0df4 18       		.uleb128 0x18
 8396 0df5 73323000 		.ascii	"s20\000"
 8397 0df9 0C       		.byte	0xc
 8398 0dfa FA       		.byte	0xfa
ARM GAS  /var/folders/d2/nstgp4h54kz7g1l847x_b8wc0000gn/T//ccB20FE7.s 			page 154


 8399 0dfb 890D0000 		.4byte	0xd89
 8400 0dff 10       		.byte	0x10
 8401 0e00 18       		.uleb128 0x18
 8402 0e01 73323100 		.ascii	"s21\000"
 8403 0e05 0C       		.byte	0xc
 8404 0e06 FB       		.byte	0xfb
 8405 0e07 890D0000 		.4byte	0xd89
 8406 0e0b 14       		.byte	0x14
 8407 0e0c 18       		.uleb128 0x18
 8408 0e0d 73323200 		.ascii	"s22\000"
 8409 0e11 0C       		.byte	0xc
 8410 0e12 FC       		.byte	0xfc
 8411 0e13 890D0000 		.4byte	0xd89
 8412 0e17 18       		.byte	0x18
 8413 0e18 18       		.uleb128 0x18
 8414 0e19 73323300 		.ascii	"s23\000"
 8415 0e1d 0C       		.byte	0xc
 8416 0e1e FD       		.byte	0xfd
 8417 0e1f 890D0000 		.4byte	0xd89
 8418 0e23 1C       		.byte	0x1c
 8419 0e24 18       		.uleb128 0x18
 8420 0e25 73323400 		.ascii	"s24\000"
 8421 0e29 0C       		.byte	0xc
 8422 0e2a FE       		.byte	0xfe
 8423 0e2b 890D0000 		.4byte	0xd89
 8424 0e2f 20       		.byte	0x20
 8425 0e30 18       		.uleb128 0x18
 8426 0e31 73323500 		.ascii	"s25\000"
 8427 0e35 0C       		.byte	0xc
 8428 0e36 FF       		.byte	0xff
 8429 0e37 890D0000 		.4byte	0xd89
 8430 0e3b 24       		.byte	0x24
 8431 0e3c 09       		.uleb128 0x9
 8432 0e3d 73323600 		.ascii	"s26\000"
 8433 0e41 0C       		.byte	0xc
 8434 0e42 0001     		.2byte	0x100
 8435 0e44 890D0000 		.4byte	0xd89
 8436 0e48 28       		.byte	0x28
 8437 0e49 09       		.uleb128 0x9
 8438 0e4a 73323700 		.ascii	"s27\000"
 8439 0e4e 0C       		.byte	0xc
 8440 0e4f 0101     		.2byte	0x101
 8441 0e51 890D0000 		.4byte	0xd89
 8442 0e55 2C       		.byte	0x2c
 8443 0e56 09       		.uleb128 0x9
 8444 0e57 73323800 		.ascii	"s28\000"
 8445 0e5b 0C       		.byte	0xc
 8446 0e5c 0201     		.2byte	0x102
 8447 0e5e 890D0000 		.4byte	0xd89
 8448 0e62 30       		.byte	0x30
 8449 0e63 09       		.uleb128 0x9
 8450 0e64 73323900 		.ascii	"s29\000"
 8451 0e68 0C       		.byte	0xc
 8452 0e69 0301     		.2byte	0x103
 8453 0e6b 890D0000 		.4byte	0xd89
 8454 0e6f 34       		.byte	0x34
 8455 0e70 09       		.uleb128 0x9
ARM GAS  /var/folders/d2/nstgp4h54kz7g1l847x_b8wc0000gn/T//ccB20FE7.s 			page 155


 8456 0e71 73333000 		.ascii	"s30\000"
 8457 0e75 0C       		.byte	0xc
 8458 0e76 0401     		.2byte	0x104
 8459 0e78 890D0000 		.4byte	0xd89
 8460 0e7c 38       		.byte	0x38
 8461 0e7d 09       		.uleb128 0x9
 8462 0e7e 73333100 		.ascii	"s31\000"
 8463 0e82 0C       		.byte	0xc
 8464 0e83 0501     		.2byte	0x105
 8465 0e85 890D0000 		.4byte	0xd89
 8466 0e89 3C       		.byte	0x3c
 8467 0e8a 09       		.uleb128 0x9
 8468 0e8b 723400   		.ascii	"r4\000"
 8469 0e8e 0C       		.byte	0xc
 8470 0e8f 0701     		.2byte	0x107
 8471 0e91 890D0000 		.4byte	0xd89
 8472 0e95 40       		.byte	0x40
 8473 0e96 09       		.uleb128 0x9
 8474 0e97 723500   		.ascii	"r5\000"
 8475 0e9a 0C       		.byte	0xc
 8476 0e9b 0801     		.2byte	0x108
 8477 0e9d 890D0000 		.4byte	0xd89
 8478 0ea1 44       		.byte	0x44
 8479 0ea2 09       		.uleb128 0x9
 8480 0ea3 723600   		.ascii	"r6\000"
 8481 0ea6 0C       		.byte	0xc
 8482 0ea7 0901     		.2byte	0x109
 8483 0ea9 890D0000 		.4byte	0xd89
 8484 0ead 48       		.byte	0x48
 8485 0eae 09       		.uleb128 0x9
 8486 0eaf 723700   		.ascii	"r7\000"
 8487 0eb2 0C       		.byte	0xc
 8488 0eb3 0A01     		.2byte	0x10a
 8489 0eb5 890D0000 		.4byte	0xd89
 8490 0eb9 4C       		.byte	0x4c
 8491 0eba 09       		.uleb128 0x9
 8492 0ebb 723800   		.ascii	"r8\000"
 8493 0ebe 0C       		.byte	0xc
 8494 0ebf 0B01     		.2byte	0x10b
 8495 0ec1 890D0000 		.4byte	0xd89
 8496 0ec5 50       		.byte	0x50
 8497 0ec6 09       		.uleb128 0x9
 8498 0ec7 723900   		.ascii	"r9\000"
 8499 0eca 0C       		.byte	0xc
 8500 0ecb 0C01     		.2byte	0x10c
 8501 0ecd 890D0000 		.4byte	0xd89
 8502 0ed1 54       		.byte	0x54
 8503 0ed2 09       		.uleb128 0x9
 8504 0ed3 72313000 		.ascii	"r10\000"
 8505 0ed7 0C       		.byte	0xc
 8506 0ed8 0D01     		.2byte	0x10d
 8507 0eda 890D0000 		.4byte	0xd89
 8508 0ede 58       		.byte	0x58
 8509 0edf 09       		.uleb128 0x9
 8510 0ee0 72313100 		.ascii	"r11\000"
 8511 0ee4 0C       		.byte	0xc
 8512 0ee5 0E01     		.2byte	0x10e
ARM GAS  /var/folders/d2/nstgp4h54kz7g1l847x_b8wc0000gn/T//ccB20FE7.s 			page 156


 8513 0ee7 890D0000 		.4byte	0xd89
 8514 0eeb 5C       		.byte	0x5c
 8515 0eec 09       		.uleb128 0x9
 8516 0eed 6C7200   		.ascii	"lr\000"
 8517 0ef0 0C       		.byte	0xc
 8518 0ef1 0F01     		.2byte	0x10f
 8519 0ef3 890D0000 		.4byte	0xd89
 8520 0ef7 60       		.byte	0x60
 8521 0ef8 00       		.byte	0
 8522 0ef9 0B       		.uleb128 0xb
 8523 0efa 04       		.byte	0x4
 8524 0efb B80D0000 		.4byte	0xdb8
 8525 0eff 17       		.uleb128 0x17
 8526 0f00 10       		.byte	0x10
 8527 0f01 0D       		.byte	0xd
 8528 0f02 51       		.byte	0x51
 8529 0f03 380F0000 		.4byte	0xf38
 8530 0f07 08       		.uleb128 0x8
 8531 0f08 EC240000 		.4byte	.LASF196
 8532 0f0c 0D       		.byte	0xd
 8533 0f0d 55       		.byte	0x55
 8534 0f0e AF010000 		.4byte	0x1af
 8535 0f12 00       		.byte	0
 8536 0f13 08       		.uleb128 0x8
 8537 0f14 CF1D0000 		.4byte	.LASF197
 8538 0f18 0D       		.byte	0xd
 8539 0f19 59       		.byte	0x59
 8540 0f1a F3020000 		.4byte	0x2f3
 8541 0f1e 04       		.byte	0x4
 8542 0f1f 08       		.uleb128 0x8
 8543 0f20 670E0000 		.4byte	.LASF198
 8544 0f24 0D       		.byte	0xd
 8545 0f25 5D       		.byte	0x5d
 8546 0f26 D0030000 		.4byte	0x3d0
 8547 0f2a 08       		.byte	0x8
 8548 0f2b 08       		.uleb128 0x8
 8549 0f2c F10B0000 		.4byte	.LASF199
 8550 0f30 0D       		.byte	0xd
 8551 0f31 61       		.byte	0x61
 8552 0f32 D5000000 		.4byte	0xd5
 8553 0f36 0C       		.byte	0xc
 8554 0f37 00       		.byte	0
 8555 0f38 03       		.uleb128 0x3
 8556 0f39 3F0F0000 		.4byte	.LASF200
 8557 0f3d 0D       		.byte	0xd
 8558 0f3e 62       		.byte	0x62
 8559 0f3f FF0E0000 		.4byte	0xeff
 8560 0f43 1C       		.uleb128 0x1c
 8561 0f44 0804     		.2byte	0x408
 8562 0f46 0D       		.byte	0xd
 8563 0f47 67       		.byte	0x67
 8564 0f48 710F0000 		.4byte	0xf71
 8565 0f4c 08       		.uleb128 0x8
 8566 0f4d 22100000 		.4byte	.LASF201
 8567 0f51 0D       		.byte	0xd
 8568 0f52 6B       		.byte	0x6b
 8569 0f53 37000000 		.4byte	0x37
ARM GAS  /var/folders/d2/nstgp4h54kz7g1l847x_b8wc0000gn/T//ccB20FE7.s 			page 157


 8570 0f57 00       		.byte	0
 8571 0f58 08       		.uleb128 0x8
 8572 0f59 76180000 		.4byte	.LASF202
 8573 0f5d 0D       		.byte	0xd
 8574 0f5e 6F       		.byte	0x6f
 8575 0f5f 710F0000 		.4byte	0xf71
 8576 0f63 04       		.byte	0x4
 8577 0f64 08       		.uleb128 0x8
 8578 0f65 540B0000 		.4byte	.LASF203
 8579 0f69 0D       		.byte	0xd
 8580 0f6a 73       		.byte	0x73
 8581 0f6b 770F0000 		.4byte	0xf77
 8582 0f6f 08       		.byte	0x8
 8583 0f70 00       		.byte	0
 8584 0f71 0B       		.uleb128 0xb
 8585 0f72 04       		.byte	0x4
 8586 0f73 380F0000 		.4byte	0xf38
 8587 0f77 13       		.uleb128 0x13
 8588 0f78 380F0000 		.4byte	0xf38
 8589 0f7c 870F0000 		.4byte	0xf87
 8590 0f80 14       		.uleb128 0x14
 8591 0f81 37000000 		.4byte	0x37
 8592 0f85 3F       		.byte	0x3f
 8593 0f86 00       		.byte	0
 8594 0f87 03       		.uleb128 0x3
 8595 0f88 15000000 		.4byte	.LASF204
 8596 0f8c 0D       		.byte	0xd
 8597 0f8d 74       		.byte	0x74
 8598 0f8e 430F0000 		.4byte	0xf43
 8599 0f92 17       		.uleb128 0x17
 8600 0f93 04       		.byte	0x4
 8601 0f94 0E       		.byte	0xe
 8602 0f95 38       		.byte	0x38
 8603 0f96 A70F0000 		.4byte	0xfa7
 8604 0f9a 08       		.uleb128 0x8
 8605 0f9b C2250000 		.4byte	.LASF205
 8606 0f9f 0E       		.byte	0xe
 8607 0fa0 3C       		.byte	0x3c
 8608 0fa1 2B010000 		.4byte	0x12b
 8609 0fa5 00       		.byte	0
 8610 0fa6 00       		.byte	0
 8611 0fa7 03       		.uleb128 0x3
 8612 0fa8 0C2A0000 		.4byte	.LASF206
 8613 0fac 0E       		.byte	0xe
 8614 0fad 3D       		.byte	0x3d
 8615 0fae 920F0000 		.4byte	0xf92
 8616 0fb2 17       		.uleb128 0x17
 8617 0fb3 18       		.byte	0x18
 8618 0fb4 0E       		.byte	0xe
 8619 0fb5 48       		.byte	0x48
 8620 0fb6 F50F0000 		.4byte	0xff5
 8621 0fba 08       		.uleb128 0x8
 8622 0fbb 09090000 		.4byte	.LASF207
 8623 0fbf 0E       		.byte	0xe
 8624 0fc0 49       		.byte	0x49
 8625 0fc1 2B010000 		.4byte	0x12b
 8626 0fc5 00       		.byte	0
ARM GAS  /var/folders/d2/nstgp4h54kz7g1l847x_b8wc0000gn/T//ccB20FE7.s 			page 158


 8627 0fc6 08       		.uleb128 0x8
 8628 0fc7 69020000 		.4byte	.LASF208
 8629 0fcb 0E       		.byte	0xe
 8630 0fcc 4A       		.byte	0x4a
 8631 0fcd 2B010000 		.4byte	0x12b
 8632 0fd1 04       		.byte	0x4
 8633 0fd2 08       		.uleb128 0x8
 8634 0fd3 C51C0000 		.4byte	.LASF209
 8635 0fd7 0E       		.byte	0xe
 8636 0fd8 4B       		.byte	0x4b
 8637 0fd9 2B010000 		.4byte	0x12b
 8638 0fdd 08       		.byte	0x8
 8639 0fde 18       		.uleb128 0x18
 8640 0fdf 6E00     		.ascii	"n\000"
 8641 0fe1 0E       		.byte	0xe
 8642 0fe2 4C       		.byte	0x4c
 8643 0fe3 A4010000 		.4byte	0x1a4
 8644 0fe7 0C       		.byte	0xc
 8645 0fe8 08       		.uleb128 0x8
 8646 0fe9 5F1C0000 		.4byte	.LASF210
 8647 0fed 0E       		.byte	0xe
 8648 0fee 4D       		.byte	0x4d
 8649 0fef 36010000 		.4byte	0x136
 8650 0ff3 10       		.byte	0x10
 8651 0ff4 00       		.byte	0
 8652 0ff5 03       		.uleb128 0x3
 8653 0ff6 70280000 		.4byte	.LASF211
 8654 0ffa 0E       		.byte	0xe
 8655 0ffb 4E       		.byte	0x4e
 8656 0ffc B20F0000 		.4byte	0xfb2
 8657 1000 17       		.uleb128 0x17
 8658 1001 38       		.byte	0x38
 8659 1002 0F       		.byte	0xf
 8660 1003 38       		.byte	0x38
 8661 1004 39100000 		.4byte	0x1039
 8662 1008 08       		.uleb128 0x8
 8663 1009 3B080000 		.4byte	.LASF212
 8664 100d 0F       		.byte	0xf
 8665 100e 39       		.byte	0x39
 8666 100f A4010000 		.4byte	0x1a4
 8667 1013 00       		.byte	0
 8668 1014 08       		.uleb128 0x8
 8669 1015 BD0C0000 		.4byte	.LASF213
 8670 1019 0F       		.byte	0xf
 8671 101a 3A       		.byte	0x3a
 8672 101b A4010000 		.4byte	0x1a4
 8673 101f 04       		.byte	0x4
 8674 1020 08       		.uleb128 0x8
 8675 1021 B8270000 		.4byte	.LASF214
 8676 1025 0F       		.byte	0xf
 8677 1026 3B       		.byte	0x3b
 8678 1027 F50F0000 		.4byte	0xff5
 8679 102b 08       		.byte	0x8
 8680 102c 08       		.uleb128 0x8
 8681 102d D0000000 		.4byte	.LASF215
 8682 1031 0F       		.byte	0xf
 8683 1032 3D       		.byte	0x3d
ARM GAS  /var/folders/d2/nstgp4h54kz7g1l847x_b8wc0000gn/T//ccB20FE7.s 			page 159


 8684 1033 F50F0000 		.4byte	0xff5
 8685 1037 20       		.byte	0x20
 8686 1038 00       		.byte	0
 8687 1039 03       		.uleb128 0x3
 8688 103a C6060000 		.4byte	.LASF216
 8689 103e 0F       		.byte	0xf
 8690 103f 3F       		.byte	0x3f
 8691 1040 00100000 		.4byte	0x1000
 8692 1044 1D       		.uleb128 0x1d
 8693 1045 04       		.byte	0x4
 8694 1046 07       		.byte	0x7
 8695 1047 FA       		.byte	0xfa
 8696 1048 A1100000 		.4byte	0x10a1
 8697 104c 1E       		.uleb128 0x1e
 8698 104d 8D130000 		.4byte	.LASF217
 8699 1051 07       		.byte	0x7
 8700 1052 0101     		.2byte	0x101
 8701 1054 78010000 		.4byte	0x178
 8702 1058 1E       		.uleb128 0x1e
 8703 1059 DA090000 		.4byte	.LASF218
 8704 105d 07       		.byte	0x7
 8705 105e 0801     		.2byte	0x108
 8706 1060 78010000 		.4byte	0x178
 8707 1064 1E       		.uleb128 0x1e
 8708 1065 15220000 		.4byte	.LASF219
 8709 1069 07       		.byte	0x7
 8710 106a 0F01     		.2byte	0x10f
 8711 106c D0030000 		.4byte	0x3d0
 8712 1070 1E       		.uleb128 0x1e
 8713 1071 891C0000 		.4byte	.LASF220
 8714 1075 07       		.byte	0x7
 8715 1076 1601     		.2byte	0x116
 8716 1078 A1100000 		.4byte	0x10a1
 8717 107c 1E       		.uleb128 0x1e
 8718 107d 49010000 		.4byte	.LASF221
 8719 1081 07       		.byte	0x7
 8720 1082 1E01     		.2byte	0x11e
 8721 1084 CC100000 		.4byte	0x10cc
 8722 1088 1E       		.uleb128 0x1e
 8723 1089 96220000 		.4byte	.LASF222
 8724 108d 07       		.byte	0x7
 8725 108e 2701     		.2byte	0x127
 8726 1090 0F110000 		.4byte	0x110f
 8727 1094 1E       		.uleb128 0x1e
 8728 1095 5F260000 		.4byte	.LASF223
 8729 1099 07       		.byte	0x7
 8730 109a 2F01     		.2byte	0x12f
 8731 109c 83010000 		.4byte	0x183
 8732 10a0 00       		.byte	0
 8733 10a1 0B       		.uleb128 0xb
 8734 10a2 04       		.byte	0x4
 8735 10a3 E8020000 		.4byte	0x2e8
 8736 10a7 07       		.uleb128 0x7
 8737 10a8 FF1A0000 		.4byte	.LASF224
 8738 10ac 0C       		.byte	0xc
 8739 10ad 10       		.byte	0x10
 8740 10ae 34       		.byte	0x34
ARM GAS  /var/folders/d2/nstgp4h54kz7g1l847x_b8wc0000gn/T//ccB20FE7.s 			page 160


 8741 10af CC100000 		.4byte	0x10cc
 8742 10b3 08       		.uleb128 0x8
 8743 10b4 B0270000 		.4byte	.LASF225
 8744 10b8 10       		.byte	0x10
 8745 10b9 35       		.byte	0x35
 8746 10ba 1D030000 		.4byte	0x31d
 8747 10be 00       		.byte	0
 8748 10bf 08       		.uleb128 0x8
 8749 10c0 6B0B0000 		.4byte	.LASF226
 8750 10c4 10       		.byte	0x10
 8751 10c5 37       		.byte	0x37
 8752 10c6 99010000 		.4byte	0x199
 8753 10ca 08       		.byte	0x8
 8754 10cb 00       		.byte	0
 8755 10cc 0B       		.uleb128 0xb
 8756 10cd 04       		.byte	0x4
 8757 10ce A7100000 		.4byte	0x10a7
 8758 10d2 07       		.uleb128 0x7
 8759 10d3 CF0D0000 		.4byte	.LASF227
 8760 10d7 14       		.byte	0x14
 8761 10d8 11       		.byte	0x11
 8762 10d9 39       		.byte	0x39
 8763 10da 0F110000 		.4byte	0x110f
 8764 10de 08       		.uleb128 0x8
 8765 10df D61B0000 		.4byte	.LASF228
 8766 10e3 11       		.byte	0x11
 8767 10e4 3A       		.byte	0x3a
 8768 10e5 1D030000 		.4byte	0x31d
 8769 10e9 00       		.byte	0
 8770 10ea 08       		.uleb128 0x8
 8771 10eb B8190000 		.4byte	.LASF229
 8772 10ef 11       		.byte	0x11
 8773 10f0 3C       		.byte	0x3c
 8774 10f1 F3020000 		.4byte	0x2f3
 8775 10f5 08       		.byte	0x8
 8776 10f6 08       		.uleb128 0x8
 8777 10f7 B3020000 		.4byte	.LASF230
 8778 10fb 11       		.byte	0x11
 8779 10fc 3E       		.byte	0x3e
 8780 10fd 6A120000 		.4byte	0x126a
 8781 1101 0C       		.byte	0xc
 8782 1102 08       		.uleb128 0x8
 8783 1103 600A0000 		.4byte	.LASF231
 8784 1107 11       		.byte	0x11
 8785 1108 41       		.byte	0x41
 8786 1109 99010000 		.4byte	0x199
 8787 110d 10       		.byte	0x10
 8788 110e 00       		.byte	0
 8789 110f 0B       		.uleb128 0xb
 8790 1110 04       		.byte	0x4
 8791 1111 D2100000 		.4byte	0x10d2
 8792 1115 0B       		.uleb128 0xb
 8793 1116 04       		.byte	0x4
 8794 1117 27110000 		.4byte	0x1127
 8795 111b 06       		.uleb128 0x6
 8796 111c 15110000 		.4byte	0x1115
 8797 1120 04       		.uleb128 0x4
ARM GAS  /var/folders/d2/nstgp4h54kz7g1l847x_b8wc0000gn/T//ccB20FE7.s 			page 161


 8798 1121 01       		.byte	0x1
 8799 1122 08       		.byte	0x8
 8800 1123 331E0000 		.4byte	.LASF232
 8801 1127 05       		.uleb128 0x5
 8802 1128 20110000 		.4byte	0x1120
 8803 112c 0B       		.uleb128 0xb
 8804 112d 04       		.byte	0x4
 8805 112e 940D0000 		.4byte	0xd94
 8806 1132 0B       		.uleb128 0xb
 8807 1133 04       		.byte	0x4
 8808 1134 D2030000 		.4byte	0x3d2
 8809 1138 13       		.uleb128 0x13
 8810 1139 940D0000 		.4byte	0xd94
 8811 113d 48110000 		.4byte	0x1148
 8812 1141 14       		.uleb128 0x14
 8813 1142 37000000 		.4byte	0x37
 8814 1146 30       		.byte	0x30
 8815 1147 00       		.byte	0
 8816 1148 1F       		.uleb128 0x1f
 8817 1149 636800   		.ascii	"ch\000"
 8818 114c 07       		.byte	0x7
 8819 114d 0902     		.2byte	0x209
 8820 114f C7040000 		.4byte	0x4c7
 8821 1153 17       		.uleb128 0x17
 8822 1154 16       		.byte	0x16
 8823 1155 12       		.byte	0x12
 8824 1156 34       		.byte	0x34
 8825 1157 34120000 		.4byte	0x1234
 8826 115b 08       		.uleb128 0x8
 8827 115c E9270000 		.4byte	.LASF233
 8828 1160 12       		.byte	0x12
 8829 1161 35       		.byte	0x35
 8830 1162 34120000 		.4byte	0x1234
 8831 1166 00       		.byte	0
 8832 1167 08       		.uleb128 0x8
 8833 1168 552A0000 		.4byte	.LASF234
 8834 116c 12       		.byte	0x12
 8835 116d 36       		.byte	0x36
 8836 116e D5000000 		.4byte	0xd5
 8837 1172 04       		.byte	0x4
 8838 1173 08       		.uleb128 0x8
 8839 1174 58040000 		.4byte	.LASF235
 8840 1178 12       		.byte	0x12
 8841 1179 37       		.byte	0x37
 8842 117a D5000000 		.4byte	0xd5
 8843 117e 05       		.byte	0x5
 8844 117f 08       		.uleb128 0x8
 8845 1180 231A0000 		.4byte	.LASF236
 8846 1184 12       		.byte	0x12
 8847 1185 38       		.byte	0x38
 8848 1186 F0000000 		.4byte	0xf0
 8849 118a 06       		.byte	0x6
 8850 118b 08       		.uleb128 0x8
 8851 118c 27000000 		.4byte	.LASF237
 8852 1190 12       		.byte	0x12
 8853 1191 39       		.byte	0x39
 8854 1192 D5000000 		.4byte	0xd5
ARM GAS  /var/folders/d2/nstgp4h54kz7g1l847x_b8wc0000gn/T//ccB20FE7.s 			page 162


 8855 1196 08       		.byte	0x8
 8856 1197 08       		.uleb128 0x8
 8857 1198 33180000 		.4byte	.LASF238
 8858 119c 12       		.byte	0x12
 8859 119d 3A       		.byte	0x3a
 8860 119e D5000000 		.4byte	0xd5
 8861 11a2 09       		.byte	0x9
 8862 11a3 08       		.uleb128 0x8
 8863 11a4 752A0000 		.4byte	.LASF239
 8864 11a8 12       		.byte	0x12
 8865 11a9 3B       		.byte	0x3b
 8866 11aa D5000000 		.4byte	0xd5
 8867 11ae 0A       		.byte	0xa
 8868 11af 08       		.uleb128 0x8
 8869 11b0 42280000 		.4byte	.LASF240
 8870 11b4 12       		.byte	0x12
 8871 11b5 3C       		.byte	0x3c
 8872 11b6 D5000000 		.4byte	0xd5
 8873 11ba 0B       		.byte	0xb
 8874 11bb 08       		.uleb128 0x8
 8875 11bc 15070000 		.4byte	.LASF241
 8876 11c0 12       		.byte	0x12
 8877 11c1 3D       		.byte	0x3d
 8878 11c2 D5000000 		.4byte	0xd5
 8879 11c6 0C       		.byte	0xc
 8880 11c7 08       		.uleb128 0x8
 8881 11c8 2A0E0000 		.4byte	.LASF242
 8882 11cc 12       		.byte	0x12
 8883 11cd 3E       		.byte	0x3e
 8884 11ce D5000000 		.4byte	0xd5
 8885 11d2 0D       		.byte	0xd
 8886 11d3 08       		.uleb128 0x8
 8887 11d4 6E070000 		.4byte	.LASF243
 8888 11d8 12       		.byte	0x12
 8889 11d9 3F       		.byte	0x3f
 8890 11da D5000000 		.4byte	0xd5
 8891 11de 0E       		.byte	0xe
 8892 11df 08       		.uleb128 0x8
 8893 11e0 C60F0000 		.4byte	.LASF244
 8894 11e4 12       		.byte	0x12
 8895 11e5 40       		.byte	0x40
 8896 11e6 D5000000 		.4byte	0xd5
 8897 11ea 0F       		.byte	0xf
 8898 11eb 08       		.uleb128 0x8
 8899 11ec 58050000 		.4byte	.LASF245
 8900 11f0 12       		.byte	0x12
 8901 11f1 41       		.byte	0x41
 8902 11f2 D5000000 		.4byte	0xd5
 8903 11f6 10       		.byte	0x10
 8904 11f7 08       		.uleb128 0x8
 8905 11f8 700A0000 		.4byte	.LASF246
 8906 11fc 12       		.byte	0x12
 8907 11fd 43       		.byte	0x43
 8908 11fe D5000000 		.4byte	0xd5
 8909 1202 11       		.byte	0x11
 8910 1203 08       		.uleb128 0x8
 8911 1204 10040000 		.4byte	.LASF247
ARM GAS  /var/folders/d2/nstgp4h54kz7g1l847x_b8wc0000gn/T//ccB20FE7.s 			page 163


 8912 1208 12       		.byte	0x12
 8913 1209 44       		.byte	0x44
 8914 120a D5000000 		.4byte	0xd5
 8915 120e 12       		.byte	0x12
 8916 120f 08       		.uleb128 0x8
 8917 1210 A2190000 		.4byte	.LASF248
 8918 1214 12       		.byte	0x12
 8919 1215 45       		.byte	0x45
 8920 1216 D5000000 		.4byte	0xd5
 8921 121a 13       		.byte	0x13
 8922 121b 08       		.uleb128 0x8
 8923 121c 12210000 		.4byte	.LASF249
 8924 1220 12       		.byte	0x12
 8925 1221 46       		.byte	0x46
 8926 1222 D5000000 		.4byte	0xd5
 8927 1226 14       		.byte	0x14
 8928 1227 08       		.uleb128 0x8
 8929 1228 27010000 		.4byte	.LASF250
 8930 122c 12       		.byte	0x12
 8931 122d 48       		.byte	0x48
 8932 122e D5000000 		.4byte	0xd5
 8933 1232 15       		.byte	0x15
 8934 1233 00       		.byte	0
 8935 1234 13       		.uleb128 0x13
 8936 1235 20110000 		.4byte	0x1120
 8937 1239 44120000 		.4byte	0x1244
 8938 123d 14       		.uleb128 0x14
 8939 123e 37000000 		.4byte	0x37
 8940 1242 03       		.byte	0x3
 8941 1243 00       		.byte	0
 8942 1244 03       		.uleb128 0x3
 8943 1245 C6170000 		.4byte	.LASF251
 8944 1249 12       		.byte	0x12
 8945 124a 49       		.byte	0x49
 8946 124b 53110000 		.4byte	0x1153
 8947 124f 05       		.uleb128 0x5
 8948 1250 44120000 		.4byte	0x1244
 8949 1254 16       		.uleb128 0x16
 8950 1255 CF0C0000 		.4byte	.LASF252
 8951 1259 12       		.byte	0x12
 8952 125a 6E       		.byte	0x6e
 8953 125b 4F120000 		.4byte	0x124f
 8954 125f 03       		.uleb128 0x3
 8955 1260 23240000 		.4byte	.LASF253
 8956 1264 11       		.byte	0x11
 8957 1265 34       		.byte	0x34
 8958 1266 D2100000 		.4byte	0x10d2
 8959 126a 0B       		.uleb128 0xb
 8960 126b 04       		.byte	0x4
 8961 126c 5F120000 		.4byte	0x125f
 8962 1270 03       		.uleb128 0x3
 8963 1271 270D0000 		.4byte	.LASF254
 8964 1275 13       		.byte	0x13
 8965 1276 34       		.byte	0x34
 8966 1277 7B120000 		.4byte	0x127b
 8967 127b 07       		.uleb128 0x7
 8968 127c FD2A0000 		.4byte	.LASF255
ARM GAS  /var/folders/d2/nstgp4h54kz7g1l847x_b8wc0000gn/T//ccB20FE7.s 			page 164


 8969 1280 14       		.byte	0x14
 8970 1281 13       		.byte	0x13
 8971 1282 39       		.byte	0x39
 8972 1283 C4120000 		.4byte	0x12c4
 8973 1287 08       		.uleb128 0x8
 8974 1288 5D030000 		.4byte	.LASF256
 8975 128c 13       		.byte	0x13
 8976 128d 3A       		.byte	0x3a
 8977 128e C4120000 		.4byte	0x12c4
 8978 1292 00       		.byte	0
 8979 1293 08       		.uleb128 0x8
 8980 1294 30250000 		.4byte	.LASF257
 8981 1298 13       		.byte	0x13
 8982 1299 3D       		.byte	0x3d
 8983 129a F3020000 		.4byte	0x2f3
 8984 129e 04       		.byte	0x4
 8985 129f 08       		.uleb128 0x8
 8986 12a0 D3040000 		.4byte	.LASF258
 8987 12a4 13       		.byte	0x13
 8988 12a5 3F       		.byte	0x3f
 8989 12a6 83010000 		.4byte	0x183
 8990 12aa 08       		.byte	0x8
 8991 12ab 08       		.uleb128 0x8
 8992 12ac 66260000 		.4byte	.LASF259
 8993 12b0 13       		.byte	0x13
 8994 12b1 41       		.byte	0x41
 8995 12b2 8E010000 		.4byte	0x18e
 8996 12b6 0C       		.byte	0xc
 8997 12b7 08       		.uleb128 0x8
 8998 12b8 0E100000 		.4byte	.LASF260
 8999 12bc 13       		.byte	0x13
 9000 12bd 43       		.byte	0x43
 9001 12be 8E010000 		.4byte	0x18e
 9002 12c2 10       		.byte	0x10
 9003 12c3 00       		.byte	0
 9004 12c4 0B       		.uleb128 0xb
 9005 12c5 04       		.byte	0x4
 9006 12c6 70120000 		.4byte	0x1270
 9007 12ca 07       		.uleb128 0x7
 9008 12cb 75260000 		.4byte	.LASF261
 9009 12cf 04       		.byte	0x4
 9010 12d0 13       		.byte	0x13
 9011 12d1 4A       		.byte	0x4a
 9012 12d2 E3120000 		.4byte	0x12e3
 9013 12d6 08       		.uleb128 0x8
 9014 12d7 D5250000 		.4byte	.LASF262
 9015 12db 13       		.byte	0x13
 9016 12dc 4B       		.byte	0x4b
 9017 12dd C4120000 		.4byte	0x12c4
 9018 12e1 00       		.byte	0
 9019 12e2 00       		.byte	0
 9020 12e3 03       		.uleb128 0x3
 9021 12e4 4F180000 		.4byte	.LASF263
 9022 12e8 13       		.byte	0x13
 9023 12e9 4E       		.byte	0x4e
 9024 12ea CA120000 		.4byte	0x12ca
 9025 12ee 03       		.uleb128 0x3
ARM GAS  /var/folders/d2/nstgp4h54kz7g1l847x_b8wc0000gn/T//ccB20FE7.s 			page 165


 9026 12ef 66100000 		.4byte	.LASF264
 9027 12f3 14       		.byte	0x14
 9028 12f4 3F       		.byte	0x3f
 9029 12f5 F9120000 		.4byte	0x12f9
 9030 12f9 07       		.uleb128 0x7
 9031 12fa 09140000 		.4byte	.LASF265
 9032 12fe 24       		.byte	0x24
 9033 12ff 14       		.byte	0x14
 9034 1300 4D       		.byte	0x4d
 9035 1301 66130000 		.4byte	0x1366
 9036 1305 08       		.uleb128 0x8
 9037 1306 E0060000 		.4byte	.LASF266
 9038 130a 14       		.byte	0x14
 9039 130b 4E       		.byte	0x4e
 9040 130c 1D030000 		.4byte	0x31d
 9041 1310 00       		.byte	0
 9042 1311 08       		.uleb128 0x8
 9043 1312 D1230000 		.4byte	.LASF267
 9044 1316 14       		.byte	0x14
 9045 1317 4F       		.byte	0x4f
 9046 1318 2C000000 		.4byte	0x2c
 9047 131c 08       		.byte	0x8
 9048 131d 08       		.uleb128 0x8
 9049 131e 4D150000 		.4byte	.LASF268
 9050 1322 14       		.byte	0x14
 9051 1323 50       		.byte	0x50
 9052 1324 88130000 		.4byte	0x1388
 9053 1328 0C       		.byte	0xc
 9054 1329 08       		.uleb128 0x8
 9055 132a 1B060000 		.4byte	.LASF269
 9056 132e 14       		.byte	0x14
 9057 132f 51       		.byte	0x51
 9058 1330 88130000 		.4byte	0x1388
 9059 1334 10       		.byte	0x10
 9060 1335 08       		.uleb128 0x8
 9061 1336 D51D0000 		.4byte	.LASF270
 9062 133a 14       		.byte	0x14
 9063 133b 53       		.byte	0x53
 9064 133c 88130000 		.4byte	0x1388
 9065 1340 14       		.byte	0x14
 9066 1341 08       		.uleb128 0x8
 9067 1342 8F1C0000 		.4byte	.LASF271
 9068 1346 14       		.byte	0x14
 9069 1347 54       		.byte	0x54
 9070 1348 88130000 		.4byte	0x1388
 9071 134c 18       		.byte	0x18
 9072 134d 08       		.uleb128 0x8
 9073 134e 8D220000 		.4byte	.LASF272
 9074 1352 14       		.byte	0x14
 9075 1353 55       		.byte	0x55
 9076 1354 66130000 		.4byte	0x1366
 9077 1358 1C       		.byte	0x1c
 9078 1359 08       		.uleb128 0x8
 9079 135a 211F0000 		.4byte	.LASF273
 9080 135e 14       		.byte	0x14
 9081 135f 56       		.byte	0x56
 9082 1360 D0030000 		.4byte	0x3d0
ARM GAS  /var/folders/d2/nstgp4h54kz7g1l847x_b8wc0000gn/T//ccB20FE7.s 			page 166


 9083 1364 20       		.byte	0x20
 9084 1365 00       		.byte	0
 9085 1366 03       		.uleb128 0x3
 9086 1367 D0050000 		.4byte	.LASF274
 9087 136b 14       		.byte	0x14
 9088 136c 42       		.byte	0x42
 9089 136d 71130000 		.4byte	0x1371
 9090 1371 0B       		.uleb128 0xb
 9091 1372 04       		.byte	0x4
 9092 1373 77130000 		.4byte	0x1377
 9093 1377 0D       		.uleb128 0xd
 9094 1378 82130000 		.4byte	0x1382
 9095 137c 0E       		.uleb128 0xe
 9096 137d 82130000 		.4byte	0x1382
 9097 1381 00       		.byte	0
 9098 1382 0B       		.uleb128 0xb
 9099 1383 04       		.byte	0x4
 9100 1384 EE120000 		.4byte	0x12ee
 9101 1388 0B       		.uleb128 0xb
 9102 1389 04       		.byte	0x4
 9103 138a D5000000 		.4byte	0xd5
 9104 138e 03       		.uleb128 0x3
 9105 138f 20070000 		.4byte	.LASF275
 9106 1393 14       		.byte	0x14
 9107 1394 64       		.byte	0x64
 9108 1395 EE120000 		.4byte	0x12ee
 9109 1399 03       		.uleb128 0x3
 9110 139a 462B0000 		.4byte	.LASF276
 9111 139e 14       		.byte	0x14
 9112 139f 71       		.byte	0x71
 9113 13a0 EE120000 		.4byte	0x12ee
 9114 13a4 20       		.uleb128 0x20
 9115 13a5 2C000000 		.4byte	0x2c
 9116 13a9 BD130000 		.4byte	0x13bd
 9117 13ad 0E       		.uleb128 0xe
 9118 13ae D0030000 		.4byte	0x3d0
 9119 13b2 0E       		.uleb128 0xe
 9120 13b3 BD130000 		.4byte	0x13bd
 9121 13b7 0E       		.uleb128 0xe
 9122 13b8 2C000000 		.4byte	0x2c
 9123 13bc 00       		.byte	0
 9124 13bd 0B       		.uleb128 0xb
 9125 13be 04       		.byte	0x4
 9126 13bf E0000000 		.4byte	0xe0
 9127 13c3 0B       		.uleb128 0xb
 9128 13c4 04       		.byte	0x4
 9129 13c5 A4130000 		.4byte	0x13a4
 9130 13c9 20       		.uleb128 0x20
 9131 13ca 2C000000 		.4byte	0x2c
 9132 13ce E2130000 		.4byte	0x13e2
 9133 13d2 0E       		.uleb128 0xe
 9134 13d3 D0030000 		.4byte	0x3d0
 9135 13d7 0E       		.uleb128 0xe
 9136 13d8 88130000 		.4byte	0x1388
 9137 13dc 0E       		.uleb128 0xe
 9138 13dd 2C000000 		.4byte	0x2c
 9139 13e1 00       		.byte	0
ARM GAS  /var/folders/d2/nstgp4h54kz7g1l847x_b8wc0000gn/T//ccB20FE7.s 			page 167


 9140 13e2 0B       		.uleb128 0xb
 9141 13e3 04       		.byte	0x4
 9142 13e4 C9130000 		.4byte	0x13c9
 9143 13e8 20       		.uleb128 0x20
 9144 13e9 78010000 		.4byte	0x178
 9145 13ed FC130000 		.4byte	0x13fc
 9146 13f1 0E       		.uleb128 0xe
 9147 13f2 D0030000 		.4byte	0x3d0
 9148 13f6 0E       		.uleb128 0xe
 9149 13f7 D5000000 		.4byte	0xd5
 9150 13fb 00       		.byte	0
 9151 13fc 0B       		.uleb128 0xb
 9152 13fd 04       		.byte	0x4
 9153 13fe E8130000 		.4byte	0x13e8
 9154 1402 20       		.uleb128 0x20
 9155 1403 78010000 		.4byte	0x178
 9156 1407 11140000 		.4byte	0x1411
 9157 140b 0E       		.uleb128 0xe
 9158 140c D0030000 		.4byte	0x3d0
 9159 1410 00       		.byte	0
 9160 1411 0B       		.uleb128 0xb
 9161 1412 04       		.byte	0x4
 9162 1413 02140000 		.4byte	0x1402
 9163 1417 17       		.uleb128 0x17
 9164 1418 0C       		.byte	0xc
 9165 1419 15       		.byte	0x15
 9166 141a DA       		.byte	0xda
 9167 141b 5C140000 		.4byte	0x145c
 9168 141f 08       		.uleb128 0x8
 9169 1420 D72A0000 		.4byte	.LASF277
 9170 1424 15       		.byte	0x15
 9171 1425 DB       		.byte	0xdb
 9172 1426 5C140000 		.4byte	0x145c
 9173 142a 00       		.byte	0
 9174 142b 08       		.uleb128 0x8
 9175 142c 56130000 		.4byte	.LASF278
 9176 1430 15       		.byte	0x15
 9177 1431 DC       		.byte	0xdc
 9178 1432 62140000 		.4byte	0x1462
 9179 1436 04       		.byte	0x4
 9180 1437 08       		.uleb128 0x8
 9181 1438 FB050000 		.4byte	.LASF279
 9182 143c 15       		.byte	0x15
 9183 143d DD       		.byte	0xdd
 9184 143e D5000000 		.4byte	0xd5
 9185 1442 08       		.byte	0x8
 9186 1443 08       		.uleb128 0x8
 9187 1444 19240000 		.4byte	.LASF280
 9188 1448 15       		.byte	0x15
 9189 1449 DF       		.byte	0xdf
 9190 144a D5000000 		.4byte	0xd5
 9191 144e 09       		.byte	0x9
 9192 144f 08       		.uleb128 0x8
 9193 1450 0B050000 		.4byte	.LASF281
 9194 1454 15       		.byte	0x15
 9195 1455 E0       		.byte	0xe0
 9196 1456 D5000000 		.4byte	0xd5
ARM GAS  /var/folders/d2/nstgp4h54kz7g1l847x_b8wc0000gn/T//ccB20FE7.s 			page 168


 9197 145a 0A       		.byte	0xa
 9198 145b 00       		.byte	0
 9199 145c 0B       		.uleb128 0xb
 9200 145d 04       		.byte	0x4
 9201 145e 850A0000 		.4byte	0xa85
 9202 1462 0B       		.uleb128 0xb
 9203 1463 04       		.byte	0x4
 9204 1464 16010000 		.4byte	0x116
 9205 1468 03       		.uleb128 0x3
 9206 1469 85160000 		.4byte	.LASF282
 9207 146d 15       		.byte	0x15
 9208 146e E1       		.byte	0xe1
 9209 146f 17140000 		.4byte	0x1417
 9210 1473 05       		.uleb128 0x5
 9211 1474 68140000 		.4byte	0x1468
 9212 1478 13       		.uleb128 0x13
 9213 1479 73140000 		.4byte	0x1473
 9214 147d 88140000 		.4byte	0x1488
 9215 1481 14       		.uleb128 0x14
 9216 1482 37000000 		.4byte	0x37
 9217 1486 0F       		.byte	0xf
 9218 1487 00       		.byte	0
 9219 1488 05       		.uleb128 0x5
 9220 1489 78140000 		.4byte	0x1478
 9221 148d 15       		.uleb128 0x15
 9222 148e 00200000 		.4byte	.LASF283
 9223 1492 15       		.byte	0x15
 9224 1493 BB01     		.2byte	0x1bb
 9225 1495 88140000 		.4byte	0x1488
 9226 1499 20       		.uleb128 0x20
 9227 149a 78010000 		.4byte	0x178
 9228 149e B2140000 		.4byte	0x14b2
 9229 14a2 0E       		.uleb128 0xe
 9230 14a3 D0030000 		.4byte	0x3d0
 9231 14a7 0E       		.uleb128 0xe
 9232 14a8 D5000000 		.4byte	0xd5
 9233 14ac 0E       		.uleb128 0xe
 9234 14ad AF010000 		.4byte	0x1af
 9235 14b1 00       		.byte	0
 9236 14b2 0B       		.uleb128 0xb
 9237 14b3 04       		.byte	0x4
 9238 14b4 99140000 		.4byte	0x1499
 9239 14b8 20       		.uleb128 0x20
 9240 14b9 78010000 		.4byte	0x178
 9241 14bd CC140000 		.4byte	0x14cc
 9242 14c1 0E       		.uleb128 0xe
 9243 14c2 D0030000 		.4byte	0x3d0
 9244 14c6 0E       		.uleb128 0xe
 9245 14c7 AF010000 		.4byte	0x1af
 9246 14cb 00       		.byte	0
 9247 14cc 0B       		.uleb128 0xb
 9248 14cd 04       		.byte	0x4
 9249 14ce B8140000 		.4byte	0x14b8
 9250 14d2 20       		.uleb128 0x20
 9251 14d3 2C000000 		.4byte	0x2c
 9252 14d7 F0140000 		.4byte	0x14f0
 9253 14db 0E       		.uleb128 0xe
ARM GAS  /var/folders/d2/nstgp4h54kz7g1l847x_b8wc0000gn/T//ccB20FE7.s 			page 169


 9254 14dc D0030000 		.4byte	0x3d0
 9255 14e0 0E       		.uleb128 0xe
 9256 14e1 BD130000 		.4byte	0x13bd
 9257 14e5 0E       		.uleb128 0xe
 9258 14e6 2C000000 		.4byte	0x2c
 9259 14ea 0E       		.uleb128 0xe
 9260 14eb AF010000 		.4byte	0x1af
 9261 14ef 00       		.byte	0
 9262 14f0 0B       		.uleb128 0xb
 9263 14f1 04       		.byte	0x4
 9264 14f2 D2140000 		.4byte	0x14d2
 9265 14f6 20       		.uleb128 0x20
 9266 14f7 2C000000 		.4byte	0x2c
 9267 14fb 14150000 		.4byte	0x1514
 9268 14ff 0E       		.uleb128 0xe
 9269 1500 D0030000 		.4byte	0x3d0
 9270 1504 0E       		.uleb128 0xe
 9271 1505 88130000 		.4byte	0x1388
 9272 1509 0E       		.uleb128 0xe
 9273 150a 2C000000 		.4byte	0x2c
 9274 150e 0E       		.uleb128 0xe
 9275 150f AF010000 		.4byte	0x1af
 9276 1513 00       		.byte	0
 9277 1514 0B       		.uleb128 0xb
 9278 1515 04       		.byte	0x4
 9279 1516 F6140000 		.4byte	0x14f6
 9280 151a 21       		.uleb128 0x21
 9281 151b 07       		.byte	0x7
 9282 151c 01       		.byte	0x1
 9283 151d 69000000 		.4byte	0x69
 9284 1521 16       		.byte	0x16
 9285 1522 28       		.byte	0x28
 9286 1523 5E150000 		.4byte	0x155e
 9287 1527 22       		.uleb128 0x22
 9288 1528 3B020000 		.4byte	.LASF284
 9289 152c 00       		.byte	0
 9290 152d 22       		.uleb128 0x22
 9291 152e 30110000 		.4byte	.LASF285
 9292 1532 01       		.byte	0x1
 9293 1533 22       		.uleb128 0x22
 9294 1534 120D0000 		.4byte	.LASF286
 9295 1538 02       		.byte	0x2
 9296 1539 22       		.uleb128 0x22
 9297 153a 9F210000 		.4byte	.LASF287
 9298 153e 03       		.byte	0x3
 9299 153f 22       		.uleb128 0x22
 9300 1540 95290000 		.4byte	.LASF288
 9301 1544 04       		.byte	0x4
 9302 1545 22       		.uleb128 0x22
 9303 1546 65090000 		.4byte	.LASF289
 9304 154a 05       		.byte	0x5
 9305 154b 22       		.uleb128 0x22
 9306 154c F9230000 		.4byte	.LASF290
 9307 1550 06       		.byte	0x6
 9308 1551 22       		.uleb128 0x22
 9309 1552 011D0000 		.4byte	.LASF291
 9310 1556 07       		.byte	0x7
ARM GAS  /var/folders/d2/nstgp4h54kz7g1l847x_b8wc0000gn/T//ccB20FE7.s 			page 170


 9311 1557 22       		.uleb128 0x22
 9312 1558 55290000 		.4byte	.LASF292
 9313 155c 08       		.byte	0x8
 9314 155d 00       		.byte	0
 9315 155e 03       		.uleb128 0x3
 9316 155f 7A1B0000 		.4byte	.LASF293
 9317 1563 16       		.byte	0x16
 9318 1564 32       		.byte	0x32
 9319 1565 1A150000 		.4byte	0x151a
 9320 1569 17       		.uleb128 0x17
 9321 156a 08       		.byte	0x8
 9322 156b 16       		.byte	0x16
 9323 156c 37       		.byte	0x37
 9324 156d 8A150000 		.4byte	0x158a
 9325 1571 08       		.uleb128 0x8
 9326 1572 D2080000 		.4byte	.LASF294
 9327 1576 16       		.byte	0x16
 9328 1577 38       		.byte	0x38
 9329 1578 0B010000 		.4byte	0x10b
 9330 157c 00       		.byte	0
 9331 157d 08       		.uleb128 0x8
 9332 157e 23230000 		.4byte	.LASF295
 9333 1582 16       		.byte	0x16
 9334 1583 39       		.byte	0x39
 9335 1584 0B010000 		.4byte	0x10b
 9336 1588 04       		.byte	0x4
 9337 1589 00       		.byte	0
 9338 158a 03       		.uleb128 0x3
 9339 158b 8E250000 		.4byte	.LASF296
 9340 158f 16       		.byte	0x16
 9341 1590 3A       		.byte	0x3a
 9342 1591 69150000 		.4byte	0x1569
 9343 1595 20       		.uleb128 0x20
 9344 1596 A4150000 		.4byte	0x15a4
 9345 159a A4150000 		.4byte	0x15a4
 9346 159e 0E       		.uleb128 0xe
 9347 159f D0030000 		.4byte	0x3d0
 9348 15a3 00       		.byte	0
 9349 15a4 04       		.uleb128 0x4
 9350 15a5 01       		.byte	0x1
 9351 15a6 02       		.byte	0x2
 9352 15a7 5F010000 		.4byte	.LASF297
 9353 15ab 0B       		.uleb128 0xb
 9354 15ac 04       		.byte	0x4
 9355 15ad 95150000 		.4byte	0x1595
 9356 15b1 20       		.uleb128 0x20
 9357 15b2 A4150000 		.4byte	0x15a4
 9358 15b6 CF150000 		.4byte	0x15cf
 9359 15ba 0E       		.uleb128 0xe
 9360 15bb D0030000 		.4byte	0x3d0
 9361 15bf 0E       		.uleb128 0xe
 9362 15c0 0B010000 		.4byte	0x10b
 9363 15c4 0E       		.uleb128 0xe
 9364 15c5 88130000 		.4byte	0x1388
 9365 15c9 0E       		.uleb128 0xe
 9366 15ca 0B010000 		.4byte	0x10b
 9367 15ce 00       		.byte	0
ARM GAS  /var/folders/d2/nstgp4h54kz7g1l847x_b8wc0000gn/T//ccB20FE7.s 			page 171


 9368 15cf 0B       		.uleb128 0xb
 9369 15d0 04       		.byte	0x4
 9370 15d1 B1150000 		.4byte	0x15b1
 9371 15d5 20       		.uleb128 0x20
 9372 15d6 A4150000 		.4byte	0x15a4
 9373 15da F3150000 		.4byte	0x15f3
 9374 15de 0E       		.uleb128 0xe
 9375 15df D0030000 		.4byte	0x3d0
 9376 15e3 0E       		.uleb128 0xe
 9377 15e4 0B010000 		.4byte	0x10b
 9378 15e8 0E       		.uleb128 0xe
 9379 15e9 BD130000 		.4byte	0x13bd
 9380 15ed 0E       		.uleb128 0xe
 9381 15ee 0B010000 		.4byte	0x10b
 9382 15f2 00       		.byte	0
 9383 15f3 0B       		.uleb128 0xb
 9384 15f4 04       		.byte	0x4
 9385 15f5 D5150000 		.4byte	0x15d5
 9386 15f9 20       		.uleb128 0x20
 9387 15fa A4150000 		.4byte	0x15a4
 9388 15fe 0D160000 		.4byte	0x160d
 9389 1602 0E       		.uleb128 0xe
 9390 1603 D0030000 		.4byte	0x3d0
 9391 1607 0E       		.uleb128 0xe
 9392 1608 0D160000 		.4byte	0x160d
 9393 160c 00       		.byte	0
 9394 160d 0B       		.uleb128 0xb
 9395 160e 04       		.byte	0x4
 9396 160f 8A150000 		.4byte	0x158a
 9397 1613 0B       		.uleb128 0xb
 9398 1614 04       		.byte	0x4
 9399 1615 F9150000 		.4byte	0x15f9
 9400 1619 13       		.uleb128 0x13
 9401 161a 0B010000 		.4byte	0x10b
 9402 161e 29160000 		.4byte	0x1629
 9403 1622 14       		.uleb128 0x14
 9404 1623 37000000 		.4byte	0x37
 9405 1627 03       		.byte	0x3
 9406 1628 00       		.byte	0
 9407 1629 17       		.uleb128 0x17
 9408 162a 04       		.byte	0x4
 9409 162b 17       		.byte	0x17
 9410 162c B3       		.byte	0xb3
 9411 162d 4A160000 		.4byte	0x164a
 9412 1631 18       		.uleb128 0x18
 9413 1632 73657400 		.ascii	"set\000"
 9414 1636 17       		.byte	0x17
 9415 1637 B4       		.byte	0xb4
 9416 1638 F0000000 		.4byte	0xf0
 9417 163c 00       		.byte	0
 9418 163d 08       		.uleb128 0x8
 9419 163e 210F0000 		.4byte	.LASF298
 9420 1642 17       		.byte	0x17
 9421 1643 B5       		.byte	0xb5
 9422 1644 F0000000 		.4byte	0xf0
 9423 1648 02       		.byte	0x2
 9424 1649 00       		.byte	0
ARM GAS  /var/folders/d2/nstgp4h54kz7g1l847x_b8wc0000gn/T//ccB20FE7.s 			page 172


 9425 164a 1D       		.uleb128 0x1d
 9426 164b 04       		.byte	0x4
 9427 164c 17       		.byte	0x17
 9428 164d B1       		.byte	0xb1
 9429 164e 65160000 		.4byte	0x1665
 9430 1652 23       		.uleb128 0x23
 9431 1653 5700     		.ascii	"W\000"
 9432 1655 17       		.byte	0x17
 9433 1656 B2       		.byte	0xb2
 9434 1657 0B010000 		.4byte	0x10b
 9435 165b 23       		.uleb128 0x23
 9436 165c 4800     		.ascii	"H\000"
 9437 165e 17       		.byte	0x17
 9438 165f B6       		.byte	0xb6
 9439 1660 29160000 		.4byte	0x1629
 9440 1664 00       		.byte	0
 9441 1665 06       		.uleb128 0x6
 9442 1666 4A160000 		.4byte	0x164a
 9443 166a 17       		.uleb128 0x17
 9444 166b 2C       		.byte	0x2c
 9445 166c 17       		.byte	0x17
 9446 166d A9       		.byte	0xa9
 9447 166e F7160000 		.4byte	0x16f7
 9448 1672 08       		.uleb128 0x8
 9449 1673 4A240000 		.4byte	.LASF299
 9450 1677 17       		.byte	0x17
 9451 1678 AB       		.byte	0xab
 9452 1679 16010000 		.4byte	0x116
 9453 167d 00       		.byte	0
 9454 167e 08       		.uleb128 0x8
 9455 167f 79040000 		.4byte	.LASF300
 9456 1683 17       		.byte	0x17
 9457 1684 AC       		.byte	0xac
 9458 1685 16010000 		.4byte	0x116
 9459 1689 04       		.byte	0x4
 9460 168a 08       		.uleb128 0x8
 9461 168b EC100000 		.4byte	.LASF301
 9462 168f 17       		.byte	0x17
 9463 1690 AD       		.byte	0xad
 9464 1691 16010000 		.4byte	0x116
 9465 1695 08       		.byte	0x8
 9466 1696 08       		.uleb128 0x8
 9467 1697 4F230000 		.4byte	.LASF302
 9468 169b 17       		.byte	0x17
 9469 169c AE       		.byte	0xae
 9470 169d 16010000 		.4byte	0x116
 9471 16a1 0C       		.byte	0xc
 9472 16a2 18       		.uleb128 0x18
 9473 16a3 49445200 		.ascii	"IDR\000"
 9474 16a7 17       		.byte	0x17
 9475 16a8 AF       		.byte	0xaf
 9476 16a9 16010000 		.4byte	0x116
 9477 16ad 10       		.byte	0x10
 9478 16ae 18       		.uleb128 0x18
 9479 16af 4F445200 		.ascii	"ODR\000"
 9480 16b3 17       		.byte	0x17
 9481 16b4 B0       		.byte	0xb0
ARM GAS  /var/folders/d2/nstgp4h54kz7g1l847x_b8wc0000gn/T//ccB20FE7.s 			page 173


 9482 16b5 16010000 		.4byte	0x116
 9483 16b9 14       		.byte	0x14
 9484 16ba 08       		.uleb128 0x8
 9485 16bb 70160000 		.4byte	.LASF303
 9486 16bf 17       		.byte	0x17
 9487 16c0 B7       		.byte	0xb7
 9488 16c1 65160000 		.4byte	0x1665
 9489 16c5 18       		.byte	0x18
 9490 16c6 08       		.uleb128 0x8
 9491 16c7 D61C0000 		.4byte	.LASF304
 9492 16cb 17       		.byte	0x17
 9493 16cc B8       		.byte	0xb8
 9494 16cd 16010000 		.4byte	0x116
 9495 16d1 1C       		.byte	0x1c
 9496 16d2 08       		.uleb128 0x8
 9497 16d3 01210000 		.4byte	.LASF305
 9498 16d7 17       		.byte	0x17
 9499 16d8 B9       		.byte	0xb9
 9500 16d9 16010000 		.4byte	0x116
 9501 16dd 20       		.byte	0x20
 9502 16de 08       		.uleb128 0x8
 9503 16df F5200000 		.4byte	.LASF306
 9504 16e3 17       		.byte	0x17
 9505 16e4 BA       		.byte	0xba
 9506 16e5 16010000 		.4byte	0x116
 9507 16e9 24       		.byte	0x24
 9508 16ea 18       		.uleb128 0x18
 9509 16eb 42525200 		.ascii	"BRR\000"
 9510 16ef 17       		.byte	0x17
 9511 16f0 BB       		.byte	0xbb
 9512 16f1 16010000 		.4byte	0x116
 9513 16f5 28       		.byte	0x28
 9514 16f6 00       		.byte	0
 9515 16f7 03       		.uleb128 0x3
 9516 16f8 80130000 		.4byte	.LASF307
 9517 16fc 17       		.byte	0x17
 9518 16fd BC       		.byte	0xbc
 9519 16fe 6A160000 		.4byte	0x166a
 9520 1702 17       		.uleb128 0x17
 9521 1703 1C       		.byte	0x1c
 9522 1704 17       		.byte	0x17
 9523 1705 C1       		.byte	0xc1
 9524 1706 5F170000 		.4byte	0x175f
 9525 170a 08       		.uleb128 0x8
 9526 170b AA270000 		.4byte	.LASF308
 9527 170f 17       		.byte	0x17
 9528 1710 C3       		.byte	0xc3
 9529 1711 0B010000 		.4byte	0x10b
 9530 1715 00       		.byte	0
 9531 1716 08       		.uleb128 0x8
 9532 1717 72040000 		.4byte	.LASF309
 9533 171b 17       		.byte	0x17
 9534 171c C5       		.byte	0xc5
 9535 171d 0B010000 		.4byte	0x10b
 9536 1721 04       		.byte	0x4
 9537 1722 08       		.uleb128 0x8
 9538 1723 40030000 		.4byte	.LASF310
ARM GAS  /var/folders/d2/nstgp4h54kz7g1l847x_b8wc0000gn/T//ccB20FE7.s 			page 174


 9539 1727 17       		.byte	0x17
 9540 1728 C7       		.byte	0xc7
 9541 1729 0B010000 		.4byte	0x10b
 9542 172d 08       		.byte	0x8
 9543 172e 08       		.uleb128 0x8
 9544 172f D3260000 		.4byte	.LASF311
 9545 1733 17       		.byte	0x17
 9546 1734 C9       		.byte	0xc9
 9547 1735 0B010000 		.4byte	0x10b
 9548 1739 0C       		.byte	0xc
 9549 173a 18       		.uleb128 0x18
 9550 173b 6F647200 		.ascii	"odr\000"
 9551 173f 17       		.byte	0x17
 9552 1740 CB       		.byte	0xcb
 9553 1741 0B010000 		.4byte	0x10b
 9554 1745 10       		.byte	0x10
 9555 1746 08       		.uleb128 0x8
 9556 1747 05240000 		.4byte	.LASF312
 9557 174b 17       		.byte	0x17
 9558 174c CD       		.byte	0xcd
 9559 174d 0B010000 		.4byte	0x10b
 9560 1751 14       		.byte	0x14
 9561 1752 08       		.uleb128 0x8
 9562 1753 B7000000 		.4byte	.LASF313
 9563 1757 17       		.byte	0x17
 9564 1758 CF       		.byte	0xcf
 9565 1759 0B010000 		.4byte	0x10b
 9566 175d 18       		.byte	0x18
 9567 175e 00       		.byte	0
 9568 175f 03       		.uleb128 0x3
 9569 1760 BB1F0000 		.4byte	.LASF314
 9570 1764 17       		.byte	0x17
 9571 1765 D0       		.byte	0xd0
 9572 1766 02170000 		.4byte	0x1702
 9573 176a 17       		.uleb128 0x17
 9574 176b FC       		.byte	0xfc
 9575 176c 17       		.byte	0x17
 9576 176d D9       		.byte	0xd9
 9577 176e DF170000 		.4byte	0x17df
 9578 1772 08       		.uleb128 0x8
 9579 1773 1A140000 		.4byte	.LASF315
 9580 1777 17       		.byte	0x17
 9581 1778 DC       		.byte	0xdc
 9582 1779 5F170000 		.4byte	0x175f
 9583 177d 00       		.byte	0
 9584 177e 08       		.uleb128 0x8
 9585 177f 51040000 		.4byte	.LASF316
 9586 1783 17       		.byte	0x17
 9587 1784 E0       		.byte	0xe0
 9588 1785 5F170000 		.4byte	0x175f
 9589 1789 1C       		.byte	0x1c
 9590 178a 08       		.uleb128 0x8
 9591 178b BA020000 		.4byte	.LASF317
 9592 178f 17       		.byte	0x17
 9593 1790 E4       		.byte	0xe4
 9594 1791 5F170000 		.4byte	0x175f
 9595 1795 38       		.byte	0x38
ARM GAS  /var/folders/d2/nstgp4h54kz7g1l847x_b8wc0000gn/T//ccB20FE7.s 			page 175


 9596 1796 08       		.uleb128 0x8
 9597 1797 2A100000 		.4byte	.LASF318
 9598 179b 17       		.byte	0x17
 9599 179c E8       		.byte	0xe8
 9600 179d 5F170000 		.4byte	0x175f
 9601 17a1 54       		.byte	0x54
 9602 17a2 08       		.uleb128 0x8
 9603 17a3 591E0000 		.4byte	.LASF319
 9604 17a7 17       		.byte	0x17
 9605 17a8 EC       		.byte	0xec
 9606 17a9 5F170000 		.4byte	0x175f
 9607 17ad 70       		.byte	0x70
 9608 17ae 08       		.uleb128 0x8
 9609 17af B52B0000 		.4byte	.LASF320
 9610 17b3 17       		.byte	0x17
 9611 17b4 F0       		.byte	0xf0
 9612 17b5 5F170000 		.4byte	0x175f
 9613 17b9 8C       		.byte	0x8c
 9614 17ba 08       		.uleb128 0x8
 9615 17bb FB0D0000 		.4byte	.LASF321
 9616 17bf 17       		.byte	0x17
 9617 17c0 F4       		.byte	0xf4
 9618 17c1 5F170000 		.4byte	0x175f
 9619 17c5 A8       		.byte	0xa8
 9620 17c6 08       		.uleb128 0x8
 9621 17c7 0B1C0000 		.4byte	.LASF322
 9622 17cb 17       		.byte	0x17
 9623 17cc F8       		.byte	0xf8
 9624 17cd 5F170000 		.4byte	0x175f
 9625 17d1 C4       		.byte	0xc4
 9626 17d2 08       		.uleb128 0x8
 9627 17d3 61290000 		.4byte	.LASF323
 9628 17d7 17       		.byte	0x17
 9629 17d8 FC       		.byte	0xfc
 9630 17d9 5F170000 		.4byte	0x175f
 9631 17dd E0       		.byte	0xe0
 9632 17de 00       		.byte	0
 9633 17df 03       		.uleb128 0x3
 9634 17e0 EB0C0000 		.4byte	.LASF324
 9635 17e4 17       		.byte	0x17
 9636 17e5 FE       		.byte	0xfe
 9637 17e6 6A170000 		.4byte	0x176a
 9638 17ea 05       		.uleb128 0x5
 9639 17eb DF170000 		.4byte	0x17df
 9640 17ef 1A       		.uleb128 0x1a
 9641 17f0 121C0000 		.4byte	.LASF325
 9642 17f4 17       		.byte	0x17
 9643 17f5 1B01     		.2byte	0x11b
 9644 17f7 FB170000 		.4byte	0x17fb
 9645 17fb 0B       		.uleb128 0xb
 9646 17fc 04       		.byte	0x4
 9647 17fd F7160000 		.4byte	0x16f7
 9648 1801 15       		.uleb128 0x15
 9649 1802 FD240000 		.4byte	.LASF326
 9650 1806 17       		.byte	0x17
 9651 1807 DA01     		.2byte	0x1da
 9652 1809 EA170000 		.4byte	0x17ea
ARM GAS  /var/folders/d2/nstgp4h54kz7g1l847x_b8wc0000gn/T//ccB20FE7.s 			page 176


 9653 180d 21       		.uleb128 0x21
 9654 180e 07       		.byte	0x7
 9655 180f 01       		.byte	0x1
 9656 1810 69000000 		.4byte	0x69
 9657 1814 18       		.byte	0x18
 9658 1815 46       		.byte	0x46
 9659 1816 3F180000 		.4byte	0x183f
 9660 181a 22       		.uleb128 0x22
 9661 181b 2C0A0000 		.4byte	.LASF327
 9662 181f 00       		.byte	0
 9663 1820 22       		.uleb128 0x22
 9664 1821 0C190000 		.4byte	.LASF328
 9665 1825 01       		.byte	0x1
 9666 1826 22       		.uleb128 0x22
 9667 1827 5F270000 		.4byte	.LASF329
 9668 182b 02       		.byte	0x2
 9669 182c 22       		.uleb128 0x22
 9670 182d 50160000 		.4byte	.LASF330
 9671 1831 03       		.byte	0x3
 9672 1832 22       		.uleb128 0x22
 9673 1833 06080000 		.4byte	.LASF331
 9674 1837 04       		.byte	0x4
 9675 1838 22       		.uleb128 0x22
 9676 1839 0C160000 		.4byte	.LASF332
 9677 183d 05       		.byte	0x5
 9678 183e 00       		.byte	0
 9679 183f 03       		.uleb128 0x3
 9680 1840 DA050000 		.4byte	.LASF333
 9681 1844 18       		.byte	0x18
 9682 1845 4D       		.byte	0x4d
 9683 1846 0D180000 		.4byte	0x180d
 9684 184a 1A       		.uleb128 0x1a
 9685 184b 33150000 		.4byte	.LASF334
 9686 184f 19       		.byte	0x19
 9687 1850 2701     		.2byte	0x127
 9688 1852 F0000000 		.4byte	0xf0
 9689 1856 1A       		.uleb128 0x1a
 9690 1857 D5210000 		.4byte	.LASF335
 9691 185b 19       		.byte	0x19
 9692 185c 2C01     		.2byte	0x12c
 9693 185e F0000000 		.4byte	0xf0
 9694 1862 24       		.uleb128 0x24
 9695 1863 07       		.byte	0x7
 9696 1864 01       		.byte	0x1
 9697 1865 69000000 		.4byte	0x69
 9698 1869 19       		.byte	0x19
 9699 186a 3301     		.2byte	0x133
 9700 186c 7D180000 		.4byte	0x187d
 9701 1870 22       		.uleb128 0x22
 9702 1871 B5100000 		.4byte	.LASF336
 9703 1875 00       		.byte	0
 9704 1876 22       		.uleb128 0x22
 9705 1877 71030000 		.4byte	.LASF337
 9706 187b 01       		.byte	0x1
 9707 187c 00       		.byte	0
 9708 187d 1A       		.uleb128 0x1a
 9709 187e 8C280000 		.4byte	.LASF338
ARM GAS  /var/folders/d2/nstgp4h54kz7g1l847x_b8wc0000gn/T//ccB20FE7.s 			page 177


 9710 1882 19       		.byte	0x19
 9711 1883 3601     		.2byte	0x136
 9712 1885 62180000 		.4byte	0x1862
 9713 1889 1A       		.uleb128 0x1a
 9714 188a 6B110000 		.4byte	.LASF339
 9715 188e 19       		.byte	0x19
 9716 188f 3B01     		.2byte	0x13b
 9717 1891 95180000 		.4byte	0x1895
 9718 1895 0C       		.uleb128 0xc
 9719 1896 6B110000 		.4byte	.LASF339
 9720 189a 38       		.byte	0x38
 9721 189b 19       		.byte	0x19
 9722 189c 9F01     		.2byte	0x19f
 9723 189e 25190000 		.4byte	0x1925
 9724 18a2 0A       		.uleb128 0xa
 9725 18a3 111A0000 		.4byte	.LASF340
 9726 18a7 19       		.byte	0x19
 9727 18a8 A301     		.2byte	0x1a3
 9728 18aa 3F180000 		.4byte	0x183f
 9729 18ae 00       		.byte	0
 9730 18af 0A       		.uleb128 0xa
 9731 18b0 65210000 		.4byte	.LASF341
 9732 18b4 19       		.byte	0x19
 9733 18b5 A701     		.2byte	0x1a7
 9734 18b7 4C1A0000 		.4byte	0x1a4c
 9735 18bb 04       		.byte	0x4
 9736 18bc 0A       		.uleb128 0xa
 9737 18bd D0020000 		.4byte	.LASF342
 9738 18c1 19       		.byte	0x19
 9739 18c2 AB01     		.2byte	0x1ab
 9740 18c4 52190000 		.4byte	0x1952
 9741 18c8 08       		.byte	0x8
 9742 18c9 0A       		.uleb128 0xa
 9743 18ca 531D0000 		.4byte	.LASF343
 9744 18ce 19       		.byte	0x19
 9745 18cf AF01     		.2byte	0x1af
 9746 18d1 2C000000 		.4byte	0x2c
 9747 18d5 0C       		.byte	0xc
 9748 18d6 0A       		.uleb128 0xa
 9749 18d7 23250000 		.4byte	.LASF344
 9750 18db 19       		.byte	0x19
 9751 18dc B301     		.2byte	0x1b3
 9752 18de 521A0000 		.4byte	0x1a52
 9753 18e2 10       		.byte	0x10
 9754 18e3 0A       		.uleb128 0xa
 9755 18e4 A9080000 		.4byte	.LASF345
 9756 18e8 19       		.byte	0x19
 9757 18e9 B801     		.2byte	0x1b8
 9758 18eb E8020000 		.4byte	0x2e8
 9759 18ef 14       		.byte	0x14
 9760 18f0 0A       		.uleb128 0xa
 9761 18f1 F20E0000 		.4byte	.LASF346
 9762 18f5 19       		.byte	0x19
 9763 18f6 BE01     		.2byte	0x1be
 9764 18f8 5F120000 		.4byte	0x125f
 9765 18fc 18       		.byte	0x18
 9766 18fd 09       		.uleb128 0x9
ARM GAS  /var/folders/d2/nstgp4h54kz7g1l847x_b8wc0000gn/T//ccB20FE7.s 			page 178


 9767 18fe 61646300 		.ascii	"adc\000"
 9768 1902 19       		.byte	0x19
 9769 1903 C701     		.2byte	0x1c7
 9770 1905 581A0000 		.4byte	0x1a58
 9771 1909 2C       		.byte	0x2c
 9772 190a 0A       		.uleb128 0xa
 9773 190b 930C0000 		.4byte	.LASF347
 9774 190f 19       		.byte	0x19
 9775 1910 CB01     		.2byte	0x1cb
 9776 1912 5E1A0000 		.4byte	0x1a5e
 9777 1916 30       		.byte	0x30
 9778 1917 0A       		.uleb128 0xa
 9779 1918 571C0000 		.4byte	.LASF348
 9780 191c 19       		.byte	0x19
 9781 191d CF01     		.2byte	0x1cf
 9782 191f 0B010000 		.4byte	0x10b
 9783 1923 34       		.byte	0x34
 9784 1924 00       		.byte	0
 9785 1925 1A       		.uleb128 0x1a
 9786 1926 75200000 		.4byte	.LASF349
 9787 192a 19       		.byte	0x19
 9788 192b 4501     		.2byte	0x145
 9789 192d 31190000 		.4byte	0x1931
 9790 1931 0B       		.uleb128 0xb
 9791 1932 04       		.byte	0x4
 9792 1933 37190000 		.4byte	0x1937
 9793 1937 0D       		.uleb128 0xd
 9794 1938 4C190000 		.4byte	0x194c
 9795 193c 0E       		.uleb128 0xe
 9796 193d 4C190000 		.4byte	0x194c
 9797 1941 0E       		.uleb128 0xe
 9798 1942 52190000 		.4byte	0x1952
 9799 1946 0E       		.uleb128 0xe
 9800 1947 2C000000 		.4byte	0x2c
 9801 194b 00       		.byte	0
 9802 194c 0B       		.uleb128 0xb
 9803 194d 04       		.byte	0x4
 9804 194e 89180000 		.4byte	0x1889
 9805 1952 0B       		.uleb128 0xb
 9806 1953 04       		.byte	0x4
 9807 1954 4A180000 		.4byte	0x184a
 9808 1958 1A       		.uleb128 0x1a
 9809 1959 EC190000 		.4byte	.LASF350
 9810 195d 19       		.byte	0x19
 9811 195e 4E01     		.2byte	0x14e
 9812 1960 64190000 		.4byte	0x1964
 9813 1964 0B       		.uleb128 0xb
 9814 1965 04       		.byte	0x4
 9815 1966 6A190000 		.4byte	0x196a
 9816 196a 0D       		.uleb128 0xd
 9817 196b 7A190000 		.4byte	0x197a
 9818 196f 0E       		.uleb128 0xe
 9819 1970 4C190000 		.4byte	0x194c
 9820 1974 0E       		.uleb128 0xe
 9821 1975 7D180000 		.4byte	0x187d
 9822 1979 00       		.byte	0
 9823 197a 19       		.uleb128 0x19
ARM GAS  /var/folders/d2/nstgp4h54kz7g1l847x_b8wc0000gn/T//ccB20FE7.s 			page 179


 9824 197b 28       		.byte	0x28
 9825 197c 19       		.byte	0x19
 9826 197d 5801     		.2byte	0x158
 9827 197f 131A0000 		.4byte	0x1a13
 9828 1983 0A       		.uleb128 0xa
 9829 1984 96270000 		.4byte	.LASF351
 9830 1988 19       		.byte	0x19
 9831 1989 5C01     		.2byte	0x15c
 9832 198b A4150000 		.4byte	0x15a4
 9833 198f 00       		.byte	0
 9834 1990 0A       		.uleb128 0xa
 9835 1991 D2130000 		.4byte	.LASF352
 9836 1995 19       		.byte	0x19
 9837 1996 6001     		.2byte	0x160
 9838 1998 56180000 		.4byte	0x1856
 9839 199c 02       		.byte	0x2
 9840 199d 0A       		.uleb128 0xa
 9841 199e 290B0000 		.4byte	.LASF353
 9842 19a2 19       		.byte	0x19
 9843 19a3 6401     		.2byte	0x164
 9844 19a5 25190000 		.4byte	0x1925
 9845 19a9 04       		.byte	0x4
 9846 19aa 0A       		.uleb128 0xa
 9847 19ab 8C290000 		.4byte	.LASF354
 9848 19af 19       		.byte	0x19
 9849 19b0 6801     		.2byte	0x168
 9850 19b2 58190000 		.4byte	0x1958
 9851 19b6 08       		.byte	0x8
 9852 19b7 09       		.uleb128 0x9
 9853 19b8 63723100 		.ascii	"cr1\000"
 9854 19bc 19       		.byte	0x19
 9855 19bd 6F01     		.2byte	0x16f
 9856 19bf 0B010000 		.4byte	0x10b
 9857 19c3 0C       		.byte	0xc
 9858 19c4 09       		.uleb128 0x9
 9859 19c5 63723200 		.ascii	"cr2\000"
 9860 19c9 19       		.byte	0x19
 9861 19ca 7601     		.2byte	0x176
 9862 19cc 0B010000 		.4byte	0x10b
 9863 19d0 10       		.byte	0x10
 9864 19d1 0A       		.uleb128 0xa
 9865 19d2 5E1B0000 		.4byte	.LASF355
 9866 19d6 19       		.byte	0x19
 9867 19d7 7C01     		.2byte	0x17c
 9868 19d9 0B010000 		.4byte	0x10b
 9869 19dd 14       		.byte	0x14
 9870 19de 0A       		.uleb128 0xa
 9871 19df 641B0000 		.4byte	.LASF356
 9872 19e3 19       		.byte	0x19
 9873 19e4 8201     		.2byte	0x182
 9874 19e6 0B010000 		.4byte	0x10b
 9875 19ea 18       		.byte	0x18
 9876 19eb 0A       		.uleb128 0xa
 9877 19ec 2C020000 		.4byte	.LASF357
 9878 19f0 19       		.byte	0x19
 9879 19f1 8701     		.2byte	0x187
 9880 19f3 0B010000 		.4byte	0x10b
ARM GAS  /var/folders/d2/nstgp4h54kz7g1l847x_b8wc0000gn/T//ccB20FE7.s 			page 180


 9881 19f7 1C       		.byte	0x1c
 9882 19f8 0A       		.uleb128 0xa
 9883 19f9 A72A0000 		.4byte	.LASF358
 9884 19fd 19       		.byte	0x19
 9885 19fe 8C01     		.2byte	0x18c
 9886 1a00 0B010000 		.4byte	0x10b
 9887 1a04 20       		.byte	0x20
 9888 1a05 0A       		.uleb128 0xa
 9889 1a06 AC2A0000 		.4byte	.LASF359
 9890 1a0a 19       		.byte	0x19
 9891 1a0b 9101     		.2byte	0x191
 9892 1a0d 0B010000 		.4byte	0x10b
 9893 1a11 24       		.byte	0x24
 9894 1a12 00       		.byte	0
 9895 1a13 1A       		.uleb128 0x1a
 9896 1a14 2E070000 		.4byte	.LASF360
 9897 1a18 19       		.byte	0x19
 9898 1a19 9201     		.2byte	0x192
 9899 1a1b 7A190000 		.4byte	0x197a
 9900 1a1f 05       		.uleb128 0x5
 9901 1a20 131A0000 		.4byte	0x1a13
 9902 1a24 19       		.uleb128 0x19
 9903 1a25 04       		.byte	0x4
 9904 1a26 19       		.byte	0x19
 9905 1a27 9801     		.2byte	0x198
 9906 1a29 3B1A0000 		.4byte	0x1a3b
 9907 1a2d 0A       		.uleb128 0xa
 9908 1a2e DE2A0000 		.4byte	.LASF361
 9909 1a32 19       		.byte	0x19
 9910 1a33 9901     		.2byte	0x199
 9911 1a35 0B010000 		.4byte	0x10b
 9912 1a39 00       		.byte	0
 9913 1a3a 00       		.byte	0
 9914 1a3b 1A       		.uleb128 0x1a
 9915 1a3c 83110000 		.4byte	.LASF362
 9916 1a40 19       		.byte	0x19
 9917 1a41 9A01     		.2byte	0x19a
 9918 1a43 241A0000 		.4byte	0x1a24
 9919 1a47 05       		.uleb128 0x5
 9920 1a48 3B1A0000 		.4byte	0x1a3b
 9921 1a4c 0B       		.uleb128 0xb
 9922 1a4d 04       		.byte	0x4
 9923 1a4e 471A0000 		.4byte	0x1a47
 9924 1a52 0B       		.uleb128 0xb
 9925 1a53 04       		.byte	0x4
 9926 1a54 1F1A0000 		.4byte	0x1a1f
 9927 1a58 0B       		.uleb128 0xb
 9928 1a59 04       		.byte	0x4
 9929 1a5a 6D060000 		.4byte	0x66d
 9930 1a5e 0B       		.uleb128 0xb
 9931 1a5f 04       		.byte	0x4
 9932 1a60 73140000 		.4byte	0x1473
 9933 1a64 15       		.uleb128 0x15
 9934 1a65 301C0000 		.4byte	.LASF363
 9935 1a69 19       		.byte	0x19
 9936 1a6a 1402     		.2byte	0x214
 9937 1a6c 89180000 		.4byte	0x1889
ARM GAS  /var/folders/d2/nstgp4h54kz7g1l847x_b8wc0000gn/T//ccB20FE7.s 			page 181


 9938 1a70 15       		.uleb128 0x15
 9939 1a71 361C0000 		.4byte	.LASF364
 9940 1a75 19       		.byte	0x19
 9941 1a76 1802     		.2byte	0x218
 9942 1a78 89180000 		.4byte	0x1889
 9943 1a7c 15       		.uleb128 0x15
 9944 1a7d 3C1C0000 		.4byte	.LASF365
 9945 1a81 19       		.byte	0x19
 9946 1a82 1C02     		.2byte	0x21c
 9947 1a84 89180000 		.4byte	0x1889
 9948 1a88 21       		.uleb128 0x21
 9949 1a89 07       		.byte	0x7
 9950 1a8a 01       		.byte	0x1
 9951 1a8b 69000000 		.4byte	0x69
 9952 1a8f 1A       		.byte	0x1a
 9953 1a90 5F       		.byte	0x5f
 9954 1a91 B41A0000 		.4byte	0x1ab4
 9955 1a95 22       		.uleb128 0x22
 9956 1a96 FA0B0000 		.4byte	.LASF366
 9957 1a9a 00       		.byte	0
 9958 1a9b 22       		.uleb128 0x22
 9959 1a9c 1E010000 		.4byte	.LASF367
 9960 1aa0 01       		.byte	0x1
 9961 1aa1 22       		.uleb128 0x22
 9962 1aa2 67000000 		.4byte	.LASF368
 9963 1aa6 02       		.byte	0x2
 9964 1aa7 22       		.uleb128 0x22
 9965 1aa8 64070000 		.4byte	.LASF369
 9966 1aac 03       		.byte	0x3
 9967 1aad 22       		.uleb128 0x22
 9968 1aae E70B0000 		.4byte	.LASF370
 9969 1ab2 04       		.byte	0x4
 9970 1ab3 00       		.byte	0
 9971 1ab4 03       		.uleb128 0x3
 9972 1ab5 93070000 		.4byte	.LASF371
 9973 1ab9 1A       		.byte	0x1a
 9974 1aba 65       		.byte	0x65
 9975 1abb 881A0000 		.4byte	0x1a88
 9976 1abf 13       		.uleb128 0x13
 9977 1ac0 D5000000 		.4byte	0xd5
 9978 1ac4 CF1A0000 		.4byte	0x1acf
 9979 1ac8 14       		.uleb128 0x14
 9980 1ac9 37000000 		.4byte	0x37
 9981 1acd 07       		.byte	0x7
 9982 1ace 00       		.byte	0
 9983 1acf 17       		.uleb128 0x17
 9984 1ad0 08       		.byte	0x8
 9985 1ad1 1B       		.byte	0x1b
 9986 1ad2 F4       		.byte	0xf4
 9987 1ad3 F11A0000 		.4byte	0x1af1
 9988 1ad7 18       		.uleb128 0x18
 9989 1ad8 6D637200 		.ascii	"mcr\000"
 9990 1adc 1B       		.byte	0x1b
 9991 1add FA       		.byte	0xfa
 9992 1ade 0B010000 		.4byte	0x10b
 9993 1ae2 00       		.byte	0
 9994 1ae3 09       		.uleb128 0x9
ARM GAS  /var/folders/d2/nstgp4h54kz7g1l847x_b8wc0000gn/T//ccB20FE7.s 			page 182


 9995 1ae4 62747200 		.ascii	"btr\000"
 9996 1ae8 1B       		.byte	0x1b
 9997 1ae9 0001     		.2byte	0x100
 9998 1aeb 0B010000 		.4byte	0x10b
 9999 1aef 04       		.byte	0x4
 10000 1af0 00       		.byte	0
 10001 1af1 1A       		.uleb128 0x1a
 10002 1af2 4F1E0000 		.4byte	.LASF372
 10003 1af6 1B       		.byte	0x1b
 10004 1af7 0101     		.2byte	0x101
 10005 1af9 CF1A0000 		.4byte	0x1acf
 10006 1afd 05       		.uleb128 0x5
 10007 1afe F11A0000 		.4byte	0x1af1
 10008 1b02 19       		.uleb128 0x19
 10009 1b03 30       		.byte	0x30
 10010 1b04 1B       		.byte	0x1b
 10011 1b05 0601     		.2byte	0x106
 10012 1b07 8E1B0000 		.4byte	0x1b8e
 10013 1b0b 0A       		.uleb128 0xa
 10014 1b0c 111A0000 		.4byte	.LASF340
 10015 1b10 1B       		.byte	0x1b
 10016 1b11 0A01     		.2byte	0x10a
 10017 1b13 B41A0000 		.4byte	0x1ab4
 10018 1b17 00       		.byte	0
 10019 1b18 0A       		.uleb128 0xa
 10020 1b19 65210000 		.4byte	.LASF341
 10021 1b1d 1B       		.byte	0x1b
 10022 1b1e 0E01     		.2byte	0x10e
 10023 1b20 8E1B0000 		.4byte	0x1b8e
 10024 1b24 04       		.byte	0x4
 10025 1b25 0A       		.uleb128 0xa
 10026 1b26 5E0B0000 		.4byte	.LASF373
 10027 1b2a 1B       		.byte	0x1b
 10028 1b2b 1201     		.2byte	0x112
 10029 1b2d 1D030000 		.4byte	0x31d
 10030 1b31 08       		.byte	0x8
 10031 1b32 0A       		.uleb128 0xa
 10032 1b33 E4240000 		.4byte	.LASF374
 10033 1b37 1B       		.byte	0x1b
 10034 1b38 1601     		.2byte	0x116
 10035 1b3a 1D030000 		.4byte	0x31d
 10036 1b3e 10       		.byte	0x10
 10037 1b3f 0A       		.uleb128 0xa
 10038 1b40 141E0000 		.4byte	.LASF375
 10039 1b44 1B       		.byte	0x1b
 10040 1b45 2301     		.2byte	0x123
 10041 1b47 E3120000 		.4byte	0x12e3
 10042 1b4b 18       		.byte	0x18
 10043 1b4c 0A       		.uleb128 0xa
 10044 1b4d D80D0000 		.4byte	.LASF376
 10045 1b51 1B       		.byte	0x1b
 10046 1b52 2A01     		.2byte	0x12a
 10047 1b54 E3120000 		.4byte	0x12e3
 10048 1b58 1C       		.byte	0x1c
 10049 1b59 0A       		.uleb128 0xa
 10050 1b5a C6130000 		.4byte	.LASF377
 10051 1b5e 1B       		.byte	0x1b
ARM GAS  /var/folders/d2/nstgp4h54kz7g1l847x_b8wc0000gn/T//ccB20FE7.s 			page 183


 10052 1b5f 3001     		.2byte	0x130
 10053 1b61 E3120000 		.4byte	0x12e3
 10054 1b65 20       		.byte	0x20
 10055 1b66 0A       		.uleb128 0xa
 10056 1b67 E8040000 		.4byte	.LASF378
 10057 1b6b 1B       		.byte	0x1b
 10058 1b6c 3501     		.2byte	0x135
 10059 1b6e E3120000 		.4byte	0x12e3
 10060 1b72 24       		.byte	0x24
 10061 1b73 0A       		.uleb128 0xa
 10062 1b74 0A0B0000 		.4byte	.LASF379
 10063 1b78 1B       		.byte	0x1b
 10064 1b79 3901     		.2byte	0x139
 10065 1b7b E3120000 		.4byte	0x12e3
 10066 1b7f 28       		.byte	0x28
 10067 1b80 09       		.uleb128 0x9
 10068 1b81 63616E00 		.ascii	"can\000"
 10069 1b85 1B       		.byte	0x1b
 10070 1b86 3F01     		.2byte	0x13f
 10071 1b88 941B0000 		.4byte	0x1b94
 10072 1b8c 2C       		.byte	0x2c
 10073 1b8d 00       		.byte	0
 10074 1b8e 0B       		.uleb128 0xb
 10075 1b8f 04       		.byte	0x4
 10076 1b90 FD1A0000 		.4byte	0x1afd
 10077 1b94 0B       		.uleb128 0xb
 10078 1b95 04       		.byte	0x4
 10079 1b96 B6080000 		.4byte	0x8b6
 10080 1b9a 1A       		.uleb128 0x1a
 10081 1b9b 4E050000 		.4byte	.LASF380
 10082 1b9f 1B       		.byte	0x1b
 10083 1ba0 4001     		.2byte	0x140
 10084 1ba2 021B0000 		.4byte	0x1b02
 10085 1ba6 15       		.uleb128 0x15
 10086 1ba7 8C260000 		.4byte	.LASF381
 10087 1bab 1B       		.byte	0x1b
 10088 1bac 4B01     		.2byte	0x14b
 10089 1bae 9A1B0000 		.4byte	0x1b9a
 10090 1bb2 21       		.uleb128 0x21
 10091 1bb3 07       		.byte	0x7
 10092 1bb4 01       		.byte	0x1
 10093 1bb5 69000000 		.4byte	0x69
 10094 1bb9 1C       		.byte	0x1c
 10095 1bba 46       		.byte	0x46
 10096 1bbb E41B0000 		.4byte	0x1be4
 10097 1bbf 22       		.uleb128 0x22
 10098 1bc0 CA210000 		.4byte	.LASF382
 10099 1bc4 00       		.byte	0
 10100 1bc5 22       		.uleb128 0x22
 10101 1bc6 C3270000 		.4byte	.LASF383
 10102 1bca 01       		.byte	0x1
 10103 1bcb 22       		.uleb128 0x22
 10104 1bcc F4100000 		.4byte	.LASF384
 10105 1bd0 02       		.byte	0x2
 10106 1bd1 22       		.uleb128 0x22
 10107 1bd2 FF190000 		.4byte	.LASF385
 10108 1bd6 03       		.byte	0x3
ARM GAS  /var/folders/d2/nstgp4h54kz7g1l847x_b8wc0000gn/T//ccB20FE7.s 			page 184


 10109 1bd7 22       		.uleb128 0x22
 10110 1bd8 34210000 		.4byte	.LASF386
 10111 1bdc 04       		.byte	0x4
 10112 1bdd 22       		.uleb128 0x22
 10113 1bde 10130000 		.4byte	.LASF387
 10114 1be2 05       		.byte	0x5
 10115 1be3 00       		.byte	0
 10116 1be4 03       		.uleb128 0x3
 10117 1be5 B71D0000 		.4byte	.LASF388
 10118 1be9 1C       		.byte	0x1c
 10119 1bea 4D       		.byte	0x4d
 10120 1beb B21B0000 		.4byte	0x1bb2
 10121 1bef 17       		.uleb128 0x17
 10122 1bf0 1C       		.byte	0x1c
 10123 1bf1 1D       		.byte	0x1d
 10124 1bf2 F9       		.byte	0xf9
 10125 1bf3 521C0000 		.4byte	0x1c52
 10126 1bf7 18       		.uleb128 0x18
 10127 1bf8 64616300 		.ascii	"dac\000"
 10128 1bfc 1D       		.byte	0x1d
 10129 1bfd FD       		.byte	0xfd
 10130 1bfe 521C0000 		.4byte	0x1c52
 10131 1c02 00       		.byte	0
 10132 1c03 0A       		.uleb128 0xa
 10133 1c04 EE1C0000 		.4byte	.LASF389
 10134 1c08 1D       		.byte	0x1d
 10135 1c09 0101     		.2byte	0x101
 10136 1c0b 0B010000 		.4byte	0x10b
 10137 1c0f 04       		.byte	0x4
 10138 1c10 0A       		.uleb128 0xa
 10139 1c11 B0080000 		.4byte	.LASF390
 10140 1c15 1D       		.byte	0x1d
 10141 1c16 0501     		.2byte	0x105
 10142 1c18 0B010000 		.4byte	0x10b
 10143 1c1c 08       		.byte	0x8
 10144 1c1d 0A       		.uleb128 0xa
 10145 1c1e F8020000 		.4byte	.LASF391
 10146 1c22 1D       		.byte	0x1d
 10147 1c23 0901     		.2byte	0x109
 10148 1c25 0B010000 		.4byte	0x10b
 10149 1c29 0C       		.byte	0xc
 10150 1c2a 09       		.uleb128 0x9
 10151 1c2b 646D6100 		.ascii	"dma\000"
 10152 1c2f 1D       		.byte	0x1d
 10153 1c30 0D01     		.2byte	0x10d
 10154 1c32 5E1A0000 		.4byte	0x1a5e
 10155 1c36 10       		.byte	0x10
 10156 1c37 0A       		.uleb128 0xa
 10157 1c38 571C0000 		.4byte	.LASF348
 10158 1c3c 1D       		.byte	0x1d
 10159 1c3d 1101     		.2byte	0x111
 10160 1c3f 0B010000 		.4byte	0x10b
 10161 1c43 14       		.byte	0x14
 10162 1c44 0A       		.uleb128 0xa
 10163 1c45 DE1B0000 		.4byte	.LASF392
 10164 1c49 1D       		.byte	0x1d
 10165 1c4a 1501     		.2byte	0x115
ARM GAS  /var/folders/d2/nstgp4h54kz7g1l847x_b8wc0000gn/T//ccB20FE7.s 			page 185


 10166 1c4c 0B010000 		.4byte	0x10b
 10167 1c50 18       		.byte	0x18
 10168 1c51 00       		.byte	0
 10169 1c52 0B       		.uleb128 0xb
 10170 1c53 04       		.byte	0x4
 10171 1c54 80090000 		.4byte	0x980
 10172 1c58 1A       		.uleb128 0x1a
 10173 1c59 80040000 		.4byte	.LASF393
 10174 1c5d 1D       		.byte	0x1d
 10175 1c5e 1601     		.2byte	0x116
 10176 1c60 EF1B0000 		.4byte	0x1bef
 10177 1c64 05       		.uleb128 0x5
 10178 1c65 581C0000 		.4byte	0x1c58
 10179 1c69 1A       		.uleb128 0x1a
 10180 1c6a FD0E0000 		.4byte	.LASF394
 10181 1c6e 1D       		.byte	0x1d
 10182 1c6f 1B01     		.2byte	0x11b
 10183 1c71 751C0000 		.4byte	0x1c75
 10184 1c75 0C       		.uleb128 0xc
 10185 1c76 FD0E0000 		.4byte	.LASF394
 10186 1c7a 30       		.byte	0x30
 10187 1c7b 1D       		.byte	0x1d
 10188 1c7c 7B01     		.2byte	0x17b
 10189 1c7e EB1C0000 		.4byte	0x1ceb
 10190 1c82 0A       		.uleb128 0xa
 10191 1c83 111A0000 		.4byte	.LASF340
 10192 1c87 1D       		.byte	0x1d
 10193 1c88 7F01     		.2byte	0x17f
 10194 1c8a E41B0000 		.4byte	0x1be4
 10195 1c8e 00       		.byte	0
 10196 1c8f 0A       		.uleb128 0xa
 10197 1c90 23250000 		.4byte	.LASF344
 10198 1c94 1D       		.byte	0x1d
 10199 1c95 8301     		.2byte	0x183
 10200 1c97 291E0000 		.4byte	0x1e29
 10201 1c9b 04       		.byte	0x4
 10202 1c9c 0A       		.uleb128 0xa
 10203 1c9d D0020000 		.4byte	.LASF342
 10204 1ca1 1D       		.byte	0x1d
 10205 1ca2 8701     		.2byte	0x187
 10206 1ca4 501D0000 		.4byte	0x1d50
 10207 1ca8 08       		.byte	0x8
 10208 1ca9 0A       		.uleb128 0xa
 10209 1caa 531D0000 		.4byte	.LASF343
 10210 1cae 1D       		.byte	0x1d
 10211 1caf 8B01     		.2byte	0x18b
 10212 1cb1 F0000000 		.4byte	0xf0
 10213 1cb5 0C       		.byte	0xc
 10214 1cb6 0A       		.uleb128 0xa
 10215 1cb7 65210000 		.4byte	.LASF341
 10216 1cbb 1D       		.byte	0x1d
 10217 1cbc 8F01     		.2byte	0x18f
 10218 1cbe 2F1E0000 		.4byte	0x1e2f
 10219 1cc2 10       		.byte	0x10
 10220 1cc3 0A       		.uleb128 0xa
 10221 1cc4 A9080000 		.4byte	.LASF345
 10222 1cc8 1D       		.byte	0x1d
ARM GAS  /var/folders/d2/nstgp4h54kz7g1l847x_b8wc0000gn/T//ccB20FE7.s 			page 186


 10223 1cc9 9401     		.2byte	0x194
 10224 1ccb E8020000 		.4byte	0x2e8
 10225 1ccf 14       		.byte	0x14
 10226 1cd0 0A       		.uleb128 0xa
 10227 1cd1 F20E0000 		.4byte	.LASF346
 10228 1cd5 1D       		.byte	0x1d
 10229 1cd6 9A01     		.2byte	0x19a
 10230 1cd8 5F120000 		.4byte	0x125f
 10231 1cdc 18       		.byte	0x18
 10232 1cdd 0A       		.uleb128 0xa
 10233 1cde 97140000 		.4byte	.LASF395
 10234 1ce2 1D       		.byte	0x1d
 10235 1ce3 A301     		.2byte	0x1a3
 10236 1ce5 351E0000 		.4byte	0x1e35
 10237 1ce9 2C       		.byte	0x2c
 10238 1cea 00       		.byte	0
 10239 1ceb 1A       		.uleb128 0x1a
 10240 1cec DD1D0000 		.4byte	.LASF396
 10241 1cf0 1D       		.byte	0x1d
 10242 1cf1 2001     		.2byte	0x120
 10243 1cf3 F0000000 		.4byte	0xf0
 10244 1cf7 05       		.uleb128 0x5
 10245 1cf8 EB1C0000 		.4byte	0x1ceb
 10246 1cfc 24       		.uleb128 0x24
 10247 1cfd 07       		.byte	0x7
 10248 1cfe 01       		.byte	0x1
 10249 1cff 69000000 		.4byte	0x69
 10250 1d03 1D       		.byte	0x1d
 10251 1d04 2701     		.2byte	0x127
 10252 1d06 171D0000 		.4byte	0x1d17
 10253 1d0a 22       		.uleb128 0x22
 10254 1d0b D01E0000 		.4byte	.LASF397
 10255 1d0f 00       		.byte	0
 10256 1d10 22       		.uleb128 0x22
 10257 1d11 F80A0000 		.4byte	.LASF398
 10258 1d15 01       		.byte	0x1
 10259 1d16 00       		.byte	0
 10260 1d17 1A       		.uleb128 0x1a
 10261 1d18 1D150000 		.4byte	.LASF399
 10262 1d1c 1D       		.byte	0x1d
 10263 1d1d 2A01     		.2byte	0x12a
 10264 1d1f FC1C0000 		.4byte	0x1cfc
 10265 1d23 1A       		.uleb128 0x1a
 10266 1d24 2A090000 		.4byte	.LASF400
 10267 1d28 1D       		.byte	0x1d
 10268 1d29 3401     		.2byte	0x134
 10269 1d2b 2F1D0000 		.4byte	0x1d2f
 10270 1d2f 0B       		.uleb128 0xb
 10271 1d30 04       		.byte	0x4
 10272 1d31 351D0000 		.4byte	0x1d35
 10273 1d35 0D       		.uleb128 0xd
 10274 1d36 4A1D0000 		.4byte	0x1d4a
 10275 1d3a 0E       		.uleb128 0xe
 10276 1d3b 4A1D0000 		.4byte	0x1d4a
 10277 1d3f 0E       		.uleb128 0xe
 10278 1d40 501D0000 		.4byte	0x1d50
 10279 1d44 0E       		.uleb128 0xe
ARM GAS  /var/folders/d2/nstgp4h54kz7g1l847x_b8wc0000gn/T//ccB20FE7.s 			page 187


 10280 1d45 2C000000 		.4byte	0x2c
 10281 1d49 00       		.byte	0
 10282 1d4a 0B       		.uleb128 0xb
 10283 1d4b 04       		.byte	0x4
 10284 1d4c 691C0000 		.4byte	0x1c69
 10285 1d50 0B       		.uleb128 0xb
 10286 1d51 04       		.byte	0x4
 10287 1d52 F71C0000 		.4byte	0x1cf7
 10288 1d56 1A       		.uleb128 0x1a
 10289 1d57 D9260000 		.4byte	.LASF401
 10290 1d5b 1D       		.byte	0x1d
 10291 1d5c 3F01     		.2byte	0x13f
 10292 1d5e 621D0000 		.4byte	0x1d62
 10293 1d62 0B       		.uleb128 0xb
 10294 1d63 04       		.byte	0x4
 10295 1d64 681D0000 		.4byte	0x1d68
 10296 1d68 0D       		.uleb128 0xd
 10297 1d69 781D0000 		.4byte	0x1d78
 10298 1d6d 0E       		.uleb128 0xe
 10299 1d6e 4A1D0000 		.4byte	0x1d4a
 10300 1d72 0E       		.uleb128 0xe
 10301 1d73 171D0000 		.4byte	0x1d17
 10302 1d77 00       		.byte	0
 10303 1d78 24       		.uleb128 0x24
 10304 1d79 07       		.byte	0x7
 10305 1d7a 01       		.byte	0x1
 10306 1d7b 69000000 		.4byte	0x69
 10307 1d7f 1D       		.byte	0x1d
 10308 1d80 4401     		.2byte	0x144
 10309 1d82 991D0000 		.4byte	0x1d99
 10310 1d86 22       		.uleb128 0x22
 10311 1d87 34220000 		.4byte	.LASF402
 10312 1d8b 00       		.byte	0
 10313 1d8c 22       		.uleb128 0x22
 10314 1d8d CD160000 		.4byte	.LASF403
 10315 1d91 01       		.byte	0x1
 10316 1d92 22       		.uleb128 0x22
 10317 1d93 D21A0000 		.4byte	.LASF404
 10318 1d97 02       		.byte	0x2
 10319 1d98 00       		.byte	0
 10320 1d99 1A       		.uleb128 0x1a
 10321 1d9a 860C0000 		.4byte	.LASF405
 10322 1d9e 1D       		.byte	0x1d
 10323 1d9f 4D01     		.2byte	0x14d
 10324 1da1 781D0000 		.4byte	0x1d78
 10325 1da5 19       		.uleb128 0x19
 10326 1da6 10       		.byte	0x10
 10327 1da7 1D       		.byte	0x1d
 10328 1da8 5201     		.2byte	0x152
 10329 1daa E31D0000 		.4byte	0x1de3
 10330 1dae 0A       		.uleb128 0xa
 10331 1daf D2130000 		.4byte	.LASF352
 10332 1db3 1D       		.byte	0x1d
 10333 1db4 5601     		.2byte	0x156
 10334 1db6 0B010000 		.4byte	0x10b
 10335 1dba 00       		.byte	0
 10336 1dbb 0A       		.uleb128 0xa
ARM GAS  /var/folders/d2/nstgp4h54kz7g1l847x_b8wc0000gn/T//ccB20FE7.s 			page 188


 10337 1dbc 290B0000 		.4byte	.LASF353
 10338 1dc0 1D       		.byte	0x1d
 10339 1dc1 5A01     		.2byte	0x15a
 10340 1dc3 231D0000 		.4byte	0x1d23
 10341 1dc7 04       		.byte	0x4
 10342 1dc8 0A       		.uleb128 0xa
 10343 1dc9 8C290000 		.4byte	.LASF354
 10344 1dcd 1D       		.byte	0x1d
 10345 1dce 5E01     		.2byte	0x15e
 10346 1dd0 561D0000 		.4byte	0x1d56
 10347 1dd4 08       		.byte	0x8
 10348 1dd5 0A       		.uleb128 0xa
 10349 1dd6 7D180000 		.4byte	.LASF406
 10350 1dda 1D       		.byte	0x1d
 10351 1ddb 6601     		.2byte	0x166
 10352 1ddd 0B010000 		.4byte	0x10b
 10353 1de1 0C       		.byte	0xc
 10354 1de2 00       		.byte	0
 10355 1de3 1A       		.uleb128 0x1a
 10356 1de4 DA150000 		.4byte	.LASF407
 10357 1de8 1D       		.byte	0x1d
 10358 1de9 6701     		.2byte	0x167
 10359 1deb A51D0000 		.4byte	0x1da5
 10360 1def 05       		.uleb128 0x5
 10361 1df0 E31D0000 		.4byte	0x1de3
 10362 1df4 19       		.uleb128 0x19
 10363 1df5 04       		.byte	0x4
 10364 1df6 1D       		.byte	0x1d
 10365 1df7 6C01     		.2byte	0x16c
 10366 1df9 181E0000 		.4byte	0x1e18
 10367 1dfd 0A       		.uleb128 0xa
 10368 1dfe D80C0000 		.4byte	.LASF408
 10369 1e02 1D       		.byte	0x1d
 10370 1e03 7101     		.2byte	0x171
 10371 1e05 EB1C0000 		.4byte	0x1ceb
 10372 1e09 00       		.byte	0
 10373 1e0a 0A       		.uleb128 0xa
 10374 1e0b 65010000 		.4byte	.LASF409
 10375 1e0f 1D       		.byte	0x1d
 10376 1e10 7501     		.2byte	0x175
 10377 1e12 991D0000 		.4byte	0x1d99
 10378 1e16 02       		.byte	0x2
 10379 1e17 00       		.byte	0
 10380 1e18 1A       		.uleb128 0x1a
 10381 1e19 070F0000 		.4byte	.LASF410
 10382 1e1d 1D       		.byte	0x1d
 10383 1e1e 7601     		.2byte	0x176
 10384 1e20 F41D0000 		.4byte	0x1df4
 10385 1e24 05       		.uleb128 0x5
 10386 1e25 181E0000 		.4byte	0x1e18
 10387 1e29 0B       		.uleb128 0xb
 10388 1e2a 04       		.byte	0x4
 10389 1e2b EF1D0000 		.4byte	0x1def
 10390 1e2f 0B       		.uleb128 0xb
 10391 1e30 04       		.byte	0x4
 10392 1e31 241E0000 		.4byte	0x1e24
 10393 1e35 0B       		.uleb128 0xb
ARM GAS  /var/folders/d2/nstgp4h54kz7g1l847x_b8wc0000gn/T//ccB20FE7.s 			page 189


 10394 1e36 04       		.byte	0x4
 10395 1e37 641C0000 		.4byte	0x1c64
 10396 1e3b 15       		.uleb128 0x15
 10397 1e3c 48050000 		.4byte	.LASF411
 10398 1e40 1D       		.byte	0x1d
 10399 1e41 B301     		.2byte	0x1b3
 10400 1e43 691C0000 		.4byte	0x1c69
 10401 1e47 21       		.uleb128 0x21
 10402 1e48 07       		.byte	0x7
 10403 1e49 01       		.byte	0x1
 10404 1e4a 69000000 		.4byte	0x69
 10405 1e4e 1E       		.byte	0x1e
 10406 1e4f 3F       		.byte	0x3f
 10407 1e50 671E0000 		.4byte	0x1e67
 10408 1e54 22       		.uleb128 0x22
 10409 1e55 DC0B0000 		.4byte	.LASF412
 10410 1e59 00       		.byte	0
 10411 1e5a 22       		.uleb128 0x22
 10412 1e5b BC2B0000 		.4byte	.LASF413
 10413 1e5f 01       		.byte	0x1
 10414 1e60 22       		.uleb128 0x22
 10415 1e61 29030000 		.4byte	.LASF414
 10416 1e65 02       		.byte	0x2
 10417 1e66 00       		.byte	0
 10418 1e67 03       		.uleb128 0x3
 10419 1e68 AC200000 		.4byte	.LASF415
 10420 1e6c 1E       		.byte	0x1e
 10421 1e6d 43       		.byte	0x43
 10422 1e6e 471E0000 		.4byte	0x1e47
 10423 1e72 03       		.uleb128 0x3
 10424 1e73 660A0000 		.4byte	.LASF416
 10425 1e77 1E       		.byte	0x1e
 10426 1e78 48       		.byte	0x48
 10427 1e79 7D1E0000 		.4byte	0x1e7d
 10428 1e7d 07       		.uleb128 0x7
 10429 1e7e 660A0000 		.4byte	.LASF416
 10430 1e82 08       		.byte	0x8
 10431 1e83 1F       		.byte	0x1f
 10432 1e84 71       		.byte	0x71
 10433 1e85 A21E0000 		.4byte	0x1ea2
 10434 1e89 08       		.uleb128 0x8
 10435 1e8a 111A0000 		.4byte	.LASF340
 10436 1e8e 1F       		.byte	0x1f
 10437 1e8f 75       		.byte	0x75
 10438 1e90 671E0000 		.4byte	0x1e67
 10439 1e94 00       		.byte	0
 10440 1e95 08       		.uleb128 0x8
 10441 1e96 65210000 		.4byte	.LASF341
 10442 1e9a 1F       		.byte	0x1f
 10443 1e9b 79       		.byte	0x79
 10444 1e9c 341F0000 		.4byte	0x1f34
 10445 1ea0 04       		.byte	0x4
 10446 1ea1 00       		.byte	0
 10447 1ea2 03       		.uleb128 0x3
 10448 1ea3 D5290000 		.4byte	.LASF417
 10449 1ea7 1F       		.byte	0x1f
 10450 1ea8 47       		.byte	0x47
ARM GAS  /var/folders/d2/nstgp4h54kz7g1l847x_b8wc0000gn/T//ccB20FE7.s 			page 190


 10451 1ea9 0B010000 		.4byte	0x10b
 10452 1ead 03       		.uleb128 0x3
 10453 1eae D6240000 		.4byte	.LASF418
 10454 1eb2 1F       		.byte	0x1f
 10455 1eb3 4F       		.byte	0x4f
 10456 1eb4 B81E0000 		.4byte	0x1eb8
 10457 1eb8 0B       		.uleb128 0xb
 10458 1eb9 04       		.byte	0x4
 10459 1eba BE1E0000 		.4byte	0x1ebe
 10460 1ebe 0D       		.uleb128 0xd
 10461 1ebf CE1E0000 		.4byte	0x1ece
 10462 1ec3 0E       		.uleb128 0xe
 10463 1ec4 CE1E0000 		.4byte	0x1ece
 10464 1ec8 0E       		.uleb128 0xe
 10465 1ec9 A21E0000 		.4byte	0x1ea2
 10466 1ecd 00       		.byte	0
 10467 1ece 0B       		.uleb128 0xb
 10468 1ecf 04       		.byte	0x4
 10469 1ed0 721E0000 		.4byte	0x1e72
 10470 1ed4 17       		.uleb128 0x17
 10471 1ed5 08       		.byte	0x8
 10472 1ed6 1F       		.byte	0x1f
 10473 1ed7 54       		.byte	0x54
 10474 1ed8 F41E0000 		.4byte	0x1ef4
 10475 1edc 08       		.uleb128 0x8
 10476 1edd 4B0A0000 		.4byte	.LASF419
 10477 1ee1 1F       		.byte	0x1f
 10478 1ee2 58       		.byte	0x58
 10479 1ee3 0B010000 		.4byte	0x10b
 10480 1ee7 00       		.byte	0
 10481 1ee8 18       		.uleb128 0x18
 10482 1ee9 636200   		.ascii	"cb\000"
 10483 1eec 1F       		.byte	0x1f
 10484 1eed 5F       		.byte	0x5f
 10485 1eee AD1E0000 		.4byte	0x1ead
 10486 1ef2 04       		.byte	0x4
 10487 1ef3 00       		.byte	0
 10488 1ef4 03       		.uleb128 0x3
 10489 1ef5 DB100000 		.4byte	.LASF420
 10490 1ef9 1F       		.byte	0x1f
 10491 1efa 60       		.byte	0x60
 10492 1efb D41E0000 		.4byte	0x1ed4
 10493 1eff 17       		.uleb128 0x17
 10494 1f00 B8       		.byte	0xb8
 10495 1f01 1F       		.byte	0x1f
 10496 1f02 66       		.byte	0x66
 10497 1f03 141F0000 		.4byte	0x1f14
 10498 1f07 08       		.uleb128 0x8
 10499 1f08 0A270000 		.4byte	.LASF421
 10500 1f0c 1F       		.byte	0x1f
 10501 1f0d 6A       		.byte	0x6a
 10502 1f0e 141F0000 		.4byte	0x1f14
 10503 1f12 00       		.byte	0
 10504 1f13 00       		.byte	0
 10505 1f14 13       		.uleb128 0x13
 10506 1f15 F41E0000 		.4byte	0x1ef4
 10507 1f19 241F0000 		.4byte	0x1f24
ARM GAS  /var/folders/d2/nstgp4h54kz7g1l847x_b8wc0000gn/T//ccB20FE7.s 			page 191


 10508 1f1d 14       		.uleb128 0x14
 10509 1f1e 37000000 		.4byte	0x37
 10510 1f22 16       		.byte	0x16
 10511 1f23 00       		.byte	0
 10512 1f24 03       		.uleb128 0x3
 10513 1f25 B1230000 		.4byte	.LASF422
 10514 1f29 1F       		.byte	0x1f
 10515 1f2a 6C       		.byte	0x6c
 10516 1f2b FF1E0000 		.4byte	0x1eff
 10517 1f2f 05       		.uleb128 0x5
 10518 1f30 241F0000 		.4byte	0x1f24
 10519 1f34 0B       		.uleb128 0xb
 10520 1f35 04       		.byte	0x4
 10521 1f36 2F1F0000 		.4byte	0x1f2f
 10522 1f3a 16       		.uleb128 0x16
 10523 1f3b 84070000 		.4byte	.LASF423
 10524 1f3f 1F       		.byte	0x1f
 10525 1f40 86       		.byte	0x86
 10526 1f41 721E0000 		.4byte	0x1e72
 10527 1f45 21       		.uleb128 0x21
 10528 1f46 07       		.byte	0x7
 10529 1f47 01       		.byte	0x1
 10530 1f48 69000000 		.4byte	0x69
 10531 1f4c 20       		.byte	0x20
 10532 1f4d 31       		.byte	0x31
 10533 1f4e 711F0000 		.4byte	0x1f71
 10534 1f52 22       		.uleb128 0x22
 10535 1f53 E61A0000 		.4byte	.LASF424
 10536 1f57 00       		.byte	0
 10537 1f58 22       		.uleb128 0x22
 10538 1f59 A5180000 		.4byte	.LASF425
 10539 1f5d 01       		.byte	0x1
 10540 1f5e 22       		.uleb128 0x22
 10541 1f5f AD1D0000 		.4byte	.LASF426
 10542 1f63 02       		.byte	0x2
 10543 1f64 22       		.uleb128 0x22
 10544 1f65 84090000 		.4byte	.LASF427
 10545 1f69 03       		.byte	0x3
 10546 1f6a 22       		.uleb128 0x22
 10547 1f6b 0F060000 		.4byte	.LASF428
 10548 1f6f 04       		.byte	0x4
 10549 1f70 00       		.byte	0
 10550 1f71 03       		.uleb128 0x3
 10551 1f72 64170000 		.4byte	.LASF429
 10552 1f76 20       		.byte	0x20
 10553 1f77 37       		.byte	0x37
 10554 1f78 451F0000 		.4byte	0x1f45
 10555 1f7c 03       		.uleb128 0x3
 10556 1f7d E91B0000 		.4byte	.LASF430
 10557 1f81 20       		.byte	0x20
 10558 1f82 3C       		.byte	0x3c
 10559 1f83 871F0000 		.4byte	0x1f87
 10560 1f87 0C       		.uleb128 0xc
 10561 1f88 E91B0000 		.4byte	.LASF430
 10562 1f8c 10       		.byte	0x10
 10563 1f8d 21       		.byte	0x21
 10564 1f8e 9701     		.2byte	0x197
ARM GAS  /var/folders/d2/nstgp4h54kz7g1l847x_b8wc0000gn/T//ccB20FE7.s 			page 192


 10565 1f90 C91F0000 		.4byte	0x1fc9
 10566 1f94 0A       		.uleb128 0xa
 10567 1f95 111A0000 		.4byte	.LASF340
 10568 1f99 21       		.byte	0x21
 10569 1f9a 9B01     		.2byte	0x19b
 10570 1f9c 711F0000 		.4byte	0x1f71
 10571 1fa0 00       		.byte	0
 10572 1fa1 0A       		.uleb128 0xa
 10573 1fa2 65210000 		.4byte	.LASF341
 10574 1fa6 21       		.byte	0x21
 10575 1fa7 9F01     		.2byte	0x19f
 10576 1fa9 5E210000 		.4byte	0x215e
 10577 1fad 04       		.byte	0x4
 10578 1fae 0A       		.uleb128 0xa
 10579 1faf 1B0F0000 		.4byte	.LASF431
 10580 1fb3 21       		.byte	0x21
 10581 1fb4 A701     		.2byte	0x1a7
 10582 1fb6 0B010000 		.4byte	0x10b
 10583 1fba 08       		.byte	0x8
 10584 1fbb 09       		.uleb128 0x9
 10585 1fbc 74696D00 		.ascii	"tim\000"
 10586 1fc0 21       		.byte	0x21
 10587 1fc1 AB01     		.2byte	0x1ab
 10588 1fc3 64210000 		.4byte	0x2164
 10589 1fc7 0C       		.byte	0xc
 10590 1fc8 00       		.byte	0
 10591 1fc9 03       		.uleb128 0x3
 10592 1fca 3F150000 		.4byte	.LASF432
 10593 1fce 20       		.byte	0x20
 10594 1fcf 43       		.byte	0x43
 10595 1fd0 D41F0000 		.4byte	0x1fd4
 10596 1fd4 0B       		.uleb128 0xb
 10597 1fd5 04       		.byte	0x4
 10598 1fd6 DA1F0000 		.4byte	0x1fda
 10599 1fda 0D       		.uleb128 0xd
 10600 1fdb E51F0000 		.4byte	0x1fe5
 10601 1fdf 0E       		.uleb128 0xe
 10602 1fe0 E51F0000 		.4byte	0x1fe5
 10603 1fe4 00       		.byte	0
 10604 1fe5 0B       		.uleb128 0xb
 10605 1fe6 04       		.byte	0x4
 10606 1fe7 7C1F0000 		.4byte	0x1f7c
 10607 1feb 19       		.uleb128 0x19
 10608 1fec 60       		.byte	0x60
 10609 1fed 22       		.byte	0x22
 10610 1fee 9E01     		.2byte	0x19e
 10611 1ff0 F7200000 		.4byte	0x20f7
 10612 1ff4 09       		.uleb128 0x9
 10613 1ff5 43523100 		.ascii	"CR1\000"
 10614 1ff9 22       		.byte	0x22
 10615 1ffa 9F01     		.2byte	0x19f
 10616 1ffc 16010000 		.4byte	0x116
 10617 2000 00       		.byte	0
 10618 2001 09       		.uleb128 0x9
 10619 2002 43523200 		.ascii	"CR2\000"
 10620 2006 22       		.byte	0x22
 10621 2007 A001     		.2byte	0x1a0
ARM GAS  /var/folders/d2/nstgp4h54kz7g1l847x_b8wc0000gn/T//ccB20FE7.s 			page 193


 10622 2009 16010000 		.4byte	0x116
 10623 200d 04       		.byte	0x4
 10624 200e 0A       		.uleb128 0xa
 10625 200f 1F260000 		.4byte	.LASF433
 10626 2013 22       		.byte	0x22
 10627 2014 A101     		.2byte	0x1a1
 10628 2016 16010000 		.4byte	0x116
 10629 201a 08       		.byte	0x8
 10630 201b 0A       		.uleb128 0xa
 10631 201c 280C0000 		.4byte	.LASF434
 10632 2020 22       		.byte	0x22
 10633 2021 A201     		.2byte	0x1a2
 10634 2023 16010000 		.4byte	0x116
 10635 2027 0C       		.byte	0xc
 10636 2028 09       		.uleb128 0x9
 10637 2029 535200   		.ascii	"SR\000"
 10638 202c 22       		.byte	0x22
 10639 202d A301     		.2byte	0x1a3
 10640 202f 16010000 		.4byte	0x116
 10641 2033 10       		.byte	0x10
 10642 2034 09       		.uleb128 0x9
 10643 2035 45475200 		.ascii	"EGR\000"
 10644 2039 22       		.byte	0x22
 10645 203a A401     		.2byte	0x1a4
 10646 203c 16010000 		.4byte	0x116
 10647 2040 14       		.byte	0x14
 10648 2041 0A       		.uleb128 0xa
 10649 2042 882A0000 		.4byte	.LASF435
 10650 2046 22       		.byte	0x22
 10651 2047 A501     		.2byte	0x1a5
 10652 2049 16010000 		.4byte	0x116
 10653 204d 18       		.byte	0x18
 10654 204e 0A       		.uleb128 0xa
 10655 204f 8E2A0000 		.4byte	.LASF436
 10656 2053 22       		.byte	0x22
 10657 2054 A601     		.2byte	0x1a6
 10658 2056 16010000 		.4byte	0x116
 10659 205a 1C       		.byte	0x1c
 10660 205b 0A       		.uleb128 0xa
 10661 205c F3080000 		.4byte	.LASF437
 10662 2060 22       		.byte	0x22
 10663 2061 A701     		.2byte	0x1a7
 10664 2063 16010000 		.4byte	0x116
 10665 2067 20       		.byte	0x20
 10666 2068 09       		.uleb128 0x9
 10667 2069 434E5400 		.ascii	"CNT\000"
 10668 206d 22       		.byte	0x22
 10669 206e A801     		.2byte	0x1a8
 10670 2070 16010000 		.4byte	0x116
 10671 2074 24       		.byte	0x24
 10672 2075 09       		.uleb128 0x9
 10673 2076 50534300 		.ascii	"PSC\000"
 10674 207a 22       		.byte	0x22
 10675 207b A901     		.2byte	0x1a9
 10676 207d 16010000 		.4byte	0x116
 10677 2081 28       		.byte	0x28
 10678 2082 09       		.uleb128 0x9
ARM GAS  /var/folders/d2/nstgp4h54kz7g1l847x_b8wc0000gn/T//ccB20FE7.s 			page 194


 10679 2083 41525200 		.ascii	"ARR\000"
 10680 2087 22       		.byte	0x22
 10681 2088 AA01     		.2byte	0x1aa
 10682 208a 16010000 		.4byte	0x116
 10683 208e 2C       		.byte	0x2c
 10684 208f 09       		.uleb128 0x9
 10685 2090 52435200 		.ascii	"RCR\000"
 10686 2094 22       		.byte	0x22
 10687 2095 AB01     		.2byte	0x1ab
 10688 2097 16010000 		.4byte	0x116
 10689 209b 30       		.byte	0x30
 10690 209c 09       		.uleb128 0x9
 10691 209d 43435200 		.ascii	"CCR\000"
 10692 20a1 22       		.byte	0x22
 10693 20a2 AC01     		.2byte	0x1ac
 10694 20a4 B60A0000 		.4byte	0xab6
 10695 20a8 34       		.byte	0x34
 10696 20a9 0A       		.uleb128 0xa
 10697 20aa F3020000 		.4byte	.LASF438
 10698 20ae 22       		.byte	0x22
 10699 20af AD01     		.2byte	0x1ad
 10700 20b1 16010000 		.4byte	0x116
 10701 20b5 44       		.byte	0x44
 10702 20b6 09       		.uleb128 0x9
 10703 20b7 44435200 		.ascii	"DCR\000"
 10704 20bb 22       		.byte	0x22
 10705 20bc AE01     		.2byte	0x1ae
 10706 20be 16010000 		.4byte	0x116
 10707 20c2 48       		.byte	0x48
 10708 20c3 0A       		.uleb128 0xa
 10709 20c4 891A0000 		.4byte	.LASF439
 10710 20c8 22       		.byte	0x22
 10711 20c9 AF01     		.2byte	0x1af
 10712 20cb 16010000 		.4byte	0x116
 10713 20cf 4C       		.byte	0x4c
 10714 20d0 09       		.uleb128 0x9
 10715 20d1 4F5200   		.ascii	"OR\000"
 10716 20d4 22       		.byte	0x22
 10717 20d5 B001     		.2byte	0x1b0
 10718 20d7 16010000 		.4byte	0x116
 10719 20db 50       		.byte	0x50
 10720 20dc 0A       		.uleb128 0xa
 10721 20dd 942A0000 		.4byte	.LASF440
 10722 20e1 22       		.byte	0x22
 10723 20e2 B101     		.2byte	0x1b1
 10724 20e4 16010000 		.4byte	0x116
 10725 20e8 54       		.byte	0x54
 10726 20e9 0A       		.uleb128 0xa
 10727 20ea 270F0000 		.4byte	.LASF441
 10728 20ee 22       		.byte	0x22
 10729 20ef B201     		.2byte	0x1b2
 10730 20f1 A10A0000 		.4byte	0xaa1
 10731 20f5 58       		.byte	0x58
 10732 20f6 00       		.byte	0
 10733 20f7 1A       		.uleb128 0x1a
 10734 20f8 59250000 		.4byte	.LASF442
 10735 20fc 22       		.byte	0x22
ARM GAS  /var/folders/d2/nstgp4h54kz7g1l847x_b8wc0000gn/T//ccB20FE7.s 			page 195


 10736 20fd B301     		.2byte	0x1b3
 10737 20ff EB1F0000 		.4byte	0x1feb
 10738 2103 1A       		.uleb128 0x1a
 10739 2104 A30A0000 		.4byte	.LASF443
 10740 2108 21       		.byte	0x21
 10741 2109 6D01     		.2byte	0x16d
 10742 210b 0B010000 		.4byte	0x10b
 10743 210f 19       		.uleb128 0x19
 10744 2110 10       		.byte	0x10
 10745 2111 21       		.byte	0x21
 10746 2112 7801     		.2byte	0x178
 10747 2114 4D210000 		.4byte	0x214d
 10748 2118 0A       		.uleb128 0xa
 10749 2119 022A0000 		.4byte	.LASF444
 10750 211d 21       		.byte	0x21
 10751 211e 7E01     		.2byte	0x17e
 10752 2120 03210000 		.4byte	0x2103
 10753 2124 00       		.byte	0
 10754 2125 0A       		.uleb128 0xa
 10755 2126 8E1A0000 		.4byte	.LASF445
 10756 212a 21       		.byte	0x21
 10757 212b 8501     		.2byte	0x185
 10758 212d C91F0000 		.4byte	0x1fc9
 10759 2131 04       		.byte	0x4
 10760 2132 09       		.uleb128 0x9
 10761 2133 63723200 		.ascii	"cr2\000"
 10762 2137 21       		.byte	0x21
 10763 2138 8B01     		.2byte	0x18b
 10764 213a 0B010000 		.4byte	0x10b
 10765 213e 08       		.byte	0x8
 10766 213f 0A       		.uleb128 0xa
 10767 2140 860E0000 		.4byte	.LASF446
 10768 2144 21       		.byte	0x21
 10769 2145 9101     		.2byte	0x191
 10770 2147 0B010000 		.4byte	0x10b
 10771 214b 0C       		.byte	0xc
 10772 214c 00       		.byte	0
 10773 214d 1A       		.uleb128 0x1a
 10774 214e 13080000 		.4byte	.LASF447
 10775 2152 21       		.byte	0x21
 10776 2153 9201     		.2byte	0x192
 10777 2155 0F210000 		.4byte	0x210f
 10778 2159 05       		.uleb128 0x5
 10779 215a 4D210000 		.4byte	0x214d
 10780 215e 0B       		.uleb128 0xb
 10781 215f 04       		.byte	0x4
 10782 2160 59210000 		.4byte	0x2159
 10783 2164 0B       		.uleb128 0xb
 10784 2165 04       		.byte	0x4
 10785 2166 F7200000 		.4byte	0x20f7
 10786 216a 15       		.uleb128 0x15
 10787 216b 72290000 		.4byte	.LASF448
 10788 216f 21       		.byte	0x21
 10789 2170 F201     		.2byte	0x1f2
 10790 2172 7C1F0000 		.4byte	0x1f7c
 10791 2176 15       		.uleb128 0x15
 10792 2177 72210000 		.4byte	.LASF449
ARM GAS  /var/folders/d2/nstgp4h54kz7g1l847x_b8wc0000gn/T//ccB20FE7.s 			page 196


 10793 217b 21       		.byte	0x21
 10794 217c 0202     		.2byte	0x202
 10795 217e 7C1F0000 		.4byte	0x1f7c
 10796 2182 21       		.uleb128 0x21
 10797 2183 07       		.byte	0x7
 10798 2184 01       		.byte	0x1
 10799 2185 69000000 		.4byte	0x69
 10800 2189 23       		.byte	0x23
 10801 218a 4C       		.byte	0x4c
 10802 218b B4210000 		.4byte	0x21b4
 10803 218f 22       		.uleb128 0x22
 10804 2190 EB070000 		.4byte	.LASF450
 10805 2194 00       		.byte	0
 10806 2195 22       		.uleb128 0x22
 10807 2196 94100000 		.4byte	.LASF451
 10808 219a 01       		.byte	0x1
 10809 219b 22       		.uleb128 0x22
 10810 219c 58080000 		.4byte	.LASF452
 10811 21a0 02       		.byte	0x2
 10812 21a1 22       		.uleb128 0x22
 10813 21a2 3E060000 		.4byte	.LASF453
 10814 21a6 03       		.byte	0x3
 10815 21a7 22       		.uleb128 0x22
 10816 21a8 BC040000 		.4byte	.LASF454
 10817 21ac 04       		.byte	0x4
 10818 21ad 22       		.uleb128 0x22
 10819 21ae 08170000 		.4byte	.LASF455
 10820 21b2 05       		.byte	0x5
 10821 21b3 00       		.byte	0
 10822 21b4 03       		.uleb128 0x3
 10823 21b5 D8140000 		.4byte	.LASF456
 10824 21b9 23       		.byte	0x23
 10825 21ba 53       		.byte	0x53
 10826 21bb 82210000 		.4byte	0x2182
 10827 21bf 1A       		.uleb128 0x1a
 10828 21c0 9C060000 		.4byte	.LASF457
 10829 21c4 24       		.byte	0x24
 10830 21c5 6A01     		.2byte	0x16a
 10831 21c7 F0000000 		.4byte	0xf0
 10832 21cb 1A       		.uleb128 0x1a
 10833 21cc 80050000 		.4byte	.LASF458
 10834 21d0 24       		.byte	0x24
 10835 21d1 6F01     		.2byte	0x16f
 10836 21d3 0B010000 		.4byte	0x10b
 10837 21d7 24       		.uleb128 0x24
 10838 21d8 07       		.byte	0x7
 10839 21d9 01       		.byte	0x1
 10840 21da 69000000 		.4byte	0x69
 10841 21de 24       		.byte	0x24
 10842 21df 7401     		.2byte	0x174
 10843 21e1 F8210000 		.4byte	0x21f8
 10844 21e5 22       		.uleb128 0x22
 10845 21e6 51060000 		.4byte	.LASF459
 10846 21ea 01       		.byte	0x1
 10847 21eb 22       		.uleb128 0x22
 10848 21ec BC000000 		.4byte	.LASF460
 10849 21f0 02       		.byte	0x2
ARM GAS  /var/folders/d2/nstgp4h54kz7g1l847x_b8wc0000gn/T//ccB20FE7.s 			page 197


 10850 21f1 22       		.uleb128 0x22
 10851 21f2 880B0000 		.4byte	.LASF461
 10852 21f6 03       		.byte	0x3
 10853 21f7 00       		.byte	0
 10854 21f8 1A       		.uleb128 0x1a
 10855 21f9 EC2A0000 		.4byte	.LASF462
 10856 21fd 24       		.byte	0x24
 10857 21fe 7801     		.2byte	0x178
 10858 2200 D7210000 		.4byte	0x21d7
 10859 2204 24       		.uleb128 0x24
 10860 2205 07       		.byte	0x7
 10861 2206 01       		.byte	0x1
 10862 2207 69000000 		.4byte	0x69
 10863 220b 24       		.byte	0x24
 10864 220c 7D01     		.2byte	0x17d
 10865 220e 25220000 		.4byte	0x2225
 10866 2212 22       		.uleb128 0x22
 10867 2213 55070000 		.4byte	.LASF463
 10868 2217 01       		.byte	0x1
 10869 2218 22       		.uleb128 0x22
 10870 2219 5D2A0000 		.4byte	.LASF464
 10871 221d 02       		.byte	0x2
 10872 221e 22       		.uleb128 0x22
 10873 221f 9F0C0000 		.4byte	.LASF465
 10874 2223 03       		.byte	0x3
 10875 2224 00       		.byte	0
 10876 2225 1A       		.uleb128 0x1a
 10877 2226 6B080000 		.4byte	.LASF466
 10878 222a 24       		.byte	0x24
 10879 222b 8101     		.2byte	0x181
 10880 222d 04220000 		.4byte	0x2204
 10881 2231 19       		.uleb128 0x19
 10882 2232 0C       		.byte	0xc
 10883 2233 24       		.byte	0x24
 10884 2234 8601     		.2byte	0x186
 10885 2236 62220000 		.4byte	0x2262
 10886 223a 0A       		.uleb128 0xa
 10887 223b CD180000 		.4byte	.LASF467
 10888 223f 24       		.byte	0x24
 10889 2240 8801     		.2byte	0x188
 10890 2242 F8210000 		.4byte	0x21f8
 10891 2246 00       		.byte	0
 10892 2247 0A       		.uleb128 0xa
 10893 2248 32050000 		.4byte	.LASF468
 10894 224c 24       		.byte	0x24
 10895 224d 8901     		.2byte	0x189
 10896 224f 0B010000 		.4byte	0x10b
 10897 2253 04       		.byte	0x4
 10898 2254 0A       		.uleb128 0xa
 10899 2255 7E2B0000 		.4byte	.LASF469
 10900 2259 24       		.byte	0x24
 10901 225a 8C01     		.2byte	0x18c
 10902 225c 25220000 		.4byte	0x2225
 10903 2260 08       		.byte	0x8
 10904 2261 00       		.byte	0
 10905 2262 1A       		.uleb128 0x1a
 10906 2263 09030000 		.4byte	.LASF470
ARM GAS  /var/folders/d2/nstgp4h54kz7g1l847x_b8wc0000gn/T//ccB20FE7.s 			page 198


 10907 2267 24       		.byte	0x24
 10908 2268 8E01     		.2byte	0x18e
 10909 226a 31220000 		.4byte	0x2231
 10910 226e 05       		.uleb128 0x5
 10911 226f 62220000 		.4byte	0x2262
 10912 2273 1A       		.uleb128 0x1a
 10913 2274 34060000 		.4byte	.LASF471
 10914 2278 24       		.byte	0x24
 10915 2279 9301     		.2byte	0x193
 10916 227b 7F220000 		.4byte	0x227f
 10917 227f 0C       		.uleb128 0xc
 10918 2280 34060000 		.4byte	.LASF471
 10919 2284 3C       		.byte	0x3c
 10920 2285 24       		.byte	0x24
 10921 2286 9801     		.2byte	0x198
 10922 2288 1C230000 		.4byte	0x231c
 10923 228c 0A       		.uleb128 0xa
 10924 228d 111A0000 		.4byte	.LASF340
 10925 2291 24       		.byte	0x24
 10926 2292 9C01     		.2byte	0x19c
 10927 2294 B4210000 		.4byte	0x21b4
 10928 2298 00       		.byte	0
 10929 2299 0A       		.uleb128 0xa
 10930 229a 65210000 		.4byte	.LASF341
 10931 229e 24       		.byte	0x24
 10932 229f A001     		.2byte	0x1a0
 10933 22a1 1C230000 		.4byte	0x231c
 10934 22a5 04       		.byte	0x4
 10935 22a6 0A       		.uleb128 0xa
 10936 22a7 50020000 		.4byte	.LASF472
 10937 22ab 24       		.byte	0x24
 10938 22ac A401     		.2byte	0x1a4
 10939 22ae CB210000 		.4byte	0x21cb
 10940 22b2 08       		.byte	0x8
 10941 22b3 0A       		.uleb128 0xa
 10942 22b4 F20E0000 		.4byte	.LASF346
 10943 22b8 24       		.byte	0x24
 10944 22b9 A901     		.2byte	0x1a9
 10945 22bb 5F120000 		.4byte	0x125f
 10946 22bf 0C       		.byte	0xc
 10947 22c0 0A       		.uleb128 0xa
 10948 22c1 A9080000 		.4byte	.LASF345
 10949 22c5 24       		.byte	0x24
 10950 22c6 B201     		.2byte	0x1b2
 10951 22c8 E8020000 		.4byte	0x2e8
 10952 22cc 20       		.byte	0x20
 10953 22cd 0A       		.uleb128 0xa
 10954 22ce 9D100000 		.4byte	.LASF473
 10955 22d2 24       		.byte	0x24
 10956 22d3 B601     		.2byte	0x1b6
 10957 22d5 BF210000 		.4byte	0x21bf
 10958 22d9 24       		.byte	0x24
 10959 22da 0A       		.uleb128 0xa
 10960 22db 370A0000 		.4byte	.LASF474
 10961 22df 24       		.byte	0x24
 10962 22e0 BA01     		.2byte	0x1ba
 10963 22e2 0B010000 		.4byte	0x10b
ARM GAS  /var/folders/d2/nstgp4h54kz7g1l847x_b8wc0000gn/T//ccB20FE7.s 			page 199


 10964 22e6 28       		.byte	0x28
 10965 22e7 0A       		.uleb128 0xa
 10966 22e8 910A0000 		.4byte	.LASF475
 10967 22ec 24       		.byte	0x24
 10968 22ed BE01     		.2byte	0x1be
 10969 22ef 0B010000 		.4byte	0x10b
 10970 22f3 2C       		.byte	0x2c
 10971 22f4 0A       		.uleb128 0xa
 10972 22f5 6E010000 		.4byte	.LASF476
 10973 22f9 24       		.byte	0x24
 10974 22fa C201     		.2byte	0x1c2
 10975 22fc 5E1A0000 		.4byte	0x1a5e
 10976 2300 30       		.byte	0x30
 10977 2301 0A       		.uleb128 0xa
 10978 2302 1C030000 		.4byte	.LASF477
 10979 2306 24       		.byte	0x24
 10980 2307 C601     		.2byte	0x1c6
 10981 2309 5E1A0000 		.4byte	0x1a5e
 10982 230d 34       		.byte	0x34
 10983 230e 09       		.uleb128 0x9
 10984 230f 69326300 		.ascii	"i2c\000"
 10985 2313 24       		.byte	0x24
 10986 2314 CA01     		.2byte	0x1ca
 10987 2316 22230000 		.4byte	0x2322
 10988 231a 38       		.byte	0x38
 10989 231b 00       		.byte	0
 10990 231c 0B       		.uleb128 0xb
 10991 231d 04       		.byte	0x4
 10992 231e 6E220000 		.4byte	0x226e
 10993 2322 0B       		.uleb128 0xb
 10994 2323 04       		.byte	0x4
 10995 2324 460B0000 		.4byte	0xb46
 10996 2328 15       		.uleb128 0x15
 10997 2329 5D150000 		.4byte	.LASF478
 10998 232d 24       		.byte	0x24
 10999 232e E001     		.2byte	0x1e0
 11000 2330 73220000 		.4byte	0x2273
 11001 2334 21       		.uleb128 0x21
 11002 2335 07       		.byte	0x7
 11003 2336 01       		.byte	0x1
 11004 2337 69000000 		.4byte	0x69
 11005 233b 25       		.byte	0x25
 11006 233c 39       		.byte	0x39
 11007 233d 60230000 		.4byte	0x2360
 11008 2341 22       		.uleb128 0x22
 11009 2342 6D130000 		.4byte	.LASF479
 11010 2346 00       		.byte	0
 11011 2347 22       		.uleb128 0x22
 11012 2348 D80E0000 		.4byte	.LASF480
 11013 234c 01       		.byte	0x1
 11014 234d 22       		.uleb128 0x22
 11015 234e CD010000 		.4byte	.LASF481
 11016 2352 02       		.byte	0x2
 11017 2353 22       		.uleb128 0x22
 11018 2354 A21D0000 		.4byte	.LASF482
 11019 2358 03       		.byte	0x3
 11020 2359 22       		.uleb128 0x22
ARM GAS  /var/folders/d2/nstgp4h54kz7g1l847x_b8wc0000gn/T//ccB20FE7.s 			page 200


 11021 235a 50240000 		.4byte	.LASF483
 11022 235e 04       		.byte	0x4
 11023 235f 00       		.byte	0
 11024 2360 03       		.uleb128 0x3
 11025 2361 9F270000 		.4byte	.LASF484
 11026 2365 25       		.byte	0x25
 11027 2366 3F       		.byte	0x3f
 11028 2367 34230000 		.4byte	0x2334
 11029 236b 03       		.uleb128 0x3
 11030 236c 742B0000 		.4byte	.LASF485
 11031 2370 26       		.byte	0x26
 11032 2371 E2       		.byte	0xe2
 11033 2372 76230000 		.4byte	0x2376
 11034 2376 0C       		.uleb128 0xc
 11035 2377 742B0000 		.4byte	.LASF485
 11036 237b 20       		.byte	0x20
 11037 237c 26       		.byte	0x26
 11038 237d 1B01     		.2byte	0x11b
 11039 237f EC230000 		.4byte	0x23ec
 11040 2383 0A       		.uleb128 0xa
 11041 2384 111A0000 		.4byte	.LASF340
 11042 2388 26       		.byte	0x26
 11043 2389 1F01     		.2byte	0x11f
 11044 238b 60230000 		.4byte	0x2360
 11045 238f 00       		.byte	0
 11046 2390 0A       		.uleb128 0xa
 11047 2391 65210000 		.4byte	.LASF341
 11048 2395 26       		.byte	0x26
 11049 2396 2301     		.2byte	0x123
 11050 2398 84240000 		.4byte	0x2484
 11051 239c 04       		.byte	0x4
 11052 239d 09       		.uleb128 0x9
 11053 239e 73706900 		.ascii	"spi\000"
 11054 23a2 26       		.byte	0x26
 11055 23a3 2801     		.2byte	0x128
 11056 23a5 8A240000 		.4byte	0x248a
 11057 23a9 08       		.byte	0x8
 11058 23aa 09       		.uleb128 0x9
 11059 23ab 63666700 		.ascii	"cfg\000"
 11060 23af 26       		.byte	0x26
 11061 23b0 2C01     		.2byte	0x12c
 11062 23b2 F0000000 		.4byte	0xf0
 11063 23b6 0C       		.byte	0xc
 11064 23b7 0A       		.uleb128 0xa
 11065 23b8 6E010000 		.4byte	.LASF476
 11066 23bc 26       		.byte	0x26
 11067 23bd 3001     		.2byte	0x130
 11068 23bf 5E1A0000 		.4byte	0x1a5e
 11069 23c3 10       		.byte	0x10
 11070 23c4 0A       		.uleb128 0xa
 11071 23c5 1C030000 		.4byte	.LASF477
 11072 23c9 26       		.byte	0x26
 11073 23ca 3401     		.2byte	0x134
 11074 23cc 5E1A0000 		.4byte	0x1a5e
 11075 23d0 14       		.byte	0x14
 11076 23d1 0A       		.uleb128 0xa
 11077 23d2 370A0000 		.4byte	.LASF474
ARM GAS  /var/folders/d2/nstgp4h54kz7g1l847x_b8wc0000gn/T//ccB20FE7.s 			page 201


 11078 23d6 26       		.byte	0x26
 11079 23d7 3801     		.2byte	0x138
 11080 23d9 0B010000 		.4byte	0x10b
 11081 23dd 18       		.byte	0x18
 11082 23de 0A       		.uleb128 0xa
 11083 23df 910A0000 		.4byte	.LASF475
 11084 23e3 26       		.byte	0x26
 11085 23e4 3C01     		.2byte	0x13c
 11086 23e6 0B010000 		.4byte	0x10b
 11087 23ea 1C       		.byte	0x1c
 11088 23eb 00       		.byte	0
 11089 23ec 03       		.uleb128 0x3
 11090 23ed 7D0A0000 		.4byte	.LASF486
 11091 23f1 26       		.byte	0x26
 11092 23f2 EB       		.byte	0xeb
 11093 23f3 F7230000 		.4byte	0x23f7
 11094 23f7 0B       		.uleb128 0xb
 11095 23f8 04       		.byte	0x4
 11096 23f9 FD230000 		.4byte	0x23fd
 11097 23fd 0D       		.uleb128 0xd
 11098 23fe 12240000 		.4byte	0x2412
 11099 2402 0E       		.uleb128 0xe
 11100 2403 12240000 		.4byte	0x2412
 11101 2407 0E       		.uleb128 0xe
 11102 2408 2C000000 		.4byte	0x2c
 11103 240c 0E       		.uleb128 0xe
 11104 240d 2C000000 		.4byte	0x2c
 11105 2411 00       		.byte	0
 11106 2412 0B       		.uleb128 0xb
 11107 2413 04       		.byte	0x4
 11108 2414 6B230000 		.4byte	0x236b
 11109 2418 17       		.uleb128 0x17
 11110 2419 14       		.byte	0x14
 11111 241a 26       		.byte	0x26
 11112 241b F1       		.byte	0xf1
 11113 241c 6C240000 		.4byte	0x246c
 11114 2420 08       		.uleb128 0x8
 11115 2421 84020000 		.4byte	.LASF487
 11116 2425 26       		.byte	0x26
 11117 2426 F6       		.byte	0xf6
 11118 2427 6C240000 		.4byte	0x246c
 11119 242b 00       		.byte	0
 11120 242c 08       		.uleb128 0x8
 11121 242d 46020000 		.4byte	.LASF488
 11122 2431 26       		.byte	0x26
 11123 2432 FB       		.byte	0xfb
 11124 2433 D0030000 		.4byte	0x3d0
 11125 2437 04       		.byte	0x4
 11126 2438 08       		.uleb128 0x8
 11127 2439 F80E0000 		.4byte	.LASF489
 11128 243d 26       		.byte	0x26
 11129 243e FF       		.byte	0xff
 11130 243f 2C000000 		.4byte	0x2c
 11131 2443 08       		.byte	0x8
 11132 2444 0A       		.uleb128 0xa
 11133 2445 290B0000 		.4byte	.LASF353
 11134 2449 26       		.byte	0x26
ARM GAS  /var/folders/d2/nstgp4h54kz7g1l847x_b8wc0000gn/T//ccB20FE7.s 			page 202


 11135 244a 0301     		.2byte	0x103
 11136 244c EC230000 		.4byte	0x23ec
 11137 2450 0C       		.byte	0xc
 11138 2451 0A       		.uleb128 0xa
 11139 2452 FB1D0000 		.4byte	.LASF490
 11140 2456 26       		.byte	0x26
 11141 2457 0F01     		.2byte	0x10f
 11142 2459 E5000000 		.4byte	0xe5
 11143 245d 10       		.byte	0x10
 11144 245e 0A       		.uleb128 0xa
 11145 245f 49080000 		.4byte	.LASF491
 11146 2463 26       		.byte	0x26
 11147 2464 1501     		.2byte	0x115
 11148 2466 E5000000 		.4byte	0xe5
 11149 246a 12       		.byte	0x12
 11150 246b 00       		.byte	0
 11151 246c 0B       		.uleb128 0xb
 11152 246d 04       		.byte	0x4
 11153 246e 72240000 		.4byte	0x2472
 11154 2472 25       		.uleb128 0x25
 11155 2473 1A       		.uleb128 0x1a
 11156 2474 892B0000 		.4byte	.LASF492
 11157 2478 26       		.byte	0x26
 11158 2479 1601     		.2byte	0x116
 11159 247b 18240000 		.4byte	0x2418
 11160 247f 05       		.uleb128 0x5
 11161 2480 73240000 		.4byte	0x2473
 11162 2484 0B       		.uleb128 0xb
 11163 2485 04       		.byte	0x4
 11164 2486 7F240000 		.4byte	0x247f
 11165 248a 0B       		.uleb128 0xb
 11166 248b 04       		.byte	0x4
 11167 248c F90C0000 		.4byte	0xcf9
 11168 2490 15       		.uleb128 0x15
 11169 2491 DE2B0000 		.4byte	.LASF493
 11170 2495 26       		.byte	0x26
 11171 2496 4801     		.2byte	0x148
 11172 2498 6B230000 		.4byte	0x236b
 11173 249c 21       		.uleb128 0x21
 11174 249d 07       		.byte	0x7
 11175 249e 01       		.byte	0x1
 11176 249f 69000000 		.4byte	0x69
 11177 24a3 27       		.byte	0x27
 11178 24a4 4A       		.byte	0x4a
 11179 24a5 BC240000 		.4byte	0x24bc
 11180 24a9 22       		.uleb128 0x22
 11181 24aa FE080000 		.4byte	.LASF494
 11182 24ae 00       		.byte	0
 11183 24af 22       		.uleb128 0x22
 11184 24b0 E10E0000 		.4byte	.LASF495
 11185 24b4 01       		.byte	0x1
 11186 24b5 22       		.uleb128 0x22
 11187 24b6 9C130000 		.4byte	.LASF496
 11188 24ba 02       		.byte	0x2
 11189 24bb 00       		.byte	0
 11190 24bc 03       		.uleb128 0x3
 11191 24bd DD040000 		.4byte	.LASF497
ARM GAS  /var/folders/d2/nstgp4h54kz7g1l847x_b8wc0000gn/T//ccB20FE7.s 			page 203


 11192 24c1 27       		.byte	0x27
 11193 24c2 4E       		.byte	0x4e
 11194 24c3 9C240000 		.4byte	0x249c
 11195 24c7 03       		.uleb128 0x3
 11196 24c8 F10D0000 		.4byte	.LASF498
 11197 24cc 27       		.byte	0x27
 11198 24cd 53       		.byte	0x53
 11199 24ce D2240000 		.4byte	0x24d2
 11200 24d2 0C       		.uleb128 0xc
 11201 24d3 F10D0000 		.4byte	.LASF498
 11202 24d7 1C       		.byte	0x1c
 11203 24d8 28       		.byte	0x28
 11204 24d9 7901     		.2byte	0x179
 11205 24db 3B250000 		.4byte	0x253b
 11206 24df 0A       		.uleb128 0xa
 11207 24e0 111A0000 		.4byte	.LASF340
 11208 24e4 28       		.byte	0x28
 11209 24e5 7D01     		.2byte	0x17d
 11210 24e7 BC240000 		.4byte	0x24bc
 11211 24eb 00       		.byte	0
 11212 24ec 0A       		.uleb128 0xa
 11213 24ed 65210000 		.4byte	.LASF341
 11214 24f1 28       		.byte	0x28
 11215 24f2 8101     		.2byte	0x181
 11216 24f4 36260000 		.4byte	0x2636
 11217 24f8 04       		.byte	0x4
 11218 24f9 0A       		.uleb128 0xa
 11219 24fa F3160000 		.4byte	.LASF499
 11220 24fe 28       		.byte	0x28
 11221 24ff 8501     		.2byte	0x185
 11222 2501 81250000 		.4byte	0x2581
 11223 2505 08       		.byte	0x8
 11224 2506 0A       		.uleb128 0xa
 11225 2507 AB1E0000 		.4byte	.LASF500
 11226 250b 28       		.byte	0x28
 11227 250c 8901     		.2byte	0x189
 11228 250e 75250000 		.4byte	0x2575
 11229 2512 0C       		.byte	0xc
 11230 2513 0A       		.uleb128 0xa
 11231 2514 0A270000 		.4byte	.LASF421
 11232 2518 28       		.byte	0x28
 11233 2519 8D01     		.2byte	0x18d
 11234 251b 69250000 		.4byte	0x2569
 11235 251f 10       		.byte	0x10
 11236 2520 0A       		.uleb128 0xa
 11237 2521 1B0F0000 		.4byte	.LASF431
 11238 2525 28       		.byte	0x28
 11239 2526 9501     		.2byte	0x195
 11240 2528 0B010000 		.4byte	0x10b
 11241 252c 14       		.byte	0x14
 11242 252d 09       		.uleb128 0x9
 11243 252e 74696D00 		.ascii	"tim\000"
 11244 2532 28       		.byte	0x28
 11245 2533 9901     		.2byte	0x199
 11246 2535 64210000 		.4byte	0x2164
 11247 2539 18       		.byte	0x18
 11248 253a 00       		.byte	0
ARM GAS  /var/folders/d2/nstgp4h54kz7g1l847x_b8wc0000gn/T//ccB20FE7.s 			page 204


 11249 253b 03       		.uleb128 0x3
 11250 253c 50140000 		.4byte	.LASF501
 11251 2540 27       		.byte	0x27
 11252 2541 5A       		.byte	0x5a
 11253 2542 46250000 		.4byte	0x2546
 11254 2546 0B       		.uleb128 0xb
 11255 2547 04       		.byte	0x4
 11256 2548 4C250000 		.4byte	0x254c
 11257 254c 0D       		.uleb128 0xd
 11258 254d 57250000 		.4byte	0x2557
 11259 2551 0E       		.uleb128 0xe
 11260 2552 57250000 		.4byte	0x2557
 11261 2556 00       		.byte	0
 11262 2557 0B       		.uleb128 0xb
 11263 2558 04       		.byte	0x4
 11264 2559 C7240000 		.4byte	0x24c7
 11265 255d 1A       		.uleb128 0x1a
 11266 255e 20190000 		.4byte	.LASF502
 11267 2562 28       		.byte	0x28
 11268 2563 2501     		.2byte	0x125
 11269 2565 0B010000 		.4byte	0x10b
 11270 2569 1A       		.uleb128 0x1a
 11271 256a 9B1B0000 		.4byte	.LASF503
 11272 256e 28       		.byte	0x28
 11273 256f 2A01     		.2byte	0x12a
 11274 2571 D5000000 		.4byte	0xd5
 11275 2575 1A       		.uleb128 0x1a
 11276 2576 32040000 		.4byte	.LASF504
 11277 257a 28       		.byte	0x28
 11278 257b 2F01     		.2byte	0x12f
 11279 257d 0B010000 		.4byte	0x10b
 11280 2581 1A       		.uleb128 0x1a
 11281 2582 E30F0000 		.4byte	.LASF505
 11282 2586 28       		.byte	0x28
 11283 2587 3401     		.2byte	0x134
 11284 2589 0B010000 		.4byte	0x10b
 11285 258d 19       		.uleb128 0x19
 11286 258e 08       		.byte	0x8
 11287 258f 28       		.byte	0x28
 11288 2590 3901     		.2byte	0x139
 11289 2592 B1250000 		.4byte	0x25b1
 11290 2596 0A       		.uleb128 0xa
 11291 2597 4B0A0000 		.4byte	.LASF419
 11292 259b 28       		.byte	0x28
 11293 259c 3D01     		.2byte	0x13d
 11294 259e 5D250000 		.4byte	0x255d
 11295 25a2 00       		.byte	0
 11296 25a3 0A       		.uleb128 0xa
 11297 25a4 8E1A0000 		.4byte	.LASF445
 11298 25a8 28       		.byte	0x28
 11299 25a9 4301     		.2byte	0x143
 11300 25ab 3B250000 		.4byte	0x253b
 11301 25af 04       		.byte	0x4
 11302 25b0 00       		.byte	0
 11303 25b1 1A       		.uleb128 0x1a
 11304 25b2 D20F0000 		.4byte	.LASF506
 11305 25b6 28       		.byte	0x28
ARM GAS  /var/folders/d2/nstgp4h54kz7g1l847x_b8wc0000gn/T//ccB20FE7.s 			page 205


 11306 25b7 4501     		.2byte	0x145
 11307 25b9 8D250000 		.4byte	0x258d
 11308 25bd 19       		.uleb128 0x19
 11309 25be 34       		.byte	0x34
 11310 25bf 28       		.byte	0x28
 11311 25c0 4A01     		.2byte	0x14a
 11312 25c2 15260000 		.4byte	0x2615
 11313 25c6 0A       		.uleb128 0xa
 11314 25c7 022A0000 		.4byte	.LASF444
 11315 25cb 28       		.byte	0x28
 11316 25cc 5001     		.2byte	0x150
 11317 25ce 0B010000 		.4byte	0x10b
 11318 25d2 00       		.byte	0
 11319 25d3 0A       		.uleb128 0xa
 11320 25d4 F3160000 		.4byte	.LASF499
 11321 25d8 28       		.byte	0x28
 11322 25d9 5601     		.2byte	0x156
 11323 25db 81250000 		.4byte	0x2581
 11324 25df 04       		.byte	0x4
 11325 25e0 0A       		.uleb128 0xa
 11326 25e1 8E1A0000 		.4byte	.LASF445
 11327 25e5 28       		.byte	0x28
 11328 25e6 5C01     		.2byte	0x15c
 11329 25e8 3B250000 		.4byte	0x253b
 11330 25ec 08       		.byte	0x8
 11331 25ed 0A       		.uleb128 0xa
 11332 25ee 0A270000 		.4byte	.LASF421
 11333 25f2 28       		.byte	0x28
 11334 25f3 6001     		.2byte	0x160
 11335 25f5 15260000 		.4byte	0x2615
 11336 25f9 0C       		.byte	0xc
 11337 25fa 09       		.uleb128 0x9
 11338 25fb 63723200 		.ascii	"cr2\000"
 11339 25ff 28       		.byte	0x28
 11340 2600 6601     		.2byte	0x166
 11341 2602 0B010000 		.4byte	0x10b
 11342 2606 2C       		.byte	0x2c
 11343 2607 0A       		.uleb128 0xa
 11344 2608 860E0000 		.4byte	.LASF446
 11345 260c 28       		.byte	0x28
 11346 260d 7301     		.2byte	0x173
 11347 260f 0B010000 		.4byte	0x10b
 11348 2613 30       		.byte	0x30
 11349 2614 00       		.byte	0
 11350 2615 13       		.uleb128 0x13
 11351 2616 B1250000 		.4byte	0x25b1
 11352 261a 25260000 		.4byte	0x2625
 11353 261e 14       		.uleb128 0x14
 11354 261f 37000000 		.4byte	0x37
 11355 2623 03       		.byte	0x3
 11356 2624 00       		.byte	0
 11357 2625 1A       		.uleb128 0x1a
 11358 2626 020E0000 		.4byte	.LASF507
 11359 262a 28       		.byte	0x28
 11360 262b 7401     		.2byte	0x174
 11361 262d BD250000 		.4byte	0x25bd
 11362 2631 05       		.uleb128 0x5
ARM GAS  /var/folders/d2/nstgp4h54kz7g1l847x_b8wc0000gn/T//ccB20FE7.s 			page 206


 11363 2632 25260000 		.4byte	0x2625
 11364 2636 0B       		.uleb128 0xb
 11365 2637 04       		.byte	0x4
 11366 2638 31260000 		.4byte	0x2631
 11367 263c 15       		.uleb128 0x15
 11368 263d 8E150000 		.4byte	.LASF508
 11369 2641 28       		.byte	0x28
 11370 2642 BC01     		.2byte	0x1bc
 11371 2644 C7240000 		.4byte	0x24c7
 11372 2648 15       		.uleb128 0x15
 11373 2649 94150000 		.4byte	.LASF509
 11374 264d 28       		.byte	0x28
 11375 264e C001     		.2byte	0x1c0
 11376 2650 C7240000 		.4byte	0x24c7
 11377 2654 15       		.uleb128 0x15
 11378 2655 9A150000 		.4byte	.LASF510
 11379 2659 28       		.byte	0x28
 11380 265a C401     		.2byte	0x1c4
 11381 265c C7240000 		.4byte	0x24c7
 11382 2660 15       		.uleb128 0x15
 11383 2661 A0150000 		.4byte	.LASF511
 11384 2665 28       		.byte	0x28
 11385 2666 C801     		.2byte	0x1c8
 11386 2668 C7240000 		.4byte	0x24c7
 11387 266c 21       		.uleb128 0x21
 11388 266d 07       		.byte	0x7
 11389 266e 01       		.byte	0x1
 11390 266f 69000000 		.4byte	0x69
 11391 2673 29       		.byte	0x29
 11392 2674 55       		.byte	0x55
 11393 2675 8C260000 		.4byte	0x268c
 11394 2679 22       		.uleb128 0x22
 11395 267a 1D080000 		.4byte	.LASF512
 11396 267e 00       		.byte	0
 11397 267f 22       		.uleb128 0x22
 11398 2680 4E0F0000 		.4byte	.LASF513
 11399 2684 01       		.byte	0x1
 11400 2685 22       		.uleb128 0x22
 11401 2686 B0110000 		.4byte	.LASF514
 11402 268a 02       		.byte	0x2
 11403 268b 00       		.byte	0
 11404 268c 03       		.uleb128 0x3
 11405 268d DB1C0000 		.4byte	.LASF515
 11406 2691 29       		.byte	0x29
 11407 2692 59       		.byte	0x59
 11408 2693 6C260000 		.4byte	0x266c
 11409 2697 03       		.uleb128 0x3
 11410 2698 35270000 		.4byte	.LASF516
 11411 269c 29       		.byte	0x29
 11412 269d 5E       		.byte	0x5e
 11413 269e A2260000 		.4byte	0x26a2
 11414 26a2 26       		.uleb128 0x26
 11415 26a3 35270000 		.4byte	.LASF516
 11416 26a7 5801     		.2byte	0x158
 11417 26a9 29       		.byte	0x29
 11418 26aa 78       		.byte	0x78
 11419 26ab 0F270000 		.4byte	0x270f
ARM GAS  /var/folders/d2/nstgp4h54kz7g1l847x_b8wc0000gn/T//ccB20FE7.s 			page 207


 11420 26af 18       		.uleb128 0x18
 11421 26b0 766D7400 		.ascii	"vmt\000"
 11422 26b4 29       		.byte	0x29
 11423 26b5 7A       		.byte	0x7a
 11424 26b6 8D270000 		.4byte	0x278d
 11425 26ba 00       		.byte	0
 11426 26bb 08       		.uleb128 0x8
 11427 26bc 47000000 		.4byte	.LASF517
 11428 26c0 29       		.byte	0x29
 11429 26c1 7B       		.byte	0x7b
 11430 26c2 E3120000 		.4byte	0x12e3
 11431 26c6 04       		.byte	0x4
 11432 26c7 08       		.uleb128 0x8
 11433 26c8 111A0000 		.4byte	.LASF340
 11434 26cc 29       		.byte	0x29
 11435 26cd 7B       		.byte	0x7b
 11436 26ce 8C260000 		.4byte	0x268c
 11437 26d2 08       		.byte	0x8
 11438 26d3 08       		.uleb128 0x8
 11439 26d4 B01C0000 		.4byte	.LASF518
 11440 26d8 29       		.byte	0x29
 11441 26d9 7B       		.byte	0x7b
 11442 26da 8E130000 		.4byte	0x138e
 11443 26de 0C       		.byte	0xc
 11444 26df 08       		.uleb128 0x8
 11445 26e0 B3150000 		.4byte	.LASF519
 11446 26e4 29       		.byte	0x29
 11447 26e5 7B       		.byte	0x7b
 11448 26e6 99130000 		.4byte	0x1399
 11449 26ea 30       		.byte	0x30
 11450 26eb 18       		.uleb128 0x18
 11451 26ec 696200   		.ascii	"ib\000"
 11452 26ef 29       		.byte	0x29
 11453 26f0 7B       		.byte	0x7b
 11454 26f1 93270000 		.4byte	0x2793
 11455 26f5 54       		.byte	0x54
 11456 26f6 18       		.uleb128 0x18
 11457 26f7 6F6200   		.ascii	"ob\000"
 11458 26fa 29       		.byte	0x29
 11459 26fb 7B       		.byte	0x7b
 11460 26fc 93270000 		.4byte	0x2793
 11461 2700 D4       		.byte	0xd4
 11462 2701 27       		.uleb128 0x27
 11463 2702 091F0000 		.4byte	.LASF520
 11464 2706 29       		.byte	0x29
 11465 2707 7B       		.byte	0x7b
 11466 2708 A3270000 		.4byte	0x27a3
 11467 270c 5401     		.2byte	0x154
 11468 270e 00       		.byte	0
 11469 270f 1F       		.uleb128 0x1f
 11470 2710 53443300 		.ascii	"SD3\000"
 11471 2714 2A       		.byte	0x2a
 11472 2715 1501     		.2byte	0x115
 11473 2717 97260000 		.4byte	0x2697
 11474 271b 07       		.uleb128 0x7
 11475 271c 39110000 		.4byte	.LASF521
 11476 2720 20       		.byte	0x20
ARM GAS  /var/folders/d2/nstgp4h54kz7g1l847x_b8wc0000gn/T//ccB20FE7.s 			page 208


 11477 2721 29       		.byte	0x29
 11478 2722 6D       		.byte	0x6d
 11479 2723 88270000 		.4byte	0x2788
 11480 2727 08       		.uleb128 0x8
 11481 2728 9F1C0000 		.4byte	.LASF522
 11482 272c 29       		.byte	0x29
 11483 272d 6E       		.byte	0x6e
 11484 272e C3130000 		.4byte	0x13c3
 11485 2732 00       		.byte	0
 11486 2733 08       		.uleb128 0x8
 11487 2734 4C060000 		.4byte	.LASF523
 11488 2738 29       		.byte	0x29
 11489 2739 6E       		.byte	0x6e
 11490 273a E2130000 		.4byte	0x13e2
 11491 273e 04       		.byte	0x4
 11492 273f 18       		.uleb128 0x18
 11493 2740 70757400 		.ascii	"put\000"
 11494 2744 29       		.byte	0x29
 11495 2745 6E       		.byte	0x6e
 11496 2746 FC130000 		.4byte	0x13fc
 11497 274a 08       		.byte	0x8
 11498 274b 18       		.uleb128 0x18
 11499 274c 67657400 		.ascii	"get\000"
 11500 2750 29       		.byte	0x29
 11501 2751 6E       		.byte	0x6e
 11502 2752 11140000 		.4byte	0x1411
 11503 2756 0C       		.byte	0xc
 11504 2757 08       		.uleb128 0x8
 11505 2758 17180000 		.4byte	.LASF524
 11506 275c 29       		.byte	0x29
 11507 275d 6E       		.byte	0x6e
 11508 275e B2140000 		.4byte	0x14b2
 11509 2762 10       		.byte	0x10
 11510 2763 08       		.uleb128 0x8
 11511 2764 761C0000 		.4byte	.LASF525
 11512 2768 29       		.byte	0x29
 11513 2769 6E       		.byte	0x6e
 11514 276a CC140000 		.4byte	0x14cc
 11515 276e 14       		.byte	0x14
 11516 276f 08       		.uleb128 0x8
 11517 2770 F7270000 		.4byte	.LASF526
 11518 2774 29       		.byte	0x29
 11519 2775 6E       		.byte	0x6e
 11520 2776 F0140000 		.4byte	0x14f0
 11521 277a 18       		.byte	0x18
 11522 277b 08       		.uleb128 0x8
 11523 277c 4D170000 		.4byte	.LASF527
 11524 2780 29       		.byte	0x29
 11525 2781 6E       		.byte	0x6e
 11526 2782 14150000 		.4byte	0x1514
 11527 2786 1C       		.byte	0x1c
 11528 2787 00       		.byte	0
 11529 2788 05       		.uleb128 0x5
 11530 2789 1B270000 		.4byte	0x271b
 11531 278d 0B       		.uleb128 0xb
 11532 278e 04       		.byte	0x4
 11533 278f 88270000 		.4byte	0x2788
ARM GAS  /var/folders/d2/nstgp4h54kz7g1l847x_b8wc0000gn/T//ccB20FE7.s 			page 209


 11534 2793 13       		.uleb128 0x13
 11535 2794 D5000000 		.4byte	0xd5
 11536 2798 A3270000 		.4byte	0x27a3
 11537 279c 14       		.uleb128 0x14
 11538 279d 37000000 		.4byte	0x37
 11539 27a1 7F       		.byte	0x7f
 11540 27a2 00       		.byte	0
 11541 27a3 0B       		.uleb128 0xb
 11542 27a4 04       		.byte	0x4
 11543 27a5 680D0000 		.4byte	0xd68
 11544 27a9 21       		.uleb128 0x21
 11545 27aa 07       		.byte	0x7
 11546 27ab 01       		.byte	0x1
 11547 27ac 69000000 		.4byte	0x69
 11548 27b0 2B       		.byte	0x2b
 11549 27b1 6C       		.byte	0x6c
 11550 27b2 C9270000 		.4byte	0x27c9
 11551 27b6 22       		.uleb128 0x22
 11552 27b7 8C040000 		.4byte	.LASF528
 11553 27bb 00       		.byte	0
 11554 27bc 22       		.uleb128 0x22
 11555 27bd 42190000 		.4byte	.LASF529
 11556 27c1 01       		.byte	0x1
 11557 27c2 22       		.uleb128 0x22
 11558 27c3 B8160000 		.4byte	.LASF530
 11559 27c7 02       		.byte	0x2
 11560 27c8 00       		.byte	0
 11561 27c9 03       		.uleb128 0x3
 11562 27ca 40200000 		.4byte	.LASF531
 11563 27ce 2B       		.byte	0x2b
 11564 27cf 70       		.byte	0x70
 11565 27d0 A9270000 		.4byte	0x27a9
 11566 27d4 03       		.uleb128 0x3
 11567 27d5 171F0000 		.4byte	.LASF532
 11568 27d9 2C       		.byte	0x2c
 11569 27da BF       		.byte	0xbf
 11570 27db 0B010000 		.4byte	0x10b
 11571 27df 03       		.uleb128 0x3
 11572 27e0 001C0000 		.4byte	.LASF533
 11573 27e4 2C       		.byte	0x2c
 11574 27e5 C4       		.byte	0xc4
 11575 27e6 0B010000 		.4byte	0x10b
 11576 27ea 03       		.uleb128 0x3
 11577 27eb 19270000 		.4byte	.LASF534
 11578 27ef 2C       		.byte	0x2c
 11579 27f0 C9       		.byte	0xc9
 11580 27f1 F5270000 		.4byte	0x27f5
 11581 27f5 07       		.uleb128 0x7
 11582 27f6 19270000 		.4byte	.LASF534
 11583 27fa 4C       		.byte	0x4c
 11584 27fb 2C       		.byte	0x2c
 11585 27fc F2       		.byte	0xf2
 11586 27fd A4280000 		.4byte	0x28a4
 11587 2801 18       		.uleb128 0x18
 11588 2802 766D7400 		.ascii	"vmt\000"
 11589 2806 2C       		.byte	0x2c
 11590 2807 F6       		.byte	0xf6
ARM GAS  /var/folders/d2/nstgp4h54kz7g1l847x_b8wc0000gn/T//ccB20FE7.s 			page 210


 11591 2808 47290000 		.4byte	0x2947
 11592 280c 00       		.byte	0
 11593 280d 08       		.uleb128 0x8
 11594 280e 111A0000 		.4byte	.LASF340
 11595 2812 2C       		.byte	0x2c
 11596 2813 F7       		.byte	0xf7
 11597 2814 5E150000 		.4byte	0x155e
 11598 2818 04       		.byte	0x4
 11599 2819 18       		.uleb128 0x18
 11600 281a 63696400 		.ascii	"cid\000"
 11601 281e 2C       		.byte	0x2c
 11602 281f F7       		.byte	0xf7
 11603 2820 19160000 		.4byte	0x1619
 11604 2824 08       		.byte	0x8
 11605 2825 18       		.uleb128 0x18
 11606 2826 63736400 		.ascii	"csd\000"
 11607 282a 2C       		.byte	0x2c
 11608 282b F7       		.byte	0xf7
 11609 282c 19160000 		.4byte	0x1619
 11610 2830 18       		.byte	0x18
 11611 2831 08       		.uleb128 0x8
 11612 2832 74220000 		.4byte	.LASF535
 11613 2836 2C       		.byte	0x2c
 11614 2837 F7       		.byte	0xf7
 11615 2838 0B010000 		.4byte	0x10b
 11616 283c 28       		.byte	0x28
 11617 283d 08       		.uleb128 0x8
 11618 283e 65210000 		.4byte	.LASF341
 11619 2842 2C       		.byte	0x2c
 11620 2843 FB       		.byte	0xfb
 11621 2844 4D290000 		.4byte	0x294d
 11622 2848 2C       		.byte	0x2c
 11623 2849 08       		.uleb128 0x8
 11624 284a ED180000 		.4byte	.LASF536
 11625 284e 2C       		.byte	0x2c
 11626 284f FF       		.byte	0xff
 11627 2850 D4270000 		.4byte	0x27d4
 11628 2854 30       		.byte	0x30
 11629 2855 0A       		.uleb128 0xa
 11630 2856 50020000 		.4byte	.LASF472
 11631 285a 2C       		.byte	0x2c
 11632 285b 0301     		.2byte	0x103
 11633 285d DF270000 		.4byte	0x27df
 11634 2861 34       		.byte	0x34
 11635 2862 09       		.uleb128 0x9
 11636 2863 72636100 		.ascii	"rca\000"
 11637 2867 2C       		.byte	0x2c
 11638 2868 0701     		.2byte	0x107
 11639 286a 0B010000 		.4byte	0x10b
 11640 286e 38       		.byte	0x38
 11641 286f 0A       		.uleb128 0xa
 11642 2870 A9080000 		.4byte	.LASF345
 11643 2874 2C       		.byte	0x2c
 11644 2875 0C01     		.2byte	0x10c
 11645 2877 E8020000 		.4byte	0x2e8
 11646 287b 3C       		.byte	0x3c
 11647 287c 0A       		.uleb128 0xa
ARM GAS  /var/folders/d2/nstgp4h54kz7g1l847x_b8wc0000gn/T//ccB20FE7.s 			page 211


 11648 287d 571C0000 		.4byte	.LASF348
 11649 2881 2C       		.byte	0x2c
 11650 2882 1001     		.2byte	0x110
 11651 2884 0B010000 		.4byte	0x10b
 11652 2888 40       		.byte	0x40
 11653 2889 09       		.uleb128 0x9
 11654 288a 646D6100 		.ascii	"dma\000"
 11655 288e 2C       		.byte	0x2c
 11656 288f 1401     		.2byte	0x114
 11657 2891 5E1A0000 		.4byte	0x1a5e
 11658 2895 44       		.byte	0x44
 11659 2896 0A       		.uleb128 0xa
 11660 2897 351A0000 		.4byte	.LASF537
 11661 289b 2C       		.byte	0x2c
 11662 289c 1901     		.2byte	0x119
 11663 289e 53290000 		.4byte	0x2953
 11664 28a2 48       		.byte	0x48
 11665 28a3 00       		.byte	0
 11666 28a4 17       		.uleb128 0x17
 11667 28a5 08       		.byte	0x8
 11668 28a6 2C       		.byte	0x2c
 11669 28a7 CF       		.byte	0xcf
 11670 28a8 C5280000 		.4byte	0x28c5
 11671 28ac 08       		.uleb128 0x8
 11672 28ad 49100000 		.4byte	.LASF538
 11673 28b1 2C       		.byte	0x2c
 11674 28b2 D8       		.byte	0xd8
 11675 28b3 88130000 		.4byte	0x1388
 11676 28b7 00       		.byte	0
 11677 28b8 08       		.uleb128 0x8
 11678 28b9 D5280000 		.4byte	.LASF539
 11679 28bd 2C       		.byte	0x2c
 11680 28be DC       		.byte	0xdc
 11681 28bf C9270000 		.4byte	0x27c9
 11682 28c3 04       		.byte	0x4
 11683 28c4 00       		.byte	0
 11684 28c5 03       		.uleb128 0x3
 11685 28c6 AE190000 		.4byte	.LASF540
 11686 28ca 2C       		.byte	0x2c
 11687 28cb DE       		.byte	0xde
 11688 28cc A4280000 		.4byte	0x28a4
 11689 28d0 05       		.uleb128 0x5
 11690 28d1 C5280000 		.4byte	0x28c5
 11691 28d5 07       		.uleb128 0x7
 11692 28d6 10290000 		.4byte	.LASF541
 11693 28da 20       		.byte	0x20
 11694 28db 2C       		.byte	0x2c
 11695 28dc EB       		.byte	0xeb
 11696 28dd 42290000 		.4byte	0x2942
 11697 28e1 08       		.uleb128 0x8
 11698 28e2 E42B0000 		.4byte	.LASF542
 11699 28e6 2C       		.byte	0x2c
 11700 28e7 EC       		.byte	0xec
 11701 28e8 AB150000 		.4byte	0x15ab
 11702 28ec 00       		.byte	0
 11703 28ed 08       		.uleb128 0x8
 11704 28ee 8B0E0000 		.4byte	.LASF543
ARM GAS  /var/folders/d2/nstgp4h54kz7g1l847x_b8wc0000gn/T//ccB20FE7.s 			page 212


 11705 28f2 2C       		.byte	0x2c
 11706 28f3 EC       		.byte	0xec
 11707 28f4 AB150000 		.4byte	0x15ab
 11708 28f8 04       		.byte	0x4
 11709 28f9 08       		.uleb128 0x8
 11710 28fa 5E110000 		.4byte	.LASF544
 11711 28fe 2C       		.byte	0x2c
 11712 28ff EC       		.byte	0xec
 11713 2900 AB150000 		.4byte	0x15ab
 11714 2904 08       		.byte	0x8
 11715 2905 08       		.uleb128 0x8
 11716 2906 05180000 		.4byte	.LASF545
 11717 290a 2C       		.byte	0x2c
 11718 290b EC       		.byte	0xec
 11719 290c AB150000 		.4byte	0x15ab
 11720 2910 0C       		.byte	0xc
 11721 2911 08       		.uleb128 0x8
 11722 2912 4C060000 		.4byte	.LASF523
 11723 2916 2C       		.byte	0x2c
 11724 2917 EC       		.byte	0xec
 11725 2918 CF150000 		.4byte	0x15cf
 11726 291c 10       		.byte	0x10
 11727 291d 08       		.uleb128 0x8
 11728 291e 9F1C0000 		.4byte	.LASF522
 11729 2922 2C       		.byte	0x2c
 11730 2923 EC       		.byte	0xec
 11731 2924 F3150000 		.4byte	0x15f3
 11732 2928 14       		.byte	0x14
 11733 2929 08       		.uleb128 0x8
 11734 292a 041F0000 		.4byte	.LASF546
 11735 292e 2C       		.byte	0x2c
 11736 292f EC       		.byte	0xec
 11737 2930 AB150000 		.4byte	0x15ab
 11738 2934 18       		.byte	0x18
 11739 2935 08       		.uleb128 0x8
 11740 2936 83280000 		.4byte	.LASF547
 11741 293a 2C       		.byte	0x2c
 11742 293b EC       		.byte	0xec
 11743 293c 13160000 		.4byte	0x1613
 11744 2940 1C       		.byte	0x1c
 11745 2941 00       		.byte	0
 11746 2942 05       		.uleb128 0x5
 11747 2943 D5280000 		.4byte	0x28d5
 11748 2947 0B       		.uleb128 0xb
 11749 2948 04       		.byte	0x4
 11750 2949 42290000 		.4byte	0x2942
 11751 294d 0B       		.uleb128 0xb
 11752 294e 04       		.byte	0x4
 11753 294f D0280000 		.4byte	0x28d0
 11754 2953 0B       		.uleb128 0xb
 11755 2954 04       		.byte	0x4
 11756 2955 700C0000 		.4byte	0xc70
 11757 2959 15       		.uleb128 0x15
 11758 295a 050C0000 		.4byte	.LASF548
 11759 295e 2C       		.byte	0x2c
 11760 295f 2501     		.2byte	0x125
 11761 2961 EA270000 		.4byte	0x27ea
ARM GAS  /var/folders/d2/nstgp4h54kz7g1l847x_b8wc0000gn/T//ccB20FE7.s 			page 213


 11762 2965 21       		.uleb128 0x21
 11763 2966 07       		.byte	0x7
 11764 2967 01       		.byte	0x1
 11765 2968 69000000 		.4byte	0x69
 11766 296c 2D       		.byte	0x2d
 11767 296d 46       		.byte	0x46
 11768 296e 91290000 		.4byte	0x2991
 11769 2972 22       		.uleb128 0x22
 11770 2973 BF080000 		.4byte	.LASF549
 11771 2977 00       		.byte	0
 11772 2978 22       		.uleb128 0x22
 11773 2979 29040000 		.4byte	.LASF550
 11774 297d 01       		.byte	0x1
 11775 297e 22       		.uleb128 0x22
 11776 297f BE280000 		.4byte	.LASF551
 11777 2983 02       		.byte	0x2
 11778 2984 22       		.uleb128 0x22
 11779 2985 C8100000 		.4byte	.LASF552
 11780 2989 03       		.byte	0x3
 11781 298a 22       		.uleb128 0x22
 11782 298b 98170000 		.4byte	.LASF553
 11783 298f 04       		.byte	0x4
 11784 2990 00       		.byte	0
 11785 2991 03       		.uleb128 0x3
 11786 2992 7C100000 		.4byte	.LASF554
 11787 2996 2D       		.byte	0x2d
 11788 2997 4C       		.byte	0x4c
 11789 2998 65290000 		.4byte	0x2965
 11790 299c 1A       		.uleb128 0x1a
 11791 299d A0260000 		.4byte	.LASF555
 11792 29a1 2E       		.byte	0x2e
 11793 29a2 9601     		.2byte	0x196
 11794 29a4 A8290000 		.4byte	0x29a8
 11795 29a8 0C       		.uleb128 0xc
 11796 29a9 A0260000 		.4byte	.LASF555
 11797 29ad 34       		.byte	0x34
 11798 29ae 2E       		.byte	0x2e
 11799 29af BA01     		.2byte	0x1ba
 11800 29b1 2B2A0000 		.4byte	0x2a2b
 11801 29b5 0A       		.uleb128 0xa
 11802 29b6 111A0000 		.4byte	.LASF340
 11803 29ba 2E       		.byte	0x2e
 11804 29bb BE01     		.2byte	0x1be
 11805 29bd 91290000 		.4byte	0x2991
 11806 29c1 00       		.byte	0
 11807 29c2 0A       		.uleb128 0xa
 11808 29c3 65210000 		.4byte	.LASF341
 11809 29c7 2E       		.byte	0x2e
 11810 29c8 C201     		.2byte	0x1c2
 11811 29ca 9D2A0000 		.4byte	0x2a9d
 11812 29ce 04       		.byte	0x4
 11813 29cf 0A       		.uleb128 0xa
 11814 29d0 A9080000 		.4byte	.LASF345
 11815 29d4 2E       		.byte	0x2e
 11816 29d5 C701     		.2byte	0x1c7
 11817 29d7 E8020000 		.4byte	0x2e8
 11818 29db 08       		.byte	0x8
ARM GAS  /var/folders/d2/nstgp4h54kz7g1l847x_b8wc0000gn/T//ccB20FE7.s 			page 214


 11819 29dc 0A       		.uleb128 0xa
 11820 29dd F20E0000 		.4byte	.LASF346
 11821 29e1 2E       		.byte	0x2e
 11822 29e2 CD01     		.2byte	0x1cd
 11823 29e4 5F120000 		.4byte	0x125f
 11824 29e8 0C       		.byte	0xc
 11825 29e9 09       		.uleb128 0x9
 11826 29ea 73706900 		.ascii	"spi\000"
 11827 29ee 2E       		.byte	0x2e
 11828 29ef D601     		.2byte	0x1d6
 11829 29f1 8A240000 		.4byte	0x248a
 11830 29f5 20       		.byte	0x20
 11831 29f6 0A       		.uleb128 0xa
 11832 29f7 6E010000 		.4byte	.LASF476
 11833 29fb 2E       		.byte	0x2e
 11834 29fc DA01     		.2byte	0x1da
 11835 29fe 5E1A0000 		.4byte	0x1a5e
 11836 2a02 24       		.byte	0x24
 11837 2a03 0A       		.uleb128 0xa
 11838 2a04 1C030000 		.4byte	.LASF477
 11839 2a08 2E       		.byte	0x2e
 11840 2a09 DE01     		.2byte	0x1de
 11841 2a0b 5E1A0000 		.4byte	0x1a5e
 11842 2a0f 28       		.byte	0x28
 11843 2a10 0A       		.uleb128 0xa
 11844 2a11 370A0000 		.4byte	.LASF474
 11845 2a15 2E       		.byte	0x2e
 11846 2a16 E201     		.2byte	0x1e2
 11847 2a18 0B010000 		.4byte	0x10b
 11848 2a1c 2C       		.byte	0x2c
 11849 2a1d 0A       		.uleb128 0xa
 11850 2a1e 910A0000 		.4byte	.LASF475
 11851 2a22 2E       		.byte	0x2e
 11852 2a23 E601     		.2byte	0x1e6
 11853 2a25 0B010000 		.4byte	0x10b
 11854 2a29 30       		.byte	0x30
 11855 2a2a 00       		.byte	0
 11856 2a2b 1A       		.uleb128 0x1a
 11857 2a2c 77190000 		.4byte	.LASF556
 11858 2a30 2E       		.byte	0x2e
 11859 2a31 9E01     		.2byte	0x19e
 11860 2a33 372A0000 		.4byte	0x2a37
 11861 2a37 0B       		.uleb128 0xb
 11862 2a38 04       		.byte	0x4
 11863 2a39 3D2A0000 		.4byte	0x2a3d
 11864 2a3d 0D       		.uleb128 0xd
 11865 2a3e 482A0000 		.4byte	0x2a48
 11866 2a42 0E       		.uleb128 0xe
 11867 2a43 482A0000 		.4byte	0x2a48
 11868 2a47 00       		.byte	0
 11869 2a48 0B       		.uleb128 0xb
 11870 2a49 04       		.byte	0x4
 11871 2a4a 9C290000 		.4byte	0x299c
 11872 2a4e 19       		.uleb128 0x19
 11873 2a4f 0C       		.byte	0xc
 11874 2a50 2E       		.byte	0x2e
 11875 2a51 A301     		.2byte	0x1a3
ARM GAS  /var/folders/d2/nstgp4h54kz7g1l847x_b8wc0000gn/T//ccB20FE7.s 			page 215


 11876 2a53 8C2A0000 		.4byte	0x2a8c
 11877 2a57 0A       		.uleb128 0xa
 11878 2a58 290B0000 		.4byte	.LASF353
 11879 2a5c 2E       		.byte	0x2e
 11880 2a5d A701     		.2byte	0x1a7
 11881 2a5f 2B2A0000 		.4byte	0x2a2b
 11882 2a63 00       		.byte	0
 11883 2a64 0A       		.uleb128 0xa
 11884 2a65 A7290000 		.4byte	.LASF557
 11885 2a69 2E       		.byte	0x2e
 11886 2a6a AC01     		.2byte	0x1ac
 11887 2a6c EF170000 		.4byte	0x17ef
 11888 2a70 04       		.byte	0x4
 11889 2a71 0A       		.uleb128 0xa
 11890 2a72 8B0A0000 		.4byte	.LASF558
 11891 2a76 2E       		.byte	0x2e
 11892 2a77 B001     		.2byte	0x1b0
 11893 2a79 F0000000 		.4byte	0xf0
 11894 2a7d 08       		.byte	0x8
 11895 2a7e 09       		.uleb128 0x9
 11896 2a7f 63723100 		.ascii	"cr1\000"
 11897 2a83 2E       		.byte	0x2e
 11898 2a84 B401     		.2byte	0x1b4
 11899 2a86 F0000000 		.4byte	0xf0
 11900 2a8a 0A       		.byte	0xa
 11901 2a8b 00       		.byte	0
 11902 2a8c 1A       		.uleb128 0x1a
 11903 2a8d B0260000 		.4byte	.LASF559
 11904 2a91 2E       		.byte	0x2e
 11905 2a92 B501     		.2byte	0x1b5
 11906 2a94 4E2A0000 		.4byte	0x2a4e
 11907 2a98 05       		.uleb128 0x5
 11908 2a99 8C2A0000 		.4byte	0x2a8c
 11909 2a9d 0B       		.uleb128 0xb
 11910 2a9e 04       		.byte	0x4
 11911 2a9f 982A0000 		.4byte	0x2a98
 11912 2aa3 15       		.uleb128 0x15
 11913 2aa4 701C0000 		.4byte	.LASF560
 11914 2aa8 2E       		.byte	0x2e
 11915 2aa9 F201     		.2byte	0x1f2
 11916 2aab 9C290000 		.4byte	0x299c
 11917 2aaf 03       		.uleb128 0x3
 11918 2ab0 6A150000 		.4byte	.LASF561
 11919 2ab4 2F       		.byte	0x2f
 11920 2ab5 FA       		.byte	0xfa
 11921 2ab6 BA2A0000 		.4byte	0x2aba
 11922 2aba 10       		.uleb128 0x10
 11923 2abb 6A150000 		.4byte	.LASF561
 11924 2abf 6002     		.2byte	0x260
 11925 2ac1 30       		.byte	0x30
 11926 2ac2 7701     		.2byte	0x177
 11927 2ac4 E62B0000 		.4byte	0x2be6
 11928 2ac8 0A       		.uleb128 0xa
 11929 2ac9 111A0000 		.4byte	.LASF340
 11930 2acd 30       		.byte	0x30
 11931 2ace 7B01     		.2byte	0x17b
 11932 2ad0 1E2C0000 		.4byte	0x2c1e
ARM GAS  /var/folders/d2/nstgp4h54kz7g1l847x_b8wc0000gn/T//ccB20FE7.s 			page 216


 11933 2ad4 00       		.byte	0
 11934 2ad5 0A       		.uleb128 0xa
 11935 2ad6 65210000 		.4byte	.LASF341
 11936 2ada 30       		.byte	0x30
 11937 2adb 7F01     		.2byte	0x17f
 11938 2add 41350000 		.4byte	0x3541
 11939 2ae1 04       		.byte	0x4
 11940 2ae2 0A       		.uleb128 0xa
 11941 2ae3 F1260000 		.4byte	.LASF562
 11942 2ae7 30       		.byte	0x30
 11943 2ae8 8301     		.2byte	0x183
 11944 2aea F0000000 		.4byte	0xf0
 11945 2aee 08       		.byte	0x8
 11946 2aef 0A       		.uleb128 0xa
 11947 2af0 E2290000 		.4byte	.LASF563
 11948 2af4 30       		.byte	0x30
 11949 2af5 8701     		.2byte	0x187
 11950 2af7 F0000000 		.4byte	0xf0
 11951 2afb 0A       		.byte	0xa
 11952 2afc 09       		.uleb128 0x9
 11953 2afd 65706300 		.ascii	"epc\000"
 11954 2b01 30       		.byte	0x30
 11955 2b02 8B01     		.2byte	0x18b
 11956 2b04 47350000 		.4byte	0x3547
 11957 2b08 0C       		.byte	0xc
 11958 2b09 0A       		.uleb128 0xa
 11959 2b0a E9080000 		.4byte	.LASF564
 11960 2b0e 30       		.byte	0x30
 11961 2b0f 9201     		.2byte	0x192
 11962 2b11 5D350000 		.4byte	0x355d
 11963 2b15 1C       		.byte	0x1c
 11964 2b16 0A       		.uleb128 0xa
 11965 2b17 5C0E0000 		.4byte	.LASF565
 11966 2b1b 30       		.byte	0x30
 11967 2b1c 9901     		.2byte	0x199
 11968 2b1e 5D350000 		.4byte	0x355d
 11969 2b22 28       		.byte	0x28
 11970 2b23 0A       		.uleb128 0xa
 11971 2b24 39130000 		.4byte	.LASF566
 11972 2b28 30       		.byte	0x30
 11973 2b29 9D01     		.2byte	0x19d
 11974 2b2b 632C0000 		.4byte	0x2c63
 11975 2b2f 34       		.byte	0x34
 11976 2b30 0A       		.uleb128 0xa
 11977 2b31 D8200000 		.4byte	.LASF567
 11978 2b35 30       		.byte	0x30
 11979 2b36 A101     		.2byte	0x1a1
 11980 2b38 88130000 		.4byte	0x1388
 11981 2b3c 38       		.byte	0x38
 11982 2b3d 0A       		.uleb128 0xa
 11983 2b3e C81B0000 		.4byte	.LASF568
 11984 2b42 30       		.byte	0x30
 11985 2b43 A501     		.2byte	0x1a5
 11986 2b45 2C000000 		.4byte	0x2c
 11987 2b49 3C       		.byte	0x3c
 11988 2b4a 0A       		.uleb128 0xa
 11989 2b4b 10240000 		.4byte	.LASF569
ARM GAS  /var/folders/d2/nstgp4h54kz7g1l847x_b8wc0000gn/T//ccB20FE7.s 			page 217


 11990 2b4f 30       		.byte	0x30
 11991 2b50 A901     		.2byte	0x1a9
 11992 2b52 E32C0000 		.4byte	0x2ce3
 11993 2b56 40       		.byte	0x40
 11994 2b57 0A       		.uleb128 0xa
 11995 2b58 B9080000 		.4byte	.LASF570
 11996 2b5c 30       		.byte	0x30
 11997 2b5d AD01     		.2byte	0x1ad
 11998 2b5f BF1A0000 		.4byte	0x1abf
 11999 2b63 44       		.byte	0x44
 12000 2b64 0A       		.uleb128 0xa
 12001 2b65 2A190000 		.4byte	.LASF571
 12002 2b69 30       		.byte	0x30
 12003 2b6a B101     		.2byte	0x1b1
 12004 2b6c F0000000 		.4byte	0xf0
 12005 2b70 4C       		.byte	0x4c
 12006 2b71 0A       		.uleb128 0xa
 12007 2b72 8F190000 		.4byte	.LASF572
 12008 2b76 30       		.byte	0x30
 12009 2b77 B501     		.2byte	0x1b5
 12010 2b79 D5000000 		.4byte	0xd5
 12011 2b7d 4E       		.byte	0x4e
 12012 2b7e 0A       		.uleb128 0xa
 12013 2b7f 901F0000 		.4byte	.LASF573
 12014 2b83 30       		.byte	0x30
 12015 2b84 B901     		.2byte	0x1b9
 12016 2b86 D5000000 		.4byte	0xd5
 12017 2b8a 4F       		.byte	0x4f
 12018 2b8b 09       		.uleb128 0x9
 12019 2b8c 6F746700 		.ascii	"otg\000"
 12020 2b90 30       		.byte	0x30
 12021 2b91 C101     		.2byte	0x1c1
 12022 2b93 6D350000 		.4byte	0x356d
 12023 2b97 50       		.byte	0x50
 12024 2b98 0A       		.uleb128 0xa
 12025 2b99 18100000 		.4byte	.LASF574
 12026 2b9d 30       		.byte	0x30
 12027 2b9e C501     		.2byte	0x1c5
 12028 2ba0 73350000 		.4byte	0x3573
 12029 2ba4 54       		.byte	0x54
 12030 2ba5 0A       		.uleb128 0xa
 12031 2ba6 8F1D0000 		.4byte	.LASF575
 12032 2baa 30       		.byte	0x30
 12033 2bab C901     		.2byte	0x1c9
 12034 2bad 0B010000 		.4byte	0x10b
 12035 2bb1 58       		.byte	0x58
 12036 2bb2 0A       		.uleb128 0xa
 12037 2bb3 110F0000 		.4byte	.LASF576
 12038 2bb7 30       		.byte	0x30
 12039 2bb8 CD01     		.2byte	0x1cd
 12040 2bba 0B010000 		.4byte	0x10b
 12041 2bbe 5C       		.byte	0x5c
 12042 2bbf 0A       		.uleb128 0xa
 12043 2bc0 E8090000 		.4byte	.LASF577
 12044 2bc4 30       		.byte	0x30
 12045 2bc5 D101     		.2byte	0x1d1
 12046 2bc7 E8020000 		.4byte	0x2e8
ARM GAS  /var/folders/d2/nstgp4h54kz7g1l847x_b8wc0000gn/T//ccB20FE7.s 			page 218


 12047 2bcb 60       		.byte	0x60
 12048 2bcc 09       		.uleb128 0x9
 12049 2bcd 747200   		.ascii	"tr\000"
 12050 2bd0 30       		.byte	0x30
 12051 2bd1 D601     		.2byte	0x1d6
 12052 2bd3 E8020000 		.4byte	0x2e8
 12053 2bd7 64       		.byte	0x64
 12054 2bd8 0A       		.uleb128 0xa
 12055 2bd9 3F180000 		.4byte	.LASF578
 12056 2bdd 30       		.byte	0x30
 12057 2bde DA01     		.2byte	0x1da
 12058 2be0 79350000 		.4byte	0x3579
 12059 2be4 68       		.byte	0x68
 12060 2be5 00       		.byte	0
 12061 2be6 03       		.uleb128 0x3
 12062 2be7 B20B0000 		.4byte	.LASF579
 12063 2beb 2F       		.byte	0x2f
 12064 2bec FF       		.byte	0xff
 12065 2bed D5000000 		.4byte	0xd5
 12066 2bf1 24       		.uleb128 0x24
 12067 2bf2 07       		.byte	0x7
 12068 2bf3 01       		.byte	0x1
 12069 2bf4 69000000 		.4byte	0x69
 12070 2bf8 2F       		.byte	0x2f
 12071 2bf9 0401     		.2byte	0x104
 12072 2bfb 1E2C0000 		.4byte	0x2c1e
 12073 2bff 22       		.uleb128 0x22
 12074 2c00 CC2A0000 		.4byte	.LASF580
 12075 2c04 00       		.byte	0
 12076 2c05 22       		.uleb128 0x22
 12077 2c06 00000000 		.4byte	.LASF581
 12078 2c0a 01       		.byte	0x1
 12079 2c0b 22       		.uleb128 0x22
 12080 2c0c 36170000 		.4byte	.LASF582
 12081 2c10 02       		.byte	0x2
 12082 2c11 22       		.uleb128 0x22
 12083 2c12 5F1D0000 		.4byte	.LASF583
 12084 2c16 03       		.byte	0x3
 12085 2c17 22       		.uleb128 0x22
 12086 2c18 000A0000 		.4byte	.LASF584
 12087 2c1c 04       		.byte	0x4
 12088 2c1d 00       		.byte	0
 12089 2c1e 1A       		.uleb128 0x1a
 12090 2c1f 1F2C0000 		.4byte	.LASF585
 12091 2c23 2F       		.byte	0x2f
 12092 2c24 0A01     		.2byte	0x10a
 12093 2c26 F12B0000 		.4byte	0x2bf1
 12094 2c2a 24       		.uleb128 0x24
 12095 2c2b 07       		.byte	0x7
 12096 2c2c 01       		.byte	0x1
 12097 2c2d 69000000 		.4byte	0x69
 12098 2c31 2F       		.byte	0x2f
 12099 2c32 1801     		.2byte	0x118
 12100 2c34 632C0000 		.4byte	0x2c63
 12101 2c38 22       		.uleb128 0x22
 12102 2c39 DB230000 		.4byte	.LASF586
 12103 2c3d 00       		.byte	0
ARM GAS  /var/folders/d2/nstgp4h54kz7g1l847x_b8wc0000gn/T//ccB20FE7.s 			page 219


 12104 2c3e 22       		.uleb128 0x22
 12105 2c3f 2E130000 		.4byte	.LASF587
 12106 2c43 01       		.byte	0x1
 12107 2c44 22       		.uleb128 0x22
 12108 2c45 C4200000 		.4byte	.LASF588
 12109 2c49 02       		.byte	0x2
 12110 2c4a 22       		.uleb128 0x22
 12111 2c4b 581A0000 		.4byte	.LASF589
 12112 2c4f 03       		.byte	0x3
 12113 2c50 22       		.uleb128 0x22
 12114 2c51 15190000 		.4byte	.LASF590
 12115 2c55 04       		.byte	0x4
 12116 2c56 22       		.uleb128 0x22
 12117 2c57 9E140000 		.4byte	.LASF591
 12118 2c5b 05       		.byte	0x5
 12119 2c5c 22       		.uleb128 0x22
 12120 2c5d 49110000 		.4byte	.LASF592
 12121 2c61 06       		.byte	0x6
 12122 2c62 00       		.byte	0
 12123 2c63 1A       		.uleb128 0x1a
 12124 2c64 0F150000 		.4byte	.LASF593
 12125 2c68 2F       		.byte	0x2f
 12126 2c69 2001     		.2byte	0x120
 12127 2c6b 2A2C0000 		.4byte	0x2c2a
 12128 2c6f 24       		.uleb128 0x24
 12129 2c70 07       		.byte	0x7
 12130 2c71 01       		.byte	0x1
 12131 2c72 69000000 		.4byte	0x69
 12132 2c76 2F       		.byte	0x2f
 12133 2c77 2501     		.2byte	0x125
 12134 2c79 A22C0000 		.4byte	0x2ca2
 12135 2c7d 22       		.uleb128 0x22
 12136 2c7e 2B230000 		.4byte	.LASF594
 12137 2c82 00       		.byte	0
 12138 2c83 22       		.uleb128 0x22
 12139 2c84 E91D0000 		.4byte	.LASF595
 12140 2c88 01       		.byte	0x1
 12141 2c89 22       		.uleb128 0x22
 12142 2c8a F0170000 		.4byte	.LASF596
 12143 2c8e 02       		.byte	0x2
 12144 2c8f 22       		.uleb128 0x22
 12145 2c90 8B180000 		.4byte	.LASF597
 12146 2c94 03       		.byte	0x3
 12147 2c95 22       		.uleb128 0x22
 12148 2c96 2B290000 		.4byte	.LASF598
 12149 2c9a 04       		.byte	0x4
 12150 2c9b 22       		.uleb128 0x22
 12151 2c9c B4170000 		.4byte	.LASF599
 12152 2ca0 05       		.byte	0x5
 12153 2ca1 00       		.byte	0
 12154 2ca2 1A       		.uleb128 0x1a
 12155 2ca3 211E0000 		.4byte	.LASF600
 12156 2ca7 2F       		.byte	0x2f
 12157 2ca8 2C01     		.2byte	0x12c
 12158 2caa 6F2C0000 		.4byte	0x2c6f
 12159 2cae 19       		.uleb128 0x19
 12160 2caf 08       		.byte	0x8
ARM GAS  /var/folders/d2/nstgp4h54kz7g1l847x_b8wc0000gn/T//ccB20FE7.s 			page 220


 12161 2cb0 2F       		.byte	0x2f
 12162 2cb1 3101     		.2byte	0x131
 12163 2cb3 D22C0000 		.4byte	0x2cd2
 12164 2cb7 0A       		.uleb128 0xa
 12165 2cb8 932B0000 		.4byte	.LASF601
 12166 2cbc 2F       		.byte	0x2f
 12167 2cbd 3501     		.2byte	0x135
 12168 2cbf 2C000000 		.4byte	0x2c
 12169 2cc3 00       		.byte	0
 12170 2cc4 0A       		.uleb128 0xa
 12171 2cc5 2A060000 		.4byte	.LASF602
 12172 2cc9 2F       		.byte	0x2f
 12173 2cca 3901     		.2byte	0x139
 12174 2ccc BD130000 		.4byte	0x13bd
 12175 2cd0 04       		.byte	0x4
 12176 2cd1 00       		.byte	0
 12177 2cd2 1A       		.uleb128 0x1a
 12178 2cd3 50190000 		.4byte	.LASF603
 12179 2cd7 2F       		.byte	0x2f
 12180 2cd8 3A01     		.2byte	0x13a
 12181 2cda AE2C0000 		.4byte	0x2cae
 12182 2cde 05       		.uleb128 0x5
 12183 2cdf D22C0000 		.4byte	0x2cd2
 12184 2ce3 1A       		.uleb128 0x1a
 12185 2ce4 1C2B0000 		.4byte	.LASF604
 12186 2ce8 2F       		.byte	0x2f
 12187 2ce9 4201     		.2byte	0x142
 12188 2ceb EF2C0000 		.4byte	0x2cef
 12189 2cef 0B       		.uleb128 0xb
 12190 2cf0 04       		.byte	0x4
 12191 2cf1 F52C0000 		.4byte	0x2cf5
 12192 2cf5 0D       		.uleb128 0xd
 12193 2cf6 002D0000 		.4byte	0x2d00
 12194 2cfa 0E       		.uleb128 0xe
 12195 2cfb 002D0000 		.4byte	0x2d00
 12196 2cff 00       		.byte	0
 12197 2d00 0B       		.uleb128 0xb
 12198 2d01 04       		.byte	0x4
 12199 2d02 AF2A0000 		.4byte	0x2aaf
 12200 2d06 1A       		.uleb128 0x1a
 12201 2d07 8C060000 		.4byte	.LASF605
 12202 2d0b 2F       		.byte	0x2f
 12203 2d0c 4B01     		.2byte	0x14b
 12204 2d0e 122D0000 		.4byte	0x2d12
 12205 2d12 0B       		.uleb128 0xb
 12206 2d13 04       		.byte	0x4
 12207 2d14 182D0000 		.4byte	0x2d18
 12208 2d18 0D       		.uleb128 0xd
 12209 2d19 282D0000 		.4byte	0x2d28
 12210 2d1d 0E       		.uleb128 0xe
 12211 2d1e 002D0000 		.4byte	0x2d00
 12212 2d22 0E       		.uleb128 0xe
 12213 2d23 E62B0000 		.4byte	0x2be6
 12214 2d27 00       		.byte	0
 12215 2d28 1A       		.uleb128 0x1a
 12216 2d29 050D0000 		.4byte	.LASF606
 12217 2d2d 2F       		.byte	0x2f
ARM GAS  /var/folders/d2/nstgp4h54kz7g1l847x_b8wc0000gn/T//ccB20FE7.s 			page 221


 12218 2d2e 5401     		.2byte	0x154
 12219 2d30 342D0000 		.4byte	0x2d34
 12220 2d34 0B       		.uleb128 0xb
 12221 2d35 04       		.byte	0x4
 12222 2d36 3A2D0000 		.4byte	0x2d3a
 12223 2d3a 0D       		.uleb128 0xd
 12224 2d3b 4A2D0000 		.4byte	0x2d4a
 12225 2d3f 0E       		.uleb128 0xe
 12226 2d40 002D0000 		.4byte	0x2d00
 12227 2d44 0E       		.uleb128 0xe
 12228 2d45 A22C0000 		.4byte	0x2ca2
 12229 2d49 00       		.byte	0
 12230 2d4a 1A       		.uleb128 0x1a
 12231 2d4b F6070000 		.4byte	.LASF607
 12232 2d4f 2F       		.byte	0x2f
 12233 2d50 6001     		.2byte	0x160
 12234 2d52 562D0000 		.4byte	0x2d56
 12235 2d56 0B       		.uleb128 0xb
 12236 2d57 04       		.byte	0x4
 12237 2d58 5C2D0000 		.4byte	0x2d5c
 12238 2d5c 20       		.uleb128 0x20
 12239 2d5d A4150000 		.4byte	0x15a4
 12240 2d61 6B2D0000 		.4byte	0x2d6b
 12241 2d65 0E       		.uleb128 0xe
 12242 2d66 002D0000 		.4byte	0x2d00
 12243 2d6a 00       		.byte	0
 12244 2d6b 1A       		.uleb128 0x1a
 12245 2d6c B9110000 		.4byte	.LASF608
 12246 2d70 2F       		.byte	0x2f
 12247 2d71 6501     		.2byte	0x165
 12248 2d73 772D0000 		.4byte	0x2d77
 12249 2d77 0B       		.uleb128 0xb
 12250 2d78 04       		.byte	0x4
 12251 2d79 7D2D0000 		.4byte	0x2d7d
 12252 2d7d 20       		.uleb128 0x20
 12253 2d7e 9B2D0000 		.4byte	0x2d9b
 12254 2d82 9B2D0000 		.4byte	0x2d9b
 12255 2d86 0E       		.uleb128 0xe
 12256 2d87 002D0000 		.4byte	0x2d00
 12257 2d8b 0E       		.uleb128 0xe
 12258 2d8c D5000000 		.4byte	0xd5
 12259 2d90 0E       		.uleb128 0xe
 12260 2d91 D5000000 		.4byte	0xd5
 12261 2d95 0E       		.uleb128 0xe
 12262 2d96 F0000000 		.4byte	0xf0
 12263 2d9a 00       		.byte	0
 12264 2d9b 0B       		.uleb128 0xb
 12265 2d9c 04       		.byte	0x4
 12266 2d9d DE2C0000 		.4byte	0x2cde
 12267 2da1 17       		.uleb128 0x17
 12268 2da2 20       		.byte	0x20
 12269 2da3 31       		.byte	0x31
 12270 2da4 35       		.byte	0x35
 12271 2da5 0A2E0000 		.4byte	0x2e0a
 12272 2da9 08       		.uleb128 0x8
 12273 2daa 9A040000 		.4byte	.LASF609
 12274 2dae 31       		.byte	0x31
ARM GAS  /var/folders/d2/nstgp4h54kz7g1l847x_b8wc0000gn/T//ccB20FE7.s 			page 222


 12275 2daf 36       		.byte	0x36
 12276 2db0 16010000 		.4byte	0x116
 12277 2db4 00       		.byte	0
 12278 2db5 08       		.uleb128 0x8
 12279 2db6 560F0000 		.4byte	.LASF610
 12280 2dba 31       		.byte	0x31
 12281 2dbb 38       		.byte	0x38
 12282 2dbc 16010000 		.4byte	0x116
 12283 2dc0 04       		.byte	0x4
 12284 2dc1 08       		.uleb128 0x8
 12285 2dc2 E4030000 		.4byte	.LASF611
 12286 2dc6 31       		.byte	0x31
 12287 2dc7 39       		.byte	0x39
 12288 2dc8 16010000 		.4byte	0x116
 12289 2dcc 08       		.byte	0x8
 12290 2dcd 08       		.uleb128 0x8
 12291 2dce 49210000 		.4byte	.LASF612
 12292 2dd2 31       		.byte	0x31
 12293 2dd3 3A       		.byte	0x3a
 12294 2dd4 16010000 		.4byte	0x116
 12295 2dd8 0C       		.byte	0xc
 12296 2dd9 08       		.uleb128 0x8
 12297 2dda E9170000 		.4byte	.LASF613
 12298 2dde 31       		.byte	0x31
 12299 2ddf 3C       		.byte	0x3c
 12300 2de0 16010000 		.4byte	0x116
 12301 2de4 10       		.byte	0x10
 12302 2de5 08       		.uleb128 0x8
 12303 2de6 A70F0000 		.4byte	.LASF614
 12304 2dea 31       		.byte	0x31
 12305 2deb 3E       		.byte	0x3e
 12306 2dec 16010000 		.4byte	0x116
 12307 2df0 14       		.byte	0x14
 12308 2df1 08       		.uleb128 0x8
 12309 2df2 AF0F0000 		.4byte	.LASF615
 12310 2df6 31       		.byte	0x31
 12311 2df7 3F       		.byte	0x3f
 12312 2df8 16010000 		.4byte	0x116
 12313 2dfc 18       		.byte	0x18
 12314 2dfd 08       		.uleb128 0x8
 12315 2dfe 78050000 		.4byte	.LASF616
 12316 2e02 31       		.byte	0x31
 12317 2e03 40       		.byte	0x40
 12318 2e04 16010000 		.4byte	0x116
 12319 2e08 1C       		.byte	0x1c
 12320 2e09 00       		.byte	0
 12321 2e0a 03       		.uleb128 0x3
 12322 2e0b E0200000 		.4byte	.LASF617
 12323 2e0f 31       		.byte	0x31
 12324 2e10 41       		.byte	0x41
 12325 2e11 A12D0000 		.4byte	0x2da1
 12326 2e15 17       		.uleb128 0x17
 12327 2e16 20       		.byte	0x20
 12328 2e17 31       		.byte	0x31
 12329 2e18 46       		.byte	0x46
 12330 2e19 7E2E0000 		.4byte	0x2e7e
 12331 2e1d 08       		.uleb128 0x8
ARM GAS  /var/folders/d2/nstgp4h54kz7g1l847x_b8wc0000gn/T//ccB20FE7.s 			page 223


 12332 2e1e 06100000 		.4byte	.LASF618
 12333 2e22 31       		.byte	0x31
 12334 2e23 47       		.byte	0x47
 12335 2e24 16010000 		.4byte	0x116
 12336 2e28 00       		.byte	0
 12337 2e29 08       		.uleb128 0x8
 12338 2e2a 63150000 		.4byte	.LASF619
 12339 2e2e 31       		.byte	0x31
 12340 2e2f 49       		.byte	0x49
 12341 2e30 16010000 		.4byte	0x116
 12342 2e34 04       		.byte	0x4
 12343 2e35 08       		.uleb128 0x8
 12344 2e36 03260000 		.4byte	.LASF620
 12345 2e3a 31       		.byte	0x31
 12346 2e3b 4A       		.byte	0x4a
 12347 2e3c 16010000 		.4byte	0x116
 12348 2e40 08       		.byte	0x8
 12349 2e41 08       		.uleb128 0x8
 12350 2e42 87150000 		.4byte	.LASF621
 12351 2e46 31       		.byte	0x31
 12352 2e47 4C       		.byte	0x4c
 12353 2e48 16010000 		.4byte	0x116
 12354 2e4c 0C       		.byte	0xc
 12355 2e4d 08       		.uleb128 0x8
 12356 2e4e 441B0000 		.4byte	.LASF622
 12357 2e52 31       		.byte	0x31
 12358 2e53 4D       		.byte	0x4d
 12359 2e54 16010000 		.4byte	0x116
 12360 2e58 10       		.byte	0x10
 12361 2e59 08       		.uleb128 0x8
 12362 2e5a A70F0000 		.4byte	.LASF614
 12363 2e5e 31       		.byte	0x31
 12364 2e5f 4F       		.byte	0x4f
 12365 2e60 16010000 		.4byte	0x116
 12366 2e64 14       		.byte	0x14
 12367 2e65 08       		.uleb128 0x8
 12368 2e66 CA080000 		.4byte	.LASF623
 12369 2e6a 31       		.byte	0x31
 12370 2e6b 50       		.byte	0x50
 12371 2e6c 16010000 		.4byte	0x116
 12372 2e70 18       		.byte	0x18
 12373 2e71 08       		.uleb128 0x8
 12374 2e72 EC250000 		.4byte	.LASF624
 12375 2e76 31       		.byte	0x31
 12376 2e77 52       		.byte	0x52
 12377 2e78 16010000 		.4byte	0x116
 12378 2e7c 1C       		.byte	0x1c
 12379 2e7d 00       		.byte	0
 12380 2e7e 03       		.uleb128 0x3
 12381 2e7f 140A0000 		.4byte	.LASF625
 12382 2e83 31       		.byte	0x31
 12383 2e84 53       		.byte	0x53
 12384 2e85 152E0000 		.4byte	0x2e15
 12385 2e89 17       		.uleb128 0x17
 12386 2e8a 20       		.byte	0x20
 12387 2e8b 31       		.byte	0x31
 12388 2e8c 58       		.byte	0x58
ARM GAS  /var/folders/d2/nstgp4h54kz7g1l847x_b8wc0000gn/T//ccB20FE7.s 			page 224


 12389 2e8d F22E0000 		.4byte	0x2ef2
 12390 2e91 08       		.uleb128 0x8
 12391 2e92 41210000 		.4byte	.LASF626
 12392 2e96 31       		.byte	0x31
 12393 2e97 59       		.byte	0x59
 12394 2e98 16010000 		.4byte	0x116
 12395 2e9c 00       		.byte	0
 12396 2e9d 08       		.uleb128 0x8
 12397 2e9e 63150000 		.4byte	.LASF619
 12398 2ea2 31       		.byte	0x31
 12399 2ea3 5B       		.byte	0x5b
 12400 2ea4 16010000 		.4byte	0x116
 12401 2ea8 04       		.byte	0x4
 12402 2ea9 08       		.uleb128 0x8
 12403 2eaa BD1C0000 		.4byte	.LASF627
 12404 2eae 31       		.byte	0x31
 12405 2eaf 5C       		.byte	0x5c
 12406 2eb0 16010000 		.4byte	0x116
 12407 2eb4 08       		.byte	0x8
 12408 2eb5 08       		.uleb128 0x8
 12409 2eb6 87150000 		.4byte	.LASF621
 12410 2eba 31       		.byte	0x31
 12411 2ebb 5E       		.byte	0x5e
 12412 2ebc 16010000 		.4byte	0x116
 12413 2ec0 0C       		.byte	0xc
 12414 2ec1 08       		.uleb128 0x8
 12415 2ec2 56270000 		.4byte	.LASF628
 12416 2ec6 31       		.byte	0x31
 12417 2ec7 5F       		.byte	0x5f
 12418 2ec8 16010000 		.4byte	0x116
 12419 2ecc 10       		.byte	0x10
 12420 2ecd 08       		.uleb128 0x8
 12421 2ece A70F0000 		.4byte	.LASF614
 12422 2ed2 31       		.byte	0x31
 12423 2ed3 61       		.byte	0x61
 12424 2ed4 16010000 		.4byte	0x116
 12425 2ed8 14       		.byte	0x14
 12426 2ed9 08       		.uleb128 0x8
 12427 2eda AF0F0000 		.4byte	.LASF615
 12428 2ede 31       		.byte	0x31
 12429 2edf 62       		.byte	0x62
 12430 2ee0 16010000 		.4byte	0x116
 12431 2ee4 18       		.byte	0x18
 12432 2ee5 08       		.uleb128 0x8
 12433 2ee6 EC250000 		.4byte	.LASF624
 12434 2eea 31       		.byte	0x31
 12435 2eeb 63       		.byte	0x63
 12436 2eec 16010000 		.4byte	0x116
 12437 2ef0 1C       		.byte	0x1c
 12438 2ef1 00       		.byte	0
 12439 2ef2 03       		.uleb128 0x3
 12440 2ef3 AF090000 		.4byte	.LASF629
 12441 2ef7 31       		.byte	0x31
 12442 2ef8 64       		.byte	0x64
 12443 2ef9 892E0000 		.4byte	0x2e89
 12444 2efd 28       		.uleb128 0x28
 12445 2efe 00100100 		.4byte	0x11000
ARM GAS  /var/folders/d2/nstgp4h54kz7g1l847x_b8wc0000gn/T//ccB20FE7.s 			page 225


 12446 2f02 31       		.byte	0x31
 12447 2f03 69       		.byte	0x69
 12448 2f04 DA310000 		.4byte	0x31da
 12449 2f08 08       		.uleb128 0x8
 12450 2f09 73060000 		.4byte	.LASF630
 12451 2f0d 31       		.byte	0x31
 12452 2f0e 6A       		.byte	0x6a
 12453 2f0f 16010000 		.4byte	0x116
 12454 2f13 00       		.byte	0
 12455 2f14 08       		.uleb128 0x8
 12456 2f15 3F0E0000 		.4byte	.LASF631
 12457 2f19 31       		.byte	0x31
 12458 2f1a 6B       		.byte	0x6b
 12459 2f1b 16010000 		.4byte	0x116
 12460 2f1f 04       		.byte	0x4
 12461 2f20 08       		.uleb128 0x8
 12462 2f21 22090000 		.4byte	.LASF632
 12463 2f25 31       		.byte	0x31
 12464 2f26 6C       		.byte	0x6c
 12465 2f27 16010000 		.4byte	0x116
 12466 2f2b 08       		.byte	0x8
 12467 2f2c 08       		.uleb128 0x8
 12468 2f2d 302B0000 		.4byte	.LASF633
 12469 2f31 31       		.byte	0x31
 12470 2f32 6D       		.byte	0x6d
 12471 2f33 16010000 		.4byte	0x116
 12472 2f37 0C       		.byte	0xc
 12473 2f38 08       		.uleb128 0x8
 12474 2f39 5C170000 		.4byte	.LASF634
 12475 2f3d 31       		.byte	0x31
 12476 2f3e 6E       		.byte	0x6e
 12477 2f3f 16010000 		.4byte	0x116
 12478 2f43 10       		.byte	0x10
 12479 2f44 08       		.uleb128 0x8
 12480 2f45 BB0D0000 		.4byte	.LASF635
 12481 2f49 31       		.byte	0x31
 12482 2f4a 6F       		.byte	0x6f
 12483 2f4b 16010000 		.4byte	0x116
 12484 2f4f 14       		.byte	0x14
 12485 2f50 08       		.uleb128 0x8
 12486 2f51 681F0000 		.4byte	.LASF636
 12487 2f55 31       		.byte	0x31
 12488 2f56 70       		.byte	0x70
 12489 2f57 16010000 		.4byte	0x116
 12490 2f5b 18       		.byte	0x18
 12491 2f5c 08       		.uleb128 0x8
 12492 2f5d CA090000 		.4byte	.LASF637
 12493 2f61 31       		.byte	0x31
 12494 2f62 71       		.byte	0x71
 12495 2f63 16010000 		.4byte	0x116
 12496 2f67 1C       		.byte	0x1c
 12497 2f68 08       		.uleb128 0x8
 12498 2f69 C2090000 		.4byte	.LASF638
 12499 2f6d 31       		.byte	0x31
 12500 2f6e 73       		.byte	0x73
 12501 2f6f 16010000 		.4byte	0x116
 12502 2f73 20       		.byte	0x20
ARM GAS  /var/folders/d2/nstgp4h54kz7g1l847x_b8wc0000gn/T//ccB20FE7.s 			page 226


 12503 2f74 08       		.uleb128 0x8
 12504 2f75 E31E0000 		.4byte	.LASF639
 12505 2f79 31       		.byte	0x31
 12506 2f7a 75       		.byte	0x75
 12507 2f7b 16010000 		.4byte	0x116
 12508 2f7f 24       		.byte	0x24
 12509 2f80 08       		.uleb128 0x8
 12510 2f81 0F010000 		.4byte	.LASF640
 12511 2f85 31       		.byte	0x31
 12512 2f86 76       		.byte	0x76
 12513 2f87 16010000 		.4byte	0x116
 12514 2f8b 28       		.byte	0x28
 12515 2f8c 08       		.uleb128 0x8
 12516 2f8d 701F0000 		.4byte	.LASF641
 12517 2f91 31       		.byte	0x31
 12518 2f92 78       		.byte	0x78
 12519 2f93 16010000 		.4byte	0x116
 12520 2f97 2C       		.byte	0x2c
 12521 2f98 08       		.uleb128 0x8
 12522 2f99 FE100000 		.4byte	.LASF642
 12523 2f9d 31       		.byte	0x31
 12524 2f9e 7A       		.byte	0x7a
 12525 2f9f 16010000 		.4byte	0x116
 12526 2fa3 30       		.byte	0x30
 12527 2fa4 08       		.uleb128 0x8
 12528 2fa5 0D110000 		.4byte	.LASF643
 12529 2fa9 31       		.byte	0x31
 12530 2faa 7B       		.byte	0x7b
 12531 2fab 16010000 		.4byte	0x116
 12532 2faf 34       		.byte	0x34
 12533 2fb0 08       		.uleb128 0x8
 12534 2fb1 D8020000 		.4byte	.LASF644
 12535 2fb5 31       		.byte	0x31
 12536 2fb6 7C       		.byte	0x7c
 12537 2fb7 16010000 		.4byte	0x116
 12538 2fbb 38       		.byte	0x38
 12539 2fbc 18       		.uleb128 0x18
 12540 2fbd 43494400 		.ascii	"CID\000"
 12541 2fc1 31       		.byte	0x31
 12542 2fc2 7D       		.byte	0x7d
 12543 2fc3 16010000 		.4byte	0x116
 12544 2fc7 3C       		.byte	0x3c
 12545 2fc8 08       		.uleb128 0x8
 12546 2fc9 DF130000 		.4byte	.LASF645
 12547 2fcd 31       		.byte	0x31
 12548 2fce 7E       		.byte	0x7e
 12549 2fcf EA310000 		.4byte	0x31ea
 12550 2fd3 40       		.byte	0x40
 12551 2fd4 27       		.uleb128 0x27
 12552 2fd5 24280000 		.4byte	.LASF646
 12553 2fd9 31       		.byte	0x31
 12554 2fda 7F       		.byte	0x7f
 12555 2fdb 16010000 		.4byte	0x116
 12556 2fdf 0001     		.2byte	0x100
 12557 2fe1 27       		.uleb128 0x27
 12558 2fe2 55030000 		.4byte	.LASF647
 12559 2fe6 31       		.byte	0x31
ARM GAS  /var/folders/d2/nstgp4h54kz7g1l847x_b8wc0000gn/T//ccB20FE7.s 			page 227


 12560 2fe7 81       		.byte	0x81
 12561 2fe8 840D0000 		.4byte	0xd84
 12562 2fec 0401     		.2byte	0x104
 12563 2fee 27       		.uleb128 0x27
 12564 2fef 5E180000 		.4byte	.LASF648
 12565 2ff3 31       		.byte	0x31
 12566 2ff4 83       		.byte	0x83
 12567 2ff5 FF310000 		.4byte	0x31ff
 12568 2ff9 4001     		.2byte	0x140
 12569 2ffb 27       		.uleb128 0x27
 12570 2ffc 421C0000 		.4byte	.LASF649
 12571 3000 31       		.byte	0x31
 12572 3001 84       		.byte	0x84
 12573 3002 16010000 		.4byte	0x116
 12574 3006 0004     		.2byte	0x400
 12575 3008 27       		.uleb128 0x27
 12576 3009 BC2A0000 		.4byte	.LASF650
 12577 300d 31       		.byte	0x31
 12578 300e 85       		.byte	0x85
 12579 300f 16010000 		.4byte	0x116
 12580 3013 0404     		.2byte	0x404
 12581 3015 27       		.uleb128 0x27
 12582 3016 AA050000 		.4byte	.LASF651
 12583 301a 31       		.byte	0x31
 12584 301b 86       		.byte	0x86
 12585 301c 16010000 		.4byte	0x116
 12586 3020 0804     		.2byte	0x408
 12587 3022 27       		.uleb128 0x27
 12588 3023 8D270000 		.4byte	.LASF652
 12589 3027 31       		.byte	0x31
 12590 3028 88       		.byte	0x88
 12591 3029 16010000 		.4byte	0x116
 12592 302d 0C04     		.2byte	0x40c
 12593 302f 27       		.uleb128 0x27
 12594 3030 6A040000 		.4byte	.LASF653
 12595 3034 31       		.byte	0x31
 12596 3035 89       		.byte	0x89
 12597 3036 16010000 		.4byte	0x116
 12598 303a 1004     		.2byte	0x410
 12599 303c 27       		.uleb128 0x27
 12600 303d 8B050000 		.4byte	.LASF654
 12601 3041 31       		.byte	0x31
 12602 3042 8B       		.byte	0x8b
 12603 3043 16010000 		.4byte	0x116
 12604 3047 1404     		.2byte	0x414
 12605 3049 27       		.uleb128 0x27
 12606 304a 530E0000 		.4byte	.LASF655
 12607 304e 31       		.byte	0x31
 12608 304f 8D       		.byte	0x8d
 12609 3050 16010000 		.4byte	0x116
 12610 3054 1804     		.2byte	0x418
 12611 3056 27       		.uleb128 0x27
 12612 3057 EE220000 		.4byte	.LASF656
 12613 305b 31       		.byte	0x31
 12614 305c 8F       		.byte	0x8f
 12615 305d 14320000 		.4byte	0x3214
 12616 3061 1C04     		.2byte	0x41c
ARM GAS  /var/folders/d2/nstgp4h54kz7g1l847x_b8wc0000gn/T//ccB20FE7.s 			page 228


 12617 3063 27       		.uleb128 0x27
 12618 3064 D2030000 		.4byte	.LASF657
 12619 3068 31       		.byte	0x31
 12620 3069 90       		.byte	0x90
 12621 306a 16010000 		.4byte	0x116
 12622 306e 4004     		.2byte	0x440
 12623 3070 27       		.uleb128 0x27
 12624 3071 F4240000 		.4byte	.LASF658
 12625 3075 31       		.byte	0x31
 12626 3076 92       		.byte	0x92
 12627 3077 29320000 		.4byte	0x3229
 12628 307b 4404     		.2byte	0x444
 12629 307d 29       		.uleb128 0x29
 12630 307e 686300   		.ascii	"hc\000"
 12631 3081 31       		.byte	0x31
 12632 3082 93       		.byte	0x93
 12633 3083 2E320000 		.4byte	0x322e
 12634 3087 0005     		.2byte	0x500
 12635 3089 27       		.uleb128 0x27
 12636 308a CC270000 		.4byte	.LASF659
 12637 308e 31       		.byte	0x31
 12638 308f 94       		.byte	0x94
 12639 3090 4E320000 		.4byte	0x324e
 12640 3094 0007     		.2byte	0x700
 12641 3096 27       		.uleb128 0x27
 12642 3097 521F0000 		.4byte	.LASF660
 12643 309b 31       		.byte	0x31
 12644 309c 95       		.byte	0x95
 12645 309d 16010000 		.4byte	0x116
 12646 30a1 0008     		.2byte	0x800
 12647 30a3 27       		.uleb128 0x27
 12648 30a4 0B290000 		.4byte	.LASF661
 12649 30a8 31       		.byte	0x31
 12650 30a9 96       		.byte	0x96
 12651 30aa 16010000 		.4byte	0x116
 12652 30ae 0408     		.2byte	0x804
 12653 30b0 27       		.uleb128 0x27
 12654 30b1 49070000 		.4byte	.LASF662
 12655 30b5 31       		.byte	0x31
 12656 30b6 97       		.byte	0x97
 12657 30b7 16010000 		.4byte	0x116
 12658 30bb 0808     		.2byte	0x808
 12659 30bd 27       		.uleb128 0x27
 12660 30be 5C060000 		.4byte	.LASF663
 12661 30c2 31       		.byte	0x31
 12662 30c3 98       		.byte	0x98
 12663 30c4 16010000 		.4byte	0x116
 12664 30c8 0C08     		.2byte	0x80c
 12665 30ca 27       		.uleb128 0x27
 12666 30cb 370E0000 		.4byte	.LASF664
 12667 30cf 31       		.byte	0x31
 12668 30d0 99       		.byte	0x99
 12669 30d1 16010000 		.4byte	0x116
 12670 30d5 1008     		.2byte	0x810
 12671 30d7 27       		.uleb128 0x27
 12672 30d8 24260000 		.4byte	.LASF665
 12673 30dc 31       		.byte	0x31
ARM GAS  /var/folders/d2/nstgp4h54kz7g1l847x_b8wc0000gn/T//ccB20FE7.s 			page 229


 12674 30dd 9B       		.byte	0x9b
 12675 30de 16010000 		.4byte	0x116
 12676 30e2 1408     		.2byte	0x814
 12677 30e4 27       		.uleb128 0x27
 12678 30e5 AA260000 		.4byte	.LASF666
 12679 30e9 31       		.byte	0x31
 12680 30ea 9D       		.byte	0x9d
 12681 30eb 16010000 		.4byte	0x116
 12682 30ef 1808     		.2byte	0x818
 12683 30f1 27       		.uleb128 0x27
 12684 30f2 95230000 		.4byte	.LASF667
 12685 30f6 31       		.byte	0x31
 12686 30f7 9F       		.byte	0x9f
 12687 30f8 16010000 		.4byte	0x116
 12688 30fc 1C08     		.2byte	0x81c
 12689 30fe 27       		.uleb128 0x27
 12690 30ff BC070000 		.4byte	.LASF668
 12691 3103 31       		.byte	0x31
 12692 3104 A1       		.byte	0xa1
 12693 3105 16010000 		.4byte	0x116
 12694 3109 2008     		.2byte	0x820
 12695 310b 27       		.uleb128 0x27
 12696 310c B3060000 		.4byte	.LASF669
 12697 3110 31       		.byte	0x31
 12698 3111 A2       		.byte	0xa2
 12699 3112 16010000 		.4byte	0x116
 12700 3116 2408     		.2byte	0x824
 12701 3118 27       		.uleb128 0x27
 12702 3119 5F1F0000 		.4byte	.LASF670
 12703 311d 31       		.byte	0x31
 12704 311e A3       		.byte	0xa3
 12705 311f 16010000 		.4byte	0x116
 12706 3123 2808     		.2byte	0x828
 12707 3125 27       		.uleb128 0x27
 12708 3126 15110000 		.4byte	.LASF671
 12709 312a 31       		.byte	0x31
 12710 312b A5       		.byte	0xa5
 12711 312c 16010000 		.4byte	0x116
 12712 3130 2C08     		.2byte	0x82c
 12713 3132 27       		.uleb128 0x27
 12714 3133 4F080000 		.4byte	.LASF672
 12715 3137 31       		.byte	0x31
 12716 3138 A7       		.byte	0xa7
 12717 3139 16010000 		.4byte	0x116
 12718 313d 3008     		.2byte	0x830
 12719 313f 27       		.uleb128 0x27
 12720 3140 EC0F0000 		.4byte	.LASF673
 12721 3144 31       		.byte	0x31
 12722 3145 A8       		.byte	0xa8
 12723 3146 16010000 		.4byte	0x116
 12724 314a 3408     		.2byte	0x834
 12725 314c 27       		.uleb128 0x27
 12726 314d 62080000 		.4byte	.LASF674
 12727 3151 31       		.byte	0x31
 12728 3152 AA       		.byte	0xaa
 12729 3153 16010000 		.4byte	0x116
 12730 3157 3808     		.2byte	0x838
ARM GAS  /var/folders/d2/nstgp4h54kz7g1l847x_b8wc0000gn/T//ccB20FE7.s 			page 230


 12731 3159 27       		.uleb128 0x27
 12732 315a 8C080000 		.4byte	.LASF675
 12733 315e 31       		.byte	0x31
 12734 315f AB       		.byte	0xab
 12735 3160 16010000 		.4byte	0x116
 12736 3164 3C08     		.2byte	0x83c
 12737 3166 27       		.uleb128 0x27
 12738 3167 4A090000 		.4byte	.LASF676
 12739 316b 31       		.byte	0x31
 12740 316c AC       		.byte	0xac
 12741 316d 63320000 		.4byte	0x3263
 12742 3171 4008     		.2byte	0x840
 12743 3173 27       		.uleb128 0x27
 12744 3174 710F0000 		.4byte	.LASF677
 12745 3178 31       		.byte	0x31
 12746 3179 AD       		.byte	0xad
 12747 317a 63320000 		.4byte	0x3263
 12748 317e 8008     		.2byte	0x880
 12749 3180 27       		.uleb128 0x27
 12750 3181 74150000 		.4byte	.LASF678
 12751 3185 31       		.byte	0x31
 12752 3186 AE       		.byte	0xae
 12753 3187 63320000 		.4byte	0x3263
 12754 318b C008     		.2byte	0x8c0
 12755 318d 29       		.uleb128 0x29
 12756 318e 696500   		.ascii	"ie\000"
 12757 3191 31       		.byte	0x31
 12758 3192 AF       		.byte	0xaf
 12759 3193 68320000 		.4byte	0x3268
 12760 3197 0009     		.2byte	0x900
 12761 3199 29       		.uleb128 0x29
 12762 319a 6F6500   		.ascii	"oe\000"
 12763 319d 31       		.byte	0x31
 12764 319e B0       		.byte	0xb0
 12765 319f 78320000 		.4byte	0x3278
 12766 31a3 000B     		.2byte	0xb00
 12767 31a5 27       		.uleb128 0x27
 12768 31a6 980D0000 		.4byte	.LASF679
 12769 31aa 31       		.byte	0x31
 12770 31ab B1       		.byte	0xb1
 12771 31ac 4E320000 		.4byte	0x324e
 12772 31b0 000D     		.2byte	0xd00
 12773 31b2 27       		.uleb128 0x27
 12774 31b3 23290000 		.4byte	.LASF680
 12775 31b7 31       		.byte	0x31
 12776 31b8 B2       		.byte	0xb2
 12777 31b9 16010000 		.4byte	0x116
 12778 31bd 000E     		.2byte	0xe00
 12779 31bf 27       		.uleb128 0x27
 12780 31c0 CD1B0000 		.4byte	.LASF681
 12781 31c4 31       		.byte	0x31
 12782 31c5 B4       		.byte	0xb4
 12783 31c6 98320000 		.4byte	0x3298
 12784 31ca 040E     		.2byte	0xe04
 12785 31cc 27       		.uleb128 0x27
 12786 31cd 4F0B0000 		.4byte	.LASF182
 12787 31d1 31       		.byte	0x31
ARM GAS  /var/folders/d2/nstgp4h54kz7g1l847x_b8wc0000gn/T//ccB20FE7.s 			page 231


 12788 31d2 B5       		.byte	0xb5
 12789 31d3 B4320000 		.4byte	0x32b4
 12790 31d7 0010     		.2byte	0x1000
 12791 31d9 00       		.byte	0
 12792 31da 13       		.uleb128 0x13
 12793 31db 16010000 		.4byte	0x116
 12794 31df EA310000 		.4byte	0x31ea
 12795 31e3 14       		.uleb128 0x14
 12796 31e4 37000000 		.4byte	0x37
 12797 31e8 2F       		.byte	0x2f
 12798 31e9 00       		.byte	0
 12799 31ea 06       		.uleb128 0x6
 12800 31eb DA310000 		.4byte	0x31da
 12801 31ef 13       		.uleb128 0x13
 12802 31f0 16010000 		.4byte	0x116
 12803 31f4 FF310000 		.4byte	0x31ff
 12804 31f8 14       		.uleb128 0x14
 12805 31f9 37000000 		.4byte	0x37
 12806 31fd AF       		.byte	0xaf
 12807 31fe 00       		.byte	0
 12808 31ff 06       		.uleb128 0x6
 12809 3200 EF310000 		.4byte	0x31ef
 12810 3204 13       		.uleb128 0x13
 12811 3205 16010000 		.4byte	0x116
 12812 3209 14320000 		.4byte	0x3214
 12813 320d 14       		.uleb128 0x14
 12814 320e 37000000 		.4byte	0x37
 12815 3212 08       		.byte	0x8
 12816 3213 00       		.byte	0
 12817 3214 06       		.uleb128 0x6
 12818 3215 04320000 		.4byte	0x3204
 12819 3219 13       		.uleb128 0x13
 12820 321a 16010000 		.4byte	0x116
 12821 321e 29320000 		.4byte	0x3229
 12822 3222 14       		.uleb128 0x14
 12823 3223 37000000 		.4byte	0x37
 12824 3227 2E       		.byte	0x2e
 12825 3228 00       		.byte	0
 12826 3229 06       		.uleb128 0x6
 12827 322a 19320000 		.4byte	0x3219
 12828 322e 13       		.uleb128 0x13
 12829 322f 0A2E0000 		.4byte	0x2e0a
 12830 3233 3E320000 		.4byte	0x323e
 12831 3237 14       		.uleb128 0x14
 12832 3238 37000000 		.4byte	0x37
 12833 323c 0F       		.byte	0xf
 12834 323d 00       		.byte	0
 12835 323e 13       		.uleb128 0x13
 12836 323f 16010000 		.4byte	0x116
 12837 3243 4E320000 		.4byte	0x324e
 12838 3247 14       		.uleb128 0x14
 12839 3248 37000000 		.4byte	0x37
 12840 324c 3F       		.byte	0x3f
 12841 324d 00       		.byte	0
 12842 324e 06       		.uleb128 0x6
 12843 324f 3E320000 		.4byte	0x323e
 12844 3253 13       		.uleb128 0x13
ARM GAS  /var/folders/d2/nstgp4h54kz7g1l847x_b8wc0000gn/T//ccB20FE7.s 			page 232


 12845 3254 16010000 		.4byte	0x116
 12846 3258 63320000 		.4byte	0x3263
 12847 325c 14       		.uleb128 0x14
 12848 325d 37000000 		.4byte	0x37
 12849 3261 0F       		.byte	0xf
 12850 3262 00       		.byte	0
 12851 3263 06       		.uleb128 0x6
 12852 3264 53320000 		.4byte	0x3253
 12853 3268 13       		.uleb128 0x13
 12854 3269 7E2E0000 		.4byte	0x2e7e
 12855 326d 78320000 		.4byte	0x3278
 12856 3271 14       		.uleb128 0x14
 12857 3272 37000000 		.4byte	0x37
 12858 3276 0F       		.byte	0xf
 12859 3277 00       		.byte	0
 12860 3278 13       		.uleb128 0x13
 12861 3279 F22E0000 		.4byte	0x2ef2
 12862 327d 88320000 		.4byte	0x3288
 12863 3281 14       		.uleb128 0x14
 12864 3282 37000000 		.4byte	0x37
 12865 3286 0F       		.byte	0xf
 12866 3287 00       		.byte	0
 12867 3288 13       		.uleb128 0x13
 12868 3289 16010000 		.4byte	0x116
 12869 328d 98320000 		.4byte	0x3298
 12870 3291 14       		.uleb128 0x14
 12871 3292 37000000 		.4byte	0x37
 12872 3296 7E       		.byte	0x7e
 12873 3297 00       		.byte	0
 12874 3298 06       		.uleb128 0x6
 12875 3299 88320000 		.4byte	0x3288
 12876 329d 13       		.uleb128 0x13
 12877 329e 16010000 		.4byte	0x116
 12878 32a2 B4320000 		.4byte	0x32b4
 12879 32a6 14       		.uleb128 0x14
 12880 32a7 37000000 		.4byte	0x37
 12881 32ab 0F       		.byte	0xf
 12882 32ac 2A       		.uleb128 0x2a
 12883 32ad 37000000 		.4byte	0x37
 12884 32b1 FF03     		.2byte	0x3ff
 12885 32b3 00       		.byte	0
 12886 32b4 06       		.uleb128 0x6
 12887 32b5 9D320000 		.4byte	0x329d
 12888 32b9 03       		.uleb128 0x3
 12889 32ba 5D2B0000 		.4byte	.LASF682
 12890 32be 31       		.byte	0x31
 12891 32bf B6       		.byte	0xb6
 12892 32c0 FD2E0000 		.4byte	0x2efd
 12893 32c4 17       		.uleb128 0x17
 12894 32c5 0C       		.byte	0xc
 12895 32c6 30       		.byte	0x30
 12896 32c7 C6       		.byte	0xc6
 12897 32c8 F1320000 		.4byte	0x32f1
 12898 32cc 08       		.uleb128 0x8
 12899 32cd E00A0000 		.4byte	.LASF683
 12900 32d1 30       		.byte	0x30
 12901 32d2 C7       		.byte	0xc7
ARM GAS  /var/folders/d2/nstgp4h54kz7g1l847x_b8wc0000gn/T//ccB20FE7.s 			page 233


 12902 32d3 0B010000 		.4byte	0x10b
 12903 32d7 00       		.byte	0
 12904 32d8 08       		.uleb128 0x8
 12905 32d9 4E0D0000 		.4byte	.LASF684
 12906 32dd 30       		.byte	0x30
 12907 32de C8       		.byte	0xc8
 12908 32df 0B010000 		.4byte	0x10b
 12909 32e3 04       		.byte	0x4
 12910 32e4 08       		.uleb128 0x8
 12911 32e5 75110000 		.4byte	.LASF685
 12912 32e9 30       		.byte	0x30
 12913 32ea C9       		.byte	0xc9
 12914 32eb 0B010000 		.4byte	0x10b
 12915 32ef 08       		.byte	0x8
 12916 32f0 00       		.byte	0
 12917 32f1 03       		.uleb128 0x3
 12918 32f2 850D0000 		.4byte	.LASF686
 12919 32f6 30       		.byte	0x30
 12920 32f7 CA       		.byte	0xca
 12921 32f8 C4320000 		.4byte	0x32c4
 12922 32fc 05       		.uleb128 0x5
 12923 32fd F1320000 		.4byte	0x32f1
 12924 3301 17       		.uleb128 0x17
 12925 3302 04       		.byte	0x4
 12926 3303 30       		.byte	0x30
 12927 3304 DD       		.byte	0xdd
 12928 3305 16330000 		.4byte	0x3316
 12929 3309 08       		.uleb128 0x8
 12930 330a 1D290000 		.4byte	.LASF687
 12931 330e 30       		.byte	0x30
 12932 330f E1       		.byte	0xe1
 12933 3310 BD130000 		.4byte	0x13bd
 12934 3314 00       		.byte	0
 12935 3315 00       		.byte	0
 12936 3316 17       		.uleb128 0x17
 12937 3317 04       		.byte	0x4
 12938 3318 30       		.byte	0x30
 12939 3319 E3       		.byte	0xe3
 12940 331a 2B330000 		.4byte	0x332b
 12941 331e 08       		.uleb128 0x8
 12942 331f 5E0B0000 		.4byte	.LASF373
 12943 3323 30       		.byte	0x30
 12944 3324 E7       		.byte	0xe7
 12945 3325 2B330000 		.4byte	0x332b
 12946 3329 00       		.byte	0
 12947 332a 00       		.byte	0
 12948 332b 0B       		.uleb128 0xb
 12949 332c 04       		.byte	0x4
 12950 332d 99130000 		.4byte	0x1399
 12951 3331 1D       		.uleb128 0x1d
 12952 3332 04       		.byte	0x4
 12953 3333 30       		.byte	0x30
 12954 3334 DC       		.byte	0xdc
 12955 3335 50330000 		.4byte	0x3350
 12956 3339 2B       		.uleb128 0x2b
 12957 333a 3C250000 		.4byte	.LASF688
 12958 333e 30       		.byte	0x30
ARM GAS  /var/folders/d2/nstgp4h54kz7g1l847x_b8wc0000gn/T//ccB20FE7.s 			page 234


 12959 333f E2       		.byte	0xe2
 12960 3340 01330000 		.4byte	0x3301
 12961 3344 2B       		.uleb128 0x2b
 12962 3345 0A240000 		.4byte	.LASF689
 12963 3349 30       		.byte	0x30
 12964 334a E8       		.byte	0xe8
 12965 334b 16330000 		.4byte	0x3316
 12966 334f 00       		.byte	0
 12967 3350 17       		.uleb128 0x17
 12968 3351 14       		.byte	0x14
 12969 3352 30       		.byte	0x30
 12970 3353 CF       		.byte	0xcf
 12971 3354 95330000 		.4byte	0x3395
 12972 3358 08       		.uleb128 0x8
 12973 3359 93090000 		.4byte	.LASF690
 12974 335d 30       		.byte	0x30
 12975 335e D3       		.byte	0xd3
 12976 335f A4150000 		.4byte	0x15a4
 12977 3363 00       		.byte	0
 12978 3364 08       		.uleb128 0x8
 12979 3365 C6160000 		.4byte	.LASF691
 12980 3369 30       		.byte	0x30
 12981 336a D7       		.byte	0xd7
 12982 336b 2C000000 		.4byte	0x2c
 12983 336f 04       		.byte	0x4
 12984 3370 08       		.uleb128 0x8
 12985 3371 F50C0000 		.4byte	.LASF692
 12986 3375 30       		.byte	0x30
 12987 3376 DB       		.byte	0xdb
 12988 3377 2C000000 		.4byte	0x2c
 12989 337b 08       		.byte	0x8
 12990 337c 08       		.uleb128 0x8
 12991 337d 4B0A0000 		.4byte	.LASF419
 12992 3381 30       		.byte	0x30
 12993 3382 E9       		.byte	0xe9
 12994 3383 31330000 		.4byte	0x3331
 12995 3387 0C       		.byte	0xc
 12996 3388 08       		.uleb128 0x8
 12997 3389 8D110000 		.4byte	.LASF693
 12998 338d 30       		.byte	0x30
 12999 338e ED       		.byte	0xed
 13000 338f 2C000000 		.4byte	0x2c
 13001 3393 10       		.byte	0x10
 13002 3394 00       		.byte	0
 13003 3395 03       		.uleb128 0x3
 13004 3396 E7130000 		.4byte	.LASF694
 13005 339a 30       		.byte	0x30
 13006 339b EE       		.byte	0xee
 13007 339c 50330000 		.4byte	0x3350
 13008 33a0 19       		.uleb128 0x19
 13009 33a1 04       		.byte	0x4
 13010 33a2 30       		.byte	0x30
 13011 33a3 0101     		.2byte	0x101
 13012 33a5 B7330000 		.4byte	0x33b7
 13013 33a9 0A       		.uleb128 0xa
 13014 33aa A80D0000 		.4byte	.LASF695
 13015 33ae 30       		.byte	0x30
ARM GAS  /var/folders/d2/nstgp4h54kz7g1l847x_b8wc0000gn/T//ccB20FE7.s 			page 235


 13016 33af 0501     		.2byte	0x105
 13017 33b1 88130000 		.4byte	0x1388
 13018 33b5 00       		.byte	0
 13019 33b6 00       		.byte	0
 13020 33b7 19       		.uleb128 0x19
 13021 33b8 04       		.byte	0x4
 13022 33b9 30       		.byte	0x30
 13023 33ba 0701     		.2byte	0x107
 13024 33bc CE330000 		.4byte	0x33ce
 13025 33c0 0A       		.uleb128 0xa
 13026 33c1 E4240000 		.4byte	.LASF374
 13027 33c5 30       		.byte	0x30
 13028 33c6 0B01     		.2byte	0x10b
 13029 33c8 CE330000 		.4byte	0x33ce
 13030 33cc 00       		.byte	0
 13031 33cd 00       		.byte	0
 13032 33ce 0B       		.uleb128 0xb
 13033 33cf 04       		.byte	0x4
 13034 33d0 8E130000 		.4byte	0x138e
 13035 33d4 2C       		.uleb128 0x2c
 13036 33d5 04       		.byte	0x4
 13037 33d6 30       		.byte	0x30
 13038 33d7 0001     		.2byte	0x100
 13039 33d9 F6330000 		.4byte	0x33f6
 13040 33dd 1E       		.uleb128 0x1e
 13041 33de 3C250000 		.4byte	.LASF688
 13042 33e2 30       		.byte	0x30
 13043 33e3 0601     		.2byte	0x106
 13044 33e5 A0330000 		.4byte	0x33a0
 13045 33e9 1E       		.uleb128 0x1e
 13046 33ea 0A240000 		.4byte	.LASF689
 13047 33ee 30       		.byte	0x30
 13048 33ef 0C01     		.2byte	0x10c
 13049 33f1 B7330000 		.4byte	0x33b7
 13050 33f5 00       		.byte	0
 13051 33f6 17       		.uleb128 0x17
 13052 33f7 14       		.byte	0x14
 13053 33f8 30       		.byte	0x30
 13054 33f9 F3       		.byte	0xf3
 13055 33fa 3D340000 		.4byte	0x343d
 13056 33fe 08       		.uleb128 0x8
 13057 33ff 8A070000 		.4byte	.LASF696
 13058 3403 30       		.byte	0x30
 13059 3404 F7       		.byte	0xf7
 13060 3405 A4150000 		.4byte	0x15a4
 13061 3409 00       		.byte	0
 13062 340a 08       		.uleb128 0x8
 13063 340b D0170000 		.4byte	.LASF697
 13064 340f 30       		.byte	0x30
 13065 3410 FB       		.byte	0xfb
 13066 3411 2C000000 		.4byte	0x2c
 13067 3415 04       		.byte	0x4
 13068 3416 08       		.uleb128 0x8
 13069 3417 260A0000 		.4byte	.LASF698
 13070 341b 30       		.byte	0x30
 13071 341c FF       		.byte	0xff
 13072 341d 2C000000 		.4byte	0x2c
ARM GAS  /var/folders/d2/nstgp4h54kz7g1l847x_b8wc0000gn/T//ccB20FE7.s 			page 236


 13073 3421 08       		.byte	0x8
 13074 3422 0A       		.uleb128 0xa
 13075 3423 4B0A0000 		.4byte	.LASF419
 13076 3427 30       		.byte	0x30
 13077 3428 0D01     		.2byte	0x10d
 13078 342a D4330000 		.4byte	0x33d4
 13079 342e 0C       		.byte	0xc
 13080 342f 0A       		.uleb128 0xa
 13081 3430 8D110000 		.4byte	.LASF693
 13082 3434 30       		.byte	0x30
 13083 3435 1101     		.2byte	0x111
 13084 3437 2C000000 		.4byte	0x2c
 13085 343b 10       		.byte	0x10
 13086 343c 00       		.byte	0
 13087 343d 1A       		.uleb128 0x1a
 13088 343e C9220000 		.4byte	.LASF699
 13089 3442 30       		.byte	0x30
 13090 3443 1201     		.2byte	0x112
 13091 3445 F6330000 		.4byte	0x33f6
 13092 3449 19       		.uleb128 0x19
 13093 344a 24       		.byte	0x24
 13094 344b 30       		.byte	0x30
 13095 344c 1801     		.2byte	0x118
 13096 344e D5340000 		.4byte	0x34d5
 13097 3452 0A       		.uleb128 0xa
 13098 3453 931B0000 		.4byte	.LASF700
 13099 3457 30       		.byte	0x30
 13100 3458 1C01     		.2byte	0x11c
 13101 345a 0B010000 		.4byte	0x10b
 13102 345e 00       		.byte	0
 13103 345f 0A       		.uleb128 0xa
 13104 3460 300B0000 		.4byte	.LASF701
 13105 3464 30       		.byte	0x30
 13106 3465 2701     		.2byte	0x127
 13107 3467 062D0000 		.4byte	0x2d06
 13108 346b 04       		.byte	0x4
 13109 346c 0A       		.uleb128 0xa
 13110 346d B71C0000 		.4byte	.LASF702
 13111 3471 30       		.byte	0x30
 13112 3472 2D01     		.2byte	0x12d
 13113 3474 062D0000 		.4byte	0x2d06
 13114 3478 08       		.byte	0x8
 13115 3479 0A       		.uleb128 0xa
 13116 347a 4C0E0000 		.4byte	.LASF703
 13117 347e 30       		.byte	0x30
 13118 347f 3301     		.2byte	0x133
 13119 3481 062D0000 		.4byte	0x2d06
 13120 3485 0C       		.byte	0xc
 13121 3486 0A       		.uleb128 0xa
 13122 3487 AA2B0000 		.4byte	.LASF704
 13123 348b 30       		.byte	0x30
 13124 348c 3901     		.2byte	0x139
 13125 348e F0000000 		.4byte	0xf0
 13126 3492 10       		.byte	0x10
 13127 3493 0A       		.uleb128 0xa
 13128 3494 B20E0000 		.4byte	.LASF705
 13129 3498 30       		.byte	0x30
ARM GAS  /var/folders/d2/nstgp4h54kz7g1l847x_b8wc0000gn/T//ccB20FE7.s 			page 237


 13130 3499 3F01     		.2byte	0x13f
 13131 349b F0000000 		.4byte	0xf0
 13132 349f 12       		.byte	0x12
 13133 34a0 0A       		.uleb128 0xa
 13134 34a1 262A0000 		.4byte	.LASF706
 13135 34a5 30       		.byte	0x30
 13136 34a6 4401     		.2byte	0x144
 13137 34a8 D5340000 		.4byte	0x34d5
 13138 34ac 14       		.byte	0x14
 13139 34ad 0A       		.uleb128 0xa
 13140 34ae 5C100000 		.4byte	.LASF707
 13141 34b2 30       		.byte	0x30
 13142 34b3 4901     		.2byte	0x149
 13143 34b5 DB340000 		.4byte	0x34db
 13144 34b9 18       		.byte	0x18
 13145 34ba 0A       		.uleb128 0xa
 13146 34bb FE150000 		.4byte	.LASF708
 13147 34bf 30       		.byte	0x30
 13148 34c0 5001     		.2byte	0x150
 13149 34c2 F0000000 		.4byte	0xf0
 13150 34c6 1C       		.byte	0x1c
 13151 34c7 0A       		.uleb128 0xa
 13152 34c8 68290000 		.4byte	.LASF709
 13153 34cc 30       		.byte	0x30
 13154 34cd 5601     		.2byte	0x156
 13155 34cf 88130000 		.4byte	0x1388
 13156 34d3 20       		.byte	0x20
 13157 34d4 00       		.byte	0
 13158 34d5 0B       		.uleb128 0xb
 13159 34d6 04       		.byte	0x4
 13160 34d7 95330000 		.4byte	0x3395
 13161 34db 0B       		.uleb128 0xb
 13162 34dc 04       		.byte	0x4
 13163 34dd 3D340000 		.4byte	0x343d
 13164 34e1 1A       		.uleb128 0x1a
 13165 34e2 B4240000 		.4byte	.LASF710
 13166 34e6 30       		.byte	0x30
 13167 34e7 5701     		.2byte	0x157
 13168 34e9 49340000 		.4byte	0x3449
 13169 34ed 05       		.uleb128 0x5
 13170 34ee E1340000 		.4byte	0x34e1
 13171 34f2 19       		.uleb128 0x19
 13172 34f3 10       		.byte	0x10
 13173 34f4 30       		.byte	0x30
 13174 34f5 5C01     		.2byte	0x15c
 13175 34f7 30350000 		.4byte	0x3530
 13176 34fb 0A       		.uleb128 0xa
 13177 34fc 65060000 		.4byte	.LASF711
 13178 3500 30       		.byte	0x30
 13179 3501 6101     		.2byte	0x161
 13180 3503 282D0000 		.4byte	0x2d28
 13181 3507 00       		.byte	0
 13182 3508 0A       		.uleb128 0xa
 13183 3509 97280000 		.4byte	.LASF712
 13184 350d 30       		.byte	0x30
 13185 350e 6601     		.2byte	0x166
 13186 3510 6B2D0000 		.4byte	0x2d6b
ARM GAS  /var/folders/d2/nstgp4h54kz7g1l847x_b8wc0000gn/T//ccB20FE7.s 			page 238


 13187 3514 04       		.byte	0x4
 13188 3515 0A       		.uleb128 0xa
 13189 3516 98160000 		.4byte	.LASF713
 13190 351a 30       		.byte	0x30
 13191 351b 6C01     		.2byte	0x16c
 13192 351d 4A2D0000 		.4byte	0x2d4a
 13193 3521 08       		.byte	0x8
 13194 3522 0A       		.uleb128 0xa
 13195 3523 22030000 		.4byte	.LASF714
 13196 3527 30       		.byte	0x30
 13197 3528 7001     		.2byte	0x170
 13198 352a E32C0000 		.4byte	0x2ce3
 13199 352e 0C       		.byte	0xc
 13200 352f 00       		.byte	0
 13201 3530 1A       		.uleb128 0x1a
 13202 3531 7D150000 		.4byte	.LASF715
 13203 3535 30       		.byte	0x30
 13204 3536 7201     		.2byte	0x172
 13205 3538 F2340000 		.4byte	0x34f2
 13206 353c 05       		.uleb128 0x5
 13207 353d 30350000 		.4byte	0x3530
 13208 3541 0B       		.uleb128 0xb
 13209 3542 04       		.byte	0x4
 13210 3543 3C350000 		.4byte	0x353c
 13211 3547 13       		.uleb128 0x13
 13212 3548 57350000 		.4byte	0x3557
 13213 354c 57350000 		.4byte	0x3557
 13214 3550 14       		.uleb128 0x14
 13215 3551 37000000 		.4byte	0x37
 13216 3555 03       		.byte	0x3
 13217 3556 00       		.byte	0
 13218 3557 0B       		.uleb128 0xb
 13219 3558 04       		.byte	0x4
 13220 3559 ED340000 		.4byte	0x34ed
 13221 355d 13       		.uleb128 0x13
 13222 355e D0030000 		.4byte	0x3d0
 13223 3562 6D350000 		.4byte	0x356d
 13224 3566 14       		.uleb128 0x14
 13225 3567 37000000 		.4byte	0x37
 13226 356b 02       		.byte	0x2
 13227 356c 00       		.byte	0
 13228 356d 0B       		.uleb128 0xb
 13229 356e 04       		.byte	0x4
 13230 356f B9320000 		.4byte	0x32b9
 13231 3573 0B       		.uleb128 0xb
 13232 3574 04       		.byte	0x4
 13233 3575 FC320000 		.4byte	0x32fc
 13234 3579 13       		.uleb128 0x13
 13235 357a 940D0000 		.4byte	0xd94
 13236 357e 89350000 		.4byte	0x3589
 13237 3582 14       		.uleb128 0x14
 13238 3583 37000000 		.4byte	0x37
 13239 3587 3E       		.byte	0x3e
 13240 3588 00       		.byte	0
 13241 3589 15       		.uleb128 0x15
 13242 358a 18010000 		.4byte	.LASF716
 13243 358e 30       		.byte	0x30
ARM GAS  /var/folders/d2/nstgp4h54kz7g1l847x_b8wc0000gn/T//ccB20FE7.s 			page 239


 13244 358f 0602     		.2byte	0x206
 13245 3591 AF2A0000 		.4byte	0x2aaf
 13246 3595 21       		.uleb128 0x21
 13247 3596 07       		.byte	0x7
 13248 3597 01       		.byte	0x1
 13249 3598 69000000 		.4byte	0x69
 13250 359c 32       		.byte	0x32
 13251 359d 97       		.byte	0x97
 13252 359e B5350000 		.4byte	0x35b5
 13253 35a2 22       		.uleb128 0x22
 13254 35a3 E60D0000 		.4byte	.LASF717
 13255 35a7 00       		.byte	0
 13256 35a8 22       		.uleb128 0x22
 13257 35a9 031E0000 		.4byte	.LASF718
 13258 35ad 01       		.byte	0x1
 13259 35ae 22       		.uleb128 0x22
 13260 35af 38090000 		.4byte	.LASF719
 13261 35b3 02       		.byte	0x2
 13262 35b4 00       		.byte	0
 13263 35b5 03       		.uleb128 0x3
 13264 35b6 7A080000 		.4byte	.LASF720
 13265 35ba 32       		.byte	0x32
 13266 35bb 9B       		.byte	0x9b
 13267 35bc 95350000 		.4byte	0x3595
 13268 35c0 03       		.uleb128 0x3
 13269 35c1 82030000 		.4byte	.LASF721
 13270 35c5 32       		.byte	0x32
 13271 35c6 A0       		.byte	0xa0
 13272 35c7 CB350000 		.4byte	0x35cb
 13273 35cb 26       		.uleb128 0x26
 13274 35cc 82030000 		.4byte	.LASF721
 13275 35d0 5802     		.2byte	0x258
 13276 35d2 32       		.byte	0x32
 13277 35d3 E5       		.byte	0xe5
 13278 35d4 39360000 		.4byte	0x3639
 13279 35d8 18       		.uleb128 0x18
 13280 35d9 766D7400 		.ascii	"vmt\000"
 13281 35dd 32       		.byte	0x32
 13282 35de E7       		.byte	0xe7
 13283 35df F4360000 		.4byte	0x36f4
 13284 35e3 00       		.byte	0
 13285 35e4 08       		.uleb128 0x8
 13286 35e5 47000000 		.4byte	.LASF517
 13287 35e9 32       		.byte	0x32
 13288 35ea E8       		.byte	0xe8
 13289 35eb E3120000 		.4byte	0x12e3
 13290 35ef 04       		.byte	0x4
 13291 35f0 08       		.uleb128 0x8
 13292 35f1 111A0000 		.4byte	.LASF340
 13293 35f5 32       		.byte	0x32
 13294 35f6 E8       		.byte	0xe8
 13295 35f7 B5350000 		.4byte	0x35b5
 13296 35fb 08       		.byte	0x8
 13297 35fc 08       		.uleb128 0x8
 13298 35fd B01C0000 		.4byte	.LASF518
 13299 3601 32       		.byte	0x32
 13300 3602 E8       		.byte	0xe8
ARM GAS  /var/folders/d2/nstgp4h54kz7g1l847x_b8wc0000gn/T//ccB20FE7.s 			page 240


 13301 3603 8E130000 		.4byte	0x138e
 13302 3607 0C       		.byte	0xc
 13303 3608 08       		.uleb128 0x8
 13304 3609 B3150000 		.4byte	.LASF519
 13305 360d 32       		.byte	0x32
 13306 360e E8       		.byte	0xe8
 13307 360f 99130000 		.4byte	0x1399
 13308 3613 30       		.byte	0x30
 13309 3614 18       		.uleb128 0x18
 13310 3615 696200   		.ascii	"ib\000"
 13311 3618 32       		.byte	0x32
 13312 3619 E8       		.byte	0xe8
 13313 361a FA360000 		.4byte	0x36fa
 13314 361e 54       		.byte	0x54
 13315 361f 29       		.uleb128 0x29
 13316 3620 6F6200   		.ascii	"ob\000"
 13317 3623 32       		.byte	0x32
 13318 3624 E8       		.byte	0xe8
 13319 3625 FA360000 		.4byte	0x36fa
 13320 3629 5401     		.2byte	0x154
 13321 362b 27       		.uleb128 0x27
 13322 362c 65210000 		.4byte	.LASF341
 13323 3630 32       		.byte	0x32
 13324 3631 E8       		.byte	0xe8
 13325 3632 0A370000 		.4byte	0x370a
 13326 3636 5402     		.2byte	0x254
 13327 3638 00       		.byte	0
 13328 3639 17       		.uleb128 0x17
 13329 363a 08       		.byte	0x8
 13330 363b 32       		.byte	0x32
 13331 363c A7       		.byte	0xa7
 13332 363d 72360000 		.4byte	0x3672
 13333 3641 08       		.uleb128 0x8
 13334 3642 DD270000 		.4byte	.LASF722
 13335 3646 32       		.byte	0x32
 13336 3647 AB       		.byte	0xab
 13337 3648 002D0000 		.4byte	0x2d00
 13338 364c 00       		.byte	0
 13339 364d 08       		.uleb128 0x8
 13340 364e 78130000 		.4byte	.LASF723
 13341 3652 32       		.byte	0x32
 13342 3653 AF       		.byte	0xaf
 13343 3654 E62B0000 		.4byte	0x2be6
 13344 3658 04       		.byte	0x4
 13345 3659 08       		.uleb128 0x8
 13346 365a 83060000 		.4byte	.LASF724
 13347 365e 32       		.byte	0x32
 13348 365f B3       		.byte	0xb3
 13349 3660 E62B0000 		.4byte	0x2be6
 13350 3664 05       		.byte	0x5
 13351 3665 08       		.uleb128 0x8
 13352 3666 D1140000 		.4byte	.LASF725
 13353 366a 32       		.byte	0x32
 13354 366b B9       		.byte	0xb9
 13355 366c E62B0000 		.4byte	0x2be6
 13356 3670 06       		.byte	0x6
 13357 3671 00       		.byte	0
ARM GAS  /var/folders/d2/nstgp4h54kz7g1l847x_b8wc0000gn/T//ccB20FE7.s 			page 241


 13358 3672 03       		.uleb128 0x3
 13359 3673 7D220000 		.4byte	.LASF726
 13360 3677 32       		.byte	0x32
 13361 3678 BA       		.byte	0xba
 13362 3679 39360000 		.4byte	0x3639
 13363 367d 05       		.uleb128 0x5
 13364 367e 72360000 		.4byte	0x3672
 13365 3682 07       		.uleb128 0x7
 13366 3683 251B0000 		.4byte	.LASF727
 13367 3687 20       		.byte	0x20
 13368 3688 32       		.byte	0x32
 13369 3689 DA       		.byte	0xda
 13370 368a EF360000 		.4byte	0x36ef
 13371 368e 08       		.uleb128 0x8
 13372 368f 9F1C0000 		.4byte	.LASF522
 13373 3693 32       		.byte	0x32
 13374 3694 DB       		.byte	0xdb
 13375 3695 C3130000 		.4byte	0x13c3
 13376 3699 00       		.byte	0
 13377 369a 08       		.uleb128 0x8
 13378 369b 4C060000 		.4byte	.LASF523
 13379 369f 32       		.byte	0x32
 13380 36a0 DB       		.byte	0xdb
 13381 36a1 E2130000 		.4byte	0x13e2
 13382 36a5 04       		.byte	0x4
 13383 36a6 18       		.uleb128 0x18
 13384 36a7 70757400 		.ascii	"put\000"
 13385 36ab 32       		.byte	0x32
 13386 36ac DB       		.byte	0xdb
 13387 36ad FC130000 		.4byte	0x13fc
 13388 36b1 08       		.byte	0x8
 13389 36b2 18       		.uleb128 0x18
 13390 36b3 67657400 		.ascii	"get\000"
 13391 36b7 32       		.byte	0x32
 13392 36b8 DB       		.byte	0xdb
 13393 36b9 11140000 		.4byte	0x1411
 13394 36bd 0C       		.byte	0xc
 13395 36be 08       		.uleb128 0x8
 13396 36bf 17180000 		.4byte	.LASF524
 13397 36c3 32       		.byte	0x32
 13398 36c4 DB       		.byte	0xdb
 13399 36c5 B2140000 		.4byte	0x14b2
 13400 36c9 10       		.byte	0x10
 13401 36ca 08       		.uleb128 0x8
 13402 36cb 761C0000 		.4byte	.LASF525
 13403 36cf 32       		.byte	0x32
 13404 36d0 DB       		.byte	0xdb
 13405 36d1 CC140000 		.4byte	0x14cc
 13406 36d5 14       		.byte	0x14
 13407 36d6 08       		.uleb128 0x8
 13408 36d7 F7270000 		.4byte	.LASF526
 13409 36db 32       		.byte	0x32
 13410 36dc DB       		.byte	0xdb
 13411 36dd F0140000 		.4byte	0x14f0
 13412 36e1 18       		.byte	0x18
 13413 36e2 08       		.uleb128 0x8
 13414 36e3 4D170000 		.4byte	.LASF527
ARM GAS  /var/folders/d2/nstgp4h54kz7g1l847x_b8wc0000gn/T//ccB20FE7.s 			page 242


 13415 36e7 32       		.byte	0x32
 13416 36e8 DB       		.byte	0xdb
 13417 36e9 14150000 		.4byte	0x1514
 13418 36ed 1C       		.byte	0x1c
 13419 36ee 00       		.byte	0
 13420 36ef 05       		.uleb128 0x5
 13421 36f0 82360000 		.4byte	0x3682
 13422 36f4 0B       		.uleb128 0xb
 13423 36f5 04       		.byte	0x4
 13424 36f6 EF360000 		.4byte	0x36ef
 13425 36fa 13       		.uleb128 0x13
 13426 36fb D5000000 		.4byte	0xd5
 13427 36ff 0A370000 		.4byte	0x370a
 13428 3703 14       		.uleb128 0x14
 13429 3704 37000000 		.4byte	0x37
 13430 3708 FF       		.byte	0xff
 13431 3709 00       		.byte	0
 13432 370a 0B       		.uleb128 0xb
 13433 370b 04       		.byte	0x4
 13434 370c 7D360000 		.4byte	0x367d
 13435 3710 16       		.uleb128 0x16
 13436 3711 D90A0000 		.4byte	.LASF728
 13437 3715 33       		.byte	0x33
 13438 3716 14       		.byte	0x14
 13439 3717 3C350000 		.4byte	0x353c
 13440 371b 16       		.uleb128 0x16
 13441 371c 0C0E0000 		.4byte	.LASF729
 13442 3720 33       		.byte	0x33
 13443 3721 15       		.byte	0x15
 13444 3722 72360000 		.4byte	0x3672
 13445 3726 16       		.uleb128 0x16
 13446 3727 44140000 		.4byte	.LASF730
 13447 372b 33       		.byte	0x33
 13448 372c 16       		.byte	0x16
 13449 372d C0350000 		.4byte	0x35c0
 13450 3731 21       		.uleb128 0x21
 13451 3732 07       		.byte	0x7
 13452 3733 01       		.byte	0x1
 13453 3734 69000000 		.4byte	0x69
 13454 3738 34       		.byte	0x34
 13455 3739 83       		.byte	0x83
 13456 373a 4B370000 		.4byte	0x374b
 13457 373e 22       		.uleb128 0x22
 13458 373f 78290000 		.4byte	.LASF731
 13459 3743 00       		.byte	0
 13460 3744 22       		.uleb128 0x22
 13461 3745 381E0000 		.4byte	.LASF732
 13462 3749 01       		.byte	0x1
 13463 374a 00       		.byte	0
 13464 374b 03       		.uleb128 0x3
 13465 374c C9290000 		.4byte	.LASF733
 13466 3750 34       		.byte	0x34
 13467 3751 86       		.byte	0x86
 13468 3752 31370000 		.4byte	0x3731
 13469 3756 21       		.uleb128 0x21
 13470 3757 07       		.byte	0x7
 13471 3758 01       		.byte	0x1
ARM GAS  /var/folders/d2/nstgp4h54kz7g1l847x_b8wc0000gn/T//ccB20FE7.s 			page 243


 13472 3759 69000000 		.4byte	0x69
 13473 375d 34       		.byte	0x34
 13474 375e 8B       		.byte	0x8b
 13475 375f 94370000 		.4byte	0x3794
 13476 3763 22       		.uleb128 0x22
 13477 3764 27080000 		.4byte	.LASF734
 13478 3768 00       		.byte	0
 13479 3769 22       		.uleb128 0x22
 13480 376a 60040000 		.4byte	.LASF735
 13481 376e 01       		.byte	0x1
 13482 376f 22       		.uleb128 0x22
 13483 3770 43250000 		.4byte	.LASF736
 13484 3774 02       		.byte	0x2
 13485 3775 22       		.uleb128 0x22
 13486 3776 9E230000 		.4byte	.LASF737
 13487 377a 03       		.byte	0x3
 13488 377b 22       		.uleb128 0x22
 13489 377c 9D000000 		.4byte	.LASF738
 13490 3780 04       		.byte	0x4
 13491 3781 22       		.uleb128 0x22
 13492 3782 DB080000 		.4byte	.LASF739
 13493 3786 05       		.byte	0x5
 13494 3787 22       		.uleb128 0x22
 13495 3788 3B160000 		.4byte	.LASF740
 13496 378c 06       		.byte	0x6
 13497 378d 22       		.uleb128 0x22
 13498 378e C21D0000 		.4byte	.LASF741
 13499 3792 07       		.byte	0x7
 13500 3793 00       		.byte	0
 13501 3794 03       		.uleb128 0x3
 13502 3795 381B0000 		.4byte	.LASF742
 13503 3799 34       		.byte	0x34
 13504 379a 94       		.byte	0x94
 13505 379b 56370000 		.4byte	0x3756
 13506 379f 03       		.uleb128 0x3
 13507 37a0 B12A0000 		.4byte	.LASF743
 13508 37a4 34       		.byte	0x34
 13509 37a5 99       		.byte	0x99
 13510 37a6 AA370000 		.4byte	0x37aa
 13511 37aa 07       		.uleb128 0x7
 13512 37ab B12A0000 		.4byte	.LASF743
 13513 37af 14       		.byte	0x14
 13514 37b0 34       		.byte	0x34
 13515 37b1 C7       		.byte	0xc7
 13516 37b2 F3370000 		.4byte	0x37f3
 13517 37b6 08       		.uleb128 0x8
 13518 37b7 111A0000 		.4byte	.LASF340
 13519 37bb 34       		.byte	0x34
 13520 37bc CB       		.byte	0xcb
 13521 37bd 94370000 		.4byte	0x3794
 13522 37c1 00       		.byte	0
 13523 37c2 08       		.uleb128 0x8
 13524 37c3 65210000 		.4byte	.LASF341
 13525 37c7 34       		.byte	0x34
 13526 37c8 CF       		.byte	0xcf
 13527 37c9 8A380000 		.4byte	0x388a
 13528 37cd 04       		.byte	0x4
ARM GAS  /var/folders/d2/nstgp4h54kz7g1l847x_b8wc0000gn/T//ccB20FE7.s 			page 244


 13529 37ce 08       		.uleb128 0x8
 13530 37cf EC260000 		.4byte	.LASF744
 13531 37d3 34       		.byte	0x34
 13532 37d4 D3       		.byte	0xd3
 13533 37d5 90380000 		.4byte	0x3890
 13534 37d9 08       		.byte	0x8
 13535 37da 08       		.uleb128 0x8
 13536 37db 930C0000 		.4byte	.LASF347
 13537 37df 34       		.byte	0x34
 13538 37e0 D7       		.byte	0xd7
 13539 37e1 5E1A0000 		.4byte	0x1a5e
 13540 37e5 0C       		.byte	0xc
 13541 37e6 08       		.uleb128 0x8
 13542 37e7 571C0000 		.4byte	.LASF348
 13543 37eb 34       		.byte	0x34
 13544 37ec DB       		.byte	0xdb
 13545 37ed 0B010000 		.4byte	0x10b
 13546 37f1 10       		.byte	0x10
 13547 37f2 00       		.byte	0
 13548 37f3 03       		.uleb128 0x3
 13549 37f4 F70F0000 		.4byte	.LASF745
 13550 37f8 34       		.byte	0x34
 13551 37f9 A0       		.byte	0xa0
 13552 37fa FE370000 		.4byte	0x37fe
 13553 37fe 0B       		.uleb128 0xb
 13554 37ff 04       		.byte	0x4
 13555 3800 04380000 		.4byte	0x3804
 13556 3804 0D       		.uleb128 0xd
 13557 3805 0F380000 		.4byte	0x380f
 13558 3809 0E       		.uleb128 0xe
 13559 380a 0F380000 		.4byte	0x380f
 13560 380e 00       		.byte	0
 13561 380f 0B       		.uleb128 0xb
 13562 3810 04       		.byte	0x4
 13563 3811 9F370000 		.4byte	0x379f
 13564 3815 03       		.uleb128 0x3
 13565 3816 3E1F0000 		.4byte	.LASF746
 13566 381a 34       		.byte	0x34
 13567 381b A8       		.byte	0xa8
 13568 381c 20380000 		.4byte	0x3820
 13569 3820 0B       		.uleb128 0xb
 13570 3821 04       		.byte	0x4
 13571 3822 26380000 		.4byte	0x3826
 13572 3826 0D       		.uleb128 0xd
 13573 3827 36380000 		.4byte	0x3836
 13574 382b 0E       		.uleb128 0xe
 13575 382c 0F380000 		.4byte	0x380f
 13576 3830 0E       		.uleb128 0xe
 13577 3831 4B370000 		.4byte	0x374b
 13578 3835 00       		.byte	0
 13579 3836 17       		.uleb128 0x17
 13580 3837 14       		.byte	0x14
 13581 3838 34       		.byte	0x34
 13582 3839 AD       		.byte	0xad
 13583 383a 7A380000 		.4byte	0x387a
 13584 383e 08       		.uleb128 0x8
 13585 383f BC220000 		.4byte	.LASF747
ARM GAS  /var/folders/d2/nstgp4h54kz7g1l847x_b8wc0000gn/T//ccB20FE7.s 			page 245


 13586 3843 34       		.byte	0x34
 13587 3844 B1       		.byte	0xb1
 13588 3845 F3370000 		.4byte	0x37f3
 13589 3849 00       		.byte	0
 13590 384a 08       		.uleb128 0x8
 13591 384b 2D280000 		.4byte	.LASF748
 13592 384f 34       		.byte	0x34
 13593 3850 B5       		.byte	0xb5
 13594 3851 F3370000 		.4byte	0x37f3
 13595 3855 04       		.byte	0x4
 13596 3856 08       		.uleb128 0x8
 13597 3857 DF280000 		.4byte	.LASF749
 13598 385b 34       		.byte	0x34
 13599 385c B9       		.byte	0xb9
 13600 385d F3370000 		.4byte	0x37f3
 13601 3861 08       		.byte	0x8
 13602 3862 08       		.uleb128 0x8
 13603 3863 8C290000 		.4byte	.LASF354
 13604 3867 34       		.byte	0x34
 13605 3868 BD       		.byte	0xbd
 13606 3869 15380000 		.4byte	0x3815
 13607 386d 0C       		.byte	0xc
 13608 386e 18       		.uleb128 0x18
 13609 386f 637200   		.ascii	"cr\000"
 13610 3872 34       		.byte	0x34
 13611 3873 C1       		.byte	0xc1
 13612 3874 0B010000 		.4byte	0x10b
 13613 3878 10       		.byte	0x10
 13614 3879 00       		.byte	0
 13615 387a 03       		.uleb128 0x3
 13616 387b C12A0000 		.4byte	.LASF750
 13617 387f 34       		.byte	0x34
 13618 3880 C2       		.byte	0xc2
 13619 3881 36380000 		.4byte	0x3836
 13620 3885 05       		.uleb128 0x5
 13621 3886 7A380000 		.4byte	0x387a
 13622 388a 0B       		.uleb128 0xb
 13623 388b 04       		.byte	0x4
 13624 388c 85380000 		.4byte	0x3885
 13625 3890 0B       		.uleb128 0xb
 13626 3891 04       		.byte	0x4
 13627 3892 220A0000 		.4byte	0xa22
 13628 3896 16       		.uleb128 0x16
 13629 3897 F5050000 		.4byte	.LASF751
 13630 389b 34       		.byte	0x34
 13631 389c E7       		.byte	0xe7
 13632 389d 9F370000 		.4byte	0x379f
 13633 38a1 03       		.uleb128 0x3
 13634 38a2 42090000 		.4byte	.LASF752
 13635 38a6 35       		.byte	0x35
 13636 38a7 22       		.byte	0x22
 13637 38a8 AC380000 		.4byte	0x38ac
 13638 38ac 0B       		.uleb128 0xb
 13639 38ad 04       		.byte	0x4
 13640 38ae B2380000 		.4byte	0x38b2
 13641 38b2 2D       		.uleb128 0x2d
 13642 38b3 4E070000 		.4byte	.LASF882
ARM GAS  /var/folders/d2/nstgp4h54kz7g1l847x_b8wc0000gn/T//ccB20FE7.s 			page 246


 13643 38b7 03       		.uleb128 0x3
 13644 38b8 380F0000 		.4byte	.LASF753
 13645 38bc 36       		.byte	0x36
 13646 38bd 2C       		.byte	0x2c
 13647 38be 9F000000 		.4byte	0x9f
 13648 38c2 03       		.uleb128 0x3
 13649 38c3 2C220000 		.4byte	.LASF754
 13650 38c7 36       		.byte	0x36
 13651 38c8 72       		.byte	0x72
 13652 38c9 9F000000 		.4byte	0x9f
 13653 38cd 1A       		.uleb128 0x1a
 13654 38ce 57110000 		.4byte	.LASF755
 13655 38d2 02       		.byte	0x2
 13656 38d3 6501     		.2byte	0x165
 13657 38d5 37000000 		.4byte	0x37
 13658 38d9 1D       		.uleb128 0x1d
 13659 38da 04       		.byte	0x4
 13660 38db 36       		.byte	0x36
 13661 38dc A6       		.byte	0xa6
 13662 38dd F8380000 		.4byte	0x38f8
 13663 38e1 2B       		.uleb128 0x2b
 13664 38e2 F11A0000 		.4byte	.LASF756
 13665 38e6 36       		.byte	0x36
 13666 38e7 A8       		.byte	0xa8
 13667 38e8 CD380000 		.4byte	0x38cd
 13668 38ec 2B       		.uleb128 0x2b
 13669 38ed 06110000 		.4byte	.LASF757
 13670 38f1 36       		.byte	0x36
 13671 38f2 A9       		.byte	0xa9
 13672 38f3 F8380000 		.4byte	0x38f8
 13673 38f7 00       		.byte	0
 13674 38f8 13       		.uleb128 0x13
 13675 38f9 69000000 		.4byte	0x69
 13676 38fd 08390000 		.4byte	0x3908
 13677 3901 14       		.uleb128 0x14
 13678 3902 37000000 		.4byte	0x37
 13679 3906 03       		.byte	0x3
 13680 3907 00       		.byte	0
 13681 3908 17       		.uleb128 0x17
 13682 3909 08       		.byte	0x8
 13683 390a 36       		.byte	0x36
 13684 390b A3       		.byte	0xa3
 13685 390c 29390000 		.4byte	0x3929
 13686 3910 08       		.uleb128 0x8
 13687 3911 910F0000 		.4byte	.LASF758
 13688 3915 36       		.byte	0x36
 13689 3916 A5       		.byte	0xa5
 13690 3917 25000000 		.4byte	0x25
 13691 391b 00       		.byte	0
 13692 391c 08       		.uleb128 0x8
 13693 391d F71A0000 		.4byte	.LASF759
 13694 3921 36       		.byte	0x36
 13695 3922 AA       		.byte	0xaa
 13696 3923 D9380000 		.4byte	0x38d9
 13697 3927 04       		.byte	0x4
 13698 3928 00       		.byte	0
 13699 3929 03       		.uleb128 0x3
ARM GAS  /var/folders/d2/nstgp4h54kz7g1l847x_b8wc0000gn/T//ccB20FE7.s 			page 247


 13700 392a FF220000 		.4byte	.LASF760
 13701 392e 36       		.byte	0x36
 13702 392f AB       		.byte	0xab
 13703 3930 08390000 		.4byte	0x3908
 13704 3934 03       		.uleb128 0x3
 13705 3935 6E270000 		.4byte	.LASF761
 13706 3939 36       		.byte	0x36
 13707 393a AF       		.byte	0xaf
 13708 393b A1380000 		.4byte	0x38a1
 13709 393f 0B       		.uleb128 0xb
 13710 3940 04       		.byte	0x4
 13711 3941 20110000 		.4byte	0x1120
 13712 3945 16       		.uleb128 0x16
 13713 3946 D3100000 		.4byte	.LASF762
 13714 394a 37       		.byte	0x37
 13715 394b 10       		.byte	0x10
 13716 394c 50390000 		.4byte	0x3950
 13717 3950 0B       		.uleb128 0xb
 13718 3951 04       		.byte	0x4
 13719 3952 3F390000 		.4byte	0x393f
 13720 3956 16       		.uleb128 0x16
 13721 3957 85080000 		.4byte	.LASF763
 13722 395b 37       		.byte	0x37
 13723 395c E8       		.byte	0xe8
 13724 395d 3F390000 		.4byte	0x393f
 13725 3961 16       		.uleb128 0x16
 13726 3962 E2270000 		.4byte	.LASF764
 13727 3966 37       		.byte	0x37
 13728 3967 E9       		.byte	0xe9
 13729 3968 25000000 		.4byte	0x25
 13730 396c 16       		.uleb128 0x16
 13731 396d 7D1A0000 		.4byte	.LASF765
 13732 3971 37       		.byte	0x37
 13733 3972 E9       		.byte	0xe9
 13734 3973 25000000 		.4byte	0x25
 13735 3977 16       		.uleb128 0x16
 13736 3978 10180000 		.4byte	.LASF766
 13737 397c 37       		.byte	0x37
 13738 397d E9       		.byte	0xe9
 13739 397e 25000000 		.4byte	0x25
 13740 3982 16       		.uleb128 0x16
 13741 3983 0B0A0000 		.4byte	.LASF767
 13742 3987 37       		.byte	0x37
 13743 3988 EB       		.byte	0xeb
 13744 3989 25000000 		.4byte	0x25
 13745 398d 07       		.uleb128 0x7
 13746 398e 4E130000 		.4byte	.LASF768
 13747 3992 5C       		.byte	0x5c
 13748 3993 38       		.byte	0x38
 13749 3994 0C       		.byte	0xc
 13750 3995 FA390000 		.4byte	0x39fa
 13751 3999 08       		.uleb128 0x8
 13752 399a FA200000 		.4byte	.LASF769
 13753 399e 38       		.byte	0x38
 13754 399f 0D       		.byte	0xd
 13755 39a0 D0030000 		.4byte	0x3d0
 13756 39a4 00       		.byte	0
ARM GAS  /var/folders/d2/nstgp4h54kz7g1l847x_b8wc0000gn/T//ccB20FE7.s 			page 248


 13757 39a5 08       		.uleb128 0x8
 13758 39a6 121D0000 		.4byte	.LASF770
 13759 39aa 38       		.byte	0x38
 13760 39ab 0E       		.byte	0xe
 13761 39ac 2C000000 		.4byte	0x2c
 13762 39b0 04       		.byte	0x4
 13763 39b1 08       		.uleb128 0x8
 13764 39b2 9A0C0000 		.4byte	.LASF771
 13765 39b6 38       		.byte	0x38
 13766 39b7 0F       		.byte	0xf
 13767 39b8 D0030000 		.4byte	0x3d0
 13768 39bc 08       		.byte	0x8
 13769 39bd 08       		.uleb128 0x8
 13770 39be 41080000 		.4byte	.LASF772
 13771 39c2 38       		.byte	0x38
 13772 39c3 10       		.byte	0x10
 13773 39c4 D0030000 		.4byte	0x3d0
 13774 39c8 0C       		.byte	0xc
 13775 39c9 08       		.uleb128 0x8
 13776 39ca 69270000 		.4byte	.LASF773
 13777 39ce 38       		.byte	0x38
 13778 39cf 11       		.byte	0x11
 13779 39d0 FA390000 		.4byte	0x39fa
 13780 39d4 10       		.byte	0x10
 13781 39d5 08       		.uleb128 0x8
 13782 39d6 31020000 		.4byte	.LASF774
 13783 39da 38       		.byte	0x38
 13784 39db 12       		.byte	0x12
 13785 39dc A4150000 		.4byte	0x15a4
 13786 39e0 51       		.byte	0x51
 13787 39e1 08       		.uleb128 0x8
 13788 39e2 6F240000 		.4byte	.LASF775
 13789 39e6 38       		.byte	0x38
 13790 39e7 13       		.byte	0x13
 13791 39e8 2F3A0000 		.4byte	0x3a2f
 13792 39ec 54       		.byte	0x54
 13793 39ed 08       		.uleb128 0x8
 13794 39ee 3B030000 		.4byte	.LASF776
 13795 39f2 38       		.byte	0x38
 13796 39f3 14       		.byte	0x14
 13797 39f4 353A0000 		.4byte	0x3a35
 13798 39f8 58       		.byte	0x58
 13799 39f9 00       		.byte	0
 13800 39fa 13       		.uleb128 0x13
 13801 39fb 20110000 		.4byte	0x1120
 13802 39ff 0A3A0000 		.4byte	0x3a0a
 13803 3a03 14       		.uleb128 0x14
 13804 3a04 37000000 		.4byte	0x37
 13805 3a08 40       		.byte	0x40
 13806 3a09 00       		.byte	0
 13807 3a0a 07       		.uleb128 0x7
 13808 3a0b 32000000 		.4byte	.LASF777
 13809 3a0f 08       		.byte	0x8
 13810 3a10 38       		.byte	0x38
 13811 3a11 25       		.byte	0x25
 13812 3a12 2F3A0000 		.4byte	0x3a2f
 13813 3a16 08       		.uleb128 0x8
ARM GAS  /var/folders/d2/nstgp4h54kz7g1l847x_b8wc0000gn/T//ccB20FE7.s 			page 249


 13814 3a17 49230000 		.4byte	.LASF778
 13815 3a1b 38       		.byte	0x38
 13816 3a1c 26       		.byte	0x26
 13817 3a1d D53A0000 		.4byte	0x3ad5
 13818 3a21 00       		.byte	0
 13819 3a22 08       		.uleb128 0x8
 13820 3a23 3B030000 		.4byte	.LASF776
 13821 3a27 38       		.byte	0x38
 13822 3a28 27       		.byte	0x27
 13823 3a29 2F3A0000 		.4byte	0x3a2f
 13824 3a2d 04       		.byte	0x4
 13825 3a2e 00       		.byte	0
 13826 3a2f 0B       		.uleb128 0xb
 13827 3a30 04       		.byte	0x4
 13828 3a31 0A3A0000 		.4byte	0x3a0a
 13829 3a35 0B       		.uleb128 0xb
 13830 3a36 04       		.byte	0x4
 13831 3a37 8D390000 		.4byte	0x398d
 13832 3a3b 03       		.uleb128 0x3
 13833 3a3c 1D1C0000 		.4byte	.LASF779
 13834 3a40 38       		.byte	0x38
 13835 3a41 15       		.byte	0x15
 13836 3a42 8D390000 		.4byte	0x398d
 13837 3a46 17       		.uleb128 0x17
 13838 3a47 04       		.byte	0x4
 13839 3a48 38       		.byte	0x38
 13840 3a49 18       		.byte	0x18
 13841 3a4a 5B3A0000 		.4byte	0x3a5b
 13842 3a4e 08       		.uleb128 0x8
 13843 3a4f 2D0C0000 		.4byte	.LASF780
 13844 3a53 38       		.byte	0x38
 13845 3a54 19       		.byte	0x19
 13846 3a55 5B3A0000 		.4byte	0x3a5b
 13847 3a59 00       		.byte	0
 13848 3a5a 00       		.byte	0
 13849 3a5b 0B       		.uleb128 0xb
 13850 3a5c 04       		.byte	0x4
 13851 3a5d 3B3A0000 		.4byte	0x3a3b
 13852 3a61 17       		.uleb128 0x17
 13853 3a62 0C       		.byte	0xc
 13854 3a63 38       		.byte	0x38
 13855 3a64 17       		.byte	0x17
 13856 3a65 8E3A0000 		.4byte	0x3a8e
 13857 3a69 08       		.uleb128 0x8
 13858 3a6a C9250000 		.4byte	.LASF781
 13859 3a6e 38       		.byte	0x38
 13860 3a6f 1A       		.byte	0x1a
 13861 3a70 463A0000 		.4byte	0x3a46
 13862 3a74 00       		.byte	0
 13863 3a75 08       		.uleb128 0x8
 13864 3a76 9A0C0000 		.4byte	.LASF771
 13865 3a7a 38       		.byte	0x38
 13866 3a7b 1B       		.byte	0x1b
 13867 3a7c D0030000 		.4byte	0x3d0
 13868 3a80 04       		.byte	0x4
 13869 3a81 08       		.uleb128 0x8
 13870 3a82 41080000 		.4byte	.LASF772
ARM GAS  /var/folders/d2/nstgp4h54kz7g1l847x_b8wc0000gn/T//ccB20FE7.s 			page 250


 13871 3a86 38       		.byte	0x38
 13872 3a87 1C       		.byte	0x1c
 13873 3a88 D0030000 		.4byte	0x3d0
 13874 3a8c 08       		.byte	0x8
 13875 3a8d 00       		.byte	0
 13876 3a8e 03       		.uleb128 0x3
 13877 3a8f 21130000 		.4byte	.LASF782
 13878 3a93 38       		.byte	0x38
 13879 3a94 1D       		.byte	0x1d
 13880 3a95 613A0000 		.4byte	0x3a61
 13881 3a99 07       		.uleb128 0x7
 13882 3a9a 811E0000 		.4byte	.LASF783
 13883 3a9e 0C       		.byte	0xc
 13884 3a9f 38       		.byte	0x38
 13885 3aa0 1F       		.byte	0x1f
 13886 3aa1 CA3A0000 		.4byte	0x3aca
 13887 3aa5 08       		.uleb128 0x8
 13888 3aa6 9A0C0000 		.4byte	.LASF771
 13889 3aaa 38       		.byte	0x38
 13890 3aab 20       		.byte	0x20
 13891 3aac D0030000 		.4byte	0x3d0
 13892 3ab0 00       		.byte	0
 13893 3ab1 08       		.uleb128 0x8
 13894 3ab2 41080000 		.4byte	.LASF772
 13895 3ab6 38       		.byte	0x38
 13896 3ab7 21       		.byte	0x21
 13897 3ab8 D0030000 		.4byte	0x3d0
 13898 3abc 04       		.byte	0x4
 13899 3abd 08       		.uleb128 0x8
 13900 3abe E5050000 		.4byte	.LASF784
 13901 3ac2 38       		.byte	0x38
 13902 3ac3 22       		.byte	0x22
 13903 3ac4 5B3A0000 		.4byte	0x3a5b
 13904 3ac8 08       		.byte	0x8
 13905 3ac9 00       		.byte	0
 13906 3aca 03       		.uleb128 0x3
 13907 3acb 83200000 		.4byte	.LASF785
 13908 3acf 38       		.byte	0x38
 13909 3ad0 23       		.byte	0x23
 13910 3ad1 993A0000 		.4byte	0x3a99
 13911 3ad5 0B       		.uleb128 0xb
 13912 3ad6 04       		.byte	0x4
 13913 3ad7 CA3A0000 		.4byte	0x3aca
 13914 3adb 03       		.uleb128 0x3
 13915 3adc 86170000 		.4byte	.LASF786
 13916 3ae0 39       		.byte	0x39
 13917 3ae1 16       		.byte	0x16
 13918 3ae2 B1000000 		.4byte	0xb1
 13919 3ae6 07       		.uleb128 0x7
 13920 3ae7 571F0000 		.4byte	.LASF787
 13921 3aeb 18       		.byte	0x18
 13922 3aec 39       		.byte	0x39
 13923 3aed 2F       		.byte	0x2f
 13924 3aee 393B0000 		.4byte	0x3b39
 13925 3af2 08       		.uleb128 0x8
 13926 3af3 3E140000 		.4byte	.LASF788
 13927 3af7 39       		.byte	0x39
ARM GAS  /var/folders/d2/nstgp4h54kz7g1l847x_b8wc0000gn/T//ccB20FE7.s 			page 251


 13928 3af8 31       		.byte	0x31
 13929 3af9 393B0000 		.4byte	0x3b39
 13930 3afd 00       		.byte	0
 13931 3afe 18       		.uleb128 0x18
 13932 3aff 5F6B00   		.ascii	"_k\000"
 13933 3b02 39       		.byte	0x39
 13934 3b03 32       		.byte	0x32
 13935 3b04 25000000 		.4byte	0x25
 13936 3b08 04       		.byte	0x4
 13937 3b09 08       		.uleb128 0x8
 13938 3b0a F91C0000 		.4byte	.LASF789
 13939 3b0e 39       		.byte	0x39
 13940 3b0f 32       		.byte	0x32
 13941 3b10 25000000 		.4byte	0x25
 13942 3b14 08       		.byte	0x8
 13943 3b15 08       		.uleb128 0x8
 13944 3b16 1D1D0000 		.4byte	.LASF790
 13945 3b1a 39       		.byte	0x39
 13946 3b1b 32       		.byte	0x32
 13947 3b1c 25000000 		.4byte	0x25
 13948 3b20 0C       		.byte	0xc
 13949 3b21 08       		.uleb128 0x8
 13950 3b22 C80B0000 		.4byte	.LASF791
 13951 3b26 39       		.byte	0x39
 13952 3b27 32       		.byte	0x32
 13953 3b28 25000000 		.4byte	0x25
 13954 3b2c 10       		.byte	0x10
 13955 3b2d 18       		.uleb128 0x18
 13956 3b2e 5F7800   		.ascii	"_x\000"
 13957 3b31 39       		.byte	0x39
 13958 3b32 33       		.byte	0x33
 13959 3b33 3F3B0000 		.4byte	0x3b3f
 13960 3b37 14       		.byte	0x14
 13961 3b38 00       		.byte	0
 13962 3b39 0B       		.uleb128 0xb
 13963 3b3a 04       		.byte	0x4
 13964 3b3b E63A0000 		.4byte	0x3ae6
 13965 3b3f 13       		.uleb128 0x13
 13966 3b40 DB3A0000 		.4byte	0x3adb
 13967 3b44 4F3B0000 		.4byte	0x3b4f
 13968 3b48 14       		.uleb128 0x14
 13969 3b49 37000000 		.4byte	0x37
 13970 3b4d 00       		.byte	0
 13971 3b4e 00       		.byte	0
 13972 3b4f 07       		.uleb128 0x7
 13973 3b50 68200000 		.4byte	.LASF792
 13974 3b54 24       		.byte	0x24
 13975 3b55 39       		.byte	0x39
 13976 3b56 37       		.byte	0x37
 13977 3b57 C83B0000 		.4byte	0x3bc8
 13978 3b5b 08       		.uleb128 0x8
 13979 3b5c F5150000 		.4byte	.LASF793
 13980 3b60 39       		.byte	0x39
 13981 3b61 39       		.byte	0x39
 13982 3b62 25000000 		.4byte	0x25
 13983 3b66 00       		.byte	0
 13984 3b67 08       		.uleb128 0x8
ARM GAS  /var/folders/d2/nstgp4h54kz7g1l847x_b8wc0000gn/T//ccB20FE7.s 			page 252


 13985 3b68 E20C0000 		.4byte	.LASF794
 13986 3b6c 39       		.byte	0x39
 13987 3b6d 3A       		.byte	0x3a
 13988 3b6e 25000000 		.4byte	0x25
 13989 3b72 04       		.byte	0x4
 13990 3b73 08       		.uleb128 0x8
 13991 3b74 20110000 		.4byte	.LASF795
 13992 3b78 39       		.byte	0x39
 13993 3b79 3B       		.byte	0x3b
 13994 3b7a 25000000 		.4byte	0x25
 13995 3b7e 08       		.byte	0x8
 13996 3b7f 08       		.uleb128 0x8
 13997 3b80 CF0A0000 		.4byte	.LASF796
 13998 3b84 39       		.byte	0x39
 13999 3b85 3C       		.byte	0x3c
 14000 3b86 25000000 		.4byte	0x25
 14001 3b8a 0C       		.byte	0xc
 14002 3b8b 08       		.uleb128 0x8
 14003 3b8c A1020000 		.4byte	.LASF797
 14004 3b90 39       		.byte	0x39
 14005 3b91 3D       		.byte	0x3d
 14006 3b92 25000000 		.4byte	0x25
 14007 3b96 10       		.byte	0x10
 14008 3b97 08       		.uleb128 0x8
 14009 3b98 1D0D0000 		.4byte	.LASF798
 14010 3b9c 39       		.byte	0x39
 14011 3b9d 3E       		.byte	0x3e
 14012 3b9e 25000000 		.4byte	0x25
 14013 3ba2 14       		.byte	0x14
 14014 3ba3 08       		.uleb128 0x8
 14015 3ba4 B40A0000 		.4byte	.LASF799
 14016 3ba8 39       		.byte	0x39
 14017 3ba9 3F       		.byte	0x3f
 14018 3baa 25000000 		.4byte	0x25
 14019 3bae 18       		.byte	0x18
 14020 3baf 08       		.uleb128 0x8
 14021 3bb0 1F0B0000 		.4byte	.LASF800
 14022 3bb4 39       		.byte	0x39
 14023 3bb5 40       		.byte	0x40
 14024 3bb6 25000000 		.4byte	0x25
 14025 3bba 1C       		.byte	0x1c
 14026 3bbb 08       		.uleb128 0x8
 14027 3bbc 692B0000 		.4byte	.LASF801
 14028 3bc0 39       		.byte	0x39
 14029 3bc1 41       		.byte	0x41
 14030 3bc2 25000000 		.4byte	0x25
 14031 3bc6 20       		.byte	0x20
 14032 3bc7 00       		.byte	0
 14033 3bc8 26       		.uleb128 0x26
 14034 3bc9 16160000 		.4byte	.LASF802
 14035 3bcd 0801     		.2byte	0x108
 14036 3bcf 39       		.byte	0x39
 14037 3bd0 4A       		.byte	0x4a
 14038 3bd1 083C0000 		.4byte	0x3c08
 14039 3bd5 08       		.uleb128 0x8
 14040 3bd6 94130000 		.4byte	.LASF803
 14041 3bda 39       		.byte	0x39
ARM GAS  /var/folders/d2/nstgp4h54kz7g1l847x_b8wc0000gn/T//ccB20FE7.s 			page 253


 14042 3bdb 4B       		.byte	0x4b
 14043 3bdc 083C0000 		.4byte	0x3c08
 14044 3be0 00       		.byte	0
 14045 3be1 08       		.uleb128 0x8
 14046 3be2 B0040000 		.4byte	.LASF804
 14047 3be6 39       		.byte	0x39
 14048 3be7 4C       		.byte	0x4c
 14049 3be8 083C0000 		.4byte	0x3c08
 14050 3bec 80       		.byte	0x80
 14051 3bed 27       		.uleb128 0x27
 14052 3bee AA020000 		.4byte	.LASF805
 14053 3bf2 39       		.byte	0x39
 14054 3bf3 4E       		.byte	0x4e
 14055 3bf4 DB3A0000 		.4byte	0x3adb
 14056 3bf8 0001     		.2byte	0x100
 14057 3bfa 27       		.uleb128 0x27
 14058 3bfb F1230000 		.4byte	.LASF806
 14059 3bff 39       		.byte	0x39
 14060 3c00 51       		.byte	0x51
 14061 3c01 DB3A0000 		.4byte	0x3adb
 14062 3c05 0401     		.2byte	0x104
 14063 3c07 00       		.byte	0
 14064 3c08 13       		.uleb128 0x13
 14065 3c09 D0030000 		.4byte	0x3d0
 14066 3c0d 183C0000 		.4byte	0x3c18
 14067 3c11 14       		.uleb128 0x14
 14068 3c12 37000000 		.4byte	0x37
 14069 3c16 1F       		.byte	0x1f
 14070 3c17 00       		.byte	0
 14071 3c18 26       		.uleb128 0x26
 14072 3c19 D7010000 		.4byte	.LASF807
 14073 3c1d 9001     		.2byte	0x190
 14074 3c1f 39       		.byte	0x39
 14075 3c20 5D       		.byte	0x5d
 14076 3c21 563C0000 		.4byte	0x3c56
 14077 3c25 08       		.uleb128 0x8
 14078 3c26 3E140000 		.4byte	.LASF788
 14079 3c2a 39       		.byte	0x39
 14080 3c2b 5E       		.byte	0x5e
 14081 3c2c 563C0000 		.4byte	0x3c56
 14082 3c30 00       		.byte	0
 14083 3c31 08       		.uleb128 0x8
 14084 3c32 C6020000 		.4byte	.LASF808
 14085 3c36 39       		.byte	0x39
 14086 3c37 5F       		.byte	0x5f
 14087 3c38 25000000 		.4byte	0x25
 14088 3c3c 04       		.byte	0x4
 14089 3c3d 08       		.uleb128 0x8
 14090 3c3e B7220000 		.4byte	.LASF809
 14091 3c42 39       		.byte	0x39
 14092 3c43 61       		.byte	0x61
 14093 3c44 5C3C0000 		.4byte	0x3c5c
 14094 3c48 08       		.byte	0x8
 14095 3c49 08       		.uleb128 0x8
 14096 3c4a 16160000 		.4byte	.LASF802
 14097 3c4e 39       		.byte	0x39
 14098 3c4f 62       		.byte	0x62
ARM GAS  /var/folders/d2/nstgp4h54kz7g1l847x_b8wc0000gn/T//ccB20FE7.s 			page 254


 14099 3c50 C83B0000 		.4byte	0x3bc8
 14100 3c54 88       		.byte	0x88
 14101 3c55 00       		.byte	0
 14102 3c56 0B       		.uleb128 0xb
 14103 3c57 04       		.byte	0x4
 14104 3c58 183C0000 		.4byte	0x3c18
 14105 3c5c 13       		.uleb128 0x13
 14106 3c5d 6C3C0000 		.4byte	0x3c6c
 14107 3c61 6C3C0000 		.4byte	0x3c6c
 14108 3c65 14       		.uleb128 0x14
 14109 3c66 37000000 		.4byte	0x37
 14110 3c6a 1F       		.byte	0x1f
 14111 3c6b 00       		.byte	0
 14112 3c6c 0B       		.uleb128 0xb
 14113 3c6d 04       		.byte	0x4
 14114 3c6e 723C0000 		.4byte	0x3c72
 14115 3c72 2E       		.uleb128 0x2e
 14116 3c73 07       		.uleb128 0x7
 14117 3c74 2E1A0000 		.4byte	.LASF810
 14118 3c78 08       		.byte	0x8
 14119 3c79 39       		.byte	0x39
 14120 3c7a 75       		.byte	0x75
 14121 3c7b 983C0000 		.4byte	0x3c98
 14122 3c7f 08       		.uleb128 0x8
 14123 3c80 5B160000 		.4byte	.LASF811
 14124 3c84 39       		.byte	0x39
 14125 3c85 76       		.byte	0x76
 14126 3c86 983C0000 		.4byte	0x3c98
 14127 3c8a 00       		.byte	0
 14128 3c8b 08       		.uleb128 0x8
 14129 3c8c 720C0000 		.4byte	.LASF812
 14130 3c90 39       		.byte	0x39
 14131 3c91 77       		.byte	0x77
 14132 3c92 25000000 		.4byte	0x25
 14133 3c96 04       		.byte	0x4
 14134 3c97 00       		.byte	0
 14135 3c98 0B       		.uleb128 0xb
 14136 3c99 04       		.byte	0x4
 14137 3c9a 69000000 		.4byte	0x69
 14138 3c9e 07       		.uleb128 0x7
 14139 3c9f 9D220000 		.4byte	.LASF813
 14140 3ca3 68       		.byte	0x68
 14141 3ca4 39       		.byte	0x39
 14142 3ca5 B5       		.byte	0xb5
 14143 3ca6 C83D0000 		.4byte	0x3dc8
 14144 3caa 18       		.uleb128 0x18
 14145 3cab 5F7000   		.ascii	"_p\000"
 14146 3cae 39       		.byte	0x39
 14147 3caf B6       		.byte	0xb6
 14148 3cb0 983C0000 		.4byte	0x3c98
 14149 3cb4 00       		.byte	0
 14150 3cb5 18       		.uleb128 0x18
 14151 3cb6 5F7200   		.ascii	"_r\000"
 14152 3cb9 39       		.byte	0x39
 14153 3cba B7       		.byte	0xb7
 14154 3cbb 25000000 		.4byte	0x25
 14155 3cbf 04       		.byte	0x4
ARM GAS  /var/folders/d2/nstgp4h54kz7g1l847x_b8wc0000gn/T//ccB20FE7.s 			page 255


 14156 3cc0 18       		.uleb128 0x18
 14157 3cc1 5F7700   		.ascii	"_w\000"
 14158 3cc4 39       		.byte	0x39
 14159 3cc5 B8       		.byte	0xb8
 14160 3cc6 25000000 		.4byte	0x25
 14161 3cca 08       		.byte	0x8
 14162 3ccb 08       		.uleb128 0x8
 14163 3ccc 34030000 		.4byte	.LASF814
 14164 3cd0 39       		.byte	0x39
 14165 3cd1 B9       		.byte	0xb9
 14166 3cd2 7B000000 		.4byte	0x7b
 14167 3cd6 0C       		.byte	0xc
 14168 3cd7 08       		.uleb128 0x8
 14169 3cd8 49220000 		.4byte	.LASF815
 14170 3cdc 39       		.byte	0x39
 14171 3cdd BA       		.byte	0xba
 14172 3cde 7B000000 		.4byte	0x7b
 14173 3ce2 0E       		.byte	0xe
 14174 3ce3 18       		.uleb128 0x18
 14175 3ce4 5F626600 		.ascii	"_bf\000"
 14176 3ce8 39       		.byte	0x39
 14177 3ce9 BB       		.byte	0xbb
 14178 3cea 733C0000 		.4byte	0x3c73
 14179 3cee 10       		.byte	0x10
 14180 3cef 08       		.uleb128 0x8
 14181 3cf0 21060000 		.4byte	.LASF816
 14182 3cf4 39       		.byte	0x39
 14183 3cf5 BC       		.byte	0xbc
 14184 3cf6 25000000 		.4byte	0x25
 14185 3cfa 18       		.byte	0x18
 14186 3cfb 08       		.uleb128 0x8
 14187 3cfc E3140000 		.4byte	.LASF817
 14188 3d00 39       		.byte	0x39
 14189 3d01 C3       		.byte	0xc3
 14190 3d02 D0030000 		.4byte	0x3d0
 14191 3d06 1C       		.byte	0x1c
 14192 3d07 08       		.uleb128 0x8
 14193 3d08 2A2B0000 		.4byte	.LASF818
 14194 3d0c 39       		.byte	0x39
 14195 3d0d C5       		.byte	0xc5
 14196 3d0e 233F0000 		.4byte	0x3f23
 14197 3d12 20       		.byte	0x20
 14198 3d13 08       		.uleb128 0x8
 14199 3d14 780C0000 		.4byte	.LASF819
 14200 3d18 39       		.byte	0x39
 14201 3d19 C7       		.byte	0xc7
 14202 3d1a 473F0000 		.4byte	0x3f47
 14203 3d1e 24       		.byte	0x24
 14204 3d1f 08       		.uleb128 0x8
 14205 3d20 85180000 		.4byte	.LASF820
 14206 3d24 39       		.byte	0x39
 14207 3d25 CA       		.byte	0xca
 14208 3d26 6B3F0000 		.4byte	0x3f6b
 14209 3d2a 28       		.byte	0x28
 14210 3d2b 08       		.uleb128 0x8
 14211 3d2c 2C1E0000 		.4byte	.LASF821
 14212 3d30 39       		.byte	0x39
ARM GAS  /var/folders/d2/nstgp4h54kz7g1l847x_b8wc0000gn/T//ccB20FE7.s 			page 256


 14213 3d31 CB       		.byte	0xcb
 14214 3d32 853F0000 		.4byte	0x3f85
 14215 3d36 2C       		.byte	0x2c
 14216 3d37 18       		.uleb128 0x18
 14217 3d38 5F756200 		.ascii	"_ub\000"
 14218 3d3c 39       		.byte	0x39
 14219 3d3d CE       		.byte	0xce
 14220 3d3e 733C0000 		.4byte	0x3c73
 14221 3d42 30       		.byte	0x30
 14222 3d43 18       		.uleb128 0x18
 14223 3d44 5F757000 		.ascii	"_up\000"
 14224 3d48 39       		.byte	0x39
 14225 3d49 CF       		.byte	0xcf
 14226 3d4a 983C0000 		.4byte	0x3c98
 14227 3d4e 38       		.byte	0x38
 14228 3d4f 18       		.uleb128 0x18
 14229 3d50 5F757200 		.ascii	"_ur\000"
 14230 3d54 39       		.byte	0x39
 14231 3d55 D0       		.byte	0xd0
 14232 3d56 25000000 		.4byte	0x25
 14233 3d5a 3C       		.byte	0x3c
 14234 3d5b 08       		.uleb128 0x8
 14235 3d5c 52210000 		.4byte	.LASF822
 14236 3d60 39       		.byte	0x39
 14237 3d61 D3       		.byte	0xd3
 14238 3d62 8B3F0000 		.4byte	0x3f8b
 14239 3d66 40       		.byte	0x40
 14240 3d67 08       		.uleb128 0x8
 14241 3d68 23040000 		.4byte	.LASF823
 14242 3d6c 39       		.byte	0x39
 14243 3d6d D4       		.byte	0xd4
 14244 3d6e 9B3F0000 		.4byte	0x3f9b
 14245 3d72 43       		.byte	0x43
 14246 3d73 18       		.uleb128 0x18
 14247 3d74 5F6C6200 		.ascii	"_lb\000"
 14248 3d78 39       		.byte	0x39
 14249 3d79 D7       		.byte	0xd7
 14250 3d7a 733C0000 		.4byte	0x3c73
 14251 3d7e 44       		.byte	0x44
 14252 3d7f 08       		.uleb128 0x8
 14253 3d80 450D0000 		.4byte	.LASF824
 14254 3d84 39       		.byte	0x39
 14255 3d85 DA       		.byte	0xda
 14256 3d86 25000000 		.4byte	0x25
 14257 3d8a 4C       		.byte	0x4c
 14258 3d8b 08       		.uleb128 0x8
 14259 3d8c C0190000 		.4byte	.LASF825
 14260 3d90 39       		.byte	0x39
 14261 3d91 DB       		.byte	0xdb
 14262 3d92 B7380000 		.4byte	0x38b7
 14263 3d96 50       		.byte	0x50
 14264 3d97 08       		.uleb128 0x8
 14265 3d98 6F260000 		.4byte	.LASF826
 14266 3d9c 39       		.byte	0x39
 14267 3d9d DE       		.byte	0xde
 14268 3d9e E63D0000 		.4byte	0x3de6
 14269 3da2 54       		.byte	0x54
ARM GAS  /var/folders/d2/nstgp4h54kz7g1l847x_b8wc0000gn/T//ccB20FE7.s 			page 257


 14270 3da3 08       		.uleb128 0x8
 14271 3da4 1D040000 		.4byte	.LASF827
 14272 3da8 39       		.byte	0x39
 14273 3da9 E2       		.byte	0xe2
 14274 3daa 34390000 		.4byte	0x3934
 14275 3dae 58       		.byte	0x58
 14276 3daf 08       		.uleb128 0x8
 14277 3db0 53170000 		.4byte	.LASF828
 14278 3db4 39       		.byte	0x39
 14279 3db5 E4       		.byte	0xe4
 14280 3db6 29390000 		.4byte	0x3929
 14281 3dba 5C       		.byte	0x5c
 14282 3dbb 08       		.uleb128 0x8
 14283 3dbc 4E280000 		.4byte	.LASF829
 14284 3dc0 39       		.byte	0x39
 14285 3dc1 E5       		.byte	0xe5
 14286 3dc2 25000000 		.4byte	0x25
 14287 3dc6 64       		.byte	0x64
 14288 3dc7 00       		.byte	0
 14289 3dc8 20       		.uleb128 0x20
 14290 3dc9 25000000 		.4byte	0x25
 14291 3dcd E63D0000 		.4byte	0x3de6
 14292 3dd1 0E       		.uleb128 0xe
 14293 3dd2 E63D0000 		.4byte	0x3de6
 14294 3dd6 0E       		.uleb128 0xe
 14295 3dd7 D0030000 		.4byte	0x3d0
 14296 3ddb 0E       		.uleb128 0xe
 14297 3ddc 3F390000 		.4byte	0x393f
 14298 3de0 0E       		.uleb128 0xe
 14299 3de1 25000000 		.4byte	0x25
 14300 3de5 00       		.byte	0
 14301 3de6 0B       		.uleb128 0xb
 14302 3de7 04       		.byte	0x4
 14303 3de8 F13D0000 		.4byte	0x3df1
 14304 3dec 05       		.uleb128 0x5
 14305 3ded E63D0000 		.4byte	0x3de6
 14306 3df1 10       		.uleb128 0x10
 14307 3df2 A71A0000 		.4byte	.LASF830
 14308 3df6 2804     		.2byte	0x428
 14309 3df8 39       		.byte	0x39
 14310 3df9 3902     		.2byte	0x239
 14311 3dfb 233F0000 		.4byte	0x3f23
 14312 3dff 0A       		.uleb128 0xa
 14313 3e00 1A130000 		.4byte	.LASF831
 14314 3e04 39       		.byte	0x39
 14315 3e05 3B02     		.2byte	0x23b
 14316 3e07 25000000 		.4byte	0x25
 14317 3e0b 00       		.byte	0
 14318 3e0c 0A       		.uleb128 0xa
 14319 3e0d 760E0000 		.4byte	.LASF832
 14320 3e11 39       		.byte	0x39
 14321 3e12 4002     		.2byte	0x240
 14322 3e14 F23F0000 		.4byte	0x3ff2
 14323 3e18 04       		.byte	0x4
 14324 3e19 0A       		.uleb128 0xa
 14325 3e1a 470B0000 		.4byte	.LASF833
 14326 3e1e 39       		.byte	0x39
ARM GAS  /var/folders/d2/nstgp4h54kz7g1l847x_b8wc0000gn/T//ccB20FE7.s 			page 258


 14327 3e1f 4002     		.2byte	0x240
 14328 3e21 F23F0000 		.4byte	0x3ff2
 14329 3e25 08       		.byte	0x8
 14330 3e26 0A       		.uleb128 0xa
 14331 3e27 500A0000 		.4byte	.LASF834
 14332 3e2b 39       		.byte	0x39
 14333 3e2c 4002     		.2byte	0x240
 14334 3e2e F23F0000 		.4byte	0x3ff2
 14335 3e32 0C       		.byte	0xc
 14336 3e33 0A       		.uleb128 0xa
 14337 3e34 C1020000 		.4byte	.LASF835
 14338 3e38 39       		.byte	0x39
 14339 3e39 4202     		.2byte	0x242
 14340 3e3b 25000000 		.4byte	0x25
 14341 3e3f 10       		.byte	0x10
 14342 3e40 0A       		.uleb128 0xa
 14343 3e41 71100000 		.4byte	.LASF836
 14344 3e45 39       		.byte	0x39
 14345 3e46 4302     		.2byte	0x243
 14346 3e48 D4410000 		.4byte	0x41d4
 14347 3e4c 14       		.byte	0x14
 14348 3e4d 0A       		.uleb128 0xa
 14349 3e4e BA260000 		.4byte	.LASF837
 14350 3e52 39       		.byte	0x39
 14351 3e53 4602     		.2byte	0x246
 14352 3e55 25000000 		.4byte	0x25
 14353 3e59 30       		.byte	0x30
 14354 3e5a 0A       		.uleb128 0xa
 14355 3e5b A9280000 		.4byte	.LASF838
 14356 3e5f 39       		.byte	0x39
 14357 3e60 4702     		.2byte	0x247
 14358 3e62 E9410000 		.4byte	0x41e9
 14359 3e66 34       		.byte	0x34
 14360 3e67 0A       		.uleb128 0xa
 14361 3e68 2A270000 		.4byte	.LASF839
 14362 3e6c 39       		.byte	0x39
 14363 3e6d 4902     		.2byte	0x249
 14364 3e6f 25000000 		.4byte	0x25
 14365 3e73 38       		.byte	0x38
 14366 3e74 0A       		.uleb128 0xa
 14367 3e75 AE210000 		.4byte	.LASF840
 14368 3e79 39       		.byte	0x39
 14369 3e7a 4B02     		.2byte	0x24b
 14370 3e7c FA410000 		.4byte	0x41fa
 14371 3e80 3C       		.byte	0x3c
 14372 3e81 0A       		.uleb128 0xa
 14373 3e82 580A0000 		.4byte	.LASF841
 14374 3e86 39       		.byte	0x39
 14375 3e87 4E02     		.2byte	0x24e
 14376 3e89 393B0000 		.4byte	0x3b39
 14377 3e8d 40       		.byte	0x40
 14378 3e8e 0A       		.uleb128 0xa
 14379 3e8f 410A0000 		.4byte	.LASF842
 14380 3e93 39       		.byte	0x39
 14381 3e94 4F02     		.2byte	0x24f
 14382 3e96 25000000 		.4byte	0x25
 14383 3e9a 44       		.byte	0x44
ARM GAS  /var/folders/d2/nstgp4h54kz7g1l847x_b8wc0000gn/T//ccB20FE7.s 			page 259


 14384 3e9b 0A       		.uleb128 0xa
 14385 3e9c 2B240000 		.4byte	.LASF843
 14386 3ea0 39       		.byte	0x39
 14387 3ea1 5002     		.2byte	0x250
 14388 3ea3 393B0000 		.4byte	0x3b39
 14389 3ea7 48       		.byte	0x48
 14390 3ea8 0A       		.uleb128 0xa
 14391 3ea9 85190000 		.4byte	.LASF844
 14392 3ead 39       		.byte	0x39
 14393 3eae 5102     		.2byte	0x251
 14394 3eb0 00420000 		.4byte	0x4200
 14395 3eb4 4C       		.byte	0x4c
 14396 3eb5 0A       		.uleb128 0xa
 14397 3eb6 92030000 		.4byte	.LASF845
 14398 3eba 39       		.byte	0x39
 14399 3ebb 5402     		.2byte	0x254
 14400 3ebd 25000000 		.4byte	0x25
 14401 3ec1 50       		.byte	0x50
 14402 3ec2 0A       		.uleb128 0xa
 14403 3ec3 54100000 		.4byte	.LASF846
 14404 3ec7 39       		.byte	0x39
 14405 3ec8 5502     		.2byte	0x255
 14406 3eca 3F390000 		.4byte	0x393f
 14407 3ece 54       		.byte	0x54
 14408 3ecf 0A       		.uleb128 0xa
 14409 3ed0 6E060000 		.4byte	.LASF847
 14410 3ed4 39       		.byte	0x39
 14411 3ed5 7802     		.2byte	0x278
 14412 3ed7 B2410000 		.4byte	0x41b2
 14413 3edb 58       		.byte	0x58
 14414 3edc 11       		.uleb128 0x11
 14415 3edd D7010000 		.4byte	.LASF807
 14416 3ee1 39       		.byte	0x39
 14417 3ee2 7C02     		.2byte	0x27c
 14418 3ee4 563C0000 		.4byte	0x3c56
 14419 3ee8 4801     		.2byte	0x148
 14420 3eea 11       		.uleb128 0x11
 14421 3eeb 9E1F0000 		.4byte	.LASF848
 14422 3eef 39       		.byte	0x39
 14423 3ef0 7D02     		.2byte	0x27d
 14424 3ef2 183C0000 		.4byte	0x3c18
 14425 3ef6 4C01     		.2byte	0x14c
 14426 3ef8 11       		.uleb128 0x11
 14427 3ef9 C0030000 		.4byte	.LASF849
 14428 3efd 39       		.byte	0x39
 14429 3efe 8102     		.2byte	0x281
 14430 3f00 11420000 		.4byte	0x4211
 14431 3f04 DC02     		.2byte	0x2dc
 14432 3f06 11       		.uleb128 0x11
 14433 3f07 8C210000 		.4byte	.LASF850
 14434 3f0b 39       		.byte	0x39
 14435 3f0c 8602     		.2byte	0x286
 14436 3f0e B73F0000 		.4byte	0x3fb7
 14437 3f12 E002     		.2byte	0x2e0
 14438 3f14 11       		.uleb128 0x11
 14439 3f15 AE070000 		.4byte	.LASF851
 14440 3f19 39       		.byte	0x39
ARM GAS  /var/folders/d2/nstgp4h54kz7g1l847x_b8wc0000gn/T//ccB20FE7.s 			page 260


 14441 3f1a 8802     		.2byte	0x288
 14442 3f1c 1D420000 		.4byte	0x421d
 14443 3f20 EC02     		.2byte	0x2ec
 14444 3f22 00       		.byte	0
 14445 3f23 0B       		.uleb128 0xb
 14446 3f24 04       		.byte	0x4
 14447 3f25 C83D0000 		.4byte	0x3dc8
 14448 3f29 20       		.uleb128 0x20
 14449 3f2a 25000000 		.4byte	0x25
 14450 3f2e 473F0000 		.4byte	0x3f47
 14451 3f32 0E       		.uleb128 0xe
 14452 3f33 E63D0000 		.4byte	0x3de6
 14453 3f37 0E       		.uleb128 0xe
 14454 3f38 D0030000 		.4byte	0x3d0
 14455 3f3c 0E       		.uleb128 0xe
 14456 3f3d 15110000 		.4byte	0x1115
 14457 3f41 0E       		.uleb128 0xe
 14458 3f42 25000000 		.4byte	0x25
 14459 3f46 00       		.byte	0
 14460 3f47 0B       		.uleb128 0xb
 14461 3f48 04       		.byte	0x4
 14462 3f49 293F0000 		.4byte	0x3f29
 14463 3f4d 20       		.uleb128 0x20
 14464 3f4e C2380000 		.4byte	0x38c2
 14465 3f52 6B3F0000 		.4byte	0x3f6b
 14466 3f56 0E       		.uleb128 0xe
 14467 3f57 E63D0000 		.4byte	0x3de6
 14468 3f5b 0E       		.uleb128 0xe
 14469 3f5c D0030000 		.4byte	0x3d0
 14470 3f60 0E       		.uleb128 0xe
 14471 3f61 C2380000 		.4byte	0x38c2
 14472 3f65 0E       		.uleb128 0xe
 14473 3f66 25000000 		.4byte	0x25
 14474 3f6a 00       		.byte	0
 14475 3f6b 0B       		.uleb128 0xb
 14476 3f6c 04       		.byte	0x4
 14477 3f6d 4D3F0000 		.4byte	0x3f4d
 14478 3f71 20       		.uleb128 0x20
 14479 3f72 25000000 		.4byte	0x25
 14480 3f76 853F0000 		.4byte	0x3f85
 14481 3f7a 0E       		.uleb128 0xe
 14482 3f7b E63D0000 		.4byte	0x3de6
 14483 3f7f 0E       		.uleb128 0xe
 14484 3f80 D0030000 		.4byte	0x3d0
 14485 3f84 00       		.byte	0
 14486 3f85 0B       		.uleb128 0xb
 14487 3f86 04       		.byte	0x4
 14488 3f87 713F0000 		.4byte	0x3f71
 14489 3f8b 13       		.uleb128 0x13
 14490 3f8c 69000000 		.4byte	0x69
 14491 3f90 9B3F0000 		.4byte	0x3f9b
 14492 3f94 14       		.uleb128 0x14
 14493 3f95 37000000 		.4byte	0x37
 14494 3f99 02       		.byte	0x2
 14495 3f9a 00       		.byte	0
 14496 3f9b 13       		.uleb128 0x13
 14497 3f9c 69000000 		.4byte	0x69
ARM GAS  /var/folders/d2/nstgp4h54kz7g1l847x_b8wc0000gn/T//ccB20FE7.s 			page 261


 14498 3fa0 AB3F0000 		.4byte	0x3fab
 14499 3fa4 14       		.uleb128 0x14
 14500 3fa5 37000000 		.4byte	0x37
 14501 3fa9 00       		.byte	0
 14502 3faa 00       		.byte	0
 14503 3fab 1A       		.uleb128 0x1a
 14504 3fac FB290000 		.4byte	.LASF852
 14505 3fb0 39       		.byte	0x39
 14506 3fb1 1F01     		.2byte	0x11f
 14507 3fb3 9E3C0000 		.4byte	0x3c9e
 14508 3fb7 0C       		.uleb128 0xc
 14509 3fb8 681E0000 		.4byte	.LASF853
 14510 3fbc 0C       		.byte	0xc
 14511 3fbd 39       		.byte	0x39
 14512 3fbe 2301     		.2byte	0x123
 14513 3fc0 EC3F0000 		.4byte	0x3fec
 14514 3fc4 0A       		.uleb128 0xa
 14515 3fc5 3E140000 		.4byte	.LASF788
 14516 3fc9 39       		.byte	0x39
 14517 3fca 2501     		.2byte	0x125
 14518 3fcc EC3F0000 		.4byte	0x3fec
 14519 3fd0 00       		.byte	0
 14520 3fd1 0A       		.uleb128 0xa
 14521 3fd2 A9110000 		.4byte	.LASF854
 14522 3fd6 39       		.byte	0x39
 14523 3fd7 2601     		.2byte	0x126
 14524 3fd9 25000000 		.4byte	0x25
 14525 3fdd 04       		.byte	0x4
 14526 3fde 0A       		.uleb128 0xa
 14527 3fdf 6A1C0000 		.4byte	.LASF855
 14528 3fe3 39       		.byte	0x39
 14529 3fe4 2701     		.2byte	0x127
 14530 3fe6 F23F0000 		.4byte	0x3ff2
 14531 3fea 08       		.byte	0x8
 14532 3feb 00       		.byte	0
 14533 3fec 0B       		.uleb128 0xb
 14534 3fed 04       		.byte	0x4
 14535 3fee B73F0000 		.4byte	0x3fb7
 14536 3ff2 0B       		.uleb128 0xb
 14537 3ff3 04       		.byte	0x4
 14538 3ff4 AB3F0000 		.4byte	0x3fab
 14539 3ff8 0C       		.uleb128 0xc
 14540 3ff9 552B0000 		.4byte	.LASF856
 14541 3ffd 0E       		.byte	0xe
 14542 3ffe 39       		.byte	0x39
 14543 3fff 3F01     		.2byte	0x13f
 14544 4001 2D400000 		.4byte	0x402d
 14545 4005 0A       		.uleb128 0xa
 14546 4006 70180000 		.4byte	.LASF857
 14547 400a 39       		.byte	0x39
 14548 400b 4001     		.2byte	0x140
 14549 400d 2D400000 		.4byte	0x402d
 14550 4011 00       		.byte	0
 14551 4012 0A       		.uleb128 0xa
 14552 4013 0C2B0000 		.4byte	.LASF858
 14553 4017 39       		.byte	0x39
 14554 4018 4101     		.2byte	0x141
ARM GAS  /var/folders/d2/nstgp4h54kz7g1l847x_b8wc0000gn/T//ccB20FE7.s 			page 262


 14555 401a 2D400000 		.4byte	0x402d
 14556 401e 06       		.byte	0x6
 14557 401f 0A       		.uleb128 0xa
 14558 4020 841A0000 		.4byte	.LASF859
 14559 4024 39       		.byte	0x39
 14560 4025 4201     		.2byte	0x142
 14561 4027 8D000000 		.4byte	0x8d
 14562 402b 0C       		.byte	0xc
 14563 402c 00       		.byte	0
 14564 402d 13       		.uleb128 0x13
 14565 402e 8D000000 		.4byte	0x8d
 14566 4032 3D400000 		.4byte	0x403d
 14567 4036 14       		.uleb128 0x14
 14568 4037 37000000 		.4byte	0x37
 14569 403b 02       		.byte	0x2
 14570 403c 00       		.byte	0
 14571 403d 19       		.uleb128 0x19
 14572 403e D0       		.byte	0xd0
 14573 403f 39       		.byte	0x39
 14574 4040 5902     		.2byte	0x259
 14575 4042 3E410000 		.4byte	0x413e
 14576 4046 0A       		.uleb128 0xa
 14577 4047 A2090000 		.4byte	.LASF860
 14578 404b 39       		.byte	0x39
 14579 404c 5B02     		.2byte	0x25b
 14580 404e 37000000 		.4byte	0x37
 14581 4052 00       		.byte	0
 14582 4053 0A       		.uleb128 0xa
 14583 4054 26180000 		.4byte	.LASF861
 14584 4058 39       		.byte	0x39
 14585 4059 5C02     		.2byte	0x25c
 14586 405b 3F390000 		.4byte	0x393f
 14587 405f 04       		.byte	0x4
 14588 4060 0A       		.uleb128 0xa
 14589 4061 C51A0000 		.4byte	.LASF862
 14590 4065 39       		.byte	0x39
 14591 4066 5D02     		.2byte	0x25d
 14592 4068 3E410000 		.4byte	0x413e
 14593 406c 08       		.byte	0x8
 14594 406d 0A       		.uleb128 0xa
 14595 406e 24160000 		.4byte	.LASF863
 14596 4072 39       		.byte	0x39
 14597 4073 5E02     		.2byte	0x25e
 14598 4075 4F3B0000 		.4byte	0x3b4f
 14599 4079 24       		.byte	0x24
 14600 407a 0A       		.uleb128 0xa
 14601 407b DD250000 		.4byte	.LASF864
 14602 407f 39       		.byte	0x39
 14603 4080 5F02     		.2byte	0x25f
 14604 4082 25000000 		.4byte	0x25
 14605 4086 48       		.byte	0x48
 14606 4087 0A       		.uleb128 0xa
 14607 4088 A51C0000 		.4byte	.LASF865
 14608 408c 39       		.byte	0x39
 14609 408d 6002     		.2byte	0x260
 14610 408f C3000000 		.4byte	0xc3
 14611 4093 50       		.byte	0x50
ARM GAS  /var/folders/d2/nstgp4h54kz7g1l847x_b8wc0000gn/T//ccB20FE7.s 			page 263


 14612 4094 0A       		.uleb128 0xa
 14613 4095 3C290000 		.4byte	.LASF866
 14614 4099 39       		.byte	0x39
 14615 409a 6102     		.2byte	0x261
 14616 409c F83F0000 		.4byte	0x3ff8
 14617 40a0 58       		.byte	0x58
 14618 40a1 0A       		.uleb128 0xa
 14619 40a2 7F210000 		.4byte	.LASF867
 14620 40a6 39       		.byte	0x39
 14621 40a7 6202     		.2byte	0x262
 14622 40a9 29390000 		.4byte	0x3929
 14623 40ad 68       		.byte	0x68
 14624 40ae 0A       		.uleb128 0xa
 14625 40af DD070000 		.4byte	.LASF868
 14626 40b3 39       		.byte	0x39
 14627 40b4 6302     		.2byte	0x263
 14628 40b6 29390000 		.4byte	0x3929
 14629 40ba 70       		.byte	0x70
 14630 40bb 0A       		.uleb128 0xa
 14631 40bc 1A050000 		.4byte	.LASF869
 14632 40c0 39       		.byte	0x39
 14633 40c1 6402     		.2byte	0x264
 14634 40c3 29390000 		.4byte	0x3929
 14635 40c7 78       		.byte	0x78
 14636 40c8 0A       		.uleb128 0xa
 14637 40c9 BB1A0000 		.4byte	.LASF870
 14638 40cd 39       		.byte	0x39
 14639 40ce 6502     		.2byte	0x265
 14640 40d0 4E410000 		.4byte	0x414e
 14641 40d4 80       		.byte	0x80
 14642 40d5 0A       		.uleb128 0xa
 14643 40d6 B2140000 		.4byte	.LASF871
 14644 40da 39       		.byte	0x39
 14645 40db 6602     		.2byte	0x266
 14646 40dd 5E410000 		.4byte	0x415e
 14647 40e1 88       		.byte	0x88
 14648 40e2 0A       		.uleb128 0xa
 14649 40e3 23200000 		.4byte	.LASF872
 14650 40e7 39       		.byte	0x39
 14651 40e8 6702     		.2byte	0x267
 14652 40ea 25000000 		.4byte	0x25
 14653 40ee A0       		.byte	0xa0
 14654 40ef 0A       		.uleb128 0xa
 14655 40f0 7B1C0000 		.4byte	.LASF873
 14656 40f4 39       		.byte	0x39
 14657 40f5 6802     		.2byte	0x268
 14658 40f7 29390000 		.4byte	0x3929
 14659 40fb A4       		.byte	0xa4
 14660 40fc 0A       		.uleb128 0xa
 14661 40fd 4D000000 		.4byte	.LASF874
 14662 4101 39       		.byte	0x39
 14663 4102 6902     		.2byte	0x269
 14664 4104 29390000 		.4byte	0x3929
 14665 4108 AC       		.byte	0xac
 14666 4109 0A       		.uleb128 0xa
 14667 410a A10B0000 		.4byte	.LASF875
 14668 410e 39       		.byte	0x39
ARM GAS  /var/folders/d2/nstgp4h54kz7g1l847x_b8wc0000gn/T//ccB20FE7.s 			page 264


 14669 410f 6A02     		.2byte	0x26a
 14670 4111 29390000 		.4byte	0x3929
 14671 4115 B4       		.byte	0xb4
 14672 4116 0A       		.uleb128 0xa
 14673 4117 A9160000 		.4byte	.LASF876
 14674 411b 39       		.byte	0x39
 14675 411c 6B02     		.2byte	0x26b
 14676 411e 29390000 		.4byte	0x3929
 14677 4122 BC       		.byte	0xbc
 14678 4123 0A       		.uleb128 0xa
 14679 4124 141B0000 		.4byte	.LASF877
 14680 4128 39       		.byte	0x39
 14681 4129 6C02     		.2byte	0x26c
 14682 412b 29390000 		.4byte	0x3929
 14683 412f C4       		.byte	0xc4
 14684 4130 0A       		.uleb128 0xa
 14685 4131 0A230000 		.4byte	.LASF878
 14686 4135 39       		.byte	0x39
 14687 4136 6D02     		.2byte	0x26d
 14688 4138 25000000 		.4byte	0x25
 14689 413c CC       		.byte	0xcc
 14690 413d 00       		.byte	0
 14691 413e 13       		.uleb128 0x13
 14692 413f 20110000 		.4byte	0x1120
 14693 4143 4E410000 		.4byte	0x414e
 14694 4147 14       		.uleb128 0x14
 14695 4148 37000000 		.4byte	0x37
 14696 414c 19       		.byte	0x19
 14697 414d 00       		.byte	0
 14698 414e 13       		.uleb128 0x13
 14699 414f 20110000 		.4byte	0x1120
 14700 4153 5E410000 		.4byte	0x415e
 14701 4157 14       		.uleb128 0x14
 14702 4158 37000000 		.4byte	0x37
 14703 415c 07       		.byte	0x7
 14704 415d 00       		.byte	0
 14705 415e 13       		.uleb128 0x13
 14706 415f 20110000 		.4byte	0x1120
 14707 4163 6E410000 		.4byte	0x416e
 14708 4167 14       		.uleb128 0x14
 14709 4168 37000000 		.4byte	0x37
 14710 416c 17       		.byte	0x17
 14711 416d 00       		.byte	0
 14712 416e 19       		.uleb128 0x19
 14713 416f F0       		.byte	0xf0
 14714 4170 39       		.byte	0x39
 14715 4171 7202     		.2byte	0x272
 14716 4173 92410000 		.4byte	0x4192
 14717 4177 0A       		.uleb128 0xa
 14718 4178 69280000 		.4byte	.LASF879
 14719 417c 39       		.byte	0x39
 14720 417d 7502     		.2byte	0x275
 14721 417f 92410000 		.4byte	0x4192
 14722 4183 00       		.byte	0
 14723 4184 0A       		.uleb128 0xa
 14724 4185 7D0E0000 		.4byte	.LASF880
 14725 4189 39       		.byte	0x39
ARM GAS  /var/folders/d2/nstgp4h54kz7g1l847x_b8wc0000gn/T//ccB20FE7.s 			page 265


 14726 418a 7602     		.2byte	0x276
 14727 418c A2410000 		.4byte	0x41a2
 14728 4190 78       		.byte	0x78
 14729 4191 00       		.byte	0
 14730 4192 13       		.uleb128 0x13
 14731 4193 983C0000 		.4byte	0x3c98
 14732 4197 A2410000 		.4byte	0x41a2
 14733 419b 14       		.uleb128 0x14
 14734 419c 37000000 		.4byte	0x37
 14735 41a0 1D       		.byte	0x1d
 14736 41a1 00       		.byte	0
 14737 41a2 13       		.uleb128 0x13
 14738 41a3 37000000 		.4byte	0x37
 14739 41a7 B2410000 		.4byte	0x41b2
 14740 41ab 14       		.uleb128 0x14
 14741 41ac 37000000 		.4byte	0x37
 14742 41b0 1D       		.byte	0x1d
 14743 41b1 00       		.byte	0
 14744 41b2 2C       		.uleb128 0x2c
 14745 41b3 F0       		.byte	0xf0
 14746 41b4 39       		.byte	0x39
 14747 41b5 5702     		.2byte	0x257
 14748 41b7 D4410000 		.4byte	0x41d4
 14749 41bb 1E       		.uleb128 0x1e
 14750 41bc A71A0000 		.4byte	.LASF830
 14751 41c0 39       		.byte	0x39
 14752 41c1 6E02     		.2byte	0x26e
 14753 41c3 3D400000 		.4byte	0x403d
 14754 41c7 1E       		.uleb128 0x1e
 14755 41c8 2C210000 		.4byte	.LASF881
 14756 41cc 39       		.byte	0x39
 14757 41cd 7702     		.2byte	0x277
 14758 41cf 6E410000 		.4byte	0x416e
 14759 41d3 00       		.byte	0
 14760 41d4 13       		.uleb128 0x13
 14761 41d5 20110000 		.4byte	0x1120
 14762 41d9 E4410000 		.4byte	0x41e4
 14763 41dd 14       		.uleb128 0x14
 14764 41de 37000000 		.4byte	0x37
 14765 41e2 18       		.byte	0x18
 14766 41e3 00       		.byte	0
 14767 41e4 2D       		.uleb128 0x2d
 14768 41e5 94210000 		.4byte	.LASF883
 14769 41e9 0B       		.uleb128 0xb
 14770 41ea 04       		.byte	0x4
 14771 41eb E4410000 		.4byte	0x41e4
 14772 41ef 0D       		.uleb128 0xd
 14773 41f0 FA410000 		.4byte	0x41fa
 14774 41f4 0E       		.uleb128 0xe
 14775 41f5 E63D0000 		.4byte	0x3de6
 14776 41f9 00       		.byte	0
 14777 41fa 0B       		.uleb128 0xb
 14778 41fb 04       		.byte	0x4
 14779 41fc EF410000 		.4byte	0x41ef
 14780 4200 0B       		.uleb128 0xb
 14781 4201 04       		.byte	0x4
 14782 4202 393B0000 		.4byte	0x3b39
ARM GAS  /var/folders/d2/nstgp4h54kz7g1l847x_b8wc0000gn/T//ccB20FE7.s 			page 266


 14783 4206 0D       		.uleb128 0xd
 14784 4207 11420000 		.4byte	0x4211
 14785 420b 0E       		.uleb128 0xe
 14786 420c 25000000 		.4byte	0x25
 14787 4210 00       		.byte	0
 14788 4211 0B       		.uleb128 0xb
 14789 4212 04       		.byte	0x4
 14790 4213 17420000 		.4byte	0x4217
 14791 4217 0B       		.uleb128 0xb
 14792 4218 04       		.byte	0x4
 14793 4219 06420000 		.4byte	0x4206
 14794 421d 13       		.uleb128 0x13
 14795 421e AB3F0000 		.4byte	0x3fab
 14796 4222 2D420000 		.4byte	0x422d
 14797 4226 14       		.uleb128 0x14
 14798 4227 37000000 		.4byte	0x37
 14799 422b 02       		.byte	0x2
 14800 422c 00       		.byte	0
 14801 422d 15       		.uleb128 0x15
 14802 422e 06210000 		.4byte	.LASF884
 14803 4232 39       		.byte	0x39
 14804 4233 0703     		.2byte	0x307
 14805 4235 E63D0000 		.4byte	0x3de6
 14806 4239 15       		.uleb128 0x15
 14807 423a 10250000 		.4byte	.LASF885
 14808 423e 39       		.byte	0x39
 14809 423f 0803     		.2byte	0x308
 14810 4241 EC3D0000 		.4byte	0x3dec
 14811 4245 16       		.uleb128 0x16
 14812 4246 22020000 		.4byte	.LASF886
 14813 424a 3A       		.byte	0x3a
 14814 424b 63       		.byte	0x63
 14815 424c 3F390000 		.4byte	0x393f
 14816 4250 03       		.uleb128 0x3
 14817 4251 EB140000 		.4byte	.LASF887
 14818 4255 3B       		.byte	0x3b
 14819 4256 08       		.byte	0x8
 14820 4257 5B420000 		.4byte	0x425b
 14821 425b 07       		.uleb128 0x7
 14822 425c BB230000 		.4byte	.LASF888
 14823 4260 18       		.byte	0x18
 14824 4261 3B       		.byte	0x3b
 14825 4262 0B       		.byte	0xb
 14826 4263 AF420000 		.4byte	0x42af
 14827 4267 18       		.uleb128 0x18
 14828 4268 696400   		.ascii	"id\000"
 14829 426b 3B       		.byte	0x3b
 14830 426c 0C       		.byte	0xc
 14831 426d 15110000 		.4byte	0x1115
 14832 4271 00       		.byte	0
 14833 4272 08       		.uleb128 0x8
 14834 4273 16020000 		.4byte	.LASF889
 14835 4277 3B       		.byte	0x3b
 14836 4278 0D       		.byte	0xd
 14837 4279 FB000000 		.4byte	0xfb
 14838 427d 04       		.byte	0x4
 14839 427e 08       		.uleb128 0x8
ARM GAS  /var/folders/d2/nstgp4h54kz7g1l847x_b8wc0000gn/T//ccB20FE7.s 			page 267


 14840 427f C9050000 		.4byte	.LASF890
 14841 4283 3B       		.byte	0x3b
 14842 4284 0E       		.byte	0xe
 14843 4285 19430000 		.4byte	0x4319
 14844 4289 08       		.byte	0x8
 14845 428a 08       		.uleb128 0x8
 14846 428b FB0C0000 		.4byte	.LASF891
 14847 428f 3B       		.byte	0x3b
 14848 4290 0F       		.byte	0xf
 14849 4291 19430000 		.4byte	0x4319
 14850 4295 0C       		.byte	0xc
 14851 4296 08       		.uleb128 0x8
 14852 4297 3B030000 		.4byte	.LASF776
 14853 429b 3B       		.byte	0x3b
 14854 429c 10       		.byte	0x10
 14855 429d 19430000 		.4byte	0x4319
 14856 42a1 10       		.byte	0x10
 14857 42a2 08       		.uleb128 0x8
 14858 42a3 EC290000 		.4byte	.LASF892
 14859 42a7 3B       		.byte	0x3b
 14860 42a8 11       		.byte	0x11
 14861 42a9 1F430000 		.4byte	0x431f
 14862 42ad 14       		.byte	0x14
 14863 42ae 00       		.byte	0
 14864 42af 03       		.uleb128 0x3
 14865 42b0 E1180000 		.4byte	.LASF893
 14866 42b4 3B       		.byte	0x3b
 14867 42b5 09       		.byte	0x9
 14868 42b6 BA420000 		.4byte	0x42ba
 14869 42ba 07       		.uleb128 0x7
 14870 42bb 42130000 		.4byte	.LASF894
 14871 42bf 18       		.byte	0x18
 14872 42c0 3B       		.byte	0x3b
 14873 42c1 2E       		.byte	0x2e
 14874 42c2 19430000 		.4byte	0x4319
 14875 42c6 18       		.uleb128 0x18
 14876 42c7 696400   		.ascii	"id\000"
 14877 42ca 3B       		.byte	0x3b
 14878 42cb 2F       		.byte	0x2f
 14879 42cc 15110000 		.4byte	0x1115
 14880 42d0 00       		.byte	0
 14881 42d1 18       		.uleb128 0x18
 14882 42d2 6E7300   		.ascii	"ns\000"
 14883 42d5 3B       		.byte	0x3b
 14884 42d6 30       		.byte	0x30
 14885 42d7 19430000 		.4byte	0x4319
 14886 42db 04       		.byte	0x4
 14887 42dc 08       		.uleb128 0x8
 14888 42dd 3B030000 		.4byte	.LASF776
 14889 42e1 3B       		.byte	0x3b
 14890 42e2 31       		.byte	0x31
 14891 42e3 1F430000 		.4byte	0x431f
 14892 42e7 08       		.byte	0x8
 14893 42e8 08       		.uleb128 0x8
 14894 42e9 F7220000 		.4byte	.LASF895
 14895 42ed 3B       		.byte	0x3b
 14896 42ee 32       		.byte	0x32
ARM GAS  /var/folders/d2/nstgp4h54kz7g1l847x_b8wc0000gn/T//ccB20FE7.s 			page 268


 14897 42ef A4150000 		.4byte	0x15a4
 14898 42f3 0C       		.byte	0xc
 14899 42f4 08       		.uleb128 0x8
 14900 42f5 01140000 		.4byte	.LASF896
 14901 42f9 3B       		.byte	0x3b
 14902 42fa 33       		.byte	0x33
 14903 42fb A4150000 		.4byte	0x15a4
 14904 42ff 0D       		.byte	0xd
 14905 4300 08       		.uleb128 0x8
 14906 4301 0E090000 		.4byte	.LASF897
 14907 4305 3B       		.byte	0x3b
 14908 4306 34       		.byte	0x34
 14909 4307 D5000000 		.4byte	0xd5
 14910 430b 0E       		.byte	0xe
 14911 430c 08       		.uleb128 0x8
 14912 430d 240E0000 		.4byte	.LASF898
 14913 4311 3B       		.byte	0x3b
 14914 4312 3C       		.byte	0x3c
 14915 4313 C1430000 		.4byte	0x43c1
 14916 4317 10       		.byte	0x10
 14917 4318 00       		.byte	0
 14918 4319 0B       		.uleb128 0xb
 14919 431a 04       		.byte	0x4
 14920 431b 50420000 		.4byte	0x4250
 14921 431f 0B       		.uleb128 0xb
 14922 4320 04       		.byte	0x4
 14923 4321 AF420000 		.4byte	0x42af
 14924 4325 07       		.uleb128 0x7
 14925 4326 4D1B0000 		.4byte	.LASF899
 14926 432a 08       		.byte	0x8
 14927 432b 3B       		.byte	0x3b
 14928 432c 14       		.byte	0x14
 14929 432d 56430000 		.4byte	0x4356
 14930 4331 18       		.uleb128 0x18
 14931 4332 62756600 		.ascii	"buf\000"
 14932 4336 3B       		.byte	0x3b
 14933 4337 15       		.byte	0x15
 14934 4338 3F390000 		.4byte	0x393f
 14935 433c 00       		.byte	0
 14936 433d 08       		.uleb128 0x8
 14937 433e AE290000 		.4byte	.LASF900
 14938 4342 3B       		.byte	0x3b
 14939 4343 16       		.byte	0x16
 14940 4344 F0000000 		.4byte	0xf0
 14941 4348 04       		.byte	0x4
 14942 4349 18       		.uleb128 0x18
 14943 434a 6C656E00 		.ascii	"len\000"
 14944 434e 3B       		.byte	0x3b
 14945 434f 17       		.byte	0x17
 14946 4350 F0000000 		.4byte	0xf0
 14947 4354 06       		.byte	0x6
 14948 4355 00       		.byte	0
 14949 4356 07       		.uleb128 0x7
 14950 4357 C8190000 		.4byte	.LASF901
 14951 435b 08       		.byte	0x8
 14952 435c 3B       		.byte	0x3b
 14953 435d 1A       		.byte	0x1a
ARM GAS  /var/folders/d2/nstgp4h54kz7g1l847x_b8wc0000gn/T//ccB20FE7.s 			page 269


 14954 435e 87430000 		.4byte	0x4387
 14955 4362 18       		.uleb128 0x18
 14956 4363 62756600 		.ascii	"buf\000"
 14957 4367 3B       		.byte	0x3b
 14958 4368 1B       		.byte	0x1b
 14959 4369 87430000 		.4byte	0x4387
 14960 436d 00       		.byte	0
 14961 436e 08       		.uleb128 0x8
 14962 436f 9B0A0000 		.4byte	.LASF902
 14963 4373 3B       		.byte	0x3b
 14964 4374 1C       		.byte	0x1c
 14965 4375 F0000000 		.4byte	0xf0
 14966 4379 04       		.byte	0x4
 14967 437a 18       		.uleb128 0x18
 14968 437b 64696D00 		.ascii	"dim\000"
 14969 437f 3B       		.byte	0x3b
 14970 4380 1D       		.byte	0x1d
 14971 4381 F0000000 		.4byte	0xf0
 14972 4385 06       		.byte	0x6
 14973 4386 00       		.byte	0
 14974 4387 0B       		.uleb128 0xb
 14975 4388 04       		.byte	0x4
 14976 4389 8D430000 		.4byte	0x438d
 14977 438d 04       		.uleb128 0x4
 14978 438e 04       		.byte	0x4
 14979 438f 04       		.byte	0x4
 14980 4390 CD0B0000 		.4byte	.LASF903
 14981 4394 07       		.uleb128 0x7
 14982 4395 95110000 		.4byte	.LASF904
 14983 4399 08       		.byte	0x8
 14984 439a 3B       		.byte	0x3b
 14985 439b 20       		.byte	0x20
 14986 439c C1430000 		.4byte	0x43c1
 14987 43a0 18       		.uleb128 0x18
 14988 43a1 62756600 		.ascii	"buf\000"
 14989 43a5 3B       		.byte	0x3b
 14990 43a6 21       		.byte	0x21
 14991 43a7 87430000 		.4byte	0x4387
 14992 43ab 00       		.byte	0
 14993 43ac 18       		.uleb128 0x18
 14994 43ad 6E00     		.ascii	"n\000"
 14995 43af 3B       		.byte	0x3b
 14996 43b0 22       		.byte	0x22
 14997 43b1 F0000000 		.4byte	0xf0
 14998 43b5 04       		.byte	0x4
 14999 43b6 18       		.uleb128 0x18
 15000 43b7 6D00     		.ascii	"m\000"
 15001 43b9 3B       		.byte	0x3b
 15002 43ba 23       		.byte	0x23
 15003 43bb F0000000 		.4byte	0xf0
 15004 43bf 06       		.byte	0x6
 15005 43c0 00       		.byte	0
 15006 43c1 1D       		.uleb128 0x1d
 15007 43c2 08       		.byte	0x8
 15008 43c3 3B       		.byte	0x3b
 15009 43c4 35       		.byte	0x35
 15010 43c5 06440000 		.4byte	0x4406
ARM GAS  /var/folders/d2/nstgp4h54kz7g1l847x_b8wc0000gn/T//ccB20FE7.s 			page 270


 15011 43c9 23       		.uleb128 0x23
 15012 43ca 6200     		.ascii	"b\000"
 15013 43cc 3B       		.byte	0x3b
 15014 43cd 36       		.byte	0x36
 15015 43ce A4150000 		.4byte	0x15a4
 15016 43d2 23       		.uleb128 0x23
 15017 43d3 7300     		.ascii	"s\000"
 15018 43d5 3B       		.byte	0x3b
 15019 43d6 37       		.byte	0x37
 15020 43d7 8D430000 		.4byte	0x438d
 15021 43db 23       		.uleb128 0x23
 15022 43dc 6900     		.ascii	"i\000"
 15023 43de 3B       		.byte	0x3b
 15024 43df 38       		.byte	0x38
 15025 43e0 FB000000 		.4byte	0xfb
 15026 43e4 23       		.uleb128 0x23
 15027 43e5 73747200 		.ascii	"str\000"
 15028 43e9 3B       		.byte	0x3b
 15029 43ea 39       		.byte	0x39
 15030 43eb 25430000 		.4byte	0x4325
 15031 43ef 2B       		.uleb128 0x2b
 15032 43f0 0A010000 		.4byte	.LASF905
 15033 43f4 3B       		.byte	0x3b
 15034 43f5 3A       		.byte	0x3a
 15035 43f6 56430000 		.4byte	0x4356
 15036 43fa 23       		.uleb128 0x23
 15037 43fb 6D617400 		.ascii	"mat\000"
 15038 43ff 3B       		.byte	0x3b
 15039 4400 3B       		.byte	0x3b
 15040 4401 94430000 		.4byte	0x4394
 15041 4405 00       		.byte	0
 15042 4406 2F       		.uleb128 0x2f
 15043 4407 62757300 		.ascii	"bus\000"
 15044 440b 3C       		.byte	0x3c
 15045 440c 0D       		.byte	0xd
 15046 440d 8E3A0000 		.4byte	0x3a8e
 15047 4411 16       		.uleb128 0x16
 15048 4412 820F0000 		.4byte	.LASF906
 15049 4416 3C       		.byte	0x3c
 15050 4417 0F       		.byte	0xf
 15051 4418 50420000 		.4byte	0x4250
 15052 441c 21       		.uleb128 0x21
 15053 441d 07       		.byte	0x7
 15054 441e 01       		.byte	0x1
 15055 441f 69000000 		.4byte	0x69
 15056 4423 3D       		.byte	0x3d
 15057 4424 70       		.byte	0x70
 15058 4425 8A440000 		.4byte	0x448a
 15059 4429 22       		.uleb128 0x22
 15060 442a 3E040000 		.4byte	.LASF907
 15061 442e 00       		.byte	0
 15062 442f 22       		.uleb128 0x22
 15063 4430 DE020000 		.4byte	.LASF908
 15064 4434 01       		.byte	0x1
 15065 4435 22       		.uleb128 0x22
 15066 4436 610C0000 		.4byte	.LASF909
 15067 443a 02       		.byte	0x2
ARM GAS  /var/folders/d2/nstgp4h54kz7g1l847x_b8wc0000gn/T//ccB20FE7.s 			page 271


 15068 443b 22       		.uleb128 0x22
 15069 443c 231D0000 		.4byte	.LASF910
 15070 4440 03       		.byte	0x3
 15071 4441 22       		.uleb128 0x22
 15072 4442 13230000 		.4byte	.LASF911
 15073 4446 04       		.byte	0x4
 15074 4447 22       		.uleb128 0x22
 15075 4448 53090000 		.4byte	.LASF912
 15076 444c 05       		.byte	0x5
 15077 444d 22       		.uleb128 0x22
 15078 444e C30D0000 		.4byte	.LASF913
 15079 4452 06       		.byte	0x6
 15080 4453 22       		.uleb128 0x22
 15081 4454 7A230000 		.4byte	.LASF914
 15082 4458 07       		.byte	0x7
 15083 4459 22       		.uleb128 0x22
 15084 445a 7A0F0000 		.4byte	.LASF915
 15085 445e 08       		.byte	0x8
 15086 445f 22       		.uleb128 0x22
 15087 4460 EB1E0000 		.4byte	.LASF916
 15088 4464 09       		.byte	0x9
 15089 4465 22       		.uleb128 0x22
 15090 4466 E42A0000 		.4byte	.LASF917
 15091 446a 0A       		.byte	0xa
 15092 446b 22       		.uleb128 0x22
 15093 446c D30B0000 		.4byte	.LASF918
 15094 4470 0B       		.byte	0xb
 15095 4471 22       		.uleb128 0x22
 15096 4472 5C000000 		.4byte	.LASF919
 15097 4476 0C       		.byte	0xc
 15098 4477 22       		.uleb128 0x22
 15099 4478 5B130000 		.4byte	.LASF920
 15100 447c 0D       		.byte	0xd
 15101 447d 22       		.uleb128 0x22
 15102 447e FE270000 		.4byte	.LASF921
 15103 4482 0E       		.byte	0xe
 15104 4483 22       		.uleb128 0x22
 15105 4484 A2100000 		.4byte	.LASF922
 15106 4488 0F       		.byte	0xf
 15107 4489 00       		.byte	0
 15108 448a 21       		.uleb128 0x21
 15109 448b 07       		.byte	0x7
 15110 448c 01       		.byte	0x1
 15111 448d 69000000 		.4byte	0x69
 15112 4491 3D       		.byte	0x3d
 15113 4492 86       		.byte	0x86
 15114 4493 AA440000 		.4byte	0x44aa
 15115 4497 22       		.uleb128 0x22
 15116 4498 50010000 		.4byte	.LASF923
 15117 449c 00       		.byte	0
 15118 449d 22       		.uleb128 0x22
 15119 449e D51F0000 		.4byte	.LASF924
 15120 44a2 01       		.byte	0x1
 15121 44a3 22       		.uleb128 0x22
 15122 44a4 5F230000 		.4byte	.LASF925
 15123 44a8 02       		.byte	0x2
 15124 44a9 00       		.byte	0
ARM GAS  /var/folders/d2/nstgp4h54kz7g1l847x_b8wc0000gn/T//ccB20FE7.s 			page 272


 15125 44aa 21       		.uleb128 0x21
 15126 44ab 07       		.byte	0x7
 15127 44ac 01       		.byte	0x1
 15128 44ad 69000000 		.4byte	0x69
 15129 44b1 3E       		.byte	0x3e
 15130 44b2 0D       		.byte	0xd
 15131 44b3 D6440000 		.4byte	0x44d6
 15132 44b7 22       		.uleb128 0x22
 15133 44b8 A71F0000 		.4byte	.LASF926
 15134 44bc 00       		.byte	0
 15135 44bd 22       		.uleb128 0x22
 15136 44be AC1F0000 		.4byte	.LASF927
 15137 44c2 01       		.byte	0x1
 15138 44c3 22       		.uleb128 0x22
 15139 44c4 B11F0000 		.4byte	.LASF928
 15140 44c8 02       		.byte	0x2
 15141 44c9 22       		.uleb128 0x22
 15142 44ca B61F0000 		.4byte	.LASF929
 15143 44ce 03       		.byte	0x3
 15144 44cf 22       		.uleb128 0x22
 15145 44d0 5E140000 		.4byte	.LASF930
 15146 44d4 04       		.byte	0x4
 15147 44d5 00       		.byte	0
 15148 44d6 13       		.uleb128 0x13
 15149 44d7 27110000 		.4byte	0x1127
 15150 44db E1440000 		.4byte	0x44e1
 15151 44df 30       		.uleb128 0x30
 15152 44e0 00       		.byte	0
 15153 44e1 05       		.uleb128 0x5
 15154 44e2 D6440000 		.4byte	0x44d6
 15155 44e6 16       		.uleb128 0x16
 15156 44e7 0C1B0000 		.4byte	.LASF931
 15157 44eb 3F       		.byte	0x3f
 15158 44ec A5       		.byte	0xa5
 15159 44ed E1440000 		.4byte	0x44e1
 15160 44f1 17       		.uleb128 0x17
 15161 44f2 0C       		.byte	0xc
 15162 44f3 40       		.byte	0x40
 15163 44f4 16       		.byte	0x16
 15164 44f5 1E450000 		.4byte	0x451e
 15165 44f9 08       		.uleb128 0x8
 15166 44fa 87100000 		.4byte	.LASF932
 15167 44fe 40       		.byte	0x40
 15168 44ff 18       		.byte	0x18
 15169 4500 8D430000 		.4byte	0x438d
 15170 4504 00       		.byte	0
 15171 4505 08       		.uleb128 0x8
 15172 4506 9A030000 		.4byte	.LASF933
 15173 450a 40       		.byte	0x40
 15174 450b 1A       		.byte	0x1a
 15175 450c 8D430000 		.4byte	0x438d
 15176 4510 04       		.byte	0x4
 15177 4511 08       		.uleb128 0x8
 15178 4512 65030000 		.4byte	.LASF934
 15179 4516 40       		.byte	0x40
 15180 4517 24       		.byte	0x24
 15181 4518 8D430000 		.4byte	0x438d
ARM GAS  /var/folders/d2/nstgp4h54kz7g1l847x_b8wc0000gn/T//ccB20FE7.s 			page 273


 15182 451c 08       		.byte	0x8
 15183 451d 00       		.byte	0
 15184 451e 03       		.uleb128 0x3
 15185 451f 5A220000 		.4byte	.LASF935
 15186 4523 40       		.byte	0x40
 15187 4524 28       		.byte	0x28
 15188 4525 F1440000 		.4byte	0x44f1
 15189 4529 13       		.uleb128 0x13
 15190 452a 20110000 		.4byte	0x1120
 15191 452e 3A450000 		.4byte	0x453a
 15192 4532 2A       		.uleb128 0x2a
 15193 4533 37000000 		.4byte	0x37
 15194 4537 2A10     		.2byte	0x102a
 15195 4539 00       		.byte	0
 15196 453a 16       		.uleb128 0x16
 15197 453b FA200000 		.4byte	.LASF769
 15198 453f 01       		.byte	0x1
 15199 4540 3E       		.byte	0x3e
 15200 4541 29450000 		.4byte	0x4529
 15201 4545 16       		.uleb128 0x16
 15202 4546 690D0000 		.4byte	.LASF936
 15203 454a 01       		.byte	0x1
 15204 454b 41       		.byte	0x41
 15205 454c 25000000 		.4byte	0x25
 15206 4550 2F       		.uleb128 0x2f
 15207 4551 6300     		.ascii	"c\000"
 15208 4553 01       		.byte	0x1
 15209 4554 42       		.byte	0x42
 15210 4555 20110000 		.4byte	0x1120
 15211 4559 31       		.uleb128 0x31
 15212 455a 380D0000 		.4byte	.LASF1050
 15213 455e 01       		.byte	0x1
 15214 455f 4B       		.byte	0x4b
 15215 4560 25000000 		.4byte	0x25
 15216 4564 00000000 		.4byte	.LFB259
 15217 4568 F8270000 		.4byte	.LFE259-.LFB259
 15218 456c 01       		.uleb128 0x1
 15219 456d 9C       		.byte	0x9c
 15220 456e C36D0000 		.4byte	0x6dc3
 15221 4572 32       		.uleb128 0x32
 15222 4573 633100   		.ascii	"c1\000"
 15223 4576 01       		.byte	0x1
 15224 4577 4C       		.byte	0x4c
 15225 4578 20110000 		.4byte	0x1120
 15226 457c 05       		.uleb128 0x5
 15227 457d 03       		.byte	0x3
 15228 457e 00000000 		.4byte	c1.13429
 15229 4582 32       		.uleb128 0x32
 15230 4583 633200   		.ascii	"c2\000"
 15231 4586 01       		.byte	0x1
 15232 4587 4C       		.byte	0x4c
 15233 4588 20110000 		.4byte	0x1120
 15234 458c 05       		.uleb128 0x5
 15235 458d 03       		.byte	0x3
 15236 458e 00000000 		.4byte	c2.13430
 15237 4592 33       		.uleb128 0x33
 15238 4593 B3070000 		.4byte	.LASF937
ARM GAS  /var/folders/d2/nstgp4h54kz7g1l847x_b8wc0000gn/T//ccB20FE7.s 			page 274


 15239 4597 01       		.byte	0x1
 15240 4598 4C       		.byte	0x4c
 15241 4599 20110000 		.4byte	0x1120
 15242 459d 05       		.uleb128 0x5
 15243 459e 03       		.byte	0x3
 15244 459f 00000000 		.4byte	wait_cam.13431
 15245 45a3 32       		.uleb128 0x32
 15246 45a4 6900     		.ascii	"i\000"
 15247 45a6 01       		.byte	0x1
 15248 45a7 4D       		.byte	0x4d
 15249 45a8 25000000 		.4byte	0x25
 15250 45ac 05       		.uleb128 0x5
 15251 45ad 03       		.byte	0x3
 15252 45ae 00000000 		.4byte	i.13432
 15253 45b2 32       		.uleb128 0x32
 15254 45b3 6A00     		.ascii	"j\000"
 15255 45b5 01       		.byte	0x1
 15256 45b6 4D       		.byte	0x4d
 15257 45b7 25000000 		.4byte	0x25
 15258 45bb 05       		.uleb128 0x5
 15259 45bc 03       		.byte	0x3
 15260 45bd 00000000 		.4byte	j.13433
 15261 45c1 34       		.uleb128 0x34
 15262 45c2 6E00     		.ascii	"n\000"
 15263 45c4 01       		.byte	0x1
 15264 45c5 4D       		.byte	0x4d
 15265 45c6 25000000 		.4byte	0x25
 15266 45ca 33       		.uleb128 0x33
 15267 45cb 2F170000 		.4byte	.LASF938
 15268 45cf 01       		.byte	0x1
 15269 45d0 4D       		.byte	0x4d
 15270 45d1 25000000 		.4byte	0x25
 15271 45d5 05       		.uleb128 0x5
 15272 45d6 03       		.byte	0x3
 15273 45d7 00000000 		.4byte	speedr.13435
 15274 45db 33       		.uleb128 0x33
 15275 45dc 13170000 		.4byte	.LASF939
 15276 45e0 01       		.byte	0x1
 15277 45e1 4D       		.byte	0x4d
 15278 45e2 25000000 		.4byte	0x25
 15279 45e6 05       		.uleb128 0x5
 15280 45e7 03       		.byte	0x3
 15281 45e8 00000000 		.4byte	speedl.13436
 15282 45ec 33       		.uleb128 0x33
 15283 45ed F6000000 		.4byte	.LASF940
 15284 45f1 01       		.byte	0x1
 15285 45f2 4D       		.byte	0x4d
 15286 45f3 25000000 		.4byte	0x25
 15287 45f7 05       		.uleb128 0x5
 15288 45f8 03       		.byte	0x3
 15289 45f9 00000000 		.4byte	positionr.13437
 15290 45fd 33       		.uleb128 0x33
 15291 45fe EC000000 		.4byte	.LASF941
 15292 4602 01       		.byte	0x1
 15293 4603 4D       		.byte	0x4d
 15294 4604 25000000 		.4byte	0x25
 15295 4608 05       		.uleb128 0x5
ARM GAS  /var/folders/d2/nstgp4h54kz7g1l847x_b8wc0000gn/T//ccB20FE7.s 			page 275


 15296 4609 03       		.byte	0x3
 15297 460a 00000000 		.4byte	positionl.13438
 15298 460e 33       		.uleb128 0x33
 15299 460f 74000000 		.4byte	.LASF942
 15300 4613 01       		.byte	0x1
 15301 4614 4D       		.byte	0x4d
 15302 4615 25000000 		.4byte	0x25
 15303 4619 05       		.uleb128 0x5
 15304 461a 03       		.byte	0x3
 15305 461b 00000000 		.4byte	LED_nbr.13439
 15306 461f 33       		.uleb128 0x33
 15307 4620 F9280000 		.4byte	.LASF943
 15308 4624 01       		.byte	0x1
 15309 4625 4D       		.byte	0x4d
 15310 4626 25000000 		.4byte	0x25
 15311 462a 05       		.uleb128 0x5
 15312 462b 03       		.byte	0x3
 15313 462c 00000000 		.4byte	LED_action.13440
 15314 4630 33       		.uleb128 0x33
 15315 4631 320C0000 		.4byte	.LASF944
 15316 4635 01       		.byte	0x1
 15317 4636 4D       		.byte	0x4d
 15318 4637 25000000 		.4byte	0x25
 15319 463b 05       		.uleb128 0x5
 15320 463c 03       		.byte	0x3
 15321 463d 00000000 		.4byte	accx.13441
 15322 4641 33       		.uleb128 0x33
 15323 4642 370C0000 		.4byte	.LASF945
 15324 4646 01       		.byte	0x1
 15325 4647 4D       		.byte	0x4d
 15326 4648 25000000 		.4byte	0x25
 15327 464c 05       		.uleb128 0x5
 15328 464d 03       		.byte	0x3
 15329 464e 00000000 		.4byte	accy.13442
 15330 4652 33       		.uleb128 0x33
 15331 4653 470E0000 		.4byte	.LASF946
 15332 4657 01       		.byte	0x1
 15333 4658 4D       		.byte	0x4d
 15334 4659 25000000 		.4byte	0x25
 15335 465d 05       		.uleb128 0x5
 15336 465e 03       		.byte	0x3
 15337 465f 00000000 		.4byte	accz.13443
 15338 4663 33       		.uleb128 0x33
 15339 4664 002C0000 		.4byte	.LASF947
 15340 4668 01       		.byte	0x1
 15341 4669 4D       		.byte	0x4d
 15342 466a 25000000 		.4byte	0x25
 15343 466e 05       		.uleb128 0x5
 15344 466f 03       		.byte	0x3
 15345 4670 00000000 		.4byte	sound.13444
 15346 4674 33       		.uleb128 0x33
 15347 4675 41290000 		.4byte	.LASF948
 15348 4679 01       		.byte	0x1
 15349 467a 4D       		.byte	0x4d
 15350 467b 25000000 		.4byte	0x25
 15351 467f 05       		.uleb128 0x5
 15352 4680 03       		.byte	0x3
ARM GAS  /var/folders/d2/nstgp4h54kz7g1l847x_b8wc0000gn/T//ccB20FE7.s 			page 276


 15353 4681 00000000 		.4byte	gyrox.13445
 15354 4685 33       		.uleb128 0x33
 15355 4686 A10F0000 		.4byte	.LASF949
 15356 468a 01       		.byte	0x1
 15357 468b 4D       		.byte	0x4d
 15358 468c 25000000 		.4byte	0x25
 15359 4690 05       		.uleb128 0x5
 15360 4691 03       		.byte	0x3
 15361 4692 00000000 		.4byte	gyroy.13446
 15362 4696 33       		.uleb128 0x33
 15363 4697 47290000 		.4byte	.LASF950
 15364 469b 01       		.byte	0x1
 15365 469c 4D       		.byte	0x4d
 15366 469d 25000000 		.4byte	0x25
 15367 46a1 05       		.uleb128 0x5
 15368 46a2 03       		.byte	0x3
 15369 46a3 00000000 		.4byte	gyroz.13447
 15370 46a7 33       		.uleb128 0x33
 15371 46a8 4A1D0000 		.4byte	.LASF951
 15372 46ac 01       		.byte	0x1
 15373 46ad 4E       		.byte	0x4e
 15374 46ae 25000000 		.4byte	0x25
 15375 46b2 05       		.uleb128 0x5
 15376 46b3 03       		.byte	0x3
 15377 46b4 00000000 		.4byte	cam_mode.13448
 15378 46b8 33       		.uleb128 0x33
 15379 46b9 980E0000 		.4byte	.LASF952
 15380 46bd 01       		.byte	0x1
 15381 46be 4E       		.byte	0x4e
 15382 46bf 25000000 		.4byte	0x25
 15383 46c3 05       		.uleb128 0x5
 15384 46c4 03       		.byte	0x3
 15385 46c5 00000000 		.4byte	cam_width.13449
 15386 46c9 33       		.uleb128 0x33
 15387 46ca 4F220000 		.4byte	.LASF953
 15388 46ce 01       		.byte	0x1
 15389 46cf 4E       		.byte	0x4e
 15390 46d0 25000000 		.4byte	0x25
 15391 46d4 05       		.uleb128 0x5
 15392 46d5 03       		.byte	0x3
 15393 46d6 00000000 		.4byte	cam_heigth.13450
 15394 46da 33       		.uleb128 0x33
 15395 46db 00030000 		.4byte	.LASF954
 15396 46df 01       		.byte	0x1
 15397 46e0 4E       		.byte	0x4e
 15398 46e1 25000000 		.4byte	0x25
 15399 46e5 05       		.uleb128 0x5
 15400 46e6 03       		.byte	0x3
 15401 46e7 00000000 		.4byte	cam_zoom.13451
 15402 46eb 33       		.uleb128 0x33
 15403 46ec C60C0000 		.4byte	.LASF955
 15404 46f0 01       		.byte	0x1
 15405 46f1 4E       		.byte	0x4e
 15406 46f2 25000000 		.4byte	0x25
 15407 46f6 05       		.uleb128 0x5
 15408 46f7 03       		.byte	0x3
 15409 46f8 00000000 		.4byte	cam_size.13452
ARM GAS  /var/folders/d2/nstgp4h54kz7g1l847x_b8wc0000gn/T//ccB20FE7.s 			page 277


 15410 46fc 33       		.uleb128 0x33
 15411 46fd 49140000 		.4byte	.LASF956
 15412 4701 01       		.byte	0x1
 15413 4702 4E       		.byte	0x4e
 15414 4703 25000000 		.4byte	0x25
 15415 4707 05       		.uleb128 0x5
 15416 4708 03       		.byte	0x3
 15417 4709 00000000 		.4byte	cam_x1.13453
 15418 470d 33       		.uleb128 0x33
 15419 470e 0A1A0000 		.4byte	.LASF957
 15420 4712 01       		.byte	0x1
 15421 4713 4E       		.byte	0x4e
 15422 4714 25000000 		.4byte	0x25
 15423 4718 05       		.uleb128 0x5
 15424 4719 03       		.byte	0x3
 15425 471a 00000000 		.4byte	cam_y1.13454
 15426 471e 33       		.uleb128 0x33
 15427 471f 2A110000 		.4byte	.LASF958
 15428 4723 01       		.byte	0x1
 15429 4724 4F       		.byte	0x4f
 15430 4725 20110000 		.4byte	0x1120
 15431 4729 05       		.uleb128 0x5
 15432 472a 03       		.byte	0x3
 15433 472b 00000000 		.4byte	first.13455
 15434 472f 33       		.uleb128 0x33
 15435 4730 EA030000 		.4byte	.LASF959
 15436 4734 01       		.byte	0x1
 15437 4735 50       		.byte	0x50
 15438 4736 C36D0000 		.4byte	0x6dc3
 15439 473a 05       		.uleb128 0x5
 15440 473b 03       		.byte	0x3
 15441 473c 00000000 		.4byte	rgb_value.13456
 15442 4740 35       		.uleb128 0x35
 15443 4741 70747200 		.ascii	"ptr\000"
 15444 4745 01       		.byte	0x1
 15445 4746 51       		.byte	0x51
 15446 4747 3F390000 		.4byte	0x393f
 15447 474b 00000000 		.4byte	.LLST0
 15448 474f 32       		.uleb128 0x32
 15449 4750 6D6F6400 		.ascii	"mod\000"
 15450 4754 01       		.byte	0x1
 15451 4755 52       		.byte	0x52
 15452 4756 25000000 		.4byte	0x25
 15453 475a 05       		.uleb128 0x5
 15454 475b 03       		.byte	0x3
 15455 475c 00000000 		.4byte	mod.13458
 15456 4760 32       		.uleb128 0x32
 15457 4761 72656700 		.ascii	"reg\000"
 15458 4765 01       		.byte	0x1
 15459 4766 52       		.byte	0x52
 15460 4767 25000000 		.4byte	0x25
 15461 476b 05       		.uleb128 0x5
 15462 476c 03       		.byte	0x3
 15463 476d 00000000 		.4byte	reg.13459
 15464 4771 32       		.uleb128 0x32
 15465 4772 76616C00 		.ascii	"val\000"
 15466 4776 01       		.byte	0x1
ARM GAS  /var/folders/d2/nstgp4h54kz7g1l847x_b8wc0000gn/T//ccB20FE7.s 			page 278


 15467 4777 52       		.byte	0x52
 15468 4778 25000000 		.4byte	0x25
 15469 477c 05       		.uleb128 0x5
 15470 477d 03       		.byte	0x3
 15471 477e 00000000 		.4byte	val.13460
 15472 4782 36       		.uleb128 0x36
 15473 4783 41070000 		.4byte	.LASF960
 15474 4787 01       		.byte	0x1
 15475 4788 54       		.byte	0x54
 15476 4789 20110000 		.4byte	0x1120
 15477 478d 08010000 		.4byte	.LLST1
 15478 4791 36       		.uleb128 0x36
 15479 4792 D5060000 		.4byte	.LASF961
 15480 4796 01       		.byte	0x1
 15481 4797 54       		.byte	0x54
 15482 4798 20110000 		.4byte	0x1120
 15483 479c 5F010000 		.4byte	.LLST2
 15484 47a0 36       		.uleb128 0x36
 15485 47a1 A6150000 		.4byte	.LASF962
 15486 47a5 01       		.byte	0x1
 15487 47a6 54       		.byte	0x54
 15488 47a7 20110000 		.4byte	0x1120
 15489 47ab E2010000 		.4byte	.LLST3
 15490 47af 33       		.uleb128 0x33
 15491 47b0 5F200000 		.4byte	.LASF963
 15492 47b4 01       		.byte	0x1
 15493 47b5 56       		.byte	0x56
 15494 47b6 1E450000 		.4byte	0x451e
 15495 47ba 05       		.uleb128 0x5
 15496 47bb 03       		.byte	0x3
 15497 47bc 00000000 		.4byte	accelero.13464
 15498 47c0 36       		.uleb128 0x36
 15499 47c1 AD0A0000 		.4byte	.LASF964
 15500 47c5 01       		.byte	0x1
 15501 47c6 58       		.byte	0x58
 15502 47c7 25000000 		.4byte	0x25
 15503 47cb 3F020000 		.4byte	.LLST4
 15504 47cf 36       		.uleb128 0x36
 15505 47d0 00010000 		.4byte	.LASF965
 15506 47d4 01       		.byte	0x1
 15507 47d5 59       		.byte	0x59
 15508 47d6 37000000 		.4byte	0x37
 15509 47da 84020000 		.4byte	.LLST5
 15510 47de 37       		.uleb128 0x37
 15511 47df 57020000 		.4byte	.LASF966
 15512 47e3 01       		.byte	0x1
 15513 47e4 5A       		.byte	0x5a
 15514 47e5 D5000000 		.4byte	0xd5
 15515 47e9 00       		.byte	0
 15516 47ea 36       		.uleb128 0x36
 15517 47eb 30200000 		.4byte	.LASF967
 15518 47ef 01       		.byte	0x1
 15519 47f0 5B       		.byte	0x5b
 15520 47f1 F0000000 		.4byte	0xf0
 15521 47f5 BA020000 		.4byte	.LLST6
 15522 47f9 36       		.uleb128 0x36
 15523 47fa 6C210000 		.4byte	.LASF968
ARM GAS  /var/folders/d2/nstgp4h54kz7g1l847x_b8wc0000gn/T//ccB20FE7.s 			page 279


 15524 47fe 01       		.byte	0x1
 15525 47ff 5C       		.byte	0x5c
 15526 4800 8D430000 		.4byte	0x438d
 15527 4804 33030000 		.4byte	.LLST7
 15528 4808 36       		.uleb128 0x36
 15529 4809 79210000 		.4byte	.LASF969
 15530 480d 01       		.byte	0x1
 15531 480e 5D       		.byte	0x5d
 15532 480f 0B010000 		.4byte	0x10b
 15533 4813 73030000 		.4byte	.LLST8
 15534 4817 33       		.uleb128 0x33
 15535 4818 7B060000 		.4byte	.LASF970
 15536 481c 01       		.byte	0x1
 15537 481d 5E       		.byte	0x5e
 15538 481e D36D0000 		.4byte	0x6dd3
 15539 4822 03       		.uleb128 0x3
 15540 4823 91       		.byte	0x91
 15541 4824 B87F     		.sleb128 -72
 15542 4826 33       		.uleb128 0x33
 15543 4827 342A0000 		.4byte	.LASF971
 15544 482b 01       		.byte	0x1
 15545 482c 80       		.byte	0x80
 15546 482d 25000000 		.4byte	0x25
 15547 4831 05       		.uleb128 0x5
 15548 4832 03       		.byte	0x3
 15549 4833 00000000 		.4byte	HWversion.13472
 15550 4837 38       		.uleb128 0x38
 15551 4838 98100000 		.4byte	.LBB3
 15552 483c 12000000 		.4byte	.LBE3-.LBB3
 15553 4840 5E480000 		.4byte	0x485e
 15554 4844 39       		.uleb128 0x39
 15555 4845 5F5F7800 		.ascii	"__x\000"
 15556 4849 01       		.byte	0x1
 15557 484a CF03     		.2byte	0x3cf
 15558 484c 20110000 		.4byte	0x1120
 15559 4850 AB030000 		.4byte	.LLST10
 15560 4854 3A       		.uleb128 0x3a
 15561 4855 9C100000 		.4byte	.LVL174
 15562 4859 E36D0000 		.4byte	0x6de3
 15563 485d 00       		.byte	0
 15564 485e 3B       		.uleb128 0x3b
 15565 485f 00000000 		.4byte	.Ldebug_ranges0+0
 15566 4863 78620000 		.4byte	0x6278
 15567 4867 39       		.uleb128 0x39
 15568 4868 7400     		.ascii	"t\000"
 15569 486a 01       		.byte	0x1
 15570 486b E404     		.2byte	0x4e4
 15571 486d 9F000000 		.4byte	0x9f
 15572 4871 BE030000 		.4byte	.LLST9
 15573 4875 3A       		.uleb128 0x3a
 15574 4876 74010000 		.4byte	.LVL17
 15575 487a EE6D0000 		.4byte	0x6dee
 15576 487e 3A       		.uleb128 0x3a
 15577 487f 7A010000 		.4byte	.LVL18
 15578 4883 F96D0000 		.4byte	0x6df9
 15579 4887 3A       		.uleb128 0x3a
 15580 4888 80010000 		.4byte	.LVL19
ARM GAS  /var/folders/d2/nstgp4h54kz7g1l847x_b8wc0000gn/T//ccB20FE7.s 			page 280


 15581 488c 046E0000 		.4byte	0x6e04
 15582 4890 3C       		.uleb128 0x3c
 15583 4891 8E010000 		.4byte	.LVL20
 15584 4895 0F6E0000 		.4byte	0x6e0f
 15585 4899 B9480000 		.4byte	0x48b9
 15586 489d 3D       		.uleb128 0x3d
 15587 489e 01       		.uleb128 0x1
 15588 489f 50       		.byte	0x50
 15589 48a0 02       		.uleb128 0x2
 15590 48a1 77       		.byte	0x77
 15591 48a2 00       		.sleb128 0
 15592 48a3 3D       		.uleb128 0x3d
 15593 48a4 01       		.uleb128 0x1
 15594 48a5 51       		.byte	0x51
 15595 48a6 05       		.uleb128 0x5
 15596 48a7 03       		.byte	0x3
 15597 48a8 F8000000 		.4byte	.LC13
 15598 48ac 3D       		.uleb128 0x3d
 15599 48ad 01       		.uleb128 0x1
 15600 48ae 52       		.byte	0x52
 15601 48af 02       		.uleb128 0x2
 15602 48b0 74       		.byte	0x74
 15603 48b1 00       		.sleb128 0
 15604 48b2 3D       		.uleb128 0x3d
 15605 48b3 01       		.uleb128 0x1
 15606 48b4 53       		.byte	0x53
 15607 48b5 02       		.uleb128 0x2
 15608 48b6 75       		.byte	0x75
 15609 48b7 00       		.sleb128 0
 15610 48b8 00       		.byte	0
 15611 48b9 3C       		.uleb128 0x3c
 15612 48ba 9C010000 		.4byte	.LVL21
 15613 48be 1A6E0000 		.4byte	0x6e1a
 15614 48c2 CD480000 		.4byte	0x48cd
 15615 48c6 3D       		.uleb128 0x3d
 15616 48c7 01       		.uleb128 0x1
 15617 48c8 50       		.byte	0x50
 15618 48c9 02       		.uleb128 0x2
 15619 48ca 77       		.byte	0x77
 15620 48cb 00       		.sleb128 0
 15621 48cc 00       		.byte	0
 15622 48cd 3C       		.uleb128 0x3c
 15623 48ce A4010000 		.4byte	.LVL22
 15624 48d2 256E0000 		.4byte	0x6e25
 15625 48d6 E1480000 		.4byte	0x48e1
 15626 48da 3D       		.uleb128 0x3d
 15627 48db 01       		.uleb128 0x1
 15628 48dc 50       		.byte	0x50
 15629 48dd 02       		.uleb128 0x2
 15630 48de 77       		.byte	0x77
 15631 48df 00       		.sleb128 0
 15632 48e0 00       		.byte	0
 15633 48e1 3A       		.uleb128 0x3a
 15634 48e2 A8010000 		.4byte	.LVL23
 15635 48e6 306E0000 		.4byte	0x6e30
 15636 48ea 3A       		.uleb128 0x3a
 15637 48eb 9C110000 		.4byte	.LVL176
ARM GAS  /var/folders/d2/nstgp4h54kz7g1l847x_b8wc0000gn/T//ccB20FE7.s 			page 281


 15638 48ef 3B6E0000 		.4byte	0x6e3b
 15639 48f3 3C       		.uleb128 0x3c
 15640 48f4 A6110000 		.4byte	.LVL177
 15641 48f8 0F6E0000 		.4byte	0x6e0f
 15642 48fc 10490000 		.4byte	0x4910
 15643 4900 3D       		.uleb128 0x3d
 15644 4901 01       		.uleb128 0x1
 15645 4902 50       		.byte	0x50
 15646 4903 02       		.uleb128 0x2
 15647 4904 77       		.byte	0x77
 15648 4905 00       		.sleb128 0
 15649 4906 3D       		.uleb128 0x3d
 15650 4907 01       		.uleb128 0x1
 15651 4908 51       		.byte	0x51
 15652 4909 05       		.uleb128 0x5
 15653 490a 03       		.byte	0x3
 15654 490b B40A0000 		.4byte	.LC85
 15655 490f 00       		.byte	0
 15656 4910 3C       		.uleb128 0x3c
 15657 4911 B4110000 		.4byte	.LVL178
 15658 4915 1A6E0000 		.4byte	0x6e1a
 15659 4919 24490000 		.4byte	0x4924
 15660 491d 3D       		.uleb128 0x3d
 15661 491e 01       		.uleb128 0x1
 15662 491f 50       		.byte	0x50
 15663 4920 02       		.uleb128 0x2
 15664 4921 77       		.byte	0x77
 15665 4922 00       		.sleb128 0
 15666 4923 00       		.byte	0
 15667 4924 3C       		.uleb128 0x3c
 15668 4925 BC110000 		.4byte	.LVL179
 15669 4929 256E0000 		.4byte	0x6e25
 15670 492d 38490000 		.4byte	0x4938
 15671 4931 3D       		.uleb128 0x3d
 15672 4932 01       		.uleb128 0x1
 15673 4933 50       		.byte	0x50
 15674 4934 02       		.uleb128 0x2
 15675 4935 77       		.byte	0x77
 15676 4936 00       		.sleb128 0
 15677 4937 00       		.byte	0
 15678 4938 3A       		.uleb128 0x3a
 15679 4939 C0110000 		.4byte	.LVL180
 15680 493d 306E0000 		.4byte	0x6e30
 15681 4941 3A       		.uleb128 0x3a
 15682 4942 F2110000 		.4byte	.LVL181
 15683 4946 466E0000 		.4byte	0x6e46
 15684 494a 3C       		.uleb128 0x3c
 15685 494b FC110000 		.4byte	.LVL182
 15686 494f 516E0000 		.4byte	0x6e51
 15687 4953 5D490000 		.4byte	0x495d
 15688 4957 3D       		.uleb128 0x3d
 15689 4958 01       		.uleb128 0x1
 15690 4959 51       		.byte	0x51
 15691 495a 01       		.uleb128 0x1
 15692 495b 30       		.byte	0x30
 15693 495c 00       		.byte	0
 15694 495d 3A       		.uleb128 0x3a
ARM GAS  /var/folders/d2/nstgp4h54kz7g1l847x_b8wc0000gn/T//ccB20FE7.s 			page 282


 15695 495e 04120000 		.4byte	.LVL183
 15696 4962 5C6E0000 		.4byte	0x6e5c
 15697 4966 3C       		.uleb128 0x3c
 15698 4967 18120000 		.4byte	.LVL184
 15699 496b 0F6E0000 		.4byte	0x6e0f
 15700 496f 80490000 		.4byte	0x4980
 15701 4973 3D       		.uleb128 0x3d
 15702 4974 01       		.uleb128 0x1
 15703 4975 50       		.byte	0x50
 15704 4976 02       		.uleb128 0x2
 15705 4977 77       		.byte	0x77
 15706 4978 00       		.sleb128 0
 15707 4979 3D       		.uleb128 0x3d
 15708 497a 01       		.uleb128 0x1
 15709 497b 51       		.byte	0x51
 15710 497c 02       		.uleb128 0x2
 15711 497d 75       		.byte	0x75
 15712 497e 00       		.sleb128 0
 15713 497f 00       		.byte	0
 15714 4980 3C       		.uleb128 0x3c
 15715 4981 24120000 		.4byte	.LVL185
 15716 4985 1A6E0000 		.4byte	0x6e1a
 15717 4989 94490000 		.4byte	0x4994
 15718 498d 3D       		.uleb128 0x3d
 15719 498e 01       		.uleb128 0x1
 15720 498f 50       		.byte	0x50
 15721 4990 02       		.uleb128 0x2
 15722 4991 74       		.byte	0x74
 15723 4992 00       		.sleb128 0
 15724 4993 00       		.byte	0
 15725 4994 3C       		.uleb128 0x3c
 15726 4995 2C120000 		.4byte	.LVL186
 15727 4999 256E0000 		.4byte	0x6e25
 15728 499d A8490000 		.4byte	0x49a8
 15729 49a1 3D       		.uleb128 0x3d
 15730 49a2 01       		.uleb128 0x1
 15731 49a3 50       		.byte	0x50
 15732 49a4 02       		.uleb128 0x2
 15733 49a5 74       		.byte	0x74
 15734 49a6 00       		.sleb128 0
 15735 49a7 00       		.byte	0
 15736 49a8 3A       		.uleb128 0x3a
 15737 49a9 30120000 		.4byte	.LVL187
 15738 49ad 306E0000 		.4byte	0x6e30
 15739 49b1 3C       		.uleb128 0x3c
 15740 49b2 4A120000 		.4byte	.LVL188
 15741 49b6 676E0000 		.4byte	0x6e67
 15742 49ba E0490000 		.4byte	0x49e0
 15743 49be 3D       		.uleb128 0x3d
 15744 49bf 01       		.uleb128 0x1
 15745 49c0 50       		.byte	0x50
 15746 49c1 02       		.uleb128 0x2
 15747 49c2 77       		.byte	0x77
 15748 49c3 00       		.sleb128 0
 15749 49c4 3D       		.uleb128 0x3d
 15750 49c5 01       		.uleb128 0x1
 15751 49c6 51       		.byte	0x51
ARM GAS  /var/folders/d2/nstgp4h54kz7g1l847x_b8wc0000gn/T//ccB20FE7.s 			page 283


 15752 49c7 05       		.uleb128 0x5
 15753 49c8 03       		.byte	0x3
 15754 49c9 0C0B0000 		.4byte	.LC91
 15755 49cd 3D       		.uleb128 0x3d
 15756 49ce 01       		.uleb128 0x1
 15757 49cf 52       		.byte	0x52
 15758 49d0 05       		.uleb128 0x5
 15759 49d1 03       		.byte	0x3
 15760 49d2 00000000 		.4byte	.LANCHOR24
 15761 49d6 3D       		.uleb128 0x3d
 15762 49d7 01       		.uleb128 0x1
 15763 49d8 53       		.byte	0x53
 15764 49d9 05       		.uleb128 0x5
 15765 49da 03       		.byte	0x3
 15766 49db 00000000 		.4byte	.LANCHOR25
 15767 49df 00       		.byte	0
 15768 49e0 3C       		.uleb128 0x3c
 15769 49e1 5A120000 		.4byte	.LVL189
 15770 49e5 0F6E0000 		.4byte	0x6e0f
 15771 49e9 FD490000 		.4byte	0x49fd
 15772 49ed 3D       		.uleb128 0x3d
 15773 49ee 01       		.uleb128 0x1
 15774 49ef 50       		.byte	0x50
 15775 49f0 02       		.uleb128 0x2
 15776 49f1 77       		.byte	0x77
 15777 49f2 00       		.sleb128 0
 15778 49f3 3D       		.uleb128 0x3d
 15779 49f4 01       		.uleb128 0x1
 15780 49f5 51       		.byte	0x51
 15781 49f6 05       		.uleb128 0x5
 15782 49f7 03       		.byte	0x3
 15783 49f8 180B0000 		.4byte	.LC92
 15784 49fc 00       		.byte	0
 15785 49fd 3C       		.uleb128 0x3c
 15786 49fe 68120000 		.4byte	.LVL190
 15787 4a02 1A6E0000 		.4byte	0x6e1a
 15788 4a06 114A0000 		.4byte	0x4a11
 15789 4a0a 3D       		.uleb128 0x3d
 15790 4a0b 01       		.uleb128 0x1
 15791 4a0c 50       		.byte	0x50
 15792 4a0d 02       		.uleb128 0x2
 15793 4a0e 77       		.byte	0x77
 15794 4a0f 00       		.sleb128 0
 15795 4a10 00       		.byte	0
 15796 4a11 3C       		.uleb128 0x3c
 15797 4a12 70120000 		.4byte	.LVL191
 15798 4a16 256E0000 		.4byte	0x6e25
 15799 4a1a 254A0000 		.4byte	0x4a25
 15800 4a1e 3D       		.uleb128 0x3d
 15801 4a1f 01       		.uleb128 0x1
 15802 4a20 50       		.byte	0x50
 15803 4a21 02       		.uleb128 0x2
 15804 4a22 77       		.byte	0x77
 15805 4a23 00       		.sleb128 0
 15806 4a24 00       		.byte	0
 15807 4a25 3A       		.uleb128 0x3a
 15808 4a26 74120000 		.4byte	.LVL192
ARM GAS  /var/folders/d2/nstgp4h54kz7g1l847x_b8wc0000gn/T//ccB20FE7.s 			page 284


 15809 4a2a 306E0000 		.4byte	0x6e30
 15810 4a2e 3A       		.uleb128 0x3a
 15811 4a2f 7C120000 		.4byte	.LVL193
 15812 4a33 466E0000 		.4byte	0x6e46
 15813 4a37 3A       		.uleb128 0x3a
 15814 4a38 88120000 		.4byte	.LVL194
 15815 4a3c 516E0000 		.4byte	0x6e51
 15816 4a40 3A       		.uleb128 0x3a
 15817 4a41 92120000 		.4byte	.LVL195
 15818 4a45 5C6E0000 		.4byte	0x6e5c
 15819 4a49 3C       		.uleb128 0x3c
 15820 4a4a 9C120000 		.4byte	.LVL196
 15821 4a4e 0F6E0000 		.4byte	0x6e0f
 15822 4a52 664A0000 		.4byte	0x4a66
 15823 4a56 3D       		.uleb128 0x3d
 15824 4a57 01       		.uleb128 0x1
 15825 4a58 50       		.byte	0x50
 15826 4a59 02       		.uleb128 0x2
 15827 4a5a 77       		.byte	0x77
 15828 4a5b 00       		.sleb128 0
 15829 4a5c 3D       		.uleb128 0x3d
 15830 4a5d 01       		.uleb128 0x1
 15831 4a5e 51       		.byte	0x51
 15832 4a5f 05       		.uleb128 0x5
 15833 4a60 03       		.byte	0x3
 15834 4a61 240B0000 		.4byte	.LC93
 15835 4a65 00       		.byte	0
 15836 4a66 3C       		.uleb128 0x3c
 15837 4a67 A2120000 		.4byte	.LVL197
 15838 4a6b 1A6E0000 		.4byte	0x6e1a
 15839 4a6f 7A4A0000 		.4byte	0x4a7a
 15840 4a73 3D       		.uleb128 0x3d
 15841 4a74 01       		.uleb128 0x1
 15842 4a75 50       		.byte	0x50
 15843 4a76 02       		.uleb128 0x2
 15844 4a77 77       		.byte	0x77
 15845 4a78 00       		.sleb128 0
 15846 4a79 00       		.byte	0
 15847 4a7a 3C       		.uleb128 0x3c
 15848 4a7b AA120000 		.4byte	.LVL198
 15849 4a7f 256E0000 		.4byte	0x6e25
 15850 4a83 8E4A0000 		.4byte	0x4a8e
 15851 4a87 3D       		.uleb128 0x3d
 15852 4a88 01       		.uleb128 0x1
 15853 4a89 50       		.byte	0x50
 15854 4a8a 02       		.uleb128 0x2
 15855 4a8b 77       		.byte	0x77
 15856 4a8c 00       		.sleb128 0
 15857 4a8d 00       		.byte	0
 15858 4a8e 3A       		.uleb128 0x3a
 15859 4a8f AE120000 		.4byte	.LVL199
 15860 4a93 306E0000 		.4byte	0x6e30
 15861 4a97 3C       		.uleb128 0x3c
 15862 4a98 C8120000 		.4byte	.LVL201
 15863 4a9c 256E0000 		.4byte	0x6e25
 15864 4aa0 AB4A0000 		.4byte	0x4aab
 15865 4aa4 3D       		.uleb128 0x3d
ARM GAS  /var/folders/d2/nstgp4h54kz7g1l847x_b8wc0000gn/T//ccB20FE7.s 			page 285


 15866 4aa5 01       		.uleb128 0x1
 15867 4aa6 50       		.byte	0x50
 15868 4aa7 02       		.uleb128 0x2
 15869 4aa8 77       		.byte	0x77
 15870 4aa9 00       		.sleb128 0
 15871 4aaa 00       		.byte	0
 15872 4aab 3A       		.uleb128 0x3a
 15873 4aac CC120000 		.4byte	.LVL202
 15874 4ab0 306E0000 		.4byte	0x6e30
 15875 4ab4 3C       		.uleb128 0x3c
 15876 4ab5 00130000 		.4byte	.LVL203
 15877 4ab9 676E0000 		.4byte	0x6e67
 15878 4abd E14A0000 		.4byte	0x4ae1
 15879 4ac1 3D       		.uleb128 0x3d
 15880 4ac2 01       		.uleb128 0x1
 15881 4ac3 50       		.byte	0x50
 15882 4ac4 02       		.uleb128 0x2
 15883 4ac5 77       		.byte	0x77
 15884 4ac6 00       		.sleb128 0
 15885 4ac7 3D       		.uleb128 0x3d
 15886 4ac8 01       		.uleb128 0x1
 15887 4ac9 51       		.byte	0x51
 15888 4aca 05       		.uleb128 0x5
 15889 4acb 03       		.byte	0x3
 15890 4acc D0090000 		.4byte	.LC71
 15891 4ad0 3D       		.uleb128 0x3d
 15892 4ad1 01       		.uleb128 0x1
 15893 4ad2 52       		.byte	0x52
 15894 4ad3 04       		.uleb128 0x4
 15895 4ad4 91       		.byte	0x91
 15896 4ad5 B07F     		.sleb128 -80
 15897 4ad7 06       		.byte	0x6
 15898 4ad8 3D       		.uleb128 0x3d
 15899 4ad9 01       		.uleb128 0x1
 15900 4ada 53       		.byte	0x53
 15901 4adb 04       		.uleb128 0x4
 15902 4adc 91       		.byte	0x91
 15903 4add A87F     		.sleb128 -88
 15904 4adf 06       		.byte	0x6
 15905 4ae0 00       		.byte	0
 15906 4ae1 3A       		.uleb128 0x3a
 15907 4ae2 3E130000 		.4byte	.LVL204
 15908 4ae6 726E0000 		.4byte	0x6e72
 15909 4aea 3C       		.uleb128 0x3c
 15910 4aeb 8C130000 		.4byte	.LVL205
 15911 4aef 7D6E0000 		.4byte	0x6e7d
 15912 4af3 0D4B0000 		.4byte	0x4b0d
 15913 4af7 3D       		.uleb128 0x3d
 15914 4af8 02       		.uleb128 0x2
 15915 4af9 7D       		.byte	0x7d
 15916 4afa 00       		.sleb128 0
 15917 4afb 02       		.uleb128 0x2
 15918 4afc 75       		.byte	0x75
 15919 4afd 00       		.sleb128 0
 15920 4afe 3D       		.uleb128 0x3d
 15921 4aff 02       		.uleb128 0x2
 15922 4b00 7D       		.byte	0x7d
ARM GAS  /var/folders/d2/nstgp4h54kz7g1l847x_b8wc0000gn/T//ccB20FE7.s 			page 286


 15923 4b01 04       		.sleb128 4
 15924 4b02 02       		.uleb128 0x2
 15925 4b03 75       		.byte	0x75
 15926 4b04 00       		.sleb128 0
 15927 4b05 3D       		.uleb128 0x3d
 15928 4b06 02       		.uleb128 0x2
 15929 4b07 7D       		.byte	0x7d
 15930 4b08 08       		.sleb128 8
 15931 4b09 02       		.uleb128 0x2
 15932 4b0a 74       		.byte	0x74
 15933 4b0b 00       		.sleb128 0
 15934 4b0c 00       		.byte	0
 15935 4b0d 3A       		.uleb128 0x3a
 15936 4b0e 90130000 		.4byte	.LVL206
 15937 4b12 886E0000 		.4byte	0x6e88
 15938 4b16 3C       		.uleb128 0x3c
 15939 4b17 A0130000 		.4byte	.LVL207
 15940 4b1b 256E0000 		.4byte	0x6e25
 15941 4b1f 324B0000 		.4byte	0x4b32
 15942 4b23 3D       		.uleb128 0x3d
 15943 4b24 01       		.uleb128 0x1
 15944 4b25 50       		.byte	0x50
 15945 4b26 05       		.uleb128 0x5
 15946 4b27 03       		.byte	0x3
 15947 4b28 E8090000 		.4byte	.LC72
 15948 4b2c 3D       		.uleb128 0x3d
 15949 4b2d 01       		.uleb128 0x1
 15950 4b2e 51       		.byte	0x51
 15951 4b2f 01       		.uleb128 0x1
 15952 4b30 33       		.byte	0x33
 15953 4b31 00       		.byte	0
 15954 4b32 3A       		.uleb128 0x3a
 15955 4b33 A4130000 		.4byte	.LVL208
 15956 4b37 306E0000 		.4byte	0x6e30
 15957 4b3b 3C       		.uleb128 0x3c
 15958 4b3c B2130000 		.4byte	.LVL209
 15959 4b40 936E0000 		.4byte	0x6e93
 15960 4b44 4E4B0000 		.4byte	0x4b4e
 15961 4b48 3D       		.uleb128 0x3d
 15962 4b49 01       		.uleb128 0x1
 15963 4b4a 50       		.byte	0x50
 15964 4b4b 01       		.uleb128 0x1
 15965 4b4c 30       		.byte	0x30
 15966 4b4d 00       		.byte	0
 15967 4b4e 3C       		.uleb128 0x3c
 15968 4b4f B8130000 		.4byte	.LVL210
 15969 4b53 9E6E0000 		.4byte	0x6e9e
 15970 4b57 614B0000 		.4byte	0x4b61
 15971 4b5b 3D       		.uleb128 0x3d
 15972 4b5c 01       		.uleb128 0x1
 15973 4b5d 50       		.byte	0x50
 15974 4b5e 01       		.uleb128 0x1
 15975 4b5f 30       		.byte	0x30
 15976 4b60 00       		.byte	0
 15977 4b61 3C       		.uleb128 0x3c
 15978 4b62 C0130000 		.4byte	.LVL211
 15979 4b66 A96E0000 		.4byte	0x6ea9
ARM GAS  /var/folders/d2/nstgp4h54kz7g1l847x_b8wc0000gn/T//ccB20FE7.s 			page 287


 15980 4b6a 794B0000 		.4byte	0x4b79
 15981 4b6e 3D       		.uleb128 0x3d
 15982 4b6f 01       		.uleb128 0x1
 15983 4b70 50       		.byte	0x50
 15984 4b71 01       		.uleb128 0x1
 15985 4b72 38       		.byte	0x38
 15986 4b73 3D       		.uleb128 0x3d
 15987 4b74 01       		.uleb128 0x1
 15988 4b75 51       		.byte	0x51
 15989 4b76 01       		.uleb128 0x1
 15990 4b77 30       		.byte	0x30
 15991 4b78 00       		.byte	0
 15992 4b79 3C       		.uleb128 0x3c
 15993 4b7a D8130000 		.4byte	.LVL212
 15994 4b7e 256E0000 		.4byte	0x6e25
 15995 4b82 954B0000 		.4byte	0x4b95
 15996 4b86 3D       		.uleb128 0x3d
 15997 4b87 01       		.uleb128 0x1
 15998 4b88 50       		.byte	0x50
 15999 4b89 05       		.uleb128 0x5
 16000 4b8a 03       		.byte	0x3
 16001 4b8b A40A0000 		.4byte	.LC82
 16002 4b8f 3D       		.uleb128 0x3d
 16003 4b90 01       		.uleb128 0x1
 16004 4b91 51       		.byte	0x51
 16005 4b92 01       		.uleb128 0x1
 16006 4b93 33       		.byte	0x33
 16007 4b94 00       		.byte	0
 16008 4b95 3A       		.uleb128 0x3a
 16009 4b96 DC130000 		.4byte	.LVL213
 16010 4b9a 306E0000 		.4byte	0x6e30
 16011 4b9e 3C       		.uleb128 0x3c
 16012 4b9f EE130000 		.4byte	.LVL214
 16013 4ba3 676E0000 		.4byte	0x6e67
 16014 4ba7 C44B0000 		.4byte	0x4bc4
 16015 4bab 3D       		.uleb128 0x3d
 16016 4bac 01       		.uleb128 0x1
 16017 4bad 50       		.byte	0x50
 16018 4bae 02       		.uleb128 0x2
 16019 4baf 77       		.byte	0x77
 16020 4bb0 00       		.sleb128 0
 16021 4bb1 3D       		.uleb128 0x3d
 16022 4bb2 01       		.uleb128 0x1
 16023 4bb3 51       		.byte	0x51
 16024 4bb4 05       		.uleb128 0x5
 16025 4bb5 03       		.byte	0x3
 16026 4bb6 88000000 		.4byte	.LC4
 16027 4bba 3D       		.uleb128 0x3d
 16028 4bbb 01       		.uleb128 0x1
 16029 4bbc 52       		.byte	0x52
 16030 4bbd 05       		.uleb128 0x5
 16031 4bbe 03       		.byte	0x3
 16032 4bbf 00000000 		.4byte	.LANCHOR27
 16033 4bc3 00       		.byte	0
 16034 4bc4 3A       		.uleb128 0x3a
 16035 4bc5 F6130000 		.4byte	.LVL215
 16036 4bc9 B46E0000 		.4byte	0x6eb4
ARM GAS  /var/folders/d2/nstgp4h54kz7g1l847x_b8wc0000gn/T//ccB20FE7.s 			page 288


 16037 4bcd 3C       		.uleb128 0x3c
 16038 4bce 0E140000 		.4byte	.LVL216
 16039 4bd2 256E0000 		.4byte	0x6e25
 16040 4bd6 E94B0000 		.4byte	0x4be9
 16041 4bda 3D       		.uleb128 0x3d
 16042 4bdb 01       		.uleb128 0x1
 16043 4bdc 50       		.byte	0x50
 16044 4bdd 05       		.uleb128 0x5
 16045 4bde 03       		.byte	0x3
 16046 4bdf 90000000 		.4byte	.LC5
 16047 4be3 3D       		.uleb128 0x3d
 16048 4be4 01       		.uleb128 0x1
 16049 4be5 51       		.byte	0x51
 16050 4be6 01       		.uleb128 0x1
 16051 4be7 33       		.byte	0x33
 16052 4be8 00       		.byte	0
 16053 4be9 3A       		.uleb128 0x3a
 16054 4bea 12140000 		.4byte	.LVL217
 16055 4bee 306E0000 		.4byte	0x6e30
 16056 4bf2 3C       		.uleb128 0x3c
 16057 4bf3 34140000 		.4byte	.LVL218
 16058 4bf7 676E0000 		.4byte	0x6e67
 16059 4bfb 284C0000 		.4byte	0x4c28
 16060 4bff 3D       		.uleb128 0x3d
 16061 4c00 01       		.uleb128 0x1
 16062 4c01 50       		.byte	0x50
 16063 4c02 02       		.uleb128 0x2
 16064 4c03 77       		.byte	0x77
 16065 4c04 00       		.sleb128 0
 16066 4c05 3D       		.uleb128 0x3d
 16067 4c06 01       		.uleb128 0x1
 16068 4c07 51       		.byte	0x51
 16069 4c08 05       		.uleb128 0x5
 16070 4c09 03       		.byte	0x3
 16071 4c0a FC0A0000 		.4byte	.LC89
 16072 4c0e 3D       		.uleb128 0x3d
 16073 4c0f 01       		.uleb128 0x1
 16074 4c10 52       		.byte	0x52
 16075 4c11 05       		.uleb128 0x5
 16076 4c12 03       		.byte	0x3
 16077 4c13 00000000 		.4byte	.LANCHOR24
 16078 4c17 3D       		.uleb128 0x3d
 16079 4c18 01       		.uleb128 0x1
 16080 4c19 53       		.byte	0x53
 16081 4c1a 05       		.uleb128 0x5
 16082 4c1b 03       		.byte	0x3
 16083 4c1c 00000000 		.4byte	.LANCHOR25
 16084 4c20 3D       		.uleb128 0x3d
 16085 4c21 02       		.uleb128 0x2
 16086 4c22 7D       		.byte	0x7d
 16087 4c23 00       		.sleb128 0
 16088 4c24 02       		.uleb128 0x2
 16089 4c25 74       		.byte	0x74
 16090 4c26 00       		.sleb128 0
 16091 4c27 00       		.byte	0
 16092 4c28 3A       		.uleb128 0x3a
 16093 4c29 38140000 		.4byte	.LVL219
ARM GAS  /var/folders/d2/nstgp4h54kz7g1l847x_b8wc0000gn/T//ccB20FE7.s 			page 289


 16094 4c2d 466E0000 		.4byte	0x6e46
 16095 4c31 3A       		.uleb128 0x3a
 16096 4c32 46140000 		.4byte	.LVL220
 16097 4c36 BF6E0000 		.4byte	0x6ebf
 16098 4c3a 3A       		.uleb128 0x3a
 16099 4c3b 4A140000 		.4byte	.LVL221
 16100 4c3f 5C6E0000 		.4byte	0x6e5c
 16101 4c43 3C       		.uleb128 0x3c
 16102 4c44 5A140000 		.4byte	.LVL222
 16103 4c48 256E0000 		.4byte	0x6e25
 16104 4c4c 5F4C0000 		.4byte	0x4c5f
 16105 4c50 3D       		.uleb128 0x3d
 16106 4c51 01       		.uleb128 0x1
 16107 4c52 50       		.byte	0x50
 16108 4c53 05       		.uleb128 0x5
 16109 4c54 03       		.byte	0x3
 16110 4c55 080B0000 		.4byte	.LC90
 16111 4c59 3D       		.uleb128 0x3d
 16112 4c5a 01       		.uleb128 0x1
 16113 4c5b 51       		.byte	0x51
 16114 4c5c 01       		.uleb128 0x1
 16115 4c5d 33       		.byte	0x33
 16116 4c5e 00       		.byte	0
 16117 4c5f 3A       		.uleb128 0x3a
 16118 4c60 5E140000 		.4byte	.LVL223
 16119 4c64 306E0000 		.4byte	0x6e30
 16120 4c68 3C       		.uleb128 0x3c
 16121 4c69 C6140000 		.4byte	.LVL224
 16122 4c6d 676E0000 		.4byte	0x6e67
 16123 4c71 8E4C0000 		.4byte	0x4c8e
 16124 4c75 3D       		.uleb128 0x3d
 16125 4c76 01       		.uleb128 0x1
 16126 4c77 50       		.byte	0x50
 16127 4c78 02       		.uleb128 0x2
 16128 4c79 77       		.byte	0x77
 16129 4c7a 00       		.sleb128 0
 16130 4c7b 3D       		.uleb128 0x3d
 16131 4c7c 01       		.uleb128 0x1
 16132 4c7d 51       		.byte	0x51
 16133 4c7e 05       		.uleb128 0x5
 16134 4c7f 03       		.byte	0x3
 16135 4c80 B8000000 		.4byte	.LC10
 16136 4c84 3D       		.uleb128 0x3d
 16137 4c85 01       		.uleb128 0x1
 16138 4c86 52       		.byte	0x52
 16139 4c87 05       		.uleb128 0x5
 16140 4c88 03       		.byte	0x3
 16141 4c89 00000000 		.4byte	.LANCHOR27
 16142 4c8d 00       		.byte	0
 16143 4c8e 3A       		.uleb128 0x3a
 16144 4c8f CE140000 		.4byte	.LVL225
 16145 4c93 CA6E0000 		.4byte	0x6eca
 16146 4c97 3C       		.uleb128 0x3c
 16147 4c98 E6140000 		.4byte	.LVL226
 16148 4c9c 256E0000 		.4byte	0x6e25
 16149 4ca0 B34C0000 		.4byte	0x4cb3
 16150 4ca4 3D       		.uleb128 0x3d
ARM GAS  /var/folders/d2/nstgp4h54kz7g1l847x_b8wc0000gn/T//ccB20FE7.s 			page 290


 16151 4ca5 01       		.uleb128 0x1
 16152 4ca6 50       		.byte	0x50
 16153 4ca7 05       		.uleb128 0x5
 16154 4ca8 03       		.byte	0x3
 16155 4ca9 C0000000 		.4byte	.LC11
 16156 4cad 3D       		.uleb128 0x3d
 16157 4cae 01       		.uleb128 0x1
 16158 4caf 51       		.byte	0x51
 16159 4cb0 01       		.uleb128 0x1
 16160 4cb1 33       		.byte	0x33
 16161 4cb2 00       		.byte	0
 16162 4cb3 3A       		.uleb128 0x3a
 16163 4cb4 EA140000 		.4byte	.LVL227
 16164 4cb8 306E0000 		.4byte	0x6e30
 16165 4cbc 3C       		.uleb128 0x3c
 16166 4cbd F8140000 		.4byte	.LVL228
 16167 4cc1 D56E0000 		.4byte	0x6ed5
 16168 4cc5 CF4C0000 		.4byte	0x4ccf
 16169 4cc9 3D       		.uleb128 0x3d
 16170 4cca 01       		.uleb128 0x1
 16171 4ccb 50       		.byte	0x50
 16172 4ccc 01       		.uleb128 0x1
 16173 4ccd 30       		.byte	0x30
 16174 4cce 00       		.byte	0
 16175 4ccf 3C       		.uleb128 0x3c
 16176 4cd0 00150000 		.4byte	.LVL229
 16177 4cd4 D56E0000 		.4byte	0x6ed5
 16178 4cd8 E24C0000 		.4byte	0x4ce2
 16179 4cdc 3D       		.uleb128 0x3d
 16180 4cdd 01       		.uleb128 0x1
 16181 4cde 50       		.byte	0x50
 16182 4cdf 01       		.uleb128 0x1
 16183 4ce0 31       		.byte	0x31
 16184 4ce1 00       		.byte	0
 16185 4ce2 3C       		.uleb128 0x3c
 16186 4ce3 08150000 		.4byte	.LVL230
 16187 4ce7 D56E0000 		.4byte	0x6ed5
 16188 4ceb F54C0000 		.4byte	0x4cf5
 16189 4cef 3D       		.uleb128 0x3d
 16190 4cf0 01       		.uleb128 0x1
 16191 4cf1 50       		.byte	0x50
 16192 4cf2 01       		.uleb128 0x1
 16193 4cf3 32       		.byte	0x32
 16194 4cf4 00       		.byte	0
 16195 4cf5 3C       		.uleb128 0x3c
 16196 4cf6 10150000 		.4byte	.LVL231
 16197 4cfa D56E0000 		.4byte	0x6ed5
 16198 4cfe 084D0000 		.4byte	0x4d08
 16199 4d02 3D       		.uleb128 0x3d
 16200 4d03 01       		.uleb128 0x1
 16201 4d04 50       		.byte	0x50
 16202 4d05 01       		.uleb128 0x1
 16203 4d06 33       		.byte	0x33
 16204 4d07 00       		.byte	0
 16205 4d08 3C       		.uleb128 0x3c
 16206 4d09 18150000 		.4byte	.LVL232
 16207 4d0d D56E0000 		.4byte	0x6ed5
ARM GAS  /var/folders/d2/nstgp4h54kz7g1l847x_b8wc0000gn/T//ccB20FE7.s 			page 291


 16208 4d11 1B4D0000 		.4byte	0x4d1b
 16209 4d15 3D       		.uleb128 0x3d
 16210 4d16 01       		.uleb128 0x1
 16211 4d17 50       		.byte	0x50
 16212 4d18 01       		.uleb128 0x1
 16213 4d19 34       		.byte	0x34
 16214 4d1a 00       		.byte	0
 16215 4d1b 3C       		.uleb128 0x3c
 16216 4d1c 20150000 		.4byte	.LVL233
 16217 4d20 D56E0000 		.4byte	0x6ed5
 16218 4d24 2E4D0000 		.4byte	0x4d2e
 16219 4d28 3D       		.uleb128 0x3d
 16220 4d29 01       		.uleb128 0x1
 16221 4d2a 50       		.byte	0x50
 16222 4d2b 01       		.uleb128 0x1
 16223 4d2c 35       		.byte	0x35
 16224 4d2d 00       		.byte	0
 16225 4d2e 3C       		.uleb128 0x3c
 16226 4d2f 28150000 		.4byte	.LVL234
 16227 4d33 D56E0000 		.4byte	0x6ed5
 16228 4d37 414D0000 		.4byte	0x4d41
 16229 4d3b 3D       		.uleb128 0x3d
 16230 4d3c 01       		.uleb128 0x1
 16231 4d3d 50       		.byte	0x50
 16232 4d3e 01       		.uleb128 0x1
 16233 4d3f 36       		.byte	0x36
 16234 4d40 00       		.byte	0
 16235 4d41 3C       		.uleb128 0x3c
 16236 4d42 30150000 		.4byte	.LVL235
 16237 4d46 D56E0000 		.4byte	0x6ed5
 16238 4d4a 544D0000 		.4byte	0x4d54
 16239 4d4e 3D       		.uleb128 0x3d
 16240 4d4f 01       		.uleb128 0x1
 16241 4d50 50       		.byte	0x50
 16242 4d51 01       		.uleb128 0x1
 16243 4d52 37       		.byte	0x37
 16244 4d53 00       		.byte	0
 16245 4d54 3C       		.uleb128 0x3c
 16246 4d55 4E150000 		.4byte	.LVL236
 16247 4d59 0F6E0000 		.4byte	0x6e0f
 16248 4d5d A84D0000 		.4byte	0x4da8
 16249 4d61 3D       		.uleb128 0x3d
 16250 4d62 01       		.uleb128 0x1
 16251 4d63 50       		.byte	0x50
 16252 4d64 02       		.uleb128 0x2
 16253 4d65 77       		.byte	0x77
 16254 4d66 00       		.sleb128 0
 16255 4d67 3D       		.uleb128 0x3d
 16256 4d68 01       		.uleb128 0x1
 16257 4d69 51       		.byte	0x51
 16258 4d6a 05       		.uleb128 0x5
 16259 4d6b 03       		.byte	0x3
 16260 4d6c 500A0000 		.4byte	.LC77
 16261 4d70 3D       		.uleb128 0x3d
 16262 4d71 01       		.uleb128 0x1
 16263 4d72 52       		.byte	0x52
 16264 4d73 04       		.uleb128 0x4
ARM GAS  /var/folders/d2/nstgp4h54kz7g1l847x_b8wc0000gn/T//ccB20FE7.s 			page 292


 16265 4d74 91       		.byte	0x91
 16266 4d75 947F     		.sleb128 -108
 16267 4d77 06       		.byte	0x6
 16268 4d78 3D       		.uleb128 0x3d
 16269 4d79 01       		.uleb128 0x1
 16270 4d7a 53       		.byte	0x53
 16271 4d7b 02       		.uleb128 0x2
 16272 4d7c 74       		.byte	0x74
 16273 4d7d 00       		.sleb128 0
 16274 4d7e 3D       		.uleb128 0x3d
 16275 4d7f 02       		.uleb128 0x2
 16276 4d80 7D       		.byte	0x7d
 16277 4d81 00       		.sleb128 0
 16278 4d82 04       		.uleb128 0x4
 16279 4d83 91       		.byte	0x91
 16280 4d84 887F     		.sleb128 -120
 16281 4d86 06       		.byte	0x6
 16282 4d87 3D       		.uleb128 0x3d
 16283 4d88 02       		.uleb128 0x2
 16284 4d89 7D       		.byte	0x7d
 16285 4d8a 04       		.sleb128 4
 16286 4d8b 02       		.uleb128 0x2
 16287 4d8c 75       		.byte	0x75
 16288 4d8d 00       		.sleb128 0
 16289 4d8e 3D       		.uleb128 0x3d
 16290 4d8f 02       		.uleb128 0x2
 16291 4d90 7D       		.byte	0x7d
 16292 4d91 08       		.sleb128 8
 16293 4d92 02       		.uleb128 0x2
 16294 4d93 76       		.byte	0x76
 16295 4d94 00       		.sleb128 0
 16296 4d95 3D       		.uleb128 0x3d
 16297 4d96 02       		.uleb128 0x2
 16298 4d97 7D       		.byte	0x7d
 16299 4d98 0C       		.sleb128 12
 16300 4d99 04       		.uleb128 0x4
 16301 4d9a 91       		.byte	0x91
 16302 4d9b 907F     		.sleb128 -112
 16303 4d9d 06       		.byte	0x6
 16304 4d9e 3D       		.uleb128 0x3d
 16305 4d9f 02       		.uleb128 0x2
 16306 4da0 7D       		.byte	0x7d
 16307 4da1 10       		.sleb128 16
 16308 4da2 04       		.uleb128 0x4
 16309 4da3 91       		.byte	0x91
 16310 4da4 8C7F     		.sleb128 -116
 16311 4da6 06       		.byte	0x6
 16312 4da7 00       		.byte	0
 16313 4da8 3C       		.uleb128 0x3c
 16314 4da9 6C150000 		.4byte	.LVL238
 16315 4dad 256E0000 		.4byte	0x6e25
 16316 4db1 BC4D0000 		.4byte	0x4dbc
 16317 4db5 3D       		.uleb128 0x3d
 16318 4db6 01       		.uleb128 0x1
 16319 4db7 50       		.byte	0x50
 16320 4db8 02       		.uleb128 0x2
 16321 4db9 77       		.byte	0x77
ARM GAS  /var/folders/d2/nstgp4h54kz7g1l847x_b8wc0000gn/T//ccB20FE7.s 			page 293


 16322 4dba 00       		.sleb128 0
 16323 4dbb 00       		.byte	0
 16324 4dbc 3A       		.uleb128 0x3a
 16325 4dbd 70150000 		.4byte	.LVL239
 16326 4dc1 306E0000 		.4byte	0x6e30
 16327 4dc5 3C       		.uleb128 0x3c
 16328 4dc6 88150000 		.4byte	.LVL240
 16329 4dca E06E0000 		.4byte	0x6ee0
 16330 4dce DE4D0000 		.4byte	0x4dde
 16331 4dd2 3D       		.uleb128 0x3d
 16332 4dd3 01       		.uleb128 0x1
 16333 4dd4 50       		.byte	0x50
 16334 4dd5 02       		.uleb128 0x2
 16335 4dd6 78       		.byte	0x78
 16336 4dd7 00       		.sleb128 0
 16337 4dd8 3D       		.uleb128 0x3d
 16338 4dd9 01       		.uleb128 0x1
 16339 4dda 51       		.byte	0x51
 16340 4ddb 01       		.uleb128 0x1
 16341 4ddc 31       		.byte	0x31
 16342 4ddd 00       		.byte	0
 16343 4dde 3C       		.uleb128 0x3c
 16344 4ddf 92150000 		.4byte	.LVL241
 16345 4de3 E06E0000 		.4byte	0x6ee0
 16346 4de7 F64D0000 		.4byte	0x4df6
 16347 4deb 3D       		.uleb128 0x3d
 16348 4dec 01       		.uleb128 0x1
 16349 4ded 50       		.byte	0x50
 16350 4dee 01       		.uleb128 0x1
 16351 4def 31       		.byte	0x31
 16352 4df0 3D       		.uleb128 0x3d
 16353 4df1 01       		.uleb128 0x1
 16354 4df2 51       		.byte	0x51
 16355 4df3 01       		.uleb128 0x1
 16356 4df4 31       		.byte	0x31
 16357 4df5 00       		.byte	0
 16358 4df6 3C       		.uleb128 0x3c
 16359 4df7 9C150000 		.4byte	.LVL242
 16360 4dfb E06E0000 		.4byte	0x6ee0
 16361 4dff 0E4E0000 		.4byte	0x4e0e
 16362 4e03 3D       		.uleb128 0x3d
 16363 4e04 01       		.uleb128 0x1
 16364 4e05 50       		.byte	0x50
 16365 4e06 01       		.uleb128 0x1
 16366 4e07 32       		.byte	0x32
 16367 4e08 3D       		.uleb128 0x3d
 16368 4e09 01       		.uleb128 0x1
 16369 4e0a 51       		.byte	0x51
 16370 4e0b 01       		.uleb128 0x1
 16371 4e0c 31       		.byte	0x31
 16372 4e0d 00       		.byte	0
 16373 4e0e 3C       		.uleb128 0x3c
 16374 4e0f AA150000 		.4byte	.LVL243
 16375 4e13 0F6E0000 		.4byte	0x6e0f
 16376 4e17 374E0000 		.4byte	0x4e37
 16377 4e1b 3D       		.uleb128 0x3d
 16378 4e1c 01       		.uleb128 0x1
ARM GAS  /var/folders/d2/nstgp4h54kz7g1l847x_b8wc0000gn/T//ccB20FE7.s 			page 294


 16379 4e1d 50       		.byte	0x50
 16380 4e1e 02       		.uleb128 0x2
 16381 4e1f 77       		.byte	0x77
 16382 4e20 00       		.sleb128 0
 16383 4e21 3D       		.uleb128 0x3d
 16384 4e22 01       		.uleb128 0x1
 16385 4e23 51       		.byte	0x51
 16386 4e24 05       		.uleb128 0x5
 16387 4e25 03       		.byte	0x3
 16388 4e26 5C000000 		.4byte	.LC1
 16389 4e2a 3D       		.uleb128 0x3d
 16390 4e2b 01       		.uleb128 0x1
 16391 4e2c 52       		.byte	0x52
 16392 4e2d 02       		.uleb128 0x2
 16393 4e2e 74       		.byte	0x74
 16394 4e2f 00       		.sleb128 0
 16395 4e30 3D       		.uleb128 0x3d
 16396 4e31 01       		.uleb128 0x1
 16397 4e32 53       		.byte	0x53
 16398 4e33 02       		.uleb128 0x2
 16399 4e34 75       		.byte	0x75
 16400 4e35 00       		.sleb128 0
 16401 4e36 00       		.byte	0
 16402 4e37 3C       		.uleb128 0x3c
 16403 4e38 B8150000 		.4byte	.LVL244
 16404 4e3c 1A6E0000 		.4byte	0x6e1a
 16405 4e40 4B4E0000 		.4byte	0x4e4b
 16406 4e44 3D       		.uleb128 0x3d
 16407 4e45 01       		.uleb128 0x1
 16408 4e46 50       		.byte	0x50
 16409 4e47 02       		.uleb128 0x2
 16410 4e48 77       		.byte	0x77
 16411 4e49 00       		.sleb128 0
 16412 4e4a 00       		.byte	0
 16413 4e4b 3C       		.uleb128 0x3c
 16414 4e4c C0150000 		.4byte	.LVL245
 16415 4e50 256E0000 		.4byte	0x6e25
 16416 4e54 5F4E0000 		.4byte	0x4e5f
 16417 4e58 3D       		.uleb128 0x3d
 16418 4e59 01       		.uleb128 0x1
 16419 4e5a 50       		.byte	0x50
 16420 4e5b 02       		.uleb128 0x2
 16421 4e5c 77       		.byte	0x77
 16422 4e5d 00       		.sleb128 0
 16423 4e5e 00       		.byte	0
 16424 4e5f 3A       		.uleb128 0x3a
 16425 4e60 C4150000 		.4byte	.LVL246
 16426 4e64 306E0000 		.4byte	0x6e30
 16427 4e68 3C       		.uleb128 0x3c
 16428 4e69 D2150000 		.4byte	.LVL247
 16429 4e6d EB6E0000 		.4byte	0x6eeb
 16430 4e71 7B4E0000 		.4byte	0x4e7b
 16431 4e75 3D       		.uleb128 0x3d
 16432 4e76 01       		.uleb128 0x1
 16433 4e77 50       		.byte	0x50
 16434 4e78 01       		.uleb128 0x1
 16435 4e79 30       		.byte	0x30
ARM GAS  /var/folders/d2/nstgp4h54kz7g1l847x_b8wc0000gn/T//ccB20FE7.s 			page 295


 16436 4e7a 00       		.byte	0
 16437 4e7b 3C       		.uleb128 0x3c
 16438 4e7c DA150000 		.4byte	.LVL248
 16439 4e80 EB6E0000 		.4byte	0x6eeb
 16440 4e84 8E4E0000 		.4byte	0x4e8e
 16441 4e88 3D       		.uleb128 0x3d
 16442 4e89 01       		.uleb128 0x1
 16443 4e8a 50       		.byte	0x50
 16444 4e8b 01       		.uleb128 0x1
 16445 4e8c 31       		.byte	0x31
 16446 4e8d 00       		.byte	0
 16447 4e8e 3C       		.uleb128 0x3c
 16448 4e8f E2150000 		.4byte	.LVL249
 16449 4e93 EB6E0000 		.4byte	0x6eeb
 16450 4e97 A14E0000 		.4byte	0x4ea1
 16451 4e9b 3D       		.uleb128 0x3d
 16452 4e9c 01       		.uleb128 0x1
 16453 4e9d 50       		.byte	0x50
 16454 4e9e 01       		.uleb128 0x1
 16455 4e9f 32       		.byte	0x32
 16456 4ea0 00       		.byte	0
 16457 4ea1 3C       		.uleb128 0x3c
 16458 4ea2 F0150000 		.4byte	.LVL250
 16459 4ea6 0F6E0000 		.4byte	0x6e0f
 16460 4eaa CA4E0000 		.4byte	0x4eca
 16461 4eae 3D       		.uleb128 0x3d
 16462 4eaf 01       		.uleb128 0x1
 16463 4eb0 50       		.byte	0x50
 16464 4eb1 02       		.uleb128 0x2
 16465 4eb2 77       		.byte	0x77
 16466 4eb3 00       		.sleb128 0
 16467 4eb4 3D       		.uleb128 0x3d
 16468 4eb5 01       		.uleb128 0x1
 16469 4eb6 51       		.byte	0x51
 16470 4eb7 05       		.uleb128 0x5
 16471 4eb8 03       		.byte	0x3
 16472 4eb9 C40A0000 		.4byte	.LC87
 16473 4ebd 3D       		.uleb128 0x3d
 16474 4ebe 01       		.uleb128 0x1
 16475 4ebf 52       		.byte	0x52
 16476 4ec0 02       		.uleb128 0x2
 16477 4ec1 74       		.byte	0x74
 16478 4ec2 00       		.sleb128 0
 16479 4ec3 3D       		.uleb128 0x3d
 16480 4ec4 01       		.uleb128 0x1
 16481 4ec5 53       		.byte	0x53
 16482 4ec6 02       		.uleb128 0x2
 16483 4ec7 75       		.byte	0x75
 16484 4ec8 00       		.sleb128 0
 16485 4ec9 00       		.byte	0
 16486 4eca 3C       		.uleb128 0x3c
 16487 4ecb 0E160000 		.4byte	.LVL252
 16488 4ecf 256E0000 		.4byte	0x6e25
 16489 4ed3 DE4E0000 		.4byte	0x4ede
 16490 4ed7 3D       		.uleb128 0x3d
 16491 4ed8 01       		.uleb128 0x1
 16492 4ed9 50       		.byte	0x50
ARM GAS  /var/folders/d2/nstgp4h54kz7g1l847x_b8wc0000gn/T//ccB20FE7.s 			page 296


 16493 4eda 02       		.uleb128 0x2
 16494 4edb 77       		.byte	0x77
 16495 4edc 00       		.sleb128 0
 16496 4edd 00       		.byte	0
 16497 4ede 3A       		.uleb128 0x3a
 16498 4edf 12160000 		.4byte	.LVL253
 16499 4ee3 306E0000 		.4byte	0x6e30
 16500 4ee7 3C       		.uleb128 0x3c
 16501 4ee8 24160000 		.4byte	.LVL254
 16502 4eec 676E0000 		.4byte	0x6e67
 16503 4ef0 0D4F0000 		.4byte	0x4f0d
 16504 4ef4 3D       		.uleb128 0x3d
 16505 4ef5 01       		.uleb128 0x1
 16506 4ef6 50       		.byte	0x50
 16507 4ef7 02       		.uleb128 0x2
 16508 4ef8 77       		.byte	0x77
 16509 4ef9 00       		.sleb128 0
 16510 4efa 3D       		.uleb128 0x3d
 16511 4efb 01       		.uleb128 0x1
 16512 4efc 51       		.byte	0x51
 16513 4efd 05       		.uleb128 0x5
 16514 4efe 03       		.byte	0x3
 16515 4eff A80A0000 		.4byte	.LC83
 16516 4f03 3D       		.uleb128 0x3d
 16517 4f04 01       		.uleb128 0x1
 16518 4f05 52       		.byte	0x52
 16519 4f06 05       		.uleb128 0x5
 16520 4f07 03       		.byte	0x3
 16521 4f08 00000000 		.4byte	.LANCHOR31
 16522 4f0c 00       		.byte	0
 16523 4f0d 3A       		.uleb128 0x3a
 16524 4f0e 2E160000 		.4byte	.LVL255
 16525 4f12 F66E0000 		.4byte	0x6ef6
 16526 4f16 3C       		.uleb128 0x3c
 16527 4f17 90160000 		.4byte	.LVL256
 16528 4f1b 256E0000 		.4byte	0x6e25
 16529 4f1f 324F0000 		.4byte	0x4f32
 16530 4f23 3D       		.uleb128 0x3d
 16531 4f24 01       		.uleb128 0x1
 16532 4f25 50       		.byte	0x50
 16533 4f26 05       		.uleb128 0x5
 16534 4f27 03       		.byte	0x3
 16535 4f28 14010000 		.4byte	.LC15
 16536 4f2c 3D       		.uleb128 0x3d
 16537 4f2d 01       		.uleb128 0x1
 16538 4f2e 51       		.byte	0x51
 16539 4f2f 01       		.uleb128 0x1
 16540 4f30 31       		.byte	0x31
 16541 4f31 00       		.byte	0
 16542 4f32 3A       		.uleb128 0x3a
 16543 4f33 94160000 		.4byte	.LVL257
 16544 4f37 306E0000 		.4byte	0x6e30
 16545 4f3b 3C       		.uleb128 0x3c
 16546 4f3c A0160000 		.4byte	.LVL258
 16547 4f40 256E0000 		.4byte	0x6e25
 16548 4f44 584F0000 		.4byte	0x4f58
 16549 4f48 3D       		.uleb128 0x3d
ARM GAS  /var/folders/d2/nstgp4h54kz7g1l847x_b8wc0000gn/T//ccB20FE7.s 			page 297


 16550 4f49 01       		.uleb128 0x1
 16551 4f4a 50       		.byte	0x50
 16552 4f4b 05       		.uleb128 0x5
 16553 4f4c 03       		.byte	0x3
 16554 4f4d 18010000 		.4byte	.LC16
 16555 4f51 3D       		.uleb128 0x3d
 16556 4f52 01       		.uleb128 0x1
 16557 4f53 51       		.byte	0x51
 16558 4f54 02       		.uleb128 0x2
 16559 4f55 08       		.byte	0x8
 16560 4f56 21       		.byte	0x21
 16561 4f57 00       		.byte	0
 16562 4f58 3A       		.uleb128 0x3a
 16563 4f59 A4160000 		.4byte	.LVL259
 16564 4f5d 306E0000 		.4byte	0x6e30
 16565 4f61 3C       		.uleb128 0x3c
 16566 4f62 B0160000 		.4byte	.LVL260
 16567 4f66 256E0000 		.4byte	0x6e25
 16568 4f6a 7E4F0000 		.4byte	0x4f7e
 16569 4f6e 3D       		.uleb128 0x3d
 16570 4f6f 01       		.uleb128 0x1
 16571 4f70 50       		.byte	0x50
 16572 4f71 05       		.uleb128 0x5
 16573 4f72 03       		.byte	0x3
 16574 4f73 3C010000 		.4byte	.LC17
 16575 4f77 3D       		.uleb128 0x3d
 16576 4f78 01       		.uleb128 0x1
 16577 4f79 51       		.byte	0x51
 16578 4f7a 02       		.uleb128 0x2
 16579 4f7b 08       		.byte	0x8
 16580 4f7c 31       		.byte	0x31
 16581 4f7d 00       		.byte	0
 16582 4f7e 3A       		.uleb128 0x3a
 16583 4f7f B4160000 		.4byte	.LVL261
 16584 4f83 306E0000 		.4byte	0x6e30
 16585 4f87 3A       		.uleb128 0x3a
 16586 4f88 BC160000 		.4byte	.LVL262
 16587 4f8c 016F0000 		.4byte	0x6f01
 16588 4f90 3C       		.uleb128 0x3c
 16589 4f91 CA160000 		.4byte	.LVL263
 16590 4f95 256E0000 		.4byte	0x6e25
 16591 4f99 AD4F0000 		.4byte	0x4fad
 16592 4f9d 3D       		.uleb128 0x3d
 16593 4f9e 01       		.uleb128 0x1
 16594 4f9f 50       		.byte	0x50
 16595 4fa0 05       		.uleb128 0x5
 16596 4fa1 03       		.byte	0x3
 16597 4fa2 70010000 		.4byte	.LC18
 16598 4fa6 3D       		.uleb128 0x3d
 16599 4fa7 01       		.uleb128 0x1
 16600 4fa8 51       		.byte	0x51
 16601 4fa9 02       		.uleb128 0x2
 16602 4faa 08       		.byte	0x8
 16603 4fab 21       		.byte	0x21
 16604 4fac 00       		.byte	0
 16605 4fad 3A       		.uleb128 0x3a
 16606 4fae CE160000 		.4byte	.LVL264
ARM GAS  /var/folders/d2/nstgp4h54kz7g1l847x_b8wc0000gn/T//ccB20FE7.s 			page 298


 16607 4fb2 306E0000 		.4byte	0x6e30
 16608 4fb6 3C       		.uleb128 0x3c
 16609 4fb7 DA160000 		.4byte	.LVL265
 16610 4fbb 256E0000 		.4byte	0x6e25
 16611 4fbf D34F0000 		.4byte	0x4fd3
 16612 4fc3 3D       		.uleb128 0x3d
 16613 4fc4 01       		.uleb128 0x1
 16614 4fc5 50       		.byte	0x50
 16615 4fc6 05       		.uleb128 0x5
 16616 4fc7 03       		.byte	0x3
 16617 4fc8 C4010000 		.4byte	.LC20
 16618 4fcc 3D       		.uleb128 0x3d
 16619 4fcd 01       		.uleb128 0x1
 16620 4fce 51       		.byte	0x51
 16621 4fcf 02       		.uleb128 0x2
 16622 4fd0 08       		.byte	0x8
 16623 4fd1 25       		.byte	0x25
 16624 4fd2 00       		.byte	0
 16625 4fd3 3A       		.uleb128 0x3a
 16626 4fd4 DE160000 		.4byte	.LVL266
 16627 4fd8 306E0000 		.4byte	0x6e30
 16628 4fdc 3C       		.uleb128 0x3c
 16629 4fdd EA160000 		.4byte	.LVL267
 16630 4fe1 256E0000 		.4byte	0x6e25
 16631 4fe5 F94F0000 		.4byte	0x4ff9
 16632 4fe9 3D       		.uleb128 0x3d
 16633 4fea 01       		.uleb128 0x1
 16634 4feb 50       		.byte	0x50
 16635 4fec 05       		.uleb128 0x5
 16636 4fed 03       		.byte	0x3
 16637 4fee EC010000 		.4byte	.LC21
 16638 4ff2 3D       		.uleb128 0x3d
 16639 4ff3 01       		.uleb128 0x1
 16640 4ff4 51       		.byte	0x51
 16641 4ff5 02       		.uleb128 0x2
 16642 4ff6 08       		.byte	0x8
 16643 4ff7 2E       		.byte	0x2e
 16644 4ff8 00       		.byte	0
 16645 4ff9 3A       		.uleb128 0x3a
 16646 4ffa EE160000 		.4byte	.LVL268
 16647 4ffe 306E0000 		.4byte	0x6e30
 16648 5002 3C       		.uleb128 0x3c
 16649 5003 FA160000 		.4byte	.LVL269
 16650 5007 256E0000 		.4byte	0x6e25
 16651 500b 1F500000 		.4byte	0x501f
 16652 500f 3D       		.uleb128 0x3d
 16653 5010 01       		.uleb128 0x1
 16654 5011 50       		.byte	0x50
 16655 5012 05       		.uleb128 0x5
 16656 5013 03       		.byte	0x3
 16657 5014 1C020000 		.4byte	.LC22
 16658 5018 3D       		.uleb128 0x3d
 16659 5019 01       		.uleb128 0x1
 16660 501a 51       		.byte	0x51
 16661 501b 02       		.uleb128 0x2
 16662 501c 08       		.byte	0x8
 16663 501d 2E       		.byte	0x2e
ARM GAS  /var/folders/d2/nstgp4h54kz7g1l847x_b8wc0000gn/T//ccB20FE7.s 			page 299


 16664 501e 00       		.byte	0
 16665 501f 3A       		.uleb128 0x3a
 16666 5020 FE160000 		.4byte	.LVL270
 16667 5024 306E0000 		.4byte	0x6e30
 16668 5028 3C       		.uleb128 0x3c
 16669 5029 0A170000 		.4byte	.LVL271
 16670 502d 256E0000 		.4byte	0x6e25
 16671 5031 45500000 		.4byte	0x5045
 16672 5035 3D       		.uleb128 0x3d
 16673 5036 01       		.uleb128 0x1
 16674 5037 50       		.byte	0x50
 16675 5038 05       		.uleb128 0x5
 16676 5039 03       		.byte	0x3
 16677 503a 4C020000 		.4byte	.LC23
 16678 503e 3D       		.uleb128 0x3d
 16679 503f 01       		.uleb128 0x1
 16680 5040 51       		.byte	0x51
 16681 5041 02       		.uleb128 0x2
 16682 5042 08       		.byte	0x8
 16683 5043 32       		.byte	0x32
 16684 5044 00       		.byte	0
 16685 5045 3A       		.uleb128 0x3a
 16686 5046 0E170000 		.4byte	.LVL272
 16687 504a 306E0000 		.4byte	0x6e30
 16688 504e 3C       		.uleb128 0x3c
 16689 504f 1A170000 		.4byte	.LVL273
 16690 5053 256E0000 		.4byte	0x6e25
 16691 5057 6A500000 		.4byte	0x506a
 16692 505b 3D       		.uleb128 0x3d
 16693 505c 01       		.uleb128 0x1
 16694 505d 50       		.byte	0x50
 16695 505e 05       		.uleb128 0x5
 16696 505f 03       		.byte	0x3
 16697 5060 80020000 		.4byte	.LC24
 16698 5064 3D       		.uleb128 0x3d
 16699 5065 01       		.uleb128 0x1
 16700 5066 51       		.byte	0x51
 16701 5067 01       		.uleb128 0x1
 16702 5068 4F       		.byte	0x4f
 16703 5069 00       		.byte	0
 16704 506a 3A       		.uleb128 0x3a
 16705 506b 1E170000 		.4byte	.LVL274
 16706 506f 306E0000 		.4byte	0x6e30
 16707 5073 3A       		.uleb128 0x3a
 16708 5074 26170000 		.4byte	.LVL275
 16709 5078 016F0000 		.4byte	0x6f01
 16710 507c 3C       		.uleb128 0x3c
 16711 507d 34170000 		.4byte	.LVL276
 16712 5081 256E0000 		.4byte	0x6e25
 16713 5085 98500000 		.4byte	0x5098
 16714 5089 3D       		.uleb128 0x3d
 16715 508a 01       		.uleb128 0x1
 16716 508b 50       		.byte	0x50
 16717 508c 05       		.uleb128 0x5
 16718 508d 03       		.byte	0x3
 16719 508e BC020000 		.4byte	.LC26
 16720 5092 3D       		.uleb128 0x3d
ARM GAS  /var/folders/d2/nstgp4h54kz7g1l847x_b8wc0000gn/T//ccB20FE7.s 			page 300


 16721 5093 01       		.uleb128 0x1
 16722 5094 51       		.byte	0x51
 16723 5095 01       		.uleb128 0x1
 16724 5096 48       		.byte	0x48
 16725 5097 00       		.byte	0
 16726 5098 3A       		.uleb128 0x3a
 16727 5099 38170000 		.4byte	.LVL277
 16728 509d 306E0000 		.4byte	0x6e30
 16729 50a1 3C       		.uleb128 0x3c
 16730 50a2 44170000 		.4byte	.LVL278
 16731 50a6 256E0000 		.4byte	0x6e25
 16732 50aa BE500000 		.4byte	0x50be
 16733 50ae 3D       		.uleb128 0x3d
 16734 50af 01       		.uleb128 0x1
 16735 50b0 50       		.byte	0x50
 16736 50b1 05       		.uleb128 0x5
 16737 50b2 03       		.byte	0x3
 16738 50b3 D8020000 		.4byte	.LC27
 16739 50b7 3D       		.uleb128 0x3d
 16740 50b8 01       		.uleb128 0x1
 16741 50b9 51       		.byte	0x51
 16742 50ba 02       		.uleb128 0x2
 16743 50bb 08       		.byte	0x8
 16744 50bc 28       		.byte	0x28
 16745 50bd 00       		.byte	0
 16746 50be 3A       		.uleb128 0x3a
 16747 50bf 48170000 		.4byte	.LVL279
 16748 50c3 306E0000 		.4byte	0x6e30
 16749 50c7 3C       		.uleb128 0x3c
 16750 50c8 54170000 		.4byte	.LVL280
 16751 50cc 256E0000 		.4byte	0x6e25
 16752 50d0 E4500000 		.4byte	0x50e4
 16753 50d4 3D       		.uleb128 0x3d
 16754 50d5 01       		.uleb128 0x1
 16755 50d6 50       		.byte	0x50
 16756 50d7 05       		.uleb128 0x5
 16757 50d8 03       		.byte	0x3
 16758 50d9 04030000 		.4byte	.LC28
 16759 50dd 3D       		.uleb128 0x3d
 16760 50de 01       		.uleb128 0x1
 16761 50df 51       		.byte	0x51
 16762 50e0 02       		.uleb128 0x2
 16763 50e1 08       		.byte	0x8
 16764 50e2 4F       		.byte	0x4f
 16765 50e3 00       		.byte	0
 16766 50e4 3A       		.uleb128 0x3a
 16767 50e5 58170000 		.4byte	.LVL281
 16768 50e9 306E0000 		.4byte	0x6e30
 16769 50ed 3C       		.uleb128 0x3c
 16770 50ee 64170000 		.4byte	.LVL282
 16771 50f2 256E0000 		.4byte	0x6e25
 16772 50f6 0A510000 		.4byte	0x510a
 16773 50fa 3D       		.uleb128 0x3d
 16774 50fb 01       		.uleb128 0x1
 16775 50fc 50       		.byte	0x50
 16776 50fd 05       		.uleb128 0x5
 16777 50fe 03       		.byte	0x3
ARM GAS  /var/folders/d2/nstgp4h54kz7g1l847x_b8wc0000gn/T//ccB20FE7.s 			page 301


 16778 50ff 54030000 		.4byte	.LC29
 16779 5103 3D       		.uleb128 0x3d
 16780 5104 01       		.uleb128 0x1
 16781 5105 51       		.byte	0x51
 16782 5106 02       		.uleb128 0x2
 16783 5107 08       		.byte	0x8
 16784 5108 2F       		.byte	0x2f
 16785 5109 00       		.byte	0
 16786 510a 3A       		.uleb128 0x3a
 16787 510b 68170000 		.4byte	.LVL283
 16788 510f 306E0000 		.4byte	0x6e30
 16789 5113 3C       		.uleb128 0x3c
 16790 5114 74170000 		.4byte	.LVL284
 16791 5118 256E0000 		.4byte	0x6e25
 16792 511c 30510000 		.4byte	0x5130
 16793 5120 3D       		.uleb128 0x3d
 16794 5121 01       		.uleb128 0x1
 16795 5122 50       		.byte	0x50
 16796 5123 05       		.uleb128 0x5
 16797 5124 03       		.byte	0x3
 16798 5125 84030000 		.4byte	.LC30
 16799 5129 3D       		.uleb128 0x3d
 16800 512a 01       		.uleb128 0x1
 16801 512b 51       		.byte	0x51
 16802 512c 02       		.uleb128 0x2
 16803 512d 08       		.byte	0x8
 16804 512e 33       		.byte	0x33
 16805 512f 00       		.byte	0
 16806 5130 3A       		.uleb128 0x3a
 16807 5131 78170000 		.4byte	.LVL285
 16808 5135 306E0000 		.4byte	0x6e30
 16809 5139 3C       		.uleb128 0x3c
 16810 513a 84170000 		.4byte	.LVL286
 16811 513e 256E0000 		.4byte	0x6e25
 16812 5142 56510000 		.4byte	0x5156
 16813 5146 3D       		.uleb128 0x3d
 16814 5147 01       		.uleb128 0x1
 16815 5148 50       		.byte	0x50
 16816 5149 05       		.uleb128 0x5
 16817 514a 03       		.byte	0x3
 16818 514b B8030000 		.4byte	.LC31
 16819 514f 3D       		.uleb128 0x3d
 16820 5150 01       		.uleb128 0x1
 16821 5151 51       		.byte	0x51
 16822 5152 02       		.uleb128 0x2
 16823 5153 08       		.byte	0x8
 16824 5154 21       		.byte	0x21
 16825 5155 00       		.byte	0
 16826 5156 3A       		.uleb128 0x3a
 16827 5157 88170000 		.4byte	.LVL287
 16828 515b 306E0000 		.4byte	0x6e30
 16829 515f 3C       		.uleb128 0x3c
 16830 5160 94170000 		.4byte	.LVL288
 16831 5164 256E0000 		.4byte	0x6e25
 16832 5168 7B510000 		.4byte	0x517b
 16833 516c 3D       		.uleb128 0x3d
 16834 516d 01       		.uleb128 0x1
ARM GAS  /var/folders/d2/nstgp4h54kz7g1l847x_b8wc0000gn/T//ccB20FE7.s 			page 302


 16835 516e 50       		.byte	0x50
 16836 516f 05       		.uleb128 0x5
 16837 5170 03       		.byte	0x3
 16838 5171 DC030000 		.4byte	.LC32
 16839 5175 3D       		.uleb128 0x3d
 16840 5176 01       		.uleb128 0x1
 16841 5177 51       		.byte	0x51
 16842 5178 01       		.uleb128 0x1
 16843 5179 4D       		.byte	0x4d
 16844 517a 00       		.byte	0
 16845 517b 3A       		.uleb128 0x3a
 16846 517c 98170000 		.4byte	.LVL289
 16847 5180 306E0000 		.4byte	0x6e30
 16848 5184 3C       		.uleb128 0x3c
 16849 5185 A4170000 		.4byte	.LVL290
 16850 5189 256E0000 		.4byte	0x6e25
 16851 518d A1510000 		.4byte	0x51a1
 16852 5191 3D       		.uleb128 0x3d
 16853 5192 01       		.uleb128 0x1
 16854 5193 50       		.byte	0x50
 16855 5194 05       		.uleb128 0x5
 16856 5195 03       		.byte	0x3
 16857 5196 FC030000 		.4byte	.LC33
 16858 519a 3D       		.uleb128 0x3d
 16859 519b 01       		.uleb128 0x1
 16860 519c 51       		.byte	0x51
 16861 519d 02       		.uleb128 0x2
 16862 519e 08       		.byte	0x8
 16863 519f 21       		.byte	0x21
 16864 51a0 00       		.byte	0
 16865 51a1 3A       		.uleb128 0x3a
 16866 51a2 A8170000 		.4byte	.LVL291
 16867 51a6 306E0000 		.4byte	0x6e30
 16868 51aa 3C       		.uleb128 0x3c
 16869 51ab B4170000 		.4byte	.LVL292
 16870 51af 256E0000 		.4byte	0x6e25
 16871 51b3 C7510000 		.4byte	0x51c7
 16872 51b7 3D       		.uleb128 0x3d
 16873 51b8 01       		.uleb128 0x1
 16874 51b9 50       		.byte	0x50
 16875 51ba 05       		.uleb128 0x5
 16876 51bb 03       		.byte	0x3
 16877 51bc 20040000 		.4byte	.LC34
 16878 51c0 3D       		.uleb128 0x3d
 16879 51c1 01       		.uleb128 0x1
 16880 51c2 51       		.byte	0x51
 16881 51c3 02       		.uleb128 0x2
 16882 51c4 08       		.byte	0x8
 16883 51c5 31       		.byte	0x31
 16884 51c6 00       		.byte	0
 16885 51c7 3A       		.uleb128 0x3a
 16886 51c8 B8170000 		.4byte	.LVL293
 16887 51cc 306E0000 		.4byte	0x6e30
 16888 51d0 3C       		.uleb128 0x3c
 16889 51d1 C4170000 		.4byte	.LVL294
 16890 51d5 256E0000 		.4byte	0x6e25
 16891 51d9 ED510000 		.4byte	0x51ed
ARM GAS  /var/folders/d2/nstgp4h54kz7g1l847x_b8wc0000gn/T//ccB20FE7.s 			page 303


 16892 51dd 3D       		.uleb128 0x3d
 16893 51de 01       		.uleb128 0x1
 16894 51df 50       		.byte	0x50
 16895 51e0 05       		.uleb128 0x5
 16896 51e1 03       		.byte	0x3
 16897 51e2 54040000 		.4byte	.LC35
 16898 51e6 3D       		.uleb128 0x3d
 16899 51e7 01       		.uleb128 0x1
 16900 51e8 51       		.byte	0x51
 16901 51e9 02       		.uleb128 0x2
 16902 51ea 08       		.byte	0x8
 16903 51eb 31       		.byte	0x31
 16904 51ec 00       		.byte	0
 16905 51ed 3A       		.uleb128 0x3a
 16906 51ee C8170000 		.4byte	.LVL295
 16907 51f2 306E0000 		.4byte	0x6e30
 16908 51f6 3C       		.uleb128 0x3c
 16909 51f7 D4170000 		.4byte	.LVL296
 16910 51fb 256E0000 		.4byte	0x6e25
 16911 51ff 13520000 		.4byte	0x5213
 16912 5203 3D       		.uleb128 0x3d
 16913 5204 01       		.uleb128 0x1
 16914 5205 50       		.byte	0x50
 16915 5206 05       		.uleb128 0x5
 16916 5207 03       		.byte	0x3
 16917 5208 88040000 		.4byte	.LC36
 16918 520c 3D       		.uleb128 0x3d
 16919 520d 01       		.uleb128 0x1
 16920 520e 51       		.byte	0x51
 16921 520f 02       		.uleb128 0x2
 16922 5210 08       		.byte	0x8
 16923 5211 20       		.byte	0x20
 16924 5212 00       		.byte	0
 16925 5213 3A       		.uleb128 0x3a
 16926 5214 D8170000 		.4byte	.LVL297
 16927 5218 306E0000 		.4byte	0x6e30
 16928 521c 3C       		.uleb128 0x3c
 16929 521d E4170000 		.4byte	.LVL298
 16930 5221 256E0000 		.4byte	0x6e25
 16931 5225 39520000 		.4byte	0x5239
 16932 5229 3D       		.uleb128 0x3d
 16933 522a 01       		.uleb128 0x1
 16934 522b 50       		.byte	0x50
 16935 522c 05       		.uleb128 0x5
 16936 522d 03       		.byte	0x3
 16937 522e AC040000 		.4byte	.LC37
 16938 5232 3D       		.uleb128 0x3d
 16939 5233 01       		.uleb128 0x1
 16940 5234 51       		.byte	0x51
 16941 5235 02       		.uleb128 0x2
 16942 5236 08       		.byte	0x8
 16943 5237 31       		.byte	0x31
 16944 5238 00       		.byte	0
 16945 5239 3A       		.uleb128 0x3a
 16946 523a E8170000 		.4byte	.LVL299
 16947 523e 306E0000 		.4byte	0x6e30
 16948 5242 3C       		.uleb128 0x3c
ARM GAS  /var/folders/d2/nstgp4h54kz7g1l847x_b8wc0000gn/T//ccB20FE7.s 			page 304


 16949 5243 F4170000 		.4byte	.LVL300
 16950 5247 256E0000 		.4byte	0x6e25
 16951 524b 5F520000 		.4byte	0x525f
 16952 524f 3D       		.uleb128 0x3d
 16953 5250 01       		.uleb128 0x1
 16954 5251 50       		.byte	0x50
 16955 5252 05       		.uleb128 0x5
 16956 5253 03       		.byte	0x3
 16957 5254 E0040000 		.4byte	.LC38
 16958 5258 3D       		.uleb128 0x3d
 16959 5259 01       		.uleb128 0x1
 16960 525a 51       		.byte	0x51
 16961 525b 02       		.uleb128 0x2
 16962 525c 08       		.byte	0x8
 16963 525d 32       		.byte	0x32
 16964 525e 00       		.byte	0
 16965 525f 3A       		.uleb128 0x3a
 16966 5260 F8170000 		.4byte	.LVL301
 16967 5264 306E0000 		.4byte	0x6e30
 16968 5268 3A       		.uleb128 0x3a
 16969 5269 00180000 		.4byte	.LVL302
 16970 526d 016F0000 		.4byte	0x6f01
 16971 5271 3C       		.uleb128 0x3c
 16972 5272 0E180000 		.4byte	.LVL303
 16973 5276 256E0000 		.4byte	0x6e25
 16974 527a 8E520000 		.4byte	0x528e
 16975 527e 3D       		.uleb128 0x3d
 16976 527f 01       		.uleb128 0x1
 16977 5280 50       		.byte	0x50
 16978 5281 05       		.uleb128 0x5
 16979 5282 03       		.byte	0x3
 16980 5283 34050000 		.4byte	.LC40
 16981 5287 3D       		.uleb128 0x3d
 16982 5288 01       		.uleb128 0x1
 16983 5289 51       		.byte	0x51
 16984 528a 02       		.uleb128 0x2
 16985 528b 08       		.byte	0x8
 16986 528c 2C       		.byte	0x2c
 16987 528d 00       		.byte	0
 16988 528e 3A       		.uleb128 0x3a
 16989 528f 12180000 		.4byte	.LVL304
 16990 5293 306E0000 		.4byte	0x6e30
 16991 5297 3C       		.uleb128 0x3c
 16992 5298 1E180000 		.4byte	.LVL305
 16993 529c 256E0000 		.4byte	0x6e25
 16994 52a0 B4520000 		.4byte	0x52b4
 16995 52a4 3D       		.uleb128 0x3d
 16996 52a5 01       		.uleb128 0x1
 16997 52a6 50       		.byte	0x50
 16998 52a7 05       		.uleb128 0x5
 16999 52a8 03       		.byte	0x3
 17000 52a9 64050000 		.4byte	.LC41
 17001 52ad 3D       		.uleb128 0x3d
 17002 52ae 01       		.uleb128 0x1
 17003 52af 51       		.byte	0x51
 17004 52b0 02       		.uleb128 0x2
 17005 52b1 08       		.byte	0x8
ARM GAS  /var/folders/d2/nstgp4h54kz7g1l847x_b8wc0000gn/T//ccB20FE7.s 			page 305


 17006 52b2 25       		.byte	0x25
 17007 52b3 00       		.byte	0
 17008 52b4 3A       		.uleb128 0x3a
 17009 52b5 22180000 		.4byte	.LVL306
 17010 52b9 306E0000 		.4byte	0x6e30
 17011 52bd 3C       		.uleb128 0x3c
 17012 52be 2E180000 		.4byte	.LVL307
 17013 52c2 256E0000 		.4byte	0x6e25
 17014 52c6 DA520000 		.4byte	0x52da
 17015 52ca 3D       		.uleb128 0x3d
 17016 52cb 01       		.uleb128 0x1
 17017 52cc 50       		.byte	0x50
 17018 52cd 05       		.uleb128 0x5
 17019 52ce 03       		.byte	0x3
 17020 52cf 8C050000 		.4byte	.LC42
 17021 52d3 3D       		.uleb128 0x3d
 17022 52d4 01       		.uleb128 0x1
 17023 52d5 51       		.byte	0x51
 17024 52d6 02       		.uleb128 0x2
 17025 52d7 08       		.byte	0x8
 17026 52d8 2B       		.byte	0x2b
 17027 52d9 00       		.byte	0
 17028 52da 3A       		.uleb128 0x3a
 17029 52db 32180000 		.4byte	.LVL308
 17030 52df 306E0000 		.4byte	0x6e30
 17031 52e3 3C       		.uleb128 0x3c
 17032 52e4 3E180000 		.4byte	.LVL309
 17033 52e8 256E0000 		.4byte	0x6e25
 17034 52ec 00530000 		.4byte	0x5300
 17035 52f0 3D       		.uleb128 0x3d
 17036 52f1 01       		.uleb128 0x1
 17037 52f2 50       		.byte	0x50
 17038 52f3 05       		.uleb128 0x5
 17039 52f4 03       		.byte	0x3
 17040 52f5 B8050000 		.4byte	.LC43
 17041 52f9 3D       		.uleb128 0x3d
 17042 52fa 01       		.uleb128 0x1
 17043 52fb 51       		.byte	0x51
 17044 52fc 02       		.uleb128 0x2
 17045 52fd 08       		.byte	0x8
 17046 52fe 2A       		.byte	0x2a
 17047 52ff 00       		.byte	0
 17048 5300 3A       		.uleb128 0x3a
 17049 5301 42180000 		.4byte	.LVL310
 17050 5305 306E0000 		.4byte	0x6e30
 17051 5309 3A       		.uleb128 0x3a
 17052 530a 4E180000 		.4byte	.LVL311
 17053 530e 0C6F0000 		.4byte	0x6f0c
 17054 5312 3A       		.uleb128 0x3a
 17055 5313 54180000 		.4byte	.LVL312
 17056 5317 176F0000 		.4byte	0x6f17
 17057 531b 3A       		.uleb128 0x3a
 17058 531c 5A180000 		.4byte	.LVL313
 17059 5320 226F0000 		.4byte	0x6f22
 17060 5324 3C       		.uleb128 0x3c
 17061 5325 68180000 		.4byte	.LVL314
 17062 5329 0F6E0000 		.4byte	0x6e0f
ARM GAS  /var/folders/d2/nstgp4h54kz7g1l847x_b8wc0000gn/T//ccB20FE7.s 			page 306


 17063 532d 4D530000 		.4byte	0x534d
 17064 5331 3D       		.uleb128 0x3d
 17065 5332 01       		.uleb128 0x1
 17066 5333 50       		.byte	0x50
 17067 5334 02       		.uleb128 0x2
 17068 5335 77       		.byte	0x77
 17069 5336 00       		.sleb128 0
 17070 5337 3D       		.uleb128 0x3d
 17071 5338 01       		.uleb128 0x1
 17072 5339 51       		.byte	0x51
 17073 533a 05       		.uleb128 0x5
 17074 533b 03       		.byte	0x3
 17075 533c C4000000 		.4byte	.LC12
 17076 5340 3D       		.uleb128 0x3d
 17077 5341 01       		.uleb128 0x1
 17078 5342 52       		.byte	0x52
 17079 5343 02       		.uleb128 0x2
 17080 5344 74       		.byte	0x74
 17081 5345 00       		.sleb128 0
 17082 5346 3D       		.uleb128 0x3d
 17083 5347 01       		.uleb128 0x1
 17084 5348 53       		.byte	0x53
 17085 5349 02       		.uleb128 0x2
 17086 534a 75       		.byte	0x75
 17087 534b 00       		.sleb128 0
 17088 534c 00       		.byte	0
 17089 534d 3C       		.uleb128 0x3c
 17090 534e 86180000 		.4byte	.LVL316
 17091 5352 256E0000 		.4byte	0x6e25
 17092 5356 61530000 		.4byte	0x5361
 17093 535a 3D       		.uleb128 0x3d
 17094 535b 01       		.uleb128 0x1
 17095 535c 50       		.byte	0x50
 17096 535d 02       		.uleb128 0x2
 17097 535e 77       		.byte	0x77
 17098 535f 00       		.sleb128 0
 17099 5360 00       		.byte	0
 17100 5361 3A       		.uleb128 0x3a
 17101 5362 8A180000 		.4byte	.LVL317
 17102 5366 306E0000 		.4byte	0x6e30
 17103 536a 3C       		.uleb128 0x3c
 17104 536b 9E180000 		.4byte	.LVL318
 17105 536f 676E0000 		.4byte	0x6e67
 17106 5373 99530000 		.4byte	0x5399
 17107 5377 3D       		.uleb128 0x3d
 17108 5378 01       		.uleb128 0x1
 17109 5379 50       		.byte	0x50
 17110 537a 02       		.uleb128 0x2
 17111 537b 77       		.byte	0x77
 17112 537c 00       		.sleb128 0
 17113 537d 3D       		.uleb128 0x3d
 17114 537e 01       		.uleb128 0x1
 17115 537f 51       		.byte	0x51
 17116 5380 05       		.uleb128 0x5
 17117 5381 03       		.byte	0x3
 17118 5382 9C000000 		.4byte	.LC7
 17119 5386 3D       		.uleb128 0x3d
ARM GAS  /var/folders/d2/nstgp4h54kz7g1l847x_b8wc0000gn/T//ccB20FE7.s 			page 307


 17120 5387 01       		.uleb128 0x1
 17121 5388 52       		.byte	0x52
 17122 5389 05       		.uleb128 0x5
 17123 538a 03       		.byte	0x3
 17124 538b 00000000 		.4byte	.LANCHOR7
 17125 538f 3D       		.uleb128 0x3d
 17126 5390 01       		.uleb128 0x1
 17127 5391 53       		.byte	0x53
 17128 5392 05       		.uleb128 0x5
 17129 5393 03       		.byte	0x3
 17130 5394 00000000 		.4byte	.LANCHOR6
 17131 5398 00       		.byte	0
 17132 5399 3A       		.uleb128 0x3a
 17133 539a A6180000 		.4byte	.LVL319
 17134 539e 936E0000 		.4byte	0x6e93
 17135 53a2 3A       		.uleb128 0x3a
 17136 53a3 AE180000 		.4byte	.LVL320
 17137 53a7 9E6E0000 		.4byte	0x6e9e
 17138 53ab 3C       		.uleb128 0x3c
 17139 53ac C6180000 		.4byte	.LVL321
 17140 53b0 256E0000 		.4byte	0x6e25
 17141 53b4 C7530000 		.4byte	0x53c7
 17142 53b8 3D       		.uleb128 0x3d
 17143 53b9 01       		.uleb128 0x1
 17144 53ba 50       		.byte	0x50
 17145 53bb 05       		.uleb128 0x5
 17146 53bc 03       		.byte	0x3
 17147 53bd A8000000 		.4byte	.LC8
 17148 53c1 3D       		.uleb128 0x3d
 17149 53c2 01       		.uleb128 0x1
 17150 53c3 51       		.byte	0x51
 17151 53c4 01       		.uleb128 0x1
 17152 53c5 33       		.byte	0x33
 17153 53c6 00       		.byte	0
 17154 53c7 3A       		.uleb128 0x3a
 17155 53c8 CA180000 		.4byte	.LVL322
 17156 53cc 306E0000 		.4byte	0x6e30
 17157 53d0 3C       		.uleb128 0x3c
 17158 53d1 E2180000 		.4byte	.LVL323
 17159 53d5 0F6E0000 		.4byte	0x6e0f
 17160 53d9 ED530000 		.4byte	0x53ed
 17161 53dd 3D       		.uleb128 0x3d
 17162 53de 01       		.uleb128 0x1
 17163 53df 50       		.byte	0x50
 17164 53e0 02       		.uleb128 0x2
 17165 53e1 77       		.byte	0x77
 17166 53e2 00       		.sleb128 0
 17167 53e3 3D       		.uleb128 0x3d
 17168 53e4 01       		.uleb128 0x1
 17169 53e5 51       		.byte	0x51
 17170 53e6 05       		.uleb128 0x5
 17171 53e7 03       		.byte	0x3
 17172 53e8 AC000000 		.4byte	.LC9
 17173 53ec 00       		.byte	0
 17174 53ed 3C       		.uleb128 0x3c
 17175 53ee 00190000 		.4byte	.LVL325
 17176 53f2 256E0000 		.4byte	0x6e25
ARM GAS  /var/folders/d2/nstgp4h54kz7g1l847x_b8wc0000gn/T//ccB20FE7.s 			page 308


 17177 53f6 01540000 		.4byte	0x5401
 17178 53fa 3D       		.uleb128 0x3d
 17179 53fb 01       		.uleb128 0x1
 17180 53fc 50       		.byte	0x50
 17181 53fd 02       		.uleb128 0x2
 17182 53fe 77       		.byte	0x77
 17183 53ff 00       		.sleb128 0
 17184 5400 00       		.byte	0
 17185 5401 3A       		.uleb128 0x3a
 17186 5402 04190000 		.4byte	.LVL326
 17187 5406 306E0000 		.4byte	0x6e30
 17188 540a 3C       		.uleb128 0x3c
 17189 540b 42190000 		.4byte	.LVL327
 17190 540f 0F6E0000 		.4byte	0x6e0f
 17191 5413 27540000 		.4byte	0x5427
 17192 5417 3D       		.uleb128 0x3d
 17193 5418 01       		.uleb128 0x1
 17194 5419 50       		.byte	0x50
 17195 541a 02       		.uleb128 0x2
 17196 541b 77       		.byte	0x77
 17197 541c 00       		.sleb128 0
 17198 541d 3D       		.uleb128 0x3d
 17199 541e 01       		.uleb128 0x1
 17200 541f 51       		.byte	0x51
 17201 5420 05       		.uleb128 0x5
 17202 5421 03       		.byte	0x3
 17203 5422 94000000 		.4byte	.LC6
 17204 5426 00       		.byte	0
 17205 5427 3C       		.uleb128 0x3c
 17206 5428 60190000 		.4byte	.LVL329
 17207 542c 256E0000 		.4byte	0x6e25
 17208 5430 3B540000 		.4byte	0x543b
 17209 5434 3D       		.uleb128 0x3d
 17210 5435 01       		.uleb128 0x1
 17211 5436 50       		.byte	0x50
 17212 5437 02       		.uleb128 0x2
 17213 5438 77       		.byte	0x77
 17214 5439 00       		.sleb128 0
 17215 543a 00       		.byte	0
 17216 543b 3A       		.uleb128 0x3a
 17217 543c 64190000 		.4byte	.LVL330
 17218 5440 306E0000 		.4byte	0x6e30
 17219 5444 3C       		.uleb128 0x3c
 17220 5445 0C1A0000 		.4byte	.LVL331
 17221 5449 676E0000 		.4byte	0x6e67
 17222 544d 73540000 		.4byte	0x5473
 17223 5451 3D       		.uleb128 0x3d
 17224 5452 01       		.uleb128 0x1
 17225 5453 50       		.byte	0x50
 17226 5454 02       		.uleb128 0x2
 17227 5455 77       		.byte	0x77
 17228 5456 00       		.sleb128 0
 17229 5457 3D       		.uleb128 0x3d
 17230 5458 01       		.uleb128 0x1
 17231 5459 51       		.byte	0x51
 17232 545a 05       		.uleb128 0x5
 17233 545b 03       		.byte	0x3
ARM GAS  /var/folders/d2/nstgp4h54kz7g1l847x_b8wc0000gn/T//ccB20FE7.s 			page 309


 17234 545c 880A0000 		.4byte	.LC79
 17235 5460 3D       		.uleb128 0x3d
 17236 5461 01       		.uleb128 0x1
 17237 5462 52       		.byte	0x52
 17238 5463 05       		.uleb128 0x5
 17239 5464 03       		.byte	0x3
 17240 5465 00000000 		.4byte	.LANCHOR22
 17241 5469 3D       		.uleb128 0x3d
 17242 546a 01       		.uleb128 0x1
 17243 546b 53       		.byte	0x53
 17244 546c 05       		.uleb128 0x5
 17245 546d 03       		.byte	0x3
 17246 546e 00000000 		.4byte	.LANCHOR23
 17247 5472 00       		.byte	0
 17248 5473 3A       		.uleb128 0x3a
 17249 5474 141A0000 		.4byte	.LVL332
 17250 5478 2D6F0000 		.4byte	0x6f2d
 17251 547c 3A       		.uleb128 0x3a
 17252 547d 1C1A0000 		.4byte	.LVL333
 17253 5481 386F0000 		.4byte	0x6f38
 17254 5485 3C       		.uleb128 0x3c
 17255 5486 341A0000 		.4byte	.LVL334
 17256 548a 256E0000 		.4byte	0x6e25
 17257 548e A1540000 		.4byte	0x54a1
 17258 5492 3D       		.uleb128 0x3d
 17259 5493 01       		.uleb128 0x1
 17260 5494 50       		.byte	0x50
 17261 5495 05       		.uleb128 0x5
 17262 5496 03       		.byte	0x3
 17263 5497 940A0000 		.4byte	.LC80
 17264 549b 3D       		.uleb128 0x3d
 17265 549c 01       		.uleb128 0x1
 17266 549d 51       		.byte	0x51
 17267 549e 01       		.uleb128 0x1
 17268 549f 33       		.byte	0x33
 17269 54a0 00       		.byte	0
 17270 54a1 3A       		.uleb128 0x3a
 17271 54a2 381A0000 		.4byte	.LVL335
 17272 54a6 306E0000 		.4byte	0x6e30
 17273 54aa 3C       		.uleb128 0x3c
 17274 54ab 6A1A0000 		.4byte	.LVL336
 17275 54af 0F6E0000 		.4byte	0x6e0f
 17276 54b3 CE540000 		.4byte	0x54ce
 17277 54b7 3D       		.uleb128 0x3d
 17278 54b8 01       		.uleb128 0x1
 17279 54b9 50       		.byte	0x50
 17280 54ba 02       		.uleb128 0x2
 17281 54bb 77       		.byte	0x77
 17282 54bc 00       		.sleb128 0
 17283 54bd 3D       		.uleb128 0x3d
 17284 54be 01       		.uleb128 0x1
 17285 54bf 51       		.byte	0x51
 17286 54c0 05       		.uleb128 0x5
 17287 54c1 03       		.byte	0x3
 17288 54c2 BC090000 		.4byte	.LC70
 17289 54c6 3D       		.uleb128 0x3d
 17290 54c7 02       		.uleb128 0x2
ARM GAS  /var/folders/d2/nstgp4h54kz7g1l847x_b8wc0000gn/T//ccB20FE7.s 			page 310


 17291 54c8 7D       		.byte	0x7d
 17292 54c9 00       		.sleb128 0
 17293 54ca 02       		.uleb128 0x2
 17294 54cb 74       		.byte	0x74
 17295 54cc 00       		.sleb128 0
 17296 54cd 00       		.byte	0
 17297 54ce 3C       		.uleb128 0x3c
 17298 54cf 781A0000 		.4byte	.LVL337
 17299 54d3 1A6E0000 		.4byte	0x6e1a
 17300 54d7 E2540000 		.4byte	0x54e2
 17301 54db 3D       		.uleb128 0x3d
 17302 54dc 01       		.uleb128 0x1
 17303 54dd 50       		.byte	0x50
 17304 54de 02       		.uleb128 0x2
 17305 54df 77       		.byte	0x77
 17306 54e0 00       		.sleb128 0
 17307 54e1 00       		.byte	0
 17308 54e2 3C       		.uleb128 0x3c
 17309 54e3 801A0000 		.4byte	.LVL338
 17310 54e7 256E0000 		.4byte	0x6e25
 17311 54eb F6540000 		.4byte	0x54f6
 17312 54ef 3D       		.uleb128 0x3d
 17313 54f0 01       		.uleb128 0x1
 17314 54f1 50       		.byte	0x50
 17315 54f2 02       		.uleb128 0x2
 17316 54f3 77       		.byte	0x77
 17317 54f4 00       		.sleb128 0
 17318 54f5 00       		.byte	0
 17319 54f6 3A       		.uleb128 0x3a
 17320 54f7 841A0000 		.4byte	.LVL339
 17321 54fb 306E0000 		.4byte	0x6e30
 17322 54ff 3C       		.uleb128 0x3c
 17323 5500 A41A0000 		.4byte	.LVL340
 17324 5504 256E0000 		.4byte	0x6e25
 17325 5508 1C550000 		.4byte	0x551c
 17326 550c 3D       		.uleb128 0x3d
 17327 550d 01       		.uleb128 0x1
 17328 550e 50       		.byte	0x50
 17329 550f 05       		.uleb128 0x5
 17330 5510 03       		.byte	0x3
 17331 5511 D40A0000 		.4byte	.LC88
 17332 5515 3D       		.uleb128 0x3d
 17333 5516 01       		.uleb128 0x1
 17334 5517 51       		.byte	0x51
 17335 5518 02       		.uleb128 0x2
 17336 5519 08       		.byte	0x8
 17337 551a 25       		.byte	0x25
 17338 551b 00       		.byte	0
 17339 551c 3A       		.uleb128 0x3a
 17340 551d A81A0000 		.4byte	.LVL341
 17341 5521 306E0000 		.4byte	0x6e30
 17342 5525 3C       		.uleb128 0x3c
 17343 5526 B81A0000 		.4byte	.LVL342
 17344 552a 0F6E0000 		.4byte	0x6e0f
 17345 552e 42550000 		.4byte	0x5542
 17346 5532 3D       		.uleb128 0x3d
 17347 5533 01       		.uleb128 0x1
ARM GAS  /var/folders/d2/nstgp4h54kz7g1l847x_b8wc0000gn/T//ccB20FE7.s 			page 311


 17348 5534 50       		.byte	0x50
 17349 5535 02       		.uleb128 0x2
 17350 5536 77       		.byte	0x77
 17351 5537 00       		.sleb128 0
 17352 5538 3D       		.uleb128 0x3d
 17353 5539 01       		.uleb128 0x1
 17354 553a 51       		.byte	0x51
 17355 553b 05       		.uleb128 0x5
 17356 553c 03       		.byte	0x3
 17357 553d 500B0000 		.4byte	.LC96
 17358 5541 00       		.byte	0
 17359 5542 3C       		.uleb128 0x3c
 17360 5543 BE1A0000 		.4byte	.LVL343
 17361 5547 1A6E0000 		.4byte	0x6e1a
 17362 554b 56550000 		.4byte	0x5556
 17363 554f 3D       		.uleb128 0x3d
 17364 5550 01       		.uleb128 0x1
 17365 5551 50       		.byte	0x50
 17366 5552 02       		.uleb128 0x2
 17367 5553 77       		.byte	0x77
 17368 5554 00       		.sleb128 0
 17369 5555 00       		.byte	0
 17370 5556 3C       		.uleb128 0x3c
 17371 5557 C61A0000 		.4byte	.LVL344
 17372 555b 256E0000 		.4byte	0x6e25
 17373 555f 6A550000 		.4byte	0x556a
 17374 5563 3D       		.uleb128 0x3d
 17375 5564 01       		.uleb128 0x1
 17376 5565 50       		.byte	0x50
 17377 5566 02       		.uleb128 0x2
 17378 5567 77       		.byte	0x77
 17379 5568 00       		.sleb128 0
 17380 5569 00       		.byte	0
 17381 556a 3A       		.uleb128 0x3a
 17382 556b CA1A0000 		.4byte	.LVL345
 17383 556f 306E0000 		.4byte	0x6e30
 17384 5573 3C       		.uleb128 0x3c
 17385 5574 DE1A0000 		.4byte	.LVL346
 17386 5578 676E0000 		.4byte	0x6e67
 17387 557c A2550000 		.4byte	0x55a2
 17388 5580 3D       		.uleb128 0x3d
 17389 5581 01       		.uleb128 0x1
 17390 5582 50       		.byte	0x50
 17391 5583 02       		.uleb128 0x2
 17392 5584 77       		.byte	0x77
 17393 5585 00       		.sleb128 0
 17394 5586 3D       		.uleb128 0x3d
 17395 5587 01       		.uleb128 0x1
 17396 5588 51       		.byte	0x51
 17397 5589 05       		.uleb128 0x5
 17398 558a 03       		.byte	0x3
 17399 558b 2C0A0000 		.4byte	.LC74
 17400 558f 3D       		.uleb128 0x3d
 17401 5590 01       		.uleb128 0x1
 17402 5591 52       		.byte	0x52
 17403 5592 05       		.uleb128 0x5
 17404 5593 03       		.byte	0x3
ARM GAS  /var/folders/d2/nstgp4h54kz7g1l847x_b8wc0000gn/T//ccB20FE7.s 			page 312


 17405 5594 00000000 		.4byte	.LANCHOR30
 17406 5598 3D       		.uleb128 0x3d
 17407 5599 01       		.uleb128 0x1
 17408 559a 53       		.byte	0x53
 17409 559b 05       		.uleb128 0x5
 17410 559c 03       		.byte	0x3
 17411 559d 00000000 		.4byte	.LANCHOR27
 17412 55a1 00       		.byte	0
 17413 55a2 3A       		.uleb128 0x3a
 17414 55a3 EA1A0000 		.4byte	.LVL347
 17415 55a7 A96E0000 		.4byte	0x6ea9
 17416 55ab 3C       		.uleb128 0x3c
 17417 55ac 021B0000 		.4byte	.LVL348
 17418 55b0 256E0000 		.4byte	0x6e25
 17419 55b4 C7550000 		.4byte	0x55c7
 17420 55b8 3D       		.uleb128 0x3d
 17421 55b9 01       		.uleb128 0x1
 17422 55ba 50       		.byte	0x50
 17423 55bb 05       		.uleb128 0x5
 17424 55bc 03       		.byte	0x3
 17425 55bd 380A0000 		.4byte	.LC75
 17426 55c1 3D       		.uleb128 0x3d
 17427 55c2 01       		.uleb128 0x1
 17428 55c3 51       		.byte	0x51
 17429 55c4 01       		.uleb128 0x1
 17430 55c5 33       		.byte	0x33
 17431 55c6 00       		.byte	0
 17432 55c7 3A       		.uleb128 0x3a
 17433 55c8 061B0000 		.4byte	.LVL349
 17434 55cc 306E0000 		.4byte	0x6e30
 17435 55d0 3C       		.uleb128 0x3c
 17436 55d1 1C1B0000 		.4byte	.LVL350
 17437 55d5 436F0000 		.4byte	0x6f43
 17438 55d9 E4550000 		.4byte	0x55e4
 17439 55dd 3D       		.uleb128 0x3d
 17440 55de 01       		.uleb128 0x1
 17441 55df 50       		.byte	0x50
 17442 55e0 02       		.uleb128 0x2
 17443 55e1 78       		.byte	0x78
 17444 55e2 00       		.sleb128 0
 17445 55e3 00       		.byte	0
 17446 55e4 3C       		.uleb128 0x3c
 17447 55e5 241B0000 		.4byte	.LVL351
 17448 55e9 436F0000 		.4byte	0x6f43
 17449 55ed F7550000 		.4byte	0x55f7
 17450 55f1 3D       		.uleb128 0x3d
 17451 55f2 01       		.uleb128 0x1
 17452 55f3 50       		.byte	0x50
 17453 55f4 01       		.uleb128 0x1
 17454 55f5 31       		.byte	0x31
 17455 55f6 00       		.byte	0
 17456 55f7 3C       		.uleb128 0x3c
 17457 55f8 2C1B0000 		.4byte	.LVL352
 17458 55fc 436F0000 		.4byte	0x6f43
 17459 5600 0A560000 		.4byte	0x560a
 17460 5604 3D       		.uleb128 0x3d
 17461 5605 01       		.uleb128 0x1
ARM GAS  /var/folders/d2/nstgp4h54kz7g1l847x_b8wc0000gn/T//ccB20FE7.s 			page 313


 17462 5606 50       		.byte	0x50
 17463 5607 01       		.uleb128 0x1
 17464 5608 32       		.byte	0x32
 17465 5609 00       		.byte	0
 17466 560a 3C       		.uleb128 0x3c
 17467 560b 341B0000 		.4byte	.LVL353
 17468 560f 436F0000 		.4byte	0x6f43
 17469 5613 1D560000 		.4byte	0x561d
 17470 5617 3D       		.uleb128 0x3d
 17471 5618 01       		.uleb128 0x1
 17472 5619 50       		.byte	0x50
 17473 561a 01       		.uleb128 0x1
 17474 561b 33       		.byte	0x33
 17475 561c 00       		.byte	0
 17476 561d 3C       		.uleb128 0x3c
 17477 561e 3C1B0000 		.4byte	.LVL354
 17478 5622 436F0000 		.4byte	0x6f43
 17479 5626 30560000 		.4byte	0x5630
 17480 562a 3D       		.uleb128 0x3d
 17481 562b 01       		.uleb128 0x1
 17482 562c 50       		.byte	0x50
 17483 562d 01       		.uleb128 0x1
 17484 562e 34       		.byte	0x34
 17485 562f 00       		.byte	0
 17486 5630 3C       		.uleb128 0x3c
 17487 5631 501B0000 		.4byte	.LVL355
 17488 5635 0F6E0000 		.4byte	0x6e0f
 17489 5639 69560000 		.4byte	0x5669
 17490 563d 3D       		.uleb128 0x3d
 17491 563e 01       		.uleb128 0x1
 17492 563f 50       		.byte	0x50
 17493 5640 02       		.uleb128 0x2
 17494 5641 77       		.byte	0x77
 17495 5642 00       		.sleb128 0
 17496 5643 3D       		.uleb128 0x3d
 17497 5644 01       		.uleb128 0x1
 17498 5645 51       		.byte	0x51
 17499 5646 05       		.uleb128 0x5
 17500 5647 03       		.byte	0x3
 17501 5648 3C0A0000 		.4byte	.LC76
 17502 564c 3D       		.uleb128 0x3d
 17503 564d 01       		.uleb128 0x1
 17504 564e 52       		.byte	0x52
 17505 564f 02       		.uleb128 0x2
 17506 5650 74       		.byte	0x74
 17507 5651 00       		.sleb128 0
 17508 5652 3D       		.uleb128 0x3d
 17509 5653 01       		.uleb128 0x1
 17510 5654 53       		.byte	0x53
 17511 5655 02       		.uleb128 0x2
 17512 5656 75       		.byte	0x75
 17513 5657 00       		.sleb128 0
 17514 5658 3D       		.uleb128 0x3d
 17515 5659 02       		.uleb128 0x2
 17516 565a 7D       		.byte	0x7d
 17517 565b 00       		.sleb128 0
 17518 565c 04       		.uleb128 0x4
ARM GAS  /var/folders/d2/nstgp4h54kz7g1l847x_b8wc0000gn/T//ccB20FE7.s 			page 314


 17519 565d 91       		.byte	0x91
 17520 565e 887F     		.sleb128 -120
 17521 5660 06       		.byte	0x6
 17522 5661 3D       		.uleb128 0x3d
 17523 5662 02       		.uleb128 0x2
 17524 5663 7D       		.byte	0x7d
 17525 5664 04       		.sleb128 4
 17526 5665 02       		.uleb128 0x2
 17527 5666 76       		.byte	0x76
 17528 5667 00       		.sleb128 0
 17529 5668 00       		.byte	0
 17530 5669 3C       		.uleb128 0x3c
 17531 566a 5E1B0000 		.4byte	.LVL356
 17532 566e 1A6E0000 		.4byte	0x6e1a
 17533 5672 7D560000 		.4byte	0x567d
 17534 5676 3D       		.uleb128 0x3d
 17535 5677 01       		.uleb128 0x1
 17536 5678 50       		.byte	0x50
 17537 5679 02       		.uleb128 0x2
 17538 567a 77       		.byte	0x77
 17539 567b 00       		.sleb128 0
 17540 567c 00       		.byte	0
 17541 567d 3C       		.uleb128 0x3c
 17542 567e 661B0000 		.4byte	.LVL357
 17543 5682 256E0000 		.4byte	0x6e25
 17544 5686 91560000 		.4byte	0x5691
 17545 568a 3D       		.uleb128 0x3d
 17546 568b 01       		.uleb128 0x1
 17547 568c 50       		.byte	0x50
 17548 568d 02       		.uleb128 0x2
 17549 568e 77       		.byte	0x77
 17550 568f 00       		.sleb128 0
 17551 5690 00       		.byte	0
 17552 5691 3A       		.uleb128 0x3a
 17553 5692 6A1B0000 		.4byte	.LVL358
 17554 5696 306E0000 		.4byte	0x6e30
 17555 569a 3A       		.uleb128 0x3a
 17556 569b 761B0000 		.4byte	.LVL359
 17557 569f 4E6F0000 		.4byte	0x6f4e
 17558 56a3 3A       		.uleb128 0x3a
 17559 56a4 7C1B0000 		.4byte	.LVL360
 17560 56a8 596F0000 		.4byte	0x6f59
 17561 56ac 3C       		.uleb128 0x3c
 17562 56ad 881B0000 		.4byte	.LVL361
 17563 56b1 0F6E0000 		.4byte	0x6e0f
 17564 56b5 CF560000 		.4byte	0x56cf
 17565 56b9 3D       		.uleb128 0x3d
 17566 56ba 01       		.uleb128 0x1
 17567 56bb 50       		.byte	0x50
 17568 56bc 02       		.uleb128 0x2
 17569 56bd 77       		.byte	0x77
 17570 56be 00       		.sleb128 0
 17571 56bf 3D       		.uleb128 0x3d
 17572 56c0 01       		.uleb128 0x1
 17573 56c1 51       		.byte	0x51
 17574 56c2 05       		.uleb128 0x5
 17575 56c3 03       		.byte	0x3
ARM GAS  /var/folders/d2/nstgp4h54kz7g1l847x_b8wc0000gn/T//ccB20FE7.s 			page 315


 17576 56c4 980A0000 		.4byte	.LC81
 17577 56c8 3D       		.uleb128 0x3d
 17578 56c9 01       		.uleb128 0x1
 17579 56ca 52       		.byte	0x52
 17580 56cb 02       		.uleb128 0x2
 17581 56cc 74       		.byte	0x74
 17582 56cd 00       		.sleb128 0
 17583 56ce 00       		.byte	0
 17584 56cf 3C       		.uleb128 0x3c
 17585 56d0 A61B0000 		.4byte	.LVL363
 17586 56d4 256E0000 		.4byte	0x6e25
 17587 56d8 E3560000 		.4byte	0x56e3
 17588 56dc 3D       		.uleb128 0x3d
 17589 56dd 01       		.uleb128 0x1
 17590 56de 50       		.byte	0x50
 17591 56df 02       		.uleb128 0x2
 17592 56e0 77       		.byte	0x77
 17593 56e1 00       		.sleb128 0
 17594 56e2 00       		.byte	0
 17595 56e3 3A       		.uleb128 0x3a
 17596 56e4 AA1B0000 		.4byte	.LVL364
 17597 56e8 306E0000 		.4byte	0x6e30
 17598 56ec 3C       		.uleb128 0x3c
 17599 56ed CA1B0000 		.4byte	.LVL365
 17600 56f1 256E0000 		.4byte	0x6e25
 17601 56f5 09570000 		.4byte	0x5709
 17602 56f9 3D       		.uleb128 0x3d
 17603 56fa 01       		.uleb128 0x1
 17604 56fb 50       		.byte	0x50
 17605 56fc 05       		.uleb128 0x5
 17606 56fd 03       		.byte	0x3
 17607 56fe EC090000 		.4byte	.LC73
 17608 5702 3D       		.uleb128 0x3d
 17609 5703 01       		.uleb128 0x1
 17610 5704 51       		.byte	0x51
 17611 5705 02       		.uleb128 0x2
 17612 5706 08       		.byte	0x8
 17613 5707 3E       		.byte	0x3e
 17614 5708 00       		.byte	0
 17615 5709 3A       		.uleb128 0x3a
 17616 570a CE1B0000 		.4byte	.LVL366
 17617 570e 306E0000 		.4byte	0x6e30
 17618 5712 3C       		.uleb128 0x3c
 17619 5713 DA1B0000 		.4byte	.LVL367
 17620 5717 A96E0000 		.4byte	0x6ea9
 17621 571b 2A570000 		.4byte	0x572a
 17622 571f 3D       		.uleb128 0x3d
 17623 5720 01       		.uleb128 0x1
 17624 5721 50       		.byte	0x50
 17625 5722 01       		.uleb128 0x1
 17626 5723 38       		.byte	0x38
 17627 5724 3D       		.uleb128 0x3d
 17628 5725 01       		.uleb128 0x1
 17629 5726 51       		.byte	0x51
 17630 5727 01       		.uleb128 0x1
 17631 5728 31       		.byte	0x31
 17632 5729 00       		.byte	0
ARM GAS  /var/folders/d2/nstgp4h54kz7g1l847x_b8wc0000gn/T//ccB20FE7.s 			page 316


 17633 572a 3C       		.uleb128 0x3c
 17634 572b E21B0000 		.4byte	.LVL368
 17635 572f 646F0000 		.4byte	0x6f64
 17636 5733 3F570000 		.4byte	0x573f
 17637 5737 3D       		.uleb128 0x3d
 17638 5738 01       		.uleb128 0x1
 17639 5739 50       		.byte	0x50
 17640 573a 03       		.uleb128 0x3
 17641 573b 0A       		.byte	0xa
 17642 573c 9001     		.2byte	0x190
 17643 573e 00       		.byte	0
 17644 573f 3A       		.uleb128 0x3a
 17645 5740 E61B0000 		.4byte	.LVL369
 17646 5744 6F6F0000 		.4byte	0x6f6f
 17647 5748 3C       		.uleb128 0x3c
 17648 5749 EC1B0000 		.4byte	.LVL370
 17649 574d 646F0000 		.4byte	0x6f64
 17650 5751 5C570000 		.4byte	0x575c
 17651 5755 3D       		.uleb128 0x3d
 17652 5756 01       		.uleb128 0x1
 17653 5757 50       		.byte	0x50
 17654 5758 02       		.uleb128 0x2
 17655 5759 08       		.byte	0x8
 17656 575a 64       		.byte	0x64
 17657 575b 00       		.byte	0
 17658 575c 3A       		.uleb128 0x3a
 17659 575d F01B0000 		.4byte	.LVL371
 17660 5761 7A6F0000 		.4byte	0x6f7a
 17661 5765 3C       		.uleb128 0x3c
 17662 5766 F81B0000 		.4byte	.LVL372
 17663 576a 256E0000 		.4byte	0x6e25
 17664 576e 81570000 		.4byte	0x5781
 17665 5772 3D       		.uleb128 0x3d
 17666 5773 01       		.uleb128 0x1
 17667 5774 50       		.byte	0x50
 17668 5775 05       		.uleb128 0x5
 17669 5776 03       		.byte	0x3
 17670 5777 640B0000 		.4byte	.LC97
 17671 577b 3D       		.uleb128 0x3d
 17672 577c 01       		.uleb128 0x1
 17673 577d 51       		.byte	0x51
 17674 577e 01       		.uleb128 0x1
 17675 577f 49       		.byte	0x49
 17676 5780 00       		.byte	0
 17677 5781 3A       		.uleb128 0x3a
 17678 5782 FC1B0000 		.4byte	.LVL373
 17679 5786 306E0000 		.4byte	0x6e30
 17680 578a 3C       		.uleb128 0x3c
 17681 578b 0A1C0000 		.4byte	.LVL375
 17682 578f 856F0000 		.4byte	0x6f85
 17683 5793 9D570000 		.4byte	0x579d
 17684 5797 3D       		.uleb128 0x3d
 17685 5798 01       		.uleb128 0x1
 17686 5799 50       		.byte	0x50
 17687 579a 01       		.uleb128 0x1
 17688 579b 30       		.byte	0x30
 17689 579c 00       		.byte	0
ARM GAS  /var/folders/d2/nstgp4h54kz7g1l847x_b8wc0000gn/T//ccB20FE7.s 			page 317


 17690 579d 3C       		.uleb128 0x3c
 17691 579e 121C0000 		.4byte	.LVL376
 17692 57a2 856F0000 		.4byte	0x6f85
 17693 57a6 B0570000 		.4byte	0x57b0
 17694 57aa 3D       		.uleb128 0x3d
 17695 57ab 01       		.uleb128 0x1
 17696 57ac 50       		.byte	0x50
 17697 57ad 01       		.uleb128 0x1
 17698 57ae 31       		.byte	0x31
 17699 57af 00       		.byte	0
 17700 57b0 3C       		.uleb128 0x3c
 17701 57b1 1A1C0000 		.4byte	.LVL377
 17702 57b5 856F0000 		.4byte	0x6f85
 17703 57b9 C3570000 		.4byte	0x57c3
 17704 57bd 3D       		.uleb128 0x3d
 17705 57be 01       		.uleb128 0x1
 17706 57bf 50       		.byte	0x50
 17707 57c0 01       		.uleb128 0x1
 17708 57c1 32       		.byte	0x32
 17709 57c2 00       		.byte	0
 17710 57c3 3C       		.uleb128 0x3c
 17711 57c4 221C0000 		.4byte	.LVL378
 17712 57c8 856F0000 		.4byte	0x6f85
 17713 57cc D6570000 		.4byte	0x57d6
 17714 57d0 3D       		.uleb128 0x3d
 17715 57d1 01       		.uleb128 0x1
 17716 57d2 50       		.byte	0x50
 17717 57d3 01       		.uleb128 0x1
 17718 57d4 33       		.byte	0x33
 17719 57d5 00       		.byte	0
 17720 57d6 3C       		.uleb128 0x3c
 17721 57d7 2A1C0000 		.4byte	.LVL379
 17722 57db 856F0000 		.4byte	0x6f85
 17723 57df E9570000 		.4byte	0x57e9
 17724 57e3 3D       		.uleb128 0x3d
 17725 57e4 01       		.uleb128 0x1
 17726 57e5 50       		.byte	0x50
 17727 57e6 01       		.uleb128 0x1
 17728 57e7 34       		.byte	0x34
 17729 57e8 00       		.byte	0
 17730 57e9 3C       		.uleb128 0x3c
 17731 57ea 321C0000 		.4byte	.LVL380
 17732 57ee 856F0000 		.4byte	0x6f85
 17733 57f2 FC570000 		.4byte	0x57fc
 17734 57f6 3D       		.uleb128 0x3d
 17735 57f7 01       		.uleb128 0x1
 17736 57f8 50       		.byte	0x50
 17737 57f9 01       		.uleb128 0x1
 17738 57fa 35       		.byte	0x35
 17739 57fb 00       		.byte	0
 17740 57fc 3C       		.uleb128 0x3c
 17741 57fd 3A1C0000 		.4byte	.LVL381
 17742 5801 856F0000 		.4byte	0x6f85
 17743 5805 0F580000 		.4byte	0x580f
 17744 5809 3D       		.uleb128 0x3d
 17745 580a 01       		.uleb128 0x1
 17746 580b 50       		.byte	0x50
ARM GAS  /var/folders/d2/nstgp4h54kz7g1l847x_b8wc0000gn/T//ccB20FE7.s 			page 318


 17747 580c 01       		.uleb128 0x1
 17748 580d 36       		.byte	0x36
 17749 580e 00       		.byte	0
 17750 580f 3C       		.uleb128 0x3c
 17751 5810 421C0000 		.4byte	.LVL382
 17752 5814 856F0000 		.4byte	0x6f85
 17753 5818 22580000 		.4byte	0x5822
 17754 581c 3D       		.uleb128 0x3d
 17755 581d 01       		.uleb128 0x1
 17756 581e 50       		.byte	0x50
 17757 581f 01       		.uleb128 0x1
 17758 5820 37       		.byte	0x37
 17759 5821 00       		.byte	0
 17760 5822 3C       		.uleb128 0x3c
 17761 5823 601C0000 		.4byte	.LVL383
 17762 5827 0F6E0000 		.4byte	0x6e0f
 17763 582b 76580000 		.4byte	0x5876
 17764 582f 3D       		.uleb128 0x3d
 17765 5830 01       		.uleb128 0x1
 17766 5831 50       		.byte	0x50
 17767 5832 02       		.uleb128 0x2
 17768 5833 77       		.byte	0x77
 17769 5834 00       		.sleb128 0
 17770 5835 3D       		.uleb128 0x3d
 17771 5836 01       		.uleb128 0x1
 17772 5837 51       		.byte	0x51
 17773 5838 05       		.uleb128 0x5
 17774 5839 03       		.byte	0x3
 17775 583a 6C0A0000 		.4byte	.LC78
 17776 583e 3D       		.uleb128 0x3d
 17777 583f 01       		.uleb128 0x1
 17778 5840 52       		.byte	0x52
 17779 5841 04       		.uleb128 0x4
 17780 5842 91       		.byte	0x91
 17781 5843 947F     		.sleb128 -108
 17782 5845 06       		.byte	0x6
 17783 5846 3D       		.uleb128 0x3d
 17784 5847 01       		.uleb128 0x1
 17785 5848 53       		.byte	0x53
 17786 5849 02       		.uleb128 0x2
 17787 584a 74       		.byte	0x74
 17788 584b 00       		.sleb128 0
 17789 584c 3D       		.uleb128 0x3d
 17790 584d 02       		.uleb128 0x2
 17791 584e 7D       		.byte	0x7d
 17792 584f 00       		.sleb128 0
 17793 5850 04       		.uleb128 0x4
 17794 5851 91       		.byte	0x91
 17795 5852 887F     		.sleb128 -120
 17796 5854 06       		.byte	0x6
 17797 5855 3D       		.uleb128 0x3d
 17798 5856 02       		.uleb128 0x2
 17799 5857 7D       		.byte	0x7d
 17800 5858 04       		.sleb128 4
 17801 5859 02       		.uleb128 0x2
 17802 585a 75       		.byte	0x75
 17803 585b 00       		.sleb128 0
ARM GAS  /var/folders/d2/nstgp4h54kz7g1l847x_b8wc0000gn/T//ccB20FE7.s 			page 319


 17804 585c 3D       		.uleb128 0x3d
 17805 585d 02       		.uleb128 0x2
 17806 585e 7D       		.byte	0x7d
 17807 585f 08       		.sleb128 8
 17808 5860 02       		.uleb128 0x2
 17809 5861 76       		.byte	0x76
 17810 5862 00       		.sleb128 0
 17811 5863 3D       		.uleb128 0x3d
 17812 5864 02       		.uleb128 0x2
 17813 5865 7D       		.byte	0x7d
 17814 5866 0C       		.sleb128 12
 17815 5867 04       		.uleb128 0x4
 17816 5868 91       		.byte	0x91
 17817 5869 907F     		.sleb128 -112
 17818 586b 06       		.byte	0x6
 17819 586c 3D       		.uleb128 0x3d
 17820 586d 02       		.uleb128 0x2
 17821 586e 7D       		.byte	0x7d
 17822 586f 10       		.sleb128 16
 17823 5870 04       		.uleb128 0x4
 17824 5871 91       		.byte	0x91
 17825 5872 8C7F     		.sleb128 -116
 17826 5874 06       		.byte	0x6
 17827 5875 00       		.byte	0
 17828 5876 3C       		.uleb128 0x3c
 17829 5877 7E1C0000 		.4byte	.LVL385
 17830 587b 256E0000 		.4byte	0x6e25
 17831 587f 8A580000 		.4byte	0x588a
 17832 5883 3D       		.uleb128 0x3d
 17833 5884 01       		.uleb128 0x1
 17834 5885 50       		.byte	0x50
 17835 5886 02       		.uleb128 0x2
 17836 5887 77       		.byte	0x77
 17837 5888 00       		.sleb128 0
 17838 5889 00       		.byte	0
 17839 588a 3A       		.uleb128 0x3a
 17840 588b 821C0000 		.4byte	.LVL386
 17841 588f 306E0000 		.4byte	0x6e30
 17842 5893 3C       		.uleb128 0x3c
 17843 5894 961C0000 		.4byte	.LVL387
 17844 5898 906F0000 		.4byte	0x6f90
 17845 589c AF580000 		.4byte	0x58af
 17846 58a0 3D       		.uleb128 0x3d
 17847 58a1 01       		.uleb128 0x1
 17848 58a2 50       		.byte	0x50
 17849 58a3 03       		.uleb128 0x3
 17850 58a4 0A       		.byte	0xa
 17851 58a5 142B     		.2byte	0x2b14
 17852 58a7 3D       		.uleb128 0x3d
 17853 58a8 01       		.uleb128 0x1
 17854 58a9 51       		.byte	0x51
 17855 58aa 03       		.uleb128 0x3
 17856 58ab 0A       		.byte	0xa
 17857 58ac 501F     		.2byte	0x1f50
 17858 58ae 00       		.byte	0
 17859 58af 3C       		.uleb128 0x3c
 17860 58b0 AE1C0000 		.4byte	.LVL388
ARM GAS  /var/folders/d2/nstgp4h54kz7g1l847x_b8wc0000gn/T//ccB20FE7.s 			page 320


 17861 58b4 256E0000 		.4byte	0x6e25
 17862 58b8 CB580000 		.4byte	0x58cb
 17863 58bc 3D       		.uleb128 0x3d
 17864 58bd 01       		.uleb128 0x1
 17865 58be 50       		.byte	0x50
 17866 58bf 05       		.uleb128 0x5
 17867 58c0 03       		.byte	0x3
 17868 58c1 B00A0000 		.4byte	.LC84
 17869 58c5 3D       		.uleb128 0x3d
 17870 58c6 01       		.uleb128 0x1
 17871 58c7 51       		.byte	0x51
 17872 58c8 01       		.uleb128 0x1
 17873 58c9 33       		.byte	0x33
 17874 58ca 00       		.byte	0
 17875 58cb 3A       		.uleb128 0x3a
 17876 58cc B21C0000 		.4byte	.LVL389
 17877 58d0 306E0000 		.4byte	0x6e30
 17878 58d4 3C       		.uleb128 0x3c
 17879 58d5 C61C0000 		.4byte	.LVL390
 17880 58d9 906F0000 		.4byte	0x6f90
 17881 58dd F0580000 		.4byte	0x58f0
 17882 58e1 3D       		.uleb128 0x3d
 17883 58e2 01       		.uleb128 0x1
 17884 58e3 50       		.byte	0x50
 17885 58e4 03       		.uleb128 0x3
 17886 58e5 0A       		.byte	0xa
 17887 58e6 7E1C     		.2byte	0x1c7e
 17888 58e8 3D       		.uleb128 0x3d
 17889 58e9 01       		.uleb128 0x1
 17890 58ea 51       		.byte	0x51
 17891 58eb 03       		.uleb128 0x3
 17892 58ec 0A       		.byte	0xa
 17893 58ed 940E     		.2byte	0xe94
 17894 58ef 00       		.byte	0
 17895 58f0 3C       		.uleb128 0x3c
 17896 58f1 D21C0000 		.4byte	.LVL391
 17897 58f5 9B6F0000 		.4byte	0x6f9b
 17898 58f9 0D590000 		.4byte	0x590d
 17899 58fd 3D       		.uleb128 0x3d
 17900 58fe 01       		.uleb128 0x1
 17901 58ff 50       		.byte	0x50
 17902 5900 01       		.uleb128 0x1
 17903 5901 3B       		.byte	0x3b
 17904 5902 3D       		.uleb128 0x3d
 17905 5903 01       		.uleb128 0x1
 17906 5904 51       		.byte	0x51
 17907 5905 01       		.uleb128 0x1
 17908 5906 32       		.byte	0x32
 17909 5907 3D       		.uleb128 0x3d
 17910 5908 01       		.uleb128 0x1
 17911 5909 52       		.byte	0x52
 17912 590a 01       		.uleb128 0x1
 17913 590b 30       		.byte	0x30
 17914 590c 00       		.byte	0
 17915 590d 3C       		.uleb128 0x3c
 17916 590e DE1C0000 		.4byte	.LVL392
 17917 5912 9B6F0000 		.4byte	0x6f9b
ARM GAS  /var/folders/d2/nstgp4h54kz7g1l847x_b8wc0000gn/T//ccB20FE7.s 			page 321


 17918 5916 2A590000 		.4byte	0x592a
 17919 591a 3D       		.uleb128 0x3d
 17920 591b 01       		.uleb128 0x1
 17921 591c 50       		.byte	0x50
 17922 591d 01       		.uleb128 0x1
 17923 591e 34       		.byte	0x34
 17924 591f 3D       		.uleb128 0x3d
 17925 5920 01       		.uleb128 0x1
 17926 5921 51       		.byte	0x51
 17927 5922 01       		.uleb128 0x1
 17928 5923 32       		.byte	0x32
 17929 5924 3D       		.uleb128 0x3d
 17930 5925 01       		.uleb128 0x1
 17931 5926 52       		.byte	0x52
 17932 5927 01       		.uleb128 0x1
 17933 5928 30       		.byte	0x30
 17934 5929 00       		.byte	0
 17935 592a 3C       		.uleb128 0x3c
 17936 592b EA1C0000 		.4byte	.LVL393
 17937 592f 9B6F0000 		.4byte	0x6f9b
 17938 5933 47590000 		.4byte	0x5947
 17939 5937 3D       		.uleb128 0x3d
 17940 5938 01       		.uleb128 0x1
 17941 5939 50       		.byte	0x50
 17942 593a 01       		.uleb128 0x1
 17943 593b 33       		.byte	0x33
 17944 593c 3D       		.uleb128 0x3d
 17945 593d 01       		.uleb128 0x1
 17946 593e 51       		.byte	0x51
 17947 593f 01       		.uleb128 0x1
 17948 5940 32       		.byte	0x32
 17949 5941 3D       		.uleb128 0x3d
 17950 5942 01       		.uleb128 0x1
 17951 5943 52       		.byte	0x52
 17952 5944 01       		.uleb128 0x1
 17953 5945 30       		.byte	0x30
 17954 5946 00       		.byte	0
 17955 5947 3C       		.uleb128 0x3c
 17956 5948 501D0000 		.4byte	.LVL394
 17957 594c 256E0000 		.4byte	0x6e25
 17958 5950 63590000 		.4byte	0x5963
 17959 5954 3D       		.uleb128 0x3d
 17960 5955 01       		.uleb128 0x1
 17961 5956 50       		.byte	0x50
 17962 5957 05       		.uleb128 0x5
 17963 5958 03       		.byte	0x3
 17964 5959 380B0000 		.4byte	.LC95
 17965 595d 3D       		.uleb128 0x3d
 17966 595e 01       		.uleb128 0x1
 17967 595f 51       		.byte	0x51
 17968 5960 01       		.uleb128 0x1
 17969 5961 45       		.byte	0x45
 17970 5962 00       		.byte	0
 17971 5963 3A       		.uleb128 0x3a
 17972 5964 541D0000 		.4byte	.LVL395
 17973 5968 306E0000 		.4byte	0x6e30
 17974 596c 3A       		.uleb128 0x3a
ARM GAS  /var/folders/d2/nstgp4h54kz7g1l847x_b8wc0000gn/T//ccB20FE7.s 			page 322


 17975 596d 761D0000 		.4byte	.LVL396
 17976 5971 A66F0000 		.4byte	0x6fa6
 17977 5975 3A       		.uleb128 0x3a
 17978 5976 7C1D0000 		.4byte	.LVL397
 17979 597a B16F0000 		.4byte	0x6fb1
 17980 597e 3C       		.uleb128 0x3c
 17981 597f 881D0000 		.4byte	.LVL398
 17982 5983 0F6E0000 		.4byte	0x6e0f
 17983 5987 A1590000 		.4byte	0x59a1
 17984 598b 3D       		.uleb128 0x3d
 17985 598c 01       		.uleb128 0x1
 17986 598d 50       		.byte	0x50
 17987 598e 02       		.uleb128 0x2
 17988 598f 77       		.byte	0x77
 17989 5990 00       		.sleb128 0
 17990 5991 3D       		.uleb128 0x3d
 17991 5992 01       		.uleb128 0x1
 17992 5993 51       		.byte	0x51
 17993 5994 05       		.uleb128 0x5
 17994 5995 03       		.byte	0x3
 17995 5996 78000000 		.4byte	.LC3
 17996 599a 3D       		.uleb128 0x3d
 17997 599b 01       		.uleb128 0x1
 17998 599c 52       		.byte	0x52
 17999 599d 02       		.uleb128 0x2
 18000 599e 74       		.byte	0x74
 18001 599f 00       		.sleb128 0
 18002 59a0 00       		.byte	0
 18003 59a1 3A       		.uleb128 0x3a
 18004 59a2 34210000 		.4byte	.LVL448
 18005 59a6 A66F0000 		.4byte	0x6fa6
 18006 59aa 3A       		.uleb128 0x3a
 18007 59ab 3A210000 		.4byte	.LVL449
 18008 59af B16F0000 		.4byte	0x6fb1
 18009 59b3 3C       		.uleb128 0x3c
 18010 59b4 46210000 		.4byte	.LVL450
 18011 59b8 0F6E0000 		.4byte	0x6e0f
 18012 59bc D6590000 		.4byte	0x59d6
 18013 59c0 3D       		.uleb128 0x3d
 18014 59c1 01       		.uleb128 0x1
 18015 59c2 50       		.byte	0x50
 18016 59c3 02       		.uleb128 0x2
 18017 59c4 77       		.byte	0x77
 18018 59c5 00       		.sleb128 0
 18019 59c6 3D       		.uleb128 0x3d
 18020 59c7 01       		.uleb128 0x1
 18021 59c8 51       		.byte	0x51
 18022 59c9 05       		.uleb128 0x5
 18023 59ca 03       		.byte	0x3
 18024 59cb 78000000 		.4byte	.LC3
 18025 59cf 3D       		.uleb128 0x3d
 18026 59d0 01       		.uleb128 0x1
 18027 59d1 52       		.byte	0x52
 18028 59d2 02       		.uleb128 0x2
 18029 59d3 74       		.byte	0x74
 18030 59d4 00       		.sleb128 0
 18031 59d5 00       		.byte	0
ARM GAS  /var/folders/d2/nstgp4h54kz7g1l847x_b8wc0000gn/T//ccB20FE7.s 			page 323


 18032 59d6 3C       		.uleb128 0x3c
 18033 59d7 5C210000 		.4byte	.LVL452
 18034 59db 256E0000 		.4byte	0x6e25
 18035 59df EA590000 		.4byte	0x59ea
 18036 59e3 3D       		.uleb128 0x3d
 18037 59e4 01       		.uleb128 0x1
 18038 59e5 50       		.byte	0x50
 18039 59e6 02       		.uleb128 0x2
 18040 59e7 77       		.byte	0x77
 18041 59e8 00       		.sleb128 0
 18042 59e9 00       		.byte	0
 18043 59ea 3A       		.uleb128 0x3a
 18044 59eb 60210000 		.4byte	.LVL453
 18045 59ef 306E0000 		.4byte	0x6e30
 18046 59f3 3C       		.uleb128 0x3c
 18047 59f4 7E210000 		.4byte	.LVL454
 18048 59f8 A96E0000 		.4byte	0x6ea9
 18049 59fc 0B5A0000 		.4byte	0x5a0b
 18050 5a00 3D       		.uleb128 0x3d
 18051 5a01 01       		.uleb128 0x1
 18052 5a02 50       		.byte	0x50
 18053 5a03 01       		.uleb128 0x1
 18054 5a04 38       		.byte	0x38
 18055 5a05 3D       		.uleb128 0x3d
 18056 5a06 01       		.uleb128 0x1
 18057 5a07 51       		.byte	0x51
 18058 5a08 01       		.uleb128 0x1
 18059 5a09 31       		.byte	0x31
 18060 5a0a 00       		.byte	0
 18061 5a0b 3C       		.uleb128 0x3c
 18062 5a0c 86210000 		.4byte	.LVL455
 18063 5a10 646F0000 		.4byte	0x6f64
 18064 5a14 205A0000 		.4byte	0x5a20
 18065 5a18 3D       		.uleb128 0x3d
 18066 5a19 01       		.uleb128 0x1
 18067 5a1a 50       		.byte	0x50
 18068 5a1b 03       		.uleb128 0x3
 18069 5a1c 0A       		.byte	0xa
 18070 5a1d 9001     		.2byte	0x190
 18071 5a1f 00       		.byte	0
 18072 5a20 3A       		.uleb128 0x3a
 18073 5a21 8A210000 		.4byte	.LVL456
 18074 5a25 6F6F0000 		.4byte	0x6f6f
 18075 5a29 3C       		.uleb128 0x3c
 18076 5a2a 90210000 		.4byte	.LVL457
 18077 5a2e 646F0000 		.4byte	0x6f64
 18078 5a32 3D5A0000 		.4byte	0x5a3d
 18079 5a36 3D       		.uleb128 0x3d
 18080 5a37 01       		.uleb128 0x1
 18081 5a38 50       		.byte	0x50
 18082 5a39 02       		.uleb128 0x2
 18083 5a3a 08       		.byte	0x8
 18084 5a3b 64       		.byte	0x64
 18085 5a3c 00       		.byte	0
 18086 5a3d 3A       		.uleb128 0x3a
 18087 5a3e 94210000 		.4byte	.LVL458
 18088 5a42 7A6F0000 		.4byte	0x6f7a
ARM GAS  /var/folders/d2/nstgp4h54kz7g1l847x_b8wc0000gn/T//ccB20FE7.s 			page 324


 18089 5a46 3C       		.uleb128 0x3c
 18090 5a47 A4210000 		.4byte	.LVL460
 18091 5a4b 0F6E0000 		.4byte	0x6e0f
 18092 5a4f 635A0000 		.4byte	0x5a63
 18093 5a53 3D       		.uleb128 0x3d
 18094 5a54 01       		.uleb128 0x1
 18095 5a55 50       		.byte	0x50
 18096 5a56 02       		.uleb128 0x2
 18097 5a57 77       		.byte	0x77
 18098 5a58 00       		.sleb128 0
 18099 5a59 3D       		.uleb128 0x3d
 18100 5a5a 01       		.uleb128 0x1
 18101 5a5b 51       		.byte	0x51
 18102 5a5c 05       		.uleb128 0x5
 18103 5a5d 03       		.byte	0x3
 18104 5a5e 500B0000 		.4byte	.LC96
 18105 5a62 00       		.byte	0
 18106 5a63 3A       		.uleb128 0x3a
 18107 5a64 B0210000 		.4byte	.LVL461
 18108 5a68 1A6E0000 		.4byte	0x6e1a
 18109 5a6c 3C       		.uleb128 0x3c
 18110 5a6d B8210000 		.4byte	.LVL462
 18111 5a71 BC6F0000 		.4byte	0x6fbc
 18112 5a75 805A0000 		.4byte	0x5a80
 18113 5a79 3D       		.uleb128 0x3d
 18114 5a7a 01       		.uleb128 0x1
 18115 5a7b 50       		.byte	0x50
 18116 5a7c 02       		.uleb128 0x2
 18117 5a7d 74       		.byte	0x74
 18118 5a7e 00       		.sleb128 0
 18119 5a7f 00       		.byte	0
 18120 5a80 3A       		.uleb128 0x3a
 18121 5a81 BC210000 		.4byte	.LVL463
 18122 5a85 C76F0000 		.4byte	0x6fc7
 18123 5a89 3A       		.uleb128 0x3a
 18124 5a8a EC210000 		.4byte	.LVL466
 18125 5a8e BC6F0000 		.4byte	0x6fbc
 18126 5a92 3A       		.uleb128 0x3a
 18127 5a93 F0210000 		.4byte	.LVL467
 18128 5a97 C76F0000 		.4byte	0x6fc7
 18129 5a9b 3A       		.uleb128 0x3a
 18130 5a9c FC210000 		.4byte	.LVL468
 18131 5aa0 BC6F0000 		.4byte	0x6fbc
 18132 5aa4 3A       		.uleb128 0x3a
 18133 5aa5 00220000 		.4byte	.LVL469
 18134 5aa9 C76F0000 		.4byte	0x6fc7
 18135 5aad 3C       		.uleb128 0x3c
 18136 5aae 0C220000 		.4byte	.LVL470
 18137 5ab2 A96E0000 		.4byte	0x6ea9
 18138 5ab6 C55A0000 		.4byte	0x5ac5
 18139 5aba 3D       		.uleb128 0x3d
 18140 5abb 01       		.uleb128 0x1
 18141 5abc 50       		.byte	0x50
 18142 5abd 01       		.uleb128 0x1
 18143 5abe 38       		.byte	0x38
 18144 5abf 3D       		.uleb128 0x3d
 18145 5ac0 01       		.uleb128 0x1
ARM GAS  /var/folders/d2/nstgp4h54kz7g1l847x_b8wc0000gn/T//ccB20FE7.s 			page 325


 18146 5ac1 51       		.byte	0x51
 18147 5ac2 01       		.uleb128 0x1
 18148 5ac3 31       		.byte	0x31
 18149 5ac4 00       		.byte	0
 18150 5ac5 3C       		.uleb128 0x3c
 18151 5ac6 14220000 		.4byte	.LVL471
 18152 5aca 646F0000 		.4byte	0x6f64
 18153 5ace DA5A0000 		.4byte	0x5ada
 18154 5ad2 3D       		.uleb128 0x3d
 18155 5ad3 01       		.uleb128 0x1
 18156 5ad4 50       		.byte	0x50
 18157 5ad5 03       		.uleb128 0x3
 18158 5ad6 0A       		.byte	0xa
 18159 5ad7 9001     		.2byte	0x190
 18160 5ad9 00       		.byte	0
 18161 5ada 3A       		.uleb128 0x3a
 18162 5adb 18220000 		.4byte	.LVL472
 18163 5adf 6F6F0000 		.4byte	0x6f6f
 18164 5ae3 3C       		.uleb128 0x3c
 18165 5ae4 1E220000 		.4byte	.LVL473
 18166 5ae8 646F0000 		.4byte	0x6f64
 18167 5aec F75A0000 		.4byte	0x5af7
 18168 5af0 3D       		.uleb128 0x3d
 18169 5af1 01       		.uleb128 0x1
 18170 5af2 50       		.byte	0x50
 18171 5af3 02       		.uleb128 0x2
 18172 5af4 08       		.byte	0x8
 18173 5af5 64       		.byte	0x64
 18174 5af6 00       		.byte	0
 18175 5af7 3A       		.uleb128 0x3a
 18176 5af8 22220000 		.4byte	.LVL474
 18177 5afc 7A6F0000 		.4byte	0x6f7a
 18178 5b00 3C       		.uleb128 0x3c
 18179 5b01 2A220000 		.4byte	.LVL475
 18180 5b05 BC6F0000 		.4byte	0x6fbc
 18181 5b09 1C5B0000 		.4byte	0x5b1c
 18182 5b0d 3D       		.uleb128 0x3d
 18183 5b0e 01       		.uleb128 0x1
 18184 5b0f 50       		.byte	0x50
 18185 5b10 05       		.uleb128 0x5
 18186 5b11 03       		.byte	0x3
 18187 5b12 640B0000 		.4byte	.LC97
 18188 5b16 3D       		.uleb128 0x3d
 18189 5b17 01       		.uleb128 0x1
 18190 5b18 51       		.byte	0x51
 18191 5b19 01       		.uleb128 0x1
 18192 5b1a 49       		.byte	0x49
 18193 5b1b 00       		.byte	0
 18194 5b1c 3A       		.uleb128 0x3a
 18195 5b1d 2E220000 		.4byte	.LVL476
 18196 5b21 C76F0000 		.4byte	0x6fc7
 18197 5b25 3A       		.uleb128 0x3a
 18198 5b26 3A220000 		.4byte	.LVL478
 18199 5b2a BC6F0000 		.4byte	0x6fbc
 18200 5b2e 3A       		.uleb128 0x3a
 18201 5b2f 3E220000 		.4byte	.LVL479
 18202 5b33 C76F0000 		.4byte	0x6fc7
ARM GAS  /var/folders/d2/nstgp4h54kz7g1l847x_b8wc0000gn/T//ccB20FE7.s 			page 326


 18203 5b37 3A       		.uleb128 0x3a
 18204 5b38 4A220000 		.4byte	.LVL480
 18205 5b3c BC6F0000 		.4byte	0x6fbc
 18206 5b40 3A       		.uleb128 0x3a
 18207 5b41 4E220000 		.4byte	.LVL481
 18208 5b45 C76F0000 		.4byte	0x6fc7
 18209 5b49 3A       		.uleb128 0x3a
 18210 5b4a 5A220000 		.4byte	.LVL482
 18211 5b4e BC6F0000 		.4byte	0x6fbc
 18212 5b52 3A       		.uleb128 0x3a
 18213 5b53 5E220000 		.4byte	.LVL483
 18214 5b57 C76F0000 		.4byte	0x6fc7
 18215 5b5b 3C       		.uleb128 0x3c
 18216 5b5c 6C220000 		.4byte	.LVL484
 18217 5b60 1A6E0000 		.4byte	0x6e1a
 18218 5b64 6F5B0000 		.4byte	0x5b6f
 18219 5b68 3D       		.uleb128 0x3d
 18220 5b69 01       		.uleb128 0x1
 18221 5b6a 50       		.byte	0x50
 18222 5b6b 02       		.uleb128 0x2
 18223 5b6c 77       		.byte	0x77
 18224 5b6d 00       		.sleb128 0
 18225 5b6e 00       		.byte	0
 18226 5b6f 3C       		.uleb128 0x3c
 18227 5b70 74220000 		.4byte	.LVL485
 18228 5b74 BC6F0000 		.4byte	0x6fbc
 18229 5b78 835B0000 		.4byte	0x5b83
 18230 5b7c 3D       		.uleb128 0x3d
 18231 5b7d 01       		.uleb128 0x1
 18232 5b7e 50       		.byte	0x50
 18233 5b7f 02       		.uleb128 0x2
 18234 5b80 77       		.byte	0x77
 18235 5b81 00       		.sleb128 0
 18236 5b82 00       		.byte	0
 18237 5b83 3A       		.uleb128 0x3a
 18238 5b84 78220000 		.4byte	.LVL486
 18239 5b88 C76F0000 		.4byte	0x6fc7
 18240 5b8c 3A       		.uleb128 0x3a
 18241 5b8d 84220000 		.4byte	.LVL487
 18242 5b91 BC6F0000 		.4byte	0x6fbc
 18243 5b95 3A       		.uleb128 0x3a
 18244 5b96 88220000 		.4byte	.LVL488
 18245 5b9a C76F0000 		.4byte	0x6fc7
 18246 5b9e 3A       		.uleb128 0x3a
 18247 5b9f 94220000 		.4byte	.LVL489
 18248 5ba3 BC6F0000 		.4byte	0x6fbc
 18249 5ba7 3A       		.uleb128 0x3a
 18250 5ba8 98220000 		.4byte	.LVL490
 18251 5bac C76F0000 		.4byte	0x6fc7
 18252 5bb0 3A       		.uleb128 0x3a
 18253 5bb1 A4220000 		.4byte	.LVL491
 18254 5bb5 BC6F0000 		.4byte	0x6fbc
 18255 5bb9 3A       		.uleb128 0x3a
 18256 5bba A8220000 		.4byte	.LVL492
 18257 5bbe C76F0000 		.4byte	0x6fc7
 18258 5bc2 3A       		.uleb128 0x3a
 18259 5bc3 B4220000 		.4byte	.LVL493
ARM GAS  /var/folders/d2/nstgp4h54kz7g1l847x_b8wc0000gn/T//ccB20FE7.s 			page 327


 18260 5bc7 BC6F0000 		.4byte	0x6fbc
 18261 5bcb 3A       		.uleb128 0x3a
 18262 5bcc B8220000 		.4byte	.LVL494
 18263 5bd0 C76F0000 		.4byte	0x6fc7
 18264 5bd4 3A       		.uleb128 0x3a
 18265 5bd5 C4220000 		.4byte	.LVL495
 18266 5bd9 BC6F0000 		.4byte	0x6fbc
 18267 5bdd 3A       		.uleb128 0x3a
 18268 5bde C8220000 		.4byte	.LVL496
 18269 5be2 C76F0000 		.4byte	0x6fc7
 18270 5be6 3A       		.uleb128 0x3a
 18271 5be7 D4220000 		.4byte	.LVL497
 18272 5beb BC6F0000 		.4byte	0x6fbc
 18273 5bef 3A       		.uleb128 0x3a
 18274 5bf0 D8220000 		.4byte	.LVL498
 18275 5bf4 C76F0000 		.4byte	0x6fc7
 18276 5bf8 3A       		.uleb128 0x3a
 18277 5bf9 E4220000 		.4byte	.LVL499
 18278 5bfd BC6F0000 		.4byte	0x6fbc
 18279 5c01 3A       		.uleb128 0x3a
 18280 5c02 E8220000 		.4byte	.LVL500
 18281 5c06 C76F0000 		.4byte	0x6fc7
 18282 5c0a 3C       		.uleb128 0x3c
 18283 5c0b F8220000 		.4byte	.LVL501
 18284 5c0f 0F6E0000 		.4byte	0x6e0f
 18285 5c13 275C0000 		.4byte	0x5c27
 18286 5c17 3D       		.uleb128 0x3d
 18287 5c18 01       		.uleb128 0x1
 18288 5c19 50       		.byte	0x50
 18289 5c1a 02       		.uleb128 0x2
 18290 5c1b 77       		.byte	0x77
 18291 5c1c 00       		.sleb128 0
 18292 5c1d 3D       		.uleb128 0x3d
 18293 5c1e 01       		.uleb128 0x1
 18294 5c1f 51       		.byte	0x51
 18295 5c20 05       		.uleb128 0x5
 18296 5c21 03       		.byte	0x3
 18297 5c22 500B0000 		.4byte	.LC96
 18298 5c26 00       		.byte	0
 18299 5c27 3C       		.uleb128 0x3c
 18300 5c28 FE220000 		.4byte	.LVL502
 18301 5c2c 1A6E0000 		.4byte	0x6e1a
 18302 5c30 3B5C0000 		.4byte	0x5c3b
 18303 5c34 3D       		.uleb128 0x3d
 18304 5c35 01       		.uleb128 0x1
 18305 5c36 50       		.byte	0x50
 18306 5c37 02       		.uleb128 0x2
 18307 5c38 77       		.byte	0x77
 18308 5c39 00       		.sleb128 0
 18309 5c3a 00       		.byte	0
 18310 5c3b 3C       		.uleb128 0x3c
 18311 5c3c 06230000 		.4byte	.LVL503
 18312 5c40 BC6F0000 		.4byte	0x6fbc
 18313 5c44 4F5C0000 		.4byte	0x5c4f
 18314 5c48 3D       		.uleb128 0x3d
 18315 5c49 01       		.uleb128 0x1
 18316 5c4a 50       		.byte	0x50
ARM GAS  /var/folders/d2/nstgp4h54kz7g1l847x_b8wc0000gn/T//ccB20FE7.s 			page 328


 18317 5c4b 02       		.uleb128 0x2
 18318 5c4c 77       		.byte	0x77
 18319 5c4d 00       		.sleb128 0
 18320 5c4e 00       		.byte	0
 18321 5c4f 3A       		.uleb128 0x3a
 18322 5c50 0A230000 		.4byte	.LVL504
 18323 5c54 C76F0000 		.4byte	0x6fc7
 18324 5c58 3C       		.uleb128 0x3c
 18325 5c59 18230000 		.4byte	.LVL505
 18326 5c5d 1A6E0000 		.4byte	0x6e1a
 18327 5c61 6C5C0000 		.4byte	0x5c6c
 18328 5c65 3D       		.uleb128 0x3d
 18329 5c66 01       		.uleb128 0x1
 18330 5c67 50       		.byte	0x50
 18331 5c68 02       		.uleb128 0x2
 18332 5c69 77       		.byte	0x77
 18333 5c6a 00       		.sleb128 0
 18334 5c6b 00       		.byte	0
 18335 5c6c 3C       		.uleb128 0x3c
 18336 5c6d 20230000 		.4byte	.LVL506
 18337 5c71 BC6F0000 		.4byte	0x6fbc
 18338 5c75 805C0000 		.4byte	0x5c80
 18339 5c79 3D       		.uleb128 0x3d
 18340 5c7a 01       		.uleb128 0x1
 18341 5c7b 50       		.byte	0x50
 18342 5c7c 02       		.uleb128 0x2
 18343 5c7d 77       		.byte	0x77
 18344 5c7e 00       		.sleb128 0
 18345 5c7f 00       		.byte	0
 18346 5c80 3A       		.uleb128 0x3a
 18347 5c81 24230000 		.4byte	.LVL507
 18348 5c85 C76F0000 		.4byte	0x6fc7
 18349 5c89 3C       		.uleb128 0x3c
 18350 5c8a 32230000 		.4byte	.LVL508
 18351 5c8e 1A6E0000 		.4byte	0x6e1a
 18352 5c92 9D5C0000 		.4byte	0x5c9d
 18353 5c96 3D       		.uleb128 0x3d
 18354 5c97 01       		.uleb128 0x1
 18355 5c98 50       		.byte	0x50
 18356 5c99 02       		.uleb128 0x2
 18357 5c9a 77       		.byte	0x77
 18358 5c9b 00       		.sleb128 0
 18359 5c9c 00       		.byte	0
 18360 5c9d 3C       		.uleb128 0x3c
 18361 5c9e 3A230000 		.4byte	.LVL509
 18362 5ca2 BC6F0000 		.4byte	0x6fbc
 18363 5ca6 B15C0000 		.4byte	0x5cb1
 18364 5caa 3D       		.uleb128 0x3d
 18365 5cab 01       		.uleb128 0x1
 18366 5cac 50       		.byte	0x50
 18367 5cad 02       		.uleb128 0x2
 18368 5cae 77       		.byte	0x77
 18369 5caf 00       		.sleb128 0
 18370 5cb0 00       		.byte	0
 18371 5cb1 3A       		.uleb128 0x3a
 18372 5cb2 3E230000 		.4byte	.LVL510
 18373 5cb6 C76F0000 		.4byte	0x6fc7
ARM GAS  /var/folders/d2/nstgp4h54kz7g1l847x_b8wc0000gn/T//ccB20FE7.s 			page 329


 18374 5cba 3A       		.uleb128 0x3a
 18375 5cbb 4A230000 		.4byte	.LVL511
 18376 5cbf BC6F0000 		.4byte	0x6fbc
 18377 5cc3 3A       		.uleb128 0x3a
 18378 5cc4 4E230000 		.4byte	.LVL512
 18379 5cc8 C76F0000 		.4byte	0x6fc7
 18380 5ccc 3A       		.uleb128 0x3a
 18381 5ccd 5A230000 		.4byte	.LVL513
 18382 5cd1 BC6F0000 		.4byte	0x6fbc
 18383 5cd5 3A       		.uleb128 0x3a
 18384 5cd6 5E230000 		.4byte	.LVL514
 18385 5cda C76F0000 		.4byte	0x6fc7
 18386 5cde 3A       		.uleb128 0x3a
 18387 5cdf 6A230000 		.4byte	.LVL515
 18388 5ce3 BC6F0000 		.4byte	0x6fbc
 18389 5ce7 3A       		.uleb128 0x3a
 18390 5ce8 6E230000 		.4byte	.LVL516
 18391 5cec C76F0000 		.4byte	0x6fc7
 18392 5cf0 3A       		.uleb128 0x3a
 18393 5cf1 7A230000 		.4byte	.LVL517
 18394 5cf5 BC6F0000 		.4byte	0x6fbc
 18395 5cf9 3A       		.uleb128 0x3a
 18396 5cfa 7E230000 		.4byte	.LVL518
 18397 5cfe C76F0000 		.4byte	0x6fc7
 18398 5d02 3A       		.uleb128 0x3a
 18399 5d03 8A230000 		.4byte	.LVL519
 18400 5d07 BC6F0000 		.4byte	0x6fbc
 18401 5d0b 3A       		.uleb128 0x3a
 18402 5d0c 8E230000 		.4byte	.LVL520
 18403 5d10 C76F0000 		.4byte	0x6fc7
 18404 5d14 3A       		.uleb128 0x3a
 18405 5d15 9A230000 		.4byte	.LVL521
 18406 5d19 BC6F0000 		.4byte	0x6fbc
 18407 5d1d 3A       		.uleb128 0x3a
 18408 5d1e 9E230000 		.4byte	.LVL522
 18409 5d22 C76F0000 		.4byte	0x6fc7
 18410 5d26 3A       		.uleb128 0x3a
 18411 5d27 D4230000 		.4byte	.LVL523
 18412 5d2b BC6F0000 		.4byte	0x6fbc
 18413 5d2f 3A       		.uleb128 0x3a
 18414 5d30 D8230000 		.4byte	.LVL524
 18415 5d34 C76F0000 		.4byte	0x6fc7
 18416 5d38 3A       		.uleb128 0x3a
 18417 5d39 E0230000 		.4byte	.LVL525
 18418 5d3d 016F0000 		.4byte	0x6f01
 18419 5d41 3A       		.uleb128 0x3a
 18420 5d42 EA230000 		.4byte	.LVL526
 18421 5d46 016F0000 		.4byte	0x6f01
 18422 5d4a 3C       		.uleb128 0x3c
 18423 5d4b F8230000 		.4byte	.LVL527
 18424 5d4f BC6F0000 		.4byte	0x6fbc
 18425 5d53 665D0000 		.4byte	0x5d66
 18426 5d57 3D       		.uleb128 0x3d
 18427 5d58 01       		.uleb128 0x1
 18428 5d59 50       		.byte	0x50
 18429 5d5a 05       		.uleb128 0x5
 18430 5d5b 03       		.byte	0x3
ARM GAS  /var/folders/d2/nstgp4h54kz7g1l847x_b8wc0000gn/T//ccB20FE7.s 			page 330


 18431 5d5c 00060000 		.4byte	.LC45
 18432 5d60 3D       		.uleb128 0x3d
 18433 5d61 01       		.uleb128 0x1
 18434 5d62 51       		.byte	0x51
 18435 5d63 01       		.uleb128 0x1
 18436 5d64 49       		.byte	0x49
 18437 5d65 00       		.byte	0
 18438 5d66 3A       		.uleb128 0x3a
 18439 5d67 FC230000 		.4byte	.LVL528
 18440 5d6b C76F0000 		.4byte	0x6fc7
 18441 5d6f 3C       		.uleb128 0x3c
 18442 5d70 08240000 		.4byte	.LVL529
 18443 5d74 BC6F0000 		.4byte	0x6fbc
 18444 5d78 8C5D0000 		.4byte	0x5d8c
 18445 5d7c 3D       		.uleb128 0x3d
 18446 5d7d 01       		.uleb128 0x1
 18447 5d7e 50       		.byte	0x50
 18448 5d7f 05       		.uleb128 0x5
 18449 5d80 03       		.byte	0x3
 18450 5d81 44060000 		.4byte	.LC47
 18451 5d85 3D       		.uleb128 0x3d
 18452 5d86 01       		.uleb128 0x1
 18453 5d87 51       		.byte	0x51
 18454 5d88 02       		.uleb128 0x2
 18455 5d89 08       		.byte	0x8
 18456 5d8a 2B       		.byte	0x2b
 18457 5d8b 00       		.byte	0
 18458 5d8c 3A       		.uleb128 0x3a
 18459 5d8d 0C240000 		.4byte	.LVL530
 18460 5d91 C76F0000 		.4byte	0x6fc7
 18461 5d95 3C       		.uleb128 0x3c
 18462 5d96 18240000 		.4byte	.LVL531
 18463 5d9a BC6F0000 		.4byte	0x6fbc
 18464 5d9e B15D0000 		.4byte	0x5db1
 18465 5da2 3D       		.uleb128 0x3d
 18466 5da3 01       		.uleb128 0x1
 18467 5da4 50       		.byte	0x50
 18468 5da5 05       		.uleb128 0x5
 18469 5da6 03       		.byte	0x3
 18470 5da7 70060000 		.4byte	.LC48
 18471 5dab 3D       		.uleb128 0x3d
 18472 5dac 01       		.uleb128 0x1
 18473 5dad 51       		.byte	0x51
 18474 5dae 01       		.uleb128 0x1
 18475 5daf 4D       		.byte	0x4d
 18476 5db0 00       		.byte	0
 18477 5db1 3A       		.uleb128 0x3a
 18478 5db2 1C240000 		.4byte	.LVL532
 18479 5db6 C76F0000 		.4byte	0x6fc7
 18480 5dba 3C       		.uleb128 0x3c
 18481 5dbb 28240000 		.4byte	.LVL533
 18482 5dbf BC6F0000 		.4byte	0x6fbc
 18483 5dc3 D75D0000 		.4byte	0x5dd7
 18484 5dc7 3D       		.uleb128 0x3d
 18485 5dc8 01       		.uleb128 0x1
 18486 5dc9 50       		.byte	0x50
 18487 5dca 05       		.uleb128 0x5
ARM GAS  /var/folders/d2/nstgp4h54kz7g1l847x_b8wc0000gn/T//ccB20FE7.s 			page 331


 18488 5dcb 03       		.byte	0x3
 18489 5dcc 90060000 		.4byte	.LC49
 18490 5dd0 3D       		.uleb128 0x3d
 18491 5dd1 01       		.uleb128 0x1
 18492 5dd2 51       		.byte	0x51
 18493 5dd3 02       		.uleb128 0x2
 18494 5dd4 08       		.byte	0x8
 18495 5dd5 26       		.byte	0x26
 18496 5dd6 00       		.byte	0
 18497 5dd7 3A       		.uleb128 0x3a
 18498 5dd8 2C240000 		.4byte	.LVL534
 18499 5ddc C76F0000 		.4byte	0x6fc7
 18500 5de0 3C       		.uleb128 0x3c
 18501 5de1 38240000 		.4byte	.LVL535
 18502 5de5 BC6F0000 		.4byte	0x6fbc
 18503 5de9 FD5D0000 		.4byte	0x5dfd
 18504 5ded 3D       		.uleb128 0x3d
 18505 5dee 01       		.uleb128 0x1
 18506 5def 50       		.byte	0x50
 18507 5df0 05       		.uleb128 0x5
 18508 5df1 03       		.byte	0x3
 18509 5df2 B8060000 		.4byte	.LC50
 18510 5df6 3D       		.uleb128 0x3d
 18511 5df7 01       		.uleb128 0x1
 18512 5df8 51       		.byte	0x51
 18513 5df9 02       		.uleb128 0x2
 18514 5dfa 08       		.byte	0x8
 18515 5dfb 26       		.byte	0x26
 18516 5dfc 00       		.byte	0
 18517 5dfd 3A       		.uleb128 0x3a
 18518 5dfe 3C240000 		.4byte	.LVL536
 18519 5e02 C76F0000 		.4byte	0x6fc7
 18520 5e06 3C       		.uleb128 0x3c
 18521 5e07 48240000 		.4byte	.LVL537
 18522 5e0b BC6F0000 		.4byte	0x6fbc
 18523 5e0f 235E0000 		.4byte	0x5e23
 18524 5e13 3D       		.uleb128 0x3d
 18525 5e14 01       		.uleb128 0x1
 18526 5e15 50       		.byte	0x50
 18527 5e16 05       		.uleb128 0x5
 18528 5e17 03       		.byte	0x3
 18529 5e18 E0060000 		.4byte	.LC51
 18530 5e1c 3D       		.uleb128 0x3d
 18531 5e1d 01       		.uleb128 0x1
 18532 5e1e 51       		.byte	0x51
 18533 5e1f 02       		.uleb128 0x2
 18534 5e20 08       		.byte	0x8
 18535 5e21 2C       		.byte	0x2c
 18536 5e22 00       		.byte	0
 18537 5e23 3A       		.uleb128 0x3a
 18538 5e24 4C240000 		.4byte	.LVL538
 18539 5e28 C76F0000 		.4byte	0x6fc7
 18540 5e2c 3C       		.uleb128 0x3c
 18541 5e2d 58240000 		.4byte	.LVL539
 18542 5e31 BC6F0000 		.4byte	0x6fbc
 18543 5e35 485E0000 		.4byte	0x5e48
 18544 5e39 3D       		.uleb128 0x3d
ARM GAS  /var/folders/d2/nstgp4h54kz7g1l847x_b8wc0000gn/T//ccB20FE7.s 			page 332


 18545 5e3a 01       		.uleb128 0x1
 18546 5e3b 50       		.byte	0x50
 18547 5e3c 05       		.uleb128 0x5
 18548 5e3d 03       		.byte	0x3
 18549 5e3e 10070000 		.4byte	.LC52
 18550 5e42 3D       		.uleb128 0x3d
 18551 5e43 01       		.uleb128 0x1
 18552 5e44 51       		.byte	0x51
 18553 5e45 01       		.uleb128 0x1
 18554 5e46 47       		.byte	0x47
 18555 5e47 00       		.byte	0
 18556 5e48 3A       		.uleb128 0x3a
 18557 5e49 5C240000 		.4byte	.LVL540
 18558 5e4d C76F0000 		.4byte	0x6fc7
 18559 5e51 3C       		.uleb128 0x3c
 18560 5e52 68240000 		.4byte	.LVL541
 18561 5e56 BC6F0000 		.4byte	0x6fbc
 18562 5e5a 6D5E0000 		.4byte	0x5e6d
 18563 5e5e 3D       		.uleb128 0x3d
 18564 5e5f 01       		.uleb128 0x1
 18565 5e60 50       		.byte	0x50
 18566 5e61 05       		.uleb128 0x5
 18567 5e62 03       		.byte	0x3
 18568 5e63 28070000 		.4byte	.LC53
 18569 5e67 3D       		.uleb128 0x3d
 18570 5e68 01       		.uleb128 0x1
 18571 5e69 51       		.byte	0x51
 18572 5e6a 01       		.uleb128 0x1
 18573 5e6b 40       		.byte	0x40
 18574 5e6c 00       		.byte	0
 18575 5e6d 3A       		.uleb128 0x3a
 18576 5e6e 6C240000 		.4byte	.LVL542
 18577 5e72 C76F0000 		.4byte	0x6fc7
 18578 5e76 3C       		.uleb128 0x3c
 18579 5e77 78240000 		.4byte	.LVL543
 18580 5e7b BC6F0000 		.4byte	0x6fbc
 18581 5e7f 935E0000 		.4byte	0x5e93
 18582 5e83 3D       		.uleb128 0x3d
 18583 5e84 01       		.uleb128 0x1
 18584 5e85 50       		.byte	0x50
 18585 5e86 05       		.uleb128 0x5
 18586 5e87 03       		.byte	0x3
 18587 5e88 3C070000 		.4byte	.LC54
 18588 5e8c 3D       		.uleb128 0x3d
 18589 5e8d 01       		.uleb128 0x1
 18590 5e8e 51       		.byte	0x51
 18591 5e8f 02       		.uleb128 0x2
 18592 5e90 08       		.byte	0x8
 18593 5e91 22       		.byte	0x22
 18594 5e92 00       		.byte	0
 18595 5e93 3A       		.uleb128 0x3a
 18596 5e94 7C240000 		.4byte	.LVL544
 18597 5e98 C76F0000 		.4byte	0x6fc7
 18598 5e9c 3C       		.uleb128 0x3c
 18599 5e9d 88240000 		.4byte	.LVL545
 18600 5ea1 BC6F0000 		.4byte	0x6fbc
 18601 5ea5 B95E0000 		.4byte	0x5eb9
ARM GAS  /var/folders/d2/nstgp4h54kz7g1l847x_b8wc0000gn/T//ccB20FE7.s 			page 333


 18602 5ea9 3D       		.uleb128 0x3d
 18603 5eaa 01       		.uleb128 0x1
 18604 5eab 50       		.byte	0x50
 18605 5eac 05       		.uleb128 0x5
 18606 5ead 03       		.byte	0x3
 18607 5eae 60070000 		.4byte	.LC55
 18608 5eb2 3D       		.uleb128 0x3d
 18609 5eb3 01       		.uleb128 0x1
 18610 5eb4 51       		.byte	0x51
 18611 5eb5 02       		.uleb128 0x2
 18612 5eb6 08       		.byte	0x8
 18613 5eb7 4D       		.byte	0x4d
 18614 5eb8 00       		.byte	0
 18615 5eb9 3A       		.uleb128 0x3a
 18616 5eba 8C240000 		.4byte	.LVL546
 18617 5ebe C76F0000 		.4byte	0x6fc7
 18618 5ec2 3C       		.uleb128 0x3c
 18619 5ec3 98240000 		.4byte	.LVL547
 18620 5ec7 BC6F0000 		.4byte	0x6fbc
 18621 5ecb DF5E0000 		.4byte	0x5edf
 18622 5ecf 3D       		.uleb128 0x3d
 18623 5ed0 01       		.uleb128 0x1
 18624 5ed1 50       		.byte	0x50
 18625 5ed2 05       		.uleb128 0x5
 18626 5ed3 03       		.byte	0x3
 18627 5ed4 B0070000 		.4byte	.LC56
 18628 5ed8 3D       		.uleb128 0x3d
 18629 5ed9 01       		.uleb128 0x1
 18630 5eda 51       		.byte	0x51
 18631 5edb 02       		.uleb128 0x2
 18632 5edc 08       		.byte	0x8
 18633 5edd 27       		.byte	0x27
 18634 5ede 00       		.byte	0
 18635 5edf 3A       		.uleb128 0x3a
 18636 5ee0 9C240000 		.4byte	.LVL548
 18637 5ee4 C76F0000 		.4byte	0x6fc7
 18638 5ee8 3C       		.uleb128 0x3c
 18639 5ee9 A8240000 		.4byte	.LVL549
 18640 5eed BC6F0000 		.4byte	0x6fbc
 18641 5ef1 055F0000 		.4byte	0x5f05
 18642 5ef5 3D       		.uleb128 0x3d
 18643 5ef6 01       		.uleb128 0x1
 18644 5ef7 50       		.byte	0x50
 18645 5ef8 05       		.uleb128 0x5
 18646 5ef9 03       		.byte	0x3
 18647 5efa D8070000 		.4byte	.LC57
 18648 5efe 3D       		.uleb128 0x3d
 18649 5eff 01       		.uleb128 0x1
 18650 5f00 51       		.byte	0x51
 18651 5f01 02       		.uleb128 0x2
 18652 5f02 08       		.byte	0x8
 18653 5f03 2B       		.byte	0x2b
 18654 5f04 00       		.byte	0
 18655 5f05 3A       		.uleb128 0x3a
 18656 5f06 AC240000 		.4byte	.LVL550
 18657 5f0a C76F0000 		.4byte	0x6fc7
 18658 5f0e 3C       		.uleb128 0x3c
ARM GAS  /var/folders/d2/nstgp4h54kz7g1l847x_b8wc0000gn/T//ccB20FE7.s 			page 334


 18659 5f0f B8240000 		.4byte	.LVL551
 18660 5f13 BC6F0000 		.4byte	0x6fbc
 18661 5f17 2A5F0000 		.4byte	0x5f2a
 18662 5f1b 3D       		.uleb128 0x3d
 18663 5f1c 01       		.uleb128 0x1
 18664 5f1d 50       		.byte	0x50
 18665 5f1e 05       		.uleb128 0x5
 18666 5f1f 03       		.byte	0x3
 18667 5f20 04080000 		.4byte	.LC58
 18668 5f24 3D       		.uleb128 0x3d
 18669 5f25 01       		.uleb128 0x1
 18670 5f26 51       		.byte	0x51
 18671 5f27 01       		.uleb128 0x1
 18672 5f28 49       		.byte	0x49
 18673 5f29 00       		.byte	0
 18674 5f2a 3A       		.uleb128 0x3a
 18675 5f2b BC240000 		.4byte	.LVL552
 18676 5f2f C76F0000 		.4byte	0x6fc7
 18677 5f33 3C       		.uleb128 0x3c
 18678 5f34 C8240000 		.4byte	.LVL553
 18679 5f38 BC6F0000 		.4byte	0x6fbc
 18680 5f3c 4F5F0000 		.4byte	0x5f4f
 18681 5f40 3D       		.uleb128 0x3d
 18682 5f41 01       		.uleb128 0x1
 18683 5f42 50       		.byte	0x50
 18684 5f43 05       		.uleb128 0x5
 18685 5f44 03       		.byte	0x3
 18686 5f45 20080000 		.4byte	.LC59
 18687 5f49 3D       		.uleb128 0x3d
 18688 5f4a 01       		.uleb128 0x1
 18689 5f4b 51       		.byte	0x51
 18690 5f4c 01       		.uleb128 0x1
 18691 5f4d 45       		.byte	0x45
 18692 5f4e 00       		.byte	0
 18693 5f4f 3A       		.uleb128 0x3a
 18694 5f50 CC240000 		.4byte	.LVL554
 18695 5f54 C76F0000 		.4byte	0x6fc7
 18696 5f58 3C       		.uleb128 0x3c
 18697 5f59 D8240000 		.4byte	.LVL555
 18698 5f5d BC6F0000 		.4byte	0x6fbc
 18699 5f61 745F0000 		.4byte	0x5f74
 18700 5f65 3D       		.uleb128 0x3d
 18701 5f66 01       		.uleb128 0x1
 18702 5f67 50       		.byte	0x50
 18703 5f68 05       		.uleb128 0x5
 18704 5f69 03       		.byte	0x3
 18705 5f6a 38080000 		.4byte	.LC60
 18706 5f6e 3D       		.uleb128 0x3d
 18707 5f6f 01       		.uleb128 0x1
 18708 5f70 51       		.byte	0x51
 18709 5f71 01       		.uleb128 0x1
 18710 5f72 49       		.byte	0x49
 18711 5f73 00       		.byte	0
 18712 5f74 3A       		.uleb128 0x3a
 18713 5f75 DC240000 		.4byte	.LVL556
 18714 5f79 C76F0000 		.4byte	0x6fc7
 18715 5f7d 3C       		.uleb128 0x3c
ARM GAS  /var/folders/d2/nstgp4h54kz7g1l847x_b8wc0000gn/T//ccB20FE7.s 			page 335


 18716 5f7e E8240000 		.4byte	.LVL557
 18717 5f82 BC6F0000 		.4byte	0x6fbc
 18718 5f86 9A5F0000 		.4byte	0x5f9a
 18719 5f8a 3D       		.uleb128 0x3d
 18720 5f8b 01       		.uleb128 0x1
 18721 5f8c 50       		.byte	0x50
 18722 5f8d 05       		.uleb128 0x5
 18723 5f8e 03       		.byte	0x3
 18724 5f8f 54080000 		.4byte	.LC61
 18725 5f93 3D       		.uleb128 0x3d
 18726 5f94 01       		.uleb128 0x1
 18727 5f95 51       		.byte	0x51
 18728 5f96 02       		.uleb128 0x2
 18729 5f97 08       		.byte	0x8
 18730 5f98 29       		.byte	0x29
 18731 5f99 00       		.byte	0
 18732 5f9a 3A       		.uleb128 0x3a
 18733 5f9b EC240000 		.4byte	.LVL558
 18734 5f9f C76F0000 		.4byte	0x6fc7
 18735 5fa3 3C       		.uleb128 0x3c
 18736 5fa4 F8240000 		.4byte	.LVL559
 18737 5fa8 BC6F0000 		.4byte	0x6fbc
 18738 5fac C05F0000 		.4byte	0x5fc0
 18739 5fb0 3D       		.uleb128 0x3d
 18740 5fb1 01       		.uleb128 0x1
 18741 5fb2 50       		.byte	0x50
 18742 5fb3 05       		.uleb128 0x5
 18743 5fb4 03       		.byte	0x3
 18744 5fb5 80080000 		.4byte	.LC62
 18745 5fb9 3D       		.uleb128 0x3d
 18746 5fba 01       		.uleb128 0x1
 18747 5fbb 51       		.byte	0x51
 18748 5fbc 02       		.uleb128 0x2
 18749 5fbd 08       		.byte	0x8
 18750 5fbe 29       		.byte	0x29
 18751 5fbf 00       		.byte	0
 18752 5fc0 3A       		.uleb128 0x3a
 18753 5fc1 FC240000 		.4byte	.LVL560
 18754 5fc5 C76F0000 		.4byte	0x6fc7
 18755 5fc9 3C       		.uleb128 0x3c
 18756 5fca 08250000 		.4byte	.LVL561
 18757 5fce BC6F0000 		.4byte	0x6fbc
 18758 5fd2 E55F0000 		.4byte	0x5fe5
 18759 5fd6 3D       		.uleb128 0x3d
 18760 5fd7 01       		.uleb128 0x1
 18761 5fd8 50       		.byte	0x50
 18762 5fd9 05       		.uleb128 0x5
 18763 5fda 03       		.byte	0x3
 18764 5fdb AC080000 		.4byte	.LC63
 18765 5fdf 3D       		.uleb128 0x3d
 18766 5fe0 01       		.uleb128 0x1
 18767 5fe1 51       		.byte	0x51
 18768 5fe2 01       		.uleb128 0x1
 18769 5fe3 48       		.byte	0x48
 18770 5fe4 00       		.byte	0
 18771 5fe5 3A       		.uleb128 0x3a
 18772 5fe6 0C250000 		.4byte	.LVL562
ARM GAS  /var/folders/d2/nstgp4h54kz7g1l847x_b8wc0000gn/T//ccB20FE7.s 			page 336


 18773 5fea C76F0000 		.4byte	0x6fc7
 18774 5fee 3C       		.uleb128 0x3c
 18775 5fef 18250000 		.4byte	.LVL563
 18776 5ff3 BC6F0000 		.4byte	0x6fbc
 18777 5ff7 0B600000 		.4byte	0x600b
 18778 5ffb 3D       		.uleb128 0x3d
 18779 5ffc 01       		.uleb128 0x1
 18780 5ffd 50       		.byte	0x50
 18781 5ffe 05       		.uleb128 0x5
 18782 5fff 03       		.byte	0x3
 18783 6000 C8080000 		.4byte	.LC64
 18784 6004 3D       		.uleb128 0x3d
 18785 6005 01       		.uleb128 0x1
 18786 6006 51       		.byte	0x51
 18787 6007 02       		.uleb128 0x2
 18788 6008 08       		.byte	0x8
 18789 6009 29       		.byte	0x29
 18790 600a 00       		.byte	0
 18791 600b 3A       		.uleb128 0x3a
 18792 600c 1C250000 		.4byte	.LVL564
 18793 6010 C76F0000 		.4byte	0x6fc7
 18794 6014 3C       		.uleb128 0x3c
 18795 6015 28250000 		.4byte	.LVL565
 18796 6019 BC6F0000 		.4byte	0x6fbc
 18797 601d 31600000 		.4byte	0x6031
 18798 6021 3D       		.uleb128 0x3d
 18799 6022 01       		.uleb128 0x1
 18800 6023 50       		.byte	0x50
 18801 6024 05       		.uleb128 0x5
 18802 6025 03       		.byte	0x3
 18803 6026 F4080000 		.4byte	.LC65
 18804 602a 3D       		.uleb128 0x3d
 18805 602b 01       		.uleb128 0x1
 18806 602c 51       		.byte	0x51
 18807 602d 02       		.uleb128 0x2
 18808 602e 08       		.byte	0x8
 18809 602f 2C       		.byte	0x2c
 18810 6030 00       		.byte	0
 18811 6031 3A       		.uleb128 0x3a
 18812 6032 2C250000 		.4byte	.LVL566
 18813 6036 C76F0000 		.4byte	0x6fc7
 18814 603a 3C       		.uleb128 0x3c
 18815 603b 38250000 		.4byte	.LVL567
 18816 603f BC6F0000 		.4byte	0x6fbc
 18817 6043 57600000 		.4byte	0x6057
 18818 6047 3D       		.uleb128 0x3d
 18819 6048 01       		.uleb128 0x1
 18820 6049 50       		.byte	0x50
 18821 604a 05       		.uleb128 0x5
 18822 604b 03       		.byte	0x3
 18823 604c 24090000 		.4byte	.LC66
 18824 6050 3D       		.uleb128 0x3d
 18825 6051 01       		.uleb128 0x1
 18826 6052 51       		.byte	0x51
 18827 6053 02       		.uleb128 0x2
 18828 6054 08       		.byte	0x8
 18829 6055 24       		.byte	0x24
ARM GAS  /var/folders/d2/nstgp4h54kz7g1l847x_b8wc0000gn/T//ccB20FE7.s 			page 337


 18830 6056 00       		.byte	0
 18831 6057 3A       		.uleb128 0x3a
 18832 6058 3C250000 		.4byte	.LVL568
 18833 605c C76F0000 		.4byte	0x6fc7
 18834 6060 3C       		.uleb128 0x3c
 18835 6061 48250000 		.4byte	.LVL569
 18836 6065 BC6F0000 		.4byte	0x6fbc
 18837 6069 7C600000 		.4byte	0x607c
 18838 606d 3D       		.uleb128 0x3d
 18839 606e 01       		.uleb128 0x1
 18840 606f 50       		.byte	0x50
 18841 6070 05       		.uleb128 0x5
 18842 6071 03       		.byte	0x3
 18843 6072 4C090000 		.4byte	.LC67
 18844 6076 3D       		.uleb128 0x3d
 18845 6077 01       		.uleb128 0x1
 18846 6078 51       		.byte	0x51
 18847 6079 01       		.uleb128 0x1
 18848 607a 4D       		.byte	0x4d
 18849 607b 00       		.byte	0
 18850 607c 3A       		.uleb128 0x3a
 18851 607d 4C250000 		.4byte	.LVL570
 18852 6081 C76F0000 		.4byte	0x6fc7
 18853 6085 3C       		.uleb128 0x3c
 18854 6086 58250000 		.4byte	.LVL571
 18855 608a BC6F0000 		.4byte	0x6fbc
 18856 608e A2600000 		.4byte	0x60a2
 18857 6092 3D       		.uleb128 0x3d
 18858 6093 01       		.uleb128 0x1
 18859 6094 50       		.byte	0x50
 18860 6095 05       		.uleb128 0x5
 18861 6096 03       		.byte	0x3
 18862 6097 6C090000 		.4byte	.LC68
 18863 609b 3D       		.uleb128 0x3d
 18864 609c 01       		.uleb128 0x1
 18865 609d 51       		.byte	0x51
 18866 609e 02       		.uleb128 0x2
 18867 609f 08       		.byte	0x8
 18868 60a0 25       		.byte	0x25
 18869 60a1 00       		.byte	0
 18870 60a2 3A       		.uleb128 0x3a
 18871 60a3 5C250000 		.4byte	.LVL572
 18872 60a7 C76F0000 		.4byte	0x6fc7
 18873 60ab 3C       		.uleb128 0x3c
 18874 60ac 68250000 		.4byte	.LVL573
 18875 60b0 BC6F0000 		.4byte	0x6fbc
 18876 60b4 C8600000 		.4byte	0x60c8
 18877 60b8 3D       		.uleb128 0x3d
 18878 60b9 01       		.uleb128 0x1
 18879 60ba 50       		.byte	0x50
 18880 60bb 05       		.uleb128 0x5
 18881 60bc 03       		.byte	0x3
 18882 60bd 94090000 		.4byte	.LC69
 18883 60c1 3D       		.uleb128 0x3d
 18884 60c2 01       		.uleb128 0x1
 18885 60c3 51       		.byte	0x51
 18886 60c4 02       		.uleb128 0x2
ARM GAS  /var/folders/d2/nstgp4h54kz7g1l847x_b8wc0000gn/T//ccB20FE7.s 			page 338


 18887 60c5 08       		.byte	0x8
 18888 60c6 24       		.byte	0x24
 18889 60c7 00       		.byte	0
 18890 60c8 3A       		.uleb128 0x3a
 18891 60c9 6C250000 		.4byte	.LVL574
 18892 60cd C76F0000 		.4byte	0x6fc7
 18893 60d1 3A       		.uleb128 0x3a
 18894 60d2 78250000 		.4byte	.LVL575
 18895 60d6 1A6E0000 		.4byte	0x6e1a
 18896 60da 3C       		.uleb128 0x3c
 18897 60db 80250000 		.4byte	.LVL576
 18898 60df BC6F0000 		.4byte	0x6fbc
 18899 60e3 EE600000 		.4byte	0x60ee
 18900 60e7 3D       		.uleb128 0x3d
 18901 60e8 01       		.uleb128 0x1
 18902 60e9 50       		.byte	0x50
 18903 60ea 02       		.uleb128 0x2
 18904 60eb 77       		.byte	0x77
 18905 60ec 00       		.sleb128 0
 18906 60ed 00       		.byte	0
 18907 60ee 3A       		.uleb128 0x3a
 18908 60ef 84250000 		.4byte	.LVL577
 18909 60f3 C76F0000 		.4byte	0x6fc7
 18910 60f7 3A       		.uleb128 0x3a
 18911 60f8 90250000 		.4byte	.LVL578
 18912 60fc 1A6E0000 		.4byte	0x6e1a
 18913 6100 3C       		.uleb128 0x3c
 18914 6101 98250000 		.4byte	.LVL579
 18915 6105 BC6F0000 		.4byte	0x6fbc
 18916 6109 14610000 		.4byte	0x6114
 18917 610d 3D       		.uleb128 0x3d
 18918 610e 01       		.uleb128 0x1
 18919 610f 50       		.byte	0x50
 18920 6110 02       		.uleb128 0x2
 18921 6111 77       		.byte	0x77
 18922 6112 00       		.sleb128 0
 18923 6113 00       		.byte	0
 18924 6114 3A       		.uleb128 0x3a
 18925 6115 9C250000 		.4byte	.LVL580
 18926 6119 C76F0000 		.4byte	0x6fc7
 18927 611d 3A       		.uleb128 0x3a
 18928 611e A8250000 		.4byte	.LVL581
 18929 6122 BC6F0000 		.4byte	0x6fbc
 18930 6126 3A       		.uleb128 0x3a
 18931 6127 AC250000 		.4byte	.LVL582
 18932 612b C76F0000 		.4byte	0x6fc7
 18933 612f 3A       		.uleb128 0x3a
 18934 6130 B8250000 		.4byte	.LVL583
 18935 6134 BC6F0000 		.4byte	0x6fbc
 18936 6138 3A       		.uleb128 0x3a
 18937 6139 BC250000 		.4byte	.LVL584
 18938 613d C76F0000 		.4byte	0x6fc7
 18939 6141 3A       		.uleb128 0x3a
 18940 6142 C8250000 		.4byte	.LVL585
 18941 6146 D26F0000 		.4byte	0x6fd2
 18942 614a 3A       		.uleb128 0x3a
 18943 614b CC250000 		.4byte	.LVL586
ARM GAS  /var/folders/d2/nstgp4h54kz7g1l847x_b8wc0000gn/T//ccB20FE7.s 			page 339


 18944 614f DD6F0000 		.4byte	0x6fdd
 18945 6153 3C       		.uleb128 0x3c
 18946 6154 F4250000 		.4byte	.LVL587
 18947 6158 256E0000 		.4byte	0x6e25
 18948 615c 70610000 		.4byte	0x6170
 18949 6160 3D       		.uleb128 0x3d
 18950 6161 01       		.uleb128 0x1
 18951 6162 50       		.byte	0x50
 18952 6163 05       		.uleb128 0x5
 18953 6164 03       		.byte	0x3
 18954 6165 94010000 		.4byte	.LC19
 18955 6169 3D       		.uleb128 0x3d
 18956 616a 01       		.uleb128 0x1
 18957 616b 51       		.byte	0x51
 18958 616c 02       		.uleb128 0x2
 18959 616d 08       		.byte	0x8
 18960 616e 2F       		.byte	0x2f
 18961 616f 00       		.byte	0
 18962 6170 3A       		.uleb128 0x3a
 18963 6171 F8250000 		.4byte	.LVL588
 18964 6175 306E0000 		.4byte	0x6e30
 18965 6179 3C       		.uleb128 0x3c
 18966 617a 08260000 		.4byte	.LVL589
 18967 617e BC6F0000 		.4byte	0x6fbc
 18968 6182 96610000 		.4byte	0x6196
 18969 6186 3D       		.uleb128 0x3d
 18970 6187 01       		.uleb128 0x1
 18971 6188 50       		.byte	0x50
 18972 6189 05       		.uleb128 0x5
 18973 618a 03       		.byte	0x3
 18974 618b 1C060000 		.4byte	.LC46
 18975 618f 3D       		.uleb128 0x3d
 18976 6190 01       		.uleb128 0x1
 18977 6191 51       		.byte	0x51
 18978 6192 02       		.uleb128 0x2
 18979 6193 08       		.byte	0x8
 18980 6194 27       		.byte	0x27
 18981 6195 00       		.byte	0
 18982 6196 3A       		.uleb128 0x3a
 18983 6197 0C260000 		.4byte	.LVL590
 18984 619b C76F0000 		.4byte	0x6fc7
 18985 619f 3A       		.uleb128 0x3a
 18986 61a0 16260000 		.4byte	.LVL591
 18987 61a4 1A6E0000 		.4byte	0x6e1a
 18988 61a8 3C       		.uleb128 0x3c
 18989 61a9 1E260000 		.4byte	.LVL592
 18990 61ad BC6F0000 		.4byte	0x6fbc
 18991 61b1 BC610000 		.4byte	0x61bc
 18992 61b5 3D       		.uleb128 0x3d
 18993 61b6 01       		.uleb128 0x1
 18994 61b7 50       		.byte	0x50
 18995 61b8 02       		.uleb128 0x2
 18996 61b9 77       		.byte	0x77
 18997 61ba 00       		.sleb128 0
 18998 61bb 00       		.byte	0
 18999 61bc 3A       		.uleb128 0x3a
 19000 61bd 22260000 		.4byte	.LVL593
ARM GAS  /var/folders/d2/nstgp4h54kz7g1l847x_b8wc0000gn/T//ccB20FE7.s 			page 340


 19001 61c1 C76F0000 		.4byte	0x6fc7
 19002 61c5 3A       		.uleb128 0x3a
 19003 61c6 2E260000 		.4byte	.LVL594
 19004 61ca BC6F0000 		.4byte	0x6fbc
 19005 61ce 3A       		.uleb128 0x3a
 19006 61cf 32260000 		.4byte	.LVL595
 19007 61d3 C76F0000 		.4byte	0x6fc7
 19008 61d7 3C       		.uleb128 0x3c
 19009 61d8 42260000 		.4byte	.LVL596
 19010 61dc BC6F0000 		.4byte	0x6fbc
 19011 61e0 F3610000 		.4byte	0x61f3
 19012 61e4 3D       		.uleb128 0x3d
 19013 61e5 01       		.uleb128 0x1
 19014 61e6 50       		.byte	0x50
 19015 61e7 05       		.uleb128 0x5
 19016 61e8 03       		.byte	0x3
 19017 61e9 E4050000 		.4byte	.LC44
 19018 61ed 3D       		.uleb128 0x3d
 19019 61ee 01       		.uleb128 0x1
 19020 61ef 51       		.byte	0x51
 19021 61f0 01       		.uleb128 0x1
 19022 61f1 49       		.byte	0x49
 19023 61f2 00       		.byte	0
 19024 61f3 3A       		.uleb128 0x3a
 19025 61f4 46260000 		.4byte	.LVL597
 19026 61f8 C76F0000 		.4byte	0x6fc7
 19027 61fc 3C       		.uleb128 0x3c
 19028 61fd 54260000 		.4byte	.LVL598
 19029 6201 256E0000 		.4byte	0x6e25
 19030 6205 18620000 		.4byte	0x6218
 19031 6209 3D       		.uleb128 0x3d
 19032 620a 01       		.uleb128 0x1
 19033 620b 50       		.byte	0x50
 19034 620c 05       		.uleb128 0x5
 19035 620d 03       		.byte	0x3
 19036 620e 14050000 		.4byte	.LC39
 19037 6212 3D       		.uleb128 0x3d
 19038 6213 01       		.uleb128 0x1
 19039 6214 51       		.byte	0x51
 19040 6215 01       		.uleb128 0x1
 19041 6216 4F       		.byte	0x4f
 19042 6217 00       		.byte	0
 19043 6218 3A       		.uleb128 0x3a
 19044 6219 58260000 		.4byte	.LVL599
 19045 621d 306E0000 		.4byte	0x6e30
 19046 6221 3C       		.uleb128 0x3c
 19047 6222 68260000 		.4byte	.LVL600
 19048 6226 256E0000 		.4byte	0x6e25
 19049 622a 3D620000 		.4byte	0x623d
 19050 622e 3D       		.uleb128 0x3d
 19051 622f 01       		.uleb128 0x1
 19052 6230 50       		.byte	0x50
 19053 6231 05       		.uleb128 0x5
 19054 6232 03       		.byte	0x3
 19055 6233 A0020000 		.4byte	.LC25
 19056 6237 3D       		.uleb128 0x3d
 19057 6238 01       		.uleb128 0x1
ARM GAS  /var/folders/d2/nstgp4h54kz7g1l847x_b8wc0000gn/T//ccB20FE7.s 			page 341


 19058 6239 51       		.byte	0x51
 19059 623a 01       		.uleb128 0x1
 19060 623b 48       		.byte	0x48
 19061 623c 00       		.byte	0
 19062 623d 3A       		.uleb128 0x3a
 19063 623e 6C260000 		.4byte	.LVL601
 19064 6242 306E0000 		.4byte	0x6e30
 19065 6246 3A       		.uleb128 0x3a
 19066 6247 78260000 		.4byte	.LVL602
 19067 624b A66F0000 		.4byte	0x6fa6
 19068 624f 3A       		.uleb128 0x3a
 19069 6250 7E260000 		.4byte	.LVL603
 19070 6254 B16F0000 		.4byte	0x6fb1
 19071 6258 3E       		.uleb128 0x3e
 19072 6259 8A260000 		.4byte	.LVL604
 19073 625d 0F6E0000 		.4byte	0x6e0f
 19074 6261 3D       		.uleb128 0x3d
 19075 6262 01       		.uleb128 0x1
 19076 6263 50       		.byte	0x50
 19077 6264 02       		.uleb128 0x2
 19078 6265 77       		.byte	0x77
 19079 6266 00       		.sleb128 0
 19080 6267 3D       		.uleb128 0x3d
 19081 6268 01       		.uleb128 0x1
 19082 6269 51       		.byte	0x51
 19083 626a 05       		.uleb128 0x5
 19084 626b 03       		.byte	0x3
 19085 626c 78000000 		.4byte	.LC3
 19086 6270 3D       		.uleb128 0x3d
 19087 6271 01       		.uleb128 0x1
 19088 6272 52       		.byte	0x52
 19089 6273 02       		.uleb128 0x2
 19090 6274 74       		.byte	0x74
 19091 6275 00       		.sleb128 0
 19092 6276 00       		.byte	0
 19093 6277 00       		.byte	0
 19094 6278 3A       		.uleb128 0x3a
 19095 6279 22000000 		.4byte	.LVL1
 19096 627d E86F0000 		.4byte	0x6fe8
 19097 6281 3A       		.uleb128 0x3a
 19098 6282 26000000 		.4byte	.LVL2
 19099 6286 F36F0000 		.4byte	0x6ff3
 19100 628a 3A       		.uleb128 0x3a
 19101 628b 46000000 		.4byte	.LVL4
 19102 628f FE6F0000 		.4byte	0x6ffe
 19103 6293 3C       		.uleb128 0x3c
 19104 6294 68000000 		.4byte	.LVL5
 19105 6298 09700000 		.4byte	0x7009
 19106 629c BC620000 		.4byte	0x62bc
 19107 62a0 3D       		.uleb128 0x3d
 19108 62a1 01       		.uleb128 0x1
 19109 62a2 50       		.byte	0x50
 19110 62a3 02       		.uleb128 0x2
 19111 62a4 08       		.byte	0x8
 19112 62a5 7F       		.byte	0x7f
 19113 62a6 3D       		.uleb128 0x3d
 19114 62a7 01       		.uleb128 0x1
ARM GAS  /var/folders/d2/nstgp4h54kz7g1l847x_b8wc0000gn/T//ccB20FE7.s 			page 342


 19115 62a8 51       		.byte	0x51
 19116 62a9 03       		.uleb128 0x3
 19117 62aa 0A       		.byte	0xa
 19118 62ab FEFF     		.2byte	0xfffe
 19119 62ad 3D       		.uleb128 0x3d
 19120 62ae 01       		.uleb128 0x1
 19121 62af 52       		.byte	0x52
 19122 62b0 05       		.uleb128 0x5
 19123 62b1 03       		.byte	0x3
 19124 62b2 00000000 		.4byte	.LANCHOR0
 19125 62b6 3D       		.uleb128 0x3d
 19126 62b7 01       		.uleb128 0x1
 19127 62b8 53       		.byte	0x53
 19128 62b9 01       		.uleb128 0x1
 19129 62ba 31       		.byte	0x31
 19130 62bb 00       		.byte	0
 19131 62bc 3C       		.uleb128 0x3c
 19132 62bd AA000000 		.4byte	.LVL10
 19133 62c1 14700000 		.4byte	0x7014
 19134 62c5 D0620000 		.4byte	0x62d0
 19135 62c9 3D       		.uleb128 0x3d
 19136 62ca 01       		.uleb128 0x1
 19137 62cb 50       		.byte	0x50
 19138 62cc 02       		.uleb128 0x2
 19139 62cd 75       		.byte	0x75
 19140 62ce 00       		.sleb128 0
 19141 62cf 00       		.byte	0
 19142 62d0 3A       		.uleb128 0x3a
 19143 62d1 B2000000 		.4byte	.LVL11
 19144 62d5 226F0000 		.4byte	0x6f22
 19145 62d9 3A       		.uleb128 0x3a
 19146 62da B8000000 		.4byte	.LVL13
 19147 62de 176F0000 		.4byte	0x6f17
 19148 62e2 3C       		.uleb128 0x3c
 19149 62e3 08010000 		.4byte	.LVL15
 19150 62e7 14700000 		.4byte	0x7014
 19151 62eb F6620000 		.4byte	0x62f6
 19152 62ef 3D       		.uleb128 0x3d
 19153 62f0 01       		.uleb128 0x1
 19154 62f1 50       		.byte	0x50
 19155 62f2 02       		.uleb128 0x2
 19156 62f3 74       		.byte	0x74
 19157 62f4 00       		.sleb128 0
 19158 62f5 00       		.byte	0
 19159 62f6 3C       		.uleb128 0x3c
 19160 62f7 32010000 		.4byte	.LVL16
 19161 62fb 14700000 		.4byte	0x7014
 19162 62ff 0A630000 		.4byte	0x630a
 19163 6303 3D       		.uleb128 0x3d
 19164 6304 01       		.uleb128 0x1
 19165 6305 50       		.byte	0x50
 19166 6306 02       		.uleb128 0x2
 19167 6307 74       		.byte	0x74
 19168 6308 00       		.sleb128 0
 19169 6309 00       		.byte	0
 19170 630a 3C       		.uleb128 0x3c
 19171 630b BC010000 		.4byte	.LVL27
ARM GAS  /var/folders/d2/nstgp4h54kz7g1l847x_b8wc0000gn/T//ccB20FE7.s 			page 343


 19172 630f 1F700000 		.4byte	0x701f
 19173 6313 1E630000 		.4byte	0x631e
 19174 6317 3D       		.uleb128 0x3d
 19175 6318 01       		.uleb128 0x1
 19176 6319 50       		.byte	0x50
 19177 631a 02       		.uleb128 0x2
 19178 631b 75       		.byte	0x75
 19179 631c 00       		.sleb128 0
 19180 631d 00       		.byte	0
 19181 631e 3A       		.uleb128 0x3a
 19182 631f C6010000 		.4byte	.LVL28
 19183 6323 226F0000 		.4byte	0x6f22
 19184 6327 3A       		.uleb128 0x3a
 19185 6328 CC010000 		.4byte	.LVL30
 19186 632c 176F0000 		.4byte	0x6f17
 19187 6330 3C       		.uleb128 0x3c
 19188 6331 FC010000 		.4byte	.LVL32
 19189 6335 1F700000 		.4byte	0x701f
 19190 6339 44630000 		.4byte	0x6344
 19191 633d 3D       		.uleb128 0x3d
 19192 633e 01       		.uleb128 0x1
 19193 633f 50       		.byte	0x50
 19194 6340 02       		.uleb128 0x2
 19195 6341 74       		.byte	0x74
 19196 6342 00       		.sleb128 0
 19197 6343 00       		.byte	0
 19198 6344 3C       		.uleb128 0x3c
 19199 6345 26020000 		.4byte	.LVL33
 19200 6349 1F700000 		.4byte	0x701f
 19201 634d 58630000 		.4byte	0x6358
 19202 6351 3D       		.uleb128 0x3d
 19203 6352 01       		.uleb128 0x1
 19204 6353 50       		.byte	0x50
 19205 6354 02       		.uleb128 0x2
 19206 6355 74       		.byte	0x74
 19207 6356 00       		.sleb128 0
 19208 6357 00       		.byte	0
 19209 6358 3C       		.uleb128 0x3c
 19210 6359 50020000 		.4byte	.LVL36
 19211 635d 936E0000 		.4byte	0x6e93
 19212 6361 6C630000 		.4byte	0x636c
 19213 6365 3D       		.uleb128 0x3d
 19214 6366 01       		.uleb128 0x1
 19215 6367 50       		.byte	0x50
 19216 6368 02       		.uleb128 0x2
 19217 6369 74       		.byte	0x74
 19218 636a 00       		.sleb128 0
 19219 636b 00       		.byte	0
 19220 636c 3A       		.uleb128 0x3a
 19221 636d 58020000 		.4byte	.LVL37
 19222 6371 9E6E0000 		.4byte	0x6e9e
 19223 6375 3C       		.uleb128 0x3c
 19224 6376 1E030000 		.4byte	.LVL40
 19225 637a 906F0000 		.4byte	0x6f90
 19226 637e 91630000 		.4byte	0x6391
 19227 6382 3D       		.uleb128 0x3d
 19228 6383 01       		.uleb128 0x1
ARM GAS  /var/folders/d2/nstgp4h54kz7g1l847x_b8wc0000gn/T//ccB20FE7.s 			page 344


 19229 6384 50       		.byte	0x50
 19230 6385 03       		.uleb128 0x3
 19231 6386 0A       		.byte	0xa
 19232 6387 142B     		.2byte	0x2b14
 19233 6389 3D       		.uleb128 0x3d
 19234 638a 01       		.uleb128 0x1
 19235 638b 51       		.byte	0x51
 19236 638c 03       		.uleb128 0x3
 19237 638d 0A       		.byte	0xa
 19238 638e 501F     		.2byte	0x1f50
 19239 6390 00       		.byte	0
 19240 6391 3C       		.uleb128 0x3c
 19241 6392 38030000 		.4byte	.LVL43
 19242 6396 936E0000 		.4byte	0x6e93
 19243 639a A5630000 		.4byte	0x63a5
 19244 639e 3D       		.uleb128 0x3d
 19245 639f 01       		.uleb128 0x1
 19246 63a0 50       		.byte	0x50
 19247 63a1 02       		.uleb128 0x2
 19248 63a2 74       		.byte	0x74
 19249 63a3 00       		.sleb128 0
 19250 63a4 00       		.byte	0
 19251 63a5 3A       		.uleb128 0x3a
 19252 63a6 40030000 		.4byte	.LVL44
 19253 63aa 9E6E0000 		.4byte	0x6e9e
 19254 63ae 3C       		.uleb128 0x3c
 19255 63af C0030000 		.4byte	.LVL47
 19256 63b3 906F0000 		.4byte	0x6f90
 19257 63b7 CA630000 		.4byte	0x63ca
 19258 63bb 3D       		.uleb128 0x3d
 19259 63bc 01       		.uleb128 0x1
 19260 63bd 50       		.byte	0x50
 19261 63be 03       		.uleb128 0x3
 19262 63bf 0A       		.byte	0xa
 19263 63c0 142B     		.2byte	0x2b14
 19264 63c2 3D       		.uleb128 0x3d
 19265 63c3 01       		.uleb128 0x1
 19266 63c4 51       		.byte	0x51
 19267 63c5 03       		.uleb128 0x3
 19268 63c6 0A       		.byte	0xa
 19269 63c7 501F     		.2byte	0x1f50
 19270 63c9 00       		.byte	0
 19271 63ca 3C       		.uleb128 0x3c
 19272 63cb 0E050000 		.4byte	.LVL49
 19273 63cf 14700000 		.4byte	0x7014
 19274 63d3 DE630000 		.4byte	0x63de
 19275 63d7 3D       		.uleb128 0x3d
 19276 63d8 01       		.uleb128 0x1
 19277 63d9 50       		.byte	0x50
 19278 63da 02       		.uleb128 0x2
 19279 63db 76       		.byte	0x76
 19280 63dc 00       		.sleb128 0
 19281 63dd 00       		.byte	0
 19282 63de 3C       		.uleb128 0x3c
 19283 63df 26050000 		.4byte	.LVL50
 19284 63e3 1F700000 		.4byte	0x701f
 19285 63e7 F2630000 		.4byte	0x63f2
ARM GAS  /var/folders/d2/nstgp4h54kz7g1l847x_b8wc0000gn/T//ccB20FE7.s 			page 345


 19286 63eb 3D       		.uleb128 0x3d
 19287 63ec 01       		.uleb128 0x1
 19288 63ed 50       		.byte	0x50
 19289 63ee 02       		.uleb128 0x2
 19290 63ef 76       		.byte	0x76
 19291 63f0 00       		.sleb128 0
 19292 63f1 00       		.byte	0
 19293 63f2 3C       		.uleb128 0x3c
 19294 63f3 30050000 		.4byte	.LVL51
 19295 63f7 1F700000 		.4byte	0x701f
 19296 63fb 06640000 		.4byte	0x6406
 19297 63ff 3D       		.uleb128 0x3d
 19298 6400 01       		.uleb128 0x1
 19299 6401 50       		.byte	0x50
 19300 6402 02       		.uleb128 0x2
 19301 6403 76       		.byte	0x76
 19302 6404 00       		.sleb128 0
 19303 6405 00       		.byte	0
 19304 6406 3A       		.uleb128 0x3a
 19305 6407 3A050000 		.4byte	.LVL52
 19306 640b 4E6F0000 		.4byte	0x6f4e
 19307 640f 3A       		.uleb128 0x3a
 19308 6410 50050000 		.4byte	.LVL53
 19309 6414 596F0000 		.4byte	0x6f59
 19310 6418 3A       		.uleb128 0x3a
 19311 6419 5C060000 		.4byte	.LVL60
 19312 641d 2A700000 		.4byte	0x702a
 19313 6421 3A       		.uleb128 0x3a
 19314 6422 A2060000 		.4byte	.LVL63
 19315 6426 D56E0000 		.4byte	0x6ed5
 19316 642a 3A       		.uleb128 0x3a
 19317 642b CC060000 		.4byte	.LVL64
 19318 642f 856F0000 		.4byte	0x6f85
 19319 6433 3C       		.uleb128 0x3c
 19320 6434 06070000 		.4byte	.LVL65
 19321 6438 EB6E0000 		.4byte	0x6eeb
 19322 643c 46640000 		.4byte	0x6446
 19323 6440 3D       		.uleb128 0x3d
 19324 6441 01       		.uleb128 0x1
 19325 6442 50       		.byte	0x50
 19326 6443 01       		.uleb128 0x1
 19327 6444 30       		.byte	0x30
 19328 6445 00       		.byte	0
 19329 6446 3C       		.uleb128 0x3c
 19330 6447 1E070000 		.4byte	.LVL66
 19331 644b EB6E0000 		.4byte	0x6eeb
 19332 644f 59640000 		.4byte	0x6459
 19333 6453 3D       		.uleb128 0x3d
 19334 6454 01       		.uleb128 0x1
 19335 6455 50       		.byte	0x50
 19336 6456 01       		.uleb128 0x1
 19337 6457 31       		.byte	0x31
 19338 6458 00       		.byte	0
 19339 6459 3C       		.uleb128 0x3c
 19340 645a 36070000 		.4byte	.LVL67
 19341 645e EB6E0000 		.4byte	0x6eeb
 19342 6462 6C640000 		.4byte	0x646c
ARM GAS  /var/folders/d2/nstgp4h54kz7g1l847x_b8wc0000gn/T//ccB20FE7.s 			page 346


 19343 6466 3D       		.uleb128 0x3d
 19344 6467 01       		.uleb128 0x1
 19345 6468 50       		.byte	0x50
 19346 6469 01       		.uleb128 0x1
 19347 646a 32       		.byte	0x32
 19348 646b 00       		.byte	0
 19349 646c 3C       		.uleb128 0x3c
 19350 646d 4E070000 		.4byte	.LVL68
 19351 6471 EB6E0000 		.4byte	0x6eeb
 19352 6475 7F640000 		.4byte	0x647f
 19353 6479 3D       		.uleb128 0x3d
 19354 647a 01       		.uleb128 0x1
 19355 647b 50       		.byte	0x50
 19356 647c 01       		.uleb128 0x1
 19357 647d 33       		.byte	0x33
 19358 647e 00       		.byte	0
 19359 647f 3A       		.uleb128 0x3a
 19360 6480 64070000 		.4byte	.LVL69
 19361 6484 4E6F0000 		.4byte	0x6f4e
 19362 6488 3A       		.uleb128 0x3a
 19363 6489 7A070000 		.4byte	.LVL70
 19364 648d 596F0000 		.4byte	0x6f59
 19365 6491 3A       		.uleb128 0x3a
 19366 6492 90070000 		.4byte	.LVL71
 19367 6496 A66F0000 		.4byte	0x6fa6
 19368 649a 3A       		.uleb128 0x3a
 19369 649b A6070000 		.4byte	.LVL72
 19370 649f 35700000 		.4byte	0x7035
 19371 64a3 3A       		.uleb128 0x3a
 19372 64a4 BE070000 		.4byte	.LVL73
 19373 64a8 0C6F0000 		.4byte	0x6f0c
 19374 64ac 3A       		.uleb128 0x3a
 19375 64ad D0070000 		.4byte	.LVL74
 19376 64b1 176F0000 		.4byte	0x6f17
 19377 64b5 3A       		.uleb128 0x3a
 19378 64b6 E2070000 		.4byte	.LVL75
 19379 64ba 226F0000 		.4byte	0x6f22
 19380 64be 3A       		.uleb128 0x3a
 19381 64bf 26080000 		.4byte	.LVL76
 19382 64c3 436F0000 		.4byte	0x6f43
 19383 64c7 3A       		.uleb128 0x3a
 19384 64c8 50080000 		.4byte	.LVL77
 19385 64cc 40700000 		.4byte	0x7040
 19386 64d0 3C       		.uleb128 0x3c
 19387 64d1 84080000 		.4byte	.LVL79
 19388 64d5 EB6E0000 		.4byte	0x6eeb
 19389 64d9 E3640000 		.4byte	0x64e3
 19390 64dd 3D       		.uleb128 0x3d
 19391 64de 01       		.uleb128 0x1
 19392 64df 50       		.byte	0x50
 19393 64e0 01       		.uleb128 0x1
 19394 64e1 30       		.byte	0x30
 19395 64e2 00       		.byte	0
 19396 64e3 3C       		.uleb128 0x3c
 19397 64e4 9C080000 		.4byte	.LVL80
 19398 64e8 EB6E0000 		.4byte	0x6eeb
 19399 64ec F6640000 		.4byte	0x64f6
ARM GAS  /var/folders/d2/nstgp4h54kz7g1l847x_b8wc0000gn/T//ccB20FE7.s 			page 347


 19400 64f0 3D       		.uleb128 0x3d
 19401 64f1 01       		.uleb128 0x1
 19402 64f2 50       		.byte	0x50
 19403 64f3 01       		.uleb128 0x1
 19404 64f4 31       		.byte	0x31
 19405 64f5 00       		.byte	0
 19406 64f6 3C       		.uleb128 0x3c
 19407 64f7 B4080000 		.4byte	.LVL81
 19408 64fb EB6E0000 		.4byte	0x6eeb
 19409 64ff 09650000 		.4byte	0x6509
 19410 6503 3D       		.uleb128 0x3d
 19411 6504 01       		.uleb128 0x1
 19412 6505 50       		.byte	0x50
 19413 6506 01       		.uleb128 0x1
 19414 6507 32       		.byte	0x32
 19415 6508 00       		.byte	0
 19416 6509 3C       		.uleb128 0x3c
 19417 650a 1C090000 		.4byte	.LVL82
 19418 650e 14700000 		.4byte	0x7014
 19419 6512 1D650000 		.4byte	0x651d
 19420 6516 3D       		.uleb128 0x3d
 19421 6517 01       		.uleb128 0x1
 19422 6518 50       		.byte	0x50
 19423 6519 02       		.uleb128 0x2
 19424 651a 74       		.byte	0x74
 19425 651b 00       		.sleb128 0
 19426 651c 00       		.byte	0
 19427 651d 3C       		.uleb128 0x3c
 19428 651e 28090000 		.4byte	.LVL83
 19429 6522 14700000 		.4byte	0x7014
 19430 6526 31650000 		.4byte	0x6531
 19431 652a 3D       		.uleb128 0x3d
 19432 652b 01       		.uleb128 0x1
 19433 652c 50       		.byte	0x50
 19434 652d 02       		.uleb128 0x2
 19435 652e 74       		.byte	0x74
 19436 652f 00       		.sleb128 0
 19437 6530 00       		.byte	0
 19438 6531 3C       		.uleb128 0x3c
 19439 6532 44090000 		.4byte	.LVL84
 19440 6536 14700000 		.4byte	0x7014
 19441 653a 45650000 		.4byte	0x6545
 19442 653e 3D       		.uleb128 0x3d
 19443 653f 01       		.uleb128 0x1
 19444 6540 50       		.byte	0x50
 19445 6541 02       		.uleb128 0x2
 19446 6542 74       		.byte	0x74
 19447 6543 00       		.sleb128 0
 19448 6544 00       		.byte	0
 19449 6545 3C       		.uleb128 0x3c
 19450 6546 50090000 		.4byte	.LVL85
 19451 654a 14700000 		.4byte	0x7014
 19452 654e 59650000 		.4byte	0x6559
 19453 6552 3D       		.uleb128 0x3d
 19454 6553 01       		.uleb128 0x1
 19455 6554 50       		.byte	0x50
 19456 6555 02       		.uleb128 0x2
ARM GAS  /var/folders/d2/nstgp4h54kz7g1l847x_b8wc0000gn/T//ccB20FE7.s 			page 348


 19457 6556 74       		.byte	0x74
 19458 6557 00       		.sleb128 0
 19459 6558 00       		.byte	0
 19460 6559 3A       		.uleb128 0x3a
 19461 655a 6E090000 		.4byte	.LVL86
 19462 655e 936E0000 		.4byte	0x6e93
 19463 6562 3A       		.uleb128 0x3a
 19464 6563 74090000 		.4byte	.LVL87
 19465 6567 9E6E0000 		.4byte	0x6e9e
 19466 656b 3C       		.uleb128 0x3c
 19467 656c 7C090000 		.4byte	.LVL88
 19468 6570 1F700000 		.4byte	0x701f
 19469 6574 7F650000 		.4byte	0x657f
 19470 6578 3D       		.uleb128 0x3d
 19471 6579 01       		.uleb128 0x1
 19472 657a 50       		.byte	0x50
 19473 657b 02       		.uleb128 0x2
 19474 657c 74       		.byte	0x74
 19475 657d 00       		.sleb128 0
 19476 657e 00       		.byte	0
 19477 657f 3C       		.uleb128 0x3c
 19478 6580 88090000 		.4byte	.LVL89
 19479 6584 1F700000 		.4byte	0x701f
 19480 6588 93650000 		.4byte	0x6593
 19481 658c 3D       		.uleb128 0x3d
 19482 658d 01       		.uleb128 0x1
 19483 658e 50       		.byte	0x50
 19484 658f 02       		.uleb128 0x2
 19485 6590 74       		.byte	0x74
 19486 6591 00       		.sleb128 0
 19487 6592 00       		.byte	0
 19488 6593 3C       		.uleb128 0x3c
 19489 6594 A4090000 		.4byte	.LVL90
 19490 6598 1F700000 		.4byte	0x701f
 19491 659c A7650000 		.4byte	0x65a7
 19492 65a0 3D       		.uleb128 0x3d
 19493 65a1 01       		.uleb128 0x1
 19494 65a2 50       		.byte	0x50
 19495 65a3 02       		.uleb128 0x2
 19496 65a4 74       		.byte	0x74
 19497 65a5 00       		.sleb128 0
 19498 65a6 00       		.byte	0
 19499 65a7 3C       		.uleb128 0x3c
 19500 65a8 B0090000 		.4byte	.LVL91
 19501 65ac 1F700000 		.4byte	0x701f
 19502 65b0 BB650000 		.4byte	0x65bb
 19503 65b4 3D       		.uleb128 0x3d
 19504 65b5 01       		.uleb128 0x1
 19505 65b6 50       		.byte	0x50
 19506 65b7 02       		.uleb128 0x2
 19507 65b8 74       		.byte	0x74
 19508 65b9 00       		.sleb128 0
 19509 65ba 00       		.byte	0
 19510 65bb 3A       		.uleb128 0x3a
 19511 65bc C6090000 		.4byte	.LVL92
 19512 65c0 436F0000 		.4byte	0x6f43
 19513 65c4 3A       		.uleb128 0x3a
ARM GAS  /var/folders/d2/nstgp4h54kz7g1l847x_b8wc0000gn/T//ccB20FE7.s 			page 349


 19514 65c5 F0090000 		.4byte	.LVL93
 19515 65c9 436F0000 		.4byte	0x6f43
 19516 65cd 3A       		.uleb128 0x3a
 19517 65ce 160A0000 		.4byte	.LVL94
 19518 65d2 A66F0000 		.4byte	0x6fa6
 19519 65d6 3C       		.uleb128 0x3c
 19520 65d7 300A0000 		.4byte	.LVL96
 19521 65db EB6E0000 		.4byte	0x6eeb
 19522 65df E9650000 		.4byte	0x65e9
 19523 65e3 3D       		.uleb128 0x3d
 19524 65e4 01       		.uleb128 0x1
 19525 65e5 50       		.byte	0x50
 19526 65e6 01       		.uleb128 0x1
 19527 65e7 30       		.byte	0x30
 19528 65e8 00       		.byte	0
 19529 65e9 3C       		.uleb128 0x3c
 19530 65ea 480A0000 		.4byte	.LVL97
 19531 65ee EB6E0000 		.4byte	0x6eeb
 19532 65f2 FC650000 		.4byte	0x65fc
 19533 65f6 3D       		.uleb128 0x3d
 19534 65f7 01       		.uleb128 0x1
 19535 65f8 50       		.byte	0x50
 19536 65f9 01       		.uleb128 0x1
 19537 65fa 31       		.byte	0x31
 19538 65fb 00       		.byte	0
 19539 65fc 3C       		.uleb128 0x3c
 19540 65fd 600A0000 		.4byte	.LVL98
 19541 6601 EB6E0000 		.4byte	0x6eeb
 19542 6605 0F660000 		.4byte	0x660f
 19543 6609 3D       		.uleb128 0x3d
 19544 660a 01       		.uleb128 0x1
 19545 660b 50       		.byte	0x50
 19546 660c 01       		.uleb128 0x1
 19547 660d 32       		.byte	0x32
 19548 660e 00       		.byte	0
 19549 660f 3C       		.uleb128 0x3c
 19550 6610 780A0000 		.4byte	.LVL99
 19551 6614 EB6E0000 		.4byte	0x6eeb
 19552 6618 22660000 		.4byte	0x6622
 19553 661c 3D       		.uleb128 0x3d
 19554 661d 01       		.uleb128 0x1
 19555 661e 50       		.byte	0x50
 19556 661f 01       		.uleb128 0x1
 19557 6620 33       		.byte	0x33
 19558 6621 00       		.byte	0
 19559 6622 3A       		.uleb128 0x3a
 19560 6623 880A0000 		.4byte	.LVL100
 19561 6627 4B700000 		.4byte	0x704b
 19562 662b 3A       		.uleb128 0x3a
 19563 662c A60A0000 		.4byte	.LVL101
 19564 6630 14700000 		.4byte	0x7014
 19565 6634 3C       		.uleb128 0x3c
 19566 6635 CC0A0000 		.4byte	.LVL102
 19567 6639 56700000 		.4byte	0x7056
 19568 663d 47660000 		.4byte	0x6647
 19569 6641 3D       		.uleb128 0x3d
 19570 6642 01       		.uleb128 0x1
ARM GAS  /var/folders/d2/nstgp4h54kz7g1l847x_b8wc0000gn/T//ccB20FE7.s 			page 350


 19571 6643 50       		.byte	0x50
 19572 6644 01       		.uleb128 0x1
 19573 6645 30       		.byte	0x30
 19574 6646 00       		.byte	0
 19575 6647 3C       		.uleb128 0x3c
 19576 6648 D80A0000 		.4byte	.LVL103
 19577 664c 56700000 		.4byte	0x7056
 19578 6650 5A660000 		.4byte	0x665a
 19579 6654 3D       		.uleb128 0x3d
 19580 6655 01       		.uleb128 0x1
 19581 6656 50       		.byte	0x50
 19582 6657 01       		.uleb128 0x1
 19583 6658 31       		.byte	0x31
 19584 6659 00       		.byte	0
 19585 665a 3C       		.uleb128 0x3c
 19586 665b E40A0000 		.4byte	.LVL104
 19587 665f 56700000 		.4byte	0x7056
 19588 6663 6D660000 		.4byte	0x666d
 19589 6667 3D       		.uleb128 0x3d
 19590 6668 01       		.uleb128 0x1
 19591 6669 50       		.byte	0x50
 19592 666a 01       		.uleb128 0x1
 19593 666b 32       		.byte	0x32
 19594 666c 00       		.byte	0
 19595 666d 3C       		.uleb128 0x3c
 19596 666e F00A0000 		.4byte	.LVL105
 19597 6672 56700000 		.4byte	0x7056
 19598 6676 80660000 		.4byte	0x6680
 19599 667a 3D       		.uleb128 0x3d
 19600 667b 01       		.uleb128 0x1
 19601 667c 50       		.byte	0x50
 19602 667d 01       		.uleb128 0x1
 19603 667e 33       		.byte	0x33
 19604 667f 00       		.byte	0
 19605 6680 3A       		.uleb128 0x3a
 19606 6681 FE0A0000 		.4byte	.LVL106
 19607 6685 1F700000 		.4byte	0x701f
 19608 6689 3F       		.uleb128 0x3f
 19609 668a 300B0000 		.4byte	.LVL107
 19610 668e 9F660000 		.4byte	0x669f
 19611 6692 3D       		.uleb128 0x3d
 19612 6693 01       		.uleb128 0x1
 19613 6694 51       		.byte	0x51
 19614 6695 03       		.uleb128 0x3
 19615 6696 91       		.byte	0x91
 19616 6697 B87F     		.sleb128 -72
 19617 6699 3D       		.uleb128 0x3d
 19618 669a 01       		.uleb128 0x1
 19619 669b 52       		.byte	0x52
 19620 669c 01       		.uleb128 0x1
 19621 669d 43       		.byte	0x43
 19622 669e 00       		.byte	0
 19623 669f 3A       		.uleb128 0x3a
 19624 66a0 340B0000 		.4byte	.LVL108
 19625 66a4 61700000 		.4byte	0x7061
 19626 66a8 3A       		.uleb128 0x3a
 19627 66a9 6E0B0000 		.4byte	.LVL109
ARM GAS  /var/folders/d2/nstgp4h54kz7g1l847x_b8wc0000gn/T//ccB20FE7.s 			page 351


 19628 66ad 2D6F0000 		.4byte	0x6f2d
 19629 66b1 3A       		.uleb128 0x3a
 19630 66b2 740B0000 		.4byte	.LVL110
 19631 66b6 386F0000 		.4byte	0x6f38
 19632 66ba 3A       		.uleb128 0x3a
 19633 66bb 880B0000 		.4byte	.LVL111
 19634 66bf 6C700000 		.4byte	0x706c
 19635 66c3 3A       		.uleb128 0x3a
 19636 66c4 9C0B0000 		.4byte	.LVL112
 19637 66c8 6C700000 		.4byte	0x706c
 19638 66cc 3C       		.uleb128 0x3c
 19639 66cd AE0B0000 		.4byte	.LVL113
 19640 66d1 6C700000 		.4byte	0x706c
 19641 66d5 DF660000 		.4byte	0x66df
 19642 66d9 3D       		.uleb128 0x3d
 19643 66da 01       		.uleb128 0x1
 19644 66db 50       		.byte	0x50
 19645 66dc 01       		.uleb128 0x1
 19646 66dd 32       		.byte	0x32
 19647 66de 00       		.byte	0
 19648 66df 3C       		.uleb128 0x3c
 19649 66e0 C00B0000 		.4byte	.LVL114
 19650 66e4 6C700000 		.4byte	0x706c
 19651 66e8 F2660000 		.4byte	0x66f2
 19652 66ec 3D       		.uleb128 0x3d
 19653 66ed 01       		.uleb128 0x1
 19654 66ee 50       		.byte	0x50
 19655 66ef 01       		.uleb128 0x1
 19656 66f0 33       		.byte	0x33
 19657 66f1 00       		.byte	0
 19658 66f2 3A       		.uleb128 0x3a
 19659 66f3 D00B0000 		.4byte	.LVL115
 19660 66f7 77700000 		.4byte	0x7077
 19661 66fb 3A       		.uleb128 0x3a
 19662 66fc E00B0000 		.4byte	.LVL116
 19663 6700 82700000 		.4byte	0x7082
 19664 6704 3C       		.uleb128 0x3c
 19665 6705 F20B0000 		.4byte	.LVL117
 19666 6709 56700000 		.4byte	0x7056
 19667 670d 17670000 		.4byte	0x6717
 19668 6711 3D       		.uleb128 0x3d
 19669 6712 01       		.uleb128 0x1
 19670 6713 50       		.byte	0x50
 19671 6714 01       		.uleb128 0x1
 19672 6715 30       		.byte	0x30
 19673 6716 00       		.byte	0
 19674 6717 3C       		.uleb128 0x3c
 19675 6718 040C0000 		.4byte	.LVL118
 19676 671c 56700000 		.4byte	0x7056
 19677 6720 2A670000 		.4byte	0x672a
 19678 6724 3D       		.uleb128 0x3d
 19679 6725 01       		.uleb128 0x1
 19680 6726 50       		.byte	0x50
 19681 6727 01       		.uleb128 0x1
 19682 6728 31       		.byte	0x31
 19683 6729 00       		.byte	0
 19684 672a 3C       		.uleb128 0x3c
ARM GAS  /var/folders/d2/nstgp4h54kz7g1l847x_b8wc0000gn/T//ccB20FE7.s 			page 352


 19685 672b 160C0000 		.4byte	.LVL119
 19686 672f 56700000 		.4byte	0x7056
 19687 6733 3D670000 		.4byte	0x673d
 19688 6737 3D       		.uleb128 0x3d
 19689 6738 01       		.uleb128 0x1
 19690 6739 50       		.byte	0x50
 19691 673a 01       		.uleb128 0x1
 19692 673b 32       		.byte	0x32
 19693 673c 00       		.byte	0
 19694 673d 3C       		.uleb128 0x3c
 19695 673e 280C0000 		.4byte	.LVL120
 19696 6742 56700000 		.4byte	0x7056
 19697 6746 50670000 		.4byte	0x6750
 19698 674a 3D       		.uleb128 0x3d
 19699 674b 01       		.uleb128 0x1
 19700 674c 50       		.byte	0x50
 19701 674d 01       		.uleb128 0x1
 19702 674e 33       		.byte	0x33
 19703 674f 00       		.byte	0
 19704 6750 3A       		.uleb128 0x3a
 19705 6751 540C0000 		.4byte	.LVL121
 19706 6755 D26F0000 		.4byte	0x6fd2
 19707 6759 3A       		.uleb128 0x3a
 19708 675a 580C0000 		.4byte	.LVL122
 19709 675e DD6F0000 		.4byte	0x6fdd
 19710 6762 3C       		.uleb128 0x3c
 19711 6763 6C0C0000 		.4byte	.LVL123
 19712 6767 14700000 		.4byte	0x7014
 19713 676b 76670000 		.4byte	0x6776
 19714 676f 3D       		.uleb128 0x3d
 19715 6770 01       		.uleb128 0x1
 19716 6771 50       		.byte	0x50
 19717 6772 02       		.uleb128 0x2
 19718 6773 74       		.byte	0x74
 19719 6774 00       		.sleb128 0
 19720 6775 00       		.byte	0
 19721 6776 3C       		.uleb128 0x3c
 19722 6777 780C0000 		.4byte	.LVL124
 19723 677b 14700000 		.4byte	0x7014
 19724 677f 8A670000 		.4byte	0x678a
 19725 6783 3D       		.uleb128 0x3d
 19726 6784 01       		.uleb128 0x1
 19727 6785 50       		.byte	0x50
 19728 6786 02       		.uleb128 0x2
 19729 6787 74       		.byte	0x74
 19730 6788 00       		.sleb128 0
 19731 6789 00       		.byte	0
 19732 678a 3C       		.uleb128 0x3c
 19733 678b 840C0000 		.4byte	.LVL125
 19734 678f 14700000 		.4byte	0x7014
 19735 6793 9E670000 		.4byte	0x679e
 19736 6797 3D       		.uleb128 0x3d
 19737 6798 01       		.uleb128 0x1
 19738 6799 50       		.byte	0x50
 19739 679a 02       		.uleb128 0x2
 19740 679b 74       		.byte	0x74
 19741 679c 00       		.sleb128 0
ARM GAS  /var/folders/d2/nstgp4h54kz7g1l847x_b8wc0000gn/T//ccB20FE7.s 			page 353


 19742 679d 00       		.byte	0
 19743 679e 3A       		.uleb128 0x3a
 19744 679f 8C0C0000 		.4byte	.LVL126
 19745 67a3 466E0000 		.4byte	0x6e46
 19746 67a7 3A       		.uleb128 0x3a
 19747 67a8 9C0C0000 		.4byte	.LVL127
 19748 67ac BF6E0000 		.4byte	0x6ebf
 19749 67b0 3A       		.uleb128 0x3a
 19750 67b1 A00C0000 		.4byte	.LVL128
 19751 67b5 5C6E0000 		.4byte	0x6e5c
 19752 67b9 3C       		.uleb128 0x3c
 19753 67ba A80C0000 		.4byte	.LVL129
 19754 67be 1F700000 		.4byte	0x701f
 19755 67c2 CD670000 		.4byte	0x67cd
 19756 67c6 3D       		.uleb128 0x3d
 19757 67c7 01       		.uleb128 0x1
 19758 67c8 50       		.byte	0x50
 19759 67c9 02       		.uleb128 0x2
 19760 67ca 74       		.byte	0x74
 19761 67cb 00       		.sleb128 0
 19762 67cc 00       		.byte	0
 19763 67cd 3C       		.uleb128 0x3c
 19764 67ce B40C0000 		.4byte	.LVL130
 19765 67d2 1F700000 		.4byte	0x701f
 19766 67d6 E1670000 		.4byte	0x67e1
 19767 67da 3D       		.uleb128 0x3d
 19768 67db 01       		.uleb128 0x1
 19769 67dc 50       		.byte	0x50
 19770 67dd 02       		.uleb128 0x2
 19771 67de 74       		.byte	0x74
 19772 67df 00       		.sleb128 0
 19773 67e0 00       		.byte	0
 19774 67e1 3C       		.uleb128 0x3c
 19775 67e2 C00C0000 		.4byte	.LVL131
 19776 67e6 1F700000 		.4byte	0x701f
 19777 67ea F5670000 		.4byte	0x67f5
 19778 67ee 3D       		.uleb128 0x3d
 19779 67ef 01       		.uleb128 0x1
 19780 67f0 50       		.byte	0x50
 19781 67f1 02       		.uleb128 0x2
 19782 67f2 74       		.byte	0x74
 19783 67f3 00       		.sleb128 0
 19784 67f4 00       		.byte	0
 19785 67f5 3A       		.uleb128 0x3a
 19786 67f6 D00C0000 		.4byte	.LVL132
 19787 67fa 856F0000 		.4byte	0x6f85
 19788 67fe 3A       		.uleb128 0x3a
 19789 67ff F60C0000 		.4byte	.LVL133
 19790 6803 35700000 		.4byte	0x7035
 19791 6807 3A       		.uleb128 0x3a
 19792 6808 AE0D0000 		.4byte	.LVL142
 19793 680c 8D700000 		.4byte	0x708d
 19794 6810 3C       		.uleb128 0x3c
 19795 6811 140E0000 		.4byte	.LVL146
 19796 6815 14700000 		.4byte	0x7014
 19797 6819 24680000 		.4byte	0x6824
 19798 681d 3D       		.uleb128 0x3d
ARM GAS  /var/folders/d2/nstgp4h54kz7g1l847x_b8wc0000gn/T//ccB20FE7.s 			page 354


 19799 681e 01       		.uleb128 0x1
 19800 681f 50       		.byte	0x50
 19801 6820 02       		.uleb128 0x2
 19802 6821 74       		.byte	0x74
 19803 6822 00       		.sleb128 0
 19804 6823 00       		.byte	0
 19805 6824 3C       		.uleb128 0x3c
 19806 6825 200E0000 		.4byte	.LVL147
 19807 6829 14700000 		.4byte	0x7014
 19808 682d 38680000 		.4byte	0x6838
 19809 6831 3D       		.uleb128 0x3d
 19810 6832 01       		.uleb128 0x1
 19811 6833 50       		.byte	0x50
 19812 6834 02       		.uleb128 0x2
 19813 6835 74       		.byte	0x74
 19814 6836 00       		.sleb128 0
 19815 6837 00       		.byte	0
 19816 6838 3C       		.uleb128 0x3c
 19817 6839 3C0E0000 		.4byte	.LVL148
 19818 683d 14700000 		.4byte	0x7014
 19819 6841 4C680000 		.4byte	0x684c
 19820 6845 3D       		.uleb128 0x3d
 19821 6846 01       		.uleb128 0x1
 19822 6847 50       		.byte	0x50
 19823 6848 02       		.uleb128 0x2
 19824 6849 74       		.byte	0x74
 19825 684a 00       		.sleb128 0
 19826 684b 00       		.byte	0
 19827 684c 3C       		.uleb128 0x3c
 19828 684d 480E0000 		.4byte	.LVL149
 19829 6851 14700000 		.4byte	0x7014
 19830 6855 60680000 		.4byte	0x6860
 19831 6859 3D       		.uleb128 0x3d
 19832 685a 01       		.uleb128 0x1
 19833 685b 50       		.byte	0x50
 19834 685c 02       		.uleb128 0x2
 19835 685d 74       		.byte	0x74
 19836 685e 00       		.sleb128 0
 19837 685f 00       		.byte	0
 19838 6860 3A       		.uleb128 0x3a
 19839 6861 660E0000 		.4byte	.LVL150
 19840 6865 2D6F0000 		.4byte	0x6f2d
 19841 6869 3A       		.uleb128 0x3a
 19842 686a 6C0E0000 		.4byte	.LVL151
 19843 686e 386F0000 		.4byte	0x6f38
 19844 6872 3C       		.uleb128 0x3c
 19845 6873 760E0000 		.4byte	.LVL152
 19846 6877 1F700000 		.4byte	0x701f
 19847 687b 86680000 		.4byte	0x6886
 19848 687f 3D       		.uleb128 0x3d
 19849 6880 01       		.uleb128 0x1
 19850 6881 50       		.byte	0x50
 19851 6882 02       		.uleb128 0x2
 19852 6883 74       		.byte	0x74
 19853 6884 00       		.sleb128 0
 19854 6885 00       		.byte	0
 19855 6886 3C       		.uleb128 0x3c
ARM GAS  /var/folders/d2/nstgp4h54kz7g1l847x_b8wc0000gn/T//ccB20FE7.s 			page 355


 19856 6887 820E0000 		.4byte	.LVL153
 19857 688b 1F700000 		.4byte	0x701f
 19858 688f 9A680000 		.4byte	0x689a
 19859 6893 3D       		.uleb128 0x3d
 19860 6894 01       		.uleb128 0x1
 19861 6895 50       		.byte	0x50
 19862 6896 02       		.uleb128 0x2
 19863 6897 74       		.byte	0x74
 19864 6898 00       		.sleb128 0
 19865 6899 00       		.byte	0
 19866 689a 3C       		.uleb128 0x3c
 19867 689b 9E0E0000 		.4byte	.LVL154
 19868 689f 1F700000 		.4byte	0x701f
 19869 68a3 AE680000 		.4byte	0x68ae
 19870 68a7 3D       		.uleb128 0x3d
 19871 68a8 01       		.uleb128 0x1
 19872 68a9 50       		.byte	0x50
 19873 68aa 02       		.uleb128 0x2
 19874 68ab 74       		.byte	0x74
 19875 68ac 00       		.sleb128 0
 19876 68ad 00       		.byte	0
 19877 68ae 3C       		.uleb128 0x3c
 19878 68af AA0E0000 		.4byte	.LVL155
 19879 68b3 1F700000 		.4byte	0x701f
 19880 68b7 C2680000 		.4byte	0x68c2
 19881 68bb 3D       		.uleb128 0x3d
 19882 68bc 01       		.uleb128 0x1
 19883 68bd 50       		.byte	0x50
 19884 68be 02       		.uleb128 0x2
 19885 68bf 74       		.byte	0x74
 19886 68c0 00       		.sleb128 0
 19887 68c1 00       		.byte	0
 19888 68c2 3C       		.uleb128 0x3c
 19889 68c3 BE0E0000 		.4byte	.LVL156
 19890 68c7 14700000 		.4byte	0x7014
 19891 68cb D6680000 		.4byte	0x68d6
 19892 68cf 3D       		.uleb128 0x3d
 19893 68d0 01       		.uleb128 0x1
 19894 68d1 50       		.byte	0x50
 19895 68d2 02       		.uleb128 0x2
 19896 68d3 74       		.byte	0x74
 19897 68d4 00       		.sleb128 0
 19898 68d5 00       		.byte	0
 19899 68d6 3C       		.uleb128 0x3c
 19900 68d7 CA0E0000 		.4byte	.LVL157
 19901 68db 14700000 		.4byte	0x7014
 19902 68df EA680000 		.4byte	0x68ea
 19903 68e3 3D       		.uleb128 0x3d
 19904 68e4 01       		.uleb128 0x1
 19905 68e5 50       		.byte	0x50
 19906 68e6 02       		.uleb128 0x2
 19907 68e7 74       		.byte	0x74
 19908 68e8 00       		.sleb128 0
 19909 68e9 00       		.byte	0
 19910 68ea 3A       		.uleb128 0x3a
 19911 68eb E60E0000 		.4byte	.LVL158
 19912 68ef CA6E0000 		.4byte	0x6eca
ARM GAS  /var/folders/d2/nstgp4h54kz7g1l847x_b8wc0000gn/T//ccB20FE7.s 			page 356


 19913 68f3 3C       		.uleb128 0x3c
 19914 68f4 F00E0000 		.4byte	.LVL159
 19915 68f8 1F700000 		.4byte	0x701f
 19916 68fc 07690000 		.4byte	0x6907
 19917 6900 3D       		.uleb128 0x3d
 19918 6901 01       		.uleb128 0x1
 19919 6902 50       		.byte	0x50
 19920 6903 02       		.uleb128 0x2
 19921 6904 74       		.byte	0x74
 19922 6905 00       		.sleb128 0
 19923 6906 00       		.byte	0
 19924 6907 3C       		.uleb128 0x3c
 19925 6908 FC0E0000 		.4byte	.LVL160
 19926 690c 1F700000 		.4byte	0x701f
 19927 6910 1B690000 		.4byte	0x691b
 19928 6914 3D       		.uleb128 0x3d
 19929 6915 01       		.uleb128 0x1
 19930 6916 50       		.byte	0x50
 19931 6917 02       		.uleb128 0x2
 19932 6918 74       		.byte	0x74
 19933 6919 00       		.sleb128 0
 19934 691a 00       		.byte	0
 19935 691b 3A       		.uleb128 0x3a
 19936 691c 0C0F0000 		.4byte	.LVL161
 19937 6920 D56E0000 		.4byte	0x6ed5
 19938 6924 3A       		.uleb128 0x3a
 19939 6925 5E0F0000 		.4byte	.LVL162
 19940 6929 466E0000 		.4byte	0x6e46
 19941 692d 3A       		.uleb128 0x3a
 19942 692e 700F0000 		.4byte	.LVL163
 19943 6932 14700000 		.4byte	0x7014
 19944 6936 3A       		.uleb128 0x3a
 19945 6937 960F0000 		.4byte	.LVL164
 19946 693b 14700000 		.4byte	0x7014
 19947 693f 3A       		.uleb128 0x3a
 19948 6940 BC0F0000 		.4byte	.LVL165
 19949 6944 14700000 		.4byte	0x7014
 19950 6948 3C       		.uleb128 0x3c
 19951 6949 DE0F0000 		.4byte	.LVL166
 19952 694d BF6E0000 		.4byte	0x6ebf
 19953 6951 5C690000 		.4byte	0x695c
 19954 6955 3D       		.uleb128 0x3d
 19955 6956 01       		.uleb128 0x1
 19956 6957 50       		.byte	0x50
 19957 6958 02       		.uleb128 0x2
 19958 6959 09       		.byte	0x9
 19959 695a B0       		.byte	0xb0
 19960 695b 00       		.byte	0
 19961 695c 3C       		.uleb128 0x3c
 19962 695d 00100000 		.4byte	.LVL167
 19963 6961 BF6E0000 		.4byte	0x6ebf
 19964 6965 70690000 		.4byte	0x6970
 19965 6969 3D       		.uleb128 0x3d
 19966 696a 01       		.uleb128 0x1
 19967 696b 50       		.byte	0x50
 19968 696c 02       		.uleb128 0x2
 19969 696d 09       		.byte	0x9
ARM GAS  /var/folders/d2/nstgp4h54kz7g1l847x_b8wc0000gn/T//ccB20FE7.s 			page 357


 19970 696e B0       		.byte	0xb0
 19971 696f 00       		.byte	0
 19972 6970 3C       		.uleb128 0x3c
 19973 6971 22100000 		.4byte	.LVL168
 19974 6975 BF6E0000 		.4byte	0x6ebf
 19975 6979 84690000 		.4byte	0x6984
 19976 697d 3D       		.uleb128 0x3d
 19977 697e 01       		.uleb128 0x1
 19978 697f 50       		.byte	0x50
 19979 6980 02       		.uleb128 0x2
 19980 6981 09       		.byte	0x9
 19981 6982 B0       		.byte	0xb0
 19982 6983 00       		.byte	0
 19983 6984 3C       		.uleb128 0x3c
 19984 6985 3A100000 		.4byte	.LVL169
 19985 6989 BF6E0000 		.4byte	0x6ebf
 19986 698d A3690000 		.4byte	0x69a3
 19987 6991 3D       		.uleb128 0x3d
 19988 6992 01       		.uleb128 0x1
 19989 6993 50       		.byte	0x50
 19990 6994 02       		.uleb128 0x2
 19991 6995 09       		.byte	0x9
 19992 6996 B0       		.byte	0xb0
 19993 6997 3D       		.uleb128 0x3d
 19994 6998 01       		.uleb128 0x1
 19995 6999 51       		.byte	0x51
 19996 699a 02       		.uleb128 0x2
 19997 699b 09       		.byte	0x9
 19998 699c 91       		.byte	0x91
 19999 699d 3D       		.uleb128 0x3d
 20000 699e 01       		.uleb128 0x1
 20001 699f 52       		.byte	0x52
 20002 69a0 01       		.uleb128 0x1
 20003 69a1 31       		.byte	0x31
 20004 69a2 00       		.byte	0
 20005 69a3 3A       		.uleb128 0x3a
 20006 69a4 3E100000 		.4byte	.LVL170
 20007 69a8 5C6E0000 		.4byte	0x6e5c
 20008 69ac 3C       		.uleb128 0x3c
 20009 69ad 6C100000 		.4byte	.LVL171
 20010 69b1 256E0000 		.4byte	0x6e25
 20011 69b5 C0690000 		.4byte	0x69c0
 20012 69b9 3D       		.uleb128 0x3d
 20013 69ba 01       		.uleb128 0x1
 20014 69bb 50       		.byte	0x50
 20015 69bc 02       		.uleb128 0x2
 20016 69bd 77       		.byte	0x77
 20017 69be 00       		.sleb128 0
 20018 69bf 00       		.byte	0
 20019 69c0 3A       		.uleb128 0x3a
 20020 69c1 70100000 		.4byte	.LVL172
 20021 69c5 306E0000 		.4byte	0x6e30
 20022 69c9 3C       		.uleb128 0x3c
 20023 69ca B8120000 		.4byte	.LVL200
 20024 69ce 1A6E0000 		.4byte	0x6e1a
 20025 69d2 DD690000 		.4byte	0x69dd
 20026 69d6 3D       		.uleb128 0x3d
ARM GAS  /var/folders/d2/nstgp4h54kz7g1l847x_b8wc0000gn/T//ccB20FE7.s 			page 358


 20027 69d7 01       		.uleb128 0x1
 20028 69d8 50       		.byte	0x50
 20029 69d9 02       		.uleb128 0x2
 20030 69da 77       		.byte	0x77
 20031 69db 00       		.sleb128 0
 20032 69dc 00       		.byte	0
 20033 69dd 3C       		.uleb128 0x3c
 20034 69de 5C150000 		.4byte	.LVL237
 20035 69e2 1A6E0000 		.4byte	0x6e1a
 20036 69e6 F1690000 		.4byte	0x69f1
 20037 69ea 3D       		.uleb128 0x3d
 20038 69eb 01       		.uleb128 0x1
 20039 69ec 50       		.byte	0x50
 20040 69ed 02       		.uleb128 0x2
 20041 69ee 77       		.byte	0x77
 20042 69ef 00       		.sleb128 0
 20043 69f0 00       		.byte	0
 20044 69f1 3C       		.uleb128 0x3c
 20045 69f2 FE150000 		.4byte	.LVL251
 20046 69f6 1A6E0000 		.4byte	0x6e1a
 20047 69fa 056A0000 		.4byte	0x6a05
 20048 69fe 3D       		.uleb128 0x3d
 20049 69ff 01       		.uleb128 0x1
 20050 6a00 50       		.byte	0x50
 20051 6a01 02       		.uleb128 0x2
 20052 6a02 77       		.byte	0x77
 20053 6a03 00       		.sleb128 0
 20054 6a04 00       		.byte	0
 20055 6a05 3C       		.uleb128 0x3c
 20056 6a06 76180000 		.4byte	.LVL315
 20057 6a0a 1A6E0000 		.4byte	0x6e1a
 20058 6a0e 196A0000 		.4byte	0x6a19
 20059 6a12 3D       		.uleb128 0x3d
 20060 6a13 01       		.uleb128 0x1
 20061 6a14 50       		.byte	0x50
 20062 6a15 02       		.uleb128 0x2
 20063 6a16 77       		.byte	0x77
 20064 6a17 00       		.sleb128 0
 20065 6a18 00       		.byte	0
 20066 6a19 3C       		.uleb128 0x3c
 20067 6a1a F0180000 		.4byte	.LVL324
 20068 6a1e 1A6E0000 		.4byte	0x6e1a
 20069 6a22 2D6A0000 		.4byte	0x6a2d
 20070 6a26 3D       		.uleb128 0x3d
 20071 6a27 01       		.uleb128 0x1
 20072 6a28 50       		.byte	0x50
 20073 6a29 02       		.uleb128 0x2
 20074 6a2a 77       		.byte	0x77
 20075 6a2b 00       		.sleb128 0
 20076 6a2c 00       		.byte	0
 20077 6a2d 3C       		.uleb128 0x3c
 20078 6a2e 50190000 		.4byte	.LVL328
 20079 6a32 1A6E0000 		.4byte	0x6e1a
 20080 6a36 416A0000 		.4byte	0x6a41
 20081 6a3a 3D       		.uleb128 0x3d
 20082 6a3b 01       		.uleb128 0x1
 20083 6a3c 50       		.byte	0x50
ARM GAS  /var/folders/d2/nstgp4h54kz7g1l847x_b8wc0000gn/T//ccB20FE7.s 			page 359


 20084 6a3d 02       		.uleb128 0x2
 20085 6a3e 77       		.byte	0x77
 20086 6a3f 00       		.sleb128 0
 20087 6a40 00       		.byte	0
 20088 6a41 3C       		.uleb128 0x3c
 20089 6a42 961B0000 		.4byte	.LVL362
 20090 6a46 1A6E0000 		.4byte	0x6e1a
 20091 6a4a 556A0000 		.4byte	0x6a55
 20092 6a4e 3D       		.uleb128 0x3d
 20093 6a4f 01       		.uleb128 0x1
 20094 6a50 50       		.byte	0x50
 20095 6a51 02       		.uleb128 0x2
 20096 6a52 77       		.byte	0x77
 20097 6a53 00       		.sleb128 0
 20098 6a54 00       		.byte	0
 20099 6a55 3C       		.uleb128 0x3c
 20100 6a56 6E1C0000 		.4byte	.LVL384
 20101 6a5a 1A6E0000 		.4byte	0x6e1a
 20102 6a5e 696A0000 		.4byte	0x6a69
 20103 6a62 3D       		.uleb128 0x3d
 20104 6a63 01       		.uleb128 0x1
 20105 6a64 50       		.byte	0x50
 20106 6a65 02       		.uleb128 0x2
 20107 6a66 77       		.byte	0x77
 20108 6a67 00       		.sleb128 0
 20109 6a68 00       		.byte	0
 20110 6a69 3C       		.uleb128 0x3c
 20111 6a6a DA1D0000 		.4byte	.LVL402
 20112 6a6e BC6F0000 		.4byte	0x6fbc
 20113 6a72 7D6A0000 		.4byte	0x6a7d
 20114 6a76 3D       		.uleb128 0x3d
 20115 6a77 01       		.uleb128 0x1
 20116 6a78 50       		.byte	0x50
 20117 6a79 02       		.uleb128 0x2
 20118 6a7a 77       		.byte	0x77
 20119 6a7b 00       		.sleb128 0
 20120 6a7c 00       		.byte	0
 20121 6a7d 3A       		.uleb128 0x3a
 20122 6a7e DE1D0000 		.4byte	.LVL403
 20123 6a82 C76F0000 		.4byte	0x6fc7
 20124 6a86 3A       		.uleb128 0x3a
 20125 6a87 EA1D0000 		.4byte	.LVL404
 20126 6a8b 936E0000 		.4byte	0x6e93
 20127 6a8f 3A       		.uleb128 0x3a
 20128 6a90 F21D0000 		.4byte	.LVL405
 20129 6a94 9E6E0000 		.4byte	0x6e9e
 20130 6a98 3A       		.uleb128 0x3a
 20131 6a99 FE1D0000 		.4byte	.LVL406
 20132 6a9d A96E0000 		.4byte	0x6ea9
 20133 6aa1 3A       		.uleb128 0x3a
 20134 6aa2 061E0000 		.4byte	.LVL407
 20135 6aa6 B46E0000 		.4byte	0x6eb4
 20136 6aaa 3A       		.uleb128 0x3a
 20137 6aab 0E1E0000 		.4byte	.LVL408
 20138 6aaf 98700000 		.4byte	0x7098
 20139 6ab3 3A       		.uleb128 0x3a
 20140 6ab4 161E0000 		.4byte	.LVL410
ARM GAS  /var/folders/d2/nstgp4h54kz7g1l847x_b8wc0000gn/T//ccB20FE7.s 			page 360


 20141 6ab8 A3700000 		.4byte	0x70a3
 20142 6abc 3A       		.uleb128 0x3a
 20143 6abd 301E0000 		.4byte	.LVL412
 20144 6ac1 3B6E0000 		.4byte	0x6e3b
 20145 6ac5 3A       		.uleb128 0x3a
 20146 6ac6 441E0000 		.4byte	.LVL414
 20147 6aca 3B6E0000 		.4byte	0x6e3b
 20148 6ace 3A       		.uleb128 0x3a
 20149 6acf 5C1E0000 		.4byte	.LVL416
 20150 6ad3 AE700000 		.4byte	0x70ae
 20151 6ad7 3A       		.uleb128 0x3a
 20152 6ad8 721E0000 		.4byte	.LVL417
 20153 6adc B9700000 		.4byte	0x70b9
 20154 6ae0 3C       		.uleb128 0x3c
 20155 6ae1 821E0000 		.4byte	.LVL419
 20156 6ae5 E06E0000 		.4byte	0x6ee0
 20157 6ae9 F96A0000 		.4byte	0x6af9
 20158 6aed 3D       		.uleb128 0x3d
 20159 6aee 01       		.uleb128 0x1
 20160 6aef 50       		.byte	0x50
 20161 6af0 02       		.uleb128 0x2
 20162 6af1 75       		.byte	0x75
 20163 6af2 00       		.sleb128 0
 20164 6af3 3D       		.uleb128 0x3d
 20165 6af4 01       		.uleb128 0x1
 20166 6af5 51       		.byte	0x51
 20167 6af6 01       		.uleb128 0x1
 20168 6af7 31       		.byte	0x31
 20169 6af8 00       		.byte	0
 20170 6af9 3C       		.uleb128 0x3c
 20171 6afa 8E1E0000 		.4byte	.LVL420
 20172 6afe E06E0000 		.4byte	0x6ee0
 20173 6b02 116B0000 		.4byte	0x6b11
 20174 6b06 3D       		.uleb128 0x3d
 20175 6b07 01       		.uleb128 0x1
 20176 6b08 50       		.byte	0x50
 20177 6b09 01       		.uleb128 0x1
 20178 6b0a 31       		.byte	0x31
 20179 6b0b 3D       		.uleb128 0x3d
 20180 6b0c 01       		.uleb128 0x1
 20181 6b0d 51       		.byte	0x51
 20182 6b0e 01       		.uleb128 0x1
 20183 6b0f 31       		.byte	0x31
 20184 6b10 00       		.byte	0
 20185 6b11 3C       		.uleb128 0x3c
 20186 6b12 9A1E0000 		.4byte	.LVL421
 20187 6b16 E06E0000 		.4byte	0x6ee0
 20188 6b1a 296B0000 		.4byte	0x6b29
 20189 6b1e 3D       		.uleb128 0x3d
 20190 6b1f 01       		.uleb128 0x1
 20191 6b20 50       		.byte	0x50
 20192 6b21 01       		.uleb128 0x1
 20193 6b22 32       		.byte	0x32
 20194 6b23 3D       		.uleb128 0x3d
 20195 6b24 01       		.uleb128 0x1
 20196 6b25 51       		.byte	0x51
 20197 6b26 01       		.uleb128 0x1
ARM GAS  /var/folders/d2/nstgp4h54kz7g1l847x_b8wc0000gn/T//ccB20FE7.s 			page 361


 20198 6b27 31       		.byte	0x31
 20199 6b28 00       		.byte	0
 20200 6b29 3C       		.uleb128 0x3c
 20201 6b2a CA1E0000 		.4byte	.LVL423
 20202 6b2e C4700000 		.4byte	0x70c4
 20203 6b32 526B0000 		.4byte	0x6b52
 20204 6b36 3D       		.uleb128 0x3d
 20205 6b37 01       		.uleb128 0x1
 20206 6b38 50       		.byte	0x50
 20207 6b39 05       		.uleb128 0x5
 20208 6b3a 03       		.byte	0x3
 20209 6b3b 00000000 		.4byte	.LANCHOR16
 20210 6b3f 3D       		.uleb128 0x3d
 20211 6b40 01       		.uleb128 0x1
 20212 6b41 51       		.byte	0x51
 20213 6b42 05       		.uleb128 0x5
 20214 6b43 03       		.byte	0x3
 20215 6b44 00000000 		.4byte	.LANCHOR15
 20216 6b48 3D       		.uleb128 0x3d
 20217 6b49 01       		.uleb128 0x1
 20218 6b4a 52       		.byte	0x52
 20219 6b4b 05       		.uleb128 0x5
 20220 6b4c 03       		.byte	0x3
 20221 6b4d 00000000 		.4byte	.LANCHOR14
 20222 6b51 00       		.byte	0
 20223 6b52 3A       		.uleb128 0x3a
 20224 6b53 FC1E0000 		.4byte	.LVL425
 20225 6b57 CF700000 		.4byte	0x70cf
 20226 6b5b 3C       		.uleb128 0x3c
 20227 6b5c 441F0000 		.4byte	.LVL426
 20228 6b60 DA700000 		.4byte	0x70da
 20229 6b64 6F6B0000 		.4byte	0x6b6f
 20230 6b68 3D       		.uleb128 0x3d
 20231 6b69 01       		.uleb128 0x1
 20232 6b6a 50       		.byte	0x50
 20233 6b6b 02       		.uleb128 0x2
 20234 6b6c 75       		.byte	0x75
 20235 6b6d 00       		.sleb128 0
 20236 6b6e 00       		.byte	0
 20237 6b6f 3C       		.uleb128 0x3c
 20238 6b70 4E1F0000 		.4byte	.LVL427
 20239 6b74 DA700000 		.4byte	0x70da
 20240 6b78 826B0000 		.4byte	0x6b82
 20241 6b7c 3D       		.uleb128 0x3d
 20242 6b7d 01       		.uleb128 0x1
 20243 6b7e 50       		.byte	0x50
 20244 6b7f 01       		.uleb128 0x1
 20245 6b80 31       		.byte	0x31
 20246 6b81 00       		.byte	0
 20247 6b82 3C       		.uleb128 0x3c
 20248 6b83 581F0000 		.4byte	.LVL428
 20249 6b87 DA700000 		.4byte	0x70da
 20250 6b8b 956B0000 		.4byte	0x6b95
 20251 6b8f 3D       		.uleb128 0x3d
 20252 6b90 01       		.uleb128 0x1
 20253 6b91 50       		.byte	0x50
 20254 6b92 01       		.uleb128 0x1
ARM GAS  /var/folders/d2/nstgp4h54kz7g1l847x_b8wc0000gn/T//ccB20FE7.s 			page 362


 20255 6b93 32       		.byte	0x32
 20256 6b94 00       		.byte	0
 20257 6b95 3A       		.uleb128 0x3a
 20258 6b96 821F0000 		.4byte	.LVL429
 20259 6b9a AE700000 		.4byte	0x70ae
 20260 6b9e 3A       		.uleb128 0x3a
 20261 6b9f 981F0000 		.4byte	.LVL430
 20262 6ba3 B9700000 		.4byte	0x70b9
 20263 6ba7 3C       		.uleb128 0x3c
 20264 6ba8 A61F0000 		.4byte	.LVL431
 20265 6bac C4700000 		.4byte	0x70c4
 20266 6bb0 D06B0000 		.4byte	0x6bd0
 20267 6bb4 3D       		.uleb128 0x3d
 20268 6bb5 01       		.uleb128 0x1
 20269 6bb6 50       		.byte	0x50
 20270 6bb7 05       		.uleb128 0x5
 20271 6bb8 03       		.byte	0x3
 20272 6bb9 00000000 		.4byte	.LANCHOR16
 20273 6bbd 3D       		.uleb128 0x3d
 20274 6bbe 01       		.uleb128 0x1
 20275 6bbf 51       		.byte	0x51
 20276 6bc0 05       		.uleb128 0x5
 20277 6bc1 03       		.byte	0x3
 20278 6bc2 00000000 		.4byte	.LANCHOR15
 20279 6bc6 3D       		.uleb128 0x3d
 20280 6bc7 01       		.uleb128 0x1
 20281 6bc8 52       		.byte	0x52
 20282 6bc9 05       		.uleb128 0x5
 20283 6bca 03       		.byte	0x3
 20284 6bcb 00000000 		.4byte	.LANCHOR14
 20285 6bcf 00       		.byte	0
 20286 6bd0 3A       		.uleb128 0x3a
 20287 6bd1 D81F0000 		.4byte	.LVL432
 20288 6bd5 A3700000 		.4byte	0x70a3
 20289 6bd9 3A       		.uleb128 0x3a
 20290 6bda F21F0000 		.4byte	.LVL433
 20291 6bde CF700000 		.4byte	0x70cf
 20292 6be2 3A       		.uleb128 0x3a
 20293 6be3 32200000 		.4byte	.LVL435
 20294 6be7 F66E0000 		.4byte	0x6ef6
 20295 6beb 3A       		.uleb128 0x3a
 20296 6bec 40200000 		.4byte	.LVL437
 20297 6bf0 F66E0000 		.4byte	0x6ef6
 20298 6bf4 3A       		.uleb128 0x3a
 20299 6bf5 94200000 		.4byte	.LVL439
 20300 6bf9 E5700000 		.4byte	0x70e5
 20301 6bfd 3A       		.uleb128 0x3a
 20302 6bfe 98200000 		.4byte	.LVL440
 20303 6c02 F0700000 		.4byte	0x70f0
 20304 6c06 3C       		.uleb128 0x3c
 20305 6c07 A6200000 		.4byte	.LVL441
 20306 6c0b FB700000 		.4byte	0x70fb
 20307 6c0f 1F6C0000 		.4byte	0x6c1f
 20308 6c13 3D       		.uleb128 0x3d
 20309 6c14 01       		.uleb128 0x1
 20310 6c15 50       		.byte	0x50
 20311 6c16 07       		.uleb128 0x7
ARM GAS  /var/folders/d2/nstgp4h54kz7g1l847x_b8wc0000gn/T//ccB20FE7.s 			page 363


 20312 6c17 77       		.byte	0x77
 20313 6c18 00       		.sleb128 0
 20314 6c19 91       		.byte	0x91
 20315 6c1a A47F     		.sleb128 -92
 20316 6c1c 06       		.byte	0x6
 20317 6c1d 22       		.byte	0x22
 20318 6c1e 00       		.byte	0
 20319 6c1f 3C       		.uleb128 0x3c
 20320 6c20 B8200000 		.4byte	.LVL442
 20321 6c24 9B6F0000 		.4byte	0x6f9b
 20322 6c28 3C6C0000 		.4byte	0x6c3c
 20323 6c2c 3D       		.uleb128 0x3d
 20324 6c2d 01       		.uleb128 0x1
 20325 6c2e 50       		.byte	0x50
 20326 6c2f 01       		.uleb128 0x1
 20327 6c30 33       		.byte	0x33
 20328 6c31 3D       		.uleb128 0x3d
 20329 6c32 01       		.uleb128 0x1
 20330 6c33 51       		.byte	0x51
 20331 6c34 01       		.uleb128 0x1
 20332 6c35 32       		.byte	0x32
 20333 6c36 3D       		.uleb128 0x3d
 20334 6c37 01       		.uleb128 0x1
 20335 6c38 52       		.byte	0x52
 20336 6c39 01       		.uleb128 0x1
 20337 6c3a 30       		.byte	0x30
 20338 6c3b 00       		.byte	0
 20339 6c3c 3C       		.uleb128 0x3c
 20340 6c3d CC200000 		.4byte	.LVL443
 20341 6c41 9B6F0000 		.4byte	0x6f9b
 20342 6c45 596C0000 		.4byte	0x6c59
 20343 6c49 3D       		.uleb128 0x3d
 20344 6c4a 01       		.uleb128 0x1
 20345 6c4b 50       		.byte	0x50
 20346 6c4c 01       		.uleb128 0x1
 20347 6c4d 34       		.byte	0x34
 20348 6c4e 3D       		.uleb128 0x3d
 20349 6c4f 01       		.uleb128 0x1
 20350 6c50 51       		.byte	0x51
 20351 6c51 01       		.uleb128 0x1
 20352 6c52 32       		.byte	0x32
 20353 6c53 3D       		.uleb128 0x3d
 20354 6c54 01       		.uleb128 0x1
 20355 6c55 52       		.byte	0x52
 20356 6c56 01       		.uleb128 0x1
 20357 6c57 30       		.byte	0x30
 20358 6c58 00       		.byte	0
 20359 6c59 3C       		.uleb128 0x3c
 20360 6c5a E0200000 		.4byte	.LVL444
 20361 6c5e 9B6F0000 		.4byte	0x6f9b
 20362 6c62 766C0000 		.4byte	0x6c76
 20363 6c66 3D       		.uleb128 0x3d
 20364 6c67 01       		.uleb128 0x1
 20365 6c68 50       		.byte	0x50
 20366 6c69 01       		.uleb128 0x1
 20367 6c6a 3B       		.byte	0x3b
 20368 6c6b 3D       		.uleb128 0x3d
ARM GAS  /var/folders/d2/nstgp4h54kz7g1l847x_b8wc0000gn/T//ccB20FE7.s 			page 364


 20369 6c6c 01       		.uleb128 0x1
 20370 6c6d 51       		.byte	0x51
 20371 6c6e 01       		.uleb128 0x1
 20372 6c6f 32       		.byte	0x32
 20373 6c70 3D       		.uleb128 0x3d
 20374 6c71 01       		.uleb128 0x1
 20375 6c72 52       		.byte	0x52
 20376 6c73 01       		.uleb128 0x1
 20377 6c74 30       		.byte	0x30
 20378 6c75 00       		.byte	0
 20379 6c76 3C       		.uleb128 0x3c
 20380 6c77 F6200000 		.4byte	.LVL445
 20381 6c7b 906F0000 		.4byte	0x6f90
 20382 6c7f 926C0000 		.4byte	0x6c92
 20383 6c83 3D       		.uleb128 0x3d
 20384 6c84 01       		.uleb128 0x1
 20385 6c85 50       		.byte	0x50
 20386 6c86 03       		.uleb128 0x3
 20387 6c87 0A       		.byte	0xa
 20388 6c88 7E1C     		.2byte	0x1c7e
 20389 6c8a 3D       		.uleb128 0x3d
 20390 6c8b 01       		.uleb128 0x1
 20391 6c8c 51       		.byte	0x51
 20392 6c8d 03       		.uleb128 0x3
 20393 6c8e 0A       		.byte	0xa
 20394 6c8f 940E     		.2byte	0xe94
 20395 6c91 00       		.byte	0
 20396 6c92 3C       		.uleb128 0x3c
 20397 6c93 0C210000 		.4byte	.LVL446
 20398 6c97 906F0000 		.4byte	0x6f90
 20399 6c9b AE6C0000 		.4byte	0x6cae
 20400 6c9f 3D       		.uleb128 0x3d
 20401 6ca0 01       		.uleb128 0x1
 20402 6ca1 50       		.byte	0x50
 20403 6ca2 03       		.uleb128 0x3
 20404 6ca3 0A       		.byte	0xa
 20405 6ca4 142B     		.2byte	0x2b14
 20406 6ca6 3D       		.uleb128 0x3d
 20407 6ca7 01       		.uleb128 0x1
 20408 6ca8 51       		.byte	0x51
 20409 6ca9 03       		.uleb128 0x3
 20410 6caa 0A       		.byte	0xa
 20411 6cab 501F     		.2byte	0x1f50
 20412 6cad 00       		.byte	0
 20413 6cae 3A       		.uleb128 0x3a
 20414 6caf 18210000 		.4byte	.LVL447
 20415 6cb3 0A710000 		.4byte	0x710a
 20416 6cb7 3C       		.uleb128 0x3c
 20417 6cb8 4C210000 		.4byte	.LVL451
 20418 6cbc 1A6E0000 		.4byte	0x6e1a
 20419 6cc0 CB6C0000 		.4byte	0x6ccb
 20420 6cc4 3D       		.uleb128 0x3d
 20421 6cc5 01       		.uleb128 0x1
 20422 6cc6 50       		.byte	0x50
 20423 6cc7 02       		.uleb128 0x2
 20424 6cc8 77       		.byte	0x77
 20425 6cc9 00       		.sleb128 0
ARM GAS  /var/folders/d2/nstgp4h54kz7g1l847x_b8wc0000gn/T//ccB20FE7.s 			page 365


 20426 6cca 00       		.byte	0
 20427 6ccb 3F       		.uleb128 0x3f
 20428 6ccc DE210000 		.4byte	.LVL464
 20429 6cd0 E16C0000 		.4byte	0x6ce1
 20430 6cd4 3D       		.uleb128 0x3d
 20431 6cd5 01       		.uleb128 0x1
 20432 6cd6 51       		.byte	0x51
 20433 6cd7 03       		.uleb128 0x3
 20434 6cd8 91       		.byte	0x91
 20435 6cd9 B87F     		.sleb128 -72
 20436 6cdb 3D       		.uleb128 0x3d
 20437 6cdc 01       		.uleb128 0x1
 20438 6cdd 52       		.byte	0x52
 20439 6cde 01       		.uleb128 0x1
 20440 6cdf 43       		.byte	0x43
 20441 6ce0 00       		.byte	0
 20442 6ce1 3C       		.uleb128 0x3c
 20443 6ce2 E4210000 		.4byte	.LVL465
 20444 6ce6 646F0000 		.4byte	0x6f64
 20445 6cea F46C0000 		.4byte	0x6cf4
 20446 6cee 3D       		.uleb128 0x3d
 20447 6cef 01       		.uleb128 0x1
 20448 6cf0 50       		.byte	0x50
 20449 6cf1 01       		.uleb128 0x1
 20450 6cf2 3A       		.byte	0x3a
 20451 6cf3 00       		.byte	0
 20452 6cf4 3A       		.uleb128 0x3a
 20453 6cf5 20270000 		.4byte	.LVL607
 20454 6cf9 15710000 		.4byte	0x7115
 20455 6cfd 3A       		.uleb128 0x3a
 20456 6cfe 2A270000 		.4byte	.LVL608
 20457 6d02 FE6F0000 		.4byte	0x6ffe
 20458 6d06 3C       		.uleb128 0x3c
 20459 6d07 3E270000 		.4byte	.LVL609
 20460 6d0b 09700000 		.4byte	0x7009
 20461 6d0f 2F6D0000 		.4byte	0x6d2f
 20462 6d13 3D       		.uleb128 0x3d
 20463 6d14 01       		.uleb128 0x1
 20464 6d15 50       		.byte	0x50
 20465 6d16 02       		.uleb128 0x2
 20466 6d17 08       		.byte	0x8
 20467 6d18 7F       		.byte	0x7f
 20468 6d19 3D       		.uleb128 0x3d
 20469 6d1a 01       		.uleb128 0x1
 20470 6d1b 51       		.byte	0x51
 20471 6d1c 03       		.uleb128 0x3
 20472 6d1d 0A       		.byte	0xa
 20473 6d1e FEFF     		.2byte	0xfffe
 20474 6d20 3D       		.uleb128 0x3d
 20475 6d21 01       		.uleb128 0x1
 20476 6d22 52       		.byte	0x52
 20477 6d23 05       		.uleb128 0x5
 20478 6d24 03       		.byte	0x3
 20479 6d25 00000000 		.4byte	.LANCHOR0
 20480 6d29 3D       		.uleb128 0x3d
 20481 6d2a 01       		.uleb128 0x1
 20482 6d2b 53       		.byte	0x53
ARM GAS  /var/folders/d2/nstgp4h54kz7g1l847x_b8wc0000gn/T//ccB20FE7.s 			page 366


 20483 6d2c 01       		.uleb128 0x1
 20484 6d2d 31       		.byte	0x31
 20485 6d2e 00       		.byte	0
 20486 6d2f 3A       		.uleb128 0x3a
 20487 6d30 6A270000 		.4byte	.LVL610
 20488 6d34 726E0000 		.4byte	0x6e72
 20489 6d38 3C       		.uleb128 0x3c
 20490 6d39 98270000 		.4byte	.LVL611
 20491 6d3d 7D6E0000 		.4byte	0x6e7d
 20492 6d41 5B6D0000 		.4byte	0x6d5b
 20493 6d45 3D       		.uleb128 0x3d
 20494 6d46 02       		.uleb128 0x2
 20495 6d47 7D       		.byte	0x7d
 20496 6d48 00       		.sleb128 0
 20497 6d49 02       		.uleb128 0x2
 20498 6d4a 75       		.byte	0x75
 20499 6d4b 00       		.sleb128 0
 20500 6d4c 3D       		.uleb128 0x3d
 20501 6d4d 02       		.uleb128 0x2
 20502 6d4e 7D       		.byte	0x7d
 20503 6d4f 04       		.sleb128 4
 20504 6d50 02       		.uleb128 0x2
 20505 6d51 75       		.byte	0x75
 20506 6d52 00       		.sleb128 0
 20507 6d53 3D       		.uleb128 0x3d
 20508 6d54 02       		.uleb128 0x2
 20509 6d55 7D       		.byte	0x7d
 20510 6d56 08       		.sleb128 8
 20511 6d57 02       		.uleb128 0x2
 20512 6d58 74       		.byte	0x74
 20513 6d59 00       		.sleb128 0
 20514 6d5a 00       		.byte	0
 20515 6d5b 3A       		.uleb128 0x3a
 20516 6d5c 9C270000 		.4byte	.LVL612
 20517 6d60 886E0000 		.4byte	0x6e88
 20518 6d64 3A       		.uleb128 0x3a
 20519 6d65 A4270000 		.4byte	.LVL613
 20520 6d69 20710000 		.4byte	0x7120
 20521 6d6d 3C       		.uleb128 0x3c
 20522 6d6e AC270000 		.4byte	.LVL614
 20523 6d72 256E0000 		.4byte	0x6e25
 20524 6d76 8A6D0000 		.4byte	0x6d8a
 20525 6d7a 3D       		.uleb128 0x3d
 20526 6d7b 01       		.uleb128 0x1
 20527 6d7c 50       		.byte	0x50
 20528 6d7d 05       		.uleb128 0x5
 20529 6d7e 03       		.byte	0x3
 20530 6d7f 00000000 		.4byte	.LC0
 20531 6d83 3D       		.uleb128 0x3d
 20532 6d84 01       		.uleb128 0x1
 20533 6d85 51       		.byte	0x51
 20534 6d86 02       		.uleb128 0x2
 20535 6d87 08       		.byte	0x8
 20536 6d88 58       		.byte	0x58
 20537 6d89 00       		.byte	0
 20538 6d8a 3A       		.uleb128 0x3a
 20539 6d8b B0270000 		.4byte	.LVL615
ARM GAS  /var/folders/d2/nstgp4h54kz7g1l847x_b8wc0000gn/T//ccB20FE7.s 			page 367


 20540 6d8f 306E0000 		.4byte	0x6e30
 20541 6d93 3A       		.uleb128 0x3a
 20542 6d94 BE270000 		.4byte	.LVL616
 20543 6d98 20710000 		.4byte	0x7120
 20544 6d9c 3C       		.uleb128 0x3c
 20545 6d9d C6270000 		.4byte	.LVL617
 20546 6da1 BC6F0000 		.4byte	0x6fbc
 20547 6da5 B96D0000 		.4byte	0x6db9
 20548 6da9 3D       		.uleb128 0x3d
 20549 6daa 01       		.uleb128 0x1
 20550 6dab 50       		.byte	0x50
 20551 6dac 05       		.uleb128 0x5
 20552 6dad 03       		.byte	0x3
 20553 6dae 00000000 		.4byte	.LC0
 20554 6db2 3D       		.uleb128 0x3d
 20555 6db3 01       		.uleb128 0x1
 20556 6db4 51       		.byte	0x51
 20557 6db5 02       		.uleb128 0x2
 20558 6db6 08       		.byte	0x8
 20559 6db7 58       		.byte	0x58
 20560 6db8 00       		.byte	0
 20561 6db9 3A       		.uleb128 0x3a
 20562 6dba CA270000 		.4byte	.LVL618
 20563 6dbe C76F0000 		.4byte	0x6fc7
 20564 6dc2 00       		.byte	0
 20565 6dc3 13       		.uleb128 0x13
 20566 6dc4 20110000 		.4byte	0x1120
 20567 6dc8 D36D0000 		.4byte	0x6dd3
 20568 6dcc 14       		.uleb128 0x14
 20569 6dcd 37000000 		.4byte	0x37
 20570 6dd1 0B       		.byte	0xb
 20571 6dd2 00       		.byte	0
 20572 6dd3 13       		.uleb128 0x13
 20573 6dd4 D5000000 		.4byte	0xd5
 20574 6dd8 E36D0000 		.4byte	0x6de3
 20575 6ddc 14       		.uleb128 0x14
 20576 6ddd 37000000 		.4byte	0x37
 20577 6de1 12       		.byte	0x12
 20578 6de2 00       		.byte	0
 20579 6de3 40       		.uleb128 0x40
 20580 6de4 6E1E0000 		.4byte	.LASF972
 20581 6de8 6E1E0000 		.4byte	.LASF972
 20582 6dec 3F       		.byte	0x3f
 20583 6ded 45       		.byte	0x45
 20584 6dee 40       		.uleb128 0x40
 20585 6def AE0D0000 		.4byte	.LASF973
 20586 6df3 AE0D0000 		.4byte	.LASF973
 20587 6df7 41       		.byte	0x41
 20588 6df8 17       		.byte	0x17
 20589 6df9 40       		.uleb128 0x40
 20590 6dfa 58210000 		.4byte	.LASF974
 20591 6dfe 58210000 		.4byte	.LASF974
 20592 6e02 41       		.byte	0x41
 20593 6e03 19       		.byte	0x19
 20594 6e04 40       		.uleb128 0x40
 20595 6e05 7C000000 		.4byte	.LASF975
 20596 6e09 7C000000 		.4byte	.LASF975
ARM GAS  /var/folders/d2/nstgp4h54kz7g1l847x_b8wc0000gn/T//ccB20FE7.s 			page 368


 20597 6e0d 41       		.byte	0x41
 20598 6e0e 1B       		.byte	0x1b
 20599 6e0f 40       		.uleb128 0x40
 20600 6e10 D2090000 		.4byte	.LASF976
 20601 6e14 D2090000 		.4byte	.LASF976
 20602 6e18 42       		.byte	0x42
 20603 6e19 F4       		.byte	0xf4
 20604 6e1a 40       		.uleb128 0x40
 20605 6e1b CE1F0000 		.4byte	.LASF977
 20606 6e1f CE1F0000 		.4byte	.LASF977
 20607 6e23 43       		.byte	0x43
 20608 6e24 29       		.byte	0x29
 20609 6e25 40       		.uleb128 0x40
 20610 6e26 A5220000 		.4byte	.LASF978
 20611 6e2a A5220000 		.4byte	.LASF978
 20612 6e2e 44       		.byte	0x44
 20613 6e2f 71       		.byte	0x71
 20614 6e30 40       		.uleb128 0x40
 20615 6e31 CA150000 		.4byte	.LASF979
 20616 6e35 CA150000 		.4byte	.LASF979
 20617 6e39 44       		.byte	0x44
 20618 6e3a 76       		.byte	0x76
 20619 6e3b 40       		.uleb128 0x40
 20620 6e3c 15280000 		.4byte	.LASF980
 20621 6e40 15280000 		.4byte	.LASF980
 20622 6e44 41       		.byte	0x41
 20623 6e45 15       		.byte	0x15
 20624 6e46 40       		.uleb128 0x40
 20625 6e47 FA160000 		.4byte	.LASF981
 20626 6e4b FA160000 		.4byte	.LASF981
 20627 6e4f 45       		.byte	0x45
 20628 6e50 29       		.byte	0x29
 20629 6e51 40       		.uleb128 0x40
 20630 6e52 961D0000 		.4byte	.LASF982
 20631 6e56 961D0000 		.4byte	.LASF982
 20632 6e5a 45       		.byte	0x45
 20633 6e5b 28       		.byte	0x28
 20634 6e5c 40       		.uleb128 0x40
 20635 6e5d 13090000 		.4byte	.LASF983
 20636 6e61 13090000 		.4byte	.LASF983
 20637 6e65 45       		.byte	0x45
 20638 6e66 2A       		.byte	0x2a
 20639 6e67 40       		.uleb128 0x40
 20640 6e68 9A0B0000 		.4byte	.LASF984
 20641 6e6c 9A0B0000 		.4byte	.LASF984
 20642 6e70 42       		.byte	0x42
 20643 6e71 CC       		.byte	0xcc
 20644 6e72 40       		.uleb128 0x40
 20645 6e73 5D240000 		.4byte	.LASF985
 20646 6e77 5D240000 		.4byte	.LASF985
 20647 6e7b 46       		.byte	0x46
 20648 6e7c 22       		.byte	0x22
 20649 6e7d 40       		.uleb128 0x40
 20650 6e7e 95080000 		.4byte	.LASF986
 20651 6e82 95080000 		.4byte	.LASF986
 20652 6e86 46       		.byte	0x46
 20653 6e87 1D       		.byte	0x1d
ARM GAS  /var/folders/d2/nstgp4h54kz7g1l847x_b8wc0000gn/T//ccB20FE7.s 			page 369


 20654 6e88 40       		.uleb128 0x40
 20655 6e89 B31E0000 		.4byte	.LASF987
 20656 6e8d B31E0000 		.4byte	.LASF987
 20657 6e91 46       		.byte	0x46
 20658 6e92 25       		.byte	0x25
 20659 6e93 40       		.uleb128 0x40
 20660 6e94 BE0A0000 		.4byte	.LASF988
 20661 6e98 BE0A0000 		.4byte	.LASF988
 20662 6e9c 47       		.byte	0x47
 20663 6e9d 39       		.byte	0x39
 20664 6e9e 40       		.uleb128 0x40
 20665 6e9f 991E0000 		.4byte	.LASF989
 20666 6ea3 991E0000 		.4byte	.LASF989
 20667 6ea7 47       		.byte	0x47
 20668 6ea8 3A       		.byte	0x3a
 20669 6ea9 40       		.uleb128 0x40
 20670 6eaa 28050000 		.4byte	.LASF990
 20671 6eae 28050000 		.4byte	.LASF990
 20672 6eb2 48       		.byte	0x48
 20673 6eb3 3A       		.byte	0x3a
 20674 6eb4 40       		.uleb128 0x40
 20675 6eb5 9B2B0000 		.4byte	.LASF991
 20676 6eb9 9B2B0000 		.4byte	.LASF991
 20677 6ebd 48       		.byte	0x48
 20678 6ebe 46       		.byte	0x46
 20679 6ebf 40       		.uleb128 0x40
 20680 6ec0 02060000 		.4byte	.LASF992
 20681 6ec4 02060000 		.4byte	.LASF992
 20682 6ec8 45       		.byte	0x45
 20683 6ec9 27       		.byte	0x27
 20684 6eca 40       		.uleb128 0x40
 20685 6ecb 75160000 		.4byte	.LASF993
 20686 6ecf 75160000 		.4byte	.LASF993
 20687 6ed3 48       		.byte	0x48
 20688 6ed4 47       		.byte	0x47
 20689 6ed5 40       		.uleb128 0x40
 20690 6ed6 3A1A0000 		.4byte	.LASF994
 20691 6eda 3A1A0000 		.4byte	.LASF994
 20692 6ede 49       		.byte	0x49
 20693 6edf 27       		.byte	0x27
 20694 6ee0 40       		.uleb128 0x40
 20695 6ee1 BE140000 		.4byte	.LASF995
 20696 6ee5 BE140000 		.4byte	.LASF995
 20697 6ee9 40       		.byte	0x40
 20698 6eea 42       		.byte	0x42
 20699 6eeb 40       		.uleb128 0x40
 20700 6eec 56280000 		.4byte	.LASF996
 20701 6ef0 56280000 		.4byte	.LASF996
 20702 6ef4 4A       		.byte	0x4a
 20703 6ef5 26       		.byte	0x26
 20704 6ef6 40       		.uleb128 0x40
 20705 6ef7 D7030000 		.4byte	.LASF997
 20706 6efb D7030000 		.4byte	.LASF997
 20707 6eff 4B       		.byte	0x4b
 20708 6f00 67       		.byte	0x67
 20709 6f01 40       		.uleb128 0x40
 20710 6f02 E1160000 		.4byte	.LASF998
ARM GAS  /var/folders/d2/nstgp4h54kz7g1l847x_b8wc0000gn/T//ccB20FE7.s 			page 370


 20711 6f06 E1160000 		.4byte	.LASF998
 20712 6f0a 4C       		.byte	0x4c
 20713 6f0b 23       		.byte	0x23
 20714 6f0c 40       		.uleb128 0x40
 20715 6f0d 171A0000 		.4byte	.LASF999
 20716 6f11 171A0000 		.4byte	.LASF999
 20717 6f15 4D       		.byte	0x4d
 20718 6f16 72       		.byte	0x72
 20719 6f17 40       		.uleb128 0x40
 20720 6f18 160E0000 		.4byte	.LASF1000
 20721 6f1c 160E0000 		.4byte	.LASF1000
 20722 6f20 4D       		.byte	0x4d
 20723 6f21 73       		.byte	0x73
 20724 6f22 40       		.uleb128 0x40
 20725 6f23 6D050000 		.4byte	.LASF1001
 20726 6f27 6D050000 		.4byte	.LASF1001
 20727 6f2b 4D       		.byte	0x4d
 20728 6f2c 74       		.byte	0x74
 20729 6f2d 40       		.uleb128 0x40
 20730 6f2e C52B0000 		.4byte	.LASF1002
 20731 6f32 C52B0000 		.4byte	.LASF1002
 20732 6f36 47       		.byte	0x47
 20733 6f37 3D       		.byte	0x3d
 20734 6f38 40       		.uleb128 0x40
 20735 6f39 4D200000 		.4byte	.LASF1003
 20736 6f3d 4D200000 		.4byte	.LASF1003
 20737 6f41 47       		.byte	0x47
 20738 6f42 3E       		.byte	0x3e
 20739 6f43 40       		.uleb128 0x40
 20740 6f44 F4030000 		.4byte	.LASF1004
 20741 6f48 F4030000 		.4byte	.LASF1004
 20742 6f4c 4E       		.byte	0x4e
 20743 6f4d 26       		.byte	0x26
 20744 6f4e 40       		.uleb128 0x40
 20745 6f4f DB000000 		.4byte	.LASF1005
 20746 6f53 DB000000 		.4byte	.LASF1005
 20747 6f57 47       		.byte	0x47
 20748 6f58 40       		.byte	0x40
 20749 6f59 40       		.uleb128 0x40
 20750 6f5a D7170000 		.4byte	.LASF1006
 20751 6f5e D7170000 		.4byte	.LASF1006
 20752 6f62 47       		.byte	0x47
 20753 6f63 41       		.byte	0x41
 20754 6f64 40       		.uleb128 0x40
 20755 6f65 4E250000 		.4byte	.LASF1007
 20756 6f69 4E250000 		.4byte	.LASF1007
 20757 6f6d 4F       		.byte	0x4f
 20758 6f6e 96       		.byte	0x96
 20759 6f6f 40       		.uleb128 0x40
 20760 6f70 CA1C0000 		.4byte	.LASF1008
 20761 6f74 CA1C0000 		.4byte	.LASF1008
 20762 6f78 48       		.byte	0x48
 20763 6f79 3B       		.byte	0x3b
 20764 6f7a 40       		.uleb128 0x40
 20765 6f7b A1040000 		.4byte	.LASF1009
 20766 6f7f A1040000 		.4byte	.LASF1009
 20767 6f83 49       		.byte	0x49
ARM GAS  /var/folders/d2/nstgp4h54kz7g1l847x_b8wc0000gn/T//ccB20FE7.s 			page 371


 20768 6f84 0B       		.byte	0xb
 20769 6f85 40       		.uleb128 0x40
 20770 6f86 02020000 		.4byte	.LASF1010
 20771 6f8a 02020000 		.4byte	.LASF1010
 20772 6f8e 49       		.byte	0x49
 20773 6f8f 30       		.byte	0x30
 20774 6f90 40       		.uleb128 0x40
 20775 6f91 22170000 		.4byte	.LASF1011
 20776 6f95 22170000 		.4byte	.LASF1011
 20777 6f99 4B       		.byte	0x4b
 20778 6f9a 68       		.byte	0x68
 20779 6f9b 40       		.uleb128 0x40
 20780 6f9c 21210000 		.4byte	.LASF1012
 20781 6fa0 21210000 		.4byte	.LASF1012
 20782 6fa4 3D       		.byte	0x3d
 20783 6fa5 A2       		.byte	0xa2
 20784 6fa6 40       		.uleb128 0x40
 20785 6fa7 720D0000 		.4byte	.LASF1013
 20786 6fab 720D0000 		.4byte	.LASF1013
 20787 6faf 50       		.byte	0x50
 20788 6fb0 0B       		.byte	0xb
 20789 6fb1 40       		.uleb128 0x40
 20790 6fb2 45260000 		.4byte	.LASF1014
 20791 6fb6 45260000 		.4byte	.LASF1014
 20792 6fba 50       		.byte	0x50
 20793 6fbb 0D       		.byte	0xd
 20794 6fbc 40       		.uleb128 0x40
 20795 6fbd B8210000 		.4byte	.LASF1015
 20796 6fc1 B8210000 		.4byte	.LASF1015
 20797 6fc5 44       		.byte	0x44
 20798 6fc6 8A       		.byte	0x8a
 20799 6fc7 40       		.uleb128 0x40
 20800 6fc8 DF010000 		.4byte	.LASF1016
 20801 6fcc DF010000 		.4byte	.LASF1016
 20802 6fd0 44       		.byte	0x44
 20803 6fd1 8F       		.byte	0x8f
 20804 6fd2 40       		.uleb128 0x40
 20805 6fd3 01150000 		.4byte	.LASF1017
 20806 6fd7 01150000 		.4byte	.LASF1017
 20807 6fdb 4B       		.byte	0x4b
 20808 6fdc 69       		.byte	0x69
 20809 6fdd 40       		.uleb128 0x40
 20810 6fde 2C140000 		.4byte	.LASF1018
 20811 6fe2 2C140000 		.4byte	.LASF1018
 20812 6fe6 3D       		.byte	0x3d
 20813 6fe7 AF       		.byte	0xaf
 20814 6fe8 40       		.uleb128 0x40
 20815 6fe9 BA0B0000 		.4byte	.LASF1019
 20816 6fed BA0B0000 		.4byte	.LASF1019
 20817 6ff1 47       		.byte	0x47
 20818 6ff2 37       		.byte	0x37
 20819 6ff3 40       		.uleb128 0x40
 20820 6ff4 36190000 		.4byte	.LASF1020
 20821 6ff8 36190000 		.4byte	.LASF1020
 20822 6ffc 50       		.byte	0x50
 20823 6ffd 0A       		.byte	0xa
 20824 6ffe 40       		.uleb128 0x40
ARM GAS  /var/folders/d2/nstgp4h54kz7g1l847x_b8wc0000gn/T//ccB20FE7.s 			page 372


 20825 6fff 281F0000 		.4byte	.LASF1021
 20826 7003 281F0000 		.4byte	.LASF1021
 20827 7007 4D       		.byte	0x4d
 20828 7008 6F       		.byte	0x6f
 20829 7009 40       		.uleb128 0x40
 20830 700a C11B0000 		.4byte	.LASF1022
 20831 700e C11B0000 		.4byte	.LASF1022
 20832 7012 51       		.byte	0x51
 20833 7013 12       		.byte	0x12
 20834 7014 40       		.uleb128 0x40
 20835 7015 6F170000 		.4byte	.LASF1023
 20836 7019 6F170000 		.4byte	.LASF1023
 20837 701d 44       		.byte	0x44
 20838 701e 6B       		.byte	0x6b
 20839 701f 40       		.uleb128 0x40
 20840 7020 7E250000 		.4byte	.LASF1024
 20841 7024 7E250000 		.4byte	.LASF1024
 20842 7028 44       		.byte	0x44
 20843 7029 84       		.byte	0x84
 20844 702a 40       		.uleb128 0x40
 20845 702b 8E020000 		.4byte	.LASF1025
 20846 702f 8E020000 		.4byte	.LASF1025
 20847 7033 52       		.byte	0x52
 20848 7034 A6       		.byte	0xa6
 20849 7035 40       		.uleb128 0x40
 20850 7036 471C0000 		.4byte	.LASF1026
 20851 703a 471C0000 		.4byte	.LASF1026
 20852 703e 53       		.byte	0x53
 20853 703f 15       		.byte	0x15
 20854 7040 40       		.uleb128 0x40
 20855 7041 B0050000 		.4byte	.LASF1027
 20856 7045 B0050000 		.4byte	.LASF1027
 20857 7049 4E       		.byte	0x4e
 20858 704a 30       		.byte	0x30
 20859 704b 40       		.uleb128 0x40
 20860 704c 6C1D0000 		.4byte	.LASF1028
 20861 7050 6C1D0000 		.4byte	.LASF1028
 20862 7054 54       		.byte	0x54
 20863 7055 08       		.byte	0x8
 20864 7056 40       		.uleb128 0x40
 20865 7057 FE260000 		.4byte	.LASF1029
 20866 705b FE260000 		.4byte	.LASF1029
 20867 705f 3E       		.byte	0x3e
 20868 7060 3E       		.byte	0x3e
 20869 7061 40       		.uleb128 0x40
 20870 7062 791F0000 		.4byte	.LASF1030
 20871 7066 791F0000 		.4byte	.LASF1030
 20872 706a 55       		.byte	0x55
 20873 706b 08       		.byte	0x8
 20874 706c 40       		.uleb128 0x40
 20875 706d 12140000 		.4byte	.LASF1031
 20876 7071 12140000 		.4byte	.LASF1031
 20877 7075 3E       		.byte	0x3e
 20878 7076 30       		.byte	0x30
 20879 7077 40       		.uleb128 0x40
 20880 7078 40170000 		.4byte	.LASF1032
 20881 707c 40170000 		.4byte	.LASF1032
ARM GAS  /var/folders/d2/nstgp4h54kz7g1l847x_b8wc0000gn/T//ccB20FE7.s 			page 373


 20882 7080 3E       		.byte	0x3e
 20883 7081 39       		.byte	0x39
 20884 7082 40       		.uleb128 0x40
 20885 7083 5B0D0000 		.4byte	.LASF1033
 20886 7087 5B0D0000 		.4byte	.LASF1033
 20887 708b 3E       		.byte	0x3e
 20888 708c 3A       		.byte	0x3a
 20889 708d 40       		.uleb128 0x40
 20890 708e E81F0000 		.4byte	.LASF1034
 20891 7092 E81F0000 		.4byte	.LASF1034
 20892 7096 46       		.byte	0x46
 20893 7097 27       		.byte	0x27
 20894 7098 40       		.uleb128 0x40
 20895 7099 5E190000 		.4byte	.LASF1035
 20896 709d 5E190000 		.4byte	.LASF1035
 20897 70a1 55       		.byte	0x55
 20898 70a2 09       		.byte	0x9
 20899 70a3 40       		.uleb128 0x40
 20900 70a4 89000000 		.4byte	.LASF1036
 20901 70a8 89000000 		.4byte	.LASF1036
 20902 70ac 56       		.byte	0x56
 20903 70ad 51       		.byte	0x51
 20904 70ae 40       		.uleb128 0x40
 20905 70af B7200000 		.4byte	.LASF1037
 20906 70b3 B7200000 		.4byte	.LASF1037
 20907 70b7 53       		.byte	0x53
 20908 70b8 1F       		.byte	0x1f
 20909 70b9 40       		.uleb128 0x40
 20910 70ba 1C220000 		.4byte	.LASF1038
 20911 70be 1C220000 		.4byte	.LASF1038
 20912 70c2 53       		.byte	0x53
 20913 70c3 29       		.byte	0x29
 20914 70c4 40       		.uleb128 0x40
 20915 70c5 3B240000 		.4byte	.LASF1039
 20916 70c9 3B240000 		.4byte	.LASF1039
 20917 70cd 41       		.byte	0x41
 20918 70ce 12       		.byte	0x12
 20919 70cf 40       		.uleb128 0x40
 20920 70d0 EF010000 		.4byte	.LASF1040
 20921 70d4 EF010000 		.4byte	.LASF1040
 20922 70d8 40       		.byte	0x40
 20923 70d9 4F       		.byte	0x4f
 20924 70da 40       		.uleb128 0x40
 20925 70db 46160000 		.4byte	.LASF1041
 20926 70df 46160000 		.4byte	.LASF1041
 20927 70e3 40       		.byte	0x40
 20928 70e4 3B       		.byte	0x3b
 20929 70e5 40       		.uleb128 0x40
 20930 70e6 31100000 		.4byte	.LASF1042
 20931 70ea 31100000 		.4byte	.LASF1042
 20932 70ee 46       		.byte	0x46
 20933 70ef 29       		.byte	0x29
 20934 70f0 40       		.uleb128 0x40
 20935 70f1 3E2A0000 		.4byte	.LASF1043
 20936 70f5 3E2A0000 		.4byte	.LASF1043
 20937 70f9 57       		.byte	0x57
 20938 70fa 88       		.byte	0x88
ARM GAS  /var/folders/d2/nstgp4h54kz7g1l847x_b8wc0000gn/T//ccB20FE7.s 			page 374


 20939 70fb 41       		.uleb128 0x41
 20940 70fc 96050000 		.4byte	.LASF1051
 20941 7100 DD220000 		.4byte	.LASF1052
 20942 7104 59       		.byte	0x59
 20943 7105 00       		.byte	0
 20944 7106 96050000 		.4byte	.LASF1051
 20945 710a 40       		.uleb128 0x40
 20946 710b F31B0000 		.4byte	.LASF1044
 20947 710f F31B0000 		.4byte	.LASF1044
 20948 7113 58       		.byte	0x58
 20949 7114 25       		.byte	0x25
 20950 7115 40       		.uleb128 0x40
 20951 7116 BE0E0000 		.4byte	.LASF1045
 20952 711a BE0E0000 		.4byte	.LASF1045
 20953 711e 45       		.byte	0x45
 20954 711f 25       		.byte	0x25
 20955 7120 40       		.uleb128 0x40
 20956 7121 48030000 		.4byte	.LASF1046
 20957 7125 48030000 		.4byte	.LASF1046
 20958 7129 40       		.byte	0x40
 20959 712a 49       		.byte	0x49
 20960 712b 00       		.byte	0
 20961              		.section	.debug_abbrev,"",%progbits
 20962              	.Ldebug_abbrev0:
 20963 0000 01       		.uleb128 0x1
 20964 0001 11       		.uleb128 0x11
 20965 0002 01       		.byte	0x1
 20966 0003 25       		.uleb128 0x25
 20967 0004 0E       		.uleb128 0xe
 20968 0005 13       		.uleb128 0x13
 20969 0006 0B       		.uleb128 0xb
 20970 0007 03       		.uleb128 0x3
 20971 0008 0E       		.uleb128 0xe
 20972 0009 1B       		.uleb128 0x1b
 20973 000a 0E       		.uleb128 0xe
 20974 000b 55       		.uleb128 0x55
 20975 000c 17       		.uleb128 0x17
 20976 000d 11       		.uleb128 0x11
 20977 000e 01       		.uleb128 0x1
 20978 000f 10       		.uleb128 0x10
 20979 0010 17       		.uleb128 0x17
 20980 0011 00       		.byte	0
 20981 0012 00       		.byte	0
 20982 0013 02       		.uleb128 0x2
 20983 0014 24       		.uleb128 0x24
 20984 0015 00       		.byte	0
 20985 0016 0B       		.uleb128 0xb
 20986 0017 0B       		.uleb128 0xb
 20987 0018 3E       		.uleb128 0x3e
 20988 0019 0B       		.uleb128 0xb
 20989 001a 03       		.uleb128 0x3
 20990 001b 08       		.uleb128 0x8
 20991 001c 00       		.byte	0
 20992 001d 00       		.byte	0
 20993 001e 03       		.uleb128 0x3
 20994 001f 16       		.uleb128 0x16
 20995 0020 00       		.byte	0
ARM GAS  /var/folders/d2/nstgp4h54kz7g1l847x_b8wc0000gn/T//ccB20FE7.s 			page 375


 20996 0021 03       		.uleb128 0x3
 20997 0022 0E       		.uleb128 0xe
 20998 0023 3A       		.uleb128 0x3a
 20999 0024 0B       		.uleb128 0xb
 21000 0025 3B       		.uleb128 0x3b
 21001 0026 0B       		.uleb128 0xb
 21002 0027 49       		.uleb128 0x49
 21003 0028 13       		.uleb128 0x13
 21004 0029 00       		.byte	0
 21005 002a 00       		.byte	0
 21006 002b 04       		.uleb128 0x4
 21007 002c 24       		.uleb128 0x24
 21008 002d 00       		.byte	0
 21009 002e 0B       		.uleb128 0xb
 21010 002f 0B       		.uleb128 0xb
 21011 0030 3E       		.uleb128 0x3e
 21012 0031 0B       		.uleb128 0xb
 21013 0032 03       		.uleb128 0x3
 21014 0033 0E       		.uleb128 0xe
 21015 0034 00       		.byte	0
 21016 0035 00       		.byte	0
 21017 0036 05       		.uleb128 0x5
 21018 0037 26       		.uleb128 0x26
 21019 0038 00       		.byte	0
 21020 0039 49       		.uleb128 0x49
 21021 003a 13       		.uleb128 0x13
 21022 003b 00       		.byte	0
 21023 003c 00       		.byte	0
 21024 003d 06       		.uleb128 0x6
 21025 003e 35       		.uleb128 0x35
 21026 003f 00       		.byte	0
 21027 0040 49       		.uleb128 0x49
 21028 0041 13       		.uleb128 0x13
 21029 0042 00       		.byte	0
 21030 0043 00       		.byte	0
 21031 0044 07       		.uleb128 0x7
 21032 0045 13       		.uleb128 0x13
 21033 0046 01       		.byte	0x1
 21034 0047 03       		.uleb128 0x3
 21035 0048 0E       		.uleb128 0xe
 21036 0049 0B       		.uleb128 0xb
 21037 004a 0B       		.uleb128 0xb
 21038 004b 3A       		.uleb128 0x3a
 21039 004c 0B       		.uleb128 0xb
 21040 004d 3B       		.uleb128 0x3b
 21041 004e 0B       		.uleb128 0xb
 21042 004f 01       		.uleb128 0x1
 21043 0050 13       		.uleb128 0x13
 21044 0051 00       		.byte	0
 21045 0052 00       		.byte	0
 21046 0053 08       		.uleb128 0x8
 21047 0054 0D       		.uleb128 0xd
 21048 0055 00       		.byte	0
 21049 0056 03       		.uleb128 0x3
 21050 0057 0E       		.uleb128 0xe
 21051 0058 3A       		.uleb128 0x3a
 21052 0059 0B       		.uleb128 0xb
ARM GAS  /var/folders/d2/nstgp4h54kz7g1l847x_b8wc0000gn/T//ccB20FE7.s 			page 376


 21053 005a 3B       		.uleb128 0x3b
 21054 005b 0B       		.uleb128 0xb
 21055 005c 49       		.uleb128 0x49
 21056 005d 13       		.uleb128 0x13
 21057 005e 38       		.uleb128 0x38
 21058 005f 0B       		.uleb128 0xb
 21059 0060 00       		.byte	0
 21060 0061 00       		.byte	0
 21061 0062 09       		.uleb128 0x9
 21062 0063 0D       		.uleb128 0xd
 21063 0064 00       		.byte	0
 21064 0065 03       		.uleb128 0x3
 21065 0066 08       		.uleb128 0x8
 21066 0067 3A       		.uleb128 0x3a
 21067 0068 0B       		.uleb128 0xb
 21068 0069 3B       		.uleb128 0x3b
 21069 006a 05       		.uleb128 0x5
 21070 006b 49       		.uleb128 0x49
 21071 006c 13       		.uleb128 0x13
 21072 006d 38       		.uleb128 0x38
 21073 006e 0B       		.uleb128 0xb
 21074 006f 00       		.byte	0
 21075 0070 00       		.byte	0
 21076 0071 0A       		.uleb128 0xa
 21077 0072 0D       		.uleb128 0xd
 21078 0073 00       		.byte	0
 21079 0074 03       		.uleb128 0x3
 21080 0075 0E       		.uleb128 0xe
 21081 0076 3A       		.uleb128 0x3a
 21082 0077 0B       		.uleb128 0xb
 21083 0078 3B       		.uleb128 0x3b
 21084 0079 05       		.uleb128 0x5
 21085 007a 49       		.uleb128 0x49
 21086 007b 13       		.uleb128 0x13
 21087 007c 38       		.uleb128 0x38
 21088 007d 0B       		.uleb128 0xb
 21089 007e 00       		.byte	0
 21090 007f 00       		.byte	0
 21091 0080 0B       		.uleb128 0xb
 21092 0081 0F       		.uleb128 0xf
 21093 0082 00       		.byte	0
 21094 0083 0B       		.uleb128 0xb
 21095 0084 0B       		.uleb128 0xb
 21096 0085 49       		.uleb128 0x49
 21097 0086 13       		.uleb128 0x13
 21098 0087 00       		.byte	0
 21099 0088 00       		.byte	0
 21100 0089 0C       		.uleb128 0xc
 21101 008a 13       		.uleb128 0x13
 21102 008b 01       		.byte	0x1
 21103 008c 03       		.uleb128 0x3
 21104 008d 0E       		.uleb128 0xe
 21105 008e 0B       		.uleb128 0xb
 21106 008f 0B       		.uleb128 0xb
 21107 0090 3A       		.uleb128 0x3a
 21108 0091 0B       		.uleb128 0xb
 21109 0092 3B       		.uleb128 0x3b
ARM GAS  /var/folders/d2/nstgp4h54kz7g1l847x_b8wc0000gn/T//ccB20FE7.s 			page 377


 21110 0093 05       		.uleb128 0x5
 21111 0094 01       		.uleb128 0x1
 21112 0095 13       		.uleb128 0x13
 21113 0096 00       		.byte	0
 21114 0097 00       		.byte	0
 21115 0098 0D       		.uleb128 0xd
 21116 0099 15       		.uleb128 0x15
 21117 009a 01       		.byte	0x1
 21118 009b 27       		.uleb128 0x27
 21119 009c 19       		.uleb128 0x19
 21120 009d 01       		.uleb128 0x1
 21121 009e 13       		.uleb128 0x13
 21122 009f 00       		.byte	0
 21123 00a0 00       		.byte	0
 21124 00a1 0E       		.uleb128 0xe
 21125 00a2 05       		.uleb128 0x5
 21126 00a3 00       		.byte	0
 21127 00a4 49       		.uleb128 0x49
 21128 00a5 13       		.uleb128 0x13
 21129 00a6 00       		.byte	0
 21130 00a7 00       		.byte	0
 21131 00a8 0F       		.uleb128 0xf
 21132 00a9 0F       		.uleb128 0xf
 21133 00aa 00       		.byte	0
 21134 00ab 0B       		.uleb128 0xb
 21135 00ac 0B       		.uleb128 0xb
 21136 00ad 00       		.byte	0
 21137 00ae 00       		.byte	0
 21138 00af 10       		.uleb128 0x10
 21139 00b0 13       		.uleb128 0x13
 21140 00b1 01       		.byte	0x1
 21141 00b2 03       		.uleb128 0x3
 21142 00b3 0E       		.uleb128 0xe
 21143 00b4 0B       		.uleb128 0xb
 21144 00b5 05       		.uleb128 0x5
 21145 00b6 3A       		.uleb128 0x3a
 21146 00b7 0B       		.uleb128 0xb
 21147 00b8 3B       		.uleb128 0x3b
 21148 00b9 05       		.uleb128 0x5
 21149 00ba 01       		.uleb128 0x1
 21150 00bb 13       		.uleb128 0x13
 21151 00bc 00       		.byte	0
 21152 00bd 00       		.byte	0
 21153 00be 11       		.uleb128 0x11
 21154 00bf 0D       		.uleb128 0xd
 21155 00c0 00       		.byte	0
 21156 00c1 03       		.uleb128 0x3
 21157 00c2 0E       		.uleb128 0xe
 21158 00c3 3A       		.uleb128 0x3a
 21159 00c4 0B       		.uleb128 0xb
 21160 00c5 3B       		.uleb128 0x3b
 21161 00c6 05       		.uleb128 0x5
 21162 00c7 49       		.uleb128 0x49
 21163 00c8 13       		.uleb128 0x13
 21164 00c9 38       		.uleb128 0x38
 21165 00ca 05       		.uleb128 0x5
 21166 00cb 00       		.byte	0
ARM GAS  /var/folders/d2/nstgp4h54kz7g1l847x_b8wc0000gn/T//ccB20FE7.s 			page 378


 21167 00cc 00       		.byte	0
 21168 00cd 12       		.uleb128 0x12
 21169 00ce 0D       		.uleb128 0xd
 21170 00cf 00       		.byte	0
 21171 00d0 03       		.uleb128 0x3
 21172 00d1 08       		.uleb128 0x8
 21173 00d2 3A       		.uleb128 0x3a
 21174 00d3 0B       		.uleb128 0xb
 21175 00d4 3B       		.uleb128 0x3b
 21176 00d5 05       		.uleb128 0x5
 21177 00d6 49       		.uleb128 0x49
 21178 00d7 13       		.uleb128 0x13
 21179 00d8 38       		.uleb128 0x38
 21180 00d9 05       		.uleb128 0x5
 21181 00da 00       		.byte	0
 21182 00db 00       		.byte	0
 21183 00dc 13       		.uleb128 0x13
 21184 00dd 01       		.uleb128 0x1
 21185 00de 01       		.byte	0x1
 21186 00df 49       		.uleb128 0x49
 21187 00e0 13       		.uleb128 0x13
 21188 00e1 01       		.uleb128 0x1
 21189 00e2 13       		.uleb128 0x13
 21190 00e3 00       		.byte	0
 21191 00e4 00       		.byte	0
 21192 00e5 14       		.uleb128 0x14
 21193 00e6 21       		.uleb128 0x21
 21194 00e7 00       		.byte	0
 21195 00e8 49       		.uleb128 0x49
 21196 00e9 13       		.uleb128 0x13
 21197 00ea 2F       		.uleb128 0x2f
 21198 00eb 0B       		.uleb128 0xb
 21199 00ec 00       		.byte	0
 21200 00ed 00       		.byte	0
 21201 00ee 15       		.uleb128 0x15
 21202 00ef 34       		.uleb128 0x34
 21203 00f0 00       		.byte	0
 21204 00f1 03       		.uleb128 0x3
 21205 00f2 0E       		.uleb128 0xe
 21206 00f3 3A       		.uleb128 0x3a
 21207 00f4 0B       		.uleb128 0xb
 21208 00f5 3B       		.uleb128 0x3b
 21209 00f6 05       		.uleb128 0x5
 21210 00f7 49       		.uleb128 0x49
 21211 00f8 13       		.uleb128 0x13
 21212 00f9 3F       		.uleb128 0x3f
 21213 00fa 19       		.uleb128 0x19
 21214 00fb 3C       		.uleb128 0x3c
 21215 00fc 19       		.uleb128 0x19
 21216 00fd 00       		.byte	0
 21217 00fe 00       		.byte	0
 21218 00ff 16       		.uleb128 0x16
 21219 0100 34       		.uleb128 0x34
 21220 0101 00       		.byte	0
 21221 0102 03       		.uleb128 0x3
 21222 0103 0E       		.uleb128 0xe
 21223 0104 3A       		.uleb128 0x3a
ARM GAS  /var/folders/d2/nstgp4h54kz7g1l847x_b8wc0000gn/T//ccB20FE7.s 			page 379


 21224 0105 0B       		.uleb128 0xb
 21225 0106 3B       		.uleb128 0x3b
 21226 0107 0B       		.uleb128 0xb
 21227 0108 49       		.uleb128 0x49
 21228 0109 13       		.uleb128 0x13
 21229 010a 3F       		.uleb128 0x3f
 21230 010b 19       		.uleb128 0x19
 21231 010c 3C       		.uleb128 0x3c
 21232 010d 19       		.uleb128 0x19
 21233 010e 00       		.byte	0
 21234 010f 00       		.byte	0
 21235 0110 17       		.uleb128 0x17
 21236 0111 13       		.uleb128 0x13
 21237 0112 01       		.byte	0x1
 21238 0113 0B       		.uleb128 0xb
 21239 0114 0B       		.uleb128 0xb
 21240 0115 3A       		.uleb128 0x3a
 21241 0116 0B       		.uleb128 0xb
 21242 0117 3B       		.uleb128 0x3b
 21243 0118 0B       		.uleb128 0xb
 21244 0119 01       		.uleb128 0x1
 21245 011a 13       		.uleb128 0x13
 21246 011b 00       		.byte	0
 21247 011c 00       		.byte	0
 21248 011d 18       		.uleb128 0x18
 21249 011e 0D       		.uleb128 0xd
 21250 011f 00       		.byte	0
 21251 0120 03       		.uleb128 0x3
 21252 0121 08       		.uleb128 0x8
 21253 0122 3A       		.uleb128 0x3a
 21254 0123 0B       		.uleb128 0xb
 21255 0124 3B       		.uleb128 0x3b
 21256 0125 0B       		.uleb128 0xb
 21257 0126 49       		.uleb128 0x49
 21258 0127 13       		.uleb128 0x13
 21259 0128 38       		.uleb128 0x38
 21260 0129 0B       		.uleb128 0xb
 21261 012a 00       		.byte	0
 21262 012b 00       		.byte	0
 21263 012c 19       		.uleb128 0x19
 21264 012d 13       		.uleb128 0x13
 21265 012e 01       		.byte	0x1
 21266 012f 0B       		.uleb128 0xb
 21267 0130 0B       		.uleb128 0xb
 21268 0131 3A       		.uleb128 0x3a
 21269 0132 0B       		.uleb128 0xb
 21270 0133 3B       		.uleb128 0x3b
 21271 0134 05       		.uleb128 0x5
 21272 0135 01       		.uleb128 0x1
 21273 0136 13       		.uleb128 0x13
 21274 0137 00       		.byte	0
 21275 0138 00       		.byte	0
 21276 0139 1A       		.uleb128 0x1a
 21277 013a 16       		.uleb128 0x16
 21278 013b 00       		.byte	0
 21279 013c 03       		.uleb128 0x3
 21280 013d 0E       		.uleb128 0xe
ARM GAS  /var/folders/d2/nstgp4h54kz7g1l847x_b8wc0000gn/T//ccB20FE7.s 			page 380


 21281 013e 3A       		.uleb128 0x3a
 21282 013f 0B       		.uleb128 0xb
 21283 0140 3B       		.uleb128 0x3b
 21284 0141 05       		.uleb128 0x5
 21285 0142 49       		.uleb128 0x49
 21286 0143 13       		.uleb128 0x13
 21287 0144 00       		.byte	0
 21288 0145 00       		.byte	0
 21289 0146 1B       		.uleb128 0x1b
 21290 0147 13       		.uleb128 0x13
 21291 0148 01       		.byte	0x1
 21292 0149 0B       		.uleb128 0xb
 21293 014a 05       		.uleb128 0x5
 21294 014b 3A       		.uleb128 0x3a
 21295 014c 0B       		.uleb128 0xb
 21296 014d 3B       		.uleb128 0x3b
 21297 014e 05       		.uleb128 0x5
 21298 014f 01       		.uleb128 0x1
 21299 0150 13       		.uleb128 0x13
 21300 0151 00       		.byte	0
 21301 0152 00       		.byte	0
 21302 0153 1C       		.uleb128 0x1c
 21303 0154 13       		.uleb128 0x13
 21304 0155 01       		.byte	0x1
 21305 0156 0B       		.uleb128 0xb
 21306 0157 05       		.uleb128 0x5
 21307 0158 3A       		.uleb128 0x3a
 21308 0159 0B       		.uleb128 0xb
 21309 015a 3B       		.uleb128 0x3b
 21310 015b 0B       		.uleb128 0xb
 21311 015c 01       		.uleb128 0x1
 21312 015d 13       		.uleb128 0x13
 21313 015e 00       		.byte	0
 21314 015f 00       		.byte	0
 21315 0160 1D       		.uleb128 0x1d
 21316 0161 17       		.uleb128 0x17
 21317 0162 01       		.byte	0x1
 21318 0163 0B       		.uleb128 0xb
 21319 0164 0B       		.uleb128 0xb
 21320 0165 3A       		.uleb128 0x3a
 21321 0166 0B       		.uleb128 0xb
 21322 0167 3B       		.uleb128 0x3b
 21323 0168 0B       		.uleb128 0xb
 21324 0169 01       		.uleb128 0x1
 21325 016a 13       		.uleb128 0x13
 21326 016b 00       		.byte	0
 21327 016c 00       		.byte	0
 21328 016d 1E       		.uleb128 0x1e
 21329 016e 0D       		.uleb128 0xd
 21330 016f 00       		.byte	0
 21331 0170 03       		.uleb128 0x3
 21332 0171 0E       		.uleb128 0xe
 21333 0172 3A       		.uleb128 0x3a
 21334 0173 0B       		.uleb128 0xb
 21335 0174 3B       		.uleb128 0x3b
 21336 0175 05       		.uleb128 0x5
 21337 0176 49       		.uleb128 0x49
ARM GAS  /var/folders/d2/nstgp4h54kz7g1l847x_b8wc0000gn/T//ccB20FE7.s 			page 381


 21338 0177 13       		.uleb128 0x13
 21339 0178 00       		.byte	0
 21340 0179 00       		.byte	0
 21341 017a 1F       		.uleb128 0x1f
 21342 017b 34       		.uleb128 0x34
 21343 017c 00       		.byte	0
 21344 017d 03       		.uleb128 0x3
 21345 017e 08       		.uleb128 0x8
 21346 017f 3A       		.uleb128 0x3a
 21347 0180 0B       		.uleb128 0xb
 21348 0181 3B       		.uleb128 0x3b
 21349 0182 05       		.uleb128 0x5
 21350 0183 49       		.uleb128 0x49
 21351 0184 13       		.uleb128 0x13
 21352 0185 3F       		.uleb128 0x3f
 21353 0186 19       		.uleb128 0x19
 21354 0187 3C       		.uleb128 0x3c
 21355 0188 19       		.uleb128 0x19
 21356 0189 00       		.byte	0
 21357 018a 00       		.byte	0
 21358 018b 20       		.uleb128 0x20
 21359 018c 15       		.uleb128 0x15
 21360 018d 01       		.byte	0x1
 21361 018e 27       		.uleb128 0x27
 21362 018f 19       		.uleb128 0x19
 21363 0190 49       		.uleb128 0x49
 21364 0191 13       		.uleb128 0x13
 21365 0192 01       		.uleb128 0x1
 21366 0193 13       		.uleb128 0x13
 21367 0194 00       		.byte	0
 21368 0195 00       		.byte	0
 21369 0196 21       		.uleb128 0x21
 21370 0197 04       		.uleb128 0x4
 21371 0198 01       		.byte	0x1
 21372 0199 3E       		.uleb128 0x3e
 21373 019a 0B       		.uleb128 0xb
 21374 019b 0B       		.uleb128 0xb
 21375 019c 0B       		.uleb128 0xb
 21376 019d 49       		.uleb128 0x49
 21377 019e 13       		.uleb128 0x13
 21378 019f 3A       		.uleb128 0x3a
 21379 01a0 0B       		.uleb128 0xb
 21380 01a1 3B       		.uleb128 0x3b
 21381 01a2 0B       		.uleb128 0xb
 21382 01a3 01       		.uleb128 0x1
 21383 01a4 13       		.uleb128 0x13
 21384 01a5 00       		.byte	0
 21385 01a6 00       		.byte	0
 21386 01a7 22       		.uleb128 0x22
 21387 01a8 28       		.uleb128 0x28
 21388 01a9 00       		.byte	0
 21389 01aa 03       		.uleb128 0x3
 21390 01ab 0E       		.uleb128 0xe
 21391 01ac 1C       		.uleb128 0x1c
 21392 01ad 0B       		.uleb128 0xb
 21393 01ae 00       		.byte	0
 21394 01af 00       		.byte	0
ARM GAS  /var/folders/d2/nstgp4h54kz7g1l847x_b8wc0000gn/T//ccB20FE7.s 			page 382


 21395 01b0 23       		.uleb128 0x23
 21396 01b1 0D       		.uleb128 0xd
 21397 01b2 00       		.byte	0
 21398 01b3 03       		.uleb128 0x3
 21399 01b4 08       		.uleb128 0x8
 21400 01b5 3A       		.uleb128 0x3a
 21401 01b6 0B       		.uleb128 0xb
 21402 01b7 3B       		.uleb128 0x3b
 21403 01b8 0B       		.uleb128 0xb
 21404 01b9 49       		.uleb128 0x49
 21405 01ba 13       		.uleb128 0x13
 21406 01bb 00       		.byte	0
 21407 01bc 00       		.byte	0
 21408 01bd 24       		.uleb128 0x24
 21409 01be 04       		.uleb128 0x4
 21410 01bf 01       		.byte	0x1
 21411 01c0 3E       		.uleb128 0x3e
 21412 01c1 0B       		.uleb128 0xb
 21413 01c2 0B       		.uleb128 0xb
 21414 01c3 0B       		.uleb128 0xb
 21415 01c4 49       		.uleb128 0x49
 21416 01c5 13       		.uleb128 0x13
 21417 01c6 3A       		.uleb128 0x3a
 21418 01c7 0B       		.uleb128 0xb
 21419 01c8 3B       		.uleb128 0x3b
 21420 01c9 05       		.uleb128 0x5
 21421 01ca 01       		.uleb128 0x1
 21422 01cb 13       		.uleb128 0x13
 21423 01cc 00       		.byte	0
 21424 01cd 00       		.byte	0
 21425 01ce 25       		.uleb128 0x25
 21426 01cf 26       		.uleb128 0x26
 21427 01d0 00       		.byte	0
 21428 01d1 00       		.byte	0
 21429 01d2 00       		.byte	0
 21430 01d3 26       		.uleb128 0x26
 21431 01d4 13       		.uleb128 0x13
 21432 01d5 01       		.byte	0x1
 21433 01d6 03       		.uleb128 0x3
 21434 01d7 0E       		.uleb128 0xe
 21435 01d8 0B       		.uleb128 0xb
 21436 01d9 05       		.uleb128 0x5
 21437 01da 3A       		.uleb128 0x3a
 21438 01db 0B       		.uleb128 0xb
 21439 01dc 3B       		.uleb128 0x3b
 21440 01dd 0B       		.uleb128 0xb
 21441 01de 01       		.uleb128 0x1
 21442 01df 13       		.uleb128 0x13
 21443 01e0 00       		.byte	0
 21444 01e1 00       		.byte	0
 21445 01e2 27       		.uleb128 0x27
 21446 01e3 0D       		.uleb128 0xd
 21447 01e4 00       		.byte	0
 21448 01e5 03       		.uleb128 0x3
 21449 01e6 0E       		.uleb128 0xe
 21450 01e7 3A       		.uleb128 0x3a
 21451 01e8 0B       		.uleb128 0xb
ARM GAS  /var/folders/d2/nstgp4h54kz7g1l847x_b8wc0000gn/T//ccB20FE7.s 			page 383


 21452 01e9 3B       		.uleb128 0x3b
 21453 01ea 0B       		.uleb128 0xb
 21454 01eb 49       		.uleb128 0x49
 21455 01ec 13       		.uleb128 0x13
 21456 01ed 38       		.uleb128 0x38
 21457 01ee 05       		.uleb128 0x5
 21458 01ef 00       		.byte	0
 21459 01f0 00       		.byte	0
 21460 01f1 28       		.uleb128 0x28
 21461 01f2 13       		.uleb128 0x13
 21462 01f3 01       		.byte	0x1
 21463 01f4 0B       		.uleb128 0xb
 21464 01f5 06       		.uleb128 0x6
 21465 01f6 3A       		.uleb128 0x3a
 21466 01f7 0B       		.uleb128 0xb
 21467 01f8 3B       		.uleb128 0x3b
 21468 01f9 0B       		.uleb128 0xb
 21469 01fa 01       		.uleb128 0x1
 21470 01fb 13       		.uleb128 0x13
 21471 01fc 00       		.byte	0
 21472 01fd 00       		.byte	0
 21473 01fe 29       		.uleb128 0x29
 21474 01ff 0D       		.uleb128 0xd
 21475 0200 00       		.byte	0
 21476 0201 03       		.uleb128 0x3
 21477 0202 08       		.uleb128 0x8
 21478 0203 3A       		.uleb128 0x3a
 21479 0204 0B       		.uleb128 0xb
 21480 0205 3B       		.uleb128 0x3b
 21481 0206 0B       		.uleb128 0xb
 21482 0207 49       		.uleb128 0x49
 21483 0208 13       		.uleb128 0x13
 21484 0209 38       		.uleb128 0x38
 21485 020a 05       		.uleb128 0x5
 21486 020b 00       		.byte	0
 21487 020c 00       		.byte	0
 21488 020d 2A       		.uleb128 0x2a
 21489 020e 21       		.uleb128 0x21
 21490 020f 00       		.byte	0
 21491 0210 49       		.uleb128 0x49
 21492 0211 13       		.uleb128 0x13
 21493 0212 2F       		.uleb128 0x2f
 21494 0213 05       		.uleb128 0x5
 21495 0214 00       		.byte	0
 21496 0215 00       		.byte	0
 21497 0216 2B       		.uleb128 0x2b
 21498 0217 0D       		.uleb128 0xd
 21499 0218 00       		.byte	0
 21500 0219 03       		.uleb128 0x3
 21501 021a 0E       		.uleb128 0xe
 21502 021b 3A       		.uleb128 0x3a
 21503 021c 0B       		.uleb128 0xb
 21504 021d 3B       		.uleb128 0x3b
 21505 021e 0B       		.uleb128 0xb
 21506 021f 49       		.uleb128 0x49
 21507 0220 13       		.uleb128 0x13
 21508 0221 00       		.byte	0
ARM GAS  /var/folders/d2/nstgp4h54kz7g1l847x_b8wc0000gn/T//ccB20FE7.s 			page 384


 21509 0222 00       		.byte	0
 21510 0223 2C       		.uleb128 0x2c
 21511 0224 17       		.uleb128 0x17
 21512 0225 01       		.byte	0x1
 21513 0226 0B       		.uleb128 0xb
 21514 0227 0B       		.uleb128 0xb
 21515 0228 3A       		.uleb128 0x3a
 21516 0229 0B       		.uleb128 0xb
 21517 022a 3B       		.uleb128 0x3b
 21518 022b 05       		.uleb128 0x5
 21519 022c 01       		.uleb128 0x1
 21520 022d 13       		.uleb128 0x13
 21521 022e 00       		.byte	0
 21522 022f 00       		.byte	0
 21523 0230 2D       		.uleb128 0x2d
 21524 0231 13       		.uleb128 0x13
 21525 0232 00       		.byte	0
 21526 0233 03       		.uleb128 0x3
 21527 0234 0E       		.uleb128 0xe
 21528 0235 3C       		.uleb128 0x3c
 21529 0236 19       		.uleb128 0x19
 21530 0237 00       		.byte	0
 21531 0238 00       		.byte	0
 21532 0239 2E       		.uleb128 0x2e
 21533 023a 15       		.uleb128 0x15
 21534 023b 00       		.byte	0
 21535 023c 27       		.uleb128 0x27
 21536 023d 19       		.uleb128 0x19
 21537 023e 00       		.byte	0
 21538 023f 00       		.byte	0
 21539 0240 2F       		.uleb128 0x2f
 21540 0241 34       		.uleb128 0x34
 21541 0242 00       		.byte	0
 21542 0243 03       		.uleb128 0x3
 21543 0244 08       		.uleb128 0x8
 21544 0245 3A       		.uleb128 0x3a
 21545 0246 0B       		.uleb128 0xb
 21546 0247 3B       		.uleb128 0x3b
 21547 0248 0B       		.uleb128 0xb
 21548 0249 49       		.uleb128 0x49
 21549 024a 13       		.uleb128 0x13
 21550 024b 3F       		.uleb128 0x3f
 21551 024c 19       		.uleb128 0x19
 21552 024d 3C       		.uleb128 0x3c
 21553 024e 19       		.uleb128 0x19
 21554 024f 00       		.byte	0
 21555 0250 00       		.byte	0
 21556 0251 30       		.uleb128 0x30
 21557 0252 21       		.uleb128 0x21
 21558 0253 00       		.byte	0
 21559 0254 00       		.byte	0
 21560 0255 00       		.byte	0
 21561 0256 31       		.uleb128 0x31
 21562 0257 2E       		.uleb128 0x2e
 21563 0258 01       		.byte	0x1
 21564 0259 3F       		.uleb128 0x3f
 21565 025a 19       		.uleb128 0x19
ARM GAS  /var/folders/d2/nstgp4h54kz7g1l847x_b8wc0000gn/T//ccB20FE7.s 			page 385


 21566 025b 03       		.uleb128 0x3
 21567 025c 0E       		.uleb128 0xe
 21568 025d 3A       		.uleb128 0x3a
 21569 025e 0B       		.uleb128 0xb
 21570 025f 3B       		.uleb128 0x3b
 21571 0260 0B       		.uleb128 0xb
 21572 0261 27       		.uleb128 0x27
 21573 0262 19       		.uleb128 0x19
 21574 0263 49       		.uleb128 0x49
 21575 0264 13       		.uleb128 0x13
 21576 0265 11       		.uleb128 0x11
 21577 0266 01       		.uleb128 0x1
 21578 0267 12       		.uleb128 0x12
 21579 0268 06       		.uleb128 0x6
 21580 0269 40       		.uleb128 0x40
 21581 026a 18       		.uleb128 0x18
 21582 026b 9742     		.uleb128 0x2117
 21583 026d 19       		.uleb128 0x19
 21584 026e 01       		.uleb128 0x1
 21585 026f 13       		.uleb128 0x13
 21586 0270 00       		.byte	0
 21587 0271 00       		.byte	0
 21588 0272 32       		.uleb128 0x32
 21589 0273 34       		.uleb128 0x34
 21590 0274 00       		.byte	0
 21591 0275 03       		.uleb128 0x3
 21592 0276 08       		.uleb128 0x8
 21593 0277 3A       		.uleb128 0x3a
 21594 0278 0B       		.uleb128 0xb
 21595 0279 3B       		.uleb128 0x3b
 21596 027a 0B       		.uleb128 0xb
 21597 027b 49       		.uleb128 0x49
 21598 027c 13       		.uleb128 0x13
 21599 027d 02       		.uleb128 0x2
 21600 027e 18       		.uleb128 0x18
 21601 027f 00       		.byte	0
 21602 0280 00       		.byte	0
 21603 0281 33       		.uleb128 0x33
 21604 0282 34       		.uleb128 0x34
 21605 0283 00       		.byte	0
 21606 0284 03       		.uleb128 0x3
 21607 0285 0E       		.uleb128 0xe
 21608 0286 3A       		.uleb128 0x3a
 21609 0287 0B       		.uleb128 0xb
 21610 0288 3B       		.uleb128 0x3b
 21611 0289 0B       		.uleb128 0xb
 21612 028a 49       		.uleb128 0x49
 21613 028b 13       		.uleb128 0x13
 21614 028c 02       		.uleb128 0x2
 21615 028d 18       		.uleb128 0x18
 21616 028e 00       		.byte	0
 21617 028f 00       		.byte	0
 21618 0290 34       		.uleb128 0x34
 21619 0291 34       		.uleb128 0x34
 21620 0292 00       		.byte	0
 21621 0293 03       		.uleb128 0x3
 21622 0294 08       		.uleb128 0x8
ARM GAS  /var/folders/d2/nstgp4h54kz7g1l847x_b8wc0000gn/T//ccB20FE7.s 			page 386


 21623 0295 3A       		.uleb128 0x3a
 21624 0296 0B       		.uleb128 0xb
 21625 0297 3B       		.uleb128 0x3b
 21626 0298 0B       		.uleb128 0xb
 21627 0299 49       		.uleb128 0x49
 21628 029a 13       		.uleb128 0x13
 21629 029b 00       		.byte	0
 21630 029c 00       		.byte	0
 21631 029d 35       		.uleb128 0x35
 21632 029e 34       		.uleb128 0x34
 21633 029f 00       		.byte	0
 21634 02a0 03       		.uleb128 0x3
 21635 02a1 08       		.uleb128 0x8
 21636 02a2 3A       		.uleb128 0x3a
 21637 02a3 0B       		.uleb128 0xb
 21638 02a4 3B       		.uleb128 0x3b
 21639 02a5 0B       		.uleb128 0xb
 21640 02a6 49       		.uleb128 0x49
 21641 02a7 13       		.uleb128 0x13
 21642 02a8 02       		.uleb128 0x2
 21643 02a9 17       		.uleb128 0x17
 21644 02aa 00       		.byte	0
 21645 02ab 00       		.byte	0
 21646 02ac 36       		.uleb128 0x36
 21647 02ad 34       		.uleb128 0x34
 21648 02ae 00       		.byte	0
 21649 02af 03       		.uleb128 0x3
 21650 02b0 0E       		.uleb128 0xe
 21651 02b1 3A       		.uleb128 0x3a
 21652 02b2 0B       		.uleb128 0xb
 21653 02b3 3B       		.uleb128 0x3b
 21654 02b4 0B       		.uleb128 0xb
 21655 02b5 49       		.uleb128 0x49
 21656 02b6 13       		.uleb128 0x13
 21657 02b7 02       		.uleb128 0x2
 21658 02b8 17       		.uleb128 0x17
 21659 02b9 00       		.byte	0
 21660 02ba 00       		.byte	0
 21661 02bb 37       		.uleb128 0x37
 21662 02bc 34       		.uleb128 0x34
 21663 02bd 00       		.byte	0
 21664 02be 03       		.uleb128 0x3
 21665 02bf 0E       		.uleb128 0xe
 21666 02c0 3A       		.uleb128 0x3a
 21667 02c1 0B       		.uleb128 0xb
 21668 02c2 3B       		.uleb128 0x3b
 21669 02c3 0B       		.uleb128 0xb
 21670 02c4 49       		.uleb128 0x49
 21671 02c5 13       		.uleb128 0x13
 21672 02c6 1C       		.uleb128 0x1c
 21673 02c7 0B       		.uleb128 0xb
 21674 02c8 00       		.byte	0
 21675 02c9 00       		.byte	0
 21676 02ca 38       		.uleb128 0x38
 21677 02cb 0B       		.uleb128 0xb
 21678 02cc 01       		.byte	0x1
 21679 02cd 11       		.uleb128 0x11
ARM GAS  /var/folders/d2/nstgp4h54kz7g1l847x_b8wc0000gn/T//ccB20FE7.s 			page 387


 21680 02ce 01       		.uleb128 0x1
 21681 02cf 12       		.uleb128 0x12
 21682 02d0 06       		.uleb128 0x6
 21683 02d1 01       		.uleb128 0x1
 21684 02d2 13       		.uleb128 0x13
 21685 02d3 00       		.byte	0
 21686 02d4 00       		.byte	0
 21687 02d5 39       		.uleb128 0x39
 21688 02d6 34       		.uleb128 0x34
 21689 02d7 00       		.byte	0
 21690 02d8 03       		.uleb128 0x3
 21691 02d9 08       		.uleb128 0x8
 21692 02da 3A       		.uleb128 0x3a
 21693 02db 0B       		.uleb128 0xb
 21694 02dc 3B       		.uleb128 0x3b
 21695 02dd 05       		.uleb128 0x5
 21696 02de 49       		.uleb128 0x49
 21697 02df 13       		.uleb128 0x13
 21698 02e0 02       		.uleb128 0x2
 21699 02e1 17       		.uleb128 0x17
 21700 02e2 00       		.byte	0
 21701 02e3 00       		.byte	0
 21702 02e4 3A       		.uleb128 0x3a
 21703 02e5 898201   		.uleb128 0x4109
 21704 02e8 00       		.byte	0
 21705 02e9 11       		.uleb128 0x11
 21706 02ea 01       		.uleb128 0x1
 21707 02eb 31       		.uleb128 0x31
 21708 02ec 13       		.uleb128 0x13
 21709 02ed 00       		.byte	0
 21710 02ee 00       		.byte	0
 21711 02ef 3B       		.uleb128 0x3b
 21712 02f0 0B       		.uleb128 0xb
 21713 02f1 01       		.byte	0x1
 21714 02f2 55       		.uleb128 0x55
 21715 02f3 17       		.uleb128 0x17
 21716 02f4 01       		.uleb128 0x1
 21717 02f5 13       		.uleb128 0x13
 21718 02f6 00       		.byte	0
 21719 02f7 00       		.byte	0
 21720 02f8 3C       		.uleb128 0x3c
 21721 02f9 898201   		.uleb128 0x4109
 21722 02fc 01       		.byte	0x1
 21723 02fd 11       		.uleb128 0x11
 21724 02fe 01       		.uleb128 0x1
 21725 02ff 31       		.uleb128 0x31
 21726 0300 13       		.uleb128 0x13
 21727 0301 01       		.uleb128 0x1
 21728 0302 13       		.uleb128 0x13
 21729 0303 00       		.byte	0
 21730 0304 00       		.byte	0
 21731 0305 3D       		.uleb128 0x3d
 21732 0306 8A8201   		.uleb128 0x410a
 21733 0309 00       		.byte	0
 21734 030a 02       		.uleb128 0x2
 21735 030b 18       		.uleb128 0x18
 21736 030c 9142     		.uleb128 0x2111
ARM GAS  /var/folders/d2/nstgp4h54kz7g1l847x_b8wc0000gn/T//ccB20FE7.s 			page 388


 21737 030e 18       		.uleb128 0x18
 21738 030f 00       		.byte	0
 21739 0310 00       		.byte	0
 21740 0311 3E       		.uleb128 0x3e
 21741 0312 898201   		.uleb128 0x4109
 21742 0315 01       		.byte	0x1
 21743 0316 11       		.uleb128 0x11
 21744 0317 01       		.uleb128 0x1
 21745 0318 31       		.uleb128 0x31
 21746 0319 13       		.uleb128 0x13
 21747 031a 00       		.byte	0
 21748 031b 00       		.byte	0
 21749 031c 3F       		.uleb128 0x3f
 21750 031d 898201   		.uleb128 0x4109
 21751 0320 01       		.byte	0x1
 21752 0321 11       		.uleb128 0x11
 21753 0322 01       		.uleb128 0x1
 21754 0323 01       		.uleb128 0x1
 21755 0324 13       		.uleb128 0x13
 21756 0325 00       		.byte	0
 21757 0326 00       		.byte	0
 21758 0327 40       		.uleb128 0x40
 21759 0328 2E       		.uleb128 0x2e
 21760 0329 00       		.byte	0
 21761 032a 3F       		.uleb128 0x3f
 21762 032b 19       		.uleb128 0x19
 21763 032c 3C       		.uleb128 0x3c
 21764 032d 19       		.uleb128 0x19
 21765 032e 6E       		.uleb128 0x6e
 21766 032f 0E       		.uleb128 0xe
 21767 0330 03       		.uleb128 0x3
 21768 0331 0E       		.uleb128 0xe
 21769 0332 3A       		.uleb128 0x3a
 21770 0333 0B       		.uleb128 0xb
 21771 0334 3B       		.uleb128 0x3b
 21772 0335 0B       		.uleb128 0xb
 21773 0336 00       		.byte	0
 21774 0337 00       		.byte	0
 21775 0338 41       		.uleb128 0x41
 21776 0339 2E       		.uleb128 0x2e
 21777 033a 00       		.byte	0
 21778 033b 3F       		.uleb128 0x3f
 21779 033c 19       		.uleb128 0x19
 21780 033d 3C       		.uleb128 0x3c
 21781 033e 19       		.uleb128 0x19
 21782 033f 6E       		.uleb128 0x6e
 21783 0340 0E       		.uleb128 0xe
 21784 0341 03       		.uleb128 0x3
 21785 0342 0E       		.uleb128 0xe
 21786 0343 3A       		.uleb128 0x3a
 21787 0344 0B       		.uleb128 0xb
 21788 0345 3B       		.uleb128 0x3b
 21789 0346 0B       		.uleb128 0xb
 21790 0347 6E       		.uleb128 0x6e
 21791 0348 0E       		.uleb128 0xe
 21792 0349 00       		.byte	0
 21793 034a 00       		.byte	0
ARM GAS  /var/folders/d2/nstgp4h54kz7g1l847x_b8wc0000gn/T//ccB20FE7.s 			page 389


 21794 034b 00       		.byte	0
 21795              		.section	.debug_loc,"",%progbits
 21796              	.Ldebug_loc0:
 21797              	.LLST0:
 21798 0000 F6050000 		.4byte	.LVL54
 21799 0004 FA050000 		.4byte	.LVL55
 21800 0008 0600     		.2byte	0x6
 21801 000a 03       		.byte	0x3
 21802 000b 00000000 		.4byte	accelero.13464
 21803 000f 9F       		.byte	0x9f
 21804 0010 FA050000 		.4byte	.LVL55
 21805 0014 26060000 		.4byte	.LVL56
 21806 0018 0600     		.2byte	0x6
 21807 001a 03       		.byte	0x3
 21808 001b 01000000 		.4byte	accelero.13464+1
 21809 001f 9F       		.byte	0x9f
 21810 0020 26060000 		.4byte	.LVL56
 21811 0024 2A060000 		.4byte	.LVL57
 21812 0028 0600     		.2byte	0x6
 21813 002a 03       		.byte	0x3
 21814 002b 02000000 		.4byte	accelero.13464+2
 21815 002f 9F       		.byte	0x9f
 21816 0030 2A060000 		.4byte	.LVL57
 21817 0034 2E060000 		.4byte	.LVL58
 21818 0038 0600     		.2byte	0x6
 21819 003a 03       		.byte	0x3
 21820 003b 03000000 		.4byte	accelero.13464+3
 21821 003f 9F       		.byte	0x9f
 21822 0040 2E060000 		.4byte	.LVL58
 21823 0044 30060000 		.4byte	.LVL59
 21824 0048 0600     		.2byte	0x6
 21825 004a 03       		.byte	0x3
 21826 004b 0A000000 		.4byte	accelero.13464+10
 21827 004f 9F       		.byte	0x9f
 21828 0050 30060000 		.4byte	.LVL59
 21829 0054 7E080000 		.4byte	.LVL78
 21830 0058 0600     		.2byte	0x6
 21831 005a 03       		.byte	0x3
 21832 005b 0B000000 		.4byte	accelero.13464+11
 21833 005f 9F       		.byte	0x9f
 21834 0060 540D0000 		.4byte	.LVL134
 21835 0064 5E0D0000 		.4byte	.LVL135
 21836 0068 0600     		.2byte	0x6
 21837 006a 03       		.byte	0x3
 21838 006b 00000000 		.4byte	accelero.13464
 21839 006f 9F       		.byte	0x9f
 21840 0070 5E0D0000 		.4byte	.LVL135
 21841 0074 880D0000 		.4byte	.LVL136
 21842 0078 0600     		.2byte	0x6
 21843 007a 03       		.byte	0x3
 21844 007b 01000000 		.4byte	accelero.13464+1
 21845 007f 9F       		.byte	0x9f
 21846 0080 880D0000 		.4byte	.LVL136
 21847 0084 8C0D0000 		.4byte	.LVL137
 21848 0088 0600     		.2byte	0x6
 21849 008a 03       		.byte	0x3
 21850 008b 02000000 		.4byte	accelero.13464+2
ARM GAS  /var/folders/d2/nstgp4h54kz7g1l847x_b8wc0000gn/T//ccB20FE7.s 			page 390


 21851 008f 9F       		.byte	0x9f
 21852 0090 8C0D0000 		.4byte	.LVL137
 21853 0094 8E0D0000 		.4byte	.LVL138
 21854 0098 0600     		.2byte	0x6
 21855 009a 03       		.byte	0x3
 21856 009b 04000000 		.4byte	accelero.13464+4
 21857 009f 9F       		.byte	0x9f
 21858 00a0 8E0D0000 		.4byte	.LVL138
 21859 00a4 900D0000 		.4byte	.LVL139
 21860 00a8 0600     		.2byte	0x6
 21861 00aa 03       		.byte	0x3
 21862 00ab 05000000 		.4byte	accelero.13464+5
 21863 00af 9F       		.byte	0x9f
 21864 00b0 900D0000 		.4byte	.LVL139
 21865 00b4 920D0000 		.4byte	.LVL140
 21866 00b8 0600     		.2byte	0x6
 21867 00ba 03       		.byte	0x3
 21868 00bb 0A000000 		.4byte	accelero.13464+10
 21869 00bf 9F       		.byte	0x9f
 21870 00c0 920D0000 		.4byte	.LVL140
 21871 00c4 9C0D0000 		.4byte	.LVL141
 21872 00c8 0600     		.2byte	0x6
 21873 00ca 03       		.byte	0x3
 21874 00cb 0B000000 		.4byte	accelero.13464+11
 21875 00cf 9F       		.byte	0x9f
 21876 00d0 121E0000 		.4byte	.LVL409
 21877 00d4 401E0000 		.4byte	.LVL413
 21878 00d8 0600     		.2byte	0x6
 21879 00da 03       		.byte	0x3
 21880 00db 0B000000 		.4byte	accelero.13464+11
 21881 00df 9F       		.byte	0x9f
 21882 00e0 581E0000 		.4byte	.LVL415
 21883 00e4 7A1E0000 		.4byte	.LVL418
 21884 00e8 0600     		.2byte	0x6
 21885 00ea 03       		.byte	0x3
 21886 00eb 0B000000 		.4byte	accelero.13464+11
 21887 00ef 9F       		.byte	0x9f
 21888 00f0 C01E0000 		.4byte	.LVL422
 21889 00f4 F81E0000 		.4byte	.LVL424
 21890 00f8 0600     		.2byte	0x6
 21891 00fa 03       		.byte	0x3
 21892 00fb 0B000000 		.4byte	accelero.13464+11
 21893 00ff 9F       		.byte	0x9f
 21894 0100 00000000 		.4byte	0
 21895 0104 00000000 		.4byte	0
 21896              	.LLST1:
 21897 0108 10000000 		.4byte	.LVL0
 21898 010c 94000000 		.4byte	.LVL7
 21899 0110 0200     		.2byte	0x2
 21900 0112 30       		.byte	0x30
 21901 0113 9F       		.byte	0x9f
 21902 0114 B4000000 		.4byte	.LVL12
 21903 0118 E2000000 		.4byte	.LVL14
 21904 011c 0100     		.2byte	0x1
 21905 011e 56       		.byte	0x56
 21906 011f C8010000 		.4byte	.LVL29
 21907 0123 F6010000 		.4byte	.LVL31
ARM GAS  /var/folders/d2/nstgp4h54kz7g1l847x_b8wc0000gn/T//ccB20FE7.s 			page 391


 21908 0127 0100     		.2byte	0x1
 21909 0129 56       		.byte	0x56
 21910 012a 3C020000 		.4byte	.LVL34
 21911 012e C6030000 		.4byte	.LVL48
 21912 0132 0100     		.2byte	0x1
 21913 0134 56       		.byte	0x56
 21914 0135 8C1D0000 		.4byte	.LVL399
 21915 0139 A81D0000 		.4byte	.LVL401
 21916 013d 0100     		.2byte	0x1
 21917 013f 56       		.byte	0x56
 21918 0140 2E200000 		.4byte	.LVL434
 21919 0144 8C200000 		.4byte	.LVL438
 21920 0148 0100     		.2byte	0x1
 21921 014a 56       		.byte	0x56
 21922 014b 18270000 		.4byte	.LVL605
 21923 014f F8270000 		.4byte	.LFE259
 21924 0153 0200     		.2byte	0x2
 21925 0155 30       		.byte	0x30
 21926 0156 9F       		.byte	0x9f
 21927 0157 00000000 		.4byte	0
 21928 015b 00000000 		.4byte	0
 21929              	.LLST2:
 21930 015f 10000000 		.4byte	.LVL0
 21931 0163 94000000 		.4byte	.LVL7
 21932 0167 0200     		.2byte	0x2
 21933 0169 30       		.byte	0x30
 21934 016a 9F       		.byte	0x9f
 21935 016b B8000000 		.4byte	.LVL13
 21936 016f E2000000 		.4byte	.LVL14
 21937 0173 0100     		.2byte	0x1
 21938 0175 50       		.byte	0x50
 21939 0176 CC010000 		.4byte	.LVL30
 21940 017a F6010000 		.4byte	.LVL31
 21941 017e 0100     		.2byte	0x1
 21942 0180 50       		.byte	0x50
 21943 0181 3C020000 		.4byte	.LVL34
 21944 0185 4A020000 		.4byte	.LVL35
 21945 0189 0100     		.2byte	0x1
 21946 018b 50       		.byte	0x50
 21947 018c 5C020000 		.4byte	.LVL38
 21948 0190 12030000 		.4byte	.LVL39
 21949 0194 0100     		.2byte	0x1
 21950 0196 50       		.byte	0x50
 21951 0197 24030000 		.4byte	.LVL41
 21952 019b 32030000 		.4byte	.LVL42
 21953 019f 0100     		.2byte	0x1
 21954 01a1 50       		.byte	0x50
 21955 01a2 44030000 		.4byte	.LVL45
 21956 01a6 B4030000 		.4byte	.LVL46
 21957 01aa 0100     		.2byte	0x1
 21958 01ac 50       		.byte	0x50
 21959 01ad 8C1D0000 		.4byte	.LVL399
 21960 01b1 A81D0000 		.4byte	.LVL401
 21961 01b5 0100     		.2byte	0x1
 21962 01b7 50       		.byte	0x50
 21963 01b8 2E200000 		.4byte	.LVL434
 21964 01bc 31200000 		.4byte	.LVL435-1
ARM GAS  /var/folders/d2/nstgp4h54kz7g1l847x_b8wc0000gn/T//ccB20FE7.s 			page 392


 21965 01c0 0100     		.2byte	0x1
 21966 01c2 50       		.byte	0x50
 21967 01c3 3C200000 		.4byte	.LVL436
 21968 01c7 3F200000 		.4byte	.LVL437-1
 21969 01cb 0100     		.2byte	0x1
 21970 01cd 50       		.byte	0x50
 21971 01ce 18270000 		.4byte	.LVL605
 21972 01d2 F8270000 		.4byte	.LFE259
 21973 01d6 0200     		.2byte	0x2
 21974 01d8 30       		.byte	0x30
 21975 01d9 9F       		.byte	0x9f
 21976 01da 00000000 		.4byte	0
 21977 01de 00000000 		.4byte	0
 21978              	.LLST3:
 21979 01e2 10000000 		.4byte	.LVL0
 21980 01e6 94000000 		.4byte	.LVL7
 21981 01ea 0200     		.2byte	0x2
 21982 01ec 30       		.byte	0x30
 21983 01ed 9F       		.byte	0x9f
 21984 01ee 94000000 		.4byte	.LVL7
 21985 01f2 4A020000 		.4byte	.LVL35
 21986 01f6 0300     		.2byte	0x3
 21987 01f8 91       		.byte	0x91
 21988 01f9 807F     		.sleb128 -128
 21989 01fb 4A020000 		.4byte	.LVL35
 21990 01ff 5C020000 		.4byte	.LVL38
 21991 0203 0100     		.2byte	0x1
 21992 0205 56       		.byte	0x56
 21993 0206 5C020000 		.4byte	.LVL38
 21994 020a 32030000 		.4byte	.LVL42
 21995 020e 0300     		.2byte	0x3
 21996 0210 91       		.byte	0x91
 21997 0211 807F     		.sleb128 -128
 21998 0213 32030000 		.4byte	.LVL42
 21999 0217 44030000 		.4byte	.LVL45
 22000 021b 0100     		.2byte	0x1
 22001 021d 56       		.byte	0x56
 22002 021e 44030000 		.4byte	.LVL45
 22003 0222 18270000 		.4byte	.LVL605
 22004 0226 0300     		.2byte	0x3
 22005 0228 91       		.byte	0x91
 22006 0229 807F     		.sleb128 -128
 22007 022b 18270000 		.4byte	.LVL605
 22008 022f F8270000 		.4byte	.LFE259
 22009 0233 0200     		.2byte	0x2
 22010 0235 30       		.byte	0x30
 22011 0236 9F       		.byte	0x9f
 22012 0237 00000000 		.4byte	0
 22013 023b 00000000 		.4byte	0
 22014              	.LLST4:
 22015 023f 10000000 		.4byte	.LVL0
 22016 0243 3E000000 		.4byte	.LVL3
 22017 0247 0200     		.2byte	0x2
 22018 0249 30       		.byte	0x30
 22019 024a 9F       		.byte	0x9f
 22020 024b 3E000000 		.4byte	.LVL3
 22021 024f 45000000 		.4byte	.LVL4-1
ARM GAS  /var/folders/d2/nstgp4h54kz7g1l847x_b8wc0000gn/T//ccB20FE7.s 			page 393


 22022 0253 0100     		.2byte	0x1
 22023 0255 53       		.byte	0x53
 22024 0256 45000000 		.4byte	.LVL4-1
 22025 025a 80000000 		.4byte	.LVL6
 22026 025e 0300     		.2byte	0x3
 22027 0260 91       		.byte	0x91
 22028 0261 847F     		.sleb128 -124
 22029 0263 18270000 		.4byte	.LVL605
 22030 0267 1C270000 		.4byte	.LVL606
 22031 026b 0200     		.2byte	0x2
 22032 026d 30       		.byte	0x30
 22033 026e 9F       		.byte	0x9f
 22034 026f 1C270000 		.4byte	.LVL606
 22035 0273 C6270000 		.4byte	.LVL617
 22036 0277 0300     		.2byte	0x3
 22037 0279 91       		.byte	0x91
 22038 027a 847F     		.sleb128 -124
 22039 027c 00000000 		.4byte	0
 22040 0280 00000000 		.4byte	0
 22041              	.LLST5:
 22042 0284 10000000 		.4byte	.LVL0
 22043 0288 94000000 		.4byte	.LVL7
 22044 028c 0200     		.2byte	0x2
 22045 028e 30       		.byte	0x30
 22046 028f 9F       		.byte	0x9f
 22047 0290 90070000 		.4byte	.LVL71
 22048 0294 A5070000 		.4byte	.LVL72-1
 22049 0298 0100     		.2byte	0x1
 22050 029a 50       		.byte	0x50
 22051 029b 160A0000 		.4byte	.LVL94
 22052 029f 2A0A0000 		.4byte	.LVL95
 22053 02a3 0100     		.2byte	0x1
 22054 02a5 50       		.byte	0x50
 22055 02a6 18270000 		.4byte	.LVL605
 22056 02aa F8270000 		.4byte	.LFE259
 22057 02ae 0200     		.2byte	0x2
 22058 02b0 30       		.byte	0x30
 22059 02b1 9F       		.byte	0x9f
 22060 02b2 00000000 		.4byte	0
 22061 02b6 00000000 		.4byte	0
 22062              	.LLST6:
 22063 02ba 10000000 		.4byte	.LVL0
 22064 02be 94000000 		.4byte	.LVL7
 22065 02c2 0200     		.2byte	0x2
 22066 02c4 30       		.byte	0x30
 22067 02c5 9F       		.byte	0x9f
 22068 02c6 94000000 		.4byte	.LVL7
 22069 02ca E2000000 		.4byte	.LVL14
 22070 02ce 0300     		.2byte	0x3
 22071 02d0 91       		.byte	0x91
 22072 02d1 A47F     		.sleb128 -92
 22073 02d3 AC010000 		.4byte	.LVL24
 22074 02d7 B4010000 		.4byte	.LVL25
 22075 02db 0300     		.2byte	0x3
 22076 02dd 91       		.byte	0x91
 22077 02de A47F     		.sleb128 -92
 22078 02e0 3C020000 		.4byte	.LVL34
ARM GAS  /var/folders/d2/nstgp4h54kz7g1l847x_b8wc0000gn/T//ccB20FE7.s 			page 394


 22079 02e4 24030000 		.4byte	.LVL41
 22080 02e8 0300     		.2byte	0x3
 22081 02ea 91       		.byte	0x91
 22082 02eb A47F     		.sleb128 -92
 22083 02ed D40D0000 		.4byte	.LVL143
 22084 02f1 D60D0000 		.4byte	.LVL144
 22085 02f5 0100     		.2byte	0x1
 22086 02f7 52       		.byte	0x52
 22087 02f8 D60D0000 		.4byte	.LVL144
 22088 02fc 000E0000 		.4byte	.LVL145
 22089 0300 0300     		.2byte	0x3
 22090 0302 91       		.byte	0x91
 22091 0303 A47F     		.sleb128 -92
 22092 0305 8C1D0000 		.4byte	.LVL399
 22093 0309 9A1D0000 		.4byte	.LVL400
 22094 030d 0300     		.2byte	0x3
 22095 030f 91       		.byte	0x91
 22096 0310 A47F     		.sleb128 -92
 22097 0312 2E200000 		.4byte	.LVL434
 22098 0316 3C200000 		.4byte	.LVL436
 22099 031a 0300     		.2byte	0x3
 22100 031c 91       		.byte	0x91
 22101 031d A47F     		.sleb128 -92
 22102 031f 18270000 		.4byte	.LVL605
 22103 0323 F8270000 		.4byte	.LFE259
 22104 0327 0200     		.2byte	0x2
 22105 0329 30       		.byte	0x30
 22106 032a 9F       		.byte	0x9f
 22107 032b 00000000 		.4byte	0
 22108 032f 00000000 		.4byte	0
 22109              	.LLST7:
 22110 0333 10000000 		.4byte	.LVL0
 22111 0337 94000000 		.4byte	.LVL7
 22112 033b 0600     		.2byte	0x6
 22113 033d 9E       		.byte	0x9e
 22114 033e 04       		.uleb128 0x4
 22115 033f 00000000 		.4byte	0
 22116 0343 5C060000 		.4byte	.LVL60
 22117 0347 98060000 		.4byte	.LVL62
 22118 034b 0200     		.2byte	0x2
 22119 034d 90       		.byte	0x90
 22120 034e 40       		.uleb128 0x40
 22121 034f 2C1E0000 		.4byte	.LVL411
 22122 0353 2F1E0000 		.4byte	.LVL412-1
 22123 0357 0200     		.2byte	0x2
 22124 0359 90       		.byte	0x90
 22125 035a 40       		.uleb128 0x40
 22126 035b 18270000 		.4byte	.LVL605
 22127 035f F8270000 		.4byte	.LFE259
 22128 0363 0600     		.2byte	0x6
 22129 0365 9E       		.byte	0x9e
 22130 0366 04       		.uleb128 0x4
 22131 0367 00000000 		.4byte	0
 22132 036b 00000000 		.4byte	0
 22133 036f 00000000 		.4byte	0
 22134              	.LLST8:
 22135 0373 10000000 		.4byte	.LVL0
ARM GAS  /var/folders/d2/nstgp4h54kz7g1l847x_b8wc0000gn/T//ccB20FE7.s 			page 395


 22136 0377 94000000 		.4byte	.LVL7
 22137 037b 0200     		.2byte	0x2
 22138 037d 30       		.byte	0x30
 22139 037e 9F       		.byte	0x9f
 22140 037f 68060000 		.4byte	.LVL61
 22141 0383 98060000 		.4byte	.LVL62
 22142 0387 0200     		.2byte	0x2
 22143 0389 90       		.byte	0x90
 22144 038a 40       		.uleb128 0x40
 22145 038b 2C1E0000 		.4byte	.LVL411
 22146 038f 2F1E0000 		.4byte	.LVL412-1
 22147 0393 0200     		.2byte	0x2
 22148 0395 90       		.byte	0x90
 22149 0396 40       		.uleb128 0x40
 22150 0397 18270000 		.4byte	.LVL605
 22151 039b F8270000 		.4byte	.LFE259
 22152 039f 0200     		.2byte	0x2
 22153 03a1 30       		.byte	0x30
 22154 03a2 9F       		.byte	0x9f
 22155 03a3 00000000 		.4byte	0
 22156 03a7 00000000 		.4byte	0
 22157              	.LLST10:
 22158 03ab 98100000 		.4byte	.LVL173
 22159 03af AA100000 		.4byte	.LVL175
 22160 03b3 0100     		.2byte	0x1
 22161 03b5 54       		.byte	0x54
 22162 03b6 00000000 		.4byte	0
 22163 03ba 00000000 		.4byte	0
 22164              	.LLST9:
 22165 03be DA1B0000 		.4byte	.LVL367
 22166 03c2 041C0000 		.4byte	.LVL374
 22167 03c6 0200     		.2byte	0x2
 22168 03c8 30       		.byte	0x30
 22169 03c9 9F       		.byte	0x9f
 22170 03ca 7E210000 		.4byte	.LVL454
 22171 03ce 98210000 		.4byte	.LVL459
 22172 03d2 0200     		.2byte	0x2
 22173 03d4 30       		.byte	0x30
 22174 03d5 9F       		.byte	0x9f
 22175 03d6 0C220000 		.4byte	.LVL470
 22176 03da 36220000 		.4byte	.LVL477
 22177 03de 0200     		.2byte	0x2
 22178 03e0 30       		.byte	0x30
 22179 03e1 9F       		.byte	0x9f
 22180 03e2 00000000 		.4byte	0
 22181 03e6 00000000 		.4byte	0
 22182              		.section	.debug_aranges,"",%progbits
 22183 0000 1C000000 		.4byte	0x1c
 22184 0004 0200     		.2byte	0x2
 22185 0006 00000000 		.4byte	.Ldebug_info0
 22186 000a 04       		.byte	0x4
 22187 000b 00       		.byte	0
 22188 000c 0000     		.2byte	0
 22189 000e 0000     		.2byte	0
 22190 0010 00000000 		.4byte	.LFB259
 22191 0014 F8270000 		.4byte	.LFE259-.LFB259
 22192 0018 00000000 		.4byte	0
ARM GAS  /var/folders/d2/nstgp4h54kz7g1l847x_b8wc0000gn/T//ccB20FE7.s 			page 396


 22193 001c 00000000 		.4byte	0
 22194              		.section	.debug_ranges,"",%progbits
 22195              	.Ldebug_ranges0:
 22196 0000 68010000 		.4byte	.LBB2
 22197 0004 AC010000 		.4byte	.LBE2
 22198 0008 90110000 		.4byte	.LBB4
 22199 000c 5C1D0000 		.4byte	.LBE4
 22200 0010 721D0000 		.4byte	.LBB5
 22201 0014 8C1D0000 		.4byte	.LBE5
 22202 0018 20210000 		.4byte	.LBB6
 22203 001c C4210000 		.4byte	.LBE6
 22204 0020 E8210000 		.4byte	.LBB7
 22205 0024 18270000 		.4byte	.LBE7
 22206 0028 00000000 		.4byte	0
 22207 002c 00000000 		.4byte	0
 22208 0030 00000000 		.4byte	.LFB259
 22209 0034 F8270000 		.4byte	.LFE259
 22210 0038 00000000 		.4byte	0
 22211 003c 00000000 		.4byte	0
 22212              		.section	.debug_line,"",%progbits
 22213              	.Ldebug_line0:
 22214 0000 311A0000 		.section	.debug_str,"MS",%progbits,1
 22214      02008C0D 
 22214      00000201 
 22214      FB0E0D00 
 22214      01010101 
 22215              	.LASF581:
 22216 0000 5553425F 		.ascii	"USB_STOP\000"
 22216      53544F50 
 22216      00
 22217              	.LASF195:
 22218 0009 706F7274 		.ascii	"port_intctx\000"
 22218      5F696E74 
 22218      63747800 
 22219              	.LASF204:
 22220 0015 63685F74 		.ascii	"ch_trace_buffer_t\000"
 22220      72616365 
 22220      5F627566 
 22220      6665725F 
 22220      7400
 22221              	.LASF237:
 22222 0027 63685F70 		.ascii	"ch_ptrsize\000"
 22222      74727369 
 22222      7A6500
 22223              	.LASF777:
 22224 0032 6D657373 		.ascii	"messagebus_watcher_s\000"
 22224      61676562 
 22224      75735F77 
 22224      61746368 
 22224      65725F73 
 22225              	.LASF517:
 22226 0047 6576656E 		.ascii	"event\000"
 22226      7400
 22227              	.LASF874:
 22228 004d 5F6D6272 		.ascii	"_mbrtowc_state\000"
 22228      746F7763 
 22228      5F737461 
ARM GAS  /var/folders/d2/nstgp4h54kz7g1l847x_b8wc0000gn/T//ccB20FE7.s 			page 397


 22228      746500
 22229              	.LASF919:
 22230 005c 53414E44 		.ascii	"SANDSTORMS\000"
 22230      53544F52 
 22230      4D5300
 22231              	.LASF368:
 22232 0067 43414E5F 		.ascii	"CAN_STARTING\000"
 22232      53544152 
 22232      54494E47 
 22232      00
 22233              	.LASF942:
 22234 0074 4C45445F 		.ascii	"LED_nbr\000"
 22234      6E627200 
 22235              	.LASF975:
 22236 007c 6765745A 		.ascii	"getZAxisGyro\000"
 22236      41786973 
 22236      4779726F 
 22236      00
 22237              	.LASF1036:
 22238 0089 564C3533 		.ascii	"VL53L0X_get_dist_mm\000"
 22238      4C30585F 
 22238      6765745F 
 22238      64697374 
 22238      5F6D6D00 
 22239              	.LASF738:
 22240 009d 44434D49 		.ascii	"DCMI_ACTIVE_ONESHOT\000"
 22240      5F414354 
 22240      4956455F 
 22240      4F4E4553 
 22240      484F5400 
 22241              	.LASF32:
 22242 00b1 6D73675F 		.ascii	"msg_t\000"
 22242      7400
 22243              	.LASF313:
 22244 00b7 61667268 		.ascii	"afrh\000"
 22244      00
 22245              	.LASF460:
 22246 00bc 4F504D4F 		.ascii	"OPMODE_SMBUS_DEVICE\000"
 22246      44455F53 
 22246      4D425553 
 22246      5F444556 
 22246      49434500 
 22247              	.LASF215:
 22248 00d0 6D5F6372 		.ascii	"m_crit_isr\000"
 22248      69745F69 
 22248      737200
 22249              	.LASF1005:
 22250 00db 655F6765 		.ascii	"e_get_steps_left\000"
 22250      745F7374 
 22250      6570735F 
 22250      6C656674 
 22250      00
 22251              	.LASF941:
 22252 00ec 706F7369 		.ascii	"positionl\000"
 22252      74696F6E 
 22252      6C00
 22253              	.LASF940:
ARM GAS  /var/folders/d2/nstgp4h54kz7g1l847x_b8wc0000gn/T//ccB20FE7.s 			page 398


 22254 00f6 706F7369 		.ascii	"positionr\000"
 22254      74696F6E 
 22254      7200
 22255              	.LASF965:
 22256 0100 62617474 		.ascii	"battValue\000"
 22256      56616C75 
 22256      6500
 22257              	.LASF905:
 22258 010a 76656374 		.ascii	"vect\000"
 22258      00
 22259              	.LASF640:
 22260 010f 44494550 		.ascii	"DIEPTXF0\000"
 22260      54584630 
 22260      00
 22261              	.LASF716:
 22262 0118 55534244 		.ascii	"USBD1\000"
 22262      3100
 22263              	.LASF367:
 22264 011e 43414E5F 		.ascii	"CAN_STOP\000"
 22264      53544F50 
 22264      00
 22265              	.LASF250:
 22266 0127 63665F6F 		.ascii	"cf_off_time\000"
 22266      66665F74 
 22266      696D6500 
 22267              	.LASF91:
 22268 0133 63685F73 		.ascii	"ch_system_t\000"
 22268      79737465 
 22268      6D5F7400 
 22269              	.LASF6:
 22270 013f 5F5F7569 		.ascii	"__uint8_t\000"
 22270      6E74385F 
 22270      7400
 22271              	.LASF221:
 22272 0149 77747365 		.ascii	"wtsemp\000"
 22272      6D7000
 22273              	.LASF923:
 22274 0150 4D4C5F53 		.ascii	"ML_SIMPLE_PLAY\000"
 22274      494D504C 
 22274      455F504C 
 22274      415900
 22275              	.LASF297:
 22276 015f 5F426F6F 		.ascii	"_Bool\000"
 22276      6C00
 22277              	.LASF409:
 22278 0165 64617461 		.ascii	"datamode\000"
 22278      6D6F6465 
 22278      00
 22279              	.LASF476:
 22280 016e 646D6172 		.ascii	"dmarx\000"
 22280      7800
 22281              	.LASF1049:
 22282 0174 2F557365 		.ascii	"/Users/bharathkeshavamurthy/Workspaces/Talos/src/ma"
 22282      72732F62 
 22282      68617261 
 22282      74686B65 
 22282      73686176 
ARM GAS  /var/folders/d2/nstgp4h54kz7g1l847x_b8wc0000gn/T//ccB20FE7.s 			page 399


 22283 01a7 696E2F63 		.ascii	"in/cpp/org/purdue/ece/talos/optimize/\000"
 22283      70702F6F 
 22283      72672F70 
 22283      75726475 
 22283      652F6563 
 22284              	.LASF481:
 22285 01cd 4932535F 		.ascii	"I2S_READY\000"
 22285      52454144 
 22285      5900
 22286              	.LASF807:
 22287 01d7 5F617465 		.ascii	"_atexit\000"
 22287      78697400 
 22288              	.LASF1016:
 22289 01df 655F7561 		.ascii	"e_uart2_sending\000"
 22289      7274325F 
 22289      73656E64 
 22289      696E6700 
 22290              	.LASF1040:
 22291 01ef 655F7265 		.ascii	"e_read_acc_spheric\000"
 22291      61645F61 
 22291      63635F73 
 22291      70686572 
 22291      696300
 22292              	.LASF1010:
 22293 0202 655F6765 		.ascii	"e_get_ambient_light\000"
 22293      745F616D 
 22293      6269656E 
 22293      745F6C69 
 22293      67687400 
 22294              	.LASF889:
 22295 0216 6368616E 		.ascii	"changed_cnt\000"
 22295      6765645F 
 22295      636E7400 
 22296              	.LASF886:
 22297 0222 7375626F 		.ascii	"suboptarg\000"
 22297      70746172 
 22297      6700
 22298              	.LASF357:
 22299 022c 73717231 		.ascii	"sqr1\000"
 22299      00
 22300              	.LASF774:
 22301 0231 7075626C 		.ascii	"published\000"
 22301      69736865 
 22301      6400
 22302              	.LASF284:
 22303 023b 424C4B5F 		.ascii	"BLK_UNINIT\000"
 22303      554E494E 
 22303      495400
 22304              	.LASF488:
 22305 0246 72785F62 		.ascii	"rx_buffer\000"
 22305      75666665 
 22305      7200
 22306              	.LASF472:
 22307 0250 6572726F 		.ascii	"errors\000"
 22307      727300
 22308              	.LASF966:
 22309 0257 67756D73 		.ascii	"gumstix_connected\000"
ARM GAS  /var/folders/d2/nstgp4h54kz7g1l847x_b8wc0000gn/T//ccB20FE7.s 			page 400


 22309      7469785F 
 22309      636F6E6E 
 22309      65637465 
 22309      6400
 22310              	.LASF208:
 22311 0269 776F7273 		.ascii	"worst\000"
 22311      7400
 22312              	.LASF84:
 22313 026f 76745F73 		.ascii	"vt_systime\000"
 22313      79737469 
 22313      6D6500
 22314              	.LASF150:
 22315 027a 444F5231 		.ascii	"DOR1\000"
 22315      00
 22316              	.LASF151:
 22317 027f 444F5232 		.ascii	"DOR2\000"
 22317      00
 22318              	.LASF487:
 22319 0284 74785F62 		.ascii	"tx_buffer\000"
 22319      75666665 
 22319      7200
 22320              	.LASF1025:
 22321 028e 6765745F 		.ascii	"get_magnetic_field\000"
 22321      6D61676E 
 22321      65746963 
 22321      5F666965 
 22321      6C6400
 22322              	.LASF797:
 22323 02a1 5F5F746D 		.ascii	"__tm_mon\000"
 22323      5F6D6F6E 
 22323      00
 22324              	.LASF805:
 22325 02aa 5F666E74 		.ascii	"_fntypes\000"
 22325      79706573 
 22325      00
 22326              	.LASF230:
 22327 02b3 6D5F6E65 		.ascii	"m_next\000"
 22327      787400
 22328              	.LASF317:
 22329 02ba 50434461 		.ascii	"PCData\000"
 22329      746100
 22330              	.LASF835:
 22331 02c1 5F696E63 		.ascii	"_inc\000"
 22331      00
 22332              	.LASF808:
 22333 02c6 5F696E64 		.ascii	"_ind\000"
 22333      00
 22334              	.LASF180:
 22335 02cb 4D41534B 		.ascii	"MASK\000"
 22335      00
 22336              	.LASF342:
 22337 02d0 73616D70 		.ascii	"samples\000"
 22337      6C657300 
 22338              	.LASF644:
 22339 02d8 47434346 		.ascii	"GCCFG\000"
 22339      4700
 22340              	.LASF908:
ARM GAS  /var/folders/d2/nstgp4h54kz7g1l847x_b8wc0000gn/T//ccB20FE7.s 			page 401


 22341 02de 57455F41 		.ascii	"WE_ARE_THE_CHAMPIONS\000"
 22341      52455F54 
 22341      48455F43 
 22341      48414D50 
 22341      494F4E53 
 22342              	.LASF438:
 22343 02f3 42445452 		.ascii	"BDTR\000"
 22343      00
 22344              	.LASF391:
 22345 02f8 7265676D 		.ascii	"regmask\000"
 22345      61736B00 
 22346              	.LASF954:
 22347 0300 63616D5F 		.ascii	"cam_zoom\000"
 22347      7A6F6F6D 
 22347      00
 22348              	.LASF470:
 22349 0309 49324343 		.ascii	"I2CConfig\000"
 22349      6F6E6669 
 22349      6700
 22350              	.LASF21:
 22351 0313 75696E74 		.ascii	"uint16_t\000"
 22351      31365F74 
 22351      00
 22352              	.LASF477:
 22353 031c 646D6174 		.ascii	"dmatx\000"
 22353      7800
 22354              	.LASF714:
 22355 0322 736F665F 		.ascii	"sof_cb\000"
 22355      636200
 22356              	.LASF414:
 22357 0329 4558545F 		.ascii	"EXT_ACTIVE\000"
 22357      41435449 
 22357      564500
 22358              	.LASF814:
 22359 0334 5F666C61 		.ascii	"_flags\000"
 22359      677300
 22360              	.LASF776:
 22361 033b 6E657874 		.ascii	"next\000"
 22361      00
 22362              	.LASF310:
 22363 0340 6F737065 		.ascii	"ospeedr\000"
 22363      65647200 
 22364              	.LASF1046:
 22365 0348 655F6163 		.ascii	"e_acc_calibr\000"
 22365      635F6361 
 22365      6C696272 
 22365      00
 22366              	.LASF647:
 22367 0355 44494550 		.ascii	"DIEPTXF\000"
 22367      54584600 
 22368              	.LASF256:
 22369 035d 656C5F6E 		.ascii	"el_next\000"
 22369      65787400 
 22370              	.LASF934:
 22371 0365 696E636C 		.ascii	"inclination\000"
 22371      696E6174 
 22371      696F6E00 
ARM GAS  /var/folders/d2/nstgp4h54kz7g1l847x_b8wc0000gn/T//ccB20FE7.s 			page 402


 22372              	.LASF337:
 22373 0371 4144435F 		.ascii	"ADC_ERR_OVERFLOW\000"
 22373      4552525F 
 22373      4F564552 
 22373      464C4F57 
 22373      00
 22374              	.LASF721:
 22375 0382 53657269 		.ascii	"SerialUSBDriver\000"
 22375      616C5553 
 22375      42447269 
 22375      76657200 
 22376              	.LASF845:
 22377 0392 5F637674 		.ascii	"_cvtlen\000"
 22377      6C656E00 
 22378              	.LASF933:
 22379 039a 6F726965 		.ascii	"orientation\000"
 22379      6E746174 
 22379      696F6E00 
 22380              	.LASF89:
 22381 03a6 6C6F636B 		.ascii	"lock_cnt\000"
 22381      5F636E74 
 22381      00
 22382              	.LASF65:
 22383 03af 63685F74 		.ascii	"ch_threads_queue\000"
 22383      68726561 
 22383      64735F71 
 22383      75657565 
 22383      00
 22384              	.LASF849:
 22385 03c0 5F736967 		.ascii	"_sig_func\000"
 22385      5F66756E 
 22385      6300
 22386              	.LASF43:
 22387 03ca 705F6E65 		.ascii	"p_newer\000"
 22387      77657200 
 22388              	.LASF657:
 22389 03d2 48505254 		.ascii	"HPRT\000"
 22389      00
 22390              	.LASF997:
 22391 03d7 655F696E 		.ascii	"e_init_sound\000"
 22391      69745F73 
 22391      6F756E64 
 22391      00
 22392              	.LASF611:
 22393 03e4 4843494E 		.ascii	"HCINT\000"
 22393      5400
 22394              	.LASF959:
 22395 03ea 7267625F 		.ascii	"rgb_value\000"
 22395      76616C75 
 22395      6500
 22396              	.LASF1004:
 22397 03f4 6765745F 		.ascii	"get_ground_prox\000"
 22397      67726F75 
 22397      6E645F70 
 22397      726F7800 
 22398              	.LASF100:
 22399 0404 534D5052 		.ascii	"SMPR1\000"
ARM GAS  /var/folders/d2/nstgp4h54kz7g1l847x_b8wc0000gn/T//ccB20FE7.s 			page 403


 22399      3100
 22400              	.LASF101:
 22401 040a 534D5052 		.ascii	"SMPR2\000"
 22401      3200
 22402              	.LASF247:
 22403 0410 63665F6F 		.ascii	"cf_off_flags\000"
 22403      66665F66 
 22403      6C616773 
 22403      00
 22404              	.LASF827:
 22405 041d 5F6C6F63 		.ascii	"_lock\000"
 22405      6B00
 22406              	.LASF823:
 22407 0423 5F6E6275 		.ascii	"_nbuf\000"
 22407      6600
 22408              	.LASF550:
 22409 0429 5350495F 		.ascii	"SPI_STOP\000"
 22409      53544F50 
 22409      00
 22410              	.LASF504:
 22411 0432 70776D63 		.ascii	"pwmchnmsk_t\000"
 22411      686E6D73 
 22411      6B5F7400 
 22412              	.LASF907:
 22413 043e 494D504F 		.ascii	"IMPOSSIBLE_MISSION\000"
 22413      53534942 
 22413      4C455F4D 
 22413      49535349 
 22413      4F4E00
 22414              	.LASF316:
 22415 0451 50424461 		.ascii	"PBData\000"
 22415      746100
 22416              	.LASF235:
 22417 0458 63685F73 		.ascii	"ch_size\000"
 22417      697A6500 
 22418              	.LASF735:
 22419 0460 44434D49 		.ascii	"DCMI_STOP\000"
 22419      5F53544F 
 22419      5000
 22420              	.LASF653:
 22421 046a 48505458 		.ascii	"HPTXSTS\000"
 22421      53545300 
 22422              	.LASF309:
 22423 0472 6F747970 		.ascii	"otyper\000"
 22423      657200
 22424              	.LASF300:
 22425 0479 4F545950 		.ascii	"OTYPER\000"
 22425      455200
 22426              	.LASF393:
 22427 0480 64616370 		.ascii	"dacparams_t\000"
 22427      6172616D 
 22427      735F7400 
 22428              	.LASF528:
 22429 048c 5344435F 		.ascii	"SDC_MODE_1BIT\000"
 22429      4D4F4445 
 22429      5F314249 
 22429      5400
ARM GAS  /var/folders/d2/nstgp4h54kz7g1l847x_b8wc0000gn/T//ccB20FE7.s 			page 404


 22430              	.LASF609:
 22431 049a 48434348 		.ascii	"HCCHAR\000"
 22431      415200
 22432              	.LASF1009:
 22433 04a1 655F6361 		.ascii	"e_calibrate_ir\000"
 22433      6C696272 
 22433      6174655F 
 22433      697200
 22434              	.LASF804:
 22435 04b0 5F64736F 		.ascii	"_dso_handle\000"
 22435      5F68616E 
 22435      646C6500 
 22436              	.LASF454:
 22437 04bc 4932435F 		.ascii	"I2C_ACTIVE_RX\000"
 22437      41435449 
 22437      56455F52 
 22437      5800
 22438              	.LASF38:
 22439 04ca 74687265 		.ascii	"thread_t\000"
 22439      61645F74 
 22439      00
 22440              	.LASF258:
 22441 04d3 656C5F65 		.ascii	"el_events\000"
 22441      76656E74 
 22441      7300
 22442              	.LASF497:
 22443 04dd 70776D73 		.ascii	"pwmstate_t\000"
 22443      74617465 
 22443      5F7400
 22444              	.LASF378:
 22445 04e8 736C6565 		.ascii	"sleep_event\000"
 22445      705F6576 
 22445      656E7400 
 22446              	.LASF83:
 22447 04f4 63685F76 		.ascii	"ch_virtual_timers_list\000"
 22447      69727475 
 22447      616C5F74 
 22447      696D6572 
 22447      735F6C69 
 22448              	.LASF281:
 22449 050b 76656374 		.ascii	"vector\000"
 22449      6F7200
 22450              	.LASF22:
 22451 0512 696E7433 		.ascii	"int32_t\000"
 22451      325F7400 
 22452              	.LASF869:
 22453 051a 5F776374 		.ascii	"_wctomb_state\000"
 22453      6F6D625F 
 22453      73746174 
 22453      6500
 22454              	.LASF990:
 22455 0528 655F7365 		.ascii	"e_set_led\000"
 22455      745F6C65 
 22455      6400
 22456              	.LASF468:
 22457 0532 636C6F63 		.ascii	"clock_speed\000"
 22457      6B5F7370 
ARM GAS  /var/folders/d2/nstgp4h54kz7g1l847x_b8wc0000gn/T//ccB20FE7.s 			page 405


 22457      65656400 
 22458              	.LASF37:
 22459 053e 73797374 		.ascii	"systime_t\000"
 22459      696D655F 
 22459      7400
 22460              	.LASF411:
 22461 0548 44414344 		.ascii	"DACD2\000"
 22461      3200
 22462              	.LASF380:
 22463 054e 43414E44 		.ascii	"CANDriver\000"
 22463      72697665 
 22463      7200
 22464              	.LASF245:
 22465 0558 63665F6F 		.ascii	"cf_off_stklimit\000"
 22465      66665F73 
 22465      746B6C69 
 22465      6D697400 
 22466              	.LASF161:
 22467 0568 4D304152 		.ascii	"M0AR\000"
 22467      00
 22468              	.LASF1001:
 22469 056d 655F6765 		.ascii	"e_get_data\000"
 22469      745F6461 
 22469      746100
 22470              	.LASF616:
 22471 0578 72657376 		.ascii	"resvd1c\000"
 22471      64316300 
 22472              	.LASF458:
 22473 0580 69326366 		.ascii	"i2cflags_t\000"
 22473      6C616773 
 22473      5F7400
 22474              	.LASF654:
 22475 058b 4841494E 		.ascii	"HAINT\000"
 22475      5400
 22476              	.LASF136:
 22477 0591 46413152 		.ascii	"FA1R\000"
 22477      00
 22478              	.LASF1051:
 22479 0596 6D656D63 		.ascii	"memcpy\000"
 22479      707900
 22480              	.LASF159:
 22481 059d 44434D49 		.ascii	"DCMI_TypeDef\000"
 22481      5F547970 
 22481      65446566 
 22481      00
 22482              	.LASF651:
 22483 05aa 48464E55 		.ascii	"HFNUM\000"
 22483      4D00
 22484              	.LASF1027:
 22485 05b0 6765745F 		.ascii	"get_ground_ambient_light\000"
 22485      67726F75 
 22485      6E645F61 
 22485      6D626965 
 22485      6E745F6C 
 22486              	.LASF890:
 22487 05c9 70617265 		.ascii	"parent\000"
 22487      6E7400
ARM GAS  /var/folders/d2/nstgp4h54kz7g1l847x_b8wc0000gn/T//ccB20FE7.s 			page 406


 22488              	.LASF274:
 22489 05d0 716E6F74 		.ascii	"qnotify_t\000"
 22489      6966795F 
 22489      7400
 22490              	.LASF333:
 22491 05da 61646373 		.ascii	"adcstate_t\000"
 22491      74617465 
 22491      5F7400
 22492              	.LASF784:
 22493 05e5 7075626C 		.ascii	"published_topic\000"
 22493      69736865 
 22493      645F746F 
 22493      70696300 
 22494              	.LASF751:
 22495 05f5 44434D49 		.ascii	"DCMID\000"
 22495      4400
 22496              	.LASF279:
 22497 05fb 69736869 		.ascii	"ishift\000"
 22497      667400
 22498              	.LASF992:
 22499 0602 655F6932 		.ascii	"e_i2cp_write\000"
 22499      63705F77 
 22499      72697465 
 22499      00
 22500              	.LASF428:
 22501 060f 4750545F 		.ascii	"GPT_ONESHOT\000"
 22501      4F4E4553 
 22501      484F5400 
 22502              	.LASF269:
 22503 061b 715F746F 		.ascii	"q_top\000"
 22503      7000
 22504              	.LASF816:
 22505 0621 5F6C6266 		.ascii	"_lbfsize\000"
 22505      73697A65 
 22505      00
 22506              	.LASF602:
 22507 062a 75645F73 		.ascii	"ud_string\000"
 22507      7472696E 
 22507      6700
 22508              	.LASF471:
 22509 0634 49324344 		.ascii	"I2CDriver\000"
 22509      72697665 
 22509      7200
 22510              	.LASF453:
 22511 063e 4932435F 		.ascii	"I2C_ACTIVE_TX\000"
 22511      41435449 
 22511      56455F54 
 22511      5800
 22512              	.LASF523:
 22513 064c 72656164 		.ascii	"read\000"
 22513      00
 22514              	.LASF459:
 22515 0651 4F504D4F 		.ascii	"OPMODE_I2C\000"
 22515      44455F49 
 22515      324300
 22516              	.LASF663:
 22517 065c 72657376 		.ascii	"resvd80C\000"
ARM GAS  /var/folders/d2/nstgp4h54kz7g1l847x_b8wc0000gn/T//ccB20FE7.s 			page 407


 22517      64383043 
 22517      00
 22518              	.LASF711:
 22519 0665 6576656E 		.ascii	"event_cb\000"
 22519      745F6362 
 22519      00
 22520              	.LASF847:
 22521 066e 5F6E6577 		.ascii	"_new\000"
 22521      00
 22522              	.LASF630:
 22523 0673 474F5447 		.ascii	"GOTGCTL\000"
 22523      43544C00 
 22524              	.LASF970:
 22525 067b 72785F62 		.ascii	"rx_buff\000"
 22525      75666600 
 22526              	.LASF724:
 22527 0683 62756C6B 		.ascii	"bulk_out\000"
 22527      5F6F7574 
 22527      00
 22528              	.LASF605:
 22529 068c 75736265 		.ascii	"usbepcallback_t\000"
 22529      7063616C 
 22529      6C626163 
 22529      6B5F7400 
 22530              	.LASF457:
 22531 069c 69326361 		.ascii	"i2caddr_t\000"
 22531      6464725F 
 22531      7400
 22532              	.LASF94:
 22533 06a6 76746C69 		.ascii	"vtlist\000"
 22533      737400
 22534              	.LASF166:
 22535 06ad 54524953 		.ascii	"TRISE\000"
 22535      4500
 22536              	.LASF669:
 22537 06b3 72657376 		.ascii	"resvd824\000"
 22537      64383234 
 22537      00
 22538              	.LASF52:
 22539 06bc 705F7761 		.ascii	"p_waiting\000"
 22539      6974696E 
 22539      6700
 22540              	.LASF216:
 22541 06c6 6B65726E 		.ascii	"kernel_stats_t\000"
 22541      656C5F73 
 22541      74617473 
 22541      5F7400
 22542              	.LASF961:
 22543 06d5 69725F61 		.ascii	"ir_address\000"
 22543      64647265 
 22543      737300
 22544              	.LASF266:
 22545 06e0 715F7761 		.ascii	"q_waiting\000"
 22545      6974696E 
 22545      6700
 22546              	.LASF118:
 22547 06ea 43414E5F 		.ascii	"CAN_TxMailBox_TypeDef\000"
ARM GAS  /var/folders/d2/nstgp4h54kz7g1l847x_b8wc0000gn/T//ccB20FE7.s 			page 408


 22547      54784D61 
 22547      696C426F 
 22547      785F5479 
 22547      70654465 
 22548              	.LASF93:
 22549 0700 726C6973 		.ascii	"rlist\000"
 22549      7400
 22550              	.LASF61:
 22551 0706 74687265 		.ascii	"threads_list_t\000"
 22551      6164735F 
 22551      6C697374 
 22551      5F7400
 22552              	.LASF241:
 22553 0715 63665F6F 		.ascii	"cf_off_ctx\000"
 22553      66665F63 
 22553      747800
 22554              	.LASF275:
 22555 0720 696E7075 		.ascii	"input_queue_t\000"
 22555      745F7175 
 22555      6575655F 
 22555      7400
 22556              	.LASF360:
 22557 072e 41444343 		.ascii	"ADCConversionGroup\000"
 22557      6F6E7665 
 22557      7273696F 
 22557      6E47726F 
 22557      757000
 22558              	.LASF960:
 22559 0741 69725F6D 		.ascii	"ir_move\000"
 22559      6F766500 
 22560              	.LASF662:
 22561 0749 44535453 		.ascii	"DSTS\000"
 22561      00
 22562              	.LASF882:
 22563 074e 5F5F6C6F 		.ascii	"__lock\000"
 22563      636B00
 22564              	.LASF463:
 22565 0755 5354445F 		.ascii	"STD_DUTY_CYCLE\000"
 22565      44555459 
 22565      5F435943 
 22565      4C4500
 22566              	.LASF369:
 22567 0764 43414E5F 		.ascii	"CAN_READY\000"
 22567      52454144 
 22567      5900
 22568              	.LASF243:
 22569 076e 63665F6F 		.ascii	"cf_off_older\000"
 22569      66665F6F 
 22569      6C646572 
 22569      00
 22570              	.LASF26:
 22571 077b 72747469 		.ascii	"rttime_t\000"
 22571      6D655F74 
 22571      00
 22572              	.LASF423:
 22573 0784 45585444 		.ascii	"EXTD1\000"
 22573      3100
ARM GAS  /var/folders/d2/nstgp4h54kz7g1l847x_b8wc0000gn/T//ccB20FE7.s 			page 409


 22574              	.LASF696:
 22575 078a 72787175 		.ascii	"rxqueued\000"
 22575      65756564 
 22575      00
 22576              	.LASF371:
 22577 0793 63616E73 		.ascii	"canstate_t\000"
 22577      74617465 
 22577      5F7400
 22578              	.LASF138:
 22579 079e 7346696C 		.ascii	"sFilterRegister\000"
 22579      74657252 
 22579      65676973 
 22579      74657200 
 22580              	.LASF851:
 22581 07ae 5F5F7366 		.ascii	"__sf\000"
 22581      00
 22582              	.LASF937:
 22583 07b3 77616974 		.ascii	"wait_cam\000"
 22583      5F63616D 
 22583      00
 22584              	.LASF668:
 22585 07bc 72657376 		.ascii	"resvd820\000"
 22585      64383230 
 22585      00
 22586              	.LASF172:
 22587 07c5 52455350 		.ascii	"RESP1\000"
 22587      3100
 22588              	.LASF173:
 22589 07cb 52455350 		.ascii	"RESP2\000"
 22589      3200
 22590              	.LASF174:
 22591 07d1 52455350 		.ascii	"RESP3\000"
 22591      3300
 22592              	.LASF175:
 22593 07d7 52455350 		.ascii	"RESP4\000"
 22593      3400
 22594              	.LASF868:
 22595 07dd 5F6D6274 		.ascii	"_mbtowc_state\000"
 22595      6F77635F 
 22595      73746174 
 22595      6500
 22596              	.LASF450:
 22597 07eb 4932435F 		.ascii	"I2C_UNINIT\000"
 22597      554E494E 
 22597      495400
 22598              	.LASF607:
 22599 07f6 75736272 		.ascii	"usbreqhandler_t\000"
 22599      65716861 
 22599      6E646C65 
 22599      725F7400 
 22600              	.LASF331:
 22601 0806 4144435F 		.ascii	"ADC_COMPLETE\000"
 22601      434F4D50 
 22601      4C455445 
 22601      00
 22602              	.LASF447:
 22603 0813 47505443 		.ascii	"GPTConfig\000"
ARM GAS  /var/folders/d2/nstgp4h54kz7g1l847x_b8wc0000gn/T//ccB20FE7.s 			page 410


 22603      6F6E6669 
 22603      6700
 22604              	.LASF512:
 22605 081d 53445F55 		.ascii	"SD_UNINIT\000"
 22605      4E494E49 
 22605      5400
 22606              	.LASF734:
 22607 0827 44434D49 		.ascii	"DCMI_UNINIT\000"
 22607      5F554E49 
 22607      4E495400 
 22608              	.LASF31:
 22609 0833 74707269 		.ascii	"tprio_t\000"
 22609      6F5F7400 
 22610              	.LASF212:
 22611 083b 6E5F6972 		.ascii	"n_irq\000"
 22611      7100
 22612              	.LASF772:
 22613 0841 636F6E64 		.ascii	"condvar\000"
 22613      76617200 
 22614              	.LASF491:
 22615 0849 69327370 		.ascii	"i2spr\000"
 22615      7200
 22616              	.LASF672:
 22617 084f 72657376 		.ascii	"resvd830\000"
 22617      64383330 
 22617      00
 22618              	.LASF452:
 22619 0858 4932435F 		.ascii	"I2C_READY\000"
 22619      52454144 
 22619      5900
 22620              	.LASF674:
 22621 0862 72657376 		.ascii	"resvd838\000"
 22621      64383338 
 22621      00
 22622              	.LASF466:
 22623 086b 69326364 		.ascii	"i2cdutycycle_t\000"
 22623      75747963 
 22623      79636C65 
 22623      5F7400
 22624              	.LASF720:
 22625 087a 73647573 		.ascii	"sdustate_t\000"
 22625      74617465 
 22625      5F7400
 22626              	.LASF763:
 22627 0885 6F707461 		.ascii	"optarg\000"
 22627      726700
 22628              	.LASF675:
 22629 088c 72657376 		.ascii	"resvd83C\000"
 22629      64383343 
 22629      00
 22630              	.LASF986:
 22631 0895 655F706F 		.ascii	"e_poxxxx_config_cam\000"
 22631      78787878 
 22631      5F636F6E 
 22631      6669675F 
 22631      63616D00 
 22632              	.LASF345:
ARM GAS  /var/folders/d2/nstgp4h54kz7g1l847x_b8wc0000gn/T//ccB20FE7.s 			page 411


 22633 08a9 74687265 		.ascii	"thread\000"
 22633      616400
 22634              	.LASF390:
 22635 08b0 72656773 		.ascii	"regshift\000"
 22635      68696674 
 22635      00
 22636              	.LASF570:
 22637 08b9 73657475 		.ascii	"setup\000"
 22637      7000
 22638              	.LASF549:
 22639 08bf 5350495F 		.ascii	"SPI_UNINIT\000"
 22639      554E494E 
 22639      495400
 22640              	.LASF623:
 22641 08ca 44545846 		.ascii	"DTXFSTS\000"
 22641      53545300 
 22642              	.LASF294:
 22643 08d2 626C6B5F 		.ascii	"blk_size\000"
 22643      73697A65 
 22643      00
 22644              	.LASF739:
 22645 08db 44434D49 		.ascii	"DCMI_COMPLETE\000"
 22645      5F434F4D 
 22645      504C4554 
 22645      4500
 22646              	.LASF564:
 22647 08e9 696E5F70 		.ascii	"in_params\000"
 22647      6172616D 
 22647      7300
 22648              	.LASF437:
 22649 08f3 43434552 		.ascii	"CCER\000"
 22649      00
 22650              	.LASF188:
 22651 08f8 49325350 		.ascii	"I2SPR\000"
 22651      5200
 22652              	.LASF494:
 22653 08fe 50574D5F 		.ascii	"PWM_UNINIT\000"
 22653      554E494E 
 22653      495400
 22654              	.LASF207:
 22655 0909 62657374 		.ascii	"best\000"
 22655      00
 22656              	.LASF897:
 22657 090e 74797065 		.ascii	"type\000"
 22657      00
 22658              	.LASF983:
 22659 0913 655F6932 		.ascii	"e_i2cp_disable\000"
 22659      63705F64 
 22659      69736162 
 22659      6C6500
 22660              	.LASF632:
 22661 0922 47414842 		.ascii	"GAHBCFG\000"
 22661      43464700 
 22662              	.LASF400:
 22663 092a 64616363 		.ascii	"daccallback_t\000"
 22663      616C6C62 
 22663      61636B5F 
ARM GAS  /var/folders/d2/nstgp4h54kz7g1l847x_b8wc0000gn/T//ccB20FE7.s 			page 412


 22663      7400
 22664              	.LASF719:
 22665 0938 5344555F 		.ascii	"SDU_READY\000"
 22665      52454144 
 22665      5900
 22666              	.LASF752:
 22667 0942 5F4C4F43 		.ascii	"_LOCK_T\000"
 22667      4B5F5400 
 22668              	.LASF676:
 22669 094a 72657376 		.ascii	"resvd840\000"
 22669      64383430 
 22669      00
 22670              	.LASF912:
 22671 0953 4D415249 		.ascii	"MARIO_START\000"
 22671      4F5F5354 
 22671      41525400 
 22672              	.LASF184:
 22673 095f 43524350 		.ascii	"CRCPR\000"
 22673      5200
 22674              	.LASF289:
 22675 0965 424C4B5F 		.ascii	"BLK_READY\000"
 22675      52454144 
 22675      5900
 22676              	.LASF8:
 22677 096f 5F5F696E 		.ascii	"__int16_t\000"
 22677      7431365F 
 22677      7400
 22678              	.LASF10:
 22679 0979 5F5F7569 		.ascii	"__uint16_t\000"
 22679      6E743136 
 22679      5F7400
 22680              	.LASF427:
 22681 0984 4750545F 		.ascii	"GPT_CONTINUOUS\000"
 22681      434F4E54 
 22681      494E554F 
 22681      555300
 22682              	.LASF690:
 22683 0993 74787175 		.ascii	"txqueued\000"
 22683      65756564 
 22683      00
 22684              	.LASF54:
 22685 099c 705F6D73 		.ascii	"p_msg\000"
 22685      6700
 22686              	.LASF860:
 22687 09a2 5F756E75 		.ascii	"_unused_rand\000"
 22687      7365645F 
 22687      72616E64 
 22687      00
 22688              	.LASF629:
 22689 09af 73746D33 		.ascii	"stm32_otg_out_ep_t\000"
 22689      325F6F74 
 22689      675F6F75 
 22689      745F6570 
 22689      5F7400
 22690              	.LASF638:
 22691 09c2 47525853 		.ascii	"GRXSTSP\000"
 22691      54535000 
ARM GAS  /var/folders/d2/nstgp4h54kz7g1l847x_b8wc0000gn/T//ccB20FE7.s 			page 413


 22692              	.LASF637:
 22693 09ca 47525853 		.ascii	"GRXSTSR\000"
 22693      54535200 
 22694              	.LASF976:
 22695 09d2 73707269 		.ascii	"sprintf\000"
 22695      6E746600 
 22696              	.LASF218:
 22697 09da 65786974 		.ascii	"exitcode\000"
 22697      636F6465 
 22697      00
 22698              	.LASF162:
 22699 09e3 4D314152 		.ascii	"M1AR\000"
 22699      00
 22700              	.LASF577:
 22701 09e8 77616974 		.ascii	"wait\000"
 22701      00
 22702              	.LASF163:
 22703 09ed 444D415F 		.ascii	"DMA_Stream_TypeDef\000"
 22703      53747265 
 22703      616D5F54 
 22703      79706544 
 22703      656600
 22704              	.LASF584:
 22705 0a00 5553425F 		.ascii	"USB_ACTIVE\000"
 22705      41435449 
 22705      564500
 22706              	.LASF767:
 22707 0a0b 6F707472 		.ascii	"optreset\000"
 22707      65736574 
 22707      00
 22708              	.LASF625:
 22709 0a14 73746D33 		.ascii	"stm32_otg_in_ep_t\000"
 22709      325F6F74 
 22709      675F696E 
 22709      5F65705F 
 22709      7400
 22710              	.LASF698:
 22711 0a26 7278636E 		.ascii	"rxcnt\000"
 22711      7400
 22712              	.LASF327:
 22713 0a2c 4144435F 		.ascii	"ADC_UNINIT\000"
 22713      554E494E 
 22713      495400
 22714              	.LASF474:
 22715 0a37 7278646D 		.ascii	"rxdmamode\000"
 22715      616D6F64 
 22715      6500
 22716              	.LASF842:
 22717 0a41 5F726573 		.ascii	"_result_k\000"
 22717      756C745F 
 22717      6B00
 22718              	.LASF419:
 22719 0a4b 6D6F6465 		.ascii	"mode\000"
 22719      00
 22720              	.LASF834:
 22721 0a50 5F737464 		.ascii	"_stderr\000"
 22721      65727200 
ARM GAS  /var/folders/d2/nstgp4h54kz7g1l847x_b8wc0000gn/T//ccB20FE7.s 			page 414


 22722              	.LASF841:
 22723 0a58 5F726573 		.ascii	"_result\000"
 22723      756C7400 
 22724              	.LASF231:
 22725 0a60 6D5F636E 		.ascii	"m_cnt\000"
 22725      7400
 22726              	.LASF416:
 22727 0a66 45585444 		.ascii	"EXTDriver\000"
 22727      72697665 
 22727      7200
 22728              	.LASF246:
 22729 0a70 63665F6F 		.ascii	"cf_off_state\000"
 22729      66665F73 
 22729      74617465 
 22729      00
 22730              	.LASF486:
 22731 0a7d 69327363 		.ascii	"i2scallback_t\000"
 22731      616C6C62 
 22731      61636B5F 
 22731      7400
 22732              	.LASF558:
 22733 0a8b 73737061 		.ascii	"sspad\000"
 22733      6400
 22734              	.LASF475:
 22735 0a91 7478646D 		.ascii	"txdmamode\000"
 22735      616D6F64 
 22735      6500
 22736              	.LASF902:
 22737 0a9b 6275665F 		.ascii	"buf_dim\000"
 22737      64696D00 
 22738              	.LASF443:
 22739 0aa3 67707466 		.ascii	"gptfreq_t\000"
 22739      7265715F 
 22739      7400
 22740              	.LASF964:
 22741 0aad 7573655F 		.ascii	"use_bt\000"
 22741      627400
 22742              	.LASF799:
 22743 0ab4 5F5F746D 		.ascii	"__tm_wday\000"
 22743      5F776461 
 22743      7900
 22744              	.LASF988:
 22745 0abe 655F7365 		.ascii	"e_set_speed_left\000"
 22745      745F7370 
 22745      6565645F 
 22745      6C656674 
 22745      00
 22746              	.LASF796:
 22747 0acf 5F5F746D 		.ascii	"__tm_mday\000"
 22747      5F6D6461 
 22747      7900
 22748              	.LASF728:
 22749 0ad9 75736263 		.ascii	"usbcfg\000"
 22749      666700
 22750              	.LASF683:
 22751 0ae0 72785F66 		.ascii	"rx_fifo_size\000"
 22751      69666F5F 
ARM GAS  /var/folders/d2/nstgp4h54kz7g1l847x_b8wc0000gn/T//ccB20FE7.s 			page 415


 22751      73697A65 
 22751      00
 22752              	.LASF193:
 22753 0aed 73746B61 		.ascii	"stkalign_t\000"
 22753      6C69676E 
 22753      5F7400
 22754              	.LASF398:
 22755 0af8 4441435F 		.ascii	"DAC_ERR_UNDERFLOW\000"
 22755      4552525F 
 22755      554E4445 
 22755      52464C4F 
 22755      5700
 22756              	.LASF379:
 22757 0b0a 77616B65 		.ascii	"wakeup_event\000"
 22757      75705F65 
 22757      76656E74 
 22757      00
 22758              	.LASF78:
 22759 0b17 76745F70 		.ascii	"vt_prev\000"
 22759      72657600 
 22760              	.LASF800:
 22761 0b1f 5F5F746D 		.ascii	"__tm_yday\000"
 22761      5F796461 
 22761      7900
 22762              	.LASF353:
 22763 0b29 656E645F 		.ascii	"end_cb\000"
 22763      636200
 22764              	.LASF701:
 22765 0b30 73657475 		.ascii	"setup_cb\000"
 22765      705F6362 
 22765      00
 22766              	.LASF7:
 22767 0b39 756E7369 		.ascii	"unsigned char\000"
 22767      676E6564 
 22767      20636861 
 22767      7200
 22768              	.LASF833:
 22769 0b47 5F737464 		.ascii	"_stdout\000"
 22769      6F757400 
 22770              	.LASF182:
 22771 0b4f 4649464F 		.ascii	"FIFO\000"
 22771      00
 22772              	.LASF203:
 22773 0b54 74625F62 		.ascii	"tb_buffer\000"
 22773      75666665 
 22773      7200
 22774              	.LASF373:
 22775 0b5e 74787175 		.ascii	"txqueue\000"
 22775      65756500 
 22776              	.LASF153:
 22777 0b66 52495352 		.ascii	"RISR\000"
 22777      00
 22778              	.LASF226:
 22779 0b6b 735F636E 		.ascii	"s_cnt\000"
 22779      7400
 22780              	.LASF66:
 22781 0b71 72656164 		.ascii	"ready_list_t\000"
ARM GAS  /var/folders/d2/nstgp4h54kz7g1l847x_b8wc0000gn/T//ccB20FE7.s 			page 416


 22781      795F6C69 
 22781      73745F74 
 22781      00
 22782              	.LASF62:
 22783 0b7e 63685F74 		.ascii	"ch_thread\000"
 22783      68726561 
 22783      6400
 22784              	.LASF461:
 22785 0b88 4F504D4F 		.ascii	"OPMODE_SMBUS_HOST\000"
 22785      44455F53 
 22785      4D425553 
 22785      5F484F53 
 22785      5400
 22786              	.LASF984:
 22787 0b9a 73736361 		.ascii	"sscanf\000"
 22787      6E6600
 22788              	.LASF875:
 22789 0ba1 5F6D6273 		.ascii	"_mbsrtowcs_state\000"
 22789      72746F77 
 22789      63735F73 
 22789      74617465 
 22789      00
 22790              	.LASF579:
 22791 0bb2 75736265 		.ascii	"usbep_t\000"
 22791      705F7400 
 22792              	.LASF1019:
 22793 0bba 655F696E 		.ascii	"e_init_motors\000"
 22793      69745F6D 
 22793      6F746F72 
 22793      7300
 22794              	.LASF791:
 22795 0bc8 5F776473 		.ascii	"_wds\000"
 22795      00
 22796              	.LASF903:
 22797 0bcd 666C6F61 		.ascii	"float\000"
 22797      7400
 22798              	.LASF918:
 22799 0bd3 53544152 		.ascii	"STARWARS\000"
 22799      57415253 
 22799      00
 22800              	.LASF412:
 22801 0bdc 4558545F 		.ascii	"EXT_UNINIT\000"
 22801      554E494E 
 22801      495400
 22802              	.LASF370:
 22803 0be7 43414E5F 		.ascii	"CAN_SLEEP\000"
 22803      534C4545 
 22803      5000
 22804              	.LASF199:
 22805 0bf1 73655F73 		.ascii	"se_state\000"
 22805      74617465 
 22805      00
 22806              	.LASF366:
 22807 0bfa 43414E5F 		.ascii	"CAN_UNINIT\000"
 22807      554E494E 
 22807      495400
 22808              	.LASF548:
ARM GAS  /var/folders/d2/nstgp4h54kz7g1l847x_b8wc0000gn/T//ccB20FE7.s 			page 417


 22809 0c05 53444344 		.ascii	"SDCD1\000"
 22809      3100
 22810              	.LASF85:
 22811 0c0b 73797374 		.ascii	"system_debug_t\000"
 22811      656D5F64 
 22811      65627567 
 22811      5F7400
 22812              	.LASF143:
 22813 0c1a 44485238 		.ascii	"DHR8R1\000"
 22813      523100
 22814              	.LASF146:
 22815 0c21 44485238 		.ascii	"DHR8R2\000"
 22815      523200
 22816              	.LASF434:
 22817 0c28 44494552 		.ascii	"DIER\000"
 22817      00
 22818              	.LASF780:
 22819 0c2d 68656164 		.ascii	"head\000"
 22819      00
 22820              	.LASF944:
 22821 0c32 61636378 		.ascii	"accx\000"
 22821      00
 22822              	.LASF945:
 22823 0c37 61636379 		.ascii	"accy\000"
 22823      00
 22824              	.LASF42:
 22825 0c3c 705F6374 		.ascii	"p_ctx\000"
 22825      7800
 22826              	.LASF81:
 22827 0c42 76745F70 		.ascii	"vt_par\000"
 22827      617200
 22828              	.LASF102:
 22829 0c49 4A4F4652 		.ascii	"JOFR1\000"
 22829      3100
 22830              	.LASF103:
 22831 0c4f 4A4F4652 		.ascii	"JOFR2\000"
 22831      3200
 22832              	.LASF104:
 22833 0c55 4A4F4652 		.ascii	"JOFR3\000"
 22833      3300
 22834              	.LASF105:
 22835 0c5b 4A4F4652 		.ascii	"JOFR4\000"
 22835      3400
 22836              	.LASF909:
 22837 0c61 52555353 		.ascii	"RUSSIA\000"
 22837      494100
 22838              	.LASF73:
 22839 0c68 725F6375 		.ascii	"r_current\000"
 22839      7272656E 
 22839      7400
 22840              	.LASF812:
 22841 0c72 5F73697A 		.ascii	"_size\000"
 22841      6500
 22842              	.LASF819:
 22843 0c78 5F777269 		.ascii	"_write\000"
 22843      746500
 22844              	.LASF186:
ARM GAS  /var/folders/d2/nstgp4h54kz7g1l847x_b8wc0000gn/T//ccB20FE7.s 			page 418


 22845 0c7f 54584352 		.ascii	"TXCRCR\000"
 22845      435200
 22846              	.LASF405:
 22847 0c86 64616364 		.ascii	"dacdhrmode_t\000"
 22847      68726D6F 
 22847      64655F74 
 22847      00
 22848              	.LASF347:
 22849 0c93 646D6173 		.ascii	"dmastp\000"
 22849      747000
 22850              	.LASF771:
 22851 0c9a 6C6F636B 		.ascii	"lock\000"
 22851      00
 22852              	.LASF465:
 22853 0c9f 46415354 		.ascii	"FAST_DUTY_CYCLE_16_9\000"
 22853      5F445554 
 22853      595F4359 
 22853      434C455F 
 22853      31365F39 
 22854              	.LASF24:
 22855 0cb4 75696E74 		.ascii	"uint64_t\000"
 22855      36345F74 
 22855      00
 22856              	.LASF213:
 22857 0cbd 6E5F6374 		.ascii	"n_ctxswc\000"
 22857      78737763 
 22857      00
 22858              	.LASF955:
 22859 0cc6 63616D5F 		.ascii	"cam_size\000"
 22859      73697A65 
 22859      00
 22860              	.LASF252:
 22861 0ccf 63685F64 		.ascii	"ch_debug\000"
 22861      65627567 
 22861      00
 22862              	.LASF408:
 22863 0cd8 696E6974 		.ascii	"init\000"
 22863      00
 22864              	.LASF130:
 22865 0cdd 464D3152 		.ascii	"FM1R\000"
 22865      00
 22866              	.LASF794:
 22867 0ce2 5F5F746D 		.ascii	"__tm_min\000"
 22867      5F6D696E 
 22867      00
 22868              	.LASF324:
 22869 0ceb 50414C43 		.ascii	"PALConfig\000"
 22869      6F6E6669 
 22869      6700
 22870              	.LASF692:
 22871 0cf5 7478636E 		.ascii	"txcnt\000"
 22871      7400
 22872              	.LASF891:
 22873 0cfb 73756273 		.ascii	"subspaces\000"
 22873      70616365 
 22873      7300
 22874              	.LASF606:
ARM GAS  /var/folders/d2/nstgp4h54kz7g1l847x_b8wc0000gn/T//ccB20FE7.s 			page 419


 22875 0d05 75736265 		.ascii	"usbeventcb_t\000"
 22875      76656E74 
 22875      63625F74 
 22875      00
 22876              	.LASF286:
 22877 0d12 424C4B5F 		.ascii	"BLK_ACTIVE\000"
 22877      41435449 
 22877      564500
 22878              	.LASF798:
 22879 0d1d 5F5F746D 		.ascii	"__tm_year\000"
 22879      5F796561 
 22879      7200
 22880              	.LASF254:
 22881 0d27 6576656E 		.ascii	"event_listener_t\000"
 22881      745F6C69 
 22881      7374656E 
 22881      65725F74 
 22881      00
 22882              	.LASF1050:
 22883 0d38 72756E5F 		.ascii	"run_asercom2\000"
 22883      61736572 
 22883      636F6D32 
 22883      00
 22884              	.LASF824:
 22885 0d45 5F626C6B 		.ascii	"_blksize\000"
 22885      73697A65 
 22885      00
 22886              	.LASF684:
 22887 0d4e 6F74675F 		.ascii	"otg_ram_size\000"
 22887      72616D5F 
 22887      73697A65 
 22887      00
 22888              	.LASF1033:
 22889 0d5b 7365745F 		.ascii	"set_front_led\000"
 22889      66726F6E 
 22889      745F6C65 
 22889      6400
 22890              	.LASF936:
 22891 0d69 73656C65 		.ascii	"selector\000"
 22891      63746F72 
 22891      00
 22892              	.LASF1013:
 22893 0d72 67657442 		.ascii	"getBatteryValueRaw\000"
 22893      61747465 
 22893      72795661 
 22893      6C756552 
 22893      617700
 22894              	.LASF686:
 22895 0d85 73746D33 		.ascii	"stm32_otg_params_t\000"
 22895      325F6F74 
 22895      675F7061 
 22895      72616D73 
 22895      5F7400
 22896              	.LASF679:
 22897 0d98 72657376 		.ascii	"resvdD00\000"
 22897      64443030 
 22897      00
ARM GAS  /var/folders/d2/nstgp4h54kz7g1l847x_b8wc0000gn/T//ccB20FE7.s 			page 420


 22898              	.LASF185:
 22899 0da1 52584352 		.ascii	"RXCRCR\000"
 22899      435200
 22900              	.LASF695:
 22901 0da8 72786275 		.ascii	"rxbuf\000"
 22901      6600
 22902              	.LASF973:
 22903 0dae 67657458 		.ascii	"getXAxisGyro\000"
 22903      41786973 
 22903      4779726F 
 22903      00
 22904              	.LASF635:
 22905 0dbb 47494E54 		.ascii	"GINTSTS\000"
 22905      53545300 
 22906              	.LASF913:
 22907 0dc3 4D415249 		.ascii	"MARIO_DEATH\000"
 22907      4F5F4445 
 22907      41544800 
 22908              	.LASF227:
 22909 0dcf 63685F6D 		.ascii	"ch_mutex\000"
 22909      75746578 
 22909      00
 22910              	.LASF376:
 22911 0dd8 7478656D 		.ascii	"txempty_event\000"
 22911      7074795F 
 22911      6576656E 
 22911      7400
 22912              	.LASF717:
 22913 0de6 5344555F 		.ascii	"SDU_UNINIT\000"
 22913      554E494E 
 22913      495400
 22914              	.LASF498:
 22915 0df1 50574D44 		.ascii	"PWMDriver\000"
 22915      72697665 
 22915      7200
 22916              	.LASF321:
 22917 0dfb 50474461 		.ascii	"PGData\000"
 22917      746100
 22918              	.LASF507:
 22919 0e02 50574D43 		.ascii	"PWMConfig\000"
 22919      6F6E6669 
 22919      6700
 22920              	.LASF729:
 22921 0e0c 73657275 		.ascii	"serusbcfg\000"
 22921      73626366 
 22921      6700
 22922              	.LASF1000:
 22923 0e16 655F6765 		.ascii	"e_get_address\000"
 22923      745F6164 
 22923      64726573 
 22923      7300
 22924              	.LASF898:
 22925 0e24 76616C75 		.ascii	"value\000"
 22925      6500
 22926              	.LASF242:
 22927 0e2a 63665F6F 		.ascii	"cf_off_newer\000"
 22927      66665F6E 
ARM GAS  /var/folders/d2/nstgp4h54kz7g1l847x_b8wc0000gn/T//ccB20FE7.s 			page 421


 22927      65776572 
 22927      00
 22928              	.LASF664:
 22929 0e37 44494550 		.ascii	"DIEPMSK\000"
 22929      4D534B00 
 22930              	.LASF631:
 22931 0e3f 474F5447 		.ascii	"GOTGINT\000"
 22931      494E5400 
 22932              	.LASF946:
 22933 0e47 6163637A 		.ascii	"accz\000"
 22933      00
 22934              	.LASF703:
 22935 0e4c 6F75745F 		.ascii	"out_cb\000"
 22935      636200
 22936              	.LASF655:
 22937 0e53 4841494E 		.ascii	"HAINTMSK\000"
 22937      544D534B 
 22937      00
 22938              	.LASF565:
 22939 0e5c 6F75745F 		.ascii	"out_params\000"
 22939      70617261 
 22939      6D7300
 22940              	.LASF198:
 22941 0e67 73655F77 		.ascii	"se_wtobjp\000"
 22941      746F626A 
 22941      7000
 22942              	.LASF109:
 22943 0e71 4A535152 		.ascii	"JSQR\000"
 22943      00
 22944              	.LASF832:
 22945 0e76 5F737464 		.ascii	"_stdin\000"
 22945      696E00
 22946              	.LASF880:
 22947 0e7d 5F6E6D61 		.ascii	"_nmalloc\000"
 22947      6C6C6F63 
 22947      00
 22948              	.LASF446:
 22949 0e86 64696572 		.ascii	"dier\000"
 22949      00
 22950              	.LASF543:
 22951 0e8b 69735F70 		.ascii	"is_protected\000"
 22951      726F7465 
 22951      63746564 
 22951      00
 22952              	.LASF952:
 22953 0e98 63616D5F 		.ascii	"cam_width\000"
 22953      77696474 
 22953      6800
 22954              	.LASF75:
 22955 0ea2 76697274 		.ascii	"virtual_timer_t\000"
 22955      75616C5F 
 22955      74696D65 
 22955      725F7400 
 22956              	.LASF705:
 22957 0eb2 6F75745F 		.ascii	"out_maxsize\000"
 22957      6D617873 
 22957      697A6500 
ARM GAS  /var/folders/d2/nstgp4h54kz7g1l847x_b8wc0000gn/T//ccB20FE7.s 			page 422


 22958              	.LASF1045:
 22959 0ebe 655F6932 		.ascii	"e_i2cp_init\000"
 22959      63705F69 
 22959      6E697400 
 22960              	.LASF70:
 22961 0eca 725F6374 		.ascii	"r_ctx\000"
 22961      7800
 22962              	.LASF77:
 22963 0ed0 76745F6E 		.ascii	"vt_next\000"
 22963      65787400 
 22964              	.LASF480:
 22965 0ed8 4932535F 		.ascii	"I2S_STOP\000"
 22965      53544F50 
 22965      00
 22966              	.LASF495:
 22967 0ee1 50574D5F 		.ascii	"PWM_STOP\000"
 22967      53544F50 
 22967      00
 22968              	.LASF25:
 22969 0eea 7274636E 		.ascii	"rtcnt_t\000"
 22969      745F7400 
 22970              	.LASF346:
 22971 0ef2 6D757465 		.ascii	"mutex\000"
 22971      7800
 22972              	.LASF489:
 22973 0ef8 73697A65 		.ascii	"size\000"
 22973      00
 22974              	.LASF394:
 22975 0efd 44414344 		.ascii	"DACDriver\000"
 22975      72697665 
 22975      7200
 22976              	.LASF410:
 22977 0f07 44414343 		.ascii	"DACConfig\000"
 22977      6F6E6669 
 22977      6700
 22978              	.LASF576:
 22979 0f11 74787065 		.ascii	"txpending\000"
 22979      6E64696E 
 22979      6700
 22980              	.LASF431:
 22981 0f1b 636C6F63 		.ascii	"clock\000"
 22981      6B00
 22982              	.LASF298:
 22983 0f21 636C6561 		.ascii	"clear\000"
 22983      7200
 22984              	.LASF441:
 22985 0f27 43435852 		.ascii	"CCXR\000"
 22985      00
 22986              	.LASF139:
 22987 0f2c 43414E5F 		.ascii	"CAN_TypeDef\000"
 22987      54797065 
 22987      44656600 
 22988              	.LASF753:
 22989 0f38 5F6F6666 		.ascii	"_off_t\000"
 22989      5F7400
 22990              	.LASF200:
 22991 0f3f 63685F73 		.ascii	"ch_swc_event_t\000"
ARM GAS  /var/folders/d2/nstgp4h54kz7g1l847x_b8wc0000gn/T//ccB20FE7.s 			page 423


 22991      77635F65 
 22991      76656E74 
 22991      5F7400
 22992              	.LASF513:
 22993 0f4e 53445F53 		.ascii	"SD_STOP\000"
 22993      544F5000 
 22994              	.LASF610:
 22995 0f56 72657376 		.ascii	"resvd8\000"
 22995      643800
 22996              	.LASF3:
 22997 0f5d 73697A65 		.ascii	"size_t\000"
 22997      5F7400
 22998              	.LASF96:
 22999 0f64 6B65726E 		.ascii	"kernel_stats\000"
 22999      656C5F73 
 22999      74617473 
 22999      00
 23000              	.LASF677:
 23001 0f71 72657376 		.ascii	"resvd880\000"
 23001      64383830 
 23001      00
 23002              	.LASF915:
 23003 0f7a 57414C4B 		.ascii	"WALKING\000"
 23003      494E4700 
 23004              	.LASF906:
 23005 0f82 70617261 		.ascii	"parameter_root\000"
 23005      6D657465 
 23005      725F726F 
 23005      6F7400
 23006              	.LASF758:
 23007 0f91 5F5F636F 		.ascii	"__count\000"
 23007      756E7400 
 23008              	.LASF19:
 23009 0f99 75696E74 		.ascii	"uint8_t\000"
 23009      385F7400 
 23010              	.LASF949:
 23011 0fa1 6779726F 		.ascii	"gyroy\000"
 23011      7900
 23012              	.LASF614:
 23013 0fa7 72657376 		.ascii	"resvd14\000"
 23013      64313400 
 23014              	.LASF615:
 23015 0faf 72657376 		.ascii	"resvd18\000"
 23015      64313800 
 23016              	.LASF72:
 23017 0fb7 725F6F6C 		.ascii	"r_older\000"
 23017      64657200 
 23018              	.LASF40:
 23019 0fbf 705F7072 		.ascii	"p_prev\000"
 23019      657600
 23020              	.LASF244:
 23021 0fc6 63665F6F 		.ascii	"cf_off_name\000"
 23021      66665F6E 
 23021      616D6500 
 23022              	.LASF506:
 23023 0fd2 50574D43 		.ascii	"PWMChannelConfig\000"
 23023      68616E6E 
ARM GAS  /var/folders/d2/nstgp4h54kz7g1l847x_b8wc0000gn/T//ccB20FE7.s 			page 424


 23023      656C436F 
 23023      6E666967 
 23023      00
 23024              	.LASF505:
 23025 0fe3 70776D63 		.ascii	"pwmcnt_t\000"
 23025      6E745F74 
 23025      00
 23026              	.LASF673:
 23027 0fec 44494550 		.ascii	"DIEPEMPMSK\000"
 23027      454D504D 
 23027      534B00
 23028              	.LASF745:
 23029 0ff7 64636D69 		.ascii	"dcmicallback_t\000"
 23029      63616C6C 
 23029      6261636B 
 23029      5F7400
 23030              	.LASF618:
 23031 1006 44494550 		.ascii	"DIEPCTL\000"
 23031      43544C00 
 23032              	.LASF260:
 23033 100e 656C5F77 		.ascii	"el_wflags\000"
 23033      666C6167 
 23033      7300
 23034              	.LASF574:
 23035 1018 6F746770 		.ascii	"otgparams\000"
 23035      6172616D 
 23035      7300
 23036              	.LASF201:
 23037 1022 74625F73 		.ascii	"tb_size\000"
 23037      697A6500 
 23038              	.LASF318:
 23039 102a 50444461 		.ascii	"PDData\000"
 23039      746100
 23040              	.LASF1042:
 23041 1031 655F706F 		.ascii	"e_poxxxx_wait_img_ready\000"
 23041      78787878 
 23041      5F776169 
 23041      745F696D 
 23041      675F7265 
 23042              	.LASF538:
 23043 1049 73637261 		.ascii	"scratchpad\000"
 23043      74636870 
 23043      616400
 23044              	.LASF846:
 23045 1054 5F637674 		.ascii	"_cvtbuf\000"
 23045      62756600 
 23046              	.LASF707:
 23047 105c 6F75745F 		.ascii	"out_state\000"
 23047      73746174 
 23047      6500
 23048              	.LASF264:
 23049 1066 696F5F71 		.ascii	"io_queue_t\000"
 23049      75657565 
 23049      5F7400
 23050              	.LASF836:
 23051 1071 5F656D65 		.ascii	"_emergency\000"
 23051      7267656E 
ARM GAS  /var/folders/d2/nstgp4h54kz7g1l847x_b8wc0000gn/T//ccB20FE7.s 			page 425


 23051      637900
 23052              	.LASF554:
 23053 107c 73706973 		.ascii	"spistate_t\000"
 23053      74617465 
 23053      5F7400
 23054              	.LASF932:
 23055 1087 61636365 		.ascii	"acceleration\000"
 23055      6C657261 
 23055      74696F6E 
 23055      00
 23056              	.LASF451:
 23057 1094 4932435F 		.ascii	"I2C_STOP\000"
 23057      53544F50 
 23057      00
 23058              	.LASF473:
 23059 109d 61646472 		.ascii	"addr\000"
 23059      00
 23060              	.LASF922:
 23061 10a2 45585445 		.ascii	"EXTERNAL_SONG\000"
 23061      524E414C 
 23061      5F534F4E 
 23061      4700
 23062              	.LASF124:
 23063 10b0 52463052 		.ascii	"RF0R\000"
 23063      00
 23064              	.LASF336:
 23065 10b5 4144435F 		.ascii	"ADC_ERR_DMAFAILURE\000"
 23065      4552525F 
 23065      444D4146 
 23065      41494C55 
 23065      524500
 23066              	.LASF552:
 23067 10c8 5350495F 		.ascii	"SPI_ACTIVE\000"
 23067      41435449 
 23067      564500
 23068              	.LASF762:
 23069 10d3 656E7669 		.ascii	"environ\000"
 23069      726F6E00 
 23070              	.LASF420:
 23071 10db 45585443 		.ascii	"EXTChannelConfig\000"
 23071      68616E6E 
 23071      656C436F 
 23071      6E666967 
 23071      00
 23072              	.LASF301:
 23073 10ec 4F535045 		.ascii	"OSPEEDR\000"
 23073      45445200 
 23074              	.LASF384:
 23075 10f4 4441435F 		.ascii	"DAC_READY\000"
 23075      52454144 
 23075      5900
 23076              	.LASF642:
 23077 10fe 72657376 		.ascii	"resvd30\000"
 23077      64333000 
 23078              	.LASF757:
 23079 1106 5F5F7763 		.ascii	"__wchb\000"
 23079      686200
ARM GAS  /var/folders/d2/nstgp4h54kz7g1l847x_b8wc0000gn/T//ccB20FE7.s 			page 426


 23080              	.LASF643:
 23081 110d 72657376 		.ascii	"resvd34\000"
 23081      64333400 
 23082              	.LASF671:
 23083 1115 44564255 		.ascii	"DVBUSPULSE\000"
 23083      5350554C 
 23083      534500
 23084              	.LASF795:
 23085 1120 5F5F746D 		.ascii	"__tm_hour\000"
 23085      5F686F75 
 23085      7200
 23086              	.LASF958:
 23087 112a 66697273 		.ascii	"first\000"
 23087      7400
 23088              	.LASF285:
 23089 1130 424C4B5F 		.ascii	"BLK_STOP\000"
 23089      53544F50 
 23089      00
 23090              	.LASF521:
 23091 1139 53657269 		.ascii	"SerialDriverVMT\000"
 23091      616C4472 
 23091      69766572 
 23091      564D5400 
 23092              	.LASF592:
 23093 1149 5553425F 		.ascii	"USB_EP0_ERROR\000"
 23093      4550305F 
 23093      4552524F 
 23093      5200
 23094              	.LASF755:
 23095 1157 77696E74 		.ascii	"wint_t\000"
 23095      5F7400
 23096              	.LASF544:
 23097 115e 636F6E6E 		.ascii	"connect\000"
 23097      65637400 
 23098              	.LASF125:
 23099 1166 52463152 		.ascii	"RF1R\000"
 23099      00
 23100              	.LASF339:
 23101 116b 41444344 		.ascii	"ADCDriver\000"
 23101      72697665 
 23101      7200
 23102              	.LASF685:
 23103 1175 6E756D5F 		.ascii	"num_endpoints\000"
 23103      656E6470 
 23103      6F696E74 
 23103      7300
 23104              	.LASF362:
 23105 1183 41444343 		.ascii	"ADCConfig\000"
 23105      6F6E6669 
 23105      6700
 23106              	.LASF693:
 23107 118d 746F7473 		.ascii	"totsize\000"
 23107      697A6500 
 23108              	.LASF904:
 23109 1195 5F706172 		.ascii	"_param_val_matrix_s\000"
 23109      616D5F76 
 23109      616C5F6D 
ARM GAS  /var/folders/d2/nstgp4h54kz7g1l847x_b8wc0000gn/T//ccB20FE7.s 			page 427


 23109      61747269 
 23109      785F7300 
 23110              	.LASF854:
 23111 11a9 5F6E696F 		.ascii	"_niobs\000"
 23111      627300
 23112              	.LASF514:
 23113 11b0 53445F52 		.ascii	"SD_READY\000"
 23113      45414459 
 23113      00
 23114              	.LASF608:
 23115 11b9 75736267 		.ascii	"usbgetdescriptor_t\000"
 23115      65746465 
 23115      73637269 
 23115      70746F72 
 23115      5F7400
 23116              	.LASF1047:
 23117 11cc 474E5520 		.ascii	"GNU C11 7.2.1 20170904 (release) [ARM/embedded-7-br"
 23117      43313120 
 23117      372E322E 
 23117      31203230 
 23117      31373039 
 23118 11ff 616E6368 		.ascii	"anch revision 255204] -mcpu=cortex-m4 -mfloat-abi=h"
 23118      20726576 
 23118      6973696F 
 23118      6E203235 
 23118      35323034 
 23119 1232 61726420 		.ascii	"ard -mfpu=fpv4-sp-d16 -mno-thumb-interwork -mthumb "
 23119      2D6D6670 
 23119      753D6670 
 23119      76342D73 
 23119      702D6431 
 23120 1265 2D676764 		.ascii	"-ggdb -O2 -fomit-frame-pointer -falign-functions=16"
 23120      62202D4F 
 23120      32202D66 
 23120      6F6D6974 
 23120      2D667261 
 23121 1298 202D666E 		.ascii	" -fno-strict-aliasing -fstack-protector-all -ffunct"
 23121      6F2D7374 
 23121      72696374 
 23121      2D616C69 
 23121      6173696E 
 23122 12cb 696F6E2D 		.ascii	"ion-sections -fdata-sections -fno-common -fsingle-p"
 23122      73656374 
 23122      696F6E73 
 23122      202D6664 
 23122      6174612D 
 23123 12fe 72656369 		.ascii	"recision-constant\000"
 23123      73696F6E 
 23123      2D636F6E 
 23123      7374616E 
 23123      7400
 23124              	.LASF387:
 23125 1310 4441435F 		.ascii	"DAC_ERROR\000"
 23125      4552524F 
 23125      5200
 23126              	.LASF831:
 23127 131a 5F657272 		.ascii	"_errno\000"
ARM GAS  /var/folders/d2/nstgp4h54kz7g1l847x_b8wc0000gn/T//ccB20FE7.s 			page 428


 23127      6E6F00
 23128              	.LASF782:
 23129 1321 6D657373 		.ascii	"messagebus_t\000"
 23129      61676562 
 23129      75735F74 
 23129      00
 23130              	.LASF587:
 23131 132e 5553425F 		.ascii	"USB_EP0_TX\000"
 23131      4550305F 
 23131      545800
 23132              	.LASF566:
 23133 1339 65703073 		.ascii	"ep0state\000"
 23133      74617465 
 23133      00
 23134              	.LASF894:
 23135 1342 70617261 		.ascii	"parameter_s\000"
 23135      6D657465 
 23135      725F7300 
 23136              	.LASF768:
 23137 134e 746F7069 		.ascii	"topic_s\000"
 23137      635F7300 
 23138              	.LASF278:
 23139 1356 69666372 		.ascii	"ifcr\000"
 23139      00
 23140              	.LASF920:
 23141 135b 53455645 		.ascii	"SEVEN_NATION_ARMY\000"
 23141      4E5F4E41 
 23141      54494F4E 
 23141      5F41524D 
 23141      5900
 23142              	.LASF479:
 23143 136d 4932535F 		.ascii	"I2S_UNINIT\000"
 23143      554E494E 
 23143      495400
 23144              	.LASF723:
 23145 1378 62756C6B 		.ascii	"bulk_in\000"
 23145      5F696E00 
 23146              	.LASF307:
 23147 1380 73746D33 		.ascii	"stm32_gpio_t\000"
 23147      325F6770 
 23147      696F5F74 
 23147      00
 23148              	.LASF217:
 23149 138d 7264796D 		.ascii	"rdymsg\000"
 23149      736700
 23150              	.LASF803:
 23151 1394 5F666E61 		.ascii	"_fnargs\000"
 23151      72677300 
 23152              	.LASF496:
 23153 139c 50574D5F 		.ascii	"PWM_READY\000"
 23153      52454144 
 23153      5900
 23154              	.LASF115:
 23155 13a6 54445452 		.ascii	"TDTR\000"
 23155      00
 23156              	.LASF123:
 23157 13ab 43414E5F 		.ascii	"CAN_FilterRegister_TypeDef\000"
ARM GAS  /var/folders/d2/nstgp4h54kz7g1l847x_b8wc0000gn/T//ccB20FE7.s 			page 429


 23157      46696C74 
 23157      65725265 
 23157      67697374 
 23157      65725F54 
 23158              	.LASF377:
 23159 13c6 6572726F 		.ascii	"error_event\000"
 23159      725F6576 
 23159      656E7400 
 23160              	.LASF352:
 23161 13d2 6E756D5F 		.ascii	"num_channels\000"
 23161      6368616E 
 23161      6E656C73 
 23161      00
 23162              	.LASF645:
 23163 13df 72657376 		.ascii	"resvd58\000"
 23163      64353800 
 23164              	.LASF694:
 23165 13e7 55534249 		.ascii	"USBInEndpointState\000"
 23165      6E456E64 
 23165      706F696E 
 23165      74537461 
 23165      746500
 23166              	.LASF41:
 23167 13fa 705F7072 		.ascii	"p_prio\000"
 23167      696F00
 23168              	.LASF896:
 23169 1401 64656669 		.ascii	"defined\000"
 23169      6E656400 
 23170              	.LASF265:
 23171 1409 696F5F71 		.ascii	"io_queue\000"
 23171      75657565 
 23171      00
 23172              	.LASF1031:
 23173 1412 7365745F 		.ascii	"set_led\000"
 23173      6C656400 
 23174              	.LASF315:
 23175 141a 50414461 		.ascii	"PAData\000"
 23175      746100
 23176              	.LASF16:
 23177 1421 5F5F7569 		.ascii	"__uint64_t\000"
 23177      6E743634 
 23177      5F7400
 23178              	.LASF1018:
 23179 142c 73746F70 		.ascii	"stopCurrentMelody\000"
 23179      43757272 
 23179      656E744D 
 23179      656C6F64 
 23179      7900
 23180              	.LASF788:
 23181 143e 5F6E6578 		.ascii	"_next\000"
 23181      7400
 23182              	.LASF730:
 23183 1444 53445531 		.ascii	"SDU1\000"
 23183      00
 23184              	.LASF956:
 23185 1449 63616D5F 		.ascii	"cam_x1\000"
 23185      783100
ARM GAS  /var/folders/d2/nstgp4h54kz7g1l847x_b8wc0000gn/T//ccB20FE7.s 			page 430


 23186              	.LASF501:
 23187 1450 70776D63 		.ascii	"pwmcallback_t\000"
 23187      616C6C62 
 23187      61636B5F 
 23187      7400
 23188              	.LASF930:
 23189 145e 4E554D5F 		.ascii	"NUM_LED\000"
 23189      4C454400 
 23190              	.LASF1048:
 23191 1466 2E2E2F65 		.ascii	"../e-puck2_main-processor/src/epuck1x/Asercom2.c\000"
 23191      2D707563 
 23191      6B325F6D 
 23191      61696E2D 
 23191      70726F63 
 23192              	.LASF395:
 23193 1497 70617261 		.ascii	"params\000"
 23193      6D7300
 23194              	.LASF591:
 23195 149e 5553425F 		.ascii	"USB_EP0_SENDING_STS\000"
 23195      4550305F 
 23195      53454E44 
 23195      494E475F 
 23195      53545300 
 23196              	.LASF871:
 23197 14b2 5F736967 		.ascii	"_signal_buf\000"
 23197      6E616C5F 
 23197      62756600 
 23198              	.LASF995:
 23199 14be 655F6765 		.ascii	"e_get_acc_filtered\000"
 23199      745F6163 
 23199      635F6669 
 23199      6C746572 
 23199      656400
 23200              	.LASF725:
 23201 14d1 696E745F 		.ascii	"int_in\000"
 23201      696E00
 23202              	.LASF456:
 23203 14d8 69326373 		.ascii	"i2cstate_t\000"
 23203      74617465 
 23203      5F7400
 23204              	.LASF817:
 23205 14e3 5F636F6F 		.ascii	"_cookie\000"
 23205      6B696500 
 23206              	.LASF887:
 23207 14eb 70617261 		.ascii	"parameter_namespace_t\000"
 23207      6D657465 
 23207      725F6E61 
 23207      6D657370 
 23207      6163655F 
 23208              	.LASF1017:
 23209 1501 655F636C 		.ascii	"e_close_sound\000"
 23209      6F73655F 
 23209      736F756E 
 23209      6400
 23210              	.LASF593:
 23211 150f 75736265 		.ascii	"usbep0state_t\000"
 23211      70307374 
ARM GAS  /var/folders/d2/nstgp4h54kz7g1l847x_b8wc0000gn/T//ccB20FE7.s 			page 431


 23211      6174655F 
 23211      7400
 23212              	.LASF399:
 23213 151d 64616365 		.ascii	"dacerror_t\000"
 23213      72726F72 
 23213      5F7400
 23214              	.LASF127:
 23215 1528 7354784D 		.ascii	"sTxMailBox\000"
 23215      61696C42 
 23215      6F7800
 23216              	.LASF334:
 23217 1533 61646373 		.ascii	"adcsample_t\000"
 23217      616D706C 
 23217      655F7400 
 23218              	.LASF432:
 23219 153f 67707463 		.ascii	"gptcallback_t\000"
 23219      616C6C62 
 23219      61636B5F 
 23219      7400
 23220              	.LASF268:
 23221 154d 715F6275 		.ascii	"q_buffer\000"
 23221      66666572 
 23221      00
 23222              	.LASF39:
 23223 1556 705F6E65 		.ascii	"p_next\000"
 23223      787400
 23224              	.LASF478:
 23225 155d 49324344 		.ascii	"I2CD1\000"
 23225      3100
 23226              	.LASF619:
 23227 1563 72657376 		.ascii	"resvd4\000"
 23227      643400
 23228              	.LASF561:
 23229 156a 55534244 		.ascii	"USBDriver\000"
 23229      72697665 
 23229      7200
 23230              	.LASF678:
 23231 1574 72657376 		.ascii	"resvd8C0\000"
 23231      64384330 
 23231      00
 23232              	.LASF715:
 23233 157d 55534243 		.ascii	"USBConfig\000"
 23233      6F6E6669 
 23233      6700
 23234              	.LASF621:
 23235 1587 72657376 		.ascii	"resvdC\000"
 23235      644300
 23236              	.LASF508:
 23237 158e 50574D44 		.ascii	"PWMD2\000"
 23237      3200
 23238              	.LASF509:
 23239 1594 50574D44 		.ascii	"PWMD3\000"
 23239      3300
 23240              	.LASF510:
 23241 159a 50574D44 		.ascii	"PWMD4\000"
 23241      3400
 23242              	.LASF511:
ARM GAS  /var/folders/d2/nstgp4h54kz7g1l847x_b8wc0000gn/T//ccB20FE7.s 			page 432


 23243 15a0 50574D44 		.ascii	"PWMD5\000"
 23243      3500
 23244              	.LASF962:
 23245 15a6 69725F6C 		.ascii	"ir_last_move\000"
 23245      6173745F 
 23245      6D6F7665 
 23245      00
 23246              	.LASF519:
 23247 15b3 6F717565 		.ascii	"oqueue\000"
 23247      756500
 23248              	.LASF29:
 23249 15ba 74726566 		.ascii	"trefs_t\000"
 23249      735F7400 
 23250              	.LASF58:
 23251 15c2 705F6D70 		.ascii	"p_mpool\000"
 23251      6F6F6C00 
 23252              	.LASF979:
 23253 15ca 655F7561 		.ascii	"e_uart1_sending\000"
 23253      7274315F 
 23253      73656E64 
 23253      696E6700 
 23254              	.LASF407:
 23255 15da 44414343 		.ascii	"DACConversionGroup\000"
 23255      6F6E7665 
 23255      7273696F 
 23255      6E47726F 
 23255      757000
 23256              	.LASF157:
 23257 15ed 43575354 		.ascii	"CWSTRTR\000"
 23257      52545200 
 23258              	.LASF793:
 23259 15f5 5F5F746D 		.ascii	"__tm_sec\000"
 23259      5F736563 
 23259      00
 23260              	.LASF708:
 23261 15fe 696E5F6D 		.ascii	"in_multiplier\000"
 23261      756C7469 
 23261      706C6965 
 23261      7200
 23262              	.LASF332:
 23263 160c 4144435F 		.ascii	"ADC_ERROR\000"
 23263      4552524F 
 23263      5200
 23264              	.LASF802:
 23265 1616 5F6F6E5F 		.ascii	"_on_exit_args\000"
 23265      65786974 
 23265      5F617267 
 23265      7300
 23266              	.LASF863:
 23267 1624 5F6C6F63 		.ascii	"_localtime_buf\000"
 23267      616C7469 
 23267      6D655F62 
 23267      756600
 23268              	.LASF27:
 23269 1633 746D6F64 		.ascii	"tmode_t\000"
 23269      655F7400 
 23270              	.LASF740:
ARM GAS  /var/folders/d2/nstgp4h54kz7g1l847x_b8wc0000gn/T//ccB20FE7.s 			page 433


 23271 163b 44434D49 		.ascii	"DCMI_ERROR\000"
 23271      5F455252 
 23271      4F5200
 23272              	.LASF1041:
 23273 1646 655F6765 		.ascii	"e_get_acc\000"
 23273      745F6163 
 23273      6300
 23274              	.LASF330:
 23275 1650 4144435F 		.ascii	"ADC_ACTIVE\000"
 23275      41435449 
 23275      564500
 23276              	.LASF811:
 23277 165b 5F626173 		.ascii	"_base\000"
 23277      6500
 23278              	.LASF106:
 23279 1661 53515231 		.ascii	"SQR1\000"
 23279      00
 23280              	.LASF107:
 23281 1666 53515232 		.ascii	"SQR2\000"
 23281      00
 23282              	.LASF108:
 23283 166b 53515233 		.ascii	"SQR3\000"
 23283      00
 23284              	.LASF303:
 23285 1670 42535252 		.ascii	"BSRR\000"
 23285      00
 23286              	.LASF993:
 23287 1675 655F7365 		.ascii	"e_set_front_led\000"
 23287      745F6672 
 23287      6F6E745F 
 23287      6C656400 
 23288              	.LASF282:
 23289 1685 73746D33 		.ascii	"stm32_dma_stream_t\000"
 23289      325F646D 
 23289      615F7374 
 23289      7265616D 
 23289      5F7400
 23290              	.LASF713:
 23291 1698 72657175 		.ascii	"requests_hook_cb\000"
 23291      65737473 
 23291      5F686F6F 
 23291      6B5F6362 
 23291      00
 23292              	.LASF876:
 23293 16a9 5F776372 		.ascii	"_wcrtomb_state\000"
 23293      746F6D62 
 23293      5F737461 
 23293      746500
 23294              	.LASF530:
 23295 16b8 5344435F 		.ascii	"SDC_MODE_8BIT\000"
 23295      4D4F4445 
 23295      5F384249 
 23295      5400
 23296              	.LASF691:
 23297 16c6 74787369 		.ascii	"txsize\000"
 23297      7A6500
 23298              	.LASF403:
ARM GAS  /var/folders/d2/nstgp4h54kz7g1l847x_b8wc0000gn/T//ccB20FE7.s 			page 434


 23299 16cd 4441435F 		.ascii	"DAC_DHRM_12BIT_LEFT\000"
 23299      4448524D 
 23299      5F313242 
 23299      49545F4C 
 23299      45465400 
 23300              	.LASF998:
 23301 16e1 69734570 		.ascii	"isEpuckVersion1_3\000"
 23301      75636B56 
 23301      65727369 
 23301      6F6E315F 
 23301      3300
 23302              	.LASF499:
 23303 16f3 70657269 		.ascii	"period\000"
 23303      6F6400
 23304              	.LASF981:
 23305 16fa 655F6932 		.ascii	"e_i2cp_enable\000"
 23305      63705F65 
 23305      6E61626C 
 23305      6500
 23306              	.LASF455:
 23307 1708 4932435F 		.ascii	"I2C_LOCKED\000"
 23307      4C4F434B 
 23307      454400
 23308              	.LASF939:
 23309 1713 73706565 		.ascii	"speedl\000"
 23309      646C00
 23310              	.LASF88:
 23311 171a 6973725F 		.ascii	"isr_cnt\000"
 23311      636E7400 
 23312              	.LASF1011:
 23313 1722 655F706C 		.ascii	"e_play_sound\000"
 23313      61795F73 
 23313      6F756E64 
 23313      00
 23314              	.LASF938:
 23315 172f 73706565 		.ascii	"speedr\000"
 23315      647200
 23316              	.LASF582:
 23317 1736 5553425F 		.ascii	"USB_READY\000"
 23317      52454144 
 23317      5900
 23318              	.LASF1032:
 23319 1740 7365745F 		.ascii	"set_body_led\000"
 23319      626F6479 
 23319      5F6C6564 
 23319      00
 23320              	.LASF527:
 23321 174d 72656164 		.ascii	"readt\000"
 23321      7400
 23322              	.LASF828:
 23323 1753 5F6D6273 		.ascii	"_mbstate\000"
 23323      74617465 
 23323      00
 23324              	.LASF634:
 23325 175c 47525354 		.ascii	"GRSTCTL\000"
 23325      43544C00 
 23326              	.LASF429:
ARM GAS  /var/folders/d2/nstgp4h54kz7g1l847x_b8wc0000gn/T//ccB20FE7.s 			page 435


 23327 1764 67707473 		.ascii	"gptstate_t\000"
 23327      74617465 
 23327      5F7400
 23328              	.LASF1023:
 23329 176f 655F6765 		.ascii	"e_getchar_uart1\000"
 23329      74636861 
 23329      725F7561 
 23329      72743100 
 23330              	.LASF18:
 23331 177f 696E7438 		.ascii	"int8_t\000"
 23331      5F7400
 23332              	.LASF786:
 23333 1786 5F5F554C 		.ascii	"__ULong\000"
 23333      6F6E6700 
 23334              	.LASF87:
 23335 178e 70616E69 		.ascii	"panic_msg\000"
 23335      635F6D73 
 23335      6700
 23336              	.LASF553:
 23337 1798 5350495F 		.ascii	"SPI_COMPLETE\000"
 23337      434F4D50 
 23337      4C455445 
 23337      00
 23338              	.LASF176:
 23339 17a5 4454494D 		.ascii	"DTIMER\000"
 23339      455200
 23340              	.LASF71:
 23341 17ac 725F6E65 		.ascii	"r_newer\000"
 23341      77657200 
 23342              	.LASF599:
 23343 17b4 5553425F 		.ascii	"USB_EVENT_STALLED\000"
 23343      4556454E 
 23343      545F5354 
 23343      414C4C45 
 23343      4400
 23344              	.LASF251:
 23345 17c6 63686465 		.ascii	"chdebug_t\000"
 23345      6275675F 
 23345      7400
 23346              	.LASF697:
 23347 17d0 72787369 		.ascii	"rxsize\000"
 23347      7A6500
 23348              	.LASF1006:
 23349 17d7 655F6765 		.ascii	"e_get_steps_right\000"
 23349      745F7374 
 23349      6570735F 
 23349      72696768 
 23349      7400
 23350              	.LASF613:
 23351 17e9 48435453 		.ascii	"HCTSIZ\000"
 23351      495A00
 23352              	.LASF596:
 23353 17f0 5553425F 		.ascii	"USB_EVENT_CONFIGURED\000"
 23353      4556454E 
 23353      545F434F 
 23353      4E464947 
 23353      55524544 
ARM GAS  /var/folders/d2/nstgp4h54kz7g1l847x_b8wc0000gn/T//ccB20FE7.s 			page 436


 23354              	.LASF545:
 23355 1805 64697363 		.ascii	"disconnect\000"
 23355      6F6E6E65 
 23355      637400
 23356              	.LASF766:
 23357 1810 6F70746F 		.ascii	"optopt\000"
 23357      707400
 23358              	.LASF524:
 23359 1817 70757474 		.ascii	"putt\000"
 23359      00
 23360              	.LASF30:
 23361 181c 74736C69 		.ascii	"tslices_t\000"
 23361      6365735F 
 23361      7400
 23362              	.LASF861:
 23363 1826 5F737472 		.ascii	"_strtok_last\000"
 23363      746F6B5F 
 23363      6C617374 
 23363      00
 23364              	.LASF238:
 23365 1833 63685F74 		.ascii	"ch_timesize\000"
 23365      696D6573 
 23365      697A6500 
 23366              	.LASF578:
 23367 183f 77615F70 		.ascii	"wa_pump\000"
 23367      756D7000 
 23368              	.LASF181:
 23369 1847 4649464F 		.ascii	"FIFOCNT\000"
 23369      434E5400 
 23370              	.LASF263:
 23371 184f 6576656E 		.ascii	"event_source_t\000"
 23371      745F736F 
 23371      75726365 
 23371      5F7400
 23372              	.LASF648:
 23373 185e 72657376 		.ascii	"resvd140\000"
 23373      64313430 
 23373      00
 23374              	.LASF79:
 23375 1867 76745F64 		.ascii	"vt_delta\000"
 23375      656C7461 
 23375      00
 23376              	.LASF857:
 23377 1870 5F736565 		.ascii	"_seed\000"
 23377      6400
 23378              	.LASF202:
 23379 1876 74625F70 		.ascii	"tb_ptr\000"
 23379      747200
 23380              	.LASF406:
 23381 187d 74726967 		.ascii	"trigger\000"
 23381      67657200 
 23382              	.LASF820:
 23383 1885 5F736565 		.ascii	"_seek\000"
 23383      6B00
 23384              	.LASF597:
 23385 188b 5553425F 		.ascii	"USB_EVENT_SUSPEND\000"
 23385      4556454E 
ARM GAS  /var/folders/d2/nstgp4h54kz7g1l847x_b8wc0000gn/T//ccB20FE7.s 			page 437


 23385      545F5355 
 23385      5350454E 
 23385      4400
 23386              	.LASF20:
 23387 189d 696E7431 		.ascii	"int16_t\000"
 23387      365F7400 
 23388              	.LASF425:
 23389 18a5 4750545F 		.ascii	"GPT_STOP\000"
 23389      53544F50 
 23389      00
 23390              	.LASF114:
 23391 18ae 4144435F 		.ascii	"ADC_TypeDef\000"
 23391      54797065 
 23391      44656600 
 23392              	.LASF11:
 23393 18ba 73686F72 		.ascii	"short unsigned int\000"
 23393      7420756E 
 23393      7369676E 
 23393      65642069 
 23393      6E7400
 23394              	.LASF467:
 23395 18cd 6F705F6D 		.ascii	"op_mode\000"
 23395      6F646500 
 23396              	.LASF5:
 23397 18d5 7369676E 		.ascii	"signed char\000"
 23397      65642063 
 23397      68617200 
 23398              	.LASF893:
 23399 18e1 70617261 		.ascii	"parameter_t\000"
 23399      6D657465 
 23399      725F7400 
 23400              	.LASF536:
 23401 18ed 63617264 		.ascii	"cardmode\000"
 23401      6D6F6465 
 23401      00
 23402              	.LASF50:
 23403 18f6 705F7072 		.ascii	"p_preempt\000"
 23403      65656D70 
 23403      7400
 23404              	.LASF36:
 23405 1900 75636E74 		.ascii	"ucnt_t\000"
 23405      5F7400
 23406              	.LASF117:
 23407 1907 54444852 		.ascii	"TDHR\000"
 23407      00
 23408              	.LASF328:
 23409 190c 4144435F 		.ascii	"ADC_STOP\000"
 23409      53544F50 
 23409      00
 23410              	.LASF590:
 23411 1915 5553425F 		.ascii	"USB_EP0_RX\000"
 23411      4550305F 
 23411      525800
 23412              	.LASF502:
 23413 1920 70776D6D 		.ascii	"pwmmode_t\000"
 23413      6F64655F 
 23413      7400
ARM GAS  /var/folders/d2/nstgp4h54kz7g1l847x_b8wc0000gn/T//ccB20FE7.s 			page 438


 23414              	.LASF571:
 23415 192a 73746174 		.ascii	"status\000"
 23415      757300
 23416              	.LASF177:
 23417 1931 444C454E 		.ascii	"DLEN\000"
 23417      00
 23418              	.LASF1020:
 23419 1936 67657473 		.ascii	"getselector\000"
 23419      656C6563 
 23419      746F7200 
 23420              	.LASF529:
 23421 1942 5344435F 		.ascii	"SDC_MODE_4BIT\000"
 23421      4D4F4445 
 23421      5F344249 
 23421      5400
 23422              	.LASF603:
 23423 1950 55534244 		.ascii	"USBDescriptor\000"
 23423      65736372 
 23423      6970746F 
 23423      7200
 23424              	.LASF1035:
 23425 195e 73657269 		.ascii	"serial_clear_last_errors\000"
 23425      616C5F63 
 23425      6C656172 
 23425      5F6C6173 
 23425      745F6572 
 23426              	.LASF556:
 23427 1977 73706963 		.ascii	"spicallback_t\000"
 23427      616C6C62 
 23427      61636B5F 
 23427      7400
 23428              	.LASF844:
 23429 1985 5F667265 		.ascii	"_freelist\000"
 23429      656C6973 
 23429      7400
 23430              	.LASF572:
 23431 198f 61646472 		.ascii	"address\000"
 23431      65737300 
 23432              	.LASF53:
 23433 1997 705F6D73 		.ascii	"p_msgqueue\000"
 23433      67717565 
 23433      756500
 23434              	.LASF248:
 23435 19a2 63665F6F 		.ascii	"cf_off_refs\000"
 23435      66665F72 
 23435      65667300 
 23436              	.LASF540:
 23437 19ae 53444343 		.ascii	"SDCConfig\000"
 23437      6F6E6669 
 23437      6700
 23438              	.LASF229:
 23439 19b8 6D5F6F77 		.ascii	"m_owner\000"
 23439      6E657200 
 23440              	.LASF825:
 23441 19c0 5F6F6666 		.ascii	"_offset\000"
 23441      73657400 
 23442              	.LASF901:
ARM GAS  /var/folders/d2/nstgp4h54kz7g1l847x_b8wc0000gn/T//ccB20FE7.s 			page 439


 23443 19c8 5F706172 		.ascii	"_param_val_vector_s\000"
 23443      616D5F76 
 23443      616C5F76 
 23443      6563746F 
 23443      725F7300 
 23444              	.LASF99:
 23445 19dc 53797374 		.ascii	"SystemCoreClock\000"
 23445      656D436F 
 23445      7265436C 
 23445      6F636B00 
 23446              	.LASF350:
 23447 19ec 61646365 		.ascii	"adcerrorcallback_t\000"
 23447      72726F72 
 23447      63616C6C 
 23447      6261636B 
 23447      5F7400
 23448              	.LASF385:
 23449 19ff 4441435F 		.ascii	"DAC_ACTIVE\000"
 23449      41435449 
 23449      564500
 23450              	.LASF957:
 23451 1a0a 63616D5F 		.ascii	"cam_y1\000"
 23451      793100
 23452              	.LASF340:
 23453 1a11 73746174 		.ascii	"state\000"
 23453      6500
 23454              	.LASF999:
 23455 1a17 655F6765 		.ascii	"e_get_check\000"
 23455      745F6368 
 23455      65636B00 
 23456              	.LASF236:
 23457 1a23 63685F76 		.ascii	"ch_version\000"
 23457      65727369 
 23457      6F6E00
 23458              	.LASF810:
 23459 1a2e 5F5F7362 		.ascii	"__sbuf\000"
 23459      756600
 23460              	.LASF537:
 23461 1a35 7364696F 		.ascii	"sdio\000"
 23461      00
 23462              	.LASF994:
 23463 1a3a 655F6765 		.ascii	"e_get_calibrated_prox\000"
 23463      745F6361 
 23463      6C696272 
 23463      61746564 
 23463      5F70726F 
 23464              	.LASF140:
 23465 1a50 53575452 		.ascii	"SWTRIGR\000"
 23465      49475200 
 23466              	.LASF589:
 23467 1a58 5553425F 		.ascii	"USB_EP0_WAITING_STS\000"
 23467      4550305F 
 23467      57414954 
 23467      494E475F 
 23467      53545300 
 23468              	.LASF168:
 23469 1a6c 4932435F 		.ascii	"I2C_TypeDef\000"
ARM GAS  /var/folders/d2/nstgp4h54kz7g1l847x_b8wc0000gn/T//ccB20FE7.s 			page 440


 23469      54797065 
 23469      44656600 
 23470              	.LASF121:
 23471 1a78 52444852 		.ascii	"RDHR\000"
 23471      00
 23472              	.LASF765:
 23473 1a7d 6F707465 		.ascii	"opterr\000"
 23473      727200
 23474              	.LASF859:
 23475 1a84 5F616464 		.ascii	"_add\000"
 23475      00
 23476              	.LASF439:
 23477 1a89 444D4152 		.ascii	"DMAR\000"
 23477      00
 23478              	.LASF445:
 23479 1a8e 63616C6C 		.ascii	"callback\000"
 23479      6261636B 
 23479      00
 23480              	.LASF92:
 23481 1a97 63685F73 		.ascii	"ch_system\000"
 23481      79737465 
 23481      6D00
 23482              	.LASF169:
 23483 1aa1 504F5745 		.ascii	"POWER\000"
 23483      5200
 23484              	.LASF830:
 23485 1aa7 5F726565 		.ascii	"_reent\000"
 23485      6E7400
 23486              	.LASF90:
 23487 1aae 74726163 		.ascii	"trace_buffer\000"
 23487      655F6275 
 23487      66666572 
 23487      00
 23488              	.LASF870:
 23489 1abb 5F6C3634 		.ascii	"_l64a_buf\000"
 23489      615F6275 
 23489      6600
 23490              	.LASF862:
 23491 1ac5 5F617363 		.ascii	"_asctime_buf\000"
 23491      74696D65 
 23491      5F627566 
 23491      00
 23492              	.LASF404:
 23493 1ad2 4441435F 		.ascii	"DAC_DHRM_8BIT_RIGHT\000"
 23493      4448524D 
 23493      5F384249 
 23493      545F5249 
 23493      47485400 
 23494              	.LASF424:
 23495 1ae6 4750545F 		.ascii	"GPT_UNINIT\000"
 23495      554E494E 
 23495      495400
 23496              	.LASF756:
 23497 1af1 5F5F7763 		.ascii	"__wch\000"
 23497      6800
 23498              	.LASF759:
 23499 1af7 5F5F7661 		.ascii	"__value\000"
ARM GAS  /var/folders/d2/nstgp4h54kz7g1l847x_b8wc0000gn/T//ccB20FE7.s 			page 441


 23499      6C756500 
 23500              	.LASF224:
 23501 1aff 63685F73 		.ascii	"ch_semaphore\000"
 23501      656D6170 
 23501      686F7265 
 23501      00
 23502              	.LASF931:
 23503 1b0c 5F637479 		.ascii	"_ctype_\000"
 23503      70655F00 
 23504              	.LASF877:
 23505 1b14 5F776373 		.ascii	"_wcsrtombs_state\000"
 23505      72746F6D 
 23505      62735F73 
 23505      74617465 
 23505      00
 23506              	.LASF727:
 23507 1b25 53657269 		.ascii	"SerialUSBDriverVMT\000"
 23507      616C5553 
 23507      42447269 
 23507      76657256 
 23507      4D5400
 23508              	.LASF742:
 23509 1b38 64636D69 		.ascii	"dcmistate_t\000"
 23509      73746174 
 23509      655F7400 
 23510              	.LASF622:
 23511 1b44 44494550 		.ascii	"DIEPTSIZ\000"
 23511      5453495A 
 23511      00
 23512              	.LASF899:
 23513 1b4d 5F706172 		.ascii	"_param_val_str_s\000"
 23513      616D5F76 
 23513      616C5F73 
 23513      74725F73 
 23513      00
 23514              	.LASF355:
 23515 1b5e 736D7072 		.ascii	"smpr1\000"
 23515      3100
 23516              	.LASF356:
 23517 1b64 736D7072 		.ascii	"smpr2\000"
 23517      3200
 23518              	.LASF64:
 23519 1b6a 74687265 		.ascii	"threads_queue_t\000"
 23519      6164735F 
 23519      71756575 
 23519      655F7400 
 23520              	.LASF293:
 23521 1b7a 626C6B73 		.ascii	"blkstate_t\000"
 23521      74617465 
 23521      5F7400
 23522              	.LASF51:
 23523 1b85 705F7469 		.ascii	"p_time\000"
 23523      6D6500
 23524              	.LASF49:
 23525 1b8c 705F7265 		.ascii	"p_refs\000"
 23525      667300
 23526              	.LASF700:
ARM GAS  /var/folders/d2/nstgp4h54kz7g1l847x_b8wc0000gn/T//ccB20FE7.s 			page 442


 23527 1b93 65705F6D 		.ascii	"ep_mode\000"
 23527      6F646500 
 23528              	.LASF503:
 23529 1b9b 70776D63 		.ascii	"pwmchannel_t\000"
 23529      68616E6E 
 23529      656C5F74 
 23529      00
 23530              	.LASF116:
 23531 1ba8 54444C52 		.ascii	"TDLR\000"
 23531      00
 23532              	.LASF13:
 23533 1bad 6C6F6E67 		.ascii	"long int\000"
 23533      20696E74 
 23533      00
 23534              	.LASF95:
 23535 1bb6 6D61696E 		.ascii	"mainthread\000"
 23535      74687265 
 23535      616400
 23536              	.LASF1022:
 23537 1bc1 52656164 		.ascii	"ReadEE\000"
 23537      454500
 23538              	.LASF568:
 23539 1bc8 6570306E 		.ascii	"ep0n\000"
 23539      00
 23540              	.LASF681:
 23541 1bcd 72657376 		.ascii	"resvdE04\000"
 23541      64453034 
 23541      00
 23542              	.LASF228:
 23543 1bd6 6D5F7175 		.ascii	"m_queue\000"
 23543      65756500 
 23544              	.LASF392:
 23545 1bde 646D6169 		.ascii	"dmairqprio\000"
 23545      72717072 
 23545      696F00
 23546              	.LASF430:
 23547 1be9 47505444 		.ascii	"GPTDriver\000"
 23547      72697665 
 23547      7200
 23548              	.LASF1044:
 23549 1bf3 63616C69 		.ascii	"calibrate_ir\000"
 23549      62726174 
 23549      655F6972 
 23549      00
 23550              	.LASF533:
 23551 1c00 73646366 		.ascii	"sdcflags_t\000"
 23551      6C616773 
 23551      5F7400
 23552              	.LASF322:
 23553 1c0b 50484461 		.ascii	"PHData\000"
 23553      746100
 23554              	.LASF325:
 23555 1c12 696F706F 		.ascii	"ioportid_t\000"
 23555      72746964 
 23555      5F7400
 23556              	.LASF779:
 23557 1c1d 6D657373 		.ascii	"messagebus_topic_t\000"
ARM GAS  /var/folders/d2/nstgp4h54kz7g1l847x_b8wc0000gn/T//ccB20FE7.s 			page 443


 23557      61676562 
 23557      75735F74 
 23557      6F706963 
 23557      5F7400
 23558              	.LASF363:
 23559 1c30 41444344 		.ascii	"ADCD1\000"
 23559      3100
 23560              	.LASF364:
 23561 1c36 41444344 		.ascii	"ADCD2\000"
 23561      3200
 23562              	.LASF365:
 23563 1c3c 41444344 		.ascii	"ADCD3\000"
 23563      3300
 23564              	.LASF649:
 23565 1c42 48434647 		.ascii	"HCFG\000"
 23565      00
 23566              	.LASF1026:
 23567 1c47 7364696F 		.ascii	"sdio_is_present\000"
 23567      5F69735F 
 23567      70726573 
 23567      656E7400 
 23568              	.LASF348:
 23569 1c57 646D616D 		.ascii	"dmamode\000"
 23569      6F646500 
 23570              	.LASF210:
 23571 1c5f 63756D75 		.ascii	"cumulative\000"
 23571      6C617469 
 23571      766500
 23572              	.LASF855:
 23573 1c6a 5F696F62 		.ascii	"_iobs\000"
 23573      7300
 23574              	.LASF560:
 23575 1c70 53504944 		.ascii	"SPID1\000"
 23575      3100
 23576              	.LASF525:
 23577 1c76 67657474 		.ascii	"gett\000"
 23577      00
 23578              	.LASF873:
 23579 1c7b 5F6D6272 		.ascii	"_mbrlen_state\000"
 23579      6C656E5F 
 23579      73746174 
 23579      6500
 23580              	.LASF220:
 23581 1c89 77747472 		.ascii	"wttrp\000"
 23581      7000
 23582              	.LASF271:
 23583 1c8f 715F7264 		.ascii	"q_rdptr\000"
 23583      70747200 
 23584              	.LASF194:
 23585 1c97 636F6E74 		.ascii	"context\000"
 23585      65787400 
 23586              	.LASF522:
 23587 1c9f 77726974 		.ascii	"write\000"
 23587      6500
 23588              	.LASF865:
 23589 1ca5 5F72616E 		.ascii	"_rand_next\000"
 23589      645F6E65 
ARM GAS  /var/folders/d2/nstgp4h54kz7g1l847x_b8wc0000gn/T//ccB20FE7.s 			page 444


 23589      787400
 23590              	.LASF518:
 23591 1cb0 69717565 		.ascii	"iqueue\000"
 23591      756500
 23592              	.LASF702:
 23593 1cb7 696E5F63 		.ascii	"in_cb\000"
 23593      6200
 23594              	.LASF627:
 23595 1cbd 444F4550 		.ascii	"DOEPINT\000"
 23595      494E5400 
 23596              	.LASF209:
 23597 1cc5 6C617374 		.ascii	"last\000"
 23597      00
 23598              	.LASF1008:
 23599 1cca 655F6C65 		.ascii	"e_led_clear\000"
 23599      645F636C 
 23599      65617200 
 23600              	.LASF304:
 23601 1cd6 4C434B52 		.ascii	"LCKR\000"
 23601      00
 23602              	.LASF515:
 23603 1cdb 73647374 		.ascii	"sdstate_t\000"
 23603      6174655F 
 23603      7400
 23604              	.LASF23:
 23605 1ce5 75696E74 		.ascii	"uint32_t\000"
 23605      33325F74 
 23605      00
 23606              	.LASF389:
 23607 1cee 64617461 		.ascii	"dataoffset\000"
 23607      6F666673 
 23607      657400
 23608              	.LASF789:
 23609 1cf9 5F6D6178 		.ascii	"_maxwds\000"
 23609      77647300 
 23610              	.LASF291:
 23611 1d01 424C4B5F 		.ascii	"BLK_WRITING\000"
 23611      57524954 
 23611      494E4700 
 23612              	.LASF120:
 23613 1d0d 52444C52 		.ascii	"RDLR\000"
 23613      00
 23614              	.LASF770:
 23615 1d12 62756666 		.ascii	"buffer_len\000"
 23615      65725F6C 
 23615      656E00
 23616              	.LASF790:
 23617 1d1d 5F736967 		.ascii	"_sign\000"
 23617      6E00
 23618              	.LASF910:
 23619 1d23 4D415249 		.ascii	"MARIO\000"
 23619      4F00
 23620              	.LASF2:
 23621 1d29 6C6F6E67 		.ascii	"long double\000"
 23621      20646F75 
 23621      626C6500 
 23622              	.LASF192:
ARM GAS  /var/folders/d2/nstgp4h54kz7g1l847x_b8wc0000gn/T//ccB20FE7.s 			page 445


 23623 1d35 72656761 		.ascii	"regarm_t\000"
 23623      726D5F74 
 23623      00
 23624              	.LASF33:
 23625 1d3e 6576656E 		.ascii	"eventmask_t\000"
 23625      746D6173 
 23625      6B5F7400 
 23626              	.LASF951:
 23627 1d4a 63616D5F 		.ascii	"cam_mode\000"
 23627      6D6F6465 
 23627      00
 23628              	.LASF343:
 23629 1d53 64657074 		.ascii	"depth\000"
 23629      6800
 23630              	.LASF134:
 23631 1d59 46464131 		.ascii	"FFA1R\000"
 23631      5200
 23632              	.LASF583:
 23633 1d5f 5553425F 		.ascii	"USB_SELECTED\000"
 23633      53454C45 
 23633      43544544 
 23633      00
 23634              	.LASF1028:
 23635 1d6c 62757474 		.ascii	"button_get_state\000"
 23635      6F6E5F67 
 23635      65745F73 
 23635      74617465 
 23635      00
 23636              	.LASF15:
 23637 1d7d 6C6F6E67 		.ascii	"long unsigned int\000"
 23637      20756E73 
 23637      69676E65 
 23637      6420696E 
 23637      7400
 23638              	.LASF575:
 23639 1d8f 706D6E65 		.ascii	"pmnext\000"
 23639      787400
 23640              	.LASF982:
 23641 1d96 655F6932 		.ascii	"e_i2cp_read\000"
 23641      63705F72 
 23641      65616400 
 23642              	.LASF482:
 23643 1da2 4932535F 		.ascii	"I2S_ACTIVE\000"
 23643      41435449 
 23643      564500
 23644              	.LASF426:
 23645 1dad 4750545F 		.ascii	"GPT_READY\000"
 23645      52454144 
 23645      5900
 23646              	.LASF388:
 23647 1db7 64616373 		.ascii	"dacstate_t\000"
 23647      74617465 
 23647      5F7400
 23648              	.LASF741:
 23649 1dc2 44434D49 		.ascii	"DCMI_TIMEOUT\000"
 23649      5F54494D 
 23649      454F5554 
ARM GAS  /var/folders/d2/nstgp4h54kz7g1l847x_b8wc0000gn/T//ccB20FE7.s 			page 446


 23649      00
 23650              	.LASF197:
 23651 1dcf 73655F74 		.ascii	"se_tp\000"
 23651      7000
 23652              	.LASF270:
 23653 1dd5 715F7772 		.ascii	"q_wrptr\000"
 23653      70747200 
 23654              	.LASF396:
 23655 1ddd 64616373 		.ascii	"dacsample_t\000"
 23655      616D706C 
 23655      655F7400 
 23656              	.LASF595:
 23657 1de9 5553425F 		.ascii	"USB_EVENT_ADDRESS\000"
 23657      4556454E 
 23657      545F4144 
 23657      44524553 
 23657      5300
 23658              	.LASF490:
 23659 1dfb 69327363 		.ascii	"i2scfgr\000"
 23659      66677200 
 23660              	.LASF718:
 23661 1e03 5344555F 		.ascii	"SDU_STOP\000"
 23661      53544F50 
 23661      00
 23662              	.LASF171:
 23663 1e0c 52455350 		.ascii	"RESPCMD\000"
 23663      434D4400 
 23664              	.LASF375:
 23665 1e14 72786675 		.ascii	"rxfull_event\000"
 23665      6C6C5F65 
 23665      76656E74 
 23665      00
 23666              	.LASF600:
 23667 1e21 75736265 		.ascii	"usbevent_t\000"
 23667      76656E74 
 23667      5F7400
 23668              	.LASF821:
 23669 1e2c 5F636C6F 		.ascii	"_close\000"
 23669      736500
 23670              	.LASF232:
 23671 1e33 63686172 		.ascii	"char\000"
 23671      00
 23672              	.LASF732:
 23673 1e38 44434D49 		.ascii	"DCMI_ERR_OVERFLOW\000"
 23673      5F455252 
 23673      5F4F5645 
 23673      52464C4F 
 23673      5700
 23674              	.LASF155:
 23675 1e4a 45534352 		.ascii	"ESCR\000"
 23675      00
 23676              	.LASF372:
 23677 1e4f 43414E43 		.ascii	"CANConfig\000"
 23677      6F6E6669 
 23677      6700
 23678              	.LASF319:
 23679 1e59 50454461 		.ascii	"PEData\000"
ARM GAS  /var/folders/d2/nstgp4h54kz7g1l847x_b8wc0000gn/T//ccB20FE7.s 			page 447


 23679      746100
 23680              	.LASF68:
 23681 1e60 725F7175 		.ascii	"r_queue\000"
 23681      65756500 
 23682              	.LASF853:
 23683 1e68 5F676C75 		.ascii	"_glue\000"
 23683      6500
 23684              	.LASF972:
 23685 1e6e 5F5F6C6F 		.ascii	"__locale_ctype_ptr\000"
 23685      63616C65 
 23685      5F637479 
 23685      70655F70 
 23685      747200
 23686              	.LASF783:
 23687 1e81 6D657373 		.ascii	"messagebus_watchgroup_s\000"
 23687      61676562 
 23687      75735F77 
 23687      61746368 
 23687      67726F75 
 23688              	.LASF989:
 23689 1e99 655F7365 		.ascii	"e_set_speed_right\000"
 23689      745F7370 
 23689      6565645F 
 23689      72696768 
 23689      7400
 23690              	.LASF500:
 23691 1eab 656E6162 		.ascii	"enabled\000"
 23691      6C656400 
 23692              	.LASF987:
 23693 1eb3 655F706F 		.ascii	"e_poxxxx_write_cam_registers\000"
 23693      78787878 
 23693      5F777269 
 23693      74655F63 
 23693      616D5F72 
 23694              	.LASF397:
 23695 1ed0 4441435F 		.ascii	"DAC_ERR_DMAFAILURE\000"
 23695      4552525F 
 23695      444D4146 
 23695      41494C55 
 23695      524500
 23696              	.LASF639:
 23697 1ee3 47525846 		.ascii	"GRXFSIZ\000"
 23697      53495A00 
 23698              	.LASF916:
 23699 1eeb 50495241 		.ascii	"PIRATES_OF_THE_CARIBBEAN\000"
 23699      5445535F 
 23699      4F465F54 
 23699      48455F43 
 23699      41524942 
 23700              	.LASF546:
 23701 1f04 73796E63 		.ascii	"sync\000"
 23701      00
 23702              	.LASF520:
 23703 1f09 75736172 		.ascii	"usart\000"
 23703      7400
 23704              	.LASF158:
 23705 1f0f 43575349 		.ascii	"CWSIZER\000"
ARM GAS  /var/folders/d2/nstgp4h54kz7g1l847x_b8wc0000gn/T//ccB20FE7.s 			page 448


 23705      5A455200 
 23706              	.LASF532:
 23707 1f17 7364636D 		.ascii	"sdcmode_t\000"
 23707      6F64655F 
 23707      7400
 23708              	.LASF273:
 23709 1f21 715F6C69 		.ascii	"q_link\000"
 23709      6E6B00
 23710              	.LASF1021:
 23711 1f28 655F696E 		.ascii	"e_init_remote_control\000"
 23711      69745F72 
 23711      656D6F74 
 23711      655F636F 
 23711      6E74726F 
 23712              	.LASF746:
 23713 1f3e 64636D69 		.ascii	"dcmierrorcallback_t\000"
 23713      6572726F 
 23713      7263616C 
 23713      6C626163 
 23713      6B5F7400 
 23714              	.LASF660:
 23715 1f52 44434647 		.ascii	"DCFG\000"
 23715      00
 23716              	.LASF787:
 23717 1f57 5F426967 		.ascii	"_Bigint\000"
 23717      696E7400 
 23718              	.LASF670:
 23719 1f5f 44564255 		.ascii	"DVBUSDIS\000"
 23719      53444953 
 23719      00
 23720              	.LASF636:
 23721 1f68 47494E54 		.ascii	"GINTMSK\000"
 23721      4D534B00 
 23722              	.LASF641:
 23723 1f70 484E5054 		.ascii	"HNPTXSTS\000"
 23723      58535453 
 23723      00
 23724              	.LASF1030:
 23725 1f79 73657269 		.ascii	"serial_get_last_errors\000"
 23725      616C5F67 
 23725      65745F6C 
 23725      6173745F 
 23725      6572726F 
 23726              	.LASF573:
 23727 1f90 636F6E66 		.ascii	"configuration\000"
 23727      69677572 
 23727      6174696F 
 23727      6E00
 23728              	.LASF848:
 23729 1f9e 5F617465 		.ascii	"_atexit0\000"
 23729      78697430 
 23729      00
 23730              	.LASF926:
 23731 1fa7 4C454431 		.ascii	"LED1\000"
 23731      00
 23732              	.LASF927:
 23733 1fac 4C454433 		.ascii	"LED3\000"
ARM GAS  /var/folders/d2/nstgp4h54kz7g1l847x_b8wc0000gn/T//ccB20FE7.s 			page 449


 23733      00
 23734              	.LASF928:
 23735 1fb1 4C454435 		.ascii	"LED5\000"
 23735      00
 23736              	.LASF929:
 23737 1fb6 4C454437 		.ascii	"LED7\000"
 23737      00
 23738              	.LASF314:
 23739 1fbb 73746D33 		.ascii	"stm32_gpio_setup_t\000"
 23739      325F6770 
 23739      696F5F73 
 23739      65747570 
 23739      5F7400
 23740              	.LASF977:
 23741 1fce 7374726C 		.ascii	"strlen\000"
 23741      656E00
 23742              	.LASF924:
 23743 1fd5 4D4C5F57 		.ascii	"ML_WAIT_AND_CHANGE\000"
 23743      4149545F 
 23743      414E445F 
 23743      4348414E 
 23743      474500
 23744              	.LASF1034:
 23745 1fe8 655F706F 		.ascii	"e_poxxxx_launch_capture\000"
 23745      78787878 
 23745      5F6C6175 
 23745      6E63685F 
 23745      63617074 
 23746              	.LASF283:
 23747 2000 5F73746D 		.ascii	"_stm32_dma_streams\000"
 23747      33325F64 
 23747      6D615F73 
 23747      74726561 
 23747      6D7300
 23748              	.LASF142:
 23749 2013 44485231 		.ascii	"DHR12L1\000"
 23749      324C3100 
 23750              	.LASF145:
 23751 201b 44485231 		.ascii	"DHR12L2\000"
 23751      324C3200 
 23752              	.LASF872:
 23753 2023 5F676574 		.ascii	"_getdate_err\000"
 23753      64617465 
 23753      5F657272 
 23753      00
 23754              	.LASF967:
 23755 2030 63616D5F 		.ascii	"cam_start_index\000"
 23755      73746172 
 23755      745F696E 
 23755      64657800 
 23756              	.LASF531:
 23757 2040 73646362 		.ascii	"sdcbusmode_t\000"
 23757      75736D6F 
 23757      64655F74 
 23757      00
 23758              	.LASF1003:
 23759 204d 655F7365 		.ascii	"e_set_steps_right\000"
ARM GAS  /var/folders/d2/nstgp4h54kz7g1l847x_b8wc0000gn/T//ccB20FE7.s 			page 450


 23759      745F7374 
 23759      6570735F 
 23759      72696768 
 23759      7400
 23760              	.LASF963:
 23761 205f 61636365 		.ascii	"accelero\000"
 23761      6C65726F 
 23761      00
 23762              	.LASF792:
 23763 2068 5F5F746D 		.ascii	"__tm\000"
 23763      00
 23764              	.LASF148:
 23765 206d 44485231 		.ascii	"DHR12LD\000"
 23765      324C4400 
 23766              	.LASF349:
 23767 2075 61646363 		.ascii	"adccallback_t\000"
 23767      616C6C62 
 23767      61636B5F 
 23767      7400
 23768              	.LASF785:
 23769 2083 6D657373 		.ascii	"messagebus_watchgroup_t\000"
 23769      61676562 
 23769      75735F77 
 23769      61746368 
 23769      67726F75 
 23770              	.LASF46:
 23771 209b 705F7374 		.ascii	"p_stklimit\000"
 23771      6B6C696D 
 23771      697400
 23772              	.LASF35:
 23773 20a6 636E745F 		.ascii	"cnt_t\000"
 23773      7400
 23774              	.LASF415:
 23775 20ac 65787473 		.ascii	"extstate_t\000"
 23775      74617465 
 23775      5F7400
 23776              	.LASF1037:
 23777 20b7 7364696F 		.ascii	"sdio_connect\000"
 23777      5F636F6E 
 23777      6E656374 
 23777      00
 23778              	.LASF588:
 23779 20c4 5553425F 		.ascii	"USB_EP0_WAITING_TX0\000"
 23779      4550305F 
 23779      57414954 
 23779      494E475F 
 23779      54583000 
 23780              	.LASF567:
 23781 20d8 6570306E 		.ascii	"ep0next\000"
 23781      65787400 
 23782              	.LASF617:
 23783 20e0 73746D33 		.ascii	"stm32_otg_host_chn_t\000"
 23783      325F6F74 
 23783      675F686F 
 23783      73745F63 
 23783      686E5F74 
 23784              	.LASF306:
ARM GAS  /var/folders/d2/nstgp4h54kz7g1l847x_b8wc0000gn/T//ccB20FE7.s 			page 451


 23785 20f5 41465248 		.ascii	"AFRH\000"
 23785      00
 23786              	.LASF769:
 23787 20fa 62756666 		.ascii	"buffer\000"
 23787      657200
 23788              	.LASF305:
 23789 2101 4146524C 		.ascii	"AFRL\000"
 23789      00
 23790              	.LASF884:
 23791 2106 5F696D70 		.ascii	"_impure_ptr\000"
 23791      7572655F 
 23791      70747200 
 23792              	.LASF249:
 23793 2112 63665F6F 		.ascii	"cf_off_preempt\000"
 23793      66665F70 
 23793      7265656D 
 23793      707400
 23794              	.LASF1012:
 23795 2121 706C6179 		.ascii	"playMelody\000"
 23795      4D656C6F 
 23795      647900
 23796              	.LASF881:
 23797 212c 5F756E75 		.ascii	"_unused\000"
 23797      73656400 
 23798              	.LASF386:
 23799 2134 4441435F 		.ascii	"DAC_COMPLETE\000"
 23799      434F4D50 
 23799      4C455445 
 23799      00
 23800              	.LASF626:
 23801 2141 444F4550 		.ascii	"DOEPCTL\000"
 23801      43544C00 
 23802              	.LASF612:
 23803 2149 4843494E 		.ascii	"HCINTMSK\000"
 23803      544D534B 
 23803      00
 23804              	.LASF822:
 23805 2152 5F756275 		.ascii	"_ubuf\000"
 23805      6600
 23806              	.LASF974:
 23807 2158 67657459 		.ascii	"getYAxisGyro\000"
 23807      41786973 
 23807      4779726F 
 23807      00
 23808              	.LASF341:
 23809 2165 636F6E66 		.ascii	"config\000"
 23809      696700
 23810              	.LASF968:
 23811 216c 74656D70 		.ascii	"tempf\000"
 23811      6600
 23812              	.LASF449:
 23813 2172 47505444 		.ascii	"GPTD11\000"
 23813      313100
 23814              	.LASF969:
 23815 2179 74656D70 		.ascii	"tempi\000"
 23815      6900
 23816              	.LASF867:
ARM GAS  /var/folders/d2/nstgp4h54kz7g1l847x_b8wc0000gn/T//ccB20FE7.s 			page 452


 23817 217f 5F6D626C 		.ascii	"_mblen_state\000"
 23817      656E5F73 
 23817      74617465 
 23817      00
 23818              	.LASF850:
 23819 218c 5F5F7367 		.ascii	"__sglue\000"
 23819      6C756500 
 23820              	.LASF883:
 23821 2194 5F5F6C6F 		.ascii	"__locale_t\000"
 23821      63616C65 
 23821      5F7400
 23822              	.LASF287:
 23823 219f 424C4B5F 		.ascii	"BLK_CONNECTING\000"
 23823      434F4E4E 
 23823      45435449 
 23823      4E4700
 23824              	.LASF840:
 23825 21ae 5F5F636C 		.ascii	"__cleanup\000"
 23825      65616E75 
 23825      7000
 23826              	.LASF1015:
 23827 21b8 655F7365 		.ascii	"e_send_uart2_char\000"
 23827      6E645F75 
 23827      61727432 
 23827      5F636861 
 23827      7200
 23828              	.LASF382:
 23829 21ca 4441435F 		.ascii	"DAC_UNINIT\000"
 23829      554E494E 
 23829      495400
 23830              	.LASF335:
 23831 21d5 6164635F 		.ascii	"adc_channels_num_t\000"
 23831      6368616E 
 23831      6E656C73 
 23831      5F6E756D 
 23831      5F7400
 23832              	.LASF74:
 23833 21e8 76746675 		.ascii	"vtfunc_t\000"
 23833      6E635F74 
 23833      00
 23834              	.LASF122:
 23835 21f1 43414E5F 		.ascii	"CAN_FIFOMailBox_TypeDef\000"
 23835      4649464F 
 23835      4D61696C 
 23835      426F785F 
 23835      54797065 
 23836              	.LASF152:
 23837 2209 4441435F 		.ascii	"DAC_TypeDef\000"
 23837      54797065 
 23837      44656600 
 23838              	.LASF219:
 23839 2215 77746F62 		.ascii	"wtobjp\000"
 23839      6A7000
 23840              	.LASF1038:
 23841 221c 7364696F 		.ascii	"sdio_disconnect\000"
 23841      5F646973 
 23841      636F6E6E 
ARM GAS  /var/folders/d2/nstgp4h54kz7g1l847x_b8wc0000gn/T//ccB20FE7.s 			page 453


 23841      65637400 
 23842              	.LASF754:
 23843 222c 5F66706F 		.ascii	"_fpos_t\000"
 23843      735F7400 
 23844              	.LASF402:
 23845 2234 4441435F 		.ascii	"DAC_DHRM_12BIT_RIGHT\000"
 23845      4448524D 
 23845      5F313242 
 23845      49545F52 
 23845      49474854 
 23846              	.LASF815:
 23847 2249 5F66696C 		.ascii	"_file\000"
 23847      6500
 23848              	.LASF953:
 23849 224f 63616D5F 		.ascii	"cam_heigth\000"
 23849      68656967 
 23849      746800
 23850              	.LASF935:
 23851 225a 54797065 		.ascii	"TypeAccSpheric\000"
 23851      41636353 
 23851      70686572 
 23851      696300
 23852              	.LASF57:
 23853 2269 705F7265 		.ascii	"p_realprio\000"
 23853      616C7072 
 23853      696F00
 23854              	.LASF535:
 23855 2274 63617061 		.ascii	"capacity\000"
 23855      63697479 
 23855      00
 23856              	.LASF726:
 23857 227d 53657269 		.ascii	"SerialUSBConfig\000"
 23857      616C5553 
 23857      42436F6E 
 23857      66696700 
 23858              	.LASF272:
 23859 228d 715F6E6F 		.ascii	"q_notify\000"
 23859      74696679 
 23859      00
 23860              	.LASF222:
 23861 2296 77746D74 		.ascii	"wtmtxp\000"
 23861      787000
 23862              	.LASF813:
 23863 229d 5F5F7346 		.ascii	"__sFILE\000"
 23863      494C4500 
 23864              	.LASF978:
 23865 22a5 655F7365 		.ascii	"e_send_uart1_char\000"
 23865      6E645F75 
 23865      61727431 
 23865      5F636861 
 23865      7200
 23866              	.LASF809:
 23867 22b7 5F666E73 		.ascii	"_fns\000"
 23867      00
 23868              	.LASF747:
 23869 22bc 6672616D 		.ascii	"frame_end_cb\000"
 23869      655F656E 
ARM GAS  /var/folders/d2/nstgp4h54kz7g1l847x_b8wc0000gn/T//ccB20FE7.s 			page 454


 23869      645F6362 
 23869      00
 23870              	.LASF699:
 23871 22c9 5553424F 		.ascii	"USBOutEndpointState\000"
 23871      7574456E 
 23871      64706F69 
 23871      6E745374 
 23871      61746500 
 23872              	.LASF1052:
 23873 22dd 5F5F6275 		.ascii	"__builtin_memcpy\000"
 23873      696C7469 
 23873      6E5F6D65 
 23873      6D637079 
 23873      00
 23874              	.LASF656:
 23875 22ee 72657376 		.ascii	"resvd41C\000"
 23875      64343143 
 23875      00
 23876              	.LASF895:
 23877 22f7 6368616E 		.ascii	"changed\000"
 23877      67656400 
 23878              	.LASF760:
 23879 22ff 5F6D6273 		.ascii	"_mbstate_t\000"
 23879      74617465 
 23879      5F7400
 23880              	.LASF878:
 23881 230a 5F685F65 		.ascii	"_h_errno\000"
 23881      72726E6F 
 23881      00
 23882              	.LASF911:
 23883 2313 554E4445 		.ascii	"UNDERWORLD\000"
 23883      52574F52 
 23883      4C4400
 23884              	.LASF119:
 23885 231e 52445452 		.ascii	"RDTR\000"
 23885      00
 23886              	.LASF295:
 23887 2323 626C6B5F 		.ascii	"blk_num\000"
 23887      6E756D00 
 23888              	.LASF594:
 23889 232b 5553425F 		.ascii	"USB_EVENT_RESET\000"
 23889      4556454E 
 23889      545F5245 
 23889      53455400 
 23890              	.LASF67:
 23891 233b 63685F72 		.ascii	"ch_ready_list\000"
 23891      65616479 
 23891      5F6C6973 
 23891      7400
 23892              	.LASF778:
 23893 2349 67726F75 		.ascii	"group\000"
 23893      7000
 23894              	.LASF302:
 23895 234f 50555044 		.ascii	"PUPDR\000"
 23895      5200
 23896              	.LASF12:
 23897 2355 5F5F696E 		.ascii	"__int32_t\000"
ARM GAS  /var/folders/d2/nstgp4h54kz7g1l847x_b8wc0000gn/T//ccB20FE7.s 			page 455


 23897      7433325F 
 23897      7400
 23898              	.LASF925:
 23899 235f 4D4C5F46 		.ascii	"ML_FORCE_CHANGE\000"
 23899      4F524345 
 23899      5F434841 
 23899      4E474500 
 23900              	.LASF14:
 23901 236f 5F5F7569 		.ascii	"__uint32_t\000"
 23901      6E743332 
 23901      5F7400
 23902              	.LASF914:
 23903 237a 4D415249 		.ascii	"MARIO_FLAG\000"
 23903      4F5F464C 
 23903      414700
 23904              	.LASF86:
 23905 2385 63685F73 		.ascii	"ch_system_debug\000"
 23905      79737465 
 23905      6D5F6465 
 23905      62756700 
 23906              	.LASF667:
 23907 2395 4441494E 		.ascii	"DAINTMSK\000"
 23907      544D534B 
 23907      00
 23908              	.LASF737:
 23909 239e 44434D49 		.ascii	"DCMI_ACTIVE_STREAM\000"
 23909      5F414354 
 23909      4956455F 
 23909      53545245 
 23909      414D00
 23910              	.LASF422:
 23911 23b1 45585443 		.ascii	"EXTConfig\000"
 23911      6F6E6669 
 23911      6700
 23912              	.LASF888:
 23913 23bb 70617261 		.ascii	"parameter_namespace_s\000"
 23913      6D657465 
 23913      725F6E61 
 23913      6D657370 
 23913      6163655F 
 23914              	.LASF267:
 23915 23d1 715F636F 		.ascii	"q_counter\000"
 23915      756E7465 
 23915      7200
 23916              	.LASF586:
 23917 23db 5553425F 		.ascii	"USB_EP0_WAITING_SETUP\000"
 23917      4550305F 
 23917      57414954 
 23917      494E475F 
 23917      53455455 
 23918              	.LASF806:
 23919 23f1 5F69735F 		.ascii	"_is_cxa\000"
 23919      63786100 
 23920              	.LASF290:
 23921 23f9 424C4B5F 		.ascii	"BLK_READING\000"
 23921      52454144 
 23921      494E4700 
ARM GAS  /var/folders/d2/nstgp4h54kz7g1l847x_b8wc0000gn/T//ccB20FE7.s 			page 456


 23922              	.LASF312:
 23923 2405 6166726C 		.ascii	"afrl\000"
 23923      00
 23924              	.LASF689:
 23925 240a 71756575 		.ascii	"queue\000"
 23925      6500
 23926              	.LASF569:
 23927 2410 65703065 		.ascii	"ep0endcb\000"
 23927      6E646362 
 23927      00
 23928              	.LASF280:
 23929 2419 73656C66 		.ascii	"selfindex\000"
 23929      696E6465 
 23929      7800
 23930              	.LASF253:
 23931 2423 6D757465 		.ascii	"mutex_t\000"
 23931      785F7400 
 23932              	.LASF843:
 23933 242b 5F703573 		.ascii	"_p5s\000"
 23933      00
 23934              	.LASF55:
 23935 2430 705F6570 		.ascii	"p_epending\000"
 23935      656E6469 
 23935      6E6700
 23936              	.LASF1039:
 23937 243b 67657441 		.ascii	"getAllAxesGyro\000"
 23937      6C6C4178 
 23937      65734779 
 23937      726F00
 23938              	.LASF299:
 23939 244a 4D4F4445 		.ascii	"MODER\000"
 23939      5200
 23940              	.LASF483:
 23941 2450 4932535F 		.ascii	"I2S_COMPLETE\000"
 23941      434F4D50 
 23941      4C455445 
 23941      00
 23942              	.LASF985:
 23943 245d 655F706F 		.ascii	"e_poxxxx_init_cam\000"
 23943      78787878 
 23943      5F696E69 
 23943      745F6361 
 23943      6D00
 23944              	.LASF775:
 23945 246f 77617463 		.ascii	"watchers\000"
 23945      68657273 
 23945      00
 23946              	.LASF126:
 23947 2478 52455345 		.ascii	"RESERVED0\000"
 23947      52564544 
 23947      3000
 23948              	.LASF129:
 23949 2482 52455345 		.ascii	"RESERVED1\000"
 23949      52564544 
 23949      3100
 23950              	.LASF131:
 23951 248c 52455345 		.ascii	"RESERVED2\000"
ARM GAS  /var/folders/d2/nstgp4h54kz7g1l847x_b8wc0000gn/T//ccB20FE7.s 			page 457


 23951      52564544 
 23951      3200
 23952              	.LASF133:
 23953 2496 52455345 		.ascii	"RESERVED3\000"
 23953      52564544 
 23953      3300
 23954              	.LASF135:
 23955 24a0 52455345 		.ascii	"RESERVED4\000"
 23955      52564544 
 23955      3400
 23956              	.LASF137:
 23957 24aa 52455345 		.ascii	"RESERVED5\000"
 23957      52564544 
 23957      3500
 23958              	.LASF710:
 23959 24b4 55534245 		.ascii	"USBEndpointConfig\000"
 23959      6E64706F 
 23959      696E7443 
 23959      6F6E6669 
 23959      6700
 23960              	.LASF141:
 23961 24c6 44485231 		.ascii	"DHR12R1\000"
 23961      32523100 
 23962              	.LASF144:
 23963 24ce 44485231 		.ascii	"DHR12R2\000"
 23963      32523200 
 23964              	.LASF418:
 23965 24d6 65787463 		.ascii	"extcallback_t\000"
 23965      616C6C62 
 23965      61636B5F 
 23965      7400
 23966              	.LASF374:
 23967 24e4 72787175 		.ascii	"rxqueue\000"
 23967      65756500 
 23968              	.LASF196:
 23969 24ec 73655F74 		.ascii	"se_time\000"
 23969      696D6500 
 23970              	.LASF658:
 23971 24f4 72657376 		.ascii	"resvd444\000"
 23971      64343434 
 23971      00
 23972              	.LASF326:
 23973 24fd 70616C5F 		.ascii	"pal_default_config\000"
 23973      64656661 
 23973      756C745F 
 23973      636F6E66 
 23973      696700
 23974              	.LASF885:
 23975 2510 5F676C6F 		.ascii	"_global_impure_ptr\000"
 23975      62616C5F 
 23975      696D7075 
 23975      72655F70 
 23975      747200
 23976              	.LASF344:
 23977 2523 67727070 		.ascii	"grpp\000"
 23977      00
 23978              	.LASF147:
ARM GAS  /var/folders/d2/nstgp4h54kz7g1l847x_b8wc0000gn/T//ccB20FE7.s 			page 458


 23979 2528 44485231 		.ascii	"DHR12RD\000"
 23979      32524400 
 23980              	.LASF257:
 23981 2530 656C5F6C 		.ascii	"el_listener\000"
 23981      69737465 
 23981      6E657200 
 23982              	.LASF688:
 23983 253c 6C696E65 		.ascii	"linear\000"
 23983      617200
 23984              	.LASF736:
 23985 2543 44434D49 		.ascii	"DCMI_READY\000"
 23985      5F524541 
 23985      445900
 23986              	.LASF1007:
 23987 254e 63685468 		.ascii	"chThdSleep\000"
 23987      64536C65 
 23987      657000
 23988              	.LASF442:
 23989 2559 73746D33 		.ascii	"stm32_tim_t\000"
 23989      325F7469 
 23989      6D5F7400 
 23990              	.LASF69:
 23991 2565 725F7072 		.ascii	"r_prio\000"
 23991      696F00
 23992              	.LASF154:
 23993 256c 4D495352 		.ascii	"MISR\000"
 23993      00
 23994              	.LASF98:
 23995 2571 49544D5F 		.ascii	"ITM_RxBuffer\000"
 23995      52784275 
 23995      66666572 
 23995      00
 23996              	.LASF1024:
 23997 257e 655F6765 		.ascii	"e_getchar_uart2\000"
 23997      74636861 
 23997      725F7561 
 23997      72743200 
 23998              	.LASF296:
 23999 258e 426C6F63 		.ascii	"BlockDeviceInfo\000"
 23999      6B446576 
 23999      69636549 
 23999      6E666F00 
 24000              	.LASF17:
 24001 259e 6C6F6E67 		.ascii	"long long unsigned int\000"
 24001      206C6F6E 
 24001      6720756E 
 24001      7369676E 
 24001      65642069 
 24002              	.LASF183:
 24003 25b5 5344494F 		.ascii	"SDIO_TypeDef\000"
 24003      5F547970 
 24003      65446566 
 24003      00
 24004              	.LASF205:
 24005 25c2 6F666673 		.ascii	"offset\000"
 24005      657400
 24006              	.LASF781:
ARM GAS  /var/folders/d2/nstgp4h54kz7g1l847x_b8wc0000gn/T//ccB20FE7.s 			page 459


 24007 25c9 746F7069 		.ascii	"topics\000"
 24007      637300
 24008              	.LASF160:
 24009 25d0 4E445452 		.ascii	"NDTR\000"
 24009      00
 24010              	.LASF262:
 24011 25d5 65735F6E 		.ascii	"es_next\000"
 24011      65787400 
 24012              	.LASF864:
 24013 25dd 5F67616D 		.ascii	"_gamma_signgam\000"
 24013      6D615F73 
 24013      69676E67 
 24013      616D00
 24014              	.LASF624:
 24015 25ec 72657376 		.ascii	"resvd1C\000"
 24015      64314300 
 24016              	.LASF97:
 24017 25f4 69646C65 		.ascii	"idle_thread_wa\000"
 24017      5F746872 
 24017      6561645F 
 24017      776100
 24018              	.LASF620:
 24019 2603 44494550 		.ascii	"DIEPINT\000"
 24019      494E5400 
 24020              	.LASF189:
 24021 260b 5350495F 		.ascii	"SPI_TypeDef\000"
 24021      54797065 
 24021      44656600 
 24022              	.LASF80:
 24023 2617 76745F66 		.ascii	"vt_func\000"
 24023      756E6300 
 24024              	.LASF433:
 24025 261f 534D4352 		.ascii	"SMCR\000"
 24025      00
 24026              	.LASF665:
 24027 2624 444F4550 		.ascii	"DOEPMSK\000"
 24027      4D534B00 
 24028              	.LASF76:
 24029 262c 63685F76 		.ascii	"ch_virtual_timer\000"
 24029      69727475 
 24029      616C5F74 
 24029      696D6572 
 24029      00
 24030              	.LASF48:
 24031 263d 705F666C 		.ascii	"p_flags\000"
 24031      61677300 
 24032              	.LASF1014:
 24033 2645 67657442 		.ascii	"getBatteryValuePercentage\000"
 24033      61747465 
 24033      72795661 
 24033      6C756550 
 24033      65726365 
 24034              	.LASF223:
 24035 265f 65776D61 		.ascii	"ewmask\000"
 24035      736B00
 24036              	.LASF259:
 24037 2666 656C5F66 		.ascii	"el_flags\000"
ARM GAS  /var/folders/d2/nstgp4h54kz7g1l847x_b8wc0000gn/T//ccB20FE7.s 			page 460


 24037      6C616773 
 24037      00
 24038              	.LASF826:
 24039 266f 5F646174 		.ascii	"_data\000"
 24039      6100
 24040              	.LASF261:
 24041 2675 6576656E 		.ascii	"event_source\000"
 24041      745F736F 
 24041      75726365 
 24041      00
 24042              	.LASF56:
 24043 2682 705F6D74 		.ascii	"p_mtxlist\000"
 24043      786C6973 
 24043      7400
 24044              	.LASF381:
 24045 268c 43414E44 		.ascii	"CAND1\000"
 24045      3100
 24046              	.LASF132:
 24047 2692 46533152 		.ascii	"FS1R\000"
 24047      00
 24048              	.LASF28:
 24049 2697 74737461 		.ascii	"tstate_t\000"
 24049      74655F74 
 24049      00
 24050              	.LASF555:
 24051 26a0 53504944 		.ascii	"SPIDriver\000"
 24051      72697665 
 24051      7200
 24052              	.LASF666:
 24053 26aa 4441494E 		.ascii	"DAINT\000"
 24053      5400
 24054              	.LASF559:
 24055 26b0 53504943 		.ascii	"SPIConfig\000"
 24055      6F6E6669 
 24055      6700
 24056              	.LASF837:
 24057 26ba 5F756E73 		.ascii	"_unspecified_locale_info\000"
 24057      70656369 
 24057      66696564 
 24057      5F6C6F63 
 24057      616C655F 
 24058              	.LASF311:
 24059 26d3 70757064 		.ascii	"pupdr\000"
 24059      7200
 24060              	.LASF401:
 24061 26d9 64616365 		.ascii	"dacerrorcallback_t\000"
 24061      72726F72 
 24061      63616C6C 
 24061      6261636B 
 24061      5F7400
 24062              	.LASF744:
 24063 26ec 64636D69 		.ascii	"dcmi\000"
 24063      00
 24064              	.LASF562:
 24065 26f1 7472616E 		.ascii	"transmitting\000"
 24065      736D6974 
 24065      74696E67 
ARM GAS  /var/folders/d2/nstgp4h54kz7g1l847x_b8wc0000gn/T//ccB20FE7.s 			page 461


 24065      00
 24066              	.LASF1029:
 24067 26fe 7365745F 		.ascii	"set_rgb_led\000"
 24067      7267625F 
 24067      6C656400 
 24068              	.LASF421:
 24069 270a 6368616E 		.ascii	"channels\000"
 24069      6E656C73 
 24069      00
 24070              	.LASF170:
 24071 2713 434C4B43 		.ascii	"CLKCR\000"
 24071      5200
 24072              	.LASF534:
 24073 2719 53444344 		.ascii	"SDCDriver\000"
 24073      72697665 
 24073      7200
 24074              	.LASF45:
 24075 2723 705F6E61 		.ascii	"p_name\000"
 24075      6D6500
 24076              	.LASF839:
 24077 272a 5F5F7364 		.ascii	"__sdidinit\000"
 24077      6964696E 
 24077      697400
 24078              	.LASF516:
 24079 2735 53657269 		.ascii	"SerialDriver\000"
 24079      616C4472 
 24079      69766572 
 24079      00
 24080              	.LASF110:
 24081 2742 4A445231 		.ascii	"JDR1\000"
 24081      00
 24082              	.LASF111:
 24083 2747 4A445232 		.ascii	"JDR2\000"
 24083      00
 24084              	.LASF112:
 24085 274c 4A445233 		.ascii	"JDR3\000"
 24085      00
 24086              	.LASF113:
 24087 2751 4A445234 		.ascii	"JDR4\000"
 24087      00
 24088              	.LASF628:
 24089 2756 444F4550 		.ascii	"DOEPTSIZ\000"
 24089      5453495A 
 24089      00
 24090              	.LASF329:
 24091 275f 4144435F 		.ascii	"ADC_READY\000"
 24091      52454144 
 24091      5900
 24092              	.LASF773:
 24093 2769 6E616D65 		.ascii	"name\000"
 24093      00
 24094              	.LASF761:
 24095 276e 5F666C6F 		.ascii	"_flock_t\000"
 24095      636B5F74 
 24095      00
 24096              	.LASF82:
 24097 2777 76697274 		.ascii	"virtual_timers_list_t\000"
ARM GAS  /var/folders/d2/nstgp4h54kz7g1l847x_b8wc0000gn/T//ccB20FE7.s 			page 462


 24097      75616C5F 
 24097      74696D65 
 24097      72735F6C 
 24097      6973745F 
 24098              	.LASF652:
 24099 278d 72657376 		.ascii	"resvd40C\000"
 24099      64343043 
 24099      00
 24100              	.LASF351:
 24101 2796 63697263 		.ascii	"circular\000"
 24101      756C6172 
 24101      00
 24102              	.LASF484:
 24103 279f 69327373 		.ascii	"i2sstate_t\000"
 24103      74617465 
 24103      5F7400
 24104              	.LASF308:
 24105 27aa 6D6F6465 		.ascii	"moder\000"
 24105      7200
 24106              	.LASF225:
 24107 27b0 735F7175 		.ascii	"s_queue\000"
 24107      65756500 
 24108              	.LASF214:
 24109 27b8 6D5F6372 		.ascii	"m_crit_thd\000"
 24109      69745F74 
 24109      686400
 24110              	.LASF383:
 24111 27c3 4441435F 		.ascii	"DAC_STOP\000"
 24111      53544F50 
 24111      00
 24112              	.LASF659:
 24113 27cc 72657376 		.ascii	"resvd700\000"
 24113      64373030 
 24113      00
 24114              	.LASF187:
 24115 27d5 49325343 		.ascii	"I2SCFGR\000"
 24115      46475200 
 24116              	.LASF722:
 24117 27dd 75736270 		.ascii	"usbp\000"
 24117      00
 24118              	.LASF764:
 24119 27e2 6F707469 		.ascii	"optind\000"
 24119      6E6400
 24120              	.LASF233:
 24121 27e9 63685F69 		.ascii	"ch_identifier\000"
 24121      64656E74 
 24121      69666965 
 24121      7200
 24122              	.LASF526:
 24123 27f7 77726974 		.ascii	"writet\000"
 24123      657400
 24124              	.LASF921:
 24125 27fe 4E425F53 		.ascii	"NB_SONGS\000"
 24125      4F4E4753 
 24125      00
 24126              	.LASF1:
 24127 2807 6C6F6E67 		.ascii	"long long int\000"
ARM GAS  /var/folders/d2/nstgp4h54kz7g1l847x_b8wc0000gn/T//ccB20FE7.s 			page 463


 24127      206C6F6E 
 24127      6720696E 
 24127      7400
 24128              	.LASF980:
 24129 2815 67657454 		.ascii	"getTemperature\000"
 24129      656D7065 
 24129      72617475 
 24129      726500
 24130              	.LASF646:
 24131 2824 48505458 		.ascii	"HPTXFSIZ\000"
 24131      4653495A 
 24131      00
 24132              	.LASF748:
 24133 282d 7472616E 		.ascii	"transfer_complete_cb\000"
 24133      73666572 
 24133      5F636F6D 
 24133      706C6574 
 24133      655F6362 
 24134              	.LASF240:
 24135 2842 63665F6F 		.ascii	"cf_off_prio\000"
 24135      66665F70 
 24135      72696F00 
 24136              	.LASF829:
 24137 284e 5F666C61 		.ascii	"_flags2\000"
 24137      67733200 
 24138              	.LASF996:
 24139 2856 655F6765 		.ascii	"e_get_micro_volume\000"
 24139      745F6D69 
 24139      63726F5F 
 24139      766F6C75 
 24139      6D6500
 24140              	.LASF879:
 24141 2869 5F6E6578 		.ascii	"_nextf\000"
 24141      746600
 24142              	.LASF211:
 24143 2870 74696D65 		.ascii	"time_measurement_t\000"
 24143      5F6D6561 
 24143      73757265 
 24143      6D656E74 
 24143      5F7400
 24144              	.LASF547:
 24145 2883 6765745F 		.ascii	"get_info\000"
 24145      696E666F 
 24145      00
 24146              	.LASF338:
 24147 288c 61646365 		.ascii	"adcerror_t\000"
 24147      72726F72 
 24147      5F7400
 24148              	.LASF712:
 24149 2897 6765745F 		.ascii	"get_descriptor_cb\000"
 24149      64657363 
 24149      72697074 
 24149      6F725F63 
 24149      6200
 24150              	.LASF838:
 24151 28a9 5F6C6F63 		.ascii	"_locale\000"
 24151      616C6500 
ARM GAS  /var/folders/d2/nstgp4h54kz7g1l847x_b8wc0000gn/T//ccB20FE7.s 			page 464


 24152              	.LASF34:
 24153 28b1 6576656E 		.ascii	"eventflags_t\000"
 24153      74666C61 
 24153      67735F74 
 24153      00
 24154              	.LASF551:
 24155 28be 5350495F 		.ascii	"SPI_READY\000"
 24155      52454144 
 24155      5900
 24156              	.LASF128:
 24157 28c8 73464946 		.ascii	"sFIFOMailBox\000"
 24157      4F4D6169 
 24157      6C426F78 
 24157      00
 24158              	.LASF539:
 24159 28d5 6275735F 		.ascii	"bus_width\000"
 24159      77696474 
 24159      6800
 24160              	.LASF749:
 24161 28df 68616C66 		.ascii	"half_transfer_complete_cb\000"
 24161      5F747261 
 24161      6E736665 
 24161      725F636F 
 24161      6D706C65 
 24162              	.LASF943:
 24163 28f9 4C45445F 		.ascii	"LED_action\000"
 24163      61637469 
 24163      6F6E00
 24164              	.LASF149:
 24165 2904 44485238 		.ascii	"DHR8RD\000"
 24165      524400
 24166              	.LASF661:
 24167 290b 4443544C 		.ascii	"DCTL\000"
 24167      00
 24168              	.LASF541:
 24169 2910 53444344 		.ascii	"SDCDriverVMT\000"
 24169      72697665 
 24169      72564D54 
 24169      00
 24170              	.LASF687:
 24171 291d 74786275 		.ascii	"txbuf\000"
 24171      6600
 24172              	.LASF680:
 24173 2923 50434743 		.ascii	"PCGCCTL\000"
 24173      43544C00 
 24174              	.LASF598:
 24175 292b 5553425F 		.ascii	"USB_EVENT_WAKEUP\000"
 24175      4556454E 
 24175      545F5741 
 24175      4B455550 
 24175      00
 24176              	.LASF866:
 24177 293c 5F723438 		.ascii	"_r48\000"
 24177      00
 24178              	.LASF948:
 24179 2941 6779726F 		.ascii	"gyrox\000"
 24179      7800
ARM GAS  /var/folders/d2/nstgp4h54kz7g1l847x_b8wc0000gn/T//ccB20FE7.s 			page 465


 24180              	.LASF950:
 24181 2947 6779726F 		.ascii	"gyroz\000"
 24181      7A00
 24182              	.LASF44:
 24183 294d 705F6F6C 		.ascii	"p_older\000"
 24183      64657200 
 24184              	.LASF292:
 24185 2955 424C4B5F 		.ascii	"BLK_SYNCING\000"
 24185      53594E43 
 24185      494E4700 
 24186              	.LASF323:
 24187 2961 50494461 		.ascii	"PIData\000"
 24187      746100
 24188              	.LASF709:
 24189 2968 73657475 		.ascii	"setup_buf\000"
 24189      705F6275 
 24189      6600
 24190              	.LASF448:
 24191 2972 47505444 		.ascii	"GPTD6\000"
 24191      3600
 24192              	.LASF731:
 24193 2978 44434D49 		.ascii	"DCMI_ERR_DMAFAILURE\000"
 24193      5F455252 
 24193      5F444D41 
 24193      4641494C 
 24193      55524500 
 24194              	.LASF354:
 24195 298c 6572726F 		.ascii	"error_cb\000"
 24195      725F6362 
 24195      00
 24196              	.LASF288:
 24197 2995 424C4B5F 		.ascii	"BLK_DISCONNECTING\000"
 24197      44495343 
 24197      4F4E4E45 
 24197      4354494E 
 24197      4700
 24198              	.LASF557:
 24199 29a7 7373706F 		.ascii	"ssport\000"
 24199      727400
 24200              	.LASF900:
 24201 29ae 6275665F 		.ascii	"buf_len\000"
 24201      6C656E00 
 24202              	.LASF60:
 24203 29b6 74687265 		.ascii	"thread_reference_t\000"
 24203      61645F72 
 24203      65666572 
 24203      656E6365 
 24203      5F7400
 24204              	.LASF733:
 24205 29c9 64636D69 		.ascii	"dcmierror_t\000"
 24205      6572726F 
 24205      725F7400 
 24206              	.LASF417:
 24207 29d5 65787063 		.ascii	"expchannel_t\000"
 24207      68616E6E 
 24207      656C5F74 
 24207      00
ARM GAS  /var/folders/d2/nstgp4h54kz7g1l847x_b8wc0000gn/T//ccB20FE7.s 			page 466


 24208              	.LASF563:
 24209 29e2 72656365 		.ascii	"receiving\000"
 24209      6976696E 
 24209      6700
 24210              	.LASF892:
 24211 29ec 70617261 		.ascii	"parameter_list\000"
 24211      6D657465 
 24211      725F6C69 
 24211      737400
 24212              	.LASF852:
 24213 29fb 5F5F4649 		.ascii	"__FILE\000"
 24213      4C4500
 24214              	.LASF444:
 24215 2a02 66726571 		.ascii	"frequency\000"
 24215      75656E63 
 24215      7900
 24216              	.LASF206:
 24217 2a0c 746D5F63 		.ascii	"tm_calibration_t\000"
 24217      616C6962 
 24217      72617469 
 24217      6F6E5F74 
 24217      00
 24218              	.LASF4:
 24219 2a1d 5F5F696E 		.ascii	"__int8_t\000"
 24219      74385F74 
 24219      00
 24220              	.LASF706:
 24221 2a26 696E5F73 		.ascii	"in_state\000"
 24221      74617465 
 24221      00
 24222              	.LASF190:
 24223 2a2f 47545052 		.ascii	"GTPR\000"
 24223      00
 24224              	.LASF971:
 24225 2a34 48577665 		.ascii	"HWversion\000"
 24225      7273696F 
 24225      6E00
 24226              	.LASF1043:
 24227 2a3e 63616D5F 		.ascii	"cam_get_last_image_ptr\000"
 24227      6765745F 
 24227      6C617374 
 24227      5F696D61 
 24227      67655F70 
 24228              	.LASF234:
 24229 2a55 63685F7A 		.ascii	"ch_zero\000"
 24229      65726F00 
 24230              	.LASF464:
 24231 2a5d 46415354 		.ascii	"FAST_DUTY_CYCLE_2\000"
 24231      5F445554 
 24231      595F4359 
 24231      434C455F 
 24231      3200
 24232              	.LASF178:
 24233 2a6f 44435452 		.ascii	"DCTRL\000"
 24233      4C00
 24234              	.LASF239:
 24235 2a75 63685F74 		.ascii	"ch_threadsize\000"
ARM GAS  /var/folders/d2/nstgp4h54kz7g1l847x_b8wc0000gn/T//ccB20FE7.s 			page 467


 24235      68726561 
 24235      6473697A 
 24235      6500
 24236              	.LASF167:
 24237 2a83 464C5452 		.ascii	"FLTR\000"
 24237      00
 24238              	.LASF435:
 24239 2a88 43434D52 		.ascii	"CCMR1\000"
 24239      3100
 24240              	.LASF436:
 24241 2a8e 43434D52 		.ascii	"CCMR2\000"
 24241      3200
 24242              	.LASF440:
 24243 2a94 43434D52 		.ascii	"CCMR3\000"
 24243      3300
 24244              	.LASF0:
 24245 2a9a 756E7369 		.ascii	"unsigned int\000"
 24245      676E6564 
 24245      20696E74 
 24245      00
 24246              	.LASF358:
 24247 2aa7 73717232 		.ascii	"sqr2\000"
 24247      00
 24248              	.LASF359:
 24249 2aac 73717233 		.ascii	"sqr3\000"
 24249      00
 24250              	.LASF743:
 24251 2ab1 44434D49 		.ascii	"DCMIDriver\000"
 24251      44726976 
 24251      657200
 24252              	.LASF650:
 24253 2abc 48464952 		.ascii	"HFIR\000"
 24253      00
 24254              	.LASF750:
 24255 2ac1 44434D49 		.ascii	"DCMIConfig\000"
 24255      436F6E66 
 24255      696700
 24256              	.LASF580:
 24257 2acc 5553425F 		.ascii	"USB_UNINIT\000"
 24257      554E494E 
 24257      495400
 24258              	.LASF277:
 24259 2ad7 73747265 		.ascii	"stream\000"
 24259      616D00
 24260              	.LASF361:
 24261 2ade 64756D6D 		.ascii	"dummy\000"
 24261      7900
 24262              	.LASF917:
 24263 2ae4 53494D50 		.ascii	"SIMPSON\000"
 24263      534F4E00 
 24264              	.LASF462:
 24265 2aec 6932636F 		.ascii	"i2copmode_t\000"
 24265      706D6F64 
 24265      655F7400 
 24266              	.LASF156:
 24267 2af8 45535552 		.ascii	"ESUR\000"
 24267      00
ARM GAS  /var/folders/d2/nstgp4h54kz7g1l847x_b8wc0000gn/T//ccB20FE7.s 			page 468


 24268              	.LASF255:
 24269 2afd 6576656E 		.ascii	"event_listener\000"
 24269      745F6C69 
 24269      7374656E 
 24269      657200
 24270              	.LASF858:
 24271 2b0c 5F6D756C 		.ascii	"_mult\000"
 24271      7400
 24272              	.LASF9:
 24273 2b12 73686F72 		.ascii	"short int\000"
 24273      7420696E 
 24273      7400
 24274              	.LASF604:
 24275 2b1c 75736263 		.ascii	"usbcallback_t\000"
 24275      616C6C62 
 24275      61636B5F 
 24275      7400
 24276              	.LASF818:
 24277 2b2a 5F726561 		.ascii	"_read\000"
 24277      6400
 24278              	.LASF633:
 24279 2b30 47555342 		.ascii	"GUSBCFG\000"
 24279      43464700 
 24280              	.LASF191:
 24281 2b38 55534152 		.ascii	"USART_TypeDef\000"
 24281      545F5479 
 24281      70654465 
 24281      6600
 24282              	.LASF276:
 24283 2b46 6F757470 		.ascii	"output_queue_t\000"
 24283      75745F71 
 24283      75657565 
 24283      5F7400
 24284              	.LASF856:
 24285 2b55 5F72616E 		.ascii	"_rand48\000"
 24285      64343800 
 24286              	.LASF682:
 24287 2b5d 73746D33 		.ascii	"stm32_otg_t\000"
 24287      325F6F74 
 24287      675F7400 
 24288              	.LASF801:
 24289 2b69 5F5F746D 		.ascii	"__tm_isdst\000"
 24289      5F697364 
 24289      737400
 24290              	.LASF485:
 24291 2b74 49325344 		.ascii	"I2SDriver\000"
 24291      72697665 
 24291      7200
 24292              	.LASF469:
 24293 2b7e 64757479 		.ascii	"duty_cycle\000"
 24293      5F637963 
 24293      6C6500
 24294              	.LASF492:
 24295 2b89 49325343 		.ascii	"I2SConfig\000"
 24295      6F6E6669 
 24295      6700
 24296              	.LASF601:
ARM GAS  /var/folders/d2/nstgp4h54kz7g1l847x_b8wc0000gn/T//ccB20FE7.s 			page 469


 24297 2b93 75645F73 		.ascii	"ud_size\000"
 24297      697A6500 
 24298              	.LASF991:
 24299 2b9b 655F7365 		.ascii	"e_set_body_led\000"
 24299      745F626F 
 24299      64795F6C 
 24299      656400
 24300              	.LASF704:
 24301 2baa 696E5F6D 		.ascii	"in_maxsize\000"
 24301      61787369 
 24301      7A6500
 24302              	.LASF320:
 24303 2bb5 50464461 		.ascii	"PFData\000"
 24303      746100
 24304              	.LASF413:
 24305 2bbc 4558545F 		.ascii	"EXT_STOP\000"
 24305      53544F50 
 24305      00
 24306              	.LASF1002:
 24307 2bc5 655F7365 		.ascii	"e_set_steps_left\000"
 24307      745F7374 
 24307      6570735F 
 24307      6C656674 
 24307      00
 24308              	.LASF47:
 24309 2bd6 705F7374 		.ascii	"p_state\000"
 24309      61746500 
 24310              	.LASF493:
 24311 2bde 49325344 		.ascii	"I2SD2\000"
 24311      3200
 24312              	.LASF542:
 24313 2be4 69735F69 		.ascii	"is_inserted\000"
 24313      6E736572 
 24313      74656400 
 24314              	.LASF63:
 24315 2bf0 63685F74 		.ascii	"ch_threads_list\000"
 24315      68726561 
 24315      64735F6C 
 24315      69737400 
 24316              	.LASF947:
 24317 2c00 736F756E 		.ascii	"sound\000"
 24317      6400
 24318              	.LASF179:
 24319 2c06 44434F55 		.ascii	"DCOUNT\000"
 24319      4E5400
 24320              	.LASF164:
 24321 2c0d 4F415231 		.ascii	"OAR1\000"
 24321      00
 24322              	.LASF165:
 24323 2c12 4F415232 		.ascii	"OAR2\000"
 24323      00
 24324              	.LASF59:
 24325 2c17 705F7374 		.ascii	"p_stats\000"
 24325      61747300 
 24326              	.LASF585:
 24327 2c1f 75736273 		.ascii	"usbstate_t\000"
 24327      74617465 
ARM GAS  /var/folders/d2/nstgp4h54kz7g1l847x_b8wc0000gn/T//ccB20FE7.s 			page 470


 24327      5F7400
 24328              		.ident	"GCC: (GNU Tools for Arm Embedded Processors 7-2017-q4-major) 7.2.1 20170904 (release) [ARM
ARM GAS  /var/folders/d2/nstgp4h54kz7g1l847x_b8wc0000gn/T//ccB20FE7.s 			page 471


DEFINED SYMBOLS
                            *ABS*:0000000000000000 Asercom2.c
/var/folders/d2/nstgp4h54kz7g1l847x_b8wc0000gn/T//ccB20FE7.s:18     .text.run_asercom2:0000000000000000 $t
/var/folders/d2/nstgp4h54kz7g1l847x_b8wc0000gn/T//ccB20FE7.s:26     .text.run_asercom2:0000000000000000 run_asercom2
/var/folders/d2/nstgp4h54kz7g1l847x_b8wc0000gn/T//ccB20FE7.s:190    .text.run_asercom2:00000000000000ce $d
/var/folders/d2/nstgp4h54kz7g1l847x_b8wc0000gn/T//ccB20FE7.s:201    .text.run_asercom2:00000000000000e2 $t
/var/folders/d2/nstgp4h54kz7g1l847x_b8wc0000gn/T//ccB20FE7.s:364    .text.run_asercom2:00000000000001e2 $d
/var/folders/d2/nstgp4h54kz7g1l847x_b8wc0000gn/T//ccB20FE7.s:375    .text.run_asercom2:00000000000001f6 $t
/var/folders/d2/nstgp4h54kz7g1l847x_b8wc0000gn/T//ccB20FE7.s:529    .text.run_asercom2:00000000000002c4 $d
/var/folders/d2/nstgp4h54kz7g1l847x_b8wc0000gn/T//ccB20FE7.s:548    .text.run_asercom2:0000000000000308 $t
/var/folders/d2/nstgp4h54kz7g1l847x_b8wc0000gn/T//ccB20FE7.s:705    .text.run_asercom2:00000000000003e4 $d
/var/folders/d2/nstgp4h54kz7g1l847x_b8wc0000gn/T//ccB20FE7.s:817    .text.run_asercom2:00000000000004c4 $t
/var/folders/d2/nstgp4h54kz7g1l847x_b8wc0000gn/T//ccB20FE7.s:929    .text.run_asercom2:0000000000000564 $d
/var/folders/d2/nstgp4h54kz7g1l847x_b8wc0000gn/T//ccB20FE7.s:941    .text.run_asercom2:000000000000058c $t
/var/folders/d2/nstgp4h54kz7g1l847x_b8wc0000gn/T//ccB20FE7.s:1494   .text.run_asercom2:00000000000008ec $d
/var/folders/d2/nstgp4h54kz7g1l847x_b8wc0000gn/T//ccB20FE7.s:1503   .text.run_asercom2:0000000000000908 $t
/var/folders/d2/nstgp4h54kz7g1l847x_b8wc0000gn/T//ccB20FE7.s:1844   .text.run_asercom2:0000000000000b04 $d
/var/folders/d2/nstgp4h54kz7g1l847x_b8wc0000gn/T//ccB20FE7.s:1851   .text.run_asercom2:0000000000000b18 $t
/var/folders/d2/nstgp4h54kz7g1l847x_b8wc0000gn/T//ccB20FE7.s:2291   .text.run_asercom2:0000000000000de0 $d
/var/folders/d2/nstgp4h54kz7g1l847x_b8wc0000gn/T//ccB20FE7.s:2302   .text.run_asercom2:0000000000000e00 $t
/var/folders/d2/nstgp4h54kz7g1l847x_b8wc0000gn/T//ccB20FE7.s:2694   .text.run_asercom2:0000000000001078 $d
/var/folders/d2/nstgp4h54kz7g1l847x_b8wc0000gn/T//ccB20FE7.s:2706   .text.run_asercom2:0000000000001098 $t
/var/folders/d2/nstgp4h54kz7g1l847x_b8wc0000gn/T//ccB20FE7.s:2728   .text.run_asercom2:00000000000010c0 $d
/var/folders/d2/nstgp4h54kz7g1l847x_b8wc0000gn/T//ccB20FE7.s:2780   .text.run_asercom2:0000000000001190 $t
/var/folders/d2/nstgp4h54kz7g1l847x_b8wc0000gn/T//ccB20FE7.s:3219   .text.run_asercom2:0000000000001468 $d
/var/folders/d2/nstgp4h54kz7g1l847x_b8wc0000gn/T//ccB20FE7.s:3242   .text.run_asercom2:00000000000014bc $t
/var/folders/d2/nstgp4h54kz7g1l847x_b8wc0000gn/T//ccB20FE7.s:3460   .text.run_asercom2:0000000000001644 $d
/var/folders/d2/nstgp4h54kz7g1l847x_b8wc0000gn/T//ccB20FE7.s:3465   .text.run_asercom2:000000000000164e $t
/var/folders/d2/nstgp4h54kz7g1l847x_b8wc0000gn/T//ccB20FE7.s:3469   .text.run_asercom2:0000000000001650 $d
/var/folders/d2/nstgp4h54kz7g1l847x_b8wc0000gn/T//ccB20FE7.s:3481   .text.run_asercom2:0000000000001678 $t
/var/folders/d2/nstgp4h54kz7g1l847x_b8wc0000gn/T//ccB20FE7.s:3962   .text.run_asercom2:000000000000196c $d
/var/folders/d2/nstgp4h54kz7g1l847x_b8wc0000gn/T//ccB20FE7.s:4001   .text.run_asercom2:0000000000001a00 $t
/var/folders/d2/nstgp4h54kz7g1l847x_b8wc0000gn/T//ccB20FE7.s:4440   .text.run_asercom2:0000000000001cec $d
/var/folders/d2/nstgp4h54kz7g1l847x_b8wc0000gn/T//ccB20FE7.s:4461   .text.run_asercom2:0000000000001d38 $t
/var/folders/d2/nstgp4h54kz7g1l847x_b8wc0000gn/T//ccB20FE7.s:4920   .text.run_asercom2:000000000000204c $d
/var/folders/d2/nstgp4h54kz7g1l847x_b8wc0000gn/T//ccB20FE7.s:4939   .text.run_asercom2:000000000000208c $t
/var/folders/d2/nstgp4h54kz7g1l847x_b8wc0000gn/T//ccB20FE7.s:5442   .text.run_asercom2:00000000000023a8 $d
/var/folders/d2/nstgp4h54kz7g1l847x_b8wc0000gn/T//ccB20FE7.s:5454   .text.run_asercom2:00000000000023d0 $t
/var/folders/d2/nstgp4h54kz7g1l847x_b8wc0000gn/T//ccB20FE7.s:5926   .text.run_asercom2:0000000000002698 $d
/var/folders/d2/nstgp4h54kz7g1l847x_b8wc0000gn/T//ccB20FE7.s:5962   .text.run_asercom2:0000000000002718 $t
/var/folders/d2/nstgp4h54kz7g1l847x_b8wc0000gn/T//ccB20FE7.s:6095   .text.run_asercom2:00000000000027d8 $d
/var/folders/d2/nstgp4h54kz7g1l847x_b8wc0000gn/T//ccB20FE7.s:6107   .bss.LED_action.13440:0000000000000000 $d
/var/folders/d2/nstgp4h54kz7g1l847x_b8wc0000gn/T//ccB20FE7.s:6111   .bss.LED_action.13440:0000000000000000 LED_action.13440
/var/folders/d2/nstgp4h54kz7g1l847x_b8wc0000gn/T//ccB20FE7.s:6114   .bss.LED_nbr.13439:0000000000000000 $d
/var/folders/d2/nstgp4h54kz7g1l847x_b8wc0000gn/T//ccB20FE7.s:6118   .bss.LED_nbr.13439:0000000000000000 LED_nbr.13439
/var/folders/d2/nstgp4h54kz7g1l847x_b8wc0000gn/T//ccB20FE7.s:6121   .bss.accelero.13464:0000000000000000 $d
/var/folders/d2/nstgp4h54kz7g1l847x_b8wc0000gn/T//ccB20FE7.s:6125   .bss.accelero.13464:0000000000000000 accelero.13464
/var/folders/d2/nstgp4h54kz7g1l847x_b8wc0000gn/T//ccB20FE7.s:6128   .bss.accx.13441:0000000000000000 $d
/var/folders/d2/nstgp4h54kz7g1l847x_b8wc0000gn/T//ccB20FE7.s:6132   .bss.accx.13441:0000000000000000 accx.13441
/var/folders/d2/nstgp4h54kz7g1l847x_b8wc0000gn/T//ccB20FE7.s:6135   .bss.accy.13442:0000000000000000 $d
/var/folders/d2/nstgp4h54kz7g1l847x_b8wc0000gn/T//ccB20FE7.s:6139   .bss.accy.13442:0000000000000000 accy.13442
/var/folders/d2/nstgp4h54kz7g1l847x_b8wc0000gn/T//ccB20FE7.s:6142   .bss.accz.13443:0000000000000000 $d
/var/folders/d2/nstgp4h54kz7g1l847x_b8wc0000gn/T//ccB20FE7.s:6146   .bss.accz.13443:0000000000000000 accz.13443
/var/folders/d2/nstgp4h54kz7g1l847x_b8wc0000gn/T//ccB20FE7.s:6152   .bss.c1.13429:0000000000000000 c1.13429
/var/folders/d2/nstgp4h54kz7g1l847x_b8wc0000gn/T//ccB20FE7.s:6153   .bss.c1.13429:0000000000000000 $d
/var/folders/d2/nstgp4h54kz7g1l847x_b8wc0000gn/T//ccB20FE7.s:6158   .bss.c2.13430:0000000000000000 c2.13430
/var/folders/d2/nstgp4h54kz7g1l847x_b8wc0000gn/T//ccB20FE7.s:6159   .bss.c2.13430:0000000000000000 $d
ARM GAS  /var/folders/d2/nstgp4h54kz7g1l847x_b8wc0000gn/T//ccB20FE7.s 			page 472


/var/folders/d2/nstgp4h54kz7g1l847x_b8wc0000gn/T//ccB20FE7.s:6161   .bss.cam_heigth.13450:0000000000000000 $d
/var/folders/d2/nstgp4h54kz7g1l847x_b8wc0000gn/T//ccB20FE7.s:6165   .bss.cam_heigth.13450:0000000000000000 cam_heigth.13450
/var/folders/d2/nstgp4h54kz7g1l847x_b8wc0000gn/T//ccB20FE7.s:6168   .bss.cam_mode.13448:0000000000000000 $d
/var/folders/d2/nstgp4h54kz7g1l847x_b8wc0000gn/T//ccB20FE7.s:6172   .bss.cam_mode.13448:0000000000000000 cam_mode.13448
/var/folders/d2/nstgp4h54kz7g1l847x_b8wc0000gn/T//ccB20FE7.s:6175   .bss.cam_size.13452:0000000000000000 $d
/var/folders/d2/nstgp4h54kz7g1l847x_b8wc0000gn/T//ccB20FE7.s:6179   .bss.cam_size.13452:0000000000000000 cam_size.13452
/var/folders/d2/nstgp4h54kz7g1l847x_b8wc0000gn/T//ccB20FE7.s:6182   .bss.cam_width.13449:0000000000000000 $d
/var/folders/d2/nstgp4h54kz7g1l847x_b8wc0000gn/T//ccB20FE7.s:6186   .bss.cam_width.13449:0000000000000000 cam_width.13449
/var/folders/d2/nstgp4h54kz7g1l847x_b8wc0000gn/T//ccB20FE7.s:6189   .bss.cam_x1.13453:0000000000000000 $d
/var/folders/d2/nstgp4h54kz7g1l847x_b8wc0000gn/T//ccB20FE7.s:6193   .bss.cam_x1.13453:0000000000000000 cam_x1.13453
/var/folders/d2/nstgp4h54kz7g1l847x_b8wc0000gn/T//ccB20FE7.s:6196   .bss.cam_y1.13454:0000000000000000 $d
/var/folders/d2/nstgp4h54kz7g1l847x_b8wc0000gn/T//ccB20FE7.s:6200   .bss.cam_y1.13454:0000000000000000 cam_y1.13454
/var/folders/d2/nstgp4h54kz7g1l847x_b8wc0000gn/T//ccB20FE7.s:6203   .bss.cam_zoom.13451:0000000000000000 $d
/var/folders/d2/nstgp4h54kz7g1l847x_b8wc0000gn/T//ccB20FE7.s:6207   .bss.cam_zoom.13451:0000000000000000 cam_zoom.13451
/var/folders/d2/nstgp4h54kz7g1l847x_b8wc0000gn/T//ccB20FE7.s:6213   .bss.first.13455:0000000000000000 first.13455
/var/folders/d2/nstgp4h54kz7g1l847x_b8wc0000gn/T//ccB20FE7.s:6214   .bss.first.13455:0000000000000000 $d
/var/folders/d2/nstgp4h54kz7g1l847x_b8wc0000gn/T//ccB20FE7.s:6216   .bss.gyrox.13445:0000000000000000 $d
/var/folders/d2/nstgp4h54kz7g1l847x_b8wc0000gn/T//ccB20FE7.s:6220   .bss.gyrox.13445:0000000000000000 gyrox.13445
/var/folders/d2/nstgp4h54kz7g1l847x_b8wc0000gn/T//ccB20FE7.s:6223   .bss.gyroy.13446:0000000000000000 $d
/var/folders/d2/nstgp4h54kz7g1l847x_b8wc0000gn/T//ccB20FE7.s:6227   .bss.gyroy.13446:0000000000000000 gyroy.13446
/var/folders/d2/nstgp4h54kz7g1l847x_b8wc0000gn/T//ccB20FE7.s:6230   .bss.gyroz.13447:0000000000000000 $d
/var/folders/d2/nstgp4h54kz7g1l847x_b8wc0000gn/T//ccB20FE7.s:6234   .bss.gyroz.13447:0000000000000000 gyroz.13447
/var/folders/d2/nstgp4h54kz7g1l847x_b8wc0000gn/T//ccB20FE7.s:6237   .bss.i.13432:0000000000000000 $d
/var/folders/d2/nstgp4h54kz7g1l847x_b8wc0000gn/T//ccB20FE7.s:6241   .bss.i.13432:0000000000000000 i.13432
/var/folders/d2/nstgp4h54kz7g1l847x_b8wc0000gn/T//ccB20FE7.s:6244   .bss.j.13433:0000000000000000 $d
/var/folders/d2/nstgp4h54kz7g1l847x_b8wc0000gn/T//ccB20FE7.s:6248   .bss.j.13433:0000000000000000 j.13433
/var/folders/d2/nstgp4h54kz7g1l847x_b8wc0000gn/T//ccB20FE7.s:6251   .bss.mod.13458:0000000000000000 $d
/var/folders/d2/nstgp4h54kz7g1l847x_b8wc0000gn/T//ccB20FE7.s:6255   .bss.mod.13458:0000000000000000 mod.13458
/var/folders/d2/nstgp4h54kz7g1l847x_b8wc0000gn/T//ccB20FE7.s:6258   .bss.positionl.13438:0000000000000000 $d
/var/folders/d2/nstgp4h54kz7g1l847x_b8wc0000gn/T//ccB20FE7.s:6262   .bss.positionl.13438:0000000000000000 positionl.13438
/var/folders/d2/nstgp4h54kz7g1l847x_b8wc0000gn/T//ccB20FE7.s:6265   .bss.positionr.13437:0000000000000000 $d
/var/folders/d2/nstgp4h54kz7g1l847x_b8wc0000gn/T//ccB20FE7.s:6269   .bss.positionr.13437:0000000000000000 positionr.13437
/var/folders/d2/nstgp4h54kz7g1l847x_b8wc0000gn/T//ccB20FE7.s:6272   .bss.reg.13459:0000000000000000 $d
/var/folders/d2/nstgp4h54kz7g1l847x_b8wc0000gn/T//ccB20FE7.s:6276   .bss.reg.13459:0000000000000000 reg.13459
/var/folders/d2/nstgp4h54kz7g1l847x_b8wc0000gn/T//ccB20FE7.s:6279   .bss.rgb_value.13456:0000000000000000 $d
/var/folders/d2/nstgp4h54kz7g1l847x_b8wc0000gn/T//ccB20FE7.s:6283   .bss.rgb_value.13456:0000000000000000 rgb_value.13456
/var/folders/d2/nstgp4h54kz7g1l847x_b8wc0000gn/T//ccB20FE7.s:6286   .bss.sound.13444:0000000000000000 $d
/var/folders/d2/nstgp4h54kz7g1l847x_b8wc0000gn/T//ccB20FE7.s:6290   .bss.sound.13444:0000000000000000 sound.13444
/var/folders/d2/nstgp4h54kz7g1l847x_b8wc0000gn/T//ccB20FE7.s:6293   .bss.speedl.13436:0000000000000000 $d
/var/folders/d2/nstgp4h54kz7g1l847x_b8wc0000gn/T//ccB20FE7.s:6297   .bss.speedl.13436:0000000000000000 speedl.13436
/var/folders/d2/nstgp4h54kz7g1l847x_b8wc0000gn/T//ccB20FE7.s:6300   .bss.speedr.13435:0000000000000000 $d
/var/folders/d2/nstgp4h54kz7g1l847x_b8wc0000gn/T//ccB20FE7.s:6304   .bss.speedr.13435:0000000000000000 speedr.13435
/var/folders/d2/nstgp4h54kz7g1l847x_b8wc0000gn/T//ccB20FE7.s:6307   .bss.val.13460:0000000000000000 $d
/var/folders/d2/nstgp4h54kz7g1l847x_b8wc0000gn/T//ccB20FE7.s:6311   .bss.val.13460:0000000000000000 val.13460
/var/folders/d2/nstgp4h54kz7g1l847x_b8wc0000gn/T//ccB20FE7.s:6317   .bss.wait_cam.13431:0000000000000000 wait_cam.13431
/var/folders/d2/nstgp4h54kz7g1l847x_b8wc0000gn/T//ccB20FE7.s:6318   .bss.wait_cam.13431:0000000000000000 $d
/var/folders/d2/nstgp4h54kz7g1l847x_b8wc0000gn/T//ccB20FE7.s:6320   .data.HWversion.13472:0000000000000000 $d
/var/folders/d2/nstgp4h54kz7g1l847x_b8wc0000gn/T//ccB20FE7.s:6324   .data.HWversion.13472:0000000000000000 HWversion.13472
/var/folders/d2/nstgp4h54kz7g1l847x_b8wc0000gn/T//ccB20FE7.s:6327   .rodata.run_asercom2.str1.4:0000000000000000 $d

UNDEFINED SYMBOLS
e_init_motors
getselector
e_init_remote_control
ReadEE
e_getchar_uart1
e_get_data
ARM GAS  /var/folders/d2/nstgp4h54kz7g1l847x_b8wc0000gn/T//ccB20FE7.s 			page 473


e_get_address
getXAxisGyro
getYAxisGyro
getZAxisGyro
sprintf
strlen
e_send_uart1_char
e_uart1_sending
e_getchar_uart2
e_set_speed_left
e_set_speed_right
__stack_chk_guard
selector
buffer
c
e_play_sound
e_get_steps_left
e_get_steps_right
get_magnetic_field
e_get_calibrated_prox
e_get_ambient_light
e_get_micro_volume
getBatteryValueRaw
sdio_is_present
e_get_check
get_ground_prox
get_ground_ambient_light
button_get_state
set_rgb_led
serial_get_last_errors
e_set_steps_left
e_set_steps_right
set_led
set_body_led
set_front_led
e_close_sound
stopCurrentMelody
e_i2cp_enable
e_i2cp_write
e_i2cp_disable
e_poxxxx_launch_capture
SD3
e_set_front_led
__locale_ctype_ptr
getTemperature
e_i2cp_read
sscanf
e_poxxxx_init_cam
e_poxxxx_config_cam
e_poxxxx_write_cam_registers
e_set_led
e_set_body_led
e_get_acc_filtered
e_init_sound
isEpuckVersion1_3
chThdSleep
e_led_clear
ARM GAS  /var/folders/d2/nstgp4h54kz7g1l847x_b8wc0000gn/T//ccB20FE7.s 			page 474


e_calibrate_ir
playMelody
getBatteryValuePercentage
e_send_uart2_char
e_uart2_sending
serial_clear_last_errors
VL53L0X_get_dist_mm
sdio_connect
sdio_disconnect
getAllAxesGyro
e_read_acc_spheric
e_get_acc
e_poxxxx_wait_img_ready
cam_get_last_image_ptr
memcpy
calibrate_ir
SDU1
e_i2cp_init
e_acc_calibr
