ARM GAS  /var/folders/d2/nstgp4h54kz7g1l847x_b8wc0000gn/T//ccVbBKId.s 			page 1


   1              		.cpu cortex-m4
   2              		.eabi_attribute 27, 1
   3              		.eabi_attribute 28, 1
   4              		.eabi_attribute 20, 1
   5              		.eabi_attribute 21, 1
   6              		.eabi_attribute 23, 3
   7              		.eabi_attribute 24, 1
   8              		.eabi_attribute 25, 1
   9              		.eabi_attribute 26, 1
  10              		.eabi_attribute 30, 6
  11              		.eabi_attribute 34, 1
  12              		.eabi_attribute 18, 4
  13              		.file	"Asercom2.c"
  14              		.section	.rodata
  15              		.align	2
  16              	.LC0:
  17 0000 0C075745 		.ascii	"\014\007WELCOME to the SerCom protocol on e-Puck\015"
  17      4C434F4D 
  17      4520746F 
  17      20746865 
  17      20536572 
  18 002b 0A746865 		.ascii	"\012the EPFL education robot type \"H\" for help\015"
  18      20455046 
  18      4C206564 
  18      75636174 
  18      696F6E20 
  19 0057 0A00     		.ascii	"\012\000"
  20 0059 000000   		.align	2
  21              	.LC1:
  22 005c 612C2564 		.ascii	"a,%d,%d,%d\015\012\000"
  22      2C25642C 
  22      25640D0A 
  22      00
  23 0069 000000   		.align	2
  24              	.LC2:
  25 006c 612C302C 		.ascii	"a,0,0,0\015\012\000"
  25      302C300D 
  25      0A00
  26 0076 0000     		.align	2
  27              	.LC3:
  28 0078 622C2564 		.ascii	"b,%d (%d%%)\015\012\000"
  28      20282564 
  28      2525290D 
  28      0A00
  29 0086 0000     		.align	2
  30              	.LC4:
  31 0088 422C2564 		.ascii	"B,%d\015\000"
  31      0D00
  32 008e 0000     		.align	2
  33              	.LC5:
  34 0090 620D0A00 		.ascii	"b\015\012\000"
  35              		.align	2
  36              	.LC6:
  37 0094 632C2564 		.ascii	"c,%d\015\012\000"
  37      0D0A00
  38 009b 00       		.align	2
  39              	.LC7:
ARM GAS  /var/folders/d2/nstgp4h54kz7g1l847x_b8wc0000gn/T//ccVbBKId.s 			page 2


  40 009c 442C2564 		.ascii	"D,%d,%d\015\000"
  40      2C25640D 
  40      00
  41 00a5 000000   		.align	2
  42              	.LC8:
  43 00a8 640D0A00 		.ascii	"d\015\012\000"
  44              		.align	2
  45              	.LC9:
  46 00ac 652C2564 		.ascii	"e,%d,%d\015\012\000"
  46      2C25640D 
  46      0A00
  47 00b6 0000     		.align	2
  48              	.LC10:
  49 00b8 462C2564 		.ascii	"F,%d\015\000"
  49      0D00
  50 00be 0000     		.align	2
  51              	.LC11:
  52 00c0 660D0A00 		.ascii	"f\015\012\000"
  53              		.align	2
  54              	.LC12:
  55 00c4 67204952 		.ascii	"g IR check : 0x%x, address : 0x%x, data : 0x%x\015\012"
  55      20636865 
  55      636B203A 
  55      20307825 
  55      782C2061 
  56 00f4 00       		.ascii	"\000"
  57 00f5 000000   		.align	2
  58              	.LC13:
  59 00f8 672C2564 		.ascii	"g,%d,%d,%d\015\012\000"
  59      2C25642C 
  59      25640D0A 
  59      00
  60 0105 000000   		.align	2
  61              	.LC14:
  62 0108 672C302C 		.ascii	"g,0,0,0\015\012\000"
  62      302C300D 
  62      0A00
  63 0112 0000     		.align	2
  64              	.LC15:
  65 0114 0A00     		.ascii	"\012\000"
  66 0116 0000     		.align	2
  67              	.LC16:
  68 0118 22412220 		.ascii	"\"A\"               Accelerometer\015\012\000"
  68      20202020 
  68      20202020 
  68      20202020 
  68      20204163 
  69 013a 0000     		.align	2
  70              	.LC17:
  71 013c 22422C23 		.ascii	"\"B,#\"             Body led 0=off 1=on 2=inverse\015"
  71      22202020 
  71      20202020 
  71      20202020 
  71      2020426F 
  72 016c 0A00     		.ascii	"\012\000"
  73 016e 0000     		.align	2
  74              	.LC18:
ARM GAS  /var/folders/d2/nstgp4h54kz7g1l847x_b8wc0000gn/T//ccVbBKId.s 			page 3


  75 0170 22622220 		.ascii	"\"b\"               Battery value\015\012\000"
  75      20202020 
  75      20202020 
  75      20202020 
  75      20204261 
  76 0192 0000     		.align	2
  77              	.LC19:
  78 0194 22622220 		.ascii	"\"b\"               Battery state (1=ok, 0=low)\015"
  78      20202020 
  78      20202020 
  78      20202020 
  78      20204261 
  79 01c2 0A00     		.ascii	"\012\000"
  80              		.align	2
  81              	.LC20:
  82 01c4 22432220 		.ascii	"\"C\"               Selector position\015\012\000"
  82      20202020 
  82      20202020 
  82      20202020 
  82      20205365 
  83 01ea 0000     		.align	2
  84              	.LC21:
  85 01ec 22442C23 		.ascii	"\"D,#,#\"           Set motor speed left,right\015\012"
  85      2C232220 
  85      20202020 
  85      20202020 
  85      20205365 
  86 021a 00       		.ascii	"\000"
  87 021b 00       		.align	2
  88              	.LC22:
  89 021c 22452220 		.ascii	"\"E\"               Get motor speed left,right\015\012"
  89      20202020 
  89      20202020 
  89      20202020 
  89      20204765 
  90 024a 00       		.ascii	"\000"
  91 024b 00       		.align	2
  92              	.LC23:
  93 024c 22462C23 		.ascii	"\"F,#\"             Front led 0=off 1=on 2=inverse\015"
  93      22202020 
  93      20202020 
  93      20202020 
  93      20204672 
  94 027d 0A00     		.ascii	"\012\000"
  95 027f 00       		.align	2
  96              	.LC24:
  97 0280 22472220 		.ascii	"\"G\"               IR receiver\015\012\000"
  97      20202020 
  97      20202020 
  97      20202020 
  97      20204952 
  98              		.align	2
  99              	.LC25:
 100 02a0 22672220 		.ascii	"\"g\"               Gyro\015\012\000"
 100      20202020 
 100      20202020 
 100      20202020 
ARM GAS  /var/folders/d2/nstgp4h54kz7g1l847x_b8wc0000gn/T//ccVbBKId.s 			page 4


 100      20204779 
 101 02b9 000000   		.align	2
 102              	.LC26:
 103 02bc 22482220 		.ascii	"\"H\"               Help\015\012\000"
 103      20202020 
 103      20202020 
 103      20202020 
 103      20204865 
 104 02d5 000000   		.align	2
 105              	.LC27:
 106 02d8 22492220 		.ascii	"\"I\"               Get camera parameter\015\012\000"
 106      20202020 
 106      20202020 
 106      20202020 
 106      20204765 
 107 0301 000000   		.align	2
 108              	.LC28:
 109 0304 224A2C23 		.ascii	"\"J,#,#,#,#,#,#\"   Set camera parameter mode,width"
 109      2C232C23 
 109      2C232C23 
 109      2C232220 
 109      20205365 
 110 0335 2C686569 		.ascii	",heigth,zoom(1,4 or 8),x1,y1\015\012\000"
 110      6774682C 
 110      7A6F6F6D 
 110      28312C34 
 110      206F7220 
 111              		.align	2
 112              	.LC29:
 113 0354 224B2220 		.ascii	"\"K\"               Calibrate proximity sensors\015"
 113      20202020 
 113      20202020 
 113      20202020 
 113      20204361 
 114 0382 0A00     		.ascii	"\012\000"
 115              		.align	2
 116              	.LC30:
 117 0384 224C2C23 		.ascii	"\"L,#,#\"           Led number,0=off 1=on 2=inverse"
 117      2C232220 
 117      20202020 
 117      20202020 
 117      20204C65 
 118 03b5 0D0A00   		.ascii	"\015\012\000"
 119              		.align	2
 120              	.LC31:
 121 03b8 224D2220 		.ascii	"\"M\"               Floor sensors\015\012\000"
 121      20202020 
 121      20202020 
 121      20202020 
 121      2020466C 
 122 03da 0000     		.align	2
 123              	.LC32:
 124 03dc 224E2220 		.ascii	"\"N\"               Proximity\015\012\000"
 124      20202020 
 124      20202020 
 124      20202020 
 124      20205072 
ARM GAS  /var/folders/d2/nstgp4h54kz7g1l847x_b8wc0000gn/T//ccVbBKId.s 			page 5


 125 03fa 0000     		.align	2
 126              	.LC33:
 127 03fc 224F2220 		.ascii	"\"O\"               Light sensors\015\012\000"
 127      20202020 
 127      20202020 
 127      20202020 
 127      20204C69 
 128 041e 0000     		.align	2
 129              	.LC34:
 130 0420 22502C23 		.ascii	"\"P,#,#\"           Set motor position left,right\015"
 130      2C232220 
 130      20202020 
 130      20202020 
 130      20205365 
 131 0450 0A00     		.ascii	"\012\000"
 132 0452 0000     		.align	2
 133              	.LC35:
 134 0454 22512220 		.ascii	"\"Q\"               Get motor position left,right\015"
 134      20202020 
 134      20202020 
 134      20202020 
 134      20204765 
 135 0484 0A00     		.ascii	"\012\000"
 136 0486 0000     		.align	2
 137              	.LC36:
 138 0488 22522220 		.ascii	"\"R\"               Reset e-puck\015\012\000"
 138      20202020 
 138      20202020 
 138      20202020 
 138      20205265 
 139 04a9 000000   		.align	2
 140              	.LC37:
 141 04ac 22532220 		.ascii	"\"S\"               Stop e-puck and turn off leds\015"
 141      20202020 
 141      20202020 
 141      20202020 
 141      20205374 
 142 04dc 0A00     		.ascii	"\012\000"
 143 04de 0000     		.align	2
 144              	.LC38:
 145 04e0 22542C23 		.ascii	"\"T,#\"             Play sound 1-5 else stop sound\015"
 145      22202020 
 145      20202020 
 145      20202020 
 145      2020506C 
 146 0511 0A00     		.ascii	"\012\000"
 147 0513 00       		.align	2
 148              	.LC39:
 149 0514 22742220 		.ascii	"\"t\"               Temperature\015\012\000"
 149      20202020 
 149      20202020 
 149      20202020 
 149      20205465 
 150              		.align	2
 151              	.LC40:
 152 0534 22552220 		.ascii	"\"U\"               Get microphone amplitude\015\012"
 152      20202020 
ARM GAS  /var/folders/d2/nstgp4h54kz7g1l847x_b8wc0000gn/T//ccVbBKId.s 			page 6


 152      20202020 
 152      20202020 
 152      20204765 
 153 0560 00       		.ascii	"\000"
 154 0561 000000   		.align	2
 155              	.LC41:
 156 0564 22562220 		.ascii	"\"V\"               Version of SerCom\015\012\000"
 156      20202020 
 156      20202020 
 156      20202020 
 156      20205665 
 157 058a 0000     		.align	2
 158              	.LC42:
 159 058c 22572220 		.ascii	"\"W\"               Write I2C (mod,reg,val)\015\012"
 159      20202020 
 159      20202020 
 159      20202020 
 159      20205772 
 160 05b7 00       		.ascii	"\000"
 161              		.align	2
 162              	.LC43:
 163 05b8 22592220 		.ascii	"\"Y\"               Read I2C val=(mod,reg)\015\012\000"
 163      20202020 
 163      20202020 
 163      20202020 
 163      20205265 
 164 05e3 00       		.align	2
 165              	.LC44:
 166 05e4 22412220 		.ascii	"\"A\"       Accelerometer\015\012\000"
 166      20202020 
 166      20204163 
 166      63656C65 
 166      726F6D65 
 167 05fe 0000     		.align	2
 168              	.LC45:
 169 0600 22622220 		.ascii	"\"b\"       Battery value\015\012\000"
 169      20202020 
 169      20204261 
 169      74746572 
 169      79207661 
 170 061a 0000     		.align	2
 171              	.LC46:
 172 061c 22622220 		.ascii	"\"b\"       Battery state (1=ok, 0=low)\015\012\000"
 172      20202020 
 172      20204261 
 172      74746572 
 172      79207374 
 173              		.align	2
 174              	.LC47:
 175 0644 22422C23 		.ascii	"\"B,#\"       Body led 0=off 1=on 2=inverse\015\012"
 175      22202020 
 175      20202020 
 175      426F6479 
 175      206C6564 
 176 066f 00       		.ascii	"\000"
 177              		.align	2
 178              	.LC48:
ARM GAS  /var/folders/d2/nstgp4h54kz7g1l847x_b8wc0000gn/T//ccVbBKId.s 			page 7


 179 0670 22432220 		.ascii	"\"C\"       Selector position\015\012\000"
 179      20202020 
 179      20205365 
 179      6C656374 
 179      6F722070 
 180 068e 0000     		.align	2
 181              	.LC49:
 182 0690 22442C23 		.ascii	"\"D,#,#\"   Set motor speed left,right\015\012\000"
 182      2C232220 
 182      20205365 
 182      74206D6F 
 182      746F7220 
 183 06b7 00       		.align	2
 184              	.LC50:
 185 06b8 22452220 		.ascii	"\"E\"       Get motor speed left,right\015\012\000"
 185      20202020 
 185      20204765 
 185      74206D6F 
 185      746F7220 
 186 06df 00       		.align	2
 187              	.LC51:
 188 06e0 22462C23 		.ascii	"\"F,#\"       Front led 0=off 1=on 2=inverse\015\012"
 188      22202020 
 188      20202020 
 188      46726F6E 
 188      74206C65 
 189 070c 00       		.ascii	"\000"
 190 070d 000000   		.align	2
 191              	.LC52:
 192 0710 22472220 		.ascii	"\"G\"       IR receiver\015\012\000"
 192      20202020 
 192      20204952 
 192      20726563 
 192      65697665 
 193              		.align	2
 194              	.LC53:
 195 0728 22482220 		.ascii	"\"H\"       Help\015\012\000"
 195      20202020 
 195      20204865 
 195      6C700D0A 
 195      00
 196 0739 000000   		.align	2
 197              	.LC54:
 198 073c 22492220 		.ascii	"\"I\"         Get camera parameter\015\012\000"
 198      20202020 
 198      20202020 
 198      47657420 
 198      63616D65 
 199 075f 00       		.align	2
 200              	.LC55:
 201 0760 224A2C23 		.ascii	"\"J,#,#,#,#,#,#\" Set camera parameter mode,width,h"
 201      2C232C23 
 201      2C232C23 
 201      2C232220 
 201      53657420 
 202 0791 65696774 		.ascii	"eigth,zoom(1,4 or 8),x1,y1\015\012\000"
 202      682C7A6F 
ARM GAS  /var/folders/d2/nstgp4h54kz7g1l847x_b8wc0000gn/T//ccVbBKId.s 			page 8


 202      6F6D2831 
 202      2C34206F 
 202      72203829 
 203 07ae 0000     		.align	2
 204              	.LC56:
 205 07b0 224B2220 		.ascii	"\"K\"       Calibrate proximity sensors\015\012\000"
 205      20202020 
 205      20204361 
 205      6C696272 
 205      61746520 
 206              		.align	2
 207              	.LC57:
 208 07d8 224C2C23 		.ascii	"\"L,#,#\"   Led number,0=off 1=on 2=inverse\015\012"
 208      2C232220 
 208      20204C65 
 208      64206E75 
 208      6D626572 
 209 0803 00       		.ascii	"\000"
 210              		.align	2
 211              	.LC58:
 212 0804 224D2220 		.ascii	"\"M\"       Floor sensors\015\012\000"
 212      20202020 
 212      2020466C 
 212      6F6F7220 
 212      73656E73 
 213 081e 0000     		.align	2
 214              	.LC59:
 215 0820 224E2220 		.ascii	"\"N\"       Proximity\015\012\000"
 215      20202020 
 215      20205072 
 215      6F78696D 
 215      6974790D 
 216 0836 0000     		.align	2
 217              	.LC60:
 218 0838 224F2220 		.ascii	"\"O\"       Light sensors\015\012\000"
 218      20202020 
 218      20204C69 
 218      67687420 
 218      73656E73 
 219 0852 0000     		.align	2
 220              	.LC61:
 221 0854 22502C23 		.ascii	"\"P,#,#\"   Set motor position left,right\015\012\000"
 221      2C232220 
 221      20205365 
 221      74206D6F 
 221      746F7220 
 222 087e 0000     		.align	2
 223              	.LC62:
 224 0880 22512220 		.ascii	"\"Q\"       Get motor position left,right\015\012\000"
 224      20202020 
 224      20204765 
 224      74206D6F 
 224      746F7220 
 225 08aa 0000     		.align	2
 226              	.LC63:
 227 08ac 22522220 		.ascii	"\"R\"       Reset e-puck\015\012\000"
 227      20202020 
ARM GAS  /var/folders/d2/nstgp4h54kz7g1l847x_b8wc0000gn/T//ccVbBKId.s 			page 9


 227      20205265 
 227      73657420 
 227      652D7075 
 228 08c5 000000   		.align	2
 229              	.LC64:
 230 08c8 22532220 		.ascii	"\"S\"       Stop e-puck and turn off leds\015\012\000"
 230      20202020 
 230      20205374 
 230      6F702065 
 230      2D707563 
 231 08f2 0000     		.align	2
 232              	.LC65:
 233 08f4 22542C23 		.ascii	"\"T,#\"       Play sound 1-5 else stop sound\015\012"
 233      22202020 
 233      20202020 
 233      506C6179 
 233      20736F75 
 234 0920 00       		.ascii	"\000"
 235 0921 000000   		.align	2
 236              	.LC66:
 237 0924 22552220 		.ascii	"\"U\"       Get microphone amplitude\015\012\000"
 237      20202020 
 237      20204765 
 237      74206D69 
 237      63726F70 
 238 0949 000000   		.align	2
 239              	.LC67:
 240 094c 22562220 		.ascii	"\"V\"       Version of SerCom\015\012\000"
 240      20202020 
 240      20205665 
 240      7273696F 
 240      6E206F66 
 241 096a 0000     		.align	2
 242              	.LC68:
 243 096c 22572220 		.ascii	"\"W\"         Write I2C (mod,reg,val)\015\012\000"
 243      20202020 
 243      20202020 
 243      57726974 
 243      65204932 
 244 0992 0000     		.align	2
 245              	.LC69:
 246 0994 22592220 		.ascii	"\"Y\"         Read I2C val=(mod,reg)\015\012\000"
 246      20202020 
 246      20202020 
 246      52656164 
 246      20493243 
 247 09b9 000000   		.align	2
 248              	.LC70:
 249 09bc 692C2564 		.ascii	"i,%d,%d,%d,%d,%d\015\012\000"
 249      2C25642C 
 249      25642C25 
 249      642C2564 
 249      0D0A00
 250 09cf 00       		.align	2
 251              	.LC71:
 252 09d0 4A2C2564 		.ascii	"J,%d,%d,%d,%d,%d,%d\015\000"
 252      2C25642C 
ARM GAS  /var/folders/d2/nstgp4h54kz7g1l847x_b8wc0000gn/T//ccVbBKId.s 			page 10


 252      25642C25 
 252      642C2564 
 252      2C25640D 
 253 09e5 000000   		.align	2
 254              	.LC72:
 255 09e8 6A0D0A00 		.ascii	"j\015\012\000"
 256              		.align	2
 257              	.LC73:
 258 09ec 6B2C2053 		.ascii	"k, Starting calibration - Remove any object in sens"
 258      74617274 
 258      696E6720 
 258      63616C69 
 258      62726174 
 259 0a1f 6F727320 		.ascii	"ors range\015\012\000"
 259      72616E67 
 259      650D0A00 
 260 0a2b 00       		.align	2
 261              	.LC74:
 262 0a2c 6B2C2043 		.ascii	"k, Calibration finished\015\012\000"
 262      616C6962 
 262      72617469 
 262      6F6E2066 
 262      696E6973 
 263 0a46 0000     		.align	2
 264              	.LC75:
 265 0a48 4C2C2564 		.ascii	"L,%d,%d\015\000"
 265      2C25640D 
 265      00
 266 0a51 000000   		.align	2
 267              	.LC76:
 268 0a54 6C0D0A00 		.ascii	"l\015\012\000"
 269              		.align	2
 270              	.LC77:
 271 0a58 6D2C2564 		.ascii	"m,%d,%d,%d,%d,%d\015\012\000"
 271      2C25642C 
 271      25642C25 
 271      642C2564 
 271      0D0A00
 272 0a6b 00       		.align	2
 273              	.LC78:
 274 0a6c 6E2C2564 		.ascii	"n,%d,%d,%d,%d,%d,%d,%d,%d\015\012\000"
 274      2C25642C 
 274      25642C25 
 274      642C2564 
 274      2C25642C 
 275              		.align	2
 276              	.LC79:
 277 0a88 6F2C2564 		.ascii	"o,%d,%d,%d,%d,%d,%d,%d,%d\015\012\000"
 277      2C25642C 
 277      25642C25 
 277      642C2564 
 277      2C25642C 
 278              		.align	2
 279              	.LC80:
 280 0aa4 502C2564 		.ascii	"P,%d,%d\015\000"
 280      2C25640D 
 280      00
ARM GAS  /var/folders/d2/nstgp4h54kz7g1l847x_b8wc0000gn/T//ccVbBKId.s 			page 11


 281 0aad 000000   		.align	2
 282              	.LC81:
 283 0ab0 700D0A00 		.ascii	"p\015\012\000"
 284              		.align	2
 285              	.LC82:
 286 0ab4 712C2564 		.ascii	"q,%d,%d\015\012\000"
 286      2C25640D 
 286      0A00
 287 0abe 0000     		.align	2
 288              	.LC83:
 289 0ac0 730D0A00 		.ascii	"s\015\012\000"
 290              		.align	2
 291              	.LC84:
 292 0ac4 542C2564 		.ascii	"T,%d\000"
 292      00
 293 0ac9 000000   		.align	2
 294              	.LC85:
 295 0acc 740D0A00 		.ascii	"t\015\012\000"
 296              		.align	2
 297              	.LC86:
 298 0ad0 742C2564 		.ascii	"t,%d\015\012\000"
 298      0D0A00
 299 0ad7 00       		.align	2
 300              	.LC87:
 301 0ad8 742C300D 		.ascii	"t,0\015\012\000"
 301      0A00
 302 0ade 0000     		.align	2
 303              	.LC88:
 304 0ae0 752C2564 		.ascii	"u,%d,%d,%d\015\012\000"
 304      2C25642C 
 304      25640D0A 
 304      00
 305 0aed 000000   		.align	2
 306              	.LC89:
 307 0af0 762C5665 		.ascii	"v,Version 2.0 January 2018 GCtronic\015\012\000"
 307      7273696F 
 307      6E20322E 
 307      30204A61 
 307      6E756172 
 308 0b16 0000     		.align	2
 309              	.LC90:
 310 0b18 48572076 		.ascii	"HW version: %X\015\012\000"
 310      65727369 
 310      6F6E3A20 
 310      25580D0A 
 310      00
 311 0b29 000000   		.align	2
 312              	.LC91:
 313 0b2c 572C2564 		.ascii	"W,%d,%d,%d\015\000"
 313      2C25642C 
 313      25640D00 
 314              		.align	2
 315              	.LC92:
 316 0b38 770D0A00 		.ascii	"w\015\012\000"
 317              		.align	2
 318              	.LC93:
 319 0b3c 592C2564 		.ascii	"Y,%d,%d\015\000"
ARM GAS  /var/folders/d2/nstgp4h54kz7g1l847x_b8wc0000gn/T//ccVbBKId.s 			page 12


 319      2C25640D 
 319      00
 320 0b45 000000   		.align	2
 321              	.LC94:
 322 0b48 792C2564 		.ascii	"y,%d,%d\015\012\000"
 322      2C25640D 
 322      0A00
 323 0b52 0000     		.align	2
 324              	.LC95:
 325 0b54 792C2564 		.ascii	"y,%d\015\012\000"
 325      0D0A00
 326 0b5b 00       		.align	2
 327              	.LC96:
 328 0b5c 25643A20 		.ascii	"%d: %d\015\012\000"
 328      25640D0A 
 328      00
 329 0b65 000000   		.align	2
 330              	.LC97:
 331 0b68 7A2C436F 		.ascii	"z,Command not found\015\012\000"
 331      6D6D616E 
 331      64206E6F 
 331      7420666F 
 331      756E640D 
 332              		.section	.text.run_asercom2,"ax",%progbits
 333              		.align	1
 334              		.global	run_asercom2
 335              		.syntax unified
 336              		.thumb
 337              		.thumb_func
 338              		.fpu fpv4-sp-d16
 339              		.type	run_asercom2, %function
 340              	run_asercom2:
 341              		@ args = 0, pretend = 0, frame = 72
 342              		@ frame_needed = 1, uses_anonymous_args = 0
 343 0000 2DE9F043 		push	{r4, r5, r6, r7, r8, r9, lr}
 344 0004 99B0     		sub	sp, sp, #100
 345 0006 06AF     		add	r7, sp, #24
 346 0008 0023     		movs	r3, #0
 347 000a 87F83730 		strb	r3, [r7, #55]
 348 000e 0023     		movs	r3, #0
 349 0010 87F83630 		strb	r3, [r7, #54]
 350 0014 0023     		movs	r3, #0
 351 0016 87F84730 		strb	r3, [r7, #71]
 352 001a 0023     		movs	r3, #0
 353 001c 3B64     		str	r3, [r7, #64]
 354 001e 0023     		movs	r3, #0
 355 0020 3B63     		str	r3, [r7, #48]
 356 0022 0023     		movs	r3, #0
 357 0024 87F83F30 		strb	r3, [r7, #63]
 358 0028 0023     		movs	r3, #0
 359 002a BB87     		strh	r3, [r7, #60]	@ movhi
 360 002c 4FF00003 		mov	r3, #0
 361 0030 3B62     		str	r3, [r7, #32]	@ float
 362 0032 0023     		movs	r3, #0
 363 0034 FB62     		str	r3, [r7, #44]
 364 0036 07F10C03 		add	r3, r7, #12
 365 003a 0022     		movs	r2, #0
ARM GAS  /var/folders/d2/nstgp4h54kz7g1l847x_b8wc0000gn/T//ccVbBKId.s 			page 13


 366 003c 1A60     		str	r2, [r3]
 367 003e 5A60     		str	r2, [r3, #4]
 368 0040 9A60     		str	r2, [r3, #8]
 369 0042 DA60     		str	r2, [r3, #12]
 370 0044 C3F80F20 		str	r2, [r3, #15]	@ unaligned
 371 0048 FFF7FEFF 		bl	e_init_motors
 372 004c FFF7FEFF 		bl	getselector
 373 0050 0246     		mov	r2, r0
 374 0052 A94B     		ldr	r3, .L525
 375 0054 1A60     		str	r2, [r3]
 376 0056 A84B     		ldr	r3, .L525
 377 0058 1B68     		ldr	r3, [r3]
 378 005a 032B     		cmp	r3, #3
 379 005c 03D0     		beq	.L2
 380 005e A64B     		ldr	r3, .L525
 381 0060 1B68     		ldr	r3, [r3]
 382 0062 0F2B     		cmp	r3, #15
 383 0064 02D1     		bne	.L3
 384              	.L2:
 385 0066 0123     		movs	r3, #1
 386 0068 3B64     		str	r3, [r7, #64]
 387 006a 01E0     		b	.L4
 388              	.L3:
 389 006c 0023     		movs	r3, #0
 390 006e 3B64     		str	r3, [r7, #64]
 391              	.L4:
 392 0070 A14B     		ldr	r3, .L525
 393 0072 1B68     		ldr	r3, [r3]
 394 0074 0A2B     		cmp	r3, #10
 395 0076 03D1     		bne	.L5
 396 0078 0123     		movs	r3, #1
 397 007a 87F83F30 		strb	r3, [r7, #63]
 398 007e 02E0     		b	.L6
 399              	.L5:
 400 0080 0023     		movs	r3, #0
 401 0082 87F83F30 		strb	r3, [r7, #63]
 402              	.L6:
 403 0086 97F83F30 		ldrb	r3, [r7, #63]	@ zero_extendqisi2
 404 008a 002B     		cmp	r3, #0
 405 008c 01D1     		bne	.L7
 406 008e FFF7FEFF 		bl	e_i2cp_init
 407              	.L7:
 408 0092 FFF7FEFF 		bl	e_init_remote_control
 409 0096 0123     		movs	r3, #1
 410 0098 984A     		ldr	r2, .L525+4
 411 009a 4FF6FE71 		movw	r1, #65534
 412 009e 7F20     		movs	r0, #127
 413 00a0 FFF7FEFF 		bl	ReadEE
 414 00a4 964B     		ldr	r3, .L525+8
 415 00a6 0122     		movs	r2, #1
 416 00a8 1A60     		str	r2, [r3]
 417 00aa 964B     		ldr	r3, .L525+12
 418 00ac 2822     		movs	r2, #40
 419 00ae 1A60     		str	r2, [r3]
 420 00b0 954B     		ldr	r3, .L525+16
 421 00b2 2822     		movs	r2, #40
 422 00b4 1A60     		str	r2, [r3]
ARM GAS  /var/folders/d2/nstgp4h54kz7g1l847x_b8wc0000gn/T//ccVbBKId.s 			page 14


 423 00b6 954B     		ldr	r3, .L525+20
 424 00b8 0822     		movs	r2, #8
 425 00ba 1A60     		str	r2, [r3]
 426 00bc 914B     		ldr	r3, .L525+12
 427 00be 1B68     		ldr	r3, [r3]
 428 00c0 914A     		ldr	r2, .L525+16
 429 00c2 1268     		ldr	r2, [r2]
 430 00c4 02FB03F3 		mul	r3, r2, r3
 431 00c8 5B00     		lsls	r3, r3, #1
 432 00ca 914A     		ldr	r2, .L525+24
 433 00cc 1360     		str	r3, [r2]
 434 00ce 97F83F30 		ldrb	r3, [r7, #63]	@ zero_extendqisi2
 435 00d2 002B     		cmp	r3, #0
 436 00d4 3DD1     		bne	.L8
 437 00d6 884B     		ldr	r3, .L525
 438 00d8 1B68     		ldr	r3, [r3]
 439 00da 0F2B     		cmp	r3, #15
 440 00dc 39D0     		beq	.L8
 441 00de FFF7FEFF 		bl	e_poxxxx_init_cam
 442 00e2 884B     		ldr	r3, .L525+12
 443 00e4 1B68     		ldr	r3, [r3]
 444 00e6 894A     		ldr	r2, .L525+20
 445 00e8 1268     		ldr	r2, [r2]
 446 00ea 02FB03F3 		mul	r3, r2, r3
 447 00ee C3F52073 		rsb	r3, r3, #640
 448 00f2 DA0F     		lsrs	r2, r3, #31
 449 00f4 1344     		add	r3, r3, r2
 450 00f6 5B10     		asrs	r3, r3, #1
 451 00f8 1846     		mov	r0, r3
 452 00fa 834B     		ldr	r3, .L525+16
 453 00fc 1B68     		ldr	r3, [r3]
 454 00fe 834A     		ldr	r2, .L525+20
 455 0100 1268     		ldr	r2, [r2]
 456 0102 02FB03F3 		mul	r3, r2, r3
 457 0106 C3F5F073 		rsb	r3, r3, #480
 458 010a DA0F     		lsrs	r2, r3, #31
 459 010c 1344     		add	r3, r3, r2
 460 010e 5B10     		asrs	r3, r3, #1
 461 0110 1C46     		mov	r4, r3
 462 0112 7C4B     		ldr	r3, .L525+12
 463 0114 1B68     		ldr	r3, [r3]
 464 0116 7D4A     		ldr	r2, .L525+20
 465 0118 1268     		ldr	r2, [r2]
 466 011a 02FB03F3 		mul	r3, r2, r3
 467 011e 1D46     		mov	r5, r3
 468 0120 794B     		ldr	r3, .L525+16
 469 0122 1B68     		ldr	r3, [r3]
 470 0124 794A     		ldr	r2, .L525+20
 471 0126 1268     		ldr	r2, [r2]
 472 0128 02FB03F3 		mul	r3, r2, r3
 473 012c 1E46     		mov	r6, r3
 474 012e 774B     		ldr	r3, .L525+20
 475 0130 1B68     		ldr	r3, [r3]
 476 0132 1A46     		mov	r2, r3
 477 0134 754B     		ldr	r3, .L525+20
 478 0136 1B68     		ldr	r3, [r3]
 479 0138 1946     		mov	r1, r3
ARM GAS  /var/folders/d2/nstgp4h54kz7g1l847x_b8wc0000gn/T//ccVbBKId.s 			page 15


 480 013a 714B     		ldr	r3, .L525+8
 481 013c 1B68     		ldr	r3, [r3]
 482 013e 0293     		str	r3, [sp, #8]
 483 0140 0191     		str	r1, [sp, #4]
 484 0142 0092     		str	r2, [sp]
 485 0144 3346     		mov	r3, r6
 486 0146 2A46     		mov	r2, r5
 487 0148 2146     		mov	r1, r4
 488 014a FFF7FEFF 		bl	e_poxxxx_config_cam
 489 014e FFF7FEFF 		bl	e_poxxxx_write_cam_registers
 490              	.L8:
 491 0152 97F83F30 		ldrb	r3, [r7, #63]	@ zero_extendqisi2
 492 0156 002B     		cmp	r3, #0
 493 0158 1BD1     		bne	.L479
 494 015a 3B6C     		ldr	r3, [r7, #64]
 495 015c 002B     		cmp	r3, #0
 496 015e 0CD0     		beq	.L10
 497 0160 FFF7FEFF 		bl	e_acc_calibr
 498 0164 5821     		movs	r1, #88
 499 0166 6B48     		ldr	r0, .L525+28
 500 0168 FFF7FEFF 		bl	e_send_uart1_char
 501 016c 00BF     		nop
 502              	.L11:
 503 016e FFF7FEFF 		bl	e_uart1_sending
 504 0172 0346     		mov	r3, r0
 505 0174 002B     		cmp	r3, #0
 506 0176 FAD1     		bne	.L11
 507 0178 0BE0     		b	.L479
 508              	.L10:
 509 017a FFF7FEFF 		bl	e_acc_calibr
 510 017e 5821     		movs	r1, #88
 511 0180 6448     		ldr	r0, .L525+28
 512 0182 FFF7FEFF 		bl	e_send_uart2_char
 513 0186 00BF     		nop
 514              	.L12:
 515 0188 FFF7FEFF 		bl	e_uart2_sending
 516 018c 0346     		mov	r3, r0
 517 018e 002B     		cmp	r3, #0
 518 0190 FAD1     		bne	.L12
 519              	.L479:
 520 0192 97F83F30 		ldrb	r3, [r7, #63]	@ zero_extendqisi2
 521 0196 002B     		cmp	r3, #0
 522 0198 40F07381 		bne	.L13
 523 019c 3B6C     		ldr	r3, [r7, #64]
 524 019e 002B     		cmp	r3, #0
 525 01a0 00F06881 		beq	.L32
 526 01a4 A0E0     		b	.L15
 527              	.L31:
 528 01a6 FFF7FEFF 		bl	e_get_data
 529 01aa 0346     		mov	r3, r0
 530 01ac 87F83730 		strb	r3, [r7, #55]
 531 01b0 FFF7FEFF 		bl	e_get_address
 532 01b4 0346     		mov	r3, r0
 533 01b6 87F83630 		strb	r3, [r7, #54]
 534 01ba 97F83630 		ldrb	r3, [r7, #54]	@ zero_extendqisi2
 535 01be 002B     		cmp	r3, #0
 536 01c0 04D0     		beq	.L16
ARM GAS  /var/folders/d2/nstgp4h54kz7g1l847x_b8wc0000gn/T//ccVbBKId.s 			page 16


 537 01c2 97F83630 		ldrb	r3, [r7, #54]	@ zero_extendqisi2
 538 01c6 082B     		cmp	r3, #8
 539 01c8 40F08E80 		bne	.L15
 540              	.L16:
 541 01cc 97F83720 		ldrb	r2, [r7, #55]	@ zero_extendqisi2
 542 01d0 97F84730 		ldrb	r3, [r7, #71]	@ zero_extendqisi2
 543 01d4 9A42     		cmp	r2, r3
 544 01d6 00F08780 		beq	.L15
 545 01da 97F83730 		ldrb	r3, [r7, #55]	@ zero_extendqisi2
 546 01de 092B     		cmp	r3, #9
 547 01e0 6DD8     		bhi	.L17
 548 01e2 01A2     		adr	r2, .L19
 549 01e4 52F823F0 		ldr	pc, [r2, r3, lsl #2]
 550              		.p2align 2
 551              	.L19:
 552 01e8 9F020000 		.word	.L18+1
 553 01ec 11020000 		.word	.L20+1
 554 01f0 23020000 		.word	.L21+1
 555 01f4 35020000 		.word	.L22+1
 556 01f8 47020000 		.word	.L23+1
 557 01fc 57020000 		.word	.L24+1
 558 0200 65020000 		.word	.L25+1
 559 0204 75020000 		.word	.L26+1
 560 0208 83020000 		.word	.L27+1
 561 020c 91020000 		.word	.L28+1
 562              		.p2align 1
 563              	.L20:
 564 0210 414B     		ldr	r3, .L525+32
 565 0212 4FF41672 		mov	r2, #600
 566 0216 1A60     		str	r2, [r3]
 567 0218 404B     		ldr	r3, .L525+36
 568 021a 4FF49672 		mov	r2, #300
 569 021e 1A60     		str	r2, [r3]
 570 0220 54E0     		b	.L29
 571              	.L21:
 572 0222 3D4B     		ldr	r3, .L525+32
 573 0224 4FF41672 		mov	r2, #600
 574 0228 1A60     		str	r2, [r3]
 575 022a 3C4B     		ldr	r3, .L525+36
 576 022c 4FF41672 		mov	r2, #600
 577 0230 1A60     		str	r2, [r3]
 578 0232 4BE0     		b	.L29
 579              	.L22:
 580 0234 384B     		ldr	r3, .L525+32
 581 0236 4FF49672 		mov	r2, #300
 582 023a 1A60     		str	r2, [r3]
 583 023c 374B     		ldr	r3, .L525+36
 584 023e 4FF41672 		mov	r2, #600
 585 0242 1A60     		str	r2, [r3]
 586 0244 42E0     		b	.L29
 587              	.L23:
 588 0246 344B     		ldr	r3, .L525+32
 589 0248 4FF41672 		mov	r2, #600
 590 024c 1A60     		str	r2, [r3]
 591 024e 334B     		ldr	r3, .L525+36
 592 0250 334A     		ldr	r2, .L525+40
 593 0252 1A60     		str	r2, [r3]
ARM GAS  /var/folders/d2/nstgp4h54kz7g1l847x_b8wc0000gn/T//ccVbBKId.s 			page 17


 594 0254 3AE0     		b	.L29
 595              	.L24:
 596 0256 304B     		ldr	r3, .L525+32
 597 0258 0022     		movs	r2, #0
 598 025a 1A60     		str	r2, [r3]
 599 025c 2F4B     		ldr	r3, .L525+36
 600 025e 0022     		movs	r2, #0
 601 0260 1A60     		str	r2, [r3]
 602 0262 33E0     		b	.L29
 603              	.L25:
 604 0264 2C4B     		ldr	r3, .L525+32
 605 0266 2E4A     		ldr	r2, .L525+40
 606 0268 1A60     		str	r2, [r3]
 607 026a 2C4B     		ldr	r3, .L525+36
 608 026c 4FF41672 		mov	r2, #600
 609 0270 1A60     		str	r2, [r3]
 610 0272 2BE0     		b	.L29
 611              	.L26:
 612 0274 284B     		ldr	r3, .L525+32
 613 0276 2A4A     		ldr	r2, .L525+40
 614 0278 1A60     		str	r2, [r3]
 615 027a 284B     		ldr	r3, .L525+36
 616 027c 294A     		ldr	r2, .L525+44
 617 027e 1A60     		str	r2, [r3]
 618 0280 24E0     		b	.L29
 619              	.L27:
 620 0282 254B     		ldr	r3, .L525+32
 621 0284 264A     		ldr	r2, .L525+40
 622 0286 1A60     		str	r2, [r3]
 623 0288 244B     		ldr	r3, .L525+36
 624 028a 254A     		ldr	r2, .L525+40
 625 028c 1A60     		str	r2, [r3]
 626 028e 1DE0     		b	.L29
 627              	.L28:
 628 0290 214B     		ldr	r3, .L525+32
 629 0292 244A     		ldr	r2, .L525+44
 630 0294 1A60     		str	r2, [r3]
 631 0296 214B     		ldr	r3, .L525+36
 632 0298 214A     		ldr	r2, .L525+40
 633 029a 1A60     		str	r2, [r3]
 634 029c 16E0     		b	.L29
 635              	.L18:
 636 029e 224B     		ldr	r3, .L525+48
 637 02a0 1B78     		ldrb	r3, [r3]	@ zero_extendqisi2
 638 02a2 002B     		cmp	r3, #0
 639 02a4 04D1     		bne	.L30
 640 02a6 FFF7FEFF 		bl	e_init_sound
 641 02aa 1F4B     		ldr	r3, .L525+48
 642 02ac 0122     		movs	r2, #1
 643 02ae 1A70     		strb	r2, [r3]
 644              	.L30:
 645 02b0 41F65071 		movw	r1, #8016
 646 02b4 42F61430 		movw	r0, #11028
 647 02b8 FFF7FEFF 		bl	e_play_sound
 648 02bc 06E0     		b	.L29
 649              	.L17:
 650 02be 174B     		ldr	r3, .L525+36
ARM GAS  /var/folders/d2/nstgp4h54kz7g1l847x_b8wc0000gn/T//ccVbBKId.s 			page 18


 651 02c0 0022     		movs	r2, #0
 652 02c2 1A60     		str	r2, [r3]
 653 02c4 154B     		ldr	r3, .L525+36
 654 02c6 1B68     		ldr	r3, [r3]
 655 02c8 134A     		ldr	r2, .L525+32
 656 02ca 1360     		str	r3, [r2]
 657              	.L29:
 658 02cc 97F83730 		ldrb	r3, [r7, #55]
 659 02d0 87F84730 		strb	r3, [r7, #71]
 660 02d4 114B     		ldr	r3, .L525+36
 661 02d6 1B68     		ldr	r3, [r3]
 662 02d8 1846     		mov	r0, r3
 663 02da FFF7FEFF 		bl	e_set_speed_left
 664 02de 0E4B     		ldr	r3, .L525+32
 665 02e0 1B68     		ldr	r3, [r3]
 666 02e2 1846     		mov	r0, r3
 667 02e4 FFF7FEFF 		bl	e_set_speed_right
 668              	.L15:
 669 02e8 1048     		ldr	r0, .L525+52
 670 02ea FFF7FEFF 		bl	e_getchar_uart1
 671 02ee 0346     		mov	r3, r0
 672 02f0 002B     		cmp	r3, #0
 673 02f2 3FF458AF 		beq	.L31
 674 02f6 C4E0     		b	.L13
 675              	.L526:
 676              		.align	2
 677              	.L525:
 678 02f8 00000000 		.word	selector
 679 02fc 00000000 		.word	HWversion.13472
 680 0300 00000000 		.word	cam_mode.13448
 681 0304 00000000 		.word	cam_width.13449
 682 0308 00000000 		.word	cam_heigth.13450
 683 030c 00000000 		.word	cam_zoom.13451
 684 0310 00000000 		.word	cam_size.13452
 685 0314 00000000 		.word	.LC0
 686 0318 00000000 		.word	speedr.13435
 687 031c 00000000 		.word	speedl.13436
 688 0320 A8FDFFFF 		.word	-600
 689 0324 D4FEFFFF 		.word	-300
 690 0328 00000000 		.word	first.13455
 691 032c 00000000 		.word	c
 692              	.L48:
 693 0330 FFF7FEFF 		bl	e_get_data
 694 0334 0346     		mov	r3, r0
 695 0336 87F83730 		strb	r3, [r7, #55]
 696 033a FFF7FEFF 		bl	e_get_address
 697 033e 0346     		mov	r3, r0
 698 0340 87F83630 		strb	r3, [r7, #54]
 699 0344 97F83630 		ldrb	r3, [r7, #54]	@ zero_extendqisi2
 700 0348 002B     		cmp	r3, #0
 701 034a 04D0     		beq	.L33
 702 034c 97F83630 		ldrb	r3, [r7, #54]	@ zero_extendqisi2
 703 0350 082B     		cmp	r3, #8
 704 0352 40F08F80 		bne	.L32
 705              	.L33:
 706 0356 97F83720 		ldrb	r2, [r7, #55]	@ zero_extendqisi2
 707 035a 97F84730 		ldrb	r3, [r7, #71]	@ zero_extendqisi2
ARM GAS  /var/folders/d2/nstgp4h54kz7g1l847x_b8wc0000gn/T//ccVbBKId.s 			page 19


 708 035e 9A42     		cmp	r2, r3
 709 0360 00F08880 		beq	.L32
 710 0364 97F83730 		ldrb	r3, [r7, #55]	@ zero_extendqisi2
 711 0368 092B     		cmp	r3, #9
 712 036a 6ED8     		bhi	.L34
 713 036c 01A2     		adr	r2, .L36
 714 036e 52F823F0 		ldr	pc, [r2, r3, lsl #2]
 715 0372 00BF     		.p2align 2
 716              	.L36:
 717 0374 2B040000 		.word	.L35+1
 718 0378 9D030000 		.word	.L37+1
 719 037c AF030000 		.word	.L38+1
 720 0380 C1030000 		.word	.L39+1
 721 0384 D3030000 		.word	.L40+1
 722 0388 E3030000 		.word	.L41+1
 723 038c F1030000 		.word	.L42+1
 724 0390 01040000 		.word	.L43+1
 725 0394 0F040000 		.word	.L44+1
 726 0398 1D040000 		.word	.L45+1
 727              		.p2align 1
 728              	.L37:
 729 039c BF4B     		ldr	r3, .L527
 730 039e 4FF41672 		mov	r2, #600
 731 03a2 1A60     		str	r2, [r3]
 732 03a4 BE4B     		ldr	r3, .L527+4
 733 03a6 4FF49672 		mov	r2, #300
 734 03aa 1A60     		str	r2, [r3]
 735 03ac 54E0     		b	.L46
 736              	.L38:
 737 03ae BB4B     		ldr	r3, .L527
 738 03b0 4FF41672 		mov	r2, #600
 739 03b4 1A60     		str	r2, [r3]
 740 03b6 BA4B     		ldr	r3, .L527+4
 741 03b8 4FF41672 		mov	r2, #600
 742 03bc 1A60     		str	r2, [r3]
 743 03be 4BE0     		b	.L46
 744              	.L39:
 745 03c0 B64B     		ldr	r3, .L527
 746 03c2 4FF49672 		mov	r2, #300
 747 03c6 1A60     		str	r2, [r3]
 748 03c8 B54B     		ldr	r3, .L527+4
 749 03ca 4FF41672 		mov	r2, #600
 750 03ce 1A60     		str	r2, [r3]
 751 03d0 42E0     		b	.L46
 752              	.L40:
 753 03d2 B24B     		ldr	r3, .L527
 754 03d4 4FF41672 		mov	r2, #600
 755 03d8 1A60     		str	r2, [r3]
 756 03da B14B     		ldr	r3, .L527+4
 757 03dc B14A     		ldr	r2, .L527+8
 758 03de 1A60     		str	r2, [r3]
 759 03e0 3AE0     		b	.L46
 760              	.L41:
 761 03e2 AE4B     		ldr	r3, .L527
 762 03e4 0022     		movs	r2, #0
 763 03e6 1A60     		str	r2, [r3]
 764 03e8 AD4B     		ldr	r3, .L527+4
ARM GAS  /var/folders/d2/nstgp4h54kz7g1l847x_b8wc0000gn/T//ccVbBKId.s 			page 20


 765 03ea 0022     		movs	r2, #0
 766 03ec 1A60     		str	r2, [r3]
 767 03ee 33E0     		b	.L46
 768              	.L42:
 769 03f0 AA4B     		ldr	r3, .L527
 770 03f2 AC4A     		ldr	r2, .L527+8
 771 03f4 1A60     		str	r2, [r3]
 772 03f6 AA4B     		ldr	r3, .L527+4
 773 03f8 4FF41672 		mov	r2, #600
 774 03fc 1A60     		str	r2, [r3]
 775 03fe 2BE0     		b	.L46
 776              	.L43:
 777 0400 A64B     		ldr	r3, .L527
 778 0402 A84A     		ldr	r2, .L527+8
 779 0404 1A60     		str	r2, [r3]
 780 0406 A64B     		ldr	r3, .L527+4
 781 0408 A74A     		ldr	r2, .L527+12
 782 040a 1A60     		str	r2, [r3]
 783 040c 24E0     		b	.L46
 784              	.L44:
 785 040e A34B     		ldr	r3, .L527
 786 0410 A44A     		ldr	r2, .L527+8
 787 0412 1A60     		str	r2, [r3]
 788 0414 A24B     		ldr	r3, .L527+4
 789 0416 A34A     		ldr	r2, .L527+8
 790 0418 1A60     		str	r2, [r3]
 791 041a 1DE0     		b	.L46
 792              	.L45:
 793 041c 9F4B     		ldr	r3, .L527
 794 041e A24A     		ldr	r2, .L527+12
 795 0420 1A60     		str	r2, [r3]
 796 0422 9F4B     		ldr	r3, .L527+4
 797 0424 9F4A     		ldr	r2, .L527+8
 798 0426 1A60     		str	r2, [r3]
 799 0428 16E0     		b	.L46
 800              	.L35:
 801 042a A04B     		ldr	r3, .L527+16
 802 042c 1B78     		ldrb	r3, [r3]	@ zero_extendqisi2
 803 042e 002B     		cmp	r3, #0
 804 0430 04D1     		bne	.L47
 805 0432 FFF7FEFF 		bl	e_init_sound
 806 0436 9D4B     		ldr	r3, .L527+16
 807 0438 0122     		movs	r2, #1
 808 043a 1A70     		strb	r2, [r3]
 809              	.L47:
 810 043c 41F65071 		movw	r1, #8016
 811 0440 42F61430 		movw	r0, #11028
 812 0444 FFF7FEFF 		bl	e_play_sound
 813 0448 06E0     		b	.L46
 814              	.L34:
 815 044a 954B     		ldr	r3, .L527+4
 816 044c 0022     		movs	r2, #0
 817 044e 1A60     		str	r2, [r3]
 818 0450 934B     		ldr	r3, .L527+4
 819 0452 1B68     		ldr	r3, [r3]
 820 0454 914A     		ldr	r2, .L527
 821 0456 1360     		str	r3, [r2]
ARM GAS  /var/folders/d2/nstgp4h54kz7g1l847x_b8wc0000gn/T//ccVbBKId.s 			page 21


 822              	.L46:
 823 0458 97F83730 		ldrb	r3, [r7, #55]
 824 045c 87F84730 		strb	r3, [r7, #71]
 825 0460 8F4B     		ldr	r3, .L527+4
 826 0462 1B68     		ldr	r3, [r3]
 827 0464 1846     		mov	r0, r3
 828 0466 FFF7FEFF 		bl	e_set_speed_left
 829 046a 8C4B     		ldr	r3, .L527
 830 046c 1B68     		ldr	r3, [r3]
 831 046e 1846     		mov	r0, r3
 832 0470 FFF7FEFF 		bl	e_set_speed_right
 833              	.L32:
 834 0474 8E48     		ldr	r0, .L527+20
 835 0476 FFF7FEFF 		bl	e_getchar_uart2
 836 047a 0346     		mov	r3, r0
 837 047c 002B     		cmp	r3, #0
 838 047e 3FF457AF 		beq	.L48
 839              	.L13:
 840 0482 8B4B     		ldr	r3, .L527+20
 841 0484 1B78     		ldrb	r3, [r3]	@ zero_extendqisi2
 842 0486 5BB2     		sxtb	r3, r3
 843 0488 002B     		cmp	r3, #0
 844 048a 81F27A85 		bge	.L49
 845 048e 894B     		ldr	r3, .L527+24
 846 0490 0022     		movs	r2, #0
 847 0492 1A60     		str	r2, [r3]
 848              	.L216:
 849 0494 864B     		ldr	r3, .L527+20
 850 0496 1B78     		ldrb	r3, [r3]	@ zero_extendqisi2
 851 0498 5B42     		negs	r3, r3
 852 049a DBB2     		uxtb	r3, r3
 853 049c 5BB2     		sxtb	r3, r3
 854 049e 083B     		subs	r3, r3, #8
 855 04a0 6F2B     		cmp	r3, #111
 856 04a2 01F20685 		bhi	.L481
 857 04a6 01A2     		adr	r2, .L52
 858 04a8 52F823F0 		ldr	pc, [r2, r3, lsl #2]
 859              		.p2align 2
 860              	.L52:
 861 04ac 6D060000 		.word	.L51+1
 862 04b0 CD0E0000 		.word	.L53+1
 863 04b4 D5100000 		.word	.L54+1
 864 04b8 97110000 		.word	.L55+1
 865 04bc B1110000 		.word	.L56+1
 866 04c0 8D120000 		.word	.L57+1
 867 04c4 F3120000 		.word	.L58+1
 868 04c8 B31E0000 		.word	.L481+1
 869 04cc B31E0000 		.word	.L481+1
 870 04d0 B31E0000 		.word	.L481+1
 871 04d4 B31E0000 		.word	.L481+1
 872 04d8 B31E0000 		.word	.L481+1
 873 04dc B31E0000 		.word	.L481+1
 874 04e0 B31E0000 		.word	.L481+1
 875 04e4 B31E0000 		.word	.L481+1
 876 04e8 B31E0000 		.word	.L481+1
 877 04ec B31E0000 		.word	.L481+1
 878 04f0 B31E0000 		.word	.L481+1
ARM GAS  /var/folders/d2/nstgp4h54kz7g1l847x_b8wc0000gn/T//ccVbBKId.s 			page 22


 879 04f4 B31E0000 		.word	.L481+1
 880 04f8 B31E0000 		.word	.L481+1
 881 04fc B31E0000 		.word	.L481+1
 882 0500 B31E0000 		.word	.L481+1
 883 0504 B31E0000 		.word	.L481+1
 884 0508 B31E0000 		.word	.L481+1
 885 050c B31E0000 		.word	.L481+1
 886 0510 B31E0000 		.word	.L481+1
 887 0514 B31E0000 		.word	.L481+1
 888 0518 B31E0000 		.word	.L481+1
 889 051c B31E0000 		.word	.L481+1
 890 0520 B31E0000 		.word	.L481+1
 891 0524 B31E0000 		.word	.L481+1
 892 0528 B31E0000 		.word	.L481+1
 893 052c B31E0000 		.word	.L481+1
 894 0530 B31E0000 		.word	.L481+1
 895 0534 B31E0000 		.word	.L481+1
 896 0538 B31E0000 		.word	.L481+1
 897 053c B31E0000 		.word	.L481+1
 898 0540 B31E0000 		.word	.L481+1
 899 0544 B31E0000 		.word	.L481+1
 900 0548 B31E0000 		.word	.L481+1
 901 054c B31E0000 		.word	.L481+1
 902 0550 B31E0000 		.word	.L481+1
 903 0554 B31E0000 		.word	.L481+1
 904 0558 B31E0000 		.word	.L481+1
 905 055c B31E0000 		.word	.L481+1
 906 0560 B31E0000 		.word	.L481+1
 907 0564 B31E0000 		.word	.L481+1
 908 0568 B31E0000 		.word	.L481+1
 909 056c B31E0000 		.word	.L481+1
 910 0570 B31E0000 		.word	.L481+1
 911 0574 B31E0000 		.word	.L481+1
 912 0578 B31E0000 		.word	.L481+1
 913 057c B31E0000 		.word	.L481+1
 914 0580 B31E0000 		.word	.L481+1
 915 0584 B31E0000 		.word	.L481+1
 916 0588 B31E0000 		.word	.L481+1
 917 058c B31E0000 		.word	.L481+1
 918 0590 2D140000 		.word	.L59+1
 919 0594 B31E0000 		.word	.L481+1
 920 0598 B31E0000 		.word	.L481+1
 921 059c BB150000 		.word	.L60+1
 922 05a0 B5160000 		.word	.L61+1
 923 05a4 B31E0000 		.word	.L481+1
 924 05a8 B31E0000 		.word	.L481+1
 925 05ac B31E0000 		.word	.L481+1
 926 05b0 FF170000 		.word	.L62+1
 927 05b4 B31E0000 		.word	.L481+1
 928 05b8 B31E0000 		.word	.L481+1
 929 05bc A9180000 		.word	.L63+1
 930 05c0 2D190000 		.word	.L64+1
 931 05c4 E1190000 		.word	.L65+1
 932 05c8 371A0000 		.word	.L66+1
 933 05cc 8D1A0000 		.word	.L67+1
 934 05d0 771B0000 		.word	.L68+1
 935 05d4 B31E0000 		.word	.L481+1
ARM GAS  /var/folders/d2/nstgp4h54kz7g1l847x_b8wc0000gn/T//ccVbBKId.s 			page 23


 936 05d8 B31E0000 		.word	.L481+1
 937 05dc B31E0000 		.word	.L481+1
 938 05e0 B31E0000 		.word	.L481+1
 939 05e4 B31E0000 		.word	.L481+1
 940 05e8 B91C0000 		.word	.L70+1
 941 05ec B31E0000 		.word	.L481+1
 942 05f0 B31E0000 		.word	.L481+1
 943 05f4 B31E0000 		.word	.L481+1
 944 05f8 B31E0000 		.word	.L481+1
 945 05fc B31E0000 		.word	.L481+1
 946 0600 B31E0000 		.word	.L481+1
 947 0604 B31E0000 		.word	.L481+1
 948 0608 B31E0000 		.word	.L481+1
 949 060c B31E0000 		.word	.L481+1
 950 0610 43130000 		.word	.L71+1
 951 0614 8B150000 		.word	.L72+1
 952 0618 B31E0000 		.word	.L481+1
 953 061c B31E0000 		.word	.L481+1
 954 0620 B31E0000 		.word	.L481+1
 955 0624 B31E0000 		.word	.L481+1
 956 0628 0B170000 		.word	.L73+1
 957 062c B31E0000 		.word	.L481+1
 958 0630 B31E0000 		.word	.L481+1
 959 0634 B31E0000 		.word	.L481+1
 960 0638 B31E0000 		.word	.L481+1
 961 063c B31E0000 		.word	.L481+1
 962 0640 B31E0000 		.word	.L481+1
 963 0644 B31E0000 		.word	.L481+1
 964 0648 B31E0000 		.word	.L481+1
 965 064c B31E0000 		.word	.L481+1
 966 0650 B31E0000 		.word	.L481+1
 967 0654 B31E0000 		.word	.L481+1
 968 0658 B31E0000 		.word	.L481+1
 969 065c E11B0000 		.word	.L74+1
 970 0660 151C0000 		.word	.L75+1
 971 0664 B31E0000 		.word	.L481+1
 972 0668 411D0000 		.word	.L76+1
 973              		.p2align 1
 974              	.L51:
 975 066c 97F83F30 		ldrb	r3, [r7, #63]	@ zero_extendqisi2
 976 0670 002B     		cmp	r3, #0
 977 0672 27D1     		bne	.L77
 978 0674 0020     		movs	r0, #0
 979 0676 FFF7FEFF 		bl	e_get_acc
 980 067a 0246     		mov	r2, r0
 981 067c 0E4B     		ldr	r3, .L527+28
 982 067e 1A60     		str	r2, [r3]
 983 0680 0120     		movs	r0, #1
 984 0682 FFF7FEFF 		bl	e_get_acc
 985 0686 0246     		mov	r2, r0
 986 0688 0C4B     		ldr	r3, .L527+32
 987 068a 1A60     		str	r2, [r3]
 988 068c 0220     		movs	r0, #2
 989 068e FFF7FEFF 		bl	e_get_acc
 990 0692 0246     		mov	r2, r0
 991 0694 0A4B     		ldr	r3, .L527+36
 992 0696 1A60     		str	r2, [r3]
ARM GAS  /var/folders/d2/nstgp4h54kz7g1l847x_b8wc0000gn/T//ccVbBKId.s 			page 24


 993 0698 1DE0     		b	.L78
 994              	.L528:
 995 069a 00BF     		.align	2
 996              	.L527:
 997 069c 00000000 		.word	speedr.13435
 998 06a0 00000000 		.word	speedl.13436
 999 06a4 A8FDFFFF 		.word	-600
 1000 06a8 D4FEFFFF 		.word	-300
 1001 06ac 00000000 		.word	first.13455
 1002 06b0 00000000 		.word	c
 1003 06b4 00000000 		.word	i.13432
 1004 06b8 00000000 		.word	accx.13441
 1005 06bc 00000000 		.word	accy.13442
 1006 06c0 00000000 		.word	accz.13443
 1007              	.L77:
 1008 06c4 2D4B     		ldr	r3, .L529
 1009 06c6 0022     		movs	r2, #0
 1010 06c8 1A60     		str	r2, [r3]
 1011 06ca 2D4B     		ldr	r3, .L529+4
 1012 06cc 0022     		movs	r2, #0
 1013 06ce 1A60     		str	r2, [r3]
 1014 06d0 2C4B     		ldr	r3, .L529+8
 1015 06d2 0022     		movs	r2, #0
 1016 06d4 1A60     		str	r2, [r3]
 1017              	.L78:
 1018 06d6 294B     		ldr	r3, .L529
 1019 06d8 1868     		ldr	r0, [r3]
 1020 06da 2B4B     		ldr	r3, .L529+12
 1021 06dc 1B68     		ldr	r3, [r3]
 1022 06de 5A1C     		adds	r2, r3, #1
 1023 06e0 2949     		ldr	r1, .L529+12
 1024 06e2 0A60     		str	r2, [r1]
 1025 06e4 C1B2     		uxtb	r1, r0
 1026 06e6 294A     		ldr	r2, .L529+16
 1027 06e8 D154     		strb	r1, [r2, r3]
 1028 06ea 244B     		ldr	r3, .L529
 1029 06ec 1B68     		ldr	r3, [r3]
 1030 06ee 1812     		asrs	r0, r3, #8
 1031 06f0 254B     		ldr	r3, .L529+12
 1032 06f2 1B68     		ldr	r3, [r3]
 1033 06f4 5A1C     		adds	r2, r3, #1
 1034 06f6 2449     		ldr	r1, .L529+12
 1035 06f8 0A60     		str	r2, [r1]
 1036 06fa C1B2     		uxtb	r1, r0
 1037 06fc 234A     		ldr	r2, .L529+16
 1038 06fe D154     		strb	r1, [r2, r3]
 1039 0700 1F4B     		ldr	r3, .L529+4
 1040 0702 1868     		ldr	r0, [r3]
 1041 0704 204B     		ldr	r3, .L529+12
 1042 0706 1B68     		ldr	r3, [r3]
 1043 0708 5A1C     		adds	r2, r3, #1
 1044 070a 1F49     		ldr	r1, .L529+12
 1045 070c 0A60     		str	r2, [r1]
 1046 070e C1B2     		uxtb	r1, r0
 1047 0710 1E4A     		ldr	r2, .L529+16
 1048 0712 D154     		strb	r1, [r2, r3]
 1049 0714 1A4B     		ldr	r3, .L529+4
ARM GAS  /var/folders/d2/nstgp4h54kz7g1l847x_b8wc0000gn/T//ccVbBKId.s 			page 25


 1050 0716 1B68     		ldr	r3, [r3]
 1051 0718 1812     		asrs	r0, r3, #8
 1052 071a 1B4B     		ldr	r3, .L529+12
 1053 071c 1B68     		ldr	r3, [r3]
 1054 071e 5A1C     		adds	r2, r3, #1
 1055 0720 1949     		ldr	r1, .L529+12
 1056 0722 0A60     		str	r2, [r1]
 1057 0724 C1B2     		uxtb	r1, r0
 1058 0726 194A     		ldr	r2, .L529+16
 1059 0728 D154     		strb	r1, [r2, r3]
 1060 072a 164B     		ldr	r3, .L529+8
 1061 072c 1868     		ldr	r0, [r3]
 1062 072e 164B     		ldr	r3, .L529+12
 1063 0730 1B68     		ldr	r3, [r3]
 1064 0732 5A1C     		adds	r2, r3, #1
 1065 0734 1449     		ldr	r1, .L529+12
 1066 0736 0A60     		str	r2, [r1]
 1067 0738 C1B2     		uxtb	r1, r0
 1068 073a 144A     		ldr	r2, .L529+16
 1069 073c D154     		strb	r1, [r2, r3]
 1070 073e 114B     		ldr	r3, .L529+8
 1071 0740 1B68     		ldr	r3, [r3]
 1072 0742 1812     		asrs	r0, r3, #8
 1073 0744 104B     		ldr	r3, .L529+12
 1074 0746 1B68     		ldr	r3, [r3]
 1075 0748 5A1C     		adds	r2, r3, #1
 1076 074a 0F49     		ldr	r1, .L529+12
 1077 074c 0A60     		str	r2, [r1]
 1078 074e C1B2     		uxtb	r1, r0
 1079 0750 0E4A     		ldr	r2, .L529+16
 1080 0752 D154     		strb	r1, [r2, r3]
 1081 0754 97F83F30 		ldrb	r3, [r7, #63]	@ zero_extendqisi2
 1082 0758 002B     		cmp	r3, #0
 1083 075a 1BD1     		bne	.L79
 1084 075c FFF7FEFF 		bl	e_read_acc_spheric
 1085 0760 F0EE406A 		vmov.f32	s13, s0
 1086 0764 B0EE607A 		vmov.f32	s14, s1
 1087 0768 F0EE417A 		vmov.f32	s15, s2
 1088 076c 084B     		ldr	r3, .L529+20
 1089 076e C3ED006A 		vstr.32	s13, [r3]
 1090 0772 83ED017A 		vstr.32	s14, [r3, #4]
 1091 0776 C3ED027A 		vstr.32	s15, [r3, #8]
 1092 077a 17E0     		b	.L80
 1093              	.L530:
 1094              		.align	2
 1095              	.L529:
 1096 077c 00000000 		.word	accx.13441
 1097 0780 00000000 		.word	accy.13442
 1098 0784 00000000 		.word	accz.13443
 1099 0788 00000000 		.word	i.13432
 1100 078c 00000000 		.word	buffer
 1101 0790 00000000 		.word	accelero.13464
 1102              	.L79:
 1103 0794 8A4B     		ldr	r3, .L531
 1104 0796 4FF00002 		mov	r2, #0
 1105 079a 1A60     		str	r2, [r3]	@ float
 1106 079c 884B     		ldr	r3, .L531
ARM GAS  /var/folders/d2/nstgp4h54kz7g1l847x_b8wc0000gn/T//ccVbBKId.s 			page 26


 1107 079e 4FF00002 		mov	r2, #0
 1108 07a2 9A60     		str	r2, [r3, #8]	@ float
 1109 07a4 864B     		ldr	r3, .L531
 1110 07a6 4FF00002 		mov	r2, #0
 1111 07aa 5A60     		str	r2, [r3, #4]	@ float
 1112              	.L80:
 1113 07ac 844B     		ldr	r3, .L531
 1114 07ae 7B62     		str	r3, [r7, #36]
 1115 07b0 844B     		ldr	r3, .L531+4
 1116 07b2 1B68     		ldr	r3, [r3]
 1117 07b4 5A1C     		adds	r2, r3, #1
 1118 07b6 8349     		ldr	r1, .L531+4
 1119 07b8 0A60     		str	r2, [r1]
 1120 07ba 7A6A     		ldr	r2, [r7, #36]
 1121 07bc 1178     		ldrb	r1, [r2]	@ zero_extendqisi2
 1122 07be 824A     		ldr	r2, .L531+8
 1123 07c0 D154     		strb	r1, [r2, r3]
 1124 07c2 7B6A     		ldr	r3, [r7, #36]
 1125 07c4 0133     		adds	r3, r3, #1
 1126 07c6 7B62     		str	r3, [r7, #36]
 1127 07c8 7E4B     		ldr	r3, .L531+4
 1128 07ca 1B68     		ldr	r3, [r3]
 1129 07cc 5A1C     		adds	r2, r3, #1
 1130 07ce 7D49     		ldr	r1, .L531+4
 1131 07d0 0A60     		str	r2, [r1]
 1132 07d2 7A6A     		ldr	r2, [r7, #36]
 1133 07d4 1178     		ldrb	r1, [r2]	@ zero_extendqisi2
 1134 07d6 7C4A     		ldr	r2, .L531+8
 1135 07d8 D154     		strb	r1, [r2, r3]
 1136 07da 7B6A     		ldr	r3, [r7, #36]
 1137 07dc 0133     		adds	r3, r3, #1
 1138 07de 7B62     		str	r3, [r7, #36]
 1139 07e0 784B     		ldr	r3, .L531+4
 1140 07e2 1B68     		ldr	r3, [r3]
 1141 07e4 5A1C     		adds	r2, r3, #1
 1142 07e6 7749     		ldr	r1, .L531+4
 1143 07e8 0A60     		str	r2, [r1]
 1144 07ea 7A6A     		ldr	r2, [r7, #36]
 1145 07ec 1178     		ldrb	r1, [r2]	@ zero_extendqisi2
 1146 07ee 764A     		ldr	r2, .L531+8
 1147 07f0 D154     		strb	r1, [r2, r3]
 1148 07f2 7B6A     		ldr	r3, [r7, #36]
 1149 07f4 0133     		adds	r3, r3, #1
 1150 07f6 7B62     		str	r3, [r7, #36]
 1151 07f8 724B     		ldr	r3, .L531+4
 1152 07fa 1B68     		ldr	r3, [r3]
 1153 07fc 5A1C     		adds	r2, r3, #1
 1154 07fe 7149     		ldr	r1, .L531+4
 1155 0800 0A60     		str	r2, [r1]
 1156 0802 7A6A     		ldr	r2, [r7, #36]
 1157 0804 1178     		ldrb	r1, [r2]	@ zero_extendqisi2
 1158 0806 704A     		ldr	r2, .L531+8
 1159 0808 D154     		strb	r1, [r2, r3]
 1160 080a 704B     		ldr	r3, .L531+12
 1161 080c 7B62     		str	r3, [r7, #36]
 1162 080e 6D4B     		ldr	r3, .L531+4
 1163 0810 1B68     		ldr	r3, [r3]
ARM GAS  /var/folders/d2/nstgp4h54kz7g1l847x_b8wc0000gn/T//ccVbBKId.s 			page 27


 1164 0812 5A1C     		adds	r2, r3, #1
 1165 0814 6B49     		ldr	r1, .L531+4
 1166 0816 0A60     		str	r2, [r1]
 1167 0818 7A6A     		ldr	r2, [r7, #36]
 1168 081a 1178     		ldrb	r1, [r2]	@ zero_extendqisi2
 1169 081c 6A4A     		ldr	r2, .L531+8
 1170 081e D154     		strb	r1, [r2, r3]
 1171 0820 7B6A     		ldr	r3, [r7, #36]
 1172 0822 0133     		adds	r3, r3, #1
 1173 0824 7B62     		str	r3, [r7, #36]
 1174 0826 674B     		ldr	r3, .L531+4
 1175 0828 1B68     		ldr	r3, [r3]
 1176 082a 5A1C     		adds	r2, r3, #1
 1177 082c 6549     		ldr	r1, .L531+4
 1178 082e 0A60     		str	r2, [r1]
 1179 0830 7A6A     		ldr	r2, [r7, #36]
 1180 0832 1178     		ldrb	r1, [r2]	@ zero_extendqisi2
 1181 0834 644A     		ldr	r2, .L531+8
 1182 0836 D154     		strb	r1, [r2, r3]
 1183 0838 7B6A     		ldr	r3, [r7, #36]
 1184 083a 0133     		adds	r3, r3, #1
 1185 083c 7B62     		str	r3, [r7, #36]
 1186 083e 614B     		ldr	r3, .L531+4
 1187 0840 1B68     		ldr	r3, [r3]
 1188 0842 5A1C     		adds	r2, r3, #1
 1189 0844 5F49     		ldr	r1, .L531+4
 1190 0846 0A60     		str	r2, [r1]
 1191 0848 7A6A     		ldr	r2, [r7, #36]
 1192 084a 1178     		ldrb	r1, [r2]	@ zero_extendqisi2
 1193 084c 5E4A     		ldr	r2, .L531+8
 1194 084e D154     		strb	r1, [r2, r3]
 1195 0850 7B6A     		ldr	r3, [r7, #36]
 1196 0852 0133     		adds	r3, r3, #1
 1197 0854 7B62     		str	r3, [r7, #36]
 1198 0856 5B4B     		ldr	r3, .L531+4
 1199 0858 1B68     		ldr	r3, [r3]
 1200 085a 5A1C     		adds	r2, r3, #1
 1201 085c 5949     		ldr	r1, .L531+4
 1202 085e 0A60     		str	r2, [r1]
 1203 0860 7A6A     		ldr	r2, [r7, #36]
 1204 0862 1178     		ldrb	r1, [r2]	@ zero_extendqisi2
 1205 0864 584A     		ldr	r2, .L531+8
 1206 0866 D154     		strb	r1, [r2, r3]
 1207 0868 594B     		ldr	r3, .L531+16
 1208 086a 7B62     		str	r3, [r7, #36]
 1209 086c 554B     		ldr	r3, .L531+4
 1210 086e 1B68     		ldr	r3, [r3]
 1211 0870 5A1C     		adds	r2, r3, #1
 1212 0872 5449     		ldr	r1, .L531+4
 1213 0874 0A60     		str	r2, [r1]
 1214 0876 7A6A     		ldr	r2, [r7, #36]
 1215 0878 1178     		ldrb	r1, [r2]	@ zero_extendqisi2
 1216 087a 534A     		ldr	r2, .L531+8
 1217 087c D154     		strb	r1, [r2, r3]
 1218 087e 7B6A     		ldr	r3, [r7, #36]
 1219 0880 0133     		adds	r3, r3, #1
 1220 0882 7B62     		str	r3, [r7, #36]
ARM GAS  /var/folders/d2/nstgp4h54kz7g1l847x_b8wc0000gn/T//ccVbBKId.s 			page 28


 1221 0884 4F4B     		ldr	r3, .L531+4
 1222 0886 1B68     		ldr	r3, [r3]
 1223 0888 5A1C     		adds	r2, r3, #1
 1224 088a 4E49     		ldr	r1, .L531+4
 1225 088c 0A60     		str	r2, [r1]
 1226 088e 7A6A     		ldr	r2, [r7, #36]
 1227 0890 1178     		ldrb	r1, [r2]	@ zero_extendqisi2
 1228 0892 4D4A     		ldr	r2, .L531+8
 1229 0894 D154     		strb	r1, [r2, r3]
 1230 0896 7B6A     		ldr	r3, [r7, #36]
 1231 0898 0133     		adds	r3, r3, #1
 1232 089a 7B62     		str	r3, [r7, #36]
 1233 089c 494B     		ldr	r3, .L531+4
 1234 089e 1B68     		ldr	r3, [r3]
 1235 08a0 5A1C     		adds	r2, r3, #1
 1236 08a2 4849     		ldr	r1, .L531+4
 1237 08a4 0A60     		str	r2, [r1]
 1238 08a6 7A6A     		ldr	r2, [r7, #36]
 1239 08a8 1178     		ldrb	r1, [r2]	@ zero_extendqisi2
 1240 08aa 474A     		ldr	r2, .L531+8
 1241 08ac D154     		strb	r1, [r2, r3]
 1242 08ae 7B6A     		ldr	r3, [r7, #36]
 1243 08b0 0133     		adds	r3, r3, #1
 1244 08b2 7B62     		str	r3, [r7, #36]
 1245 08b4 434B     		ldr	r3, .L531+4
 1246 08b6 1B68     		ldr	r3, [r3]
 1247 08b8 5A1C     		adds	r2, r3, #1
 1248 08ba 4249     		ldr	r1, .L531+4
 1249 08bc 0A60     		str	r2, [r1]
 1250 08be 7A6A     		ldr	r2, [r7, #36]
 1251 08c0 1178     		ldrb	r1, [r2]	@ zero_extendqisi2
 1252 08c2 414A     		ldr	r2, .L531+8
 1253 08c4 D154     		strb	r1, [r2, r3]
 1254 08c6 97F83F30 		ldrb	r3, [r7, #63]	@ zero_extendqisi2
 1255 08ca 002B     		cmp	r3, #0
 1256 08cc 44D1     		bne	.L81
 1257 08ce 414A     		ldr	r2, .L531+20
 1258 08d0 4149     		ldr	r1, .L531+24
 1259 08d2 4248     		ldr	r0, .L531+28
 1260 08d4 FFF7FEFF 		bl	getAllAxesGyro
 1261 08d8 404B     		ldr	r3, .L531+28
 1262 08da 1868     		ldr	r0, [r3]
 1263 08dc 394B     		ldr	r3, .L531+4
 1264 08de 1B68     		ldr	r3, [r3]
 1265 08e0 5A1C     		adds	r2, r3, #1
 1266 08e2 3849     		ldr	r1, .L531+4
 1267 08e4 0A60     		str	r2, [r1]
 1268 08e6 C1B2     		uxtb	r1, r0
 1269 08e8 374A     		ldr	r2, .L531+8
 1270 08ea D154     		strb	r1, [r2, r3]
 1271 08ec 3B4B     		ldr	r3, .L531+28
 1272 08ee 1B68     		ldr	r3, [r3]
 1273 08f0 1812     		asrs	r0, r3, #8
 1274 08f2 344B     		ldr	r3, .L531+4
 1275 08f4 1B68     		ldr	r3, [r3]
 1276 08f6 5A1C     		adds	r2, r3, #1
 1277 08f8 3249     		ldr	r1, .L531+4
ARM GAS  /var/folders/d2/nstgp4h54kz7g1l847x_b8wc0000gn/T//ccVbBKId.s 			page 29


 1278 08fa 0A60     		str	r2, [r1]
 1279 08fc C1B2     		uxtb	r1, r0
 1280 08fe 324A     		ldr	r2, .L531+8
 1281 0900 D154     		strb	r1, [r2, r3]
 1282 0902 354B     		ldr	r3, .L531+24
 1283 0904 1868     		ldr	r0, [r3]
 1284 0906 2F4B     		ldr	r3, .L531+4
 1285 0908 1B68     		ldr	r3, [r3]
 1286 090a 5A1C     		adds	r2, r3, #1
 1287 090c 2D49     		ldr	r1, .L531+4
 1288 090e 0A60     		str	r2, [r1]
 1289 0910 C1B2     		uxtb	r1, r0
 1290 0912 2D4A     		ldr	r2, .L531+8
 1291 0914 D154     		strb	r1, [r2, r3]
 1292 0916 304B     		ldr	r3, .L531+24
 1293 0918 1B68     		ldr	r3, [r3]
 1294 091a 1812     		asrs	r0, r3, #8
 1295 091c 294B     		ldr	r3, .L531+4
 1296 091e 1B68     		ldr	r3, [r3]
 1297 0920 5A1C     		adds	r2, r3, #1
 1298 0922 2849     		ldr	r1, .L531+4
 1299 0924 0A60     		str	r2, [r1]
 1300 0926 C1B2     		uxtb	r1, r0
 1301 0928 274A     		ldr	r2, .L531+8
 1302 092a D154     		strb	r1, [r2, r3]
 1303 092c 294B     		ldr	r3, .L531+20
 1304 092e 1868     		ldr	r0, [r3]
 1305 0930 244B     		ldr	r3, .L531+4
 1306 0932 1B68     		ldr	r3, [r3]
 1307 0934 5A1C     		adds	r2, r3, #1
 1308 0936 2349     		ldr	r1, .L531+4
 1309 0938 0A60     		str	r2, [r1]
 1310 093a C1B2     		uxtb	r1, r0
 1311 093c 224A     		ldr	r2, .L531+8
 1312 093e D154     		strb	r1, [r2, r3]
 1313 0940 244B     		ldr	r3, .L531+20
 1314 0942 1B68     		ldr	r3, [r3]
 1315 0944 1812     		asrs	r0, r3, #8
 1316 0946 1F4B     		ldr	r3, .L531+4
 1317 0948 1B68     		ldr	r3, [r3]
 1318 094a 5A1C     		adds	r2, r3, #1
 1319 094c 1D49     		ldr	r1, .L531+4
 1320 094e 0A60     		str	r2, [r1]
 1321 0950 C1B2     		uxtb	r1, r0
 1322 0952 1D4A     		ldr	r2, .L531+8
 1323 0954 D154     		strb	r1, [r2, r3]
 1324 0956 2FE0     		b	.L82
 1325              	.L81:
 1326 0958 1A4B     		ldr	r3, .L531+4
 1327 095a 1B68     		ldr	r3, [r3]
 1328 095c 5A1C     		adds	r2, r3, #1
 1329 095e 1949     		ldr	r1, .L531+4
 1330 0960 0A60     		str	r2, [r1]
 1331 0962 194A     		ldr	r2, .L531+8
 1332 0964 0021     		movs	r1, #0
 1333 0966 D154     		strb	r1, [r2, r3]
 1334 0968 164B     		ldr	r3, .L531+4
ARM GAS  /var/folders/d2/nstgp4h54kz7g1l847x_b8wc0000gn/T//ccVbBKId.s 			page 30


 1335 096a 1B68     		ldr	r3, [r3]
 1336 096c 5A1C     		adds	r2, r3, #1
 1337 096e 1549     		ldr	r1, .L531+4
 1338 0970 0A60     		str	r2, [r1]
 1339 0972 154A     		ldr	r2, .L531+8
 1340 0974 0021     		movs	r1, #0
 1341 0976 D154     		strb	r1, [r2, r3]
 1342 0978 124B     		ldr	r3, .L531+4
 1343 097a 1B68     		ldr	r3, [r3]
 1344 097c 5A1C     		adds	r2, r3, #1
 1345 097e 1149     		ldr	r1, .L531+4
 1346 0980 0A60     		str	r2, [r1]
 1347 0982 114A     		ldr	r2, .L531+8
 1348 0984 0021     		movs	r1, #0
 1349 0986 D154     		strb	r1, [r2, r3]
 1350 0988 0E4B     		ldr	r3, .L531+4
 1351 098a 1B68     		ldr	r3, [r3]
 1352 098c 5A1C     		adds	r2, r3, #1
 1353 098e 0D49     		ldr	r1, .L531+4
 1354 0990 0A60     		str	r2, [r1]
 1355 0992 0D4A     		ldr	r2, .L531+8
 1356 0994 0021     		movs	r1, #0
 1357 0996 D154     		strb	r1, [r2, r3]
 1358 0998 0A4B     		ldr	r3, .L531+4
 1359 099a 1B68     		ldr	r3, [r3]
 1360 099c 5A1C     		adds	r2, r3, #1
 1361 099e 0949     		ldr	r1, .L531+4
 1362 09a0 0A60     		str	r2, [r1]
 1363 09a2 094A     		ldr	r2, .L531+8
 1364 09a4 0021     		movs	r1, #0
 1365 09a6 D154     		strb	r1, [r2, r3]
 1366 09a8 064B     		ldr	r3, .L531+4
 1367 09aa 1B68     		ldr	r3, [r3]
 1368 09ac 5A1C     		adds	r2, r3, #1
 1369 09ae 0549     		ldr	r1, .L531+4
 1370 09b0 0A60     		str	r2, [r1]
 1371 09b2 054A     		ldr	r2, .L531+8
 1372 09b4 0021     		movs	r1, #0
 1373 09b6 D154     		strb	r1, [r2, r3]
 1374              	.L82:
 1375 09b8 094B     		ldr	r3, .L531+32
 1376 09ba 0022     		movs	r2, #0
 1377 09bc 1A60     		str	r2, [r3]
 1378 09be 4BE0     		b	.L83
 1379              	.L532:
 1380              		.align	2
 1381              	.L531:
 1382 09c0 00000000 		.word	accelero.13464
 1383 09c4 00000000 		.word	i.13432
 1384 09c8 00000000 		.word	buffer
 1385 09cc 04000000 		.word	accelero.13464+4
 1386 09d0 08000000 		.word	accelero.13464+8
 1387 09d4 00000000 		.word	gyroz.13447
 1388 09d8 00000000 		.word	gyroy.13446
 1389 09dc 00000000 		.word	gyrox.13445
 1390 09e0 00000000 		.word	j.13433
 1391              	.L84:
ARM GAS  /var/folders/d2/nstgp4h54kz7g1l847x_b8wc0000gn/T//ccVbBKId.s 			page 31


 1392 09e4 654B     		ldr	r3, .L533
 1393 09e6 1B68     		ldr	r3, [r3]
 1394 09e8 DBB2     		uxtb	r3, r3
 1395 09ea 1846     		mov	r0, r3
 1396 09ec FFF7FEFF 		bl	get_magnetic_field
 1397 09f0 F0EE407A 		vmov.f32	s15, s0
 1398 09f4 C7ED087A 		vstr.32	s15, [r7, #32]
 1399 09f8 07F12003 		add	r3, r7, #32
 1400 09fc 1B68     		ldr	r3, [r3]
 1401 09fe FB62     		str	r3, [r7, #44]
 1402 0a00 5F4B     		ldr	r3, .L533+4
 1403 0a02 1B68     		ldr	r3, [r3]
 1404 0a04 5A1C     		adds	r2, r3, #1
 1405 0a06 5E49     		ldr	r1, .L533+4
 1406 0a08 0A60     		str	r2, [r1]
 1407 0a0a FA6A     		ldr	r2, [r7, #44]
 1408 0a0c D1B2     		uxtb	r1, r2
 1409 0a0e 5D4A     		ldr	r2, .L533+8
 1410 0a10 D154     		strb	r1, [r2, r3]
 1411 0a12 FB6A     		ldr	r3, [r7, #44]
 1412 0a14 180A     		lsrs	r0, r3, #8
 1413 0a16 5A4B     		ldr	r3, .L533+4
 1414 0a18 1B68     		ldr	r3, [r3]
 1415 0a1a 5A1C     		adds	r2, r3, #1
 1416 0a1c 5849     		ldr	r1, .L533+4
 1417 0a1e 0A60     		str	r2, [r1]
 1418 0a20 C1B2     		uxtb	r1, r0
 1419 0a22 584A     		ldr	r2, .L533+8
 1420 0a24 D154     		strb	r1, [r2, r3]
 1421 0a26 FB6A     		ldr	r3, [r7, #44]
 1422 0a28 180C     		lsrs	r0, r3, #16
 1423 0a2a 554B     		ldr	r3, .L533+4
 1424 0a2c 1B68     		ldr	r3, [r3]
 1425 0a2e 5A1C     		adds	r2, r3, #1
 1426 0a30 5349     		ldr	r1, .L533+4
 1427 0a32 0A60     		str	r2, [r1]
 1428 0a34 C1B2     		uxtb	r1, r0
 1429 0a36 534A     		ldr	r2, .L533+8
 1430 0a38 D154     		strb	r1, [r2, r3]
 1431 0a3a FB6A     		ldr	r3, [r7, #44]
 1432 0a3c 180E     		lsrs	r0, r3, #24
 1433 0a3e 504B     		ldr	r3, .L533+4
 1434 0a40 1B68     		ldr	r3, [r3]
 1435 0a42 5A1C     		adds	r2, r3, #1
 1436 0a44 4E49     		ldr	r1, .L533+4
 1437 0a46 0A60     		str	r2, [r1]
 1438 0a48 C1B2     		uxtb	r1, r0
 1439 0a4a 4E4A     		ldr	r2, .L533+8
 1440 0a4c D154     		strb	r1, [r2, r3]
 1441 0a4e 4B4B     		ldr	r3, .L533
 1442 0a50 1B68     		ldr	r3, [r3]
 1443 0a52 0133     		adds	r3, r3, #1
 1444 0a54 494A     		ldr	r2, .L533
 1445 0a56 1360     		str	r3, [r2]
 1446              	.L83:
 1447 0a58 484B     		ldr	r3, .L533
 1448 0a5a 1B68     		ldr	r3, [r3]
ARM GAS  /var/folders/d2/nstgp4h54kz7g1l847x_b8wc0000gn/T//ccVbBKId.s 			page 32


 1449 0a5c 022B     		cmp	r3, #2
 1450 0a5e C1DD     		ble	.L84
 1451 0a60 97F83F30 		ldrb	r3, [r7, #63]	@ zero_extendqisi2
 1452 0a64 002B     		cmp	r3, #0
 1453 0a66 0CD1     		bne	.L85
 1454 0a68 FFF7FEFF 		bl	getTemperature
 1455 0a6c 0346     		mov	r3, r0
 1456 0a6e 1846     		mov	r0, r3
 1457 0a70 434B     		ldr	r3, .L533+4
 1458 0a72 1B68     		ldr	r3, [r3]
 1459 0a74 5A1C     		adds	r2, r3, #1
 1460 0a76 4249     		ldr	r1, .L533+4
 1461 0a78 0A60     		str	r2, [r1]
 1462 0a7a C1B2     		uxtb	r1, r0
 1463 0a7c 414A     		ldr	r2, .L533+8
 1464 0a7e D154     		strb	r1, [r2, r3]
 1465 0a80 07E0     		b	.L86
 1466              	.L85:
 1467 0a82 3F4B     		ldr	r3, .L533+4
 1468 0a84 1B68     		ldr	r3, [r3]
 1469 0a86 5A1C     		adds	r2, r3, #1
 1470 0a88 3D49     		ldr	r1, .L533+4
 1471 0a8a 0A60     		str	r2, [r1]
 1472 0a8c 3D4A     		ldr	r2, .L533+8
 1473 0a8e 0021     		movs	r1, #0
 1474 0a90 D154     		strb	r1, [r2, r3]
 1475              	.L86:
 1476 0a92 3A4B     		ldr	r3, .L533
 1477 0a94 0022     		movs	r2, #0
 1478 0a96 1A60     		str	r2, [r3]
 1479 0a98 21E0     		b	.L87
 1480              	.L88:
 1481 0a9a 384B     		ldr	r3, .L533
 1482 0a9c 1B68     		ldr	r3, [r3]
 1483 0a9e 1846     		mov	r0, r3
 1484 0aa0 FFF7FEFF 		bl	e_get_calibrated_prox
 1485 0aa4 0246     		mov	r2, r0
 1486 0aa6 384B     		ldr	r3, .L533+12
 1487 0aa8 1A60     		str	r2, [r3]
 1488 0aaa 374B     		ldr	r3, .L533+12
 1489 0aac 1868     		ldr	r0, [r3]
 1490 0aae 344B     		ldr	r3, .L533+4
 1491 0ab0 1B68     		ldr	r3, [r3]
 1492 0ab2 5A1C     		adds	r2, r3, #1
 1493 0ab4 3249     		ldr	r1, .L533+4
 1494 0ab6 0A60     		str	r2, [r1]
 1495 0ab8 C1B2     		uxtb	r1, r0
 1496 0aba 324A     		ldr	r2, .L533+8
 1497 0abc D154     		strb	r1, [r2, r3]
 1498 0abe 324B     		ldr	r3, .L533+12
 1499 0ac0 1B68     		ldr	r3, [r3]
 1500 0ac2 1812     		asrs	r0, r3, #8
 1501 0ac4 2E4B     		ldr	r3, .L533+4
 1502 0ac6 1B68     		ldr	r3, [r3]
 1503 0ac8 5A1C     		adds	r2, r3, #1
 1504 0aca 2D49     		ldr	r1, .L533+4
 1505 0acc 0A60     		str	r2, [r1]
ARM GAS  /var/folders/d2/nstgp4h54kz7g1l847x_b8wc0000gn/T//ccVbBKId.s 			page 33


 1506 0ace C1B2     		uxtb	r1, r0
 1507 0ad0 2C4A     		ldr	r2, .L533+8
 1508 0ad2 D154     		strb	r1, [r2, r3]
 1509 0ad4 294B     		ldr	r3, .L533
 1510 0ad6 1B68     		ldr	r3, [r3]
 1511 0ad8 0133     		adds	r3, r3, #1
 1512 0ada 284A     		ldr	r2, .L533
 1513 0adc 1360     		str	r3, [r2]
 1514              	.L87:
 1515 0ade 274B     		ldr	r3, .L533
 1516 0ae0 1B68     		ldr	r3, [r3]
 1517 0ae2 072B     		cmp	r3, #7
 1518 0ae4 D9DD     		ble	.L88
 1519 0ae6 254B     		ldr	r3, .L533
 1520 0ae8 0022     		movs	r2, #0
 1521 0aea 1A60     		str	r2, [r3]
 1522 0aec 21E0     		b	.L89
 1523              	.L90:
 1524 0aee 234B     		ldr	r3, .L533
 1525 0af0 1B68     		ldr	r3, [r3]
 1526 0af2 1846     		mov	r0, r3
 1527 0af4 FFF7FEFF 		bl	e_get_ambient_light
 1528 0af8 0246     		mov	r2, r0
 1529 0afa 234B     		ldr	r3, .L533+12
 1530 0afc 1A60     		str	r2, [r3]
 1531 0afe 224B     		ldr	r3, .L533+12
 1532 0b00 1868     		ldr	r0, [r3]
 1533 0b02 1F4B     		ldr	r3, .L533+4
 1534 0b04 1B68     		ldr	r3, [r3]
 1535 0b06 5A1C     		adds	r2, r3, #1
 1536 0b08 1D49     		ldr	r1, .L533+4
 1537 0b0a 0A60     		str	r2, [r1]
 1538 0b0c C1B2     		uxtb	r1, r0
 1539 0b0e 1D4A     		ldr	r2, .L533+8
 1540 0b10 D154     		strb	r1, [r2, r3]
 1541 0b12 1D4B     		ldr	r3, .L533+12
 1542 0b14 1B68     		ldr	r3, [r3]
 1543 0b16 1812     		asrs	r0, r3, #8
 1544 0b18 194B     		ldr	r3, .L533+4
 1545 0b1a 1B68     		ldr	r3, [r3]
 1546 0b1c 5A1C     		adds	r2, r3, #1
 1547 0b1e 1849     		ldr	r1, .L533+4
 1548 0b20 0A60     		str	r2, [r1]
 1549 0b22 C1B2     		uxtb	r1, r0
 1550 0b24 174A     		ldr	r2, .L533+8
 1551 0b26 D154     		strb	r1, [r2, r3]
 1552 0b28 144B     		ldr	r3, .L533
 1553 0b2a 1B68     		ldr	r3, [r3]
 1554 0b2c 0133     		adds	r3, r3, #1
 1555 0b2e 134A     		ldr	r2, .L533
 1556 0b30 1360     		str	r3, [r2]
 1557              	.L89:
 1558 0b32 124B     		ldr	r3, .L533
 1559 0b34 1B68     		ldr	r3, [r3]
 1560 0b36 072B     		cmp	r3, #7
 1561 0b38 D9DD     		ble	.L90
 1562 0b3a 97F83F30 		ldrb	r3, [r7, #63]	@ zero_extendqisi2
ARM GAS  /var/folders/d2/nstgp4h54kz7g1l847x_b8wc0000gn/T//ccVbBKId.s 			page 34


 1563 0b3e 002B     		cmp	r3, #0
 1564 0b40 24D1     		bne	.L91
 1565 0b42 FFF7FEFF 		bl	VL53L0X_get_dist_mm
 1566 0b46 0346     		mov	r3, r0
 1567 0b48 1A46     		mov	r2, r3
 1568 0b4a 0F4B     		ldr	r3, .L533+12
 1569 0b4c 1A60     		str	r2, [r3]
 1570 0b4e 0E4B     		ldr	r3, .L533+12
 1571 0b50 1868     		ldr	r0, [r3]
 1572 0b52 0B4B     		ldr	r3, .L533+4
 1573 0b54 1B68     		ldr	r3, [r3]
 1574 0b56 5A1C     		adds	r2, r3, #1
 1575 0b58 0949     		ldr	r1, .L533+4
 1576 0b5a 0A60     		str	r2, [r1]
 1577 0b5c C1B2     		uxtb	r1, r0
 1578 0b5e 094A     		ldr	r2, .L533+8
 1579 0b60 D154     		strb	r1, [r2, r3]
 1580 0b62 094B     		ldr	r3, .L533+12
 1581 0b64 1B68     		ldr	r3, [r3]
 1582 0b66 1812     		asrs	r0, r3, #8
 1583 0b68 054B     		ldr	r3, .L533+4
 1584 0b6a 1B68     		ldr	r3, [r3]
 1585 0b6c 5A1C     		adds	r2, r3, #1
 1586 0b6e 0449     		ldr	r1, .L533+4
 1587 0b70 0A60     		str	r2, [r1]
 1588 0b72 C1B2     		uxtb	r1, r0
 1589 0b74 034A     		ldr	r2, .L533+8
 1590 0b76 D154     		strb	r1, [r2, r3]
 1591 0b78 18E0     		b	.L92
 1592              	.L534:
 1593 0b7a 00BF     		.align	2
 1594              	.L533:
 1595 0b7c 00000000 		.word	j.13433
 1596 0b80 00000000 		.word	i.13432
 1597 0b84 00000000 		.word	buffer
 1598 0b88 00000000 		.word	n.13434
 1599              	.L91:
 1600 0b8c 9B4B     		ldr	r3, .L535
 1601 0b8e 1B68     		ldr	r3, [r3]
 1602 0b90 5A1C     		adds	r2, r3, #1
 1603 0b92 9A49     		ldr	r1, .L535
 1604 0b94 0A60     		str	r2, [r1]
 1605 0b96 9A4A     		ldr	r2, .L535+4
 1606 0b98 0021     		movs	r1, #0
 1607 0b9a D154     		strb	r1, [r2, r3]
 1608 0b9c 974B     		ldr	r3, .L535
 1609 0b9e 1B68     		ldr	r3, [r3]
 1610 0ba0 5A1C     		adds	r2, r3, #1
 1611 0ba2 9649     		ldr	r1, .L535
 1612 0ba4 0A60     		str	r2, [r1]
 1613 0ba6 964A     		ldr	r2, .L535+4
 1614 0ba8 0021     		movs	r1, #0
 1615 0baa D154     		strb	r1, [r2, r3]
 1616              	.L92:
 1617 0bac 0020     		movs	r0, #0
 1618 0bae FFF7FEFF 		bl	e_get_micro_volume
 1619 0bb2 0246     		mov	r2, r0
ARM GAS  /var/folders/d2/nstgp4h54kz7g1l847x_b8wc0000gn/T//ccVbBKId.s 			page 35


 1620 0bb4 934B     		ldr	r3, .L535+8
 1621 0bb6 1A60     		str	r2, [r3]
 1622 0bb8 924B     		ldr	r3, .L535+8
 1623 0bba 1868     		ldr	r0, [r3]
 1624 0bbc 8F4B     		ldr	r3, .L535
 1625 0bbe 1B68     		ldr	r3, [r3]
 1626 0bc0 5A1C     		adds	r2, r3, #1
 1627 0bc2 8E49     		ldr	r1, .L535
 1628 0bc4 0A60     		str	r2, [r1]
 1629 0bc6 C1B2     		uxtb	r1, r0
 1630 0bc8 8D4A     		ldr	r2, .L535+4
 1631 0bca D154     		strb	r1, [r2, r3]
 1632 0bcc 8D4B     		ldr	r3, .L535+8
 1633 0bce 1B68     		ldr	r3, [r3]
 1634 0bd0 1812     		asrs	r0, r3, #8
 1635 0bd2 8A4B     		ldr	r3, .L535
 1636 0bd4 1B68     		ldr	r3, [r3]
 1637 0bd6 5A1C     		adds	r2, r3, #1
 1638 0bd8 8849     		ldr	r1, .L535
 1639 0bda 0A60     		str	r2, [r1]
 1640 0bdc C1B2     		uxtb	r1, r0
 1641 0bde 884A     		ldr	r2, .L535+4
 1642 0be0 D154     		strb	r1, [r2, r3]
 1643 0be2 0120     		movs	r0, #1
 1644 0be4 FFF7FEFF 		bl	e_get_micro_volume
 1645 0be8 0246     		mov	r2, r0
 1646 0bea 864B     		ldr	r3, .L535+8
 1647 0bec 1A60     		str	r2, [r3]
 1648 0bee 854B     		ldr	r3, .L535+8
 1649 0bf0 1868     		ldr	r0, [r3]
 1650 0bf2 824B     		ldr	r3, .L535
 1651 0bf4 1B68     		ldr	r3, [r3]
 1652 0bf6 5A1C     		adds	r2, r3, #1
 1653 0bf8 8049     		ldr	r1, .L535
 1654 0bfa 0A60     		str	r2, [r1]
 1655 0bfc C1B2     		uxtb	r1, r0
 1656 0bfe 804A     		ldr	r2, .L535+4
 1657 0c00 D154     		strb	r1, [r2, r3]
 1658 0c02 804B     		ldr	r3, .L535+8
 1659 0c04 1B68     		ldr	r3, [r3]
 1660 0c06 1812     		asrs	r0, r3, #8
 1661 0c08 7C4B     		ldr	r3, .L535
 1662 0c0a 1B68     		ldr	r3, [r3]
 1663 0c0c 5A1C     		adds	r2, r3, #1
 1664 0c0e 7B49     		ldr	r1, .L535
 1665 0c10 0A60     		str	r2, [r1]
 1666 0c12 C1B2     		uxtb	r1, r0
 1667 0c14 7A4A     		ldr	r2, .L535+4
 1668 0c16 D154     		strb	r1, [r2, r3]
 1669 0c18 0220     		movs	r0, #2
 1670 0c1a FFF7FEFF 		bl	e_get_micro_volume
 1671 0c1e 0246     		mov	r2, r0
 1672 0c20 784B     		ldr	r3, .L535+8
 1673 0c22 1A60     		str	r2, [r3]
 1674 0c24 774B     		ldr	r3, .L535+8
 1675 0c26 1868     		ldr	r0, [r3]
 1676 0c28 744B     		ldr	r3, .L535
ARM GAS  /var/folders/d2/nstgp4h54kz7g1l847x_b8wc0000gn/T//ccVbBKId.s 			page 36


 1677 0c2a 1B68     		ldr	r3, [r3]
 1678 0c2c 5A1C     		adds	r2, r3, #1
 1679 0c2e 7349     		ldr	r1, .L535
 1680 0c30 0A60     		str	r2, [r1]
 1681 0c32 C1B2     		uxtb	r1, r0
 1682 0c34 724A     		ldr	r2, .L535+4
 1683 0c36 D154     		strb	r1, [r2, r3]
 1684 0c38 724B     		ldr	r3, .L535+8
 1685 0c3a 1B68     		ldr	r3, [r3]
 1686 0c3c 1812     		asrs	r0, r3, #8
 1687 0c3e 6F4B     		ldr	r3, .L535
 1688 0c40 1B68     		ldr	r3, [r3]
 1689 0c42 5A1C     		adds	r2, r3, #1
 1690 0c44 6D49     		ldr	r1, .L535
 1691 0c46 0A60     		str	r2, [r1]
 1692 0c48 C1B2     		uxtb	r1, r0
 1693 0c4a 6D4A     		ldr	r2, .L535+4
 1694 0c4c D154     		strb	r1, [r2, r3]
 1695 0c4e 0320     		movs	r0, #3
 1696 0c50 FFF7FEFF 		bl	e_get_micro_volume
 1697 0c54 0246     		mov	r2, r0
 1698 0c56 6B4B     		ldr	r3, .L535+8
 1699 0c58 1A60     		str	r2, [r3]
 1700 0c5a 6A4B     		ldr	r3, .L535+8
 1701 0c5c 1868     		ldr	r0, [r3]
 1702 0c5e 674B     		ldr	r3, .L535
 1703 0c60 1B68     		ldr	r3, [r3]
 1704 0c62 5A1C     		adds	r2, r3, #1
 1705 0c64 6549     		ldr	r1, .L535
 1706 0c66 0A60     		str	r2, [r1]
 1707 0c68 C1B2     		uxtb	r1, r0
 1708 0c6a 654A     		ldr	r2, .L535+4
 1709 0c6c D154     		strb	r1, [r2, r3]
 1710 0c6e 654B     		ldr	r3, .L535+8
 1711 0c70 1B68     		ldr	r3, [r3]
 1712 0c72 1812     		asrs	r0, r3, #8
 1713 0c74 614B     		ldr	r3, .L535
 1714 0c76 1B68     		ldr	r3, [r3]
 1715 0c78 5A1C     		adds	r2, r3, #1
 1716 0c7a 6049     		ldr	r1, .L535
 1717 0c7c 0A60     		str	r2, [r1]
 1718 0c7e C1B2     		uxtb	r1, r0
 1719 0c80 5F4A     		ldr	r2, .L535+4
 1720 0c82 D154     		strb	r1, [r2, r3]
 1721 0c84 FFF7FEFF 		bl	e_get_steps_left
 1722 0c88 0246     		mov	r2, r0
 1723 0c8a 5E4B     		ldr	r3, .L535+8
 1724 0c8c 1A60     		str	r2, [r3]
 1725 0c8e 5D4B     		ldr	r3, .L535+8
 1726 0c90 1868     		ldr	r0, [r3]
 1727 0c92 5A4B     		ldr	r3, .L535
 1728 0c94 1B68     		ldr	r3, [r3]
 1729 0c96 5A1C     		adds	r2, r3, #1
 1730 0c98 5849     		ldr	r1, .L535
 1731 0c9a 0A60     		str	r2, [r1]
 1732 0c9c C1B2     		uxtb	r1, r0
 1733 0c9e 584A     		ldr	r2, .L535+4
ARM GAS  /var/folders/d2/nstgp4h54kz7g1l847x_b8wc0000gn/T//ccVbBKId.s 			page 37


 1734 0ca0 D154     		strb	r1, [r2, r3]
 1735 0ca2 584B     		ldr	r3, .L535+8
 1736 0ca4 1B68     		ldr	r3, [r3]
 1737 0ca6 1812     		asrs	r0, r3, #8
 1738 0ca8 544B     		ldr	r3, .L535
 1739 0caa 1B68     		ldr	r3, [r3]
 1740 0cac 5A1C     		adds	r2, r3, #1
 1741 0cae 5349     		ldr	r1, .L535
 1742 0cb0 0A60     		str	r2, [r1]
 1743 0cb2 C1B2     		uxtb	r1, r0
 1744 0cb4 524A     		ldr	r2, .L535+4
 1745 0cb6 D154     		strb	r1, [r2, r3]
 1746 0cb8 FFF7FEFF 		bl	e_get_steps_right
 1747 0cbc 0246     		mov	r2, r0
 1748 0cbe 514B     		ldr	r3, .L535+8
 1749 0cc0 1A60     		str	r2, [r3]
 1750 0cc2 504B     		ldr	r3, .L535+8
 1751 0cc4 1868     		ldr	r0, [r3]
 1752 0cc6 4D4B     		ldr	r3, .L535
 1753 0cc8 1B68     		ldr	r3, [r3]
 1754 0cca 5A1C     		adds	r2, r3, #1
 1755 0ccc 4B49     		ldr	r1, .L535
 1756 0cce 0A60     		str	r2, [r1]
 1757 0cd0 C1B2     		uxtb	r1, r0
 1758 0cd2 4B4A     		ldr	r2, .L535+4
 1759 0cd4 D154     		strb	r1, [r2, r3]
 1760 0cd6 4B4B     		ldr	r3, .L535+8
 1761 0cd8 1B68     		ldr	r3, [r3]
 1762 0cda 1812     		asrs	r0, r3, #8
 1763 0cdc 474B     		ldr	r3, .L535
 1764 0cde 1B68     		ldr	r3, [r3]
 1765 0ce0 5A1C     		adds	r2, r3, #1
 1766 0ce2 4649     		ldr	r1, .L535
 1767 0ce4 0A60     		str	r2, [r1]
 1768 0ce6 C1B2     		uxtb	r1, r0
 1769 0ce8 454A     		ldr	r2, .L535+4
 1770 0cea D154     		strb	r1, [r2, r3]
 1771 0cec FFF7FEFF 		bl	getBatteryValueRaw
 1772 0cf0 3863     		str	r0, [r7, #48]
 1773 0cf2 424B     		ldr	r3, .L535
 1774 0cf4 1B68     		ldr	r3, [r3]
 1775 0cf6 5A1C     		adds	r2, r3, #1
 1776 0cf8 4049     		ldr	r1, .L535
 1777 0cfa 0A60     		str	r2, [r1]
 1778 0cfc 3A6B     		ldr	r2, [r7, #48]
 1779 0cfe D1B2     		uxtb	r1, r2
 1780 0d00 3F4A     		ldr	r2, .L535+4
 1781 0d02 D154     		strb	r1, [r2, r3]
 1782 0d04 3B6B     		ldr	r3, [r7, #48]
 1783 0d06 180A     		lsrs	r0, r3, #8
 1784 0d08 3C4B     		ldr	r3, .L535
 1785 0d0a 1B68     		ldr	r3, [r3]
 1786 0d0c 5A1C     		adds	r2, r3, #1
 1787 0d0e 3B49     		ldr	r1, .L535
 1788 0d10 0A60     		str	r2, [r1]
 1789 0d12 C1B2     		uxtb	r1, r0
 1790 0d14 3A4A     		ldr	r2, .L535+4
ARM GAS  /var/folders/d2/nstgp4h54kz7g1l847x_b8wc0000gn/T//ccVbBKId.s 			page 38


 1791 0d16 D154     		strb	r1, [r2, r3]
 1792 0d18 FFF7FEFF 		bl	sdio_is_present
 1793 0d1c 0346     		mov	r3, r0
 1794 0d1e 002B     		cmp	r3, #0
 1795 0d20 17D0     		beq	.L93
 1796 0d22 FFF7FEFF 		bl	sdio_connect
 1797 0d26 0346     		mov	r3, r0
 1798 0d28 002B     		cmp	r3, #0
 1799 0d2a 0CBF     		ite	eq
 1800 0d2c 0123     		moveq	r3, #1
 1801 0d2e 0023     		movne	r3, #0
 1802 0d30 DBB2     		uxtb	r3, r3
 1803 0d32 1A46     		mov	r2, r3
 1804 0d34 334B     		ldr	r3, .L535+8
 1805 0d36 1A60     		str	r2, [r3]
 1806 0d38 324B     		ldr	r3, .L535+8
 1807 0d3a 1868     		ldr	r0, [r3]
 1808 0d3c 2F4B     		ldr	r3, .L535
 1809 0d3e 1B68     		ldr	r3, [r3]
 1810 0d40 5A1C     		adds	r2, r3, #1
 1811 0d42 2E49     		ldr	r1, .L535
 1812 0d44 0A60     		str	r2, [r1]
 1813 0d46 C1B2     		uxtb	r1, r0
 1814 0d48 2D4A     		ldr	r2, .L535+4
 1815 0d4a D154     		strb	r1, [r2, r3]
 1816 0d4c FFF7FEFF 		bl	sdio_disconnect
 1817 0d50 07E0     		b	.L94
 1818              	.L93:
 1819 0d52 2A4B     		ldr	r3, .L535
 1820 0d54 1B68     		ldr	r3, [r3]
 1821 0d56 5A1C     		adds	r2, r3, #1
 1822 0d58 2849     		ldr	r1, .L535
 1823 0d5a 0A60     		str	r2, [r1]
 1824 0d5c 284A     		ldr	r2, .L535+4
 1825 0d5e 0021     		movs	r1, #0
 1826 0d60 D154     		strb	r1, [r2, r3]
 1827              	.L94:
 1828 0d62 264B     		ldr	r3, .L535
 1829 0d64 1C68     		ldr	r4, [r3]
 1830 0d66 631C     		adds	r3, r4, #1
 1831 0d68 244A     		ldr	r2, .L535
 1832 0d6a 1360     		str	r3, [r2]
 1833 0d6c FFF7FEFF 		bl	e_get_check
 1834 0d70 0346     		mov	r3, r0
 1835 0d72 1A46     		mov	r2, r3
 1836 0d74 224B     		ldr	r3, .L535+4
 1837 0d76 1A55     		strb	r2, [r3, r4]
 1838 0d78 204B     		ldr	r3, .L535
 1839 0d7a 1C68     		ldr	r4, [r3]
 1840 0d7c 631C     		adds	r3, r4, #1
 1841 0d7e 1F4A     		ldr	r2, .L535
 1842 0d80 1360     		str	r3, [r2]
 1843 0d82 FFF7FEFF 		bl	e_get_address
 1844 0d86 0346     		mov	r3, r0
 1845 0d88 1A46     		mov	r2, r3
 1846 0d8a 1D4B     		ldr	r3, .L535+4
 1847 0d8c 1A55     		strb	r2, [r3, r4]
ARM GAS  /var/folders/d2/nstgp4h54kz7g1l847x_b8wc0000gn/T//ccVbBKId.s 			page 39


 1848 0d8e 1B4B     		ldr	r3, .L535
 1849 0d90 1C68     		ldr	r4, [r3]
 1850 0d92 631C     		adds	r3, r4, #1
 1851 0d94 194A     		ldr	r2, .L535
 1852 0d96 1360     		str	r3, [r2]
 1853 0d98 FFF7FEFF 		bl	e_get_data
 1854 0d9c 0346     		mov	r3, r0
 1855 0d9e 1A46     		mov	r2, r3
 1856 0da0 174B     		ldr	r3, .L535+4
 1857 0da2 1A55     		strb	r2, [r3, r4]
 1858 0da4 184B     		ldr	r3, .L535+12
 1859 0da6 1B69     		ldr	r3, [r3, #16]
 1860 0da8 5B0B     		lsrs	r3, r3, #13
 1861 0daa 03F00102 		and	r2, r3, #1
 1862 0dae 164B     		ldr	r3, .L535+12
 1863 0db0 1B69     		ldr	r3, [r3, #16]
 1864 0db2 DB0B     		lsrs	r3, r3, #15
 1865 0db4 03F00101 		and	r1, r3, #1
 1866 0db8 144B     		ldr	r3, .L535+16
 1867 0dba 1B69     		ldr	r3, [r3, #16]
 1868 0dbc 1B09     		lsrs	r3, r3, #4
 1869 0dbe 03F00103 		and	r3, r3, #1
 1870 0dc2 5B00     		lsls	r3, r3, #1
 1871 0dc4 0B44     		add	r3, r3, r1
 1872 0dc6 5900     		lsls	r1, r3, #1
 1873 0dc8 0F4B     		ldr	r3, .L535+12
 1874 0dca 1B69     		ldr	r3, [r3, #16]
 1875 0dcc 9B0B     		lsrs	r3, r3, #14
 1876 0dce 03F00103 		and	r3, r3, #1
 1877 0dd2 0B44     		add	r3, r3, r1
 1878 0dd4 5B00     		lsls	r3, r3, #1
 1879 0dd6 1344     		add	r3, r3, r2
 1880 0dd8 1A46     		mov	r2, r3
 1881 0dda 0D4B     		ldr	r3, .L535+20
 1882 0ddc 1A60     		str	r2, [r3]
 1883 0dde 0C4B     		ldr	r3, .L535+20
 1884 0de0 1868     		ldr	r0, [r3]
 1885 0de2 064B     		ldr	r3, .L535
 1886 0de4 1B68     		ldr	r3, [r3]
 1887 0de6 5A1C     		adds	r2, r3, #1
 1888 0de8 0449     		ldr	r1, .L535
 1889 0dea 0A60     		str	r2, [r1]
 1890 0dec C1B2     		uxtb	r1, r0
 1891 0dee 044A     		ldr	r2, .L535+4
 1892 0df0 D154     		strb	r1, [r2, r3]
 1893 0df2 084B     		ldr	r3, .L535+24
 1894 0df4 0022     		movs	r2, #0
 1895 0df6 1A60     		str	r2, [r3]
 1896 0df8 30E0     		b	.L95
 1897              	.L536:
 1898 0dfa 00BF     		.align	2
 1899              	.L535:
 1900 0dfc 00000000 		.word	i.13432
 1901 0e00 00000000 		.word	buffer
 1902 0e04 00000000 		.word	n.13434
 1903 0e08 00080240 		.word	1073874944
 1904 0e0c 000C0240 		.word	1073875968
ARM GAS  /var/folders/d2/nstgp4h54kz7g1l847x_b8wc0000gn/T//ccVbBKId.s 			page 40


 1905 0e10 00000000 		.word	selector
 1906 0e14 00000000 		.word	j.13433
 1907              	.L96:
 1908 0e18 B04B     		ldr	r3, .L537
 1909 0e1a 1B68     		ldr	r3, [r3]
 1910 0e1c 1846     		mov	r0, r3
 1911 0e1e FFF7FEFF 		bl	get_ground_prox
 1912 0e22 0246     		mov	r2, r0
 1913 0e24 AE4B     		ldr	r3, .L537+4
 1914 0e26 1A60     		str	r2, [r3]
 1915 0e28 AD4B     		ldr	r3, .L537+4
 1916 0e2a 1868     		ldr	r0, [r3]
 1917 0e2c AD4B     		ldr	r3, .L537+8
 1918 0e2e 1B68     		ldr	r3, [r3]
 1919 0e30 5A1C     		adds	r2, r3, #1
 1920 0e32 AC49     		ldr	r1, .L537+8
 1921 0e34 0A60     		str	r2, [r1]
 1922 0e36 C1B2     		uxtb	r1, r0
 1923 0e38 AB4A     		ldr	r2, .L537+12
 1924 0e3a D154     		strb	r1, [r2, r3]
 1925 0e3c A84B     		ldr	r3, .L537+4
 1926 0e3e 1B68     		ldr	r3, [r3]
 1927 0e40 1812     		asrs	r0, r3, #8
 1928 0e42 A84B     		ldr	r3, .L537+8
 1929 0e44 1B68     		ldr	r3, [r3]
 1930 0e46 5A1C     		adds	r2, r3, #1
 1931 0e48 A649     		ldr	r1, .L537+8
 1932 0e4a 0A60     		str	r2, [r1]
 1933 0e4c C1B2     		uxtb	r1, r0
 1934 0e4e A64A     		ldr	r2, .L537+12
 1935 0e50 D154     		strb	r1, [r2, r3]
 1936 0e52 A24B     		ldr	r3, .L537
 1937 0e54 1B68     		ldr	r3, [r3]
 1938 0e56 0133     		adds	r3, r3, #1
 1939 0e58 A04A     		ldr	r2, .L537
 1940 0e5a 1360     		str	r3, [r2]
 1941              	.L95:
 1942 0e5c 9F4B     		ldr	r3, .L537
 1943 0e5e 1B68     		ldr	r3, [r3]
 1944 0e60 022B     		cmp	r3, #2
 1945 0e62 D9DD     		ble	.L96
 1946 0e64 9D4B     		ldr	r3, .L537
 1947 0e66 0022     		movs	r2, #0
 1948 0e68 1A60     		str	r2, [r3]
 1949 0e6a 21E0     		b	.L97
 1950              	.L98:
 1951 0e6c 9B4B     		ldr	r3, .L537
 1952 0e6e 1B68     		ldr	r3, [r3]
 1953 0e70 1846     		mov	r0, r3
 1954 0e72 FFF7FEFF 		bl	get_ground_ambient_light
 1955 0e76 0246     		mov	r2, r0
 1956 0e78 994B     		ldr	r3, .L537+4
 1957 0e7a 1A60     		str	r2, [r3]
 1958 0e7c 984B     		ldr	r3, .L537+4
 1959 0e7e 1868     		ldr	r0, [r3]
 1960 0e80 984B     		ldr	r3, .L537+8
 1961 0e82 1B68     		ldr	r3, [r3]
ARM GAS  /var/folders/d2/nstgp4h54kz7g1l847x_b8wc0000gn/T//ccVbBKId.s 			page 41


 1962 0e84 5A1C     		adds	r2, r3, #1
 1963 0e86 9749     		ldr	r1, .L537+8
 1964 0e88 0A60     		str	r2, [r1]
 1965 0e8a C1B2     		uxtb	r1, r0
 1966 0e8c 964A     		ldr	r2, .L537+12
 1967 0e8e D154     		strb	r1, [r2, r3]
 1968 0e90 934B     		ldr	r3, .L537+4
 1969 0e92 1B68     		ldr	r3, [r3]
 1970 0e94 1812     		asrs	r0, r3, #8
 1971 0e96 934B     		ldr	r3, .L537+8
 1972 0e98 1B68     		ldr	r3, [r3]
 1973 0e9a 5A1C     		adds	r2, r3, #1
 1974 0e9c 9149     		ldr	r1, .L537+8
 1975 0e9e 0A60     		str	r2, [r1]
 1976 0ea0 C1B2     		uxtb	r1, r0
 1977 0ea2 914A     		ldr	r2, .L537+12
 1978 0ea4 D154     		strb	r1, [r2, r3]
 1979 0ea6 8D4B     		ldr	r3, .L537
 1980 0ea8 1B68     		ldr	r3, [r3]
 1981 0eaa 0133     		adds	r3, r3, #1
 1982 0eac 8B4A     		ldr	r2, .L537
 1983 0eae 1360     		str	r3, [r2]
 1984              	.L97:
 1985 0eb0 8A4B     		ldr	r3, .L537
 1986 0eb2 1B68     		ldr	r3, [r3]
 1987 0eb4 022B     		cmp	r3, #2
 1988 0eb6 D9DD     		ble	.L98
 1989 0eb8 8A4B     		ldr	r3, .L537+8
 1990 0eba 1B68     		ldr	r3, [r3]
 1991 0ebc 5A1C     		adds	r2, r3, #1
 1992 0ebe 8949     		ldr	r1, .L537+8
 1993 0ec0 0A60     		str	r2, [r1]
 1994 0ec2 894A     		ldr	r2, .L537+12
 1995 0ec4 0021     		movs	r1, #0
 1996 0ec6 D154     		strb	r1, [r2, r3]
 1997 0ec8 00F0FEBF 		b	.L99
 1998              	.L53:
 1999 0ecc 97F83F30 		ldrb	r3, [r7, #63]	@ zero_extendqisi2
 2000 0ed0 002B     		cmp	r3, #0
 2001 0ed2 1DD1     		bne	.L100
 2002 0ed4 3B6C     		ldr	r3, [r7, #64]
 2003 0ed6 002B     		cmp	r3, #0
 2004 0ed8 08D0     		beq	.L101
 2005 0eda 844B     		ldr	r3, .L537+16
 2006 0edc 1B68     		ldr	r3, [r3]
 2007 0ede 5B68     		ldr	r3, [r3, #4]
 2008 0ee0 07F10C01 		add	r1, r7, #12
 2009 0ee4 1322     		movs	r2, #19
 2010 0ee6 8148     		ldr	r0, .L537+16
 2011 0ee8 9847     		blx	r3
 2012 0eea 11E0     		b	.L100
 2013              	.L101:
 2014 0eec 804B     		ldr	r3, .L537+20
 2015 0eee D3F85432 		ldr	r3, [r3, #596]
 2016 0ef2 1B68     		ldr	r3, [r3]
 2017 0ef4 1B78     		ldrb	r3, [r3]	@ zero_extendqisi2
 2018 0ef6 042B     		cmp	r3, #4
ARM GAS  /var/folders/d2/nstgp4h54kz7g1l847x_b8wc0000gn/T//ccVbBKId.s 			page 42


 2019 0ef8 07D1     		bne	.L102
 2020 0efa 7D4B     		ldr	r3, .L537+20
 2021 0efc 1B68     		ldr	r3, [r3]
 2022 0efe 5B68     		ldr	r3, [r3, #4]
 2023 0f00 07F10C01 		add	r1, r7, #12
 2024 0f04 1322     		movs	r2, #19
 2025 0f06 7A48     		ldr	r0, .L537+20
 2026 0f08 9847     		blx	r3
 2027              	.L102:
 2028 0f0a 0A20     		movs	r0, #10
 2029 0f0c FFF7FEFF 		bl	chThdSleep
 2030              	.L100:
 2031 0f10 FFF7FEFF 		bl	serial_get_last_errors
 2032 0f14 0346     		mov	r3, r0
 2033 0f16 002B     		cmp	r3, #0
 2034 0f18 03D0     		beq	.L103
 2035 0f1a FFF7FEFF 		bl	serial_clear_last_errors
 2036 0f1e 00F0D3BF 		b	.L99
 2037              	.L103:
 2038 0f22 3B7B     		ldrb	r3, [r7, #12]	@ zero_extendqisi2
 2039 0f24 03F00103 		and	r3, r3, #1
 2040 0f28 002B     		cmp	r3, #0
 2041 0f2a 01D0     		beq	.L104
 2042 0f2c FFF7FEFF 		bl	calibrate_ir
 2043              	.L104:
 2044 0f30 7B7B     		ldrb	r3, [r7, #13]	@ zero_extendqisi2
 2045 0f32 1A46     		mov	r2, r3
 2046 0f34 BB7B     		ldrb	r3, [r7, #14]	@ zero_extendqisi2
 2047 0f36 1B02     		lsls	r3, r3, #8
 2048 0f38 1344     		add	r3, r3, r2
 2049 0f3a 1A46     		mov	r2, r3
 2050 0f3c 6D4B     		ldr	r3, .L537+24
 2051 0f3e 1A60     		str	r2, [r3]
 2052 0f40 FB7B     		ldrb	r3, [r7, #15]	@ zero_extendqisi2
 2053 0f42 1A46     		mov	r2, r3
 2054 0f44 3B7C     		ldrb	r3, [r7, #16]	@ zero_extendqisi2
 2055 0f46 1B02     		lsls	r3, r3, #8
 2056 0f48 1344     		add	r3, r3, r2
 2057 0f4a 1A46     		mov	r2, r3
 2058 0f4c 6A4B     		ldr	r3, .L537+28
 2059 0f4e 1A60     		str	r2, [r3]
 2060 0f50 3B7B     		ldrb	r3, [r7, #12]	@ zero_extendqisi2
 2061 0f52 03F00403 		and	r3, r3, #4
 2062 0f56 002B     		cmp	r3, #0
 2063 0f58 0AD0     		beq	.L105
 2064 0f5a 664B     		ldr	r3, .L537+24
 2065 0f5c 1B68     		ldr	r3, [r3]
 2066 0f5e 1846     		mov	r0, r3
 2067 0f60 FFF7FEFF 		bl	e_set_steps_left
 2068 0f64 644B     		ldr	r3, .L537+28
 2069 0f66 1B68     		ldr	r3, [r3]
 2070 0f68 1846     		mov	r0, r3
 2071 0f6a FFF7FEFF 		bl	e_set_steps_right
 2072 0f6e 09E0     		b	.L106
 2073              	.L105:
 2074 0f70 604B     		ldr	r3, .L537+24
 2075 0f72 1B68     		ldr	r3, [r3]
ARM GAS  /var/folders/d2/nstgp4h54kz7g1l847x_b8wc0000gn/T//ccVbBKId.s 			page 43


 2076 0f74 1846     		mov	r0, r3
 2077 0f76 FFF7FEFF 		bl	e_set_speed_left
 2078 0f7a 5F4B     		ldr	r3, .L537+28
 2079 0f7c 1B68     		ldr	r3, [r3]
 2080 0f7e 1846     		mov	r0, r3
 2081 0f80 FFF7FEFF 		bl	e_set_speed_right
 2082              	.L106:
 2083 0f84 7B7C     		ldrb	r3, [r7, #17]	@ zero_extendqisi2
 2084 0f86 03F00103 		and	r3, r3, #1
 2085 0f8a 002B     		cmp	r3, #0
 2086 0f8c 04D0     		beq	.L107
 2087 0f8e 0121     		movs	r1, #1
 2088 0f90 0020     		movs	r0, #0
 2089 0f92 FFF7FEFF 		bl	set_led
 2090 0f96 03E0     		b	.L108
 2091              	.L107:
 2092 0f98 0021     		movs	r1, #0
 2093 0f9a 0020     		movs	r0, #0
 2094 0f9c FFF7FEFF 		bl	set_led
 2095              	.L108:
 2096 0fa0 7B7C     		ldrb	r3, [r7, #17]	@ zero_extendqisi2
 2097 0fa2 03F00203 		and	r3, r3, #2
 2098 0fa6 002B     		cmp	r3, #0
 2099 0fa8 04D0     		beq	.L109
 2100 0faa 0121     		movs	r1, #1
 2101 0fac 0120     		movs	r0, #1
 2102 0fae FFF7FEFF 		bl	set_led
 2103 0fb2 03E0     		b	.L110
 2104              	.L109:
 2105 0fb4 0021     		movs	r1, #0
 2106 0fb6 0120     		movs	r0, #1
 2107 0fb8 FFF7FEFF 		bl	set_led
 2108              	.L110:
 2109 0fbc 7B7C     		ldrb	r3, [r7, #17]	@ zero_extendqisi2
 2110 0fbe 03F00403 		and	r3, r3, #4
 2111 0fc2 002B     		cmp	r3, #0
 2112 0fc4 04D0     		beq	.L111
 2113 0fc6 0121     		movs	r1, #1
 2114 0fc8 0220     		movs	r0, #2
 2115 0fca FFF7FEFF 		bl	set_led
 2116 0fce 03E0     		b	.L112
 2117              	.L111:
 2118 0fd0 0021     		movs	r1, #0
 2119 0fd2 0220     		movs	r0, #2
 2120 0fd4 FFF7FEFF 		bl	set_led
 2121              	.L112:
 2122 0fd8 7B7C     		ldrb	r3, [r7, #17]	@ zero_extendqisi2
 2123 0fda 03F00803 		and	r3, r3, #8
 2124 0fde 002B     		cmp	r3, #0
 2125 0fe0 04D0     		beq	.L113
 2126 0fe2 0121     		movs	r1, #1
 2127 0fe4 0320     		movs	r0, #3
 2128 0fe6 FFF7FEFF 		bl	set_led
 2129 0fea 03E0     		b	.L114
 2130              	.L113:
 2131 0fec 0021     		movs	r1, #0
 2132 0fee 0320     		movs	r0, #3
ARM GAS  /var/folders/d2/nstgp4h54kz7g1l847x_b8wc0000gn/T//ccVbBKId.s 			page 44


 2133 0ff0 FFF7FEFF 		bl	set_led
 2134              	.L114:
 2135 0ff4 7B7C     		ldrb	r3, [r7, #17]	@ zero_extendqisi2
 2136 0ff6 03F01003 		and	r3, r3, #16
 2137 0ffa 002B     		cmp	r3, #0
 2138 0ffc 03D0     		beq	.L115
 2139 0ffe 0120     		movs	r0, #1
 2140 1000 FFF7FEFF 		bl	set_body_led
 2141 1004 02E0     		b	.L116
 2142              	.L115:
 2143 1006 0020     		movs	r0, #0
 2144 1008 FFF7FEFF 		bl	set_body_led
 2145              	.L116:
 2146 100c 7B7C     		ldrb	r3, [r7, #17]	@ zero_extendqisi2
 2147 100e 03F02003 		and	r3, r3, #32
 2148 1012 002B     		cmp	r3, #0
 2149 1014 03D0     		beq	.L117
 2150 1016 0120     		movs	r0, #1
 2151 1018 FFF7FEFF 		bl	set_front_led
 2152 101c 02E0     		b	.L118
 2153              	.L117:
 2154 101e 0020     		movs	r0, #0
 2155 1020 FFF7FEFF 		bl	set_front_led
 2156              	.L118:
 2157 1024 B97C     		ldrb	r1, [r7, #18]	@ zero_extendqisi2
 2158 1026 FA7C     		ldrb	r2, [r7, #19]	@ zero_extendqisi2
 2159 1028 3B7D     		ldrb	r3, [r7, #20]	@ zero_extendqisi2
 2160 102a 0020     		movs	r0, #0
 2161 102c FFF7FEFF 		bl	set_rgb_led
 2162 1030 797D     		ldrb	r1, [r7, #21]	@ zero_extendqisi2
 2163 1032 BA7D     		ldrb	r2, [r7, #22]	@ zero_extendqisi2
 2164 1034 FB7D     		ldrb	r3, [r7, #23]	@ zero_extendqisi2
 2165 1036 0120     		movs	r0, #1
 2166 1038 FFF7FEFF 		bl	set_rgb_led
 2167 103c 397E     		ldrb	r1, [r7, #24]	@ zero_extendqisi2
 2168 103e 7A7E     		ldrb	r2, [r7, #25]	@ zero_extendqisi2
 2169 1040 BB7E     		ldrb	r3, [r7, #26]	@ zero_extendqisi2
 2170 1042 0220     		movs	r0, #2
 2171 1044 FFF7FEFF 		bl	set_rgb_led
 2172 1048 F97E     		ldrb	r1, [r7, #27]	@ zero_extendqisi2
 2173 104a 3A7F     		ldrb	r2, [r7, #28]	@ zero_extendqisi2
 2174 104c 7B7F     		ldrb	r3, [r7, #29]	@ zero_extendqisi2
 2175 104e 0320     		movs	r0, #3
 2176 1050 FFF7FEFF 		bl	set_rgb_led
 2177 1054 BB7F     		ldrb	r3, [r7, #30]	@ zero_extendqisi2
 2178 1056 03F00103 		and	r3, r3, #1
 2179 105a 002B     		cmp	r3, #0
 2180 105c 04D0     		beq	.L119
 2181 105e 0022     		movs	r2, #0
 2182 1060 0221     		movs	r1, #2
 2183 1062 0320     		movs	r0, #3
 2184 1064 FFF7FEFF 		bl	playMelody
 2185              	.L119:
 2186 1068 BB7F     		ldrb	r3, [r7, #30]	@ zero_extendqisi2
 2187 106a 03F00203 		and	r3, r3, #2
 2188 106e 002B     		cmp	r3, #0
 2189 1070 04D0     		beq	.L120
ARM GAS  /var/folders/d2/nstgp4h54kz7g1l847x_b8wc0000gn/T//ccVbBKId.s 			page 45


 2190 1072 0022     		movs	r2, #0
 2191 1074 0221     		movs	r1, #2
 2192 1076 0420     		movs	r0, #4
 2193 1078 FFF7FEFF 		bl	playMelody
 2194              	.L120:
 2195 107c BB7F     		ldrb	r3, [r7, #30]	@ zero_extendqisi2
 2196 107e 03F00403 		and	r3, r3, #4
 2197 1082 002B     		cmp	r3, #0
 2198 1084 04D0     		beq	.L121
 2199 1086 0022     		movs	r2, #0
 2200 1088 0221     		movs	r1, #2
 2201 108a 0B20     		movs	r0, #11
 2202 108c FFF7FEFF 		bl	playMelody
 2203              	.L121:
 2204 1090 BB7F     		ldrb	r3, [r7, #30]	@ zero_extendqisi2
 2205 1092 03F00803 		and	r3, r3, #8
 2206 1096 002B     		cmp	r3, #0
 2207 1098 05D0     		beq	.L122
 2208 109a 40F69461 		movw	r1, #3732
 2209 109e 41F67E40 		movw	r0, #7294
 2210 10a2 FFF7FEFF 		bl	e_play_sound
 2211              	.L122:
 2212 10a6 BB7F     		ldrb	r3, [r7, #30]	@ zero_extendqisi2
 2213 10a8 03F01003 		and	r3, r3, #16
 2214 10ac 002B     		cmp	r3, #0
 2215 10ae 05D0     		beq	.L123
 2216 10b0 41F65071 		movw	r1, #8016
 2217 10b4 42F61430 		movw	r0, #11028
 2218 10b8 FFF7FEFF 		bl	e_play_sound
 2219              	.L123:
 2220 10bc BB7F     		ldrb	r3, [r7, #30]	@ zero_extendqisi2
 2221 10be 03F02003 		and	r3, r3, #32
 2222 10c2 002B     		cmp	r3, #0
 2223 10c4 00F0F786 		beq	.L482
 2224 10c8 FFF7FEFF 		bl	e_close_sound
 2225 10cc FFF7FEFF 		bl	stopCurrentMelody
 2226 10d0 00F0F1BE 		b	.L482
 2227              	.L54:
 2228 10d4 014B     		ldr	r3, .L537
 2229 10d6 0022     		movs	r2, #0
 2230 10d8 1A60     		str	r2, [r3]
 2231 10da 32E0     		b	.L125
 2232              	.L538:
 2233              		.align	2
 2234              	.L537:
 2235 10dc 00000000 		.word	j.13433
 2236 10e0 00000000 		.word	n.13434
 2237 10e4 00000000 		.word	i.13432
 2238 10e8 00000000 		.word	buffer
 2239 10ec 00000000 		.word	SD3
 2240 10f0 00000000 		.word	SDU1
 2241 10f4 00000000 		.word	speedl.13436
 2242 10f8 00000000 		.word	speedr.13435
 2243              	.L130:
 2244 10fc 97F83F30 		ldrb	r3, [r7, #63]	@ zero_extendqisi2
 2245 1100 002B     		cmp	r3, #0
 2246 1102 19D1     		bne	.L126
ARM GAS  /var/folders/d2/nstgp4h54kz7g1l847x_b8wc0000gn/T//ccVbBKId.s 			page 46


 2247 1104 3B6C     		ldr	r3, [r7, #64]
 2248 1106 002B     		cmp	r3, #0
 2249 1108 0BD0     		beq	.L517
 2250 110a 00BF     		nop
 2251              	.L128:
 2252 110c 9A4B     		ldr	r3, .L539
 2253 110e 1B68     		ldr	r3, [r3]
 2254 1110 9A4A     		ldr	r2, .L539+4
 2255 1112 1344     		add	r3, r3, r2
 2256 1114 1846     		mov	r0, r3
 2257 1116 FFF7FEFF 		bl	e_getchar_uart1
 2258 111a 0346     		mov	r3, r0
 2259 111c 002B     		cmp	r3, #0
 2260 111e F5D0     		beq	.L128
 2261 1120 0AE0     		b	.L126
 2262              	.L517:
 2263 1122 00BF     		nop
 2264              	.L129:
 2265 1124 944B     		ldr	r3, .L539
 2266 1126 1B68     		ldr	r3, [r3]
 2267 1128 944A     		ldr	r2, .L539+4
 2268 112a 1344     		add	r3, r3, r2
 2269 112c 1846     		mov	r0, r3
 2270 112e FFF7FEFF 		bl	e_getchar_uart2
 2271 1132 0346     		mov	r3, r0
 2272 1134 002B     		cmp	r3, #0
 2273 1136 F5D0     		beq	.L129
 2274              	.L126:
 2275 1138 8F4B     		ldr	r3, .L539
 2276 113a 1B68     		ldr	r3, [r3]
 2277 113c 0133     		adds	r3, r3, #1
 2278 113e 8E4A     		ldr	r2, .L539
 2279 1140 1360     		str	r3, [r2]
 2280              	.L125:
 2281 1142 8D4B     		ldr	r3, .L539
 2282 1144 1B68     		ldr	r3, [r3]
 2283 1146 0B2B     		cmp	r3, #11
 2284 1148 D8DD     		ble	.L130
 2285 114a 8C4B     		ldr	r3, .L539+4
 2286 114c 1978     		ldrb	r1, [r3]	@ zero_extendqisi2
 2287 114e 8B4B     		ldr	r3, .L539+4
 2288 1150 5A78     		ldrb	r2, [r3, #1]	@ zero_extendqisi2
 2289 1152 8A4B     		ldr	r3, .L539+4
 2290 1154 9B78     		ldrb	r3, [r3, #2]	@ zero_extendqisi2
 2291 1156 0020     		movs	r0, #0
 2292 1158 FFF7FEFF 		bl	set_rgb_led
 2293 115c 874B     		ldr	r3, .L539+4
 2294 115e D978     		ldrb	r1, [r3, #3]	@ zero_extendqisi2
 2295 1160 864B     		ldr	r3, .L539+4
 2296 1162 1A79     		ldrb	r2, [r3, #4]	@ zero_extendqisi2
 2297 1164 854B     		ldr	r3, .L539+4
 2298 1166 5B79     		ldrb	r3, [r3, #5]	@ zero_extendqisi2
 2299 1168 0120     		movs	r0, #1
 2300 116a FFF7FEFF 		bl	set_rgb_led
 2301 116e 834B     		ldr	r3, .L539+4
 2302 1170 9979     		ldrb	r1, [r3, #6]	@ zero_extendqisi2
 2303 1172 824B     		ldr	r3, .L539+4
ARM GAS  /var/folders/d2/nstgp4h54kz7g1l847x_b8wc0000gn/T//ccVbBKId.s 			page 47


 2304 1174 DA79     		ldrb	r2, [r3, #7]	@ zero_extendqisi2
 2305 1176 814B     		ldr	r3, .L539+4
 2306 1178 1B7A     		ldrb	r3, [r3, #8]	@ zero_extendqisi2
 2307 117a 0220     		movs	r0, #2
 2308 117c FFF7FEFF 		bl	set_rgb_led
 2309 1180 7E4B     		ldr	r3, .L539+4
 2310 1182 597A     		ldrb	r1, [r3, #9]	@ zero_extendqisi2
 2311 1184 7D4B     		ldr	r3, .L539+4
 2312 1186 9A7A     		ldrb	r2, [r3, #10]	@ zero_extendqisi2
 2313 1188 7C4B     		ldr	r3, .L539+4
 2314 118a DB7A     		ldrb	r3, [r3, #11]	@ zero_extendqisi2
 2315 118c 0320     		movs	r0, #3
 2316 118e FFF7FEFF 		bl	set_rgb_led
 2317 1192 00F099BE 		b	.L99
 2318              	.L55:
 2319 1196 7A4B     		ldr	r3, .L539+8
 2320 1198 1C68     		ldr	r4, [r3]
 2321 119a 631C     		adds	r3, r4, #1
 2322 119c 784A     		ldr	r2, .L539+8
 2323 119e 1360     		str	r3, [r2]
 2324 11a0 FFF7FEFF 		bl	button_get_state
 2325 11a4 0346     		mov	r3, r0
 2326 11a6 1A46     		mov	r2, r3
 2327 11a8 764B     		ldr	r3, .L539+12
 2328 11aa 1A55     		strb	r2, [r3, r4]
 2329 11ac 00F08CBE 		b	.L99
 2330              	.L56:
 2331 11b0 0020     		movs	r0, #0
 2332 11b2 FFF7FEFF 		bl	e_get_micro_volume
 2333 11b6 0246     		mov	r2, r0
 2334 11b8 734B     		ldr	r3, .L539+16
 2335 11ba 1A60     		str	r2, [r3]
 2336 11bc 724B     		ldr	r3, .L539+16
 2337 11be 1868     		ldr	r0, [r3]
 2338 11c0 6F4B     		ldr	r3, .L539+8
 2339 11c2 1B68     		ldr	r3, [r3]
 2340 11c4 5A1C     		adds	r2, r3, #1
 2341 11c6 6E49     		ldr	r1, .L539+8
 2342 11c8 0A60     		str	r2, [r1]
 2343 11ca C1B2     		uxtb	r1, r0
 2344 11cc 6D4A     		ldr	r2, .L539+12
 2345 11ce D154     		strb	r1, [r2, r3]
 2346 11d0 6D4B     		ldr	r3, .L539+16
 2347 11d2 1B68     		ldr	r3, [r3]
 2348 11d4 1812     		asrs	r0, r3, #8
 2349 11d6 6A4B     		ldr	r3, .L539+8
 2350 11d8 1B68     		ldr	r3, [r3]
 2351 11da 5A1C     		adds	r2, r3, #1
 2352 11dc 6849     		ldr	r1, .L539+8
 2353 11de 0A60     		str	r2, [r1]
 2354 11e0 C1B2     		uxtb	r1, r0
 2355 11e2 684A     		ldr	r2, .L539+12
 2356 11e4 D154     		strb	r1, [r2, r3]
 2357 11e6 0120     		movs	r0, #1
 2358 11e8 FFF7FEFF 		bl	e_get_micro_volume
 2359 11ec 0246     		mov	r2, r0
 2360 11ee 664B     		ldr	r3, .L539+16
ARM GAS  /var/folders/d2/nstgp4h54kz7g1l847x_b8wc0000gn/T//ccVbBKId.s 			page 48


 2361 11f0 1A60     		str	r2, [r3]
 2362 11f2 654B     		ldr	r3, .L539+16
 2363 11f4 1868     		ldr	r0, [r3]
 2364 11f6 624B     		ldr	r3, .L539+8
 2365 11f8 1B68     		ldr	r3, [r3]
 2366 11fa 5A1C     		adds	r2, r3, #1
 2367 11fc 6049     		ldr	r1, .L539+8
 2368 11fe 0A60     		str	r2, [r1]
 2369 1200 C1B2     		uxtb	r1, r0
 2370 1202 604A     		ldr	r2, .L539+12
 2371 1204 D154     		strb	r1, [r2, r3]
 2372 1206 604B     		ldr	r3, .L539+16
 2373 1208 1B68     		ldr	r3, [r3]
 2374 120a 1812     		asrs	r0, r3, #8
 2375 120c 5C4B     		ldr	r3, .L539+8
 2376 120e 1B68     		ldr	r3, [r3]
 2377 1210 5A1C     		adds	r2, r3, #1
 2378 1212 5B49     		ldr	r1, .L539+8
 2379 1214 0A60     		str	r2, [r1]
 2380 1216 C1B2     		uxtb	r1, r0
 2381 1218 5A4A     		ldr	r2, .L539+12
 2382 121a D154     		strb	r1, [r2, r3]
 2383 121c 0220     		movs	r0, #2
 2384 121e FFF7FEFF 		bl	e_get_micro_volume
 2385 1222 0246     		mov	r2, r0
 2386 1224 584B     		ldr	r3, .L539+16
 2387 1226 1A60     		str	r2, [r3]
 2388 1228 574B     		ldr	r3, .L539+16
 2389 122a 1868     		ldr	r0, [r3]
 2390 122c 544B     		ldr	r3, .L539+8
 2391 122e 1B68     		ldr	r3, [r3]
 2392 1230 5A1C     		adds	r2, r3, #1
 2393 1232 5349     		ldr	r1, .L539+8
 2394 1234 0A60     		str	r2, [r1]
 2395 1236 C1B2     		uxtb	r1, r0
 2396 1238 524A     		ldr	r2, .L539+12
 2397 123a D154     		strb	r1, [r2, r3]
 2398 123c 524B     		ldr	r3, .L539+16
 2399 123e 1B68     		ldr	r3, [r3]
 2400 1240 1812     		asrs	r0, r3, #8
 2401 1242 4F4B     		ldr	r3, .L539+8
 2402 1244 1B68     		ldr	r3, [r3]
 2403 1246 5A1C     		adds	r2, r3, #1
 2404 1248 4D49     		ldr	r1, .L539+8
 2405 124a 0A60     		str	r2, [r1]
 2406 124c C1B2     		uxtb	r1, r0
 2407 124e 4D4A     		ldr	r2, .L539+12
 2408 1250 D154     		strb	r1, [r2, r3]
 2409 1252 0320     		movs	r0, #3
 2410 1254 FFF7FEFF 		bl	e_get_micro_volume
 2411 1258 0246     		mov	r2, r0
 2412 125a 4B4B     		ldr	r3, .L539+16
 2413 125c 1A60     		str	r2, [r3]
 2414 125e 4A4B     		ldr	r3, .L539+16
 2415 1260 1868     		ldr	r0, [r3]
 2416 1262 474B     		ldr	r3, .L539+8
 2417 1264 1B68     		ldr	r3, [r3]
ARM GAS  /var/folders/d2/nstgp4h54kz7g1l847x_b8wc0000gn/T//ccVbBKId.s 			page 49


 2418 1266 5A1C     		adds	r2, r3, #1
 2419 1268 4549     		ldr	r1, .L539+8
 2420 126a 0A60     		str	r2, [r1]
 2421 126c C1B2     		uxtb	r1, r0
 2422 126e 454A     		ldr	r2, .L539+12
 2423 1270 D154     		strb	r1, [r2, r3]
 2424 1272 454B     		ldr	r3, .L539+16
 2425 1274 1B68     		ldr	r3, [r3]
 2426 1276 1812     		asrs	r0, r3, #8
 2427 1278 414B     		ldr	r3, .L539+8
 2428 127a 1B68     		ldr	r3, [r3]
 2429 127c 5A1C     		adds	r2, r3, #1
 2430 127e 4049     		ldr	r1, .L539+8
 2431 1280 0A60     		str	r2, [r1]
 2432 1282 C1B2     		uxtb	r1, r0
 2433 1284 3F4A     		ldr	r2, .L539+12
 2434 1286 D154     		strb	r1, [r2, r3]
 2435 1288 00F01EBE 		b	.L99
 2436              	.L57:
 2437 128c 97F83F30 		ldrb	r3, [r7, #63]	@ zero_extendqisi2
 2438 1290 002B     		cmp	r3, #0
 2439 1292 1CD1     		bne	.L131
 2440 1294 FFF7FEFF 		bl	VL53L0X_get_dist_mm
 2441 1298 0346     		mov	r3, r0
 2442 129a 1A46     		mov	r2, r3
 2443 129c 3A4B     		ldr	r3, .L539+16
 2444 129e 1A60     		str	r2, [r3]
 2445 12a0 394B     		ldr	r3, .L539+16
 2446 12a2 1868     		ldr	r0, [r3]
 2447 12a4 364B     		ldr	r3, .L539+8
 2448 12a6 1B68     		ldr	r3, [r3]
 2449 12a8 5A1C     		adds	r2, r3, #1
 2450 12aa 3549     		ldr	r1, .L539+8
 2451 12ac 0A60     		str	r2, [r1]
 2452 12ae C1B2     		uxtb	r1, r0
 2453 12b0 344A     		ldr	r2, .L539+12
 2454 12b2 D154     		strb	r1, [r2, r3]
 2455 12b4 344B     		ldr	r3, .L539+16
 2456 12b6 1B68     		ldr	r3, [r3]
 2457 12b8 1812     		asrs	r0, r3, #8
 2458 12ba 314B     		ldr	r3, .L539+8
 2459 12bc 1B68     		ldr	r3, [r3]
 2460 12be 5A1C     		adds	r2, r3, #1
 2461 12c0 2F49     		ldr	r1, .L539+8
 2462 12c2 0A60     		str	r2, [r1]
 2463 12c4 C1B2     		uxtb	r1, r0
 2464 12c6 2F4A     		ldr	r2, .L539+12
 2465 12c8 D154     		strb	r1, [r2, r3]
 2466 12ca 00F0FDBD 		b	.L99
 2467              	.L131:
 2468 12ce 2C4B     		ldr	r3, .L539+8
 2469 12d0 1B68     		ldr	r3, [r3]
 2470 12d2 5A1C     		adds	r2, r3, #1
 2471 12d4 2A49     		ldr	r1, .L539+8
 2472 12d6 0A60     		str	r2, [r1]
 2473 12d8 2A4A     		ldr	r2, .L539+12
 2474 12da 0021     		movs	r1, #0
ARM GAS  /var/folders/d2/nstgp4h54kz7g1l847x_b8wc0000gn/T//ccVbBKId.s 			page 50


 2475 12dc D154     		strb	r1, [r2, r3]
 2476 12de 284B     		ldr	r3, .L539+8
 2477 12e0 1B68     		ldr	r3, [r3]
 2478 12e2 5A1C     		adds	r2, r3, #1
 2479 12e4 2649     		ldr	r1, .L539+8
 2480 12e6 0A60     		str	r2, [r1]
 2481 12e8 264A     		ldr	r2, .L539+12
 2482 12ea 0021     		movs	r1, #0
 2483 12ec D154     		strb	r1, [r2, r3]
 2484 12ee 00F0EBBD 		b	.L99
 2485              	.L58:
 2486 12f2 FFF7FEFF 		bl	sdio_is_present
 2487 12f6 0346     		mov	r3, r0
 2488 12f8 002B     		cmp	r3, #0
 2489 12fa 18D0     		beq	.L133
 2490 12fc FFF7FEFF 		bl	sdio_connect
 2491 1300 0346     		mov	r3, r0
 2492 1302 002B     		cmp	r3, #0
 2493 1304 0CBF     		ite	eq
 2494 1306 0123     		moveq	r3, #1
 2495 1308 0023     		movne	r3, #0
 2496 130a DBB2     		uxtb	r3, r3
 2497 130c 1A46     		mov	r2, r3
 2498 130e 1E4B     		ldr	r3, .L539+16
 2499 1310 1A60     		str	r2, [r3]
 2500 1312 1D4B     		ldr	r3, .L539+16
 2501 1314 1868     		ldr	r0, [r3]
 2502 1316 1A4B     		ldr	r3, .L539+8
 2503 1318 1B68     		ldr	r3, [r3]
 2504 131a 5A1C     		adds	r2, r3, #1
 2505 131c 1849     		ldr	r1, .L539+8
 2506 131e 0A60     		str	r2, [r1]
 2507 1320 C1B2     		uxtb	r1, r0
 2508 1322 184A     		ldr	r2, .L539+12
 2509 1324 D154     		strb	r1, [r2, r3]
 2510 1326 FFF7FEFF 		bl	sdio_disconnect
 2511 132a 00F0CDBD 		b	.L99
 2512              	.L133:
 2513 132e 144B     		ldr	r3, .L539+8
 2514 1330 1B68     		ldr	r3, [r3]
 2515 1332 5A1C     		adds	r2, r3, #1
 2516 1334 1249     		ldr	r1, .L539+8
 2517 1336 0A60     		str	r2, [r1]
 2518 1338 124A     		ldr	r2, .L539+12
 2519 133a 0021     		movs	r1, #0
 2520 133c D154     		strb	r1, [r2, r3]
 2521 133e 00F0C3BD 		b	.L99
 2522              	.L71:
 2523 1342 97F83F30 		ldrb	r3, [r7, #63]	@ zero_extendqisi2
 2524 1346 002B     		cmp	r3, #0
 2525 1348 26D1     		bne	.L135
 2526 134a 0121     		movs	r1, #1
 2527 134c 0020     		movs	r0, #0
 2528 134e FFF7FEFF 		bl	e_get_acc_filtered
 2529 1352 0246     		mov	r2, r0
 2530 1354 0D4B     		ldr	r3, .L539+20
 2531 1356 1A60     		str	r2, [r3]
ARM GAS  /var/folders/d2/nstgp4h54kz7g1l847x_b8wc0000gn/T//ccVbBKId.s 			page 51


 2532 1358 0121     		movs	r1, #1
 2533 135a 0120     		movs	r0, #1
 2534 135c FFF7FEFF 		bl	e_get_acc_filtered
 2535 1360 0246     		mov	r2, r0
 2536 1362 0B4B     		ldr	r3, .L539+24
 2537 1364 1A60     		str	r2, [r3]
 2538 1366 0121     		movs	r1, #1
 2539 1368 0220     		movs	r0, #2
 2540 136a FFF7FEFF 		bl	e_get_acc_filtered
 2541 136e 0246     		mov	r2, r0
 2542 1370 084B     		ldr	r3, .L539+28
 2543 1372 1A60     		str	r2, [r3]
 2544 1374 19E0     		b	.L136
 2545              	.L540:
 2546 1376 00BF     		.align	2
 2547              	.L539:
 2548 1378 00000000 		.word	j.13433
 2549 137c 00000000 		.word	rgb_value.13456
 2550 1380 00000000 		.word	i.13432
 2551 1384 00000000 		.word	buffer
 2552 1388 00000000 		.word	n.13434
 2553 138c 00000000 		.word	accx.13441
 2554 1390 00000000 		.word	accy.13442
 2555 1394 00000000 		.word	accz.13443
 2556              	.L135:
 2557 1398 934B     		ldr	r3, .L541
 2558 139a 0022     		movs	r2, #0
 2559 139c 1A60     		str	r2, [r3]
 2560 139e 934B     		ldr	r3, .L541+4
 2561 13a0 0022     		movs	r2, #0
 2562 13a2 1A60     		str	r2, [r3]
 2563 13a4 924B     		ldr	r3, .L541+8
 2564 13a6 0022     		movs	r2, #0
 2565 13a8 1A60     		str	r2, [r3]
 2566              	.L136:
 2567 13aa 8F4B     		ldr	r3, .L541
 2568 13ac 1868     		ldr	r0, [r3]
 2569 13ae 914B     		ldr	r3, .L541+12
 2570 13b0 1B68     		ldr	r3, [r3]
 2571 13b2 5A1C     		adds	r2, r3, #1
 2572 13b4 8F49     		ldr	r1, .L541+12
 2573 13b6 0A60     		str	r2, [r1]
 2574 13b8 C1B2     		uxtb	r1, r0
 2575 13ba 8F4A     		ldr	r2, .L541+16
 2576 13bc D154     		strb	r1, [r2, r3]
 2577 13be 8A4B     		ldr	r3, .L541
 2578 13c0 1B68     		ldr	r3, [r3]
 2579 13c2 1812     		asrs	r0, r3, #8
 2580 13c4 8B4B     		ldr	r3, .L541+12
 2581 13c6 1B68     		ldr	r3, [r3]
 2582 13c8 5A1C     		adds	r2, r3, #1
 2583 13ca 8A49     		ldr	r1, .L541+12
 2584 13cc 0A60     		str	r2, [r1]
 2585 13ce C1B2     		uxtb	r1, r0
 2586 13d0 894A     		ldr	r2, .L541+16
 2587 13d2 D154     		strb	r1, [r2, r3]
 2588 13d4 854B     		ldr	r3, .L541+4
ARM GAS  /var/folders/d2/nstgp4h54kz7g1l847x_b8wc0000gn/T//ccVbBKId.s 			page 52


 2589 13d6 1868     		ldr	r0, [r3]
 2590 13d8 864B     		ldr	r3, .L541+12
 2591 13da 1B68     		ldr	r3, [r3]
 2592 13dc 5A1C     		adds	r2, r3, #1
 2593 13de 8549     		ldr	r1, .L541+12
 2594 13e0 0A60     		str	r2, [r1]
 2595 13e2 C1B2     		uxtb	r1, r0
 2596 13e4 844A     		ldr	r2, .L541+16
 2597 13e6 D154     		strb	r1, [r2, r3]
 2598 13e8 804B     		ldr	r3, .L541+4
 2599 13ea 1B68     		ldr	r3, [r3]
 2600 13ec 1812     		asrs	r0, r3, #8
 2601 13ee 814B     		ldr	r3, .L541+12
 2602 13f0 1B68     		ldr	r3, [r3]
 2603 13f2 5A1C     		adds	r2, r3, #1
 2604 13f4 7F49     		ldr	r1, .L541+12
 2605 13f6 0A60     		str	r2, [r1]
 2606 13f8 C1B2     		uxtb	r1, r0
 2607 13fa 7F4A     		ldr	r2, .L541+16
 2608 13fc D154     		strb	r1, [r2, r3]
 2609 13fe 7C4B     		ldr	r3, .L541+8
 2610 1400 1868     		ldr	r0, [r3]
 2611 1402 7C4B     		ldr	r3, .L541+12
 2612 1404 1B68     		ldr	r3, [r3]
 2613 1406 5A1C     		adds	r2, r3, #1
 2614 1408 7A49     		ldr	r1, .L541+12
 2615 140a 0A60     		str	r2, [r1]
 2616 140c C1B2     		uxtb	r1, r0
 2617 140e 7A4A     		ldr	r2, .L541+16
 2618 1410 D154     		strb	r1, [r2, r3]
 2619 1412 774B     		ldr	r3, .L541+8
 2620 1414 1B68     		ldr	r3, [r3]
 2621 1416 1812     		asrs	r0, r3, #8
 2622 1418 764B     		ldr	r3, .L541+12
 2623 141a 1B68     		ldr	r3, [r3]
 2624 141c 5A1C     		adds	r2, r3, #1
 2625 141e 7549     		ldr	r1, .L541+12
 2626 1420 0A60     		str	r2, [r1]
 2627 1422 C1B2     		uxtb	r1, r0
 2628 1424 744A     		ldr	r2, .L541+16
 2629 1426 D154     		strb	r1, [r2, r3]
 2630 1428 00F04EBD 		b	.L99
 2631              	.L59:
 2632 142c 97F83F30 		ldrb	r3, [r7, #63]	@ zero_extendqisi2
 2633 1430 002B     		cmp	r3, #0
 2634 1432 0FD1     		bne	.L137
 2635 1434 FFF7FEFF 		bl	e_read_acc_spheric
 2636 1438 F0EE406A 		vmov.f32	s13, s0
 2637 143c B0EE607A 		vmov.f32	s14, s1
 2638 1440 F0EE417A 		vmov.f32	s15, s2
 2639 1444 6D4B     		ldr	r3, .L541+20
 2640 1446 C3ED006A 		vstr.32	s13, [r3]
 2641 144a 83ED017A 		vstr.32	s14, [r3, #4]
 2642 144e C3ED027A 		vstr.32	s15, [r3, #8]
 2643 1452 0BE0     		b	.L138
 2644              	.L137:
 2645 1454 694B     		ldr	r3, .L541+20
ARM GAS  /var/folders/d2/nstgp4h54kz7g1l847x_b8wc0000gn/T//ccVbBKId.s 			page 53


 2646 1456 4FF00002 		mov	r2, #0
 2647 145a 1A60     		str	r2, [r3]	@ float
 2648 145c 674B     		ldr	r3, .L541+20
 2649 145e 4FF00002 		mov	r2, #0
 2650 1462 9A60     		str	r2, [r3, #8]	@ float
 2651 1464 654B     		ldr	r3, .L541+20
 2652 1466 4FF00002 		mov	r2, #0
 2653 146a 5A60     		str	r2, [r3, #4]	@ float
 2654              	.L138:
 2655 146c 634B     		ldr	r3, .L541+20
 2656 146e 7B62     		str	r3, [r7, #36]
 2657 1470 604B     		ldr	r3, .L541+12
 2658 1472 1B68     		ldr	r3, [r3]
 2659 1474 5A1C     		adds	r2, r3, #1
 2660 1476 5F49     		ldr	r1, .L541+12
 2661 1478 0A60     		str	r2, [r1]
 2662 147a 7A6A     		ldr	r2, [r7, #36]
 2663 147c 1178     		ldrb	r1, [r2]	@ zero_extendqisi2
 2664 147e 5E4A     		ldr	r2, .L541+16
 2665 1480 D154     		strb	r1, [r2, r3]
 2666 1482 7B6A     		ldr	r3, [r7, #36]
 2667 1484 0133     		adds	r3, r3, #1
 2668 1486 7B62     		str	r3, [r7, #36]
 2669 1488 5A4B     		ldr	r3, .L541+12
 2670 148a 1B68     		ldr	r3, [r3]
 2671 148c 5A1C     		adds	r2, r3, #1
 2672 148e 5949     		ldr	r1, .L541+12
 2673 1490 0A60     		str	r2, [r1]
 2674 1492 7A6A     		ldr	r2, [r7, #36]
 2675 1494 1178     		ldrb	r1, [r2]	@ zero_extendqisi2
 2676 1496 584A     		ldr	r2, .L541+16
 2677 1498 D154     		strb	r1, [r2, r3]
 2678 149a 7B6A     		ldr	r3, [r7, #36]
 2679 149c 0133     		adds	r3, r3, #1
 2680 149e 7B62     		str	r3, [r7, #36]
 2681 14a0 544B     		ldr	r3, .L541+12
 2682 14a2 1B68     		ldr	r3, [r3]
 2683 14a4 5A1C     		adds	r2, r3, #1
 2684 14a6 5349     		ldr	r1, .L541+12
 2685 14a8 0A60     		str	r2, [r1]
 2686 14aa 7A6A     		ldr	r2, [r7, #36]
 2687 14ac 1178     		ldrb	r1, [r2]	@ zero_extendqisi2
 2688 14ae 524A     		ldr	r2, .L541+16
 2689 14b0 D154     		strb	r1, [r2, r3]
 2690 14b2 7B6A     		ldr	r3, [r7, #36]
 2691 14b4 0133     		adds	r3, r3, #1
 2692 14b6 7B62     		str	r3, [r7, #36]
 2693 14b8 4E4B     		ldr	r3, .L541+12
 2694 14ba 1B68     		ldr	r3, [r3]
 2695 14bc 5A1C     		adds	r2, r3, #1
 2696 14be 4D49     		ldr	r1, .L541+12
 2697 14c0 0A60     		str	r2, [r1]
 2698 14c2 7A6A     		ldr	r2, [r7, #36]
 2699 14c4 1178     		ldrb	r1, [r2]	@ zero_extendqisi2
 2700 14c6 4C4A     		ldr	r2, .L541+16
 2701 14c8 D154     		strb	r1, [r2, r3]
 2702 14ca 4D4B     		ldr	r3, .L541+24
ARM GAS  /var/folders/d2/nstgp4h54kz7g1l847x_b8wc0000gn/T//ccVbBKId.s 			page 54


 2703 14cc 7B62     		str	r3, [r7, #36]
 2704 14ce 494B     		ldr	r3, .L541+12
 2705 14d0 1B68     		ldr	r3, [r3]
 2706 14d2 5A1C     		adds	r2, r3, #1
 2707 14d4 4749     		ldr	r1, .L541+12
 2708 14d6 0A60     		str	r2, [r1]
 2709 14d8 7A6A     		ldr	r2, [r7, #36]
 2710 14da 1178     		ldrb	r1, [r2]	@ zero_extendqisi2
 2711 14dc 464A     		ldr	r2, .L541+16
 2712 14de D154     		strb	r1, [r2, r3]
 2713 14e0 7B6A     		ldr	r3, [r7, #36]
 2714 14e2 0133     		adds	r3, r3, #1
 2715 14e4 7B62     		str	r3, [r7, #36]
 2716 14e6 434B     		ldr	r3, .L541+12
 2717 14e8 1B68     		ldr	r3, [r3]
 2718 14ea 5A1C     		adds	r2, r3, #1
 2719 14ec 4149     		ldr	r1, .L541+12
 2720 14ee 0A60     		str	r2, [r1]
 2721 14f0 7A6A     		ldr	r2, [r7, #36]
 2722 14f2 1178     		ldrb	r1, [r2]	@ zero_extendqisi2
 2723 14f4 404A     		ldr	r2, .L541+16
 2724 14f6 D154     		strb	r1, [r2, r3]
 2725 14f8 7B6A     		ldr	r3, [r7, #36]
 2726 14fa 0133     		adds	r3, r3, #1
 2727 14fc 7B62     		str	r3, [r7, #36]
 2728 14fe 3D4B     		ldr	r3, .L541+12
 2729 1500 1B68     		ldr	r3, [r3]
 2730 1502 5A1C     		adds	r2, r3, #1
 2731 1504 3B49     		ldr	r1, .L541+12
 2732 1506 0A60     		str	r2, [r1]
 2733 1508 7A6A     		ldr	r2, [r7, #36]
 2734 150a 1178     		ldrb	r1, [r2]	@ zero_extendqisi2
 2735 150c 3A4A     		ldr	r2, .L541+16
 2736 150e D154     		strb	r1, [r2, r3]
 2737 1510 7B6A     		ldr	r3, [r7, #36]
 2738 1512 0133     		adds	r3, r3, #1
 2739 1514 7B62     		str	r3, [r7, #36]
 2740 1516 374B     		ldr	r3, .L541+12
 2741 1518 1B68     		ldr	r3, [r3]
 2742 151a 5A1C     		adds	r2, r3, #1
 2743 151c 3549     		ldr	r1, .L541+12
 2744 151e 0A60     		str	r2, [r1]
 2745 1520 7A6A     		ldr	r2, [r7, #36]
 2746 1522 1178     		ldrb	r1, [r2]	@ zero_extendqisi2
 2747 1524 344A     		ldr	r2, .L541+16
 2748 1526 D154     		strb	r1, [r2, r3]
 2749 1528 364B     		ldr	r3, .L541+28
 2750 152a 7B62     		str	r3, [r7, #36]
 2751 152c 314B     		ldr	r3, .L541+12
 2752 152e 1B68     		ldr	r3, [r3]
 2753 1530 5A1C     		adds	r2, r3, #1
 2754 1532 3049     		ldr	r1, .L541+12
 2755 1534 0A60     		str	r2, [r1]
 2756 1536 7A6A     		ldr	r2, [r7, #36]
 2757 1538 1178     		ldrb	r1, [r2]	@ zero_extendqisi2
 2758 153a 2F4A     		ldr	r2, .L541+16
 2759 153c D154     		strb	r1, [r2, r3]
ARM GAS  /var/folders/d2/nstgp4h54kz7g1l847x_b8wc0000gn/T//ccVbBKId.s 			page 55


 2760 153e 7B6A     		ldr	r3, [r7, #36]
 2761 1540 0133     		adds	r3, r3, #1
 2762 1542 7B62     		str	r3, [r7, #36]
 2763 1544 2B4B     		ldr	r3, .L541+12
 2764 1546 1B68     		ldr	r3, [r3]
 2765 1548 5A1C     		adds	r2, r3, #1
 2766 154a 2A49     		ldr	r1, .L541+12
 2767 154c 0A60     		str	r2, [r1]
 2768 154e 7A6A     		ldr	r2, [r7, #36]
 2769 1550 1178     		ldrb	r1, [r2]	@ zero_extendqisi2
 2770 1552 294A     		ldr	r2, .L541+16
 2771 1554 D154     		strb	r1, [r2, r3]
 2772 1556 7B6A     		ldr	r3, [r7, #36]
 2773 1558 0133     		adds	r3, r3, #1
 2774 155a 7B62     		str	r3, [r7, #36]
 2775 155c 254B     		ldr	r3, .L541+12
 2776 155e 1B68     		ldr	r3, [r3]
 2777 1560 5A1C     		adds	r2, r3, #1
 2778 1562 2449     		ldr	r1, .L541+12
 2779 1564 0A60     		str	r2, [r1]
 2780 1566 7A6A     		ldr	r2, [r7, #36]
 2781 1568 1178     		ldrb	r1, [r2]	@ zero_extendqisi2
 2782 156a 234A     		ldr	r2, .L541+16
 2783 156c D154     		strb	r1, [r2, r3]
 2784 156e 7B6A     		ldr	r3, [r7, #36]
 2785 1570 0133     		adds	r3, r3, #1
 2786 1572 7B62     		str	r3, [r7, #36]
 2787 1574 1F4B     		ldr	r3, .L541+12
 2788 1576 1B68     		ldr	r3, [r3]
 2789 1578 5A1C     		adds	r2, r3, #1
 2790 157a 1E49     		ldr	r1, .L541+12
 2791 157c 0A60     		str	r2, [r1]
 2792 157e 7A6A     		ldr	r2, [r7, #36]
 2793 1580 1178     		ldrb	r1, [r2]	@ zero_extendqisi2
 2794 1582 1D4A     		ldr	r2, .L541+16
 2795 1584 D154     		strb	r1, [r2, r3]
 2796 1586 00F09FBC 		b	.L99
 2797              	.L72:
 2798 158a FFF7FEFF 		bl	getBatteryValueRaw
 2799 158e 3863     		str	r0, [r7, #48]
 2800 1590 184B     		ldr	r3, .L541+12
 2801 1592 1B68     		ldr	r3, [r3]
 2802 1594 5A1C     		adds	r2, r3, #1
 2803 1596 1749     		ldr	r1, .L541+12
 2804 1598 0A60     		str	r2, [r1]
 2805 159a 3A6B     		ldr	r2, [r7, #48]
 2806 159c D1B2     		uxtb	r1, r2
 2807 159e 164A     		ldr	r2, .L541+16
 2808 15a0 D154     		strb	r1, [r2, r3]
 2809 15a2 3B6B     		ldr	r3, [r7, #48]
 2810 15a4 180A     		lsrs	r0, r3, #8
 2811 15a6 134B     		ldr	r3, .L541+12
 2812 15a8 1B68     		ldr	r3, [r3]
 2813 15aa 5A1C     		adds	r2, r3, #1
 2814 15ac 1149     		ldr	r1, .L541+12
 2815 15ae 0A60     		str	r2, [r1]
 2816 15b0 C1B2     		uxtb	r1, r0
ARM GAS  /var/folders/d2/nstgp4h54kz7g1l847x_b8wc0000gn/T//ccVbBKId.s 			page 56


 2817 15b2 114A     		ldr	r2, .L541+16
 2818 15b4 D154     		strb	r1, [r2, r3]
 2819 15b6 00F087BC 		b	.L99
 2820              	.L60:
 2821 15ba 97F83F30 		ldrb	r3, [r7, #63]	@ zero_extendqisi2
 2822 15be 002B     		cmp	r3, #0
 2823 15c0 34D1     		bne	.L139
 2824 15c2 3B6C     		ldr	r3, [r7, #64]
 2825 15c4 002B     		cmp	r3, #0
 2826 15c6 23D0     		beq	.L518
 2827 15c8 00BF     		nop
 2828              	.L141:
 2829 15ca 0F48     		ldr	r0, .L541+32
 2830 15cc FFF7FEFF 		bl	e_getchar_uart1
 2831 15d0 0346     		mov	r3, r0
 2832 15d2 002B     		cmp	r3, #0
 2833 15d4 F9D0     		beq	.L141
 2834 15d6 00BF     		nop
 2835              	.L142:
 2836 15d8 0C48     		ldr	r0, .L541+36
 2837 15da FFF7FEFF 		bl	e_getchar_uart1
 2838 15de 0346     		mov	r3, r0
 2839 15e0 002B     		cmp	r3, #0
 2840 15e2 F9D0     		beq	.L142
 2841 15e4 22E0     		b	.L139
 2842              	.L542:
 2843 15e6 00BF     		.align	2
 2844              	.L541:
 2845 15e8 00000000 		.word	accx.13441
 2846 15ec 00000000 		.word	accy.13442
 2847 15f0 00000000 		.word	accz.13443
 2848 15f4 00000000 		.word	i.13432
 2849 15f8 00000000 		.word	buffer
 2850 15fc 00000000 		.word	accelero.13464
 2851 1600 04000000 		.word	accelero.13464+4
 2852 1604 08000000 		.word	accelero.13464+8
 2853 1608 00000000 		.word	c1.13429
 2854 160c 00000000 		.word	c2.13430
 2855              	.L518:
 2856 1610 00BF     		nop
 2857              	.L143:
 2858 1612 9748     		ldr	r0, .L543
 2859 1614 FFF7FEFF 		bl	e_getchar_uart2
 2860 1618 0346     		mov	r3, r0
 2861 161a 002B     		cmp	r3, #0
 2862 161c F9D0     		beq	.L143
 2863 161e 00BF     		nop
 2864              	.L144:
 2865 1620 9448     		ldr	r0, .L543+4
 2866 1622 FFF7FEFF 		bl	e_getchar_uart2
 2867 1626 0346     		mov	r3, r0
 2868 1628 002B     		cmp	r3, #0
 2869 162a F9D0     		beq	.L144
 2870              	.L139:
 2871 162c 904B     		ldr	r3, .L543
 2872 162e 1B78     		ldrb	r3, [r3]	@ zero_extendqisi2
 2873 1630 1A46     		mov	r2, r3
ARM GAS  /var/folders/d2/nstgp4h54kz7g1l847x_b8wc0000gn/T//ccVbBKId.s 			page 57


 2874 1632 904B     		ldr	r3, .L543+4
 2875 1634 1B78     		ldrb	r3, [r3]	@ zero_extendqisi2
 2876 1636 1B02     		lsls	r3, r3, #8
 2877 1638 1344     		add	r3, r3, r2
 2878 163a 1A46     		mov	r2, r3
 2879 163c 8E4B     		ldr	r3, .L543+8
 2880 163e 1A60     		str	r2, [r3]
 2881 1640 97F83F30 		ldrb	r3, [r7, #63]	@ zero_extendqisi2
 2882 1644 002B     		cmp	r3, #0
 2883 1646 1FD1     		bne	.L145
 2884 1648 3B6C     		ldr	r3, [r7, #64]
 2885 164a 002B     		cmp	r3, #0
 2886 164c 0ED0     		beq	.L519
 2887 164e 00BF     		nop
 2888              	.L147:
 2889 1650 8748     		ldr	r0, .L543
 2890 1652 FFF7FEFF 		bl	e_getchar_uart1
 2891 1656 0346     		mov	r3, r0
 2892 1658 002B     		cmp	r3, #0
 2893 165a F9D0     		beq	.L147
 2894 165c 00BF     		nop
 2895              	.L148:
 2896 165e 8548     		ldr	r0, .L543+4
 2897 1660 FFF7FEFF 		bl	e_getchar_uart1
 2898 1664 0346     		mov	r3, r0
 2899 1666 002B     		cmp	r3, #0
 2900 1668 F9D0     		beq	.L148
 2901 166a 0DE0     		b	.L145
 2902              	.L519:
 2903 166c 00BF     		nop
 2904              	.L149:
 2905 166e 8048     		ldr	r0, .L543
 2906 1670 FFF7FEFF 		bl	e_getchar_uart2
 2907 1674 0346     		mov	r3, r0
 2908 1676 002B     		cmp	r3, #0
 2909 1678 F9D0     		beq	.L149
 2910 167a 00BF     		nop
 2911              	.L150:
 2912 167c 7D48     		ldr	r0, .L543+4
 2913 167e FFF7FEFF 		bl	e_getchar_uart2
 2914 1682 0346     		mov	r3, r0
 2915 1684 002B     		cmp	r3, #0
 2916 1686 F9D0     		beq	.L150
 2917              	.L145:
 2918 1688 794B     		ldr	r3, .L543
 2919 168a 1B78     		ldrb	r3, [r3]	@ zero_extendqisi2
 2920 168c 1A46     		mov	r2, r3
 2921 168e 794B     		ldr	r3, .L543+4
 2922 1690 1B78     		ldrb	r3, [r3]	@ zero_extendqisi2
 2923 1692 1B02     		lsls	r3, r3, #8
 2924 1694 1344     		add	r3, r3, r2
 2925 1696 1A46     		mov	r2, r3
 2926 1698 784B     		ldr	r3, .L543+12
 2927 169a 1A60     		str	r2, [r3]
 2928 169c 764B     		ldr	r3, .L543+8
 2929 169e 1B68     		ldr	r3, [r3]
 2930 16a0 1846     		mov	r0, r3
ARM GAS  /var/folders/d2/nstgp4h54kz7g1l847x_b8wc0000gn/T//ccVbBKId.s 			page 58


 2931 16a2 FFF7FEFF 		bl	e_set_speed_left
 2932 16a6 754B     		ldr	r3, .L543+12
 2933 16a8 1B68     		ldr	r3, [r3]
 2934 16aa 1846     		mov	r0, r3
 2935 16ac FFF7FEFF 		bl	e_set_speed_right
 2936 16b0 00F00ABC 		b	.L99
 2937              	.L61:
 2938 16b4 704B     		ldr	r3, .L543+8
 2939 16b6 1868     		ldr	r0, [r3]
 2940 16b8 714B     		ldr	r3, .L543+16
 2941 16ba 1B68     		ldr	r3, [r3]
 2942 16bc 5A1C     		adds	r2, r3, #1
 2943 16be 7049     		ldr	r1, .L543+16
 2944 16c0 0A60     		str	r2, [r1]
 2945 16c2 C1B2     		uxtb	r1, r0
 2946 16c4 6F4A     		ldr	r2, .L543+20
 2947 16c6 D154     		strb	r1, [r2, r3]
 2948 16c8 6B4B     		ldr	r3, .L543+8
 2949 16ca 1B68     		ldr	r3, [r3]
 2950 16cc 1812     		asrs	r0, r3, #8
 2951 16ce 6C4B     		ldr	r3, .L543+16
 2952 16d0 1B68     		ldr	r3, [r3]
 2953 16d2 5A1C     		adds	r2, r3, #1
 2954 16d4 6A49     		ldr	r1, .L543+16
 2955 16d6 0A60     		str	r2, [r1]
 2956 16d8 C1B2     		uxtb	r1, r0
 2957 16da 6A4A     		ldr	r2, .L543+20
 2958 16dc D154     		strb	r1, [r2, r3]
 2959 16de 674B     		ldr	r3, .L543+12
 2960 16e0 1868     		ldr	r0, [r3]
 2961 16e2 674B     		ldr	r3, .L543+16
 2962 16e4 1B68     		ldr	r3, [r3]
 2963 16e6 5A1C     		adds	r2, r3, #1
 2964 16e8 6549     		ldr	r1, .L543+16
 2965 16ea 0A60     		str	r2, [r1]
 2966 16ec C1B2     		uxtb	r1, r0
 2967 16ee 654A     		ldr	r2, .L543+20
 2968 16f0 D154     		strb	r1, [r2, r3]
 2969 16f2 624B     		ldr	r3, .L543+12
 2970 16f4 1B68     		ldr	r3, [r3]
 2971 16f6 1812     		asrs	r0, r3, #8
 2972 16f8 614B     		ldr	r3, .L543+16
 2973 16fa 1B68     		ldr	r3, [r3]
 2974 16fc 5A1C     		adds	r2, r3, #1
 2975 16fe 6049     		ldr	r1, .L543+16
 2976 1700 0A60     		str	r2, [r1]
 2977 1702 C1B2     		uxtb	r1, r0
 2978 1704 5F4A     		ldr	r2, .L543+20
 2979 1706 D154     		strb	r1, [r2, r3]
 2980 1708 DEE3     		b	.L99
 2981              	.L73:
 2982 170a 97F83F30 		ldrb	r3, [r7, #63]	@ zero_extendqisi2
 2983 170e 002B     		cmp	r3, #0
 2984 1710 44D1     		bne	.L151
 2985 1712 5D4A     		ldr	r2, .L543+24
 2986 1714 5D49     		ldr	r1, .L543+28
 2987 1716 5E48     		ldr	r0, .L543+32
ARM GAS  /var/folders/d2/nstgp4h54kz7g1l847x_b8wc0000gn/T//ccVbBKId.s 			page 59


 2988 1718 FFF7FEFF 		bl	getAllAxesGyro
 2989 171c 5C4B     		ldr	r3, .L543+32
 2990 171e 1868     		ldr	r0, [r3]
 2991 1720 574B     		ldr	r3, .L543+16
 2992 1722 1B68     		ldr	r3, [r3]
 2993 1724 5A1C     		adds	r2, r3, #1
 2994 1726 5649     		ldr	r1, .L543+16
 2995 1728 0A60     		str	r2, [r1]
 2996 172a C1B2     		uxtb	r1, r0
 2997 172c 554A     		ldr	r2, .L543+20
 2998 172e D154     		strb	r1, [r2, r3]
 2999 1730 574B     		ldr	r3, .L543+32
 3000 1732 1B68     		ldr	r3, [r3]
 3001 1734 1812     		asrs	r0, r3, #8
 3002 1736 524B     		ldr	r3, .L543+16
 3003 1738 1B68     		ldr	r3, [r3]
 3004 173a 5A1C     		adds	r2, r3, #1
 3005 173c 5049     		ldr	r1, .L543+16
 3006 173e 0A60     		str	r2, [r1]
 3007 1740 C1B2     		uxtb	r1, r0
 3008 1742 504A     		ldr	r2, .L543+20
 3009 1744 D154     		strb	r1, [r2, r3]
 3010 1746 514B     		ldr	r3, .L543+28
 3011 1748 1868     		ldr	r0, [r3]
 3012 174a 4D4B     		ldr	r3, .L543+16
 3013 174c 1B68     		ldr	r3, [r3]
 3014 174e 5A1C     		adds	r2, r3, #1
 3015 1750 4B49     		ldr	r1, .L543+16
 3016 1752 0A60     		str	r2, [r1]
 3017 1754 C1B2     		uxtb	r1, r0
 3018 1756 4B4A     		ldr	r2, .L543+20
 3019 1758 D154     		strb	r1, [r2, r3]
 3020 175a 4C4B     		ldr	r3, .L543+28
 3021 175c 1B68     		ldr	r3, [r3]
 3022 175e 1812     		asrs	r0, r3, #8
 3023 1760 474B     		ldr	r3, .L543+16
 3024 1762 1B68     		ldr	r3, [r3]
 3025 1764 5A1C     		adds	r2, r3, #1
 3026 1766 4649     		ldr	r1, .L543+16
 3027 1768 0A60     		str	r2, [r1]
 3028 176a C1B2     		uxtb	r1, r0
 3029 176c 454A     		ldr	r2, .L543+20
 3030 176e D154     		strb	r1, [r2, r3]
 3031 1770 454B     		ldr	r3, .L543+24
 3032 1772 1868     		ldr	r0, [r3]
 3033 1774 424B     		ldr	r3, .L543+16
 3034 1776 1B68     		ldr	r3, [r3]
 3035 1778 5A1C     		adds	r2, r3, #1
 3036 177a 4149     		ldr	r1, .L543+16
 3037 177c 0A60     		str	r2, [r1]
 3038 177e C1B2     		uxtb	r1, r0
 3039 1780 404A     		ldr	r2, .L543+20
 3040 1782 D154     		strb	r1, [r2, r3]
 3041 1784 404B     		ldr	r3, .L543+24
 3042 1786 1B68     		ldr	r3, [r3]
 3043 1788 1812     		asrs	r0, r3, #8
 3044 178a 3D4B     		ldr	r3, .L543+16
ARM GAS  /var/folders/d2/nstgp4h54kz7g1l847x_b8wc0000gn/T//ccVbBKId.s 			page 60


 3045 178c 1B68     		ldr	r3, [r3]
 3046 178e 5A1C     		adds	r2, r3, #1
 3047 1790 3B49     		ldr	r1, .L543+16
 3048 1792 0A60     		str	r2, [r1]
 3049 1794 C1B2     		uxtb	r1, r0
 3050 1796 3B4A     		ldr	r2, .L543+20
 3051 1798 D154     		strb	r1, [r2, r3]
 3052 179a 95E3     		b	.L99
 3053              	.L151:
 3054 179c 384B     		ldr	r3, .L543+16
 3055 179e 1B68     		ldr	r3, [r3]
 3056 17a0 5A1C     		adds	r2, r3, #1
 3057 17a2 3749     		ldr	r1, .L543+16
 3058 17a4 0A60     		str	r2, [r1]
 3059 17a6 374A     		ldr	r2, .L543+20
 3060 17a8 0021     		movs	r1, #0
 3061 17aa D154     		strb	r1, [r2, r3]
 3062 17ac 344B     		ldr	r3, .L543+16
 3063 17ae 1B68     		ldr	r3, [r3]
 3064 17b0 5A1C     		adds	r2, r3, #1
 3065 17b2 3349     		ldr	r1, .L543+16
 3066 17b4 0A60     		str	r2, [r1]
 3067 17b6 334A     		ldr	r2, .L543+20
 3068 17b8 0021     		movs	r1, #0
 3069 17ba D154     		strb	r1, [r2, r3]
 3070 17bc 304B     		ldr	r3, .L543+16
 3071 17be 1B68     		ldr	r3, [r3]
 3072 17c0 5A1C     		adds	r2, r3, #1
 3073 17c2 2F49     		ldr	r1, .L543+16
 3074 17c4 0A60     		str	r2, [r1]
 3075 17c6 2F4A     		ldr	r2, .L543+20
 3076 17c8 0021     		movs	r1, #0
 3077 17ca D154     		strb	r1, [r2, r3]
 3078 17cc 2C4B     		ldr	r3, .L543+16
 3079 17ce 1B68     		ldr	r3, [r3]
 3080 17d0 5A1C     		adds	r2, r3, #1
 3081 17d2 2B49     		ldr	r1, .L543+16
 3082 17d4 0A60     		str	r2, [r1]
 3083 17d6 2B4A     		ldr	r2, .L543+20
 3084 17d8 0021     		movs	r1, #0
 3085 17da D154     		strb	r1, [r2, r3]
 3086 17dc 284B     		ldr	r3, .L543+16
 3087 17de 1B68     		ldr	r3, [r3]
 3088 17e0 5A1C     		adds	r2, r3, #1
 3089 17e2 2749     		ldr	r1, .L543+16
 3090 17e4 0A60     		str	r2, [r1]
 3091 17e6 274A     		ldr	r2, .L543+20
 3092 17e8 0021     		movs	r1, #0
 3093 17ea D154     		strb	r1, [r2, r3]
 3094 17ec 244B     		ldr	r3, .L543+16
 3095 17ee 1B68     		ldr	r3, [r3]
 3096 17f0 5A1C     		adds	r2, r3, #1
 3097 17f2 2349     		ldr	r1, .L543+16
 3098 17f4 0A60     		str	r2, [r1]
 3099 17f6 234A     		ldr	r2, .L543+20
 3100 17f8 0021     		movs	r1, #0
 3101 17fa D154     		strb	r1, [r2, r3]
ARM GAS  /var/folders/d2/nstgp4h54kz7g1l847x_b8wc0000gn/T//ccVbBKId.s 			page 61


 3102 17fc 64E3     		b	.L99
 3103              	.L62:
 3104 17fe 97F83F30 		ldrb	r3, [r7, #63]	@ zero_extendqisi2
 3105 1802 002B     		cmp	r3, #0
 3106 1804 40F05983 		bne	.L483
 3107 1808 1D4B     		ldr	r3, .L543+16
 3108 180a 1B68     		ldr	r3, [r3]
 3109 180c 0333     		adds	r3, r3, #3
 3110 180e 1D4A     		ldr	r2, .L543+20
 3111 1810 1344     		add	r3, r3, r2
 3112 1812 1846     		mov	r0, r3
 3113 1814 FFF7FEFF 		bl	e_poxxxx_launch_capture
 3114 1818 1E4B     		ldr	r3, .L543+36
 3115 181a 0122     		movs	r2, #1
 3116 181c 1A70     		strb	r2, [r3]
 3117 181e 1E4B     		ldr	r3, .L543+40
 3118 1820 1868     		ldr	r0, [r3]
 3119 1822 174B     		ldr	r3, .L543+16
 3120 1824 1B68     		ldr	r3, [r3]
 3121 1826 5A1C     		adds	r2, r3, #1
 3122 1828 1549     		ldr	r1, .L543+16
 3123 182a 0A60     		str	r2, [r1]
 3124 182c C1B2     		uxtb	r1, r0
 3125 182e 154A     		ldr	r2, .L543+20
 3126 1830 D154     		strb	r1, [r2, r3]
 3127 1832 1A4B     		ldr	r3, .L543+44
 3128 1834 1868     		ldr	r0, [r3]
 3129 1836 124B     		ldr	r3, .L543+16
 3130 1838 1B68     		ldr	r3, [r3]
 3131 183a 5A1C     		adds	r2, r3, #1
 3132 183c 1049     		ldr	r1, .L543+16
 3133 183e 0A60     		str	r2, [r1]
 3134 1840 C1B2     		uxtb	r1, r0
 3135 1842 104A     		ldr	r2, .L543+20
 3136 1844 D154     		strb	r1, [r2, r3]
 3137 1846 164B     		ldr	r3, .L543+48
 3138 1848 1868     		ldr	r0, [r3]
 3139 184a 0D4B     		ldr	r3, .L543+16
 3140 184c 1B68     		ldr	r3, [r3]
 3141 184e 5A1C     		adds	r2, r3, #1
 3142 1850 0B49     		ldr	r1, .L543+16
 3143 1852 0A60     		str	r2, [r1]
 3144 1854 C1B2     		uxtb	r1, r0
 3145 1856 0B4A     		ldr	r2, .L543+20
 3146 1858 D154     		strb	r1, [r2, r3]
 3147 185a 094B     		ldr	r3, .L543+16
 3148 185c 1B68     		ldr	r3, [r3]
 3149 185e BB87     		strh	r3, [r7, #60]	@ movhi
 3150 1860 074B     		ldr	r3, .L543+16
 3151 1862 1A68     		ldr	r2, [r3]
 3152 1864 0F4B     		ldr	r3, .L543+52
 3153 1866 1B68     		ldr	r3, [r3]
 3154 1868 1344     		add	r3, r3, r2
 3155 186a 054A     		ldr	r2, .L543+16
 3156 186c 1360     		str	r3, [r2]
 3157 186e 24E3     		b	.L483
 3158              	.L544:
ARM GAS  /var/folders/d2/nstgp4h54kz7g1l847x_b8wc0000gn/T//ccVbBKId.s 			page 62


 3159              		.align	2
 3160              	.L543:
 3161 1870 00000000 		.word	c1.13429
 3162 1874 00000000 		.word	c2.13430
 3163 1878 00000000 		.word	speedl.13436
 3164 187c 00000000 		.word	speedr.13435
 3165 1880 00000000 		.word	i.13432
 3166 1884 00000000 		.word	buffer
 3167 1888 00000000 		.word	gyroz.13447
 3168 188c 00000000 		.word	gyroy.13446
 3169 1890 00000000 		.word	gyrox.13445
 3170 1894 00000000 		.word	wait_cam.13431
 3171 1898 00000000 		.word	cam_mode.13448
 3172 189c 00000000 		.word	cam_width.13449
 3173 18a0 00000000 		.word	cam_heigth.13450
 3174 18a4 00000000 		.word	cam_size.13452
 3175              	.L63:
 3176 18a8 97F83F30 		ldrb	r3, [r7, #63]	@ zero_extendqisi2
 3177 18ac 002B     		cmp	r3, #0
 3178 18ae 1FD1     		bne	.L154
 3179 18b0 3B6C     		ldr	r3, [r7, #64]
 3180 18b2 002B     		cmp	r3, #0
 3181 18b4 0ED0     		beq	.L520
 3182 18b6 00BF     		nop
 3183              	.L156:
 3184 18b8 9648     		ldr	r0, .L545
 3185 18ba FFF7FEFF 		bl	e_getchar_uart1
 3186 18be 0346     		mov	r3, r0
 3187 18c0 002B     		cmp	r3, #0
 3188 18c2 F9D0     		beq	.L156
 3189 18c4 00BF     		nop
 3190              	.L157:
 3191 18c6 9448     		ldr	r0, .L545+4
 3192 18c8 FFF7FEFF 		bl	e_getchar_uart1
 3193 18cc 0346     		mov	r3, r0
 3194 18ce 002B     		cmp	r3, #0
 3195 18d0 F9D0     		beq	.L157
 3196 18d2 0DE0     		b	.L154
 3197              	.L520:
 3198 18d4 00BF     		nop
 3199              	.L158:
 3200 18d6 8F48     		ldr	r0, .L545
 3201 18d8 FFF7FEFF 		bl	e_getchar_uart2
 3202 18dc 0346     		mov	r3, r0
 3203 18de 002B     		cmp	r3, #0
 3204 18e0 F9D0     		beq	.L158
 3205 18e2 00BF     		nop
 3206              	.L159:
 3207 18e4 8C48     		ldr	r0, .L545+4
 3208 18e6 FFF7FEFF 		bl	e_getchar_uart2
 3209 18ea 0346     		mov	r3, r0
 3210 18ec 002B     		cmp	r3, #0
 3211 18ee F9D0     		beq	.L159
 3212              	.L154:
 3213 18f0 884B     		ldr	r3, .L545
 3214 18f2 1B78     		ldrb	r3, [r3]	@ zero_extendqisi2
 3215 18f4 082B     		cmp	r3, #8
ARM GAS  /var/folders/d2/nstgp4h54kz7g1l847x_b8wc0000gn/T//ccVbBKId.s 			page 63


 3216 18f6 02D0     		beq	.L161
 3217 18f8 092B     		cmp	r3, #9
 3218 18fa 06D0     		beq	.L162
 3219 18fc 0BE0     		b	.L480
 3220              	.L161:
 3221 18fe 864B     		ldr	r3, .L545+4
 3222 1900 1B78     		ldrb	r3, [r3]	@ zero_extendqisi2
 3223 1902 1846     		mov	r0, r3
 3224 1904 FFF7FEFF 		bl	e_set_body_led
 3225 1908 0FE0     		b	.L163
 3226              	.L162:
 3227 190a 834B     		ldr	r3, .L545+4
 3228 190c 1B78     		ldrb	r3, [r3]	@ zero_extendqisi2
 3229 190e 1846     		mov	r0, r3
 3230 1910 FFF7FEFF 		bl	e_set_front_led
 3231 1914 09E0     		b	.L163
 3232              	.L480:
 3233 1916 7F4B     		ldr	r3, .L545
 3234 1918 1B78     		ldrb	r3, [r3]	@ zero_extendqisi2
 3235 191a 1A46     		mov	r2, r3
 3236 191c 7E4B     		ldr	r3, .L545+4
 3237 191e 1B78     		ldrb	r3, [r3]	@ zero_extendqisi2
 3238 1920 1946     		mov	r1, r3
 3239 1922 1046     		mov	r0, r2
 3240 1924 FFF7FEFF 		bl	e_set_led
 3241 1928 00BF     		nop
 3242              	.L163:
 3243 192a CDE2     		b	.L99
 3244              	.L64:
 3245 192c 97F83F30 		ldrb	r3, [r7, #63]	@ zero_extendqisi2
 3246 1930 002B     		cmp	r3, #0
 3247 1932 40F0C482 		bne	.L484
 3248 1936 794B     		ldr	r3, .L545+8
 3249 1938 0022     		movs	r2, #0
 3250 193a 1A60     		str	r2, [r3]
 3251 193c 21E0     		b	.L165
 3252              	.L166:
 3253 193e 774B     		ldr	r3, .L545+8
 3254 1940 1B68     		ldr	r3, [r3]
 3255 1942 1846     		mov	r0, r3
 3256 1944 FFF7FEFF 		bl	get_ground_prox
 3257 1948 0246     		mov	r2, r0
 3258 194a 754B     		ldr	r3, .L545+12
 3259 194c 1A60     		str	r2, [r3]
 3260 194e 744B     		ldr	r3, .L545+12
 3261 1950 1868     		ldr	r0, [r3]
 3262 1952 744B     		ldr	r3, .L545+16
 3263 1954 1B68     		ldr	r3, [r3]
 3264 1956 5A1C     		adds	r2, r3, #1
 3265 1958 7249     		ldr	r1, .L545+16
 3266 195a 0A60     		str	r2, [r1]
 3267 195c C1B2     		uxtb	r1, r0
 3268 195e 724A     		ldr	r2, .L545+20
 3269 1960 D154     		strb	r1, [r2, r3]
 3270 1962 6F4B     		ldr	r3, .L545+12
 3271 1964 1B68     		ldr	r3, [r3]
 3272 1966 1812     		asrs	r0, r3, #8
ARM GAS  /var/folders/d2/nstgp4h54kz7g1l847x_b8wc0000gn/T//ccVbBKId.s 			page 64


 3273 1968 6E4B     		ldr	r3, .L545+16
 3274 196a 1B68     		ldr	r3, [r3]
 3275 196c 5A1C     		adds	r2, r3, #1
 3276 196e 6D49     		ldr	r1, .L545+16
 3277 1970 0A60     		str	r2, [r1]
 3278 1972 C1B2     		uxtb	r1, r0
 3279 1974 6C4A     		ldr	r2, .L545+20
 3280 1976 D154     		strb	r1, [r2, r3]
 3281 1978 684B     		ldr	r3, .L545+8
 3282 197a 1B68     		ldr	r3, [r3]
 3283 197c 0133     		adds	r3, r3, #1
 3284 197e 674A     		ldr	r2, .L545+8
 3285 1980 1360     		str	r3, [r2]
 3286              	.L165:
 3287 1982 664B     		ldr	r3, .L545+8
 3288 1984 1B68     		ldr	r3, [r3]
 3289 1986 022B     		cmp	r3, #2
 3290 1988 D9DD     		ble	.L166
 3291 198a 644B     		ldr	r3, .L545+8
 3292 198c 0322     		movs	r2, #3
 3293 198e 1A60     		str	r2, [r3]
 3294 1990 21E0     		b	.L167
 3295              	.L168:
 3296 1992 624B     		ldr	r3, .L545+8
 3297 1994 1B68     		ldr	r3, [r3]
 3298 1996 1846     		mov	r0, r3
 3299 1998 FFF7FEFF 		bl	get_ground_prox
 3300 199c 0246     		mov	r2, r0
 3301 199e 604B     		ldr	r3, .L545+12
 3302 19a0 1A60     		str	r2, [r3]
 3303 19a2 5F4B     		ldr	r3, .L545+12
 3304 19a4 1868     		ldr	r0, [r3]
 3305 19a6 5F4B     		ldr	r3, .L545+16
 3306 19a8 1B68     		ldr	r3, [r3]
 3307 19aa 5A1C     		adds	r2, r3, #1
 3308 19ac 5D49     		ldr	r1, .L545+16
 3309 19ae 0A60     		str	r2, [r1]
 3310 19b0 C1B2     		uxtb	r1, r0
 3311 19b2 5D4A     		ldr	r2, .L545+20
 3312 19b4 D154     		strb	r1, [r2, r3]
 3313 19b6 5A4B     		ldr	r3, .L545+12
 3314 19b8 1B68     		ldr	r3, [r3]
 3315 19ba 1812     		asrs	r0, r3, #8
 3316 19bc 594B     		ldr	r3, .L545+16
 3317 19be 1B68     		ldr	r3, [r3]
 3318 19c0 5A1C     		adds	r2, r3, #1
 3319 19c2 5849     		ldr	r1, .L545+16
 3320 19c4 0A60     		str	r2, [r1]
 3321 19c6 C1B2     		uxtb	r1, r0
 3322 19c8 574A     		ldr	r2, .L545+20
 3323 19ca D154     		strb	r1, [r2, r3]
 3324 19cc 534B     		ldr	r3, .L545+8
 3325 19ce 1B68     		ldr	r3, [r3]
 3326 19d0 0133     		adds	r3, r3, #1
 3327 19d2 524A     		ldr	r2, .L545+8
 3328 19d4 1360     		str	r3, [r2]
 3329              	.L167:
ARM GAS  /var/folders/d2/nstgp4h54kz7g1l847x_b8wc0000gn/T//ccVbBKId.s 			page 65


 3330 19d6 514B     		ldr	r3, .L545+8
 3331 19d8 1B68     		ldr	r3, [r3]
 3332 19da 032B     		cmp	r3, #3
 3333 19dc D9DD     		ble	.L168
 3334 19de 6EE2     		b	.L484
 3335              	.L65:
 3336 19e0 4E4B     		ldr	r3, .L545+8
 3337 19e2 0022     		movs	r2, #0
 3338 19e4 1A60     		str	r2, [r3]
 3339 19e6 21E0     		b	.L169
 3340              	.L170:
 3341 19e8 4C4B     		ldr	r3, .L545+8
 3342 19ea 1B68     		ldr	r3, [r3]
 3343 19ec 1846     		mov	r0, r3
 3344 19ee FFF7FEFF 		bl	e_get_calibrated_prox
 3345 19f2 0246     		mov	r2, r0
 3346 19f4 4A4B     		ldr	r3, .L545+12
 3347 19f6 1A60     		str	r2, [r3]
 3348 19f8 494B     		ldr	r3, .L545+12
 3349 19fa 1868     		ldr	r0, [r3]
 3350 19fc 494B     		ldr	r3, .L545+16
 3351 19fe 1B68     		ldr	r3, [r3]
 3352 1a00 5A1C     		adds	r2, r3, #1
 3353 1a02 4849     		ldr	r1, .L545+16
 3354 1a04 0A60     		str	r2, [r1]
 3355 1a06 C1B2     		uxtb	r1, r0
 3356 1a08 474A     		ldr	r2, .L545+20
 3357 1a0a D154     		strb	r1, [r2, r3]
 3358 1a0c 444B     		ldr	r3, .L545+12
 3359 1a0e 1B68     		ldr	r3, [r3]
 3360 1a10 1812     		asrs	r0, r3, #8
 3361 1a12 444B     		ldr	r3, .L545+16
 3362 1a14 1B68     		ldr	r3, [r3]
 3363 1a16 5A1C     		adds	r2, r3, #1
 3364 1a18 4249     		ldr	r1, .L545+16
 3365 1a1a 0A60     		str	r2, [r1]
 3366 1a1c C1B2     		uxtb	r1, r0
 3367 1a1e 424A     		ldr	r2, .L545+20
 3368 1a20 D154     		strb	r1, [r2, r3]
 3369 1a22 3E4B     		ldr	r3, .L545+8
 3370 1a24 1B68     		ldr	r3, [r3]
 3371 1a26 0133     		adds	r3, r3, #1
 3372 1a28 3C4A     		ldr	r2, .L545+8
 3373 1a2a 1360     		str	r3, [r2]
 3374              	.L169:
 3375 1a2c 3B4B     		ldr	r3, .L545+8
 3376 1a2e 1B68     		ldr	r3, [r3]
 3377 1a30 072B     		cmp	r3, #7
 3378 1a32 D9DD     		ble	.L170
 3379 1a34 48E2     		b	.L99
 3380              	.L66:
 3381 1a36 394B     		ldr	r3, .L545+8
 3382 1a38 0022     		movs	r2, #0
 3383 1a3a 1A60     		str	r2, [r3]
 3384 1a3c 21E0     		b	.L171
 3385              	.L172:
 3386 1a3e 374B     		ldr	r3, .L545+8
ARM GAS  /var/folders/d2/nstgp4h54kz7g1l847x_b8wc0000gn/T//ccVbBKId.s 			page 66


 3387 1a40 1B68     		ldr	r3, [r3]
 3388 1a42 1846     		mov	r0, r3
 3389 1a44 FFF7FEFF 		bl	e_get_ambient_light
 3390 1a48 0246     		mov	r2, r0
 3391 1a4a 354B     		ldr	r3, .L545+12
 3392 1a4c 1A60     		str	r2, [r3]
 3393 1a4e 344B     		ldr	r3, .L545+12
 3394 1a50 1868     		ldr	r0, [r3]
 3395 1a52 344B     		ldr	r3, .L545+16
 3396 1a54 1B68     		ldr	r3, [r3]
 3397 1a56 5A1C     		adds	r2, r3, #1
 3398 1a58 3249     		ldr	r1, .L545+16
 3399 1a5a 0A60     		str	r2, [r1]
 3400 1a5c C1B2     		uxtb	r1, r0
 3401 1a5e 324A     		ldr	r2, .L545+20
 3402 1a60 D154     		strb	r1, [r2, r3]
 3403 1a62 2F4B     		ldr	r3, .L545+12
 3404 1a64 1B68     		ldr	r3, [r3]
 3405 1a66 1812     		asrs	r0, r3, #8
 3406 1a68 2E4B     		ldr	r3, .L545+16
 3407 1a6a 1B68     		ldr	r3, [r3]
 3408 1a6c 5A1C     		adds	r2, r3, #1
 3409 1a6e 2D49     		ldr	r1, .L545+16
 3410 1a70 0A60     		str	r2, [r1]
 3411 1a72 C1B2     		uxtb	r1, r0
 3412 1a74 2C4A     		ldr	r2, .L545+20
 3413 1a76 D154     		strb	r1, [r2, r3]
 3414 1a78 284B     		ldr	r3, .L545+8
 3415 1a7a 1B68     		ldr	r3, [r3]
 3416 1a7c 0133     		adds	r3, r3, #1
 3417 1a7e 274A     		ldr	r2, .L545+8
 3418 1a80 1360     		str	r3, [r2]
 3419              	.L171:
 3420 1a82 264B     		ldr	r3, .L545+8
 3421 1a84 1B68     		ldr	r3, [r3]
 3422 1a86 072B     		cmp	r3, #7
 3423 1a88 D9DD     		ble	.L172
 3424 1a8a 1DE2     		b	.L99
 3425              	.L67:
 3426 1a8c 97F83F30 		ldrb	r3, [r7, #63]	@ zero_extendqisi2
 3427 1a90 002B     		cmp	r3, #0
 3428 1a92 1FD1     		bne	.L173
 3429 1a94 3B6C     		ldr	r3, [r7, #64]
 3430 1a96 002B     		cmp	r3, #0
 3431 1a98 0ED0     		beq	.L521
 3432 1a9a 00BF     		nop
 3433              	.L175:
 3434 1a9c 1D48     		ldr	r0, .L545
 3435 1a9e FFF7FEFF 		bl	e_getchar_uart1
 3436 1aa2 0346     		mov	r3, r0
 3437 1aa4 002B     		cmp	r3, #0
 3438 1aa6 F9D0     		beq	.L175
 3439 1aa8 00BF     		nop
 3440              	.L176:
 3441 1aaa 1B48     		ldr	r0, .L545+4
 3442 1aac FFF7FEFF 		bl	e_getchar_uart1
 3443 1ab0 0346     		mov	r3, r0
ARM GAS  /var/folders/d2/nstgp4h54kz7g1l847x_b8wc0000gn/T//ccVbBKId.s 			page 67


 3444 1ab2 002B     		cmp	r3, #0
 3445 1ab4 F9D0     		beq	.L176
 3446 1ab6 0DE0     		b	.L173
 3447              	.L521:
 3448 1ab8 00BF     		nop
 3449              	.L177:
 3450 1aba 1648     		ldr	r0, .L545
 3451 1abc FFF7FEFF 		bl	e_getchar_uart2
 3452 1ac0 0346     		mov	r3, r0
 3453 1ac2 002B     		cmp	r3, #0
 3454 1ac4 F9D0     		beq	.L177
 3455 1ac6 00BF     		nop
 3456              	.L178:
 3457 1ac8 1348     		ldr	r0, .L545+4
 3458 1aca FFF7FEFF 		bl	e_getchar_uart2
 3459 1ace 0346     		mov	r3, r0
 3460 1ad0 002B     		cmp	r3, #0
 3461 1ad2 F9D0     		beq	.L178
 3462              	.L173:
 3463 1ad4 0F4B     		ldr	r3, .L545
 3464 1ad6 1B78     		ldrb	r3, [r3]	@ zero_extendqisi2
 3465 1ad8 1A46     		mov	r2, r3
 3466 1ada 0F4B     		ldr	r3, .L545+4
 3467 1adc 1B78     		ldrb	r3, [r3]	@ zero_extendqisi2
 3468 1ade 1B02     		lsls	r3, r3, #8
 3469 1ae0 1344     		add	r3, r3, r2
 3470 1ae2 1A46     		mov	r2, r3
 3471 1ae4 114B     		ldr	r3, .L545+24
 3472 1ae6 1A60     		str	r2, [r3]
 3473 1ae8 97F83F30 		ldrb	r3, [r7, #63]	@ zero_extendqisi2
 3474 1aec 002B     		cmp	r3, #0
 3475 1aee 2DD1     		bne	.L179
 3476 1af0 3B6C     		ldr	r3, [r7, #64]
 3477 1af2 002B     		cmp	r3, #0
 3478 1af4 1CD0     		beq	.L522
 3479 1af6 00BF     		nop
 3480              	.L181:
 3481 1af8 0648     		ldr	r0, .L545
 3482 1afa FFF7FEFF 		bl	e_getchar_uart1
 3483 1afe 0346     		mov	r3, r0
 3484 1b00 002B     		cmp	r3, #0
 3485 1b02 F9D0     		beq	.L181
 3486 1b04 00BF     		nop
 3487              	.L182:
 3488 1b06 0448     		ldr	r0, .L545+4
 3489 1b08 FFF7FEFF 		bl	e_getchar_uart1
 3490 1b0c 0346     		mov	r3, r0
 3491 1b0e 002B     		cmp	r3, #0
 3492 1b10 F9D0     		beq	.L182
 3493 1b12 1BE0     		b	.L179
 3494              	.L546:
 3495              		.align	2
 3496              	.L545:
 3497 1b14 00000000 		.word	c1.13429
 3498 1b18 00000000 		.word	c2.13430
 3499 1b1c 00000000 		.word	j.13433
 3500 1b20 00000000 		.word	n.13434
ARM GAS  /var/folders/d2/nstgp4h54kz7g1l847x_b8wc0000gn/T//ccVbBKId.s 			page 68


 3501 1b24 00000000 		.word	i.13432
 3502 1b28 00000000 		.word	buffer
 3503 1b2c 00000000 		.word	positionl.13438
 3504              	.L522:
 3505 1b30 00BF     		nop
 3506              	.L183:
 3507 1b32 A148     		ldr	r0, .L547
 3508 1b34 FFF7FEFF 		bl	e_getchar_uart2
 3509 1b38 0346     		mov	r3, r0
 3510 1b3a 002B     		cmp	r3, #0
 3511 1b3c F9D0     		beq	.L183
 3512 1b3e 00BF     		nop
 3513              	.L184:
 3514 1b40 9E48     		ldr	r0, .L547+4
 3515 1b42 FFF7FEFF 		bl	e_getchar_uart2
 3516 1b46 0346     		mov	r3, r0
 3517 1b48 002B     		cmp	r3, #0
 3518 1b4a F9D0     		beq	.L184
 3519              	.L179:
 3520 1b4c 9A4B     		ldr	r3, .L547
 3521 1b4e 1B78     		ldrb	r3, [r3]	@ zero_extendqisi2
 3522 1b50 1A46     		mov	r2, r3
 3523 1b52 9A4B     		ldr	r3, .L547+4
 3524 1b54 1B78     		ldrb	r3, [r3]	@ zero_extendqisi2
 3525 1b56 1B02     		lsls	r3, r3, #8
 3526 1b58 1344     		add	r3, r3, r2
 3527 1b5a 1A46     		mov	r2, r3
 3528 1b5c 984B     		ldr	r3, .L547+8
 3529 1b5e 1A60     		str	r2, [r3]
 3530 1b60 984B     		ldr	r3, .L547+12
 3531 1b62 1B68     		ldr	r3, [r3]
 3532 1b64 1846     		mov	r0, r3
 3533 1b66 FFF7FEFF 		bl	e_set_steps_left
 3534 1b6a 954B     		ldr	r3, .L547+8
 3535 1b6c 1B68     		ldr	r3, [r3]
 3536 1b6e 1846     		mov	r0, r3
 3537 1b70 FFF7FEFF 		bl	e_set_steps_right
 3538 1b74 A8E1     		b	.L99
 3539              	.L68:
 3540 1b76 FFF7FEFF 		bl	e_get_steps_left
 3541 1b7a 0246     		mov	r2, r0
 3542 1b7c 924B     		ldr	r3, .L547+16
 3543 1b7e 1A60     		str	r2, [r3]
 3544 1b80 914B     		ldr	r3, .L547+16
 3545 1b82 1868     		ldr	r0, [r3]
 3546 1b84 914B     		ldr	r3, .L547+20
 3547 1b86 1B68     		ldr	r3, [r3]
 3548 1b88 5A1C     		adds	r2, r3, #1
 3549 1b8a 9049     		ldr	r1, .L547+20
 3550 1b8c 0A60     		str	r2, [r1]
 3551 1b8e C1B2     		uxtb	r1, r0
 3552 1b90 8F4A     		ldr	r2, .L547+24
 3553 1b92 D154     		strb	r1, [r2, r3]
 3554 1b94 8C4B     		ldr	r3, .L547+16
 3555 1b96 1B68     		ldr	r3, [r3]
 3556 1b98 1812     		asrs	r0, r3, #8
 3557 1b9a 8C4B     		ldr	r3, .L547+20
ARM GAS  /var/folders/d2/nstgp4h54kz7g1l847x_b8wc0000gn/T//ccVbBKId.s 			page 69


 3558 1b9c 1B68     		ldr	r3, [r3]
 3559 1b9e 5A1C     		adds	r2, r3, #1
 3560 1ba0 8A49     		ldr	r1, .L547+20
 3561 1ba2 0A60     		str	r2, [r1]
 3562 1ba4 C1B2     		uxtb	r1, r0
 3563 1ba6 8A4A     		ldr	r2, .L547+24
 3564 1ba8 D154     		strb	r1, [r2, r3]
 3565 1baa FFF7FEFF 		bl	e_get_steps_right
 3566 1bae 0246     		mov	r2, r0
 3567 1bb0 854B     		ldr	r3, .L547+16
 3568 1bb2 1A60     		str	r2, [r3]
 3569 1bb4 844B     		ldr	r3, .L547+16
 3570 1bb6 1868     		ldr	r0, [r3]
 3571 1bb8 844B     		ldr	r3, .L547+20
 3572 1bba 1B68     		ldr	r3, [r3]
 3573 1bbc 5A1C     		adds	r2, r3, #1
 3574 1bbe 8349     		ldr	r1, .L547+20
 3575 1bc0 0A60     		str	r2, [r1]
 3576 1bc2 C1B2     		uxtb	r1, r0
 3577 1bc4 824A     		ldr	r2, .L547+24
 3578 1bc6 D154     		strb	r1, [r2, r3]
 3579 1bc8 7F4B     		ldr	r3, .L547+16
 3580 1bca 1B68     		ldr	r3, [r3]
 3581 1bcc 1812     		asrs	r0, r3, #8
 3582 1bce 7F4B     		ldr	r3, .L547+20
 3583 1bd0 1B68     		ldr	r3, [r3]
 3584 1bd2 5A1C     		adds	r2, r3, #1
 3585 1bd4 7D49     		ldr	r1, .L547+20
 3586 1bd6 0A60     		str	r2, [r1]
 3587 1bd8 C1B2     		uxtb	r1, r0
 3588 1bda 7D4A     		ldr	r2, .L547+24
 3589 1bdc D154     		strb	r1, [r2, r3]
 3590 1bde 73E1     		b	.L99
 3591              	.L74:
 3592 1be0 97F83F30 		ldrb	r3, [r7, #63]	@ zero_extendqisi2
 3593 1be4 002B     		cmp	r3, #0
 3594 1be6 08D1     		bne	.L185
 3595 1be8 784B     		ldr	r3, .L547+20
 3596 1bea 1B68     		ldr	r3, [r3]
 3597 1bec 5A1C     		adds	r2, r3, #1
 3598 1bee 7749     		ldr	r1, .L547+20
 3599 1bf0 0A60     		str	r2, [r1]
 3600 1bf2 774A     		ldr	r2, .L547+24
 3601 1bf4 0021     		movs	r1, #0
 3602 1bf6 D154     		strb	r1, [r2, r3]
 3603 1bf8 66E1     		b	.L99
 3604              	.L185:
 3605 1bfa FFF7FEFF 		bl	getTemperature
 3606 1bfe 0346     		mov	r3, r0
 3607 1c00 1846     		mov	r0, r3
 3608 1c02 724B     		ldr	r3, .L547+20
 3609 1c04 1B68     		ldr	r3, [r3]
 3610 1c06 5A1C     		adds	r2, r3, #1
 3611 1c08 7049     		ldr	r1, .L547+20
 3612 1c0a 0A60     		str	r2, [r1]
 3613 1c0c C1B2     		uxtb	r1, r0
 3614 1c0e 704A     		ldr	r2, .L547+24
ARM GAS  /var/folders/d2/nstgp4h54kz7g1l847x_b8wc0000gn/T//ccVbBKId.s 			page 70


 3615 1c10 D154     		strb	r1, [r2, r3]
 3616 1c12 59E1     		b	.L99
 3617              	.L75:
 3618 1c14 0020     		movs	r0, #0
 3619 1c16 FFF7FEFF 		bl	e_get_micro_volume
 3620 1c1a 0246     		mov	r2, r0
 3621 1c1c 6A4B     		ldr	r3, .L547+16
 3622 1c1e 1A60     		str	r2, [r3]
 3623 1c20 694B     		ldr	r3, .L547+16
 3624 1c22 1868     		ldr	r0, [r3]
 3625 1c24 694B     		ldr	r3, .L547+20
 3626 1c26 1B68     		ldr	r3, [r3]
 3627 1c28 5A1C     		adds	r2, r3, #1
 3628 1c2a 6849     		ldr	r1, .L547+20
 3629 1c2c 0A60     		str	r2, [r1]
 3630 1c2e C1B2     		uxtb	r1, r0
 3631 1c30 674A     		ldr	r2, .L547+24
 3632 1c32 D154     		strb	r1, [r2, r3]
 3633 1c34 644B     		ldr	r3, .L547+16
 3634 1c36 1B68     		ldr	r3, [r3]
 3635 1c38 1812     		asrs	r0, r3, #8
 3636 1c3a 644B     		ldr	r3, .L547+20
 3637 1c3c 1B68     		ldr	r3, [r3]
 3638 1c3e 5A1C     		adds	r2, r3, #1
 3639 1c40 6249     		ldr	r1, .L547+20
 3640 1c42 0A60     		str	r2, [r1]
 3641 1c44 C1B2     		uxtb	r1, r0
 3642 1c46 624A     		ldr	r2, .L547+24
 3643 1c48 D154     		strb	r1, [r2, r3]
 3644 1c4a 0120     		movs	r0, #1
 3645 1c4c FFF7FEFF 		bl	e_get_micro_volume
 3646 1c50 0246     		mov	r2, r0
 3647 1c52 5D4B     		ldr	r3, .L547+16
 3648 1c54 1A60     		str	r2, [r3]
 3649 1c56 5C4B     		ldr	r3, .L547+16
 3650 1c58 1868     		ldr	r0, [r3]
 3651 1c5a 5C4B     		ldr	r3, .L547+20
 3652 1c5c 1B68     		ldr	r3, [r3]
 3653 1c5e 5A1C     		adds	r2, r3, #1
 3654 1c60 5A49     		ldr	r1, .L547+20
 3655 1c62 0A60     		str	r2, [r1]
 3656 1c64 C1B2     		uxtb	r1, r0
 3657 1c66 5A4A     		ldr	r2, .L547+24
 3658 1c68 D154     		strb	r1, [r2, r3]
 3659 1c6a 574B     		ldr	r3, .L547+16
 3660 1c6c 1B68     		ldr	r3, [r3]
 3661 1c6e 1812     		asrs	r0, r3, #8
 3662 1c70 564B     		ldr	r3, .L547+20
 3663 1c72 1B68     		ldr	r3, [r3]
 3664 1c74 5A1C     		adds	r2, r3, #1
 3665 1c76 5549     		ldr	r1, .L547+20
 3666 1c78 0A60     		str	r2, [r1]
 3667 1c7a C1B2     		uxtb	r1, r0
 3668 1c7c 544A     		ldr	r2, .L547+24
 3669 1c7e D154     		strb	r1, [r2, r3]
 3670 1c80 0220     		movs	r0, #2
 3671 1c82 FFF7FEFF 		bl	e_get_micro_volume
ARM GAS  /var/folders/d2/nstgp4h54kz7g1l847x_b8wc0000gn/T//ccVbBKId.s 			page 71


 3672 1c86 0246     		mov	r2, r0
 3673 1c88 4F4B     		ldr	r3, .L547+16
 3674 1c8a 1A60     		str	r2, [r3]
 3675 1c8c 4E4B     		ldr	r3, .L547+16
 3676 1c8e 1868     		ldr	r0, [r3]
 3677 1c90 4E4B     		ldr	r3, .L547+20
 3678 1c92 1B68     		ldr	r3, [r3]
 3679 1c94 5A1C     		adds	r2, r3, #1
 3680 1c96 4D49     		ldr	r1, .L547+20
 3681 1c98 0A60     		str	r2, [r1]
 3682 1c9a C1B2     		uxtb	r1, r0
 3683 1c9c 4C4A     		ldr	r2, .L547+24
 3684 1c9e D154     		strb	r1, [r2, r3]
 3685 1ca0 494B     		ldr	r3, .L547+16
 3686 1ca2 1B68     		ldr	r3, [r3]
 3687 1ca4 1812     		asrs	r0, r3, #8
 3688 1ca6 494B     		ldr	r3, .L547+20
 3689 1ca8 1B68     		ldr	r3, [r3]
 3690 1caa 5A1C     		adds	r2, r3, #1
 3691 1cac 4749     		ldr	r1, .L547+20
 3692 1cae 0A60     		str	r2, [r1]
 3693 1cb0 C1B2     		uxtb	r1, r0
 3694 1cb2 474A     		ldr	r2, .L547+24
 3695 1cb4 D154     		strb	r1, [r2, r3]
 3696 1cb6 07E1     		b	.L99
 3697              	.L70:
 3698 1cb8 97F83F30 		ldrb	r3, [r7, #63]	@ zero_extendqisi2
 3699 1cbc 002B     		cmp	r3, #0
 3700 1cbe 40F00081 		bne	.L485
 3701 1cc2 3B6C     		ldr	r3, [r7, #64]
 3702 1cc4 002B     		cmp	r3, #0
 3703 1cc6 15D0     		beq	.L523
 3704 1cc8 00BF     		nop
 3705              	.L189:
 3706 1cca 4248     		ldr	r0, .L547+28
 3707 1ccc FFF7FEFF 		bl	e_getchar_uart1
 3708 1cd0 0346     		mov	r3, r0
 3709 1cd2 002B     		cmp	r3, #0
 3710 1cd4 F9D0     		beq	.L189
 3711 1cd6 00BF     		nop
 3712              	.L190:
 3713 1cd8 3F48     		ldr	r0, .L547+32
 3714 1cda FFF7FEFF 		bl	e_getchar_uart1
 3715 1cde 0346     		mov	r3, r0
 3716 1ce0 002B     		cmp	r3, #0
 3717 1ce2 F9D0     		beq	.L190
 3718 1ce4 00BF     		nop
 3719              	.L191:
 3720 1ce6 3D48     		ldr	r0, .L547+36
 3721 1ce8 FFF7FEFF 		bl	e_getchar_uart1
 3722 1cec 0346     		mov	r3, r0
 3723 1cee 002B     		cmp	r3, #0
 3724 1cf0 F9D0     		beq	.L191
 3725 1cf2 14E0     		b	.L192
 3726              	.L523:
 3727 1cf4 00BF     		nop
 3728              	.L193:
ARM GAS  /var/folders/d2/nstgp4h54kz7g1l847x_b8wc0000gn/T//ccVbBKId.s 			page 72


 3729 1cf6 3748     		ldr	r0, .L547+28
 3730 1cf8 FFF7FEFF 		bl	e_getchar_uart2
 3731 1cfc 0346     		mov	r3, r0
 3732 1cfe 002B     		cmp	r3, #0
 3733 1d00 F9D0     		beq	.L193
 3734 1d02 00BF     		nop
 3735              	.L194:
 3736 1d04 3448     		ldr	r0, .L547+32
 3737 1d06 FFF7FEFF 		bl	e_getchar_uart2
 3738 1d0a 0346     		mov	r3, r0
 3739 1d0c 002B     		cmp	r3, #0
 3740 1d0e F9D0     		beq	.L194
 3741 1d10 00BF     		nop
 3742              	.L195:
 3743 1d12 3248     		ldr	r0, .L547+36
 3744 1d14 FFF7FEFF 		bl	e_getchar_uart2
 3745 1d18 0346     		mov	r3, r0
 3746 1d1a 002B     		cmp	r3, #0
 3747 1d1c F9D0     		beq	.L195
 3748              	.L192:
 3749 1d1e FFF7FEFF 		bl	e_i2cp_enable
 3750 1d22 2C4B     		ldr	r3, .L547+28
 3751 1d24 1B68     		ldr	r3, [r3]
 3752 1d26 D8B2     		uxtb	r0, r3
 3753 1d28 2B4B     		ldr	r3, .L547+32
 3754 1d2a 1B68     		ldr	r3, [r3]
 3755 1d2c D9B2     		uxtb	r1, r3
 3756 1d2e 2B4B     		ldr	r3, .L547+36
 3757 1d30 1B68     		ldr	r3, [r3]
 3758 1d32 DBB2     		uxtb	r3, r3
 3759 1d34 1A46     		mov	r2, r3
 3760 1d36 FFF7FEFF 		bl	e_i2cp_write
 3761 1d3a FFF7FEFF 		bl	e_i2cp_disable
 3762 1d3e C0E0     		b	.L485
 3763              	.L76:
 3764 1d40 97F83F30 		ldrb	r3, [r7, #63]	@ zero_extendqisi2
 3765 1d44 002B     		cmp	r3, #0
 3766 1d46 40F0BE80 		bne	.L486
 3767 1d4a FFF7FEFF 		bl	e_i2cp_enable
 3768 1d4e 244B     		ldr	r3, .L547+40
 3769 1d50 0022     		movs	r2, #0
 3770 1d52 1A60     		str	r2, [r3]
 3771 1d54 0FE0     		b	.L197
 3772              	.L199:
 3773 1d56 00BF     		nop
 3774              	.L198:
 3775 1d58 214B     		ldr	r3, .L547+40
 3776 1d5a 1B68     		ldr	r3, [r3]
 3777 1d5c 1C4A     		ldr	r2, .L547+24
 3778 1d5e 1344     		add	r3, r3, r2
 3779 1d60 1846     		mov	r0, r3
 3780 1d62 FFF7FEFF 		bl	e_getchar_uart1
 3781 1d66 0346     		mov	r3, r0
 3782 1d68 002B     		cmp	r3, #0
 3783 1d6a F5D0     		beq	.L198
 3784 1d6c 1C4B     		ldr	r3, .L547+40
 3785 1d6e 1B68     		ldr	r3, [r3]
ARM GAS  /var/folders/d2/nstgp4h54kz7g1l847x_b8wc0000gn/T//ccVbBKId.s 			page 73


 3786 1d70 0133     		adds	r3, r3, #1
 3787 1d72 1B4A     		ldr	r2, .L547+40
 3788 1d74 1360     		str	r3, [r2]
 3789              	.L197:
 3790 1d76 1A4B     		ldr	r3, .L547+40
 3791 1d78 1B68     		ldr	r3, [r3]
 3792 1d7a 172B     		cmp	r3, #23
 3793 1d7c EBDD     		ble	.L199
 3794 1d7e 184B     		ldr	r3, .L547+40
 3795 1d80 9222     		movs	r2, #146
 3796 1d82 1A60     		str	r2, [r3]
 3797 1d84 10E0     		b	.L200
 3798              	.L202:
 3799 1d86 00BF     		nop
 3800              	.L201:
 3801 1d88 154B     		ldr	r3, .L547+40
 3802 1d8a 1B68     		ldr	r3, [r3]
 3803 1d8c 7A3B     		subs	r3, r3, #122
 3804 1d8e 104A     		ldr	r2, .L547+24
 3805 1d90 1344     		add	r3, r3, r2
 3806 1d92 1846     		mov	r0, r3
 3807 1d94 FFF7FEFF 		bl	e_getchar_uart1
 3808 1d98 0346     		mov	r3, r0
 3809 1d9a 002B     		cmp	r3, #0
 3810 1d9c F4D0     		beq	.L201
 3811 1d9e 104B     		ldr	r3, .L547+40
 3812 1da0 1B68     		ldr	r3, [r3]
 3813 1da2 0133     		adds	r3, r3, #1
 3814 1da4 0E4A     		ldr	r2, .L547+40
 3815 1da6 1360     		str	r3, [r2]
 3816              	.L200:
 3817 1da8 0D4B     		ldr	r3, .L547+40
 3818 1daa 1B68     		ldr	r3, [r3]
 3819 1dac 942B     		cmp	r3, #148
 3820 1dae EADD     		ble	.L202
 3821 1db0 0B4B     		ldr	r3, .L547+40
 3822 1db2 A422     		movs	r2, #164
 3823 1db4 1A60     		str	r2, [r3]
 3824 1db6 26E0     		b	.L203
 3825              	.L548:
 3826              		.align	2
 3827              	.L547:
 3828 1db8 00000000 		.word	c1.13429
 3829 1dbc 00000000 		.word	c2.13430
 3830 1dc0 00000000 		.word	positionr.13437
 3831 1dc4 00000000 		.word	positionl.13438
 3832 1dc8 00000000 		.word	n.13434
 3833 1dcc 00000000 		.word	i.13432
 3834 1dd0 00000000 		.word	buffer
 3835 1dd4 00000000 		.word	mod.13458
 3836 1dd8 00000000 		.word	reg.13459
 3837 1ddc 00000000 		.word	val.13460
 3838 1de0 00000000 		.word	j.13433
 3839              	.L205:
 3840 1de4 00BF     		nop
 3841              	.L204:
 3842 1de6 8C4B     		ldr	r3, .L549
ARM GAS  /var/folders/d2/nstgp4h54kz7g1l847x_b8wc0000gn/T//ccVbBKId.s 			page 74


 3843 1de8 1B68     		ldr	r3, [r3]
 3844 1dea 893B     		subs	r3, r3, #137
 3845 1dec 8B4A     		ldr	r2, .L549+4
 3846 1dee 1344     		add	r3, r3, r2
 3847 1df0 1846     		mov	r0, r3
 3848 1df2 FFF7FEFF 		bl	e_getchar_uart1
 3849 1df6 0346     		mov	r3, r0
 3850 1df8 002B     		cmp	r3, #0
 3851 1dfa F4D0     		beq	.L204
 3852 1dfc 864B     		ldr	r3, .L549
 3853 1dfe 1B68     		ldr	r3, [r3]
 3854 1e00 0133     		adds	r3, r3, #1
 3855 1e02 854A     		ldr	r2, .L549
 3856 1e04 1360     		str	r3, [r2]
 3857              	.L203:
 3858 1e06 844B     		ldr	r3, .L549
 3859 1e08 1B68     		ldr	r3, [r3]
 3860 1e0a AB2B     		cmp	r3, #171
 3861 1e0c EADD     		ble	.L205
 3862 1e0e 824B     		ldr	r3, .L549
 3863 1e10 0022     		movs	r2, #0
 3864 1e12 1A60     		str	r2, [r3]
 3865 1e14 0FE0     		b	.L206
 3866              	.L207:
 3867 1e16 804B     		ldr	r3, .L549
 3868 1e18 1B68     		ldr	r3, [r3]
 3869 1e1a D9B2     		uxtb	r1, r3
 3870 1e1c 7E4B     		ldr	r3, .L549
 3871 1e1e 1B68     		ldr	r3, [r3]
 3872 1e20 7E4A     		ldr	r2, .L549+4
 3873 1e22 D35C     		ldrb	r3, [r2, r3]	@ zero_extendqisi2
 3874 1e24 1A46     		mov	r2, r3
 3875 1e26 B020     		movs	r0, #176
 3876 1e28 FFF7FEFF 		bl	e_i2cp_write
 3877 1e2c 7A4B     		ldr	r3, .L549
 3878 1e2e 1B68     		ldr	r3, [r3]
 3879 1e30 0133     		adds	r3, r3, #1
 3880 1e32 794A     		ldr	r2, .L549
 3881 1e34 1360     		str	r3, [r2]
 3882              	.L206:
 3883 1e36 784B     		ldr	r3, .L549
 3884 1e38 1B68     		ldr	r3, [r3]
 3885 1e3a 172B     		cmp	r3, #23
 3886 1e3c EBDD     		ble	.L207
 3887 1e3e 764B     		ldr	r3, .L549
 3888 1e40 9222     		movs	r2, #146
 3889 1e42 1A60     		str	r2, [r3]
 3890 1e44 10E0     		b	.L208
 3891              	.L209:
 3892 1e46 744B     		ldr	r3, .L549
 3893 1e48 1B68     		ldr	r3, [r3]
 3894 1e4a D9B2     		uxtb	r1, r3
 3895 1e4c 724B     		ldr	r3, .L549
 3896 1e4e 1B68     		ldr	r3, [r3]
 3897 1e50 7A3B     		subs	r3, r3, #122
 3898 1e52 724A     		ldr	r2, .L549+4
 3899 1e54 D35C     		ldrb	r3, [r2, r3]	@ zero_extendqisi2
ARM GAS  /var/folders/d2/nstgp4h54kz7g1l847x_b8wc0000gn/T//ccVbBKId.s 			page 75


 3900 1e56 1A46     		mov	r2, r3
 3901 1e58 B020     		movs	r0, #176
 3902 1e5a FFF7FEFF 		bl	e_i2cp_write
 3903 1e5e 6E4B     		ldr	r3, .L549
 3904 1e60 1B68     		ldr	r3, [r3]
 3905 1e62 0133     		adds	r3, r3, #1
 3906 1e64 6C4A     		ldr	r2, .L549
 3907 1e66 1360     		str	r3, [r2]
 3908              	.L208:
 3909 1e68 6B4B     		ldr	r3, .L549
 3910 1e6a 1B68     		ldr	r3, [r3]
 3911 1e6c 942B     		cmp	r3, #148
 3912 1e6e EADD     		ble	.L209
 3913 1e70 694B     		ldr	r3, .L549
 3914 1e72 A422     		movs	r2, #164
 3915 1e74 1A60     		str	r2, [r3]
 3916 1e76 10E0     		b	.L210
 3917              	.L211:
 3918 1e78 674B     		ldr	r3, .L549
 3919 1e7a 1B68     		ldr	r3, [r3]
 3920 1e7c D9B2     		uxtb	r1, r3
 3921 1e7e 664B     		ldr	r3, .L549
 3922 1e80 1B68     		ldr	r3, [r3]
 3923 1e82 893B     		subs	r3, r3, #137
 3924 1e84 654A     		ldr	r2, .L549+4
 3925 1e86 D35C     		ldrb	r3, [r2, r3]	@ zero_extendqisi2
 3926 1e88 1A46     		mov	r2, r3
 3927 1e8a B020     		movs	r0, #176
 3928 1e8c FFF7FEFF 		bl	e_i2cp_write
 3929 1e90 614B     		ldr	r3, .L549
 3930 1e92 1B68     		ldr	r3, [r3]
 3931 1e94 0133     		adds	r3, r3, #1
 3932 1e96 604A     		ldr	r2, .L549
 3933 1e98 1360     		str	r3, [r2]
 3934              	.L210:
 3935 1e9a 5F4B     		ldr	r3, .L549
 3936 1e9c 1B68     		ldr	r3, [r3]
 3937 1e9e AB2B     		cmp	r3, #171
 3938 1ea0 EADD     		ble	.L211
 3939 1ea2 0122     		movs	r2, #1
 3940 1ea4 9121     		movs	r1, #145
 3941 1ea6 B020     		movs	r0, #176
 3942 1ea8 FFF7FEFF 		bl	e_i2cp_write
 3943 1eac FFF7FEFF 		bl	e_i2cp_disable
 3944 1eb0 09E0     		b	.L486
 3945              	.L481:
 3946 1eb2 00BF     		nop
 3947 1eb4 08E0     		b	.L99
 3948              	.L482:
 3949 1eb6 00BF     		nop
 3950 1eb8 06E0     		b	.L99
 3951              	.L483:
 3952 1eba 00BF     		nop
 3953 1ebc 04E0     		b	.L99
 3954              	.L484:
 3955 1ebe 00BF     		nop
 3956 1ec0 02E0     		b	.L99
ARM GAS  /var/folders/d2/nstgp4h54kz7g1l847x_b8wc0000gn/T//ccVbBKId.s 			page 76


 3957              	.L485:
 3958 1ec2 00BF     		nop
 3959 1ec4 00E0     		b	.L99
 3960              	.L486:
 3961 1ec6 00BF     		nop
 3962              	.L99:
 3963 1ec8 97F83F30 		ldrb	r3, [r7, #63]	@ zero_extendqisi2
 3964 1ecc 002B     		cmp	r3, #0
 3965 1ece 11D1     		bne	.L212
 3966 1ed0 3B6C     		ldr	r3, [r7, #64]
 3967 1ed2 002B     		cmp	r3, #0
 3968 1ed4 07D0     		beq	.L524
 3969 1ed6 00BF     		nop
 3970              	.L214:
 3971 1ed8 5148     		ldr	r0, .L549+8
 3972 1eda FFF7FEFF 		bl	e_getchar_uart1
 3973 1ede 0346     		mov	r3, r0
 3974 1ee0 002B     		cmp	r3, #0
 3975 1ee2 F9D0     		beq	.L214
 3976 1ee4 06E0     		b	.L212
 3977              	.L524:
 3978 1ee6 00BF     		nop
 3979              	.L215:
 3980 1ee8 4D48     		ldr	r0, .L549+8
 3981 1eea FFF7FEFF 		bl	e_getchar_uart2
 3982 1eee 0346     		mov	r3, r0
 3983 1ef0 002B     		cmp	r3, #0
 3984 1ef2 F9D0     		beq	.L215
 3985              	.L212:
 3986 1ef4 4A4B     		ldr	r3, .L549+8
 3987 1ef6 1B78     		ldrb	r3, [r3]	@ zero_extendqisi2
 3988 1ef8 002B     		cmp	r3, #0
 3989 1efa 7EF4CBAA 		bne	.L216
 3990 1efe 494B     		ldr	r3, .L549+12
 3991 1f00 1B68     		ldr	r3, [r3]
 3992 1f02 002B     		cmp	r3, #0
 3993 1f04 3EF445A9 		beq	.L479
 3994 1f08 97F83F30 		ldrb	r3, [r7, #63]	@ zero_extendqisi2
 3995 1f0c 002B     		cmp	r3, #0
 3996 1f0e 14D1     		bne	.L218
 3997 1f10 454B     		ldr	r3, .L549+16
 3998 1f12 1B78     		ldrb	r3, [r3]	@ zero_extendqisi2
 3999 1f14 002B     		cmp	r3, #0
 4000 1f16 10D0     		beq	.L218
 4001 1f18 434B     		ldr	r3, .L549+16
 4002 1f1a 0022     		movs	r2, #0
 4003 1f1c 1A70     		strb	r2, [r3]
 4004 1f1e FFF7FEFF 		bl	e_poxxxx_wait_img_ready
 4005 1f22 BB8F     		ldrh	r3, [r7, #60]
 4006 1f24 3D4A     		ldr	r2, .L549+4
 4007 1f26 9C18     		adds	r4, r3, r2
 4008 1f28 FFF7FEFF 		bl	cam_get_last_image_ptr
 4009 1f2c 0146     		mov	r1, r0
 4010 1f2e 3F4B     		ldr	r3, .L549+20
 4011 1f30 1B68     		ldr	r3, [r3]
 4012 1f32 1A46     		mov	r2, r3
 4013 1f34 2046     		mov	r0, r4
ARM GAS  /var/folders/d2/nstgp4h54kz7g1l847x_b8wc0000gn/T//ccVbBKId.s 			page 77


 4014 1f36 FFF7FEFF 		bl	memcpy
 4015              	.L218:
 4016 1f3a 97F83F30 		ldrb	r3, [r7, #63]	@ zero_extendqisi2
 4017 1f3e 002B     		cmp	r3, #0
 4018 1f40 7EF427A9 		bne	.L479
 4019 1f44 3B6C     		ldr	r3, [r7, #64]
 4020 1f46 002B     		cmp	r3, #0
 4021 1f48 0DD0     		beq	.L219
 4022 1f4a 364B     		ldr	r3, .L549+12
 4023 1f4c 1B68     		ldr	r3, [r3]
 4024 1f4e 1946     		mov	r1, r3
 4025 1f50 3248     		ldr	r0, .L549+4
 4026 1f52 FFF7FEFF 		bl	e_send_uart1_char
 4027 1f56 00BF     		nop
 4028              	.L220:
 4029 1f58 FFF7FEFF 		bl	e_uart1_sending
 4030 1f5c 0346     		mov	r3, r0
 4031 1f5e 002B     		cmp	r3, #0
 4032 1f60 FAD1     		bne	.L220
 4033 1f62 FEF716B9 		b	.L479
 4034              	.L219:
 4035 1f66 2F4B     		ldr	r3, .L549+12
 4036 1f68 1B68     		ldr	r3, [r3]
 4037 1f6a 1946     		mov	r1, r3
 4038 1f6c 2B48     		ldr	r0, .L549+4
 4039 1f6e FFF7FEFF 		bl	e_send_uart2_char
 4040 1f72 00BF     		nop
 4041              	.L221:
 4042 1f74 FFF7FEFF 		bl	e_uart2_sending
 4043 1f78 0346     		mov	r3, r0
 4044 1f7a 002B     		cmp	r3, #0
 4045 1f7c FAD1     		bne	.L221
 4046 1f7e FEF708B9 		b	.L479
 4047              	.L49:
 4048 1f82 274B     		ldr	r3, .L549+8
 4049 1f84 1B78     		ldrb	r3, [r3]	@ zero_extendqisi2
 4050 1f86 002B     		cmp	r3, #0
 4051 1f88 01F09C83 		beq	.L487
 4052 1f8c 97F83F30 		ldrb	r3, [r7, #63]	@ zero_extendqisi2
 4053 1f90 002B     		cmp	r3, #0
 4054 1f92 1AD1     		bne	.L222
 4055 1f94 3B6C     		ldr	r3, [r7, #64]
 4056 1f96 002B     		cmp	r3, #0
 4057 1f98 0FD0     		beq	.L226
 4058 1f9a 02E0     		b	.L224
 4059              	.L225:
 4060 1f9c 2048     		ldr	r0, .L549+8
 4061 1f9e FFF7FEFF 		bl	e_getchar_uart1
 4062              	.L224:
 4063 1fa2 1F4B     		ldr	r3, .L549+8
 4064 1fa4 1B78     		ldrb	r3, [r3]	@ zero_extendqisi2
 4065 1fa6 0A2B     		cmp	r3, #10
 4066 1fa8 F8D0     		beq	.L225
 4067 1faa 1D4B     		ldr	r3, .L549+8
 4068 1fac 1B78     		ldrb	r3, [r3]	@ zero_extendqisi2
 4069 1fae 0D2B     		cmp	r3, #13
 4070 1fb0 F4D0     		beq	.L225
ARM GAS  /var/folders/d2/nstgp4h54kz7g1l847x_b8wc0000gn/T//ccVbBKId.s 			page 78


 4071 1fb2 0AE0     		b	.L222
 4072              	.L227:
 4073 1fb4 1A48     		ldr	r0, .L549+8
 4074 1fb6 FFF7FEFF 		bl	e_getchar_uart2
 4075              	.L226:
 4076 1fba 194B     		ldr	r3, .L549+8
 4077 1fbc 1B78     		ldrb	r3, [r3]	@ zero_extendqisi2
 4078 1fbe 0A2B     		cmp	r3, #10
 4079 1fc0 F8D0     		beq	.L227
 4080 1fc2 174B     		ldr	r3, .L549+8
 4081 1fc4 1B78     		ldrb	r3, [r3]	@ zero_extendqisi2
 4082 1fc6 0D2B     		cmp	r3, #13
 4083 1fc8 F4D0     		beq	.L227
 4084              	.L222:
 4085 1fca 154B     		ldr	r3, .L549+8
 4086 1fcc 1A78     		ldrb	r2, [r3]	@ zero_extendqisi2
 4087 1fce 134B     		ldr	r3, .L549+4
 4088 1fd0 1A70     		strb	r2, [r3]
 4089 1fd2 144B     		ldr	r3, .L549+12
 4090 1fd4 0122     		movs	r2, #1
 4091 1fd6 1A60     		str	r2, [r3]
 4092 1fd8 97F83F30 		ldrb	r3, [r7, #63]	@ zero_extendqisi2
 4093 1fdc 002B     		cmp	r3, #0
 4094 1fde 3ED1     		bne	.L228
 4095 1fe0 3B6C     		ldr	r3, [r7, #64]
 4096 1fe2 002B     		cmp	r3, #0
 4097 1fe4 24D0     		beq	.L229
 4098              	.L231:
 4099 1fe6 0E48     		ldr	r0, .L549+8
 4100 1fe8 FFF7FEFF 		bl	e_getchar_uart1
 4101 1fec 0346     		mov	r3, r0
 4102 1fee 002B     		cmp	r3, #0
 4103 1ff0 08D0     		beq	.L230
 4104 1ff2 0C4B     		ldr	r3, .L549+12
 4105 1ff4 1B68     		ldr	r3, [r3]
 4106 1ff6 5A1C     		adds	r2, r3, #1
 4107 1ff8 0A49     		ldr	r1, .L549+12
 4108 1ffa 0A60     		str	r2, [r1]
 4109 1ffc 084A     		ldr	r2, .L549+8
 4110 1ffe 1178     		ldrb	r1, [r2]	@ zero_extendqisi2
 4111 2000 064A     		ldr	r2, .L549+4
 4112 2002 D154     		strb	r1, [r2, r3]
 4113              	.L230:
 4114 2004 064B     		ldr	r3, .L549+8
 4115 2006 1B78     		ldrb	r3, [r3]	@ zero_extendqisi2
 4116 2008 0A2B     		cmp	r3, #10
 4117 200a 28D0     		beq	.L228
 4118 200c 044B     		ldr	r3, .L549+8
 4119 200e 1B78     		ldrb	r3, [r3]	@ zero_extendqisi2
 4120 2010 0D2B     		cmp	r3, #13
 4121 2012 E8D1     		bne	.L231
 4122 2014 23E0     		b	.L228
 4123              	.L550:
 4124 2016 00BF     		.align	2
 4125              	.L549:
 4126 2018 00000000 		.word	j.13433
 4127 201c 00000000 		.word	buffer
ARM GAS  /var/folders/d2/nstgp4h54kz7g1l847x_b8wc0000gn/T//ccVbBKId.s 			page 79


 4128 2020 00000000 		.word	c
 4129 2024 00000000 		.word	i.13432
 4130 2028 00000000 		.word	wait_cam.13431
 4131 202c 00000000 		.word	cam_size.13452
 4132              	.L229:
 4133 2030 CA48     		ldr	r0, .L551
 4134 2032 FFF7FEFF 		bl	e_getchar_uart2
 4135 2036 0346     		mov	r3, r0
 4136 2038 002B     		cmp	r3, #0
 4137 203a 08D0     		beq	.L232
 4138 203c C84B     		ldr	r3, .L551+4
 4139 203e 1B68     		ldr	r3, [r3]
 4140 2040 5A1C     		adds	r2, r3, #1
 4141 2042 C749     		ldr	r1, .L551+4
 4142 2044 0A60     		str	r2, [r1]
 4143 2046 C54A     		ldr	r2, .L551
 4144 2048 1178     		ldrb	r1, [r2]	@ zero_extendqisi2
 4145 204a C64A     		ldr	r2, .L551+8
 4146 204c D154     		strb	r1, [r2, r3]
 4147              	.L232:
 4148 204e C34B     		ldr	r3, .L551
 4149 2050 1B78     		ldrb	r3, [r3]	@ zero_extendqisi2
 4150 2052 0A2B     		cmp	r3, #10
 4151 2054 03D0     		beq	.L228
 4152 2056 C14B     		ldr	r3, .L551
 4153 2058 1B78     		ldrb	r3, [r3]	@ zero_extendqisi2
 4154 205a 0D2B     		cmp	r3, #13
 4155 205c E8D1     		bne	.L229
 4156              	.L228:
 4157 205e C04B     		ldr	r3, .L551+4
 4158 2060 1B68     		ldr	r3, [r3]
 4159 2062 5A1C     		adds	r2, r3, #1
 4160 2064 BE49     		ldr	r1, .L551+4
 4161 2066 0A60     		str	r2, [r1]
 4162 2068 BE4A     		ldr	r2, .L551+8
 4163 206a 0021     		movs	r1, #0
 4164 206c D154     		strb	r1, [r2, r3]
 4165 206e BD4B     		ldr	r3, .L551+8
 4166 2070 1B78     		ldrb	r3, [r3]	@ zero_extendqisi2
 4167 2072 622B     		cmp	r3, #98
 4168 2074 1CD0     		beq	.L233
 4169 2076 BB4B     		ldr	r3, .L551+8
 4170 2078 1B78     		ldrb	r3, [r3]	@ zero_extendqisi2
 4171 207a 672B     		cmp	r3, #103
 4172 207c 18D0     		beq	.L233
 4173 207e B94B     		ldr	r3, .L551+8
 4174 2080 1B78     		ldrb	r3, [r3]
 4175 2082 87F82B30 		strb	r3, [r7, #43]
 4176 2086 FFF7FEFF 		bl	__locale_ctype_ptr
 4177 208a 0246     		mov	r2, r0
 4178 208c 97F82B30 		ldrb	r3, [r7, #43]	@ zero_extendqisi2
 4179 2090 0133     		adds	r3, r3, #1
 4180 2092 1344     		add	r3, r3, r2
 4181 2094 1B78     		ldrb	r3, [r3]	@ zero_extendqisi2
 4182 2096 03F00303 		and	r3, r3, #3
 4183 209a 022B     		cmp	r3, #2
 4184 209c 03D1     		bne	.L234
ARM GAS  /var/folders/d2/nstgp4h54kz7g1l847x_b8wc0000gn/T//ccVbBKId.s 			page 80


 4185 209e 97F82B30 		ldrb	r3, [r7, #43]	@ zero_extendqisi2
 4186 20a2 203B     		subs	r3, r3, #32
 4187 20a4 01E0     		b	.L235
 4188              	.L234:
 4189 20a6 97F82B30 		ldrb	r3, [r7, #43]	@ zero_extendqisi2
 4190              	.L235:
 4191 20aa DAB2     		uxtb	r2, r3
 4192 20ac AD4B     		ldr	r3, .L551+8
 4193 20ae 1A70     		strb	r2, [r3]
 4194              	.L233:
 4195 20b0 AC4B     		ldr	r3, .L551+8
 4196 20b2 1B78     		ldrb	r3, [r3]	@ zero_extendqisi2
 4197 20b4 413B     		subs	r3, r3, #65
 4198 20b6 332B     		cmp	r3, #51
 4199 20b8 01F2E782 		bhi	.L236
 4200 20bc 01A2     		adr	r2, .L238
 4201 20be 52F823F0 		ldr	pc, [r2, r3, lsl #2]
 4202 20c2 00BF     		.p2align 2
 4203              	.L238:
 4204 20c4 95210000 		.word	.L237+1
 4205 20c8 8F220000 		.word	.L239+1
 4206 20cc E3220000 		.word	.L240+1
 4207 20d0 B1230000 		.word	.L241+1
 4208 20d4 11240000 		.word	.L242+1
 4209 20d8 71240000 		.word	.L243+1
 4210 20dc C5240000 		.word	.L244+1
 4211 20e0 C1250000 		.word	.L245+1
 4212 20e4 252B0000 		.word	.L246+1
 4213 20e8 9B2B0000 		.word	.L247+1
 4214 20ec 892D0000 		.word	.L248+1
 4215 20f0 492E0000 		.word	.L249+1
 4216 20f4 A72E0000 		.word	.L250+1
 4217 20f8 752F0000 		.word	.L251+1
 4218 20fc 1D300000 		.word	.L252+1
 4219 2100 C5300000 		.word	.L253+1
 4220 2104 21310000 		.word	.L254+1
 4221 2108 CB360000 		.word	.L488+1
 4222 210c 83310000 		.word	.L256+1
 4223 2110 D3310000 		.word	.L257+1
 4224 2114 4D330000 		.word	.L258+1
 4225 2118 BF330000 		.word	.L259+1
 4226 211c 51340000 		.word	.L260+1
 4227 2120 8B360000 		.word	.L236+1
 4228 2124 BD340000 		.word	.L261+1
 4229 2128 B3350000 		.word	.L262+1
 4230 212c 8B360000 		.word	.L236+1
 4231 2130 8B360000 		.word	.L236+1
 4232 2134 8B360000 		.word	.L236+1
 4233 2138 8B360000 		.word	.L236+1
 4234 213c 8B360000 		.word	.L236+1
 4235 2140 8B360000 		.word	.L236+1
 4236 2144 8B360000 		.word	.L236+1
 4237 2148 29220000 		.word	.L263+1
 4238 214c 8B360000 		.word	.L236+1
 4239 2150 8B360000 		.word	.L236+1
 4240 2154 8B360000 		.word	.L236+1
 4241 2158 8B360000 		.word	.L236+1
ARM GAS  /var/folders/d2/nstgp4h54kz7g1l847x_b8wc0000gn/T//ccVbBKId.s 			page 81


 4242 215c 39250000 		.word	.L264+1
 4243 2160 8B360000 		.word	.L236+1
 4244 2164 8B360000 		.word	.L236+1
 4245 2168 8B360000 		.word	.L236+1
 4246 216c 8B360000 		.word	.L236+1
 4247 2170 8B360000 		.word	.L236+1
 4248 2174 8B360000 		.word	.L236+1
 4249 2178 8B360000 		.word	.L236+1
 4250 217c 8B360000 		.word	.L236+1
 4251 2180 8B360000 		.word	.L236+1
 4252 2184 8B360000 		.word	.L236+1
 4253 2188 8B360000 		.word	.L236+1
 4254 218c 8B360000 		.word	.L236+1
 4255 2190 A1320000 		.word	.L265+1
 4256              		.p2align 1
 4257              	.L237:
 4258 2194 97F83F30 		ldrb	r3, [r7, #63]	@ zero_extendqisi2
 4259 2198 002B     		cmp	r3, #0
 4260 219a 16D1     		bne	.L266
 4261 219c 0121     		movs	r1, #1
 4262 219e 0020     		movs	r0, #0
 4263 21a0 FFF7FEFF 		bl	e_get_acc_filtered
 4264 21a4 0446     		mov	r4, r0
 4265 21a6 0121     		movs	r1, #1
 4266 21a8 0120     		movs	r0, #1
 4267 21aa FFF7FEFF 		bl	e_get_acc_filtered
 4268 21ae 0546     		mov	r5, r0
 4269 21b0 0121     		movs	r1, #1
 4270 21b2 0220     		movs	r0, #2
 4271 21b4 FFF7FEFF 		bl	e_get_acc_filtered
 4272 21b8 0346     		mov	r3, r0
 4273 21ba 0093     		str	r3, [sp]
 4274 21bc 2B46     		mov	r3, r5
 4275 21be 2246     		mov	r2, r4
 4276 21c0 6949     		ldr	r1, .L551+12
 4277 21c2 6848     		ldr	r0, .L551+8
 4278 21c4 FFF7FEFF 		bl	sprintf
 4279 21c8 06E0     		b	.L267
 4280              	.L266:
 4281 21ca 664A     		ldr	r2, .L551+8
 4282 21cc 674B     		ldr	r3, .L551+16
 4283 21ce 03CB     		ldmia	r3!, {r0, r1}
 4284 21d0 1060     		str	r0, [r2]	@ unaligned
 4285 21d2 5160     		str	r1, [r2, #4]	@ unaligned
 4286 21d4 1B88     		ldrh	r3, [r3]	@ unaligned
 4287 21d6 1381     		strh	r3, [r2, #8]	@ unaligned
 4288              	.L267:
 4289 21d8 97F83F30 		ldrb	r3, [r7, #63]	@ zero_extendqisi2
 4290 21dc 002B     		cmp	r3, #0
 4291 21de 41F07782 		bne	.L489
 4292 21e2 3B6C     		ldr	r3, [r7, #64]
 4293 21e4 002B     		cmp	r3, #0
 4294 21e6 0FD0     		beq	.L269
 4295 21e8 5E48     		ldr	r0, .L551+8
 4296 21ea FFF7FEFF 		bl	strlen
 4297 21ee 0346     		mov	r3, r0
 4298 21f0 1946     		mov	r1, r3
ARM GAS  /var/folders/d2/nstgp4h54kz7g1l847x_b8wc0000gn/T//ccVbBKId.s 			page 82


 4299 21f2 5C48     		ldr	r0, .L551+8
 4300 21f4 FFF7FEFF 		bl	e_send_uart1_char
 4301 21f8 00BF     		nop
 4302              	.L270:
 4303 21fa FFF7FEFF 		bl	e_uart1_sending
 4304 21fe 0346     		mov	r3, r0
 4305 2200 002B     		cmp	r3, #0
 4306 2202 FAD1     		bne	.L270
 4307 2204 01F064BA 		b	.L489
 4308              	.L269:
 4309 2208 5648     		ldr	r0, .L551+8
 4310 220a FFF7FEFF 		bl	strlen
 4311 220e 0346     		mov	r3, r0
 4312 2210 1946     		mov	r1, r3
 4313 2212 5448     		ldr	r0, .L551+8
 4314 2214 FFF7FEFF 		bl	e_send_uart2_char
 4315 2218 00BF     		nop
 4316              	.L271:
 4317 221a FFF7FEFF 		bl	e_uart2_sending
 4318 221e 0346     		mov	r3, r0
 4319 2220 002B     		cmp	r3, #0
 4320 2222 FAD1     		bne	.L271
 4321 2224 01F054BA 		b	.L489
 4322              	.L263:
 4323 2228 FFF7FEFF 		bl	getBatteryValueRaw
 4324 222c 0446     		mov	r4, r0
 4325 222e FFF7FEFF 		bl	getBatteryValuePercentage
 4326 2232 0346     		mov	r3, r0
 4327 2234 2246     		mov	r2, r4
 4328 2236 4E49     		ldr	r1, .L551+20
 4329 2238 4A48     		ldr	r0, .L551+8
 4330 223a FFF7FEFF 		bl	sprintf
 4331 223e 97F83F30 		ldrb	r3, [r7, #63]	@ zero_extendqisi2
 4332 2242 002B     		cmp	r3, #0
 4333 2244 41F04782 		bne	.L490
 4334 2248 3B6C     		ldr	r3, [r7, #64]
 4335 224a 002B     		cmp	r3, #0
 4336 224c 0FD0     		beq	.L273
 4337 224e 4548     		ldr	r0, .L551+8
 4338 2250 FFF7FEFF 		bl	strlen
 4339 2254 0346     		mov	r3, r0
 4340 2256 1946     		mov	r1, r3
 4341 2258 4248     		ldr	r0, .L551+8
 4342 225a FFF7FEFF 		bl	e_send_uart1_char
 4343 225e 00BF     		nop
 4344              	.L274:
 4345 2260 FFF7FEFF 		bl	e_uart1_sending
 4346 2264 0346     		mov	r3, r0
 4347 2266 002B     		cmp	r3, #0
 4348 2268 FAD1     		bne	.L274
 4349 226a 01F034BA 		b	.L490
 4350              	.L273:
 4351 226e 3D48     		ldr	r0, .L551+8
 4352 2270 FFF7FEFF 		bl	strlen
 4353 2274 0346     		mov	r3, r0
 4354 2276 1946     		mov	r1, r3
 4355 2278 3A48     		ldr	r0, .L551+8
ARM GAS  /var/folders/d2/nstgp4h54kz7g1l847x_b8wc0000gn/T//ccVbBKId.s 			page 83


 4356 227a FFF7FEFF 		bl	e_send_uart2_char
 4357 227e 00BF     		nop
 4358              	.L275:
 4359 2280 FFF7FEFF 		bl	e_uart2_sending
 4360 2284 0346     		mov	r3, r0
 4361 2286 002B     		cmp	r3, #0
 4362 2288 FAD1     		bne	.L275
 4363 228a 01F024BA 		b	.L490
 4364              	.L239:
 4365 228e 394A     		ldr	r2, .L551+24
 4366 2290 3949     		ldr	r1, .L551+28
 4367 2292 3448     		ldr	r0, .L551+8
 4368 2294 FFF7FEFF 		bl	sscanf
 4369 2298 364B     		ldr	r3, .L551+24
 4370 229a 1B68     		ldr	r3, [r3]
 4371 229c 1846     		mov	r0, r3
 4372 229e FFF7FEFF 		bl	e_set_body_led
 4373 22a2 97F83F30 		ldrb	r3, [r7, #63]	@ zero_extendqisi2
 4374 22a6 002B     		cmp	r3, #0
 4375 22a8 41F01882 		bne	.L491
 4376 22ac 3B6C     		ldr	r3, [r7, #64]
 4377 22ae 002B     		cmp	r3, #0
 4378 22b0 0BD0     		beq	.L277
 4379 22b2 0321     		movs	r1, #3
 4380 22b4 3148     		ldr	r0, .L551+32
 4381 22b6 FFF7FEFF 		bl	e_send_uart1_char
 4382 22ba 00BF     		nop
 4383              	.L278:
 4384 22bc FFF7FEFF 		bl	e_uart1_sending
 4385 22c0 0346     		mov	r3, r0
 4386 22c2 002B     		cmp	r3, #0
 4387 22c4 FAD1     		bne	.L278
 4388 22c6 01F009BA 		b	.L491
 4389              	.L277:
 4390 22ca 0321     		movs	r1, #3
 4391 22cc 2B48     		ldr	r0, .L551+32
 4392 22ce FFF7FEFF 		bl	e_send_uart2_char
 4393 22d2 00BF     		nop
 4394              	.L279:
 4395 22d4 FFF7FEFF 		bl	e_uart2_sending
 4396 22d8 0346     		mov	r3, r0
 4397 22da 002B     		cmp	r3, #0
 4398 22dc FAD1     		bne	.L279
 4399 22de 01F0FDB9 		b	.L491
 4400              	.L240:
 4401 22e2 274B     		ldr	r3, .L551+36
 4402 22e4 1B69     		ldr	r3, [r3, #16]
 4403 22e6 5B0B     		lsrs	r3, r3, #13
 4404 22e8 03F00102 		and	r2, r3, #1
 4405 22ec 244B     		ldr	r3, .L551+36
 4406 22ee 1B69     		ldr	r3, [r3, #16]
 4407 22f0 DB0B     		lsrs	r3, r3, #15
 4408 22f2 03F00101 		and	r1, r3, #1
 4409 22f6 234B     		ldr	r3, .L551+40
 4410 22f8 1B69     		ldr	r3, [r3, #16]
 4411 22fa 1B09     		lsrs	r3, r3, #4
 4412 22fc 03F00103 		and	r3, r3, #1
ARM GAS  /var/folders/d2/nstgp4h54kz7g1l847x_b8wc0000gn/T//ccVbBKId.s 			page 84


 4413 2300 5B00     		lsls	r3, r3, #1
 4414 2302 0B44     		add	r3, r3, r1
 4415 2304 5900     		lsls	r1, r3, #1
 4416 2306 1E4B     		ldr	r3, .L551+36
 4417 2308 1B69     		ldr	r3, [r3, #16]
 4418 230a 9B0B     		lsrs	r3, r3, #14
 4419 230c 03F00103 		and	r3, r3, #1
 4420 2310 0B44     		add	r3, r3, r1
 4421 2312 5B00     		lsls	r3, r3, #1
 4422 2314 1344     		add	r3, r3, r2
 4423 2316 1A46     		mov	r2, r3
 4424 2318 1B4B     		ldr	r3, .L551+44
 4425 231a 1A60     		str	r2, [r3]
 4426 231c 1A4B     		ldr	r3, .L551+44
 4427 231e 1B68     		ldr	r3, [r3]
 4428 2320 1A46     		mov	r2, r3
 4429 2322 1A49     		ldr	r1, .L551+48
 4430 2324 0F48     		ldr	r0, .L551+8
 4431 2326 FFF7FEFF 		bl	sprintf
 4432 232a 97F83F30 		ldrb	r3, [r7, #63]	@ zero_extendqisi2
 4433 232e 002B     		cmp	r3, #0
 4434 2330 41F0D781 		bne	.L492
 4435 2334 3B6C     		ldr	r3, [r7, #64]
 4436 2336 002B     		cmp	r3, #0
 4437 2338 2AD0     		beq	.L281
 4438 233a 0A48     		ldr	r0, .L551+8
 4439 233c FFF7FEFF 		bl	strlen
 4440 2340 0346     		mov	r3, r0
 4441 2342 1946     		mov	r1, r3
 4442 2344 0748     		ldr	r0, .L551+8
 4443 2346 FFF7FEFF 		bl	e_send_uart1_char
 4444 234a 00BF     		nop
 4445              	.L282:
 4446 234c FFF7FEFF 		bl	e_uart1_sending
 4447 2350 0346     		mov	r3, r0
 4448 2352 002B     		cmp	r3, #0
 4449 2354 FAD1     		bne	.L282
 4450 2356 01F0C4B9 		b	.L492
 4451              	.L552:
 4452 235a 00BF     		.align	2
 4453              	.L551:
 4454 235c 00000000 		.word	c
 4455 2360 00000000 		.word	i.13432
 4456 2364 00000000 		.word	buffer
 4457 2368 5C000000 		.word	.LC1
 4458 236c 6C000000 		.word	.LC2
 4459 2370 78000000 		.word	.LC3
 4460 2374 00000000 		.word	LED_action.13440
 4461 2378 88000000 		.word	.LC4
 4462 237c 90000000 		.word	.LC5
 4463 2380 00080240 		.word	1073874944
 4464 2384 000C0240 		.word	1073875968
 4465 2388 00000000 		.word	selector
 4466 238c 94000000 		.word	.LC6
 4467              	.L281:
 4468 2390 A748     		ldr	r0, .L553
 4469 2392 FFF7FEFF 		bl	strlen
ARM GAS  /var/folders/d2/nstgp4h54kz7g1l847x_b8wc0000gn/T//ccVbBKId.s 			page 85


 4470 2396 0346     		mov	r3, r0
 4471 2398 1946     		mov	r1, r3
 4472 239a A548     		ldr	r0, .L553
 4473 239c FFF7FEFF 		bl	e_send_uart2_char
 4474 23a0 00BF     		nop
 4475              	.L283:
 4476 23a2 FFF7FEFF 		bl	e_uart2_sending
 4477 23a6 0346     		mov	r3, r0
 4478 23a8 002B     		cmp	r3, #0
 4479 23aa FAD1     		bne	.L283
 4480 23ac 01F099B9 		b	.L492
 4481              	.L241:
 4482 23b0 A04B     		ldr	r3, .L553+4
 4483 23b2 A14A     		ldr	r2, .L553+8
 4484 23b4 A149     		ldr	r1, .L553+12
 4485 23b6 9E48     		ldr	r0, .L553
 4486 23b8 FFF7FEFF 		bl	sscanf
 4487 23bc 9E4B     		ldr	r3, .L553+8
 4488 23be 1B68     		ldr	r3, [r3]
 4489 23c0 1846     		mov	r0, r3
 4490 23c2 FFF7FEFF 		bl	e_set_speed_left
 4491 23c6 9B4B     		ldr	r3, .L553+4
 4492 23c8 1B68     		ldr	r3, [r3]
 4493 23ca 1846     		mov	r0, r3
 4494 23cc FFF7FEFF 		bl	e_set_speed_right
 4495 23d0 97F83F30 		ldrb	r3, [r7, #63]	@ zero_extendqisi2
 4496 23d4 002B     		cmp	r3, #0
 4497 23d6 41F08781 		bne	.L493
 4498 23da 3B6C     		ldr	r3, [r7, #64]
 4499 23dc 002B     		cmp	r3, #0
 4500 23de 0BD0     		beq	.L285
 4501 23e0 0321     		movs	r1, #3
 4502 23e2 9748     		ldr	r0, .L553+16
 4503 23e4 FFF7FEFF 		bl	e_send_uart1_char
 4504 23e8 00BF     		nop
 4505              	.L286:
 4506 23ea FFF7FEFF 		bl	e_uart1_sending
 4507 23ee 0346     		mov	r3, r0
 4508 23f0 002B     		cmp	r3, #0
 4509 23f2 FAD1     		bne	.L286
 4510 23f4 01F078B9 		b	.L493
 4511              	.L285:
 4512 23f8 0321     		movs	r1, #3
 4513 23fa 9148     		ldr	r0, .L553+16
 4514 23fc FFF7FEFF 		bl	e_send_uart2_char
 4515 2400 00BF     		nop
 4516              	.L287:
 4517 2402 FFF7FEFF 		bl	e_uart2_sending
 4518 2406 0346     		mov	r3, r0
 4519 2408 002B     		cmp	r3, #0
 4520 240a FAD1     		bne	.L287
 4521 240c 01F06CB9 		b	.L493
 4522              	.L242:
 4523 2410 894B     		ldr	r3, .L553+8
 4524 2412 1A68     		ldr	r2, [r3]
 4525 2414 874B     		ldr	r3, .L553+4
 4526 2416 1B68     		ldr	r3, [r3]
ARM GAS  /var/folders/d2/nstgp4h54kz7g1l847x_b8wc0000gn/T//ccVbBKId.s 			page 86


 4527 2418 8A49     		ldr	r1, .L553+20
 4528 241a 8548     		ldr	r0, .L553
 4529 241c FFF7FEFF 		bl	sprintf
 4530 2420 97F83F30 		ldrb	r3, [r7, #63]	@ zero_extendqisi2
 4531 2424 002B     		cmp	r3, #0
 4532 2426 41F06281 		bne	.L494
 4533 242a 3B6C     		ldr	r3, [r7, #64]
 4534 242c 002B     		cmp	r3, #0
 4535 242e 0FD0     		beq	.L289
 4536 2430 7F48     		ldr	r0, .L553
 4537 2432 FFF7FEFF 		bl	strlen
 4538 2436 0346     		mov	r3, r0
 4539 2438 1946     		mov	r1, r3
 4540 243a 7D48     		ldr	r0, .L553
 4541 243c FFF7FEFF 		bl	e_send_uart1_char
 4542 2440 00BF     		nop
 4543              	.L290:
 4544 2442 FFF7FEFF 		bl	e_uart1_sending
 4545 2446 0346     		mov	r3, r0
 4546 2448 002B     		cmp	r3, #0
 4547 244a FAD1     		bne	.L290
 4548 244c 01F04FB9 		b	.L494
 4549              	.L289:
 4550 2450 7748     		ldr	r0, .L553
 4551 2452 FFF7FEFF 		bl	strlen
 4552 2456 0346     		mov	r3, r0
 4553 2458 1946     		mov	r1, r3
 4554 245a 7548     		ldr	r0, .L553
 4555 245c FFF7FEFF 		bl	e_send_uart2_char
 4556 2460 00BF     		nop
 4557              	.L291:
 4558 2462 FFF7FEFF 		bl	e_uart2_sending
 4559 2466 0346     		mov	r3, r0
 4560 2468 002B     		cmp	r3, #0
 4561 246a FAD1     		bne	.L291
 4562 246c 01F03FB9 		b	.L494
 4563              	.L243:
 4564 2470 754A     		ldr	r2, .L553+24
 4565 2472 7649     		ldr	r1, .L553+28
 4566 2474 6E48     		ldr	r0, .L553
 4567 2476 FFF7FEFF 		bl	sscanf
 4568 247a 734B     		ldr	r3, .L553+24
 4569 247c 1B68     		ldr	r3, [r3]
 4570 247e 1846     		mov	r0, r3
 4571 2480 FFF7FEFF 		bl	e_set_front_led
 4572 2484 97F83F30 		ldrb	r3, [r7, #63]	@ zero_extendqisi2
 4573 2488 002B     		cmp	r3, #0
 4574 248a 41F03381 		bne	.L495
 4575 248e 3B6C     		ldr	r3, [r7, #64]
 4576 2490 002B     		cmp	r3, #0
 4577 2492 0BD0     		beq	.L293
 4578 2494 0321     		movs	r1, #3
 4579 2496 6E48     		ldr	r0, .L553+32
 4580 2498 FFF7FEFF 		bl	e_send_uart1_char
 4581 249c 00BF     		nop
 4582              	.L294:
 4583 249e FFF7FEFF 		bl	e_uart1_sending
ARM GAS  /var/folders/d2/nstgp4h54kz7g1l847x_b8wc0000gn/T//ccVbBKId.s 			page 87


 4584 24a2 0346     		mov	r3, r0
 4585 24a4 002B     		cmp	r3, #0
 4586 24a6 FAD1     		bne	.L294
 4587 24a8 01F024B9 		b	.L495
 4588              	.L293:
 4589 24ac 0321     		movs	r1, #3
 4590 24ae 6848     		ldr	r0, .L553+32
 4591 24b0 FFF7FEFF 		bl	e_send_uart2_char
 4592 24b4 00BF     		nop
 4593              	.L295:
 4594 24b6 FFF7FEFF 		bl	e_uart2_sending
 4595 24ba 0346     		mov	r3, r0
 4596 24bc 002B     		cmp	r3, #0
 4597 24be FAD1     		bne	.L295
 4598 24c0 01F018B9 		b	.L495
 4599              	.L244:
 4600 24c4 FFF7FEFF 		bl	e_get_check
 4601 24c8 0346     		mov	r3, r0
 4602 24ca 1C46     		mov	r4, r3
 4603 24cc FFF7FEFF 		bl	e_get_address
 4604 24d0 0346     		mov	r3, r0
 4605 24d2 1D46     		mov	r5, r3
 4606 24d4 FFF7FEFF 		bl	e_get_data
 4607 24d8 0346     		mov	r3, r0
 4608 24da 0093     		str	r3, [sp]
 4609 24dc 2B46     		mov	r3, r5
 4610 24de 2246     		mov	r2, r4
 4611 24e0 5C49     		ldr	r1, .L553+36
 4612 24e2 5348     		ldr	r0, .L553
 4613 24e4 FFF7FEFF 		bl	sprintf
 4614 24e8 97F83F30 		ldrb	r3, [r7, #63]	@ zero_extendqisi2
 4615 24ec 002B     		cmp	r3, #0
 4616 24ee 41F00481 		bne	.L496
 4617 24f2 3B6C     		ldr	r3, [r7, #64]
 4618 24f4 002B     		cmp	r3, #0
 4619 24f6 0FD0     		beq	.L297
 4620 24f8 4D48     		ldr	r0, .L553
 4621 24fa FFF7FEFF 		bl	strlen
 4622 24fe 0346     		mov	r3, r0
 4623 2500 1946     		mov	r1, r3
 4624 2502 4B48     		ldr	r0, .L553
 4625 2504 FFF7FEFF 		bl	e_send_uart1_char
 4626 2508 00BF     		nop
 4627              	.L298:
 4628 250a FFF7FEFF 		bl	e_uart1_sending
 4629 250e 0346     		mov	r3, r0
 4630 2510 002B     		cmp	r3, #0
 4631 2512 FAD1     		bne	.L298
 4632 2514 01F0F1B8 		b	.L496
 4633              	.L297:
 4634 2518 4548     		ldr	r0, .L553
 4635 251a FFF7FEFF 		bl	strlen
 4636 251e 0346     		mov	r3, r0
 4637 2520 1946     		mov	r1, r3
 4638 2522 4348     		ldr	r0, .L553
 4639 2524 FFF7FEFF 		bl	e_send_uart2_char
 4640 2528 00BF     		nop
ARM GAS  /var/folders/d2/nstgp4h54kz7g1l847x_b8wc0000gn/T//ccVbBKId.s 			page 88


 4641              	.L299:
 4642 252a FFF7FEFF 		bl	e_uart2_sending
 4643 252e 0346     		mov	r3, r0
 4644 2530 002B     		cmp	r3, #0
 4645 2532 FAD1     		bne	.L299
 4646 2534 01F0E1B8 		b	.L496
 4647              	.L264:
 4648 2538 97F83F30 		ldrb	r3, [r7, #63]	@ zero_extendqisi2
 4649 253c 002B     		cmp	r3, #0
 4650 253e 10D1     		bne	.L300
 4651 2540 FFF7FEFF 		bl	getXAxisGyro
 4652 2544 0446     		mov	r4, r0
 4653 2546 FFF7FEFF 		bl	getYAxisGyro
 4654 254a 0546     		mov	r5, r0
 4655 254c FFF7FEFF 		bl	getZAxisGyro
 4656 2550 0346     		mov	r3, r0
 4657 2552 0093     		str	r3, [sp]
 4658 2554 2B46     		mov	r3, r5
 4659 2556 2246     		mov	r2, r4
 4660 2558 3F49     		ldr	r1, .L553+40
 4661 255a 3548     		ldr	r0, .L553
 4662 255c FFF7FEFF 		bl	sprintf
 4663 2560 06E0     		b	.L301
 4664              	.L300:
 4665 2562 334A     		ldr	r2, .L553
 4666 2564 3D4B     		ldr	r3, .L553+44
 4667 2566 03CB     		ldmia	r3!, {r0, r1}
 4668 2568 1060     		str	r0, [r2]	@ unaligned
 4669 256a 5160     		str	r1, [r2, #4]	@ unaligned
 4670 256c 1B88     		ldrh	r3, [r3]	@ unaligned
 4671 256e 1381     		strh	r3, [r2, #8]	@ unaligned
 4672              	.L301:
 4673 2570 97F83F30 		ldrb	r3, [r7, #63]	@ zero_extendqisi2
 4674 2574 002B     		cmp	r3, #0
 4675 2576 41F0C380 		bne	.L497
 4676 257a 3B6C     		ldr	r3, [r7, #64]
 4677 257c 002B     		cmp	r3, #0
 4678 257e 0FD0     		beq	.L303
 4679 2580 2B48     		ldr	r0, .L553
 4680 2582 FFF7FEFF 		bl	strlen
 4681 2586 0346     		mov	r3, r0
 4682 2588 1946     		mov	r1, r3
 4683 258a 2948     		ldr	r0, .L553
 4684 258c FFF7FEFF 		bl	e_send_uart1_char
 4685 2590 00BF     		nop
 4686              	.L304:
 4687 2592 FFF7FEFF 		bl	e_uart1_sending
 4688 2596 0346     		mov	r3, r0
 4689 2598 002B     		cmp	r3, #0
 4690 259a FAD1     		bne	.L304
 4691 259c 01F0B0B8 		b	.L497
 4692              	.L303:
 4693 25a0 2348     		ldr	r0, .L553
 4694 25a2 FFF7FEFF 		bl	strlen
 4695 25a6 0346     		mov	r3, r0
 4696 25a8 1946     		mov	r1, r3
 4697 25aa 2148     		ldr	r0, .L553
ARM GAS  /var/folders/d2/nstgp4h54kz7g1l847x_b8wc0000gn/T//ccVbBKId.s 			page 89


 4698 25ac FFF7FEFF 		bl	e_send_uart2_char
 4699 25b0 00BF     		nop
 4700              	.L305:
 4701 25b2 FFF7FEFF 		bl	e_uart2_sending
 4702 25b6 0346     		mov	r3, r0
 4703 25b8 002B     		cmp	r3, #0
 4704 25ba FAD1     		bne	.L305
 4705 25bc 01F0A0B8 		b	.L497
 4706              	.L245:
 4707 25c0 97F83F30 		ldrb	r3, [r7, #63]	@ zero_extendqisi2
 4708 25c4 002B     		cmp	r3, #0
 4709 25c6 41F09E80 		bne	.L498
 4710 25ca 3B6C     		ldr	r3, [r7, #64]
 4711 25cc 002B     		cmp	r3, #0
 4712 25ce 00F05581 		beq	.L307
 4713 25d2 0121     		movs	r1, #1
 4714 25d4 2248     		ldr	r0, .L553+48
 4715 25d6 FFF7FEFF 		bl	e_send_uart1_char
 4716 25da 00BF     		nop
 4717              	.L308:
 4718 25dc FFF7FEFF 		bl	e_uart1_sending
 4719 25e0 0346     		mov	r3, r0
 4720 25e2 002B     		cmp	r3, #0
 4721 25e4 FAD1     		bne	.L308
 4722 25e6 2121     		movs	r1, #33
 4723 25e8 1E48     		ldr	r0, .L553+52
 4724 25ea FFF7FEFF 		bl	e_send_uart1_char
 4725 25ee 00BF     		nop
 4726              	.L309:
 4727 25f0 FFF7FEFF 		bl	e_uart1_sending
 4728 25f4 0346     		mov	r3, r0
 4729 25f6 002B     		cmp	r3, #0
 4730 25f8 FAD1     		bne	.L309
 4731 25fa 3121     		movs	r1, #49
 4732 25fc 1A48     		ldr	r0, .L553+56
 4733 25fe FFF7FEFF 		bl	e_send_uart1_char
 4734 2602 00BF     		nop
 4735              	.L310:
 4736 2604 FFF7FEFF 		bl	e_uart1_sending
 4737 2608 0346     		mov	r3, r0
 4738 260a 002B     		cmp	r3, #0
 4739 260c FAD1     		bne	.L310
 4740 260e FFF7FEFF 		bl	isEpuckVersion1_3
 4741 2612 0346     		mov	r3, r0
 4742 2614 002B     		cmp	r3, #0
 4743 2616 2BD0     		beq	.L311
 4744 2618 2121     		movs	r1, #33
 4745 261a 1448     		ldr	r0, .L553+60
 4746 261c FFF7FEFF 		bl	e_send_uart1_char
 4747 2620 00BF     		nop
 4748              	.L312:
 4749 2622 FFF7FEFF 		bl	e_uart1_sending
 4750 2626 0346     		mov	r3, r0
 4751 2628 002B     		cmp	r3, #0
 4752 262a FAD1     		bne	.L312
 4753 262c 2AE0     		b	.L313
 4754              	.L554:
ARM GAS  /var/folders/d2/nstgp4h54kz7g1l847x_b8wc0000gn/T//ccVbBKId.s 			page 90


 4755 262e 00BF     		.align	2
 4756              	.L553:
 4757 2630 00000000 		.word	buffer
 4758 2634 00000000 		.word	speedr.13435
 4759 2638 00000000 		.word	speedl.13436
 4760 263c 9C000000 		.word	.LC7
 4761 2640 A8000000 		.word	.LC8
 4762 2644 AC000000 		.word	.LC9
 4763 2648 00000000 		.word	LED_action.13440
 4764 264c B8000000 		.word	.LC10
 4765 2650 C0000000 		.word	.LC11
 4766 2654 C4000000 		.word	.LC12
 4767 2658 F8000000 		.word	.LC13
 4768 265c 08010000 		.word	.LC14
 4769 2660 14010000 		.word	.LC15
 4770 2664 18010000 		.word	.LC16
 4771 2668 3C010000 		.word	.LC17
 4772 266c 70010000 		.word	.LC18
 4773              	.L311:
 4774 2670 2F21     		movs	r1, #47
 4775 2672 9748     		ldr	r0, .L555
 4776 2674 FFF7FEFF 		bl	e_send_uart1_char
 4777 2678 00BF     		nop
 4778              	.L314:
 4779 267a FFF7FEFF 		bl	e_uart1_sending
 4780 267e 0346     		mov	r3, r0
 4781 2680 002B     		cmp	r3, #0
 4782 2682 FAD1     		bne	.L314
 4783              	.L313:
 4784 2684 2521     		movs	r1, #37
 4785 2686 9348     		ldr	r0, .L555+4
 4786 2688 FFF7FEFF 		bl	e_send_uart1_char
 4787 268c 00BF     		nop
 4788              	.L315:
 4789 268e FFF7FEFF 		bl	e_uart1_sending
 4790 2692 0346     		mov	r3, r0
 4791 2694 002B     		cmp	r3, #0
 4792 2696 FAD1     		bne	.L315
 4793 2698 2E21     		movs	r1, #46
 4794 269a 8F48     		ldr	r0, .L555+8
 4795 269c FFF7FEFF 		bl	e_send_uart1_char
 4796 26a0 00BF     		nop
 4797              	.L316:
 4798 26a2 FFF7FEFF 		bl	e_uart1_sending
 4799 26a6 0346     		mov	r3, r0
 4800 26a8 002B     		cmp	r3, #0
 4801 26aa FAD1     		bne	.L316
 4802 26ac 2E21     		movs	r1, #46
 4803 26ae 8B48     		ldr	r0, .L555+12
 4804 26b0 FFF7FEFF 		bl	e_send_uart1_char
 4805 26b4 00BF     		nop
 4806              	.L317:
 4807 26b6 FFF7FEFF 		bl	e_uart1_sending
 4808 26ba 0346     		mov	r3, r0
 4809 26bc 002B     		cmp	r3, #0
 4810 26be FAD1     		bne	.L317
 4811 26c0 3221     		movs	r1, #50
ARM GAS  /var/folders/d2/nstgp4h54kz7g1l847x_b8wc0000gn/T//ccVbBKId.s 			page 91


 4812 26c2 8748     		ldr	r0, .L555+16
 4813 26c4 FFF7FEFF 		bl	e_send_uart1_char
 4814 26c8 00BF     		nop
 4815              	.L318:
 4816 26ca FFF7FEFF 		bl	e_uart1_sending
 4817 26ce 0346     		mov	r3, r0
 4818 26d0 002B     		cmp	r3, #0
 4819 26d2 FAD1     		bne	.L318
 4820 26d4 1F21     		movs	r1, #31
 4821 26d6 8348     		ldr	r0, .L555+20
 4822 26d8 FFF7FEFF 		bl	e_send_uart1_char
 4823 26dc 00BF     		nop
 4824              	.L319:
 4825 26de FFF7FEFF 		bl	e_uart1_sending
 4826 26e2 0346     		mov	r3, r0
 4827 26e4 002B     		cmp	r3, #0
 4828 26e6 FAD1     		bne	.L319
 4829 26e8 FFF7FEFF 		bl	isEpuckVersion1_3
 4830 26ec 0346     		mov	r3, r0
 4831 26ee 002B     		cmp	r3, #0
 4832 26f0 09D0     		beq	.L320
 4833 26f2 1821     		movs	r1, #24
 4834 26f4 7C48     		ldr	r0, .L555+24
 4835 26f6 FFF7FEFF 		bl	e_send_uart1_char
 4836 26fa 00BF     		nop
 4837              	.L321:
 4838 26fc FFF7FEFF 		bl	e_uart1_sending
 4839 2700 0346     		mov	r3, r0
 4840 2702 002B     		cmp	r3, #0
 4841 2704 FAD1     		bne	.L321
 4842              	.L320:
 4843 2706 1821     		movs	r1, #24
 4844 2708 7848     		ldr	r0, .L555+28
 4845 270a FFF7FEFF 		bl	e_send_uart1_char
 4846 270e 00BF     		nop
 4847              	.L322:
 4848 2710 FFF7FEFF 		bl	e_uart1_sending
 4849 2714 0346     		mov	r3, r0
 4850 2716 002B     		cmp	r3, #0
 4851 2718 FAD1     		bne	.L322
 4852 271a 2821     		movs	r1, #40
 4853 271c 7448     		ldr	r0, .L555+32
 4854 271e FFF7FEFF 		bl	e_send_uart1_char
 4855 2722 00BF     		nop
 4856              	.L323:
 4857 2724 FFF7FEFF 		bl	e_uart1_sending
 4858 2728 0346     		mov	r3, r0
 4859 272a 002B     		cmp	r3, #0
 4860 272c FAD1     		bne	.L323
 4861 272e 4F21     		movs	r1, #79
 4862 2730 7048     		ldr	r0, .L555+36
 4863 2732 FFF7FEFF 		bl	e_send_uart1_char
 4864 2736 00BF     		nop
 4865              	.L324:
 4866 2738 FFF7FEFF 		bl	e_uart1_sending
 4867 273c 0346     		mov	r3, r0
 4868 273e 002B     		cmp	r3, #0
ARM GAS  /var/folders/d2/nstgp4h54kz7g1l847x_b8wc0000gn/T//ccVbBKId.s 			page 92


 4869 2740 FAD1     		bne	.L324
 4870 2742 2F21     		movs	r1, #47
 4871 2744 6C48     		ldr	r0, .L555+40
 4872 2746 FFF7FEFF 		bl	e_send_uart1_char
 4873 274a 00BF     		nop
 4874              	.L325:
 4875 274c FFF7FEFF 		bl	e_uart1_sending
 4876 2750 0346     		mov	r3, r0
 4877 2752 002B     		cmp	r3, #0
 4878 2754 FAD1     		bne	.L325
 4879 2756 3321     		movs	r1, #51
 4880 2758 6848     		ldr	r0, .L555+44
 4881 275a FFF7FEFF 		bl	e_send_uart1_char
 4882 275e 00BF     		nop
 4883              	.L326:
 4884 2760 FFF7FEFF 		bl	e_uart1_sending
 4885 2764 0346     		mov	r3, r0
 4886 2766 002B     		cmp	r3, #0
 4887 2768 FAD1     		bne	.L326
 4888 276a 2121     		movs	r1, #33
 4889 276c 6448     		ldr	r0, .L555+48
 4890 276e FFF7FEFF 		bl	e_send_uart1_char
 4891 2772 00BF     		nop
 4892              	.L327:
 4893 2774 FFF7FEFF 		bl	e_uart1_sending
 4894 2778 0346     		mov	r3, r0
 4895 277a 002B     		cmp	r3, #0
 4896 277c FAD1     		bne	.L327
 4897 277e 1D21     		movs	r1, #29
 4898 2780 6048     		ldr	r0, .L555+52
 4899 2782 FFF7FEFF 		bl	e_send_uart1_char
 4900 2786 00BF     		nop
 4901              	.L328:
 4902 2788 FFF7FEFF 		bl	e_uart1_sending
 4903 278c 0346     		mov	r3, r0
 4904 278e 002B     		cmp	r3, #0
 4905 2790 FAD1     		bne	.L328
 4906 2792 2121     		movs	r1, #33
 4907 2794 5C48     		ldr	r0, .L555+56
 4908 2796 FFF7FEFF 		bl	e_send_uart1_char
 4909 279a 00BF     		nop
 4910              	.L329:
 4911 279c FFF7FEFF 		bl	e_uart1_sending
 4912 27a0 0346     		mov	r3, r0
 4913 27a2 002B     		cmp	r3, #0
 4914 27a4 FAD1     		bne	.L329
 4915 27a6 3121     		movs	r1, #49
 4916 27a8 5848     		ldr	r0, .L555+60
 4917 27aa FFF7FEFF 		bl	e_send_uart1_char
 4918 27ae 00BF     		nop
 4919              	.L330:
 4920 27b0 FFF7FEFF 		bl	e_uart1_sending
 4921 27b4 0346     		mov	r3, r0
 4922 27b6 002B     		cmp	r3, #0
 4923 27b8 FAD1     		bne	.L330
 4924 27ba 3121     		movs	r1, #49
 4925 27bc 5448     		ldr	r0, .L555+64
ARM GAS  /var/folders/d2/nstgp4h54kz7g1l847x_b8wc0000gn/T//ccVbBKId.s 			page 93


 4926 27be FFF7FEFF 		bl	e_send_uart1_char
 4927 27c2 00BF     		nop
 4928              	.L331:
 4929 27c4 FFF7FEFF 		bl	e_uart1_sending
 4930 27c8 0346     		mov	r3, r0
 4931 27ca 002B     		cmp	r3, #0
 4932 27cc FAD1     		bne	.L331
 4933 27ce 2021     		movs	r1, #32
 4934 27d0 5048     		ldr	r0, .L555+68
 4935 27d2 FFF7FEFF 		bl	e_send_uart1_char
 4936 27d6 00BF     		nop
 4937              	.L332:
 4938 27d8 FFF7FEFF 		bl	e_uart1_sending
 4939 27dc 0346     		mov	r3, r0
 4940 27de 002B     		cmp	r3, #0
 4941 27e0 FAD1     		bne	.L332
 4942 27e2 3121     		movs	r1, #49
 4943 27e4 4C48     		ldr	r0, .L555+72
 4944 27e6 FFF7FEFF 		bl	e_send_uart1_char
 4945 27ea 00BF     		nop
 4946              	.L333:
 4947 27ec FFF7FEFF 		bl	e_uart1_sending
 4948 27f0 0346     		mov	r3, r0
 4949 27f2 002B     		cmp	r3, #0
 4950 27f4 FAD1     		bne	.L333
 4951 27f6 3221     		movs	r1, #50
 4952 27f8 4848     		ldr	r0, .L555+76
 4953 27fa FFF7FEFF 		bl	e_send_uart1_char
 4954 27fe 00BF     		nop
 4955              	.L334:
 4956 2800 FFF7FEFF 		bl	e_uart1_sending
 4957 2804 0346     		mov	r3, r0
 4958 2806 002B     		cmp	r3, #0
 4959 2808 FAD1     		bne	.L334
 4960 280a FFF7FEFF 		bl	isEpuckVersion1_3
 4961 280e 0346     		mov	r3, r0
 4962 2810 002B     		cmp	r3, #0
 4963 2812 09D0     		beq	.L335
 4964 2814 1F21     		movs	r1, #31
 4965 2816 4248     		ldr	r0, .L555+80
 4966 2818 FFF7FEFF 		bl	e_send_uart1_char
 4967 281c 00BF     		nop
 4968              	.L336:
 4969 281e FFF7FEFF 		bl	e_uart1_sending
 4970 2822 0346     		mov	r3, r0
 4971 2824 002B     		cmp	r3, #0
 4972 2826 FAD1     		bne	.L336
 4973              	.L335:
 4974 2828 2C21     		movs	r1, #44
 4975 282a 3E48     		ldr	r0, .L555+84
 4976 282c FFF7FEFF 		bl	e_send_uart1_char
 4977 2830 00BF     		nop
 4978              	.L337:
 4979 2832 FFF7FEFF 		bl	e_uart1_sending
 4980 2836 0346     		mov	r3, r0
 4981 2838 002B     		cmp	r3, #0
 4982 283a FAD1     		bne	.L337
ARM GAS  /var/folders/d2/nstgp4h54kz7g1l847x_b8wc0000gn/T//ccVbBKId.s 			page 94


 4983 283c 2521     		movs	r1, #37
 4984 283e 3A48     		ldr	r0, .L555+88
 4985 2840 FFF7FEFF 		bl	e_send_uart1_char
 4986 2844 00BF     		nop
 4987              	.L338:
 4988 2846 FFF7FEFF 		bl	e_uart1_sending
 4989 284a 0346     		mov	r3, r0
 4990 284c 002B     		cmp	r3, #0
 4991 284e FAD1     		bne	.L338
 4992 2850 2B21     		movs	r1, #43
 4993 2852 3648     		ldr	r0, .L555+92
 4994 2854 FFF7FEFF 		bl	e_send_uart1_char
 4995 2858 00BF     		nop
 4996              	.L339:
 4997 285a FFF7FEFF 		bl	e_uart1_sending
 4998 285e 0346     		mov	r3, r0
 4999 2860 002B     		cmp	r3, #0
 5000 2862 FAD1     		bne	.L339
 5001 2864 2A21     		movs	r1, #42
 5002 2866 3248     		ldr	r0, .L555+96
 5003 2868 FFF7FEFF 		bl	e_send_uart1_char
 5004 286c 00BF     		nop
 5005              	.L340:
 5006 286e FFF7FEFF 		bl	e_uart1_sending
 5007 2872 0346     		mov	r3, r0
 5008 2874 002B     		cmp	r3, #0
 5009 2876 FAD1     		bne	.L340
 5010 2878 00F045BF 		b	.L498
 5011              	.L307:
 5012 287c 0121     		movs	r1, #1
 5013 287e 2D48     		ldr	r0, .L555+100
 5014 2880 FFF7FEFF 		bl	e_send_uart2_char
 5015 2884 00BF     		nop
 5016              	.L341:
 5017 2886 FFF7FEFF 		bl	e_uart2_sending
 5018 288a 0346     		mov	r3, r0
 5019 288c 002B     		cmp	r3, #0
 5020 288e FAD1     		bne	.L341
 5021 2890 FFF7FEFF 		bl	isEpuckVersion1_3
 5022 2894 0346     		mov	r3, r0
 5023 2896 002B     		cmp	r3, #0
 5024 2898 09D1     		bne	.L342
 5025 289a 1921     		movs	r1, #25
 5026 289c 2648     		ldr	r0, .L555+104
 5027 289e FFF7FEFF 		bl	e_send_uart2_char
 5028 28a2 00BF     		nop
 5029              	.L343:
 5030 28a4 FFF7FEFF 		bl	e_uart2_sending
 5031 28a8 0346     		mov	r3, r0
 5032 28aa 002B     		cmp	r3, #0
 5033 28ac FAD1     		bne	.L343
 5034              	.L342:
 5035 28ae FFF7FEFF 		bl	isEpuckVersion1_3
 5036 28b2 0346     		mov	r3, r0
 5037 28b4 002B     		cmp	r3, #0
 5038 28b6 43D0     		beq	.L344
 5039 28b8 1921     		movs	r1, #25
ARM GAS  /var/folders/d2/nstgp4h54kz7g1l847x_b8wc0000gn/T//ccVbBKId.s 			page 95


 5040 28ba 2048     		ldr	r0, .L555+108
 5041 28bc FFF7FEFF 		bl	e_send_uart2_char
 5042 28c0 00BF     		nop
 5043              	.L345:
 5044 28c2 FFF7FEFF 		bl	e_uart2_sending
 5045 28c6 0346     		mov	r3, r0
 5046 28c8 002B     		cmp	r3, #0
 5047 28ca FAD1     		bne	.L345
 5048 28cc 42E0     		b	.L346
 5049              	.L556:
 5050 28ce 00BF     		.align	2
 5051              	.L555:
 5052 28d0 94010000 		.word	.LC19
 5053 28d4 C4010000 		.word	.LC20
 5054 28d8 EC010000 		.word	.LC21
 5055 28dc 1C020000 		.word	.LC22
 5056 28e0 4C020000 		.word	.LC23
 5057 28e4 80020000 		.word	.LC24
 5058 28e8 A0020000 		.word	.LC25
 5059 28ec BC020000 		.word	.LC26
 5060 28f0 D8020000 		.word	.LC27
 5061 28f4 04030000 		.word	.LC28
 5062 28f8 54030000 		.word	.LC29
 5063 28fc 84030000 		.word	.LC30
 5064 2900 B8030000 		.word	.LC31
 5065 2904 DC030000 		.word	.LC32
 5066 2908 FC030000 		.word	.LC33
 5067 290c 20040000 		.word	.LC34
 5068 2910 54040000 		.word	.LC35
 5069 2914 88040000 		.word	.LC36
 5070 2918 AC040000 		.word	.LC37
 5071 291c E0040000 		.word	.LC38
 5072 2920 14050000 		.word	.LC39
 5073 2924 34050000 		.word	.LC40
 5074 2928 64050000 		.word	.LC41
 5075 292c 8C050000 		.word	.LC42
 5076 2930 B8050000 		.word	.LC43
 5077 2934 14010000 		.word	.LC15
 5078 2938 E4050000 		.word	.LC44
 5079 293c 00060000 		.word	.LC45
 5080              	.L344:
 5081 2940 2721     		movs	r1, #39
 5082 2942 AA48     		ldr	r0, .L557
 5083 2944 FFF7FEFF 		bl	e_send_uart2_char
 5084 2948 00BF     		nop
 5085              	.L347:
 5086 294a FFF7FEFF 		bl	e_uart2_sending
 5087 294e 0346     		mov	r3, r0
 5088 2950 002B     		cmp	r3, #0
 5089 2952 FAD1     		bne	.L347
 5090              	.L346:
 5091 2954 2B21     		movs	r1, #43
 5092 2956 A648     		ldr	r0, .L557+4
 5093 2958 FFF7FEFF 		bl	e_send_uart2_char
 5094 295c 00BF     		nop
 5095              	.L348:
 5096 295e FFF7FEFF 		bl	e_uart2_sending
ARM GAS  /var/folders/d2/nstgp4h54kz7g1l847x_b8wc0000gn/T//ccVbBKId.s 			page 96


 5097 2962 0346     		mov	r3, r0
 5098 2964 002B     		cmp	r3, #0
 5099 2966 FAD1     		bne	.L348
 5100 2968 1D21     		movs	r1, #29
 5101 296a A248     		ldr	r0, .L557+8
 5102 296c FFF7FEFF 		bl	e_send_uart2_char
 5103 2970 00BF     		nop
 5104              	.L349:
 5105 2972 FFF7FEFF 		bl	e_uart2_sending
 5106 2976 0346     		mov	r3, r0
 5107 2978 002B     		cmp	r3, #0
 5108 297a FAD1     		bne	.L349
 5109 297c 2621     		movs	r1, #38
 5110 297e 9E48     		ldr	r0, .L557+12
 5111 2980 FFF7FEFF 		bl	e_send_uart2_char
 5112 2984 00BF     		nop
 5113              	.L350:
 5114 2986 FFF7FEFF 		bl	e_uart2_sending
 5115 298a 0346     		mov	r3, r0
 5116 298c 002B     		cmp	r3, #0
 5117 298e FAD1     		bne	.L350
 5118 2990 2621     		movs	r1, #38
 5119 2992 9A48     		ldr	r0, .L557+16
 5120 2994 FFF7FEFF 		bl	e_send_uart2_char
 5121 2998 00BF     		nop
 5122              	.L351:
 5123 299a FFF7FEFF 		bl	e_uart2_sending
 5124 299e 0346     		mov	r3, r0
 5125 29a0 002B     		cmp	r3, #0
 5126 29a2 FAD1     		bne	.L351
 5127 29a4 2C21     		movs	r1, #44
 5128 29a6 9648     		ldr	r0, .L557+20
 5129 29a8 FFF7FEFF 		bl	e_send_uart2_char
 5130 29ac 00BF     		nop
 5131              	.L352:
 5132 29ae FFF7FEFF 		bl	e_uart2_sending
 5133 29b2 0346     		mov	r3, r0
 5134 29b4 002B     		cmp	r3, #0
 5135 29b6 FAD1     		bne	.L352
 5136 29b8 1721     		movs	r1, #23
 5137 29ba 9248     		ldr	r0, .L557+24
 5138 29bc FFF7FEFF 		bl	e_send_uart2_char
 5139 29c0 00BF     		nop
 5140              	.L353:
 5141 29c2 FFF7FEFF 		bl	e_uart2_sending
 5142 29c6 0346     		mov	r3, r0
 5143 29c8 002B     		cmp	r3, #0
 5144 29ca FAD1     		bne	.L353
 5145 29cc 1021     		movs	r1, #16
 5146 29ce 8E48     		ldr	r0, .L557+28
 5147 29d0 FFF7FEFF 		bl	e_send_uart2_char
 5148 29d4 00BF     		nop
 5149              	.L354:
 5150 29d6 FFF7FEFF 		bl	e_uart2_sending
 5151 29da 0346     		mov	r3, r0
 5152 29dc 002B     		cmp	r3, #0
 5153 29de FAD1     		bne	.L354
ARM GAS  /var/folders/d2/nstgp4h54kz7g1l847x_b8wc0000gn/T//ccVbBKId.s 			page 97


 5154 29e0 2221     		movs	r1, #34
 5155 29e2 8A48     		ldr	r0, .L557+32
 5156 29e4 FFF7FEFF 		bl	e_send_uart2_char
 5157 29e8 00BF     		nop
 5158              	.L355:
 5159 29ea FFF7FEFF 		bl	e_uart2_sending
 5160 29ee 0346     		mov	r3, r0
 5161 29f0 002B     		cmp	r3, #0
 5162 29f2 FAD1     		bne	.L355
 5163 29f4 4D21     		movs	r1, #77
 5164 29f6 8648     		ldr	r0, .L557+36
 5165 29f8 FFF7FEFF 		bl	e_send_uart2_char
 5166 29fc 00BF     		nop
 5167              	.L356:
 5168 29fe FFF7FEFF 		bl	e_uart2_sending
 5169 2a02 0346     		mov	r3, r0
 5170 2a04 002B     		cmp	r3, #0
 5171 2a06 FAD1     		bne	.L356
 5172 2a08 2721     		movs	r1, #39
 5173 2a0a 8248     		ldr	r0, .L557+40
 5174 2a0c FFF7FEFF 		bl	e_send_uart2_char
 5175 2a10 00BF     		nop
 5176              	.L357:
 5177 2a12 FFF7FEFF 		bl	e_uart2_sending
 5178 2a16 0346     		mov	r3, r0
 5179 2a18 002B     		cmp	r3, #0
 5180 2a1a FAD1     		bne	.L357
 5181 2a1c 2B21     		movs	r1, #43
 5182 2a1e 7E48     		ldr	r0, .L557+44
 5183 2a20 FFF7FEFF 		bl	e_send_uart2_char
 5184 2a24 00BF     		nop
 5185              	.L358:
 5186 2a26 FFF7FEFF 		bl	e_uart2_sending
 5187 2a2a 0346     		mov	r3, r0
 5188 2a2c 002B     		cmp	r3, #0
 5189 2a2e FAD1     		bne	.L358
 5190 2a30 1921     		movs	r1, #25
 5191 2a32 7A48     		ldr	r0, .L557+48
 5192 2a34 FFF7FEFF 		bl	e_send_uart2_char
 5193 2a38 00BF     		nop
 5194              	.L359:
 5195 2a3a FFF7FEFF 		bl	e_uart2_sending
 5196 2a3e 0346     		mov	r3, r0
 5197 2a40 002B     		cmp	r3, #0
 5198 2a42 FAD1     		bne	.L359
 5199 2a44 1521     		movs	r1, #21
 5200 2a46 7648     		ldr	r0, .L557+52
 5201 2a48 FFF7FEFF 		bl	e_send_uart2_char
 5202 2a4c 00BF     		nop
 5203              	.L360:
 5204 2a4e FFF7FEFF 		bl	e_uart2_sending
 5205 2a52 0346     		mov	r3, r0
 5206 2a54 002B     		cmp	r3, #0
 5207 2a56 FAD1     		bne	.L360
 5208 2a58 1921     		movs	r1, #25
 5209 2a5a 7248     		ldr	r0, .L557+56
 5210 2a5c FFF7FEFF 		bl	e_send_uart2_char
ARM GAS  /var/folders/d2/nstgp4h54kz7g1l847x_b8wc0000gn/T//ccVbBKId.s 			page 98


 5211 2a60 00BF     		nop
 5212              	.L361:
 5213 2a62 FFF7FEFF 		bl	e_uart2_sending
 5214 2a66 0346     		mov	r3, r0
 5215 2a68 002B     		cmp	r3, #0
 5216 2a6a FAD1     		bne	.L361
 5217 2a6c 2921     		movs	r1, #41
 5218 2a6e 6E48     		ldr	r0, .L557+60
 5219 2a70 FFF7FEFF 		bl	e_send_uart2_char
 5220 2a74 00BF     		nop
 5221              	.L362:
 5222 2a76 FFF7FEFF 		bl	e_uart2_sending
 5223 2a7a 0346     		mov	r3, r0
 5224 2a7c 002B     		cmp	r3, #0
 5225 2a7e FAD1     		bne	.L362
 5226 2a80 2921     		movs	r1, #41
 5227 2a82 6A48     		ldr	r0, .L557+64
 5228 2a84 FFF7FEFF 		bl	e_send_uart2_char
 5229 2a88 00BF     		nop
 5230              	.L363:
 5231 2a8a FFF7FEFF 		bl	e_uart2_sending
 5232 2a8e 0346     		mov	r3, r0
 5233 2a90 002B     		cmp	r3, #0
 5234 2a92 FAD1     		bne	.L363
 5235 2a94 1821     		movs	r1, #24
 5236 2a96 6648     		ldr	r0, .L557+68
 5237 2a98 FFF7FEFF 		bl	e_send_uart2_char
 5238 2a9c 00BF     		nop
 5239              	.L364:
 5240 2a9e FFF7FEFF 		bl	e_uart2_sending
 5241 2aa2 0346     		mov	r3, r0
 5242 2aa4 002B     		cmp	r3, #0
 5243 2aa6 FAD1     		bne	.L364
 5244 2aa8 2921     		movs	r1, #41
 5245 2aaa 6248     		ldr	r0, .L557+72
 5246 2aac FFF7FEFF 		bl	e_send_uart2_char
 5247 2ab0 00BF     		nop
 5248              	.L365:
 5249 2ab2 FFF7FEFF 		bl	e_uart2_sending
 5250 2ab6 0346     		mov	r3, r0
 5251 2ab8 002B     		cmp	r3, #0
 5252 2aba FAD1     		bne	.L365
 5253 2abc 2C21     		movs	r1, #44
 5254 2abe 5E48     		ldr	r0, .L557+76
 5255 2ac0 FFF7FEFF 		bl	e_send_uart2_char
 5256 2ac4 00BF     		nop
 5257              	.L366:
 5258 2ac6 FFF7FEFF 		bl	e_uart2_sending
 5259 2aca 0346     		mov	r3, r0
 5260 2acc 002B     		cmp	r3, #0
 5261 2ace FAD1     		bne	.L366
 5262 2ad0 2421     		movs	r1, #36
 5263 2ad2 5A48     		ldr	r0, .L557+80
 5264 2ad4 FFF7FEFF 		bl	e_send_uart2_char
 5265 2ad8 00BF     		nop
 5266              	.L367:
 5267 2ada FFF7FEFF 		bl	e_uart2_sending
ARM GAS  /var/folders/d2/nstgp4h54kz7g1l847x_b8wc0000gn/T//ccVbBKId.s 			page 99


 5268 2ade 0346     		mov	r3, r0
 5269 2ae0 002B     		cmp	r3, #0
 5270 2ae2 FAD1     		bne	.L367
 5271 2ae4 1D21     		movs	r1, #29
 5272 2ae6 5648     		ldr	r0, .L557+84
 5273 2ae8 FFF7FEFF 		bl	e_send_uart2_char
 5274 2aec 00BF     		nop
 5275              	.L368:
 5276 2aee FFF7FEFF 		bl	e_uart2_sending
 5277 2af2 0346     		mov	r3, r0
 5278 2af4 002B     		cmp	r3, #0
 5279 2af6 FAD1     		bne	.L368
 5280 2af8 2521     		movs	r1, #37
 5281 2afa 5248     		ldr	r0, .L557+88
 5282 2afc FFF7FEFF 		bl	e_send_uart2_char
 5283 2b00 00BF     		nop
 5284              	.L369:
 5285 2b02 FFF7FEFF 		bl	e_uart2_sending
 5286 2b06 0346     		mov	r3, r0
 5287 2b08 002B     		cmp	r3, #0
 5288 2b0a FAD1     		bne	.L369
 5289 2b0c 2421     		movs	r1, #36
 5290 2b0e 4E48     		ldr	r0, .L557+92
 5291 2b10 FFF7FEFF 		bl	e_send_uart2_char
 5292 2b14 00BF     		nop
 5293              	.L370:
 5294 2b16 FFF7FEFF 		bl	e_uart2_sending
 5295 2b1a 0346     		mov	r3, r0
 5296 2b1c 002B     		cmp	r3, #0
 5297 2b1e FAD1     		bne	.L370
 5298 2b20 00F0F1BD 		b	.L498
 5299              	.L246:
 5300 2b24 97F83F30 		ldrb	r3, [r7, #63]	@ zero_extendqisi2
 5301 2b28 002B     		cmp	r3, #0
 5302 2b2a 40F0EF85 		bne	.L499
 5303 2b2e 474B     		ldr	r3, .L557+96
 5304 2b30 1868     		ldr	r0, [r3]
 5305 2b32 474B     		ldr	r3, .L557+100
 5306 2b34 1C68     		ldr	r4, [r3]
 5307 2b36 474B     		ldr	r3, .L557+104
 5308 2b38 1B68     		ldr	r3, [r3]
 5309 2b3a 474A     		ldr	r2, .L557+108
 5310 2b3c 1268     		ldr	r2, [r2]
 5311 2b3e 4749     		ldr	r1, .L557+112
 5312 2b40 0968     		ldr	r1, [r1]
 5313 2b42 0291     		str	r1, [sp, #8]
 5314 2b44 0192     		str	r2, [sp, #4]
 5315 2b46 0093     		str	r3, [sp]
 5316 2b48 2346     		mov	r3, r4
 5317 2b4a 0246     		mov	r2, r0
 5318 2b4c 4449     		ldr	r1, .L557+116
 5319 2b4e 4548     		ldr	r0, .L557+120
 5320 2b50 FFF7FEFF 		bl	sprintf
 5321 2b54 3B6C     		ldr	r3, [r7, #64]
 5322 2b56 002B     		cmp	r3, #0
 5323 2b58 0FD0     		beq	.L372
 5324 2b5a 4248     		ldr	r0, .L557+120
ARM GAS  /var/folders/d2/nstgp4h54kz7g1l847x_b8wc0000gn/T//ccVbBKId.s 			page 100


 5325 2b5c FFF7FEFF 		bl	strlen
 5326 2b60 0346     		mov	r3, r0
 5327 2b62 1946     		mov	r1, r3
 5328 2b64 3F48     		ldr	r0, .L557+120
 5329 2b66 FFF7FEFF 		bl	e_send_uart1_char
 5330 2b6a 00BF     		nop
 5331              	.L373:
 5332 2b6c FFF7FEFF 		bl	e_uart1_sending
 5333 2b70 0346     		mov	r3, r0
 5334 2b72 002B     		cmp	r3, #0
 5335 2b74 FAD1     		bne	.L373
 5336 2b76 00F0C9BD 		b	.L499
 5337              	.L372:
 5338 2b7a 3A48     		ldr	r0, .L557+120
 5339 2b7c FFF7FEFF 		bl	strlen
 5340 2b80 0346     		mov	r3, r0
 5341 2b82 1946     		mov	r1, r3
 5342 2b84 3748     		ldr	r0, .L557+120
 5343 2b86 FFF7FEFF 		bl	e_send_uart2_char
 5344 2b8a 00BF     		nop
 5345              	.L374:
 5346 2b8c FFF7FEFF 		bl	e_uart2_sending
 5347 2b90 0346     		mov	r3, r0
 5348 2b92 002B     		cmp	r3, #0
 5349 2b94 FAD1     		bne	.L374
 5350 2b96 00F0B9BD 		b	.L499
 5351              	.L247:
 5352 2b9a 97F83F30 		ldrb	r3, [r7, #63]	@ zero_extendqisi2
 5353 2b9e 002B     		cmp	r3, #0
 5354 2ba0 40F0B785 		bne	.L500
 5355 2ba4 304B     		ldr	r3, .L557+124
 5356 2ba6 4FF0FF32 		mov	r2, #-1
 5357 2baa 1A60     		str	r2, [r3]
 5358 2bac 2F4B     		ldr	r3, .L557+128
 5359 2bae 4FF0FF32 		mov	r2, #-1
 5360 2bb2 1A60     		str	r2, [r3]
 5361 2bb4 2D4B     		ldr	r3, .L557+128
 5362 2bb6 0393     		str	r3, [sp, #12]
 5363 2bb8 2B4B     		ldr	r3, .L557+124
 5364 2bba 0293     		str	r3, [sp, #8]
 5365 2bbc 264B     		ldr	r3, .L557+108
 5366 2bbe 0193     		str	r3, [sp, #4]
 5367 2bc0 244B     		ldr	r3, .L557+104
 5368 2bc2 0093     		str	r3, [sp]
 5369 2bc4 224B     		ldr	r3, .L557+100
 5370 2bc6 214A     		ldr	r2, .L557+96
 5371 2bc8 2949     		ldr	r1, .L557+132
 5372 2bca 2648     		ldr	r0, .L557+120
 5373 2bcc FFF7FEFF 		bl	sscanf
 5374 2bd0 1E4B     		ldr	r3, .L557+96
 5375 2bd2 1B68     		ldr	r3, [r3]
 5376 2bd4 002B     		cmp	r3, #0
 5377 2bd6 4DD1     		bne	.L376
 5378 2bd8 1D4B     		ldr	r3, .L557+100
 5379 2bda 1B68     		ldr	r3, [r3]
 5380 2bdc 1D4A     		ldr	r2, .L557+104
 5381 2bde 1268     		ldr	r2, [r2]
ARM GAS  /var/folders/d2/nstgp4h54kz7g1l847x_b8wc0000gn/T//ccVbBKId.s 			page 101


 5382 2be0 02FB03F3 		mul	r3, r2, r3
 5383 2be4 1D4A     		ldr	r2, .L557+112
 5384 2be6 1360     		str	r3, [r2]
 5385 2be8 4DE0     		b	.L377
 5386              	.L558:
 5387 2bea 00BF     		.align	2
 5388              	.L557:
 5389 2bec 1C060000 		.word	.LC46
 5390 2bf0 44060000 		.word	.LC47
 5391 2bf4 70060000 		.word	.LC48
 5392 2bf8 90060000 		.word	.LC49
 5393 2bfc B8060000 		.word	.LC50
 5394 2c00 E0060000 		.word	.LC51
 5395 2c04 10070000 		.word	.LC52
 5396 2c08 28070000 		.word	.LC53
 5397 2c0c 3C070000 		.word	.LC54
 5398 2c10 60070000 		.word	.LC55
 5399 2c14 B0070000 		.word	.LC56
 5400 2c18 D8070000 		.word	.LC57
 5401 2c1c 04080000 		.word	.LC58
 5402 2c20 20080000 		.word	.LC59
 5403 2c24 38080000 		.word	.LC60
 5404 2c28 54080000 		.word	.LC61
 5405 2c2c 80080000 		.word	.LC62
 5406 2c30 AC080000 		.word	.LC63
 5407 2c34 C8080000 		.word	.LC64
 5408 2c38 F4080000 		.word	.LC65
 5409 2c3c 24090000 		.word	.LC66
 5410 2c40 4C090000 		.word	.LC67
 5411 2c44 6C090000 		.word	.LC68
 5412 2c48 94090000 		.word	.LC69
 5413 2c4c 00000000 		.word	cam_mode.13448
 5414 2c50 00000000 		.word	cam_width.13449
 5415 2c54 00000000 		.word	cam_heigth.13450
 5416 2c58 00000000 		.word	cam_zoom.13451
 5417 2c5c 00000000 		.word	cam_size.13452
 5418 2c60 BC090000 		.word	.LC70
 5419 2c64 00000000 		.word	buffer
 5420 2c68 00000000 		.word	cam_x1.13453
 5421 2c6c 00000000 		.word	cam_y1.13454
 5422 2c70 D0090000 		.word	.LC71
 5423              	.L376:
 5424 2c74 AE4B     		ldr	r3, .L559
 5425 2c76 1B68     		ldr	r3, [r3]
 5426 2c78 AE4A     		ldr	r2, .L559+4
 5427 2c7a 1268     		ldr	r2, [r2]
 5428 2c7c 02FB03F3 		mul	r3, r2, r3
 5429 2c80 5B00     		lsls	r3, r3, #1
 5430 2c82 AD4A     		ldr	r2, .L559+8
 5431 2c84 1360     		str	r3, [r2]
 5432              	.L377:
 5433 2c86 AC4B     		ldr	r3, .L559+8
 5434 2c88 1B68     		ldr	r3, [r3]
 5435 2c8a 41F22802 		movw	r2, #4136
 5436 2c8e 9342     		cmp	r3, r2
 5437 2c90 11DD     		ble	.L378
 5438 2c92 AA4B     		ldr	r3, .L559+12
ARM GAS  /var/folders/d2/nstgp4h54kz7g1l847x_b8wc0000gn/T//ccVbBKId.s 			page 102


 5439 2c94 0122     		movs	r2, #1
 5440 2c96 1A60     		str	r2, [r3]
 5441 2c98 A54B     		ldr	r3, .L559
 5442 2c9a 2822     		movs	r2, #40
 5443 2c9c 1A60     		str	r2, [r3]
 5444 2c9e A54B     		ldr	r3, .L559+4
 5445 2ca0 2822     		movs	r2, #40
 5446 2ca2 1A60     		str	r2, [r3]
 5447 2ca4 A24B     		ldr	r3, .L559
 5448 2ca6 1B68     		ldr	r3, [r3]
 5449 2ca8 A24A     		ldr	r2, .L559+4
 5450 2caa 1268     		ldr	r2, [r2]
 5451 2cac 02FB03F3 		mul	r3, r2, r3
 5452 2cb0 5B00     		lsls	r3, r3, #1
 5453 2cb2 A14A     		ldr	r2, .L559+8
 5454 2cb4 1360     		str	r3, [r2]
 5455              	.L378:
 5456 2cb6 FFF7FEFF 		bl	e_poxxxx_init_cam
 5457 2cba A14B     		ldr	r3, .L559+16
 5458 2cbc 1B68     		ldr	r3, [r3]
 5459 2cbe B3F1FF3F 		cmp	r3, #-1
 5460 2cc2 0DD1     		bne	.L379
 5461 2cc4 9A4B     		ldr	r3, .L559
 5462 2cc6 1B68     		ldr	r3, [r3]
 5463 2cc8 9E4A     		ldr	r2, .L559+20
 5464 2cca 1268     		ldr	r2, [r2]
 5465 2ccc 02FB03F3 		mul	r3, r2, r3
 5466 2cd0 C3F52073 		rsb	r3, r3, #640
 5467 2cd4 DA0F     		lsrs	r2, r3, #31
 5468 2cd6 1344     		add	r3, r3, r2
 5469 2cd8 5B10     		asrs	r3, r3, #1
 5470 2cda 1A46     		mov	r2, r3
 5471 2cdc 984B     		ldr	r3, .L559+16
 5472 2cde 1A60     		str	r2, [r3]
 5473              	.L379:
 5474 2ce0 994B     		ldr	r3, .L559+24
 5475 2ce2 1B68     		ldr	r3, [r3]
 5476 2ce4 B3F1FF3F 		cmp	r3, #-1
 5477 2ce8 0DD1     		bne	.L380
 5478 2cea 924B     		ldr	r3, .L559+4
 5479 2cec 1B68     		ldr	r3, [r3]
 5480 2cee 954A     		ldr	r2, .L559+20
 5481 2cf0 1268     		ldr	r2, [r2]
 5482 2cf2 02FB03F3 		mul	r3, r2, r3
 5483 2cf6 C3F5F073 		rsb	r3, r3, #480
 5484 2cfa DA0F     		lsrs	r2, r3, #31
 5485 2cfc 1344     		add	r3, r3, r2
 5486 2cfe 5B10     		asrs	r3, r3, #1
 5487 2d00 1A46     		mov	r2, r3
 5488 2d02 914B     		ldr	r3, .L559+24
 5489 2d04 1A60     		str	r2, [r3]
 5490              	.L380:
 5491 2d06 8E4B     		ldr	r3, .L559+16
 5492 2d08 1B68     		ldr	r3, [r3]
 5493 2d0a 1846     		mov	r0, r3
 5494 2d0c 8E4B     		ldr	r3, .L559+24
 5495 2d0e 1B68     		ldr	r3, [r3]
ARM GAS  /var/folders/d2/nstgp4h54kz7g1l847x_b8wc0000gn/T//ccVbBKId.s 			page 103


 5496 2d10 1C46     		mov	r4, r3
 5497 2d12 874B     		ldr	r3, .L559
 5498 2d14 1B68     		ldr	r3, [r3]
 5499 2d16 8B4A     		ldr	r2, .L559+20
 5500 2d18 1268     		ldr	r2, [r2]
 5501 2d1a 02FB03F3 		mul	r3, r2, r3
 5502 2d1e 1D46     		mov	r5, r3
 5503 2d20 844B     		ldr	r3, .L559+4
 5504 2d22 1B68     		ldr	r3, [r3]
 5505 2d24 874A     		ldr	r2, .L559+20
 5506 2d26 1268     		ldr	r2, [r2]
 5507 2d28 02FB03F3 		mul	r3, r2, r3
 5508 2d2c 1E46     		mov	r6, r3
 5509 2d2e 854B     		ldr	r3, .L559+20
 5510 2d30 1B68     		ldr	r3, [r3]
 5511 2d32 1A46     		mov	r2, r3
 5512 2d34 834B     		ldr	r3, .L559+20
 5513 2d36 1B68     		ldr	r3, [r3]
 5514 2d38 1946     		mov	r1, r3
 5515 2d3a 804B     		ldr	r3, .L559+12
 5516 2d3c 1B68     		ldr	r3, [r3]
 5517 2d3e 0293     		str	r3, [sp, #8]
 5518 2d40 0191     		str	r1, [sp, #4]
 5519 2d42 0092     		str	r2, [sp]
 5520 2d44 3346     		mov	r3, r6
 5521 2d46 2A46     		mov	r2, r5
 5522 2d48 2146     		mov	r1, r4
 5523 2d4a FFF7FEFF 		bl	e_poxxxx_config_cam
 5524 2d4e FFF7FEFF 		bl	e_poxxxx_write_cam_registers
 5525 2d52 3B6C     		ldr	r3, [r7, #64]
 5526 2d54 002B     		cmp	r3, #0
 5527 2d56 0BD0     		beq	.L381
 5528 2d58 0321     		movs	r1, #3
 5529 2d5a 7C48     		ldr	r0, .L559+28
 5530 2d5c FFF7FEFF 		bl	e_send_uart1_char
 5531 2d60 00BF     		nop
 5532              	.L382:
 5533 2d62 FFF7FEFF 		bl	e_uart1_sending
 5534 2d66 0346     		mov	r3, r0
 5535 2d68 002B     		cmp	r3, #0
 5536 2d6a FAD1     		bne	.L382
 5537 2d6c 00F0D1BC 		b	.L500
 5538              	.L381:
 5539 2d70 0321     		movs	r1, #3
 5540 2d72 7648     		ldr	r0, .L559+28
 5541 2d74 FFF7FEFF 		bl	e_send_uart2_char
 5542 2d78 00BF     		nop
 5543              	.L383:
 5544 2d7a FFF7FEFF 		bl	e_uart2_sending
 5545 2d7e 0346     		mov	r3, r0
 5546 2d80 002B     		cmp	r3, #0
 5547 2d82 FAD1     		bne	.L383
 5548 2d84 00F0C5BC 		b	.L500
 5549              	.L248:
 5550 2d88 97F83F30 		ldrb	r3, [r7, #63]	@ zero_extendqisi2
 5551 2d8c 002B     		cmp	r3, #0
 5552 2d8e 17D1     		bne	.L384
ARM GAS  /var/folders/d2/nstgp4h54kz7g1l847x_b8wc0000gn/T//ccVbBKId.s 			page 104


 5553 2d90 3B6C     		ldr	r3, [r7, #64]
 5554 2d92 002B     		cmp	r3, #0
 5555 2d94 0AD0     		beq	.L385
 5556 2d96 3E21     		movs	r1, #62
 5557 2d98 6D48     		ldr	r0, .L559+32
 5558 2d9a FFF7FEFF 		bl	e_send_uart1_char
 5559 2d9e 00BF     		nop
 5560              	.L386:
 5561 2da0 FFF7FEFF 		bl	e_uart1_sending
 5562 2da4 0346     		mov	r3, r0
 5563 2da6 002B     		cmp	r3, #0
 5564 2da8 FAD1     		bne	.L386
 5565 2daa 09E0     		b	.L384
 5566              	.L385:
 5567 2dac 3E21     		movs	r1, #62
 5568 2dae 6848     		ldr	r0, .L559+32
 5569 2db0 FFF7FEFF 		bl	e_send_uart2_char
 5570 2db4 00BF     		nop
 5571              	.L387:
 5572 2db6 FFF7FEFF 		bl	e_uart2_sending
 5573 2dba 0346     		mov	r3, r0
 5574 2dbc 002B     		cmp	r3, #0
 5575 2dbe FAD1     		bne	.L387
 5576              	.L384:
 5577 2dc0 0121     		movs	r1, #1
 5578 2dc2 0820     		movs	r0, #8
 5579 2dc4 FFF7FEFF 		bl	e_set_led
 5580 2dc8 0023     		movs	r3, #0
 5581 2dca BB63     		str	r3, [r7, #56]
 5582 2dcc 02E0     		b	.L388
 5583              	.L389:
 5584 2dce BB6B     		ldr	r3, [r7, #56]
 5585 2dd0 0133     		adds	r3, r3, #1
 5586 2dd2 BB63     		str	r3, [r7, #56]
 5587              	.L388:
 5588 2dd4 BB6B     		ldr	r3, [r7, #56]
 5589 2dd6 5F4A     		ldr	r2, .L559+36
 5590 2dd8 9342     		cmp	r3, r2
 5591 2dda F8DD     		ble	.L389
 5592 2ddc 4FF4C870 		mov	r0, #400
 5593 2de0 FFF7FEFF 		bl	chThdSleep
 5594 2de4 FFF7FEFF 		bl	e_led_clear
 5595 2de8 0023     		movs	r3, #0
 5596 2dea BB63     		str	r3, [r7, #56]
 5597 2dec 02E0     		b	.L390
 5598              	.L391:
 5599 2dee BB6B     		ldr	r3, [r7, #56]
 5600 2df0 0133     		adds	r3, r3, #1
 5601 2df2 BB63     		str	r3, [r7, #56]
 5602              	.L390:
 5603 2df4 BB6B     		ldr	r3, [r7, #56]
 5604 2df6 42F20F72 		movw	r2, #9999
 5605 2dfa 9342     		cmp	r3, r2
 5606 2dfc F7DD     		ble	.L391
 5607 2dfe 6420     		movs	r0, #100
 5608 2e00 FFF7FEFF 		bl	chThdSleep
 5609 2e04 FFF7FEFF 		bl	e_calibrate_ir
ARM GAS  /var/folders/d2/nstgp4h54kz7g1l847x_b8wc0000gn/T//ccVbBKId.s 			page 105


 5610 2e08 97F83F30 		ldrb	r3, [r7, #63]	@ zero_extendqisi2
 5611 2e0c 002B     		cmp	r3, #0
 5612 2e0e 40F08384 		bne	.L501
 5613 2e12 3B6C     		ldr	r3, [r7, #64]
 5614 2e14 002B     		cmp	r3, #0
 5615 2e16 0BD0     		beq	.L393
 5616 2e18 1921     		movs	r1, #25
 5617 2e1a 4F48     		ldr	r0, .L559+40
 5618 2e1c FFF7FEFF 		bl	e_send_uart1_char
 5619 2e20 00BF     		nop
 5620              	.L394:
 5621 2e22 FFF7FEFF 		bl	e_uart1_sending
 5622 2e26 0346     		mov	r3, r0
 5623 2e28 002B     		cmp	r3, #0
 5624 2e2a FAD1     		bne	.L394
 5625 2e2c 00F074BC 		b	.L501
 5626              	.L393:
 5627 2e30 1921     		movs	r1, #25
 5628 2e32 4948     		ldr	r0, .L559+40
 5629 2e34 FFF7FEFF 		bl	e_send_uart2_char
 5630 2e38 00BF     		nop
 5631              	.L395:
 5632 2e3a FFF7FEFF 		bl	e_uart2_sending
 5633 2e3e 0346     		mov	r3, r0
 5634 2e40 002B     		cmp	r3, #0
 5635 2e42 FAD1     		bne	.L395
 5636 2e44 00F068BC 		b	.L501
 5637              	.L249:
 5638 2e48 444B     		ldr	r3, .L559+44
 5639 2e4a 454A     		ldr	r2, .L559+48
 5640 2e4c 4549     		ldr	r1, .L559+52
 5641 2e4e 4648     		ldr	r0, .L559+56
 5642 2e50 FFF7FEFF 		bl	sscanf
 5643 2e54 424B     		ldr	r3, .L559+48
 5644 2e56 1B68     		ldr	r3, [r3]
 5645 2e58 1A46     		mov	r2, r3
 5646 2e5a 404B     		ldr	r3, .L559+44
 5647 2e5c 1B68     		ldr	r3, [r3]
 5648 2e5e 1946     		mov	r1, r3
 5649 2e60 1046     		mov	r0, r2
 5650 2e62 FFF7FEFF 		bl	e_set_led
 5651 2e66 97F83F30 		ldrb	r3, [r7, #63]	@ zero_extendqisi2
 5652 2e6a 002B     		cmp	r3, #0
 5653 2e6c 40F05784 		bne	.L502
 5654 2e70 3B6C     		ldr	r3, [r7, #64]
 5655 2e72 002B     		cmp	r3, #0
 5656 2e74 0BD0     		beq	.L397
 5657 2e76 0321     		movs	r1, #3
 5658 2e78 3C48     		ldr	r0, .L559+60
 5659 2e7a FFF7FEFF 		bl	e_send_uart1_char
 5660 2e7e 00BF     		nop
 5661              	.L398:
 5662 2e80 FFF7FEFF 		bl	e_uart1_sending
 5663 2e84 0346     		mov	r3, r0
 5664 2e86 002B     		cmp	r3, #0
 5665 2e88 FAD1     		bne	.L398
 5666 2e8a 00F048BC 		b	.L502
ARM GAS  /var/folders/d2/nstgp4h54kz7g1l847x_b8wc0000gn/T//ccVbBKId.s 			page 106


 5667              	.L397:
 5668 2e8e 0321     		movs	r1, #3
 5669 2e90 3648     		ldr	r0, .L559+60
 5670 2e92 FFF7FEFF 		bl	e_send_uart2_char
 5671 2e96 00BF     		nop
 5672              	.L399:
 5673 2e98 FFF7FEFF 		bl	e_uart2_sending
 5674 2e9c 0346     		mov	r3, r0
 5675 2e9e 002B     		cmp	r3, #0
 5676 2ea0 FAD1     		bne	.L399
 5677 2ea2 00F03CBC 		b	.L502
 5678              	.L250:
 5679 2ea6 97F83F30 		ldrb	r3, [r7, #63]	@ zero_extendqisi2
 5680 2eaa 002B     		cmp	r3, #0
 5681 2eac 40F03A84 		bne	.L503
 5682 2eb0 0020     		movs	r0, #0
 5683 2eb2 FFF7FEFF 		bl	get_ground_prox
 5684 2eb6 0646     		mov	r6, r0
 5685 2eb8 0120     		movs	r0, #1
 5686 2eba FFF7FEFF 		bl	get_ground_prox
 5687 2ebe 8046     		mov	r8, r0
 5688 2ec0 0220     		movs	r0, #2
 5689 2ec2 FFF7FEFF 		bl	get_ground_prox
 5690 2ec6 0446     		mov	r4, r0
 5691 2ec8 0320     		movs	r0, #3
 5692 2eca FFF7FEFF 		bl	get_ground_prox
 5693 2ece 0546     		mov	r5, r0
 5694 2ed0 0420     		movs	r0, #4
 5695 2ed2 FFF7FEFF 		bl	get_ground_prox
 5696 2ed6 0346     		mov	r3, r0
 5697 2ed8 0293     		str	r3, [sp, #8]
 5698 2eda 0195     		str	r5, [sp, #4]
 5699 2edc 0094     		str	r4, [sp]
 5700 2ede 4346     		mov	r3, r8
 5701 2ee0 3246     		mov	r2, r6
 5702 2ee2 2349     		ldr	r1, .L559+64
 5703 2ee4 2048     		ldr	r0, .L559+56
 5704 2ee6 FFF7FEFF 		bl	sprintf
 5705 2eea 3B6C     		ldr	r3, [r7, #64]
 5706 2eec 002B     		cmp	r3, #0
 5707 2eee 0FD0     		beq	.L401
 5708 2ef0 1D48     		ldr	r0, .L559+56
 5709 2ef2 FFF7FEFF 		bl	strlen
 5710 2ef6 0346     		mov	r3, r0
 5711 2ef8 1946     		mov	r1, r3
 5712 2efa 1B48     		ldr	r0, .L559+56
 5713 2efc FFF7FEFF 		bl	e_send_uart1_char
 5714 2f00 00BF     		nop
 5715              	.L402:
 5716 2f02 FFF7FEFF 		bl	e_uart1_sending
 5717 2f06 0346     		mov	r3, r0
 5718 2f08 002B     		cmp	r3, #0
 5719 2f0a FAD1     		bne	.L402
 5720 2f0c 00F00ABC 		b	.L503
 5721              	.L401:
 5722 2f10 1548     		ldr	r0, .L559+56
 5723 2f12 FFF7FEFF 		bl	strlen
ARM GAS  /var/folders/d2/nstgp4h54kz7g1l847x_b8wc0000gn/T//ccVbBKId.s 			page 107


 5724 2f16 0346     		mov	r3, r0
 5725 2f18 1946     		mov	r1, r3
 5726 2f1a 1348     		ldr	r0, .L559+56
 5727 2f1c FFF7FEFF 		bl	e_send_uart2_char
 5728 2f20 00BF     		nop
 5729              	.L403:
 5730 2f22 FFF7FEFF 		bl	e_uart2_sending
 5731 2f26 0346     		mov	r3, r0
 5732 2f28 002B     		cmp	r3, #0
 5733 2f2a FAD1     		bne	.L403
 5734 2f2c FAE3     		b	.L503
 5735              	.L560:
 5736 2f2e 00BF     		.align	2
 5737              	.L559:
 5738 2f30 00000000 		.word	cam_width.13449
 5739 2f34 00000000 		.word	cam_heigth.13450
 5740 2f38 00000000 		.word	cam_size.13452
 5741 2f3c 00000000 		.word	cam_mode.13448
 5742 2f40 00000000 		.word	cam_x1.13453
 5743 2f44 00000000 		.word	cam_zoom.13451
 5744 2f48 00000000 		.word	cam_y1.13454
 5745 2f4c E8090000 		.word	.LC72
 5746 2f50 EC090000 		.word	.LC73
 5747 2f54 3F420F00 		.word	999999
 5748 2f58 2C0A0000 		.word	.LC74
 5749 2f5c 00000000 		.word	LED_action.13440
 5750 2f60 00000000 		.word	LED_nbr.13439
 5751 2f64 480A0000 		.word	.LC75
 5752 2f68 00000000 		.word	buffer
 5753 2f6c 540A0000 		.word	.LC76
 5754 2f70 580A0000 		.word	.LC77
 5755              	.L251:
 5756 2f74 0020     		movs	r0, #0
 5757 2f76 FFF7FEFF 		bl	e_get_calibrated_prox
 5758 2f7a 8046     		mov	r8, r0
 5759 2f7c 0120     		movs	r0, #1
 5760 2f7e FFF7FEFF 		bl	e_get_calibrated_prox
 5761 2f82 8146     		mov	r9, r0
 5762 2f84 0220     		movs	r0, #2
 5763 2f86 FFF7FEFF 		bl	e_get_calibrated_prox
 5764 2f8a 0446     		mov	r4, r0
 5765 2f8c 0320     		movs	r0, #3
 5766 2f8e FFF7FEFF 		bl	e_get_calibrated_prox
 5767 2f92 0546     		mov	r5, r0
 5768 2f94 0420     		movs	r0, #4
 5769 2f96 FFF7FEFF 		bl	e_get_calibrated_prox
 5770 2f9a 0646     		mov	r6, r0
 5771 2f9c 0520     		movs	r0, #5
 5772 2f9e FFF7FEFF 		bl	e_get_calibrated_prox
 5773 2fa2 7860     		str	r0, [r7, #4]
 5774 2fa4 0620     		movs	r0, #6
 5775 2fa6 FFF7FEFF 		bl	e_get_calibrated_prox
 5776 2faa 3860     		str	r0, [r7]
 5777 2fac 0720     		movs	r0, #7
 5778 2fae FFF7FEFF 		bl	e_get_calibrated_prox
 5779 2fb2 0346     		mov	r3, r0
 5780 2fb4 0593     		str	r3, [sp, #20]
ARM GAS  /var/folders/d2/nstgp4h54kz7g1l847x_b8wc0000gn/T//ccVbBKId.s 			page 108


 5781 2fb6 3B68     		ldr	r3, [r7]
 5782 2fb8 0493     		str	r3, [sp, #16]
 5783 2fba 7B68     		ldr	r3, [r7, #4]
 5784 2fbc 0393     		str	r3, [sp, #12]
 5785 2fbe 0296     		str	r6, [sp, #8]
 5786 2fc0 0195     		str	r5, [sp, #4]
 5787 2fc2 0094     		str	r4, [sp]
 5788 2fc4 4B46     		mov	r3, r9
 5789 2fc6 4246     		mov	r2, r8
 5790 2fc8 BC49     		ldr	r1, .L561
 5791 2fca BD48     		ldr	r0, .L561+4
 5792 2fcc FFF7FEFF 		bl	sprintf
 5793 2fd0 97F83F30 		ldrb	r3, [r7, #63]	@ zero_extendqisi2
 5794 2fd4 002B     		cmp	r3, #0
 5795 2fd6 40F0A883 		bne	.L504
 5796 2fda 3B6C     		ldr	r3, [r7, #64]
 5797 2fdc 002B     		cmp	r3, #0
 5798 2fde 0ED0     		beq	.L405
 5799 2fe0 B748     		ldr	r0, .L561+4
 5800 2fe2 FFF7FEFF 		bl	strlen
 5801 2fe6 0346     		mov	r3, r0
 5802 2fe8 1946     		mov	r1, r3
 5803 2fea B548     		ldr	r0, .L561+4
 5804 2fec FFF7FEFF 		bl	e_send_uart1_char
 5805 2ff0 00BF     		nop
 5806              	.L406:
 5807 2ff2 FFF7FEFF 		bl	e_uart1_sending
 5808 2ff6 0346     		mov	r3, r0
 5809 2ff8 002B     		cmp	r3, #0
 5810 2ffa FAD1     		bne	.L406
 5811 2ffc 95E3     		b	.L504
 5812              	.L405:
 5813 2ffe B048     		ldr	r0, .L561+4
 5814 3000 FFF7FEFF 		bl	strlen
 5815 3004 0346     		mov	r3, r0
 5816 3006 1946     		mov	r1, r3
 5817 3008 AD48     		ldr	r0, .L561+4
 5818 300a FFF7FEFF 		bl	e_send_uart2_char
 5819 300e 00BF     		nop
 5820              	.L407:
 5821 3010 FFF7FEFF 		bl	e_uart2_sending
 5822 3014 0346     		mov	r3, r0
 5823 3016 002B     		cmp	r3, #0
 5824 3018 FAD1     		bne	.L407
 5825 301a 86E3     		b	.L504
 5826              	.L252:
 5827 301c 0020     		movs	r0, #0
 5828 301e FFF7FEFF 		bl	e_get_ambient_light
 5829 3022 8046     		mov	r8, r0
 5830 3024 0120     		movs	r0, #1
 5831 3026 FFF7FEFF 		bl	e_get_ambient_light
 5832 302a 8146     		mov	r9, r0
 5833 302c 0220     		movs	r0, #2
 5834 302e FFF7FEFF 		bl	e_get_ambient_light
 5835 3032 0446     		mov	r4, r0
 5836 3034 0320     		movs	r0, #3
 5837 3036 FFF7FEFF 		bl	e_get_ambient_light
ARM GAS  /var/folders/d2/nstgp4h54kz7g1l847x_b8wc0000gn/T//ccVbBKId.s 			page 109


 5838 303a 0546     		mov	r5, r0
 5839 303c 0420     		movs	r0, #4
 5840 303e FFF7FEFF 		bl	e_get_ambient_light
 5841 3042 0646     		mov	r6, r0
 5842 3044 0520     		movs	r0, #5
 5843 3046 FFF7FEFF 		bl	e_get_ambient_light
 5844 304a 7860     		str	r0, [r7, #4]
 5845 304c 0620     		movs	r0, #6
 5846 304e FFF7FEFF 		bl	e_get_ambient_light
 5847 3052 3860     		str	r0, [r7]
 5848 3054 0720     		movs	r0, #7
 5849 3056 FFF7FEFF 		bl	e_get_ambient_light
 5850 305a 0346     		mov	r3, r0
 5851 305c 0593     		str	r3, [sp, #20]
 5852 305e 3B68     		ldr	r3, [r7]
 5853 3060 0493     		str	r3, [sp, #16]
 5854 3062 7B68     		ldr	r3, [r7, #4]
 5855 3064 0393     		str	r3, [sp, #12]
 5856 3066 0296     		str	r6, [sp, #8]
 5857 3068 0195     		str	r5, [sp, #4]
 5858 306a 0094     		str	r4, [sp]
 5859 306c 4B46     		mov	r3, r9
 5860 306e 4246     		mov	r2, r8
 5861 3070 9449     		ldr	r1, .L561+8
 5862 3072 9348     		ldr	r0, .L561+4
 5863 3074 FFF7FEFF 		bl	sprintf
 5864 3078 97F83F30 		ldrb	r3, [r7, #63]	@ zero_extendqisi2
 5865 307c 002B     		cmp	r3, #0
 5866 307e 40F05783 		bne	.L505
 5867 3082 3B6C     		ldr	r3, [r7, #64]
 5868 3084 002B     		cmp	r3, #0
 5869 3086 0ED0     		beq	.L409
 5870 3088 8D48     		ldr	r0, .L561+4
 5871 308a FFF7FEFF 		bl	strlen
 5872 308e 0346     		mov	r3, r0
 5873 3090 1946     		mov	r1, r3
 5874 3092 8B48     		ldr	r0, .L561+4
 5875 3094 FFF7FEFF 		bl	e_send_uart1_char
 5876 3098 00BF     		nop
 5877              	.L410:
 5878 309a FFF7FEFF 		bl	e_uart1_sending
 5879 309e 0346     		mov	r3, r0
 5880 30a0 002B     		cmp	r3, #0
 5881 30a2 FAD1     		bne	.L410
 5882 30a4 44E3     		b	.L505
 5883              	.L409:
 5884 30a6 8648     		ldr	r0, .L561+4
 5885 30a8 FFF7FEFF 		bl	strlen
 5886 30ac 0346     		mov	r3, r0
 5887 30ae 1946     		mov	r1, r3
 5888 30b0 8348     		ldr	r0, .L561+4
 5889 30b2 FFF7FEFF 		bl	e_send_uart2_char
 5890 30b6 00BF     		nop
 5891              	.L411:
 5892 30b8 FFF7FEFF 		bl	e_uart2_sending
 5893 30bc 0346     		mov	r3, r0
 5894 30be 002B     		cmp	r3, #0
ARM GAS  /var/folders/d2/nstgp4h54kz7g1l847x_b8wc0000gn/T//ccVbBKId.s 			page 110


 5895 30c0 FAD1     		bne	.L411
 5896 30c2 35E3     		b	.L505
 5897              	.L253:
 5898 30c4 804B     		ldr	r3, .L561+12
 5899 30c6 814A     		ldr	r2, .L561+16
 5900 30c8 8149     		ldr	r1, .L561+20
 5901 30ca 7D48     		ldr	r0, .L561+4
 5902 30cc FFF7FEFF 		bl	sscanf
 5903 30d0 7E4B     		ldr	r3, .L561+16
 5904 30d2 1B68     		ldr	r3, [r3]
 5905 30d4 1846     		mov	r0, r3
 5906 30d6 FFF7FEFF 		bl	e_set_steps_left
 5907 30da 7B4B     		ldr	r3, .L561+12
 5908 30dc 1B68     		ldr	r3, [r3]
 5909 30de 1846     		mov	r0, r3
 5910 30e0 FFF7FEFF 		bl	e_set_steps_right
 5911 30e4 97F83F30 		ldrb	r3, [r7, #63]	@ zero_extendqisi2
 5912 30e8 002B     		cmp	r3, #0
 5913 30ea 40F02483 		bne	.L506
 5914 30ee 3B6C     		ldr	r3, [r7, #64]
 5915 30f0 002B     		cmp	r3, #0
 5916 30f2 0AD0     		beq	.L413
 5917 30f4 0321     		movs	r1, #3
 5918 30f6 7748     		ldr	r0, .L561+24
 5919 30f8 FFF7FEFF 		bl	e_send_uart1_char
 5920 30fc 00BF     		nop
 5921              	.L414:
 5922 30fe FFF7FEFF 		bl	e_uart1_sending
 5923 3102 0346     		mov	r3, r0
 5924 3104 002B     		cmp	r3, #0
 5925 3106 FAD1     		bne	.L414
 5926 3108 15E3     		b	.L506
 5927              	.L413:
 5928 310a 0321     		movs	r1, #3
 5929 310c 7148     		ldr	r0, .L561+24
 5930 310e FFF7FEFF 		bl	e_send_uart2_char
 5931 3112 00BF     		nop
 5932              	.L415:
 5933 3114 FFF7FEFF 		bl	e_uart2_sending
 5934 3118 0346     		mov	r3, r0
 5935 311a 002B     		cmp	r3, #0
 5936 311c FAD1     		bne	.L415
 5937 311e 0AE3     		b	.L506
 5938              	.L254:
 5939 3120 FFF7FEFF 		bl	e_get_steps_left
 5940 3124 0446     		mov	r4, r0
 5941 3126 FFF7FEFF 		bl	e_get_steps_right
 5942 312a 0346     		mov	r3, r0
 5943 312c 2246     		mov	r2, r4
 5944 312e 6A49     		ldr	r1, .L561+28
 5945 3130 6348     		ldr	r0, .L561+4
 5946 3132 FFF7FEFF 		bl	sprintf
 5947 3136 97F83F30 		ldrb	r3, [r7, #63]	@ zero_extendqisi2
 5948 313a 002B     		cmp	r3, #0
 5949 313c 40F0FE82 		bne	.L507
 5950 3140 3B6C     		ldr	r3, [r7, #64]
 5951 3142 002B     		cmp	r3, #0
ARM GAS  /var/folders/d2/nstgp4h54kz7g1l847x_b8wc0000gn/T//ccVbBKId.s 			page 111


 5952 3144 0ED0     		beq	.L417
 5953 3146 5E48     		ldr	r0, .L561+4
 5954 3148 FFF7FEFF 		bl	strlen
 5955 314c 0346     		mov	r3, r0
 5956 314e 1946     		mov	r1, r3
 5957 3150 5B48     		ldr	r0, .L561+4
 5958 3152 FFF7FEFF 		bl	e_send_uart1_char
 5959 3156 00BF     		nop
 5960              	.L418:
 5961 3158 FFF7FEFF 		bl	e_uart1_sending
 5962 315c 0346     		mov	r3, r0
 5963 315e 002B     		cmp	r3, #0
 5964 3160 FAD1     		bne	.L418
 5965 3162 EBE2     		b	.L507
 5966              	.L417:
 5967 3164 5648     		ldr	r0, .L561+4
 5968 3166 FFF7FEFF 		bl	strlen
 5969 316a 0346     		mov	r3, r0
 5970 316c 1946     		mov	r1, r3
 5971 316e 5448     		ldr	r0, .L561+4
 5972 3170 FFF7FEFF 		bl	e_send_uart2_char
 5973 3174 00BF     		nop
 5974              	.L419:
 5975 3176 FFF7FEFF 		bl	e_uart2_sending
 5976 317a 0346     		mov	r3, r0
 5977 317c 002B     		cmp	r3, #0
 5978 317e FAD1     		bne	.L419
 5979 3180 DCE2     		b	.L507
 5980              	.L256:
 5981 3182 0020     		movs	r0, #0
 5982 3184 FFF7FEFF 		bl	e_set_speed_left
 5983 3188 0020     		movs	r0, #0
 5984 318a FFF7FEFF 		bl	e_set_speed_right
 5985 318e 0021     		movs	r1, #0
 5986 3190 0820     		movs	r0, #8
 5987 3192 FFF7FEFF 		bl	e_set_led
 5988 3196 97F83F30 		ldrb	r3, [r7, #63]	@ zero_extendqisi2
 5989 319a 002B     		cmp	r3, #0
 5990 319c 40F0D182 		bne	.L508
 5991 31a0 3B6C     		ldr	r3, [r7, #64]
 5992 31a2 002B     		cmp	r3, #0
 5993 31a4 0AD0     		beq	.L421
 5994 31a6 0321     		movs	r1, #3
 5995 31a8 4C48     		ldr	r0, .L561+32
 5996 31aa FFF7FEFF 		bl	e_send_uart1_char
 5997 31ae 00BF     		nop
 5998              	.L422:
 5999 31b0 FFF7FEFF 		bl	e_uart1_sending
 6000 31b4 0346     		mov	r3, r0
 6001 31b6 002B     		cmp	r3, #0
 6002 31b8 FAD1     		bne	.L422
 6003 31ba C2E2     		b	.L508
 6004              	.L421:
 6005 31bc 0321     		movs	r1, #3
 6006 31be 4748     		ldr	r0, .L561+32
 6007 31c0 FFF7FEFF 		bl	e_send_uart2_char
 6008 31c4 00BF     		nop
ARM GAS  /var/folders/d2/nstgp4h54kz7g1l847x_b8wc0000gn/T//ccVbBKId.s 			page 112


 6009              	.L423:
 6010 31c6 FFF7FEFF 		bl	e_uart2_sending
 6011 31ca 0346     		mov	r3, r0
 6012 31cc 002B     		cmp	r3, #0
 6013 31ce FAD1     		bne	.L423
 6014 31d0 B7E2     		b	.L508
 6015              	.L257:
 6016 31d2 434A     		ldr	r2, .L561+36
 6017 31d4 4349     		ldr	r1, .L561+40
 6018 31d6 3A48     		ldr	r0, .L561+4
 6019 31d8 FFF7FEFF 		bl	sscanf
 6020 31dc 424B     		ldr	r3, .L561+44
 6021 31de 1B78     		ldrb	r3, [r3]	@ zero_extendqisi2
 6022 31e0 002B     		cmp	r3, #0
 6023 31e2 04D1     		bne	.L424
 6024 31e4 FFF7FEFF 		bl	e_init_sound
 6025 31e8 3F4B     		ldr	r3, .L561+44
 6026 31ea 0122     		movs	r2, #1
 6027 31ec 1A70     		strb	r2, [r3]
 6028              	.L424:
 6029 31ee 3C4B     		ldr	r3, .L561+36
 6030 31f0 1B68     		ldr	r3, [r3]
 6031 31f2 013B     		subs	r3, r3, #1
 6032 31f4 042B     		cmp	r3, #4
 6033 31f6 2DD8     		bhi	.L425
 6034 31f8 01A2     		adr	r2, .L427
 6035 31fa 52F823F0 		ldr	pc, [r2, r3, lsl #2]
 6036 31fe 00BF     		.p2align 2
 6037              	.L427:
 6038 3200 15320000 		.word	.L426+1
 6039 3204 21320000 		.word	.L428+1
 6040 3208 2D320000 		.word	.L429+1
 6041 320c 39320000 		.word	.L430+1
 6042 3210 47320000 		.word	.L431+1
 6043              		.p2align 1
 6044              	.L426:
 6045 3214 0022     		movs	r2, #0
 6046 3216 0221     		movs	r1, #2
 6047 3218 0320     		movs	r0, #3
 6048 321a FFF7FEFF 		bl	playMelody
 6049 321e 21E0     		b	.L432
 6050              	.L428:
 6051 3220 0022     		movs	r2, #0
 6052 3222 0221     		movs	r1, #2
 6053 3224 0420     		movs	r0, #4
 6054 3226 FFF7FEFF 		bl	playMelody
 6055 322a 1BE0     		b	.L432
 6056              	.L429:
 6057 322c 0022     		movs	r2, #0
 6058 322e 0221     		movs	r1, #2
 6059 3230 0B20     		movs	r0, #11
 6060 3232 FFF7FEFF 		bl	playMelody
 6061 3236 15E0     		b	.L432
 6062              	.L430:
 6063 3238 40F69461 		movw	r1, #3732
 6064 323c 41F67E40 		movw	r0, #7294
 6065 3240 FFF7FEFF 		bl	e_play_sound
ARM GAS  /var/folders/d2/nstgp4h54kz7g1l847x_b8wc0000gn/T//ccVbBKId.s 			page 113


 6066 3244 0EE0     		b	.L432
 6067              	.L431:
 6068 3246 41F65071 		movw	r1, #8016
 6069 324a 42F61430 		movw	r0, #11028
 6070 324e FFF7FEFF 		bl	e_play_sound
 6071 3252 07E0     		b	.L432
 6072              	.L425:
 6073 3254 FFF7FEFF 		bl	e_close_sound
 6074 3258 FFF7FEFF 		bl	stopCurrentMelody
 6075 325c 224B     		ldr	r3, .L561+44
 6076 325e 0022     		movs	r2, #0
 6077 3260 1A70     		strb	r2, [r3]
 6078 3262 00BF     		nop
 6079              	.L432:
 6080 3264 97F83F30 		ldrb	r3, [r7, #63]	@ zero_extendqisi2
 6081 3268 002B     		cmp	r3, #0
 6082 326a 40F06D82 		bne	.L509
 6083 326e 3B6C     		ldr	r3, [r7, #64]
 6084 3270 002B     		cmp	r3, #0
 6085 3272 0AD0     		beq	.L434
 6086 3274 0321     		movs	r1, #3
 6087 3276 1D48     		ldr	r0, .L561+48
 6088 3278 FFF7FEFF 		bl	e_send_uart1_char
 6089 327c 00BF     		nop
 6090              	.L435:
 6091 327e FFF7FEFF 		bl	e_uart1_sending
 6092 3282 0346     		mov	r3, r0
 6093 3284 002B     		cmp	r3, #0
 6094 3286 FAD1     		bne	.L435
 6095 3288 5EE2     		b	.L509
 6096              	.L434:
 6097 328a 0321     		movs	r1, #3
 6098 328c 1748     		ldr	r0, .L561+48
 6099 328e FFF7FEFF 		bl	e_send_uart2_char
 6100 3292 00BF     		nop
 6101              	.L436:
 6102 3294 FFF7FEFF 		bl	e_uart2_sending
 6103 3298 0346     		mov	r3, r0
 6104 329a 002B     		cmp	r3, #0
 6105 329c FAD1     		bne	.L436
 6106 329e 53E2     		b	.L509
 6107              	.L265:
 6108 32a0 97F83F30 		ldrb	r3, [r7, #63]	@ zero_extendqisi2
 6109 32a4 002B     		cmp	r3, #0
 6110 32a6 25D1     		bne	.L437
 6111 32a8 FFF7FEFF 		bl	getTemperature
 6112 32ac 0346     		mov	r3, r0
 6113 32ae 1A46     		mov	r2, r3
 6114 32b0 0F49     		ldr	r1, .L561+52
 6115 32b2 0348     		ldr	r0, .L561+4
 6116 32b4 FFF7FEFF 		bl	sprintf
 6117 32b8 22E0     		b	.L438
 6118              	.L562:
 6119 32ba 00BF     		.align	2
 6120              	.L561:
 6121 32bc 6C0A0000 		.word	.LC78
 6122 32c0 00000000 		.word	buffer
ARM GAS  /var/folders/d2/nstgp4h54kz7g1l847x_b8wc0000gn/T//ccVbBKId.s 			page 114


 6123 32c4 880A0000 		.word	.LC79
 6124 32c8 00000000 		.word	positionr.13437
 6125 32cc 00000000 		.word	positionl.13438
 6126 32d0 A40A0000 		.word	.LC80
 6127 32d4 B00A0000 		.word	.LC81
 6128 32d8 B40A0000 		.word	.LC82
 6129 32dc C00A0000 		.word	.LC83
 6130 32e0 00000000 		.word	sound.13444
 6131 32e4 C40A0000 		.word	.LC84
 6132 32e8 00000000 		.word	first.13455
 6133 32ec CC0A0000 		.word	.LC85
 6134 32f0 D00A0000 		.word	.LC86
 6135              	.L437:
 6136 32f4 B34B     		ldr	r3, .L563
 6137 32f6 B44A     		ldr	r2, .L563+4
 6138 32f8 1068     		ldr	r0, [r2]
 6139 32fa 1860     		str	r0, [r3]	@ unaligned
 6140 32fc 9288     		ldrh	r2, [r2, #4]	@ unaligned
 6141 32fe 9A80     		strh	r2, [r3, #4]	@ unaligned
 6142              	.L438:
 6143 3300 97F83F30 		ldrb	r3, [r7, #63]	@ zero_extendqisi2
 6144 3304 002B     		cmp	r3, #0
 6145 3306 40F02282 		bne	.L510
 6146 330a 3B6C     		ldr	r3, [r7, #64]
 6147 330c 002B     		cmp	r3, #0
 6148 330e 0ED0     		beq	.L440
 6149 3310 AC48     		ldr	r0, .L563
 6150 3312 FFF7FEFF 		bl	strlen
 6151 3316 0346     		mov	r3, r0
 6152 3318 1946     		mov	r1, r3
 6153 331a AA48     		ldr	r0, .L563
 6154 331c FFF7FEFF 		bl	e_send_uart1_char
 6155 3320 00BF     		nop
 6156              	.L441:
 6157 3322 FFF7FEFF 		bl	e_uart1_sending
 6158 3326 0346     		mov	r3, r0
 6159 3328 002B     		cmp	r3, #0
 6160 332a FAD1     		bne	.L441
 6161 332c 0FE2     		b	.L510
 6162              	.L440:
 6163 332e A548     		ldr	r0, .L563
 6164 3330 FFF7FEFF 		bl	strlen
 6165 3334 0346     		mov	r3, r0
 6166 3336 1946     		mov	r1, r3
 6167 3338 A248     		ldr	r0, .L563
 6168 333a FFF7FEFF 		bl	e_send_uart2_char
 6169 333e 00BF     		nop
 6170              	.L442:
 6171 3340 FFF7FEFF 		bl	e_uart2_sending
 6172 3344 0346     		mov	r3, r0
 6173 3346 002B     		cmp	r3, #0
 6174 3348 FAD1     		bne	.L442
 6175 334a 00E2     		b	.L510
 6176              	.L258:
 6177 334c 0020     		movs	r0, #0
 6178 334e FFF7FEFF 		bl	e_get_micro_volume
 6179 3352 0446     		mov	r4, r0
ARM GAS  /var/folders/d2/nstgp4h54kz7g1l847x_b8wc0000gn/T//ccVbBKId.s 			page 115


 6180 3354 0120     		movs	r0, #1
 6181 3356 FFF7FEFF 		bl	e_get_micro_volume
 6182 335a 0546     		mov	r5, r0
 6183 335c 0220     		movs	r0, #2
 6184 335e FFF7FEFF 		bl	e_get_micro_volume
 6185 3362 0346     		mov	r3, r0
 6186 3364 0093     		str	r3, [sp]
 6187 3366 2B46     		mov	r3, r5
 6188 3368 2246     		mov	r2, r4
 6189 336a 9849     		ldr	r1, .L563+8
 6190 336c 9548     		ldr	r0, .L563
 6191 336e FFF7FEFF 		bl	sprintf
 6192 3372 97F83F30 		ldrb	r3, [r7, #63]	@ zero_extendqisi2
 6193 3376 002B     		cmp	r3, #0
 6194 3378 40F0EC81 		bne	.L511
 6195 337c 3B6C     		ldr	r3, [r7, #64]
 6196 337e 002B     		cmp	r3, #0
 6197 3380 0ED0     		beq	.L444
 6198 3382 9048     		ldr	r0, .L563
 6199 3384 FFF7FEFF 		bl	strlen
 6200 3388 0346     		mov	r3, r0
 6201 338a 1946     		mov	r1, r3
 6202 338c 8D48     		ldr	r0, .L563
 6203 338e FFF7FEFF 		bl	e_send_uart1_char
 6204 3392 00BF     		nop
 6205              	.L445:
 6206 3394 FFF7FEFF 		bl	e_uart1_sending
 6207 3398 0346     		mov	r3, r0
 6208 339a 002B     		cmp	r3, #0
 6209 339c FAD1     		bne	.L445
 6210 339e D9E1     		b	.L511
 6211              	.L444:
 6212 33a0 8848     		ldr	r0, .L563
 6213 33a2 FFF7FEFF 		bl	strlen
 6214 33a6 0346     		mov	r3, r0
 6215 33a8 1946     		mov	r1, r3
 6216 33aa 8648     		ldr	r0, .L563
 6217 33ac FFF7FEFF 		bl	e_send_uart2_char
 6218 33b0 00BF     		nop
 6219              	.L446:
 6220 33b2 FFF7FEFF 		bl	e_uart2_sending
 6221 33b6 0346     		mov	r3, r0
 6222 33b8 002B     		cmp	r3, #0
 6223 33ba FAD1     		bne	.L446
 6224 33bc CAE1     		b	.L511
 6225              	.L259:
 6226 33be 97F83F30 		ldrb	r3, [r7, #63]	@ zero_extendqisi2
 6227 33c2 002B     		cmp	r3, #0
 6228 33c4 17D1     		bne	.L447
 6229 33c6 3B6C     		ldr	r3, [r7, #64]
 6230 33c8 002B     		cmp	r3, #0
 6231 33ca 0AD0     		beq	.L448
 6232 33cc 2521     		movs	r1, #37
 6233 33ce 8048     		ldr	r0, .L563+12
 6234 33d0 FFF7FEFF 		bl	e_send_uart1_char
 6235 33d4 00BF     		nop
 6236              	.L449:
ARM GAS  /var/folders/d2/nstgp4h54kz7g1l847x_b8wc0000gn/T//ccVbBKId.s 			page 116


 6237 33d6 FFF7FEFF 		bl	e_uart1_sending
 6238 33da 0346     		mov	r3, r0
 6239 33dc 002B     		cmp	r3, #0
 6240 33de FAD1     		bne	.L449
 6241 33e0 09E0     		b	.L447
 6242              	.L448:
 6243 33e2 2521     		movs	r1, #37
 6244 33e4 7A48     		ldr	r0, .L563+12
 6245 33e6 FFF7FEFF 		bl	e_send_uart2_char
 6246 33ea 00BF     		nop
 6247              	.L450:
 6248 33ec FFF7FEFF 		bl	e_uart2_sending
 6249 33f0 0346     		mov	r3, r0
 6250 33f2 002B     		cmp	r3, #0
 6251 33f4 FAD1     		bne	.L450
 6252              	.L447:
 6253 33f6 774B     		ldr	r3, .L563+16
 6254 33f8 1B68     		ldr	r3, [r3]
 6255 33fa 1A46     		mov	r2, r3
 6256 33fc 7649     		ldr	r1, .L563+20
 6257 33fe 7148     		ldr	r0, .L563
 6258 3400 FFF7FEFF 		bl	sprintf
 6259 3404 97F83F30 		ldrb	r3, [r7, #63]	@ zero_extendqisi2
 6260 3408 002B     		cmp	r3, #0
 6261 340a 40F0A681 		bne	.L512
 6262 340e 3B6C     		ldr	r3, [r7, #64]
 6263 3410 002B     		cmp	r3, #0
 6264 3412 0ED0     		beq	.L452
 6265 3414 6B48     		ldr	r0, .L563
 6266 3416 FFF7FEFF 		bl	strlen
 6267 341a 0346     		mov	r3, r0
 6268 341c 1946     		mov	r1, r3
 6269 341e 6948     		ldr	r0, .L563
 6270 3420 FFF7FEFF 		bl	e_send_uart1_char
 6271 3424 00BF     		nop
 6272              	.L453:
 6273 3426 FFF7FEFF 		bl	e_uart1_sending
 6274 342a 0346     		mov	r3, r0
 6275 342c 002B     		cmp	r3, #0
 6276 342e FAD1     		bne	.L453
 6277 3430 93E1     		b	.L512
 6278              	.L452:
 6279 3432 6448     		ldr	r0, .L563
 6280 3434 FFF7FEFF 		bl	strlen
 6281 3438 0346     		mov	r3, r0
 6282 343a 1946     		mov	r1, r3
 6283 343c 6148     		ldr	r0, .L563
 6284 343e FFF7FEFF 		bl	e_send_uart2_char
 6285 3442 00BF     		nop
 6286              	.L454:
 6287 3444 FFF7FEFF 		bl	e_uart2_sending
 6288 3448 0346     		mov	r3, r0
 6289 344a 002B     		cmp	r3, #0
 6290 344c FAD1     		bne	.L454
 6291 344e 84E1     		b	.L512
 6292              	.L260:
 6293 3450 97F83F30 		ldrb	r3, [r7, #63]	@ zero_extendqisi2
ARM GAS  /var/folders/d2/nstgp4h54kz7g1l847x_b8wc0000gn/T//ccVbBKId.s 			page 117


 6294 3454 002B     		cmp	r3, #0
 6295 3456 40F08381 		bne	.L513
 6296 345a 604B     		ldr	r3, .L563+24
 6297 345c 0093     		str	r3, [sp]
 6298 345e 604B     		ldr	r3, .L563+28
 6299 3460 604A     		ldr	r2, .L563+32
 6300 3462 6149     		ldr	r1, .L563+36
 6301 3464 5748     		ldr	r0, .L563
 6302 3466 FFF7FEFF 		bl	sscanf
 6303 346a FFF7FEFF 		bl	e_i2cp_enable
 6304 346e 5D4B     		ldr	r3, .L563+32
 6305 3470 1B68     		ldr	r3, [r3]
 6306 3472 D8B2     		uxtb	r0, r3
 6307 3474 5A4B     		ldr	r3, .L563+28
 6308 3476 1B68     		ldr	r3, [r3]
 6309 3478 D9B2     		uxtb	r1, r3
 6310 347a 584B     		ldr	r3, .L563+24
 6311 347c 1B68     		ldr	r3, [r3]
 6312 347e DBB2     		uxtb	r3, r3
 6313 3480 1A46     		mov	r2, r3
 6314 3482 FFF7FEFF 		bl	e_i2cp_write
 6315 3486 FFF7FEFF 		bl	e_i2cp_disable
 6316 348a 3B6C     		ldr	r3, [r7, #64]
 6317 348c 002B     		cmp	r3, #0
 6318 348e 0AD0     		beq	.L456
 6319 3490 0321     		movs	r1, #3
 6320 3492 5648     		ldr	r0, .L563+40
 6321 3494 FFF7FEFF 		bl	e_send_uart1_char
 6322 3498 00BF     		nop
 6323              	.L457:
 6324 349a FFF7FEFF 		bl	e_uart1_sending
 6325 349e 0346     		mov	r3, r0
 6326 34a0 002B     		cmp	r3, #0
 6327 34a2 FAD1     		bne	.L457
 6328 34a4 5CE1     		b	.L513
 6329              	.L456:
 6330 34a6 0321     		movs	r1, #3
 6331 34a8 5048     		ldr	r0, .L563+40
 6332 34aa FFF7FEFF 		bl	e_send_uart2_char
 6333 34ae 00BF     		nop
 6334              	.L458:
 6335 34b0 FFF7FEFF 		bl	e_uart2_sending
 6336 34b4 0346     		mov	r3, r0
 6337 34b6 002B     		cmp	r3, #0
 6338 34b8 FAD1     		bne	.L458
 6339 34ba 51E1     		b	.L513
 6340              	.L261:
 6341 34bc 97F83F30 		ldrb	r3, [r7, #63]	@ zero_extendqisi2
 6342 34c0 002B     		cmp	r3, #0
 6343 34c2 40F05081 		bne	.L514
 6344 34c6 464B     		ldr	r3, .L563+28
 6345 34c8 464A     		ldr	r2, .L563+32
 6346 34ca 4949     		ldr	r1, .L563+44
 6347 34cc 3D48     		ldr	r0, .L563
 6348 34ce FFF7FEFF 		bl	sscanf
 6349 34d2 444B     		ldr	r3, .L563+32
 6350 34d4 1A68     		ldr	r2, [r3]
ARM GAS  /var/folders/d2/nstgp4h54kz7g1l847x_b8wc0000gn/T//ccVbBKId.s 			page 118


 6351 34d6 424B     		ldr	r3, .L563+28
 6352 34d8 1B68     		ldr	r3, [r3]
 6353 34da 4649     		ldr	r1, .L563+48
 6354 34dc 3948     		ldr	r0, .L563
 6355 34de FFF7FEFF 		bl	sprintf
 6356 34e2 3B6C     		ldr	r3, [r7, #64]
 6357 34e4 002B     		cmp	r3, #0
 6358 34e6 0ED0     		beq	.L460
 6359 34e8 3648     		ldr	r0, .L563
 6360 34ea FFF7FEFF 		bl	strlen
 6361 34ee 0346     		mov	r3, r0
 6362 34f0 1946     		mov	r1, r3
 6363 34f2 3448     		ldr	r0, .L563
 6364 34f4 FFF7FEFF 		bl	e_send_uart1_char
 6365 34f8 00BF     		nop
 6366              	.L461:
 6367 34fa FFF7FEFF 		bl	e_uart1_sending
 6368 34fe 0346     		mov	r3, r0
 6369 3500 002B     		cmp	r3, #0
 6370 3502 FAD1     		bne	.L461
 6371 3504 0DE0     		b	.L462
 6372              	.L460:
 6373 3506 2F48     		ldr	r0, .L563
 6374 3508 FFF7FEFF 		bl	strlen
 6375 350c 0346     		mov	r3, r0
 6376 350e 1946     		mov	r1, r3
 6377 3510 2C48     		ldr	r0, .L563
 6378 3512 FFF7FEFF 		bl	e_send_uart2_char
 6379 3516 00BF     		nop
 6380              	.L463:
 6381 3518 FFF7FEFF 		bl	e_uart2_sending
 6382 351c 0346     		mov	r3, r0
 6383 351e 002B     		cmp	r3, #0
 6384 3520 FAD1     		bne	.L463
 6385              	.L462:
 6386 3522 FFF7FEFF 		bl	e_i2cp_enable
 6387 3526 2F4B     		ldr	r3, .L563+32
 6388 3528 1B68     		ldr	r3, [r3]
 6389 352a DAB2     		uxtb	r2, r3
 6390 352c 2C4B     		ldr	r3, .L563+28
 6391 352e 1B68     		ldr	r3, [r3]
 6392 3530 DBB2     		uxtb	r3, r3
 6393 3532 1946     		mov	r1, r3
 6394 3534 1046     		mov	r0, r2
 6395 3536 FFF7FEFF 		bl	e_i2cp_read
 6396 353a 0346     		mov	r3, r0
 6397 353c 1A46     		mov	r2, r3
 6398 353e 274B     		ldr	r3, .L563+24
 6399 3540 1A60     		str	r2, [r3]
 6400 3542 FFF7FEFF 		bl	e_i2cp_disable
 6401 3546 254B     		ldr	r3, .L563+24
 6402 3548 1B68     		ldr	r3, [r3]
 6403 354a 1A46     		mov	r2, r3
 6404 354c 2A49     		ldr	r1, .L563+52
 6405 354e 1D48     		ldr	r0, .L563
 6406 3550 FFF7FEFF 		bl	sprintf
 6407 3554 1B48     		ldr	r0, .L563
ARM GAS  /var/folders/d2/nstgp4h54kz7g1l847x_b8wc0000gn/T//ccVbBKId.s 			page 119


 6408 3556 FFF7FEFF 		bl	strlen
 6409 355a 0346     		mov	r3, r0
 6410 355c 1946     		mov	r1, r3
 6411 355e 1948     		ldr	r0, .L563
 6412 3560 FFF7FEFF 		bl	e_send_uart1_char
 6413 3564 00BF     		nop
 6414              	.L464:
 6415 3566 FFF7FEFF 		bl	e_uart1_sending
 6416 356a 0346     		mov	r3, r0
 6417 356c 002B     		cmp	r3, #0
 6418 356e FAD1     		bne	.L464
 6419 3570 3B6C     		ldr	r3, [r7, #64]
 6420 3572 002B     		cmp	r3, #0
 6421 3574 0ED0     		beq	.L465
 6422 3576 1348     		ldr	r0, .L563
 6423 3578 FFF7FEFF 		bl	strlen
 6424 357c 0346     		mov	r3, r0
 6425 357e 1946     		mov	r1, r3
 6426 3580 1048     		ldr	r0, .L563
 6427 3582 FFF7FEFF 		bl	e_send_uart1_char
 6428 3586 00BF     		nop
 6429              	.L466:
 6430 3588 FFF7FEFF 		bl	e_uart1_sending
 6431 358c 0346     		mov	r3, r0
 6432 358e 002B     		cmp	r3, #0
 6433 3590 FAD1     		bne	.L466
 6434 3592 E8E0     		b	.L514
 6435              	.L465:
 6436 3594 0B48     		ldr	r0, .L563
 6437 3596 FFF7FEFF 		bl	strlen
 6438 359a 0346     		mov	r3, r0
 6439 359c 1946     		mov	r1, r3
 6440 359e 0948     		ldr	r0, .L563
 6441 35a0 FFF7FEFF 		bl	e_send_uart2_char
 6442 35a4 00BF     		nop
 6443              	.L467:
 6444 35a6 FFF7FEFF 		bl	e_uart2_sending
 6445 35aa 0346     		mov	r3, r0
 6446 35ac 002B     		cmp	r3, #0
 6447 35ae FAD1     		bne	.L467
 6448 35b0 D9E0     		b	.L514
 6449              	.L262:
 6450 35b2 97F83F30 		ldrb	r3, [r7, #63]	@ zero_extendqisi2
 6451 35b6 002B     		cmp	r3, #0
 6452 35b8 40F0D880 		bne	.L515
 6453 35bc 0F4B     		ldr	r3, .L563+56
 6454 35be 0222     		movs	r2, #2
 6455 35c0 1A60     		str	r2, [r3]
 6456 35c2 5DE0     		b	.L469
 6457              	.L564:
 6458              		.align	2
 6459              	.L563:
 6460 35c4 00000000 		.word	buffer
 6461 35c8 D80A0000 		.word	.LC87
 6462 35cc E00A0000 		.word	.LC88
 6463 35d0 F00A0000 		.word	.LC89
 6464 35d4 00000000 		.word	HWversion.13472
ARM GAS  /var/folders/d2/nstgp4h54kz7g1l847x_b8wc0000gn/T//ccVbBKId.s 			page 120


 6465 35d8 180B0000 		.word	.LC90
 6466 35dc 00000000 		.word	val.13460
 6467 35e0 00000000 		.word	reg.13459
 6468 35e4 00000000 		.word	mod.13458
 6469 35e8 2C0B0000 		.word	.LC91
 6470 35ec 380B0000 		.word	.LC92
 6471 35f0 3C0B0000 		.word	.LC93
 6472 35f4 480B0000 		.word	.LC94
 6473 35f8 540B0000 		.word	.LC95
 6474 35fc 00000000 		.word	j.13433
 6475              	.L474:
 6476 3600 FFF7FEFF 		bl	e_i2cp_enable
 6477 3604 5C4B     		ldr	r3, .L565
 6478 3606 1B68     		ldr	r3, [r3]
 6479 3608 DBB2     		uxtb	r3, r3
 6480 360a 0021     		movs	r1, #0
 6481 360c 1846     		mov	r0, r3
 6482 360e FFF7FEFF 		bl	e_i2cp_read
 6483 3612 0346     		mov	r3, r0
 6484 3614 1A46     		mov	r2, r3
 6485 3616 594B     		ldr	r3, .L565+4
 6486 3618 1A60     		str	r2, [r3]
 6487 361a FFF7FEFF 		bl	e_i2cp_disable
 6488 361e 574B     		ldr	r3, .L565+4
 6489 3620 1B68     		ldr	r3, [r3]
 6490 3622 002B     		cmp	r3, #0
 6491 3624 27DB     		blt	.L470
 6492 3626 544B     		ldr	r3, .L565
 6493 3628 1A68     		ldr	r2, [r3]
 6494 362a 544B     		ldr	r3, .L565+4
 6495 362c 1B68     		ldr	r3, [r3]
 6496 362e 5449     		ldr	r1, .L565+8
 6497 3630 5448     		ldr	r0, .L565+12
 6498 3632 FFF7FEFF 		bl	sprintf
 6499 3636 3B6C     		ldr	r3, [r7, #64]
 6500 3638 002B     		cmp	r3, #0
 6501 363a 0ED0     		beq	.L471
 6502 363c 5148     		ldr	r0, .L565+12
 6503 363e FFF7FEFF 		bl	strlen
 6504 3642 0346     		mov	r3, r0
 6505 3644 1946     		mov	r1, r3
 6506 3646 4F48     		ldr	r0, .L565+12
 6507 3648 FFF7FEFF 		bl	e_send_uart1_char
 6508 364c 00BF     		nop
 6509              	.L472:
 6510 364e FFF7FEFF 		bl	e_uart1_sending
 6511 3652 0346     		mov	r3, r0
 6512 3654 002B     		cmp	r3, #0
 6513 3656 FAD1     		bne	.L472
 6514 3658 0DE0     		b	.L470
 6515              	.L471:
 6516 365a 4A48     		ldr	r0, .L565+12
 6517 365c FFF7FEFF 		bl	strlen
 6518 3660 0346     		mov	r3, r0
 6519 3662 1946     		mov	r1, r3
 6520 3664 4748     		ldr	r0, .L565+12
 6521 3666 FFF7FEFF 		bl	e_send_uart2_char
ARM GAS  /var/folders/d2/nstgp4h54kz7g1l847x_b8wc0000gn/T//ccVbBKId.s 			page 121


 6522 366a 00BF     		nop
 6523              	.L473:
 6524 366c FFF7FEFF 		bl	e_uart2_sending
 6525 3670 0346     		mov	r3, r0
 6526 3672 002B     		cmp	r3, #0
 6527 3674 FAD1     		bne	.L473
 6528              	.L470:
 6529 3676 404B     		ldr	r3, .L565
 6530 3678 1B68     		ldr	r3, [r3]
 6531 367a 0233     		adds	r3, r3, #2
 6532 367c 3E4A     		ldr	r2, .L565
 6533 367e 1360     		str	r3, [r2]
 6534              	.L469:
 6535 3680 3D4B     		ldr	r3, .L565
 6536 3682 1B68     		ldr	r3, [r3]
 6537 3684 FE2B     		cmp	r3, #254
 6538 3686 BBDD     		ble	.L474
 6539 3688 70E0     		b	.L515
 6540              	.L236:
 6541 368a 97F83F30 		ldrb	r3, [r7, #63]	@ zero_extendqisi2
 6542 368e 002B     		cmp	r3, #0
 6543 3690 6FD1     		bne	.L516
 6544 3692 3B6C     		ldr	r3, [r7, #64]
 6545 3694 002B     		cmp	r3, #0
 6546 3696 0AD0     		beq	.L476
 6547 3698 1521     		movs	r1, #21
 6548 369a 3B48     		ldr	r0, .L565+16
 6549 369c FFF7FEFF 		bl	e_send_uart1_char
 6550 36a0 00BF     		nop
 6551              	.L477:
 6552 36a2 FFF7FEFF 		bl	e_uart1_sending
 6553 36a6 0346     		mov	r3, r0
 6554 36a8 002B     		cmp	r3, #0
 6555 36aa FAD1     		bne	.L477
 6556 36ac 61E0     		b	.L516
 6557              	.L476:
 6558 36ae 1521     		movs	r1, #21
 6559 36b0 3548     		ldr	r0, .L565+16
 6560 36b2 FFF7FEFF 		bl	e_send_uart2_char
 6561 36b6 00BF     		nop
 6562              	.L478:
 6563 36b8 FFF7FEFF 		bl	e_uart2_sending
 6564 36bc 0346     		mov	r3, r0
 6565 36be 002B     		cmp	r3, #0
 6566 36c0 FAD1     		bne	.L478
 6567 36c2 56E0     		b	.L516
 6568              	.L487:
 6569 36c4 00BF     		nop
 6570 36c6 FCF764BD 		b	.L479
 6571              	.L488:
 6572 36ca 00BF     		nop
 6573 36cc FCF761BD 		b	.L479
 6574              	.L489:
 6575 36d0 00BF     		nop
 6576 36d2 FCF75EBD 		b	.L479
 6577              	.L490:
 6578 36d6 00BF     		nop
ARM GAS  /var/folders/d2/nstgp4h54kz7g1l847x_b8wc0000gn/T//ccVbBKId.s 			page 122


 6579 36d8 FCF75BBD 		b	.L479
 6580              	.L491:
 6581 36dc 00BF     		nop
 6582 36de FCF758BD 		b	.L479
 6583              	.L492:
 6584 36e2 00BF     		nop
 6585 36e4 FCF755BD 		b	.L479
 6586              	.L493:
 6587 36e8 00BF     		nop
 6588 36ea FCF752BD 		b	.L479
 6589              	.L494:
 6590 36ee 00BF     		nop
 6591 36f0 FCF74FBD 		b	.L479
 6592              	.L495:
 6593 36f4 00BF     		nop
 6594 36f6 FCF74CBD 		b	.L479
 6595              	.L496:
 6596 36fa 00BF     		nop
 6597 36fc FCF749BD 		b	.L479
 6598              	.L497:
 6599 3700 00BF     		nop
 6600 3702 FCF746BD 		b	.L479
 6601              	.L498:
 6602 3706 00BF     		nop
 6603 3708 FCF743BD 		b	.L479
 6604              	.L499:
 6605 370c 00BF     		nop
 6606 370e FCF740BD 		b	.L479
 6607              	.L500:
 6608 3712 00BF     		nop
 6609 3714 FCF73DBD 		b	.L479
 6610              	.L501:
 6611 3718 00BF     		nop
 6612 371a FCF73ABD 		b	.L479
 6613              	.L502:
 6614 371e 00BF     		nop
 6615 3720 FCF737BD 		b	.L479
 6616              	.L503:
 6617 3724 00BF     		nop
 6618 3726 FCF734BD 		b	.L479
 6619              	.L504:
 6620 372a 00BF     		nop
 6621 372c FCF731BD 		b	.L479
 6622              	.L505:
 6623 3730 00BF     		nop
 6624 3732 FCF72EBD 		b	.L479
 6625              	.L506:
 6626 3736 00BF     		nop
 6627 3738 FCF72BBD 		b	.L479
 6628              	.L507:
 6629 373c 00BF     		nop
 6630 373e FCF728BD 		b	.L479
 6631              	.L508:
 6632 3742 00BF     		nop
 6633 3744 FCF725BD 		b	.L479
 6634              	.L509:
 6635 3748 00BF     		nop
ARM GAS  /var/folders/d2/nstgp4h54kz7g1l847x_b8wc0000gn/T//ccVbBKId.s 			page 123


 6636 374a FCF722BD 		b	.L479
 6637              	.L510:
 6638 374e 00BF     		nop
 6639 3750 FCF71FBD 		b	.L479
 6640              	.L511:
 6641 3754 00BF     		nop
 6642 3756 FCF71CBD 		b	.L479
 6643              	.L512:
 6644 375a 00BF     		nop
 6645 375c FCF719BD 		b	.L479
 6646              	.L513:
 6647 3760 00BF     		nop
 6648 3762 FCF716BD 		b	.L479
 6649              	.L514:
 6650 3766 00BF     		nop
 6651 3768 FCF713BD 		b	.L479
 6652              	.L515:
 6653 376c 00BF     		nop
 6654 376e FCF710BD 		b	.L479
 6655              	.L516:
 6656 3772 00BF     		nop
 6657 3774 FCF70DBD 		b	.L479
 6658              	.L566:
 6659              		.align	2
 6660              	.L565:
 6661 3778 00000000 		.word	j.13433
 6662 377c 00000000 		.word	val.13460
 6663 3780 5C0B0000 		.word	.LC96
 6664 3784 00000000 		.word	buffer
 6665 3788 680B0000 		.word	.LC97
 6666              		.size	run_asercom2, .-run_asercom2
 6667              		.section	.data.HWversion.13472,"aw",%progbits
 6668              		.align	2
 6669              		.type	HWversion.13472, %object
 6670              		.size	HWversion.13472, 4
 6671              	HWversion.13472:
 6672 0000 FFFF0000 		.word	65535
 6673              		.section	.bss.cam_mode.13448,"aw",%nobits
 6674              		.align	2
 6675              		.type	cam_mode.13448, %object
 6676              		.size	cam_mode.13448, 4
 6677              	cam_mode.13448:
 6678 0000 00000000 		.space	4
 6679              		.section	.bss.cam_width.13449,"aw",%nobits
 6680              		.align	2
 6681              		.type	cam_width.13449, %object
 6682              		.size	cam_width.13449, 4
 6683              	cam_width.13449:
 6684 0000 00000000 		.space	4
 6685              		.section	.bss.cam_heigth.13450,"aw",%nobits
 6686              		.align	2
 6687              		.type	cam_heigth.13450, %object
 6688              		.size	cam_heigth.13450, 4
 6689              	cam_heigth.13450:
 6690 0000 00000000 		.space	4
 6691              		.section	.bss.cam_zoom.13451,"aw",%nobits
 6692              		.align	2
ARM GAS  /var/folders/d2/nstgp4h54kz7g1l847x_b8wc0000gn/T//ccVbBKId.s 			page 124


 6693              		.type	cam_zoom.13451, %object
 6694              		.size	cam_zoom.13451, 4
 6695              	cam_zoom.13451:
 6696 0000 00000000 		.space	4
 6697              		.section	.bss.cam_size.13452,"aw",%nobits
 6698              		.align	2
 6699              		.type	cam_size.13452, %object
 6700              		.size	cam_size.13452, 4
 6701              	cam_size.13452:
 6702 0000 00000000 		.space	4
 6703              		.section	.bss.speedr.13435,"aw",%nobits
 6704              		.align	2
 6705              		.type	speedr.13435, %object
 6706              		.size	speedr.13435, 4
 6707              	speedr.13435:
 6708 0000 00000000 		.space	4
 6709              		.section	.bss.speedl.13436,"aw",%nobits
 6710              		.align	2
 6711              		.type	speedl.13436, %object
 6712              		.size	speedl.13436, 4
 6713              	speedl.13436:
 6714 0000 00000000 		.space	4
 6715              		.section	.bss.first.13455,"aw",%nobits
 6716              		.type	first.13455, %object
 6717              		.size	first.13455, 1
 6718              	first.13455:
 6719 0000 00       		.space	1
 6720              		.section	.bss.i.13432,"aw",%nobits
 6721              		.align	2
 6722              		.type	i.13432, %object
 6723              		.size	i.13432, 4
 6724              	i.13432:
 6725 0000 00000000 		.space	4
 6726              		.section	.bss.accx.13441,"aw",%nobits
 6727              		.align	2
 6728              		.type	accx.13441, %object
 6729              		.size	accx.13441, 4
 6730              	accx.13441:
 6731 0000 00000000 		.space	4
 6732              		.section	.bss.accy.13442,"aw",%nobits
 6733              		.align	2
 6734              		.type	accy.13442, %object
 6735              		.size	accy.13442, 4
 6736              	accy.13442:
 6737 0000 00000000 		.space	4
 6738              		.section	.bss.accz.13443,"aw",%nobits
 6739              		.align	2
 6740              		.type	accz.13443, %object
 6741              		.size	accz.13443, 4
 6742              	accz.13443:
 6743 0000 00000000 		.space	4
 6744              		.section	.bss.accelero.13464,"aw",%nobits
 6745              		.align	2
 6746              		.type	accelero.13464, %object
 6747              		.size	accelero.13464, 12
 6748              	accelero.13464:
 6749 0000 00000000 		.space	12
ARM GAS  /var/folders/d2/nstgp4h54kz7g1l847x_b8wc0000gn/T//ccVbBKId.s 			page 125


 6749      00000000 
 6749      00000000 
 6750              		.section	.bss.gyrox.13445,"aw",%nobits
 6751              		.align	2
 6752              		.type	gyrox.13445, %object
 6753              		.size	gyrox.13445, 4
 6754              	gyrox.13445:
 6755 0000 00000000 		.space	4
 6756              		.section	.bss.gyroy.13446,"aw",%nobits
 6757              		.align	2
 6758              		.type	gyroy.13446, %object
 6759              		.size	gyroy.13446, 4
 6760              	gyroy.13446:
 6761 0000 00000000 		.space	4
 6762              		.section	.bss.gyroz.13447,"aw",%nobits
 6763              		.align	2
 6764              		.type	gyroz.13447, %object
 6765              		.size	gyroz.13447, 4
 6766              	gyroz.13447:
 6767 0000 00000000 		.space	4
 6768              		.section	.bss.j.13433,"aw",%nobits
 6769              		.align	2
 6770              		.type	j.13433, %object
 6771              		.size	j.13433, 4
 6772              	j.13433:
 6773 0000 00000000 		.space	4
 6774              		.section	.bss.n.13434,"aw",%nobits
 6775              		.align	2
 6776              		.type	n.13434, %object
 6777              		.size	n.13434, 4
 6778              	n.13434:
 6779 0000 00000000 		.space	4
 6780              		.section	.bss.rgb_value.13456,"aw",%nobits
 6781              		.align	2
 6782              		.type	rgb_value.13456, %object
 6783              		.size	rgb_value.13456, 12
 6784              	rgb_value.13456:
 6785 0000 00000000 		.space	12
 6785      00000000 
 6785      00000000 
 6786              		.section	.bss.c1.13429,"aw",%nobits
 6787              		.type	c1.13429, %object
 6788              		.size	c1.13429, 1
 6789              	c1.13429:
 6790 0000 00       		.space	1
 6791              		.section	.bss.c2.13430,"aw",%nobits
 6792              		.type	c2.13430, %object
 6793              		.size	c2.13430, 1
 6794              	c2.13430:
 6795 0000 00       		.space	1
 6796              		.section	.bss.wait_cam.13431,"aw",%nobits
 6797              		.type	wait_cam.13431, %object
 6798              		.size	wait_cam.13431, 1
 6799              	wait_cam.13431:
 6800 0000 00       		.space	1
 6801              		.section	.bss.positionl.13438,"aw",%nobits
 6802              		.align	2
ARM GAS  /var/folders/d2/nstgp4h54kz7g1l847x_b8wc0000gn/T//ccVbBKId.s 			page 126


 6803              		.type	positionl.13438, %object
 6804              		.size	positionl.13438, 4
 6805              	positionl.13438:
 6806 0000 00000000 		.space	4
 6807              		.section	.bss.positionr.13437,"aw",%nobits
 6808              		.align	2
 6809              		.type	positionr.13437, %object
 6810              		.size	positionr.13437, 4
 6811              	positionr.13437:
 6812 0000 00000000 		.space	4
 6813              		.section	.bss.mod.13458,"aw",%nobits
 6814              		.align	2
 6815              		.type	mod.13458, %object
 6816              		.size	mod.13458, 4
 6817              	mod.13458:
 6818 0000 00000000 		.space	4
 6819              		.section	.bss.reg.13459,"aw",%nobits
 6820              		.align	2
 6821              		.type	reg.13459, %object
 6822              		.size	reg.13459, 4
 6823              	reg.13459:
 6824 0000 00000000 		.space	4
 6825              		.section	.bss.val.13460,"aw",%nobits
 6826              		.align	2
 6827              		.type	val.13460, %object
 6828              		.size	val.13460, 4
 6829              	val.13460:
 6830 0000 00000000 		.space	4
 6831              		.section	.bss.LED_action.13440,"aw",%nobits
 6832              		.align	2
 6833              		.type	LED_action.13440, %object
 6834              		.size	LED_action.13440, 4
 6835              	LED_action.13440:
 6836 0000 00000000 		.space	4
 6837              		.section	.bss.cam_x1.13453,"aw",%nobits
 6838              		.align	2
 6839              		.type	cam_x1.13453, %object
 6840              		.size	cam_x1.13453, 4
 6841              	cam_x1.13453:
 6842 0000 00000000 		.space	4
 6843              		.section	.bss.cam_y1.13454,"aw",%nobits
 6844              		.align	2
 6845              		.type	cam_y1.13454, %object
 6846              		.size	cam_y1.13454, 4
 6847              	cam_y1.13454:
 6848 0000 00000000 		.space	4
 6849              		.section	.bss.LED_nbr.13439,"aw",%nobits
 6850              		.align	2
 6851              		.type	LED_nbr.13439, %object
 6852              		.size	LED_nbr.13439, 4
 6853              	LED_nbr.13439:
 6854 0000 00000000 		.space	4
 6855              		.section	.bss.sound.13444,"aw",%nobits
 6856              		.align	2
 6857              		.type	sound.13444, %object
 6858              		.size	sound.13444, 4
 6859              	sound.13444:
ARM GAS  /var/folders/d2/nstgp4h54kz7g1l847x_b8wc0000gn/T//ccVbBKId.s 			page 127


 6860 0000 00000000 		.space	4
 6861              		.ident	"GCC: (GNU Tools for Arm Embedded Processors 7-2017-q4-major) 7.2.1 20170904 (release) [ARM
ARM GAS  /var/folders/d2/nstgp4h54kz7g1l847x_b8wc0000gn/T//ccVbBKId.s 			page 128


DEFINED SYMBOLS
                            *ABS*:0000000000000000 Asercom2.c
/var/folders/d2/nstgp4h54kz7g1l847x_b8wc0000gn/T//ccVbBKId.s:15     .rodata:0000000000000000 $d
/var/folders/d2/nstgp4h54kz7g1l847x_b8wc0000gn/T//ccVbBKId.s:333    .text.run_asercom2:0000000000000000 $t
/var/folders/d2/nstgp4h54kz7g1l847x_b8wc0000gn/T//ccVbBKId.s:340    .text.run_asercom2:0000000000000000 run_asercom2
/var/folders/d2/nstgp4h54kz7g1l847x_b8wc0000gn/T//ccVbBKId.s:552    .text.run_asercom2:00000000000001e8 $d
/var/folders/d2/nstgp4h54kz7g1l847x_b8wc0000gn/T//ccVbBKId.s:562    .text.run_asercom2:0000000000000210 $t
/var/folders/d2/nstgp4h54kz7g1l847x_b8wc0000gn/T//ccVbBKId.s:678    .text.run_asercom2:00000000000002f8 $d
/var/folders/d2/nstgp4h54kz7g1l847x_b8wc0000gn/T//ccVbBKId.s:6671   .data.HWversion.13472:0000000000000000 HWversion.13472
/var/folders/d2/nstgp4h54kz7g1l847x_b8wc0000gn/T//ccVbBKId.s:6677   .bss.cam_mode.13448:0000000000000000 cam_mode.13448
/var/folders/d2/nstgp4h54kz7g1l847x_b8wc0000gn/T//ccVbBKId.s:6683   .bss.cam_width.13449:0000000000000000 cam_width.13449
/var/folders/d2/nstgp4h54kz7g1l847x_b8wc0000gn/T//ccVbBKId.s:6689   .bss.cam_heigth.13450:0000000000000000 cam_heigth.13450
/var/folders/d2/nstgp4h54kz7g1l847x_b8wc0000gn/T//ccVbBKId.s:6695   .bss.cam_zoom.13451:0000000000000000 cam_zoom.13451
/var/folders/d2/nstgp4h54kz7g1l847x_b8wc0000gn/T//ccVbBKId.s:6701   .bss.cam_size.13452:0000000000000000 cam_size.13452
/var/folders/d2/nstgp4h54kz7g1l847x_b8wc0000gn/T//ccVbBKId.s:6707   .bss.speedr.13435:0000000000000000 speedr.13435
/var/folders/d2/nstgp4h54kz7g1l847x_b8wc0000gn/T//ccVbBKId.s:6713   .bss.speedl.13436:0000000000000000 speedl.13436
/var/folders/d2/nstgp4h54kz7g1l847x_b8wc0000gn/T//ccVbBKId.s:6718   .bss.first.13455:0000000000000000 first.13455
/var/folders/d2/nstgp4h54kz7g1l847x_b8wc0000gn/T//ccVbBKId.s:693    .text.run_asercom2:0000000000000330 $t
/var/folders/d2/nstgp4h54kz7g1l847x_b8wc0000gn/T//ccVbBKId.s:717    .text.run_asercom2:0000000000000374 $d
/var/folders/d2/nstgp4h54kz7g1l847x_b8wc0000gn/T//ccVbBKId.s:727    .text.run_asercom2:000000000000039c $t
/var/folders/d2/nstgp4h54kz7g1l847x_b8wc0000gn/T//ccVbBKId.s:861    .text.run_asercom2:00000000000004ac $d
/var/folders/d2/nstgp4h54kz7g1l847x_b8wc0000gn/T//ccVbBKId.s:973    .text.run_asercom2:000000000000066c $t
/var/folders/d2/nstgp4h54kz7g1l847x_b8wc0000gn/T//ccVbBKId.s:997    .text.run_asercom2:000000000000069c $d
/var/folders/d2/nstgp4h54kz7g1l847x_b8wc0000gn/T//ccVbBKId.s:6724   .bss.i.13432:0000000000000000 i.13432
/var/folders/d2/nstgp4h54kz7g1l847x_b8wc0000gn/T//ccVbBKId.s:6730   .bss.accx.13441:0000000000000000 accx.13441
/var/folders/d2/nstgp4h54kz7g1l847x_b8wc0000gn/T//ccVbBKId.s:6736   .bss.accy.13442:0000000000000000 accy.13442
/var/folders/d2/nstgp4h54kz7g1l847x_b8wc0000gn/T//ccVbBKId.s:6742   .bss.accz.13443:0000000000000000 accz.13443
/var/folders/d2/nstgp4h54kz7g1l847x_b8wc0000gn/T//ccVbBKId.s:1008   .text.run_asercom2:00000000000006c4 $t
/var/folders/d2/nstgp4h54kz7g1l847x_b8wc0000gn/T//ccVbBKId.s:1096   .text.run_asercom2:000000000000077c $d
/var/folders/d2/nstgp4h54kz7g1l847x_b8wc0000gn/T//ccVbBKId.s:6748   .bss.accelero.13464:0000000000000000 accelero.13464
/var/folders/d2/nstgp4h54kz7g1l847x_b8wc0000gn/T//ccVbBKId.s:1103   .text.run_asercom2:0000000000000794 $t
/var/folders/d2/nstgp4h54kz7g1l847x_b8wc0000gn/T//ccVbBKId.s:1382   .text.run_asercom2:00000000000009c0 $d
/var/folders/d2/nstgp4h54kz7g1l847x_b8wc0000gn/T//ccVbBKId.s:6766   .bss.gyroz.13447:0000000000000000 gyroz.13447
/var/folders/d2/nstgp4h54kz7g1l847x_b8wc0000gn/T//ccVbBKId.s:6760   .bss.gyroy.13446:0000000000000000 gyroy.13446
/var/folders/d2/nstgp4h54kz7g1l847x_b8wc0000gn/T//ccVbBKId.s:6754   .bss.gyrox.13445:0000000000000000 gyrox.13445
/var/folders/d2/nstgp4h54kz7g1l847x_b8wc0000gn/T//ccVbBKId.s:6772   .bss.j.13433:0000000000000000 j.13433
/var/folders/d2/nstgp4h54kz7g1l847x_b8wc0000gn/T//ccVbBKId.s:1392   .text.run_asercom2:00000000000009e4 $t
/var/folders/d2/nstgp4h54kz7g1l847x_b8wc0000gn/T//ccVbBKId.s:1595   .text.run_asercom2:0000000000000b7c $d
/var/folders/d2/nstgp4h54kz7g1l847x_b8wc0000gn/T//ccVbBKId.s:6778   .bss.n.13434:0000000000000000 n.13434
/var/folders/d2/nstgp4h54kz7g1l847x_b8wc0000gn/T//ccVbBKId.s:1600   .text.run_asercom2:0000000000000b8c $t
/var/folders/d2/nstgp4h54kz7g1l847x_b8wc0000gn/T//ccVbBKId.s:1900   .text.run_asercom2:0000000000000dfc $d
/var/folders/d2/nstgp4h54kz7g1l847x_b8wc0000gn/T//ccVbBKId.s:1908   .text.run_asercom2:0000000000000e18 $t
/var/folders/d2/nstgp4h54kz7g1l847x_b8wc0000gn/T//ccVbBKId.s:2235   .text.run_asercom2:00000000000010dc $d
/var/folders/d2/nstgp4h54kz7g1l847x_b8wc0000gn/T//ccVbBKId.s:2244   .text.run_asercom2:00000000000010fc $t
/var/folders/d2/nstgp4h54kz7g1l847x_b8wc0000gn/T//ccVbBKId.s:2548   .text.run_asercom2:0000000000001378 $d
/var/folders/d2/nstgp4h54kz7g1l847x_b8wc0000gn/T//ccVbBKId.s:6784   .bss.rgb_value.13456:0000000000000000 rgb_value.13456
/var/folders/d2/nstgp4h54kz7g1l847x_b8wc0000gn/T//ccVbBKId.s:2557   .text.run_asercom2:0000000000001398 $t
/var/folders/d2/nstgp4h54kz7g1l847x_b8wc0000gn/T//ccVbBKId.s:2845   .text.run_asercom2:00000000000015e8 $d
/var/folders/d2/nstgp4h54kz7g1l847x_b8wc0000gn/T//ccVbBKId.s:6789   .bss.c1.13429:0000000000000000 c1.13429
/var/folders/d2/nstgp4h54kz7g1l847x_b8wc0000gn/T//ccVbBKId.s:6794   .bss.c2.13430:0000000000000000 c2.13430
/var/folders/d2/nstgp4h54kz7g1l847x_b8wc0000gn/T//ccVbBKId.s:2856   .text.run_asercom2:0000000000001610 $t
/var/folders/d2/nstgp4h54kz7g1l847x_b8wc0000gn/T//ccVbBKId.s:3161   .text.run_asercom2:0000000000001870 $d
/var/folders/d2/nstgp4h54kz7g1l847x_b8wc0000gn/T//ccVbBKId.s:6799   .bss.wait_cam.13431:0000000000000000 wait_cam.13431
/var/folders/d2/nstgp4h54kz7g1l847x_b8wc0000gn/T//ccVbBKId.s:3176   .text.run_asercom2:00000000000018a8 $t
/var/folders/d2/nstgp4h54kz7g1l847x_b8wc0000gn/T//ccVbBKId.s:3497   .text.run_asercom2:0000000000001b14 $d
/var/folders/d2/nstgp4h54kz7g1l847x_b8wc0000gn/T//ccVbBKId.s:6805   .bss.positionl.13438:0000000000000000 positionl.13438
/var/folders/d2/nstgp4h54kz7g1l847x_b8wc0000gn/T//ccVbBKId.s:3505   .text.run_asercom2:0000000000001b30 $t
ARM GAS  /var/folders/d2/nstgp4h54kz7g1l847x_b8wc0000gn/T//ccVbBKId.s 			page 129


/var/folders/d2/nstgp4h54kz7g1l847x_b8wc0000gn/T//ccVbBKId.s:3828   .text.run_asercom2:0000000000001db8 $d
/var/folders/d2/nstgp4h54kz7g1l847x_b8wc0000gn/T//ccVbBKId.s:6811   .bss.positionr.13437:0000000000000000 positionr.13437
/var/folders/d2/nstgp4h54kz7g1l847x_b8wc0000gn/T//ccVbBKId.s:6817   .bss.mod.13458:0000000000000000 mod.13458
/var/folders/d2/nstgp4h54kz7g1l847x_b8wc0000gn/T//ccVbBKId.s:6823   .bss.reg.13459:0000000000000000 reg.13459
/var/folders/d2/nstgp4h54kz7g1l847x_b8wc0000gn/T//ccVbBKId.s:6829   .bss.val.13460:0000000000000000 val.13460
/var/folders/d2/nstgp4h54kz7g1l847x_b8wc0000gn/T//ccVbBKId.s:3840   .text.run_asercom2:0000000000001de4 $t
/var/folders/d2/nstgp4h54kz7g1l847x_b8wc0000gn/T//ccVbBKId.s:4126   .text.run_asercom2:0000000000002018 $d
/var/folders/d2/nstgp4h54kz7g1l847x_b8wc0000gn/T//ccVbBKId.s:4133   .text.run_asercom2:0000000000002030 $t
/var/folders/d2/nstgp4h54kz7g1l847x_b8wc0000gn/T//ccVbBKId.s:4204   .text.run_asercom2:00000000000020c4 $d
/var/folders/d2/nstgp4h54kz7g1l847x_b8wc0000gn/T//ccVbBKId.s:4256   .text.run_asercom2:0000000000002194 $t
/var/folders/d2/nstgp4h54kz7g1l847x_b8wc0000gn/T//ccVbBKId.s:4454   .text.run_asercom2:000000000000235c $d
/var/folders/d2/nstgp4h54kz7g1l847x_b8wc0000gn/T//ccVbBKId.s:6835   .bss.LED_action.13440:0000000000000000 LED_action.13440
/var/folders/d2/nstgp4h54kz7g1l847x_b8wc0000gn/T//ccVbBKId.s:4468   .text.run_asercom2:0000000000002390 $t
/var/folders/d2/nstgp4h54kz7g1l847x_b8wc0000gn/T//ccVbBKId.s:4757   .text.run_asercom2:0000000000002630 $d
/var/folders/d2/nstgp4h54kz7g1l847x_b8wc0000gn/T//ccVbBKId.s:4774   .text.run_asercom2:0000000000002670 $t
/var/folders/d2/nstgp4h54kz7g1l847x_b8wc0000gn/T//ccVbBKId.s:5052   .text.run_asercom2:00000000000028d0 $d
/var/folders/d2/nstgp4h54kz7g1l847x_b8wc0000gn/T//ccVbBKId.s:5081   .text.run_asercom2:0000000000002940 $t
/var/folders/d2/nstgp4h54kz7g1l847x_b8wc0000gn/T//ccVbBKId.s:5389   .text.run_asercom2:0000000000002bec $d
/var/folders/d2/nstgp4h54kz7g1l847x_b8wc0000gn/T//ccVbBKId.s:6841   .bss.cam_x1.13453:0000000000000000 cam_x1.13453
/var/folders/d2/nstgp4h54kz7g1l847x_b8wc0000gn/T//ccVbBKId.s:6847   .bss.cam_y1.13454:0000000000000000 cam_y1.13454
/var/folders/d2/nstgp4h54kz7g1l847x_b8wc0000gn/T//ccVbBKId.s:5424   .text.run_asercom2:0000000000002c74 $t
/var/folders/d2/nstgp4h54kz7g1l847x_b8wc0000gn/T//ccVbBKId.s:5738   .text.run_asercom2:0000000000002f30 $d
/var/folders/d2/nstgp4h54kz7g1l847x_b8wc0000gn/T//ccVbBKId.s:6853   .bss.LED_nbr.13439:0000000000000000 LED_nbr.13439
/var/folders/d2/nstgp4h54kz7g1l847x_b8wc0000gn/T//ccVbBKId.s:5756   .text.run_asercom2:0000000000002f74 $t
/var/folders/d2/nstgp4h54kz7g1l847x_b8wc0000gn/T//ccVbBKId.s:6038   .text.run_asercom2:0000000000003200 $d
/var/folders/d2/nstgp4h54kz7g1l847x_b8wc0000gn/T//ccVbBKId.s:6043   .text.run_asercom2:0000000000003214 $t
/var/folders/d2/nstgp4h54kz7g1l847x_b8wc0000gn/T//ccVbBKId.s:6121   .text.run_asercom2:00000000000032bc $d
/var/folders/d2/nstgp4h54kz7g1l847x_b8wc0000gn/T//ccVbBKId.s:6859   .bss.sound.13444:0000000000000000 sound.13444
/var/folders/d2/nstgp4h54kz7g1l847x_b8wc0000gn/T//ccVbBKId.s:6136   .text.run_asercom2:00000000000032f4 $t
/var/folders/d2/nstgp4h54kz7g1l847x_b8wc0000gn/T//ccVbBKId.s:6460   .text.run_asercom2:00000000000035c4 $d
/var/folders/d2/nstgp4h54kz7g1l847x_b8wc0000gn/T//ccVbBKId.s:6476   .text.run_asercom2:0000000000003600 $t
/var/folders/d2/nstgp4h54kz7g1l847x_b8wc0000gn/T//ccVbBKId.s:6661   .text.run_asercom2:0000000000003778 $d
/var/folders/d2/nstgp4h54kz7g1l847x_b8wc0000gn/T//ccVbBKId.s:6668   .data.HWversion.13472:0000000000000000 $d
/var/folders/d2/nstgp4h54kz7g1l847x_b8wc0000gn/T//ccVbBKId.s:6674   .bss.cam_mode.13448:0000000000000000 $d
/var/folders/d2/nstgp4h54kz7g1l847x_b8wc0000gn/T//ccVbBKId.s:6680   .bss.cam_width.13449:0000000000000000 $d
/var/folders/d2/nstgp4h54kz7g1l847x_b8wc0000gn/T//ccVbBKId.s:6686   .bss.cam_heigth.13450:0000000000000000 $d
/var/folders/d2/nstgp4h54kz7g1l847x_b8wc0000gn/T//ccVbBKId.s:6692   .bss.cam_zoom.13451:0000000000000000 $d
/var/folders/d2/nstgp4h54kz7g1l847x_b8wc0000gn/T//ccVbBKId.s:6698   .bss.cam_size.13452:0000000000000000 $d
/var/folders/d2/nstgp4h54kz7g1l847x_b8wc0000gn/T//ccVbBKId.s:6704   .bss.speedr.13435:0000000000000000 $d
/var/folders/d2/nstgp4h54kz7g1l847x_b8wc0000gn/T//ccVbBKId.s:6710   .bss.speedl.13436:0000000000000000 $d
/var/folders/d2/nstgp4h54kz7g1l847x_b8wc0000gn/T//ccVbBKId.s:6719   .bss.first.13455:0000000000000000 $d
/var/folders/d2/nstgp4h54kz7g1l847x_b8wc0000gn/T//ccVbBKId.s:6721   .bss.i.13432:0000000000000000 $d
/var/folders/d2/nstgp4h54kz7g1l847x_b8wc0000gn/T//ccVbBKId.s:6727   .bss.accx.13441:0000000000000000 $d
/var/folders/d2/nstgp4h54kz7g1l847x_b8wc0000gn/T//ccVbBKId.s:6733   .bss.accy.13442:0000000000000000 $d
/var/folders/d2/nstgp4h54kz7g1l847x_b8wc0000gn/T//ccVbBKId.s:6739   .bss.accz.13443:0000000000000000 $d
/var/folders/d2/nstgp4h54kz7g1l847x_b8wc0000gn/T//ccVbBKId.s:6745   .bss.accelero.13464:0000000000000000 $d
/var/folders/d2/nstgp4h54kz7g1l847x_b8wc0000gn/T//ccVbBKId.s:6751   .bss.gyrox.13445:0000000000000000 $d
/var/folders/d2/nstgp4h54kz7g1l847x_b8wc0000gn/T//ccVbBKId.s:6757   .bss.gyroy.13446:0000000000000000 $d
/var/folders/d2/nstgp4h54kz7g1l847x_b8wc0000gn/T//ccVbBKId.s:6763   .bss.gyroz.13447:0000000000000000 $d
/var/folders/d2/nstgp4h54kz7g1l847x_b8wc0000gn/T//ccVbBKId.s:6769   .bss.j.13433:0000000000000000 $d
/var/folders/d2/nstgp4h54kz7g1l847x_b8wc0000gn/T//ccVbBKId.s:6775   .bss.n.13434:0000000000000000 $d
/var/folders/d2/nstgp4h54kz7g1l847x_b8wc0000gn/T//ccVbBKId.s:6781   .bss.rgb_value.13456:0000000000000000 $d
/var/folders/d2/nstgp4h54kz7g1l847x_b8wc0000gn/T//ccVbBKId.s:6790   .bss.c1.13429:0000000000000000 $d
/var/folders/d2/nstgp4h54kz7g1l847x_b8wc0000gn/T//ccVbBKId.s:6795   .bss.c2.13430:0000000000000000 $d
/var/folders/d2/nstgp4h54kz7g1l847x_b8wc0000gn/T//ccVbBKId.s:6800   .bss.wait_cam.13431:0000000000000000 $d
/var/folders/d2/nstgp4h54kz7g1l847x_b8wc0000gn/T//ccVbBKId.s:6802   .bss.positionl.13438:0000000000000000 $d
/var/folders/d2/nstgp4h54kz7g1l847x_b8wc0000gn/T//ccVbBKId.s:6808   .bss.positionr.13437:0000000000000000 $d
ARM GAS  /var/folders/d2/nstgp4h54kz7g1l847x_b8wc0000gn/T//ccVbBKId.s 			page 130


/var/folders/d2/nstgp4h54kz7g1l847x_b8wc0000gn/T//ccVbBKId.s:6814   .bss.mod.13458:0000000000000000 $d
/var/folders/d2/nstgp4h54kz7g1l847x_b8wc0000gn/T//ccVbBKId.s:6820   .bss.reg.13459:0000000000000000 $d
/var/folders/d2/nstgp4h54kz7g1l847x_b8wc0000gn/T//ccVbBKId.s:6826   .bss.val.13460:0000000000000000 $d
/var/folders/d2/nstgp4h54kz7g1l847x_b8wc0000gn/T//ccVbBKId.s:6832   .bss.LED_action.13440:0000000000000000 $d
/var/folders/d2/nstgp4h54kz7g1l847x_b8wc0000gn/T//ccVbBKId.s:6838   .bss.cam_x1.13453:0000000000000000 $d
/var/folders/d2/nstgp4h54kz7g1l847x_b8wc0000gn/T//ccVbBKId.s:6844   .bss.cam_y1.13454:0000000000000000 $d
/var/folders/d2/nstgp4h54kz7g1l847x_b8wc0000gn/T//ccVbBKId.s:6850   .bss.LED_nbr.13439:0000000000000000 $d
/var/folders/d2/nstgp4h54kz7g1l847x_b8wc0000gn/T//ccVbBKId.s:6856   .bss.sound.13444:0000000000000000 $d

UNDEFINED SYMBOLS
e_init_motors
getselector
e_i2cp_init
e_init_remote_control
ReadEE
e_poxxxx_init_cam
e_poxxxx_config_cam
e_poxxxx_write_cam_registers
e_acc_calibr
e_send_uart1_char
e_uart1_sending
e_send_uart2_char
e_uart2_sending
e_get_data
e_get_address
e_init_sound
e_play_sound
e_set_speed_left
e_set_speed_right
e_getchar_uart1
selector
c
e_getchar_uart2
e_get_acc
e_read_acc_spheric
buffer
getAllAxesGyro
get_magnetic_field
getTemperature
e_get_calibrated_prox
e_get_ambient_light
VL53L0X_get_dist_mm
e_get_micro_volume
e_get_steps_left
e_get_steps_right
getBatteryValueRaw
sdio_is_present
sdio_connect
sdio_disconnect
e_get_check
get_ground_prox
get_ground_ambient_light
chThdSleep
serial_get_last_errors
serial_clear_last_errors
calibrate_ir
e_set_steps_left
ARM GAS  /var/folders/d2/nstgp4h54kz7g1l847x_b8wc0000gn/T//ccVbBKId.s 			page 131


e_set_steps_right
set_led
set_body_led
set_front_led
set_rgb_led
playMelody
e_close_sound
stopCurrentMelody
SD3
SDU1
button_get_state
e_get_acc_filtered
e_poxxxx_launch_capture
e_set_body_led
e_set_front_led
e_set_led
e_i2cp_enable
e_i2cp_write
e_i2cp_disable
e_poxxxx_wait_img_ready
cam_get_last_image_ptr
memcpy
__locale_ctype_ptr
sprintf
strlen
getBatteryValuePercentage
sscanf
getXAxisGyro
getYAxisGyro
getZAxisGyro
isEpuckVersion1_3
e_led_clear
e_calibrate_ir
e_i2cp_read
