ARM GAS  /var/folders/d2/nstgp4h54kz7g1l847x_b8wc0000gn/T//ccOZGYa7.s 			page 1


   1              		.cpu cortex-m4
   2              		.eabi_attribute 27, 1
   3              		.eabi_attribute 28, 1
   4              		.eabi_attribute 20, 1
   5              		.eabi_attribute 21, 1
   6              		.eabi_attribute 23, 3
   7              		.eabi_attribute 24, 1
   8              		.eabi_attribute 25, 1
   9              		.eabi_attribute 26, 1
  10              		.eabi_attribute 30, 6
  11              		.eabi_attribute 34, 1
  12              		.eabi_attribute 18, 4
  13              		.file	"audio_thread.c"
  14              		.section	.rodata.sinus_buffer,"a",%progbits
  15              		.align	2
  16              		.type	sinus_buffer, %object
  17              		.size	sinus_buffer, 720
  18              	sinus_buffer:
  19 0000 FF07     		.short	2047
  20 0002 0408     		.short	2052
  21 0004 0808     		.short	2056
  22 0006 0D08     		.short	2061
  23 0008 1108     		.short	2065
  24 000a 1608     		.short	2070
  25 000c 1A08     		.short	2074
  26 000e 1F08     		.short	2079
  27 0010 2308     		.short	2083
  28 0012 2708     		.short	2087
  29 0014 2C08     		.short	2092
  30 0016 3008     		.short	2096
  31 0018 3508     		.short	2101
  32 001a 3908     		.short	2105
  33 001c 3D08     		.short	2109
  34 001e 4208     		.short	2114
  35 0020 4608     		.short	2118
  36 0022 4A08     		.short	2122
  37 0024 4E08     		.short	2126
  38 0026 5308     		.short	2131
  39 0028 5708     		.short	2135
  40 002a 5B08     		.short	2139
  41 002c 5F08     		.short	2143
  42 002e 6308     		.short	2147
  43 0030 6708     		.short	2151
  44 0032 6C08     		.short	2156
  45 0034 7008     		.short	2160
  46 0036 7408     		.short	2164
  47 0038 7808     		.short	2168
  48 003a 7B08     		.short	2171
  49 003c 7F08     		.short	2175
  50 003e 8308     		.short	2179
  51 0040 8708     		.short	2183
  52 0042 8B08     		.short	2187
  53 0044 8E08     		.short	2190
  54 0046 9208     		.short	2194
  55 0048 9608     		.short	2198
  56 004a 9908     		.short	2201
  57 004c 9D08     		.short	2205
ARM GAS  /var/folders/d2/nstgp4h54kz7g1l847x_b8wc0000gn/T//ccOZGYa7.s 			page 2


  58 004e A008     		.short	2208
  59 0050 A408     		.short	2212
  60 0052 A708     		.short	2215
  61 0054 AB08     		.short	2219
  62 0056 AE08     		.short	2222
  63 0058 B108     		.short	2225
  64 005a B408     		.short	2228
  65 005c B708     		.short	2231
  66 005e BB08     		.short	2235
  67 0060 BE08     		.short	2238
  68 0062 C008     		.short	2240
  69 0064 C308     		.short	2243
  70 0066 C608     		.short	2246
  71 0068 C908     		.short	2249
  72 006a CC08     		.short	2252
  73 006c CE08     		.short	2254
  74 006e D108     		.short	2257
  75 0070 D408     		.short	2260
  76 0072 D608     		.short	2262
  77 0074 D808     		.short	2264
  78 0076 DB08     		.short	2267
  79 0078 DD08     		.short	2269
  80 007a DF08     		.short	2271
  81 007c E108     		.short	2273
  82 007e E308     		.short	2275
  83 0080 E508     		.short	2277
  84 0082 E708     		.short	2279
  85 0084 E908     		.short	2281
  86 0086 EB08     		.short	2283
  87 0088 ED08     		.short	2285
  88 008a EE08     		.short	2286
  89 008c F008     		.short	2288
  90 008e F108     		.short	2289
  91 0090 F308     		.short	2291
  92 0092 F408     		.short	2292
  93 0094 F508     		.short	2293
  94 0096 F708     		.short	2295
  95 0098 F808     		.short	2296
  96 009a F908     		.short	2297
  97 009c FA08     		.short	2298
  98 009e FB08     		.short	2299
  99 00a0 FB08     		.short	2299
 100 00a2 FC08     		.short	2300
 101 00a4 FD08     		.short	2301
 102 00a6 FD08     		.short	2301
 103 00a8 FE08     		.short	2302
 104 00aa FE08     		.short	2302
 105 00ac FF08     		.short	2303
 106 00ae FF08     		.short	2303
 107 00b0 FF08     		.short	2303
 108 00b2 FF08     		.short	2303
 109 00b4 FF08     		.short	2303
 110 00b6 FF08     		.short	2303
 111 00b8 FF08     		.short	2303
 112 00ba FF08     		.short	2303
 113 00bc FF08     		.short	2303
 114 00be FE08     		.short	2302
ARM GAS  /var/folders/d2/nstgp4h54kz7g1l847x_b8wc0000gn/T//ccOZGYa7.s 			page 3


 115 00c0 FE08     		.short	2302
 116 00c2 FD08     		.short	2301
 117 00c4 FD08     		.short	2301
 118 00c6 FC08     		.short	2300
 119 00c8 FB08     		.short	2299
 120 00ca FB08     		.short	2299
 121 00cc FA08     		.short	2298
 122 00ce F908     		.short	2297
 123 00d0 F808     		.short	2296
 124 00d2 F708     		.short	2295
 125 00d4 F508     		.short	2293
 126 00d6 F408     		.short	2292
 127 00d8 F308     		.short	2291
 128 00da F108     		.short	2289
 129 00dc F008     		.short	2288
 130 00de EE08     		.short	2286
 131 00e0 ED08     		.short	2285
 132 00e2 EB08     		.short	2283
 133 00e4 E908     		.short	2281
 134 00e6 E708     		.short	2279
 135 00e8 E508     		.short	2277
 136 00ea E308     		.short	2275
 137 00ec E108     		.short	2273
 138 00ee DF08     		.short	2271
 139 00f0 DD08     		.short	2269
 140 00f2 DB08     		.short	2267
 141 00f4 D808     		.short	2264
 142 00f6 D608     		.short	2262
 143 00f8 D408     		.short	2260
 144 00fa D108     		.short	2257
 145 00fc CE08     		.short	2254
 146 00fe CC08     		.short	2252
 147 0100 C908     		.short	2249
 148 0102 C608     		.short	2246
 149 0104 C308     		.short	2243
 150 0106 C008     		.short	2240
 151 0108 BE08     		.short	2238
 152 010a BB08     		.short	2235
 153 010c B708     		.short	2231
 154 010e B408     		.short	2228
 155 0110 B108     		.short	2225
 156 0112 AE08     		.short	2222
 157 0114 AB08     		.short	2219
 158 0116 A708     		.short	2215
 159 0118 A408     		.short	2212
 160 011a A008     		.short	2208
 161 011c 9D08     		.short	2205
 162 011e 9908     		.short	2201
 163 0120 9608     		.short	2198
 164 0122 9208     		.short	2194
 165 0124 8E08     		.short	2190
 166 0126 8B08     		.short	2187
 167 0128 8708     		.short	2183
 168 012a 8308     		.short	2179
 169 012c 7F08     		.short	2175
 170 012e 7B08     		.short	2171
 171 0130 7808     		.short	2168
ARM GAS  /var/folders/d2/nstgp4h54kz7g1l847x_b8wc0000gn/T//ccOZGYa7.s 			page 4


 172 0132 7408     		.short	2164
 173 0134 7008     		.short	2160
 174 0136 6C08     		.short	2156
 175 0138 6708     		.short	2151
 176 013a 6308     		.short	2147
 177 013c 5F08     		.short	2143
 178 013e 5B08     		.short	2139
 179 0140 5708     		.short	2135
 180 0142 5308     		.short	2131
 181 0144 4E08     		.short	2126
 182 0146 4A08     		.short	2122
 183 0148 4608     		.short	2118
 184 014a 4208     		.short	2114
 185 014c 3D08     		.short	2109
 186 014e 3908     		.short	2105
 187 0150 3508     		.short	2101
 188 0152 3008     		.short	2096
 189 0154 2C08     		.short	2092
 190 0156 2708     		.short	2087
 191 0158 2308     		.short	2083
 192 015a 1F08     		.short	2079
 193 015c 1A08     		.short	2074
 194 015e 1608     		.short	2070
 195 0160 1108     		.short	2065
 196 0162 0D08     		.short	2061
 197 0164 0808     		.short	2056
 198 0166 0408     		.short	2052
 199 0168 FF07     		.short	2047
 200 016a FB07     		.short	2043
 201 016c F707     		.short	2039
 202 016e F207     		.short	2034
 203 0170 EE07     		.short	2030
 204 0172 E907     		.short	2025
 205 0174 E507     		.short	2021
 206 0176 E007     		.short	2016
 207 0178 DC07     		.short	2012
 208 017a D707     		.short	2007
 209 017c D307     		.short	2003
 210 017e CF07     		.short	1999
 211 0180 CA07     		.short	1994
 212 0182 C607     		.short	1990
 213 0184 C207     		.short	1986
 214 0186 BD07     		.short	1981
 215 0188 B907     		.short	1977
 216 018a B507     		.short	1973
 217 018c B007     		.short	1968
 218 018e AC07     		.short	1964
 219 0190 A807     		.short	1960
 220 0192 A407     		.short	1956
 221 0194 A007     		.short	1952
 222 0196 9C07     		.short	1948
 223 0198 9707     		.short	1943
 224 019a 9307     		.short	1939
 225 019c 8F07     		.short	1935
 226 019e 8B07     		.short	1931
 227 01a0 8707     		.short	1927
 228 01a2 8307     		.short	1923
ARM GAS  /var/folders/d2/nstgp4h54kz7g1l847x_b8wc0000gn/T//ccOZGYa7.s 			page 5


 229 01a4 8007     		.short	1920
 230 01a6 7C07     		.short	1916
 231 01a8 7807     		.short	1912
 232 01aa 7407     		.short	1908
 233 01ac 7007     		.short	1904
 234 01ae 6D07     		.short	1901
 235 01b0 6907     		.short	1897
 236 01b2 6607     		.short	1894
 237 01b4 6207     		.short	1890
 238 01b6 5E07     		.short	1886
 239 01b8 5B07     		.short	1883
 240 01ba 5807     		.short	1880
 241 01bc 5407     		.short	1876
 242 01be 5107     		.short	1873
 243 01c0 4E07     		.short	1870
 244 01c2 4B07     		.short	1867
 245 01c4 4707     		.short	1863
 246 01c6 4407     		.short	1860
 247 01c8 4107     		.short	1857
 248 01ca 3E07     		.short	1854
 249 01cc 3B07     		.short	1851
 250 01ce 3907     		.short	1849
 251 01d0 3607     		.short	1846
 252 01d2 3307     		.short	1843
 253 01d4 3007     		.short	1840
 254 01d6 2E07     		.short	1838
 255 01d8 2B07     		.short	1835
 256 01da 2907     		.short	1833
 257 01dc 2707     		.short	1831
 258 01de 2407     		.short	1828
 259 01e0 2207     		.short	1826
 260 01e2 2007     		.short	1824
 261 01e4 1E07     		.short	1822
 262 01e6 1C07     		.short	1820
 263 01e8 1A07     		.short	1818
 264 01ea 1807     		.short	1816
 265 01ec 1607     		.short	1814
 266 01ee 1407     		.short	1812
 267 01f0 1207     		.short	1810
 268 01f2 1107     		.short	1809
 269 01f4 0F07     		.short	1807
 270 01f6 0E07     		.short	1806
 271 01f8 0C07     		.short	1804
 272 01fa 0B07     		.short	1803
 273 01fc 0A07     		.short	1802
 274 01fe 0807     		.short	1800
 275 0200 0707     		.short	1799
 276 0202 0607     		.short	1798
 277 0204 0507     		.short	1797
 278 0206 0407     		.short	1796
 279 0208 0407     		.short	1796
 280 020a 0307     		.short	1795
 281 020c 0207     		.short	1794
 282 020e 0207     		.short	1794
 283 0210 0107     		.short	1793
 284 0212 0107     		.short	1793
 285 0214 0007     		.short	1792
ARM GAS  /var/folders/d2/nstgp4h54kz7g1l847x_b8wc0000gn/T//ccOZGYa7.s 			page 6


 286 0216 0007     		.short	1792
 287 0218 0007     		.short	1792
 288 021a 0007     		.short	1792
 289 021c 0007     		.short	1792
 290 021e 0007     		.short	1792
 291 0220 0007     		.short	1792
 292 0222 0007     		.short	1792
 293 0224 0007     		.short	1792
 294 0226 0107     		.short	1793
 295 0228 0107     		.short	1793
 296 022a 0207     		.short	1794
 297 022c 0207     		.short	1794
 298 022e 0307     		.short	1795
 299 0230 0407     		.short	1796
 300 0232 0407     		.short	1796
 301 0234 0507     		.short	1797
 302 0236 0607     		.short	1798
 303 0238 0707     		.short	1799
 304 023a 0807     		.short	1800
 305 023c 0A07     		.short	1802
 306 023e 0B07     		.short	1803
 307 0240 0C07     		.short	1804
 308 0242 0E07     		.short	1806
 309 0244 0F07     		.short	1807
 310 0246 1107     		.short	1809
 311 0248 1207     		.short	1810
 312 024a 1407     		.short	1812
 313 024c 1607     		.short	1814
 314 024e 1807     		.short	1816
 315 0250 1A07     		.short	1818
 316 0252 1C07     		.short	1820
 317 0254 1E07     		.short	1822
 318 0256 2007     		.short	1824
 319 0258 2207     		.short	1826
 320 025a 2407     		.short	1828
 321 025c 2707     		.short	1831
 322 025e 2907     		.short	1833
 323 0260 2B07     		.short	1835
 324 0262 2E07     		.short	1838
 325 0264 3007     		.short	1840
 326 0266 3307     		.short	1843
 327 0268 3607     		.short	1846
 328 026a 3907     		.short	1849
 329 026c 3B07     		.short	1851
 330 026e 3E07     		.short	1854
 331 0270 4107     		.short	1857
 332 0272 4407     		.short	1860
 333 0274 4707     		.short	1863
 334 0276 4B07     		.short	1867
 335 0278 4E07     		.short	1870
 336 027a 5107     		.short	1873
 337 027c 5407     		.short	1876
 338 027e 5807     		.short	1880
 339 0280 5B07     		.short	1883
 340 0282 5E07     		.short	1886
 341 0284 6207     		.short	1890
 342 0286 6607     		.short	1894
ARM GAS  /var/folders/d2/nstgp4h54kz7g1l847x_b8wc0000gn/T//ccOZGYa7.s 			page 7


 343 0288 6907     		.short	1897
 344 028a 6D07     		.short	1901
 345 028c 7007     		.short	1904
 346 028e 7407     		.short	1908
 347 0290 7807     		.short	1912
 348 0292 7C07     		.short	1916
 349 0294 8007     		.short	1920
 350 0296 8307     		.short	1923
 351 0298 8707     		.short	1927
 352 029a 8B07     		.short	1931
 353 029c 8F07     		.short	1935
 354 029e 9307     		.short	1939
 355 02a0 9707     		.short	1943
 356 02a2 9C07     		.short	1948
 357 02a4 A007     		.short	1952
 358 02a6 A407     		.short	1956
 359 02a8 A807     		.short	1960
 360 02aa AC07     		.short	1964
 361 02ac B007     		.short	1968
 362 02ae B507     		.short	1973
 363 02b0 B907     		.short	1977
 364 02b2 BD07     		.short	1981
 365 02b4 C207     		.short	1986
 366 02b6 C607     		.short	1990
 367 02b8 CA07     		.short	1994
 368 02ba CF07     		.short	1999
 369 02bc D307     		.short	2003
 370 02be D707     		.short	2007
 371 02c0 DC07     		.short	2012
 372 02c2 E007     		.short	2016
 373 02c4 E507     		.short	2021
 374 02c6 E907     		.short	2025
 375 02c8 EE07     		.short	2030
 376 02ca F207     		.short	2034
 377 02cc F707     		.short	2039
 378 02ce FB07     		.short	2043
 379              		.section	.bss.dac_conversion,"aw",%nobits
 380              		.align	2
 381              		.type	dac_conversion, %object
 382              		.size	dac_conversion, 16
 383              	dac_conversion:
 384 0000 00000000 		.space	16
 384      00000000 
 384      00000000 
 384      00000000 
 385              		.section	.bss.dac_state,"aw",%nobits
 386              		.type	dac_state, %object
 387              		.size	dac_state, 1
 388              	dac_state:
 389 0000 00       		.space	1
 390              		.section	.rodata
 391              		.align	2
 392              	.LC0:
 393 0000 44414320 		.ascii	"DAC failure\000"
 393      6661696C 
 393      75726500 
 394              		.section	.text.error_cb,"ax",%progbits
ARM GAS  /var/folders/d2/nstgp4h54kz7g1l847x_b8wc0000gn/T//ccOZGYa7.s 			page 8


 395              		.align	1
 396              		.syntax unified
 397              		.thumb
 398              		.thumb_func
 399              		.fpu fpv4-sp-d16
 400              		.type	error_cb, %function
 401              	error_cb:
 402              		@ args = 0, pretend = 0, frame = 8
 403              		@ frame_needed = 1, uses_anonymous_args = 0
 404 0000 80B5     		push	{r7, lr}
 405 0002 82B0     		sub	sp, sp, #8
 406 0004 00AF     		add	r7, sp, #0
 407 0006 7860     		str	r0, [r7, #4]
 408 0008 0B46     		mov	r3, r1
 409 000a FB70     		strb	r3, [r7, #3]
 410 000c 0348     		ldr	r0, .L2
 411 000e FFF7FEFF 		bl	chSysHalt
 412 0012 00BF     		nop
 413 0014 0837     		adds	r7, r7, #8
 414 0016 BD46     		mov	sp, r7
 415              		@ sp needed
 416 0018 80BD     		pop	{r7, pc}
 417              	.L3:
 418 001a 00BF     		.align	2
 419              	.L2:
 420 001c 00000000 		.word	.LC0
 421              		.size	error_cb, .-error_cb
 422              		.section	.text.dac_start,"ax",%progbits
 423              		.align	1
 424              		.global	dac_start
 425              		.syntax unified
 426              		.thumb
 427              		.thumb_func
 428              		.fpu fpv4-sp-d16
 429              		.type	dac_start, %function
 430              	dac_start:
 431              		@ args = 0, pretend = 0, frame = 0
 432              		@ frame_needed = 1, uses_anonymous_args = 0
 433 0000 80B5     		push	{r7, lr}
 434 0002 00AF     		add	r7, sp, #0
 435 0004 154B     		ldr	r3, .L5
 436 0006 0122     		movs	r2, #1
 437 0008 1A60     		str	r2, [r3]
 438 000a 144B     		ldr	r3, .L5
 439 000c 0022     		movs	r2, #0
 440 000e 5A60     		str	r2, [r3, #4]
 441 0010 124B     		ldr	r3, .L5
 442 0012 134A     		ldr	r2, .L5+4
 443 0014 9A60     		str	r2, [r3, #8]
 444 0016 114B     		ldr	r3, .L5
 445 0018 0022     		movs	r2, #0
 446 001a DA60     		str	r2, [r3, #12]
 447 001c 114B     		ldr	r3, .L5+8
 448 001e 4FF40062 		mov	r2, #2048
 449 0022 1A80     		strh	r2, [r3]	@ movhi
 450 0024 0F4B     		ldr	r3, .L5+8
 451 0026 0022     		movs	r2, #0
ARM GAS  /var/folders/d2/nstgp4h54kz7g1l847x_b8wc0000gn/T//ccOZGYa7.s 			page 9


 452 0028 9A70     		strb	r2, [r3, #2]
 453 002a 0E49     		ldr	r1, .L5+8
 454 002c 0E48     		ldr	r0, .L5+12
 455 002e FFF7FEFF 		bl	dacStart
 456 0032 0E4B     		ldr	r3, .L5+16
 457 0034 0E4A     		ldr	r2, .L5+20
 458 0036 1A60     		str	r2, [r3]
 459 0038 0C4B     		ldr	r3, .L5+16
 460 003a 0022     		movs	r2, #0
 461 003c 5A60     		str	r2, [r3, #4]
 462 003e 0B4B     		ldr	r3, .L5+16
 463 0040 2022     		movs	r2, #32
 464 0042 9A60     		str	r2, [r3, #8]
 465 0044 094B     		ldr	r3, .L5+16
 466 0046 0022     		movs	r2, #0
 467 0048 DA60     		str	r2, [r3, #12]
 468 004a 0849     		ldr	r1, .L5+16
 469 004c 0948     		ldr	r0, .L5+24
 470 004e FFF7FEFF 		bl	gptStart
 471 0052 FFF7FEFF 		bl	dac_stop
 472 0056 00BF     		nop
 473 0058 80BD     		pop	{r7, pc}
 474              	.L6:
 475 005a 00BF     		.align	2
 476              	.L5:
 477 005c 00000000 		.word	dac_conversion
 478 0060 00000000 		.word	error_cb
 479 0064 00000000 		.word	dac_config.9867
 480 0068 00000000 		.word	DACD2
 481 006c 00000000 		.word	config.9868
 482 0070 00BD0105 		.word	84000000
 483 0074 00000000 		.word	GPTD6
 484              		.size	dac_start, .-dac_start
 485              		.section	.text.dac_play,"ax",%progbits
 486              		.align	1
 487              		.global	dac_play
 488              		.syntax unified
 489              		.thumb
 490              		.thumb_func
 491              		.fpu fpv4-sp-d16
 492              		.type	dac_play, %function
 493              	dac_play:
 494              		@ args = 0, pretend = 0, frame = 8
 495              		@ frame_needed = 1, uses_anonymous_args = 0
 496 0000 80B5     		push	{r7, lr}
 497 0002 82B0     		sub	sp, sp, #8
 498 0004 00AF     		add	r7, sp, #0
 499 0006 0346     		mov	r3, r0
 500 0008 FB80     		strh	r3, [r7, #6]	@ movhi
 501 000a 194B     		ldr	r3, .L11
 502 000c 1B78     		ldrb	r3, [r3]	@ zero_extendqisi2
 503 000e 002B     		cmp	r3, #0
 504 0010 1DD1     		bne	.L8
 505 0012 174B     		ldr	r3, .L11
 506 0014 0122     		movs	r2, #1
 507 0016 1A70     		strb	r2, [r3]
 508 0018 164B     		ldr	r3, .L11+4
ARM GAS  /var/folders/d2/nstgp4h54kz7g1l847x_b8wc0000gn/T//ccOZGYa7.s 			page 10


 509 001a 0022     		movs	r2, #0
 510 001c 5A60     		str	r2, [r3, #4]
 511 001e 0120     		movs	r0, #1
 512 0020 FFF7FEFF 		bl	dac_power_speaker
 513 0024 4FF4B473 		mov	r3, #360
 514 0028 134A     		ldr	r2, .L11+8
 515 002a 1249     		ldr	r1, .L11+4
 516 002c 1348     		ldr	r0, .L11+12
 517 002e FFF7FEFF 		bl	dacStartConversion
 518 0032 FB88     		ldrh	r3, [r7, #6]
 519 0034 4FF4B472 		mov	r2, #360
 520 0038 02FB03F3 		mul	r3, r2, r3
 521 003c 1A46     		mov	r2, r3
 522 003e 104B     		ldr	r3, .L11+16
 523 0040 B3FBF2F3 		udiv	r3, r3, r2
 524 0044 1946     		mov	r1, r3
 525 0046 0F48     		ldr	r0, .L11+20
 526 0048 FFF7FEFF 		bl	gptStartContinuous
 527 004c 0CE0     		b	.L10
 528              	.L8:
 529 004e FB88     		ldrh	r3, [r7, #6]
 530 0050 4FF4B472 		mov	r2, #360
 531 0054 02FB03F3 		mul	r3, r2, r3
 532 0058 1A46     		mov	r2, r3
 533 005a 094B     		ldr	r3, .L11+16
 534 005c B3FBF2F3 		udiv	r3, r3, r2
 535 0060 1946     		mov	r1, r3
 536 0062 0848     		ldr	r0, .L11+20
 537 0064 FFF7FEFF 		bl	gptChangeInterval
 538              	.L10:
 539 0068 00BF     		nop
 540 006a 0837     		adds	r7, r7, #8
 541 006c BD46     		mov	sp, r7
 542              		@ sp needed
 543 006e 80BD     		pop	{r7, pc}
 544              	.L12:
 545              		.align	2
 546              	.L11:
 547 0070 00000000 		.word	dac_state
 548 0074 00000000 		.word	dac_conversion
 549 0078 00000000 		.word	sinus_buffer
 550 007c 00000000 		.word	DACD2
 551 0080 00BD0105 		.word	84000000
 552 0084 00000000 		.word	GPTD6
 553              		.size	dac_play, .-dac_play
 554              		.section	.text.dac_play_buffer,"ax",%progbits
 555              		.align	1
 556              		.global	dac_play_buffer
 557              		.syntax unified
 558              		.thumb
 559              		.thumb_func
 560              		.fpu fpv4-sp-d16
 561              		.type	dac_play_buffer, %function
 562              	dac_play_buffer:
 563              		@ args = 0, pretend = 0, frame = 16
 564              		@ frame_needed = 1, uses_anonymous_args = 0
 565 0000 80B5     		push	{r7, lr}
ARM GAS  /var/folders/d2/nstgp4h54kz7g1l847x_b8wc0000gn/T//ccOZGYa7.s 			page 11


 566 0002 84B0     		sub	sp, sp, #16
 567 0004 00AF     		add	r7, sp, #0
 568 0006 F860     		str	r0, [r7, #12]
 569 0008 B960     		str	r1, [r7, #8]
 570 000a 7A60     		str	r2, [r7, #4]
 571 000c 3B60     		str	r3, [r7]
 572 000e 144B     		ldr	r3, .L17
 573 0010 1B78     		ldrb	r3, [r3]	@ zero_extendqisi2
 574 0012 002B     		cmp	r3, #0
 575 0014 17D1     		bne	.L14
 576 0016 124B     		ldr	r3, .L17
 577 0018 0122     		movs	r2, #1
 578 001a 1A70     		strb	r2, [r3]
 579 001c 114A     		ldr	r2, .L17+4
 580 001e 3B68     		ldr	r3, [r7]
 581 0020 5360     		str	r3, [r2, #4]
 582 0022 0120     		movs	r0, #1
 583 0024 FFF7FEFF 		bl	dac_power_speaker
 584 0028 BB68     		ldr	r3, [r7, #8]
 585 002a FA68     		ldr	r2, [r7, #12]
 586 002c 0D49     		ldr	r1, .L17+4
 587 002e 0E48     		ldr	r0, .L17+8
 588 0030 FFF7FEFF 		bl	dacStartConversion
 589 0034 0D4A     		ldr	r2, .L17+12
 590 0036 7B68     		ldr	r3, [r7, #4]
 591 0038 B2FBF3F3 		udiv	r3, r2, r3
 592 003c 1946     		mov	r1, r3
 593 003e 0C48     		ldr	r0, .L17+16
 594 0040 FFF7FEFF 		bl	gptStartContinuous
 595 0044 07E0     		b	.L16
 596              	.L14:
 597 0046 094A     		ldr	r2, .L17+12
 598 0048 7B68     		ldr	r3, [r7, #4]
 599 004a B2FBF3F3 		udiv	r3, r2, r3
 600 004e 1946     		mov	r1, r3
 601 0050 0748     		ldr	r0, .L17+16
 602 0052 FFF7FEFF 		bl	gptChangeInterval
 603              	.L16:
 604 0056 00BF     		nop
 605 0058 1037     		adds	r7, r7, #16
 606 005a BD46     		mov	sp, r7
 607              		@ sp needed
 608 005c 80BD     		pop	{r7, pc}
 609              	.L18:
 610 005e 00BF     		.align	2
 611              	.L17:
 612 0060 00000000 		.word	dac_state
 613 0064 00000000 		.word	dac_conversion
 614 0068 00000000 		.word	DACD2
 615 006c 00BD0105 		.word	84000000
 616 0070 00000000 		.word	GPTD6
 617              		.size	dac_play_buffer, .-dac_play_buffer
 618              		.section	.text.dac_change_bufferI,"ax",%progbits
 619              		.align	1
 620              		.global	dac_change_bufferI
 621              		.syntax unified
 622              		.thumb
ARM GAS  /var/folders/d2/nstgp4h54kz7g1l847x_b8wc0000gn/T//ccOZGYa7.s 			page 12


 623              		.thumb_func
 624              		.fpu fpv4-sp-d16
 625              		.type	dac_change_bufferI, %function
 626              	dac_change_bufferI:
 627              		@ args = 0, pretend = 0, frame = 16
 628              		@ frame_needed = 1, uses_anonymous_args = 0
 629 0000 80B5     		push	{r7, lr}
 630 0002 84B0     		sub	sp, sp, #16
 631 0004 00AF     		add	r7, sp, #0
 632 0006 F860     		str	r0, [r7, #12]
 633 0008 B960     		str	r1, [r7, #8]
 634 000a 7A60     		str	r2, [r7, #4]
 635 000c 0B48     		ldr	r0, .L20
 636 000e FFF7FEFF 		bl	gptStopTimerI
 637 0012 0B48     		ldr	r0, .L20+4
 638 0014 FFF7FEFF 		bl	dacStopConversionI
 639 0018 BB68     		ldr	r3, [r7, #8]
 640 001a FA68     		ldr	r2, [r7, #12]
 641 001c 0949     		ldr	r1, .L20+8
 642 001e 0848     		ldr	r0, .L20+4
 643 0020 FFF7FEFF 		bl	dacStartConversionI
 644 0024 084A     		ldr	r2, .L20+12
 645 0026 7B68     		ldr	r3, [r7, #4]
 646 0028 B2FBF3F3 		udiv	r3, r2, r3
 647 002c 1946     		mov	r1, r3
 648 002e 0348     		ldr	r0, .L20
 649 0030 FFF7FEFF 		bl	gptStartContinuousI
 650 0034 00BF     		nop
 651 0036 1037     		adds	r7, r7, #16
 652 0038 BD46     		mov	sp, r7
 653              		@ sp needed
 654 003a 80BD     		pop	{r7, pc}
 655              	.L21:
 656              		.align	2
 657              	.L20:
 658 003c 00000000 		.word	GPTD6
 659 0040 00000000 		.word	DACD2
 660 0044 00000000 		.word	dac_conversion
 661 0048 00BD0105 		.word	84000000
 662              		.size	dac_change_bufferI, .-dac_change_bufferI
 663              		.section	.text.dac_stopI,"ax",%progbits
 664              		.align	1
 665              		.global	dac_stopI
 666              		.syntax unified
 667              		.thumb
 668              		.thumb_func
 669              		.fpu fpv4-sp-d16
 670              		.type	dac_stopI, %function
 671              	dac_stopI:
 672              		@ args = 0, pretend = 0, frame = 0
 673              		@ frame_needed = 1, uses_anonymous_args = 0
 674 0000 80B5     		push	{r7, lr}
 675 0002 00AF     		add	r7, sp, #0
 676 0004 0020     		movs	r0, #0
 677 0006 FFF7FEFF 		bl	dac_power_speaker
 678 000a 0548     		ldr	r0, .L23
 679 000c FFF7FEFF 		bl	gptStopTimerI
ARM GAS  /var/folders/d2/nstgp4h54kz7g1l847x_b8wc0000gn/T//ccOZGYa7.s 			page 13


 680 0010 0448     		ldr	r0, .L23+4
 681 0012 FFF7FEFF 		bl	dacStopConversionI
 682 0016 044B     		ldr	r3, .L23+8
 683 0018 0022     		movs	r2, #0
 684 001a 1A70     		strb	r2, [r3]
 685 001c 00BF     		nop
 686 001e 80BD     		pop	{r7, pc}
 687              	.L24:
 688              		.align	2
 689              	.L23:
 690 0020 00000000 		.word	GPTD6
 691 0024 00000000 		.word	DACD2
 692 0028 00000000 		.word	dac_state
 693              		.size	dac_stopI, .-dac_stopI
 694              		.section	.text.dac_stop,"ax",%progbits
 695              		.align	1
 696              		.global	dac_stop
 697              		.syntax unified
 698              		.thumb
 699              		.thumb_func
 700              		.fpu fpv4-sp-d16
 701              		.type	dac_stop, %function
 702              	dac_stop:
 703              		@ args = 0, pretend = 0, frame = 0
 704              		@ frame_needed = 1, uses_anonymous_args = 0
 705 0000 80B5     		push	{r7, lr}
 706 0002 00AF     		add	r7, sp, #0
 707 0004 0020     		movs	r0, #0
 708 0006 FFF7FEFF 		bl	dac_power_speaker
 709 000a 0548     		ldr	r0, .L26
 710 000c FFF7FEFF 		bl	gptStopTimer
 711 0010 0448     		ldr	r0, .L26+4
 712 0012 FFF7FEFF 		bl	dacStopConversion
 713 0016 044B     		ldr	r3, .L26+8
 714 0018 0022     		movs	r2, #0
 715 001a 1A70     		strb	r2, [r3]
 716 001c 00BF     		nop
 717 001e 80BD     		pop	{r7, pc}
 718              	.L27:
 719              		.align	2
 720              	.L26:
 721 0020 00000000 		.word	GPTD6
 722 0024 00000000 		.word	DACD2
 723 0028 00000000 		.word	dac_state
 724              		.size	dac_stop, .-dac_stop
 725              		.section	.text.dac_power_speaker,"ax",%progbits
 726              		.align	1
 727              		.global	dac_power_speaker
 728              		.syntax unified
 729              		.thumb
 730              		.thumb_func
 731              		.fpu fpv4-sp-d16
 732              		.type	dac_power_speaker, %function
 733              	dac_power_speaker:
 734              		@ args = 0, pretend = 0, frame = 8
 735              		@ frame_needed = 1, uses_anonymous_args = 0
 736              		@ link register save eliminated.
ARM GAS  /var/folders/d2/nstgp4h54kz7g1l847x_b8wc0000gn/T//ccOZGYa7.s 			page 14


 737 0000 80B4     		push	{r7}
 738 0002 83B0     		sub	sp, sp, #12
 739 0004 00AF     		add	r7, sp, #0
 740 0006 0346     		mov	r3, r0
 741 0008 FB71     		strb	r3, [r7, #7]
 742 000a FB79     		ldrb	r3, [r7, #7]	@ zero_extendqisi2
 743 000c 002B     		cmp	r3, #0
 744 000e 03D0     		beq	.L29
 745 0010 064B     		ldr	r3, .L32
 746 0012 8022     		movs	r2, #128
 747 0014 5A83     		strh	r2, [r3, #26]	@ movhi
 748 0016 02E0     		b	.L31
 749              	.L29:
 750 0018 044B     		ldr	r3, .L32
 751 001a 8022     		movs	r2, #128
 752 001c 1A83     		strh	r2, [r3, #24]	@ movhi
 753              	.L31:
 754 001e 00BF     		nop
 755 0020 0C37     		adds	r7, r7, #12
 756 0022 BD46     		mov	sp, r7
 757              		@ sp needed
 758 0024 5DF8047B 		ldr	r7, [sp], #4
 759 0028 7047     		bx	lr
 760              	.L33:
 761 002a 00BF     		.align	2
 762              	.L32:
 763 002c 000C0240 		.word	1073875968
 764              		.size	dac_power_speaker, .-dac_power_speaker
 765              		.section	.bss.dac_config.9867,"aw",%nobits
 766              		.align	2
 767              		.type	dac_config.9867, %object
 768              		.size	dac_config.9867, 4
 769              	dac_config.9867:
 770 0000 00000000 		.space	4
 771              		.section	.bss.config.9868,"aw",%nobits
 772              		.align	2
 773              		.type	config.9868, %object
 774              		.size	config.9868, 16
 775              	config.9868:
 776 0000 00000000 		.space	16
 776      00000000 
 776      00000000 
 776      00000000 
 777              		.ident	"GCC: (GNU Tools for Arm Embedded Processors 7-2017-q4-major) 7.2.1 20170904 (release) [ARM
ARM GAS  /var/folders/d2/nstgp4h54kz7g1l847x_b8wc0000gn/T//ccOZGYa7.s 			page 15


DEFINED SYMBOLS
                            *ABS*:0000000000000000 audio_thread.c
/var/folders/d2/nstgp4h54kz7g1l847x_b8wc0000gn/T//ccOZGYa7.s:15     .rodata.sinus_buffer:0000000000000000 $d
/var/folders/d2/nstgp4h54kz7g1l847x_b8wc0000gn/T//ccOZGYa7.s:18     .rodata.sinus_buffer:0000000000000000 sinus_buffer
/var/folders/d2/nstgp4h54kz7g1l847x_b8wc0000gn/T//ccOZGYa7.s:380    .bss.dac_conversion:0000000000000000 $d
/var/folders/d2/nstgp4h54kz7g1l847x_b8wc0000gn/T//ccOZGYa7.s:383    .bss.dac_conversion:0000000000000000 dac_conversion
/var/folders/d2/nstgp4h54kz7g1l847x_b8wc0000gn/T//ccOZGYa7.s:388    .bss.dac_state:0000000000000000 dac_state
/var/folders/d2/nstgp4h54kz7g1l847x_b8wc0000gn/T//ccOZGYa7.s:389    .bss.dac_state:0000000000000000 $d
/var/folders/d2/nstgp4h54kz7g1l847x_b8wc0000gn/T//ccOZGYa7.s:391    .rodata:0000000000000000 $d
/var/folders/d2/nstgp4h54kz7g1l847x_b8wc0000gn/T//ccOZGYa7.s:395    .text.error_cb:0000000000000000 $t
/var/folders/d2/nstgp4h54kz7g1l847x_b8wc0000gn/T//ccOZGYa7.s:401    .text.error_cb:0000000000000000 error_cb
/var/folders/d2/nstgp4h54kz7g1l847x_b8wc0000gn/T//ccOZGYa7.s:420    .text.error_cb:000000000000001c $d
/var/folders/d2/nstgp4h54kz7g1l847x_b8wc0000gn/T//ccOZGYa7.s:423    .text.dac_start:0000000000000000 $t
/var/folders/d2/nstgp4h54kz7g1l847x_b8wc0000gn/T//ccOZGYa7.s:430    .text.dac_start:0000000000000000 dac_start
/var/folders/d2/nstgp4h54kz7g1l847x_b8wc0000gn/T//ccOZGYa7.s:702    .text.dac_stop:0000000000000000 dac_stop
/var/folders/d2/nstgp4h54kz7g1l847x_b8wc0000gn/T//ccOZGYa7.s:477    .text.dac_start:000000000000005c $d
/var/folders/d2/nstgp4h54kz7g1l847x_b8wc0000gn/T//ccOZGYa7.s:769    .bss.dac_config.9867:0000000000000000 dac_config.9867
/var/folders/d2/nstgp4h54kz7g1l847x_b8wc0000gn/T//ccOZGYa7.s:775    .bss.config.9868:0000000000000000 config.9868
/var/folders/d2/nstgp4h54kz7g1l847x_b8wc0000gn/T//ccOZGYa7.s:486    .text.dac_play:0000000000000000 $t
/var/folders/d2/nstgp4h54kz7g1l847x_b8wc0000gn/T//ccOZGYa7.s:493    .text.dac_play:0000000000000000 dac_play
/var/folders/d2/nstgp4h54kz7g1l847x_b8wc0000gn/T//ccOZGYa7.s:733    .text.dac_power_speaker:0000000000000000 dac_power_speaker
/var/folders/d2/nstgp4h54kz7g1l847x_b8wc0000gn/T//ccOZGYa7.s:547    .text.dac_play:0000000000000070 $d
/var/folders/d2/nstgp4h54kz7g1l847x_b8wc0000gn/T//ccOZGYa7.s:555    .text.dac_play_buffer:0000000000000000 $t
/var/folders/d2/nstgp4h54kz7g1l847x_b8wc0000gn/T//ccOZGYa7.s:562    .text.dac_play_buffer:0000000000000000 dac_play_buffer
/var/folders/d2/nstgp4h54kz7g1l847x_b8wc0000gn/T//ccOZGYa7.s:612    .text.dac_play_buffer:0000000000000060 $d
/var/folders/d2/nstgp4h54kz7g1l847x_b8wc0000gn/T//ccOZGYa7.s:619    .text.dac_change_bufferI:0000000000000000 $t
/var/folders/d2/nstgp4h54kz7g1l847x_b8wc0000gn/T//ccOZGYa7.s:626    .text.dac_change_bufferI:0000000000000000 dac_change_bufferI
/var/folders/d2/nstgp4h54kz7g1l847x_b8wc0000gn/T//ccOZGYa7.s:658    .text.dac_change_bufferI:000000000000003c $d
/var/folders/d2/nstgp4h54kz7g1l847x_b8wc0000gn/T//ccOZGYa7.s:664    .text.dac_stopI:0000000000000000 $t
/var/folders/d2/nstgp4h54kz7g1l847x_b8wc0000gn/T//ccOZGYa7.s:671    .text.dac_stopI:0000000000000000 dac_stopI
/var/folders/d2/nstgp4h54kz7g1l847x_b8wc0000gn/T//ccOZGYa7.s:690    .text.dac_stopI:0000000000000020 $d
/var/folders/d2/nstgp4h54kz7g1l847x_b8wc0000gn/T//ccOZGYa7.s:695    .text.dac_stop:0000000000000000 $t
/var/folders/d2/nstgp4h54kz7g1l847x_b8wc0000gn/T//ccOZGYa7.s:721    .text.dac_stop:0000000000000020 $d
/var/folders/d2/nstgp4h54kz7g1l847x_b8wc0000gn/T//ccOZGYa7.s:726    .text.dac_power_speaker:0000000000000000 $t
/var/folders/d2/nstgp4h54kz7g1l847x_b8wc0000gn/T//ccOZGYa7.s:763    .text.dac_power_speaker:000000000000002c $d
/var/folders/d2/nstgp4h54kz7g1l847x_b8wc0000gn/T//ccOZGYa7.s:766    .bss.dac_config.9867:0000000000000000 $d
/var/folders/d2/nstgp4h54kz7g1l847x_b8wc0000gn/T//ccOZGYa7.s:772    .bss.config.9868:0000000000000000 $d

UNDEFINED SYMBOLS
chSysHalt
dacStart
gptStart
DACD2
GPTD6
dacStartConversion
gptStartContinuous
gptChangeInterval
gptStopTimerI
dacStopConversionI
dacStartConversionI
gptStartContinuousI
gptStopTimer
dacStopConversion
