ARM GAS  /var/folders/d2/nstgp4h54kz7g1l847x_b8wc0000gn/T//cc8ZXph6.s 			page 1


   1              		.cpu cortex-m4
   2              		.eabi_attribute 27, 1
   3              		.eabi_attribute 28, 1
   4              		.eabi_attribute 20, 1
   5              		.eabi_attribute 21, 1
   6              		.eabi_attribute 23, 3
   7              		.eabi_attribute 24, 1
   8              		.eabi_attribute 25, 1
   9              		.eabi_attribute 26, 1
  10              		.eabi_attribute 30, 2
  11              		.eabi_attribute 34, 1
  12              		.eabi_attribute 18, 4
  13              		.file	"audio_thread.c"
  14              		.text
  15              	.Ltext0:
  16              		.cfi_sections	.debug_frame
  17              		.section	.text.error_cb,"ax",%progbits
  18              		.align	1
  19              		.p2align 4,,15
  20              		.syntax unified
  21              		.thumb
  22              		.thumb_func
  23              		.fpu fpv4-sp-d16
  24              		.type	error_cb, %function
  25              	error_cb:
  26              	.LFB256:
  27              		.file 1 "../e-puck2_main-processor/src/audio/audio_thread.c"
  28              		.loc 1 68 0
  29              		.cfi_startproc
  30              		@ args = 0, pretend = 0, frame = 8
  31              		@ frame_needed = 0, uses_anonymous_args = 0
  32              	.LVL0:
  33 0000 00B5     		push	{lr}
  34              		.cfi_def_cfa_offset 4
  35              		.cfi_offset 14, -4
  36 0002 084B     		ldr	r3, .L7
  37 0004 83B0     		sub	sp, sp, #12
  38              		.cfi_def_cfa_offset 16
  39              		.loc 1 68 0
  40 0006 1A68     		ldr	r2, [r3]
  41 0008 0192     		str	r2, [sp, #4]
  42              		.loc 1 73 0
  43 000a 019A     		ldr	r2, [sp, #4]
  44 000c 1B68     		ldr	r3, [r3]
  45 000e 9A42     		cmp	r2, r3
  46 0010 05D1     		bne	.L6
  47 0012 0548     		ldr	r0, .L7+4
  48              	.LVL1:
  49              		.loc 1 74 0
  50 0014 03B0     		add	sp, sp, #12
  51              		.cfi_remember_state
  52              		.cfi_def_cfa_offset 4
  53              		@ sp needed
  54 0016 5DF804EB 		ldr	lr, [sp], #4
  55              		.cfi_restore 14
  56              		.cfi_def_cfa_offset 0
  57              		.loc 1 73 0
ARM GAS  /var/folders/d2/nstgp4h54kz7g1l847x_b8wc0000gn/T//cc8ZXph6.s 			page 2


  58 001a FFF7FEBF 		b	chSysHalt
  59              	.LVL2:
  60              	.L6:
  61              		.cfi_restore_state
  62 001e FFF7FEFF 		bl	__stack_chk_fail
  63              	.LVL3:
  64              	.L8:
  65 0022 00BF     		.align	2
  66              	.L7:
  67 0024 00000000 		.word	__stack_chk_guard
  68 0028 00000000 		.word	.LC0
  69              		.cfi_endproc
  70              	.LFE256:
  71              		.size	error_cb, .-error_cb
  72              		.section	.text.dac_play,"ax",%progbits
  73              		.align	1
  74              		.p2align 4,,15
  75              		.global	dac_play
  76              		.syntax unified
  77              		.thumb
  78              		.thumb_func
  79              		.fpu fpv4-sp-d16
  80              		.type	dac_play, %function
  81              	dac_play:
  82              	.LFB258:
  83              		.loc 1 107 0
  84              		.cfi_startproc
  85              		@ args = 0, pretend = 0, frame = 8
  86              		@ frame_needed = 0, uses_anonymous_args = 0
  87              	.LVL4:
  88 0000 70B5     		push	{r4, r5, r6, lr}
  89              		.cfi_def_cfa_offset 16
  90              		.cfi_offset 4, -16
  91              		.cfi_offset 5, -12
  92              		.cfi_offset 6, -8
  93              		.cfi_offset 14, -4
  94              		.loc 1 108 0
  95 0002 194A     		ldr	r2, .L17
  96              		.loc 1 107 0
  97 0004 194C     		ldr	r4, .L17+4
  98              		.loc 1 108 0
  99 0006 1578     		ldrb	r5, [r2]	@ zero_extendqisi2
 100              		.loc 1 107 0
 101 0008 2368     		ldr	r3, [r4]
 102 000a 82B0     		sub	sp, sp, #8
 103              		.cfi_def_cfa_offset 24
 104              		.loc 1 107 0
 105 000c 0193     		str	r3, [sp, #4]
 106 000e 4FF4B473 		mov	r3, #360
 107 0012 03FB00F6 		mul	r6, r3, r0
 108              		.loc 1 108 0
 109 0016 65B1     		cbz	r5, .L16
 110              		.loc 1 115 0
 111 0018 019A     		ldr	r2, [sp, #4]
 112 001a 2368     		ldr	r3, [r4]
 113 001c 9A42     		cmp	r2, r3
 114 001e 20D1     		bne	.L15
ARM GAS  /var/folders/d2/nstgp4h54kz7g1l847x_b8wc0000gn/T//cc8ZXph6.s 			page 3


 115 0020 1348     		ldr	r0, .L17+8
 116              	.LVL5:
 117 0022 1449     		ldr	r1, .L17+12
 118 0024 B1FBF6F1 		udiv	r1, r1, r6
 119              		.loc 1 117 0
 120 0028 02B0     		add	sp, sp, #8
 121              		.cfi_remember_state
 122              		.cfi_def_cfa_offset 16
 123              		@ sp needed
 124 002a BDE87040 		pop	{r4, r5, r6, lr}
 125              		.cfi_restore 14
 126              		.cfi_restore 6
 127              		.cfi_restore 5
 128              		.cfi_restore 4
 129              		.cfi_def_cfa_offset 0
 130              		.loc 1 115 0
 131 002e FFF7FEBF 		b	gptChangeInterval
 132              	.LVL6:
 133              	.L16:
 134              		.cfi_restore_state
 135              		.loc 1 110 0
 136 0032 1149     		ldr	r1, .L17+16
 137              	.LBB10:
 138              	.LBB11:
 139              		.loc 1 156 0
 140 0034 1148     		ldr	r0, .L17+20
 141              	.LVL7:
 142              	.LBE11:
 143              	.LBE10:
 144              		.loc 1 110 0
 145 0036 4D60     		str	r5, [r1, #4]
 146              	.LVL8:
 147              		.loc 1 109 0
 148 0038 0125     		movs	r5, #1
 149 003a 1570     		strb	r5, [r2]
 150              	.LBB13:
 151              	.LBB12:
 152              		.loc 1 156 0
 153 003c 8022     		movs	r2, #128
 154 003e 4283     		strh	r2, [r0, #26]	@ movhi
 155              	.LVL9:
 156              	.LBE12:
 157              	.LBE13:
 158              		.loc 1 112 0
 159 0040 0F4A     		ldr	r2, .L17+24
 160 0042 1048     		ldr	r0, .L17+28
 161 0044 FFF7FEFF 		bl	dacStartConversion
 162              	.LVL10:
 163              		.loc 1 113 0
 164 0048 019A     		ldr	r2, [sp, #4]
 165 004a 2368     		ldr	r3, [r4]
 166 004c 9A42     		cmp	r2, r3
 167 004e 08D1     		bne	.L15
 168 0050 0748     		ldr	r0, .L17+8
 169 0052 0849     		ldr	r1, .L17+12
 170 0054 B1FBF6F1 		udiv	r1, r1, r6
 171              		.loc 1 117 0
ARM GAS  /var/folders/d2/nstgp4h54kz7g1l847x_b8wc0000gn/T//cc8ZXph6.s 			page 4


 172 0058 02B0     		add	sp, sp, #8
 173              		.cfi_remember_state
 174              		.cfi_def_cfa_offset 16
 175              		@ sp needed
 176 005a BDE87040 		pop	{r4, r5, r6, lr}
 177              		.cfi_restore 14
 178              		.cfi_restore 6
 179              		.cfi_restore 5
 180              		.cfi_restore 4
 181              		.cfi_def_cfa_offset 0
 182              		.loc 1 113 0
 183 005e FFF7FEBF 		b	gptStartContinuous
 184              	.LVL11:
 185              	.L15:
 186              		.cfi_restore_state
 187              		.loc 1 115 0
 188 0062 FFF7FEFF 		bl	__stack_chk_fail
 189              	.LVL12:
 190              	.L18:
 191 0066 00BF     		.align	2
 192              	.L17:
 193 0068 00000000 		.word	.LANCHOR0
 194 006c 00000000 		.word	__stack_chk_guard
 195 0070 00000000 		.word	GPTD6
 196 0074 00BD0105 		.word	84000000
 197 0078 00000000 		.word	.LANCHOR1
 198 007c 000C0240 		.word	1073875968
 199 0080 00000000 		.word	.LANCHOR2
 200 0084 00000000 		.word	DACD2
 201              		.cfi_endproc
 202              	.LFE258:
 203              		.size	dac_play, .-dac_play
 204              		.section	.text.dac_play_buffer,"ax",%progbits
 205              		.align	1
 206              		.p2align 4,,15
 207              		.global	dac_play_buffer
 208              		.syntax unified
 209              		.thumb
 210              		.thumb_func
 211              		.fpu fpv4-sp-d16
 212              		.type	dac_play_buffer, %function
 213              	dac_play_buffer:
 214              	.LFB259:
 215              		.loc 1 119 0
 216              		.cfi_startproc
 217              		@ args = 0, pretend = 0, frame = 8
 218              		@ frame_needed = 0, uses_anonymous_args = 0
 219              	.LVL13:
 220 0000 F0B5     		push	{r4, r5, r6, r7, lr}
 221              		.cfi_def_cfa_offset 20
 222              		.cfi_offset 4, -20
 223              		.cfi_offset 5, -16
 224              		.cfi_offset 6, -12
 225              		.cfi_offset 7, -8
 226              		.cfi_offset 14, -4
 227              		.loc 1 120 0
 228 0002 1A4D     		ldr	r5, .L27
ARM GAS  /var/folders/d2/nstgp4h54kz7g1l847x_b8wc0000gn/T//cc8ZXph6.s 			page 5


 229              		.loc 1 119 0
 230 0004 1A4C     		ldr	r4, .L27+4
 231              		.loc 1 120 0
 232 0006 2E78     		ldrb	r6, [r5]	@ zero_extendqisi2
 233              		.loc 1 119 0
 234 0008 2768     		ldr	r7, [r4]
 235 000a 83B0     		sub	sp, sp, #12
 236              		.cfi_def_cfa_offset 32
 237              		.loc 1 119 0
 238 000c 0197     		str	r7, [sp, #4]
 239 000e 1746     		mov	r7, r2
 240              		.loc 1 120 0
 241 0010 66B1     		cbz	r6, .L26
 242              		.loc 1 127 0
 243 0012 019A     		ldr	r2, [sp, #4]
 244              	.LVL14:
 245 0014 2368     		ldr	r3, [r4]
 246              	.LVL15:
 247 0016 9A42     		cmp	r2, r3
 248 0018 26D1     		bne	.L25
 249 001a 1648     		ldr	r0, .L27+8
 250              	.LVL16:
 251 001c 1649     		ldr	r1, .L27+12
 252              	.LVL17:
 253 001e B1FBF7F1 		udiv	r1, r1, r7
 254              		.loc 1 129 0
 255 0022 03B0     		add	sp, sp, #12
 256              		.cfi_remember_state
 257              		.cfi_def_cfa_offset 20
 258              		@ sp needed
 259 0024 BDE8F040 		pop	{r4, r5, r6, r7, lr}
 260              		.cfi_restore 14
 261              		.cfi_restore 7
 262              		.cfi_restore 6
 263              		.cfi_restore 5
 264              		.cfi_restore 4
 265              		.cfi_def_cfa_offset 0
 266              	.LVL18:
 267              		.loc 1 127 0
 268 0028 FFF7FEBF 		b	gptChangeInterval
 269              	.LVL19:
 270              	.L26:
 271              		.cfi_restore_state
 272              		.loc 1 122 0
 273 002c 134E     		ldr	r6, .L27+16
 274              	.LBB14:
 275              	.LBB15:
 276              		.loc 1 156 0
 277 002e DFF854C0 		ldr	ip, .L27+24
 278              	.LBE15:
 279              	.LBE14:
 280              		.loc 1 122 0
 281 0032 7360     		str	r3, [r6, #4]
 282              	.LVL20:
 283              		.loc 1 124 0
 284 0034 0246     		mov	r2, r0
 285              	.LVL21:
ARM GAS  /var/folders/d2/nstgp4h54kz7g1l847x_b8wc0000gn/T//cc8ZXph6.s 			page 6


 286              		.loc 1 121 0
 287 0036 4FF0010E 		mov	lr, #1
 288              	.LBB18:
 289              	.LBB16:
 290              		.loc 1 156 0
 291 003a 8020     		movs	r0, #128
 292              	.LVL22:
 293              	.LBE16:
 294              	.LBE18:
 295              		.loc 1 124 0
 296 003c 0B46     		mov	r3, r1
 297              	.LVL23:
 298              		.loc 1 121 0
 299 003e 85F800E0 		strb	lr, [r5]
 300              		.loc 1 124 0
 301 0042 3146     		mov	r1, r6
 302              	.LVL24:
 303              	.LBB19:
 304              	.LBB17:
 305              		.loc 1 156 0
 306 0044 ACF81A00 		strh	r0, [ip, #26]	@ movhi
 307              	.LVL25:
 308              	.LBE17:
 309              	.LBE19:
 310              		.loc 1 124 0
 311 0048 0D48     		ldr	r0, .L27+20
 312 004a FFF7FEFF 		bl	dacStartConversion
 313              	.LVL26:
 314              		.loc 1 125 0
 315 004e 019A     		ldr	r2, [sp, #4]
 316 0050 2368     		ldr	r3, [r4]
 317 0052 9A42     		cmp	r2, r3
 318 0054 08D1     		bne	.L25
 319 0056 0748     		ldr	r0, .L27+8
 320 0058 0749     		ldr	r1, .L27+12
 321 005a B1FBF7F1 		udiv	r1, r1, r7
 322              		.loc 1 129 0
 323 005e 03B0     		add	sp, sp, #12
 324              		.cfi_remember_state
 325              		.cfi_def_cfa_offset 20
 326              		@ sp needed
 327 0060 BDE8F040 		pop	{r4, r5, r6, r7, lr}
 328              		.cfi_restore 14
 329              		.cfi_restore 7
 330              		.cfi_restore 6
 331              		.cfi_restore 5
 332              		.cfi_restore 4
 333              		.cfi_def_cfa_offset 0
 334              	.LVL27:
 335              		.loc 1 125 0
 336 0064 FFF7FEBF 		b	gptStartContinuous
 337              	.LVL28:
 338              	.L25:
 339              		.cfi_restore_state
 340              		.loc 1 127 0
 341 0068 FFF7FEFF 		bl	__stack_chk_fail
 342              	.LVL29:
ARM GAS  /var/folders/d2/nstgp4h54kz7g1l847x_b8wc0000gn/T//cc8ZXph6.s 			page 7


 343              	.L28:
 344              		.align	2
 345              	.L27:
 346 006c 00000000 		.word	.LANCHOR0
 347 0070 00000000 		.word	__stack_chk_guard
 348 0074 00000000 		.word	GPTD6
 349 0078 00BD0105 		.word	84000000
 350 007c 00000000 		.word	.LANCHOR1
 351 0080 00000000 		.word	DACD2
 352 0084 000C0240 		.word	1073875968
 353              		.cfi_endproc
 354              	.LFE259:
 355              		.size	dac_play_buffer, .-dac_play_buffer
 356              		.section	.text.dac_change_bufferI,"ax",%progbits
 357              		.align	1
 358              		.p2align 4,,15
 359              		.global	dac_change_bufferI
 360              		.syntax unified
 361              		.thumb
 362              		.thumb_func
 363              		.fpu fpv4-sp-d16
 364              		.type	dac_change_bufferI, %function
 365              	dac_change_bufferI:
 366              	.LFB260:
 367              		.loc 1 131 0
 368              		.cfi_startproc
 369              		@ args = 0, pretend = 0, frame = 8
 370              		@ frame_needed = 0, uses_anonymous_args = 0
 371              	.LVL30:
 372 0000 F0B5     		push	{r4, r5, r6, r7, lr}
 373              		.cfi_def_cfa_offset 20
 374              		.cfi_offset 4, -20
 375              		.cfi_offset 5, -16
 376              		.cfi_offset 6, -12
 377              		.cfi_offset 7, -8
 378              		.cfi_offset 14, -4
 379 0002 114C     		ldr	r4, .L34
 380 0004 83B0     		sub	sp, sp, #12
 381              		.cfi_def_cfa_offset 32
 382              		.loc 1 131 0
 383 0006 2368     		ldr	r3, [r4]
 384 0008 0193     		str	r3, [sp, #4]
 385 000a 0546     		mov	r5, r0
 386              		.loc 1 132 0
 387 000c 0F48     		ldr	r0, .L34+4
 388              	.LVL31:
 389              		.loc 1 131 0
 390 000e 0E46     		mov	r6, r1
 391 0010 1746     		mov	r7, r2
 392              		.loc 1 132 0
 393 0012 FFF7FEFF 		bl	gptStopTimerI
 394              	.LVL32:
 395              		.loc 1 133 0
 396 0016 0E48     		ldr	r0, .L34+8
 397 0018 FFF7FEFF 		bl	dacStopConversionI
 398              	.LVL33:
 399              		.loc 1 135 0
ARM GAS  /var/folders/d2/nstgp4h54kz7g1l847x_b8wc0000gn/T//cc8ZXph6.s 			page 8


 400 001c 3346     		mov	r3, r6
 401 001e 2A46     		mov	r2, r5
 402 0020 0C49     		ldr	r1, .L34+12
 403 0022 0B48     		ldr	r0, .L34+8
 404 0024 FFF7FEFF 		bl	dacStartConversionI
 405              	.LVL34:
 406              		.loc 1 136 0
 407 0028 019A     		ldr	r2, [sp, #4]
 408 002a 2368     		ldr	r3, [r4]
 409 002c 9A42     		cmp	r2, r3
 410 002e 08D1     		bne	.L33
 411 0030 0648     		ldr	r0, .L34+4
 412 0032 0949     		ldr	r1, .L34+16
 413 0034 B1FBF7F1 		udiv	r1, r1, r7
 414              		.loc 1 138 0
 415 0038 03B0     		add	sp, sp, #12
 416              		.cfi_remember_state
 417              		.cfi_def_cfa_offset 20
 418              		@ sp needed
 419 003a BDE8F040 		pop	{r4, r5, r6, r7, lr}
 420              		.cfi_restore 14
 421              		.cfi_restore 7
 422              		.cfi_restore 6
 423              		.cfi_restore 5
 424              		.cfi_restore 4
 425              		.cfi_def_cfa_offset 0
 426              	.LVL35:
 427              		.loc 1 136 0
 428 003e FFF7FEBF 		b	gptStartContinuousI
 429              	.LVL36:
 430              	.L33:
 431              		.cfi_restore_state
 432 0042 FFF7FEFF 		bl	__stack_chk_fail
 433              	.LVL37:
 434              	.L35:
 435 0046 00BF     		.align	2
 436              	.L34:
 437 0048 00000000 		.word	__stack_chk_guard
 438 004c 00000000 		.word	GPTD6
 439 0050 00000000 		.word	DACD2
 440 0054 00000000 		.word	.LANCHOR1
 441 0058 00BD0105 		.word	84000000
 442              		.cfi_endproc
 443              	.LFE260:
 444              		.size	dac_change_bufferI, .-dac_change_bufferI
 445              		.section	.text.dac_stopI,"ax",%progbits
 446              		.align	1
 447              		.p2align 4,,15
 448              		.global	dac_stopI
 449              		.syntax unified
 450              		.thumb
 451              		.thumb_func
 452              		.fpu fpv4-sp-d16
 453              		.type	dac_stopI, %function
 454              	dac_stopI:
 455              	.LFB261:
 456              		.loc 1 140 0
ARM GAS  /var/folders/d2/nstgp4h54kz7g1l847x_b8wc0000gn/T//cc8ZXph6.s 			page 9


 457              		.cfi_startproc
 458              		@ args = 0, pretend = 0, frame = 8
 459              		@ frame_needed = 0, uses_anonymous_args = 0
 460 0000 10B5     		push	{r4, lr}
 461              		.cfi_def_cfa_offset 8
 462              		.cfi_offset 4, -8
 463              		.cfi_offset 14, -4
 464 0002 0C4C     		ldr	r4, .L40
 465              	.LBB20:
 466              	.LBB21:
 467              		.loc 1 158 0
 468 0004 0C4B     		ldr	r3, .L40+4
 469              	.LBE21:
 470              	.LBE20:
 471              		.loc 1 140 0
 472 0006 2268     		ldr	r2, [r4]
 473              		.loc 1 142 0
 474 0008 0C48     		ldr	r0, .L40+8
 475              		.loc 1 140 0
 476 000a 82B0     		sub	sp, sp, #8
 477              		.cfi_def_cfa_offset 16
 478              		.loc 1 140 0
 479 000c 0192     		str	r2, [sp, #4]
 480              	.LVL38:
 481              	.LBB23:
 482              	.LBB22:
 483              		.loc 1 158 0
 484 000e 8022     		movs	r2, #128
 485 0010 1A83     		strh	r2, [r3, #24]	@ movhi
 486              	.LVL39:
 487              	.LBE22:
 488              	.LBE23:
 489              		.loc 1 142 0
 490 0012 FFF7FEFF 		bl	gptStopTimerI
 491              	.LVL40:
 492              		.loc 1 143 0
 493 0016 0A48     		ldr	r0, .L40+12
 494 0018 FFF7FEFF 		bl	dacStopConversionI
 495              	.LVL41:
 496              		.loc 1 145 0
 497 001c 019A     		ldr	r2, [sp, #4]
 498 001e 2368     		ldr	r3, [r4]
 499              		.loc 1 144 0
 500 0020 0849     		ldr	r1, .L40+16
 501 0022 0020     		movs	r0, #0
 502              		.loc 1 145 0
 503 0024 9A42     		cmp	r2, r3
 504              		.loc 1 144 0
 505 0026 0870     		strb	r0, [r1]
 506              		.loc 1 145 0
 507 0028 01D1     		bne	.L39
 508 002a 02B0     		add	sp, sp, #8
 509              		.cfi_remember_state
 510              		.cfi_def_cfa_offset 8
 511              		@ sp needed
 512 002c 10BD     		pop	{r4, pc}
 513              	.L39:
ARM GAS  /var/folders/d2/nstgp4h54kz7g1l847x_b8wc0000gn/T//cc8ZXph6.s 			page 10


 514              		.cfi_restore_state
 515 002e FFF7FEFF 		bl	__stack_chk_fail
 516              	.LVL42:
 517              	.L41:
 518 0032 00BF     		.align	2
 519              	.L40:
 520 0034 00000000 		.word	__stack_chk_guard
 521 0038 000C0240 		.word	1073875968
 522 003c 00000000 		.word	GPTD6
 523 0040 00000000 		.word	DACD2
 524 0044 00000000 		.word	.LANCHOR0
 525              		.cfi_endproc
 526              	.LFE261:
 527              		.size	dac_stopI, .-dac_stopI
 528              		.section	.text.dac_stop,"ax",%progbits
 529              		.align	1
 530              		.p2align 4,,15
 531              		.global	dac_stop
 532              		.syntax unified
 533              		.thumb
 534              		.thumb_func
 535              		.fpu fpv4-sp-d16
 536              		.type	dac_stop, %function
 537              	dac_stop:
 538              	.LFB262:
 539              		.loc 1 147 0
 540              		.cfi_startproc
 541              		@ args = 0, pretend = 0, frame = 8
 542              		@ frame_needed = 0, uses_anonymous_args = 0
 543 0000 10B5     		push	{r4, lr}
 544              		.cfi_def_cfa_offset 8
 545              		.cfi_offset 4, -8
 546              		.cfi_offset 14, -4
 547 0002 0C4C     		ldr	r4, .L46
 548              	.LBB24:
 549              	.LBB25:
 550              		.loc 1 158 0
 551 0004 0C4B     		ldr	r3, .L46+4
 552              	.LBE25:
 553              	.LBE24:
 554              		.loc 1 147 0
 555 0006 2268     		ldr	r2, [r4]
 556              		.loc 1 149 0
 557 0008 0C48     		ldr	r0, .L46+8
 558              		.loc 1 147 0
 559 000a 82B0     		sub	sp, sp, #8
 560              		.cfi_def_cfa_offset 16
 561              		.loc 1 147 0
 562 000c 0192     		str	r2, [sp, #4]
 563              	.LVL43:
 564              	.LBB27:
 565              	.LBB26:
 566              		.loc 1 158 0
 567 000e 8022     		movs	r2, #128
 568 0010 1A83     		strh	r2, [r3, #24]	@ movhi
 569              	.LVL44:
 570              	.LBE26:
ARM GAS  /var/folders/d2/nstgp4h54kz7g1l847x_b8wc0000gn/T//cc8ZXph6.s 			page 11


 571              	.LBE27:
 572              		.loc 1 149 0
 573 0012 FFF7FEFF 		bl	gptStopTimer
 574              	.LVL45:
 575              		.loc 1 150 0
 576 0016 0A48     		ldr	r0, .L46+12
 577 0018 FFF7FEFF 		bl	dacStopConversion
 578              	.LVL46:
 579              		.loc 1 152 0
 580 001c 019A     		ldr	r2, [sp, #4]
 581 001e 2368     		ldr	r3, [r4]
 582              		.loc 1 151 0
 583 0020 0849     		ldr	r1, .L46+16
 584 0022 0020     		movs	r0, #0
 585              		.loc 1 152 0
 586 0024 9A42     		cmp	r2, r3
 587              		.loc 1 151 0
 588 0026 0870     		strb	r0, [r1]
 589              		.loc 1 152 0
 590 0028 01D1     		bne	.L45
 591 002a 02B0     		add	sp, sp, #8
 592              		.cfi_remember_state
 593              		.cfi_def_cfa_offset 8
 594              		@ sp needed
 595 002c 10BD     		pop	{r4, pc}
 596              	.L45:
 597              		.cfi_restore_state
 598 002e FFF7FEFF 		bl	__stack_chk_fail
 599              	.LVL47:
 600              	.L47:
 601 0032 00BF     		.align	2
 602              	.L46:
 603 0034 00000000 		.word	__stack_chk_guard
 604 0038 000C0240 		.word	1073875968
 605 003c 00000000 		.word	GPTD6
 606 0040 00000000 		.word	DACD2
 607 0044 00000000 		.word	.LANCHOR0
 608              		.cfi_endproc
 609              	.LFE262:
 610              		.size	dac_stop, .-dac_stop
 611              		.section	.text.dac_start,"ax",%progbits
 612              		.align	1
 613              		.p2align 4,,15
 614              		.global	dac_start
 615              		.syntax unified
 616              		.thumb
 617              		.thumb_func
 618              		.fpu fpv4-sp-d16
 619              		.type	dac_start, %function
 620              	dac_start:
 621              	.LFB257:
 622              		.loc 1 81 0
 623              		.cfi_startproc
 624              		@ args = 0, pretend = 0, frame = 8
 625              		@ frame_needed = 0, uses_anonymous_args = 0
 626 0000 70B5     		push	{r4, r5, r6, lr}
 627              		.cfi_def_cfa_offset 16
ARM GAS  /var/folders/d2/nstgp4h54kz7g1l847x_b8wc0000gn/T//cc8ZXph6.s 			page 12


 628              		.cfi_offset 4, -16
 629              		.cfi_offset 5, -12
 630              		.cfi_offset 6, -8
 631              		.cfi_offset 14, -4
 632 0002 154D     		ldr	r5, .L53
 633              		.loc 1 88 0
 634 0004 154A     		ldr	r2, .L53+4
 635              		.loc 1 82 0
 636 0006 164B     		ldr	r3, .L53+8
 637              		.loc 1 81 0
 638 0008 2968     		ldr	r1, [r5]
 639              		.loc 1 84 0
 640 000a 164E     		ldr	r6, .L53+12
 641 000c 9E60     		str	r6, [r3, #8]
 642              		.loc 1 81 0
 643 000e 82B0     		sub	sp, sp, #8
 644              		.cfi_def_cfa_offset 24
 645              		.loc 1 83 0
 646 0010 0024     		movs	r4, #0
 647              		.loc 1 88 0
 648 0012 4FF40060 		mov	r0, #2048
 649 0016 1080     		strh	r0, [r2]	@ movhi
 650              		.loc 1 81 0
 651 0018 0191     		str	r1, [sp, #4]
 652              		.loc 1 89 0
 653 001a 9470     		strb	r4, [r2, #2]
 654              		.loc 1 91 0
 655 001c 1146     		mov	r1, r2
 656 001e 1248     		ldr	r0, .L53+16
 657              		.loc 1 83 0
 658 0020 5C60     		str	r4, [r3, #4]
 659              		.loc 1 82 0
 660 0022 0122     		movs	r2, #1
 661 0024 1A60     		str	r2, [r3]
 662              		.loc 1 85 0
 663 0026 DC60     		str	r4, [r3, #12]
 664              		.loc 1 91 0
 665 0028 FFF7FEFF 		bl	dacStart
 666              	.LVL48:
 667              		.loc 1 95 0
 668 002c 0F4B     		ldr	r3, .L53+20
 669 002e 104E     		ldr	r6, .L53+24
 670              		.loc 1 100 0
 671 0030 1048     		ldr	r0, .L53+28
 672              		.loc 1 96 0
 673 0032 5C60     		str	r4, [r3, #4]
 674              		.loc 1 97 0
 675 0034 2022     		movs	r2, #32
 676              		.loc 1 100 0
 677 0036 1946     		mov	r1, r3
 678              		.loc 1 97 0
 679 0038 9A60     		str	r2, [r3, #8]
 680              		.loc 1 98 0
 681 003a DC60     		str	r4, [r3, #12]
 682              		.loc 1 95 0
 683 003c 1E60     		str	r6, [r3]
 684              		.loc 1 100 0
ARM GAS  /var/folders/d2/nstgp4h54kz7g1l847x_b8wc0000gn/T//cc8ZXph6.s 			page 13


 685 003e FFF7FEFF 		bl	gptStart
 686              	.LVL49:
 687              		.loc 1 103 0
 688 0042 019A     		ldr	r2, [sp, #4]
 689 0044 2B68     		ldr	r3, [r5]
 690 0046 9A42     		cmp	r2, r3
 691 0048 04D1     		bne	.L52
 692              		.loc 1 105 0
 693 004a 02B0     		add	sp, sp, #8
 694              		.cfi_remember_state
 695              		.cfi_def_cfa_offset 16
 696              		@ sp needed
 697 004c BDE87040 		pop	{r4, r5, r6, lr}
 698              		.cfi_restore 14
 699              		.cfi_restore 6
 700              		.cfi_restore 5
 701              		.cfi_restore 4
 702              		.cfi_def_cfa_offset 0
 703              		.loc 1 103 0
 704 0050 FFF7FEBF 		b	dac_stop
 705              	.LVL50:
 706              	.L52:
 707              		.cfi_restore_state
 708 0054 FFF7FEFF 		bl	__stack_chk_fail
 709              	.LVL51:
 710              	.L54:
 711              		.align	2
 712              	.L53:
 713 0058 00000000 		.word	__stack_chk_guard
 714 005c 00000000 		.word	.LANCHOR3
 715 0060 00000000 		.word	.LANCHOR1
 716 0064 00000000 		.word	error_cb
 717 0068 00000000 		.word	DACD2
 718 006c 00000000 		.word	.LANCHOR4
 719 0070 00BD0105 		.word	84000000
 720 0074 00000000 		.word	GPTD6
 721              		.cfi_endproc
 722              	.LFE257:
 723              		.size	dac_start, .-dac_start
 724              		.section	.text.dac_power_speaker,"ax",%progbits
 725              		.align	1
 726              		.p2align 4,,15
 727              		.global	dac_power_speaker
 728              		.syntax unified
 729              		.thumb
 730              		.thumb_func
 731              		.fpu fpv4-sp-d16
 732              		.type	dac_power_speaker, %function
 733              	dac_power_speaker:
 734              	.LFB263:
 735              		.loc 1 154 0
 736              		.cfi_startproc
 737              		@ args = 0, pretend = 0, frame = 8
 738              		@ frame_needed = 0, uses_anonymous_args = 0
 739              	.LVL52:
 740 0000 00B5     		push	{lr}
 741              		.cfi_def_cfa_offset 4
ARM GAS  /var/folders/d2/nstgp4h54kz7g1l847x_b8wc0000gn/T//cc8ZXph6.s 			page 14


 742              		.cfi_offset 14, -4
 743 0002 094B     		ldr	r3, .L62
 744 0004 83B0     		sub	sp, sp, #12
 745              		.cfi_def_cfa_offset 16
 746              		.loc 1 154 0
 747 0006 1A68     		ldr	r2, [r3]
 748 0008 0192     		str	r2, [sp, #4]
 749              		.loc 1 156 0
 750 000a 8021     		movs	r1, #128
 751 000c 074A     		ldr	r2, .L62+4
 752              		.loc 1 155 0
 753 000e 38B9     		cbnz	r0, .L60
 754              		.loc 1 158 0
 755 0010 1183     		strh	r1, [r2, #24]	@ movhi
 756              	.L55:
 757              		.loc 1 160 0
 758 0012 019A     		ldr	r2, [sp, #4]
 759 0014 1B68     		ldr	r3, [r3]
 760 0016 9A42     		cmp	r2, r3
 761 0018 04D1     		bne	.L61
 762 001a 03B0     		add	sp, sp, #12
 763              		.cfi_remember_state
 764              		.cfi_def_cfa_offset 4
 765              		@ sp needed
 766 001c 5DF804FB 		ldr	pc, [sp], #4
 767              	.L60:
 768              		.cfi_restore_state
 769              		.loc 1 156 0
 770 0020 5183     		strh	r1, [r2, #26]	@ movhi
 771 0022 F6E7     		b	.L55
 772              	.L61:
 773              		.loc 1 160 0
 774 0024 FFF7FEFF 		bl	__stack_chk_fail
 775              	.LVL53:
 776              	.L63:
 777              		.align	2
 778              	.L62:
 779 0028 00000000 		.word	__stack_chk_guard
 780 002c 000C0240 		.word	1073875968
 781              		.cfi_endproc
 782              	.LFE263:
 783              		.size	dac_power_speaker, .-dac_power_speaker
 784              		.section	.bss.config.9868,"aw",%nobits
 785              		.align	2
 786              		.set	.LANCHOR4,. + 0
 787              		.type	config.9868, %object
 788              		.size	config.9868, 16
 789              	config.9868:
 790 0000 00000000 		.space	16
 790      00000000 
 790      00000000 
 790      00000000 
 791              		.section	.bss.dac_config.9867,"aw",%nobits
 792              		.align	2
 793              		.set	.LANCHOR3,. + 0
 794              		.type	dac_config.9867, %object
 795              		.size	dac_config.9867, 4
ARM GAS  /var/folders/d2/nstgp4h54kz7g1l847x_b8wc0000gn/T//cc8ZXph6.s 			page 15


 796              	dac_config.9867:
 797 0000 00000000 		.space	4
 798              		.section	.bss.dac_conversion,"aw",%nobits
 799              		.align	2
 800              		.set	.LANCHOR1,. + 0
 801              		.type	dac_conversion, %object
 802              		.size	dac_conversion, 16
 803              	dac_conversion:
 804 0000 00000000 		.space	16
 804      00000000 
 804      00000000 
 804      00000000 
 805              		.section	.bss.dac_state,"aw",%nobits
 806              		.set	.LANCHOR0,. + 0
 807              		.type	dac_state, %object
 808              		.size	dac_state, 1
 809              	dac_state:
 810 0000 00       		.space	1
 811              		.section	.rodata.error_cb.str1.4,"aMS",%progbits,1
 812              		.align	2
 813              	.LC0:
 814 0000 44414320 		.ascii	"DAC failure\000"
 814      6661696C 
 814      75726500 
 815              		.section	.rodata.sinus_buffer,"a",%progbits
 816              		.align	2
 817              		.set	.LANCHOR2,. + 0
 818              		.type	sinus_buffer, %object
 819              		.size	sinus_buffer, 720
 820              	sinus_buffer:
 821 0000 FF07     		.short	2047
 822 0002 0408     		.short	2052
 823 0004 0808     		.short	2056
 824 0006 0D08     		.short	2061
 825 0008 1108     		.short	2065
 826 000a 1608     		.short	2070
 827 000c 1A08     		.short	2074
 828 000e 1F08     		.short	2079
 829 0010 2308     		.short	2083
 830 0012 2708     		.short	2087
 831 0014 2C08     		.short	2092
 832 0016 3008     		.short	2096
 833 0018 3508     		.short	2101
 834 001a 3908     		.short	2105
 835 001c 3D08     		.short	2109
 836 001e 4208     		.short	2114
 837 0020 4608     		.short	2118
 838 0022 4A08     		.short	2122
 839 0024 4E08     		.short	2126
 840 0026 5308     		.short	2131
 841 0028 5708     		.short	2135
 842 002a 5B08     		.short	2139
 843 002c 5F08     		.short	2143
 844 002e 6308     		.short	2147
 845 0030 6708     		.short	2151
 846 0032 6C08     		.short	2156
 847 0034 7008     		.short	2160
ARM GAS  /var/folders/d2/nstgp4h54kz7g1l847x_b8wc0000gn/T//cc8ZXph6.s 			page 16


 848 0036 7408     		.short	2164
 849 0038 7808     		.short	2168
 850 003a 7B08     		.short	2171
 851 003c 7F08     		.short	2175
 852 003e 8308     		.short	2179
 853 0040 8708     		.short	2183
 854 0042 8B08     		.short	2187
 855 0044 8E08     		.short	2190
 856 0046 9208     		.short	2194
 857 0048 9608     		.short	2198
 858 004a 9908     		.short	2201
 859 004c 9D08     		.short	2205
 860 004e A008     		.short	2208
 861 0050 A408     		.short	2212
 862 0052 A708     		.short	2215
 863 0054 AB08     		.short	2219
 864 0056 AE08     		.short	2222
 865 0058 B108     		.short	2225
 866 005a B408     		.short	2228
 867 005c B708     		.short	2231
 868 005e BB08     		.short	2235
 869 0060 BE08     		.short	2238
 870 0062 C008     		.short	2240
 871 0064 C308     		.short	2243
 872 0066 C608     		.short	2246
 873 0068 C908     		.short	2249
 874 006a CC08     		.short	2252
 875 006c CE08     		.short	2254
 876 006e D108     		.short	2257
 877 0070 D408     		.short	2260
 878 0072 D608     		.short	2262
 879 0074 D808     		.short	2264
 880 0076 DB08     		.short	2267
 881 0078 DD08     		.short	2269
 882 007a DF08     		.short	2271
 883 007c E108     		.short	2273
 884 007e E308     		.short	2275
 885 0080 E508     		.short	2277
 886 0082 E708     		.short	2279
 887 0084 E908     		.short	2281
 888 0086 EB08     		.short	2283
 889 0088 ED08     		.short	2285
 890 008a EE08     		.short	2286
 891 008c F008     		.short	2288
 892 008e F108     		.short	2289
 893 0090 F308     		.short	2291
 894 0092 F408     		.short	2292
 895 0094 F508     		.short	2293
 896 0096 F708     		.short	2295
 897 0098 F808     		.short	2296
 898 009a F908     		.short	2297
 899 009c FA08     		.short	2298
 900 009e FB08     		.short	2299
 901 00a0 FB08     		.short	2299
 902 00a2 FC08     		.short	2300
 903 00a4 FD08     		.short	2301
 904 00a6 FD08     		.short	2301
ARM GAS  /var/folders/d2/nstgp4h54kz7g1l847x_b8wc0000gn/T//cc8ZXph6.s 			page 17


 905 00a8 FE08     		.short	2302
 906 00aa FE08     		.short	2302
 907 00ac FF08     		.short	2303
 908 00ae FF08     		.short	2303
 909 00b0 FF08     		.short	2303
 910 00b2 FF08     		.short	2303
 911 00b4 FF08     		.short	2303
 912 00b6 FF08     		.short	2303
 913 00b8 FF08     		.short	2303
 914 00ba FF08     		.short	2303
 915 00bc FF08     		.short	2303
 916 00be FE08     		.short	2302
 917 00c0 FE08     		.short	2302
 918 00c2 FD08     		.short	2301
 919 00c4 FD08     		.short	2301
 920 00c6 FC08     		.short	2300
 921 00c8 FB08     		.short	2299
 922 00ca FB08     		.short	2299
 923 00cc FA08     		.short	2298
 924 00ce F908     		.short	2297
 925 00d0 F808     		.short	2296
 926 00d2 F708     		.short	2295
 927 00d4 F508     		.short	2293
 928 00d6 F408     		.short	2292
 929 00d8 F308     		.short	2291
 930 00da F108     		.short	2289
 931 00dc F008     		.short	2288
 932 00de EE08     		.short	2286
 933 00e0 ED08     		.short	2285
 934 00e2 EB08     		.short	2283
 935 00e4 E908     		.short	2281
 936 00e6 E708     		.short	2279
 937 00e8 E508     		.short	2277
 938 00ea E308     		.short	2275
 939 00ec E108     		.short	2273
 940 00ee DF08     		.short	2271
 941 00f0 DD08     		.short	2269
 942 00f2 DB08     		.short	2267
 943 00f4 D808     		.short	2264
 944 00f6 D608     		.short	2262
 945 00f8 D408     		.short	2260
 946 00fa D108     		.short	2257
 947 00fc CE08     		.short	2254
 948 00fe CC08     		.short	2252
 949 0100 C908     		.short	2249
 950 0102 C608     		.short	2246
 951 0104 C308     		.short	2243
 952 0106 C008     		.short	2240
 953 0108 BE08     		.short	2238
 954 010a BB08     		.short	2235
 955 010c B708     		.short	2231
 956 010e B408     		.short	2228
 957 0110 B108     		.short	2225
 958 0112 AE08     		.short	2222
 959 0114 AB08     		.short	2219
 960 0116 A708     		.short	2215
 961 0118 A408     		.short	2212
ARM GAS  /var/folders/d2/nstgp4h54kz7g1l847x_b8wc0000gn/T//cc8ZXph6.s 			page 18


 962 011a A008     		.short	2208
 963 011c 9D08     		.short	2205
 964 011e 9908     		.short	2201
 965 0120 9608     		.short	2198
 966 0122 9208     		.short	2194
 967 0124 8E08     		.short	2190
 968 0126 8B08     		.short	2187
 969 0128 8708     		.short	2183
 970 012a 8308     		.short	2179
 971 012c 7F08     		.short	2175
 972 012e 7B08     		.short	2171
 973 0130 7808     		.short	2168
 974 0132 7408     		.short	2164
 975 0134 7008     		.short	2160
 976 0136 6C08     		.short	2156
 977 0138 6708     		.short	2151
 978 013a 6308     		.short	2147
 979 013c 5F08     		.short	2143
 980 013e 5B08     		.short	2139
 981 0140 5708     		.short	2135
 982 0142 5308     		.short	2131
 983 0144 4E08     		.short	2126
 984 0146 4A08     		.short	2122
 985 0148 4608     		.short	2118
 986 014a 4208     		.short	2114
 987 014c 3D08     		.short	2109
 988 014e 3908     		.short	2105
 989 0150 3508     		.short	2101
 990 0152 3008     		.short	2096
 991 0154 2C08     		.short	2092
 992 0156 2708     		.short	2087
 993 0158 2308     		.short	2083
 994 015a 1F08     		.short	2079
 995 015c 1A08     		.short	2074
 996 015e 1608     		.short	2070
 997 0160 1108     		.short	2065
 998 0162 0D08     		.short	2061
 999 0164 0808     		.short	2056
 1000 0166 0408     		.short	2052
 1001 0168 FF07     		.short	2047
 1002 016a FB07     		.short	2043
 1003 016c F707     		.short	2039
 1004 016e F207     		.short	2034
 1005 0170 EE07     		.short	2030
 1006 0172 E907     		.short	2025
 1007 0174 E507     		.short	2021
 1008 0176 E007     		.short	2016
 1009 0178 DC07     		.short	2012
 1010 017a D707     		.short	2007
 1011 017c D307     		.short	2003
 1012 017e CF07     		.short	1999
 1013 0180 CA07     		.short	1994
 1014 0182 C607     		.short	1990
 1015 0184 C207     		.short	1986
 1016 0186 BD07     		.short	1981
 1017 0188 B907     		.short	1977
 1018 018a B507     		.short	1973
ARM GAS  /var/folders/d2/nstgp4h54kz7g1l847x_b8wc0000gn/T//cc8ZXph6.s 			page 19


 1019 018c B007     		.short	1968
 1020 018e AC07     		.short	1964
 1021 0190 A807     		.short	1960
 1022 0192 A407     		.short	1956
 1023 0194 A007     		.short	1952
 1024 0196 9C07     		.short	1948
 1025 0198 9707     		.short	1943
 1026 019a 9307     		.short	1939
 1027 019c 8F07     		.short	1935
 1028 019e 8B07     		.short	1931
 1029 01a0 8707     		.short	1927
 1030 01a2 8307     		.short	1923
 1031 01a4 8007     		.short	1920
 1032 01a6 7C07     		.short	1916
 1033 01a8 7807     		.short	1912
 1034 01aa 7407     		.short	1908
 1035 01ac 7007     		.short	1904
 1036 01ae 6D07     		.short	1901
 1037 01b0 6907     		.short	1897
 1038 01b2 6607     		.short	1894
 1039 01b4 6207     		.short	1890
 1040 01b6 5E07     		.short	1886
 1041 01b8 5B07     		.short	1883
 1042 01ba 5807     		.short	1880
 1043 01bc 5407     		.short	1876
 1044 01be 5107     		.short	1873
 1045 01c0 4E07     		.short	1870
 1046 01c2 4B07     		.short	1867
 1047 01c4 4707     		.short	1863
 1048 01c6 4407     		.short	1860
 1049 01c8 4107     		.short	1857
 1050 01ca 3E07     		.short	1854
 1051 01cc 3B07     		.short	1851
 1052 01ce 3907     		.short	1849
 1053 01d0 3607     		.short	1846
 1054 01d2 3307     		.short	1843
 1055 01d4 3007     		.short	1840
 1056 01d6 2E07     		.short	1838
 1057 01d8 2B07     		.short	1835
 1058 01da 2907     		.short	1833
 1059 01dc 2707     		.short	1831
 1060 01de 2407     		.short	1828
 1061 01e0 2207     		.short	1826
 1062 01e2 2007     		.short	1824
 1063 01e4 1E07     		.short	1822
 1064 01e6 1C07     		.short	1820
 1065 01e8 1A07     		.short	1818
 1066 01ea 1807     		.short	1816
 1067 01ec 1607     		.short	1814
 1068 01ee 1407     		.short	1812
 1069 01f0 1207     		.short	1810
 1070 01f2 1107     		.short	1809
 1071 01f4 0F07     		.short	1807
 1072 01f6 0E07     		.short	1806
 1073 01f8 0C07     		.short	1804
 1074 01fa 0B07     		.short	1803
 1075 01fc 0A07     		.short	1802
ARM GAS  /var/folders/d2/nstgp4h54kz7g1l847x_b8wc0000gn/T//cc8ZXph6.s 			page 20


 1076 01fe 0807     		.short	1800
 1077 0200 0707     		.short	1799
 1078 0202 0607     		.short	1798
 1079 0204 0507     		.short	1797
 1080 0206 0407     		.short	1796
 1081 0208 0407     		.short	1796
 1082 020a 0307     		.short	1795
 1083 020c 0207     		.short	1794
 1084 020e 0207     		.short	1794
 1085 0210 0107     		.short	1793
 1086 0212 0107     		.short	1793
 1087 0214 0007     		.short	1792
 1088 0216 0007     		.short	1792
 1089 0218 0007     		.short	1792
 1090 021a 0007     		.short	1792
 1091 021c 0007     		.short	1792
 1092 021e 0007     		.short	1792
 1093 0220 0007     		.short	1792
 1094 0222 0007     		.short	1792
 1095 0224 0007     		.short	1792
 1096 0226 0107     		.short	1793
 1097 0228 0107     		.short	1793
 1098 022a 0207     		.short	1794
 1099 022c 0207     		.short	1794
 1100 022e 0307     		.short	1795
 1101 0230 0407     		.short	1796
 1102 0232 0407     		.short	1796
 1103 0234 0507     		.short	1797
 1104 0236 0607     		.short	1798
 1105 0238 0707     		.short	1799
 1106 023a 0807     		.short	1800
 1107 023c 0A07     		.short	1802
 1108 023e 0B07     		.short	1803
 1109 0240 0C07     		.short	1804
 1110 0242 0E07     		.short	1806
 1111 0244 0F07     		.short	1807
 1112 0246 1107     		.short	1809
 1113 0248 1207     		.short	1810
 1114 024a 1407     		.short	1812
 1115 024c 1607     		.short	1814
 1116 024e 1807     		.short	1816
 1117 0250 1A07     		.short	1818
 1118 0252 1C07     		.short	1820
 1119 0254 1E07     		.short	1822
 1120 0256 2007     		.short	1824
 1121 0258 2207     		.short	1826
 1122 025a 2407     		.short	1828
 1123 025c 2707     		.short	1831
 1124 025e 2907     		.short	1833
 1125 0260 2B07     		.short	1835
 1126 0262 2E07     		.short	1838
 1127 0264 3007     		.short	1840
 1128 0266 3307     		.short	1843
 1129 0268 3607     		.short	1846
 1130 026a 3907     		.short	1849
 1131 026c 3B07     		.short	1851
 1132 026e 3E07     		.short	1854
ARM GAS  /var/folders/d2/nstgp4h54kz7g1l847x_b8wc0000gn/T//cc8ZXph6.s 			page 21


 1133 0270 4107     		.short	1857
 1134 0272 4407     		.short	1860
 1135 0274 4707     		.short	1863
 1136 0276 4B07     		.short	1867
 1137 0278 4E07     		.short	1870
 1138 027a 5107     		.short	1873
 1139 027c 5407     		.short	1876
 1140 027e 5807     		.short	1880
 1141 0280 5B07     		.short	1883
 1142 0282 5E07     		.short	1886
 1143 0284 6207     		.short	1890
 1144 0286 6607     		.short	1894
 1145 0288 6907     		.short	1897
 1146 028a 6D07     		.short	1901
 1147 028c 7007     		.short	1904
 1148 028e 7407     		.short	1908
 1149 0290 7807     		.short	1912
 1150 0292 7C07     		.short	1916
 1151 0294 8007     		.short	1920
 1152 0296 8307     		.short	1923
 1153 0298 8707     		.short	1927
 1154 029a 8B07     		.short	1931
 1155 029c 8F07     		.short	1935
 1156 029e 9307     		.short	1939
 1157 02a0 9707     		.short	1943
 1158 02a2 9C07     		.short	1948
 1159 02a4 A007     		.short	1952
 1160 02a6 A407     		.short	1956
 1161 02a8 A807     		.short	1960
 1162 02aa AC07     		.short	1964
 1163 02ac B007     		.short	1968
 1164 02ae B507     		.short	1973
 1165 02b0 B907     		.short	1977
 1166 02b2 BD07     		.short	1981
 1167 02b4 C207     		.short	1986
 1168 02b6 C607     		.short	1990
 1169 02b8 CA07     		.short	1994
 1170 02ba CF07     		.short	1999
 1171 02bc D307     		.short	2003
 1172 02be D707     		.short	2007
 1173 02c0 DC07     		.short	2012
 1174 02c2 E007     		.short	2016
 1175 02c4 E507     		.short	2021
 1176 02c6 E907     		.short	2025
 1177 02c8 EE07     		.short	2030
 1178 02ca F207     		.short	2034
 1179 02cc F707     		.short	2039
 1180 02ce FB07     		.short	2043
 1181              		.text
 1182              	.Letext0:
 1183              		.file 2 "/Applications/Eclipse_e-puck2.app/Contents/Eclipse_e-puck2/Tools/gcc-arm-none-eabi-7-2017
 1184              		.file 3 "/Applications/Eclipse_e-puck2.app/Contents/Eclipse_e-puck2/Tools/gcc-arm-none-eabi-7-2017
 1185              		.file 4 "/Applications/Eclipse_e-puck2.app/Contents/Eclipse_e-puck2/Tools/gcc-arm-none-eabi-7-2017
 1186              		.file 5 "../e-puck2_main-processor/ChibiOS//os/rt/ports/ARMCMx/compilers/GCC/chtypes.h"
 1187              		.file 6 "../e-puck2_main-processor/ChibiOS//os/rt/include/chsystypes.h"
 1188              		.file 7 "../e-puck2_main-processor/ChibiOS//os/rt/include/chschd.h"
 1189              		.file 8 "../e-puck2_main-processor/ChibiOS//os/ext/CMSIS/include/core_cm4.h"
ARM GAS  /var/folders/d2/nstgp4h54kz7g1l847x_b8wc0000gn/T//cc8ZXph6.s 			page 22


 1190              		.file 9 "../e-puck2_main-processor/ChibiOS//os/ext/CMSIS/ST/system_stm32f4xx.h"
 1191              		.file 10 "../e-puck2_main-processor/ChibiOS//os/ext/CMSIS/ST/stm32f407xx.h"
 1192              		.file 11 "../e-puck2_main-processor/ChibiOS//os/rt/ports/ARMCMx/chcore.h"
 1193              		.file 12 "../e-puck2_main-processor/ChibiOS//os/rt/ports/ARMCMx/chcore_v7m.h"
 1194              		.file 13 "../e-puck2_main-processor/ChibiOS//os/rt/include/chdebug.h"
 1195              		.file 14 "../e-puck2_main-processor/ChibiOS//os/rt/include/chtm.h"
 1196              		.file 15 "../e-puck2_main-processor/ChibiOS//os/rt/include/chstats.h"
 1197              		.file 16 "../e-puck2_main-processor/ChibiOS//os/rt/include/chsem.h"
 1198              		.file 17 "../e-puck2_main-processor/ChibiOS//os/rt/include/chmtx.h"
 1199              		.file 18 "../e-puck2_main-processor/ChibiOS//os/rt/include/chregistry.h"
 1200              		.file 19 "../e-puck2_main-processor/ChibiOS//os/rt/include/chevents.h"
 1201              		.file 20 "../e-puck2_main-processor/ChibiOS//os/rt/include/chqueues.h"
 1202              		.file 21 "../e-puck2_main-processor/ChibiOS//os/hal/ports/STM32/STM32F4xx/stm32_dma.h"
 1203              		.file 22 "../e-puck2_main-processor/ChibiOS//os/hal/include/hal_ioblock.h"
 1204              		.file 23 "../e-puck2_main-processor/ChibiOS//os/hal/ports/STM32/LLD/GPIOv2/pal_lld.h"
 1205              		.file 24 "../e-puck2_main-processor/ChibiOS//os/hal/include/adc.h"
 1206              		.file 25 "../e-puck2_main-processor/ChibiOS//os/hal/ports/STM32/STM32F4xx/adc_lld.h"
 1207              		.file 26 "../e-puck2_main-processor/ChibiOS//os/hal/include/can.h"
 1208              		.file 27 "../e-puck2_main-processor/ChibiOS//os/hal/ports/STM32/LLD/can_lld.h"
 1209              		.file 28 "../e-puck2_main-processor/ChibiOS//os/hal/include/dac.h"
 1210              		.file 29 "../e-puck2_main-processor/ChibiOS//os/hal/ports/STM32/LLD/DACv1/dac_lld.h"
 1211              		.file 30 "../e-puck2_main-processor/ChibiOS//os/hal/include/ext.h"
 1212              		.file 31 "../e-puck2_main-processor/ChibiOS//os/hal/ports/STM32/LLD/ext_lld.h"
 1213              		.file 32 "../e-puck2_main-processor/ChibiOS//os/hal/include/gpt.h"
 1214              		.file 33 "../e-puck2_main-processor/ChibiOS//os/hal/ports/STM32/LLD/TIMv1/gpt_lld.h"
 1215              		.file 34 "../e-puck2_main-processor/ChibiOS//os/hal/ports/STM32/LLD/TIMv1/stm32_tim.h"
 1216              		.file 35 "../e-puck2_main-processor/ChibiOS//os/hal/include/i2c.h"
 1217              		.file 36 "../e-puck2_main-processor/ChibiOS//os/hal/ports/STM32/LLD/I2Cv1/i2c_lld.h"
 1218              		.file 37 "../e-puck2_main-processor/ChibiOS//os/hal/include/i2s.h"
 1219              		.file 38 "../e-puck2_main-processor/ChibiOS//os/hal/ports/STM32/LLD/SPIv1/i2s_lld.h"
 1220              		.file 39 "../e-puck2_main-processor/ChibiOS//os/hal/include/pwm.h"
 1221              		.file 40 "../e-puck2_main-processor/ChibiOS//os/hal/ports/STM32/LLD/TIMv1/pwm_lld.h"
 1222              		.file 41 "../e-puck2_main-processor/ChibiOS//os/hal/include/serial.h"
 1223              		.file 42 "../e-puck2_main-processor/ChibiOS//os/hal/ports/STM32/LLD/USARTv1/serial_lld.h"
 1224              		.file 43 "../e-puck2_main-processor/ChibiOS//os/hal/include/sdc.h"
 1225              		.file 44 "../e-puck2_main-processor/ChibiOS//os/hal/ports/STM32/LLD/sdc_lld.h"
 1226              		.file 45 "../e-puck2_main-processor/ChibiOS//os/hal/include/spi.h"
 1227              		.file 46 "../e-puck2_main-processor/ChibiOS//os/hal/ports/STM32/LLD/SPIv1/spi_lld.h"
 1228              		.file 47 "../e-puck2_main-processor/ChibiOS//os/hal/include/usb.h"
 1229              		.file 48 "../e-puck2_main-processor/ChibiOS//os/hal/ports/STM32/LLD/OTGv1/usb_lld.h"
 1230              		.file 49 "../e-puck2_main-processor/ChibiOS//os/hal/ports/STM32/LLD/OTGv1/stm32_otg.h"
 1231              		.file 50 "../e-puck2_main-processor/ChibiOS//os/rt/include/chsys.h"