ARM GAS  /var/folders/d2/nstgp4h54kz7g1l847x_b8wc0000gn/T//cccFo0PJ.s 			page 1


   1              		.cpu cortex-m4
   2              		.eabi_attribute 27, 1
   3              		.eabi_attribute 28, 1
   4              		.eabi_attribute 20, 1
   5              		.eabi_attribute 21, 1
   6              		.eabi_attribute 23, 3
   7              		.eabi_attribute 24, 1
   8              		.eabi_attribute 25, 1
   9              		.eabi_attribute 26, 1
  10              		.eabi_attribute 30, 6
  11              		.eabi_attribute 34, 1
  12              		.eabi_attribute 18, 4
  13              		.file	"behaviors.c"
  14              		.section	.text.port_lock,"ax",%progbits
  15              		.align	1
  16              		.syntax unified
  17              		.thumb
  18              		.thumb_func
  19              		.fpu fpv4-sp-d16
  20              		.type	port_lock, %function
  21              	port_lock:
  22              		@ args = 0, pretend = 0, frame = 8
  23              		@ frame_needed = 1, uses_anonymous_args = 0
  24              		@ link register save eliminated.
  25 0000 80B4     		push	{r7}
  26 0002 83B0     		sub	sp, sp, #12
  27 0004 00AF     		add	r7, sp, #0
  28 0006 2023     		movs	r3, #32
  29 0008 7B60     		str	r3, [r7, #4]
  30 000a 7B68     		ldr	r3, [r7, #4]
  31              		.syntax unified
  32              	@ 546 "../e-puck2_main-processor/ChibiOS//os/ext/CMSIS/include/core_cmFunc.h" 1
  33 000c 83F31188 		MSR basepri, r3
  34              	@ 0 "" 2
  35              		.thumb
  36              		.syntax unified
  37 0010 00BF     		nop
  38 0012 0C37     		adds	r7, r7, #12
  39 0014 BD46     		mov	sp, r7
  40              		@ sp needed
  41 0016 5DF8047B 		ldr	r7, [sp], #4
  42 001a 7047     		bx	lr
  43              		.size	port_lock, .-port_lock
  44              		.section	.text.port_unlock,"ax",%progbits
  45              		.align	1
  46              		.syntax unified
  47              		.thumb
  48              		.thumb_func
  49              		.fpu fpv4-sp-d16
  50              		.type	port_unlock, %function
  51              	port_unlock:
  52              		@ args = 0, pretend = 0, frame = 8
  53              		@ frame_needed = 1, uses_anonymous_args = 0
  54              		@ link register save eliminated.
  55 0000 80B4     		push	{r7}
  56 0002 83B0     		sub	sp, sp, #12
  57 0004 00AF     		add	r7, sp, #0
ARM GAS  /var/folders/d2/nstgp4h54kz7g1l847x_b8wc0000gn/T//cccFo0PJ.s 			page 2


  58 0006 0023     		movs	r3, #0
  59 0008 7B60     		str	r3, [r7, #4]
  60 000a 7B68     		ldr	r3, [r7, #4]
  61              		.syntax unified
  62              	@ 546 "../e-puck2_main-processor/ChibiOS//os/ext/CMSIS/include/core_cmFunc.h" 1
  63 000c 83F31188 		MSR basepri, r3
  64              	@ 0 "" 2
  65              		.thumb
  66              		.syntax unified
  67 0010 00BF     		nop
  68 0012 0C37     		adds	r7, r7, #12
  69 0014 BD46     		mov	sp, r7
  70              		@ sp needed
  71 0016 5DF8047B 		ldr	r7, [sp], #4
  72 001a 7047     		bx	lr
  73              		.size	port_unlock, .-port_unlock
  74              		.section	.text.chSysLock,"ax",%progbits
  75              		.align	1
  76              		.syntax unified
  77              		.thumb
  78              		.thumb_func
  79              		.fpu fpv4-sp-d16
  80              		.type	chSysLock, %function
  81              	chSysLock:
  82              		@ args = 0, pretend = 0, frame = 0
  83              		@ frame_needed = 1, uses_anonymous_args = 0
  84 0000 80B5     		push	{r7, lr}
  85 0002 00AF     		add	r7, sp, #0
  86 0004 FFF7FEFF 		bl	port_lock
  87 0008 FFF7FEFF 		bl	_stats_start_measure_crit_thd
  88 000c FFF7FEFF 		bl	_dbg_check_lock
  89 0010 00BF     		nop
  90 0012 80BD     		pop	{r7, pc}
  91              		.size	chSysLock, .-chSysLock
  92              		.section	.text.chSysUnlock,"ax",%progbits
  93              		.align	1
  94              		.syntax unified
  95              		.thumb
  96              		.thumb_func
  97              		.fpu fpv4-sp-d16
  98              		.type	chSysUnlock, %function
  99              	chSysUnlock:
 100              		@ args = 0, pretend = 0, frame = 0
 101              		@ frame_needed = 1, uses_anonymous_args = 0
 102 0000 80B5     		push	{r7, lr}
 103 0002 00AF     		add	r7, sp, #0
 104 0004 FFF7FEFF 		bl	_dbg_check_unlock
 105 0008 FFF7FEFF 		bl	_stats_stop_measure_crit_thd
 106 000c 094B     		ldr	r3, .L6
 107 000e 1B68     		ldr	r3, [r3]
 108 0010 084A     		ldr	r2, .L6
 109 0012 9342     		cmp	r3, r2
 110 0014 0AD0     		beq	.L5
 111 0016 074B     		ldr	r3, .L6
 112 0018 9B69     		ldr	r3, [r3, #24]
 113 001a 9A68     		ldr	r2, [r3, #8]
 114 001c 054B     		ldr	r3, .L6
ARM GAS  /var/folders/d2/nstgp4h54kz7g1l847x_b8wc0000gn/T//cccFo0PJ.s 			page 3


 115 001e 1B68     		ldr	r3, [r3]
 116 0020 9B68     		ldr	r3, [r3, #8]
 117 0022 9A42     		cmp	r2, r3
 118 0024 02D2     		bcs	.L5
 119 0026 0448     		ldr	r0, .L6+4
 120 0028 FFF7FEFF 		bl	chSysHalt
 121              	.L5:
 122 002c FFF7FEFF 		bl	port_unlock
 123 0030 00BF     		nop
 124 0032 80BD     		pop	{r7, pc}
 125              	.L7:
 126              		.align	2
 127              	.L6:
 128 0034 00000000 		.word	ch
 129 0038 00000000 		.word	__func__.7153
 130              		.size	chSysUnlock, .-chSysUnlock
 131              		.section	.text.chVTGetSystemTimeX,"ax",%progbits
 132              		.align	1
 133              		.syntax unified
 134              		.thumb
 135              		.thumb_func
 136              		.fpu fpv4-sp-d16
 137              		.type	chVTGetSystemTimeX, %function
 138              	chVTGetSystemTimeX:
 139              		@ args = 0, pretend = 0, frame = 0
 140              		@ frame_needed = 1, uses_anonymous_args = 0
 141              		@ link register save eliminated.
 142 0000 80B4     		push	{r7}
 143 0002 00AF     		add	r7, sp, #0
 144 0004 034B     		ldr	r3, .L10
 145 0006 9B6A     		ldr	r3, [r3, #40]
 146 0008 1846     		mov	r0, r3
 147 000a BD46     		mov	sp, r7
 148              		@ sp needed
 149 000c 5DF8047B 		ldr	r7, [sp], #4
 150 0010 7047     		bx	lr
 151              	.L11:
 152 0012 00BF     		.align	2
 153              	.L10:
 154 0014 00000000 		.word	ch
 155              		.size	chVTGetSystemTimeX, .-chVTGetSystemTimeX
 156              		.section	.text.chVTGetSystemTime,"ax",%progbits
 157              		.align	1
 158              		.syntax unified
 159              		.thumb
 160              		.thumb_func
 161              		.fpu fpv4-sp-d16
 162              		.type	chVTGetSystemTime, %function
 163              	chVTGetSystemTime:
 164              		@ args = 0, pretend = 0, frame = 8
 165              		@ frame_needed = 1, uses_anonymous_args = 0
 166 0000 80B5     		push	{r7, lr}
 167 0002 82B0     		sub	sp, sp, #8
 168 0004 00AF     		add	r7, sp, #0
 169 0006 FFF7FEFF 		bl	chSysLock
 170 000a FFF7FEFF 		bl	chVTGetSystemTimeX
 171 000e 7860     		str	r0, [r7, #4]
ARM GAS  /var/folders/d2/nstgp4h54kz7g1l847x_b8wc0000gn/T//cccFo0PJ.s 			page 4


 172 0010 FFF7FEFF 		bl	chSysUnlock
 173 0014 7B68     		ldr	r3, [r7, #4]
 174 0016 1846     		mov	r0, r3
 175 0018 0837     		adds	r7, r7, #8
 176 001a BD46     		mov	sp, r7
 177              		@ sp needed
 178 001c 80BD     		pop	{r7, pc}
 179              		.size	chVTGetSystemTime, .-chVTGetSystemTime
 180              		.section	.text.chThdGetSelfX,"ax",%progbits
 181              		.align	1
 182              		.syntax unified
 183              		.thumb
 184              		.thumb_func
 185              		.fpu fpv4-sp-d16
 186              		.type	chThdGetSelfX, %function
 187              	chThdGetSelfX:
 188              		@ args = 0, pretend = 0, frame = 0
 189              		@ frame_needed = 1, uses_anonymous_args = 0
 190              		@ link register save eliminated.
 191 0000 80B4     		push	{r7}
 192 0002 00AF     		add	r7, sp, #0
 193 0004 034B     		ldr	r3, .L16
 194 0006 9B69     		ldr	r3, [r3, #24]
 195 0008 1846     		mov	r0, r3
 196 000a BD46     		mov	sp, r7
 197              		@ sp needed
 198 000c 5DF8047B 		ldr	r7, [sp], #4
 199 0010 7047     		bx	lr
 200              	.L17:
 201 0012 00BF     		.align	2
 202              	.L16:
 203 0014 00000000 		.word	ch
 204              		.size	chThdGetSelfX, .-chThdGetSelfX
 205              		.section	.text.chThdShouldTerminateX,"ax",%progbits
 206              		.align	1
 207              		.syntax unified
 208              		.thumb
 209              		.thumb_func
 210              		.fpu fpv4-sp-d16
 211              		.type	chThdShouldTerminateX, %function
 212              	chThdShouldTerminateX:
 213              		@ args = 0, pretend = 0, frame = 0
 214              		@ frame_needed = 1, uses_anonymous_args = 0
 215 0000 80B5     		push	{r7, lr}
 216 0002 00AF     		add	r7, sp, #0
 217 0004 FFF7FEFF 		bl	chThdGetSelfX
 218 0008 0346     		mov	r3, r0
 219 000a 93F82130 		ldrb	r3, [r3, #33]	@ zero_extendqisi2
 220 000e 03F00403 		and	r3, r3, #4
 221 0012 002B     		cmp	r3, #0
 222 0014 14BF     		ite	ne
 223 0016 0123     		movne	r3, #1
 224 0018 0023     		moveq	r3, #0
 225 001a DBB2     		uxtb	r3, r3
 226 001c 1846     		mov	r0, r3
 227 001e 80BD     		pop	{r7, pc}
 228              		.size	chThdShouldTerminateX, .-chThdShouldTerminateX
ARM GAS  /var/folders/d2/nstgp4h54kz7g1l847x_b8wc0000gn/T//cccFo0PJ.s 			page 5


 229              		.section	.text.chRegSetThreadName,"ax",%progbits
 230              		.align	1
 231              		.syntax unified
 232              		.thumb
 233              		.thumb_func
 234              		.fpu fpv4-sp-d16
 235              		.type	chRegSetThreadName, %function
 236              	chRegSetThreadName:
 237              		@ args = 0, pretend = 0, frame = 8
 238              		@ frame_needed = 1, uses_anonymous_args = 0
 239              		@ link register save eliminated.
 240 0000 80B4     		push	{r7}
 241 0002 83B0     		sub	sp, sp, #12
 242 0004 00AF     		add	r7, sp, #0
 243 0006 7860     		str	r0, [r7, #4]
 244 0008 044B     		ldr	r3, .L21
 245 000a 9B69     		ldr	r3, [r3, #24]
 246 000c 7A68     		ldr	r2, [r7, #4]
 247 000e 9A61     		str	r2, [r3, #24]
 248 0010 00BF     		nop
 249 0012 0C37     		adds	r7, r7, #12
 250 0014 BD46     		mov	sp, r7
 251              		@ sp needed
 252 0016 5DF8047B 		ldr	r7, [sp], #4
 253 001a 7047     		bx	lr
 254              	.L22:
 255              		.align	2
 256              	.L21:
 257 001c 00000000 		.word	ch
 258              		.size	chRegSetThreadName, .-chRegSetThreadName
 259              		.section	.bss.behaviorsThd,"aw",%nobits
 260              		.align	2
 261              		.type	behaviorsThd, %object
 262              		.size	behaviorsThd, 4
 263              	behaviorsThd:
 264 0000 00000000 		.space	4
 265              		.global	oa_enabled
 266              		.section	.bss.oa_enabled,"aw",%nobits
 267              		.type	oa_enabled, %object
 268              		.size	oa_enabled, 1
 269              	oa_enabled:
 270 0000 00       		.space	1
 271              		.global	target_speed
 272              		.section	.bss.target_speed,"aw",%nobits
 273              		.align	1
 274              		.type	target_speed, %object
 275              		.size	target_speed, 2
 276              	target_speed:
 277 0000 0000     		.space	2
 278              		.section	.text.enable_obstacle_avoidance,"ax",%progbits
 279              		.align	1
 280              		.global	enable_obstacle_avoidance
 281              		.syntax unified
 282              		.thumb
 283              		.thumb_func
 284              		.fpu fpv4-sp-d16
 285              		.type	enable_obstacle_avoidance, %function
ARM GAS  /var/folders/d2/nstgp4h54kz7g1l847x_b8wc0000gn/T//cccFo0PJ.s 			page 6


 286              	enable_obstacle_avoidance:
 287              		@ args = 0, pretend = 0, frame = 8
 288              		@ frame_needed = 1, uses_anonymous_args = 0
 289              		@ link register save eliminated.
 290 0000 80B4     		push	{r7}
 291 0002 83B0     		sub	sp, sp, #12
 292 0004 00AF     		add	r7, sp, #0
 293 0006 7860     		str	r0, [r7, #4]
 294 0008 064B     		ldr	r3, .L24
 295 000a 0122     		movs	r2, #1
 296 000c 1A70     		strb	r2, [r3]
 297 000e 7B68     		ldr	r3, [r7, #4]
 298 0010 1AB2     		sxth	r2, r3
 299 0012 054B     		ldr	r3, .L24+4
 300 0014 1A80     		strh	r2, [r3]	@ movhi
 301 0016 00BF     		nop
 302 0018 0C37     		adds	r7, r7, #12
 303 001a BD46     		mov	sp, r7
 304              		@ sp needed
 305 001c 5DF8047B 		ldr	r7, [sp], #4
 306 0020 7047     		bx	lr
 307              	.L25:
 308 0022 00BF     		.align	2
 309              	.L24:
 310 0024 00000000 		.word	oa_enabled
 311 0028 00000000 		.word	target_speed
 312              		.size	enable_obstacle_avoidance, .-enable_obstacle_avoidance
 313              		.section	.text.disable_obstacle_avoidance,"ax",%progbits
 314              		.align	1
 315              		.global	disable_obstacle_avoidance
 316              		.syntax unified
 317              		.thumb
 318              		.thumb_func
 319              		.fpu fpv4-sp-d16
 320              		.type	disable_obstacle_avoidance, %function
 321              	disable_obstacle_avoidance:
 322              		@ args = 0, pretend = 0, frame = 0
 323              		@ frame_needed = 1, uses_anonymous_args = 0
 324              		@ link register save eliminated.
 325 0000 80B4     		push	{r7}
 326 0002 00AF     		add	r7, sp, #0
 327 0004 034B     		ldr	r3, .L27
 328 0006 0022     		movs	r2, #0
 329 0008 1A70     		strb	r2, [r3]
 330 000a 00BF     		nop
 331 000c BD46     		mov	sp, r7
 332              		@ sp needed
 333 000e 5DF8047B 		ldr	r7, [sp], #4
 334 0012 7047     		bx	lr
 335              	.L28:
 336              		.align	2
 337              	.L27:
 338 0014 00000000 		.word	oa_enabled
 339              		.size	disable_obstacle_avoidance, .-disable_obstacle_avoidance
 340              		.section	.bss.behaviors_thd_wa,"aw",%nobits
 341              		.align	3
 342              		.type	behaviors_thd_wa, %object
ARM GAS  /var/folders/d2/nstgp4h54kz7g1l847x_b8wc0000gn/T//cccFo0PJ.s 			page 7


 343              		.size	behaviors_thd_wa, 888
 344              	behaviors_thd_wa:
 345 0000 00000000 		.space	888
 345      00000000 
 345      00000000 
 345      00000000 
 345      00000000 
 346              		.section	.text.behaviors_thd,"ax",%progbits
 347              		.align	1
 348              		.syntax unified
 349              		.thumb
 350              		.thumb_func
 351              		.fpu fpv4-sp-d16
 352              		.type	behaviors_thd, %function
 353              	behaviors_thd:
 354              		@ args = 0, pretend = 0, frame = 40
 355              		@ frame_needed = 1, uses_anonymous_args = 0
 356 0000 80B5     		push	{r7, lr}
 357 0002 8AB0     		sub	sp, sp, #40
 358 0004 00AF     		add	r7, sp, #0
 359 0006 7860     		str	r0, [r7, #4]
 360 0008 4148     		ldr	r0, .L36
 361 000a FFF7FEFF 		bl	chRegSetThreadName
 362 000e 0023     		movs	r3, #0
 363 0010 FB84     		strh	r3, [r7, #38]	@ movhi
 364 0012 0023     		movs	r3, #0
 365 0014 BB84     		strh	r3, [r7, #36]	@ movhi
 366 0016 0023     		movs	r3, #0
 367 0018 87F82330 		strb	r3, [r7, #35]
 368 001c 6BE0     		b	.L30
 369              	.L35:
 370 001e FFF7FEFF 		bl	chVTGetSystemTime
 371 0022 F861     		str	r0, [r7, #28]
 372 0024 3B4B     		ldr	r3, .L36+4
 373 0026 1B78     		ldrb	r3, [r3]	@ zero_extendqisi2
 374 0028 002B     		cmp	r3, #0
 375 002a 5ED0     		beq	.L31
 376 002c 0023     		movs	r3, #0
 377 002e 87F82330 		strb	r3, [r7, #35]
 378 0032 13E0     		b	.L32
 379              	.L33:
 380 0034 97F82330 		ldrb	r3, [r7, #35]	@ zero_extendqisi2
 381 0038 1846     		mov	r0, r3
 382 003a FFF7FEFF 		bl	get_calibrated_prox
 383 003e 0246     		mov	r2, r0
 384 0040 97F82330 		ldrb	r3, [r7, #35]	@ zero_extendqisi2
 385 0044 12B2     		sxth	r2, r2
 386 0046 5B00     		lsls	r3, r3, #1
 387 0048 07F12801 		add	r1, r7, #40
 388 004c 0B44     		add	r3, r3, r1
 389 004e 23F81C2C 		strh	r2, [r3, #-28]	@ movhi
 390 0052 97F82330 		ldrb	r3, [r7, #35]	@ zero_extendqisi2
 391 0056 0133     		adds	r3, r3, #1
 392 0058 87F82330 		strb	r3, [r7, #35]
 393              	.L32:
 394 005c 97F82330 		ldrb	r3, [r7, #35]	@ zero_extendqisi2
 395 0060 072B     		cmp	r3, #7
ARM GAS  /var/folders/d2/nstgp4h54kz7g1l847x_b8wc0000gn/T//cccFo0PJ.s 			page 8


 396 0062 E7D9     		bls	.L33
 397 0064 2C4B     		ldr	r3, .L36+8
 398 0066 B3F90030 		ldrsh	r3, [r3]
 399 006a 002B     		cmp	r3, #0
 400 006c 33DD     		ble	.L34
 401 006e 2A4B     		ldr	r3, .L36+8
 402 0070 B3F90030 		ldrsh	r3, [r3]
 403 0074 9AB2     		uxth	r2, r3
 404 0076 B7F90C30 		ldrsh	r3, [r7, #12]
 405 007a 9BB2     		uxth	r3, r3
 406 007c DB00     		lsls	r3, r3, #3
 407 007e 9BB2     		uxth	r3, r3
 408 0080 D31A     		subs	r3, r2, r3
 409 0082 9AB2     		uxth	r2, r3
 410 0084 B7F90E30 		ldrsh	r3, [r7, #14]
 411 0088 9BB2     		uxth	r3, r3
 412 008a 9B00     		lsls	r3, r3, #2
 413 008c 9BB2     		uxth	r3, r3
 414 008e D31A     		subs	r3, r2, r3
 415 0090 9AB2     		uxth	r2, r3
 416 0092 B7F91030 		ldrsh	r3, [r7, #16]
 417 0096 9BB2     		uxth	r3, r3
 418 0098 5B00     		lsls	r3, r3, #1
 419 009a 9BB2     		uxth	r3, r3
 420 009c D31A     		subs	r3, r2, r3
 421 009e 9BB2     		uxth	r3, r3
 422 00a0 FB84     		strh	r3, [r7, #38]	@ movhi
 423 00a2 1D4B     		ldr	r3, .L36+8
 424 00a4 B3F90030 		ldrsh	r3, [r3]
 425 00a8 9AB2     		uxth	r2, r3
 426 00aa B7F91A30 		ldrsh	r3, [r7, #26]
 427 00ae 9BB2     		uxth	r3, r3
 428 00b0 DB00     		lsls	r3, r3, #3
 429 00b2 9BB2     		uxth	r3, r3
 430 00b4 D31A     		subs	r3, r2, r3
 431 00b6 9AB2     		uxth	r2, r3
 432 00b8 B7F91830 		ldrsh	r3, [r7, #24]
 433 00bc 9BB2     		uxth	r3, r3
 434 00be 9B00     		lsls	r3, r3, #2
 435 00c0 9BB2     		uxth	r3, r3
 436 00c2 D31A     		subs	r3, r2, r3
 437 00c4 9AB2     		uxth	r2, r3
 438 00c6 B7F91630 		ldrsh	r3, [r7, #22]
 439 00ca 9BB2     		uxth	r3, r3
 440 00cc 5B00     		lsls	r3, r3, #1
 441 00ce 9BB2     		uxth	r3, r3
 442 00d0 D31A     		subs	r3, r2, r3
 443 00d2 9BB2     		uxth	r3, r3
 444 00d4 BB84     		strh	r3, [r7, #36]	@ movhi
 445              	.L34:
 446 00d6 B7F92430 		ldrsh	r3, [r7, #36]
 447 00da 1846     		mov	r0, r3
 448 00dc FFF7FEFF 		bl	right_motor_set_speed
 449 00e0 B7F92630 		ldrsh	r3, [r7, #38]
 450 00e4 1846     		mov	r0, r3
 451 00e6 FFF7FEFF 		bl	left_motor_set_speed
 452              	.L31:
ARM GAS  /var/folders/d2/nstgp4h54kz7g1l847x_b8wc0000gn/T//cccFo0PJ.s 			page 9


 453 00ea FB69     		ldr	r3, [r7, #28]
 454 00ec 0A33     		adds	r3, r3, #10
 455 00ee 1946     		mov	r1, r3
 456 00f0 F869     		ldr	r0, [r7, #28]
 457 00f2 FFF7FEFF 		bl	chThdSleepUntilWindowed
 458              	.L30:
 459 00f6 FFF7FEFF 		bl	chThdShouldTerminateX
 460 00fa 0346     		mov	r3, r0
 461 00fc 83F00103 		eor	r3, r3, #1
 462 0100 DBB2     		uxtb	r3, r3
 463 0102 002B     		cmp	r3, #0
 464 0104 8BD1     		bne	.L35
 465 0106 00BF     		nop
 466 0108 2837     		adds	r7, r7, #40
 467 010a BD46     		mov	sp, r7
 468              		@ sp needed
 469 010c 80BD     		pop	{r7, pc}
 470              	.L37:
 471 010e 00BF     		.align	2
 472              	.L36:
 473 0110 00000000 		.word	__FUNCTION__.9891
 474 0114 00000000 		.word	oa_enabled
 475 0118 00000000 		.word	target_speed
 476              		.size	behaviors_thd, .-behaviors_thd
 477              		.section	.text.behaviors_start,"ax",%progbits
 478              		.align	1
 479              		.global	behaviors_start
 480              		.syntax unified
 481              		.thumb
 482              		.thumb_func
 483              		.fpu fpv4-sp-d16
 484              		.type	behaviors_start, %function
 485              	behaviors_start:
 486              		@ args = 0, pretend = 0, frame = 0
 487              		@ frame_needed = 1, uses_anonymous_args = 0
 488 0000 80B5     		push	{r7, lr}
 489 0002 82B0     		sub	sp, sp, #8
 490 0004 02AF     		add	r7, sp, #8
 491 0006 0023     		movs	r3, #0
 492 0008 0093     		str	r3, [sp]
 493 000a 064B     		ldr	r3, .L39
 494 000c 4022     		movs	r2, #64
 495 000e 4FF45E71 		mov	r1, #888
 496 0012 0548     		ldr	r0, .L39+4
 497 0014 FFF7FEFF 		bl	chThdCreateStatic
 498 0018 0246     		mov	r2, r0
 499 001a 044B     		ldr	r3, .L39+8
 500 001c 1A60     		str	r2, [r3]
 501 001e 00BF     		nop
 502 0020 BD46     		mov	sp, r7
 503              		@ sp needed
 504 0022 80BD     		pop	{r7, pc}
 505              	.L40:
 506              		.align	2
 507              	.L39:
 508 0024 00000000 		.word	behaviors_thd
 509 0028 00000000 		.word	behaviors_thd_wa
ARM GAS  /var/folders/d2/nstgp4h54kz7g1l847x_b8wc0000gn/T//cccFo0PJ.s 			page 10


 510 002c 00000000 		.word	behaviorsThd
 511              		.size	behaviors_start, .-behaviors_start
 512              		.section	.rodata.__FUNCTION__.9891,"a",%progbits
 513              		.align	2
 514              		.type	__FUNCTION__.9891, %object
 515              		.size	__FUNCTION__.9891, 14
 516              	__FUNCTION__.9891:
 517 0000 62656861 		.ascii	"behaviors_thd\000"
 517      76696F72 
 517      735F7468 
 517      6400
 518              		.section	.rodata.__func__.7153,"a",%progbits
 519              		.align	2
 520              		.type	__func__.7153, %object
 521              		.size	__func__.7153, 12
 522              	__func__.7153:
 523 0000 63685379 		.ascii	"chSysUnlock\000"
 523      73556E6C 
 523      6F636B00 
 524              		.ident	"GCC: (GNU Tools for Arm Embedded Processors 7-2017-q4-major) 7.2.1 20170904 (release) [ARM
ARM GAS  /var/folders/d2/nstgp4h54kz7g1l847x_b8wc0000gn/T//cccFo0PJ.s 			page 11

