ARM GAS  /var/folders/d2/nstgp4h54kz7g1l847x_b8wc0000gn/T//ccAR1bBY.s 			page 1


   1              		.cpu cortex-m4
   2              		.eabi_attribute 27, 1
   3              		.eabi_attribute 28, 1
   4              		.eabi_attribute 20, 1
   5              		.eabi_attribute 21, 1
   6              		.eabi_attribute 23, 3
   7              		.eabi_attribute 24, 1
   8              		.eabi_attribute 25, 1
   9              		.eabi_attribute 26, 1
  10              		.eabi_attribute 30, 6
  11              		.eabi_attribute 34, 1
  12              		.eabi_attribute 18, 4
  13              		.file	"button.c"
  14              		.section	.bss.button_state,"aw",%nobits
  15              		.type	button_state, %object
  16              		.size	button_state, 1
  17              	button_state:
  18 0000 00       		.space	1
  19              		.section	.text.button_get_state,"ax",%progbits
  20              		.align	1
  21              		.global	button_get_state
  22              		.syntax unified
  23              		.thumb
  24              		.thumb_func
  25              		.fpu fpv4-sp-d16
  26              		.type	button_get_state, %function
  27              	button_get_state:
  28              		@ args = 0, pretend = 0, frame = 0
  29              		@ frame_needed = 1, uses_anonymous_args = 0
  30              		@ link register save eliminated.
  31 0000 80B4     		push	{r7}
  32 0002 00AF     		add	r7, sp, #0
  33 0004 034B     		ldr	r3, .L3
  34 0006 1B78     		ldrb	r3, [r3]	@ zero_extendqisi2
  35 0008 1846     		mov	r0, r3
  36 000a BD46     		mov	sp, r7
  37              		@ sp needed
  38 000c 5DF8047B 		ldr	r7, [sp], #4
  39 0010 7047     		bx	lr
  40              	.L4:
  41 0012 00BF     		.align	2
  42              	.L3:
  43 0014 00000000 		.word	button_state
  44              		.size	button_get_state, .-button_get_state
  45              		.section	.text.button_set_state,"ax",%progbits
  46              		.align	1
  47              		.global	button_set_state
  48              		.syntax unified
  49              		.thumb
  50              		.thumb_func
  51              		.fpu fpv4-sp-d16
  52              		.type	button_set_state, %function
  53              	button_set_state:
  54              		@ args = 0, pretend = 0, frame = 8
  55              		@ frame_needed = 1, uses_anonymous_args = 0
  56              		@ link register save eliminated.
  57 0000 80B4     		push	{r7}
ARM GAS  /var/folders/d2/nstgp4h54kz7g1l847x_b8wc0000gn/T//ccAR1bBY.s 			page 2


  58 0002 83B0     		sub	sp, sp, #12
  59 0004 00AF     		add	r7, sp, #0
  60 0006 0346     		mov	r3, r0
  61 0008 FB71     		strb	r3, [r7, #7]
  62 000a 044A     		ldr	r2, .L6
  63 000c FB79     		ldrb	r3, [r7, #7]
  64 000e 1370     		strb	r3, [r2]
  65 0010 00BF     		nop
  66 0012 0C37     		adds	r7, r7, #12
  67 0014 BD46     		mov	sp, r7
  68              		@ sp needed
  69 0016 5DF8047B 		ldr	r7, [sp], #4
  70 001a 7047     		bx	lr
  71              	.L7:
  72              		.align	2
  73              	.L6:
  74 001c 00000000 		.word	button_state
  75              		.size	button_set_state, .-button_set_state
  76              		.section	.text.button_is_pressed,"ax",%progbits
  77              		.align	1
  78              		.global	button_is_pressed
  79              		.syntax unified
  80              		.thumb
  81              		.thumb_func
  82              		.fpu fpv4-sp-d16
  83              		.type	button_is_pressed, %function
  84              	button_is_pressed:
  85              		@ args = 0, pretend = 0, frame = 0
  86              		@ frame_needed = 1, uses_anonymous_args = 0
  87              		@ link register save eliminated.
  88 0000 80B4     		push	{r7}
  89 0002 00AF     		add	r7, sp, #0
  90 0004 054B     		ldr	r3, .L10
  91 0006 1B78     		ldrb	r3, [r3]	@ zero_extendqisi2
  92 0008 012B     		cmp	r3, #1
  93 000a 0CBF     		ite	eq
  94 000c 0123     		moveq	r3, #1
  95 000e 0023     		movne	r3, #0
  96 0010 DBB2     		uxtb	r3, r3
  97 0012 1846     		mov	r0, r3
  98 0014 BD46     		mov	sp, r7
  99              		@ sp needed
 100 0016 5DF8047B 		ldr	r7, [sp], #4
 101 001a 7047     		bx	lr
 102              	.L11:
 103              		.align	2
 104              	.L10:
 105 001c 00000000 		.word	button_state
 106              		.size	button_is_pressed, .-button_is_pressed
 107              		.ident	"GCC: (GNU Tools for Arm Embedded Processors 7-2017-q4-major) 7.2.1 20170904 (release) [ARM
ARM GAS  /var/folders/d2/nstgp4h54kz7g1l847x_b8wc0000gn/T//ccAR1bBY.s 			page 3

