ARM GAS  /var/folders/d2/nstgp4h54kz7g1l847x_b8wc0000gn/T//ccEhiHV1.s 			page 1


   1              		.cpu cortex-m4
   2              		.eabi_attribute 27, 1
   3              		.eabi_attribute 28, 1
   4              		.eabi_attribute 20, 1
   5              		.eabi_attribute 21, 1
   6              		.eabi_attribute 23, 3
   7              		.eabi_attribute 24, 1
   8              		.eabi_attribute 25, 1
   9              		.eabi_attribute 26, 1
  10              		.eabi_attribute 30, 6
  11              		.eabi_attribute 34, 1
  12              		.eabi_attribute 18, 4
  13              		.file	"camera.c"
  14              		.global	curr_cam
  15              		.section	.data.curr_cam,"aw",%progbits
  16              		.type	curr_cam, %object
  17              		.size	curr_cam, 1
  18              	curr_cam:
  19 0000 FF       		.byte	-1
  20              		.global	curr_format
  21              		.section	.data.curr_format,"aw",%progbits
  22              		.type	curr_format, %object
  23              		.size	curr_format, 1
  24              	curr_format:
  25 0000 01       		.byte	1
  26              		.section	.text.cam_start,"ax",%progbits
  27              		.align	1
  28              		.global	cam_start
  29              		.syntax unified
  30              		.thumb
  31              		.thumb_func
  32              		.fpu fpv4-sp-d16
  33              		.type	cam_start, %function
  34              	cam_start:
  35              		@ args = 0, pretend = 0, frame = 0
  36              		@ frame_needed = 1, uses_anonymous_args = 0
  37 0000 80B5     		push	{r7, lr}
  38 0002 00AF     		add	r7, sp, #0
  39 0004 FFF7FEFF 		bl	i2c_start
  40 0008 1949     		ldr	r1, .L6
  41 000a 1A48     		ldr	r0, .L6+4
  42 000c FFF7FEFF 		bl	pwmStart
  43 0010 0122     		movs	r2, #1
  44 0012 0021     		movs	r1, #0
  45 0014 1748     		ldr	r0, .L6+4
  46 0016 FFF7FEFF 		bl	pwmEnableChannel
  47 001a 4FF47A70 		mov	r0, #1000
  48 001e FFF7FEFF 		bl	chThdSleep
  49 0022 FFF7FEFF 		bl	po8030_is_connected
  50 0026 0346     		mov	r3, r0
  51 0028 012B     		cmp	r3, #1
  52 002a 05D1     		bne	.L2
  53 002c 124B     		ldr	r3, .L6+8
  54 002e 0022     		movs	r2, #0
  55 0030 1A70     		strb	r2, [r3]
  56 0032 FFF7FEFF 		bl	po8030_start
  57 0036 18E0     		b	.L5
ARM GAS  /var/folders/d2/nstgp4h54kz7g1l847x_b8wc0000gn/T//ccEhiHV1.s 			page 2


  58              	.L2:
  59 0038 FFF7FEFF 		bl	po6030_is_connected
  60 003c 0346     		mov	r3, r0
  61 003e 012B     		cmp	r3, #1
  62 0040 09D1     		bne	.L4
  63 0042 0D4B     		ldr	r3, .L6+8
  64 0044 0122     		movs	r2, #1
  65 0046 1A70     		strb	r2, [r3]
  66 0048 FFF7FEFF 		bl	po6030_start
  67 004c 0121     		movs	r1, #1
  68 004e 0120     		movs	r0, #1
  69 0050 FFF7FEFF 		bl	po6030_set_mirror
  70 0054 09E0     		b	.L5
  71              	.L4:
  72 0056 FFF7FEFF 		bl	ov7670_is_connected
  73 005a 0346     		mov	r3, r0
  74 005c 012B     		cmp	r3, #1
  75 005e 04D1     		bne	.L5
  76 0060 054B     		ldr	r3, .L6+8
  77 0062 0222     		movs	r2, #2
  78 0064 1A70     		strb	r2, [r3]
  79 0066 FFF7FEFF 		bl	ov7670_start
  80              	.L5:
  81 006a 00BF     		nop
  82 006c 80BD     		pop	{r7, pc}
  83              	.L7:
  84 006e 00BF     		.align	2
  85              	.L6:
  86 0070 00000000 		.word	pwmcfg_cam.10206
  87 0074 00000000 		.word	PWMD5
  88 0078 00000000 		.word	curr_cam
  89              		.size	cam_start, .-cam_start
  90              		.section	.text.cam_config,"ax",%progbits
  91              		.align	1
  92              		.global	cam_config
  93              		.syntax unified
  94              		.thumb
  95              		.thumb_func
  96              		.fpu fpv4-sp-d16
  97              		.type	cam_config, %function
  98              	cam_config:
  99              		@ args = 0, pretend = 0, frame = 8
 100              		@ frame_needed = 1, uses_anonymous_args = 0
 101 0000 80B5     		push	{r7, lr}
 102 0002 82B0     		sub	sp, sp, #8
 103 0004 00AF     		add	r7, sp, #0
 104 0006 0346     		mov	r3, r0
 105 0008 0A46     		mov	r2, r1
 106 000a FB71     		strb	r3, [r7, #7]
 107 000c 1346     		mov	r3, r2
 108 000e BB71     		strb	r3, [r7, #6]
 109 0010 254A     		ldr	r2, .L16
 110 0012 FB79     		ldrb	r3, [r7, #7]
 111 0014 1370     		strb	r3, [r2]
 112 0016 254B     		ldr	r3, .L16+4
 113 0018 93F90030 		ldrsb	r3, [r3]
 114 001c 002B     		cmp	r3, #0
ARM GAS  /var/folders/d2/nstgp4h54kz7g1l847x_b8wc0000gn/T//ccEhiHV1.s 			page 3


 115 001e 10D1     		bne	.L9
 116 0020 FB79     		ldrb	r3, [r7, #7]	@ zero_extendqisi2
 117 0022 002B     		cmp	r3, #0
 118 0024 06D1     		bne	.L10
 119 0026 BB79     		ldrb	r3, [r7, #6]	@ zero_extendqisi2
 120 0028 1946     		mov	r1, r3
 121 002a 4420     		movs	r0, #68
 122 002c FFF7FEFF 		bl	po8030_config
 123 0030 0346     		mov	r3, r0
 124 0032 34E0     		b	.L11
 125              	.L10:
 126 0034 BB79     		ldrb	r3, [r7, #6]	@ zero_extendqisi2
 127 0036 1946     		mov	r1, r3
 128 0038 3020     		movs	r0, #48
 129 003a FFF7FEFF 		bl	po8030_config
 130 003e 0346     		mov	r3, r0
 131 0040 2DE0     		b	.L11
 132              	.L9:
 133 0042 1A4B     		ldr	r3, .L16+4
 134 0044 93F90030 		ldrsb	r3, [r3]
 135 0048 012B     		cmp	r3, #1
 136 004a 10D1     		bne	.L12
 137 004c FB79     		ldrb	r3, [r7, #7]	@ zero_extendqisi2
 138 004e 002B     		cmp	r3, #0
 139 0050 06D1     		bne	.L13
 140 0052 BB79     		ldrb	r3, [r7, #6]	@ zero_extendqisi2
 141 0054 1946     		mov	r1, r3
 142 0056 0D20     		movs	r0, #13
 143 0058 FFF7FEFF 		bl	po6030_config
 144 005c 0346     		mov	r3, r0
 145 005e 1EE0     		b	.L11
 146              	.L13:
 147 0060 BB79     		ldrb	r3, [r7, #6]	@ zero_extendqisi2
 148 0062 1946     		mov	r1, r3
 149 0064 0820     		movs	r0, #8
 150 0066 FFF7FEFF 		bl	po6030_config
 151 006a 0346     		mov	r3, r0
 152 006c 17E0     		b	.L11
 153              	.L12:
 154 006e 0F4B     		ldr	r3, .L16+4
 155 0070 93F90030 		ldrsb	r3, [r3]
 156 0074 022B     		cmp	r3, #2
 157 0076 10D1     		bne	.L14
 158 0078 FB79     		ldrb	r3, [r7, #7]	@ zero_extendqisi2
 159 007a 002B     		cmp	r3, #0
 160 007c 06D1     		bne	.L15
 161 007e BB79     		ldrb	r3, [r7, #6]	@ zero_extendqisi2
 162 0080 1946     		mov	r1, r3
 163 0082 0220     		movs	r0, #2
 164 0084 FFF7FEFF 		bl	ov7670_config
 165 0088 0346     		mov	r3, r0
 166 008a 08E0     		b	.L11
 167              	.L15:
 168 008c BB79     		ldrb	r3, [r7, #6]	@ zero_extendqisi2
 169 008e 1946     		mov	r1, r3
 170 0090 0120     		movs	r0, #1
 171 0092 FFF7FEFF 		bl	ov7670_config
ARM GAS  /var/folders/d2/nstgp4h54kz7g1l847x_b8wc0000gn/T//ccEhiHV1.s 			page 4


 172 0096 0346     		mov	r3, r0
 173 0098 01E0     		b	.L11
 174              	.L14:
 175 009a 4FF0FF33 		mov	r3, #-1
 176              	.L11:
 177 009e 1846     		mov	r0, r3
 178 00a0 0837     		adds	r7, r7, #8
 179 00a2 BD46     		mov	sp, r7
 180              		@ sp needed
 181 00a4 80BD     		pop	{r7, pc}
 182              	.L17:
 183 00a6 00BF     		.align	2
 184              	.L16:
 185 00a8 00000000 		.word	curr_format
 186 00ac 00000000 		.word	curr_cam
 187              		.size	cam_config, .-cam_config
 188              		.section	.text.cam_get_image_size,"ax",%progbits
 189              		.align	1
 190              		.global	cam_get_image_size
 191              		.syntax unified
 192              		.thumb
 193              		.thumb_func
 194              		.fpu fpv4-sp-d16
 195              		.type	cam_get_image_size, %function
 196              	cam_get_image_size:
 197              		@ args = 0, pretend = 0, frame = 0
 198              		@ frame_needed = 1, uses_anonymous_args = 0
 199 0000 80B5     		push	{r7, lr}
 200 0002 00AF     		add	r7, sp, #0
 201 0004 0E4B     		ldr	r3, .L23
 202 0006 93F90030 		ldrsb	r3, [r3]
 203 000a 002B     		cmp	r3, #0
 204 000c 03D1     		bne	.L19
 205 000e FFF7FEFF 		bl	po8030_get_image_size
 206 0012 0346     		mov	r3, r0
 207 0014 12E0     		b	.L20
 208              	.L19:
 209 0016 0A4B     		ldr	r3, .L23
 210 0018 93F90030 		ldrsb	r3, [r3]
 211 001c 012B     		cmp	r3, #1
 212 001e 03D1     		bne	.L21
 213 0020 FFF7FEFF 		bl	po6030_get_image_size
 214 0024 0346     		mov	r3, r0
 215 0026 09E0     		b	.L20
 216              	.L21:
 217 0028 054B     		ldr	r3, .L23
 218 002a 93F90030 		ldrsb	r3, [r3]
 219 002e 022B     		cmp	r3, #2
 220 0030 03D1     		bne	.L22
 221 0032 FFF7FEFF 		bl	ov7670_get_image_size
 222 0036 0346     		mov	r3, r0
 223 0038 00E0     		b	.L20
 224              	.L22:
 225 003a 0023     		movs	r3, #0
 226              	.L20:
 227 003c 1846     		mov	r0, r3
 228 003e 80BD     		pop	{r7, pc}
ARM GAS  /var/folders/d2/nstgp4h54kz7g1l847x_b8wc0000gn/T//ccEhiHV1.s 			page 5


 229              	.L24:
 230              		.align	2
 231              	.L23:
 232 0040 00000000 		.word	curr_cam
 233              		.size	cam_get_image_size, .-cam_get_image_size
 234              		.section	.text.cam_get_mem_required,"ax",%progbits
 235              		.align	1
 236              		.global	cam_get_mem_required
 237              		.syntax unified
 238              		.thumb
 239              		.thumb_func
 240              		.fpu fpv4-sp-d16
 241              		.type	cam_get_mem_required, %function
 242              	cam_get_mem_required:
 243              		@ args = 0, pretend = 0, frame = 0
 244              		@ frame_needed = 1, uses_anonymous_args = 0
 245 0000 80B5     		push	{r7, lr}
 246 0002 00AF     		add	r7, sp, #0
 247 0004 134B     		ldr	r3, .L31
 248 0006 93F90030 		ldrsb	r3, [r3]
 249 000a 002B     		cmp	r3, #0
 250 000c 03D1     		bne	.L26
 251 000e FFF7FEFF 		bl	po8030_get_image_size
 252 0012 0346     		mov	r3, r0
 253 0014 1BE0     		b	.L27
 254              	.L26:
 255 0016 0F4B     		ldr	r3, .L31
 256 0018 93F90030 		ldrsb	r3, [r3]
 257 001c 012B     		cmp	r3, #1
 258 001e 03D1     		bne	.L28
 259 0020 FFF7FEFF 		bl	po6030_get_image_size
 260 0024 0346     		mov	r3, r0
 261 0026 12E0     		b	.L27
 262              	.L28:
 263 0028 0A4B     		ldr	r3, .L31
 264 002a 93F90030 		ldrsb	r3, [r3]
 265 002e 022B     		cmp	r3, #2
 266 0030 0CD1     		bne	.L29
 267 0032 094B     		ldr	r3, .L31+4
 268 0034 1B78     		ldrb	r3, [r3]	@ zero_extendqisi2
 269 0036 002B     		cmp	r3, #0
 270 0038 04D1     		bne	.L30
 271 003a FFF7FEFF 		bl	ov7670_get_image_size
 272 003e 0346     		mov	r3, r0
 273 0040 5B00     		lsls	r3, r3, #1
 274 0042 04E0     		b	.L27
 275              	.L30:
 276 0044 FFF7FEFF 		bl	ov7670_get_image_size
 277 0048 0346     		mov	r3, r0
 278 004a 00E0     		b	.L27
 279              	.L29:
 280 004c 0023     		movs	r3, #0
 281              	.L27:
 282 004e 1846     		mov	r0, r3
 283 0050 80BD     		pop	{r7, pc}
 284              	.L32:
 285 0052 00BF     		.align	2
ARM GAS  /var/folders/d2/nstgp4h54kz7g1l847x_b8wc0000gn/T//ccEhiHV1.s 			page 6


 286              	.L31:
 287 0054 00000000 		.word	curr_cam
 288 0058 00000000 		.word	curr_format
 289              		.size	cam_get_mem_required, .-cam_get_mem_required
 290              		.section	.text.cam_advanced_config,"ax",%progbits
 291              		.align	1
 292              		.global	cam_advanced_config
 293              		.syntax unified
 294              		.thumb
 295              		.thumb_func
 296              		.fpu fpv4-sp-d16
 297              		.type	cam_advanced_config, %function
 298              	cam_advanced_config:
 299              		@ args = 12, pretend = 0, frame = 16
 300              		@ frame_needed = 1, uses_anonymous_args = 0
 301 0000 80B5     		push	{r7, lr}
 302 0002 88B0     		sub	sp, sp, #32
 303 0004 04AF     		add	r7, sp, #16
 304 0006 B960     		str	r1, [r7, #8]
 305 0008 7A60     		str	r2, [r7, #4]
 306 000a 3B60     		str	r3, [r7]
 307 000c 0346     		mov	r3, r0
 308 000e FB73     		strb	r3, [r7, #15]
 309 0010 3D4A     		ldr	r2, .L41
 310 0012 FB7B     		ldrb	r3, [r7, #15]
 311 0014 1370     		strb	r3, [r2]
 312 0016 3D4B     		ldr	r3, .L41+4
 313 0018 93F90030 		ldrsb	r3, [r3]
 314 001c 002B     		cmp	r3, #0
 315 001e 20D1     		bne	.L34
 316 0020 FB7B     		ldrb	r3, [r7, #15]	@ zero_extendqisi2
 317 0022 002B     		cmp	r3, #0
 318 0024 0ED1     		bne	.L35
 319 0026 97F82030 		ldrb	r3, [r7, #32]	@ zero_extendqisi2
 320 002a 0293     		str	r3, [sp, #8]
 321 002c 3B7F     		ldrb	r3, [r7, #28]	@ zero_extendqisi2
 322 002e 0193     		str	r3, [sp, #4]
 323 0030 BB69     		ldr	r3, [r7, #24]
 324 0032 0093     		str	r3, [sp]
 325 0034 3B68     		ldr	r3, [r7]
 326 0036 7A68     		ldr	r2, [r7, #4]
 327 0038 B968     		ldr	r1, [r7, #8]
 328 003a 4420     		movs	r0, #68
 329 003c FFF7FEFF 		bl	po8030_advanced_config
 330 0040 0346     		mov	r3, r0
 331 0042 5CE0     		b	.L36
 332              	.L35:
 333 0044 97F82030 		ldrb	r3, [r7, #32]	@ zero_extendqisi2
 334 0048 0293     		str	r3, [sp, #8]
 335 004a 3B7F     		ldrb	r3, [r7, #28]	@ zero_extendqisi2
 336 004c 0193     		str	r3, [sp, #4]
 337 004e BB69     		ldr	r3, [r7, #24]
 338 0050 0093     		str	r3, [sp]
 339 0052 3B68     		ldr	r3, [r7]
 340 0054 7A68     		ldr	r2, [r7, #4]
 341 0056 B968     		ldr	r1, [r7, #8]
 342 0058 3020     		movs	r0, #48
ARM GAS  /var/folders/d2/nstgp4h54kz7g1l847x_b8wc0000gn/T//ccEhiHV1.s 			page 7


 343 005a FFF7FEFF 		bl	po8030_advanced_config
 344 005e 0346     		mov	r3, r0
 345 0060 4DE0     		b	.L36
 346              	.L34:
 347 0062 2A4B     		ldr	r3, .L41+4
 348 0064 93F90030 		ldrsb	r3, [r3]
 349 0068 012B     		cmp	r3, #1
 350 006a 20D1     		bne	.L37
 351 006c FB7B     		ldrb	r3, [r7, #15]	@ zero_extendqisi2
 352 006e 002B     		cmp	r3, #0
 353 0070 0ED1     		bne	.L38
 354 0072 97F82030 		ldrb	r3, [r7, #32]	@ zero_extendqisi2
 355 0076 0293     		str	r3, [sp, #8]
 356 0078 3B7F     		ldrb	r3, [r7, #28]	@ zero_extendqisi2
 357 007a 0193     		str	r3, [sp, #4]
 358 007c BB69     		ldr	r3, [r7, #24]
 359 007e 0093     		str	r3, [sp]
 360 0080 3B68     		ldr	r3, [r7]
 361 0082 7A68     		ldr	r2, [r7, #4]
 362 0084 B968     		ldr	r1, [r7, #8]
 363 0086 0D20     		movs	r0, #13
 364 0088 FFF7FEFF 		bl	po6030_advanced_config
 365 008c 0346     		mov	r3, r0
 366 008e 36E0     		b	.L36
 367              	.L38:
 368 0090 97F82030 		ldrb	r3, [r7, #32]	@ zero_extendqisi2
 369 0094 0293     		str	r3, [sp, #8]
 370 0096 3B7F     		ldrb	r3, [r7, #28]	@ zero_extendqisi2
 371 0098 0193     		str	r3, [sp, #4]
 372 009a BB69     		ldr	r3, [r7, #24]
 373 009c 0093     		str	r3, [sp]
 374 009e 3B68     		ldr	r3, [r7]
 375 00a0 7A68     		ldr	r2, [r7, #4]
 376 00a2 B968     		ldr	r1, [r7, #8]
 377 00a4 0820     		movs	r0, #8
 378 00a6 FFF7FEFF 		bl	po6030_advanced_config
 379 00aa 0346     		mov	r3, r0
 380 00ac 27E0     		b	.L36
 381              	.L37:
 382 00ae 174B     		ldr	r3, .L41+4
 383 00b0 93F90030 		ldrsb	r3, [r3]
 384 00b4 022B     		cmp	r3, #2
 385 00b6 20D1     		bne	.L39
 386 00b8 FB7B     		ldrb	r3, [r7, #15]	@ zero_extendqisi2
 387 00ba 002B     		cmp	r3, #0
 388 00bc 0ED1     		bne	.L40
 389 00be 97F82030 		ldrb	r3, [r7, #32]	@ zero_extendqisi2
 390 00c2 0293     		str	r3, [sp, #8]
 391 00c4 3B7F     		ldrb	r3, [r7, #28]	@ zero_extendqisi2
 392 00c6 0193     		str	r3, [sp, #4]
 393 00c8 BB69     		ldr	r3, [r7, #24]
 394 00ca 0093     		str	r3, [sp]
 395 00cc 3B68     		ldr	r3, [r7]
 396 00ce 7A68     		ldr	r2, [r7, #4]
 397 00d0 B968     		ldr	r1, [r7, #8]
 398 00d2 0220     		movs	r0, #2
 399 00d4 FFF7FEFF 		bl	ov7670_advanced_config
ARM GAS  /var/folders/d2/nstgp4h54kz7g1l847x_b8wc0000gn/T//ccEhiHV1.s 			page 8


 400 00d8 0346     		mov	r3, r0
 401 00da 10E0     		b	.L36
 402              	.L40:
 403 00dc 97F82030 		ldrb	r3, [r7, #32]	@ zero_extendqisi2
 404 00e0 0293     		str	r3, [sp, #8]
 405 00e2 3B7F     		ldrb	r3, [r7, #28]	@ zero_extendqisi2
 406 00e4 0193     		str	r3, [sp, #4]
 407 00e6 BB69     		ldr	r3, [r7, #24]
 408 00e8 0093     		str	r3, [sp]
 409 00ea 3B68     		ldr	r3, [r7]
 410 00ec 7A68     		ldr	r2, [r7, #4]
 411 00ee B968     		ldr	r1, [r7, #8]
 412 00f0 0120     		movs	r0, #1
 413 00f2 FFF7FEFF 		bl	ov7670_advanced_config
 414 00f6 0346     		mov	r3, r0
 415 00f8 01E0     		b	.L36
 416              	.L39:
 417 00fa 4FF0FF33 		mov	r3, #-1
 418              	.L36:
 419 00fe 1846     		mov	r0, r3
 420 0100 1037     		adds	r7, r7, #16
 421 0102 BD46     		mov	sp, r7
 422              		@ sp needed
 423 0104 80BD     		pop	{r7, pc}
 424              	.L42:
 425 0106 00BF     		.align	2
 426              	.L41:
 427 0108 00000000 		.word	curr_format
 428 010c 00000000 		.word	curr_cam
 429              		.size	cam_advanced_config, .-cam_advanced_config
 430              		.section	.text.cam_set_brightness,"ax",%progbits
 431              		.align	1
 432              		.global	cam_set_brightness
 433              		.syntax unified
 434              		.thumb
 435              		.thumb_func
 436              		.fpu fpv4-sp-d16
 437              		.type	cam_set_brightness, %function
 438              	cam_set_brightness:
 439              		@ args = 0, pretend = 0, frame = 16
 440              		@ frame_needed = 1, uses_anonymous_args = 0
 441 0000 80B5     		push	{r7, lr}
 442 0002 84B0     		sub	sp, sp, #16
 443 0004 00AF     		add	r7, sp, #0
 444 0006 0346     		mov	r3, r0
 445 0008 FB71     		strb	r3, [r7, #7]
 446 000a FB79     		ldrb	r3, [r7, #7]
 447 000c FB73     		strb	r3, [r7, #15]
 448 000e 1E4B     		ldr	r3, .L50
 449 0010 93F90030 		ldrsb	r3, [r3]
 450 0014 002B     		cmp	r3, #0
 451 0016 10D1     		bne	.L44
 452 0018 97F90730 		ldrsb	r3, [r7, #7]
 453 001c 002B     		cmp	r3, #0
 454 001e 06DA     		bge	.L45
 455 0020 FB79     		ldrb	r3, [r7, #7]	@ zero_extendqisi2
 456 0022 5B42     		negs	r3, r3
ARM GAS  /var/folders/d2/nstgp4h54kz7g1l847x_b8wc0000gn/T//ccEhiHV1.s 			page 9


 457 0024 FB73     		strb	r3, [r7, #15]
 458 0026 FB7B     		ldrb	r3, [r7, #15]
 459 0028 63F07F03 		orn	r3, r3, #127
 460 002c FB73     		strb	r3, [r7, #15]
 461              	.L45:
 462 002e FB7B     		ldrb	r3, [r7, #15]	@ zero_extendqisi2
 463 0030 1846     		mov	r0, r3
 464 0032 FFF7FEFF 		bl	po8030_set_brightness
 465 0036 0346     		mov	r3, r0
 466 0038 22E0     		b	.L46
 467              	.L44:
 468 003a 134B     		ldr	r3, .L50
 469 003c 93F90030 		ldrsb	r3, [r3]
 470 0040 012B     		cmp	r3, #1
 471 0042 05D1     		bne	.L47
 472 0044 FB7B     		ldrb	r3, [r7, #15]	@ zero_extendqisi2
 473 0046 1846     		mov	r0, r3
 474 0048 FFF7FEFF 		bl	po6030_set_brightness
 475 004c 0346     		mov	r3, r0
 476 004e 17E0     		b	.L46
 477              	.L47:
 478 0050 0D4B     		ldr	r3, .L50
 479 0052 93F90030 		ldrsb	r3, [r3]
 480 0056 022B     		cmp	r3, #2
 481 0058 10D1     		bne	.L48
 482 005a 97F90730 		ldrsb	r3, [r7, #7]
 483 005e 002B     		cmp	r3, #0
 484 0060 06DA     		bge	.L49
 485 0062 FB79     		ldrb	r3, [r7, #7]	@ zero_extendqisi2
 486 0064 5B42     		negs	r3, r3
 487 0066 FB73     		strb	r3, [r7, #15]
 488 0068 FB7B     		ldrb	r3, [r7, #15]
 489 006a 63F07F03 		orn	r3, r3, #127
 490 006e FB73     		strb	r3, [r7, #15]
 491              	.L49:
 492 0070 FB7B     		ldrb	r3, [r7, #15]	@ zero_extendqisi2
 493 0072 1846     		mov	r0, r3
 494 0074 FFF7FEFF 		bl	ov7670_set_brightness
 495 0078 0346     		mov	r3, r0
 496 007a 01E0     		b	.L46
 497              	.L48:
 498 007c 4FF0FF33 		mov	r3, #-1
 499              	.L46:
 500 0080 1846     		mov	r0, r3
 501 0082 1037     		adds	r7, r7, #16
 502 0084 BD46     		mov	sp, r7
 503              		@ sp needed
 504 0086 80BD     		pop	{r7, pc}
 505              	.L51:
 506              		.align	2
 507              	.L50:
 508 0088 00000000 		.word	curr_cam
 509              		.size	cam_set_brightness, .-cam_set_brightness
 510              		.section	.text.cam_set_contrast,"ax",%progbits
 511              		.align	1
 512              		.global	cam_set_contrast
 513              		.syntax unified
ARM GAS  /var/folders/d2/nstgp4h54kz7g1l847x_b8wc0000gn/T//ccEhiHV1.s 			page 10


 514              		.thumb
 515              		.thumb_func
 516              		.fpu fpv4-sp-d16
 517              		.type	cam_set_contrast, %function
 518              	cam_set_contrast:
 519              		@ args = 0, pretend = 0, frame = 8
 520              		@ frame_needed = 1, uses_anonymous_args = 0
 521 0000 80B5     		push	{r7, lr}
 522 0002 82B0     		sub	sp, sp, #8
 523 0004 00AF     		add	r7, sp, #0
 524 0006 0346     		mov	r3, r0
 525 0008 FB71     		strb	r3, [r7, #7]
 526 000a 134B     		ldr	r3, .L57
 527 000c 93F90030 		ldrsb	r3, [r3]
 528 0010 002B     		cmp	r3, #0
 529 0012 05D1     		bne	.L53
 530 0014 FB79     		ldrb	r3, [r7, #7]	@ zero_extendqisi2
 531 0016 1846     		mov	r0, r3
 532 0018 FFF7FEFF 		bl	po8030_set_contrast
 533 001c 0346     		mov	r3, r0
 534 001e 17E0     		b	.L54
 535              	.L53:
 536 0020 0D4B     		ldr	r3, .L57
 537 0022 93F90030 		ldrsb	r3, [r3]
 538 0026 012B     		cmp	r3, #1
 539 0028 05D1     		bne	.L55
 540 002a FB79     		ldrb	r3, [r7, #7]	@ zero_extendqisi2
 541 002c 1846     		mov	r0, r3
 542 002e FFF7FEFF 		bl	po6030_set_contrast
 543 0032 0346     		mov	r3, r0
 544 0034 0CE0     		b	.L54
 545              	.L55:
 546 0036 084B     		ldr	r3, .L57
 547 0038 93F90030 		ldrsb	r3, [r3]
 548 003c 022B     		cmp	r3, #2
 549 003e 05D1     		bne	.L56
 550 0040 FB79     		ldrb	r3, [r7, #7]	@ zero_extendqisi2
 551 0042 1846     		mov	r0, r3
 552 0044 FFF7FEFF 		bl	ov7670_set_contrast
 553 0048 0346     		mov	r3, r0
 554 004a 01E0     		b	.L54
 555              	.L56:
 556 004c 4FF0FF33 		mov	r3, #-1
 557              	.L54:
 558 0050 1846     		mov	r0, r3
 559 0052 0837     		adds	r7, r7, #8
 560 0054 BD46     		mov	sp, r7
 561              		@ sp needed
 562 0056 80BD     		pop	{r7, pc}
 563              	.L58:
 564              		.align	2
 565              	.L57:
 566 0058 00000000 		.word	curr_cam
 567              		.size	cam_set_contrast, .-cam_set_contrast
 568              		.section	.text.cam_set_mirror,"ax",%progbits
 569              		.align	1
 570              		.global	cam_set_mirror
ARM GAS  /var/folders/d2/nstgp4h54kz7g1l847x_b8wc0000gn/T//ccEhiHV1.s 			page 11


 571              		.syntax unified
 572              		.thumb
 573              		.thumb_func
 574              		.fpu fpv4-sp-d16
 575              		.type	cam_set_mirror, %function
 576              	cam_set_mirror:
 577              		@ args = 0, pretend = 0, frame = 8
 578              		@ frame_needed = 1, uses_anonymous_args = 0
 579 0000 80B5     		push	{r7, lr}
 580 0002 82B0     		sub	sp, sp, #8
 581 0004 00AF     		add	r7, sp, #0
 582 0006 0346     		mov	r3, r0
 583 0008 0A46     		mov	r2, r1
 584 000a FB71     		strb	r3, [r7, #7]
 585 000c 1346     		mov	r3, r2
 586 000e BB71     		strb	r3, [r7, #6]
 587 0010 164B     		ldr	r3, .L64
 588 0012 93F90030 		ldrsb	r3, [r3]
 589 0016 002B     		cmp	r3, #0
 590 0018 07D1     		bne	.L60
 591 001a BA79     		ldrb	r2, [r7, #6]	@ zero_extendqisi2
 592 001c FB79     		ldrb	r3, [r7, #7]	@ zero_extendqisi2
 593 001e 1146     		mov	r1, r2
 594 0020 1846     		mov	r0, r3
 595 0022 FFF7FEFF 		bl	po8030_set_mirror
 596 0026 0346     		mov	r3, r0
 597 0028 1BE0     		b	.L61
 598              	.L60:
 599 002a 104B     		ldr	r3, .L64
 600 002c 93F90030 		ldrsb	r3, [r3]
 601 0030 012B     		cmp	r3, #1
 602 0032 07D1     		bne	.L62
 603 0034 BA79     		ldrb	r2, [r7, #6]	@ zero_extendqisi2
 604 0036 FB79     		ldrb	r3, [r7, #7]	@ zero_extendqisi2
 605 0038 1146     		mov	r1, r2
 606 003a 1846     		mov	r0, r3
 607 003c FFF7FEFF 		bl	po6030_set_mirror
 608 0040 0346     		mov	r3, r0
 609 0042 0EE0     		b	.L61
 610              	.L62:
 611 0044 094B     		ldr	r3, .L64
 612 0046 93F90030 		ldrsb	r3, [r3]
 613 004a 022B     		cmp	r3, #2
 614 004c 07D1     		bne	.L63
 615 004e BA79     		ldrb	r2, [r7, #6]	@ zero_extendqisi2
 616 0050 FB79     		ldrb	r3, [r7, #7]	@ zero_extendqisi2
 617 0052 1146     		mov	r1, r2
 618 0054 1846     		mov	r0, r3
 619 0056 FFF7FEFF 		bl	ov7670_set_mirror
 620 005a 0346     		mov	r3, r0
 621 005c 01E0     		b	.L61
 622              	.L63:
 623 005e 4FF0FF33 		mov	r3, #-1
 624              	.L61:
 625 0062 1846     		mov	r0, r3
 626 0064 0837     		adds	r7, r7, #8
 627 0066 BD46     		mov	sp, r7
ARM GAS  /var/folders/d2/nstgp4h54kz7g1l847x_b8wc0000gn/T//ccEhiHV1.s 			page 12


 628              		@ sp needed
 629 0068 80BD     		pop	{r7, pc}
 630              	.L65:
 631 006a 00BF     		.align	2
 632              	.L64:
 633 006c 00000000 		.word	curr_cam
 634              		.size	cam_set_mirror, .-cam_set_mirror
 635              		.section	.text.cam_set_awb,"ax",%progbits
 636              		.align	1
 637              		.global	cam_set_awb
 638              		.syntax unified
 639              		.thumb
 640              		.thumb_func
 641              		.fpu fpv4-sp-d16
 642              		.type	cam_set_awb, %function
 643              	cam_set_awb:
 644              		@ args = 0, pretend = 0, frame = 8
 645              		@ frame_needed = 1, uses_anonymous_args = 0
 646 0000 80B5     		push	{r7, lr}
 647 0002 82B0     		sub	sp, sp, #8
 648 0004 00AF     		add	r7, sp, #0
 649 0006 0346     		mov	r3, r0
 650 0008 FB71     		strb	r3, [r7, #7]
 651 000a 134B     		ldr	r3, .L71
 652 000c 93F90030 		ldrsb	r3, [r3]
 653 0010 002B     		cmp	r3, #0
 654 0012 05D1     		bne	.L67
 655 0014 FB79     		ldrb	r3, [r7, #7]	@ zero_extendqisi2
 656 0016 1846     		mov	r0, r3
 657 0018 FFF7FEFF 		bl	po8030_set_awb
 658 001c 0346     		mov	r3, r0
 659 001e 17E0     		b	.L68
 660              	.L67:
 661 0020 0D4B     		ldr	r3, .L71
 662 0022 93F90030 		ldrsb	r3, [r3]
 663 0026 012B     		cmp	r3, #1
 664 0028 05D1     		bne	.L69
 665 002a FB79     		ldrb	r3, [r7, #7]	@ zero_extendqisi2
 666 002c 1846     		mov	r0, r3
 667 002e FFF7FEFF 		bl	po6030_set_awb
 668 0032 0346     		mov	r3, r0
 669 0034 0CE0     		b	.L68
 670              	.L69:
 671 0036 084B     		ldr	r3, .L71
 672 0038 93F90030 		ldrsb	r3, [r3]
 673 003c 022B     		cmp	r3, #2
 674 003e 05D1     		bne	.L70
 675 0040 FB79     		ldrb	r3, [r7, #7]	@ zero_extendqisi2
 676 0042 1846     		mov	r0, r3
 677 0044 FFF7FEFF 		bl	ov7670_set_awb
 678 0048 0346     		mov	r3, r0
 679 004a 01E0     		b	.L68
 680              	.L70:
 681 004c 4FF0FF33 		mov	r3, #-1
 682              	.L68:
 683 0050 1846     		mov	r0, r3
 684 0052 0837     		adds	r7, r7, #8
ARM GAS  /var/folders/d2/nstgp4h54kz7g1l847x_b8wc0000gn/T//ccEhiHV1.s 			page 13


 685 0054 BD46     		mov	sp, r7
 686              		@ sp needed
 687 0056 80BD     		pop	{r7, pc}
 688              	.L72:
 689              		.align	2
 690              	.L71:
 691 0058 00000000 		.word	curr_cam
 692              		.size	cam_set_awb, .-cam_set_awb
 693              		.section	.text.cam_set_rgb_gain,"ax",%progbits
 694              		.align	1
 695              		.global	cam_set_rgb_gain
 696              		.syntax unified
 697              		.thumb
 698              		.thumb_func
 699              		.fpu fpv4-sp-d16
 700              		.type	cam_set_rgb_gain, %function
 701              	cam_set_rgb_gain:
 702              		@ args = 0, pretend = 0, frame = 8
 703              		@ frame_needed = 1, uses_anonymous_args = 0
 704 0000 80B5     		push	{r7, lr}
 705 0002 82B0     		sub	sp, sp, #8
 706 0004 00AF     		add	r7, sp, #0
 707 0006 0346     		mov	r3, r0
 708 0008 FB71     		strb	r3, [r7, #7]
 709 000a 0B46     		mov	r3, r1
 710 000c BB71     		strb	r3, [r7, #6]
 711 000e 1346     		mov	r3, r2
 712 0010 7B71     		strb	r3, [r7, #5]
 713 0012 164B     		ldr	r3, .L78
 714 0014 93F90030 		ldrsb	r3, [r3]
 715 0018 002B     		cmp	r3, #0
 716 001a 07D1     		bne	.L74
 717 001c 7A79     		ldrb	r2, [r7, #5]	@ zero_extendqisi2
 718 001e B979     		ldrb	r1, [r7, #6]	@ zero_extendqisi2
 719 0020 FB79     		ldrb	r3, [r7, #7]	@ zero_extendqisi2
 720 0022 1846     		mov	r0, r3
 721 0024 FFF7FEFF 		bl	po8030_set_rgb_gain
 722 0028 0346     		mov	r3, r0
 723 002a 1BE0     		b	.L75
 724              	.L74:
 725 002c 0F4B     		ldr	r3, .L78
 726 002e 93F90030 		ldrsb	r3, [r3]
 727 0032 012B     		cmp	r3, #1
 728 0034 07D1     		bne	.L76
 729 0036 7A79     		ldrb	r2, [r7, #5]	@ zero_extendqisi2
 730 0038 B979     		ldrb	r1, [r7, #6]	@ zero_extendqisi2
 731 003a FB79     		ldrb	r3, [r7, #7]	@ zero_extendqisi2
 732 003c 1846     		mov	r0, r3
 733 003e FFF7FEFF 		bl	po6030_set_rgb_gain
 734 0042 0346     		mov	r3, r0
 735 0044 0EE0     		b	.L75
 736              	.L76:
 737 0046 094B     		ldr	r3, .L78
 738 0048 93F90030 		ldrsb	r3, [r3]
 739 004c 022B     		cmp	r3, #2
 740 004e 07D1     		bne	.L77
 741 0050 7A79     		ldrb	r2, [r7, #5]	@ zero_extendqisi2
ARM GAS  /var/folders/d2/nstgp4h54kz7g1l847x_b8wc0000gn/T//ccEhiHV1.s 			page 14


 742 0052 B979     		ldrb	r1, [r7, #6]	@ zero_extendqisi2
 743 0054 FB79     		ldrb	r3, [r7, #7]	@ zero_extendqisi2
 744 0056 1846     		mov	r0, r3
 745 0058 FFF7FEFF 		bl	ov7670_set_rgb_gain
 746 005c 0346     		mov	r3, r0
 747 005e 01E0     		b	.L75
 748              	.L77:
 749 0060 4FF0FF33 		mov	r3, #-1
 750              	.L75:
 751 0064 1846     		mov	r0, r3
 752 0066 0837     		adds	r7, r7, #8
 753 0068 BD46     		mov	sp, r7
 754              		@ sp needed
 755 006a 80BD     		pop	{r7, pc}
 756              	.L79:
 757              		.align	2
 758              	.L78:
 759 006c 00000000 		.word	curr_cam
 760              		.size	cam_set_rgb_gain, .-cam_set_rgb_gain
 761              		.section	.text.cam_set_ae,"ax",%progbits
 762              		.align	1
 763              		.global	cam_set_ae
 764              		.syntax unified
 765              		.thumb
 766              		.thumb_func
 767              		.fpu fpv4-sp-d16
 768              		.type	cam_set_ae, %function
 769              	cam_set_ae:
 770              		@ args = 0, pretend = 0, frame = 8
 771              		@ frame_needed = 1, uses_anonymous_args = 0
 772 0000 80B5     		push	{r7, lr}
 773 0002 82B0     		sub	sp, sp, #8
 774 0004 00AF     		add	r7, sp, #0
 775 0006 0346     		mov	r3, r0
 776 0008 FB71     		strb	r3, [r7, #7]
 777 000a 134B     		ldr	r3, .L85
 778 000c 93F90030 		ldrsb	r3, [r3]
 779 0010 002B     		cmp	r3, #0
 780 0012 05D1     		bne	.L81
 781 0014 FB79     		ldrb	r3, [r7, #7]	@ zero_extendqisi2
 782 0016 1846     		mov	r0, r3
 783 0018 FFF7FEFF 		bl	po8030_set_ae
 784 001c 0346     		mov	r3, r0
 785 001e 17E0     		b	.L82
 786              	.L81:
 787 0020 0D4B     		ldr	r3, .L85
 788 0022 93F90030 		ldrsb	r3, [r3]
 789 0026 012B     		cmp	r3, #1
 790 0028 05D1     		bne	.L83
 791 002a FB79     		ldrb	r3, [r7, #7]	@ zero_extendqisi2
 792 002c 1846     		mov	r0, r3
 793 002e FFF7FEFF 		bl	po6030_set_ae
 794 0032 0346     		mov	r3, r0
 795 0034 0CE0     		b	.L82
 796              	.L83:
 797 0036 084B     		ldr	r3, .L85
 798 0038 93F90030 		ldrsb	r3, [r3]
ARM GAS  /var/folders/d2/nstgp4h54kz7g1l847x_b8wc0000gn/T//ccEhiHV1.s 			page 15


 799 003c 022B     		cmp	r3, #2
 800 003e 05D1     		bne	.L84
 801 0040 FB79     		ldrb	r3, [r7, #7]	@ zero_extendqisi2
 802 0042 1846     		mov	r0, r3
 803 0044 FFF7FEFF 		bl	ov7670_set_ae
 804 0048 0346     		mov	r3, r0
 805 004a 01E0     		b	.L82
 806              	.L84:
 807 004c 4FF0FF33 		mov	r3, #-1
 808              	.L82:
 809 0050 1846     		mov	r0, r3
 810 0052 0837     		adds	r7, r7, #8
 811 0054 BD46     		mov	sp, r7
 812              		@ sp needed
 813 0056 80BD     		pop	{r7, pc}
 814              	.L86:
 815              		.align	2
 816              	.L85:
 817 0058 00000000 		.word	curr_cam
 818              		.size	cam_set_ae, .-cam_set_ae
 819              		.section	.text.cam_set_exposure,"ax",%progbits
 820              		.align	1
 821              		.global	cam_set_exposure
 822              		.syntax unified
 823              		.thumb
 824              		.thumb_func
 825              		.fpu fpv4-sp-d16
 826              		.type	cam_set_exposure, %function
 827              	cam_set_exposure:
 828              		@ args = 0, pretend = 0, frame = 8
 829              		@ frame_needed = 1, uses_anonymous_args = 0
 830 0000 80B5     		push	{r7, lr}
 831 0002 82B0     		sub	sp, sp, #8
 832 0004 00AF     		add	r7, sp, #0
 833 0006 0346     		mov	r3, r0
 834 0008 0A46     		mov	r2, r1
 835 000a FB80     		strh	r3, [r7, #6]	@ movhi
 836 000c 1346     		mov	r3, r2
 837 000e 7B71     		strb	r3, [r7, #5]
 838 0010 154B     		ldr	r3, .L92
 839 0012 93F90030 		ldrsb	r3, [r3]
 840 0016 002B     		cmp	r3, #0
 841 0018 07D1     		bne	.L88
 842 001a 7A79     		ldrb	r2, [r7, #5]	@ zero_extendqisi2
 843 001c FB88     		ldrh	r3, [r7, #6]
 844 001e 1146     		mov	r1, r2
 845 0020 1846     		mov	r0, r3
 846 0022 FFF7FEFF 		bl	po8030_set_exposure
 847 0026 0346     		mov	r3, r0
 848 0028 19E0     		b	.L89
 849              	.L88:
 850 002a 0F4B     		ldr	r3, .L92
 851 002c 93F90030 		ldrsb	r3, [r3]
 852 0030 012B     		cmp	r3, #1
 853 0032 07D1     		bne	.L90
 854 0034 7A79     		ldrb	r2, [r7, #5]	@ zero_extendqisi2
 855 0036 FB88     		ldrh	r3, [r7, #6]
ARM GAS  /var/folders/d2/nstgp4h54kz7g1l847x_b8wc0000gn/T//ccEhiHV1.s 			page 16


 856 0038 1146     		mov	r1, r2
 857 003a 1846     		mov	r0, r3
 858 003c FFF7FEFF 		bl	po6030_set_exposure
 859 0040 0346     		mov	r3, r0
 860 0042 0CE0     		b	.L89
 861              	.L90:
 862 0044 084B     		ldr	r3, .L92
 863 0046 93F90030 		ldrsb	r3, [r3]
 864 004a 022B     		cmp	r3, #2
 865 004c 05D1     		bne	.L91
 866 004e FB88     		ldrh	r3, [r7, #6]
 867 0050 1846     		mov	r0, r3
 868 0052 FFF7FEFF 		bl	ov7670_set_exposure
 869 0056 0346     		mov	r3, r0
 870 0058 01E0     		b	.L89
 871              	.L91:
 872 005a 4FF0FF33 		mov	r3, #-1
 873              	.L89:
 874 005e 1846     		mov	r0, r3
 875 0060 0837     		adds	r7, r7, #8
 876 0062 BD46     		mov	sp, r7
 877              		@ sp needed
 878 0064 80BD     		pop	{r7, pc}
 879              	.L93:
 880 0066 00BF     		.align	2
 881              	.L92:
 882 0068 00000000 		.word	curr_cam
 883              		.size	cam_set_exposure, .-cam_set_exposure
 884              		.section	.text.cam_get_id,"ax",%progbits
 885              		.align	1
 886              		.global	cam_get_id
 887              		.syntax unified
 888              		.thumb
 889              		.thumb_func
 890              		.fpu fpv4-sp-d16
 891              		.type	cam_get_id, %function
 892              	cam_get_id:
 893              		@ args = 0, pretend = 0, frame = 0
 894              		@ frame_needed = 1, uses_anonymous_args = 0
 895              		@ link register save eliminated.
 896 0000 80B4     		push	{r7}
 897 0002 00AF     		add	r7, sp, #0
 898 0004 0E4B     		ldr	r3, .L99
 899 0006 93F90030 		ldrsb	r3, [r3]
 900 000a 002B     		cmp	r3, #0
 901 000c 02D1     		bne	.L95
 902 000e 48F23003 		movw	r3, #32816
 903 0012 10E0     		b	.L96
 904              	.L95:
 905 0014 0A4B     		ldr	r3, .L99
 906 0016 93F90030 		ldrsb	r3, [r3]
 907 001a 012B     		cmp	r3, #1
 908 001c 02D1     		bne	.L97
 909 001e 46F23003 		movw	r3, #24624
 910 0022 08E0     		b	.L96
 911              	.L97:
 912 0024 064B     		ldr	r3, .L99
ARM GAS  /var/folders/d2/nstgp4h54kz7g1l847x_b8wc0000gn/T//ccEhiHV1.s 			page 17


 913 0026 93F90030 		ldrsb	r3, [r3]
 914 002a 022B     		cmp	r3, #2
 915 002c 02D1     		bne	.L98
 916 002e 47F27063 		movw	r3, #30320
 917 0032 00E0     		b	.L96
 918              	.L98:
 919 0034 0023     		movs	r3, #0
 920              	.L96:
 921 0036 1846     		mov	r0, r3
 922 0038 BD46     		mov	sp, r7
 923              		@ sp needed
 924 003a 5DF8047B 		ldr	r7, [sp], #4
 925 003e 7047     		bx	lr
 926              	.L100:
 927              		.align	2
 928              	.L99:
 929 0040 00000000 		.word	curr_cam
 930              		.size	cam_get_id, .-cam_get_id
 931              		.section	.text.cam_get_last_image_ptr,"ax",%progbits
 932              		.align	1
 933              		.global	cam_get_last_image_ptr
 934              		.syntax unified
 935              		.thumb
 936              		.thumb_func
 937              		.fpu fpv4-sp-d16
 938              		.type	cam_get_last_image_ptr, %function
 939              	cam_get_last_image_ptr:
 940              		@ args = 0, pretend = 0, frame = 8
 941              		@ frame_needed = 1, uses_anonymous_args = 0
 942 0000 90B5     		push	{r4, r7, lr}
 943 0002 83B0     		sub	sp, sp, #12
 944 0004 00AF     		add	r7, sp, #0
 945 0006 FFF7FEFF 		bl	dcmi_get_last_image_ptr
 946 000a 3860     		str	r0, [r7]
 947 000c 0023     		movs	r3, #0
 948 000e FB80     		strh	r3, [r7, #6]	@ movhi
 949 0010 0023     		movs	r3, #0
 950 0012 BB80     		strh	r3, [r7, #4]	@ movhi
 951 0014 134B     		ldr	r3, .L106
 952 0016 93F90030 		ldrsb	r3, [r3]
 953 001a 022B     		cmp	r3, #2
 954 001c 1CD1     		bne	.L102
 955 001e 124B     		ldr	r3, .L106+4
 956 0020 1B78     		ldrb	r3, [r3]	@ zero_extendqisi2
 957 0022 002B     		cmp	r3, #0
 958 0024 18D1     		bne	.L102
 959 0026 0023     		movs	r3, #0
 960 0028 FB80     		strh	r3, [r7, #6]	@ movhi
 961 002a 0023     		movs	r3, #0
 962 002c BB80     		strh	r3, [r7, #4]	@ movhi
 963 002e 0DE0     		b	.L103
 964              	.L104:
 965 0030 FB88     		ldrh	r3, [r7, #6]
 966 0032 3A68     		ldr	r2, [r7]
 967 0034 1A44     		add	r2, r2, r3
 968 0036 BB88     		ldrh	r3, [r7, #4]
 969 0038 3968     		ldr	r1, [r7]
ARM GAS  /var/folders/d2/nstgp4h54kz7g1l847x_b8wc0000gn/T//ccEhiHV1.s 			page 18


 970 003a 0B44     		add	r3, r3, r1
 971 003c 1278     		ldrb	r2, [r2]	@ zero_extendqisi2
 972 003e 1A70     		strb	r2, [r3]
 973 0040 FB88     		ldrh	r3, [r7, #6]	@ movhi
 974 0042 0233     		adds	r3, r3, #2
 975 0044 FB80     		strh	r3, [r7, #6]	@ movhi
 976 0046 BB88     		ldrh	r3, [r7, #4]
 977 0048 0133     		adds	r3, r3, #1
 978 004a BB80     		strh	r3, [r7, #4]	@ movhi
 979              	.L103:
 980 004c FC88     		ldrh	r4, [r7, #6]
 981 004e FFF7FEFF 		bl	cam_get_mem_required
 982 0052 0346     		mov	r3, r0
 983 0054 9C42     		cmp	r4, r3
 984 0056 EBD3     		bcc	.L104
 985              	.L102:
 986 0058 3B68     		ldr	r3, [r7]
 987 005a 1846     		mov	r0, r3
 988 005c 0C37     		adds	r7, r7, #12
 989 005e BD46     		mov	sp, r7
 990              		@ sp needed
 991 0060 90BD     		pop	{r4, r7, pc}
 992              	.L107:
 993 0062 00BF     		.align	2
 994              	.L106:
 995 0064 00000000 		.word	curr_cam
 996 0068 00000000 		.word	curr_format
 997              		.size	cam_get_last_image_ptr, .-cam_get_last_image_ptr
 998              		.section	.rodata.pwmcfg_cam.10206,"a",%progbits
 999              		.align	2
 1000              		.type	pwmcfg_cam.10206, %object
 1001              		.size	pwmcfg_cam.10206, 52
 1002              	pwmcfg_cam.10206:
 1003 0000 80DE8002 		.word	42000000
 1004 0004 02000000 		.word	2
 1005 0008 00000000 		.word	0
 1006 000c 01000000 		.word	1
 1007 0010 00000000 		.word	0
 1008 0014 00000000 		.word	0
 1009 0018 00000000 		.word	0
 1010 001c 00000000 		.word	0
 1011 0020 00000000 		.word	0
 1012 0024 00000000 		.word	0
 1013 0028 00000000 		.word	0
 1014 002c 00000000 		.word	0
 1015 0030 00000000 		.space	4
 1016              		.ident	"GCC: (GNU Tools for Arm Embedded Processors 7-2017-q4-major) 7.2.1 20170904 (release) [ARM
ARM GAS  /var/folders/d2/nstgp4h54kz7g1l847x_b8wc0000gn/T//ccEhiHV1.s 			page 19

