ARM GAS  /var/folders/d2/nstgp4h54kz7g1l847x_b8wc0000gn/T//cctjqpgp.s 			page 1


   1              		.cpu cortex-m4
   2              		.eabi_attribute 27, 1
   3              		.eabi_attribute 28, 1
   4              		.eabi_attribute 20, 1
   5              		.eabi_attribute 21, 1
   6              		.eabi_attribute 23, 3
   7              		.eabi_attribute 24, 1
   8              		.eabi_attribute 25, 1
   9              		.eabi_attribute 26, 1
  10              		.eabi_attribute 30, 2
  11              		.eabi_attribute 34, 1
  12              		.eabi_attribute 18, 4
  13              		.file	"can-net.c"
  14              		.text
  15              	.Ltext0:
  16              		.cfi_sections	.debug_frame
  17              		.section	.text.AsebaCanSendQueueToPhysicalLayer,"ax",%progbits
  18              		.align	1
  19              		.p2align 4,,15
  20              		.syntax unified
  21              		.thumb
  22              		.thumb_func
  23              		.fpu fpv4-sp-d16
  24              		.type	AsebaCanSendQueueToPhysicalLayer, %function
  25              	AsebaCanSendQueueToPhysicalLayer:
  26              	.LFB4:
  27              		.file 1 "../e-puck2_main-processor/aseba/transport/can/can-net.c"
  28              		.loc 1 113 0
  29              		.cfi_startproc
  30              		@ args = 0, pretend = 0, frame = 8
  31              		@ frame_needed = 0, uses_anonymous_args = 0
  32 0000 F0B5     		push	{r4, r5, r6, r7, lr}
  33              		.cfi_def_cfa_offset 20
  34              		.cfi_offset 4, -20
  35              		.cfi_offset 5, -16
  36              		.cfi_offset 6, -12
  37              		.cfi_offset 7, -8
  38              		.cfi_offset 14, -4
  39 0002 1A4F     		ldr	r7, .L20
  40 0004 1A4C     		ldr	r4, .L20+4
  41 0006 3B68     		ldr	r3, [r7]
  42 0008 83B0     		sub	sp, sp, #12
  43              		.cfi_def_cfa_offset 32
  44              		.loc 1 118 0
  45 000a 0126     		movs	r6, #1
  46              		.loc 1 113 0
  47 000c 0193     		str	r3, [sp, #4]
  48              		.loc 1 121 0
  49 000e 0025     		movs	r5, #0
  50              	.L2:
  51              		.loc 1 116 0
  52 0010 A368     		ldr	r3, [r4, #8]
  53 0012 9847     		blx	r3
  54              	.LVL0:
  55 0014 F8B1     		cbz	r0, .L1
  56              	.L18:
  57              		.loc 1 116 0 is_stmt 0 discriminator 1
ARM GAS  /var/folders/d2/nstgp4h54kz7g1l847x_b8wc0000gn/T//cctjqpgp.s 			page 2


  58 0016 E28B     		ldrh	r2, [r4, #30]
  59 0018 A38B     		ldrh	r3, [r4, #28]
  60 001a 9A42     		cmp	r2, r3
  61 001c 1BD0     		beq	.L1
  62              		.loc 1 119 0 is_stmt 1
  63 001e A368     		ldr	r3, [r4, #8]
  64              		.loc 1 118 0
  65 0020 A685     		strh	r6, [r4, #44]	@ movhi
  66              		.loc 1 119 0
  67 0022 9847     		blx	r3
  68              	.LVL1:
  69 0024 E8B1     		cbz	r0, .L3
  70              		.loc 1 119 0 is_stmt 0 discriminator 1
  71 0026 E38B     		ldrh	r3, [r4, #30]
  72 0028 A28B     		ldrh	r2, [r4, #28]
  73 002a 9A42     		cmp	r2, r3
  74 002c 19D0     		beq	.L3
  75              		.loc 1 125 0 is_stmt 1
  76 002e 6069     		ldr	r0, [r4, #20]
  77 0030 6268     		ldr	r2, [r4, #4]
  78 0032 03EB4303 		add	r3, r3, r3, lsl #1
  79 0036 00EB8300 		add	r0, r0, r3, lsl #2
  80 003a 9047     		blx	r2
  81              	.LVL2:
  82              		.loc 1 127 0
  83 003c E38B     		ldrh	r3, [r4, #30]
  84              		.loc 1 128 0
  85 003e A269     		ldr	r2, [r4, #24]
  86              		.loc 1 131 0
  87 0040 A585     		strh	r5, [r4, #44]	@ movhi
  88              		.loc 1 127 0
  89 0042 0133     		adds	r3, r3, #1
  90 0044 9BB2     		uxth	r3, r3
  91              	.LVL3:
  92              		.loc 1 129 0
  93 0046 9342     		cmp	r3, r2
  94 0048 28BF     		it	cs
  95 004a 0023     		movcs	r3, #0
  96              	.LVL4:
  97              		.loc 1 130 0
  98 004c E383     		strh	r3, [r4, #30]	@ movhi
  99              		.loc 1 116 0
 100 004e A368     		ldr	r3, [r4, #8]
 101              	.LVL5:
 102 0050 9847     		blx	r3
 103              	.LVL6:
 104 0052 0028     		cmp	r0, #0
 105 0054 DFD1     		bne	.L18
 106              	.L1:
 107              		.loc 1 134 0
 108 0056 019A     		ldr	r2, [sp, #4]
 109 0058 3B68     		ldr	r3, [r7]
 110 005a 9A42     		cmp	r2, r3
 111 005c 03D1     		bne	.L19
 112 005e 03B0     		add	sp, sp, #12
 113              		.cfi_remember_state
 114              		.cfi_def_cfa_offset 20
ARM GAS  /var/folders/d2/nstgp4h54kz7g1l847x_b8wc0000gn/T//cctjqpgp.s 			page 3


 115              		@ sp needed
 116 0060 F0BD     		pop	{r4, r5, r6, r7, pc}
 117              	.L3:
 118              		.cfi_restore_state
 119              		.loc 1 121 0
 120 0062 A585     		strh	r5, [r4, #44]	@ movhi
 121              		.loc 1 122 0
 122 0064 D4E7     		b	.L2
 123              	.L19:
 124              		.loc 1 134 0
 125 0066 FFF7FEFF 		bl	__stack_chk_fail
 126              	.LVL7:
 127              	.L21:
 128 006a 00BF     		.align	2
 129              	.L20:
 130 006c 00000000 		.word	__stack_chk_guard
 131 0070 00000000 		.word	.LANCHOR0
 132              		.cfi_endproc
 133              	.LFE4:
 134              		.size	AsebaCanSendQueueToPhysicalLayer, .-AsebaCanSendQueueToPhysicalLayer
 135              		.section	.text.AsebaCanSendQueueInsert,"ax",%progbits
 136              		.align	1
 137              		.p2align 4,,15
 138              		.syntax unified
 139              		.thumb
 140              		.thumb_func
 141              		.fpu fpv4-sp-d16
 142              		.type	AsebaCanSendQueueInsert, %function
 143              	AsebaCanSendQueueInsert:
 144              	.LFB3:
 145              		.loc 1 98 0
 146              		.cfi_startproc
 147              		@ args = 0, pretend = 0, frame = 8
 148              		@ frame_needed = 0, uses_anonymous_args = 0
 149              	.LVL8:
 150 0000 2DE9F041 		push	{r4, r5, r6, r7, r8, lr}
 151              		.cfi_def_cfa_offset 24
 152              		.cfi_offset 4, -24
 153              		.cfi_offset 5, -20
 154              		.cfi_offset 6, -16
 155              		.cfi_offset 7, -12
 156              		.cfi_offset 8, -8
 157              		.cfi_offset 14, -4
 158              		.loc 1 100 0
 159 0004 144D     		ldr	r5, .L27
 160              		.loc 1 98 0
 161 0006 154E     		ldr	r6, .L27+4
 162              		.loc 1 100 0
 163 0008 AC8B     		ldrh	r4, [r5, #28]
 164              		.loc 1 98 0
 165 000a 3768     		ldr	r7, [r6]
 166              		.loc 1 100 0
 167 000c 6B69     		ldr	r3, [r5, #20]
 168              		.loc 1 98 0
 169 000e 82B0     		sub	sp, sp, #8
 170              		.cfi_def_cfa_offset 32
 171              		.loc 1 98 0
ARM GAS  /var/folders/d2/nstgp4h54kz7g1l847x_b8wc0000gn/T//cctjqpgp.s 			page 4


 172 0010 8046     		mov	r8, r0
 173 0012 0197     		str	r7, [sp, #4]
 174              		.loc 1 100 0
 175 0014 04EB4407 		add	r7, r4, r4, lsl #1
 176 0018 03EB8703 		add	r3, r3, r7, lsl #2
 177 001c 1846     		mov	r0, r3
 178              	.LVL9:
 179              		.loc 1 98 0
 180 001e 1746     		mov	r7, r2
 181              		.loc 1 100 0
 182 0020 FFF7FEFF 		bl	memcpy
 183              	.LVL10:
 184              		.loc 1 101 0
 185 0024 0289     		ldrh	r2, [r0, #8]
 186 0026 68F30A02 		bfi	r2, r8, #0, #11
 187              		.loc 1 102 0
 188 002a C2F30721 		ubfx	r1, r2, #8, #8
 189 002e 67F3C601 		bfi	r1, r7, #3, #4
 190              	.LVL11:
 191              		.loc 1 101 0
 192 0032 0281     		strh	r2, [r0, #8]	@ movhi
 193              		.loc 1 102 0
 194 0034 4172     		strb	r1, [r0, #9]
 195              		.loc 1 109 0
 196 0036 0199     		ldr	r1, [sp, #4]
 197              		.loc 1 106 0
 198 0038 A869     		ldr	r0, [r5, #24]
 199              		.loc 1 109 0
 200 003a 3268     		ldr	r2, [r6]
 201              		.loc 1 105 0
 202 003c 631C     		adds	r3, r4, #1
 203 003e 9BB2     		uxth	r3, r3
 204              	.LVL12:
 205              		.loc 1 107 0
 206 0040 8342     		cmp	r3, r0
 207 0042 28BF     		it	cs
 208 0044 0023     		movcs	r3, #0
 209              	.LVL13:
 210              		.loc 1 109 0
 211 0046 9142     		cmp	r1, r2
 212              		.loc 1 108 0
 213 0048 AB83     		strh	r3, [r5, #28]	@ movhi
 214              		.loc 1 109 0
 215 004a 02D1     		bne	.L26
 216 004c 02B0     		add	sp, sp, #8
 217              		.cfi_remember_state
 218              		.cfi_def_cfa_offset 24
 219              		@ sp needed
 220 004e BDE8F081 		pop	{r4, r5, r6, r7, r8, pc}
 221              	.L26:
 222              		.cfi_restore_state
 223 0052 FFF7FEFF 		bl	__stack_chk_fail
 224              	.LVL14:
 225              	.L28:
 226 0056 00BF     		.align	2
 227              	.L27:
 228 0058 00000000 		.word	.LANCHOR0
ARM GAS  /var/folders/d2/nstgp4h54kz7g1l847x_b8wc0000gn/T//cctjqpgp.s 			page 5


 229 005c 00000000 		.word	__stack_chk_guard
 230              		.cfi_endproc
 231              	.LFE3:
 232              		.size	AsebaCanSendQueueInsert, .-AsebaCanSendQueueInsert
 233              		.section	.text.AsebaCanGetMinMultipleOfHeight,"ax",%progbits
 234              		.align	1
 235              		.p2align 4,,15
 236              		.global	AsebaCanGetMinMultipleOfHeight
 237              		.syntax unified
 238              		.thumb
 239              		.thumb_func
 240              		.fpu fpv4-sp-d16
 241              		.type	AsebaCanGetMinMultipleOfHeight, %function
 242              	AsebaCanGetMinMultipleOfHeight:
 243              	.LFB0:
 244              		.loc 1 70 0
 245              		.cfi_startproc
 246              		@ args = 0, pretend = 0, frame = 8
 247              		@ frame_needed = 0, uses_anonymous_args = 0
 248              	.LVL15:
 249 0000 00B5     		push	{lr}
 250              		.cfi_def_cfa_offset 4
 251              		.cfi_offset 14, -4
 252 0002 094A     		ldr	r2, .L37
 253 0004 83B0     		sub	sp, sp, #12
 254              		.cfi_def_cfa_offset 16
 255              		.loc 1 70 0
 256 0006 1368     		ldr	r3, [r2]
 257 0008 0193     		str	r3, [sp, #4]
 258              		.loc 1 72 0
 259 000a 4107     		lsls	r1, r0, #29
 260              		.loc 1 75 0
 261 000c 0199     		ldr	r1, [sp, #4]
 262 000e 1268     		ldr	r2, [r2]
 263              		.loc 1 71 0
 264 0010 4FEAD003 		lsr	r3, r0, #3
 265              	.LVL16:
 266              		.loc 1 73 0
 267 0014 18BF     		it	ne
 268 0016 0133     		addne	r3, r3, #1
 269              	.LVL17:
 270              		.loc 1 75 0
 271 0018 9142     		cmp	r1, r2
 272 001a 1846     		mov	r0, r3
 273              	.LVL18:
 274 001c 02D1     		bne	.L36
 275 001e 03B0     		add	sp, sp, #12
 276              		.cfi_remember_state
 277              		.cfi_def_cfa_offset 4
 278              		@ sp needed
 279 0020 5DF804FB 		ldr	pc, [sp], #4
 280              	.L36:
 281              		.cfi_restore_state
 282 0024 FFF7FEFF 		bl	__stack_chk_fail
 283              	.LVL19:
 284              	.L38:
 285              		.align	2
ARM GAS  /var/folders/d2/nstgp4h54kz7g1l847x_b8wc0000gn/T//cctjqpgp.s 			page 6


 286              	.L37:
 287 0028 00000000 		.word	__stack_chk_guard
 288              		.cfi_endproc
 289              	.LFE0:
 290              		.size	AsebaCanGetMinMultipleOfHeight, .-AsebaCanGetMinMultipleOfHeight
 291              		.section	.text.AsebaCanInit,"ax",%progbits
 292              		.align	1
 293              		.p2align 4,,15
 294              		.global	AsebaCanInit
 295              		.syntax unified
 296              		.thumb
 297              		.thumb_func
 298              		.fpu fpv4-sp-d16
 299              		.type	AsebaCanInit, %function
 300              	AsebaCanInit:
 301              	.LFB9:
 302              		.loc 1 190 0
 303              		.cfi_startproc
 304              		@ args = 20, pretend = 0, frame = 8
 305              		@ frame_needed = 0, uses_anonymous_args = 0
 306              	.LVL20:
 307 0000 F0B5     		push	{r4, r5, r6, r7, lr}
 308              		.cfi_def_cfa_offset 20
 309              		.cfi_offset 4, -20
 310              		.cfi_offset 5, -16
 311              		.cfi_offset 6, -12
 312              		.cfi_offset 7, -8
 313              		.cfi_offset 14, -4
 314 0002 0F4E     		ldr	r6, .L43
 315              		.loc 1 191 0
 316 0004 0F4C     		ldr	r4, .L43+4
 317              		.loc 1 190 0
 318 0006 3568     		ldr	r5, [r6]
 319              		.loc 1 191 0
 320 0008 2080     		strh	r0, [r4]	@ movhi
 321              		.loc 1 190 0
 322 000a 83B0     		sub	sp, sp, #12
 323              		.cfi_def_cfa_offset 32
 324              		.loc 1 194 0
 325 000c A260     		str	r2, [r4, #8]
 326              		.loc 1 190 0
 327 000e 0195     		str	r5, [sp, #4]
 328              		.loc 1 200 0
 329 0010 0025     		movs	r5, #0
 330              		.loc 1 208 0
 331 0012 A585     		strh	r5, [r4, #44]	@ movhi
 332              		.loc 1 209 0
 333 0014 019F     		ldr	r7, [sp, #4]
 334 0016 3068     		ldr	r0, [r6]
 335              	.LVL21:
 336              		.loc 1 190 0
 337 0018 099A     		ldr	r2, [sp, #36]
 338              	.LVL22:
 339              		.loc 1 195 0
 340 001a E360     		str	r3, [r4, #12]
 341              		.loc 1 190 0
 342 001c 0A9E     		ldr	r6, [sp, #40]
ARM GAS  /var/folders/d2/nstgp4h54kz7g1l847x_b8wc0000gn/T//cctjqpgp.s 			page 7


 343              		.loc 1 200 0
 344 001e E561     		str	r5, [r4, #28]
 345              		.loc 1 205 0
 346 0020 A562     		str	r5, [r4, #40]
 347              		.loc 1 190 0
 348 0022 0C9B     		ldr	r3, [sp, #48]
 349              	.LVL23:
 350 0024 0B9D     		ldr	r5, [sp, #44]
 351              		.loc 1 193 0
 352 0026 6160     		str	r1, [r4, #4]
 353              		.loc 1 209 0
 354 0028 8742     		cmp	r7, r0
 355              		.loc 1 190 0
 356 002a 0899     		ldr	r1, [sp, #32]
 357              	.LVL24:
 358              		.loc 1 196 0
 359 002c 2161     		str	r1, [r4, #16]
 360              		.loc 1 199 0
 361 002e C4E90526 		strd	r2, r6, [r4, #20]
 362              		.loc 1 204 0
 363 0032 C4E90853 		strd	r5, r3, [r4, #32]
 364              		.loc 1 209 0
 365 0036 01D1     		bne	.L42
 366 0038 03B0     		add	sp, sp, #12
 367              		.cfi_remember_state
 368              		.cfi_def_cfa_offset 20
 369              		@ sp needed
 370 003a F0BD     		pop	{r4, r5, r6, r7, pc}
 371              	.LVL25:
 372              	.L42:
 373              		.cfi_restore_state
 374 003c FFF7FEFF 		bl	__stack_chk_fail
 375              	.LVL26:
 376              	.L44:
 377              		.align	2
 378              	.L43:
 379 0040 00000000 		.word	__stack_chk_guard
 380 0044 00000000 		.word	.LANCHOR0
 381              		.cfi_endproc
 382              	.LFE9:
 383              		.size	AsebaCanInit, .-AsebaCanInit
 384              		.section	.text.AsebaCanSendSpecificSource,"ax",%progbits
 385              		.align	1
 386              		.p2align 4,,15
 387              		.global	AsebaCanSendSpecificSource
 388              		.syntax unified
 389              		.thumb
 390              		.thumb_func
 391              		.fpu fpv4-sp-d16
 392              		.type	AsebaCanSendSpecificSource, %function
 393              	AsebaCanSendSpecificSource:
 394              	.LFB11:
 395              		.loc 1 217 0
 396              		.cfi_startproc
 397              		@ args = 0, pretend = 0, frame = 8
 398              		@ frame_needed = 0, uses_anonymous_args = 0
 399              	.LVL27:
ARM GAS  /var/folders/d2/nstgp4h54kz7g1l847x_b8wc0000gn/T//cctjqpgp.s 			page 8


 400 0000 2DE9F043 		push	{r4, r5, r6, r7, r8, r9, lr}
 401              		.cfi_def_cfa_offset 28
 402              		.cfi_offset 4, -28
 403              		.cfi_offset 5, -24
 404              		.cfi_offset 6, -20
 405              		.cfi_offset 7, -16
 406              		.cfi_offset 8, -12
 407              		.cfi_offset 9, -8
 408              		.cfi_offset 14, -4
 409 0004 2C4C     		ldr	r4, .L63
 410 0006 83B0     		sub	sp, sp, #12
 411              		.cfi_def_cfa_offset 40
 412              		.loc 1 217 0
 413 0008 2368     		ldr	r3, [r4]
 414 000a 0193     		str	r3, [sp, #4]
 415 000c 0D46     		mov	r5, r1
 416 000e 0746     		mov	r7, r0
 417 0010 1646     		mov	r6, r2
 418              		.loc 1 219 0
 419 0012 FFF7FEFF 		bl	AsebaCanSendQueueToPhysicalLayer
 420              	.LVL28:
 421              	.LBB52:
 422              	.LBB53:
 423              		.loc 1 93 0
 424 0016 2949     		ldr	r1, .L63+4
 425              	.LBE53:
 426              	.LBE52:
 427              		.loc 1 222 0
 428 0018 ABB2     		uxth	r3, r5
 429              	.LVL29:
 430              	.LBB63:
 431              	.LBB64:
 432              		.loc 1 71 0
 433 001a 4FEAD30C 		lsr	ip, r3, #3
 434              	.LVL30:
 435              	.LBE64:
 436              	.LBE63:
 437              	.LBB67:
 438              	.LBB60:
 439              	.LBB54:
 440              	.LBB55:
 441              		.loc 1 82 0
 442 001e C88B     		ldrh	r0, [r1, #30]
 443              	.LBE55:
 444              	.LBE54:
 445              		.loc 1 93 0
 446 0020 0A8B     		ldrh	r2, [r1, #24]
 447              	.LBE60:
 448              	.LBE67:
 449              	.LBB68:
 450              	.LBB65:
 451              		.loc 1 72 0
 452 0022 5B07     		lsls	r3, r3, #29
 453              	.LVL31:
 454              	.LBE65:
 455              	.LBE68:
 456              	.LBB69:
ARM GAS  /var/folders/d2/nstgp4h54kz7g1l847x_b8wc0000gn/T//cctjqpgp.s 			page 9


 457              	.LBB61:
 458              	.LBB58:
 459              	.LBB56:
 460              		.loc 1 81 0
 461 0024 8B8B     		ldrh	r3, [r1, #28]
 462              	.LBE56:
 463              	.LBE58:
 464              	.LBE61:
 465              	.LBE69:
 466              	.LBB70:
 467              	.LBB66:
 468              		.loc 1 73 0
 469 0026 18BF     		it	ne
 470 0028 0CF1010C 		addne	ip, ip, #1
 471              	.LVL32:
 472              	.LBE66:
 473              	.LBE70:
 474              	.LBB71:
 475              	.LBB62:
 476              	.LBB59:
 477              	.LBB57:
 478              		.loc 1 84 0
 479 002c 8342     		cmp	r3, r0
 480              		.loc 1 87 0
 481 002e 36BF     		itet	cc
 482 0030 101A     		subcc	r0, r2, r0
 483              	.LVL33:
 484              		.loc 1 85 0
 485 0032 1B1A     		subcs	r3, r3, r0
 486              	.LVL34:
 487              		.loc 1 87 0
 488 0034 1B18     		addcc	r3, r3, r0
 489 0036 9BB2     		uxth	r3, r3
 490              	.LVL35:
 491              	.LBE57:
 492              	.LBE59:
 493              		.loc 1 93 0
 494 0038 D31A     		subs	r3, r2, r3
 495              	.LBE62:
 496              	.LBE71:
 497              		.loc 1 223 0
 498 003a 9BB2     		uxth	r3, r3
 499 003c 6345     		cmp	r3, ip
 500 003e 09D8     		bhi	.L49
 501              		.loc 1 225 0
 502 0040 0B69     		ldr	r3, [r1, #16]
 503 0042 9847     		blx	r3
 504              	.LVL36:
 505              		.loc 1 226 0
 506 0044 0020     		movs	r0, #0
 507              	.L50:
 508              		.loc 1 251 0
 509 0046 019A     		ldr	r2, [sp, #4]
 510 0048 2368     		ldr	r3, [r4]
 511 004a 9A42     		cmp	r2, r3
 512 004c 32D1     		bne	.L62
 513 004e 03B0     		add	sp, sp, #12
ARM GAS  /var/folders/d2/nstgp4h54kz7g1l847x_b8wc0000gn/T//cctjqpgp.s 			page 10


 514              		.cfi_remember_state
 515              		.cfi_def_cfa_offset 28
 516              		@ sp needed
 517 0050 BDE8F083 		pop	{r4, r5, r6, r7, r8, r9, pc}
 518              	.LVL37:
 519              	.L49:
 520              		.cfi_restore_state
 521              	.LBB72:
 522              	.LBB73:
 523              		.loc 1 230 0
 524 0054 082D     		cmp	r5, #8
 525 0056 09D8     		bhi	.L51
 526              		.loc 1 232 0
 527 0058 2A46     		mov	r2, r5
 528 005a 3946     		mov	r1, r7
 529 005c 46F44070 		orr	r0, r6, #768
 530 0060 FFF7FEFF 		bl	AsebaCanSendQueueInsert
 531              	.LVL38:
 532              	.L52:
 533              		.loc 1 248 0
 534 0064 FFF7FEFF 		bl	AsebaCanSendQueueToPhysicalLayer
 535              	.LVL39:
 536 0068 0120     		movs	r0, #1
 537 006a ECE7     		b	.L50
 538              	.LVL40:
 539              	.L51:
 540              	.LBB74:
 541              		.loc 1 238 0
 542 006c 0822     		movs	r2, #8
 543 006e 3946     		mov	r1, r7
 544 0070 46F48070 		orr	r0, r6, #256
 545 0074 FFF7FEFF 		bl	AsebaCanSendQueueInsert
 546              	.LVL41:
 547              		.loc 1 239 0
 548 0078 102D     		cmp	r5, #16
 549 007a 18D9     		bls	.L56
 550 007c 4FF01008 		mov	r8, #16
 551 0080 A7F10809 		sub	r9, r7, #8
 552 0084 00E0     		b	.L54
 553              	.LVL42:
 554              	.L57:
 555 0086 9846     		mov	r8, r3
 556              	.LVL43:
 557              	.L54:
 558              		.loc 1 241 0
 559 0088 0822     		movs	r2, #8
 560 008a 09EB0801 		add	r1, r9, r8
 561 008e 3046     		mov	r0, r6
 562 0090 FFF7FEFF 		bl	AsebaCanSendQueueInsert
 563              	.LVL44:
 564 0094 08F10803 		add	r3, r8, #8
 565              		.loc 1 239 0
 566 0098 9D42     		cmp	r5, r3
 567 009a F4D8     		bhi	.L57
 568              	.LVL45:
 569              	.L53:
 570              		.loc 1 244 0
ARM GAS  /var/folders/d2/nstgp4h54kz7g1l847x_b8wc0000gn/T//cctjqpgp.s 			page 11


 571 009c A5EB0802 		sub	r2, r5, r8
 572 00a0 07EB0801 		add	r1, r7, r8
 573 00a4 46F40070 		orr	r0, r6, #512
 574 00a8 FFF7FEFF 		bl	AsebaCanSendQueueInsert
 575              	.LVL46:
 576 00ac DAE7     		b	.L52
 577              	.LVL47:
 578              	.L56:
 579              		.loc 1 236 0
 580 00ae 4FF00808 		mov	r8, #8
 581 00b2 F3E7     		b	.L53
 582              	.LVL48:
 583              	.L62:
 584              	.LBE74:
 585              	.LBE73:
 586              	.LBE72:
 587              		.loc 1 251 0
 588 00b4 FFF7FEFF 		bl	__stack_chk_fail
 589              	.LVL49:
 590              	.L64:
 591              		.align	2
 592              	.L63:
 593 00b8 00000000 		.word	__stack_chk_guard
 594 00bc 00000000 		.word	.LANCHOR0
 595              		.cfi_endproc
 596              	.LFE11:
 597              		.size	AsebaCanSendSpecificSource, .-AsebaCanSendSpecificSource
 598              		.section	.text.AsebaCanSend,"ax",%progbits
 599              		.align	1
 600              		.p2align 4,,15
 601              		.global	AsebaCanSend
 602              		.syntax unified
 603              		.thumb
 604              		.thumb_func
 605              		.fpu fpv4-sp-d16
 606              		.type	AsebaCanSend, %function
 607              	AsebaCanSend:
 608              	.LFB10:
 609              		.loc 1 212 0
 610              		.cfi_startproc
 611              		@ args = 0, pretend = 0, frame = 8
 612              		@ frame_needed = 0, uses_anonymous_args = 0
 613              	.LVL50:
 614 0000 00B5     		push	{lr}
 615              		.cfi_def_cfa_offset 4
 616              		.cfi_offset 14, -4
 617 0002 084B     		ldr	r3, .L70
 618 0004 83B0     		sub	sp, sp, #12
 619              		.cfi_def_cfa_offset 16
 620              		.loc 1 212 0
 621 0006 1A68     		ldr	r2, [r3]
 622 0008 0192     		str	r2, [sp, #4]
 623              		.loc 1 213 0
 624 000a 019A     		ldr	r2, [sp, #4]
 625 000c 1B68     		ldr	r3, [r3]
 626 000e 9A42     		cmp	r2, r3
 627 0010 06D1     		bne	.L69
ARM GAS  /var/folders/d2/nstgp4h54kz7g1l847x_b8wc0000gn/T//cctjqpgp.s 			page 12


 628 0012 054B     		ldr	r3, .L70+4
 629 0014 1A88     		ldrh	r2, [r3]
 630              		.loc 1 214 0
 631 0016 03B0     		add	sp, sp, #12
 632              		.cfi_remember_state
 633              		.cfi_def_cfa_offset 4
 634              		@ sp needed
 635 0018 5DF804EB 		ldr	lr, [sp], #4
 636              		.cfi_restore 14
 637              		.cfi_def_cfa_offset 0
 638              		.loc 1 213 0
 639 001c FFF7FEBF 		b	AsebaCanSendSpecificSource
 640              	.LVL51:
 641              	.L69:
 642              		.cfi_restore_state
 643 0020 FFF7FEFF 		bl	__stack_chk_fail
 644              	.LVL52:
 645              	.L71:
 646              		.align	2
 647              	.L70:
 648 0024 00000000 		.word	__stack_chk_guard
 649 0028 00000000 		.word	.LANCHOR0
 650              		.cfi_endproc
 651              	.LFE10:
 652              		.size	AsebaCanSend, .-AsebaCanSend
 653              		.section	.text.AsebaCanRecvBufferEmpty,"ax",%progbits
 654              		.align	1
 655              		.p2align 4,,15
 656              		.global	AsebaCanRecvBufferEmpty
 657              		.syntax unified
 658              		.thumb
 659              		.thumb_func
 660              		.fpu fpv4-sp-d16
 661              		.type	AsebaCanRecvBufferEmpty, %function
 662              	AsebaCanRecvBufferEmpty:
 663              	.LFB12:
 664              		.loc 1 255 0
 665              		.cfi_startproc
 666              		@ args = 0, pretend = 0, frame = 8
 667              		@ frame_needed = 0, uses_anonymous_args = 0
 668 0000 00B5     		push	{lr}
 669              		.cfi_def_cfa_offset 4
 670              		.cfi_offset 14, -4
 671 0002 0A4A     		ldr	r2, .L76
 672              		.loc 1 256 0
 673 0004 0A4B     		ldr	r3, .L76+4
 674              		.loc 1 255 0
 675 0006 1168     		ldr	r1, [r2]
 676              		.loc 1 256 0
 677 0008 188D     		ldrh	r0, [r3, #40]
 678 000a 5B8D     		ldrh	r3, [r3, #42]
 679              		.loc 1 255 0
 680 000c 83B0     		sub	sp, sp, #12
 681              		.cfi_def_cfa_offset 16
 682              		.loc 1 257 0
 683 000e C01A     		subs	r0, r0, r3
 684              		.loc 1 255 0
ARM GAS  /var/folders/d2/nstgp4h54kz7g1l847x_b8wc0000gn/T//cctjqpgp.s 			page 13


 685 0010 0191     		str	r1, [sp, #4]
 686              		.loc 1 257 0
 687 0012 0199     		ldr	r1, [sp, #4]
 688 0014 1268     		ldr	r2, [r2]
 689 0016 B0FA80F0 		clz	r0, r0
 690 001a 9142     		cmp	r1, r2
 691 001c 4FEA5010 		lsr	r0, r0, #5
 692 0020 02D1     		bne	.L75
 693 0022 03B0     		add	sp, sp, #12
 694              		.cfi_remember_state
 695              		.cfi_def_cfa_offset 4
 696              		@ sp needed
 697 0024 5DF804FB 		ldr	pc, [sp], #4
 698              	.L75:
 699              		.cfi_restore_state
 700 0028 FFF7FEFF 		bl	__stack_chk_fail
 701              	.LVL53:
 702              	.L77:
 703              		.align	2
 704              	.L76:
 705 002c 00000000 		.word	__stack_chk_guard
 706 0030 00000000 		.word	.LANCHOR0
 707              		.cfi_endproc
 708              	.LFE12:
 709              		.size	AsebaCanRecvBufferEmpty, .-AsebaCanRecvBufferEmpty
 710              		.section	.text.AsebaCanFrameSent,"ax",%progbits
 711              		.align	1
 712              		.p2align 4,,15
 713              		.global	AsebaCanFrameSent
 714              		.syntax unified
 715              		.thumb
 716              		.thumb_func
 717              		.fpu fpv4-sp-d16
 718              		.type	AsebaCanFrameSent, %function
 719              	AsebaCanFrameSent:
 720              	.LFB13:
 721              		.loc 1 260 0
 722              		.cfi_startproc
 723              		@ args = 0, pretend = 0, frame = 8
 724              		@ frame_needed = 0, uses_anonymous_args = 0
 725 0000 00B5     		push	{lr}
 726              		.cfi_def_cfa_offset 4
 727              		.cfi_offset 14, -4
 728 0002 0C4A     		ldr	r2, .L85
 729              		.loc 1 262 0
 730 0004 0C4B     		ldr	r3, .L85+4
 731              		.loc 1 260 0
 732 0006 1168     		ldr	r1, [r2]
 733 0008 83B0     		sub	sp, sp, #12
 734              		.cfi_def_cfa_offset 16
 735              		.loc 1 260 0
 736 000a 0191     		str	r1, [sp, #4]
 737              		.loc 1 262 0
 738 000c 9B8D     		ldrh	r3, [r3, #44]
 739              		.loc 1 263 0
 740 000e 0199     		ldr	r1, [sp, #4]
 741              		.loc 1 262 0
ARM GAS  /var/folders/d2/nstgp4h54kz7g1l847x_b8wc0000gn/T//cctjqpgp.s 			page 14


 742 0010 9BB2     		uxth	r3, r3
 743 0012 2BB1     		cbz	r3, .L84
 744              		.loc 1 264 0
 745 0014 1368     		ldr	r3, [r2]
 746 0016 9942     		cmp	r1, r3
 747 0018 0AD1     		bne	.L83
 748 001a 03B0     		add	sp, sp, #12
 749              		.cfi_remember_state
 750              		.cfi_def_cfa_offset 4
 751              		@ sp needed
 752 001c 5DF804FB 		ldr	pc, [sp], #4
 753              	.L84:
 754              		.cfi_restore_state
 755              		.loc 1 263 0
 756 0020 1368     		ldr	r3, [r2]
 757 0022 9942     		cmp	r1, r3
 758 0024 04D1     		bne	.L83
 759              		.loc 1 264 0
 760 0026 03B0     		add	sp, sp, #12
 761              		.cfi_remember_state
 762              		.cfi_def_cfa_offset 4
 763              		@ sp needed
 764 0028 5DF804EB 		ldr	lr, [sp], #4
 765              		.cfi_restore 14
 766              		.cfi_def_cfa_offset 0
 767              		.loc 1 263 0
 768 002c FFF7FEBF 		b	AsebaCanSendQueueToPhysicalLayer
 769              	.LVL54:
 770              	.L83:
 771              		.cfi_restore_state
 772              		.loc 1 264 0
 773 0030 FFF7FEFF 		bl	__stack_chk_fail
 774              	.LVL55:
 775              	.L86:
 776              		.align	2
 777              	.L85:
 778 0034 00000000 		.word	__stack_chk_guard
 779 0038 00000000 		.word	.LANCHOR0
 780              		.cfi_endproc
 781              	.LFE13:
 782              		.size	AsebaCanFrameSent, .-AsebaCanFrameSent
 783              		.section	.text.AsebaCanFlushQueue,"ax",%progbits
 784              		.align	1
 785              		.p2align 4,,15
 786              		.global	AsebaCanFlushQueue
 787              		.syntax unified
 788              		.thumb
 789              		.thumb_func
 790              		.fpu fpv4-sp-d16
 791              		.type	AsebaCanFlushQueue, %function
 792              	AsebaCanFlushQueue:
 793              	.LFB14:
 794              		.loc 1 267 0
 795              		.cfi_startproc
 796              		@ args = 0, pretend = 0, frame = 8
 797              		@ frame_needed = 0, uses_anonymous_args = 0
 798 0000 30B5     		push	{r4, r5, lr}
ARM GAS  /var/folders/d2/nstgp4h54kz7g1l847x_b8wc0000gn/T//cctjqpgp.s 			page 15


 799              		.cfi_def_cfa_offset 12
 800              		.cfi_offset 4, -12
 801              		.cfi_offset 5, -8
 802              		.cfi_offset 14, -4
 803 0002 0C4D     		ldr	r5, .L96
 804 0004 0C4C     		ldr	r4, .L96+4
 805 0006 2B68     		ldr	r3, [r5]
 806 0008 83B0     		sub	sp, sp, #12
 807              		.cfi_def_cfa_offset 24
 808              		.loc 1 267 0
 809 000a 0193     		str	r3, [sp, #4]
 810              		.loc 1 268 0
 811 000c 01E0     		b	.L88
 812              	.L89:
 813              		.loc 1 269 0
 814 000e FFF7FEFF 		bl	AsebaIdle
 815              	.LVL56:
 816              	.L88:
 817              		.loc 1 268 0
 818 0012 E28B     		ldrh	r2, [r4, #30]
 819 0014 A38B     		ldrh	r3, [r4, #28]
 820 0016 9A42     		cmp	r2, r3
 821 0018 F9D1     		bne	.L89
 822              		.loc 1 268 0 is_stmt 0 discriminator 1
 823 001a A368     		ldr	r3, [r4, #8]
 824 001c 9847     		blx	r3
 825              	.LVL57:
 826 001e 0028     		cmp	r0, #0
 827 0020 F5D0     		beq	.L89
 828              		.loc 1 270 0 is_stmt 1
 829 0022 019A     		ldr	r2, [sp, #4]
 830 0024 2B68     		ldr	r3, [r5]
 831 0026 9A42     		cmp	r2, r3
 832 0028 01D1     		bne	.L95
 833 002a 03B0     		add	sp, sp, #12
 834              		.cfi_remember_state
 835              		.cfi_def_cfa_offset 12
 836              		@ sp needed
 837 002c 30BD     		pop	{r4, r5, pc}
 838              	.L95:
 839              		.cfi_restore_state
 840 002e FFF7FEFF 		bl	__stack_chk_fail
 841              	.LVL58:
 842              	.L97:
 843 0032 00BF     		.align	2
 844              	.L96:
 845 0034 00000000 		.word	__stack_chk_guard
 846 0038 00000000 		.word	.LANCHOR0
 847              		.cfi_endproc
 848              	.LFE14:
 849              		.size	AsebaCanFlushQueue, .-AsebaCanFlushQueue
 850              		.section	.text.AsebaCanRecv,"ax",%progbits
 851              		.align	1
 852              		.p2align 4,,15
 853              		.global	AsebaCanRecv
 854              		.syntax unified
 855              		.thumb
ARM GAS  /var/folders/d2/nstgp4h54kz7g1l847x_b8wc0000gn/T//cctjqpgp.s 			page 16


 856              		.thumb_func
 857              		.fpu fpv4-sp-d16
 858              		.type	AsebaCanRecv, %function
 859              	AsebaCanRecv:
 860              	.LFB15:
 861              		.loc 1 273 0
 862              		.cfi_startproc
 863              		@ args = 0, pretend = 0, frame = 32
 864              		@ frame_needed = 0, uses_anonymous_args = 0
 865              	.LVL59:
 866 0000 2DE9F04F 		push	{r4, r5, r6, r7, r8, r9, r10, fp, lr}
 867              		.cfi_def_cfa_offset 36
 868              		.cfi_offset 4, -36
 869              		.cfi_offset 5, -32
 870              		.cfi_offset 6, -28
 871              		.cfi_offset 7, -24
 872              		.cfi_offset 8, -20
 873              		.cfi_offset 9, -16
 874              		.cfi_offset 10, -12
 875              		.cfi_offset 11, -8
 876              		.cfi_offset 14, -4
 877              		.loc 1 280 0
 878 0004 DFF880B1 		ldr	fp, .L134+4
 879              		.loc 1 273 0
 880 0008 5E4B     		ldr	r3, .L134
 881              		.loc 1 280 0
 882 000a BBF82A60 		ldrh	r6, [fp, #42]
 883              		.loc 1 273 0
 884 000e 1B68     		ldr	r3, [r3]
 885              		.loc 1 280 0
 886 0010 BBF828A0 		ldrh	r10, [fp, #40]
 887              		.loc 1 273 0
 888 0014 89B0     		sub	sp, sp, #36
 889              		.cfi_def_cfa_offset 72
 890              		.loc 1 273 0
 891 0016 CDE90010 		strd	r1, r0, [sp]
 892 001a 0793     		str	r3, [sp, #28]
 893              	.LVL60:
 894 001c 1546     		mov	r5, r2
 895              		.loc 1 280 0
 896 001e 3446     		mov	r4, r6
 897              		.loc 1 306 0
 898 0020 DBE90889 		ldrd	r8, r9, [fp, #32]
 899              		.loc 1 280 0
 900 0024 04E0     		b	.L107
 901              	.LVL61:
 902              	.L100:
 903              		.loc 1 305 0
 904 0026 0134     		adds	r4, r4, #1
 905              	.LVL62:
 906 0028 A4B2     		uxth	r4, r4
 907              	.LVL63:
 908              		.loc 1 307 0
 909 002a 4C45     		cmp	r4, r9
 910 002c 28BF     		it	cs
 911 002e 0024     		movcs	r4, #0
 912              	.LVL64:
ARM GAS  /var/folders/d2/nstgp4h54kz7g1l847x_b8wc0000gn/T//cctjqpgp.s 			page 17


 913              	.L107:
 914              		.loc 1 280 0 discriminator 1
 915 0030 A245     		cmp	r10, r4
 916 0032 5CD0     		beq	.L129
 917              		.loc 1 282 0
 918 0034 04EB4407 		add	r7, r4, r4, lsl #1
 919 0038 08EB8707 		add	r7, r8, r7, lsl #2
 920 003c 97F90930 		ldrsb	r3, [r7, #9]
 921 0040 002B     		cmp	r3, #0
 922 0042 F0DA     		bge	.L100
 923              		.loc 1 284 0
 924 0044 3B89     		ldrh	r3, [r7, #8]
 925 0046 C3F30A03 		ubfx	r3, r3, #0, #11
 926 004a 1A12     		asrs	r2, r3, #8
 927 004c 032A     		cmp	r2, #3
 928 004e 67D0     		beq	.L130
 929              		.loc 1 298 0
 930 0050 022A     		cmp	r2, #2
 931 0052 E8D1     		bne	.L100
 932              	.LVL65:
 933 0054 DBB2     		uxtb	r3, r3
 934 0056 1A46     		mov	r2, r3
 935              	.LVL66:
 936 0058 06EB4603 		add	r3, r6, r6, lsl #1
 937 005c 08EB8303 		add	r3, r8, r3, lsl #2
 938              		.loc 1 315 0
 939 0060 2A80     		strh	r2, [r5]	@ movhi
 940              	.LVL67:
 941 0062 0493     		str	r3, [sp, #16]
 942 0064 CDE902A6 		strd	r10, r6, [sp, #8]
 943              		.loc 1 280 0
 944 0068 3546     		mov	r5, r6
 945              	.LVL68:
 946              		.loc 1 276 0
 947 006a 0023     		movs	r3, #0
 948 006c 9246     		mov	r10, r2
 949 006e 04E0     		b	.L106
 950              	.LVL69:
 951              	.L109:
 952              		.loc 1 336 0
 953 0070 0135     		adds	r5, r5, #1
 954              	.LVL70:
 955 0072 ADB2     		uxth	r5, r5
 956              	.LVL71:
 957              		.loc 1 338 0
 958 0074 A945     		cmp	r9, r5
 959 0076 98BF     		it	ls
 960 0078 0025     		movls	r5, #0
 961              	.LVL72:
 962              	.L106:
 963              		.loc 1 319 0
 964 007a 05EB4507 		add	r7, r5, r5, lsl #1
 965 007e 08EB8707 		add	r7, r8, r7, lsl #2
 966 0082 97F90920 		ldrsb	r2, [r7, #9]
 967 0086 002A     		cmp	r2, #0
 968 0088 F2DA     		bge	.L109
 969              		.loc 1 321 0
ARM GAS  /var/folders/d2/nstgp4h54kz7g1l847x_b8wc0000gn/T//cctjqpgp.s 			page 18


 970 008a 3A7A     		ldrb	r2, [r7, #8]	@ zero_extendqisi2
 971 008c 9245     		cmp	r10, r2
 972 008e 26D0     		beq	.L131
 973              	.L110:
 974              		.loc 1 332 0
 975 0090 AC42     		cmp	r4, r5
 976 0092 EDD1     		bne	.L109
 977 0094 DDE902A6 		ldrd	r10, r6, [sp, #8]
 978              	.LVL73:
 979              	.LBB75:
 980              	.LBB76:
 981              		.loc 1 158 0
 982 0098 B245     		cmp	r10, r6
 983 009a 1C46     		mov	r4, r3
 984              	.LVL74:
 985 009c 16D0     		beq	.L102
 986              		.loc 1 160 0
 987 009e 049B     		ldr	r3, [sp, #16]
 988              	.LVL75:
 989 00a0 93F90930 		ldrsb	r3, [r3, #9]
 990 00a4 002B     		cmp	r3, #0
 991 00a6 08DA     		bge	.L112
 992 00a8 10E0     		b	.L102
 993              	.LVL76:
 994              	.L116:
 995 00aa 06EB4603 		add	r3, r6, r6, lsl #1
 996 00ae 08EB8303 		add	r3, r8, r3, lsl #2
 997 00b2 93F90930 		ldrsb	r3, [r3, #9]
 998 00b6 002B     		cmp	r3, #0
 999 00b8 2FDB     		blt	.L127
 1000              	.LVL77:
 1001              	.L112:
 1002              		.loc 1 163 0
 1003 00ba 0136     		adds	r6, r6, #1
 1004 00bc B6B2     		uxth	r6, r6
 1005              	.LVL78:
 1006              		.loc 1 165 0
 1007 00be B145     		cmp	r9, r6
 1008 00c0 98BF     		it	ls
 1009 00c2 0026     		movls	r6, #0
 1010              	.LVL79:
 1011              		.loc 1 158 0
 1012 00c4 B245     		cmp	r10, r6
 1013 00c6 F0D1     		bne	.L116
 1014              	.LVL80:
 1015              	.L128:
 1016 00c8 ABF82AA0 		strh	r10, [fp, #42]	@ movhi
 1017              	.L102:
 1018              	.LBE76:
 1019              	.LBE75:
 1020              		.loc 1 345 0
 1021 00cc 2D4B     		ldr	r3, .L134
 1022 00ce 079A     		ldr	r2, [sp, #28]
 1023 00d0 1B68     		ldr	r3, [r3]
 1024 00d2 9A42     		cmp	r2, r3
 1025 00d4 2046     		mov	r0, r4
 1026 00d6 52D1     		bne	.L132
ARM GAS  /var/folders/d2/nstgp4h54kz7g1l847x_b8wc0000gn/T//cctjqpgp.s 			page 19


 1027 00d8 09B0     		add	sp, sp, #36
 1028              		.cfi_remember_state
 1029              		.cfi_def_cfa_offset 36
 1030              		@ sp needed
 1031 00da BDE8F08F 		pop	{r4, r5, r6, r7, r8, r9, r10, fp, pc}
 1032              	.LVL81:
 1033              	.L131:
 1034              		.cfi_restore_state
 1035              		.loc 1 323 0
 1036 00de 009A     		ldr	r2, [sp]
 1037 00e0 9342     		cmp	r3, r2
 1038 00e2 07D3     		bcc	.L133
 1039              	.L111:
 1040              		.loc 1 329 0
 1041 00e4 7A7A     		ldrb	r2, [r7, #9]	@ zero_extendqisi2
 1042 00e6 6FF3C712 		bfc	r2, #7, #1
 1043 00ea 7A72     		strb	r2, [r7, #9]
 1044 00ec D0E7     		b	.L110
 1045              	.LVL82:
 1046              	.L129:
 1047              		.loc 1 312 0
 1048 00ee 0023     		movs	r3, #0
 1049 00f0 1C46     		mov	r4, r3
 1050              	.LVL83:
 1051 00f2 EBE7     		b	.L102
 1052              	.LVL84:
 1053              	.L133:
 1054              	.LBB77:
 1055              		.loc 1 325 0
 1056 00f4 0099     		ldr	r1, [sp]
 1057 00f6 7A7A     		ldrb	r2, [r7, #9]	@ zero_extendqisi2
 1058              		.loc 1 326 0
 1059 00f8 0198     		ldr	r0, [sp, #4]
 1060 00fa 0593     		str	r3, [sp, #20]
 1061              		.loc 1 325 0
 1062 00fc CE1A     		subs	r6, r1, r3
 1063 00fe C2F3C302 		ubfx	r2, r2, #3, #4
 1064 0102 9642     		cmp	r6, r2
 1065 0104 28BF     		it	cs
 1066 0106 1646     		movcs	r6, r2
 1067              	.LVL85:
 1068              		.loc 1 326 0
 1069 0108 3246     		mov	r2, r6
 1070 010a 1844     		add	r0, r0, r3
 1071 010c 3946     		mov	r1, r7
 1072 010e FFF7FEFF 		bl	memcpy
 1073              	.LVL86:
 1074              		.loc 1 327 0
 1075 0112 059B     		ldr	r3, [sp, #20]
 1076 0114 1E44     		add	r6, r6, r3
 1077              	.LVL87:
 1078 0116 B3B2     		uxth	r3, r6
 1079              	.LVL88:
 1080 0118 E4E7     		b	.L111
 1081              	.LVL89:
 1082              	.L127:
 1083 011a ABF82A60 		strh	r6, [fp, #42]	@ movhi
ARM GAS  /var/folders/d2/nstgp4h54kz7g1l847x_b8wc0000gn/T//cctjqpgp.s 			page 20


 1084 011e D5E7     		b	.L102
 1085              	.LVL90:
 1086              	.L130:
 1087              	.LBE77:
 1088              	.LBB78:
 1089              		.loc 1 287 0
 1090 0120 7B7A     		ldrb	r3, [r7, #9]	@ zero_extendqisi2
 1091 0122 009A     		ldr	r2, [sp]
 1092              		.loc 1 288 0
 1093 0124 0198     		ldr	r0, [sp, #4]
 1094              	.LVL91:
 1095              		.loc 1 287 0
 1096 0126 C3F3C303 		ubfx	r3, r3, #3, #4
 1097 012a 9342     		cmp	r3, r2
 1098 012c 28BF     		it	cs
 1099 012e 1346     		movcs	r3, r2
 1100              		.loc 1 288 0
 1101 0130 1A46     		mov	r2, r3
 1102 0132 3946     		mov	r1, r7
 1103              	.LVL92:
 1104              		.loc 1 287 0
 1105 0134 9BB2     		uxth	r3, r3
 1106 0136 1C46     		mov	r4, r3
 1107              	.LVL93:
 1108              		.loc 1 288 0
 1109 0138 FFF7FEFF 		bl	memcpy
 1110              	.LVL94:
 1111              		.loc 1 289 0
 1112 013c 3B7A     		ldrb	r3, [r7, #8]	@ zero_extendqisi2
 1113 013e 2B80     		strh	r3, [r5]	@ movhi
 1114              		.loc 1 290 0
 1115 0140 7B7A     		ldrb	r3, [r7, #9]	@ zero_extendqisi2
 1116              	.LBB79:
 1117              	.LBB80:
 1118              		.loc 1 158 0
 1119 0142 B245     		cmp	r10, r6
 1120              	.LBE80:
 1121              	.LBE79:
 1122              		.loc 1 290 0
 1123 0144 6FF3C713 		bfc	r3, #7, #1
 1124 0148 7B72     		strb	r3, [r7, #9]
 1125              	.LVL95:
 1126              	.LBB82:
 1127              	.LBB81:
 1128              		.loc 1 158 0
 1129 014a BFD0     		beq	.L102
 1130              		.loc 1 160 0
 1131 014c 06EB4603 		add	r3, r6, r6, lsl #1
 1132 0150 08EB8303 		add	r3, r8, r3, lsl #2
 1133 0154 93F90930 		ldrsb	r3, [r3, #9]
 1134 0158 002B     		cmp	r3, #0
 1135 015a 08DA     		bge	.L103
 1136 015c B6E7     		b	.L102
 1137              	.LVL96:
 1138              	.L105:
 1139 015e 06EB4603 		add	r3, r6, r6, lsl #1
 1140 0162 08EB8303 		add	r3, r8, r3, lsl #2
ARM GAS  /var/folders/d2/nstgp4h54kz7g1l847x_b8wc0000gn/T//cctjqpgp.s 			page 21


 1141 0166 93F90930 		ldrsb	r3, [r3, #9]
 1142 016a 002B     		cmp	r3, #0
 1143 016c D5DB     		blt	.L127
 1144              	.LVL97:
 1145              	.L103:
 1146              		.loc 1 163 0
 1147 016e 0136     		adds	r6, r6, #1
 1148 0170 B6B2     		uxth	r6, r6
 1149              	.LVL98:
 1150              		.loc 1 165 0
 1151 0172 B145     		cmp	r9, r6
 1152 0174 98BF     		it	ls
 1153 0176 0026     		movls	r6, #0
 1154              	.LVL99:
 1155              		.loc 1 158 0
 1156 0178 B245     		cmp	r10, r6
 1157 017a F0D1     		bne	.L105
 1158 017c A4E7     		b	.L128
 1159              	.LVL100:
 1160              	.L132:
 1161              	.LBE81:
 1162              	.LBE82:
 1163              	.LBE78:
 1164              		.loc 1 345 0
 1165 017e FFF7FEFF 		bl	__stack_chk_fail
 1166              	.LVL101:
 1167              	.L135:
 1168 0182 00BF     		.align	2
 1169              	.L134:
 1170 0184 00000000 		.word	__stack_chk_guard
 1171 0188 00000000 		.word	.LANCHOR0
 1172              		.cfi_endproc
 1173              	.LFE15:
 1174              		.size	AsebaCanRecv, .-AsebaCanRecv
 1175              		.section	.text.AsebaCanFrameReceived,"ax",%progbits
 1176              		.align	1
 1177              		.p2align 4,,15
 1178              		.global	AsebaCanFrameReceived
 1179              		.syntax unified
 1180              		.thumb
 1181              		.thumb_func
 1182              		.fpu fpv4-sp-d16
 1183              		.type	AsebaCanFrameReceived, %function
 1184              	AsebaCanFrameReceived:
 1185              	.LFB16:
 1186              		.loc 1 351 0
 1187              		.cfi_startproc
 1188              		@ args = 0, pretend = 0, frame = 8
 1189              		@ frame_needed = 0, uses_anonymous_args = 0
 1190              	.LVL102:
 1191 0000 F0B5     		push	{r4, r5, r6, r7, lr}
 1192              		.cfi_def_cfa_offset 20
 1193              		.cfi_offset 4, -20
 1194              		.cfi_offset 5, -16
 1195              		.cfi_offset 6, -12
 1196              		.cfi_offset 7, -8
 1197              		.cfi_offset 14, -4
ARM GAS  /var/folders/d2/nstgp4h54kz7g1l847x_b8wc0000gn/T//cctjqpgp.s 			page 22


 1198 0002 0646     		mov	r6, r0
 1199              		.loc 1 353 0
 1200 0004 0089     		ldrh	r0, [r0, #8]
 1201              	.LVL103:
 1202              		.loc 1 351 0
 1203 0006 584D     		ldr	r5, .L181
 1204              		.loc 1 353 0
 1205 0008 C0F30A00 		ubfx	r0, r0, #0, #11
 1206              		.loc 1 351 0
 1207 000c 83B0     		sub	sp, sp, #12
 1208              		.cfi_def_cfa_offset 32
 1209              		.loc 1 356 0
 1210 000e 0712     		asrs	r7, r0, #8
 1211              		.loc 1 351 0
 1212 0010 2B68     		ldr	r3, [r5]
 1213 0012 0193     		str	r3, [sp, #4]
 1214              		.loc 1 356 0
 1215 0014 032F     		cmp	r7, #3
 1216 0016 C4B2     		uxtb	r4, r0
 1217              	.LVL104:
 1218 0018 1BD0     		beq	.L178
 1219              		.loc 1 361 0
 1220 001a 012F     		cmp	r7, #1
 1221 001c 00F08C80 		beq	.L179
 1222 0020 DFF84CC1 		ldr	ip, .L181+8
 1223 0024 601C     		adds	r0, r4, #1
 1224 0026 6246     		mov	r2, ip
 1225 0028 0023     		movs	r3, #0
 1226 002a 02E0     		b	.L145
 1227              	.LVL105:
 1228              	.L143:
 1229 002c 0133     		adds	r3, r3, #1
 1230              	.LVL106:
 1231              	.LBB83:
 1232              		.loc 1 379 0 discriminator 2
 1233 002e 142B     		cmp	r3, #20
 1234 0030 15D0     		beq	.L138
 1235              	.L145:
 1236              	.LVL107:
 1237              		.loc 1 381 0
 1238 0032 32F8021B 		ldrh	r1, [r2], #2
 1239 0036 8142     		cmp	r1, r0
 1240 0038 F8D1     		bne	.L143
 1241              		.loc 1 383 0
 1242 003a 022F     		cmp	r7, #2
 1243 003c 02D1     		bne	.L136
 1244              		.loc 1 384 0
 1245 003e 0022     		movs	r2, #0
 1246 0040 2CF81320 		strh	r2, [ip, r3, lsl #1]	@ movhi
 1247              	.LVL108:
 1248              	.L136:
 1249              	.LBE83:
 1250              		.loc 1 412 0
 1251 0044 019A     		ldr	r2, [sp, #4]
 1252 0046 2B68     		ldr	r3, [r5]
 1253 0048 9A42     		cmp	r2, r3
 1254 004a 40F08B80 		bne	.L177
ARM GAS  /var/folders/d2/nstgp4h54kz7g1l847x_b8wc0000gn/T//cctjqpgp.s 			page 23


 1255 004e 03B0     		add	sp, sp, #12
 1256              		.cfi_remember_state
 1257              		.cfi_def_cfa_offset 20
 1258              		@ sp needed
 1259 0050 F0BD     		pop	{r4, r5, r6, r7, pc}
 1260              	.LVL109:
 1261              	.L178:
 1262              		.cfi_restore_state
 1263              		.loc 1 358 0
 1264 0052 3146     		mov	r1, r6
 1265 0054 2046     		mov	r0, r4
 1266 0056 FFF7FEFF 		bl	AsebaShouldDropPacket
 1267              	.LVL110:
 1268 005a 0028     		cmp	r0, #0
 1269 005c F2D1     		bne	.L136
 1270              	.L138:
 1271              	.LBB84:
 1272              	.LBB85:
 1273              		.loc 1 151 0
 1274 005e 4348     		ldr	r0, .L181+4
 1275              	.LBB86:
 1276              	.LBB87:
 1277              		.loc 1 140 0
 1278 0060 018D     		ldrh	r1, [r0, #40]
 1279              	.LVL111:
 1280              		.loc 1 141 0
 1281 0062 438D     		ldrh	r3, [r0, #42]
 1282              	.LVL112:
 1283              	.LBE87:
 1284              	.LBE86:
 1285              		.loc 1 151 0
 1286 0064 476A     		ldr	r7, [r0, #36]
 1287              	.LBB90:
 1288              	.LBB88:
 1289              		.loc 1 142 0
 1290 0066 9942     		cmp	r1, r3
 1291              	.LBE88:
 1292              	.LBE90:
 1293              		.loc 1 151 0
 1294 0068 BAB2     		uxth	r2, r7
 1295              	.LBB91:
 1296              	.LBB89:
 1297              		.loc 1 145 0
 1298 006a 36BF     		itet	cc
 1299 006c A2EB030C 		subcc	ip, r2, r3
 1300              		.loc 1 143 0
 1301 0070 A1EB030C 		subcs	ip, r1, r3
 1302              		.loc 1 145 0
 1303 0074 8C44     		addcc	ip, ip, r1
 1304 0076 1FFA8CFC 		uxth	ip, ip
 1305              	.LVL113:
 1306              	.LBE89:
 1307              	.LBE91:
 1308              		.loc 1 151 0
 1309 007a A2EB0C02 		sub	r2, r2, ip
 1310              	.LBE85:
 1311              	.LBE84:
ARM GAS  /var/folders/d2/nstgp4h54kz7g1l847x_b8wc0000gn/T//cctjqpgp.s 			page 24


 1312              		.loc 1 390 0
 1313 007e 92B2     		uxth	r2, r2
 1314 0080 012A     		cmp	r2, #1
 1315 0082 0DD8     		bhi	.L148
 1316              		.loc 1 393 0
 1317 0084 3289     		ldrh	r2, [r6, #8]
 1318 0086 C2F30222 		ubfx	r2, r2, #8, #3
 1319 008a 022A     		cmp	r2, #2
 1320 008c 20D0     		beq	.L180
 1321              	.LVL114:
 1322              	.L150:
 1323              		.loc 1 399 0
 1324 008e 019A     		ldr	r2, [sp, #4]
 1325 0090 2B68     		ldr	r3, [r5]
 1326 0092 9A42     		cmp	r2, r3
 1327 0094 66D1     		bne	.L177
 1328 0096 C368     		ldr	r3, [r0, #12]
 1329              		.loc 1 412 0
 1330 0098 03B0     		add	sp, sp, #12
 1331              		.cfi_remember_state
 1332              		.cfi_def_cfa_offset 20
 1333              		@ sp needed
 1334 009a BDE8F040 		pop	{r4, r5, r6, r7, lr}
 1335              		.cfi_restore 14
 1336              		.cfi_restore 7
 1337              		.cfi_restore 6
 1338              		.cfi_restore 5
 1339              		.cfi_restore 4
 1340              		.cfi_def_cfa_offset 0
 1341              	.LVL115:
 1342              		.loc 1 399 0
 1343 009e 1847     		bx	r3	@ indirect register sibling call
 1344              	.LVL116:
 1345              	.L148:
 1346              		.cfi_restore_state
 1347              	.LBB92:
 1348              		.loc 1 405 0
 1349 00a0 01EB4102 		add	r2, r1, r1, lsl #1
 1350 00a4 036A     		ldr	r3, [r0, #32]
 1351 00a6 D6F800C0 		ldr	ip, [r6]	@ unaligned
 1352 00aa 7468     		ldr	r4, [r6, #4]	@ unaligned
 1353              	.LVL117:
 1354 00ac B668     		ldr	r6, [r6, #8]	@ unaligned
 1355              	.LVL118:
 1356 00ae 9200     		lsls	r2, r2, #2
 1357              		.loc 1 407 0
 1358 00b0 0131     		adds	r1, r1, #1
 1359              		.loc 1 405 0
 1360 00b2 43F802C0 		str	ip, [r3, r2]	@ unaligned
 1361 00b6 1344     		add	r3, r3, r2
 1362              		.loc 1 407 0
 1363 00b8 89B2     		uxth	r1, r1
 1364              	.LVL119:
 1365              		.loc 1 405 0
 1366 00ba 9E60     		str	r6, [r3, #8]	@ unaligned
 1367              		.loc 1 406 0
 1368 00bc 5A7A     		ldrb	r2, [r3, #9]	@ zero_extendqisi2
ARM GAS  /var/folders/d2/nstgp4h54kz7g1l847x_b8wc0000gn/T//cctjqpgp.s 			page 25


 1369              		.loc 1 405 0
 1370 00be 5C60     		str	r4, [r3, #4]	@ unaligned
 1371              		.loc 1 409 0
 1372 00c0 B942     		cmp	r1, r7
 1373 00c2 28BF     		it	cs
 1374 00c4 0021     		movcs	r1, #0
 1375              	.LVL120:
 1376              		.loc 1 406 0
 1377 00c6 42F08002 		orr	r2, r2, #128
 1378 00ca 5A72     		strb	r2, [r3, #9]
 1379              		.loc 1 410 0
 1380 00cc 0185     		strh	r1, [r0, #40]	@ movhi
 1381 00ce B9E7     		b	.L136
 1382              	.LVL121:
 1383              	.L180:
 1384              	.LBE92:
 1385              	.LBB93:
 1386              	.LBB94:
 1387              		.loc 1 176 0
 1388 00d0 9942     		cmp	r1, r3
 1389 00d2 DCD0     		beq	.L150
 1390              		.loc 1 179 0
 1391 00d4 D0F820C0 		ldr	ip, [r0, #32]
 1392 00d8 1A46     		mov	r2, r3
 1393              	.LVL122:
 1394              	.L154:
 1395 00da 02EB4206 		add	r6, r2, r2, lsl #1
 1396 00de 0CEB8606 		add	r6, ip, r6, lsl #2
 1397 00e2 96F808E0 		ldrb	lr, [r6, #8]	@ zero_extendqisi2
 1398 00e6 7445     		cmp	r4, lr
 1399 00e8 05D1     		bne	.L152
 1400              		.loc 1 180 0
 1401 00ea 96F809E0 		ldrb	lr, [r6, #9]	@ zero_extendqisi2
 1402 00ee 6FF3C71E 		bfc	lr, #7, #1
 1403 00f2 86F809E0 		strb	lr, [r6, #9]
 1404              	.L152:
 1405              		.loc 1 182 0
 1406 00f6 0132     		adds	r2, r2, #1
 1407              	.LVL123:
 1408 00f8 92B2     		uxth	r2, r2
 1409              	.LVL124:
 1410              		.loc 1 184 0
 1411 00fa 9742     		cmp	r7, r2
 1412 00fc 98BF     		it	ls
 1413 00fe 0022     		movls	r2, #0
 1414              	.LVL125:
 1415              		.loc 1 176 0
 1416 0100 9142     		cmp	r1, r2
 1417 0102 EAD1     		bne	.L154
 1418              	.LBE94:
 1419              	.LBE93:
 1420              	.LBB95:
 1421              	.LBB96:
 1422              		.loc 1 160 0
 1423 0104 03EB4301 		add	r1, r3, r3, lsl #1
 1424 0108 0CEB8101 		add	r1, ip, r1, lsl #2
 1425 010c 91F90910 		ldrsb	r1, [r1, #9]
ARM GAS  /var/folders/d2/nstgp4h54kz7g1l847x_b8wc0000gn/T//cctjqpgp.s 			page 26


 1426 0110 0029     		cmp	r1, #0
 1427 0112 08DA     		bge	.L156
 1428 0114 BBE7     		b	.L150
 1429              	.LVL126:
 1430              	.L158:
 1431 0116 03EB4301 		add	r1, r3, r3, lsl #1
 1432 011a 0CEB8101 		add	r1, ip, r1, lsl #2
 1433 011e 91F90910 		ldrsb	r1, [r1, #9]
 1434 0122 0029     		cmp	r1, #0
 1435 0124 06DB     		blt	.L176
 1436              	.LVL127:
 1437              	.L156:
 1438              		.loc 1 163 0
 1439 0126 0133     		adds	r3, r3, #1
 1440 0128 9BB2     		uxth	r3, r3
 1441              	.LVL128:
 1442              		.loc 1 165 0
 1443 012a 9F42     		cmp	r7, r3
 1444 012c 98BF     		it	ls
 1445 012e 0023     		movls	r3, #0
 1446              	.LVL129:
 1447              		.loc 1 158 0
 1448 0130 9342     		cmp	r3, r2
 1449 0132 F0D1     		bne	.L158
 1450              	.L176:
 1451 0134 4385     		strh	r3, [r0, #42]	@ movhi
 1452 0136 AAE7     		b	.L150
 1453              	.LVL130:
 1454              	.L179:
 1455              	.LBE96:
 1456              	.LBE95:
 1457              		.loc 1 363 0
 1458 0138 3146     		mov	r1, r6
 1459 013a 2046     		mov	r0, r4
 1460 013c FFF7FEFF 		bl	AsebaShouldDropPacket
 1461              	.LVL131:
 1462 0140 0028     		cmp	r0, #0
 1463 0142 8CD0     		beq	.L138
 1464 0144 DFF828C0 		ldr	ip, .L181+8
 1465 0148 0023     		movs	r3, #0
 1466 014a 6246     		mov	r2, ip
 1467 014c 02E0     		b	.L142
 1468              	.LVL132:
 1469              	.L141:
 1470 014e 0133     		adds	r3, r3, #1
 1471              	.LVL133:
 1472              	.LBB97:
 1473              		.loc 1 366 0 discriminator 2
 1474 0150 142B     		cmp	r3, #20
 1475 0152 84D0     		beq	.L138
 1476              	.L142:
 1477              	.LVL134:
 1478              		.loc 1 368 0
 1479 0154 32F8021B 		ldrh	r1, [r2], #2
 1480 0158 0029     		cmp	r1, #0
 1481 015a F8D1     		bne	.L141
 1482              		.loc 1 370 0
ARM GAS  /var/folders/d2/nstgp4h54kz7g1l847x_b8wc0000gn/T//cctjqpgp.s 			page 27


 1483 015c 601C     		adds	r0, r4, #1
 1484 015e 2CF81300 		strh	r0, [ip, r3, lsl #1]	@ movhi
 1485              		.loc 1 371 0
 1486 0162 6FE7     		b	.L136
 1487              	.LVL135:
 1488              	.L177:
 1489              	.LBE97:
 1490              		.loc 1 412 0
 1491 0164 FFF7FEFF 		bl	__stack_chk_fail
 1492              	.LVL136:
 1493              	.L182:
 1494              		.align	2
 1495              	.L181:
 1496 0168 00000000 		.word	__stack_chk_guard
 1497 016c 00000000 		.word	.LANCHOR0
 1498 0170 00000000 		.word	.LANCHOR1
 1499              		.cfi_endproc
 1500              	.LFE16:
 1501              		.size	AsebaCanFrameReceived, .-AsebaCanFrameReceived
 1502              		.section	.text.AsebaCanRecvFreeQueue,"ax",%progbits
 1503              		.align	1
 1504              		.p2align 4,,15
 1505              		.global	AsebaCanRecvFreeQueue
 1506              		.syntax unified
 1507              		.thumb
 1508              		.thumb_func
 1509              		.fpu fpv4-sp-d16
 1510              		.type	AsebaCanRecvFreeQueue, %function
 1511              	AsebaCanRecvFreeQueue:
 1512              	.LFB17:
 1513              		.loc 1 415 0
 1514              		.cfi_startproc
 1515              		@ args = 0, pretend = 0, frame = 8
 1516              		@ frame_needed = 0, uses_anonymous_args = 0
 1517 0000 10B5     		push	{r4, lr}
 1518              		.cfi_def_cfa_offset 8
 1519              		.cfi_offset 4, -8
 1520              		.cfi_offset 14, -4
 1521              		.loc 1 417 0
 1522 0002 1248     		ldr	r0, .L195
 1523              		.loc 1 415 0
 1524 0004 124C     		ldr	r4, .L195+4
 1525              		.loc 1 417 0
 1526 0006 416A     		ldr	r1, [r0, #36]
 1527              		.loc 1 415 0
 1528 0008 2368     		ldr	r3, [r4]
 1529 000a 82B0     		sub	sp, sp, #8
 1530              		.cfi_def_cfa_offset 16
 1531              		.loc 1 415 0
 1532 000c 0193     		str	r3, [sp, #4]
 1533              	.LVL137:
 1534              		.loc 1 417 0
 1535 000e 59B1     		cbz	r1, .L184
 1536 0010 036A     		ldr	r3, [r0, #32]
 1537 0012 01EB4101 		add	r1, r1, r1, lsl #1
 1538 0016 03EB8101 		add	r1, r3, r1, lsl #2
 1539              	.LVL138:
ARM GAS  /var/folders/d2/nstgp4h54kz7g1l847x_b8wc0000gn/T//cctjqpgp.s 			page 28


 1540              	.L185:
 1541              		.loc 1 418 0 discriminator 3
 1542 001a 5A7A     		ldrb	r2, [r3, #9]	@ zero_extendqisi2
 1543 001c 6FF3C712 		bfc	r2, #7, #1
 1544 0020 5A72     		strb	r2, [r3, #9]
 1545 0022 0C33     		adds	r3, r3, #12
 1546              		.loc 1 417 0 discriminator 3
 1547 0024 8B42     		cmp	r3, r1
 1548 0026 F8D1     		bne	.L185
 1549              	.L184:
 1550 0028 0A4B     		ldr	r3, .L195+8
 1551              		.loc 1 419 0
 1552 002a 0022     		movs	r2, #0
 1553 002c 03F12801 		add	r1, r3, #40
 1554 0030 8262     		str	r2, [r0, #40]
 1555              	.LVL139:
 1556              	.L186:
 1557              		.loc 1 423 0 discriminator 3
 1558 0032 23F8022F 		strh	r2, [r3, #2]!	@ movhi
 1559              		.loc 1 422 0 discriminator 3
 1560 0036 8B42     		cmp	r3, r1
 1561 0038 FBD1     		bne	.L186
 1562              		.loc 1 424 0
 1563 003a 019A     		ldr	r2, [sp, #4]
 1564 003c 2368     		ldr	r3, [r4]
 1565 003e 9A42     		cmp	r2, r3
 1566 0040 01D1     		bne	.L194
 1567 0042 02B0     		add	sp, sp, #8
 1568              		.cfi_remember_state
 1569              		.cfi_def_cfa_offset 8
 1570              		@ sp needed
 1571 0044 10BD     		pop	{r4, pc}
 1572              	.L194:
 1573              		.cfi_restore_state
 1574 0046 FFF7FEFF 		bl	__stack_chk_fail
 1575              	.LVL140:
 1576              	.L196:
 1577 004a 00BF     		.align	2
 1578              	.L195:
 1579 004c 00000000 		.word	.LANCHOR0
 1580 0050 00000000 		.word	__stack_chk_guard
 1581 0054 FEFFFFFF 		.word	.LANCHOR1-2
 1582              		.cfi_endproc
 1583              	.LFE17:
 1584              		.size	AsebaCanRecvFreeQueue, .-AsebaCanRecvFreeQueue
 1585              		.section	.bss.asebaCan,"aw",%nobits
 1586              		.align	2
 1587              		.set	.LANCHOR0,. + 0
 1588              		.type	asebaCan, %object
 1589              		.size	asebaCan, 48
 1590              	asebaCan:
 1591 0000 00000000 		.space	48
 1591      00000000 
 1591      00000000 
 1591      00000000 
 1591      00000000 
 1592              		.section	.bss.dropping,"aw",%nobits
ARM GAS  /var/folders/d2/nstgp4h54kz7g1l847x_b8wc0000gn/T//cctjqpgp.s 			page 29


 1593              		.align	2
 1594              		.set	.LANCHOR1,. + 0
 1595              		.type	dropping, %object
 1596              		.size	dropping, 40
 1597              	dropping:
 1598 0000 00000000 		.space	40
 1598      00000000 
 1598      00000000 
 1598      00000000 
 1598      00000000 
 1599              		.text
 1600              	.Letext0:
 1601              		.file 2 "/Applications/Eclipse_e-puck2.app/Contents/Eclipse_e-puck2/Tools/gcc-arm-none-eabi-7-2017
 1602              		.file 3 "/Applications/Eclipse_e-puck2.app/Contents/Eclipse_e-puck2/Tools/gcc-arm-none-eabi-7-2017
 1603              		.file 4 "/Applications/Eclipse_e-puck2.app/Contents/Eclipse_e-puck2/Tools/gcc-arm-none-eabi-7-2017
 1604              		.file 5 "/Applications/Eclipse_e-puck2.app/Contents/Eclipse_e-puck2/Tools/gcc-arm-none-eabi-7-2017
 1605              		.file 6 "/Applications/Eclipse_e-puck2.app/Contents/Eclipse_e-puck2/Tools/gcc-arm-none-eabi-7-2017
 1606              		.file 7 "../e-puck2_main-processor/aseba/transport/can/../../common/types.h"
 1607              		.file 8 "../e-puck2_main-processor/aseba/transport/can/can-net.h"
 1608              		.file 9 "<built-in>"