ARM GAS  /var/folders/d2/nstgp4h54kz7g1l847x_b8wc0000gn/T//ccEJ2DXP.s 			page 1


   1              		.cpu cortex-m4
   2              		.eabi_attribute 27, 1
   3              		.eabi_attribute 28, 1
   4              		.eabi_attribute 20, 1
   5              		.eabi_attribute 21, 1
   6              		.eabi_attribute 23, 3
   7              		.eabi_attribute 24, 1
   8              		.eabi_attribute 25, 1
   9              		.eabi_attribute 26, 1
  10              		.eabi_attribute 30, 2
  11              		.eabi_attribute 34, 1
  12              		.eabi_attribute 18, 4
  13              		.file	"can-buffer.c"
  14              		.text
  15              	.Ltext0:
  16              		.cfi_sections	.debug_frame
  17              		.section	.text.AsebaSendBuffer,"ax",%progbits
  18              		.align	1
  19              		.p2align 4,,15
  20              		.global	AsebaSendBuffer
  21              		.syntax unified
  22              		.thumb
  23              		.thumb_func
  24              		.fpu fpv4-sp-d16
  25              		.type	AsebaSendBuffer, %function
  26              	AsebaSendBuffer:
  27              	.LFB1:
  28              		.file 1 "../e-puck2_main-processor/aseba/transport/can/can-buffer.c"
  29              		.loc 1 26 0
  30              		.cfi_startproc
  31              		@ args = 0, pretend = 0, frame = 8
  32              		@ frame_needed = 0, uses_anonymous_args = 0
  33              	.LVL0:
  34 0000 70B5     		push	{r4, r5, r6, lr}
  35              		.cfi_def_cfa_offset 16
  36              		.cfi_offset 4, -16
  37              		.cfi_offset 5, -12
  38              		.cfi_offset 6, -8
  39              		.cfi_offset 14, -4
  40 0002 0B4E     		ldr	r6, .L8
  41 0004 82B0     		sub	sp, sp, #8
  42              		.cfi_def_cfa_offset 24
  43              		.loc 1 26 0
  44 0006 3368     		ldr	r3, [r6]
  45 0008 0193     		str	r3, [sp, #4]
  46 000a 0D46     		mov	r5, r1
  47 000c 1446     		mov	r4, r2
  48              		.loc 1 28 0
  49 000e 01E0     		b	.L2
  50              	.LVL1:
  51              	.L3:
  52              		.loc 1 29 0
  53 0010 FFF7FEFF 		bl	AsebaIdle
  54              	.LVL2:
  55              	.L2:
  56              		.loc 1 28 0
  57 0014 2146     		mov	r1, r4
ARM GAS  /var/folders/d2/nstgp4h54kz7g1l847x_b8wc0000gn/T//ccEJ2DXP.s 			page 2


  58 0016 2846     		mov	r0, r5
  59 0018 FFF7FEFF 		bl	AsebaCanSend
  60              	.LVL3:
  61 001c 0028     		cmp	r0, #0
  62 001e F7D0     		beq	.L3
  63              		.loc 1 30 0
  64 0020 019A     		ldr	r2, [sp, #4]
  65 0022 3368     		ldr	r3, [r6]
  66 0024 9A42     		cmp	r2, r3
  67 0026 01D1     		bne	.L7
  68 0028 02B0     		add	sp, sp, #8
  69              		.cfi_remember_state
  70              		.cfi_def_cfa_offset 16
  71              		@ sp needed
  72 002a 70BD     		pop	{r4, r5, r6, pc}
  73              	.LVL4:
  74              	.L7:
  75              		.cfi_restore_state
  76 002c FFF7FEFF 		bl	__stack_chk_fail
  77              	.LVL5:
  78              	.L9:
  79              		.align	2
  80              	.L8:
  81 0030 00000000 		.word	__stack_chk_guard
  82              		.cfi_endproc
  83              	.LFE1:
  84              		.size	AsebaSendBuffer, .-AsebaSendBuffer
  85              		.section	.text.AsebaGetBuffer,"ax",%progbits
  86              		.align	1
  87              		.p2align 4,,15
  88              		.global	AsebaGetBuffer
  89              		.syntax unified
  90              		.thumb
  91              		.thumb_func
  92              		.fpu fpv4-sp-d16
  93              		.type	AsebaGetBuffer, %function
  94              	AsebaGetBuffer:
  95              	.LFB2:
  96              		.loc 1 33 0
  97              		.cfi_startproc
  98              		@ args = 0, pretend = 0, frame = 8
  99              		@ frame_needed = 0, uses_anonymous_args = 0
 100              	.LVL6:
 101 0000 30B5     		push	{r4, r5, lr}
 102              		.cfi_def_cfa_offset 12
 103              		.cfi_offset 4, -12
 104              		.cfi_offset 5, -8
 105              		.cfi_offset 14, -4
 106 0002 0948     		ldr	r0, .L15
 107              	.LVL7:
 108 0004 83B0     		sub	sp, sp, #12
 109              		.cfi_def_cfa_offset 24
 110              		.loc 1 33 0
 111 0006 0468     		ldr	r4, [r0]
 112 0008 0194     		str	r4, [sp, #4]
 113              		.loc 1 35 0
 114 000a 019D     		ldr	r5, [sp, #4]
ARM GAS  /var/folders/d2/nstgp4h54kz7g1l847x_b8wc0000gn/T//ccEJ2DXP.s 			page 3


 115 000c 0468     		ldr	r4, [r0]
 116 000e A542     		cmp	r5, r4
 117 0010 07D1     		bne	.L14
 118 0012 0846     		mov	r0, r1
 119 0014 1146     		mov	r1, r2
 120              	.LVL8:
 121 0016 1A46     		mov	r2, r3
 122              	.LVL9:
 123              		.loc 1 36 0
 124 0018 03B0     		add	sp, sp, #12
 125              		.cfi_remember_state
 126              		.cfi_def_cfa_offset 12
 127              		@ sp needed
 128 001a BDE83040 		pop	{r4, r5, lr}
 129              		.cfi_restore 14
 130              		.cfi_restore 5
 131              		.cfi_restore 4
 132              		.cfi_def_cfa_offset 0
 133              		.loc 1 35 0
 134 001e FFF7FEBF 		b	AsebaCanRecv
 135              	.LVL10:
 136              	.L14:
 137              		.cfi_restore_state
 138 0022 FFF7FEFF 		bl	__stack_chk_fail
 139              	.LVL11:
 140              	.L16:
 141 0026 00BF     		.align	2
 142              	.L15:
 143 0028 00000000 		.word	__stack_chk_guard
 144              		.cfi_endproc
 145              	.LFE2:
 146              		.size	AsebaGetBuffer, .-AsebaGetBuffer
 147              		.text
 148              	.Letext0:
 149              		.file 2 "/Applications/Eclipse_e-puck2.app/Contents/Eclipse_e-puck2/Tools/gcc-arm-none-eabi-7-2017
 150              		.file 3 "/Applications/Eclipse_e-puck2.app/Contents/Eclipse_e-puck2/Tools/gcc-arm-none-eabi-7-2017
 151              		.file 4 "/Applications/Eclipse_e-puck2.app/Contents/Eclipse_e-puck2/Tools/gcc-arm-none-eabi-7-2017
 152              		.file 5 "/Applications/Eclipse_e-puck2.app/Contents/Eclipse_e-puck2/Tools/gcc-arm-none-eabi-7-2017
 153              		.file 6 "/Applications/Eclipse_e-puck2.app/Contents/Eclipse_e-puck2/Tools/gcc-arm-none-eabi-7-2017
 154              		.file 7 "../e-puck2_main-processor/aseba/transport/can/../buffer/../../common/types.h"
 155              		.file 8 "../e-puck2_main-processor/aseba/transport/can/../buffer/../../vm/vm.h"
 156              		.file 9 "../e-puck2_main-processor/aseba/transport/can/../buffer/../../vm/natives.h"
 157              		.file 10 "../e-puck2_main-processor/aseba/transport/can/can-net.h"