ARM GAS  /var/folders/d2/nstgp4h54kz7g1l847x_b8wc0000gn/T//cch87DkJ.s 			page 1


   1              		.cpu cortex-m4
   2              		.eabi_attribute 27, 1
   3              		.eabi_attribute 28, 1
   4              		.eabi_attribute 20, 1
   5              		.eabi_attribute 21, 1
   6              		.eabi_attribute 23, 3
   7              		.eabi_attribute 24, 1
   8              		.eabi_attribute 25, 1
   9              		.eabi_attribute 26, 1
  10              		.eabi_attribute 30, 6
  11              		.eabi_attribute 34, 1
  12              		.eabi_attribute 18, 4
  13              		.file	"can.c"
  14              		.section	.text.port_lock,"ax",%progbits
  15              		.align	1
  16              		.syntax unified
  17              		.thumb
  18              		.thumb_func
  19              		.fpu fpv4-sp-d16
  20              		.type	port_lock, %function
  21              	port_lock:
  22              		@ args = 0, pretend = 0, frame = 8
  23              		@ frame_needed = 1, uses_anonymous_args = 0
  24              		@ link register save eliminated.
  25 0000 80B4     		push	{r7}
  26 0002 83B0     		sub	sp, sp, #12
  27 0004 00AF     		add	r7, sp, #0
  28 0006 2023     		movs	r3, #32
  29 0008 7B60     		str	r3, [r7, #4]
  30 000a 7B68     		ldr	r3, [r7, #4]
  31              		.syntax unified
  32              	@ 546 "../e-puck2_main-processor/ChibiOS//os/ext/CMSIS/include/core_cmFunc.h" 1
  33 000c 83F31188 		MSR basepri, r3
  34              	@ 0 "" 2
  35              		.thumb
  36              		.syntax unified
  37 0010 00BF     		nop
  38 0012 0C37     		adds	r7, r7, #12
  39 0014 BD46     		mov	sp, r7
  40              		@ sp needed
  41 0016 5DF8047B 		ldr	r7, [sp], #4
  42 001a 7047     		bx	lr
  43              		.size	port_lock, .-port_lock
  44              		.section	.text.port_unlock,"ax",%progbits
  45              		.align	1
  46              		.syntax unified
  47              		.thumb
  48              		.thumb_func
  49              		.fpu fpv4-sp-d16
  50              		.type	port_unlock, %function
  51              	port_unlock:
  52              		@ args = 0, pretend = 0, frame = 8
  53              		@ frame_needed = 1, uses_anonymous_args = 0
  54              		@ link register save eliminated.
  55 0000 80B4     		push	{r7}
  56 0002 83B0     		sub	sp, sp, #12
  57 0004 00AF     		add	r7, sp, #0
ARM GAS  /var/folders/d2/nstgp4h54kz7g1l847x_b8wc0000gn/T//cch87DkJ.s 			page 2


  58 0006 0023     		movs	r3, #0
  59 0008 7B60     		str	r3, [r7, #4]
  60 000a 7B68     		ldr	r3, [r7, #4]
  61              		.syntax unified
  62              	@ 546 "../e-puck2_main-processor/ChibiOS//os/ext/CMSIS/include/core_cmFunc.h" 1
  63 000c 83F31188 		MSR basepri, r3
  64              	@ 0 "" 2
  65              		.thumb
  66              		.syntax unified
  67 0010 00BF     		nop
  68 0012 0C37     		adds	r7, r7, #12
  69 0014 BD46     		mov	sp, r7
  70              		@ sp needed
  71 0016 5DF8047B 		ldr	r7, [sp], #4
  72 001a 7047     		bx	lr
  73              		.size	port_unlock, .-port_unlock
  74              		.section	.text.queue_init,"ax",%progbits
  75              		.align	1
  76              		.syntax unified
  77              		.thumb
  78              		.thumb_func
  79              		.fpu fpv4-sp-d16
  80              		.type	queue_init, %function
  81              	queue_init:
  82              		@ args = 0, pretend = 0, frame = 8
  83              		@ frame_needed = 1, uses_anonymous_args = 0
  84              		@ link register save eliminated.
  85 0000 80B4     		push	{r7}
  86 0002 83B0     		sub	sp, sp, #12
  87 0004 00AF     		add	r7, sp, #0
  88 0006 7860     		str	r0, [r7, #4]
  89 0008 7B68     		ldr	r3, [r7, #4]
  90 000a 7A68     		ldr	r2, [r7, #4]
  91 000c 1A60     		str	r2, [r3]
  92 000e 7B68     		ldr	r3, [r7, #4]
  93 0010 7A68     		ldr	r2, [r7, #4]
  94 0012 5A60     		str	r2, [r3, #4]
  95 0014 00BF     		nop
  96 0016 0C37     		adds	r7, r7, #12
  97 0018 BD46     		mov	sp, r7
  98              		@ sp needed
  99 001a 5DF8047B 		ldr	r7, [sp], #4
 100 001e 7047     		bx	lr
 101              		.size	queue_init, .-queue_init
 102              		.section	.text.chSysLock,"ax",%progbits
 103              		.align	1
 104              		.syntax unified
 105              		.thumb
 106              		.thumb_func
 107              		.fpu fpv4-sp-d16
 108              		.type	chSysLock, %function
 109              	chSysLock:
 110              		@ args = 0, pretend = 0, frame = 0
 111              		@ frame_needed = 1, uses_anonymous_args = 0
 112 0000 80B5     		push	{r7, lr}
 113 0002 00AF     		add	r7, sp, #0
 114 0004 FFF7FEFF 		bl	port_lock
ARM GAS  /var/folders/d2/nstgp4h54kz7g1l847x_b8wc0000gn/T//cch87DkJ.s 			page 3


 115 0008 FFF7FEFF 		bl	_stats_start_measure_crit_thd
 116 000c FFF7FEFF 		bl	_dbg_check_lock
 117 0010 00BF     		nop
 118 0012 80BD     		pop	{r7, pc}
 119              		.size	chSysLock, .-chSysLock
 120              		.section	.text.chSysUnlock,"ax",%progbits
 121              		.align	1
 122              		.syntax unified
 123              		.thumb
 124              		.thumb_func
 125              		.fpu fpv4-sp-d16
 126              		.type	chSysUnlock, %function
 127              	chSysUnlock:
 128              		@ args = 0, pretend = 0, frame = 0
 129              		@ frame_needed = 1, uses_anonymous_args = 0
 130 0000 80B5     		push	{r7, lr}
 131 0002 00AF     		add	r7, sp, #0
 132 0004 FFF7FEFF 		bl	_dbg_check_unlock
 133 0008 FFF7FEFF 		bl	_stats_stop_measure_crit_thd
 134 000c 094B     		ldr	r3, .L7
 135 000e 1B68     		ldr	r3, [r3]
 136 0010 084A     		ldr	r2, .L7
 137 0012 9342     		cmp	r3, r2
 138 0014 0AD0     		beq	.L6
 139 0016 074B     		ldr	r3, .L7
 140 0018 9B69     		ldr	r3, [r3, #24]
 141 001a 9A68     		ldr	r2, [r3, #8]
 142 001c 054B     		ldr	r3, .L7
 143 001e 1B68     		ldr	r3, [r3]
 144 0020 9B68     		ldr	r3, [r3, #8]
 145 0022 9A42     		cmp	r2, r3
 146 0024 02D2     		bcs	.L6
 147 0026 0448     		ldr	r0, .L7+4
 148 0028 FFF7FEFF 		bl	chSysHalt
 149              	.L6:
 150 002c FFF7FEFF 		bl	port_unlock
 151 0030 00BF     		nop
 152 0032 80BD     		pop	{r7, pc}
 153              	.L8:
 154              		.align	2
 155              	.L7:
 156 0034 00000000 		.word	ch
 157 0038 00000000 		.word	__func__.7153
 158              		.size	chSysUnlock, .-chSysUnlock
 159              		.section	.text.chThdQueueObjectInit,"ax",%progbits
 160              		.align	1
 161              		.syntax unified
 162              		.thumb
 163              		.thumb_func
 164              		.fpu fpv4-sp-d16
 165              		.type	chThdQueueObjectInit, %function
 166              	chThdQueueObjectInit:
 167              		@ args = 0, pretend = 0, frame = 8
 168              		@ frame_needed = 1, uses_anonymous_args = 0
 169 0000 80B5     		push	{r7, lr}
 170 0002 82B0     		sub	sp, sp, #8
 171 0004 00AF     		add	r7, sp, #0
ARM GAS  /var/folders/d2/nstgp4h54kz7g1l847x_b8wc0000gn/T//cch87DkJ.s 			page 4


 172 0006 7860     		str	r0, [r7, #4]
 173 0008 7868     		ldr	r0, [r7, #4]
 174 000a FFF7FEFF 		bl	queue_init
 175 000e 00BF     		nop
 176 0010 0837     		adds	r7, r7, #8
 177 0012 BD46     		mov	sp, r7
 178              		@ sp needed
 179 0014 80BD     		pop	{r7, pc}
 180              		.size	chThdQueueObjectInit, .-chThdQueueObjectInit
 181              		.section	.text.chEvtObjectInit,"ax",%progbits
 182              		.align	1
 183              		.syntax unified
 184              		.thumb
 185              		.thumb_func
 186              		.fpu fpv4-sp-d16
 187              		.type	chEvtObjectInit, %function
 188              	chEvtObjectInit:
 189              		@ args = 0, pretend = 0, frame = 8
 190              		@ frame_needed = 1, uses_anonymous_args = 0
 191              		@ link register save eliminated.
 192 0000 80B4     		push	{r7}
 193 0002 83B0     		sub	sp, sp, #12
 194 0004 00AF     		add	r7, sp, #0
 195 0006 7860     		str	r0, [r7, #4]
 196 0008 7B68     		ldr	r3, [r7, #4]
 197 000a 7A68     		ldr	r2, [r7, #4]
 198 000c 1A60     		str	r2, [r3]
 199 000e 00BF     		nop
 200 0010 0C37     		adds	r7, r7, #12
 201 0012 BD46     		mov	sp, r7
 202              		@ sp needed
 203 0014 5DF8047B 		ldr	r7, [sp], #4
 204 0018 7047     		bx	lr
 205              		.size	chEvtObjectInit, .-chEvtObjectInit
 206              		.section	.text.osalSysLock,"ax",%progbits
 207              		.align	1
 208              		.syntax unified
 209              		.thumb
 210              		.thumb_func
 211              		.fpu fpv4-sp-d16
 212              		.type	osalSysLock, %function
 213              	osalSysLock:
 214              		@ args = 0, pretend = 0, frame = 0
 215              		@ frame_needed = 1, uses_anonymous_args = 0
 216 0000 80B5     		push	{r7, lr}
 217 0002 00AF     		add	r7, sp, #0
 218 0004 FFF7FEFF 		bl	chSysLock
 219 0008 00BF     		nop
 220 000a 80BD     		pop	{r7, pc}
 221              		.size	osalSysLock, .-osalSysLock
 222              		.section	.text.osalSysUnlock,"ax",%progbits
 223              		.align	1
 224              		.syntax unified
 225              		.thumb
 226              		.thumb_func
 227              		.fpu fpv4-sp-d16
 228              		.type	osalSysUnlock, %function
ARM GAS  /var/folders/d2/nstgp4h54kz7g1l847x_b8wc0000gn/T//cch87DkJ.s 			page 5


 229              	osalSysUnlock:
 230              		@ args = 0, pretend = 0, frame = 0
 231              		@ frame_needed = 1, uses_anonymous_args = 0
 232 0000 80B5     		push	{r7, lr}
 233 0002 00AF     		add	r7, sp, #0
 234 0004 FFF7FEFF 		bl	chSysUnlock
 235 0008 00BF     		nop
 236 000a 80BD     		pop	{r7, pc}
 237              		.size	osalSysUnlock, .-osalSysUnlock
 238              		.section	.text.osalOsRescheduleS,"ax",%progbits
 239              		.align	1
 240              		.syntax unified
 241              		.thumb
 242              		.thumb_func
 243              		.fpu fpv4-sp-d16
 244              		.type	osalOsRescheduleS, %function
 245              	osalOsRescheduleS:
 246              		@ args = 0, pretend = 0, frame = 0
 247              		@ frame_needed = 1, uses_anonymous_args = 0
 248 0000 80B5     		push	{r7, lr}
 249 0002 00AF     		add	r7, sp, #0
 250 0004 FFF7FEFF 		bl	chSchRescheduleS
 251 0008 00BF     		nop
 252 000a 80BD     		pop	{r7, pc}
 253              		.size	osalOsRescheduleS, .-osalOsRescheduleS
 254              		.section	.text.osalThreadQueueObjectInit,"ax",%progbits
 255              		.align	1
 256              		.syntax unified
 257              		.thumb
 258              		.thumb_func
 259              		.fpu fpv4-sp-d16
 260              		.type	osalThreadQueueObjectInit, %function
 261              	osalThreadQueueObjectInit:
 262              		@ args = 0, pretend = 0, frame = 8
 263              		@ frame_needed = 1, uses_anonymous_args = 0
 264 0000 80B5     		push	{r7, lr}
 265 0002 82B0     		sub	sp, sp, #8
 266 0004 00AF     		add	r7, sp, #0
 267 0006 7860     		str	r0, [r7, #4]
 268 0008 7868     		ldr	r0, [r7, #4]
 269 000a FFF7FEFF 		bl	chThdQueueObjectInit
 270 000e 00BF     		nop
 271 0010 0837     		adds	r7, r7, #8
 272 0012 BD46     		mov	sp, r7
 273              		@ sp needed
 274 0014 80BD     		pop	{r7, pc}
 275              		.size	osalThreadQueueObjectInit, .-osalThreadQueueObjectInit
 276              		.section	.text.osalThreadEnqueueTimeoutS,"ax",%progbits
 277              		.align	1
 278              		.syntax unified
 279              		.thumb
 280              		.thumb_func
 281              		.fpu fpv4-sp-d16
 282              		.type	osalThreadEnqueueTimeoutS, %function
 283              	osalThreadEnqueueTimeoutS:
 284              		@ args = 0, pretend = 0, frame = 8
 285              		@ frame_needed = 1, uses_anonymous_args = 0
ARM GAS  /var/folders/d2/nstgp4h54kz7g1l847x_b8wc0000gn/T//cch87DkJ.s 			page 6


 286 0000 80B5     		push	{r7, lr}
 287 0002 82B0     		sub	sp, sp, #8
 288 0004 00AF     		add	r7, sp, #0
 289 0006 7860     		str	r0, [r7, #4]
 290 0008 3960     		str	r1, [r7]
 291 000a 3968     		ldr	r1, [r7]
 292 000c 7868     		ldr	r0, [r7, #4]
 293 000e FFF7FEFF 		bl	chThdEnqueueTimeoutS
 294 0012 0346     		mov	r3, r0
 295 0014 1846     		mov	r0, r3
 296 0016 0837     		adds	r7, r7, #8
 297 0018 BD46     		mov	sp, r7
 298              		@ sp needed
 299 001a 80BD     		pop	{r7, pc}
 300              		.size	osalThreadEnqueueTimeoutS, .-osalThreadEnqueueTimeoutS
 301              		.section	.text.osalThreadDequeueAllI,"ax",%progbits
 302              		.align	1
 303              		.syntax unified
 304              		.thumb
 305              		.thumb_func
 306              		.fpu fpv4-sp-d16
 307              		.type	osalThreadDequeueAllI, %function
 308              	osalThreadDequeueAllI:
 309              		@ args = 0, pretend = 0, frame = 8
 310              		@ frame_needed = 1, uses_anonymous_args = 0
 311 0000 80B5     		push	{r7, lr}
 312 0002 82B0     		sub	sp, sp, #8
 313 0004 00AF     		add	r7, sp, #0
 314 0006 7860     		str	r0, [r7, #4]
 315 0008 3960     		str	r1, [r7]
 316 000a 3968     		ldr	r1, [r7]
 317 000c 7868     		ldr	r0, [r7, #4]
 318 000e FFF7FEFF 		bl	chThdDequeueAllI
 319 0012 00BF     		nop
 320 0014 0837     		adds	r7, r7, #8
 321 0016 BD46     		mov	sp, r7
 322              		@ sp needed
 323 0018 80BD     		pop	{r7, pc}
 324              		.size	osalThreadDequeueAllI, .-osalThreadDequeueAllI
 325              		.section	.text.osalEventObjectInit,"ax",%progbits
 326              		.align	1
 327              		.syntax unified
 328              		.thumb
 329              		.thumb_func
 330              		.fpu fpv4-sp-d16
 331              		.type	osalEventObjectInit, %function
 332              	osalEventObjectInit:
 333              		@ args = 0, pretend = 0, frame = 8
 334              		@ frame_needed = 1, uses_anonymous_args = 0
 335 0000 80B5     		push	{r7, lr}
 336 0002 82B0     		sub	sp, sp, #8
 337 0004 00AF     		add	r7, sp, #0
 338 0006 7860     		str	r0, [r7, #4]
 339 0008 7868     		ldr	r0, [r7, #4]
 340 000a FFF7FEFF 		bl	chEvtObjectInit
 341 000e 00BF     		nop
 342 0010 0837     		adds	r7, r7, #8
ARM GAS  /var/folders/d2/nstgp4h54kz7g1l847x_b8wc0000gn/T//cch87DkJ.s 			page 7


 343 0012 BD46     		mov	sp, r7
 344              		@ sp needed
 345 0014 80BD     		pop	{r7, pc}
 346              		.size	osalEventObjectInit, .-osalEventObjectInit
 347              		.section	.text.osalEventBroadcastFlagsI,"ax",%progbits
 348              		.align	1
 349              		.syntax unified
 350              		.thumb
 351              		.thumb_func
 352              		.fpu fpv4-sp-d16
 353              		.type	osalEventBroadcastFlagsI, %function
 354              	osalEventBroadcastFlagsI:
 355              		@ args = 0, pretend = 0, frame = 8
 356              		@ frame_needed = 1, uses_anonymous_args = 0
 357 0000 80B5     		push	{r7, lr}
 358 0002 82B0     		sub	sp, sp, #8
 359 0004 00AF     		add	r7, sp, #0
 360 0006 7860     		str	r0, [r7, #4]
 361 0008 3960     		str	r1, [r7]
 362 000a 3968     		ldr	r1, [r7]
 363 000c 7868     		ldr	r0, [r7, #4]
 364 000e FFF7FEFF 		bl	chEvtBroadcastFlagsI
 365 0012 00BF     		nop
 366 0014 0837     		adds	r7, r7, #8
 367 0016 BD46     		mov	sp, r7
 368              		@ sp needed
 369 0018 80BD     		pop	{r7, pc}
 370              		.size	osalEventBroadcastFlagsI, .-osalEventBroadcastFlagsI
 371              		.section	.text.canInit,"ax",%progbits
 372              		.align	1
 373              		.global	canInit
 374              		.syntax unified
 375              		.thumb
 376              		.thumb_func
 377              		.fpu fpv4-sp-d16
 378              		.type	canInit, %function
 379              	canInit:
 380              		@ args = 0, pretend = 0, frame = 0
 381              		@ frame_needed = 1, uses_anonymous_args = 0
 382 0000 80B5     		push	{r7, lr}
 383 0002 00AF     		add	r7, sp, #0
 384 0004 FFF7FEFF 		bl	can_lld_init
 385 0008 00BF     		nop
 386 000a 80BD     		pop	{r7, pc}
 387              		.size	canInit, .-canInit
 388              		.section	.text.canObjectInit,"ax",%progbits
 389              		.align	1
 390              		.global	canObjectInit
 391              		.syntax unified
 392              		.thumb
 393              		.thumb_func
 394              		.fpu fpv4-sp-d16
 395              		.type	canObjectInit, %function
 396              	canObjectInit:
 397              		@ args = 0, pretend = 0, frame = 8
 398              		@ frame_needed = 1, uses_anonymous_args = 0
 399 0000 80B5     		push	{r7, lr}
ARM GAS  /var/folders/d2/nstgp4h54kz7g1l847x_b8wc0000gn/T//cch87DkJ.s 			page 8


 400 0002 82B0     		sub	sp, sp, #8
 401 0004 00AF     		add	r7, sp, #0
 402 0006 7860     		str	r0, [r7, #4]
 403 0008 7B68     		ldr	r3, [r7, #4]
 404 000a 0122     		movs	r2, #1
 405 000c 1A70     		strb	r2, [r3]
 406 000e 7B68     		ldr	r3, [r7, #4]
 407 0010 0022     		movs	r2, #0
 408 0012 5A60     		str	r2, [r3, #4]
 409 0014 7B68     		ldr	r3, [r7, #4]
 410 0016 0833     		adds	r3, r3, #8
 411 0018 1846     		mov	r0, r3
 412 001a FFF7FEFF 		bl	osalThreadQueueObjectInit
 413 001e 7B68     		ldr	r3, [r7, #4]
 414 0020 1033     		adds	r3, r3, #16
 415 0022 1846     		mov	r0, r3
 416 0024 FFF7FEFF 		bl	osalThreadQueueObjectInit
 417 0028 7B68     		ldr	r3, [r7, #4]
 418 002a 1833     		adds	r3, r3, #24
 419 002c 1846     		mov	r0, r3
 420 002e FFF7FEFF 		bl	osalEventObjectInit
 421 0032 7B68     		ldr	r3, [r7, #4]
 422 0034 1C33     		adds	r3, r3, #28
 423 0036 1846     		mov	r0, r3
 424 0038 FFF7FEFF 		bl	osalEventObjectInit
 425 003c 7B68     		ldr	r3, [r7, #4]
 426 003e 2033     		adds	r3, r3, #32
 427 0040 1846     		mov	r0, r3
 428 0042 FFF7FEFF 		bl	osalEventObjectInit
 429 0046 7B68     		ldr	r3, [r7, #4]
 430 0048 2433     		adds	r3, r3, #36
 431 004a 1846     		mov	r0, r3
 432 004c FFF7FEFF 		bl	osalEventObjectInit
 433 0050 7B68     		ldr	r3, [r7, #4]
 434 0052 2833     		adds	r3, r3, #40
 435 0054 1846     		mov	r0, r3
 436 0056 FFF7FEFF 		bl	osalEventObjectInit
 437 005a 00BF     		nop
 438 005c 0837     		adds	r7, r7, #8
 439 005e BD46     		mov	sp, r7
 440              		@ sp needed
 441 0060 80BD     		pop	{r7, pc}
 442              		.size	canObjectInit, .-canObjectInit
 443              		.section	.text.canStart,"ax",%progbits
 444              		.align	1
 445              		.global	canStart
 446              		.syntax unified
 447              		.thumb
 448              		.thumb_func
 449              		.fpu fpv4-sp-d16
 450              		.type	canStart, %function
 451              	canStart:
 452              		@ args = 0, pretend = 0, frame = 8
 453              		@ frame_needed = 1, uses_anonymous_args = 0
 454 0000 80B5     		push	{r7, lr}
 455 0002 82B0     		sub	sp, sp, #8
 456 0004 00AF     		add	r7, sp, #0
ARM GAS  /var/folders/d2/nstgp4h54kz7g1l847x_b8wc0000gn/T//cch87DkJ.s 			page 9


 457 0006 7860     		str	r0, [r7, #4]
 458 0008 3960     		str	r1, [r7]
 459 000a 7B68     		ldr	r3, [r7, #4]
 460 000c 002B     		cmp	r3, #0
 461 000e 02D1     		bne	.L23
 462 0010 0E48     		ldr	r0, .L25
 463 0012 FFF7FEFF 		bl	chSysHalt
 464              	.L23:
 465 0016 FFF7FEFF 		bl	osalSysLock
 466 001a 7B68     		ldr	r3, [r7, #4]
 467 001c 1B78     		ldrb	r3, [r3]	@ zero_extendqisi2
 468 001e 012B     		cmp	r3, #1
 469 0020 02D0     		beq	.L24
 470 0022 0A48     		ldr	r0, .L25
 471 0024 FFF7FEFF 		bl	chSysHalt
 472              	.L24:
 473 0028 7B68     		ldr	r3, [r7, #4]
 474 002a 0222     		movs	r2, #2
 475 002c 1A70     		strb	r2, [r3]
 476 002e 7B68     		ldr	r3, [r7, #4]
 477 0030 3A68     		ldr	r2, [r7]
 478 0032 5A60     		str	r2, [r3, #4]
 479 0034 7868     		ldr	r0, [r7, #4]
 480 0036 FFF7FEFF 		bl	can_lld_start
 481 003a 7B68     		ldr	r3, [r7, #4]
 482 003c 0322     		movs	r2, #3
 483 003e 1A70     		strb	r2, [r3]
 484 0040 FFF7FEFF 		bl	osalSysUnlock
 485 0044 00BF     		nop
 486 0046 0837     		adds	r7, r7, #8
 487 0048 BD46     		mov	sp, r7
 488              		@ sp needed
 489 004a 80BD     		pop	{r7, pc}
 490              	.L26:
 491              		.align	2
 492              	.L25:
 493 004c 00000000 		.word	__func__.9848
 494              		.size	canStart, .-canStart
 495              		.section	.text.canStop,"ax",%progbits
 496              		.align	1
 497              		.global	canStop
 498              		.syntax unified
 499              		.thumb
 500              		.thumb_func
 501              		.fpu fpv4-sp-d16
 502              		.type	canStop, %function
 503              	canStop:
 504              		@ args = 0, pretend = 0, frame = 8
 505              		@ frame_needed = 1, uses_anonymous_args = 0
 506 0000 80B5     		push	{r7, lr}
 507 0002 82B0     		sub	sp, sp, #8
 508 0004 00AF     		add	r7, sp, #0
 509 0006 7860     		str	r0, [r7, #4]
 510 0008 7B68     		ldr	r3, [r7, #4]
 511 000a 002B     		cmp	r3, #0
 512 000c 02D1     		bne	.L28
 513 000e 1648     		ldr	r0, .L30
ARM GAS  /var/folders/d2/nstgp4h54kz7g1l847x_b8wc0000gn/T//cch87DkJ.s 			page 10


 514 0010 FFF7FEFF 		bl	chSysHalt
 515              	.L28:
 516 0014 FFF7FEFF 		bl	osalSysLock
 517 0018 7B68     		ldr	r3, [r7, #4]
 518 001a 1B78     		ldrb	r3, [r3]	@ zero_extendqisi2
 519 001c 012B     		cmp	r3, #1
 520 001e 06D0     		beq	.L29
 521 0020 7B68     		ldr	r3, [r7, #4]
 522 0022 1B78     		ldrb	r3, [r3]	@ zero_extendqisi2
 523 0024 032B     		cmp	r3, #3
 524 0026 02D0     		beq	.L29
 525 0028 0F48     		ldr	r0, .L30
 526 002a FFF7FEFF 		bl	chSysHalt
 527              	.L29:
 528 002e 7868     		ldr	r0, [r7, #4]
 529 0030 FFF7FEFF 		bl	can_lld_stop
 530 0034 7B68     		ldr	r3, [r7, #4]
 531 0036 0122     		movs	r2, #1
 532 0038 1A70     		strb	r2, [r3]
 533 003a 7B68     		ldr	r3, [r7, #4]
 534 003c 1033     		adds	r3, r3, #16
 535 003e 6FF00101 		mvn	r1, #1
 536 0042 1846     		mov	r0, r3
 537 0044 FFF7FEFF 		bl	osalThreadDequeueAllI
 538 0048 7B68     		ldr	r3, [r7, #4]
 539 004a 0833     		adds	r3, r3, #8
 540 004c 6FF00101 		mvn	r1, #1
 541 0050 1846     		mov	r0, r3
 542 0052 FFF7FEFF 		bl	osalThreadDequeueAllI
 543 0056 FFF7FEFF 		bl	osalOsRescheduleS
 544 005a FFF7FEFF 		bl	osalSysUnlock
 545 005e 00BF     		nop
 546 0060 0837     		adds	r7, r7, #8
 547 0062 BD46     		mov	sp, r7
 548              		@ sp needed
 549 0064 80BD     		pop	{r7, pc}
 550              	.L31:
 551 0066 00BF     		.align	2
 552              	.L30:
 553 0068 00000000 		.word	__func__.9852
 554              		.size	canStop, .-canStop
 555              		.section	.text.canTransmit,"ax",%progbits
 556              		.align	1
 557              		.global	canTransmit
 558              		.syntax unified
 559              		.thumb
 560              		.thumb_func
 561              		.fpu fpv4-sp-d16
 562              		.type	canTransmit, %function
 563              	canTransmit:
 564              		@ args = 0, pretend = 0, frame = 24
 565              		@ frame_needed = 1, uses_anonymous_args = 0
 566 0000 80B5     		push	{r7, lr}
 567 0002 86B0     		sub	sp, sp, #24
 568 0004 00AF     		add	r7, sp, #0
 569 0006 F860     		str	r0, [r7, #12]
 570 0008 B960     		str	r1, [r7, #8]
ARM GAS  /var/folders/d2/nstgp4h54kz7g1l847x_b8wc0000gn/T//cch87DkJ.s 			page 11


 571 000a 7A60     		str	r2, [r7, #4]
 572 000c 3B60     		str	r3, [r7]
 573 000e FB68     		ldr	r3, [r7, #12]
 574 0010 002B     		cmp	r3, #0
 575 0012 05D0     		beq	.L33
 576 0014 7B68     		ldr	r3, [r7, #4]
 577 0016 002B     		cmp	r3, #0
 578 0018 02D0     		beq	.L33
 579 001a BB68     		ldr	r3, [r7, #8]
 580 001c 032B     		cmp	r3, #3
 581 001e 02D9     		bls	.L34
 582              	.L33:
 583 0020 1C48     		ldr	r0, .L39
 584 0022 FFF7FEFF 		bl	chSysHalt
 585              	.L34:
 586 0026 FFF7FEFF 		bl	osalSysLock
 587 002a FB68     		ldr	r3, [r7, #12]
 588 002c 1B78     		ldrb	r3, [r3]	@ zero_extendqisi2
 589 002e 032B     		cmp	r3, #3
 590 0030 15D0     		beq	.L36
 591 0032 FB68     		ldr	r3, [r7, #12]
 592 0034 1B78     		ldrb	r3, [r3]	@ zero_extendqisi2
 593 0036 042B     		cmp	r3, #4
 594 0038 11D0     		beq	.L36
 595 003a 1648     		ldr	r0, .L39
 596 003c FFF7FEFF 		bl	chSysHalt
 597 0040 0DE0     		b	.L36
 598              	.L38:
 599 0042 FB68     		ldr	r3, [r7, #12]
 600 0044 0833     		adds	r3, r3, #8
 601 0046 3968     		ldr	r1, [r7]
 602 0048 1846     		mov	r0, r3
 603 004a FFF7FEFF 		bl	osalThreadEnqueueTimeoutS
 604 004e 7861     		str	r0, [r7, #20]
 605 0050 7B69     		ldr	r3, [r7, #20]
 606 0052 002B     		cmp	r3, #0
 607 0054 03D0     		beq	.L36
 608 0056 FFF7FEFF 		bl	osalSysUnlock
 609 005a 7B69     		ldr	r3, [r7, #20]
 610 005c 15E0     		b	.L37
 611              	.L36:
 612 005e FB68     		ldr	r3, [r7, #12]
 613 0060 1B78     		ldrb	r3, [r3]	@ zero_extendqisi2
 614 0062 042B     		cmp	r3, #4
 615 0064 EDD0     		beq	.L38
 616 0066 B968     		ldr	r1, [r7, #8]
 617 0068 F868     		ldr	r0, [r7, #12]
 618 006a FFF7FEFF 		bl	can_lld_is_tx_empty
 619 006e 0346     		mov	r3, r0
 620 0070 83F00103 		eor	r3, r3, #1
 621 0074 DBB2     		uxtb	r3, r3
 622 0076 002B     		cmp	r3, #0
 623 0078 E3D1     		bne	.L38
 624 007a 7A68     		ldr	r2, [r7, #4]
 625 007c B968     		ldr	r1, [r7, #8]
 626 007e F868     		ldr	r0, [r7, #12]
 627 0080 FFF7FEFF 		bl	can_lld_transmit
ARM GAS  /var/folders/d2/nstgp4h54kz7g1l847x_b8wc0000gn/T//cch87DkJ.s 			page 12


 628 0084 FFF7FEFF 		bl	osalSysUnlock
 629 0088 0023     		movs	r3, #0
 630              	.L37:
 631 008a 1846     		mov	r0, r3
 632 008c 1837     		adds	r7, r7, #24
 633 008e BD46     		mov	sp, r7
 634              		@ sp needed
 635 0090 80BD     		pop	{r7, pc}
 636              	.L40:
 637 0092 00BF     		.align	2
 638              	.L39:
 639 0094 00000000 		.word	__func__.9859
 640              		.size	canTransmit, .-canTransmit
 641              		.section	.text.canReceive,"ax",%progbits
 642              		.align	1
 643              		.global	canReceive
 644              		.syntax unified
 645              		.thumb
 646              		.thumb_func
 647              		.fpu fpv4-sp-d16
 648              		.type	canReceive, %function
 649              	canReceive:
 650              		@ args = 0, pretend = 0, frame = 24
 651              		@ frame_needed = 1, uses_anonymous_args = 0
 652 0000 80B5     		push	{r7, lr}
 653 0002 86B0     		sub	sp, sp, #24
 654 0004 00AF     		add	r7, sp, #0
 655 0006 F860     		str	r0, [r7, #12]
 656 0008 B960     		str	r1, [r7, #8]
 657 000a 7A60     		str	r2, [r7, #4]
 658 000c 3B60     		str	r3, [r7]
 659 000e FB68     		ldr	r3, [r7, #12]
 660 0010 002B     		cmp	r3, #0
 661 0012 05D0     		beq	.L42
 662 0014 7B68     		ldr	r3, [r7, #4]
 663 0016 002B     		cmp	r3, #0
 664 0018 02D0     		beq	.L42
 665 001a BB68     		ldr	r3, [r7, #8]
 666 001c 022B     		cmp	r3, #2
 667 001e 02D9     		bls	.L43
 668              	.L42:
 669 0020 1C48     		ldr	r0, .L48
 670 0022 FFF7FEFF 		bl	chSysHalt
 671              	.L43:
 672 0026 FFF7FEFF 		bl	osalSysLock
 673 002a FB68     		ldr	r3, [r7, #12]
 674 002c 1B78     		ldrb	r3, [r3]	@ zero_extendqisi2
 675 002e 032B     		cmp	r3, #3
 676 0030 15D0     		beq	.L45
 677 0032 FB68     		ldr	r3, [r7, #12]
 678 0034 1B78     		ldrb	r3, [r3]	@ zero_extendqisi2
 679 0036 042B     		cmp	r3, #4
 680 0038 11D0     		beq	.L45
 681 003a 1648     		ldr	r0, .L48
 682 003c FFF7FEFF 		bl	chSysHalt
 683 0040 0DE0     		b	.L45
 684              	.L47:
ARM GAS  /var/folders/d2/nstgp4h54kz7g1l847x_b8wc0000gn/T//cch87DkJ.s 			page 13


 685 0042 FB68     		ldr	r3, [r7, #12]
 686 0044 1033     		adds	r3, r3, #16
 687 0046 3968     		ldr	r1, [r7]
 688 0048 1846     		mov	r0, r3
 689 004a FFF7FEFF 		bl	osalThreadEnqueueTimeoutS
 690 004e 7861     		str	r0, [r7, #20]
 691 0050 7B69     		ldr	r3, [r7, #20]
 692 0052 002B     		cmp	r3, #0
 693 0054 03D0     		beq	.L45
 694 0056 FFF7FEFF 		bl	osalSysUnlock
 695 005a 7B69     		ldr	r3, [r7, #20]
 696 005c 15E0     		b	.L46
 697              	.L45:
 698 005e FB68     		ldr	r3, [r7, #12]
 699 0060 1B78     		ldrb	r3, [r3]	@ zero_extendqisi2
 700 0062 042B     		cmp	r3, #4
 701 0064 EDD0     		beq	.L47
 702 0066 B968     		ldr	r1, [r7, #8]
 703 0068 F868     		ldr	r0, [r7, #12]
 704 006a FFF7FEFF 		bl	can_lld_is_rx_nonempty
 705 006e 0346     		mov	r3, r0
 706 0070 83F00103 		eor	r3, r3, #1
 707 0074 DBB2     		uxtb	r3, r3
 708 0076 002B     		cmp	r3, #0
 709 0078 E3D1     		bne	.L47
 710 007a 7A68     		ldr	r2, [r7, #4]
 711 007c B968     		ldr	r1, [r7, #8]
 712 007e F868     		ldr	r0, [r7, #12]
 713 0080 FFF7FEFF 		bl	can_lld_receive
 714 0084 FFF7FEFF 		bl	osalSysUnlock
 715 0088 0023     		movs	r3, #0
 716              	.L46:
 717 008a 1846     		mov	r0, r3
 718 008c 1837     		adds	r7, r7, #24
 719 008e BD46     		mov	sp, r7
 720              		@ sp needed
 721 0090 80BD     		pop	{r7, pc}
 722              	.L49:
 723 0092 00BF     		.align	2
 724              	.L48:
 725 0094 00000000 		.word	__func__.9870
 726              		.size	canReceive, .-canReceive
 727              		.section	.text.canSleep,"ax",%progbits
 728              		.align	1
 729              		.global	canSleep
 730              		.syntax unified
 731              		.thumb
 732              		.thumb_func
 733              		.fpu fpv4-sp-d16
 734              		.type	canSleep, %function
 735              	canSleep:
 736              		@ args = 0, pretend = 0, frame = 8
 737              		@ frame_needed = 1, uses_anonymous_args = 0
 738 0000 80B5     		push	{r7, lr}
 739 0002 82B0     		sub	sp, sp, #8
 740 0004 00AF     		add	r7, sp, #0
 741 0006 7860     		str	r0, [r7, #4]
ARM GAS  /var/folders/d2/nstgp4h54kz7g1l847x_b8wc0000gn/T//cch87DkJ.s 			page 14


 742 0008 7B68     		ldr	r3, [r7, #4]
 743 000a 002B     		cmp	r3, #0
 744 000c 02D1     		bne	.L51
 745 000e 1448     		ldr	r0, .L54
 746 0010 FFF7FEFF 		bl	chSysHalt
 747              	.L51:
 748 0014 FFF7FEFF 		bl	osalSysLock
 749 0018 7B68     		ldr	r3, [r7, #4]
 750 001a 1B78     		ldrb	r3, [r3]	@ zero_extendqisi2
 751 001c 032B     		cmp	r3, #3
 752 001e 06D0     		beq	.L52
 753 0020 7B68     		ldr	r3, [r7, #4]
 754 0022 1B78     		ldrb	r3, [r3]	@ zero_extendqisi2
 755 0024 042B     		cmp	r3, #4
 756 0026 02D0     		beq	.L52
 757 0028 0D48     		ldr	r0, .L54
 758 002a FFF7FEFF 		bl	chSysHalt
 759              	.L52:
 760 002e 7B68     		ldr	r3, [r7, #4]
 761 0030 1B78     		ldrb	r3, [r3]	@ zero_extendqisi2
 762 0032 032B     		cmp	r3, #3
 763 0034 0DD1     		bne	.L53
 764 0036 7868     		ldr	r0, [r7, #4]
 765 0038 FFF7FEFF 		bl	can_lld_sleep
 766 003c 7B68     		ldr	r3, [r7, #4]
 767 003e 0422     		movs	r2, #4
 768 0040 1A70     		strb	r2, [r3]
 769 0042 7B68     		ldr	r3, [r7, #4]
 770 0044 2433     		adds	r3, r3, #36
 771 0046 0021     		movs	r1, #0
 772 0048 1846     		mov	r0, r3
 773 004a FFF7FEFF 		bl	osalEventBroadcastFlagsI
 774 004e FFF7FEFF 		bl	osalOsRescheduleS
 775              	.L53:
 776 0052 FFF7FEFF 		bl	osalSysUnlock
 777 0056 00BF     		nop
 778 0058 0837     		adds	r7, r7, #8
 779 005a BD46     		mov	sp, r7
 780              		@ sp needed
 781 005c 80BD     		pop	{r7, pc}
 782              	.L55:
 783 005e 00BF     		.align	2
 784              	.L54:
 785 0060 00000000 		.word	__func__.9878
 786              		.size	canSleep, .-canSleep
 787              		.section	.text.canWakeup,"ax",%progbits
 788              		.align	1
 789              		.global	canWakeup
 790              		.syntax unified
 791              		.thumb
 792              		.thumb_func
 793              		.fpu fpv4-sp-d16
 794              		.type	canWakeup, %function
 795              	canWakeup:
 796              		@ args = 0, pretend = 0, frame = 8
 797              		@ frame_needed = 1, uses_anonymous_args = 0
 798 0000 80B5     		push	{r7, lr}
ARM GAS  /var/folders/d2/nstgp4h54kz7g1l847x_b8wc0000gn/T//cch87DkJ.s 			page 15


 799 0002 82B0     		sub	sp, sp, #8
 800 0004 00AF     		add	r7, sp, #0
 801 0006 7860     		str	r0, [r7, #4]
 802 0008 7B68     		ldr	r3, [r7, #4]
 803 000a 002B     		cmp	r3, #0
 804 000c 02D1     		bne	.L57
 805 000e 1448     		ldr	r0, .L60
 806 0010 FFF7FEFF 		bl	chSysHalt
 807              	.L57:
 808 0014 FFF7FEFF 		bl	osalSysLock
 809 0018 7B68     		ldr	r3, [r7, #4]
 810 001a 1B78     		ldrb	r3, [r3]	@ zero_extendqisi2
 811 001c 032B     		cmp	r3, #3
 812 001e 06D0     		beq	.L58
 813 0020 7B68     		ldr	r3, [r7, #4]
 814 0022 1B78     		ldrb	r3, [r3]	@ zero_extendqisi2
 815 0024 042B     		cmp	r3, #4
 816 0026 02D0     		beq	.L58
 817 0028 0D48     		ldr	r0, .L60
 818 002a FFF7FEFF 		bl	chSysHalt
 819              	.L58:
 820 002e 7B68     		ldr	r3, [r7, #4]
 821 0030 1B78     		ldrb	r3, [r3]	@ zero_extendqisi2
 822 0032 042B     		cmp	r3, #4
 823 0034 0DD1     		bne	.L59
 824 0036 7868     		ldr	r0, [r7, #4]
 825 0038 FFF7FEFF 		bl	can_lld_wakeup
 826 003c 7B68     		ldr	r3, [r7, #4]
 827 003e 0322     		movs	r2, #3
 828 0040 1A70     		strb	r2, [r3]
 829 0042 7B68     		ldr	r3, [r7, #4]
 830 0044 2833     		adds	r3, r3, #40
 831 0046 0021     		movs	r1, #0
 832 0048 1846     		mov	r0, r3
 833 004a FFF7FEFF 		bl	osalEventBroadcastFlagsI
 834 004e FFF7FEFF 		bl	osalOsRescheduleS
 835              	.L59:
 836 0052 FFF7FEFF 		bl	osalSysUnlock
 837 0056 00BF     		nop
 838 0058 0837     		adds	r7, r7, #8
 839 005a BD46     		mov	sp, r7
 840              		@ sp needed
 841 005c 80BD     		pop	{r7, pc}
 842              	.L61:
 843 005e 00BF     		.align	2
 844              	.L60:
 845 0060 00000000 		.word	__func__.9882
 846              		.size	canWakeup, .-canWakeup
 847              		.section	.rodata.__func__.9848,"a",%progbits
 848              		.align	2
 849              		.type	__func__.9848, %object
 850              		.size	__func__.9848, 9
 851              	__func__.9848:
 852 0000 63616E53 		.ascii	"canStart\000"
 852      74617274 
 852      00
 853              		.section	.rodata.__func__.7153,"a",%progbits
ARM GAS  /var/folders/d2/nstgp4h54kz7g1l847x_b8wc0000gn/T//cch87DkJ.s 			page 16


 854              		.align	2
 855              		.type	__func__.7153, %object
 856              		.size	__func__.7153, 12
 857              	__func__.7153:
 858 0000 63685379 		.ascii	"chSysUnlock\000"
 858      73556E6C 
 858      6F636B00 
 859              		.section	.rodata.__func__.9852,"a",%progbits
 860              		.align	2
 861              		.type	__func__.9852, %object
 862              		.size	__func__.9852, 8
 863              	__func__.9852:
 864 0000 63616E53 		.ascii	"canStop\000"
 864      746F7000 
 865              		.section	.rodata.__func__.9859,"a",%progbits
 866              		.align	2
 867              		.type	__func__.9859, %object
 868              		.size	__func__.9859, 12
 869              	__func__.9859:
 870 0000 63616E54 		.ascii	"canTransmit\000"
 870      72616E73 
 870      6D697400 
 871              		.section	.rodata.__func__.9870,"a",%progbits
 872              		.align	2
 873              		.type	__func__.9870, %object
 874              		.size	__func__.9870, 11
 875              	__func__.9870:
 876 0000 63616E52 		.ascii	"canReceive\000"
 876      65636569 
 876      766500
 877              		.section	.rodata.__func__.9878,"a",%progbits
 878              		.align	2
 879              		.type	__func__.9878, %object
 880              		.size	__func__.9878, 9
 881              	__func__.9878:
 882 0000 63616E53 		.ascii	"canSleep\000"
 882      6C656570 
 882      00
 883              		.section	.rodata.__func__.9882,"a",%progbits
 884              		.align	2
 885              		.type	__func__.9882, %object
 886              		.size	__func__.9882, 10
 887              	__func__.9882:
 888 0000 63616E57 		.ascii	"canWakeup\000"
 888      616B6575 
 888      7000
 889              		.ident	"GCC: (GNU Tools for Arm Embedded Processors 7-2017-q4-major) 7.2.1 20170904 (release) [ARM
ARM GAS  /var/folders/d2/nstgp4h54kz7g1l847x_b8wc0000gn/T//cch87DkJ.s 			page 17

