ARM GAS  /var/folders/d2/nstgp4h54kz7g1l847x_b8wc0000gn/T//ccFHMp07.s 			page 1


   1              		.cpu cortex-m4
   2              		.eabi_attribute 27, 1
   3              		.eabi_attribute 28, 1
   4              		.eabi_attribute 20, 1
   5              		.eabi_attribute 21, 1
   6              		.eabi_attribute 23, 3
   7              		.eabi_attribute 24, 1
   8              		.eabi_attribute 25, 1
   9              		.eabi_attribute 26, 1
  10              		.eabi_attribute 30, 6
  11              		.eabi_attribute 34, 1
  12              		.eabi_attribute 18, 4
  13              		.file	"chcore_v7m.c"
  14              		.section	.text.port_lock,"ax",%progbits
  15              		.align	1
  16              		.syntax unified
  17              		.thumb
  18              		.thumb_func
  19              		.fpu fpv4-sp-d16
  20              		.type	port_lock, %function
  21              	port_lock:
  22              		@ args = 0, pretend = 0, frame = 8
  23              		@ frame_needed = 1, uses_anonymous_args = 0
  24              		@ link register save eliminated.
  25 0000 80B4     		push	{r7}
  26 0002 83B0     		sub	sp, sp, #12
  27 0004 00AF     		add	r7, sp, #0
  28 0006 2023     		movs	r3, #32
  29 0008 7B60     		str	r3, [r7, #4]
  30 000a 7B68     		ldr	r3, [r7, #4]
  31              		.syntax unified
  32              	@ 546 "../e-puck2_main-processor/ChibiOS//os/ext/CMSIS/include/core_cmFunc.h" 1
  33 000c 83F31188 		MSR basepri, r3
  34              	@ 0 "" 2
  35              		.thumb
  36              		.syntax unified
  37 0010 00BF     		nop
  38 0012 0C37     		adds	r7, r7, #12
  39 0014 BD46     		mov	sp, r7
  40              		@ sp needed
  41 0016 5DF8047B 		ldr	r7, [sp], #4
  42 001a 7047     		bx	lr
  43              		.size	port_lock, .-port_lock
  44              		.section	.text.port_unlock,"ax",%progbits
  45              		.align	1
  46              		.syntax unified
  47              		.thumb
  48              		.thumb_func
  49              		.fpu fpv4-sp-d16
  50              		.type	port_unlock, %function
  51              	port_unlock:
  52              		@ args = 0, pretend = 0, frame = 8
  53              		@ frame_needed = 1, uses_anonymous_args = 0
  54              		@ link register save eliminated.
  55 0000 80B4     		push	{r7}
  56 0002 83B0     		sub	sp, sp, #12
  57 0004 00AF     		add	r7, sp, #0
ARM GAS  /var/folders/d2/nstgp4h54kz7g1l847x_b8wc0000gn/T//ccFHMp07.s 			page 2


  58 0006 0023     		movs	r3, #0
  59 0008 7B60     		str	r3, [r7, #4]
  60 000a 7B68     		ldr	r3, [r7, #4]
  61              		.syntax unified
  62              	@ 546 "../e-puck2_main-processor/ChibiOS//os/ext/CMSIS/include/core_cmFunc.h" 1
  63 000c 83F31188 		MSR basepri, r3
  64              	@ 0 "" 2
  65              		.thumb
  66              		.syntax unified
  67 0010 00BF     		nop
  68 0012 0C37     		adds	r7, r7, #12
  69 0014 BD46     		mov	sp, r7
  70              		@ sp needed
  71 0016 5DF8047B 		ldr	r7, [sp], #4
  72 001a 7047     		bx	lr
  73              		.size	port_unlock, .-port_unlock
  74              		.section	.text.port_lock_from_isr,"ax",%progbits
  75              		.align	1
  76              		.syntax unified
  77              		.thumb
  78              		.thumb_func
  79              		.fpu fpv4-sp-d16
  80              		.type	port_lock_from_isr, %function
  81              	port_lock_from_isr:
  82              		@ args = 0, pretend = 0, frame = 0
  83              		@ frame_needed = 1, uses_anonymous_args = 0
  84 0000 80B5     		push	{r7, lr}
  85 0002 00AF     		add	r7, sp, #0
  86 0004 FFF7FEFF 		bl	port_lock
  87 0008 00BF     		nop
  88 000a 80BD     		pop	{r7, pc}
  89              		.size	port_lock_from_isr, .-port_lock_from_isr
  90              		.section	.text.port_unlock_from_isr,"ax",%progbits
  91              		.align	1
  92              		.syntax unified
  93              		.thumb
  94              		.thumb_func
  95              		.fpu fpv4-sp-d16
  96              		.type	port_unlock_from_isr, %function
  97              	port_unlock_from_isr:
  98              		@ args = 0, pretend = 0, frame = 0
  99              		@ frame_needed = 1, uses_anonymous_args = 0
 100 0000 80B5     		push	{r7, lr}
 101 0002 00AF     		add	r7, sp, #0
 102 0004 FFF7FEFF 		bl	port_unlock
 103 0008 00BF     		nop
 104 000a 80BD     		pop	{r7, pc}
 105              		.size	port_unlock_from_isr, .-port_unlock_from_isr
 106              		.section	.text.SVC_Handler,"ax",%progbits
 107              		.align	1
 108              		.global	SVC_Handler
 109              		.syntax unified
 110              		.thumb
 111              		.thumb_func
 112              		.fpu fpv4-sp-d16
 113              		.type	SVC_Handler, %function
 114              	SVC_Handler:
ARM GAS  /var/folders/d2/nstgp4h54kz7g1l847x_b8wc0000gn/T//ccFHMp07.s 			page 3


 115              		@ args = 0, pretend = 0, frame = 8
 116              		@ frame_needed = 1, uses_anonymous_args = 0
 117 0000 90B5     		push	{r4, r7, lr}
 118 0002 83B0     		sub	sp, sp, #12
 119 0004 00AF     		add	r7, sp, #0
 120 0006 0C4B     		ldr	r3, .L7
 121 0008 5B68     		ldr	r3, [r3, #4]
 122 000a 0B4A     		ldr	r2, .L7
 123 000c 23F00103 		bic	r3, r3, #1
 124 0010 5360     		str	r3, [r2, #4]
 125              		.syntax unified
 126              	@ 428 "../e-puck2_main-processor/ChibiOS//os/ext/CMSIS/include/core_cmFunc.h" 1
 127 0012 EFF30983 		MRS r3, psp
 128              	
 129              	@ 0 "" 2
 130              		.thumb
 131              		.syntax unified
 132 0016 1C46     		mov	r4, r3
 133 0018 2346     		mov	r3, r4
 134 001a 7B60     		str	r3, [r7, #4]
 135 001c 7B68     		ldr	r3, [r7, #4]
 136 001e 6833     		adds	r3, r3, #104
 137 0020 7B60     		str	r3, [r7, #4]
 138 0022 7B68     		ldr	r3, [r7, #4]
 139 0024 3B60     		str	r3, [r7]
 140 0026 3B68     		ldr	r3, [r7]
 141              		.syntax unified
 142              	@ 441 "../e-puck2_main-processor/ChibiOS//os/ext/CMSIS/include/core_cmFunc.h" 1
 143 0028 83F30988 		MSR psp, r3
 144              	
 145              	@ 0 "" 2
 146              		.thumb
 147              		.syntax unified
 148 002c FFF7FEFF 		bl	port_unlock_from_isr
 149 0030 00BF     		nop
 150 0032 0C37     		adds	r7, r7, #12
 151 0034 BD46     		mov	sp, r7
 152              		@ sp needed
 153 0036 90BD     		pop	{r4, r7, pc}
 154              	.L8:
 155              		.align	2
 156              	.L7:
 157 0038 30EF00E0 		.word	-536809680
 158              		.size	SVC_Handler, .-SVC_Handler
 159              		.section	.text._port_irq_epilogue,"ax",%progbits
 160              		.align	1
 161              		.global	_port_irq_epilogue
 162              		.syntax unified
 163              		.thumb
 164              		.thumb_func
 165              		.fpu fpv4-sp-d16
 166              		.type	_port_irq_epilogue, %function
 167              	_port_irq_epilogue:
 168              		@ args = 0, pretend = 0, frame = 16
 169              		@ frame_needed = 1, uses_anonymous_args = 0
 170 0000 90B5     		push	{r4, r7, lr}
 171 0002 85B0     		sub	sp, sp, #20
ARM GAS  /var/folders/d2/nstgp4h54kz7g1l847x_b8wc0000gn/T//ccFHMp07.s 			page 4


 172 0004 00AF     		add	r7, sp, #0
 173 0006 FFF7FEFF 		bl	port_lock_from_isr
 174 000a 184B     		ldr	r3, .L16
 175 000c 5B68     		ldr	r3, [r3, #4]
 176 000e 03F40063 		and	r3, r3, #2048
 177 0012 002B     		cmp	r3, #0
 178 0014 25D0     		beq	.L10
 179              		.syntax unified
 180              	@ 594 "../e-puck2_main-processor/ChibiOS//os/ext/CMSIS/include/core_cmFunc.h" 1
 181 0016 F1EE103A 		VMRS r3, fpscr
 182              	@ 0 "" 2
 183              		.thumb
 184              		.syntax unified
 185 001a 7B60     		str	r3, [r7, #4]
 186              		.syntax unified
 187              	@ 428 "../e-puck2_main-processor/ChibiOS//os/ext/CMSIS/include/core_cmFunc.h" 1
 188 001c EFF30983 		MRS r3, psp
 189              	
 190              	@ 0 "" 2
 191              		.thumb
 192              		.syntax unified
 193 0020 1C46     		mov	r4, r3
 194 0022 2346     		mov	r3, r4
 195 0024 FB60     		str	r3, [r7, #12]
 196 0026 FB68     		ldr	r3, [r7, #12]
 197 0028 683B     		subs	r3, r3, #104
 198 002a FB60     		str	r3, [r7, #12]
 199 002c FB68     		ldr	r3, [r7, #12]
 200 002e 4FF08072 		mov	r2, #16777216
 201 0032 DA61     		str	r2, [r3, #28]
 202 0034 0E4B     		ldr	r3, .L16+4
 203 0036 DB68     		ldr	r3, [r3, #12]
 204 0038 1A46     		mov	r2, r3
 205 003a FB68     		ldr	r3, [r7, #12]
 206 003c 1A66     		str	r2, [r3, #96]
 207 003e FB68     		ldr	r3, [r7, #12]
 208 0040 BB60     		str	r3, [r7, #8]
 209 0042 BB68     		ldr	r3, [r7, #8]
 210              		.syntax unified
 211              	@ 441 "../e-puck2_main-processor/ChibiOS//os/ext/CMSIS/include/core_cmFunc.h" 1
 212 0044 83F30988 		MSR psp, r3
 213              	
 214              	@ 0 "" 2
 215              		.thumb
 216              		.syntax unified
 217 0048 FFF7FEFF 		bl	chSchIsPreemptionRequired
 218 004c 0346     		mov	r3, r0
 219 004e 002B     		cmp	r3, #0
 220 0050 03D0     		beq	.L13
 221 0052 FB68     		ldr	r3, [r7, #12]
 222 0054 074A     		ldr	r2, .L16+8
 223 0056 9A61     		str	r2, [r3, #24]
 224 0058 05E0     		b	.L9
 225              	.L13:
 226 005a FB68     		ldr	r3, [r7, #12]
 227 005c 064A     		ldr	r2, .L16+12
 228 005e 9A61     		str	r2, [r3, #24]
ARM GAS  /var/folders/d2/nstgp4h54kz7g1l847x_b8wc0000gn/T//ccFHMp07.s 			page 5


 229 0060 01E0     		b	.L9
 230              	.L10:
 231 0062 FFF7FEFF 		bl	port_unlock_from_isr
 232              	.L9:
 233 0066 1437     		adds	r7, r7, #20
 234 0068 BD46     		mov	sp, r7
 235              		@ sp needed
 236 006a 90BD     		pop	{r4, r7, pc}
 237              	.L17:
 238              		.align	2
 239              	.L16:
 240 006c 00ED00E0 		.word	-536810240
 241 0070 30EF00E0 		.word	-536809680
 242 0074 00000000 		.word	_port_switch_from_isr
 243 0078 00000000 		.word	_port_exit_from_isr
 244              		.size	_port_irq_epilogue, .-_port_irq_epilogue
 245              		.ident	"GCC: (GNU Tools for Arm Embedded Processors 7-2017-q4-major) 7.2.1 20170904 (release) [ARM
ARM GAS  /var/folders/d2/nstgp4h54kz7g1l847x_b8wc0000gn/T//ccFHMp07.s 			page 6

