ARM GAS  /var/folders/d2/nstgp4h54kz7g1l847x_b8wc0000gn/T//ccCKm3Yo.s 			page 1


   1              		.cpu cortex-m4
   2              		.eabi_attribute 27, 1
   3              		.eabi_attribute 28, 1
   4              		.eabi_attribute 20, 1
   5              		.eabi_attribute 21, 1
   6              		.eabi_attribute 23, 3
   7              		.eabi_attribute 24, 1
   8              		.eabi_attribute 25, 1
   9              		.eabi_attribute 26, 1
  10              		.eabi_attribute 30, 2
  11              		.eabi_attribute 34, 1
  12              		.eabi_attribute 18, 4
  13              		.file	"chcond.c"
  14              		.text
  15              	.Ltext0:
  16              		.cfi_sections	.debug_frame
  17              		.section	.text.chCondObjectInit,"ax",%progbits
  18              		.align	1
  19              		.p2align 4,,15
  20              		.global	chCondObjectInit
  21              		.syntax unified
  22              		.thumb
  23              		.thumb_func
  24              		.fpu fpv4-sp-d16
  25              		.type	chCondObjectInit, %function
  26              	chCondObjectInit:
  27              	.LFB219:
  28              		.file 1 "../e-puck2_main-processor/ChibiOS//os/rt/src/chcond.c"
  29              		.loc 1 75 0
  30              		.cfi_startproc
  31              		@ args = 0, pretend = 0, frame = 8
  32              		@ frame_needed = 0, uses_anonymous_args = 0
  33              	.LVL0:
  34 0000 30B5     		push	{r4, r5, lr}
  35              		.cfi_def_cfa_offset 12
  36              		.cfi_offset 4, -12
  37              		.cfi_offset 5, -8
  38              		.cfi_offset 14, -4
  39 0002 0A4D     		ldr	r5, .L8
  40 0004 83B0     		sub	sp, sp, #12
  41              		.cfi_def_cfa_offset 24
  42              		.loc 1 75 0
  43 0006 2B68     		ldr	r3, [r5]
  44 0008 0193     		str	r3, [sp, #4]
  45              		.loc 1 77 0
  46 000a 0446     		mov	r4, r0
  47 000c 38B1     		cbz	r0, .L6
  48              	.LVL1:
  49              	.L2:
  50              	.LBB63:
  51              	.LBB64:
  52              		.file 2 "../e-puck2_main-processor/ChibiOS//os/rt/include/chschd.h"
  53              		.loc 2 604 0
  54 000e 2460     		str	r4, [r4]
  55              	.LBE64:
  56              	.LBE63:
  57              		.loc 1 80 0
ARM GAS  /var/folders/d2/nstgp4h54kz7g1l847x_b8wc0000gn/T//ccCKm3Yo.s 			page 2


  58 0010 019A     		ldr	r2, [sp, #4]
  59 0012 2B68     		ldr	r3, [r5]
  60              	.LBB66:
  61              	.LBB65:
  62              		.loc 2 605 0
  63 0014 6460     		str	r4, [r4, #4]
  64              	.LVL2:
  65              	.LBE65:
  66              	.LBE66:
  67              		.loc 1 80 0
  68 0016 9A42     		cmp	r2, r3
  69 0018 05D1     		bne	.L7
  70 001a 03B0     		add	sp, sp, #12
  71              		.cfi_remember_state
  72              		.cfi_def_cfa_offset 12
  73              		@ sp needed
  74 001c 30BD     		pop	{r4, r5, pc}
  75              	.LVL3:
  76              	.L6:
  77              		.cfi_restore_state
  78              		.loc 1 77 0 discriminator 2
  79 001e 0448     		ldr	r0, .L8+4
  80              	.LVL4:
  81 0020 FFF7FEFF 		bl	chSysHalt
  82              	.LVL5:
  83 0024 F3E7     		b	.L2
  84              	.L7:
  85              		.loc 1 80 0
  86 0026 FFF7FEFF 		bl	__stack_chk_fail
  87              	.LVL6:
  88              	.L9:
  89 002a 00BF     		.align	2
  90              	.L8:
  91 002c 00000000 		.word	__stack_chk_guard
  92 0030 00000000 		.word	.LANCHOR0
  93              		.cfi_endproc
  94              	.LFE219:
  95              		.size	chCondObjectInit, .-chCondObjectInit
  96              		.section	.text.chCondSignal,"ax",%progbits
  97              		.align	1
  98              		.p2align 4,,15
  99              		.global	chCondSignal
 100              		.syntax unified
 101              		.thumb
 102              		.thumb_func
 103              		.fpu fpv4-sp-d16
 104              		.type	chCondSignal, %function
 105              	chCondSignal:
 106              	.LFB220:
 107              		.loc 1 89 0
 108              		.cfi_startproc
 109              		@ args = 0, pretend = 0, frame = 8
 110              		@ frame_needed = 0, uses_anonymous_args = 0
 111              	.LVL7:
 112 0000 30B5     		push	{r4, r5, lr}
 113              		.cfi_def_cfa_offset 12
 114              		.cfi_offset 4, -12
ARM GAS  /var/folders/d2/nstgp4h54kz7g1l847x_b8wc0000gn/T//ccCKm3Yo.s 			page 3


 115              		.cfi_offset 5, -8
 116              		.cfi_offset 14, -4
 117 0002 1B4D     		ldr	r5, .L19
 118 0004 83B0     		sub	sp, sp, #12
 119              		.cfi_def_cfa_offset 24
 120              		.loc 1 89 0
 121 0006 2B68     		ldr	r3, [r5]
 122 0008 0193     		str	r3, [sp, #4]
 123              		.loc 1 91 0
 124 000a 0446     		mov	r4, r0
 125 000c 48B3     		cbz	r0, .L16
 126              	.LVL8:
 127              	.L11:
 128              	.LBB81:
 129              	.LBB82:
 130              	.LBB83:
 131              	.LBB84:
 132              	.LBB85:
 133              		.file 3 "../e-puck2_main-processor/ChibiOS//os/ext/CMSIS/include/core_cmFunc.h"
 134              		.loc 3 546 0
 135 000e 2023     		movs	r3, #32
 136              		.syntax unified
 137              	@ 546 "../e-puck2_main-processor/ChibiOS//os/ext/CMSIS/include/core_cmFunc.h" 1
 138 0010 83F31188 		MSR basepri, r3
 139              	@ 0 "" 2
 140              	.LVL9:
 141              		.thumb
 142              		.syntax unified
 143              	.LBE85:
 144              	.LBE84:
 145              	.LBE83:
 146              		.file 4 "../e-puck2_main-processor/ChibiOS//os/rt/include/chsys.h"
 147              		.loc 4 349 0
 148 0014 FFF7FEFF 		bl	_stats_start_measure_crit_thd
 149              	.LVL10:
 150              		.loc 4 350 0
 151 0018 FFF7FEFF 		bl	_dbg_check_lock
 152              	.LVL11:
 153              	.LBE82:
 154              	.LBE81:
 155              	.LBB86:
 156              	.LBB87:
 157              		.loc 2 631 0
 158 001c 2068     		ldr	r0, [r4]
 159              	.LVL12:
 160              	.LBE87:
 161              	.LBE86:
 162              		.loc 1 94 0
 163 001e 8442     		cmp	r4, r0
 164 0020 05D0     		beq	.L12
 165              	.LVL13:
 166              	.LBB88:
 167              	.LBB89:
 168              		.loc 2 674 0
 169 0022 0368     		ldr	r3, [r0]
 170 0024 2360     		str	r3, [r4]
 171              	.LBE89:
ARM GAS  /var/folders/d2/nstgp4h54kz7g1l847x_b8wc0000gn/T//ccCKm3Yo.s 			page 4


 172              	.LBE88:
 173              		.loc 1 95 0
 174 0026 0021     		movs	r1, #0
 175              	.LBB91:
 176              	.LBB90:
 177              		.loc 2 675 0
 178 0028 5C60     		str	r4, [r3, #4]
 179              	.LVL14:
 180              	.LBE90:
 181              	.LBE91:
 182              		.loc 1 95 0
 183 002a FFF7FEFF 		bl	chSchWakeupS
 184              	.LVL15:
 185              	.L12:
 186              	.LBB92:
 187              	.LBB93:
 188              		.loc 4 360 0
 189 002e FFF7FEFF 		bl	_dbg_check_unlock
 190              	.LVL16:
 191              		.loc 4 361 0
 192 0032 FFF7FEFF 		bl	_stats_stop_measure_crit_thd
 193              	.LVL17:
 194              		.loc 4 367 0
 195 0036 0F4B     		ldr	r3, .L19+4
 196 0038 1A68     		ldr	r2, [r3]
 197 003a 9A42     		cmp	r2, r3
 198 003c 04D0     		beq	.L13
 199 003e 9969     		ldr	r1, [r3, #24]
 200 0040 9368     		ldr	r3, [r2, #8]
 201 0042 8A68     		ldr	r2, [r1, #8]
 202 0044 9A42     		cmp	r2, r3
 203 0046 08D3     		bcc	.L17
 204              	.L13:
 205              	.LVL18:
 206              	.LBB94:
 207              	.LBB95:
 208              	.LBB96:
 209              		.loc 3 546 0
 210 0048 0023     		movs	r3, #0
 211              		.syntax unified
 212              	@ 546 "../e-puck2_main-processor/ChibiOS//os/ext/CMSIS/include/core_cmFunc.h" 1
 213 004a 83F31188 		MSR basepri, r3
 214              	@ 0 "" 2
 215              	.LVL19:
 216              		.thumb
 217              		.syntax unified
 218              	.LBE96:
 219              	.LBE95:
 220              	.LBE94:
 221              	.LBE93:
 222              	.LBE92:
 223              		.loc 1 98 0
 224 004e 019A     		ldr	r2, [sp, #4]
 225 0050 2B68     		ldr	r3, [r5]
 226 0052 9A42     		cmp	r2, r3
 227 0054 09D1     		bne	.L18
 228 0056 03B0     		add	sp, sp, #12
ARM GAS  /var/folders/d2/nstgp4h54kz7g1l847x_b8wc0000gn/T//ccCKm3Yo.s 			page 5


 229              		.cfi_remember_state
 230              		.cfi_def_cfa_offset 12
 231              		@ sp needed
 232 0058 30BD     		pop	{r4, r5, pc}
 233              	.LVL20:
 234              	.L17:
 235              		.cfi_restore_state
 236              	.LBB98:
 237              	.LBB97:
 238              		.loc 4 367 0
 239 005a 0748     		ldr	r0, .L19+8
 240 005c FFF7FEFF 		bl	chSysHalt
 241              	.LVL21:
 242 0060 F2E7     		b	.L13
 243              	.LVL22:
 244              	.L16:
 245              	.LBE97:
 246              	.LBE98:
 247              		.loc 1 91 0 discriminator 2
 248 0062 0648     		ldr	r0, .L19+12
 249              	.LVL23:
 250 0064 FFF7FEFF 		bl	chSysHalt
 251              	.LVL24:
 252 0068 D1E7     		b	.L11
 253              	.L18:
 254              		.loc 1 98 0
 255 006a FFF7FEFF 		bl	__stack_chk_fail
 256              	.LVL25:
 257              	.L20:
 258 006e 00BF     		.align	2
 259              	.L19:
 260 0070 00000000 		.word	__stack_chk_guard
 261 0074 00000000 		.word	ch
 262 0078 00000000 		.word	.LANCHOR2
 263 007c 00000000 		.word	.LANCHOR1
 264              		.cfi_endproc
 265              	.LFE220:
 266              		.size	chCondSignal, .-chCondSignal
 267              		.section	.text.chCondSignalI,"ax",%progbits
 268              		.align	1
 269              		.p2align 4,,15
 270              		.global	chCondSignalI
 271              		.syntax unified
 272              		.thumb
 273              		.thumb_func
 274              		.fpu fpv4-sp-d16
 275              		.type	chCondSignalI, %function
 276              	chCondSignalI:
 277              	.LFB221:
 278              		.loc 1 111 0
 279              		.cfi_startproc
 280              		@ args = 0, pretend = 0, frame = 8
 281              		@ frame_needed = 0, uses_anonymous_args = 0
 282              	.LVL26:
 283 0000 30B5     		push	{r4, r5, lr}
 284              		.cfi_def_cfa_offset 12
 285              		.cfi_offset 4, -12
ARM GAS  /var/folders/d2/nstgp4h54kz7g1l847x_b8wc0000gn/T//ccCKm3Yo.s 			page 6


 286              		.cfi_offset 5, -8
 287              		.cfi_offset 14, -4
 288 0002 134D     		ldr	r5, .L29
 289 0004 83B0     		sub	sp, sp, #12
 290              		.cfi_def_cfa_offset 24
 291              		.loc 1 111 0
 292 0006 0446     		mov	r4, r0
 293 0008 2B68     		ldr	r3, [r5]
 294 000a 0193     		str	r3, [sp, #4]
 295              		.loc 1 113 0
 296 000c FFF7FEFF 		bl	chDbgCheckClassI
 297              	.LVL27:
 298              		.loc 1 114 0
 299 0010 BCB1     		cbz	r4, .L28
 300              	.L22:
 301              	.LVL28:
 302              	.LBB99:
 303              	.LBB100:
 304              		.loc 2 631 0
 305 0012 2068     		ldr	r0, [r4]
 306              	.LVL29:
 307              	.LBE100:
 308              	.LBE99:
 309              		.loc 1 116 0
 310 0014 8442     		cmp	r4, r0
 311 0016 0ED0     		beq	.L21
 312              	.LVL30:
 313              	.LBB101:
 314              	.LBB102:
 315              	.LBB103:
 316              		.loc 2 674 0
 317 0018 0368     		ldr	r3, [r0]
 318 001a 2360     		str	r3, [r4]
 319              	.LBE103:
 320              	.LBE102:
 321              		.loc 1 119 0
 322 001c 0199     		ldr	r1, [sp, #4]
 323 001e 2A68     		ldr	r2, [r5]
 324              	.LBB105:
 325              	.LBB104:
 326              		.loc 2 675 0
 327 0020 5C60     		str	r4, [r3, #4]
 328              	.LVL31:
 329              	.LBE104:
 330              	.LBE105:
 331              		.loc 1 119 0
 332 0022 9142     		cmp	r1, r2
 333              		.loc 1 118 0
 334 0024 4FF00003 		mov	r3, #0
 335 0028 8362     		str	r3, [r0, #40]
 336              		.loc 1 119 0
 337 002a 0ED1     		bne	.L27
 338              	.LBE101:
 339              		.loc 1 121 0
 340 002c 03B0     		add	sp, sp, #12
 341              		.cfi_remember_state
 342              		.cfi_def_cfa_offset 12
ARM GAS  /var/folders/d2/nstgp4h54kz7g1l847x_b8wc0000gn/T//ccCKm3Yo.s 			page 7


 343              		@ sp needed
 344 002e BDE83040 		pop	{r4, r5, lr}
 345              		.cfi_restore 14
 346              		.cfi_restore 5
 347              		.cfi_restore 4
 348              		.cfi_def_cfa_offset 0
 349              	.LVL32:
 350              	.LBB106:
 351              		.loc 1 119 0
 352 0032 FFF7FEBF 		b	chSchReadyI
 353              	.LVL33:
 354              	.L21:
 355              		.cfi_restore_state
 356              	.LBE106:
 357              		.loc 1 121 0
 358 0036 019A     		ldr	r2, [sp, #4]
 359 0038 2B68     		ldr	r3, [r5]
 360 003a 9A42     		cmp	r2, r3
 361 003c 05D1     		bne	.L27
 362 003e 03B0     		add	sp, sp, #12
 363              		.cfi_remember_state
 364              		.cfi_def_cfa_offset 12
 365              		@ sp needed
 366 0040 30BD     		pop	{r4, r5, pc}
 367              	.LVL34:
 368              	.L28:
 369              		.cfi_restore_state
 370              		.loc 1 114 0 discriminator 2
 371 0042 0448     		ldr	r0, .L29+4
 372 0044 FFF7FEFF 		bl	chSysHalt
 373              	.LVL35:
 374 0048 E3E7     		b	.L22
 375              	.L27:
 376              		.loc 1 121 0
 377 004a FFF7FEFF 		bl	__stack_chk_fail
 378              	.LVL36:
 379              	.L30:
 380 004e 00BF     		.align	2
 381              	.L29:
 382 0050 00000000 		.word	__stack_chk_guard
 383 0054 00000000 		.word	.LANCHOR3
 384              		.cfi_endproc
 385              	.LFE221:
 386              		.size	chCondSignalI, .-chCondSignalI
 387              		.section	.text.chCondBroadcastI,"ax",%progbits
 388              		.align	1
 389              		.p2align 4,,15
 390              		.global	chCondBroadcastI
 391              		.syntax unified
 392              		.thumb
 393              		.thumb_func
 394              		.fpu fpv4-sp-d16
 395              		.type	chCondBroadcastI, %function
 396              	chCondBroadcastI:
 397              	.LFB223:
 398              		.loc 1 149 0
 399              		.cfi_startproc
ARM GAS  /var/folders/d2/nstgp4h54kz7g1l847x_b8wc0000gn/T//ccCKm3Yo.s 			page 8


 400              		@ args = 0, pretend = 0, frame = 8
 401              		@ frame_needed = 0, uses_anonymous_args = 0
 402              	.LVL37:
 403 0000 70B5     		push	{r4, r5, r6, lr}
 404              		.cfi_def_cfa_offset 16
 405              		.cfi_offset 4, -16
 406              		.cfi_offset 5, -12
 407              		.cfi_offset 6, -8
 408              		.cfi_offset 14, -4
 409 0002 114E     		ldr	r6, .L40
 410 0004 82B0     		sub	sp, sp, #8
 411              		.cfi_def_cfa_offset 24
 412              		.loc 1 149 0
 413 0006 0446     		mov	r4, r0
 414 0008 3368     		ldr	r3, [r6]
 415 000a 0193     		str	r3, [sp, #4]
 416              		.loc 1 151 0
 417 000c FFF7FEFF 		bl	chDbgCheckClassI
 418              	.LVL38:
 419              		.loc 1 152 0
 420 0010 9CB1     		cbz	r4, .L38
 421              	.L32:
 422              	.LVL39:
 423              	.LBB107:
 424              	.LBB108:
 425              		.loc 2 631 0
 426 0012 2068     		ldr	r0, [r4]
 427              	.LVL40:
 428              	.LBE108:
 429              	.LBE107:
 430              		.loc 1 157 0
 431 0014 A042     		cmp	r0, r4
 432 0016 0AD0     		beq	.L31
 433              		.loc 1 158 0
 434 0018 6FF00105 		mvn	r5, #1
 435              	.L34:
 436              	.LVL41:
 437              	.LBB110:
 438              	.LBB111:
 439              		.loc 2 674 0
 440 001c 0368     		ldr	r3, [r0]
 441 001e 2360     		str	r3, [r4]
 442              		.loc 2 675 0
 443 0020 5C60     		str	r4, [r3, #4]
 444              	.LVL42:
 445              	.LBE111:
 446              	.LBE110:
 447              		.loc 1 158 0
 448 0022 FFF7FEFF 		bl	chSchReadyI
 449              	.LVL43:
 450 0026 8562     		str	r5, [r0, #40]
 451              	.LVL44:
 452              	.LBB112:
 453              	.LBB109:
 454              		.loc 2 631 0
 455 0028 2068     		ldr	r0, [r4]
 456              	.LVL45:
ARM GAS  /var/folders/d2/nstgp4h54kz7g1l847x_b8wc0000gn/T//ccCKm3Yo.s 			page 9


 457              	.LBE109:
 458              	.LBE112:
 459              		.loc 1 157 0
 460 002a A042     		cmp	r0, r4
 461 002c F6D1     		bne	.L34
 462              	.L31:
 463              		.loc 1 160 0
 464 002e 019A     		ldr	r2, [sp, #4]
 465 0030 3368     		ldr	r3, [r6]
 466 0032 9A42     		cmp	r2, r3
 467 0034 05D1     		bne	.L39
 468 0036 02B0     		add	sp, sp, #8
 469              		.cfi_remember_state
 470              		.cfi_def_cfa_offset 16
 471              		@ sp needed
 472 0038 70BD     		pop	{r4, r5, r6, pc}
 473              	.LVL46:
 474              	.L38:
 475              		.cfi_restore_state
 476              		.loc 1 152 0 discriminator 2
 477 003a 0448     		ldr	r0, .L40+4
 478 003c FFF7FEFF 		bl	chSysHalt
 479              	.LVL47:
 480 0040 E7E7     		b	.L32
 481              	.L39:
 482              		.loc 1 160 0
 483 0042 FFF7FEFF 		bl	__stack_chk_fail
 484              	.LVL48:
 485              	.L41:
 486 0046 00BF     		.align	2
 487              	.L40:
 488 0048 00000000 		.word	__stack_chk_guard
 489 004c 00000000 		.word	.LANCHOR4
 490              		.cfi_endproc
 491              	.LFE223:
 492              		.size	chCondBroadcastI, .-chCondBroadcastI
 493              		.section	.text.chCondBroadcast,"ax",%progbits
 494              		.align	1
 495              		.p2align 4,,15
 496              		.global	chCondBroadcast
 497              		.syntax unified
 498              		.thumb
 499              		.thumb_func
 500              		.fpu fpv4-sp-d16
 501              		.type	chCondBroadcast, %function
 502              	chCondBroadcast:
 503              	.LFB222:
 504              		.loc 1 130 0
 505              		.cfi_startproc
 506              		@ args = 0, pretend = 0, frame = 8
 507              		@ frame_needed = 0, uses_anonymous_args = 0
 508              	.LVL49:
 509 0000 30B5     		push	{r4, r5, lr}
 510              		.cfi_def_cfa_offset 12
 511              		.cfi_offset 4, -12
 512              		.cfi_offset 5, -8
 513              		.cfi_offset 14, -4
ARM GAS  /var/folders/d2/nstgp4h54kz7g1l847x_b8wc0000gn/T//ccCKm3Yo.s 			page 10


 514 0002 164C     		ldr	r4, .L48
 515 0004 83B0     		sub	sp, sp, #12
 516              		.cfi_def_cfa_offset 24
 517              		.loc 1 130 0
 518 0006 2368     		ldr	r3, [r4]
 519 0008 0193     		str	r3, [sp, #4]
 520              	.LVL50:
 521 000a 0546     		mov	r5, r0
 522              	.LBB123:
 523              	.LBB124:
 524              	.LBB125:
 525              	.LBB126:
 526              	.LBB127:
 527              		.loc 3 546 0
 528 000c 2023     		movs	r3, #32
 529              		.syntax unified
 530              	@ 546 "../e-puck2_main-processor/ChibiOS//os/ext/CMSIS/include/core_cmFunc.h" 1
 531 000e 83F31188 		MSR basepri, r3
 532              	@ 0 "" 2
 533              	.LVL51:
 534              		.thumb
 535              		.syntax unified
 536              	.LBE127:
 537              	.LBE126:
 538              	.LBE125:
 539              		.loc 4 349 0
 540 0012 FFF7FEFF 		bl	_stats_start_measure_crit_thd
 541              	.LVL52:
 542              		.loc 4 350 0
 543 0016 FFF7FEFF 		bl	_dbg_check_lock
 544              	.LVL53:
 545              	.LBE124:
 546              	.LBE123:
 547              		.loc 1 133 0
 548 001a 2846     		mov	r0, r5
 549 001c FFF7FEFF 		bl	chCondBroadcastI
 550              	.LVL54:
 551              		.loc 1 134 0
 552 0020 FFF7FEFF 		bl	chSchRescheduleS
 553              	.LVL55:
 554              	.LBB128:
 555              	.LBB129:
 556              		.loc 4 360 0
 557 0024 FFF7FEFF 		bl	_dbg_check_unlock
 558              	.LVL56:
 559              		.loc 4 361 0
 560 0028 FFF7FEFF 		bl	_stats_stop_measure_crit_thd
 561              	.LVL57:
 562              		.loc 4 367 0
 563 002c 0C4B     		ldr	r3, .L48+4
 564 002e 1A68     		ldr	r2, [r3]
 565 0030 9A42     		cmp	r2, r3
 566 0032 04D0     		beq	.L43
 567 0034 9969     		ldr	r1, [r3, #24]
 568 0036 9368     		ldr	r3, [r2, #8]
 569 0038 8A68     		ldr	r2, [r1, #8]
 570 003a 9A42     		cmp	r2, r3
ARM GAS  /var/folders/d2/nstgp4h54kz7g1l847x_b8wc0000gn/T//ccCKm3Yo.s 			page 11


 571 003c 08D3     		bcc	.L46
 572              	.L43:
 573              	.LVL58:
 574              	.LBB130:
 575              	.LBB131:
 576              	.LBB132:
 577              		.loc 3 546 0
 578 003e 0023     		movs	r3, #0
 579              		.syntax unified
 580              	@ 546 "../e-puck2_main-processor/ChibiOS//os/ext/CMSIS/include/core_cmFunc.h" 1
 581 0040 83F31188 		MSR basepri, r3
 582              	@ 0 "" 2
 583              	.LVL59:
 584              		.thumb
 585              		.syntax unified
 586              	.LBE132:
 587              	.LBE131:
 588              	.LBE130:
 589              	.LBE129:
 590              	.LBE128:
 591              		.loc 1 136 0
 592 0044 019A     		ldr	r2, [sp, #4]
 593 0046 2368     		ldr	r3, [r4]
 594 0048 9A42     		cmp	r2, r3
 595 004a 05D1     		bne	.L47
 596 004c 03B0     		add	sp, sp, #12
 597              		.cfi_remember_state
 598              		.cfi_def_cfa_offset 12
 599              		@ sp needed
 600 004e 30BD     		pop	{r4, r5, pc}
 601              	.LVL60:
 602              	.L46:
 603              		.cfi_restore_state
 604              	.LBB134:
 605              	.LBB133:
 606              		.loc 4 367 0
 607 0050 0448     		ldr	r0, .L48+8
 608 0052 FFF7FEFF 		bl	chSysHalt
 609              	.LVL61:
 610 0056 F2E7     		b	.L43
 611              	.L47:
 612              	.LBE133:
 613              	.LBE134:
 614              		.loc 1 136 0
 615 0058 FFF7FEFF 		bl	__stack_chk_fail
 616              	.LVL62:
 617              	.L49:
 618              		.align	2
 619              	.L48:
 620 005c 00000000 		.word	__stack_chk_guard
 621 0060 00000000 		.word	ch
 622 0064 00000000 		.word	.LANCHOR2
 623              		.cfi_endproc
 624              	.LFE222:
 625              		.size	chCondBroadcast, .-chCondBroadcast
 626              		.section	.text.chCondWaitS,"ax",%progbits
 627              		.align	1
ARM GAS  /var/folders/d2/nstgp4h54kz7g1l847x_b8wc0000gn/T//ccCKm3Yo.s 			page 12


 628              		.p2align 4,,15
 629              		.global	chCondWaitS
 630              		.syntax unified
 631              		.thumb
 632              		.thumb_func
 633              		.fpu fpv4-sp-d16
 634              		.type	chCondWaitS, %function
 635              	chCondWaitS:
 636              	.LFB225:
 637              		.loc 1 205 0
 638              		.cfi_startproc
 639              		@ args = 0, pretend = 0, frame = 8
 640              		@ frame_needed = 0, uses_anonymous_args = 0
 641              	.LVL63:
 642 0000 2DE9F041 		push	{r4, r5, r6, r7, r8, lr}
 643              		.cfi_def_cfa_offset 24
 644              		.cfi_offset 4, -24
 645              		.cfi_offset 5, -20
 646              		.cfi_offset 6, -16
 647              		.cfi_offset 7, -12
 648              		.cfi_offset 8, -8
 649              		.cfi_offset 14, -4
 650 0004 1E4F     		ldr	r7, .L63
 651              		.loc 1 206 0
 652 0006 1F4E     		ldr	r6, .L63+4
 653              		.loc 1 205 0
 654 0008 3B68     		ldr	r3, [r7]
 655              		.loc 1 206 0
 656 000a B469     		ldr	r4, [r6, #24]
 657              	.LVL64:
 658              		.loc 1 205 0
 659 000c 82B0     		sub	sp, sp, #8
 660              		.cfi_def_cfa_offset 32
 661              		.loc 1 205 0
 662 000e 0546     		mov	r5, r0
 663 0010 0193     		str	r3, [sp, #4]
 664              		.loc 1 210 0
 665 0012 FFF7FEFF 		bl	chDbgCheckClassS
 666              	.LVL65:
 667              		.loc 1 211 0
 668 0016 65B3     		cbz	r5, .L58
 669              	.L51:
 670              		.loc 1 212 0 discriminator 1
 671 0018 236C     		ldr	r3, [r4, #64]
 672 001a 33B3     		cbz	r3, .L59
 673              	.L52:
 674              	.LBB135:
 675              	.LBB136:
 676              		.file 5 "../e-puck2_main-processor/ChibiOS//os/rt/include/chmtx.h"
 677              		.loc 5 146 0
 678 001c B369     		ldr	r3, [r6, #24]
 679 001e D3F84080 		ldr	r8, [r3, #64]
 680              	.LBE136:
 681              	.LBE135:
 682              		.loc 1 216 0
 683 0022 4046     		mov	r0, r8
 684 0024 FFF7FEFF 		bl	chMtxUnlockS
ARM GAS  /var/folders/d2/nstgp4h54kz7g1l847x_b8wc0000gn/T//ccCKm3Yo.s 			page 13


 685              	.LVL66:
 686              		.loc 1 221 0
 687 0028 2E46     		mov	r6, r5
 688              	.LVL67:
 689              		.loc 1 220 0
 690 002a A562     		str	r5, [r4, #40]
 691              		.loc 1 221 0
 692 002c 2B46     		mov	r3, r5
 693 002e 03E0     		b	.L54
 694              	.LVL68:
 695              	.L61:
 696              	.LBB137:
 697              	.LBB138:
 698              		.loc 2 656 0
 699 0030 9968     		ldr	r1, [r3, #8]
 700 0032 A268     		ldr	r2, [r4, #8]
 701 0034 9142     		cmp	r1, r2
 702 0036 16D3     		bcc	.L60
 703              	.LVL69:
 704              	.L54:
 705              		.loc 2 655 0
 706 0038 1B68     		ldr	r3, [r3]
 707              	.LVL70:
 708              		.loc 2 656 0
 709 003a 9D42     		cmp	r5, r3
 710 003c F8D1     		bne	.L61
 711              	.L53:
 712              		.loc 2 657 0
 713 003e 2660     		str	r6, [r4]
 714              		.loc 2 658 0
 715 0040 7368     		ldr	r3, [r6, #4]
 716              	.LVL71:
 717 0042 6360     		str	r3, [r4, #4]
 718              	.LBE138:
 719              	.LBE137:
 720              		.loc 1 222 0
 721 0044 0720     		movs	r0, #7
 722              	.LBB141:
 723              	.LBB139:
 724              		.loc 2 659 0
 725 0046 1C60     		str	r4, [r3]
 726              		.loc 2 660 0
 727 0048 7460     		str	r4, [r6, #4]
 728              	.LVL72:
 729              	.LBE139:
 730              	.LBE141:
 731              		.loc 1 222 0
 732 004a FFF7FEFF 		bl	chSchGoSleepS
 733              	.LVL73:
 734              		.loc 1 224 0
 735 004e 4046     		mov	r0, r8
 736              		.loc 1 223 0
 737 0050 A46A     		ldr	r4, [r4, #40]
 738              	.LVL74:
 739              		.loc 1 224 0
 740 0052 FFF7FEFF 		bl	chMtxLockS
 741              	.LVL75:
ARM GAS  /var/folders/d2/nstgp4h54kz7g1l847x_b8wc0000gn/T//ccCKm3Yo.s 			page 14


 742              		.loc 1 227 0
 743 0056 019A     		ldr	r2, [sp, #4]
 744 0058 3B68     		ldr	r3, [r7]
 745 005a 9A42     		cmp	r2, r3
 746 005c 2046     		mov	r0, r4
 747 005e 0CD1     		bne	.L62
 748 0060 02B0     		add	sp, sp, #8
 749              		.cfi_remember_state
 750              		.cfi_def_cfa_offset 24
 751              		@ sp needed
 752 0062 BDE8F081 		pop	{r4, r5, r6, r7, r8, pc}
 753              	.LVL76:
 754              	.L60:
 755              		.cfi_restore_state
 756              	.LBB142:
 757              	.LBB140:
 758              		.loc 2 655 0
 759 0066 1E46     		mov	r6, r3
 760 0068 E9E7     		b	.L53
 761              	.LVL77:
 762              	.L59:
 763              	.LBE140:
 764              	.LBE142:
 765              		.loc 1 212 0 discriminator 2
 766 006a 0748     		ldr	r0, .L63+8
 767 006c FFF7FEFF 		bl	chSysHalt
 768              	.LVL78:
 769 0070 D4E7     		b	.L52
 770              	.L58:
 771              		.loc 1 211 0 discriminator 2
 772 0072 0548     		ldr	r0, .L63+8
 773 0074 FFF7FEFF 		bl	chSysHalt
 774              	.LVL79:
 775 0078 CEE7     		b	.L51
 776              	.LVL80:
 777              	.L62:
 778              		.loc 1 227 0
 779 007a FFF7FEFF 		bl	__stack_chk_fail
 780              	.LVL81:
 781              	.L64:
 782 007e 00BF     		.align	2
 783              	.L63:
 784 0080 00000000 		.word	__stack_chk_guard
 785 0084 00000000 		.word	ch
 786 0088 00000000 		.word	.LANCHOR5
 787              		.cfi_endproc
 788              	.LFE225:
 789              		.size	chCondWaitS, .-chCondWaitS
 790              		.section	.text.chCondWait,"ax",%progbits
 791              		.align	1
 792              		.p2align 4,,15
 793              		.global	chCondWait
 794              		.syntax unified
 795              		.thumb
 796              		.thumb_func
 797              		.fpu fpv4-sp-d16
 798              		.type	chCondWait, %function
ARM GAS  /var/folders/d2/nstgp4h54kz7g1l847x_b8wc0000gn/T//ccCKm3Yo.s 			page 15


 799              	chCondWait:
 800              	.LFB224:
 801              		.loc 1 179 0
 802              		.cfi_startproc
 803              		@ args = 0, pretend = 0, frame = 8
 804              		@ frame_needed = 0, uses_anonymous_args = 0
 805              	.LVL82:
 806 0000 30B5     		push	{r4, r5, lr}
 807              		.cfi_def_cfa_offset 12
 808              		.cfi_offset 4, -12
 809              		.cfi_offset 5, -8
 810              		.cfi_offset 14, -4
 811 0002 164C     		ldr	r4, .L71
 812 0004 83B0     		sub	sp, sp, #12
 813              		.cfi_def_cfa_offset 24
 814              		.loc 1 179 0
 815 0006 2368     		ldr	r3, [r4]
 816 0008 0193     		str	r3, [sp, #4]
 817              	.LVL83:
 818 000a 0546     		mov	r5, r0
 819              	.LBB153:
 820              	.LBB154:
 821              	.LBB155:
 822              	.LBB156:
 823              	.LBB157:
 824              		.loc 3 546 0
 825 000c 2023     		movs	r3, #32
 826              		.syntax unified
 827              	@ 546 "../e-puck2_main-processor/ChibiOS//os/ext/CMSIS/include/core_cmFunc.h" 1
 828 000e 83F31188 		MSR basepri, r3
 829              	@ 0 "" 2
 830              	.LVL84:
 831              		.thumb
 832              		.syntax unified
 833              	.LBE157:
 834              	.LBE156:
 835              	.LBE155:
 836              		.loc 4 349 0
 837 0012 FFF7FEFF 		bl	_stats_start_measure_crit_thd
 838              	.LVL85:
 839              		.loc 4 350 0
 840 0016 FFF7FEFF 		bl	_dbg_check_lock
 841              	.LVL86:
 842              	.LBE154:
 843              	.LBE153:
 844              		.loc 1 183 0
 845 001a 2846     		mov	r0, r5
 846 001c FFF7FEFF 		bl	chCondWaitS
 847              	.LVL87:
 848 0020 0546     		mov	r5, r0
 849              	.LVL88:
 850              	.LBB158:
 851              	.LBB159:
 852              		.loc 4 360 0
 853 0022 FFF7FEFF 		bl	_dbg_check_unlock
 854              	.LVL89:
 855              		.loc 4 361 0
ARM GAS  /var/folders/d2/nstgp4h54kz7g1l847x_b8wc0000gn/T//ccCKm3Yo.s 			page 16


 856 0026 FFF7FEFF 		bl	_stats_stop_measure_crit_thd
 857              	.LVL90:
 858              		.loc 4 367 0
 859 002a 0D4B     		ldr	r3, .L71+4
 860 002c 1A68     		ldr	r2, [r3]
 861 002e 9A42     		cmp	r2, r3
 862 0030 04D0     		beq	.L66
 863 0032 9969     		ldr	r1, [r3, #24]
 864 0034 9368     		ldr	r3, [r2, #8]
 865 0036 8A68     		ldr	r2, [r1, #8]
 866 0038 9A42     		cmp	r2, r3
 867 003a 09D3     		bcc	.L69
 868              	.L66:
 869              	.LVL91:
 870              	.LBB160:
 871              	.LBB161:
 872              	.LBB162:
 873              		.loc 3 546 0
 874 003c 0023     		movs	r3, #0
 875              		.syntax unified
 876              	@ 546 "../e-puck2_main-processor/ChibiOS//os/ext/CMSIS/include/core_cmFunc.h" 1
 877 003e 83F31188 		MSR basepri, r3
 878              	@ 0 "" 2
 879              	.LVL92:
 880              		.thumb
 881              		.syntax unified
 882              	.LBE162:
 883              	.LBE161:
 884              	.LBE160:
 885              	.LBE159:
 886              	.LBE158:
 887              		.loc 1 186 0
 888 0042 019A     		ldr	r2, [sp, #4]
 889 0044 2368     		ldr	r3, [r4]
 890 0046 9A42     		cmp	r2, r3
 891 0048 2846     		mov	r0, r5
 892 004a 05D1     		bne	.L70
 893              	.LVL93:
 894 004c 03B0     		add	sp, sp, #12
 895              		.cfi_remember_state
 896              		.cfi_def_cfa_offset 12
 897              		@ sp needed
 898 004e 30BD     		pop	{r4, r5, pc}
 899              	.LVL94:
 900              	.L69:
 901              		.cfi_restore_state
 902              	.LBB164:
 903              	.LBB163:
 904              		.loc 4 367 0
 905 0050 0448     		ldr	r0, .L71+8
 906 0052 FFF7FEFF 		bl	chSysHalt
 907              	.LVL95:
 908 0056 F1E7     		b	.L66
 909              	.LVL96:
 910              	.L70:
 911              	.LBE163:
 912              	.LBE164:
ARM GAS  /var/folders/d2/nstgp4h54kz7g1l847x_b8wc0000gn/T//ccCKm3Yo.s 			page 17


 913              		.loc 1 186 0
 914 0058 FFF7FEFF 		bl	__stack_chk_fail
 915              	.LVL97:
 916              	.L72:
 917              		.align	2
 918              	.L71:
 919 005c 00000000 		.word	__stack_chk_guard
 920 0060 00000000 		.word	ch
 921 0064 00000000 		.word	.LANCHOR2
 922              		.cfi_endproc
 923              	.LFE224:
 924              		.size	chCondWait, .-chCondWait
 925              		.section	.text.chCondWaitTimeoutS,"ax",%progbits
 926              		.align	1
 927              		.p2align 4,,15
 928              		.global	chCondWaitTimeoutS
 929              		.syntax unified
 930              		.thumb
 931              		.thumb_func
 932              		.fpu fpv4-sp-d16
 933              		.type	chCondWaitTimeoutS, %function
 934              	chCondWaitTimeoutS:
 935              	.LFB227:
 936              		.loc 1 296 0
 937              		.cfi_startproc
 938              		@ args = 0, pretend = 0, frame = 8
 939              		@ frame_needed = 0, uses_anonymous_args = 0
 940              	.LVL98:
 941 0000 2DE9F041 		push	{r4, r5, r6, r7, r8, lr}
 942              		.cfi_def_cfa_offset 24
 943              		.cfi_offset 4, -24
 944              		.cfi_offset 5, -20
 945              		.cfi_offset 6, -16
 946              		.cfi_offset 7, -12
 947              		.cfi_offset 8, -8
 948              		.cfi_offset 14, -4
 949 0004 244F     		ldr	r7, .L93
 950 0006 82B0     		sub	sp, sp, #8
 951              		.cfi_def_cfa_offset 32
 952              		.loc 1 296 0
 953 0008 0546     		mov	r5, r0
 954 000a 3B68     		ldr	r3, [r7]
 955 000c 0193     		str	r3, [sp, #4]
 956 000e 8846     		mov	r8, r1
 957              		.loc 1 300 0
 958 0010 FFF7FEFF 		bl	chDbgCheckClassS
 959              	.LVL99:
 960              		.loc 1 301 0
 961 0014 002D     		cmp	r5, #0
 962 0016 2DD0     		beq	.L74
 963              		.loc 1 301 0 is_stmt 0 discriminator 3
 964 0018 B8F1000F 		cmp	r8, #0
 965 001c 2AD0     		beq	.L74
 966              		.loc 1 302 0 is_stmt 1 discriminator 1
 967 001e 1F4C     		ldr	r4, .L93+4
 968 0020 A369     		ldr	r3, [r4, #24]
 969 0022 1E6C     		ldr	r6, [r3, #64]
ARM GAS  /var/folders/d2/nstgp4h54kz7g1l847x_b8wc0000gn/T//ccCKm3Yo.s 			page 18


 970 0024 002E     		cmp	r6, #0
 971 0026 2DD0     		beq	.L89
 972              	.L76:
 973              		.loc 1 306 0
 974 0028 3046     		mov	r0, r6
 975 002a FFF7FEFF 		bl	chMtxUnlockS
 976              	.LVL100:
 977              		.loc 1 310 0
 978 002e A469     		ldr	r4, [r4, #24]
 979              		.loc 1 311 0
 980 0030 2A46     		mov	r2, r5
 981              	.LVL101:
 982              		.loc 1 310 0
 983 0032 A562     		str	r5, [r4, #40]
 984              		.loc 1 311 0
 985 0034 2B46     		mov	r3, r5
 986 0036 03E0     		b	.L78
 987              	.LVL102:
 988              	.L91:
 989              	.LBB165:
 990              	.LBB166:
 991              		.loc 2 656 0
 992 0038 9968     		ldr	r1, [r3, #8]
 993 003a A068     		ldr	r0, [r4, #8]
 994 003c 8142     		cmp	r1, r0
 995 003e 27D3     		bcc	.L90
 996              	.LVL103:
 997              	.L78:
 998              		.loc 2 655 0
 999 0040 1B68     		ldr	r3, [r3]
 1000              	.LVL104:
 1001              		.loc 2 656 0
 1002 0042 9D42     		cmp	r5, r3
 1003 0044 F8D1     		bne	.L91
 1004              	.LVL105:
 1005              	.L77:
 1006              		.loc 2 657 0
 1007 0046 2260     		str	r2, [r4]
 1008              		.loc 2 658 0
 1009 0048 5368     		ldr	r3, [r2, #4]
 1010              	.LVL106:
 1011 004a 6360     		str	r3, [r4, #4]
 1012              	.LBE166:
 1013              	.LBE165:
 1014              		.loc 1 312 0
 1015 004c 4146     		mov	r1, r8
 1016              	.LBB170:
 1017              	.LBB167:
 1018              		.loc 2 659 0
 1019 004e 1C60     		str	r4, [r3]
 1020              	.LBE167:
 1021              	.LBE170:
 1022              		.loc 1 312 0
 1023 0050 0720     		movs	r0, #7
 1024              	.LBB171:
 1025              	.LBB168:
 1026              		.loc 2 660 0
ARM GAS  /var/folders/d2/nstgp4h54kz7g1l847x_b8wc0000gn/T//ccCKm3Yo.s 			page 19


 1027 0052 5460     		str	r4, [r2, #4]
 1028              	.LVL107:
 1029              	.LBE168:
 1030              	.LBE171:
 1031              		.loc 1 312 0
 1032 0054 FFF7FEFF 		bl	chSchGoSleepTimeoutS
 1033              	.LVL108:
 1034              		.loc 1 313 0
 1035 0058 431C     		adds	r3, r0, #1
 1036              		.loc 1 312 0
 1037 005a 0446     		mov	r4, r0
 1038              	.LVL109:
 1039              		.loc 1 313 0
 1040 005c 02D0     		beq	.L73
 1041              		.loc 1 314 0
 1042 005e 3046     		mov	r0, r6
 1043              	.LVL110:
 1044 0060 FFF7FEFF 		bl	chMtxLockS
 1045              	.LVL111:
 1046              	.L73:
 1047              		.loc 1 318 0
 1048 0064 019A     		ldr	r2, [sp, #4]
 1049 0066 3B68     		ldr	r3, [r7]
 1050 0068 9A42     		cmp	r2, r3
 1051 006a 2046     		mov	r0, r4
 1052 006c 12D1     		bne	.L92
 1053              	.LVL112:
 1054 006e 02B0     		add	sp, sp, #8
 1055              		.cfi_remember_state
 1056              		.cfi_def_cfa_offset 24
 1057              		@ sp needed
 1058 0070 BDE8F081 		pop	{r4, r5, r6, r7, r8, pc}
 1059              	.LVL113:
 1060              	.L74:
 1061              		.cfi_restore_state
 1062              		.loc 1 302 0 discriminator 4
 1063 0074 094C     		ldr	r4, .L93+4
 1064              		.loc 1 301 0 discriminator 4
 1065 0076 0A48     		ldr	r0, .L93+8
 1066 0078 FFF7FEFF 		bl	chSysHalt
 1067              	.LVL114:
 1068              		.loc 1 302 0 discriminator 4
 1069 007c A369     		ldr	r3, [r4, #24]
 1070 007e 1E6C     		ldr	r6, [r3, #64]
 1071 0080 002E     		cmp	r6, #0
 1072 0082 D1D1     		bne	.L76
 1073              	.L89:
 1074              		.loc 1 302 0 is_stmt 0 discriminator 2
 1075 0084 0648     		ldr	r0, .L93+8
 1076 0086 FFF7FEFF 		bl	chSysHalt
 1077              	.LVL115:
 1078 008a A369     		ldr	r3, [r4, #24]
 1079 008c 1E6C     		ldr	r6, [r3, #64]
 1080 008e CBE7     		b	.L76
 1081              	.LVL116:
 1082              	.L90:
 1083              	.LBB172:
ARM GAS  /var/folders/d2/nstgp4h54kz7g1l847x_b8wc0000gn/T//ccCKm3Yo.s 			page 20


 1084              	.LBB169:
 1085              		.loc 2 655 0 is_stmt 1
 1086 0090 1A46     		mov	r2, r3
 1087              	.LVL117:
 1088 0092 D8E7     		b	.L77
 1089              	.LVL118:
 1090              	.L92:
 1091              	.LBE169:
 1092              	.LBE172:
 1093              		.loc 1 318 0
 1094 0094 FFF7FEFF 		bl	__stack_chk_fail
 1095              	.LVL119:
 1096              	.L94:
 1097              		.align	2
 1098              	.L93:
 1099 0098 00000000 		.word	__stack_chk_guard
 1100 009c 00000000 		.word	ch
 1101 00a0 00000000 		.word	.LANCHOR6
 1102              		.cfi_endproc
 1103              	.LFE227:
 1104              		.size	chCondWaitTimeoutS, .-chCondWaitTimeoutS
 1105              		.section	.text.chCondWaitTimeout,"ax",%progbits
 1106              		.align	1
 1107              		.p2align 4,,15
 1108              		.global	chCondWaitTimeout
 1109              		.syntax unified
 1110              		.thumb
 1111              		.thumb_func
 1112              		.fpu fpv4-sp-d16
 1113              		.type	chCondWaitTimeout, %function
 1114              	chCondWaitTimeout:
 1115              	.LFB226:
 1116              		.loc 1 258 0
 1117              		.cfi_startproc
 1118              		@ args = 0, pretend = 0, frame = 8
 1119              		@ frame_needed = 0, uses_anonymous_args = 0
 1120              	.LVL120:
 1121 0000 70B5     		push	{r4, r5, r6, lr}
 1122              		.cfi_def_cfa_offset 16
 1123              		.cfi_offset 4, -16
 1124              		.cfi_offset 5, -12
 1125              		.cfi_offset 6, -8
 1126              		.cfi_offset 14, -4
 1127 0002 174C     		ldr	r4, .L101
 1128 0004 82B0     		sub	sp, sp, #8
 1129              		.cfi_def_cfa_offset 24
 1130              		.loc 1 258 0
 1131 0006 2368     		ldr	r3, [r4]
 1132 0008 0193     		str	r3, [sp, #4]
 1133              	.LVL121:
 1134 000a 0546     		mov	r5, r0
 1135 000c 0E46     		mov	r6, r1
 1136              	.LBB183:
 1137              	.LBB184:
 1138              	.LBB185:
 1139              	.LBB186:
 1140              	.LBB187:
ARM GAS  /var/folders/d2/nstgp4h54kz7g1l847x_b8wc0000gn/T//ccCKm3Yo.s 			page 21


 1141              		.loc 3 546 0
 1142 000e 2023     		movs	r3, #32
 1143              		.syntax unified
 1144              	@ 546 "../e-puck2_main-processor/ChibiOS//os/ext/CMSIS/include/core_cmFunc.h" 1
 1145 0010 83F31188 		MSR basepri, r3
 1146              	@ 0 "" 2
 1147              	.LVL122:
 1148              		.thumb
 1149              		.syntax unified
 1150              	.LBE187:
 1151              	.LBE186:
 1152              	.LBE185:
 1153              		.loc 4 349 0
 1154 0014 FFF7FEFF 		bl	_stats_start_measure_crit_thd
 1155              	.LVL123:
 1156              		.loc 4 350 0
 1157 0018 FFF7FEFF 		bl	_dbg_check_lock
 1158              	.LVL124:
 1159              	.LBE184:
 1160              	.LBE183:
 1161              		.loc 1 262 0
 1162 001c 3146     		mov	r1, r6
 1163 001e 2846     		mov	r0, r5
 1164 0020 FFF7FEFF 		bl	chCondWaitTimeoutS
 1165              	.LVL125:
 1166 0024 0546     		mov	r5, r0
 1167              	.LVL126:
 1168              	.LBB188:
 1169              	.LBB189:
 1170              		.loc 4 360 0
 1171 0026 FFF7FEFF 		bl	_dbg_check_unlock
 1172              	.LVL127:
 1173              		.loc 4 361 0
 1174 002a FFF7FEFF 		bl	_stats_stop_measure_crit_thd
 1175              	.LVL128:
 1176              		.loc 4 367 0
 1177 002e 0D4B     		ldr	r3, .L101+4
 1178 0030 1A68     		ldr	r2, [r3]
 1179 0032 9A42     		cmp	r2, r3
 1180 0034 04D0     		beq	.L96
 1181 0036 9969     		ldr	r1, [r3, #24]
 1182 0038 9368     		ldr	r3, [r2, #8]
 1183 003a 8A68     		ldr	r2, [r1, #8]
 1184 003c 9A42     		cmp	r2, r3
 1185 003e 09D3     		bcc	.L99
 1186              	.L96:
 1187              	.LVL129:
 1188              	.LBB190:
 1189              	.LBB191:
 1190              	.LBB192:
 1191              		.loc 3 546 0
 1192 0040 0023     		movs	r3, #0
 1193              		.syntax unified
 1194              	@ 546 "../e-puck2_main-processor/ChibiOS//os/ext/CMSIS/include/core_cmFunc.h" 1
 1195 0042 83F31188 		MSR basepri, r3
 1196              	@ 0 "" 2
 1197              	.LVL130:
ARM GAS  /var/folders/d2/nstgp4h54kz7g1l847x_b8wc0000gn/T//ccCKm3Yo.s 			page 22


 1198              		.thumb
 1199              		.syntax unified
 1200              	.LBE192:
 1201              	.LBE191:
 1202              	.LBE190:
 1203              	.LBE189:
 1204              	.LBE188:
 1205              		.loc 1 266 0
 1206 0046 019A     		ldr	r2, [sp, #4]
 1207 0048 2368     		ldr	r3, [r4]
 1208 004a 9A42     		cmp	r2, r3
 1209 004c 2846     		mov	r0, r5
 1210 004e 05D1     		bne	.L100
 1211              	.LVL131:
 1212 0050 02B0     		add	sp, sp, #8
 1213              		.cfi_remember_state
 1214              		.cfi_def_cfa_offset 16
 1215              		@ sp needed
 1216 0052 70BD     		pop	{r4, r5, r6, pc}
 1217              	.LVL132:
 1218              	.L99:
 1219              		.cfi_restore_state
 1220              	.LBB194:
 1221              	.LBB193:
 1222              		.loc 4 367 0
 1223 0054 0448     		ldr	r0, .L101+8
 1224 0056 FFF7FEFF 		bl	chSysHalt
 1225              	.LVL133:
 1226 005a F1E7     		b	.L96
 1227              	.LVL134:
 1228              	.L100:
 1229              	.LBE193:
 1230              	.LBE194:
 1231              		.loc 1 266 0
 1232 005c FFF7FEFF 		bl	__stack_chk_fail
 1233              	.LVL135:
 1234              	.L102:
 1235              		.align	2
 1236              	.L101:
 1237 0060 00000000 		.word	__stack_chk_guard
 1238 0064 00000000 		.word	ch
 1239 0068 00000000 		.word	.LANCHOR2
 1240              		.cfi_endproc
 1241              	.LFE226:
 1242              		.size	chCondWaitTimeout, .-chCondWaitTimeout
 1243              		.section	.rodata.__func__.7153,"a",%progbits
 1244              		.align	2
 1245              		.set	.LANCHOR2,. + 0
 1246              		.type	__func__.7153, %object
 1247              		.size	__func__.7153, 12
 1248              	__func__.7153:
 1249 0000 63685379 		.ascii	"chSysUnlock\000"
 1249      73556E6C 
 1249      6F636B00 
 1250              		.section	.rodata.__func__.7849,"a",%progbits
 1251              		.align	2
 1252              		.set	.LANCHOR0,. + 0
ARM GAS  /var/folders/d2/nstgp4h54kz7g1l847x_b8wc0000gn/T//ccCKm3Yo.s 			page 23


 1253              		.type	__func__.7849, %object
 1254              		.size	__func__.7849, 17
 1255              	__func__.7849:
 1256 0000 6368436F 		.ascii	"chCondObjectInit\000"
 1256      6E644F62 
 1256      6A656374 
 1256      496E6974 
 1256      00
 1257              		.section	.rodata.__func__.7853,"a",%progbits
 1258              		.align	2
 1259              		.set	.LANCHOR1,. + 0
 1260              		.type	__func__.7853, %object
 1261              		.size	__func__.7853, 13
 1262              	__func__.7853:
 1263 0000 6368436F 		.ascii	"chCondSignal\000"
 1263      6E645369 
 1263      676E616C 
 1263      00
 1264              		.section	.rodata.__func__.7857,"a",%progbits
 1265              		.align	2
 1266              		.set	.LANCHOR3,. + 0
 1267              		.type	__func__.7857, %object
 1268              		.size	__func__.7857, 14
 1269              	__func__.7857:
 1270 0000 6368436F 		.ascii	"chCondSignalI\000"
 1270      6E645369 
 1270      676E616C 
 1270      4900
 1271              		.section	.rodata.__func__.7865,"a",%progbits
 1272              		.align	2
 1273              		.set	.LANCHOR4,. + 0
 1274              		.type	__func__.7865, %object
 1275              		.size	__func__.7865, 17
 1276              	__func__.7865:
 1277 0000 6368436F 		.ascii	"chCondBroadcastI\000"
 1277      6E644272 
 1277      6F616463 
 1277      61737449 
 1277      00
 1278              		.section	.rodata.__func__.7879,"a",%progbits
 1279              		.align	2
 1280              		.set	.LANCHOR5,. + 0
 1281              		.type	__func__.7879, %object
 1282              		.size	__func__.7879, 12
 1283              	__func__.7879:
 1284 0000 6368436F 		.ascii	"chCondWaitS\000"
 1284      6E645761 
 1284      69745300 
 1285              		.section	.rodata.__func__.7891,"a",%progbits
 1286              		.align	2
 1287              		.set	.LANCHOR6,. + 0
 1288              		.type	__func__.7891, %object
 1289              		.size	__func__.7891, 19
 1290              	__func__.7891:
 1291 0000 6368436F 		.ascii	"chCondWaitTimeoutS\000"
 1291      6E645761 
 1291      69745469 
ARM GAS  /var/folders/d2/nstgp4h54kz7g1l847x_b8wc0000gn/T//ccCKm3Yo.s 			page 24


 1291      6D656F75 
 1291      745300
 1292              		.text
 1293              	.Letext0:
 1294              		.file 6 "/Applications/Eclipse_e-puck2.app/Contents/Eclipse_e-puck2/Tools/gcc-arm-none-eabi-7-2017
 1295              		.file 7 "/Applications/Eclipse_e-puck2.app/Contents/Eclipse_e-puck2/Tools/gcc-arm-none-eabi-7-2017
 1296              		.file 8 "../e-puck2_main-processor/ChibiOS//os/rt/ports/ARMCMx/compilers/GCC/chtypes.h"
 1297              		.file 9 "../e-puck2_main-processor/ChibiOS//os/rt/include/chsystypes.h"
 1298              		.file 10 "../e-puck2_main-processor/ChibiOS//os/ext/CMSIS/include/core_cm4.h"
 1299              		.file 11 "../e-puck2_main-processor/ChibiOS//os/ext/CMSIS/ST/system_stm32f4xx.h"
 1300              		.file 12 "../e-puck2_main-processor/ChibiOS//os/rt/ports/ARMCMx/chcore.h"
 1301              		.file 13 "../e-puck2_main-processor/ChibiOS//os/rt/ports/ARMCMx/chcore_v7m.h"
 1302              		.file 14 "../e-puck2_main-processor/ChibiOS//os/rt/include/chdebug.h"
 1303              		.file 15 "../e-puck2_main-processor/ChibiOS//os/rt/include/chtm.h"
 1304              		.file 16 "../e-puck2_main-processor/ChibiOS//os/rt/include/chstats.h"
 1305              		.file 17 "../e-puck2_main-processor/ChibiOS//os/rt/include/chsem.h"
 1306              		.file 18 "../e-puck2_main-processor/ChibiOS//os/rt/include/chregistry.h"
 1307              		.file 19 "../e-puck2_main-processor/ChibiOS//os/rt/include/chcond.h"
 1308              		.file 20 "../e-puck2_main-processor/ChibiOS//os/rt/include/chthreads.h"