ARM GAS  /var/folders/d2/nstgp4h54kz7g1l847x_b8wc0000gn/T//ccpe0DT8.s 			page 1


   1              		.cpu cortex-m4
   2              		.eabi_attribute 27, 1
   3              		.eabi_attribute 28, 1
   4              		.eabi_attribute 20, 1
   5              		.eabi_attribute 21, 1
   6              		.eabi_attribute 23, 3
   7              		.eabi_attribute 24, 1
   8              		.eabi_attribute 25, 1
   9              		.eabi_attribute 26, 1
  10              		.eabi_attribute 30, 6
  11              		.eabi_attribute 34, 1
  12              		.eabi_attribute 18, 4
  13              		.file	"chdebug.c"
  14              		.section	.text.port_lock,"ax",%progbits
  15              		.align	1
  16              		.syntax unified
  17              		.thumb
  18              		.thumb_func
  19              		.fpu fpv4-sp-d16
  20              		.type	port_lock, %function
  21              	port_lock:
  22              		@ args = 0, pretend = 0, frame = 8
  23              		@ frame_needed = 1, uses_anonymous_args = 0
  24              		@ link register save eliminated.
  25 0000 80B4     		push	{r7}
  26 0002 83B0     		sub	sp, sp, #12
  27 0004 00AF     		add	r7, sp, #0
  28 0006 2023     		movs	r3, #32
  29 0008 7B60     		str	r3, [r7, #4]
  30 000a 7B68     		ldr	r3, [r7, #4]
  31              		.syntax unified
  32              	@ 546 "../e-puck2_main-processor/ChibiOS//os/ext/CMSIS/include/core_cmFunc.h" 1
  33 000c 83F31188 		MSR basepri, r3
  34              	@ 0 "" 2
  35              		.thumb
  36              		.syntax unified
  37 0010 00BF     		nop
  38 0012 0C37     		adds	r7, r7, #12
  39 0014 BD46     		mov	sp, r7
  40              		@ sp needed
  41 0016 5DF8047B 		ldr	r7, [sp], #4
  42 001a 7047     		bx	lr
  43              		.size	port_lock, .-port_lock
  44              		.section	.text.port_unlock,"ax",%progbits
  45              		.align	1
  46              		.syntax unified
  47              		.thumb
  48              		.thumb_func
  49              		.fpu fpv4-sp-d16
  50              		.type	port_unlock, %function
  51              	port_unlock:
  52              		@ args = 0, pretend = 0, frame = 8
  53              		@ frame_needed = 1, uses_anonymous_args = 0
  54              		@ link register save eliminated.
  55 0000 80B4     		push	{r7}
  56 0002 83B0     		sub	sp, sp, #12
  57 0004 00AF     		add	r7, sp, #0
ARM GAS  /var/folders/d2/nstgp4h54kz7g1l847x_b8wc0000gn/T//ccpe0DT8.s 			page 2


  58 0006 0023     		movs	r3, #0
  59 0008 7B60     		str	r3, [r7, #4]
  60 000a 7B68     		ldr	r3, [r7, #4]
  61              		.syntax unified
  62              	@ 546 "../e-puck2_main-processor/ChibiOS//os/ext/CMSIS/include/core_cmFunc.h" 1
  63 000c 83F31188 		MSR basepri, r3
  64              	@ 0 "" 2
  65              		.thumb
  66              		.syntax unified
  67 0010 00BF     		nop
  68 0012 0C37     		adds	r7, r7, #12
  69 0014 BD46     		mov	sp, r7
  70              		@ sp needed
  71 0016 5DF8047B 		ldr	r7, [sp], #4
  72 001a 7047     		bx	lr
  73              		.size	port_unlock, .-port_unlock
  74              		.section	.text.port_lock_from_isr,"ax",%progbits
  75              		.align	1
  76              		.syntax unified
  77              		.thumb
  78              		.thumb_func
  79              		.fpu fpv4-sp-d16
  80              		.type	port_lock_from_isr, %function
  81              	port_lock_from_isr:
  82              		@ args = 0, pretend = 0, frame = 0
  83              		@ frame_needed = 1, uses_anonymous_args = 0
  84 0000 80B5     		push	{r7, lr}
  85 0002 00AF     		add	r7, sp, #0
  86 0004 FFF7FEFF 		bl	port_lock
  87 0008 00BF     		nop
  88 000a 80BD     		pop	{r7, pc}
  89              		.size	port_lock_from_isr, .-port_lock_from_isr
  90              		.section	.text.port_unlock_from_isr,"ax",%progbits
  91              		.align	1
  92              		.syntax unified
  93              		.thumb
  94              		.thumb_func
  95              		.fpu fpv4-sp-d16
  96              		.type	port_unlock_from_isr, %function
  97              	port_unlock_from_isr:
  98              		@ args = 0, pretend = 0, frame = 0
  99              		@ frame_needed = 1, uses_anonymous_args = 0
 100 0000 80B5     		push	{r7, lr}
 101 0002 00AF     		add	r7, sp, #0
 102 0004 FFF7FEFF 		bl	port_unlock
 103 0008 00BF     		nop
 104 000a 80BD     		pop	{r7, pc}
 105              		.size	port_unlock_from_isr, .-port_unlock_from_isr
 106              		.section	.text.chVTGetSystemTimeX,"ax",%progbits
 107              		.align	1
 108              		.syntax unified
 109              		.thumb
 110              		.thumb_func
 111              		.fpu fpv4-sp-d16
 112              		.type	chVTGetSystemTimeX, %function
 113              	chVTGetSystemTimeX:
 114              		@ args = 0, pretend = 0, frame = 0
ARM GAS  /var/folders/d2/nstgp4h54kz7g1l847x_b8wc0000gn/T//ccpe0DT8.s 			page 3


 115              		@ frame_needed = 1, uses_anonymous_args = 0
 116              		@ link register save eliminated.
 117 0000 80B4     		push	{r7}
 118 0002 00AF     		add	r7, sp, #0
 119 0004 034B     		ldr	r3, .L7
 120 0006 9B6A     		ldr	r3, [r3, #40]
 121 0008 1846     		mov	r0, r3
 122 000a BD46     		mov	sp, r7
 123              		@ sp needed
 124 000c 5DF8047B 		ldr	r7, [sp], #4
 125 0010 7047     		bx	lr
 126              	.L8:
 127 0012 00BF     		.align	2
 128              	.L7:
 129 0014 00000000 		.word	ch
 130              		.size	chVTGetSystemTimeX, .-chVTGetSystemTimeX
 131              		.section	.rodata
 132              		.align	2
 133              	.LC0:
 134 0000 53562331 		.ascii	"SV#1\000"
 134      00
 135              		.section	.text._dbg_check_disable,"ax",%progbits
 136              		.align	1
 137              		.global	_dbg_check_disable
 138              		.syntax unified
 139              		.thumb
 140              		.thumb_func
 141              		.fpu fpv4-sp-d16
 142              		.type	_dbg_check_disable, %function
 143              	_dbg_check_disable:
 144              		@ args = 0, pretend = 0, frame = 0
 145              		@ frame_needed = 1, uses_anonymous_args = 0
 146 0000 80B5     		push	{r7, lr}
 147 0002 00AF     		add	r7, sp, #0
 148 0004 064B     		ldr	r3, .L13
 149 0006 1B6B     		ldr	r3, [r3, #48]
 150 0008 002B     		cmp	r3, #0
 151 000a 03D1     		bne	.L10
 152 000c 044B     		ldr	r3, .L13
 153 000e 5B6B     		ldr	r3, [r3, #52]
 154 0010 002B     		cmp	r3, #0
 155 0012 02D0     		beq	.L12
 156              	.L10:
 157 0014 0348     		ldr	r0, .L13+4
 158 0016 FFF7FEFF 		bl	chSysHalt
 159              	.L12:
 160 001a 00BF     		nop
 161 001c 80BD     		pop	{r7, pc}
 162              	.L14:
 163 001e 00BF     		.align	2
 164              	.L13:
 165 0020 00000000 		.word	ch
 166 0024 00000000 		.word	.LC0
 167              		.size	_dbg_check_disable, .-_dbg_check_disable
 168              		.section	.rodata
 169 0005 000000   		.align	2
 170              	.LC1:
ARM GAS  /var/folders/d2/nstgp4h54kz7g1l847x_b8wc0000gn/T//ccpe0DT8.s 			page 4


 171 0008 53562332 		.ascii	"SV#2\000"
 171      00
 172              		.section	.text._dbg_check_suspend,"ax",%progbits
 173              		.align	1
 174              		.global	_dbg_check_suspend
 175              		.syntax unified
 176              		.thumb
 177              		.thumb_func
 178              		.fpu fpv4-sp-d16
 179              		.type	_dbg_check_suspend, %function
 180              	_dbg_check_suspend:
 181              		@ args = 0, pretend = 0, frame = 0
 182              		@ frame_needed = 1, uses_anonymous_args = 0
 183 0000 80B5     		push	{r7, lr}
 184 0002 00AF     		add	r7, sp, #0
 185 0004 064B     		ldr	r3, .L19
 186 0006 1B6B     		ldr	r3, [r3, #48]
 187 0008 002B     		cmp	r3, #0
 188 000a 03D1     		bne	.L16
 189 000c 044B     		ldr	r3, .L19
 190 000e 5B6B     		ldr	r3, [r3, #52]
 191 0010 002B     		cmp	r3, #0
 192 0012 02D0     		beq	.L18
 193              	.L16:
 194 0014 0348     		ldr	r0, .L19+4
 195 0016 FFF7FEFF 		bl	chSysHalt
 196              	.L18:
 197 001a 00BF     		nop
 198 001c 80BD     		pop	{r7, pc}
 199              	.L20:
 200 001e 00BF     		.align	2
 201              	.L19:
 202 0020 00000000 		.word	ch
 203 0024 08000000 		.word	.LC1
 204              		.size	_dbg_check_suspend, .-_dbg_check_suspend
 205              		.section	.rodata
 206 000d 000000   		.align	2
 207              	.LC2:
 208 0010 53562333 		.ascii	"SV#3\000"
 208      00
 209              		.section	.text._dbg_check_enable,"ax",%progbits
 210              		.align	1
 211              		.global	_dbg_check_enable
 212              		.syntax unified
 213              		.thumb
 214              		.thumb_func
 215              		.fpu fpv4-sp-d16
 216              		.type	_dbg_check_enable, %function
 217              	_dbg_check_enable:
 218              		@ args = 0, pretend = 0, frame = 0
 219              		@ frame_needed = 1, uses_anonymous_args = 0
 220 0000 80B5     		push	{r7, lr}
 221 0002 00AF     		add	r7, sp, #0
 222 0004 064B     		ldr	r3, .L25
 223 0006 1B6B     		ldr	r3, [r3, #48]
 224 0008 002B     		cmp	r3, #0
 225 000a 03D1     		bne	.L22
ARM GAS  /var/folders/d2/nstgp4h54kz7g1l847x_b8wc0000gn/T//ccpe0DT8.s 			page 5


 226 000c 044B     		ldr	r3, .L25
 227 000e 5B6B     		ldr	r3, [r3, #52]
 228 0010 002B     		cmp	r3, #0
 229 0012 02D0     		beq	.L24
 230              	.L22:
 231 0014 0348     		ldr	r0, .L25+4
 232 0016 FFF7FEFF 		bl	chSysHalt
 233              	.L24:
 234 001a 00BF     		nop
 235 001c 80BD     		pop	{r7, pc}
 236              	.L26:
 237 001e 00BF     		.align	2
 238              	.L25:
 239 0020 00000000 		.word	ch
 240 0024 10000000 		.word	.LC2
 241              		.size	_dbg_check_enable, .-_dbg_check_enable
 242              		.section	.rodata
 243 0015 000000   		.align	2
 244              	.LC3:
 245 0018 53562334 		.ascii	"SV#4\000"
 245      00
 246              		.section	.text._dbg_check_lock,"ax",%progbits
 247              		.align	1
 248              		.global	_dbg_check_lock
 249              		.syntax unified
 250              		.thumb
 251              		.thumb_func
 252              		.fpu fpv4-sp-d16
 253              		.type	_dbg_check_lock, %function
 254              	_dbg_check_lock:
 255              		@ args = 0, pretend = 0, frame = 0
 256              		@ frame_needed = 1, uses_anonymous_args = 0
 257 0000 80B5     		push	{r7, lr}
 258 0002 00AF     		add	r7, sp, #0
 259 0004 074B     		ldr	r3, .L30
 260 0006 1B6B     		ldr	r3, [r3, #48]
 261 0008 002B     		cmp	r3, #0
 262 000a 03D1     		bne	.L28
 263 000c 054B     		ldr	r3, .L30
 264 000e 5B6B     		ldr	r3, [r3, #52]
 265 0010 002B     		cmp	r3, #0
 266 0012 02D0     		beq	.L29
 267              	.L28:
 268 0014 0448     		ldr	r0, .L30+4
 269 0016 FFF7FEFF 		bl	chSysHalt
 270              	.L29:
 271 001a 024B     		ldr	r3, .L30
 272 001c 0122     		movs	r2, #1
 273 001e 5A63     		str	r2, [r3, #52]
 274 0020 00BF     		nop
 275 0022 80BD     		pop	{r7, pc}
 276              	.L31:
 277              		.align	2
 278              	.L30:
 279 0024 00000000 		.word	ch
 280 0028 18000000 		.word	.LC3
 281              		.size	_dbg_check_lock, .-_dbg_check_lock
ARM GAS  /var/folders/d2/nstgp4h54kz7g1l847x_b8wc0000gn/T//ccpe0DT8.s 			page 6


 282              		.section	.rodata
 283 001d 000000   		.align	2
 284              	.LC4:
 285 0020 53562335 		.ascii	"SV#5\000"
 285      00
 286              		.section	.text._dbg_check_unlock,"ax",%progbits
 287              		.align	1
 288              		.global	_dbg_check_unlock
 289              		.syntax unified
 290              		.thumb
 291              		.thumb_func
 292              		.fpu fpv4-sp-d16
 293              		.type	_dbg_check_unlock, %function
 294              	_dbg_check_unlock:
 295              		@ args = 0, pretend = 0, frame = 0
 296              		@ frame_needed = 1, uses_anonymous_args = 0
 297 0000 80B5     		push	{r7, lr}
 298 0002 00AF     		add	r7, sp, #0
 299 0004 074B     		ldr	r3, .L35
 300 0006 1B6B     		ldr	r3, [r3, #48]
 301 0008 002B     		cmp	r3, #0
 302 000a 03D1     		bne	.L33
 303 000c 054B     		ldr	r3, .L35
 304 000e 5B6B     		ldr	r3, [r3, #52]
 305 0010 002B     		cmp	r3, #0
 306 0012 02DC     		bgt	.L34
 307              	.L33:
 308 0014 0448     		ldr	r0, .L35+4
 309 0016 FFF7FEFF 		bl	chSysHalt
 310              	.L34:
 311 001a 024B     		ldr	r3, .L35
 312 001c 0022     		movs	r2, #0
 313 001e 5A63     		str	r2, [r3, #52]
 314 0020 00BF     		nop
 315 0022 80BD     		pop	{r7, pc}
 316              	.L36:
 317              		.align	2
 318              	.L35:
 319 0024 00000000 		.word	ch
 320 0028 20000000 		.word	.LC4
 321              		.size	_dbg_check_unlock, .-_dbg_check_unlock
 322              		.section	.rodata
 323 0025 000000   		.align	2
 324              	.LC5:
 325 0028 53562336 		.ascii	"SV#6\000"
 325      00
 326              		.section	.text._dbg_check_lock_from_isr,"ax",%progbits
 327              		.align	1
 328              		.global	_dbg_check_lock_from_isr
 329              		.syntax unified
 330              		.thumb
 331              		.thumb_func
 332              		.fpu fpv4-sp-d16
 333              		.type	_dbg_check_lock_from_isr, %function
 334              	_dbg_check_lock_from_isr:
 335              		@ args = 0, pretend = 0, frame = 0
 336              		@ frame_needed = 1, uses_anonymous_args = 0
ARM GAS  /var/folders/d2/nstgp4h54kz7g1l847x_b8wc0000gn/T//ccpe0DT8.s 			page 7


 337 0000 80B5     		push	{r7, lr}
 338 0002 00AF     		add	r7, sp, #0
 339 0004 074B     		ldr	r3, .L40
 340 0006 1B6B     		ldr	r3, [r3, #48]
 341 0008 002B     		cmp	r3, #0
 342 000a 03DD     		ble	.L38
 343 000c 054B     		ldr	r3, .L40
 344 000e 5B6B     		ldr	r3, [r3, #52]
 345 0010 002B     		cmp	r3, #0
 346 0012 02D0     		beq	.L39
 347              	.L38:
 348 0014 0448     		ldr	r0, .L40+4
 349 0016 FFF7FEFF 		bl	chSysHalt
 350              	.L39:
 351 001a 024B     		ldr	r3, .L40
 352 001c 0122     		movs	r2, #1
 353 001e 5A63     		str	r2, [r3, #52]
 354 0020 00BF     		nop
 355 0022 80BD     		pop	{r7, pc}
 356              	.L41:
 357              		.align	2
 358              	.L40:
 359 0024 00000000 		.word	ch
 360 0028 28000000 		.word	.LC5
 361              		.size	_dbg_check_lock_from_isr, .-_dbg_check_lock_from_isr
 362              		.section	.rodata
 363 002d 000000   		.align	2
 364              	.LC6:
 365 0030 53562337 		.ascii	"SV#7\000"
 365      00
 366              		.section	.text._dbg_check_unlock_from_isr,"ax",%progbits
 367              		.align	1
 368              		.global	_dbg_check_unlock_from_isr
 369              		.syntax unified
 370              		.thumb
 371              		.thumb_func
 372              		.fpu fpv4-sp-d16
 373              		.type	_dbg_check_unlock_from_isr, %function
 374              	_dbg_check_unlock_from_isr:
 375              		@ args = 0, pretend = 0, frame = 0
 376              		@ frame_needed = 1, uses_anonymous_args = 0
 377 0000 80B5     		push	{r7, lr}
 378 0002 00AF     		add	r7, sp, #0
 379 0004 074B     		ldr	r3, .L45
 380 0006 1B6B     		ldr	r3, [r3, #48]
 381 0008 002B     		cmp	r3, #0
 382 000a 03DD     		ble	.L43
 383 000c 054B     		ldr	r3, .L45
 384 000e 5B6B     		ldr	r3, [r3, #52]
 385 0010 002B     		cmp	r3, #0
 386 0012 02DC     		bgt	.L44
 387              	.L43:
 388 0014 0448     		ldr	r0, .L45+4
 389 0016 FFF7FEFF 		bl	chSysHalt
 390              	.L44:
 391 001a 024B     		ldr	r3, .L45
 392 001c 0022     		movs	r2, #0
ARM GAS  /var/folders/d2/nstgp4h54kz7g1l847x_b8wc0000gn/T//ccpe0DT8.s 			page 8


 393 001e 5A63     		str	r2, [r3, #52]
 394 0020 00BF     		nop
 395 0022 80BD     		pop	{r7, pc}
 396              	.L46:
 397              		.align	2
 398              	.L45:
 399 0024 00000000 		.word	ch
 400 0028 30000000 		.word	.LC6
 401              		.size	_dbg_check_unlock_from_isr, .-_dbg_check_unlock_from_isr
 402              		.section	.rodata
 403 0035 000000   		.align	2
 404              	.LC7:
 405 0038 53562338 		.ascii	"SV#8\000"
 405      00
 406              		.section	.text._dbg_check_enter_isr,"ax",%progbits
 407              		.align	1
 408              		.global	_dbg_check_enter_isr
 409              		.syntax unified
 410              		.thumb
 411              		.thumb_func
 412              		.fpu fpv4-sp-d16
 413              		.type	_dbg_check_enter_isr, %function
 414              	_dbg_check_enter_isr:
 415              		@ args = 0, pretend = 0, frame = 0
 416              		@ frame_needed = 1, uses_anonymous_args = 0
 417 0000 80B5     		push	{r7, lr}
 418 0002 00AF     		add	r7, sp, #0
 419 0004 FFF7FEFF 		bl	port_lock_from_isr
 420 0008 094B     		ldr	r3, .L50
 421 000a 1B6B     		ldr	r3, [r3, #48]
 422 000c 002B     		cmp	r3, #0
 423 000e 03DB     		blt	.L48
 424 0010 074B     		ldr	r3, .L50
 425 0012 5B6B     		ldr	r3, [r3, #52]
 426 0014 002B     		cmp	r3, #0
 427 0016 02D0     		beq	.L49
 428              	.L48:
 429 0018 0648     		ldr	r0, .L50+4
 430 001a FFF7FEFF 		bl	chSysHalt
 431              	.L49:
 432 001e 044B     		ldr	r3, .L50
 433 0020 1B6B     		ldr	r3, [r3, #48]
 434 0022 0133     		adds	r3, r3, #1
 435 0024 024A     		ldr	r2, .L50
 436 0026 1363     		str	r3, [r2, #48]
 437 0028 FFF7FEFF 		bl	port_unlock_from_isr
 438 002c 00BF     		nop
 439 002e 80BD     		pop	{r7, pc}
 440              	.L51:
 441              		.align	2
 442              	.L50:
 443 0030 00000000 		.word	ch
 444 0034 38000000 		.word	.LC7
 445              		.size	_dbg_check_enter_isr, .-_dbg_check_enter_isr
 446              		.section	.rodata
 447 003d 000000   		.align	2
 448              	.LC8:
ARM GAS  /var/folders/d2/nstgp4h54kz7g1l847x_b8wc0000gn/T//ccpe0DT8.s 			page 9


 449 0040 53562339 		.ascii	"SV#9\000"
 449      00
 450              		.section	.text._dbg_check_leave_isr,"ax",%progbits
 451              		.align	1
 452              		.global	_dbg_check_leave_isr
 453              		.syntax unified
 454              		.thumb
 455              		.thumb_func
 456              		.fpu fpv4-sp-d16
 457              		.type	_dbg_check_leave_isr, %function
 458              	_dbg_check_leave_isr:
 459              		@ args = 0, pretend = 0, frame = 0
 460              		@ frame_needed = 1, uses_anonymous_args = 0
 461 0000 80B5     		push	{r7, lr}
 462 0002 00AF     		add	r7, sp, #0
 463 0004 FFF7FEFF 		bl	port_lock_from_isr
 464 0008 094B     		ldr	r3, .L55
 465 000a 1B6B     		ldr	r3, [r3, #48]
 466 000c 002B     		cmp	r3, #0
 467 000e 03DD     		ble	.L53
 468 0010 074B     		ldr	r3, .L55
 469 0012 5B6B     		ldr	r3, [r3, #52]
 470 0014 002B     		cmp	r3, #0
 471 0016 02D0     		beq	.L54
 472              	.L53:
 473 0018 0648     		ldr	r0, .L55+4
 474 001a FFF7FEFF 		bl	chSysHalt
 475              	.L54:
 476 001e 044B     		ldr	r3, .L55
 477 0020 1B6B     		ldr	r3, [r3, #48]
 478 0022 013B     		subs	r3, r3, #1
 479 0024 024A     		ldr	r2, .L55
 480 0026 1363     		str	r3, [r2, #48]
 481 0028 FFF7FEFF 		bl	port_unlock_from_isr
 482 002c 00BF     		nop
 483 002e 80BD     		pop	{r7, pc}
 484              	.L56:
 485              		.align	2
 486              	.L55:
 487 0030 00000000 		.word	ch
 488 0034 40000000 		.word	.LC8
 489              		.size	_dbg_check_leave_isr, .-_dbg_check_leave_isr
 490              		.section	.rodata
 491 0045 000000   		.align	2
 492              	.LC9:
 493 0048 53562331 		.ascii	"SV#10\000"
 493      3000
 494              		.section	.text.chDbgCheckClassI,"ax",%progbits
 495              		.align	1
 496              		.global	chDbgCheckClassI
 497              		.syntax unified
 498              		.thumb
 499              		.thumb_func
 500              		.fpu fpv4-sp-d16
 501              		.type	chDbgCheckClassI, %function
 502              	chDbgCheckClassI:
 503              		@ args = 0, pretend = 0, frame = 0
ARM GAS  /var/folders/d2/nstgp4h54kz7g1l847x_b8wc0000gn/T//ccpe0DT8.s 			page 10


 504              		@ frame_needed = 1, uses_anonymous_args = 0
 505 0000 80B5     		push	{r7, lr}
 506 0002 00AF     		add	r7, sp, #0
 507 0004 064B     		ldr	r3, .L61
 508 0006 1B6B     		ldr	r3, [r3, #48]
 509 0008 002B     		cmp	r3, #0
 510 000a 03DB     		blt	.L58
 511 000c 044B     		ldr	r3, .L61
 512 000e 5B6B     		ldr	r3, [r3, #52]
 513 0010 002B     		cmp	r3, #0
 514 0012 02DC     		bgt	.L60
 515              	.L58:
 516 0014 0348     		ldr	r0, .L61+4
 517 0016 FFF7FEFF 		bl	chSysHalt
 518              	.L60:
 519 001a 00BF     		nop
 520 001c 80BD     		pop	{r7, pc}
 521              	.L62:
 522 001e 00BF     		.align	2
 523              	.L61:
 524 0020 00000000 		.word	ch
 525 0024 48000000 		.word	.LC9
 526              		.size	chDbgCheckClassI, .-chDbgCheckClassI
 527              		.section	.rodata
 528 004e 0000     		.align	2
 529              	.LC10:
 530 0050 53562331 		.ascii	"SV#11\000"
 530      3100
 531              		.section	.text.chDbgCheckClassS,"ax",%progbits
 532              		.align	1
 533              		.global	chDbgCheckClassS
 534              		.syntax unified
 535              		.thumb
 536              		.thumb_func
 537              		.fpu fpv4-sp-d16
 538              		.type	chDbgCheckClassS, %function
 539              	chDbgCheckClassS:
 540              		@ args = 0, pretend = 0, frame = 0
 541              		@ frame_needed = 1, uses_anonymous_args = 0
 542 0000 80B5     		push	{r7, lr}
 543 0002 00AF     		add	r7, sp, #0
 544 0004 064B     		ldr	r3, .L67
 545 0006 1B6B     		ldr	r3, [r3, #48]
 546 0008 002B     		cmp	r3, #0
 547 000a 03D1     		bne	.L64
 548 000c 044B     		ldr	r3, .L67
 549 000e 5B6B     		ldr	r3, [r3, #52]
 550 0010 002B     		cmp	r3, #0
 551 0012 02DC     		bgt	.L66
 552              	.L64:
 553 0014 0348     		ldr	r0, .L67+4
 554 0016 FFF7FEFF 		bl	chSysHalt
 555              	.L66:
 556 001a 00BF     		nop
 557 001c 80BD     		pop	{r7, pc}
 558              	.L68:
 559 001e 00BF     		.align	2
ARM GAS  /var/folders/d2/nstgp4h54kz7g1l847x_b8wc0000gn/T//ccpe0DT8.s 			page 11


 560              	.L67:
 561 0020 00000000 		.word	ch
 562 0024 50000000 		.word	.LC10
 563              		.size	chDbgCheckClassS, .-chDbgCheckClassS
 564              		.section	.text._dbg_trace_init,"ax",%progbits
 565              		.align	1
 566              		.global	_dbg_trace_init
 567              		.syntax unified
 568              		.thumb
 569              		.thumb_func
 570              		.fpu fpv4-sp-d16
 571              		.type	_dbg_trace_init, %function
 572              	_dbg_trace_init:
 573              		@ args = 0, pretend = 0, frame = 0
 574              		@ frame_needed = 1, uses_anonymous_args = 0
 575              		@ link register save eliminated.
 576 0000 80B4     		push	{r7}
 577 0002 00AF     		add	r7, sp, #0
 578 0004 054B     		ldr	r3, .L70
 579 0006 4022     		movs	r2, #64
 580 0008 9A63     		str	r2, [r3, #56]
 581 000a 044B     		ldr	r3, .L70
 582 000c 044A     		ldr	r2, .L70+4
 583 000e DA63     		str	r2, [r3, #60]
 584 0010 00BF     		nop
 585 0012 BD46     		mov	sp, r7
 586              		@ sp needed
 587 0014 5DF8047B 		ldr	r7, [sp], #4
 588 0018 7047     		bx	lr
 589              	.L71:
 590 001a 00BF     		.align	2
 591              	.L70:
 592 001c 00000000 		.word	ch
 593 0020 40000000 		.word	ch+64
 594              		.size	_dbg_trace_init, .-_dbg_trace_init
 595              		.section	.text._dbg_trace,"ax",%progbits
 596              		.align	1
 597              		.global	_dbg_trace
 598              		.syntax unified
 599              		.thumb
 600              		.thumb_func
 601              		.fpu fpv4-sp-d16
 602              		.type	_dbg_trace, %function
 603              	_dbg_trace:
 604              		@ args = 0, pretend = 0, frame = 8
 605              		@ frame_needed = 1, uses_anonymous_args = 0
 606 0000 90B5     		push	{r4, r7, lr}
 607 0002 83B0     		sub	sp, sp, #12
 608 0004 00AF     		add	r7, sp, #0
 609 0006 7860     		str	r0, [r7, #4]
 610 0008 134B     		ldr	r3, .L75
 611 000a DC6B     		ldr	r4, [r3, #60]
 612 000c FFF7FEFF 		bl	chVTGetSystemTimeX
 613 0010 0346     		mov	r3, r0
 614 0012 2360     		str	r3, [r4]
 615 0014 104B     		ldr	r3, .L75
 616 0016 DB6B     		ldr	r3, [r3, #60]
ARM GAS  /var/folders/d2/nstgp4h54kz7g1l847x_b8wc0000gn/T//ccpe0DT8.s 			page 12


 617 0018 0F4A     		ldr	r2, .L75
 618 001a 9269     		ldr	r2, [r2, #24]
 619 001c 5A60     		str	r2, [r3, #4]
 620 001e 0E4B     		ldr	r3, .L75
 621 0020 DB6B     		ldr	r3, [r3, #60]
 622 0022 7A68     		ldr	r2, [r7, #4]
 623 0024 926A     		ldr	r2, [r2, #40]
 624 0026 9A60     		str	r2, [r3, #8]
 625 0028 0B4B     		ldr	r3, .L75
 626 002a DB6B     		ldr	r3, [r3, #60]
 627 002c 7A68     		ldr	r2, [r7, #4]
 628 002e 92F82020 		ldrb	r2, [r2, #32]	@ zero_extendqisi2
 629 0032 1A73     		strb	r2, [r3, #12]
 630 0034 084B     		ldr	r3, .L75
 631 0036 DB6B     		ldr	r3, [r3, #60]
 632 0038 1033     		adds	r3, r3, #16
 633 003a 074A     		ldr	r2, .L75
 634 003c D363     		str	r3, [r2, #60]
 635 003e 064B     		ldr	r3, .L75
 636 0040 DB6B     		ldr	r3, [r3, #60]
 637 0042 064A     		ldr	r2, .L75+4
 638 0044 9342     		cmp	r3, r2
 639 0046 02D3     		bcc	.L74
 640 0048 034B     		ldr	r3, .L75
 641 004a 054A     		ldr	r2, .L75+8
 642 004c DA63     		str	r2, [r3, #60]
 643              	.L74:
 644 004e 00BF     		nop
 645 0050 0C37     		adds	r7, r7, #12
 646 0052 BD46     		mov	sp, r7
 647              		@ sp needed
 648 0054 90BD     		pop	{r4, r7, pc}
 649              	.L76:
 650 0056 00BF     		.align	2
 651              	.L75:
 652 0058 00000000 		.word	ch
 653 005c 40040000 		.word	ch+1088
 654 0060 40000000 		.word	ch+64
 655              		.size	_dbg_trace, .-_dbg_trace
 656              		.ident	"GCC: (GNU Tools for Arm Embedded Processors 7-2017-q4-major) 7.2.1 20170904 (release) [ARM
ARM GAS  /var/folders/d2/nstgp4h54kz7g1l847x_b8wc0000gn/T//ccpe0DT8.s 			page 13

