ARM GAS  /var/folders/d2/nstgp4h54kz7g1l847x_b8wc0000gn/T//ccy7UWJa.s 			page 1


   1              		.cpu cortex-m4
   2              		.eabi_attribute 27, 1
   3              		.eabi_attribute 28, 1
   4              		.eabi_attribute 20, 1
   5              		.eabi_attribute 21, 1
   6              		.eabi_attribute 23, 3
   7              		.eabi_attribute 24, 1
   8              		.eabi_attribute 25, 1
   9              		.eabi_attribute 26, 1
  10              		.eabi_attribute 30, 2
  11              		.eabi_attribute 34, 1
  12              		.eabi_attribute 18, 4
  13              		.file	"chdebug.c"
  14              		.text
  15              	.Ltext0:
  16              		.cfi_sections	.debug_frame
  17              		.section	.text._dbg_check_disable,"ax",%progbits
  18              		.align	1
  19              		.p2align 4,,15
  20              		.global	_dbg_check_disable
  21              		.syntax unified
  22              		.thumb
  23              		.thumb_func
  24              		.fpu fpv4-sp-d16
  25              		.type	_dbg_check_disable, %function
  26              	_dbg_check_disable:
  27              	.LFB219:
  28              		.file 1 "../e-puck2_main-processor/ChibiOS//os/rt/src/chdebug.c"
  29              		.loc 1 114 0
  30              		.cfi_startproc
  31              		@ args = 0, pretend = 0, frame = 8
  32              		@ frame_needed = 0, uses_anonymous_args = 0
  33 0000 00B5     		push	{lr}
  34              		.cfi_def_cfa_offset 4
  35              		.cfi_offset 14, -4
  36              		.loc 1 116 0
  37 0002 0E4A     		ldr	r2, .L9
  38              		.loc 1 114 0
  39 0004 0E4B     		ldr	r3, .L9+4
  40              		.loc 1 116 0
  41 0006 116B     		ldr	r1, [r2, #48]
  42              		.loc 1 114 0
  43 0008 1868     		ldr	r0, [r3]
  44 000a 83B0     		sub	sp, sp, #12
  45              		.cfi_def_cfa_offset 16
  46              		.loc 1 114 0
  47 000c 0190     		str	r0, [sp, #4]
  48              		.loc 1 116 0
  49 000e 09B9     		cbnz	r1, .L2
  50              		.loc 1 116 0 is_stmt 0 discriminator 1
  51 0010 526B     		ldr	r2, [r2, #52]
  52 0012 4AB1     		cbz	r2, .L1
  53              	.L2:
  54              		.loc 1 117 0 is_stmt 1
  55 0014 019A     		ldr	r2, [sp, #4]
  56 0016 1B68     		ldr	r3, [r3]
  57 0018 9A42     		cmp	r2, r3
ARM GAS  /var/folders/d2/nstgp4h54kz7g1l847x_b8wc0000gn/T//ccy7UWJa.s 			page 2


  58 001a 0CD1     		bne	.L7
  59 001c 0948     		ldr	r0, .L9+8
  60              		.loc 1 119 0
  61 001e 03B0     		add	sp, sp, #12
  62              		.cfi_remember_state
  63              		.cfi_def_cfa_offset 4
  64              		@ sp needed
  65 0020 5DF804EB 		ldr	lr, [sp], #4
  66              		.cfi_restore 14
  67              		.cfi_def_cfa_offset 0
  68              		.loc 1 117 0
  69 0024 FFF7FEBF 		b	chSysHalt
  70              	.LVL0:
  71              	.L1:
  72              		.cfi_restore_state
  73              		.loc 1 119 0
  74 0028 019A     		ldr	r2, [sp, #4]
  75 002a 1B68     		ldr	r3, [r3]
  76 002c 9A42     		cmp	r2, r3
  77 002e 02D1     		bne	.L7
  78 0030 03B0     		add	sp, sp, #12
  79              		.cfi_remember_state
  80              		.cfi_def_cfa_offset 4
  81              		@ sp needed
  82 0032 5DF804FB 		ldr	pc, [sp], #4
  83              	.L7:
  84              		.cfi_restore_state
  85 0036 FFF7FEFF 		bl	__stack_chk_fail
  86              	.LVL1:
  87              	.L10:
  88 003a 00BF     		.align	2
  89              	.L9:
  90 003c 00000000 		.word	ch
  91 0040 00000000 		.word	__stack_chk_guard
  92 0044 00000000 		.word	.LC0
  93              		.cfi_endproc
  94              	.LFE219:
  95              		.size	_dbg_check_disable, .-_dbg_check_disable
  96              		.section	.text._dbg_check_suspend,"ax",%progbits
  97              		.align	1
  98              		.p2align 4,,15
  99              		.global	_dbg_check_suspend
 100              		.syntax unified
 101              		.thumb
 102              		.thumb_func
 103              		.fpu fpv4-sp-d16
 104              		.type	_dbg_check_suspend, %function
 105              	_dbg_check_suspend:
 106              	.LFB220:
 107              		.loc 1 126 0
 108              		.cfi_startproc
 109              		@ args = 0, pretend = 0, frame = 8
 110              		@ frame_needed = 0, uses_anonymous_args = 0
 111 0000 00B5     		push	{lr}
 112              		.cfi_def_cfa_offset 4
 113              		.cfi_offset 14, -4
 114              		.loc 1 128 0
ARM GAS  /var/folders/d2/nstgp4h54kz7g1l847x_b8wc0000gn/T//ccy7UWJa.s 			page 3


 115 0002 0E4A     		ldr	r2, .L18
 116              		.loc 1 126 0
 117 0004 0E4B     		ldr	r3, .L18+4
 118              		.loc 1 128 0
 119 0006 116B     		ldr	r1, [r2, #48]
 120              		.loc 1 126 0
 121 0008 1868     		ldr	r0, [r3]
 122 000a 83B0     		sub	sp, sp, #12
 123              		.cfi_def_cfa_offset 16
 124              		.loc 1 126 0
 125 000c 0190     		str	r0, [sp, #4]
 126              		.loc 1 128 0
 127 000e 09B9     		cbnz	r1, .L12
 128              		.loc 1 128 0 is_stmt 0 discriminator 1
 129 0010 526B     		ldr	r2, [r2, #52]
 130 0012 4AB1     		cbz	r2, .L11
 131              	.L12:
 132              		.loc 1 129 0 is_stmt 1
 133 0014 019A     		ldr	r2, [sp, #4]
 134 0016 1B68     		ldr	r3, [r3]
 135 0018 9A42     		cmp	r2, r3
 136 001a 0CD1     		bne	.L17
 137 001c 0948     		ldr	r0, .L18+8
 138              		.loc 1 131 0
 139 001e 03B0     		add	sp, sp, #12
 140              		.cfi_remember_state
 141              		.cfi_def_cfa_offset 4
 142              		@ sp needed
 143 0020 5DF804EB 		ldr	lr, [sp], #4
 144              		.cfi_restore 14
 145              		.cfi_def_cfa_offset 0
 146              		.loc 1 129 0
 147 0024 FFF7FEBF 		b	chSysHalt
 148              	.LVL2:
 149              	.L11:
 150              		.cfi_restore_state
 151              		.loc 1 131 0
 152 0028 019A     		ldr	r2, [sp, #4]
 153 002a 1B68     		ldr	r3, [r3]
 154 002c 9A42     		cmp	r2, r3
 155 002e 02D1     		bne	.L17
 156 0030 03B0     		add	sp, sp, #12
 157              		.cfi_remember_state
 158              		.cfi_def_cfa_offset 4
 159              		@ sp needed
 160 0032 5DF804FB 		ldr	pc, [sp], #4
 161              	.L17:
 162              		.cfi_restore_state
 163 0036 FFF7FEFF 		bl	__stack_chk_fail
 164              	.LVL3:
 165              	.L19:
 166 003a 00BF     		.align	2
 167              	.L18:
 168 003c 00000000 		.word	ch
 169 0040 00000000 		.word	__stack_chk_guard
 170 0044 00000000 		.word	.LC1
 171              		.cfi_endproc
ARM GAS  /var/folders/d2/nstgp4h54kz7g1l847x_b8wc0000gn/T//ccy7UWJa.s 			page 4


 172              	.LFE220:
 173              		.size	_dbg_check_suspend, .-_dbg_check_suspend
 174              		.section	.text._dbg_check_enable,"ax",%progbits
 175              		.align	1
 176              		.p2align 4,,15
 177              		.global	_dbg_check_enable
 178              		.syntax unified
 179              		.thumb
 180              		.thumb_func
 181              		.fpu fpv4-sp-d16
 182              		.type	_dbg_check_enable, %function
 183              	_dbg_check_enable:
 184              	.LFB221:
 185              		.loc 1 138 0
 186              		.cfi_startproc
 187              		@ args = 0, pretend = 0, frame = 8
 188              		@ frame_needed = 0, uses_anonymous_args = 0
 189 0000 00B5     		push	{lr}
 190              		.cfi_def_cfa_offset 4
 191              		.cfi_offset 14, -4
 192              		.loc 1 140 0
 193 0002 0E4A     		ldr	r2, .L27
 194              		.loc 1 138 0
 195 0004 0E4B     		ldr	r3, .L27+4
 196              		.loc 1 140 0
 197 0006 116B     		ldr	r1, [r2, #48]
 198              		.loc 1 138 0
 199 0008 1868     		ldr	r0, [r3]
 200 000a 83B0     		sub	sp, sp, #12
 201              		.cfi_def_cfa_offset 16
 202              		.loc 1 138 0
 203 000c 0190     		str	r0, [sp, #4]
 204              		.loc 1 140 0
 205 000e 09B9     		cbnz	r1, .L21
 206              		.loc 1 140 0 is_stmt 0 discriminator 1
 207 0010 526B     		ldr	r2, [r2, #52]
 208 0012 4AB1     		cbz	r2, .L20
 209              	.L21:
 210              		.loc 1 141 0 is_stmt 1
 211 0014 019A     		ldr	r2, [sp, #4]
 212 0016 1B68     		ldr	r3, [r3]
 213 0018 9A42     		cmp	r2, r3
 214 001a 0CD1     		bne	.L26
 215 001c 0948     		ldr	r0, .L27+8
 216              		.loc 1 143 0
 217 001e 03B0     		add	sp, sp, #12
 218              		.cfi_remember_state
 219              		.cfi_def_cfa_offset 4
 220              		@ sp needed
 221 0020 5DF804EB 		ldr	lr, [sp], #4
 222              		.cfi_restore 14
 223              		.cfi_def_cfa_offset 0
 224              		.loc 1 141 0
 225 0024 FFF7FEBF 		b	chSysHalt
 226              	.LVL4:
 227              	.L20:
 228              		.cfi_restore_state
ARM GAS  /var/folders/d2/nstgp4h54kz7g1l847x_b8wc0000gn/T//ccy7UWJa.s 			page 5


 229              		.loc 1 143 0
 230 0028 019A     		ldr	r2, [sp, #4]
 231 002a 1B68     		ldr	r3, [r3]
 232 002c 9A42     		cmp	r2, r3
 233 002e 02D1     		bne	.L26
 234 0030 03B0     		add	sp, sp, #12
 235              		.cfi_remember_state
 236              		.cfi_def_cfa_offset 4
 237              		@ sp needed
 238 0032 5DF804FB 		ldr	pc, [sp], #4
 239              	.L26:
 240              		.cfi_restore_state
 241 0036 FFF7FEFF 		bl	__stack_chk_fail
 242              	.LVL5:
 243              	.L28:
 244 003a 00BF     		.align	2
 245              	.L27:
 246 003c 00000000 		.word	ch
 247 0040 00000000 		.word	__stack_chk_guard
 248 0044 00000000 		.word	.LC2
 249              		.cfi_endproc
 250              	.LFE221:
 251              		.size	_dbg_check_enable, .-_dbg_check_enable
 252              		.section	.text._dbg_check_lock,"ax",%progbits
 253              		.align	1
 254              		.p2align 4,,15
 255              		.global	_dbg_check_lock
 256              		.syntax unified
 257              		.thumb
 258              		.thumb_func
 259              		.fpu fpv4-sp-d16
 260              		.type	_dbg_check_lock, %function
 261              	_dbg_check_lock:
 262              	.LFB222:
 263              		.loc 1 150 0
 264              		.cfi_startproc
 265              		@ args = 0, pretend = 0, frame = 8
 266              		@ frame_needed = 0, uses_anonymous_args = 0
 267 0000 30B5     		push	{r4, r5, lr}
 268              		.cfi_def_cfa_offset 12
 269              		.cfi_offset 4, -12
 270              		.cfi_offset 5, -8
 271              		.cfi_offset 14, -4
 272              		.loc 1 152 0
 273 0002 0B4C     		ldr	r4, .L38
 274              		.loc 1 150 0
 275 0004 0B4D     		ldr	r5, .L38+4
 276              		.loc 1 152 0
 277 0006 236B     		ldr	r3, [r4, #48]
 278              		.loc 1 150 0
 279 0008 2A68     		ldr	r2, [r5]
 280 000a 83B0     		sub	sp, sp, #12
 281              		.cfi_def_cfa_offset 24
 282              		.loc 1 150 0
 283 000c 0192     		str	r2, [sp, #4]
 284              		.loc 1 152 0
 285 000e 0BB9     		cbnz	r3, .L30
ARM GAS  /var/folders/d2/nstgp4h54kz7g1l847x_b8wc0000gn/T//ccy7UWJa.s 			page 6


 286              		.loc 1 152 0 is_stmt 0 discriminator 1
 287 0010 636B     		ldr	r3, [r4, #52]
 288 0012 13B1     		cbz	r3, .L31
 289              	.L30:
 290              		.loc 1 153 0 is_stmt 1
 291 0014 0848     		ldr	r0, .L38+8
 292 0016 FFF7FEFF 		bl	chSysHalt
 293              	.LVL6:
 294              	.L31:
 295              		.loc 1 156 0
 296 001a 019A     		ldr	r2, [sp, #4]
 297 001c 2B68     		ldr	r3, [r5]
 298              		.loc 1 155 0
 299 001e 0121     		movs	r1, #1
 300              		.loc 1 156 0
 301 0020 9A42     		cmp	r2, r3
 302              		.loc 1 155 0
 303 0022 6163     		str	r1, [r4, #52]
 304              		.loc 1 156 0
 305 0024 01D1     		bne	.L37
 306 0026 03B0     		add	sp, sp, #12
 307              		.cfi_remember_state
 308              		.cfi_def_cfa_offset 12
 309              		@ sp needed
 310 0028 30BD     		pop	{r4, r5, pc}
 311              	.L37:
 312              		.cfi_restore_state
 313 002a FFF7FEFF 		bl	__stack_chk_fail
 314              	.LVL7:
 315              	.L39:
 316 002e 00BF     		.align	2
 317              	.L38:
 318 0030 00000000 		.word	ch
 319 0034 00000000 		.word	__stack_chk_guard
 320 0038 00000000 		.word	.LC3
 321              		.cfi_endproc
 322              	.LFE222:
 323              		.size	_dbg_check_lock, .-_dbg_check_lock
 324              		.section	.text._dbg_check_unlock,"ax",%progbits
 325              		.align	1
 326              		.p2align 4,,15
 327              		.global	_dbg_check_unlock
 328              		.syntax unified
 329              		.thumb
 330              		.thumb_func
 331              		.fpu fpv4-sp-d16
 332              		.type	_dbg_check_unlock, %function
 333              	_dbg_check_unlock:
 334              	.LFB223:
 335              		.loc 1 163 0
 336              		.cfi_startproc
 337              		@ args = 0, pretend = 0, frame = 8
 338              		@ frame_needed = 0, uses_anonymous_args = 0
 339 0000 30B5     		push	{r4, r5, lr}
 340              		.cfi_def_cfa_offset 12
 341              		.cfi_offset 4, -12
 342              		.cfi_offset 5, -8
ARM GAS  /var/folders/d2/nstgp4h54kz7g1l847x_b8wc0000gn/T//ccy7UWJa.s 			page 7


 343              		.cfi_offset 14, -4
 344              		.loc 1 165 0
 345 0002 0C4C     		ldr	r4, .L46
 346              		.loc 1 163 0
 347 0004 0C4D     		ldr	r5, .L46+4
 348              		.loc 1 165 0
 349 0006 236B     		ldr	r3, [r4, #48]
 350              		.loc 1 163 0
 351 0008 2A68     		ldr	r2, [r5]
 352 000a 83B0     		sub	sp, sp, #12
 353              		.cfi_def_cfa_offset 24
 354              		.loc 1 163 0
 355 000c 0192     		str	r2, [sp, #4]
 356              		.loc 1 165 0
 357 000e 53B9     		cbnz	r3, .L41
 358              		.loc 1 165 0 is_stmt 0 discriminator 1
 359 0010 636B     		ldr	r3, [r4, #52]
 360 0012 002B     		cmp	r3, #0
 361 0014 07DD     		ble	.L41
 362              	.L42:
 363              		.loc 1 169 0 is_stmt 1
 364 0016 019A     		ldr	r2, [sp, #4]
 365 0018 2B68     		ldr	r3, [r5]
 366              		.loc 1 168 0
 367 001a 0021     		movs	r1, #0
 368              		.loc 1 169 0
 369 001c 9A42     		cmp	r2, r3
 370              		.loc 1 168 0
 371 001e 6163     		str	r1, [r4, #52]
 372              		.loc 1 169 0
 373 0020 05D1     		bne	.L45
 374 0022 03B0     		add	sp, sp, #12
 375              		.cfi_remember_state
 376              		.cfi_def_cfa_offset 12
 377              		@ sp needed
 378 0024 30BD     		pop	{r4, r5, pc}
 379              	.L41:
 380              		.cfi_restore_state
 381              		.loc 1 166 0
 382 0026 0548     		ldr	r0, .L46+8
 383 0028 FFF7FEFF 		bl	chSysHalt
 384              	.LVL8:
 385 002c F3E7     		b	.L42
 386              	.L45:
 387              		.loc 1 169 0
 388 002e FFF7FEFF 		bl	__stack_chk_fail
 389              	.LVL9:
 390              	.L47:
 391 0032 00BF     		.align	2
 392              	.L46:
 393 0034 00000000 		.word	ch
 394 0038 00000000 		.word	__stack_chk_guard
 395 003c 00000000 		.word	.LC4
 396              		.cfi_endproc
 397              	.LFE223:
 398              		.size	_dbg_check_unlock, .-_dbg_check_unlock
 399              		.section	.text._dbg_check_lock_from_isr,"ax",%progbits
ARM GAS  /var/folders/d2/nstgp4h54kz7g1l847x_b8wc0000gn/T//ccy7UWJa.s 			page 8


 400              		.align	1
 401              		.p2align 4,,15
 402              		.global	_dbg_check_lock_from_isr
 403              		.syntax unified
 404              		.thumb
 405              		.thumb_func
 406              		.fpu fpv4-sp-d16
 407              		.type	_dbg_check_lock_from_isr, %function
 408              	_dbg_check_lock_from_isr:
 409              	.LFB224:
 410              		.loc 1 176 0
 411              		.cfi_startproc
 412              		@ args = 0, pretend = 0, frame = 8
 413              		@ frame_needed = 0, uses_anonymous_args = 0
 414 0000 30B5     		push	{r4, r5, lr}
 415              		.cfi_def_cfa_offset 12
 416              		.cfi_offset 4, -12
 417              		.cfi_offset 5, -8
 418              		.cfi_offset 14, -4
 419              		.loc 1 178 0
 420 0002 0B4C     		ldr	r4, .L57
 421              		.loc 1 176 0
 422 0004 0B4D     		ldr	r5, .L57+4
 423              		.loc 1 178 0
 424 0006 236B     		ldr	r3, [r4, #48]
 425              		.loc 1 176 0
 426 0008 2A68     		ldr	r2, [r5]
 427 000a 83B0     		sub	sp, sp, #12
 428              		.cfi_def_cfa_offset 24
 429              		.loc 1 178 0
 430 000c 002B     		cmp	r3, #0
 431              		.loc 1 176 0
 432 000e 0192     		str	r2, [sp, #4]
 433              		.loc 1 178 0
 434 0010 01DD     		ble	.L49
 435              		.loc 1 178 0 is_stmt 0 discriminator 1
 436 0012 636B     		ldr	r3, [r4, #52]
 437 0014 13B1     		cbz	r3, .L50
 438              	.L49:
 439              		.loc 1 179 0 is_stmt 1
 440 0016 0848     		ldr	r0, .L57+8
 441 0018 FFF7FEFF 		bl	chSysHalt
 442              	.LVL10:
 443              	.L50:
 444              		.loc 1 182 0
 445 001c 019A     		ldr	r2, [sp, #4]
 446 001e 2B68     		ldr	r3, [r5]
 447              		.loc 1 181 0
 448 0020 0121     		movs	r1, #1
 449              		.loc 1 182 0
 450 0022 9A42     		cmp	r2, r3
 451              		.loc 1 181 0
 452 0024 6163     		str	r1, [r4, #52]
 453              		.loc 1 182 0
 454 0026 01D1     		bne	.L56
 455 0028 03B0     		add	sp, sp, #12
 456              		.cfi_remember_state
ARM GAS  /var/folders/d2/nstgp4h54kz7g1l847x_b8wc0000gn/T//ccy7UWJa.s 			page 9


 457              		.cfi_def_cfa_offset 12
 458              		@ sp needed
 459 002a 30BD     		pop	{r4, r5, pc}
 460              	.L56:
 461              		.cfi_restore_state
 462 002c FFF7FEFF 		bl	__stack_chk_fail
 463              	.LVL11:
 464              	.L58:
 465              		.align	2
 466              	.L57:
 467 0030 00000000 		.word	ch
 468 0034 00000000 		.word	__stack_chk_guard
 469 0038 00000000 		.word	.LC5
 470              		.cfi_endproc
 471              	.LFE224:
 472              		.size	_dbg_check_lock_from_isr, .-_dbg_check_lock_from_isr
 473              		.section	.text._dbg_check_unlock_from_isr,"ax",%progbits
 474              		.align	1
 475              		.p2align 4,,15
 476              		.global	_dbg_check_unlock_from_isr
 477              		.syntax unified
 478              		.thumb
 479              		.thumb_func
 480              		.fpu fpv4-sp-d16
 481              		.type	_dbg_check_unlock_from_isr, %function
 482              	_dbg_check_unlock_from_isr:
 483              	.LFB225:
 484              		.loc 1 189 0
 485              		.cfi_startproc
 486              		@ args = 0, pretend = 0, frame = 8
 487              		@ frame_needed = 0, uses_anonymous_args = 0
 488 0000 30B5     		push	{r4, r5, lr}
 489              		.cfi_def_cfa_offset 12
 490              		.cfi_offset 4, -12
 491              		.cfi_offset 5, -8
 492              		.cfi_offset 14, -4
 493              		.loc 1 191 0
 494 0002 0C4C     		ldr	r4, .L65
 495              		.loc 1 189 0
 496 0004 0C4D     		ldr	r5, .L65+4
 497              		.loc 1 191 0
 498 0006 236B     		ldr	r3, [r4, #48]
 499              		.loc 1 189 0
 500 0008 2A68     		ldr	r2, [r5]
 501 000a 83B0     		sub	sp, sp, #12
 502              		.cfi_def_cfa_offset 24
 503              		.loc 1 191 0
 504 000c 002B     		cmp	r3, #0
 505              		.loc 1 189 0
 506 000e 0192     		str	r2, [sp, #4]
 507              		.loc 1 191 0
 508 0010 0ADD     		ble	.L60
 509              		.loc 1 191 0 is_stmt 0 discriminator 1
 510 0012 636B     		ldr	r3, [r4, #52]
 511 0014 002B     		cmp	r3, #0
 512 0016 07DD     		ble	.L60
 513              	.L61:
ARM GAS  /var/folders/d2/nstgp4h54kz7g1l847x_b8wc0000gn/T//ccy7UWJa.s 			page 10


 514              		.loc 1 195 0 is_stmt 1
 515 0018 019A     		ldr	r2, [sp, #4]
 516 001a 2B68     		ldr	r3, [r5]
 517              		.loc 1 194 0
 518 001c 0021     		movs	r1, #0
 519              		.loc 1 195 0
 520 001e 9A42     		cmp	r2, r3
 521              		.loc 1 194 0
 522 0020 6163     		str	r1, [r4, #52]
 523              		.loc 1 195 0
 524 0022 05D1     		bne	.L64
 525 0024 03B0     		add	sp, sp, #12
 526              		.cfi_remember_state
 527              		.cfi_def_cfa_offset 12
 528              		@ sp needed
 529 0026 30BD     		pop	{r4, r5, pc}
 530              	.L60:
 531              		.cfi_restore_state
 532              		.loc 1 192 0
 533 0028 0448     		ldr	r0, .L65+8
 534 002a FFF7FEFF 		bl	chSysHalt
 535              	.LVL12:
 536 002e F3E7     		b	.L61
 537              	.L64:
 538              		.loc 1 195 0
 539 0030 FFF7FEFF 		bl	__stack_chk_fail
 540              	.LVL13:
 541              	.L66:
 542              		.align	2
 543              	.L65:
 544 0034 00000000 		.word	ch
 545 0038 00000000 		.word	__stack_chk_guard
 546 003c 00000000 		.word	.LC6
 547              		.cfi_endproc
 548              	.LFE225:
 549              		.size	_dbg_check_unlock_from_isr, .-_dbg_check_unlock_from_isr
 550              		.section	.text._dbg_check_enter_isr,"ax",%progbits
 551              		.align	1
 552              		.p2align 4,,15
 553              		.global	_dbg_check_enter_isr
 554              		.syntax unified
 555              		.thumb
 556              		.thumb_func
 557              		.fpu fpv4-sp-d16
 558              		.type	_dbg_check_enter_isr, %function
 559              	_dbg_check_enter_isr:
 560              	.LFB226:
 561              		.loc 1 202 0
 562              		.cfi_startproc
 563              		@ args = 0, pretend = 0, frame = 8
 564              		@ frame_needed = 0, uses_anonymous_args = 0
 565 0000 30B5     		push	{r4, r5, lr}
 566              		.cfi_def_cfa_offset 12
 567              		.cfi_offset 4, -12
 568              		.cfi_offset 5, -8
 569              		.cfi_offset 14, -4
 570 0002 0F4D     		ldr	r5, .L76
ARM GAS  /var/folders/d2/nstgp4h54kz7g1l847x_b8wc0000gn/T//ccy7UWJa.s 			page 11


 571 0004 83B0     		sub	sp, sp, #12
 572              		.cfi_def_cfa_offset 24
 573              		.loc 1 202 0
 574 0006 2B68     		ldr	r3, [r5]
 575 0008 0193     		str	r3, [sp, #4]
 576              	.LVL14:
 577              	.LBB36:
 578              	.LBB37:
 579              	.LBB38:
 580              	.LBB39:
 581              		.file 2 "../e-puck2_main-processor/ChibiOS//os/ext/CMSIS/include/core_cmFunc.h"
 582              		.loc 2 546 0
 583 000a 2023     		movs	r3, #32
 584              		.syntax unified
 585              	@ 546 "../e-puck2_main-processor/ChibiOS//os/ext/CMSIS/include/core_cmFunc.h" 1
 586 000c 83F31188 		MSR basepri, r3
 587              	@ 0 "" 2
 588              	.LVL15:
 589              		.thumb
 590              		.syntax unified
 591              	.LBE39:
 592              	.LBE38:
 593              	.LBE37:
 594              	.LBE36:
 595              		.loc 1 205 0
 596 0010 0C4C     		ldr	r4, .L76+4
 597 0012 236B     		ldr	r3, [r4, #48]
 598 0014 002B     		cmp	r3, #0
 599 0016 01DB     		blt	.L68
 600              		.loc 1 205 0 is_stmt 0 discriminator 1
 601 0018 626B     		ldr	r2, [r4, #52]
 602 001a 1AB1     		cbz	r2, .L69
 603              	.L68:
 604              		.loc 1 206 0 is_stmt 1
 605 001c 0A48     		ldr	r0, .L76+8
 606 001e FFF7FEFF 		bl	chSysHalt
 607              	.LVL16:
 608 0022 236B     		ldr	r3, [r4, #48]
 609              	.L69:
 610              		.loc 1 208 0
 611 0024 0133     		adds	r3, r3, #1
 612 0026 2363     		str	r3, [r4, #48]
 613              	.LVL17:
 614              	.LBB40:
 615              	.LBB41:
 616              	.LBB42:
 617              	.LBB43:
 618              		.loc 2 546 0
 619 0028 0023     		movs	r3, #0
 620              		.syntax unified
 621              	@ 546 "../e-puck2_main-processor/ChibiOS//os/ext/CMSIS/include/core_cmFunc.h" 1
 622 002a 83F31188 		MSR basepri, r3
 623              	@ 0 "" 2
 624              	.LVL18:
 625              		.thumb
 626              		.syntax unified
 627              	.LBE43:
ARM GAS  /var/folders/d2/nstgp4h54kz7g1l847x_b8wc0000gn/T//ccy7UWJa.s 			page 12


 628              	.LBE42:
 629              	.LBE41:
 630              	.LBE40:
 631              		.loc 1 210 0
 632 002e 019A     		ldr	r2, [sp, #4]
 633 0030 2B68     		ldr	r3, [r5]
 634 0032 9A42     		cmp	r2, r3
 635 0034 01D1     		bne	.L75
 636 0036 03B0     		add	sp, sp, #12
 637              		.cfi_remember_state
 638              		.cfi_def_cfa_offset 12
 639              		@ sp needed
 640 0038 30BD     		pop	{r4, r5, pc}
 641              	.L75:
 642              		.cfi_restore_state
 643 003a FFF7FEFF 		bl	__stack_chk_fail
 644              	.LVL19:
 645              	.L77:
 646 003e 00BF     		.align	2
 647              	.L76:
 648 0040 00000000 		.word	__stack_chk_guard
 649 0044 00000000 		.word	ch
 650 0048 00000000 		.word	.LC7
 651              		.cfi_endproc
 652              	.LFE226:
 653              		.size	_dbg_check_enter_isr, .-_dbg_check_enter_isr
 654              		.section	.text._dbg_check_leave_isr,"ax",%progbits
 655              		.align	1
 656              		.p2align 4,,15
 657              		.global	_dbg_check_leave_isr
 658              		.syntax unified
 659              		.thumb
 660              		.thumb_func
 661              		.fpu fpv4-sp-d16
 662              		.type	_dbg_check_leave_isr, %function
 663              	_dbg_check_leave_isr:
 664              	.LFB227:
 665              		.loc 1 217 0
 666              		.cfi_startproc
 667              		@ args = 0, pretend = 0, frame = 8
 668              		@ frame_needed = 0, uses_anonymous_args = 0
 669 0000 30B5     		push	{r4, r5, lr}
 670              		.cfi_def_cfa_offset 12
 671              		.cfi_offset 4, -12
 672              		.cfi_offset 5, -8
 673              		.cfi_offset 14, -4
 674 0002 0F4D     		ldr	r5, .L87
 675 0004 83B0     		sub	sp, sp, #12
 676              		.cfi_def_cfa_offset 24
 677              		.loc 1 217 0
 678 0006 2B68     		ldr	r3, [r5]
 679 0008 0193     		str	r3, [sp, #4]
 680              	.LVL20:
 681              	.LBB44:
 682              	.LBB45:
 683              	.LBB46:
 684              	.LBB47:
ARM GAS  /var/folders/d2/nstgp4h54kz7g1l847x_b8wc0000gn/T//ccy7UWJa.s 			page 13


 685              		.loc 2 546 0
 686 000a 2023     		movs	r3, #32
 687              		.syntax unified
 688              	@ 546 "../e-puck2_main-processor/ChibiOS//os/ext/CMSIS/include/core_cmFunc.h" 1
 689 000c 83F31188 		MSR basepri, r3
 690              	@ 0 "" 2
 691              	.LVL21:
 692              		.thumb
 693              		.syntax unified
 694              	.LBE47:
 695              	.LBE46:
 696              	.LBE45:
 697              	.LBE44:
 698              		.loc 1 220 0
 699 0010 0C4C     		ldr	r4, .L87+4
 700 0012 236B     		ldr	r3, [r4, #48]
 701 0014 002B     		cmp	r3, #0
 702 0016 01DD     		ble	.L79
 703              		.loc 1 220 0 is_stmt 0 discriminator 1
 704 0018 626B     		ldr	r2, [r4, #52]
 705 001a 1AB1     		cbz	r2, .L80
 706              	.L79:
 707              		.loc 1 221 0 is_stmt 1
 708 001c 0A48     		ldr	r0, .L87+8
 709 001e FFF7FEFF 		bl	chSysHalt
 710              	.LVL22:
 711 0022 236B     		ldr	r3, [r4, #48]
 712              	.L80:
 713              		.loc 1 223 0
 714 0024 013B     		subs	r3, r3, #1
 715 0026 2363     		str	r3, [r4, #48]
 716              	.LVL23:
 717              	.LBB48:
 718              	.LBB49:
 719              	.LBB50:
 720              	.LBB51:
 721              		.loc 2 546 0
 722 0028 0023     		movs	r3, #0
 723              		.syntax unified
 724              	@ 546 "../e-puck2_main-processor/ChibiOS//os/ext/CMSIS/include/core_cmFunc.h" 1
 725 002a 83F31188 		MSR basepri, r3
 726              	@ 0 "" 2
 727              	.LVL24:
 728              		.thumb
 729              		.syntax unified
 730              	.LBE51:
 731              	.LBE50:
 732              	.LBE49:
 733              	.LBE48:
 734              		.loc 1 225 0
 735 002e 019A     		ldr	r2, [sp, #4]
 736 0030 2B68     		ldr	r3, [r5]
 737 0032 9A42     		cmp	r2, r3
 738 0034 01D1     		bne	.L86
 739 0036 03B0     		add	sp, sp, #12
 740              		.cfi_remember_state
 741              		.cfi_def_cfa_offset 12
ARM GAS  /var/folders/d2/nstgp4h54kz7g1l847x_b8wc0000gn/T//ccy7UWJa.s 			page 14


 742              		@ sp needed
 743 0038 30BD     		pop	{r4, r5, pc}
 744              	.L86:
 745              		.cfi_restore_state
 746 003a FFF7FEFF 		bl	__stack_chk_fail
 747              	.LVL25:
 748              	.L88:
 749 003e 00BF     		.align	2
 750              	.L87:
 751 0040 00000000 		.word	__stack_chk_guard
 752 0044 00000000 		.word	ch
 753 0048 00000000 		.word	.LC8
 754              		.cfi_endproc
 755              	.LFE227:
 756              		.size	_dbg_check_leave_isr, .-_dbg_check_leave_isr
 757              		.section	.text.chDbgCheckClassI,"ax",%progbits
 758              		.align	1
 759              		.p2align 4,,15
 760              		.global	chDbgCheckClassI
 761              		.syntax unified
 762              		.thumb
 763              		.thumb_func
 764              		.fpu fpv4-sp-d16
 765              		.type	chDbgCheckClassI, %function
 766              	chDbgCheckClassI:
 767              	.LFB228:
 768              		.loc 1 235 0
 769              		.cfi_startproc
 770              		@ args = 0, pretend = 0, frame = 8
 771              		@ frame_needed = 0, uses_anonymous_args = 0
 772 0000 00B5     		push	{lr}
 773              		.cfi_def_cfa_offset 4
 774              		.cfi_offset 14, -4
 775              		.loc 1 237 0
 776 0002 0F4A     		ldr	r2, .L96
 777              		.loc 1 235 0
 778 0004 0F4B     		ldr	r3, .L96+4
 779              		.loc 1 237 0
 780 0006 116B     		ldr	r1, [r2, #48]
 781              		.loc 1 235 0
 782 0008 1868     		ldr	r0, [r3]
 783 000a 83B0     		sub	sp, sp, #12
 784              		.cfi_def_cfa_offset 16
 785              		.loc 1 237 0
 786 000c 0029     		cmp	r1, #0
 787              		.loc 1 235 0
 788 000e 0190     		str	r0, [sp, #4]
 789              		.loc 1 237 0
 790 0010 09DB     		blt	.L90
 791              		.loc 1 237 0 is_stmt 0 discriminator 1
 792 0012 526B     		ldr	r2, [r2, #52]
 793 0014 002A     		cmp	r2, #0
 794 0016 06DD     		ble	.L90
 795              		.loc 1 240 0 is_stmt 1
 796 0018 019A     		ldr	r2, [sp, #4]
 797 001a 1B68     		ldr	r3, [r3]
 798 001c 9A42     		cmp	r2, r3
ARM GAS  /var/folders/d2/nstgp4h54kz7g1l847x_b8wc0000gn/T//ccy7UWJa.s 			page 15


 799 001e 0CD1     		bne	.L95
 800 0020 03B0     		add	sp, sp, #12
 801              		.cfi_remember_state
 802              		.cfi_def_cfa_offset 4
 803              		@ sp needed
 804 0022 5DF804FB 		ldr	pc, [sp], #4
 805              	.L90:
 806              		.cfi_restore_state
 807              		.loc 1 238 0
 808 0026 019A     		ldr	r2, [sp, #4]
 809 0028 1B68     		ldr	r3, [r3]
 810 002a 9A42     		cmp	r2, r3
 811 002c 05D1     		bne	.L95
 812 002e 0648     		ldr	r0, .L96+8
 813              		.loc 1 240 0
 814 0030 03B0     		add	sp, sp, #12
 815              		.cfi_remember_state
 816              		.cfi_def_cfa_offset 4
 817              		@ sp needed
 818 0032 5DF804EB 		ldr	lr, [sp], #4
 819              		.cfi_restore 14
 820              		.cfi_def_cfa_offset 0
 821              		.loc 1 238 0
 822 0036 FFF7FEBF 		b	chSysHalt
 823              	.LVL26:
 824              	.L95:
 825              		.cfi_restore_state
 826              		.loc 1 240 0
 827 003a FFF7FEFF 		bl	__stack_chk_fail
 828              	.LVL27:
 829              	.L97:
 830 003e 00BF     		.align	2
 831              	.L96:
 832 0040 00000000 		.word	ch
 833 0044 00000000 		.word	__stack_chk_guard
 834 0048 00000000 		.word	.LC9
 835              		.cfi_endproc
 836              	.LFE228:
 837              		.size	chDbgCheckClassI, .-chDbgCheckClassI
 838              		.section	.text.chDbgCheckClassS,"ax",%progbits
 839              		.align	1
 840              		.p2align 4,,15
 841              		.global	chDbgCheckClassS
 842              		.syntax unified
 843              		.thumb
 844              		.thumb_func
 845              		.fpu fpv4-sp-d16
 846              		.type	chDbgCheckClassS, %function
 847              	chDbgCheckClassS:
 848              	.LFB229:
 849              		.loc 1 250 0
 850              		.cfi_startproc
 851              		@ args = 0, pretend = 0, frame = 8
 852              		@ frame_needed = 0, uses_anonymous_args = 0
 853 0000 00B5     		push	{lr}
 854              		.cfi_def_cfa_offset 4
 855              		.cfi_offset 14, -4
ARM GAS  /var/folders/d2/nstgp4h54kz7g1l847x_b8wc0000gn/T//ccy7UWJa.s 			page 16


 856              		.loc 1 252 0
 857 0002 0E4A     		ldr	r2, .L105
 858              		.loc 1 250 0
 859 0004 0E4B     		ldr	r3, .L105+4
 860              		.loc 1 252 0
 861 0006 116B     		ldr	r1, [r2, #48]
 862              		.loc 1 250 0
 863 0008 1868     		ldr	r0, [r3]
 864 000a 83B0     		sub	sp, sp, #12
 865              		.cfi_def_cfa_offset 16
 866              		.loc 1 250 0
 867 000c 0190     		str	r0, [sp, #4]
 868              		.loc 1 252 0
 869 000e 49B9     		cbnz	r1, .L99
 870              		.loc 1 252 0 is_stmt 0 discriminator 1
 871 0010 526B     		ldr	r2, [r2, #52]
 872 0012 002A     		cmp	r2, #0
 873 0014 06DD     		ble	.L99
 874              		.loc 1 255 0 is_stmt 1
 875 0016 019A     		ldr	r2, [sp, #4]
 876 0018 1B68     		ldr	r3, [r3]
 877 001a 9A42     		cmp	r2, r3
 878 001c 0CD1     		bne	.L104
 879 001e 03B0     		add	sp, sp, #12
 880              		.cfi_remember_state
 881              		.cfi_def_cfa_offset 4
 882              		@ sp needed
 883 0020 5DF804FB 		ldr	pc, [sp], #4
 884              	.L99:
 885              		.cfi_restore_state
 886              		.loc 1 253 0
 887 0024 019A     		ldr	r2, [sp, #4]
 888 0026 1B68     		ldr	r3, [r3]
 889 0028 9A42     		cmp	r2, r3
 890 002a 05D1     		bne	.L104
 891 002c 0548     		ldr	r0, .L105+8
 892              		.loc 1 255 0
 893 002e 03B0     		add	sp, sp, #12
 894              		.cfi_remember_state
 895              		.cfi_def_cfa_offset 4
 896              		@ sp needed
 897 0030 5DF804EB 		ldr	lr, [sp], #4
 898              		.cfi_restore 14
 899              		.cfi_def_cfa_offset 0
 900              		.loc 1 253 0
 901 0034 FFF7FEBF 		b	chSysHalt
 902              	.LVL28:
 903              	.L104:
 904              		.cfi_restore_state
 905              		.loc 1 255 0
 906 0038 FFF7FEFF 		bl	__stack_chk_fail
 907              	.LVL29:
 908              	.L106:
 909              		.align	2
 910              	.L105:
 911 003c 00000000 		.word	ch
 912 0040 00000000 		.word	__stack_chk_guard
ARM GAS  /var/folders/d2/nstgp4h54kz7g1l847x_b8wc0000gn/T//ccy7UWJa.s 			page 17


 913 0044 00000000 		.word	.LC10
 914              		.cfi_endproc
 915              	.LFE229:
 916              		.size	chDbgCheckClassS, .-chDbgCheckClassS
 917              		.section	.text._dbg_trace_init,"ax",%progbits
 918              		.align	1
 919              		.p2align 4,,15
 920              		.global	_dbg_trace_init
 921              		.syntax unified
 922              		.thumb
 923              		.thumb_func
 924              		.fpu fpv4-sp-d16
 925              		.type	_dbg_trace_init, %function
 926              	_dbg_trace_init:
 927              	.LFB230:
 928              		.loc 1 264 0
 929              		.cfi_startproc
 930              		@ args = 0, pretend = 0, frame = 8
 931              		@ frame_needed = 0, uses_anonymous_args = 0
 932 0000 10B5     		push	{r4, lr}
 933              		.cfi_def_cfa_offset 8
 934              		.cfi_offset 4, -8
 935              		.cfi_offset 14, -4
 936 0002 084A     		ldr	r2, .L111
 937              		.loc 1 266 0
 938 0004 084B     		ldr	r3, .L111+4
 939              		.loc 1 264 0
 940 0006 1168     		ldr	r1, [r2]
 941 0008 82B0     		sub	sp, sp, #8
 942              		.cfi_def_cfa_offset 16
 943              		.loc 1 266 0
 944 000a 4024     		movs	r4, #64
 945              		.loc 1 264 0
 946 000c 0191     		str	r1, [sp, #4]
 947              		.loc 1 268 0
 948 000e 0199     		ldr	r1, [sp, #4]
 949 0010 1268     		ldr	r2, [r2]
 950              		.loc 1 267 0
 951 0012 1819     		adds	r0, r3, r4
 952              		.loc 1 268 0
 953 0014 9142     		cmp	r1, r2
 954              		.loc 1 267 0
 955 0016 C3E90E40 		strd	r4, r0, [r3, #56]
 956              		.loc 1 268 0
 957 001a 01D1     		bne	.L110
 958 001c 02B0     		add	sp, sp, #8
 959              		.cfi_remember_state
 960              		.cfi_def_cfa_offset 8
 961              		@ sp needed
 962 001e 10BD     		pop	{r4, pc}
 963              	.L110:
 964              		.cfi_restore_state
 965 0020 FFF7FEFF 		bl	__stack_chk_fail
 966              	.LVL30:
 967              	.L112:
 968              		.align	2
 969              	.L111:
ARM GAS  /var/folders/d2/nstgp4h54kz7g1l847x_b8wc0000gn/T//ccy7UWJa.s 			page 18


 970 0024 00000000 		.word	__stack_chk_guard
 971 0028 00000000 		.word	ch
 972              		.cfi_endproc
 973              	.LFE230:
 974              		.size	_dbg_trace_init, .-_dbg_trace_init
 975              		.section	.text._dbg_trace,"ax",%progbits
 976              		.align	1
 977              		.p2align 4,,15
 978              		.global	_dbg_trace
 979              		.syntax unified
 980              		.thumb
 981              		.thumb_func
 982              		.fpu fpv4-sp-d16
 983              		.type	_dbg_trace, %function
 984              	_dbg_trace:
 985              	.LFB231:
 986              		.loc 1 277 0
 987              		.cfi_startproc
 988              		@ args = 0, pretend = 0, frame = 8
 989              		@ frame_needed = 0, uses_anonymous_args = 0
 990              	.LVL31:
 991 0000 10B5     		push	{r4, lr}
 992              		.cfi_def_cfa_offset 8
 993              		.cfi_offset 4, -8
 994              		.cfi_offset 14, -4
 995 0002 1149     		ldr	r1, .L120
 996              		.loc 1 279 0
 997 0004 114B     		ldr	r3, .L120+4
 998              		.loc 1 277 0
 999 0006 0A68     		ldr	r2, [r1]
 1000 0008 82B0     		sub	sp, sp, #8
 1001              		.cfi_def_cfa_offset 16
 1002              		.loc 1 277 0
 1003 000a 0192     		str	r2, [sp, #4]
 1004              		.loc 1 279 0
 1005 000c DA6B     		ldr	r2, [r3, #60]
 1006              	.LBB52:
 1007              	.LBB53:
 1008              		.file 3 "../e-puck2_main-processor/ChibiOS//os/rt/include/chvt.h"
 1009              		.loc 3 231 0
 1010 000e 9C6A     		ldr	r4, [r3, #40]
 1011              	.LBE53:
 1012              	.LBE52:
 1013              		.loc 1 279 0
 1014 0010 1460     		str	r4, [r2]
 1015              		.loc 1 280 0
 1016 0012 DA6B     		ldr	r2, [r3, #60]
 1017 0014 9C69     		ldr	r4, [r3, #24]
 1018 0016 5460     		str	r4, [r2, #4]
 1019              		.loc 1 281 0
 1020 0018 DA6B     		ldr	r2, [r3, #60]
 1021 001a 846A     		ldr	r4, [r0, #40]
 1022 001c 9460     		str	r4, [r2, #8]
 1023              		.loc 1 282 0
 1024 001e DA6B     		ldr	r2, [r3, #60]
 1025 0020 90F82000 		ldrb	r0, [r0, #32]	@ zero_extendqisi2
 1026              	.LVL32:
ARM GAS  /var/folders/d2/nstgp4h54kz7g1l847x_b8wc0000gn/T//ccy7UWJa.s 			page 19


 1027 0024 1073     		strb	r0, [r2, #12]
 1028              		.loc 1 283 0
 1029 0026 DA6B     		ldr	r2, [r3, #60]
 1030 0028 03F58860 		add	r0, r3, #1088
 1031 002c 1032     		adds	r2, r2, #16
 1032 002e 8242     		cmp	r2, r0
 1033              		.loc 1 285 0
 1034 0030 28BF     		it	cs
 1035 0032 03F14002 		addcs	r2, r3, #64
 1036 0036 DA63     		str	r2, [r3, #60]
 1037              		.loc 1 287 0
 1038 0038 019A     		ldr	r2, [sp, #4]
 1039 003a 0B68     		ldr	r3, [r1]
 1040 003c 9A42     		cmp	r2, r3
 1041 003e 01D1     		bne	.L119
 1042 0040 02B0     		add	sp, sp, #8
 1043              		.cfi_remember_state
 1044              		.cfi_def_cfa_offset 8
 1045              		@ sp needed
 1046 0042 10BD     		pop	{r4, pc}
 1047              	.L119:
 1048              		.cfi_restore_state
 1049 0044 FFF7FEFF 		bl	__stack_chk_fail
 1050              	.LVL33:
 1051              	.L121:
 1052              		.align	2
 1053              	.L120:
 1054 0048 00000000 		.word	__stack_chk_guard
 1055 004c 00000000 		.word	ch
 1056              		.cfi_endproc
 1057              	.LFE231:
 1058              		.size	_dbg_trace, .-_dbg_trace
 1059              		.section	.rodata._dbg_check_disable.str1.4,"aMS",%progbits,1
 1060              		.align	2
 1061              	.LC0:
 1062 0000 53562331 		.ascii	"SV#1\000"
 1062      00
 1063              		.section	.rodata._dbg_check_enable.str1.4,"aMS",%progbits,1
 1064              		.align	2
 1065              	.LC2:
 1066 0000 53562333 		.ascii	"SV#3\000"
 1066      00
 1067              		.section	.rodata._dbg_check_enter_isr.str1.4,"aMS",%progbits,1
 1068              		.align	2
 1069              	.LC7:
 1070 0000 53562338 		.ascii	"SV#8\000"
 1070      00
 1071              		.section	.rodata._dbg_check_leave_isr.str1.4,"aMS",%progbits,1
 1072              		.align	2
 1073              	.LC8:
 1074 0000 53562339 		.ascii	"SV#9\000"
 1074      00
 1075              		.section	.rodata._dbg_check_lock.str1.4,"aMS",%progbits,1
 1076              		.align	2
 1077              	.LC3:
 1078 0000 53562334 		.ascii	"SV#4\000"
 1078      00
ARM GAS  /var/folders/d2/nstgp4h54kz7g1l847x_b8wc0000gn/T//ccy7UWJa.s 			page 20


 1079              		.section	.rodata._dbg_check_lock_from_isr.str1.4,"aMS",%progbits,1
 1080              		.align	2
 1081              	.LC5:
 1082 0000 53562336 		.ascii	"SV#6\000"
 1082      00
 1083              		.section	.rodata._dbg_check_suspend.str1.4,"aMS",%progbits,1
 1084              		.align	2
 1085              	.LC1:
 1086 0000 53562332 		.ascii	"SV#2\000"
 1086      00
 1087              		.section	.rodata._dbg_check_unlock.str1.4,"aMS",%progbits,1
 1088              		.align	2
 1089              	.LC4:
 1090 0000 53562335 		.ascii	"SV#5\000"
 1090      00
 1091              		.section	.rodata._dbg_check_unlock_from_isr.str1.4,"aMS",%progbits,1
 1092              		.align	2
 1093              	.LC6:
 1094 0000 53562337 		.ascii	"SV#7\000"
 1094      00
 1095              		.section	.rodata.chDbgCheckClassI.str1.4,"aMS",%progbits,1
 1096              		.align	2
 1097              	.LC9:
 1098 0000 53562331 		.ascii	"SV#10\000"
 1098      3000
 1099              		.section	.rodata.chDbgCheckClassS.str1.4,"aMS",%progbits,1
 1100              		.align	2
 1101              	.LC10:
 1102 0000 53562331 		.ascii	"SV#11\000"
 1102      3100
 1103              		.text
 1104              	.Letext0:
 1105              		.file 4 "/Applications/Eclipse_e-puck2.app/Contents/Eclipse_e-puck2/Tools/gcc-arm-none-eabi-7-2017
 1106              		.file 5 "/Applications/Eclipse_e-puck2.app/Contents/Eclipse_e-puck2/Tools/gcc-arm-none-eabi-7-2017
 1107              		.file 6 "../e-puck2_main-processor/ChibiOS//os/rt/ports/ARMCMx/compilers/GCC/chtypes.h"
 1108              		.file 7 "../e-puck2_main-processor/ChibiOS//os/rt/include/chsystypes.h"
 1109              		.file 8 "../e-puck2_main-processor/ChibiOS//os/rt/include/chschd.h"
 1110              		.file 9 "../e-puck2_main-processor/ChibiOS//os/ext/CMSIS/include/core_cm4.h"
 1111              		.file 10 "../e-puck2_main-processor/ChibiOS//os/ext/CMSIS/ST/system_stm32f4xx.h"
 1112              		.file 11 "../e-puck2_main-processor/ChibiOS//os/rt/ports/ARMCMx/chcore.h"
 1113              		.file 12 "../e-puck2_main-processor/ChibiOS//os/rt/ports/ARMCMx/chcore_v7m.h"
 1114              		.file 13 "../e-puck2_main-processor/ChibiOS//os/rt/include/chdebug.h"
 1115              		.file 14 "../e-puck2_main-processor/ChibiOS//os/rt/include/chtm.h"
 1116              		.file 15 "../e-puck2_main-processor/ChibiOS//os/rt/include/chstats.h"
 1117              		.file 16 "../e-puck2_main-processor/ChibiOS//os/rt/include/chsem.h"
 1118              		.file 17 "../e-puck2_main-processor/ChibiOS//os/rt/include/chmtx.h"
 1119              		.file 18 "../e-puck2_main-processor/ChibiOS//os/rt/include/chregistry.h"
 1120              		.file 19 "../e-puck2_main-processor/ChibiOS//os/rt/include/chsys.h"
 1121              		.section	.debug_info,"",%progbits
 1122              	.Ldebug_info0:
 1123 0000 F60D0000 		.4byte	0xdf6
 1124 0004 0400     		.2byte	0x4
 1125 0006 00000000 		.4byte	.Ldebug_abbrev0
 1126 000a 04       		.byte	0x4
 1127 000b 01       		.uleb128 0x1
 1128 000c F1020000 		.4byte	.LASF173
 1129 0010 0C       		.byte	0xc
ARM GAS  /var/folders/d2/nstgp4h54kz7g1l847x_b8wc0000gn/T//ccy7UWJa.s 			page 21


 1130 0011 A3060000 		.4byte	.LASF174
 1131 0015 0D000000 		.4byte	.LASF175
 1132 0019 00000000 		.4byte	.Ldebug_ranges0+0
 1133 001d 00000000 		.4byte	0
 1134 0021 00000000 		.4byte	.Ldebug_line0
 1135 0025 02       		.uleb128 0x2
 1136 0026 04       		.byte	0x4
 1137 0027 05       		.byte	0x5
 1138 0028 696E7400 		.ascii	"int\000"
 1139 002c 03       		.uleb128 0x3
 1140 002d 04       		.byte	0x4
 1141 002e 07       		.byte	0x7
 1142 002f E4020000 		.4byte	.LASF0
 1143 0033 03       		.uleb128 0x3
 1144 0034 08       		.byte	0x8
 1145 0035 05       		.byte	0x5
 1146 0036 94010000 		.4byte	.LASF1
 1147 003a 03       		.uleb128 0x3
 1148 003b 08       		.byte	0x8
 1149 003c 04       		.byte	0x4
 1150 003d B1050000 		.4byte	.LASF2
 1151 0041 03       		.uleb128 0x3
 1152 0042 01       		.byte	0x1
 1153 0043 06       		.byte	0x6
 1154 0044 A2010000 		.4byte	.LASF3
 1155 0048 04       		.uleb128 0x4
 1156 0049 9E000000 		.4byte	.LASF6
 1157 004d 04       		.byte	0x4
 1158 004e 2B       		.byte	0x2b
 1159 004f 53000000 		.4byte	0x53
 1160 0053 03       		.uleb128 0x3
 1161 0054 01       		.byte	0x1
 1162 0055 08       		.byte	0x8
 1163 0056 E2060000 		.4byte	.LASF4
 1164 005a 03       		.uleb128 0x3
 1165 005b 02       		.byte	0x2
 1166 005c 05       		.byte	0x5
 1167 005d 0A070000 		.4byte	.LASF5
 1168 0061 04       		.uleb128 0x4
 1169 0062 14080000 		.4byte	.LASF7
 1170 0066 04       		.byte	0x4
 1171 0067 39       		.byte	0x39
 1172 0068 6C000000 		.4byte	0x6c
 1173 006c 03       		.uleb128 0x3
 1174 006d 02       		.byte	0x2
 1175 006e 07       		.byte	0x7
 1176 006f 93040000 		.4byte	.LASF8
 1177 0073 04       		.uleb128 0x4
 1178 0074 42010000 		.4byte	.LASF9
 1179 0078 04       		.byte	0x4
 1180 0079 4D       		.byte	0x4d
 1181 007a 7E000000 		.4byte	0x7e
 1182 007e 03       		.uleb128 0x3
 1183 007f 04       		.byte	0x4
 1184 0080 05       		.byte	0x5
 1185 0081 14020000 		.4byte	.LASF10
 1186 0085 04       		.uleb128 0x4
ARM GAS  /var/folders/d2/nstgp4h54kz7g1l847x_b8wc0000gn/T//ccy7UWJa.s 			page 22


 1187 0086 67080000 		.4byte	.LASF11
 1188 008a 04       		.byte	0x4
 1189 008b 4F       		.byte	0x4f
 1190 008c 90000000 		.4byte	0x90
 1191 0090 03       		.uleb128 0x3
 1192 0091 04       		.byte	0x4
 1193 0092 07       		.byte	0x7
 1194 0093 F6070000 		.4byte	.LASF12
 1195 0097 04       		.uleb128 0x4
 1196 0098 51060000 		.4byte	.LASF13
 1197 009c 04       		.byte	0x4
 1198 009d 69       		.byte	0x69
 1199 009e A2000000 		.4byte	0xa2
 1200 00a2 03       		.uleb128 0x3
 1201 00a3 08       		.byte	0x8
 1202 00a4 07       		.byte	0x7
 1203 00a5 F7000000 		.4byte	.LASF14
 1204 00a9 04       		.uleb128 0x4
 1205 00aa 11090000 		.4byte	.LASF15
 1206 00ae 05       		.byte	0x5
 1207 00af 18       		.byte	0x18
 1208 00b0 48000000 		.4byte	0x48
 1209 00b4 04       		.uleb128 0x4
 1210 00b5 35040000 		.4byte	.LASF16
 1211 00b9 05       		.byte	0x5
 1212 00ba 24       		.byte	0x24
 1213 00bb 61000000 		.4byte	0x61
 1214 00bf 04       		.uleb128 0x4
 1215 00c0 DA060000 		.4byte	.LASF17
 1216 00c4 05       		.byte	0x5
 1217 00c5 2C       		.byte	0x2c
 1218 00c6 73000000 		.4byte	0x73
 1219 00ca 05       		.uleb128 0x5
 1220 00cb BF000000 		.4byte	0xbf
 1221 00cf 04       		.uleb128 0x4
 1222 00d0 C1070000 		.4byte	.LASF18
 1223 00d4 05       		.byte	0x5
 1224 00d5 30       		.byte	0x30
 1225 00d6 85000000 		.4byte	0x85
 1226 00da 04       		.uleb128 0x4
 1227 00db 88000000 		.4byte	.LASF19
 1228 00df 05       		.byte	0x5
 1229 00e0 3C       		.byte	0x3c
 1230 00e1 97000000 		.4byte	0x97
 1231 00e5 04       		.uleb128 0x4
 1232 00e6 82050000 		.4byte	.LASF20
 1233 00ea 06       		.byte	0x6
 1234 00eb 45       		.byte	0x45
 1235 00ec CF000000 		.4byte	0xcf
 1236 00f0 04       		.uleb128 0x4
 1237 00f1 6F010000 		.4byte	.LASF21
 1238 00f5 06       		.byte	0x6
 1239 00f6 46       		.byte	0x46
 1240 00f7 DA000000 		.4byte	0xda
 1241 00fb 04       		.uleb128 0x4
 1242 00fc 43070000 		.4byte	.LASF22
 1243 0100 06       		.byte	0x6
ARM GAS  /var/folders/d2/nstgp4h54kz7g1l847x_b8wc0000gn/T//ccy7UWJa.s 			page 23


 1244 0101 48       		.byte	0x48
 1245 0102 A9000000 		.4byte	0xa9
 1246 0106 04       		.uleb128 0x4
 1247 0107 30020000 		.4byte	.LASF23
 1248 010b 06       		.byte	0x6
 1249 010c 49       		.byte	0x49
 1250 010d A9000000 		.4byte	0xa9
 1251 0111 04       		.uleb128 0x4
 1252 0112 67060000 		.4byte	.LASF24
 1253 0116 06       		.byte	0x6
 1254 0117 4A       		.byte	0x4a
 1255 0118 A9000000 		.4byte	0xa9
 1256 011c 04       		.uleb128 0x4
 1257 011d EE010000 		.4byte	.LASF25
 1258 0121 06       		.byte	0x6
 1259 0122 4B       		.byte	0x4b
 1260 0123 A9000000 		.4byte	0xa9
 1261 0127 04       		.uleb128 0x4
 1262 0128 9B060000 		.4byte	.LASF26
 1263 012c 06       		.byte	0x6
 1264 012d 4C       		.byte	0x4c
 1265 012e CF000000 		.4byte	0xcf
 1266 0132 04       		.uleb128 0x4
 1267 0133 BF040000 		.4byte	.LASF27
 1268 0137 06       		.byte	0x6
 1269 0138 4D       		.byte	0x4d
 1270 0139 BF000000 		.4byte	0xbf
 1271 013d 04       		.uleb128 0x4
 1272 013e 2B050000 		.4byte	.LASF28
 1273 0142 06       		.byte	0x6
 1274 0143 4F       		.byte	0x4f
 1275 0144 CF000000 		.4byte	0xcf
 1276 0148 04       		.uleb128 0x4
 1277 0149 C0020000 		.4byte	.LASF29
 1278 014d 06       		.byte	0x6
 1279 014e 51       		.byte	0x51
 1280 014f BF000000 		.4byte	0xbf
 1281 0153 04       		.uleb128 0x4
 1282 0154 CA040000 		.4byte	.LASF30
 1283 0158 06       		.byte	0x6
 1284 0159 52       		.byte	0x52
 1285 015a CF000000 		.4byte	0xcf
 1286 015e 04       		.uleb128 0x4
 1287 015f 49080000 		.4byte	.LASF31
 1288 0163 07       		.byte	0x7
 1289 0164 33       		.byte	0x33
 1290 0165 CF000000 		.4byte	0xcf
 1291 0169 05       		.uleb128 0x5
 1292 016a 5E010000 		.4byte	0x15e
 1293 016e 04       		.uleb128 0x4
 1294 016f 34080000 		.4byte	.LASF32
 1295 0173 07       		.byte	0x7
 1296 0174 3F       		.byte	0x3f
 1297 0175 79010000 		.4byte	0x179
 1298 0179 06       		.uleb128 0x6
 1299 017a B5040000 		.4byte	.LASF56
 1300 017e 68       		.byte	0x68
ARM GAS  /var/folders/d2/nstgp4h54kz7g1l847x_b8wc0000gn/T//ccy7UWJa.s 			page 24


 1301 017f 08       		.byte	0x8
 1302 0180 C2       		.byte	0xc2
 1303 0181 97020000 		.4byte	0x297
 1304 0185 07       		.uleb128 0x7
 1305 0186 3C070000 		.4byte	.LASF33
 1306 018a 08       		.byte	0x8
 1307 018b C3       		.byte	0xc3
 1308 018c A2020000 		.4byte	0x2a2
 1309 0190 00       		.byte	0
 1310 0191 07       		.uleb128 0x7
 1311 0192 94060000 		.4byte	.LASF34
 1312 0196 08       		.byte	0x8
 1313 0197 C5       		.byte	0xc5
 1314 0198 A2020000 		.4byte	0x2a2
 1315 019c 04       		.byte	0x4
 1316 019d 07       		.uleb128 0x7
 1317 019e 78010000 		.4byte	.LASF35
 1318 01a2 08       		.byte	0x8
 1319 01a3 C7       		.byte	0xc7
 1320 01a4 27010000 		.4byte	0x127
 1321 01a8 08       		.byte	0x8
 1322 01a9 07       		.uleb128 0x7
 1323 01aa 0F060000 		.4byte	.LASF36
 1324 01ae 08       		.byte	0x8
 1325 01af C8       		.byte	0xc8
 1326 01b0 1B050000 		.4byte	0x51b
 1327 01b4 0C       		.byte	0xc
 1328 01b5 07       		.uleb128 0x7
 1329 01b6 49020000 		.4byte	.LASF37
 1330 01ba 08       		.byte	0x8
 1331 01bb CA       		.byte	0xca
 1332 01bc A2020000 		.4byte	0x2a2
 1333 01c0 10       		.byte	0x10
 1334 01c1 07       		.uleb128 0x7
 1335 01c2 26070000 		.4byte	.LASF38
 1336 01c6 08       		.byte	0x8
 1337 01c7 CB       		.byte	0xcb
 1338 01c8 A2020000 		.4byte	0x2a2
 1339 01cc 14       		.byte	0x14
 1340 01cd 07       		.uleb128 0x7
 1341 01ce 45090000 		.4byte	.LASF39
 1342 01d2 08       		.byte	0x8
 1343 01d3 D2       		.byte	0xd2
 1344 01d4 91080000 		.4byte	0x891
 1345 01d8 18       		.byte	0x18
 1346 01d9 07       		.uleb128 0x7
 1347 01da D9020000 		.4byte	.LASF40
 1348 01de 08       		.byte	0x8
 1349 01df D8       		.byte	0xd8
 1350 01e0 A8080000 		.4byte	0x8a8
 1351 01e4 1C       		.byte	0x1c
 1352 01e5 07       		.uleb128 0x7
 1353 01e6 14070000 		.4byte	.LASF41
 1354 01ea 08       		.byte	0x8
 1355 01eb DD       		.byte	0xdd
 1356 01ec 06010000 		.4byte	0x106
 1357 01f0 20       		.byte	0x20
ARM GAS  /var/folders/d2/nstgp4h54kz7g1l847x_b8wc0000gn/T//ccy7UWJa.s 			page 25


 1358 01f1 07       		.uleb128 0x7
 1359 01f2 5A070000 		.4byte	.LASF42
 1360 01f6 08       		.byte	0x8
 1361 01f7 E1       		.byte	0xe1
 1362 01f8 FB000000 		.4byte	0xfb
 1363 01fc 21       		.byte	0x21
 1364 01fd 07       		.uleb128 0x7
 1365 01fe F3080000 		.4byte	.LASF43
 1366 0202 08       		.byte	0x8
 1367 0203 E6       		.byte	0xe6
 1368 0204 11010000 		.4byte	0x111
 1369 0208 22       		.byte	0x22
 1370 0209 07       		.uleb128 0x7
 1371 020a 1C070000 		.4byte	.LASF44
 1372 020e 08       		.byte	0x8
 1373 020f EC       		.byte	0xec
 1374 0210 1C010000 		.4byte	0x11c
 1375 0214 23       		.byte	0x23
 1376 0215 07       		.uleb128 0x7
 1377 0216 0B050000 		.4byte	.LASF45
 1378 021a 08       		.byte	0x8
 1379 021b F3       		.byte	0xf3
 1380 021c 69010000 		.4byte	0x169
 1381 0220 24       		.byte	0x24
 1382 0221 08       		.uleb128 0x8
 1383 0222 705F7500 		.ascii	"p_u\000"
 1384 0226 08       		.byte	0x8
 1385 0227 3101     		.2byte	0x131
 1386 0229 C0070000 		.4byte	0x7c0
 1387 022d 28       		.byte	0x28
 1388 022e 09       		.uleb128 0x9
 1389 022f 78050000 		.4byte	.LASF46
 1390 0233 08       		.byte	0x8
 1391 0234 3601     		.2byte	0x136
 1392 0236 A8020000 		.4byte	0x2a8
 1393 023a 2C       		.byte	0x2c
 1394 023b 09       		.uleb128 0x9
 1395 023c 73040000 		.4byte	.LASF47
 1396 0240 08       		.byte	0x8
 1397 0241 3C01     		.2byte	0x13c
 1398 0243 CC020000 		.4byte	0x2cc
 1399 0247 30       		.byte	0x30
 1400 0248 09       		.uleb128 0x9
 1401 0249 A4080000 		.4byte	.LASF48
 1402 024d 08       		.byte	0x8
 1403 024e 4001     		.2byte	0x140
 1404 0250 32010000 		.4byte	0x132
 1405 0254 38       		.byte	0x38
 1406 0255 09       		.uleb128 0x9
 1407 0256 B6070000 		.4byte	.LASF49
 1408 025a 08       		.byte	0x8
 1409 025b 4601     		.2byte	0x146
 1410 025d 3D010000 		.4byte	0x13d
 1411 0261 3C       		.byte	0x3c
 1412 0262 09       		.uleb128 0x9
 1413 0263 00070000 		.4byte	.LASF50
 1414 0267 08       		.byte	0x8
ARM GAS  /var/folders/d2/nstgp4h54kz7g1l847x_b8wc0000gn/T//ccy7UWJa.s 			page 26


 1415 0268 4D01     		.2byte	0x14d
 1416 026a 8B080000 		.4byte	0x88b
 1417 026e 40       		.byte	0x40
 1418 026f 09       		.uleb128 0x9
 1419 0270 53080000 		.4byte	.LASF51
 1420 0274 08       		.byte	0x8
 1421 0275 5101     		.2byte	0x151
 1422 0277 27010000 		.4byte	0x127
 1423 027b 44       		.byte	0x44
 1424 027c 09       		.uleb128 0x9
 1425 027d CB010000 		.4byte	.LASF52
 1426 0281 08       		.byte	0x8
 1427 0282 5801     		.2byte	0x158
 1428 0284 7F030000 		.4byte	0x37f
 1429 0288 48       		.byte	0x48
 1430 0289 09       		.uleb128 0x9
 1431 028a 62070000 		.4byte	.LASF53
 1432 028e 08       		.byte	0x8
 1433 028f 5E01     		.2byte	0x15e
 1434 0291 71070000 		.4byte	0x771
 1435 0295 50       		.byte	0x50
 1436 0296 00       		.byte	0
 1437 0297 04       		.uleb128 0x4
 1438 0298 2B090000 		.4byte	.LASF54
 1439 029c 07       		.byte	0x7
 1440 029d 44       		.byte	0x44
 1441 029e A2020000 		.4byte	0x2a2
 1442 02a2 0A       		.uleb128 0xa
 1443 02a3 04       		.byte	0x4
 1444 02a4 6E010000 		.4byte	0x16e
 1445 02a8 04       		.uleb128 0x4
 1446 02a9 42050000 		.4byte	.LASF55
 1447 02ad 07       		.byte	0x7
 1448 02ae 49       		.byte	0x49
 1449 02af B3020000 		.4byte	0x2b3
 1450 02b3 06       		.uleb128 0x6
 1451 02b4 DE070000 		.4byte	.LASF57
 1452 02b8 04       		.byte	0x4
 1453 02b9 08       		.byte	0x8
 1454 02ba B0       		.byte	0xb0
 1455 02bb CC020000 		.4byte	0x2cc
 1456 02bf 07       		.uleb128 0x7
 1457 02c0 3C070000 		.4byte	.LASF33
 1458 02c4 08       		.byte	0x8
 1459 02c5 B1       		.byte	0xb1
 1460 02c6 A2020000 		.4byte	0x2a2
 1461 02ca 00       		.byte	0
 1462 02cb 00       		.byte	0
 1463 02cc 04       		.uleb128 0x4
 1464 02cd 6A070000 		.4byte	.LASF58
 1465 02d1 07       		.byte	0x7
 1466 02d2 50       		.byte	0x50
 1467 02d3 D7020000 		.4byte	0x2d7
 1468 02d7 06       		.uleb128 0x6
 1469 02d8 B4000000 		.4byte	.LASF59
 1470 02dc 08       		.byte	0x8
 1471 02dd 08       		.byte	0x8
ARM GAS  /var/folders/d2/nstgp4h54kz7g1l847x_b8wc0000gn/T//ccy7UWJa.s 			page 27


 1472 02de B7       		.byte	0xb7
 1473 02df FC020000 		.4byte	0x2fc
 1474 02e3 07       		.uleb128 0x7
 1475 02e4 3C070000 		.4byte	.LASF33
 1476 02e8 08       		.byte	0x8
 1477 02e9 B8       		.byte	0xb8
 1478 02ea A2020000 		.4byte	0x2a2
 1479 02ee 00       		.byte	0
 1480 02ef 07       		.uleb128 0x7
 1481 02f0 94060000 		.4byte	.LASF34
 1482 02f4 08       		.byte	0x8
 1483 02f5 B9       		.byte	0xb9
 1484 02f6 A2020000 		.4byte	0x2a2
 1485 02fa 04       		.byte	0x4
 1486 02fb 00       		.byte	0
 1487 02fc 04       		.uleb128 0x4
 1488 02fd 66000000 		.4byte	.LASF60
 1489 0301 07       		.byte	0x7
 1490 0302 57       		.byte	0x57
 1491 0303 07030000 		.4byte	0x307
 1492 0307 0B       		.uleb128 0xb
 1493 0308 1D050000 		.4byte	.LASF61
 1494 030c 1C       		.byte	0x1c
 1495 030d 08       		.byte	0x8
 1496 030e 9001     		.2byte	0x190
 1497 0310 63030000 		.4byte	0x363
 1498 0314 09       		.uleb128 0x9
 1499 0315 D6070000 		.4byte	.LASF62
 1500 0319 08       		.byte	0x8
 1501 031a 9101     		.2byte	0x191
 1502 031c CC020000 		.4byte	0x2cc
 1503 0320 00       		.byte	0
 1504 0321 09       		.uleb128 0x9
 1505 0322 2E070000 		.4byte	.LASF63
 1506 0326 08       		.byte	0x8
 1507 0327 9201     		.2byte	0x192
 1508 0329 27010000 		.4byte	0x127
 1509 032d 08       		.byte	0x8
 1510 032e 09       		.uleb128 0x9
 1511 032f 09060000 		.4byte	.LASF64
 1512 0333 08       		.byte	0x8
 1513 0334 9401     		.2byte	0x194
 1514 0336 1B050000 		.4byte	0x51b
 1515 033a 0C       		.byte	0xc
 1516 033b 09       		.uleb128 0x9
 1517 033c 61020000 		.4byte	.LASF65
 1518 0340 08       		.byte	0x8
 1519 0341 9701     		.2byte	0x197
 1520 0343 A2020000 		.4byte	0x2a2
 1521 0347 10       		.byte	0x10
 1522 0348 09       		.uleb128 0x9
 1523 0349 30060000 		.4byte	.LASF66
 1524 034d 08       		.byte	0x8
 1525 034e 9801     		.2byte	0x198
 1526 0350 A2020000 		.4byte	0x2a2
 1527 0354 14       		.byte	0x14
 1528 0355 09       		.uleb128 0x9
ARM GAS  /var/folders/d2/nstgp4h54kz7g1l847x_b8wc0000gn/T//ccy7UWJa.s 			page 28


 1529 0356 26060000 		.4byte	.LASF67
 1530 035a 08       		.byte	0x8
 1531 035b 9B01     		.2byte	0x19b
 1532 035d A2020000 		.4byte	0x2a2
 1533 0361 18       		.byte	0x18
 1534 0362 00       		.byte	0
 1535 0363 04       		.uleb128 0x4
 1536 0364 5E080000 		.4byte	.LASF68
 1537 0368 07       		.byte	0x7
 1538 0369 5C       		.byte	0x5c
 1539 036a 6E030000 		.4byte	0x36e
 1540 036e 0A       		.uleb128 0xa
 1541 036f 04       		.byte	0x4
 1542 0370 74030000 		.4byte	0x374
 1543 0374 0C       		.uleb128 0xc
 1544 0375 7F030000 		.4byte	0x37f
 1545 0379 0D       		.uleb128 0xd
 1546 037a 7F030000 		.4byte	0x37f
 1547 037e 00       		.byte	0
 1548 037f 0E       		.uleb128 0xe
 1549 0380 04       		.byte	0x4
 1550 0381 04       		.uleb128 0x4
 1551 0382 84060000 		.4byte	.LASF69
 1552 0386 07       		.byte	0x7
 1553 0387 61       		.byte	0x61
 1554 0388 8C030000 		.4byte	0x38c
 1555 038c 0B       		.uleb128 0xb
 1556 038d 7A070000 		.4byte	.LASF70
 1557 0391 14       		.byte	0x14
 1558 0392 08       		.byte	0x8
 1559 0393 6B01     		.2byte	0x16b
 1560 0395 DB030000 		.4byte	0x3db
 1561 0399 09       		.uleb128 0x9
 1562 039a 9A020000 		.4byte	.LASF71
 1563 039e 08       		.byte	0x8
 1564 039f 6C01     		.2byte	0x16c
 1565 03a1 AE080000 		.4byte	0x8ae
 1566 03a5 00       		.byte	0
 1567 03a6 09       		.uleb128 0x9
 1568 03a7 72020000 		.4byte	.LASF72
 1569 03ab 08       		.byte	0x8
 1570 03ac 6D01     		.2byte	0x16d
 1571 03ae AE080000 		.4byte	0x8ae
 1572 03b2 04       		.byte	0x4
 1573 03b3 09       		.uleb128 0x9
 1574 03b4 6A040000 		.4byte	.LASF73
 1575 03b8 08       		.byte	0x8
 1576 03b9 6E01     		.2byte	0x16e
 1577 03bb 5E010000 		.4byte	0x15e
 1578 03bf 08       		.byte	0x8
 1579 03c0 09       		.uleb128 0x9
 1580 03c1 9A090000 		.4byte	.LASF74
 1581 03c5 08       		.byte	0x8
 1582 03c6 6F01     		.2byte	0x16f
 1583 03c8 63030000 		.4byte	0x363
 1584 03cc 0C       		.byte	0xc
 1585 03cd 09       		.uleb128 0x9
ARM GAS  /var/folders/d2/nstgp4h54kz7g1l847x_b8wc0000gn/T//ccy7UWJa.s 			page 29


 1586 03ce BD080000 		.4byte	.LASF75
 1587 03d2 08       		.byte	0x8
 1588 03d3 7101     		.2byte	0x171
 1589 03d5 7F030000 		.4byte	0x37f
 1590 03d9 10       		.byte	0x10
 1591 03da 00       		.byte	0
 1592 03db 04       		.uleb128 0x4
 1593 03dc 4C010000 		.4byte	.LASF76
 1594 03e0 07       		.byte	0x7
 1595 03e1 66       		.byte	0x66
 1596 03e2 E6030000 		.4byte	0x3e6
 1597 03e6 0B       		.uleb128 0xb
 1598 03e7 9A050000 		.4byte	.LASF77
 1599 03eb 10       		.byte	0x10
 1600 03ec 08       		.byte	0x8
 1601 03ed 7B01     		.2byte	0x17b
 1602 03ef 28040000 		.4byte	0x428
 1603 03f3 09       		.uleb128 0x9
 1604 03f4 9A020000 		.4byte	.LASF71
 1605 03f8 08       		.byte	0x8
 1606 03f9 7C01     		.2byte	0x17c
 1607 03fb AE080000 		.4byte	0x8ae
 1608 03ff 00       		.byte	0
 1609 0400 09       		.uleb128 0x9
 1610 0401 72020000 		.4byte	.LASF72
 1611 0405 08       		.byte	0x8
 1612 0406 7E01     		.2byte	0x17e
 1613 0408 AE080000 		.4byte	0x8ae
 1614 040c 04       		.byte	0x4
 1615 040d 09       		.uleb128 0x9
 1616 040e 6A040000 		.4byte	.LASF73
 1617 0412 08       		.byte	0x8
 1618 0413 8001     		.2byte	0x180
 1619 0415 5E010000 		.4byte	0x15e
 1620 0419 08       		.byte	0x8
 1621 041a 09       		.uleb128 0x9
 1622 041b 4C090000 		.4byte	.LASF78
 1623 041f 08       		.byte	0x8
 1624 0420 8201     		.2byte	0x182
 1625 0422 69010000 		.4byte	0x169
 1626 0426 0C       		.byte	0xc
 1627 0427 00       		.byte	0
 1628 0428 04       		.uleb128 0x4
 1629 0429 C5000000 		.4byte	.LASF79
 1630 042d 07       		.byte	0x7
 1631 042e 6B       		.byte	0x6b
 1632 042f 33040000 		.4byte	0x433
 1633 0433 0F       		.uleb128 0xf
 1634 0434 84020000 		.4byte	.LASF80
 1635 0438 1404     		.2byte	0x414
 1636 043a 08       		.byte	0x8
 1637 043b A201     		.2byte	0x1a2
 1638 043d 76040000 		.4byte	0x476
 1639 0441 09       		.uleb128 0x9
 1640 0442 80080000 		.4byte	.LASF81
 1641 0446 08       		.byte	0x8
 1642 0447 AA01     		.2byte	0x1aa
ARM GAS  /var/folders/d2/nstgp4h54kz7g1l847x_b8wc0000gn/T//ccy7UWJa.s 			page 30


 1643 0449 97080000 		.4byte	0x897
 1644 044d 00       		.byte	0
 1645 044e 09       		.uleb128 0x9
 1646 044f FA080000 		.4byte	.LASF82
 1647 0453 08       		.byte	0x8
 1648 0454 AF01     		.2byte	0x1af
 1649 0456 48010000 		.4byte	0x148
 1650 045a 04       		.byte	0x4
 1651 045b 09       		.uleb128 0x9
 1652 045c A8020000 		.4byte	.LASF83
 1653 0460 08       		.byte	0x8
 1654 0461 B301     		.2byte	0x1b3
 1655 0463 48010000 		.4byte	0x148
 1656 0467 08       		.byte	0x8
 1657 0468 09       		.uleb128 0x9
 1658 0469 57090000 		.4byte	.LASF84
 1659 046d 08       		.byte	0x8
 1660 046e B901     		.2byte	0x1b9
 1661 0470 03070000 		.4byte	0x703
 1662 0474 0C       		.byte	0xc
 1663 0475 00       		.byte	0
 1664 0476 04       		.uleb128 0x4
 1665 0477 E2040000 		.4byte	.LASF85
 1666 047b 07       		.byte	0x7
 1667 047c 70       		.byte	0x70
 1668 047d 81040000 		.4byte	0x481
 1669 0481 0F       		.uleb128 0xf
 1670 0482 0A020000 		.4byte	.LASF86
 1671 0486 7006     		.2byte	0x670
 1672 0488 08       		.byte	0x8
 1673 0489 C201     		.2byte	0x1c2
 1674 048b EE040000 		.4byte	0x4ee
 1675 048f 09       		.uleb128 0x9
 1676 0490 0B090000 		.4byte	.LASF87
 1677 0494 08       		.byte	0x8
 1678 0495 C601     		.2byte	0x1c6
 1679 0497 FC020000 		.4byte	0x2fc
 1680 049b 00       		.byte	0
 1681 049c 09       		.uleb128 0x9
 1682 049d DB010000 		.4byte	.LASF88
 1683 04a1 08       		.byte	0x8
 1684 04a2 CA01     		.2byte	0x1ca
 1685 04a4 DB030000 		.4byte	0x3db
 1686 04a8 1C       		.byte	0x1c
 1687 04a9 08       		.uleb128 0x8
 1688 04aa 64626700 		.ascii	"dbg\000"
 1689 04ae 08       		.byte	0x8
 1690 04af CE01     		.2byte	0x1ce
 1691 04b1 28040000 		.4byte	0x428
 1692 04b5 2C       		.byte	0x2c
 1693 04b6 10       		.uleb128 0x10
 1694 04b7 37010000 		.4byte	.LASF89
 1695 04bb 08       		.byte	0x8
 1696 04bc D201     		.2byte	0x1d2
 1697 04be 6E010000 		.4byte	0x16e
 1698 04c2 4004     		.2byte	0x440
 1699 04c4 11       		.uleb128 0x11
ARM GAS  /var/folders/d2/nstgp4h54kz7g1l847x_b8wc0000gn/T//ccy7UWJa.s 			page 31


 1700 04c5 746D00   		.ascii	"tm\000"
 1701 04c8 08       		.byte	0x8
 1702 04c9 D701     		.2byte	0x1d7
 1703 04cb 23070000 		.4byte	0x723
 1704 04cf A804     		.2byte	0x4a8
 1705 04d1 10       		.uleb128 0x10
 1706 04d2 91000000 		.4byte	.LASF90
 1707 04d6 08       		.byte	0x8
 1708 04d7 DD01     		.2byte	0x1dd
 1709 04d9 B5070000 		.4byte	0x7b5
 1710 04dd B004     		.2byte	0x4b0
 1711 04df 10       		.uleb128 0x10
 1712 04e0 B1020000 		.4byte	.LASF91
 1713 04e4 08       		.byte	0x8
 1714 04e5 E301     		.2byte	0x1e3
 1715 04e7 B4080000 		.4byte	0x8b4
 1716 04eb E804     		.2byte	0x4e8
 1717 04ed 00       		.byte	0
 1718 04ee 12       		.uleb128 0x12
 1719 04ef 62010000 		.4byte	.LASF92
 1720 04f3 09       		.byte	0x9
 1721 04f4 A706     		.2byte	0x6a7
 1722 04f6 CA000000 		.4byte	0xca
 1723 04fa 13       		.uleb128 0x13
 1724 04fb 3E040000 		.4byte	.LASF93
 1725 04ff 0A       		.byte	0xa
 1726 0500 4C       		.byte	0x4c
 1727 0501 CF000000 		.4byte	0xcf
 1728 0505 04       		.uleb128 0x4
 1729 0506 69020000 		.4byte	.LASF94
 1730 050a 0B       		.byte	0xb
 1731 050b 65       		.byte	0x65
 1732 050c 7F030000 		.4byte	0x37f
 1733 0510 04       		.uleb128 0x4
 1734 0511 37050000 		.4byte	.LASF95
 1735 0515 0B       		.byte	0xb
 1736 0516 6D       		.byte	0x6d
 1737 0517 DA000000 		.4byte	0xda
 1738 051b 06       		.uleb128 0x6
 1739 051c 91080000 		.4byte	.LASF96
 1740 0520 04       		.byte	0x4
 1741 0521 0B       		.byte	0xb
 1742 0522 89       		.byte	0x89
 1743 0523 34050000 		.4byte	0x534
 1744 0527 14       		.uleb128 0x14
 1745 0528 72313300 		.ascii	"r13\000"
 1746 052c 0B       		.byte	0xb
 1747 052d 8A       		.byte	0x8a
 1748 052e 75060000 		.4byte	0x675
 1749 0532 00       		.byte	0
 1750 0533 00       		.byte	0
 1751 0534 06       		.uleb128 0x6
 1752 0535 A8000000 		.4byte	.LASF97
 1753 0539 64       		.byte	0x64
 1754 053a 0C       		.byte	0xc
 1755 053b F4       		.byte	0xf4
 1756 053c 75060000 		.4byte	0x675
ARM GAS  /var/folders/d2/nstgp4h54kz7g1l847x_b8wc0000gn/T//ccy7UWJa.s 			page 32


 1757 0540 14       		.uleb128 0x14
 1758 0541 73313600 		.ascii	"s16\000"
 1759 0545 0C       		.byte	0xc
 1760 0546 F6       		.byte	0xf6
 1761 0547 05050000 		.4byte	0x505
 1762 054b 00       		.byte	0
 1763 054c 14       		.uleb128 0x14
 1764 054d 73313700 		.ascii	"s17\000"
 1765 0551 0C       		.byte	0xc
 1766 0552 F7       		.byte	0xf7
 1767 0553 05050000 		.4byte	0x505
 1768 0557 04       		.byte	0x4
 1769 0558 14       		.uleb128 0x14
 1770 0559 73313800 		.ascii	"s18\000"
 1771 055d 0C       		.byte	0xc
 1772 055e F8       		.byte	0xf8
 1773 055f 05050000 		.4byte	0x505
 1774 0563 08       		.byte	0x8
 1775 0564 14       		.uleb128 0x14
 1776 0565 73313900 		.ascii	"s19\000"
 1777 0569 0C       		.byte	0xc
 1778 056a F9       		.byte	0xf9
 1779 056b 05050000 		.4byte	0x505
 1780 056f 0C       		.byte	0xc
 1781 0570 14       		.uleb128 0x14
 1782 0571 73323000 		.ascii	"s20\000"
 1783 0575 0C       		.byte	0xc
 1784 0576 FA       		.byte	0xfa
 1785 0577 05050000 		.4byte	0x505
 1786 057b 10       		.byte	0x10
 1787 057c 14       		.uleb128 0x14
 1788 057d 73323100 		.ascii	"s21\000"
 1789 0581 0C       		.byte	0xc
 1790 0582 FB       		.byte	0xfb
 1791 0583 05050000 		.4byte	0x505
 1792 0587 14       		.byte	0x14
 1793 0588 14       		.uleb128 0x14
 1794 0589 73323200 		.ascii	"s22\000"
 1795 058d 0C       		.byte	0xc
 1796 058e FC       		.byte	0xfc
 1797 058f 05050000 		.4byte	0x505
 1798 0593 18       		.byte	0x18
 1799 0594 14       		.uleb128 0x14
 1800 0595 73323300 		.ascii	"s23\000"
 1801 0599 0C       		.byte	0xc
 1802 059a FD       		.byte	0xfd
 1803 059b 05050000 		.4byte	0x505
 1804 059f 1C       		.byte	0x1c
 1805 05a0 14       		.uleb128 0x14
 1806 05a1 73323400 		.ascii	"s24\000"
 1807 05a5 0C       		.byte	0xc
 1808 05a6 FE       		.byte	0xfe
 1809 05a7 05050000 		.4byte	0x505
 1810 05ab 20       		.byte	0x20
 1811 05ac 14       		.uleb128 0x14
 1812 05ad 73323500 		.ascii	"s25\000"
 1813 05b1 0C       		.byte	0xc
ARM GAS  /var/folders/d2/nstgp4h54kz7g1l847x_b8wc0000gn/T//ccy7UWJa.s 			page 33


 1814 05b2 FF       		.byte	0xff
 1815 05b3 05050000 		.4byte	0x505
 1816 05b7 24       		.byte	0x24
 1817 05b8 08       		.uleb128 0x8
 1818 05b9 73323600 		.ascii	"s26\000"
 1819 05bd 0C       		.byte	0xc
 1820 05be 0001     		.2byte	0x100
 1821 05c0 05050000 		.4byte	0x505
 1822 05c4 28       		.byte	0x28
 1823 05c5 08       		.uleb128 0x8
 1824 05c6 73323700 		.ascii	"s27\000"
 1825 05ca 0C       		.byte	0xc
 1826 05cb 0101     		.2byte	0x101
 1827 05cd 05050000 		.4byte	0x505
 1828 05d1 2C       		.byte	0x2c
 1829 05d2 08       		.uleb128 0x8
 1830 05d3 73323800 		.ascii	"s28\000"
 1831 05d7 0C       		.byte	0xc
 1832 05d8 0201     		.2byte	0x102
 1833 05da 05050000 		.4byte	0x505
 1834 05de 30       		.byte	0x30
 1835 05df 08       		.uleb128 0x8
 1836 05e0 73323900 		.ascii	"s29\000"
 1837 05e4 0C       		.byte	0xc
 1838 05e5 0301     		.2byte	0x103
 1839 05e7 05050000 		.4byte	0x505
 1840 05eb 34       		.byte	0x34
 1841 05ec 08       		.uleb128 0x8
 1842 05ed 73333000 		.ascii	"s30\000"
 1843 05f1 0C       		.byte	0xc
 1844 05f2 0401     		.2byte	0x104
 1845 05f4 05050000 		.4byte	0x505
 1846 05f8 38       		.byte	0x38
 1847 05f9 08       		.uleb128 0x8
 1848 05fa 73333100 		.ascii	"s31\000"
 1849 05fe 0C       		.byte	0xc
 1850 05ff 0501     		.2byte	0x105
 1851 0601 05050000 		.4byte	0x505
 1852 0605 3C       		.byte	0x3c
 1853 0606 08       		.uleb128 0x8
 1854 0607 723400   		.ascii	"r4\000"
 1855 060a 0C       		.byte	0xc
 1856 060b 0701     		.2byte	0x107
 1857 060d 05050000 		.4byte	0x505
 1858 0611 40       		.byte	0x40
 1859 0612 08       		.uleb128 0x8
 1860 0613 723500   		.ascii	"r5\000"
 1861 0616 0C       		.byte	0xc
 1862 0617 0801     		.2byte	0x108
 1863 0619 05050000 		.4byte	0x505
 1864 061d 44       		.byte	0x44
 1865 061e 08       		.uleb128 0x8
 1866 061f 723600   		.ascii	"r6\000"
 1867 0622 0C       		.byte	0xc
 1868 0623 0901     		.2byte	0x109
 1869 0625 05050000 		.4byte	0x505
 1870 0629 48       		.byte	0x48
ARM GAS  /var/folders/d2/nstgp4h54kz7g1l847x_b8wc0000gn/T//ccy7UWJa.s 			page 34


 1871 062a 08       		.uleb128 0x8
 1872 062b 723700   		.ascii	"r7\000"
 1873 062e 0C       		.byte	0xc
 1874 062f 0A01     		.2byte	0x10a
 1875 0631 05050000 		.4byte	0x505
 1876 0635 4C       		.byte	0x4c
 1877 0636 08       		.uleb128 0x8
 1878 0637 723800   		.ascii	"r8\000"
 1879 063a 0C       		.byte	0xc
 1880 063b 0B01     		.2byte	0x10b
 1881 063d 05050000 		.4byte	0x505
 1882 0641 50       		.byte	0x50
 1883 0642 08       		.uleb128 0x8
 1884 0643 723900   		.ascii	"r9\000"
 1885 0646 0C       		.byte	0xc
 1886 0647 0C01     		.2byte	0x10c
 1887 0649 05050000 		.4byte	0x505
 1888 064d 54       		.byte	0x54
 1889 064e 08       		.uleb128 0x8
 1890 064f 72313000 		.ascii	"r10\000"
 1891 0653 0C       		.byte	0xc
 1892 0654 0D01     		.2byte	0x10d
 1893 0656 05050000 		.4byte	0x505
 1894 065a 58       		.byte	0x58
 1895 065b 08       		.uleb128 0x8
 1896 065c 72313100 		.ascii	"r11\000"
 1897 0660 0C       		.byte	0xc
 1898 0661 0E01     		.2byte	0x10e
 1899 0663 05050000 		.4byte	0x505
 1900 0667 5C       		.byte	0x5c
 1901 0668 08       		.uleb128 0x8
 1902 0669 6C7200   		.ascii	"lr\000"
 1903 066c 0C       		.byte	0xc
 1904 066d 0F01     		.2byte	0x10f
 1905 066f 05050000 		.4byte	0x505
 1906 0673 60       		.byte	0x60
 1907 0674 00       		.byte	0
 1908 0675 0A       		.uleb128 0xa
 1909 0676 04       		.byte	0x4
 1910 0677 34050000 		.4byte	0x534
 1911 067b 15       		.uleb128 0x15
 1912 067c 10       		.byte	0x10
 1913 067d 0D       		.byte	0xd
 1914 067e 51       		.byte	0x51
 1915 067f B4060000 		.4byte	0x6b4
 1916 0683 07       		.uleb128 0x7
 1917 0684 73000000 		.4byte	.LASF98
 1918 0688 0D       		.byte	0xd
 1919 0689 55       		.byte	0x55
 1920 068a 5E010000 		.4byte	0x15e
 1921 068e 00       		.byte	0
 1922 068f 07       		.uleb128 0x7
 1923 0690 39020000 		.4byte	.LASF99
 1924 0694 0D       		.byte	0xd
 1925 0695 59       		.byte	0x59
 1926 0696 A2020000 		.4byte	0x2a2
 1927 069a 04       		.byte	0x4
ARM GAS  /var/folders/d2/nstgp4h54kz7g1l847x_b8wc0000gn/T//ccy7UWJa.s 			page 35


 1928 069b 07       		.uleb128 0x7
 1929 069c 82090000 		.4byte	.LASF100
 1930 06a0 0D       		.byte	0xd
 1931 06a1 5D       		.byte	0x5d
 1932 06a2 7F030000 		.4byte	0x37f
 1933 06a6 08       		.byte	0x8
 1934 06a7 07       		.uleb128 0x7
 1935 06a8 02090000 		.4byte	.LASF101
 1936 06ac 0D       		.byte	0xd
 1937 06ad 61       		.byte	0x61
 1938 06ae A9000000 		.4byte	0xa9
 1939 06b2 0C       		.byte	0xc
 1940 06b3 00       		.byte	0
 1941 06b4 04       		.uleb128 0x4
 1942 06b5 D0050000 		.4byte	.LASF102
 1943 06b9 0D       		.byte	0xd
 1944 06ba 62       		.byte	0x62
 1945 06bb 7B060000 		.4byte	0x67b
 1946 06bf 16       		.uleb128 0x16
 1947 06c0 0804     		.2byte	0x408
 1948 06c2 0D       		.byte	0xd
 1949 06c3 67       		.byte	0x67
 1950 06c4 ED060000 		.4byte	0x6ed
 1951 06c8 07       		.uleb128 0x7
 1952 06c9 59020000 		.4byte	.LASF103
 1953 06cd 0D       		.byte	0xd
 1954 06ce 6B       		.byte	0x6b
 1955 06cf 2C000000 		.4byte	0x2c
 1956 06d3 00       		.byte	0
 1957 06d4 07       		.uleb128 0x7
 1958 06d5 C9050000 		.4byte	.LASF104
 1959 06d9 0D       		.byte	0xd
 1960 06da 6F       		.byte	0x6f
 1961 06db ED060000 		.4byte	0x6ed
 1962 06df 04       		.byte	0x4
 1963 06e0 07       		.uleb128 0x7
 1964 06e1 6F060000 		.4byte	.LASF105
 1965 06e5 0D       		.byte	0xd
 1966 06e6 73       		.byte	0x73
 1967 06e7 F3060000 		.4byte	0x6f3
 1968 06eb 08       		.byte	0x8
 1969 06ec 00       		.byte	0
 1970 06ed 0A       		.uleb128 0xa
 1971 06ee 04       		.byte	0x4
 1972 06ef B4060000 		.4byte	0x6b4
 1973 06f3 17       		.uleb128 0x17
 1974 06f4 B4060000 		.4byte	0x6b4
 1975 06f8 03070000 		.4byte	0x703
 1976 06fc 18       		.uleb128 0x18
 1977 06fd 2C000000 		.4byte	0x2c
 1978 0701 3F       		.byte	0x3f
 1979 0702 00       		.byte	0
 1980 0703 04       		.uleb128 0x4
 1981 0704 0E010000 		.4byte	.LASF106
 1982 0708 0D       		.byte	0xd
 1983 0709 74       		.byte	0x74
 1984 070a BF060000 		.4byte	0x6bf
ARM GAS  /var/folders/d2/nstgp4h54kz7g1l847x_b8wc0000gn/T//ccy7UWJa.s 			page 36


 1985 070e 15       		.uleb128 0x15
 1986 070f 04       		.byte	0x4
 1987 0710 0E       		.byte	0xe
 1988 0711 38       		.byte	0x38
 1989 0712 23070000 		.4byte	0x723
 1990 0716 07       		.uleb128 0x7
 1991 0717 8A080000 		.4byte	.LASF107
 1992 071b 0E       		.byte	0xe
 1993 071c 3C       		.byte	0x3c
 1994 071d E5000000 		.4byte	0xe5
 1995 0721 00       		.byte	0
 1996 0722 00       		.byte	0
 1997 0723 04       		.uleb128 0x4
 1998 0724 15060000 		.4byte	.LASF108
 1999 0728 0E       		.byte	0xe
 2000 0729 3D       		.byte	0x3d
 2001 072a 0E070000 		.4byte	0x70e
 2002 072e 15       		.uleb128 0x15
 2003 072f 18       		.byte	0x18
 2004 0730 0E       		.byte	0xe
 2005 0731 48       		.byte	0x48
 2006 0732 71070000 		.4byte	0x771
 2007 0736 07       		.uleb128 0x7
 2008 0737 3D080000 		.4byte	.LASF109
 2009 073b 0E       		.byte	0xe
 2010 073c 49       		.byte	0x49
 2011 073d E5000000 		.4byte	0xe5
 2012 0741 00       		.byte	0
 2013 0742 07       		.uleb128 0x7
 2014 0743 DE000000 		.4byte	.LASF110
 2015 0747 0E       		.byte	0xe
 2016 0748 4A       		.byte	0x4a
 2017 0749 E5000000 		.4byte	0xe5
 2018 074d 04       		.byte	0x4
 2019 074e 07       		.uleb128 0x7
 2020 074f C5040000 		.4byte	.LASF111
 2021 0753 0E       		.byte	0xe
 2022 0754 4B       		.byte	0x4b
 2023 0755 E5000000 		.4byte	0xe5
 2024 0759 08       		.byte	0x8
 2025 075a 14       		.uleb128 0x14
 2026 075b 6E00     		.ascii	"n\000"
 2027 075d 0E       		.byte	0xe
 2028 075e 4C       		.byte	0x4c
 2029 075f 53010000 		.4byte	0x153
 2030 0763 0C       		.byte	0xc
 2031 0764 07       		.uleb128 0x7
 2032 0765 5C060000 		.4byte	.LASF112
 2033 0769 0E       		.byte	0xe
 2034 076a 4D       		.byte	0x4d
 2035 076b F0000000 		.4byte	0xf0
 2036 076f 10       		.byte	0x10
 2037 0770 00       		.byte	0
 2038 0771 04       		.uleb128 0x4
 2039 0772 E4000000 		.4byte	.LASF113
 2040 0776 0E       		.byte	0xe
 2041 0777 4E       		.byte	0x4e
ARM GAS  /var/folders/d2/nstgp4h54kz7g1l847x_b8wc0000gn/T//ccy7UWJa.s 			page 37


 2042 0778 2E070000 		.4byte	0x72e
 2043 077c 15       		.uleb128 0x15
 2044 077d 38       		.byte	0x38
 2045 077e 0F       		.byte	0xf
 2046 077f 38       		.byte	0x38
 2047 0780 B5070000 		.4byte	0x7b5
 2048 0784 07       		.uleb128 0x7
 2049 0785 87040000 		.4byte	.LASF114
 2050 0789 0F       		.byte	0xf
 2051 078a 39       		.byte	0x39
 2052 078b 53010000 		.4byte	0x153
 2053 078f 00       		.byte	0
 2054 0790 07       		.uleb128 0x7
 2055 0791 EB050000 		.4byte	.LASF115
 2056 0795 0F       		.byte	0xf
 2057 0796 3A       		.byte	0x3a
 2058 0797 53010000 		.4byte	0x153
 2059 079b 04       		.byte	0x4
 2060 079c 07       		.uleb128 0x7
 2061 079d 6F090000 		.4byte	.LASF116
 2062 07a1 0F       		.byte	0xf
 2063 07a2 3B       		.byte	0x3b
 2064 07a3 71070000 		.4byte	0x771
 2065 07a7 08       		.byte	0x8
 2066 07a8 07       		.uleb128 0x7
 2067 07a9 12050000 		.4byte	.LASF117
 2068 07ad 0F       		.byte	0xf
 2069 07ae 3D       		.byte	0x3d
 2070 07af 71070000 		.4byte	0x771
 2071 07b3 20       		.byte	0x20
 2072 07b4 00       		.byte	0
 2073 07b5 04       		.uleb128 0x4
 2074 07b6 A6040000 		.4byte	.LASF118
 2075 07ba 0F       		.byte	0xf
 2076 07bb 3F       		.byte	0x3f
 2077 07bc 7C070000 		.4byte	0x77c
 2078 07c0 19       		.uleb128 0x19
 2079 07c1 04       		.byte	0x4
 2080 07c2 08       		.byte	0x8
 2081 07c3 FA       		.byte	0xfa
 2082 07c4 1D080000 		.4byte	0x81d
 2083 07c8 1A       		.uleb128 0x1a
 2084 07c9 81000000 		.4byte	.LASF119
 2085 07cd 08       		.byte	0x8
 2086 07ce 0101     		.2byte	0x101
 2087 07d0 32010000 		.4byte	0x132
 2088 07d4 1A       		.uleb128 0x1a
 2089 07d5 2E010000 		.4byte	.LASF120
 2090 07d9 08       		.byte	0x8
 2091 07da 0801     		.2byte	0x108
 2092 07dc 32010000 		.4byte	0x132
 2093 07e0 1A       		.uleb128 0x1a
 2094 07e1 3E090000 		.4byte	.LASF121
 2095 07e5 08       		.byte	0x8
 2096 07e6 0F01     		.2byte	0x10f
 2097 07e8 7F030000 		.4byte	0x37f
 2098 07ec 1A       		.uleb128 0x1a
ARM GAS  /var/folders/d2/nstgp4h54kz7g1l847x_b8wc0000gn/T//ccy7UWJa.s 			page 38


 2099 07ed 7B000000 		.4byte	.LASF122
 2100 07f1 08       		.byte	0x8
 2101 07f2 1601     		.2byte	0x116
 2102 07f4 1D080000 		.4byte	0x81d
 2103 07f8 1A       		.uleb128 0x1a
 2104 07f9 63040000 		.4byte	.LASF123
 2105 07fd 08       		.byte	0x8
 2106 07fe 1E01     		.2byte	0x11e
 2107 0800 48080000 		.4byte	0x848
 2108 0804 1A       		.uleb128 0x1a
 2109 0805 0D080000 		.4byte	.LASF124
 2110 0809 08       		.byte	0x8
 2111 080a 2701     		.2byte	0x127
 2112 080c 8B080000 		.4byte	0x88b
 2113 0810 1A       		.uleb128 0x1a
 2114 0811 35070000 		.4byte	.LASF125
 2115 0815 08       		.byte	0x8
 2116 0816 2F01     		.2byte	0x12f
 2117 0818 3D010000 		.4byte	0x13d
 2118 081c 00       		.byte	0
 2119 081d 0A       		.uleb128 0xa
 2120 081e 04       		.byte	0x4
 2121 081f 97020000 		.4byte	0x297
 2122 0823 06       		.uleb128 0x6
 2123 0824 A9070000 		.4byte	.LASF126
 2124 0828 0C       		.byte	0xc
 2125 0829 10       		.byte	0x10
 2126 082a 34       		.byte	0x34
 2127 082b 48080000 		.4byte	0x848
 2128 082f 07       		.uleb128 0x7
 2129 0830 51020000 		.4byte	.LASF127
 2130 0834 10       		.byte	0x10
 2131 0835 35       		.byte	0x35
 2132 0836 CC020000 		.4byte	0x2cc
 2133 083a 00       		.byte	0
 2134 083b 07       		.uleb128 0x7
 2135 083c 8D040000 		.4byte	.LASF128
 2136 0840 10       		.byte	0x10
 2137 0841 37       		.byte	0x37
 2138 0842 48010000 		.4byte	0x148
 2139 0846 08       		.byte	0x8
 2140 0847 00       		.byte	0
 2141 0848 0A       		.uleb128 0xa
 2142 0849 04       		.byte	0x4
 2143 084a 23080000 		.4byte	0x823
 2144 084e 06       		.uleb128 0x6
 2145 084f EA080000 		.4byte	.LASF129
 2146 0853 14       		.byte	0x14
 2147 0854 11       		.byte	0x11
 2148 0855 39       		.byte	0x39
 2149 0856 8B080000 		.4byte	0x88b
 2150 085a 07       		.uleb128 0x7
 2151 085b D3010000 		.4byte	.LASF130
 2152 085f 11       		.byte	0x11
 2153 0860 3A       		.byte	0x3a
 2154 0861 CC020000 		.4byte	0x2cc
 2155 0865 00       		.byte	0
ARM GAS  /var/folders/d2/nstgp4h54kz7g1l847x_b8wc0000gn/T//ccy7UWJa.s 			page 39


 2156 0866 07       		.uleb128 0x7
 2157 0867 7A090000 		.4byte	.LASF131
 2158 086b 11       		.byte	0x11
 2159 086c 3C       		.byte	0x3c
 2160 086d A2020000 		.4byte	0x2a2
 2161 0871 08       		.byte	0x8
 2162 0872 07       		.uleb128 0x7
 2163 0873 42080000 		.4byte	.LASF132
 2164 0877 11       		.byte	0x11
 2165 0878 3E       		.byte	0x3e
 2166 0879 E6090000 		.4byte	0x9e6
 2167 087d 0C       		.byte	0xc
 2168 087e 07       		.uleb128 0x7
 2169 087f 94020000 		.4byte	.LASF133
 2170 0883 11       		.byte	0x11
 2171 0884 41       		.byte	0x41
 2172 0885 48010000 		.4byte	0x148
 2173 0889 10       		.byte	0x10
 2174 088a 00       		.byte	0
 2175 088b 0A       		.uleb128 0xa
 2176 088c 04       		.byte	0x4
 2177 088d 4E080000 		.4byte	0x84e
 2178 0891 0A       		.uleb128 0xa
 2179 0892 04       		.byte	0x4
 2180 0893 A3080000 		.4byte	0x8a3
 2181 0897 05       		.uleb128 0x5
 2182 0898 91080000 		.4byte	0x891
 2183 089c 03       		.uleb128 0x3
 2184 089d 01       		.byte	0x1
 2185 089e 08       		.byte	0x8
 2186 089f 08080000 		.4byte	.LASF134
 2187 08a3 1B       		.uleb128 0x1b
 2188 08a4 9C080000 		.4byte	0x89c
 2189 08a8 0A       		.uleb128 0xa
 2190 08a9 04       		.byte	0x4
 2191 08aa 10050000 		.4byte	0x510
 2192 08ae 0A       		.uleb128 0xa
 2193 08af 04       		.byte	0x4
 2194 08b0 81030000 		.4byte	0x381
 2195 08b4 17       		.uleb128 0x17
 2196 08b5 10050000 		.4byte	0x510
 2197 08b9 C4080000 		.4byte	0x8c4
 2198 08bd 18       		.uleb128 0x18
 2199 08be 2C000000 		.4byte	0x2c
 2200 08c2 30       		.byte	0x30
 2201 08c3 00       		.byte	0
 2202 08c4 1C       		.uleb128 0x1c
 2203 08c5 636800   		.ascii	"ch\000"
 2204 08c8 08       		.byte	0x8
 2205 08c9 0902     		.2byte	0x209
 2206 08cb 76040000 		.4byte	0x476
 2207 08cf 15       		.uleb128 0x15
 2208 08d0 16       		.byte	0x16
 2209 08d1 12       		.byte	0x12
 2210 08d2 34       		.byte	0x34
 2211 08d3 B0090000 		.4byte	0x9b0
 2212 08d7 07       		.uleb128 0x7
ARM GAS  /var/folders/d2/nstgp4h54kz7g1l847x_b8wc0000gn/T//ccy7UWJa.s 			page 40


 2213 08d8 8C090000 		.4byte	.LASF135
 2214 08dc 12       		.byte	0x12
 2215 08dd 35       		.byte	0x35
 2216 08de B0090000 		.4byte	0x9b0
 2217 08e2 00       		.byte	0
 2218 08e3 07       		.uleb128 0x7
 2219 08e4 51050000 		.4byte	.LASF136
 2220 08e8 12       		.byte	0x12
 2221 08e9 36       		.byte	0x36
 2222 08ea A9000000 		.4byte	0xa9
 2223 08ee 04       		.byte	0x4
 2224 08ef 07       		.uleb128 0x7
 2225 08f0 EE070000 		.4byte	.LASF137
 2226 08f4 12       		.byte	0x12
 2227 08f5 37       		.byte	0x37
 2228 08f6 A9000000 		.4byte	0xa9
 2229 08fa 05       		.byte	0x5
 2230 08fb 07       		.uleb128 0x7
 2231 08fc 64090000 		.4byte	.LASF138
 2232 0900 12       		.byte	0x12
 2233 0901 38       		.byte	0x38
 2234 0902 B4000000 		.4byte	0xb4
 2235 0906 06       		.byte	0x6
 2236 0907 07       		.uleb128 0x7
 2237 0908 79060000 		.4byte	.LASF139
 2238 090c 12       		.byte	0x12
 2239 090d 39       		.byte	0x39
 2240 090e A9000000 		.4byte	0xa9
 2241 0912 08       		.byte	0x8
 2242 0913 07       		.uleb128 0x7
 2243 0914 BD050000 		.4byte	.LASF140
 2244 0918 12       		.byte	0x12
 2245 0919 3A       		.byte	0x3a
 2246 091a A9000000 		.4byte	0xa9
 2247 091e 09       		.byte	0x9
 2248 091f 07       		.uleb128 0x7
 2249 0920 20010000 		.4byte	.LASF141
 2250 0924 12       		.byte	0x12
 2251 0925 3B       		.byte	0x3b
 2252 0926 A9000000 		.4byte	0xa9
 2253 092a 0A       		.byte	0xa
 2254 092b 07       		.uleb128 0x7
 2255 092c CA070000 		.4byte	.LASF142
 2256 0930 12       		.byte	0x12
 2257 0931 3C       		.byte	0x3c
 2258 0932 A9000000 		.4byte	0xa9
 2259 0936 0B       		.byte	0xb
 2260 0937 07       		.uleb128 0x7
 2261 0938 DF080000 		.4byte	.LASF143
 2262 093c 12       		.byte	0x12
 2263 093d 3D       		.byte	0x3d
 2264 093e A9000000 		.4byte	0xa9
 2265 0942 0C       		.byte	0xc
 2266 0943 07       		.uleb128 0x7
 2267 0944 8B070000 		.4byte	.LASF144
 2268 0948 12       		.byte	0x12
 2269 0949 3E       		.byte	0x3e
ARM GAS  /var/folders/d2/nstgp4h54kz7g1l847x_b8wc0000gn/T//ccy7UWJa.s 			page 41


 2270 094a A9000000 		.4byte	0xa9
 2271 094e 0D       		.byte	0xd
 2272 094f 07       		.uleb128 0x7
 2273 0950 00000000 		.4byte	.LASF145
 2274 0954 12       		.byte	0x12
 2275 0955 3F       		.byte	0x3f
 2276 0956 A9000000 		.4byte	0xa9
 2277 095a 0E       		.byte	0xe
 2278 095b 07       		.uleb128 0x7
 2279 095c DF050000 		.4byte	.LASF146
 2280 0960 12       		.byte	0x12
 2281 0961 40       		.byte	0x40
 2282 0962 A9000000 		.4byte	0xa9
 2283 0966 0F       		.byte	0xf
 2284 0967 07       		.uleb128 0x7
 2285 0968 AE010000 		.4byte	.LASF147
 2286 096c 12       		.byte	0x12
 2287 096d 41       		.byte	0x41
 2288 096e A9000000 		.4byte	0xa9
 2289 0972 10       		.byte	0x10
 2290 0973 07       		.uleb128 0x7
 2291 0974 7F010000 		.4byte	.LASF148
 2292 0978 12       		.byte	0x12
 2293 0979 43       		.byte	0x43
 2294 097a A9000000 		.4byte	0xa9
 2295 097e 11       		.byte	0x11
 2296 097f 07       		.uleb128 0x7
 2297 0980 BE010000 		.4byte	.LASF149
 2298 0984 12       		.byte	0x12
 2299 0985 44       		.byte	0x44
 2300 0986 A9000000 		.4byte	0xa9
 2301 098a 12       		.byte	0x12
 2302 098b 07       		.uleb128 0x7
 2303 098c 59050000 		.4byte	.LASF150
 2304 0990 12       		.byte	0x12
 2305 0991 45       		.byte	0x45
 2306 0992 A9000000 		.4byte	0xa9
 2307 0996 13       		.byte	0x13
 2308 0997 07       		.uleb128 0x7
 2309 0998 4B070000 		.4byte	.LASF151
 2310 099c 12       		.byte	0x12
 2311 099d 46       		.byte	0x46
 2312 099e A9000000 		.4byte	0xa9
 2313 09a2 14       		.byte	0x14
 2314 09a3 07       		.uleb128 0x7
 2315 09a4 EE040000 		.4byte	.LASF152
 2316 09a8 12       		.byte	0x12
 2317 09a9 48       		.byte	0x48
 2318 09aa A9000000 		.4byte	0xa9
 2319 09ae 15       		.byte	0x15
 2320 09af 00       		.byte	0
 2321 09b0 17       		.uleb128 0x17
 2322 09b1 9C080000 		.4byte	0x89c
 2323 09b5 C0090000 		.4byte	0x9c0
 2324 09b9 18       		.uleb128 0x18
 2325 09ba 2C000000 		.4byte	0x2c
 2326 09be 03       		.byte	0x3
ARM GAS  /var/folders/d2/nstgp4h54kz7g1l847x_b8wc0000gn/T//ccy7UWJa.s 			page 42


 2327 09bf 00       		.byte	0
 2328 09c0 04       		.uleb128 0x4
 2329 09c1 3F020000 		.4byte	.LASF153
 2330 09c5 12       		.byte	0x12
 2331 09c6 49       		.byte	0x49
 2332 09c7 CF080000 		.4byte	0x8cf
 2333 09cb 1B       		.uleb128 0x1b
 2334 09cc C0090000 		.4byte	0x9c0
 2335 09d0 13       		.uleb128 0x13
 2336 09d1 7E040000 		.4byte	.LASF154
 2337 09d5 12       		.byte	0x12
 2338 09d6 6E       		.byte	0x6e
 2339 09d7 CB090000 		.4byte	0x9cb
 2340 09db 04       		.uleb128 0x4
 2341 09dc 8C010000 		.4byte	.LASF155
 2342 09e0 11       		.byte	0x11
 2343 09e1 34       		.byte	0x34
 2344 09e2 4E080000 		.4byte	0x84e
 2345 09e6 0A       		.uleb128 0xa
 2346 09e7 04       		.byte	0x4
 2347 09e8 DB090000 		.4byte	0x9db
 2348 09ec 1D       		.uleb128 0x1d
 2349 09ed 99080000 		.4byte	.LASF156
 2350 09f1 01       		.byte	0x1
 2351 09f2 1501     		.2byte	0x115
 2352 09f4 00000000 		.4byte	.LFB231
 2353 09f8 50000000 		.4byte	.LFE231-.LFB231
 2354 09fc 01       		.uleb128 0x1
 2355 09fd 9C       		.byte	0x9c
 2356 09fe 2C0A0000 		.4byte	0xa2c
 2357 0a02 1E       		.uleb128 0x1e
 2358 0a03 6F747000 		.ascii	"otp\000"
 2359 0a07 01       		.byte	0x1
 2360 0a08 1501     		.2byte	0x115
 2361 0a0a A2020000 		.4byte	0x2a2
 2362 0a0e 00000000 		.4byte	.LLST4
 2363 0a12 1F       		.uleb128 0x1f
 2364 0a13 9A0D0000 		.4byte	0xd9a
 2365 0a17 0E000000 		.4byte	.LBB52
 2366 0a1b 02000000 		.4byte	.LBE52-.LBB52
 2367 0a1f 01       		.byte	0x1
 2368 0a20 1701     		.2byte	0x117
 2369 0a22 20       		.uleb128 0x20
 2370 0a23 48000000 		.4byte	.LVL33
 2371 0a27 E40D0000 		.4byte	0xde4
 2372 0a2b 00       		.byte	0
 2373 0a2c 1D       		.uleb128 0x1d
 2374 0a2d F0060000 		.4byte	.LASF157
 2375 0a31 01       		.byte	0x1
 2376 0a32 0801     		.2byte	0x108
 2377 0a34 00000000 		.4byte	.LFB230
 2378 0a38 2C000000 		.4byte	.LFE230-.LFB230
 2379 0a3c 01       		.uleb128 0x1
 2380 0a3d 9C       		.byte	0x9c
 2381 0a3e 4C0A0000 		.4byte	0xa4c
 2382 0a42 20       		.uleb128 0x20
 2383 0a43 24000000 		.4byte	.LVL30
ARM GAS  /var/folders/d2/nstgp4h54kz7g1l847x_b8wc0000gn/T//ccy7UWJa.s 			page 43


 2384 0a47 E40D0000 		.4byte	0xde4
 2385 0a4b 00       		.byte	0
 2386 0a4c 21       		.uleb128 0x21
 2387 0a4d FA040000 		.4byte	.LASF158
 2388 0a51 01       		.byte	0x1
 2389 0a52 FA       		.byte	0xfa
 2390 0a53 00000000 		.4byte	.LFB229
 2391 0a57 48000000 		.4byte	.LFE229-.LFB229
 2392 0a5b 01       		.uleb128 0x1
 2393 0a5c 9C       		.byte	0x9c
 2394 0a5d 820A0000 		.4byte	0xa82
 2395 0a61 22       		.uleb128 0x22
 2396 0a62 38000000 		.4byte	.LVL28
 2397 0a66 ED0D0000 		.4byte	0xded
 2398 0a6a 780A0000 		.4byte	0xa78
 2399 0a6e 23       		.uleb128 0x23
 2400 0a6f 01       		.uleb128 0x1
 2401 0a70 50       		.byte	0x50
 2402 0a71 05       		.uleb128 0x5
 2403 0a72 03       		.byte	0x3
 2404 0a73 00000000 		.4byte	.LC10
 2405 0a77 00       		.byte	0
 2406 0a78 20       		.uleb128 0x20
 2407 0a79 3C000000 		.4byte	.LVL29
 2408 0a7d E40D0000 		.4byte	0xde4
 2409 0a81 00       		.byte	0
 2410 0a82 21       		.uleb128 0x21
 2411 0a83 D1040000 		.4byte	.LASF159
 2412 0a87 01       		.byte	0x1
 2413 0a88 EB       		.byte	0xeb
 2414 0a89 00000000 		.4byte	.LFB228
 2415 0a8d 4C000000 		.4byte	.LFE228-.LFB228
 2416 0a91 01       		.uleb128 0x1
 2417 0a92 9C       		.byte	0x9c
 2418 0a93 B80A0000 		.4byte	0xab8
 2419 0a97 22       		.uleb128 0x22
 2420 0a98 3A000000 		.4byte	.LVL26
 2421 0a9c ED0D0000 		.4byte	0xded
 2422 0aa0 AE0A0000 		.4byte	0xaae
 2423 0aa4 23       		.uleb128 0x23
 2424 0aa5 01       		.uleb128 0x1
 2425 0aa6 50       		.byte	0x50
 2426 0aa7 05       		.uleb128 0x5
 2427 0aa8 03       		.byte	0x3
 2428 0aa9 00000000 		.4byte	.LC9
 2429 0aad 00       		.byte	0
 2430 0aae 20       		.uleb128 0x20
 2431 0aaf 3E000000 		.4byte	.LVL27
 2432 0ab3 E40D0000 		.4byte	0xde4
 2433 0ab7 00       		.byte	0
 2434 0ab8 21       		.uleb128 0x21
 2435 0ab9 4E040000 		.4byte	.LASF160
 2436 0abd 01       		.byte	0x1
 2437 0abe D9       		.byte	0xd9
 2438 0abf 00000000 		.4byte	.LFB227
 2439 0ac3 4C000000 		.4byte	.LFE227-.LFB227
 2440 0ac7 01       		.uleb128 0x1
ARM GAS  /var/folders/d2/nstgp4h54kz7g1l847x_b8wc0000gn/T//ccy7UWJa.s 			page 44


 2441 0ac8 9C       		.byte	0x9c
 2442 0ac9 6C0B0000 		.4byte	0xb6c
 2443 0acd 24       		.uleb128 0x24
 2444 0ace AF0D0000 		.4byte	0xdaf
 2445 0ad2 0A000000 		.4byte	.LBB44
 2446 0ad6 06000000 		.4byte	.LBE44-.LBB44
 2447 0ada 01       		.byte	0x1
 2448 0adb DB       		.byte	0xdb
 2449 0adc 0C0B0000 		.4byte	0xb0c
 2450 0ae0 25       		.uleb128 0x25
 2451 0ae1 C10D0000 		.4byte	0xdc1
 2452 0ae5 0A000000 		.4byte	.LBB45
 2453 0ae9 06000000 		.4byte	.LBE45-.LBB45
 2454 0aed 0C       		.byte	0xc
 2455 0aee DB01     		.2byte	0x1db
 2456 0af0 25       		.uleb128 0x25
 2457 0af1 CA0D0000 		.4byte	0xdca
 2458 0af5 0A000000 		.4byte	.LBB46
 2459 0af9 06000000 		.4byte	.LBE46-.LBB46
 2460 0afd 0C       		.byte	0xc
 2461 0afe BF01     		.2byte	0x1bf
 2462 0b00 26       		.uleb128 0x26
 2463 0b01 D70D0000 		.4byte	0xdd7
 2464 0b05 21000000 		.4byte	.LLST2
 2465 0b09 00       		.byte	0
 2466 0b0a 00       		.byte	0
 2467 0b0b 00       		.byte	0
 2468 0b0c 24       		.uleb128 0x24
 2469 0b0d A60D0000 		.4byte	0xda6
 2470 0b11 28000000 		.4byte	.LBB48
 2471 0b15 06000000 		.4byte	.LBE48-.LBB48
 2472 0b19 01       		.byte	0x1
 2473 0b1a E0       		.byte	0xe0
 2474 0b1b 4B0B0000 		.4byte	0xb4b
 2475 0b1f 25       		.uleb128 0x25
 2476 0b20 B80D0000 		.4byte	0xdb8
 2477 0b24 28000000 		.4byte	.LBB49
 2478 0b28 06000000 		.4byte	.LBE49-.LBB49
 2479 0b2c 0C       		.byte	0xc
 2480 0b2d E601     		.2byte	0x1e6
 2481 0b2f 25       		.uleb128 0x25
 2482 0b30 CA0D0000 		.4byte	0xdca
 2483 0b34 28000000 		.4byte	.LBB50
 2484 0b38 06000000 		.4byte	.LBE50-.LBB50
 2485 0b3c 0C       		.byte	0xc
 2486 0b3d CD01     		.2byte	0x1cd
 2487 0b3f 26       		.uleb128 0x26
 2488 0b40 D70D0000 		.4byte	0xdd7
 2489 0b44 36000000 		.4byte	.LLST3
 2490 0b48 00       		.byte	0
 2491 0b49 00       		.byte	0
 2492 0b4a 00       		.byte	0
 2493 0b4b 27       		.uleb128 0x27
 2494 0b4c 22000000 		.4byte	.LVL22
 2495 0b50 ED0D0000 		.4byte	0xded
 2496 0b54 620B0000 		.4byte	0xb62
 2497 0b58 23       		.uleb128 0x23
ARM GAS  /var/folders/d2/nstgp4h54kz7g1l847x_b8wc0000gn/T//ccy7UWJa.s 			page 45


 2498 0b59 01       		.uleb128 0x1
 2499 0b5a 50       		.byte	0x50
 2500 0b5b 05       		.uleb128 0x5
 2501 0b5c 03       		.byte	0x3
 2502 0b5d 00000000 		.4byte	.LC8
 2503 0b61 00       		.byte	0
 2504 0b62 20       		.uleb128 0x20
 2505 0b63 3E000000 		.4byte	.LVL25
 2506 0b67 E40D0000 		.4byte	0xde4
 2507 0b6b 00       		.byte	0
 2508 0b6c 21       		.uleb128 0x21
 2509 0b6d F4050000 		.4byte	.LASF161
 2510 0b71 01       		.byte	0x1
 2511 0b72 CA       		.byte	0xca
 2512 0b73 00000000 		.4byte	.LFB226
 2513 0b77 4C000000 		.4byte	.LFE226-.LFB226
 2514 0b7b 01       		.uleb128 0x1
 2515 0b7c 9C       		.byte	0x9c
 2516 0b7d 200C0000 		.4byte	0xc20
 2517 0b81 24       		.uleb128 0x24
 2518 0b82 AF0D0000 		.4byte	0xdaf
 2519 0b86 0A000000 		.4byte	.LBB36
 2520 0b8a 06000000 		.4byte	.LBE36-.LBB36
 2521 0b8e 01       		.byte	0x1
 2522 0b8f CC       		.byte	0xcc
 2523 0b90 C00B0000 		.4byte	0xbc0
 2524 0b94 25       		.uleb128 0x25
 2525 0b95 C10D0000 		.4byte	0xdc1
 2526 0b99 0A000000 		.4byte	.LBB37
 2527 0b9d 06000000 		.4byte	.LBE37-.LBB37
 2528 0ba1 0C       		.byte	0xc
 2529 0ba2 DB01     		.2byte	0x1db
 2530 0ba4 25       		.uleb128 0x25
 2531 0ba5 CA0D0000 		.4byte	0xdca
 2532 0ba9 0A000000 		.4byte	.LBB38
 2533 0bad 06000000 		.4byte	.LBE38-.LBB38
 2534 0bb1 0C       		.byte	0xc
 2535 0bb2 BF01     		.2byte	0x1bf
 2536 0bb4 26       		.uleb128 0x26
 2537 0bb5 D70D0000 		.4byte	0xdd7
 2538 0bb9 4A000000 		.4byte	.LLST0
 2539 0bbd 00       		.byte	0
 2540 0bbe 00       		.byte	0
 2541 0bbf 00       		.byte	0
 2542 0bc0 24       		.uleb128 0x24
 2543 0bc1 A60D0000 		.4byte	0xda6
 2544 0bc5 28000000 		.4byte	.LBB40
 2545 0bc9 06000000 		.4byte	.LBE40-.LBB40
 2546 0bcd 01       		.byte	0x1
 2547 0bce D1       		.byte	0xd1
 2548 0bcf FF0B0000 		.4byte	0xbff
 2549 0bd3 25       		.uleb128 0x25
 2550 0bd4 B80D0000 		.4byte	0xdb8
 2551 0bd8 28000000 		.4byte	.LBB41
 2552 0bdc 06000000 		.4byte	.LBE41-.LBB41
 2553 0be0 0C       		.byte	0xc
 2554 0be1 E601     		.2byte	0x1e6
ARM GAS  /var/folders/d2/nstgp4h54kz7g1l847x_b8wc0000gn/T//ccy7UWJa.s 			page 46


 2555 0be3 25       		.uleb128 0x25
 2556 0be4 CA0D0000 		.4byte	0xdca
 2557 0be8 28000000 		.4byte	.LBB42
 2558 0bec 06000000 		.4byte	.LBE42-.LBB42
 2559 0bf0 0C       		.byte	0xc
 2560 0bf1 CD01     		.2byte	0x1cd
 2561 0bf3 26       		.uleb128 0x26
 2562 0bf4 D70D0000 		.4byte	0xdd7
 2563 0bf8 5F000000 		.4byte	.LLST1
 2564 0bfc 00       		.byte	0
 2565 0bfd 00       		.byte	0
 2566 0bfe 00       		.byte	0
 2567 0bff 27       		.uleb128 0x27
 2568 0c00 22000000 		.4byte	.LVL16
 2569 0c04 ED0D0000 		.4byte	0xded
 2570 0c08 160C0000 		.4byte	0xc16
 2571 0c0c 23       		.uleb128 0x23
 2572 0c0d 01       		.uleb128 0x1
 2573 0c0e 50       		.byte	0x50
 2574 0c0f 05       		.uleb128 0x5
 2575 0c10 03       		.byte	0x3
 2576 0c11 00000000 		.4byte	.LC7
 2577 0c15 00       		.byte	0
 2578 0c16 20       		.uleb128 0x20
 2579 0c17 3E000000 		.4byte	.LVL19
 2580 0c1b E40D0000 		.4byte	0xde4
 2581 0c1f 00       		.byte	0
 2582 0c20 21       		.uleb128 0x21
 2583 0c21 C4080000 		.4byte	.LASF162
 2584 0c25 01       		.byte	0x1
 2585 0c26 BD       		.byte	0xbd
 2586 0c27 00000000 		.4byte	.LFB225
 2587 0c2b 40000000 		.4byte	.LFE225-.LFB225
 2588 0c2f 01       		.uleb128 0x1
 2589 0c30 9C       		.byte	0x9c
 2590 0c31 560C0000 		.4byte	0xc56
 2591 0c35 27       		.uleb128 0x27
 2592 0c36 2E000000 		.4byte	.LVL12
 2593 0c3a ED0D0000 		.4byte	0xded
 2594 0c3e 4C0C0000 		.4byte	0xc4c
 2595 0c42 23       		.uleb128 0x23
 2596 0c43 01       		.uleb128 0x1
 2597 0c44 50       		.byte	0x50
 2598 0c45 05       		.uleb128 0x5
 2599 0c46 03       		.byte	0x3
 2600 0c47 00000000 		.4byte	.LC6
 2601 0c4b 00       		.byte	0
 2602 0c4c 20       		.uleb128 0x20
 2603 0c4d 34000000 		.4byte	.LVL13
 2604 0c51 E40D0000 		.4byte	0xde4
 2605 0c55 00       		.byte	0
 2606 0c56 21       		.uleb128 0x21
 2607 0c57 38060000 		.4byte	.LASF163
 2608 0c5b 01       		.byte	0x1
 2609 0c5c B0       		.byte	0xb0
 2610 0c5d 00000000 		.4byte	.LFB224
 2611 0c61 3C000000 		.4byte	.LFE224-.LFB224
ARM GAS  /var/folders/d2/nstgp4h54kz7g1l847x_b8wc0000gn/T//ccy7UWJa.s 			page 47


 2612 0c65 01       		.uleb128 0x1
 2613 0c66 9C       		.byte	0x9c
 2614 0c67 8C0C0000 		.4byte	0xc8c
 2615 0c6b 27       		.uleb128 0x27
 2616 0c6c 1C000000 		.4byte	.LVL10
 2617 0c70 ED0D0000 		.4byte	0xded
 2618 0c74 820C0000 		.4byte	0xc82
 2619 0c78 23       		.uleb128 0x23
 2620 0c79 01       		.uleb128 0x1
 2621 0c7a 50       		.byte	0x50
 2622 0c7b 05       		.uleb128 0x5
 2623 0c7c 03       		.byte	0x3
 2624 0c7d 00000000 		.4byte	.LC5
 2625 0c81 00       		.byte	0
 2626 0c82 20       		.uleb128 0x20
 2627 0c83 30000000 		.4byte	.LVL11
 2628 0c87 E40D0000 		.4byte	0xde4
 2629 0c8b 00       		.byte	0
 2630 0c8c 21       		.uleb128 0x21
 2631 0c8d 19090000 		.4byte	.LASF164
 2632 0c91 01       		.byte	0x1
 2633 0c92 A3       		.byte	0xa3
 2634 0c93 00000000 		.4byte	.LFB223
 2635 0c97 40000000 		.4byte	.LFE223-.LFB223
 2636 0c9b 01       		.uleb128 0x1
 2637 0c9c 9C       		.byte	0x9c
 2638 0c9d C20C0000 		.4byte	0xcc2
 2639 0ca1 27       		.uleb128 0x27
 2640 0ca2 2C000000 		.4byte	.LVL8
 2641 0ca6 ED0D0000 		.4byte	0xded
 2642 0caa B80C0000 		.4byte	0xcb8
 2643 0cae 23       		.uleb128 0x23
 2644 0caf 01       		.uleb128 0x1
 2645 0cb0 50       		.byte	0x50
 2646 0cb1 05       		.uleb128 0x5
 2647 0cb2 03       		.byte	0x3
 2648 0cb3 00000000 		.4byte	.LC4
 2649 0cb7 00       		.byte	0
 2650 0cb8 20       		.uleb128 0x20
 2651 0cb9 32000000 		.4byte	.LVL9
 2652 0cbd E40D0000 		.4byte	0xde4
 2653 0cc1 00       		.byte	0
 2654 0cc2 21       		.uleb128 0x21
 2655 0cc3 8A050000 		.4byte	.LASF165
 2656 0cc7 01       		.byte	0x1
 2657 0cc8 96       		.byte	0x96
 2658 0cc9 00000000 		.4byte	.LFB222
 2659 0ccd 3C000000 		.4byte	.LFE222-.LFB222
 2660 0cd1 01       		.uleb128 0x1
 2661 0cd2 9C       		.byte	0x9c
 2662 0cd3 F80C0000 		.4byte	0xcf8
 2663 0cd7 27       		.uleb128 0x27
 2664 0cd8 1A000000 		.4byte	.LVL6
 2665 0cdc ED0D0000 		.4byte	0xded
 2666 0ce0 EE0C0000 		.4byte	0xcee
 2667 0ce4 23       		.uleb128 0x23
 2668 0ce5 01       		.uleb128 0x1
ARM GAS  /var/folders/d2/nstgp4h54kz7g1l847x_b8wc0000gn/T//ccy7UWJa.s 			page 48


 2669 0ce6 50       		.byte	0x50
 2670 0ce7 05       		.uleb128 0x5
 2671 0ce8 03       		.byte	0x3
 2672 0ce9 00000000 		.4byte	.LC3
 2673 0ced 00       		.byte	0
 2674 0cee 20       		.uleb128 0x20
 2675 0cef 2E000000 		.4byte	.LVL7
 2676 0cf3 E40D0000 		.4byte	0xde4
 2677 0cf7 00       		.byte	0
 2678 0cf8 21       		.uleb128 0x21
 2679 0cf9 F8010000 		.4byte	.LASF166
 2680 0cfd 01       		.byte	0x1
 2681 0cfe 8A       		.byte	0x8a
 2682 0cff 00000000 		.4byte	.LFB221
 2683 0d03 48000000 		.4byte	.LFE221-.LFB221
 2684 0d07 01       		.uleb128 0x1
 2685 0d08 9C       		.byte	0x9c
 2686 0d09 2E0D0000 		.4byte	0xd2e
 2687 0d0d 22       		.uleb128 0x22
 2688 0d0e 28000000 		.4byte	.LVL4
 2689 0d12 ED0D0000 		.4byte	0xded
 2690 0d16 240D0000 		.4byte	0xd24
 2691 0d1a 23       		.uleb128 0x23
 2692 0d1b 01       		.uleb128 0x1
 2693 0d1c 50       		.byte	0x50
 2694 0d1d 05       		.uleb128 0x5
 2695 0d1e 03       		.byte	0x3
 2696 0d1f 00000000 		.4byte	.LC2
 2697 0d23 00       		.byte	0
 2698 0d24 20       		.uleb128 0x20
 2699 0d25 3A000000 		.4byte	.LVL5
 2700 0d29 E40D0000 		.4byte	0xde4
 2701 0d2d 00       		.byte	0
 2702 0d2e 21       		.uleb128 0x21
 2703 0d2f 65050000 		.4byte	.LASF167
 2704 0d33 01       		.byte	0x1
 2705 0d34 7E       		.byte	0x7e
 2706 0d35 00000000 		.4byte	.LFB220
 2707 0d39 48000000 		.4byte	.LFE220-.LFB220
 2708 0d3d 01       		.uleb128 0x1
 2709 0d3e 9C       		.byte	0x9c
 2710 0d3f 640D0000 		.4byte	0xd64
 2711 0d43 22       		.uleb128 0x22
 2712 0d44 28000000 		.4byte	.LVL2
 2713 0d48 ED0D0000 		.4byte	0xded
 2714 0d4c 5A0D0000 		.4byte	0xd5a
 2715 0d50 23       		.uleb128 0x23
 2716 0d51 01       		.uleb128 0x1
 2717 0d52 50       		.byte	0x50
 2718 0d53 05       		.uleb128 0x5
 2719 0d54 03       		.byte	0x3
 2720 0d55 00000000 		.4byte	.LC1
 2721 0d59 00       		.byte	0
 2722 0d5a 20       		.uleb128 0x20
 2723 0d5b 3A000000 		.4byte	.LVL3
 2724 0d5f E40D0000 		.4byte	0xde4
 2725 0d63 00       		.byte	0
ARM GAS  /var/folders/d2/nstgp4h54kz7g1l847x_b8wc0000gn/T//ccy7UWJa.s 			page 49


 2726 0d64 21       		.uleb128 0x21
 2727 0d65 1D020000 		.4byte	.LASF168
 2728 0d69 01       		.byte	0x1
 2729 0d6a 72       		.byte	0x72
 2730 0d6b 00000000 		.4byte	.LFB219
 2731 0d6f 48000000 		.4byte	.LFE219-.LFB219
 2732 0d73 01       		.uleb128 0x1
 2733 0d74 9C       		.byte	0x9c
 2734 0d75 9A0D0000 		.4byte	0xd9a
 2735 0d79 22       		.uleb128 0x22
 2736 0d7a 28000000 		.4byte	.LVL0
 2737 0d7e ED0D0000 		.4byte	0xded
 2738 0d82 900D0000 		.4byte	0xd90
 2739 0d86 23       		.uleb128 0x23
 2740 0d87 01       		.uleb128 0x1
 2741 0d88 50       		.byte	0x50
 2742 0d89 05       		.uleb128 0x5
 2743 0d8a 03       		.byte	0x3
 2744 0d8b 00000000 		.4byte	.LC0
 2745 0d8f 00       		.byte	0
 2746 0d90 20       		.uleb128 0x20
 2747 0d91 3A000000 		.4byte	.LVL1
 2748 0d95 E40D0000 		.4byte	0xde4
 2749 0d99 00       		.byte	0
 2750 0d9a 28       		.uleb128 0x28
 2751 0d9b C6020000 		.4byte	.LASF176
 2752 0d9f 03       		.byte	0x3
 2753 0da0 E4       		.byte	0xe4
 2754 0da1 5E010000 		.4byte	0x15e
 2755 0da5 03       		.byte	0x3
 2756 0da6 29       		.uleb128 0x29
 2757 0da7 1F080000 		.4byte	.LASF169
 2758 0dab 0C       		.byte	0xc
 2759 0dac E401     		.2byte	0x1e4
 2760 0dae 03       		.byte	0x3
 2761 0daf 29       		.uleb128 0x29
 2762 0db0 AA080000 		.4byte	.LASF170
 2763 0db4 0C       		.byte	0xc
 2764 0db5 D901     		.2byte	0x1d9
 2765 0db7 03       		.byte	0x3
 2766 0db8 29       		.uleb128 0x29
 2767 0db9 E2010000 		.4byte	.LASF171
 2768 0dbd 0C       		.byte	0xc
 2769 0dbe CA01     		.2byte	0x1ca
 2770 0dc0 03       		.byte	0x3
 2771 0dc1 29       		.uleb128 0x29
 2772 0dc2 D4000000 		.4byte	.LASF172
 2773 0dc6 0C       		.byte	0xc
 2774 0dc7 BC01     		.2byte	0x1bc
 2775 0dc9 03       		.byte	0x3
 2776 0dca 2A       		.uleb128 0x2a
 2777 0dcb 72080000 		.4byte	.LASF177
 2778 0dcf 02       		.byte	0x2
 2779 0dd0 2002     		.2byte	0x220
 2780 0dd2 03       		.byte	0x3
 2781 0dd3 E40D0000 		.4byte	0xde4
 2782 0dd7 2B       		.uleb128 0x2b
ARM GAS  /var/folders/d2/nstgp4h54kz7g1l847x_b8wc0000gn/T//ccy7UWJa.s 			page 50


 2783 0dd8 A2020000 		.4byte	.LASF178
 2784 0ddc 02       		.byte	0x2
 2785 0ddd 2002     		.2byte	0x220
 2786 0ddf CF000000 		.4byte	0xcf
 2787 0de3 00       		.byte	0
 2788 0de4 2C       		.uleb128 0x2c
 2789 0de5 98070000 		.4byte	.LASF179
 2790 0de9 98070000 		.4byte	.LASF179
 2791 0ded 2D       		.uleb128 0x2d
 2792 0dee 7A020000 		.4byte	.LASF180
 2793 0df2 7A020000 		.4byte	.LASF180
 2794 0df6 13       		.byte	0x13
 2795 0df7 1601     		.2byte	0x116
 2796 0df9 00       		.byte	0
 2797              		.section	.debug_abbrev,"",%progbits
 2798              	.Ldebug_abbrev0:
 2799 0000 01       		.uleb128 0x1
 2800 0001 11       		.uleb128 0x11
 2801 0002 01       		.byte	0x1
 2802 0003 25       		.uleb128 0x25
 2803 0004 0E       		.uleb128 0xe
 2804 0005 13       		.uleb128 0x13
 2805 0006 0B       		.uleb128 0xb
 2806 0007 03       		.uleb128 0x3
 2807 0008 0E       		.uleb128 0xe
 2808 0009 1B       		.uleb128 0x1b
 2809 000a 0E       		.uleb128 0xe
 2810 000b 55       		.uleb128 0x55
 2811 000c 17       		.uleb128 0x17
 2812 000d 11       		.uleb128 0x11
 2813 000e 01       		.uleb128 0x1
 2814 000f 10       		.uleb128 0x10
 2815 0010 17       		.uleb128 0x17
 2816 0011 00       		.byte	0
 2817 0012 00       		.byte	0
 2818 0013 02       		.uleb128 0x2
 2819 0014 24       		.uleb128 0x24
 2820 0015 00       		.byte	0
 2821 0016 0B       		.uleb128 0xb
 2822 0017 0B       		.uleb128 0xb
 2823 0018 3E       		.uleb128 0x3e
 2824 0019 0B       		.uleb128 0xb
 2825 001a 03       		.uleb128 0x3
 2826 001b 08       		.uleb128 0x8
 2827 001c 00       		.byte	0
 2828 001d 00       		.byte	0
 2829 001e 03       		.uleb128 0x3
 2830 001f 24       		.uleb128 0x24
 2831 0020 00       		.byte	0
 2832 0021 0B       		.uleb128 0xb
 2833 0022 0B       		.uleb128 0xb
 2834 0023 3E       		.uleb128 0x3e
 2835 0024 0B       		.uleb128 0xb
 2836 0025 03       		.uleb128 0x3
 2837 0026 0E       		.uleb128 0xe
 2838 0027 00       		.byte	0
 2839 0028 00       		.byte	0
ARM GAS  /var/folders/d2/nstgp4h54kz7g1l847x_b8wc0000gn/T//ccy7UWJa.s 			page 51


 2840 0029 04       		.uleb128 0x4
 2841 002a 16       		.uleb128 0x16
 2842 002b 00       		.byte	0
 2843 002c 03       		.uleb128 0x3
 2844 002d 0E       		.uleb128 0xe
 2845 002e 3A       		.uleb128 0x3a
 2846 002f 0B       		.uleb128 0xb
 2847 0030 3B       		.uleb128 0x3b
 2848 0031 0B       		.uleb128 0xb
 2849 0032 49       		.uleb128 0x49
 2850 0033 13       		.uleb128 0x13
 2851 0034 00       		.byte	0
 2852 0035 00       		.byte	0
 2853 0036 05       		.uleb128 0x5
 2854 0037 35       		.uleb128 0x35
 2855 0038 00       		.byte	0
 2856 0039 49       		.uleb128 0x49
 2857 003a 13       		.uleb128 0x13
 2858 003b 00       		.byte	0
 2859 003c 00       		.byte	0
 2860 003d 06       		.uleb128 0x6
 2861 003e 13       		.uleb128 0x13
 2862 003f 01       		.byte	0x1
 2863 0040 03       		.uleb128 0x3
 2864 0041 0E       		.uleb128 0xe
 2865 0042 0B       		.uleb128 0xb
 2866 0043 0B       		.uleb128 0xb
 2867 0044 3A       		.uleb128 0x3a
 2868 0045 0B       		.uleb128 0xb
 2869 0046 3B       		.uleb128 0x3b
 2870 0047 0B       		.uleb128 0xb
 2871 0048 01       		.uleb128 0x1
 2872 0049 13       		.uleb128 0x13
 2873 004a 00       		.byte	0
 2874 004b 00       		.byte	0
 2875 004c 07       		.uleb128 0x7
 2876 004d 0D       		.uleb128 0xd
 2877 004e 00       		.byte	0
 2878 004f 03       		.uleb128 0x3
 2879 0050 0E       		.uleb128 0xe
 2880 0051 3A       		.uleb128 0x3a
 2881 0052 0B       		.uleb128 0xb
 2882 0053 3B       		.uleb128 0x3b
 2883 0054 0B       		.uleb128 0xb
 2884 0055 49       		.uleb128 0x49
 2885 0056 13       		.uleb128 0x13
 2886 0057 38       		.uleb128 0x38
 2887 0058 0B       		.uleb128 0xb
 2888 0059 00       		.byte	0
 2889 005a 00       		.byte	0
 2890 005b 08       		.uleb128 0x8
 2891 005c 0D       		.uleb128 0xd
 2892 005d 00       		.byte	0
 2893 005e 03       		.uleb128 0x3
 2894 005f 08       		.uleb128 0x8
 2895 0060 3A       		.uleb128 0x3a
 2896 0061 0B       		.uleb128 0xb
ARM GAS  /var/folders/d2/nstgp4h54kz7g1l847x_b8wc0000gn/T//ccy7UWJa.s 			page 52


 2897 0062 3B       		.uleb128 0x3b
 2898 0063 05       		.uleb128 0x5
 2899 0064 49       		.uleb128 0x49
 2900 0065 13       		.uleb128 0x13
 2901 0066 38       		.uleb128 0x38
 2902 0067 0B       		.uleb128 0xb
 2903 0068 00       		.byte	0
 2904 0069 00       		.byte	0
 2905 006a 09       		.uleb128 0x9
 2906 006b 0D       		.uleb128 0xd
 2907 006c 00       		.byte	0
 2908 006d 03       		.uleb128 0x3
 2909 006e 0E       		.uleb128 0xe
 2910 006f 3A       		.uleb128 0x3a
 2911 0070 0B       		.uleb128 0xb
 2912 0071 3B       		.uleb128 0x3b
 2913 0072 05       		.uleb128 0x5
 2914 0073 49       		.uleb128 0x49
 2915 0074 13       		.uleb128 0x13
 2916 0075 38       		.uleb128 0x38
 2917 0076 0B       		.uleb128 0xb
 2918 0077 00       		.byte	0
 2919 0078 00       		.byte	0
 2920 0079 0A       		.uleb128 0xa
 2921 007a 0F       		.uleb128 0xf
 2922 007b 00       		.byte	0
 2923 007c 0B       		.uleb128 0xb
 2924 007d 0B       		.uleb128 0xb
 2925 007e 49       		.uleb128 0x49
 2926 007f 13       		.uleb128 0x13
 2927 0080 00       		.byte	0
 2928 0081 00       		.byte	0
 2929 0082 0B       		.uleb128 0xb
 2930 0083 13       		.uleb128 0x13
 2931 0084 01       		.byte	0x1
 2932 0085 03       		.uleb128 0x3
 2933 0086 0E       		.uleb128 0xe
 2934 0087 0B       		.uleb128 0xb
 2935 0088 0B       		.uleb128 0xb
 2936 0089 3A       		.uleb128 0x3a
 2937 008a 0B       		.uleb128 0xb
 2938 008b 3B       		.uleb128 0x3b
 2939 008c 05       		.uleb128 0x5
 2940 008d 01       		.uleb128 0x1
 2941 008e 13       		.uleb128 0x13
 2942 008f 00       		.byte	0
 2943 0090 00       		.byte	0
 2944 0091 0C       		.uleb128 0xc
 2945 0092 15       		.uleb128 0x15
 2946 0093 01       		.byte	0x1
 2947 0094 27       		.uleb128 0x27
 2948 0095 19       		.uleb128 0x19
 2949 0096 01       		.uleb128 0x1
 2950 0097 13       		.uleb128 0x13
 2951 0098 00       		.byte	0
 2952 0099 00       		.byte	0
 2953 009a 0D       		.uleb128 0xd
ARM GAS  /var/folders/d2/nstgp4h54kz7g1l847x_b8wc0000gn/T//ccy7UWJa.s 			page 53


 2954 009b 05       		.uleb128 0x5
 2955 009c 00       		.byte	0
 2956 009d 49       		.uleb128 0x49
 2957 009e 13       		.uleb128 0x13
 2958 009f 00       		.byte	0
 2959 00a0 00       		.byte	0
 2960 00a1 0E       		.uleb128 0xe
 2961 00a2 0F       		.uleb128 0xf
 2962 00a3 00       		.byte	0
 2963 00a4 0B       		.uleb128 0xb
 2964 00a5 0B       		.uleb128 0xb
 2965 00a6 00       		.byte	0
 2966 00a7 00       		.byte	0
 2967 00a8 0F       		.uleb128 0xf
 2968 00a9 13       		.uleb128 0x13
 2969 00aa 01       		.byte	0x1
 2970 00ab 03       		.uleb128 0x3
 2971 00ac 0E       		.uleb128 0xe
 2972 00ad 0B       		.uleb128 0xb
 2973 00ae 05       		.uleb128 0x5
 2974 00af 3A       		.uleb128 0x3a
 2975 00b0 0B       		.uleb128 0xb
 2976 00b1 3B       		.uleb128 0x3b
 2977 00b2 05       		.uleb128 0x5
 2978 00b3 01       		.uleb128 0x1
 2979 00b4 13       		.uleb128 0x13
 2980 00b5 00       		.byte	0
 2981 00b6 00       		.byte	0
 2982 00b7 10       		.uleb128 0x10
 2983 00b8 0D       		.uleb128 0xd
 2984 00b9 00       		.byte	0
 2985 00ba 03       		.uleb128 0x3
 2986 00bb 0E       		.uleb128 0xe
 2987 00bc 3A       		.uleb128 0x3a
 2988 00bd 0B       		.uleb128 0xb
 2989 00be 3B       		.uleb128 0x3b
 2990 00bf 05       		.uleb128 0x5
 2991 00c0 49       		.uleb128 0x49
 2992 00c1 13       		.uleb128 0x13
 2993 00c2 38       		.uleb128 0x38
 2994 00c3 05       		.uleb128 0x5
 2995 00c4 00       		.byte	0
 2996 00c5 00       		.byte	0
 2997 00c6 11       		.uleb128 0x11
 2998 00c7 0D       		.uleb128 0xd
 2999 00c8 00       		.byte	0
 3000 00c9 03       		.uleb128 0x3
 3001 00ca 08       		.uleb128 0x8
 3002 00cb 3A       		.uleb128 0x3a
 3003 00cc 0B       		.uleb128 0xb
 3004 00cd 3B       		.uleb128 0x3b
 3005 00ce 05       		.uleb128 0x5
 3006 00cf 49       		.uleb128 0x49
 3007 00d0 13       		.uleb128 0x13
 3008 00d1 38       		.uleb128 0x38
 3009 00d2 05       		.uleb128 0x5
 3010 00d3 00       		.byte	0
ARM GAS  /var/folders/d2/nstgp4h54kz7g1l847x_b8wc0000gn/T//ccy7UWJa.s 			page 54


 3011 00d4 00       		.byte	0
 3012 00d5 12       		.uleb128 0x12
 3013 00d6 34       		.uleb128 0x34
 3014 00d7 00       		.byte	0
 3015 00d8 03       		.uleb128 0x3
 3016 00d9 0E       		.uleb128 0xe
 3017 00da 3A       		.uleb128 0x3a
 3018 00db 0B       		.uleb128 0xb
 3019 00dc 3B       		.uleb128 0x3b
 3020 00dd 05       		.uleb128 0x5
 3021 00de 49       		.uleb128 0x49
 3022 00df 13       		.uleb128 0x13
 3023 00e0 3F       		.uleb128 0x3f
 3024 00e1 19       		.uleb128 0x19
 3025 00e2 3C       		.uleb128 0x3c
 3026 00e3 19       		.uleb128 0x19
 3027 00e4 00       		.byte	0
 3028 00e5 00       		.byte	0
 3029 00e6 13       		.uleb128 0x13
 3030 00e7 34       		.uleb128 0x34
 3031 00e8 00       		.byte	0
 3032 00e9 03       		.uleb128 0x3
 3033 00ea 0E       		.uleb128 0xe
 3034 00eb 3A       		.uleb128 0x3a
 3035 00ec 0B       		.uleb128 0xb
 3036 00ed 3B       		.uleb128 0x3b
 3037 00ee 0B       		.uleb128 0xb
 3038 00ef 49       		.uleb128 0x49
 3039 00f0 13       		.uleb128 0x13
 3040 00f1 3F       		.uleb128 0x3f
 3041 00f2 19       		.uleb128 0x19
 3042 00f3 3C       		.uleb128 0x3c
 3043 00f4 19       		.uleb128 0x19
 3044 00f5 00       		.byte	0
 3045 00f6 00       		.byte	0
 3046 00f7 14       		.uleb128 0x14
 3047 00f8 0D       		.uleb128 0xd
 3048 00f9 00       		.byte	0
 3049 00fa 03       		.uleb128 0x3
 3050 00fb 08       		.uleb128 0x8
 3051 00fc 3A       		.uleb128 0x3a
 3052 00fd 0B       		.uleb128 0xb
 3053 00fe 3B       		.uleb128 0x3b
 3054 00ff 0B       		.uleb128 0xb
 3055 0100 49       		.uleb128 0x49
 3056 0101 13       		.uleb128 0x13
 3057 0102 38       		.uleb128 0x38
 3058 0103 0B       		.uleb128 0xb
 3059 0104 00       		.byte	0
 3060 0105 00       		.byte	0
 3061 0106 15       		.uleb128 0x15
 3062 0107 13       		.uleb128 0x13
 3063 0108 01       		.byte	0x1
 3064 0109 0B       		.uleb128 0xb
 3065 010a 0B       		.uleb128 0xb
 3066 010b 3A       		.uleb128 0x3a
 3067 010c 0B       		.uleb128 0xb
ARM GAS  /var/folders/d2/nstgp4h54kz7g1l847x_b8wc0000gn/T//ccy7UWJa.s 			page 55


 3068 010d 3B       		.uleb128 0x3b
 3069 010e 0B       		.uleb128 0xb
 3070 010f 01       		.uleb128 0x1
 3071 0110 13       		.uleb128 0x13
 3072 0111 00       		.byte	0
 3073 0112 00       		.byte	0
 3074 0113 16       		.uleb128 0x16
 3075 0114 13       		.uleb128 0x13
 3076 0115 01       		.byte	0x1
 3077 0116 0B       		.uleb128 0xb
 3078 0117 05       		.uleb128 0x5
 3079 0118 3A       		.uleb128 0x3a
 3080 0119 0B       		.uleb128 0xb
 3081 011a 3B       		.uleb128 0x3b
 3082 011b 0B       		.uleb128 0xb
 3083 011c 01       		.uleb128 0x1
 3084 011d 13       		.uleb128 0x13
 3085 011e 00       		.byte	0
 3086 011f 00       		.byte	0
 3087 0120 17       		.uleb128 0x17
 3088 0121 01       		.uleb128 0x1
 3089 0122 01       		.byte	0x1
 3090 0123 49       		.uleb128 0x49
 3091 0124 13       		.uleb128 0x13
 3092 0125 01       		.uleb128 0x1
 3093 0126 13       		.uleb128 0x13
 3094 0127 00       		.byte	0
 3095 0128 00       		.byte	0
 3096 0129 18       		.uleb128 0x18
 3097 012a 21       		.uleb128 0x21
 3098 012b 00       		.byte	0
 3099 012c 49       		.uleb128 0x49
 3100 012d 13       		.uleb128 0x13
 3101 012e 2F       		.uleb128 0x2f
 3102 012f 0B       		.uleb128 0xb
 3103 0130 00       		.byte	0
 3104 0131 00       		.byte	0
 3105 0132 19       		.uleb128 0x19
 3106 0133 17       		.uleb128 0x17
 3107 0134 01       		.byte	0x1
 3108 0135 0B       		.uleb128 0xb
 3109 0136 0B       		.uleb128 0xb
 3110 0137 3A       		.uleb128 0x3a
 3111 0138 0B       		.uleb128 0xb
 3112 0139 3B       		.uleb128 0x3b
 3113 013a 0B       		.uleb128 0xb
 3114 013b 01       		.uleb128 0x1
 3115 013c 13       		.uleb128 0x13
 3116 013d 00       		.byte	0
 3117 013e 00       		.byte	0
 3118 013f 1A       		.uleb128 0x1a
 3119 0140 0D       		.uleb128 0xd
 3120 0141 00       		.byte	0
 3121 0142 03       		.uleb128 0x3
 3122 0143 0E       		.uleb128 0xe
 3123 0144 3A       		.uleb128 0x3a
 3124 0145 0B       		.uleb128 0xb
ARM GAS  /var/folders/d2/nstgp4h54kz7g1l847x_b8wc0000gn/T//ccy7UWJa.s 			page 56


 3125 0146 3B       		.uleb128 0x3b
 3126 0147 05       		.uleb128 0x5
 3127 0148 49       		.uleb128 0x49
 3128 0149 13       		.uleb128 0x13
 3129 014a 00       		.byte	0
 3130 014b 00       		.byte	0
 3131 014c 1B       		.uleb128 0x1b
 3132 014d 26       		.uleb128 0x26
 3133 014e 00       		.byte	0
 3134 014f 49       		.uleb128 0x49
 3135 0150 13       		.uleb128 0x13
 3136 0151 00       		.byte	0
 3137 0152 00       		.byte	0
 3138 0153 1C       		.uleb128 0x1c
 3139 0154 34       		.uleb128 0x34
 3140 0155 00       		.byte	0
 3141 0156 03       		.uleb128 0x3
 3142 0157 08       		.uleb128 0x8
 3143 0158 3A       		.uleb128 0x3a
 3144 0159 0B       		.uleb128 0xb
 3145 015a 3B       		.uleb128 0x3b
 3146 015b 05       		.uleb128 0x5
 3147 015c 49       		.uleb128 0x49
 3148 015d 13       		.uleb128 0x13
 3149 015e 3F       		.uleb128 0x3f
 3150 015f 19       		.uleb128 0x19
 3151 0160 3C       		.uleb128 0x3c
 3152 0161 19       		.uleb128 0x19
 3153 0162 00       		.byte	0
 3154 0163 00       		.byte	0
 3155 0164 1D       		.uleb128 0x1d
 3156 0165 2E       		.uleb128 0x2e
 3157 0166 01       		.byte	0x1
 3158 0167 3F       		.uleb128 0x3f
 3159 0168 19       		.uleb128 0x19
 3160 0169 03       		.uleb128 0x3
 3161 016a 0E       		.uleb128 0xe
 3162 016b 3A       		.uleb128 0x3a
 3163 016c 0B       		.uleb128 0xb
 3164 016d 3B       		.uleb128 0x3b
 3165 016e 05       		.uleb128 0x5
 3166 016f 27       		.uleb128 0x27
 3167 0170 19       		.uleb128 0x19
 3168 0171 11       		.uleb128 0x11
 3169 0172 01       		.uleb128 0x1
 3170 0173 12       		.uleb128 0x12
 3171 0174 06       		.uleb128 0x6
 3172 0175 40       		.uleb128 0x40
 3173 0176 18       		.uleb128 0x18
 3174 0177 9742     		.uleb128 0x2117
 3175 0179 19       		.uleb128 0x19
 3176 017a 01       		.uleb128 0x1
 3177 017b 13       		.uleb128 0x13
 3178 017c 00       		.byte	0
 3179 017d 00       		.byte	0
 3180 017e 1E       		.uleb128 0x1e
 3181 017f 05       		.uleb128 0x5
ARM GAS  /var/folders/d2/nstgp4h54kz7g1l847x_b8wc0000gn/T//ccy7UWJa.s 			page 57


 3182 0180 00       		.byte	0
 3183 0181 03       		.uleb128 0x3
 3184 0182 08       		.uleb128 0x8
 3185 0183 3A       		.uleb128 0x3a
 3186 0184 0B       		.uleb128 0xb
 3187 0185 3B       		.uleb128 0x3b
 3188 0186 05       		.uleb128 0x5
 3189 0187 49       		.uleb128 0x49
 3190 0188 13       		.uleb128 0x13
 3191 0189 02       		.uleb128 0x2
 3192 018a 17       		.uleb128 0x17
 3193 018b 00       		.byte	0
 3194 018c 00       		.byte	0
 3195 018d 1F       		.uleb128 0x1f
 3196 018e 1D       		.uleb128 0x1d
 3197 018f 00       		.byte	0
 3198 0190 31       		.uleb128 0x31
 3199 0191 13       		.uleb128 0x13
 3200 0192 11       		.uleb128 0x11
 3201 0193 01       		.uleb128 0x1
 3202 0194 12       		.uleb128 0x12
 3203 0195 06       		.uleb128 0x6
 3204 0196 58       		.uleb128 0x58
 3205 0197 0B       		.uleb128 0xb
 3206 0198 59       		.uleb128 0x59
 3207 0199 05       		.uleb128 0x5
 3208 019a 00       		.byte	0
 3209 019b 00       		.byte	0
 3210 019c 20       		.uleb128 0x20
 3211 019d 898201   		.uleb128 0x4109
 3212 01a0 00       		.byte	0
 3213 01a1 11       		.uleb128 0x11
 3214 01a2 01       		.uleb128 0x1
 3215 01a3 31       		.uleb128 0x31
 3216 01a4 13       		.uleb128 0x13
 3217 01a5 00       		.byte	0
 3218 01a6 00       		.byte	0
 3219 01a7 21       		.uleb128 0x21
 3220 01a8 2E       		.uleb128 0x2e
 3221 01a9 01       		.byte	0x1
 3222 01aa 3F       		.uleb128 0x3f
 3223 01ab 19       		.uleb128 0x19
 3224 01ac 03       		.uleb128 0x3
 3225 01ad 0E       		.uleb128 0xe
 3226 01ae 3A       		.uleb128 0x3a
 3227 01af 0B       		.uleb128 0xb
 3228 01b0 3B       		.uleb128 0x3b
 3229 01b1 0B       		.uleb128 0xb
 3230 01b2 27       		.uleb128 0x27
 3231 01b3 19       		.uleb128 0x19
 3232 01b4 11       		.uleb128 0x11
 3233 01b5 01       		.uleb128 0x1
 3234 01b6 12       		.uleb128 0x12
 3235 01b7 06       		.uleb128 0x6
 3236 01b8 40       		.uleb128 0x40
 3237 01b9 18       		.uleb128 0x18
 3238 01ba 9742     		.uleb128 0x2117
ARM GAS  /var/folders/d2/nstgp4h54kz7g1l847x_b8wc0000gn/T//ccy7UWJa.s 			page 58


 3239 01bc 19       		.uleb128 0x19
 3240 01bd 01       		.uleb128 0x1
 3241 01be 13       		.uleb128 0x13
 3242 01bf 00       		.byte	0
 3243 01c0 00       		.byte	0
 3244 01c1 22       		.uleb128 0x22
 3245 01c2 898201   		.uleb128 0x4109
 3246 01c5 01       		.byte	0x1
 3247 01c6 11       		.uleb128 0x11
 3248 01c7 01       		.uleb128 0x1
 3249 01c8 9542     		.uleb128 0x2115
 3250 01ca 19       		.uleb128 0x19
 3251 01cb 31       		.uleb128 0x31
 3252 01cc 13       		.uleb128 0x13
 3253 01cd 01       		.uleb128 0x1
 3254 01ce 13       		.uleb128 0x13
 3255 01cf 00       		.byte	0
 3256 01d0 00       		.byte	0
 3257 01d1 23       		.uleb128 0x23
 3258 01d2 8A8201   		.uleb128 0x410a
 3259 01d5 00       		.byte	0
 3260 01d6 02       		.uleb128 0x2
 3261 01d7 18       		.uleb128 0x18
 3262 01d8 9142     		.uleb128 0x2111
 3263 01da 18       		.uleb128 0x18
 3264 01db 00       		.byte	0
 3265 01dc 00       		.byte	0
 3266 01dd 24       		.uleb128 0x24
 3267 01de 1D       		.uleb128 0x1d
 3268 01df 01       		.byte	0x1
 3269 01e0 31       		.uleb128 0x31
 3270 01e1 13       		.uleb128 0x13
 3271 01e2 11       		.uleb128 0x11
 3272 01e3 01       		.uleb128 0x1
 3273 01e4 12       		.uleb128 0x12
 3274 01e5 06       		.uleb128 0x6
 3275 01e6 58       		.uleb128 0x58
 3276 01e7 0B       		.uleb128 0xb
 3277 01e8 59       		.uleb128 0x59
 3278 01e9 0B       		.uleb128 0xb
 3279 01ea 01       		.uleb128 0x1
 3280 01eb 13       		.uleb128 0x13
 3281 01ec 00       		.byte	0
 3282 01ed 00       		.byte	0
 3283 01ee 25       		.uleb128 0x25
 3284 01ef 1D       		.uleb128 0x1d
 3285 01f0 01       		.byte	0x1
 3286 01f1 31       		.uleb128 0x31
 3287 01f2 13       		.uleb128 0x13
 3288 01f3 11       		.uleb128 0x11
 3289 01f4 01       		.uleb128 0x1
 3290 01f5 12       		.uleb128 0x12
 3291 01f6 06       		.uleb128 0x6
 3292 01f7 58       		.uleb128 0x58
 3293 01f8 0B       		.uleb128 0xb
 3294 01f9 59       		.uleb128 0x59
 3295 01fa 05       		.uleb128 0x5
ARM GAS  /var/folders/d2/nstgp4h54kz7g1l847x_b8wc0000gn/T//ccy7UWJa.s 			page 59


 3296 01fb 00       		.byte	0
 3297 01fc 00       		.byte	0
 3298 01fd 26       		.uleb128 0x26
 3299 01fe 05       		.uleb128 0x5
 3300 01ff 00       		.byte	0
 3301 0200 31       		.uleb128 0x31
 3302 0201 13       		.uleb128 0x13
 3303 0202 02       		.uleb128 0x2
 3304 0203 17       		.uleb128 0x17
 3305 0204 00       		.byte	0
 3306 0205 00       		.byte	0
 3307 0206 27       		.uleb128 0x27
 3308 0207 898201   		.uleb128 0x4109
 3309 020a 01       		.byte	0x1
 3310 020b 11       		.uleb128 0x11
 3311 020c 01       		.uleb128 0x1
 3312 020d 31       		.uleb128 0x31
 3313 020e 13       		.uleb128 0x13
 3314 020f 01       		.uleb128 0x1
 3315 0210 13       		.uleb128 0x13
 3316 0211 00       		.byte	0
 3317 0212 00       		.byte	0
 3318 0213 28       		.uleb128 0x28
 3319 0214 2E       		.uleb128 0x2e
 3320 0215 00       		.byte	0
 3321 0216 03       		.uleb128 0x3
 3322 0217 0E       		.uleb128 0xe
 3323 0218 3A       		.uleb128 0x3a
 3324 0219 0B       		.uleb128 0xb
 3325 021a 3B       		.uleb128 0x3b
 3326 021b 0B       		.uleb128 0xb
 3327 021c 27       		.uleb128 0x27
 3328 021d 19       		.uleb128 0x19
 3329 021e 49       		.uleb128 0x49
 3330 021f 13       		.uleb128 0x13
 3331 0220 20       		.uleb128 0x20
 3332 0221 0B       		.uleb128 0xb
 3333 0222 00       		.byte	0
 3334 0223 00       		.byte	0
 3335 0224 29       		.uleb128 0x29
 3336 0225 2E       		.uleb128 0x2e
 3337 0226 00       		.byte	0
 3338 0227 03       		.uleb128 0x3
 3339 0228 0E       		.uleb128 0xe
 3340 0229 3A       		.uleb128 0x3a
 3341 022a 0B       		.uleb128 0xb
 3342 022b 3B       		.uleb128 0x3b
 3343 022c 05       		.uleb128 0x5
 3344 022d 27       		.uleb128 0x27
 3345 022e 19       		.uleb128 0x19
 3346 022f 20       		.uleb128 0x20
 3347 0230 0B       		.uleb128 0xb
 3348 0231 00       		.byte	0
 3349 0232 00       		.byte	0
 3350 0233 2A       		.uleb128 0x2a
 3351 0234 2E       		.uleb128 0x2e
 3352 0235 01       		.byte	0x1
ARM GAS  /var/folders/d2/nstgp4h54kz7g1l847x_b8wc0000gn/T//ccy7UWJa.s 			page 60


 3353 0236 03       		.uleb128 0x3
 3354 0237 0E       		.uleb128 0xe
 3355 0238 3A       		.uleb128 0x3a
 3356 0239 0B       		.uleb128 0xb
 3357 023a 3B       		.uleb128 0x3b
 3358 023b 05       		.uleb128 0x5
 3359 023c 27       		.uleb128 0x27
 3360 023d 19       		.uleb128 0x19
 3361 023e 20       		.uleb128 0x20
 3362 023f 0B       		.uleb128 0xb
 3363 0240 01       		.uleb128 0x1
 3364 0241 13       		.uleb128 0x13
 3365 0242 00       		.byte	0
 3366 0243 00       		.byte	0
 3367 0244 2B       		.uleb128 0x2b
 3368 0245 05       		.uleb128 0x5
 3369 0246 00       		.byte	0
 3370 0247 03       		.uleb128 0x3
 3371 0248 0E       		.uleb128 0xe
 3372 0249 3A       		.uleb128 0x3a
 3373 024a 0B       		.uleb128 0xb
 3374 024b 3B       		.uleb128 0x3b
 3375 024c 05       		.uleb128 0x5
 3376 024d 49       		.uleb128 0x49
 3377 024e 13       		.uleb128 0x13
 3378 024f 00       		.byte	0
 3379 0250 00       		.byte	0
 3380 0251 2C       		.uleb128 0x2c
 3381 0252 2E       		.uleb128 0x2e
 3382 0253 00       		.byte	0
 3383 0254 3F       		.uleb128 0x3f
 3384 0255 19       		.uleb128 0x19
 3385 0256 3C       		.uleb128 0x3c
 3386 0257 19       		.uleb128 0x19
 3387 0258 6E       		.uleb128 0x6e
 3388 0259 0E       		.uleb128 0xe
 3389 025a 03       		.uleb128 0x3
 3390 025b 0E       		.uleb128 0xe
 3391 025c 00       		.byte	0
 3392 025d 00       		.byte	0
 3393 025e 2D       		.uleb128 0x2d
 3394 025f 2E       		.uleb128 0x2e
 3395 0260 00       		.byte	0
 3396 0261 3F       		.uleb128 0x3f
 3397 0262 19       		.uleb128 0x19
 3398 0263 3C       		.uleb128 0x3c
 3399 0264 19       		.uleb128 0x19
 3400 0265 6E       		.uleb128 0x6e
 3401 0266 0E       		.uleb128 0xe
 3402 0267 03       		.uleb128 0x3
 3403 0268 0E       		.uleb128 0xe
 3404 0269 3A       		.uleb128 0x3a
 3405 026a 0B       		.uleb128 0xb
 3406 026b 3B       		.uleb128 0x3b
 3407 026c 05       		.uleb128 0x5
 3408 026d 00       		.byte	0
 3409 026e 00       		.byte	0
ARM GAS  /var/folders/d2/nstgp4h54kz7g1l847x_b8wc0000gn/T//ccy7UWJa.s 			page 61


 3410 026f 00       		.byte	0
 3411              		.section	.debug_loc,"",%progbits
 3412              	.Ldebug_loc0:
 3413              	.LLST4:
 3414 0000 00000000 		.4byte	.LVL31
 3415 0004 24000000 		.4byte	.LVL32
 3416 0008 0100     		.2byte	0x1
 3417 000a 50       		.byte	0x50
 3418 000b 24000000 		.4byte	.LVL32
 3419 000f 50000000 		.4byte	.LFE231
 3420 0013 0400     		.2byte	0x4
 3421 0015 F3       		.byte	0xf3
 3422 0016 01       		.uleb128 0x1
 3423 0017 50       		.byte	0x50
 3424 0018 9F       		.byte	0x9f
 3425 0019 00000000 		.4byte	0
 3426 001d 00000000 		.4byte	0
 3427              	.LLST2:
 3428 0021 0A000000 		.4byte	.LVL20
 3429 0025 10000000 		.4byte	.LVL21
 3430 0029 0300     		.2byte	0x3
 3431 002b 08       		.byte	0x8
 3432 002c 20       		.byte	0x20
 3433 002d 9F       		.byte	0x9f
 3434 002e 00000000 		.4byte	0
 3435 0032 00000000 		.4byte	0
 3436              	.LLST3:
 3437 0036 28000000 		.4byte	.LVL23
 3438 003a 2E000000 		.4byte	.LVL24
 3439 003e 0200     		.2byte	0x2
 3440 0040 30       		.byte	0x30
 3441 0041 9F       		.byte	0x9f
 3442 0042 00000000 		.4byte	0
 3443 0046 00000000 		.4byte	0
 3444              	.LLST0:
 3445 004a 0A000000 		.4byte	.LVL14
 3446 004e 10000000 		.4byte	.LVL15
 3447 0052 0300     		.2byte	0x3
 3448 0054 08       		.byte	0x8
 3449 0055 20       		.byte	0x20
 3450 0056 9F       		.byte	0x9f
 3451 0057 00000000 		.4byte	0
 3452 005b 00000000 		.4byte	0
 3453              	.LLST1:
 3454 005f 28000000 		.4byte	.LVL17
 3455 0063 2E000000 		.4byte	.LVL18
 3456 0067 0200     		.2byte	0x2
 3457 0069 30       		.byte	0x30
 3458 006a 9F       		.byte	0x9f
 3459 006b 00000000 		.4byte	0
 3460 006f 00000000 		.4byte	0
 3461              		.section	.debug_aranges,"",%progbits
 3462 0000 7C000000 		.4byte	0x7c
 3463 0004 0200     		.2byte	0x2
 3464 0006 00000000 		.4byte	.Ldebug_info0
 3465 000a 04       		.byte	0x4
 3466 000b 00       		.byte	0
ARM GAS  /var/folders/d2/nstgp4h54kz7g1l847x_b8wc0000gn/T//ccy7UWJa.s 			page 62


 3467 000c 0000     		.2byte	0
 3468 000e 0000     		.2byte	0
 3469 0010 00000000 		.4byte	.LFB219
 3470 0014 48000000 		.4byte	.LFE219-.LFB219
 3471 0018 00000000 		.4byte	.LFB220
 3472 001c 48000000 		.4byte	.LFE220-.LFB220
 3473 0020 00000000 		.4byte	.LFB221
 3474 0024 48000000 		.4byte	.LFE221-.LFB221
 3475 0028 00000000 		.4byte	.LFB222
 3476 002c 3C000000 		.4byte	.LFE222-.LFB222
 3477 0030 00000000 		.4byte	.LFB223
 3478 0034 40000000 		.4byte	.LFE223-.LFB223
 3479 0038 00000000 		.4byte	.LFB224
 3480 003c 3C000000 		.4byte	.LFE224-.LFB224
 3481 0040 00000000 		.4byte	.LFB225
 3482 0044 40000000 		.4byte	.LFE225-.LFB225
 3483 0048 00000000 		.4byte	.LFB226
 3484 004c 4C000000 		.4byte	.LFE226-.LFB226
 3485 0050 00000000 		.4byte	.LFB227
 3486 0054 4C000000 		.4byte	.LFE227-.LFB227
 3487 0058 00000000 		.4byte	.LFB228
 3488 005c 4C000000 		.4byte	.LFE228-.LFB228
 3489 0060 00000000 		.4byte	.LFB229
 3490 0064 48000000 		.4byte	.LFE229-.LFB229
 3491 0068 00000000 		.4byte	.LFB230
 3492 006c 2C000000 		.4byte	.LFE230-.LFB230
 3493 0070 00000000 		.4byte	.LFB231
 3494 0074 50000000 		.4byte	.LFE231-.LFB231
 3495 0078 00000000 		.4byte	0
 3496 007c 00000000 		.4byte	0
 3497              		.section	.debug_ranges,"",%progbits
 3498              	.Ldebug_ranges0:
 3499 0000 00000000 		.4byte	.LFB219
 3500 0004 48000000 		.4byte	.LFE219
 3501 0008 00000000 		.4byte	.LFB220
 3502 000c 48000000 		.4byte	.LFE220
 3503 0010 00000000 		.4byte	.LFB221
 3504 0014 48000000 		.4byte	.LFE221
 3505 0018 00000000 		.4byte	.LFB222
 3506 001c 3C000000 		.4byte	.LFE222
 3507 0020 00000000 		.4byte	.LFB223
 3508 0024 40000000 		.4byte	.LFE223
 3509 0028 00000000 		.4byte	.LFB224
 3510 002c 3C000000 		.4byte	.LFE224
 3511 0030 00000000 		.4byte	.LFB225
 3512 0034 40000000 		.4byte	.LFE225
 3513 0038 00000000 		.4byte	.LFB226
 3514 003c 4C000000 		.4byte	.LFE226
 3515 0040 00000000 		.4byte	.LFB227
 3516 0044 4C000000 		.4byte	.LFE227
 3517 0048 00000000 		.4byte	.LFB228
 3518 004c 4C000000 		.4byte	.LFE228
 3519 0050 00000000 		.4byte	.LFB229
 3520 0054 48000000 		.4byte	.LFE229
 3521 0058 00000000 		.4byte	.LFB230
 3522 005c 2C000000 		.4byte	.LFE230
 3523 0060 00000000 		.4byte	.LFB231
ARM GAS  /var/folders/d2/nstgp4h54kz7g1l847x_b8wc0000gn/T//ccy7UWJa.s 			page 63


 3524 0064 50000000 		.4byte	.LFE231
 3525 0068 00000000 		.4byte	0
 3526 006c 00000000 		.4byte	0
 3527              		.section	.debug_line,"",%progbits
 3528              	.Ldebug_line0:
 3529 0000 3A050000 		.section	.debug_str,"MS",%progbits,1
 3529      02005B03 
 3529      00000201 
 3529      FB0E0D00 
 3529      01010101 
 3530              	.LASF145:
 3531 0000 63665F6F 		.ascii	"cf_off_older\000"
 3531      66665F6F 
 3531      6C646572 
 3531      00
 3532              	.LASF175:
 3533 000d 2F557365 		.ascii	"/Users/bharathkeshavamurthy/Workspaces/Talos/src/ma"
 3533      72732F62 
 3533      68617261 
 3533      74686B65 
 3533      73686176 
 3534 0040 696E2F63 		.ascii	"in/cpp/org/purdue/ece/talos/optimize/\000"
 3534      70702F6F 
 3534      72672F70 
 3534      75726475 
 3534      652F6563 
 3535              	.LASF60:
 3536 0066 72656164 		.ascii	"ready_list_t\000"
 3536      795F6C69 
 3536      73745F74 
 3536      00
 3537              	.LASF98:
 3538 0073 73655F74 		.ascii	"se_time\000"
 3538      696D6500 
 3539              	.LASF122:
 3540 007b 77747472 		.ascii	"wttrp\000"
 3540      7000
 3541              	.LASF119:
 3542 0081 7264796D 		.ascii	"rdymsg\000"
 3542      736700
 3543              	.LASF19:
 3544 0088 75696E74 		.ascii	"uint64_t\000"
 3544      36345F74 
 3544      00
 3545              	.LASF90:
 3546 0091 6B65726E 		.ascii	"kernel_stats\000"
 3546      656C5F73 
 3546      74617473 
 3546      00
 3547              	.LASF6:
 3548 009e 5F5F7569 		.ascii	"__uint8_t\000"
 3548      6E74385F 
 3548      7400
 3549              	.LASF97:
 3550 00a8 706F7274 		.ascii	"port_intctx\000"
 3550      5F696E74 
 3550      63747800 
ARM GAS  /var/folders/d2/nstgp4h54kz7g1l847x_b8wc0000gn/T//ccy7UWJa.s 			page 64


 3551              	.LASF59:
 3552 00b4 63685F74 		.ascii	"ch_threads_queue\000"
 3552      68726561 
 3552      64735F71 
 3552      75657565 
 3552      00
 3553              	.LASF79:
 3554 00c5 73797374 		.ascii	"system_debug_t\000"
 3554      656D5F64 
 3554      65627567 
 3554      5F7400
 3555              	.LASF172:
 3556 00d4 706F7274 		.ascii	"port_lock\000"
 3556      5F6C6F63 
 3556      6B00
 3557              	.LASF110:
 3558 00de 776F7273 		.ascii	"worst\000"
 3558      7400
 3559              	.LASF113:
 3560 00e4 74696D65 		.ascii	"time_measurement_t\000"
 3560      5F6D6561 
 3560      73757265 
 3560      6D656E74 
 3560      5F7400
 3561              	.LASF14:
 3562 00f7 6C6F6E67 		.ascii	"long long unsigned int\000"
 3562      206C6F6E 
 3562      6720756E 
 3562      7369676E 
 3562      65642069 
 3563              	.LASF106:
 3564 010e 63685F74 		.ascii	"ch_trace_buffer_t\000"
 3564      72616365 
 3564      5F627566 
 3564      6665725F 
 3564      7400
 3565              	.LASF141:
 3566 0120 63685F74 		.ascii	"ch_threadsize\000"
 3566      68726561 
 3566      6473697A 
 3566      6500
 3567              	.LASF120:
 3568 012e 65786974 		.ascii	"exitcode\000"
 3568      636F6465 
 3568      00
 3569              	.LASF89:
 3570 0137 6D61696E 		.ascii	"mainthread\000"
 3570      74687265 
 3570      616400
 3571              	.LASF9:
 3572 0142 5F5F696E 		.ascii	"__int32_t\000"
 3572      7433325F 
 3572      7400
 3573              	.LASF76:
 3574 014c 76697274 		.ascii	"virtual_timers_list_t\000"
 3574      75616C5F 
 3574      74696D65 
ARM GAS  /var/folders/d2/nstgp4h54kz7g1l847x_b8wc0000gn/T//ccy7UWJa.s 			page 65


 3574      72735F6C 
 3574      6973745F 
 3575              	.LASF92:
 3576 0162 49544D5F 		.ascii	"ITM_RxBuffer\000"
 3576      52784275 
 3576      66666572 
 3576      00
 3577              	.LASF21:
 3578 016f 72747469 		.ascii	"rttime_t\000"
 3578      6D655F74 
 3578      00
 3579              	.LASF35:
 3580 0178 705F7072 		.ascii	"p_prio\000"
 3580      696F00
 3581              	.LASF148:
 3582 017f 63665F6F 		.ascii	"cf_off_state\000"
 3582      66665F73 
 3582      74617465 
 3582      00
 3583              	.LASF155:
 3584 018c 6D757465 		.ascii	"mutex_t\000"
 3584      785F7400 
 3585              	.LASF1:
 3586 0194 6C6F6E67 		.ascii	"long long int\000"
 3586      206C6F6E 
 3586      6720696E 
 3586      7400
 3587              	.LASF3:
 3588 01a2 7369676E 		.ascii	"signed char\000"
 3588      65642063 
 3588      68617200 
 3589              	.LASF147:
 3590 01ae 63665F6F 		.ascii	"cf_off_stklimit\000"
 3590      66665F73 
 3590      746B6C69 
 3590      6D697400 
 3591              	.LASF149:
 3592 01be 63665F6F 		.ascii	"cf_off_flags\000"
 3592      66665F66 
 3592      6C616773 
 3592      00
 3593              	.LASF52:
 3594 01cb 705F6D70 		.ascii	"p_mpool\000"
 3594      6F6F6C00 
 3595              	.LASF130:
 3596 01d3 6D5F7175 		.ascii	"m_queue\000"
 3596      65756500 
 3597              	.LASF88:
 3598 01db 76746C69 		.ascii	"vtlist\000"
 3598      737400
 3599              	.LASF171:
 3600 01e2 706F7274 		.ascii	"port_unlock\000"
 3600      5F756E6C 
 3600      6F636B00 
 3601              	.LASF25:
 3602 01ee 74736C69 		.ascii	"tslices_t\000"
 3602      6365735F 
ARM GAS  /var/folders/d2/nstgp4h54kz7g1l847x_b8wc0000gn/T//ccy7UWJa.s 			page 66


 3602      7400
 3603              	.LASF166:
 3604 01f8 5F646267 		.ascii	"_dbg_check_enable\000"
 3604      5F636865 
 3604      636B5F65 
 3604      6E61626C 
 3604      6500
 3605              	.LASF86:
 3606 020a 63685F73 		.ascii	"ch_system\000"
 3606      79737465 
 3606      6D00
 3607              	.LASF10:
 3608 0214 6C6F6E67 		.ascii	"long int\000"
 3608      20696E74 
 3608      00
 3609              	.LASF168:
 3610 021d 5F646267 		.ascii	"_dbg_check_disable\000"
 3610      5F636865 
 3610      636B5F64 
 3610      69736162 
 3610      6C6500
 3611              	.LASF23:
 3612 0230 74737461 		.ascii	"tstate_t\000"
 3612      74655F74 
 3612      00
 3613              	.LASF99:
 3614 0239 73655F74 		.ascii	"se_tp\000"
 3614      7000
 3615              	.LASF153:
 3616 023f 63686465 		.ascii	"chdebug_t\000"
 3616      6275675F 
 3616      7400
 3617              	.LASF37:
 3618 0249 705F6E65 		.ascii	"p_newer\000"
 3618      77657200 
 3619              	.LASF127:
 3620 0251 735F7175 		.ascii	"s_queue\000"
 3620      65756500 
 3621              	.LASF103:
 3622 0259 74625F73 		.ascii	"tb_size\000"
 3622      697A6500 
 3623              	.LASF65:
 3624 0261 725F6E65 		.ascii	"r_newer\000"
 3624      77657200 
 3625              	.LASF94:
 3626 0269 72656761 		.ascii	"regarm_t\000"
 3626      726D5F74 
 3626      00
 3627              	.LASF72:
 3628 0272 76745F70 		.ascii	"vt_prev\000"
 3628      72657600 
 3629              	.LASF180:
 3630 027a 63685379 		.ascii	"chSysHalt\000"
 3630      7348616C 
 3630      7400
 3631              	.LASF80:
 3632 0284 63685F73 		.ascii	"ch_system_debug\000"
ARM GAS  /var/folders/d2/nstgp4h54kz7g1l847x_b8wc0000gn/T//ccy7UWJa.s 			page 67


 3632      79737465 
 3632      6D5F6465 
 3632      62756700 
 3633              	.LASF133:
 3634 0294 6D5F636E 		.ascii	"m_cnt\000"
 3634      7400
 3635              	.LASF71:
 3636 029a 76745F6E 		.ascii	"vt_next\000"
 3636      65787400 
 3637              	.LASF178:
 3638 02a2 76616C75 		.ascii	"value\000"
 3638      6500
 3639              	.LASF83:
 3640 02a8 6C6F636B 		.ascii	"lock_cnt\000"
 3640      5F636E74 
 3640      00
 3641              	.LASF91:
 3642 02b1 69646C65 		.ascii	"idle_thread_wa\000"
 3642      5F746872 
 3642      6561645F 
 3642      776100
 3643              	.LASF29:
 3644 02c0 636E745F 		.ascii	"cnt_t\000"
 3644      7400
 3645              	.LASF176:
 3646 02c6 63685654 		.ascii	"chVTGetSystemTimeX\000"
 3646      47657453 
 3646      79737465 
 3646      6D54696D 
 3646      655800
 3647              	.LASF40:
 3648 02d9 705F7374 		.ascii	"p_stklimit\000"
 3648      6B6C696D 
 3648      697400
 3649              	.LASF0:
 3650 02e4 756E7369 		.ascii	"unsigned int\000"
 3650      676E6564 
 3650      20696E74 
 3650      00
 3651              	.LASF173:
 3652 02f1 474E5520 		.ascii	"GNU C11 7.2.1 20170904 (release) [ARM/embedded-7-br"
 3652      43313120 
 3652      372E322E 
 3652      31203230 
 3652      31373039 
 3653 0324 616E6368 		.ascii	"anch revision 255204] -mcpu=cortex-m4 -mfloat-abi=h"
 3653      20726576 
 3653      6973696F 
 3653      6E203235 
 3653      35323034 
 3654 0357 61726420 		.ascii	"ard -mfpu=fpv4-sp-d16 -mno-thumb-interwork -mthumb "
 3654      2D6D6670 
 3654      753D6670 
 3654      76342D73 
 3654      702D6431 
 3655 038a 2D676764 		.ascii	"-ggdb -O2 -fomit-frame-pointer -falign-functions=16"
 3655      62202D4F 
ARM GAS  /var/folders/d2/nstgp4h54kz7g1l847x_b8wc0000gn/T//ccy7UWJa.s 			page 68


 3655      32202D66 
 3655      6F6D6974 
 3655      2D667261 
 3656 03bd 202D666E 		.ascii	" -fno-strict-aliasing -fstack-protector-all -ffunct"
 3656      6F2D7374 
 3656      72696374 
 3656      2D616C69 
 3656      6173696E 
 3657 03f0 696F6E2D 		.ascii	"ion-sections -fdata-sections -fno-common -fsingle-p"
 3657      73656374 
 3657      696F6E73 
 3657      202D6664 
 3657      6174612D 
 3658 0423 72656369 		.ascii	"recision-constant\000"
 3658      73696F6E 
 3658      2D636F6E 
 3658      7374616E 
 3658      7400
 3659              	.LASF16:
 3660 0435 75696E74 		.ascii	"uint16_t\000"
 3660      31365F74 
 3660      00
 3661              	.LASF93:
 3662 043e 53797374 		.ascii	"SystemCoreClock\000"
 3662      656D436F 
 3662      7265436C 
 3662      6F636B00 
 3663              	.LASF160:
 3664 044e 5F646267 		.ascii	"_dbg_check_leave_isr\000"
 3664      5F636865 
 3664      636B5F6C 
 3664      65617665 
 3664      5F697372 
 3665              	.LASF123:
 3666 0463 77747365 		.ascii	"wtsemp\000"
 3666      6D7000
 3667              	.LASF73:
 3668 046a 76745F64 		.ascii	"vt_delta\000"
 3668      656C7461 
 3668      00
 3669              	.LASF47:
 3670 0473 705F6D73 		.ascii	"p_msgqueue\000"
 3670      67717565 
 3670      756500
 3671              	.LASF154:
 3672 047e 63685F64 		.ascii	"ch_debug\000"
 3672      65627567 
 3672      00
 3673              	.LASF114:
 3674 0487 6E5F6972 		.ascii	"n_irq\000"
 3674      7100
 3675              	.LASF128:
 3676 048d 735F636E 		.ascii	"s_cnt\000"
 3676      7400
 3677              	.LASF8:
 3678 0493 73686F72 		.ascii	"short unsigned int\000"
 3678      7420756E 
ARM GAS  /var/folders/d2/nstgp4h54kz7g1l847x_b8wc0000gn/T//ccy7UWJa.s 			page 69


 3678      7369676E 
 3678      65642069 
 3678      6E7400
 3679              	.LASF118:
 3680 04a6 6B65726E 		.ascii	"kernel_stats_t\000"
 3680      656C5F73 
 3680      74617473 
 3680      5F7400
 3681              	.LASF56:
 3682 04b5 63685F74 		.ascii	"ch_thread\000"
 3682      68726561 
 3682      6400
 3683              	.LASF27:
 3684 04bf 6D73675F 		.ascii	"msg_t\000"
 3684      7400
 3685              	.LASF111:
 3686 04c5 6C617374 		.ascii	"last\000"
 3686      00
 3687              	.LASF30:
 3688 04ca 75636E74 		.ascii	"ucnt_t\000"
 3688      5F7400
 3689              	.LASF159:
 3690 04d1 63684462 		.ascii	"chDbgCheckClassI\000"
 3690      67436865 
 3690      636B436C 
 3690      61737349 
 3690      00
 3691              	.LASF85:
 3692 04e2 63685F73 		.ascii	"ch_system_t\000"
 3692      79737465 
 3692      6D5F7400 
 3693              	.LASF152:
 3694 04ee 63665F6F 		.ascii	"cf_off_time\000"
 3694      66665F74 
 3694      696D6500 
 3695              	.LASF158:
 3696 04fa 63684462 		.ascii	"chDbgCheckClassS\000"
 3696      67436865 
 3696      636B436C 
 3696      61737353 
 3696      00
 3697              	.LASF45:
 3698 050b 705F7469 		.ascii	"p_time\000"
 3698      6D6500
 3699              	.LASF117:
 3700 0512 6D5F6372 		.ascii	"m_crit_isr\000"
 3700      69745F69 
 3700      737200
 3701              	.LASF61:
 3702 051d 63685F72 		.ascii	"ch_ready_list\000"
 3702      65616479 
 3702      5F6C6973 
 3702      7400
 3703              	.LASF28:
 3704 052b 6576656E 		.ascii	"eventmask_t\000"
 3704      746D6173 
 3704      6B5F7400 
ARM GAS  /var/folders/d2/nstgp4h54kz7g1l847x_b8wc0000gn/T//ccy7UWJa.s 			page 70


 3705              	.LASF95:
 3706 0537 73746B61 		.ascii	"stkalign_t\000"
 3706      6C69676E 
 3706      5F7400
 3707              	.LASF55:
 3708 0542 74687265 		.ascii	"threads_list_t\000"
 3708      6164735F 
 3708      6C697374 
 3708      5F7400
 3709              	.LASF136:
 3710 0551 63685F7A 		.ascii	"ch_zero\000"
 3710      65726F00 
 3711              	.LASF150:
 3712 0559 63665F6F 		.ascii	"cf_off_refs\000"
 3712      66665F72 
 3712      65667300 
 3713              	.LASF167:
 3714 0565 5F646267 		.ascii	"_dbg_check_suspend\000"
 3714      5F636865 
 3714      636B5F73 
 3714      75737065 
 3714      6E6400
 3715              	.LASF46:
 3716 0578 705F7761 		.ascii	"p_waiting\000"
 3716      6974696E 
 3716      6700
 3717              	.LASF20:
 3718 0582 7274636E 		.ascii	"rtcnt_t\000"
 3718      745F7400 
 3719              	.LASF165:
 3720 058a 5F646267 		.ascii	"_dbg_check_lock\000"
 3720      5F636865 
 3720      636B5F6C 
 3720      6F636B00 
 3721              	.LASF77:
 3722 059a 63685F76 		.ascii	"ch_virtual_timers_list\000"
 3722      69727475 
 3722      616C5F74 
 3722      696D6572 
 3722      735F6C69 
 3723              	.LASF2:
 3724 05b1 6C6F6E67 		.ascii	"long double\000"
 3724      20646F75 
 3724      626C6500 
 3725              	.LASF140:
 3726 05bd 63685F74 		.ascii	"ch_timesize\000"
 3726      696D6573 
 3726      697A6500 
 3727              	.LASF104:
 3728 05c9 74625F70 		.ascii	"tb_ptr\000"
 3728      747200
 3729              	.LASF102:
 3730 05d0 63685F73 		.ascii	"ch_swc_event_t\000"
 3730      77635F65 
 3730      76656E74 
 3730      5F7400
 3731              	.LASF146:
ARM GAS  /var/folders/d2/nstgp4h54kz7g1l847x_b8wc0000gn/T//ccy7UWJa.s 			page 71


 3732 05df 63665F6F 		.ascii	"cf_off_name\000"
 3732      66665F6E 
 3732      616D6500 
 3733              	.LASF115:
 3734 05eb 6E5F6374 		.ascii	"n_ctxswc\000"
 3734      78737763 
 3734      00
 3735              	.LASF161:
 3736 05f4 5F646267 		.ascii	"_dbg_check_enter_isr\000"
 3736      5F636865 
 3736      636B5F65 
 3736      6E746572 
 3736      5F697372 
 3737              	.LASF64:
 3738 0609 725F6374 		.ascii	"r_ctx\000"
 3738      7800
 3739              	.LASF36:
 3740 060f 705F6374 		.ascii	"p_ctx\000"
 3740      7800
 3741              	.LASF108:
 3742 0615 746D5F63 		.ascii	"tm_calibration_t\000"
 3742      616C6962 
 3742      72617469 
 3742      6F6E5F74 
 3742      00
 3743              	.LASF67:
 3744 0626 725F6375 		.ascii	"r_current\000"
 3744      7272656E 
 3744      7400
 3745              	.LASF66:
 3746 0630 725F6F6C 		.ascii	"r_older\000"
 3746      64657200 
 3747              	.LASF163:
 3748 0638 5F646267 		.ascii	"_dbg_check_lock_from_isr\000"
 3748      5F636865 
 3748      636B5F6C 
 3748      6F636B5F 
 3748      66726F6D 
 3749              	.LASF13:
 3750 0651 5F5F7569 		.ascii	"__uint64_t\000"
 3750      6E743634 
 3750      5F7400
 3751              	.LASF112:
 3752 065c 63756D75 		.ascii	"cumulative\000"
 3752      6C617469 
 3752      766500
 3753              	.LASF24:
 3754 0667 74726566 		.ascii	"trefs_t\000"
 3754      735F7400 
 3755              	.LASF105:
 3756 066f 74625F62 		.ascii	"tb_buffer\000"
 3756      75666665 
 3756      7200
 3757              	.LASF139:
 3758 0679 63685F70 		.ascii	"ch_ptrsize\000"
 3758      74727369 
 3758      7A6500
ARM GAS  /var/folders/d2/nstgp4h54kz7g1l847x_b8wc0000gn/T//ccy7UWJa.s 			page 72


 3759              	.LASF69:
 3760 0684 76697274 		.ascii	"virtual_timer_t\000"
 3760      75616C5F 
 3760      74696D65 
 3760      725F7400 
 3761              	.LASF34:
 3762 0694 705F7072 		.ascii	"p_prev\000"
 3762      657600
 3763              	.LASF26:
 3764 069b 74707269 		.ascii	"tprio_t\000"
 3764      6F5F7400 
 3765              	.LASF174:
 3766 06a3 2E2E2F65 		.ascii	"../e-puck2_main-processor/ChibiOS//os/rt/src/chdebu"
 3766      2D707563 
 3766      6B325F6D 
 3766      61696E2D 
 3766      70726F63 
 3767 06d6 672E6300 		.ascii	"g.c\000"
 3768              	.LASF17:
 3769 06da 696E7433 		.ascii	"int32_t\000"
 3769      325F7400 
 3770              	.LASF4:
 3771 06e2 756E7369 		.ascii	"unsigned char\000"
 3771      676E6564 
 3771      20636861 
 3771      7200
 3772              	.LASF157:
 3773 06f0 5F646267 		.ascii	"_dbg_trace_init\000"
 3773      5F747261 
 3773      63655F69 
 3773      6E697400 
 3774              	.LASF50:
 3775 0700 705F6D74 		.ascii	"p_mtxlist\000"
 3775      786C6973 
 3775      7400
 3776              	.LASF5:
 3777 070a 73686F72 		.ascii	"short int\000"
 3777      7420696E 
 3777      7400
 3778              	.LASF41:
 3779 0714 705F7374 		.ascii	"p_state\000"
 3779      61746500 
 3780              	.LASF44:
 3781 071c 705F7072 		.ascii	"p_preempt\000"
 3781      65656D70 
 3781      7400
 3782              	.LASF38:
 3783 0726 705F6F6C 		.ascii	"p_older\000"
 3783      64657200 
 3784              	.LASF63:
 3785 072e 725F7072 		.ascii	"r_prio\000"
 3785      696F00
 3786              	.LASF125:
 3787 0735 65776D61 		.ascii	"ewmask\000"
 3787      736B00
 3788              	.LASF33:
 3789 073c 705F6E65 		.ascii	"p_next\000"
ARM GAS  /var/folders/d2/nstgp4h54kz7g1l847x_b8wc0000gn/T//ccy7UWJa.s 			page 73


 3789      787400
 3790              	.LASF22:
 3791 0743 746D6F64 		.ascii	"tmode_t\000"
 3791      655F7400 
 3792              	.LASF151:
 3793 074b 63665F6F 		.ascii	"cf_off_preempt\000"
 3793      66665F70 
 3793      7265656D 
 3793      707400
 3794              	.LASF42:
 3795 075a 705F666C 		.ascii	"p_flags\000"
 3795      61677300 
 3796              	.LASF53:
 3797 0762 705F7374 		.ascii	"p_stats\000"
 3797      61747300 
 3798              	.LASF58:
 3799 076a 74687265 		.ascii	"threads_queue_t\000"
 3799      6164735F 
 3799      71756575 
 3799      655F7400 
 3800              	.LASF70:
 3801 077a 63685F76 		.ascii	"ch_virtual_timer\000"
 3801      69727475 
 3801      616C5F74 
 3801      696D6572 
 3801      00
 3802              	.LASF144:
 3803 078b 63665F6F 		.ascii	"cf_off_newer\000"
 3803      66665F6E 
 3803      65776572 
 3803      00
 3804              	.LASF179:
 3805 0798 5F5F7374 		.ascii	"__stack_chk_fail\000"
 3805      61636B5F 
 3805      63686B5F 
 3805      6661696C 
 3805      00
 3806              	.LASF126:
 3807 07a9 63685F73 		.ascii	"ch_semaphore\000"
 3807      656D6170 
 3807      686F7265 
 3807      00
 3808              	.LASF49:
 3809 07b6 705F6570 		.ascii	"p_epending\000"
 3809      656E6469 
 3809      6E6700
 3810              	.LASF18:
 3811 07c1 75696E74 		.ascii	"uint32_t\000"
 3811      33325F74 
 3811      00
 3812              	.LASF142:
 3813 07ca 63665F6F 		.ascii	"cf_off_prio\000"
 3813      66665F70 
 3813      72696F00 
 3814              	.LASF62:
 3815 07d6 725F7175 		.ascii	"r_queue\000"
 3815      65756500 
ARM GAS  /var/folders/d2/nstgp4h54kz7g1l847x_b8wc0000gn/T//ccy7UWJa.s 			page 74


 3816              	.LASF57:
 3817 07de 63685F74 		.ascii	"ch_threads_list\000"
 3817      68726561 
 3817      64735F6C 
 3817      69737400 
 3818              	.LASF137:
 3819 07ee 63685F73 		.ascii	"ch_size\000"
 3819      697A6500 
 3820              	.LASF12:
 3821 07f6 6C6F6E67 		.ascii	"long unsigned int\000"
 3821      20756E73 
 3821      69676E65 
 3821      6420696E 
 3821      7400
 3822              	.LASF134:
 3823 0808 63686172 		.ascii	"char\000"
 3823      00
 3824              	.LASF124:
 3825 080d 77746D74 		.ascii	"wtmtxp\000"
 3825      787000
 3826              	.LASF7:
 3827 0814 5F5F7569 		.ascii	"__uint16_t\000"
 3827      6E743136 
 3827      5F7400
 3828              	.LASF169:
 3829 081f 706F7274 		.ascii	"port_unlock_from_isr\000"
 3829      5F756E6C 
 3829      6F636B5F 
 3829      66726F6D 
 3829      5F697372 
 3830              	.LASF32:
 3831 0834 74687265 		.ascii	"thread_t\000"
 3831      61645F74 
 3831      00
 3832              	.LASF109:
 3833 083d 62657374 		.ascii	"best\000"
 3833      00
 3834              	.LASF132:
 3835 0842 6D5F6E65 		.ascii	"m_next\000"
 3835      787400
 3836              	.LASF31:
 3837 0849 73797374 		.ascii	"systime_t\000"
 3837      696D655F 
 3837      7400
 3838              	.LASF51:
 3839 0853 705F7265 		.ascii	"p_realprio\000"
 3839      616C7072 
 3839      696F00
 3840              	.LASF68:
 3841 085e 76746675 		.ascii	"vtfunc_t\000"
 3841      6E635F74 
 3841      00
 3842              	.LASF11:
 3843 0867 5F5F7569 		.ascii	"__uint32_t\000"
 3843      6E743332 
 3843      5F7400
 3844              	.LASF177:
ARM GAS  /var/folders/d2/nstgp4h54kz7g1l847x_b8wc0000gn/T//ccy7UWJa.s 			page 75


 3845 0872 5F5F7365 		.ascii	"__set_BASEPRI\000"
 3845      745F4241 
 3845      53455052 
 3845      4900
 3846              	.LASF81:
 3847 0880 70616E69 		.ascii	"panic_msg\000"
 3847      635F6D73 
 3847      6700
 3848              	.LASF107:
 3849 088a 6F666673 		.ascii	"offset\000"
 3849      657400
 3850              	.LASF96:
 3851 0891 636F6E74 		.ascii	"context\000"
 3851      65787400 
 3852              	.LASF156:
 3853 0899 5F646267 		.ascii	"_dbg_trace\000"
 3853      5F747261 
 3853      636500
 3854              	.LASF48:
 3855 08a4 705F6D73 		.ascii	"p_msg\000"
 3855      6700
 3856              	.LASF170:
 3857 08aa 706F7274 		.ascii	"port_lock_from_isr\000"
 3857      5F6C6F63 
 3857      6B5F6672 
 3857      6F6D5F69 
 3857      737200
 3858              	.LASF75:
 3859 08bd 76745F70 		.ascii	"vt_par\000"
 3859      617200
 3860              	.LASF162:
 3861 08c4 5F646267 		.ascii	"_dbg_check_unlock_from_isr\000"
 3861      5F636865 
 3861      636B5F75 
 3861      6E6C6F63 
 3861      6B5F6672 
 3862              	.LASF143:
 3863 08df 63665F6F 		.ascii	"cf_off_ctx\000"
 3863      66665F63 
 3863      747800
 3864              	.LASF129:
 3865 08ea 63685F6D 		.ascii	"ch_mutex\000"
 3865      75746578 
 3865      00
 3866              	.LASF43:
 3867 08f3 705F7265 		.ascii	"p_refs\000"
 3867      667300
 3868              	.LASF82:
 3869 08fa 6973725F 		.ascii	"isr_cnt\000"
 3869      636E7400 
 3870              	.LASF101:
 3871 0902 73655F73 		.ascii	"se_state\000"
 3871      74617465 
 3871      00
 3872              	.LASF87:
 3873 090b 726C6973 		.ascii	"rlist\000"
 3873      7400
ARM GAS  /var/folders/d2/nstgp4h54kz7g1l847x_b8wc0000gn/T//ccy7UWJa.s 			page 76


 3874              	.LASF15:
 3875 0911 75696E74 		.ascii	"uint8_t\000"
 3875      385F7400 
 3876              	.LASF164:
 3877 0919 5F646267 		.ascii	"_dbg_check_unlock\000"
 3877      5F636865 
 3877      636B5F75 
 3877      6E6C6F63 
 3877      6B00
 3878              	.LASF54:
 3879 092b 74687265 		.ascii	"thread_reference_t\000"
 3879      61645F72 
 3879      65666572 
 3879      656E6365 
 3879      5F7400
 3880              	.LASF121:
 3881 093e 77746F62 		.ascii	"wtobjp\000"
 3881      6A7000
 3882              	.LASF39:
 3883 0945 705F6E61 		.ascii	"p_name\000"
 3883      6D6500
 3884              	.LASF78:
 3885 094c 76745F73 		.ascii	"vt_systime\000"
 3885      79737469 
 3885      6D6500
 3886              	.LASF84:
 3887 0957 74726163 		.ascii	"trace_buffer\000"
 3887      655F6275 
 3887      66666572 
 3887      00
 3888              	.LASF138:
 3889 0964 63685F76 		.ascii	"ch_version\000"
 3889      65727369 
 3889      6F6E00
 3890              	.LASF116:
 3891 096f 6D5F6372 		.ascii	"m_crit_thd\000"
 3891      69745F74 
 3891      686400
 3892              	.LASF131:
 3893 097a 6D5F6F77 		.ascii	"m_owner\000"
 3893      6E657200 
 3894              	.LASF100:
 3895 0982 73655F77 		.ascii	"se_wtobjp\000"
 3895      746F626A 
 3895      7000
 3896              	.LASF135:
 3897 098c 63685F69 		.ascii	"ch_identifier\000"
 3897      64656E74 
 3897      69666965 
 3897      7200
 3898              	.LASF74:
 3899 099a 76745F66 		.ascii	"vt_func\000"
 3899      756E6300 
 3900              		.ident	"GCC: (GNU Tools for Arm Embedded Processors 7-2017-q4-major) 7.2.1 20170904 (release) [ARM
ARM GAS  /var/folders/d2/nstgp4h54kz7g1l847x_b8wc0000gn/T//ccy7UWJa.s 			page 77


DEFINED SYMBOLS
                            *ABS*:0000000000000000 chdebug.c
/var/folders/d2/nstgp4h54kz7g1l847x_b8wc0000gn/T//ccy7UWJa.s:18     .text._dbg_check_disable:0000000000000000 $t
/var/folders/d2/nstgp4h54kz7g1l847x_b8wc0000gn/T//ccy7UWJa.s:26     .text._dbg_check_disable:0000000000000000 _dbg_check_disable
/var/folders/d2/nstgp4h54kz7g1l847x_b8wc0000gn/T//ccy7UWJa.s:90     .text._dbg_check_disable:000000000000003c $d
/var/folders/d2/nstgp4h54kz7g1l847x_b8wc0000gn/T//ccy7UWJa.s:97     .text._dbg_check_suspend:0000000000000000 $t
/var/folders/d2/nstgp4h54kz7g1l847x_b8wc0000gn/T//ccy7UWJa.s:105    .text._dbg_check_suspend:0000000000000000 _dbg_check_suspend
/var/folders/d2/nstgp4h54kz7g1l847x_b8wc0000gn/T//ccy7UWJa.s:168    .text._dbg_check_suspend:000000000000003c $d
/var/folders/d2/nstgp4h54kz7g1l847x_b8wc0000gn/T//ccy7UWJa.s:175    .text._dbg_check_enable:0000000000000000 $t
/var/folders/d2/nstgp4h54kz7g1l847x_b8wc0000gn/T//ccy7UWJa.s:183    .text._dbg_check_enable:0000000000000000 _dbg_check_enable
/var/folders/d2/nstgp4h54kz7g1l847x_b8wc0000gn/T//ccy7UWJa.s:246    .text._dbg_check_enable:000000000000003c $d
/var/folders/d2/nstgp4h54kz7g1l847x_b8wc0000gn/T//ccy7UWJa.s:253    .text._dbg_check_lock:0000000000000000 $t
/var/folders/d2/nstgp4h54kz7g1l847x_b8wc0000gn/T//ccy7UWJa.s:261    .text._dbg_check_lock:0000000000000000 _dbg_check_lock
/var/folders/d2/nstgp4h54kz7g1l847x_b8wc0000gn/T//ccy7UWJa.s:318    .text._dbg_check_lock:0000000000000030 $d
/var/folders/d2/nstgp4h54kz7g1l847x_b8wc0000gn/T//ccy7UWJa.s:325    .text._dbg_check_unlock:0000000000000000 $t
/var/folders/d2/nstgp4h54kz7g1l847x_b8wc0000gn/T//ccy7UWJa.s:333    .text._dbg_check_unlock:0000000000000000 _dbg_check_unlock
/var/folders/d2/nstgp4h54kz7g1l847x_b8wc0000gn/T//ccy7UWJa.s:393    .text._dbg_check_unlock:0000000000000034 $d
/var/folders/d2/nstgp4h54kz7g1l847x_b8wc0000gn/T//ccy7UWJa.s:400    .text._dbg_check_lock_from_isr:0000000000000000 $t
/var/folders/d2/nstgp4h54kz7g1l847x_b8wc0000gn/T//ccy7UWJa.s:408    .text._dbg_check_lock_from_isr:0000000000000000 _dbg_check_lock_from_isr
/var/folders/d2/nstgp4h54kz7g1l847x_b8wc0000gn/T//ccy7UWJa.s:467    .text._dbg_check_lock_from_isr:0000000000000030 $d
/var/folders/d2/nstgp4h54kz7g1l847x_b8wc0000gn/T//ccy7UWJa.s:474    .text._dbg_check_unlock_from_isr:0000000000000000 $t
/var/folders/d2/nstgp4h54kz7g1l847x_b8wc0000gn/T//ccy7UWJa.s:482    .text._dbg_check_unlock_from_isr:0000000000000000 _dbg_check_unlock_from_isr
/var/folders/d2/nstgp4h54kz7g1l847x_b8wc0000gn/T//ccy7UWJa.s:544    .text._dbg_check_unlock_from_isr:0000000000000034 $d
/var/folders/d2/nstgp4h54kz7g1l847x_b8wc0000gn/T//ccy7UWJa.s:551    .text._dbg_check_enter_isr:0000000000000000 $t
/var/folders/d2/nstgp4h54kz7g1l847x_b8wc0000gn/T//ccy7UWJa.s:559    .text._dbg_check_enter_isr:0000000000000000 _dbg_check_enter_isr
/var/folders/d2/nstgp4h54kz7g1l847x_b8wc0000gn/T//ccy7UWJa.s:648    .text._dbg_check_enter_isr:0000000000000040 $d
/var/folders/d2/nstgp4h54kz7g1l847x_b8wc0000gn/T//ccy7UWJa.s:655    .text._dbg_check_leave_isr:0000000000000000 $t
/var/folders/d2/nstgp4h54kz7g1l847x_b8wc0000gn/T//ccy7UWJa.s:663    .text._dbg_check_leave_isr:0000000000000000 _dbg_check_leave_isr
/var/folders/d2/nstgp4h54kz7g1l847x_b8wc0000gn/T//ccy7UWJa.s:751    .text._dbg_check_leave_isr:0000000000000040 $d
/var/folders/d2/nstgp4h54kz7g1l847x_b8wc0000gn/T//ccy7UWJa.s:758    .text.chDbgCheckClassI:0000000000000000 $t
/var/folders/d2/nstgp4h54kz7g1l847x_b8wc0000gn/T//ccy7UWJa.s:766    .text.chDbgCheckClassI:0000000000000000 chDbgCheckClassI
/var/folders/d2/nstgp4h54kz7g1l847x_b8wc0000gn/T//ccy7UWJa.s:832    .text.chDbgCheckClassI:0000000000000040 $d
/var/folders/d2/nstgp4h54kz7g1l847x_b8wc0000gn/T//ccy7UWJa.s:839    .text.chDbgCheckClassS:0000000000000000 $t
/var/folders/d2/nstgp4h54kz7g1l847x_b8wc0000gn/T//ccy7UWJa.s:847    .text.chDbgCheckClassS:0000000000000000 chDbgCheckClassS
/var/folders/d2/nstgp4h54kz7g1l847x_b8wc0000gn/T//ccy7UWJa.s:911    .text.chDbgCheckClassS:000000000000003c $d
/var/folders/d2/nstgp4h54kz7g1l847x_b8wc0000gn/T//ccy7UWJa.s:918    .text._dbg_trace_init:0000000000000000 $t
/var/folders/d2/nstgp4h54kz7g1l847x_b8wc0000gn/T//ccy7UWJa.s:926    .text._dbg_trace_init:0000000000000000 _dbg_trace_init
/var/folders/d2/nstgp4h54kz7g1l847x_b8wc0000gn/T//ccy7UWJa.s:970    .text._dbg_trace_init:0000000000000024 $d
/var/folders/d2/nstgp4h54kz7g1l847x_b8wc0000gn/T//ccy7UWJa.s:976    .text._dbg_trace:0000000000000000 $t
/var/folders/d2/nstgp4h54kz7g1l847x_b8wc0000gn/T//ccy7UWJa.s:984    .text._dbg_trace:0000000000000000 _dbg_trace
/var/folders/d2/nstgp4h54kz7g1l847x_b8wc0000gn/T//ccy7UWJa.s:1054   .text._dbg_trace:0000000000000048 $d
/var/folders/d2/nstgp4h54kz7g1l847x_b8wc0000gn/T//ccy7UWJa.s:1060   .rodata._dbg_check_disable.str1.4:0000000000000000 $d
/var/folders/d2/nstgp4h54kz7g1l847x_b8wc0000gn/T//ccy7UWJa.s:1064   .rodata._dbg_check_enable.str1.4:0000000000000000 $d
/var/folders/d2/nstgp4h54kz7g1l847x_b8wc0000gn/T//ccy7UWJa.s:1068   .rodata._dbg_check_enter_isr.str1.4:0000000000000000 $d
/var/folders/d2/nstgp4h54kz7g1l847x_b8wc0000gn/T//ccy7UWJa.s:1072   .rodata._dbg_check_leave_isr.str1.4:0000000000000000 $d
/var/folders/d2/nstgp4h54kz7g1l847x_b8wc0000gn/T//ccy7UWJa.s:1076   .rodata._dbg_check_lock.str1.4:0000000000000000 $d
/var/folders/d2/nstgp4h54kz7g1l847x_b8wc0000gn/T//ccy7UWJa.s:1080   .rodata._dbg_check_lock_from_isr.str1.4:0000000000000000 $d
/var/folders/d2/nstgp4h54kz7g1l847x_b8wc0000gn/T//ccy7UWJa.s:1084   .rodata._dbg_check_suspend.str1.4:0000000000000000 $d
/var/folders/d2/nstgp4h54kz7g1l847x_b8wc0000gn/T//ccy7UWJa.s:1088   .rodata._dbg_check_unlock.str1.4:0000000000000000 $d
/var/folders/d2/nstgp4h54kz7g1l847x_b8wc0000gn/T//ccy7UWJa.s:1092   .rodata._dbg_check_unlock_from_isr.str1.4:0000000000000000 $d
/var/folders/d2/nstgp4h54kz7g1l847x_b8wc0000gn/T//ccy7UWJa.s:1096   .rodata.chDbgCheckClassI.str1.4:0000000000000000 $d
/var/folders/d2/nstgp4h54kz7g1l847x_b8wc0000gn/T//ccy7UWJa.s:1100   .rodata.chDbgCheckClassS.str1.4:0000000000000000 $d

UNDEFINED SYMBOLS
chSysHalt
__stack_chk_fail
ch
ARM GAS  /var/folders/d2/nstgp4h54kz7g1l847x_b8wc0000gn/T//ccy7UWJa.s 			page 78


__stack_chk_guard
