ARM GAS  /var/folders/d2/nstgp4h54kz7g1l847x_b8wc0000gn/T//ccKlpRL4.s 			page 1


   1              		.cpu cortex-m4
   2              		.eabi_attribute 27, 1
   3              		.eabi_attribute 28, 1
   4              		.eabi_attribute 20, 1
   5              		.eabi_attribute 21, 1
   6              		.eabi_attribute 23, 3
   7              		.eabi_attribute 24, 1
   8              		.eabi_attribute 25, 1
   9              		.eabi_attribute 26, 1
  10              		.eabi_attribute 30, 6
  11              		.eabi_attribute 34, 1
  12              		.eabi_attribute 18, 4
  13              		.file	"chevents.c"
  14              		.section	.text.port_lock,"ax",%progbits
  15              		.align	1
  16              		.syntax unified
  17              		.thumb
  18              		.thumb_func
  19              		.fpu fpv4-sp-d16
  20              		.type	port_lock, %function
  21              	port_lock:
  22              		@ args = 0, pretend = 0, frame = 8
  23              		@ frame_needed = 1, uses_anonymous_args = 0
  24              		@ link register save eliminated.
  25 0000 80B4     		push	{r7}
  26 0002 83B0     		sub	sp, sp, #12
  27 0004 00AF     		add	r7, sp, #0
  28 0006 2023     		movs	r3, #32
  29 0008 7B60     		str	r3, [r7, #4]
  30 000a 7B68     		ldr	r3, [r7, #4]
  31              		.syntax unified
  32              	@ 546 "../e-puck2_main-processor/ChibiOS//os/ext/CMSIS/include/core_cmFunc.h" 1
  33 000c 83F31188 		MSR basepri, r3
  34              	@ 0 "" 2
  35              		.thumb
  36              		.syntax unified
  37 0010 00BF     		nop
  38 0012 0C37     		adds	r7, r7, #12
  39 0014 BD46     		mov	sp, r7
  40              		@ sp needed
  41 0016 5DF8047B 		ldr	r7, [sp], #4
  42 001a 7047     		bx	lr
  43              		.size	port_lock, .-port_lock
  44              		.section	.text.port_unlock,"ax",%progbits
  45              		.align	1
  46              		.syntax unified
  47              		.thumb
  48              		.thumb_func
  49              		.fpu fpv4-sp-d16
  50              		.type	port_unlock, %function
  51              	port_unlock:
  52              		@ args = 0, pretend = 0, frame = 8
  53              		@ frame_needed = 1, uses_anonymous_args = 0
  54              		@ link register save eliminated.
  55 0000 80B4     		push	{r7}
  56 0002 83B0     		sub	sp, sp, #12
  57 0004 00AF     		add	r7, sp, #0
ARM GAS  /var/folders/d2/nstgp4h54kz7g1l847x_b8wc0000gn/T//ccKlpRL4.s 			page 2


  58 0006 0023     		movs	r3, #0
  59 0008 7B60     		str	r3, [r7, #4]
  60 000a 7B68     		ldr	r3, [r7, #4]
  61              		.syntax unified
  62              	@ 546 "../e-puck2_main-processor/ChibiOS//os/ext/CMSIS/include/core_cmFunc.h" 1
  63 000c 83F31188 		MSR basepri, r3
  64              	@ 0 "" 2
  65              		.thumb
  66              		.syntax unified
  67 0010 00BF     		nop
  68 0012 0C37     		adds	r7, r7, #12
  69 0014 BD46     		mov	sp, r7
  70              		@ sp needed
  71 0016 5DF8047B 		ldr	r7, [sp], #4
  72 001a 7047     		bx	lr
  73              		.size	port_unlock, .-port_unlock
  74              		.section	.text.chSysLock,"ax",%progbits
  75              		.align	1
  76              		.syntax unified
  77              		.thumb
  78              		.thumb_func
  79              		.fpu fpv4-sp-d16
  80              		.type	chSysLock, %function
  81              	chSysLock:
  82              		@ args = 0, pretend = 0, frame = 0
  83              		@ frame_needed = 1, uses_anonymous_args = 0
  84 0000 80B5     		push	{r7, lr}
  85 0002 00AF     		add	r7, sp, #0
  86 0004 FFF7FEFF 		bl	port_lock
  87 0008 FFF7FEFF 		bl	_stats_start_measure_crit_thd
  88 000c FFF7FEFF 		bl	_dbg_check_lock
  89 0010 00BF     		nop
  90 0012 80BD     		pop	{r7, pc}
  91              		.size	chSysLock, .-chSysLock
  92              		.section	.text.chSysUnlock,"ax",%progbits
  93              		.align	1
  94              		.syntax unified
  95              		.thumb
  96              		.thumb_func
  97              		.fpu fpv4-sp-d16
  98              		.type	chSysUnlock, %function
  99              	chSysUnlock:
 100              		@ args = 0, pretend = 0, frame = 0
 101              		@ frame_needed = 1, uses_anonymous_args = 0
 102 0000 80B5     		push	{r7, lr}
 103 0002 00AF     		add	r7, sp, #0
 104 0004 FFF7FEFF 		bl	_dbg_check_unlock
 105 0008 FFF7FEFF 		bl	_stats_stop_measure_crit_thd
 106 000c 094B     		ldr	r3, .L6
 107 000e 1B68     		ldr	r3, [r3]
 108 0010 084A     		ldr	r2, .L6
 109 0012 9342     		cmp	r3, r2
 110 0014 0AD0     		beq	.L5
 111 0016 074B     		ldr	r3, .L6
 112 0018 9B69     		ldr	r3, [r3, #24]
 113 001a 9A68     		ldr	r2, [r3, #8]
 114 001c 054B     		ldr	r3, .L6
ARM GAS  /var/folders/d2/nstgp4h54kz7g1l847x_b8wc0000gn/T//ccKlpRL4.s 			page 3


 115 001e 1B68     		ldr	r3, [r3]
 116 0020 9B68     		ldr	r3, [r3, #8]
 117 0022 9A42     		cmp	r2, r3
 118 0024 02D2     		bcs	.L5
 119 0026 0448     		ldr	r0, .L6+4
 120 0028 FFF7FEFF 		bl	chSysHalt
 121              	.L5:
 122 002c FFF7FEFF 		bl	port_unlock
 123 0030 00BF     		nop
 124 0032 80BD     		pop	{r7, pc}
 125              	.L7:
 126              		.align	2
 127              	.L6:
 128 0034 00000000 		.word	ch
 129 0038 00000000 		.word	__func__.7153
 130              		.size	chSysUnlock, .-chSysUnlock
 131              		.section	.text.chEvtRegisterMaskWithFlags,"ax",%progbits
 132              		.align	1
 133              		.global	chEvtRegisterMaskWithFlags
 134              		.syntax unified
 135              		.thumb
 136              		.thumb_func
 137              		.fpu fpv4-sp-d16
 138              		.type	chEvtRegisterMaskWithFlags, %function
 139              	chEvtRegisterMaskWithFlags:
 140              		@ args = 0, pretend = 0, frame = 16
 141              		@ frame_needed = 1, uses_anonymous_args = 0
 142 0000 80B5     		push	{r7, lr}
 143 0002 84B0     		sub	sp, sp, #16
 144 0004 00AF     		add	r7, sp, #0
 145 0006 F860     		str	r0, [r7, #12]
 146 0008 B960     		str	r1, [r7, #8]
 147 000a 7A60     		str	r2, [r7, #4]
 148 000c 3B60     		str	r3, [r7]
 149 000e FB68     		ldr	r3, [r7, #12]
 150 0010 002B     		cmp	r3, #0
 151 0012 02D0     		beq	.L9
 152 0014 BB68     		ldr	r3, [r7, #8]
 153 0016 002B     		cmp	r3, #0
 154 0018 02D1     		bne	.L10
 155              	.L9:
 156 001a 0F48     		ldr	r0, .L11
 157 001c FFF7FEFF 		bl	chSysHalt
 158              	.L10:
 159 0020 FFF7FEFF 		bl	chSysLock
 160 0024 FB68     		ldr	r3, [r7, #12]
 161 0026 1A68     		ldr	r2, [r3]
 162 0028 BB68     		ldr	r3, [r7, #8]
 163 002a 1A60     		str	r2, [r3]
 164 002c FB68     		ldr	r3, [r7, #12]
 165 002e BA68     		ldr	r2, [r7, #8]
 166 0030 1A60     		str	r2, [r3]
 167 0032 0A4B     		ldr	r3, .L11+4
 168 0034 9A69     		ldr	r2, [r3, #24]
 169 0036 BB68     		ldr	r3, [r7, #8]
 170 0038 5A60     		str	r2, [r3, #4]
 171 003a BB68     		ldr	r3, [r7, #8]
ARM GAS  /var/folders/d2/nstgp4h54kz7g1l847x_b8wc0000gn/T//ccKlpRL4.s 			page 4


 172 003c 7A68     		ldr	r2, [r7, #4]
 173 003e 9A60     		str	r2, [r3, #8]
 174 0040 BB68     		ldr	r3, [r7, #8]
 175 0042 0022     		movs	r2, #0
 176 0044 DA60     		str	r2, [r3, #12]
 177 0046 BB68     		ldr	r3, [r7, #8]
 178 0048 3A68     		ldr	r2, [r7]
 179 004a 1A61     		str	r2, [r3, #16]
 180 004c FFF7FEFF 		bl	chSysUnlock
 181 0050 00BF     		nop
 182 0052 1037     		adds	r7, r7, #16
 183 0054 BD46     		mov	sp, r7
 184              		@ sp needed
 185 0056 80BD     		pop	{r7, pc}
 186              	.L12:
 187              		.align	2
 188              	.L11:
 189 0058 00000000 		.word	__func__.7852
 190 005c 00000000 		.word	ch
 191              		.size	chEvtRegisterMaskWithFlags, .-chEvtRegisterMaskWithFlags
 192              		.section	.text.chEvtUnregister,"ax",%progbits
 193              		.align	1
 194              		.global	chEvtUnregister
 195              		.syntax unified
 196              		.thumb
 197              		.thumb_func
 198              		.fpu fpv4-sp-d16
 199              		.type	chEvtUnregister, %function
 200              	chEvtUnregister:
 201              		@ args = 0, pretend = 0, frame = 16
 202              		@ frame_needed = 1, uses_anonymous_args = 0
 203 0000 80B5     		push	{r7, lr}
 204 0002 84B0     		sub	sp, sp, #16
 205 0004 00AF     		add	r7, sp, #0
 206 0006 7860     		str	r0, [r7, #4]
 207 0008 3960     		str	r1, [r7]
 208 000a 7B68     		ldr	r3, [r7, #4]
 209 000c 002B     		cmp	r3, #0
 210 000e 02D0     		beq	.L14
 211 0010 3B68     		ldr	r3, [r7]
 212 0012 002B     		cmp	r3, #0
 213 0014 02D1     		bne	.L15
 214              	.L14:
 215 0016 1048     		ldr	r0, .L20
 216 0018 FFF7FEFF 		bl	chSysHalt
 217              	.L15:
 218 001c 7B68     		ldr	r3, [r7, #4]
 219 001e FB60     		str	r3, [r7, #12]
 220 0020 FFF7FEFF 		bl	chSysLock
 221 0024 0CE0     		b	.L16
 222              	.L19:
 223 0026 FB68     		ldr	r3, [r7, #12]
 224 0028 1B68     		ldr	r3, [r3]
 225 002a 3A68     		ldr	r2, [r7]
 226 002c 9A42     		cmp	r2, r3
 227 002e 04D1     		bne	.L17
 228 0030 3B68     		ldr	r3, [r7]
ARM GAS  /var/folders/d2/nstgp4h54kz7g1l847x_b8wc0000gn/T//ccKlpRL4.s 			page 5


 229 0032 1A68     		ldr	r2, [r3]
 230 0034 FB68     		ldr	r3, [r7, #12]
 231 0036 1A60     		str	r2, [r3]
 232 0038 07E0     		b	.L18
 233              	.L17:
 234 003a FB68     		ldr	r3, [r7, #12]
 235 003c 1B68     		ldr	r3, [r3]
 236 003e FB60     		str	r3, [r7, #12]
 237              	.L16:
 238 0040 FB68     		ldr	r3, [r7, #12]
 239 0042 1B68     		ldr	r3, [r3]
 240 0044 7A68     		ldr	r2, [r7, #4]
 241 0046 9A42     		cmp	r2, r3
 242 0048 EDD1     		bne	.L19
 243              	.L18:
 244 004a FFF7FEFF 		bl	chSysUnlock
 245 004e 00BF     		nop
 246 0050 1037     		adds	r7, r7, #16
 247 0052 BD46     		mov	sp, r7
 248              		@ sp needed
 249 0054 80BD     		pop	{r7, pc}
 250              	.L21:
 251 0056 00BF     		.align	2
 252              	.L20:
 253 0058 00000000 		.word	__func__.7858
 254              		.size	chEvtUnregister, .-chEvtUnregister
 255              		.section	.text.chEvtGetAndClearEvents,"ax",%progbits
 256              		.align	1
 257              		.global	chEvtGetAndClearEvents
 258              		.syntax unified
 259              		.thumb
 260              		.thumb_func
 261              		.fpu fpv4-sp-d16
 262              		.type	chEvtGetAndClearEvents, %function
 263              	chEvtGetAndClearEvents:
 264              		@ args = 0, pretend = 0, frame = 16
 265              		@ frame_needed = 1, uses_anonymous_args = 0
 266 0000 80B5     		push	{r7, lr}
 267 0002 84B0     		sub	sp, sp, #16
 268 0004 00AF     		add	r7, sp, #0
 269 0006 7860     		str	r0, [r7, #4]
 270 0008 FFF7FEFF 		bl	chSysLock
 271 000c 0A4B     		ldr	r3, .L24
 272 000e 9B69     		ldr	r3, [r3, #24]
 273 0010 DB6B     		ldr	r3, [r3, #60]
 274 0012 7A68     		ldr	r2, [r7, #4]
 275 0014 1340     		ands	r3, r3, r2
 276 0016 FB60     		str	r3, [r7, #12]
 277 0018 074B     		ldr	r3, .L24
 278 001a 9B69     		ldr	r3, [r3, #24]
 279 001c D96B     		ldr	r1, [r3, #60]
 280 001e 7B68     		ldr	r3, [r7, #4]
 281 0020 DA43     		mvns	r2, r3
 282 0022 054B     		ldr	r3, .L24
 283 0024 9B69     		ldr	r3, [r3, #24]
 284 0026 0A40     		ands	r2, r2, r1
 285 0028 DA63     		str	r2, [r3, #60]
ARM GAS  /var/folders/d2/nstgp4h54kz7g1l847x_b8wc0000gn/T//ccKlpRL4.s 			page 6


 286 002a FFF7FEFF 		bl	chSysUnlock
 287 002e FB68     		ldr	r3, [r7, #12]
 288 0030 1846     		mov	r0, r3
 289 0032 1037     		adds	r7, r7, #16
 290 0034 BD46     		mov	sp, r7
 291              		@ sp needed
 292 0036 80BD     		pop	{r7, pc}
 293              	.L25:
 294              		.align	2
 295              	.L24:
 296 0038 00000000 		.word	ch
 297              		.size	chEvtGetAndClearEvents, .-chEvtGetAndClearEvents
 298              		.section	.text.chEvtAddEvents,"ax",%progbits
 299              		.align	1
 300              		.global	chEvtAddEvents
 301              		.syntax unified
 302              		.thumb
 303              		.thumb_func
 304              		.fpu fpv4-sp-d16
 305              		.type	chEvtAddEvents, %function
 306              	chEvtAddEvents:
 307              		@ args = 0, pretend = 0, frame = 8
 308              		@ frame_needed = 1, uses_anonymous_args = 0
 309 0000 80B5     		push	{r7, lr}
 310 0002 82B0     		sub	sp, sp, #8
 311 0004 00AF     		add	r7, sp, #0
 312 0006 7860     		str	r0, [r7, #4]
 313 0008 FFF7FEFF 		bl	chSysLock
 314 000c 094B     		ldr	r3, .L28
 315 000e 9B69     		ldr	r3, [r3, #24]
 316 0010 D96B     		ldr	r1, [r3, #60]
 317 0012 084B     		ldr	r3, .L28
 318 0014 9B69     		ldr	r3, [r3, #24]
 319 0016 7A68     		ldr	r2, [r7, #4]
 320 0018 0A43     		orrs	r2, r2, r1
 321 001a DA63     		str	r2, [r3, #60]
 322 001c 054B     		ldr	r3, .L28
 323 001e 9B69     		ldr	r3, [r3, #24]
 324 0020 DB6B     		ldr	r3, [r3, #60]
 325 0022 7B60     		str	r3, [r7, #4]
 326 0024 FFF7FEFF 		bl	chSysUnlock
 327 0028 7B68     		ldr	r3, [r7, #4]
 328 002a 1846     		mov	r0, r3
 329 002c 0837     		adds	r7, r7, #8
 330 002e BD46     		mov	sp, r7
 331              		@ sp needed
 332 0030 80BD     		pop	{r7, pc}
 333              	.L29:
 334 0032 00BF     		.align	2
 335              	.L28:
 336 0034 00000000 		.word	ch
 337              		.size	chEvtAddEvents, .-chEvtAddEvents
 338              		.section	.text.chEvtBroadcastFlagsI,"ax",%progbits
 339              		.align	1
 340              		.global	chEvtBroadcastFlagsI
 341              		.syntax unified
 342              		.thumb
ARM GAS  /var/folders/d2/nstgp4h54kz7g1l847x_b8wc0000gn/T//ccKlpRL4.s 			page 7


 343              		.thumb_func
 344              		.fpu fpv4-sp-d16
 345              		.type	chEvtBroadcastFlagsI, %function
 346              	chEvtBroadcastFlagsI:
 347              		@ args = 0, pretend = 0, frame = 16
 348              		@ frame_needed = 1, uses_anonymous_args = 0
 349 0000 80B5     		push	{r7, lr}
 350 0002 84B0     		sub	sp, sp, #16
 351 0004 00AF     		add	r7, sp, #0
 352 0006 7860     		str	r0, [r7, #4]
 353 0008 3960     		str	r1, [r7]
 354 000a FFF7FEFF 		bl	chDbgCheckClassI
 355 000e 7B68     		ldr	r3, [r7, #4]
 356 0010 002B     		cmp	r3, #0
 357 0012 02D1     		bne	.L31
 358 0014 1448     		ldr	r0, .L36
 359 0016 FFF7FEFF 		bl	chSysHalt
 360              	.L31:
 361 001a 7B68     		ldr	r3, [r7, #4]
 362 001c 1B68     		ldr	r3, [r3]
 363 001e FB60     		str	r3, [r7, #12]
 364 0020 1AE0     		b	.L32
 365              	.L35:
 366 0022 FB68     		ldr	r3, [r7, #12]
 367 0024 DA68     		ldr	r2, [r3, #12]
 368 0026 3B68     		ldr	r3, [r7]
 369 0028 1A43     		orrs	r2, r2, r3
 370 002a FB68     		ldr	r3, [r7, #12]
 371 002c DA60     		str	r2, [r3, #12]
 372 002e 3B68     		ldr	r3, [r7]
 373 0030 002B     		cmp	r3, #0
 374 0032 06D0     		beq	.L33
 375 0034 FB68     		ldr	r3, [r7, #12]
 376 0036 DA68     		ldr	r2, [r3, #12]
 377 0038 FB68     		ldr	r3, [r7, #12]
 378 003a 1B69     		ldr	r3, [r3, #16]
 379 003c 1340     		ands	r3, r3, r2
 380 003e 002B     		cmp	r3, #0
 381 0040 07D0     		beq	.L34
 382              	.L33:
 383 0042 FB68     		ldr	r3, [r7, #12]
 384 0044 5A68     		ldr	r2, [r3, #4]
 385 0046 FB68     		ldr	r3, [r7, #12]
 386 0048 9B68     		ldr	r3, [r3, #8]
 387 004a 1946     		mov	r1, r3
 388 004c 1046     		mov	r0, r2
 389 004e FFF7FEFF 		bl	chEvtSignalI
 390              	.L34:
 391 0052 FB68     		ldr	r3, [r7, #12]
 392 0054 1B68     		ldr	r3, [r3]
 393 0056 FB60     		str	r3, [r7, #12]
 394              	.L32:
 395 0058 FA68     		ldr	r2, [r7, #12]
 396 005a 7B68     		ldr	r3, [r7, #4]
 397 005c 9A42     		cmp	r2, r3
 398 005e E0D1     		bne	.L35
 399 0060 00BF     		nop
ARM GAS  /var/folders/d2/nstgp4h54kz7g1l847x_b8wc0000gn/T//ccKlpRL4.s 			page 8


 400 0062 1037     		adds	r7, r7, #16
 401 0064 BD46     		mov	sp, r7
 402              		@ sp needed
 403 0066 80BD     		pop	{r7, pc}
 404              	.L37:
 405              		.align	2
 406              	.L36:
 407 0068 00000000 		.word	__func__.7874
 408              		.size	chEvtBroadcastFlagsI, .-chEvtBroadcastFlagsI
 409              		.section	.text.chEvtGetAndClearFlags,"ax",%progbits
 410              		.align	1
 411              		.global	chEvtGetAndClearFlags
 412              		.syntax unified
 413              		.thumb
 414              		.thumb_func
 415              		.fpu fpv4-sp-d16
 416              		.type	chEvtGetAndClearFlags, %function
 417              	chEvtGetAndClearFlags:
 418              		@ args = 0, pretend = 0, frame = 16
 419              		@ frame_needed = 1, uses_anonymous_args = 0
 420 0000 80B5     		push	{r7, lr}
 421 0002 84B0     		sub	sp, sp, #16
 422 0004 00AF     		add	r7, sp, #0
 423 0006 7860     		str	r0, [r7, #4]
 424 0008 FFF7FEFF 		bl	chSysLock
 425 000c 7B68     		ldr	r3, [r7, #4]
 426 000e DB68     		ldr	r3, [r3, #12]
 427 0010 FB60     		str	r3, [r7, #12]
 428 0012 7B68     		ldr	r3, [r7, #4]
 429 0014 0022     		movs	r2, #0
 430 0016 DA60     		str	r2, [r3, #12]
 431 0018 FFF7FEFF 		bl	chSysUnlock
 432 001c FB68     		ldr	r3, [r7, #12]
 433 001e 1846     		mov	r0, r3
 434 0020 1037     		adds	r7, r7, #16
 435 0022 BD46     		mov	sp, r7
 436              		@ sp needed
 437 0024 80BD     		pop	{r7, pc}
 438              		.size	chEvtGetAndClearFlags, .-chEvtGetAndClearFlags
 439              		.section	.text.chEvtSignal,"ax",%progbits
 440              		.align	1
 441              		.global	chEvtSignal
 442              		.syntax unified
 443              		.thumb
 444              		.thumb_func
 445              		.fpu fpv4-sp-d16
 446              		.type	chEvtSignal, %function
 447              	chEvtSignal:
 448              		@ args = 0, pretend = 0, frame = 8
 449              		@ frame_needed = 1, uses_anonymous_args = 0
 450 0000 80B5     		push	{r7, lr}
 451 0002 82B0     		sub	sp, sp, #8
 452 0004 00AF     		add	r7, sp, #0
 453 0006 7860     		str	r0, [r7, #4]
 454 0008 3960     		str	r1, [r7]
 455 000a 7B68     		ldr	r3, [r7, #4]
 456 000c 002B     		cmp	r3, #0
ARM GAS  /var/folders/d2/nstgp4h54kz7g1l847x_b8wc0000gn/T//ccKlpRL4.s 			page 9


 457 000e 02D1     		bne	.L41
 458 0010 0848     		ldr	r0, .L42
 459 0012 FFF7FEFF 		bl	chSysHalt
 460              	.L41:
 461 0016 FFF7FEFF 		bl	chSysLock
 462 001a 3968     		ldr	r1, [r7]
 463 001c 7868     		ldr	r0, [r7, #4]
 464 001e FFF7FEFF 		bl	chEvtSignalI
 465 0022 FFF7FEFF 		bl	chSchRescheduleS
 466 0026 FFF7FEFF 		bl	chSysUnlock
 467 002a 00BF     		nop
 468 002c 0837     		adds	r7, r7, #8
 469 002e BD46     		mov	sp, r7
 470              		@ sp needed
 471 0030 80BD     		pop	{r7, pc}
 472              	.L43:
 473 0032 00BF     		.align	2
 474              	.L42:
 475 0034 00000000 		.word	__func__.7886
 476              		.size	chEvtSignal, .-chEvtSignal
 477              		.section	.text.chEvtSignalI,"ax",%progbits
 478              		.align	1
 479              		.global	chEvtSignalI
 480              		.syntax unified
 481              		.thumb
 482              		.thumb_func
 483              		.fpu fpv4-sp-d16
 484              		.type	chEvtSignalI, %function
 485              	chEvtSignalI:
 486              		@ args = 0, pretend = 0, frame = 8
 487              		@ frame_needed = 1, uses_anonymous_args = 0
 488 0000 80B5     		push	{r7, lr}
 489 0002 82B0     		sub	sp, sp, #8
 490 0004 00AF     		add	r7, sp, #0
 491 0006 7860     		str	r0, [r7, #4]
 492 0008 3960     		str	r1, [r7]
 493 000a FFF7FEFF 		bl	chDbgCheckClassI
 494 000e 7B68     		ldr	r3, [r7, #4]
 495 0010 002B     		cmp	r3, #0
 496 0012 02D1     		bne	.L45
 497 0014 1648     		ldr	r0, .L50
 498 0016 FFF7FEFF 		bl	chSysHalt
 499              	.L45:
 500 001a 7B68     		ldr	r3, [r7, #4]
 501 001c DA6B     		ldr	r2, [r3, #60]
 502 001e 3B68     		ldr	r3, [r7]
 503 0020 1A43     		orrs	r2, r2, r3
 504 0022 7B68     		ldr	r3, [r7, #4]
 505 0024 DA63     		str	r2, [r3, #60]
 506 0026 7B68     		ldr	r3, [r7, #4]
 507 0028 93F82030 		ldrb	r3, [r3, #32]	@ zero_extendqisi2
 508 002c 0A2B     		cmp	r3, #10
 509 002e 06D1     		bne	.L46
 510 0030 7B68     		ldr	r3, [r7, #4]
 511 0032 DA6B     		ldr	r2, [r3, #60]
 512 0034 7B68     		ldr	r3, [r7, #4]
 513 0036 9B6A     		ldr	r3, [r3, #40]
ARM GAS  /var/folders/d2/nstgp4h54kz7g1l847x_b8wc0000gn/T//ccKlpRL4.s 			page 10


 514 0038 1340     		ands	r3, r3, r2
 515 003a 002B     		cmp	r3, #0
 516 003c 0DD1     		bne	.L47
 517              	.L46:
 518 003e 7B68     		ldr	r3, [r7, #4]
 519 0040 93F82030 		ldrb	r3, [r3, #32]	@ zero_extendqisi2
 520 0044 0B2B     		cmp	r3, #11
 521 0046 0ED1     		bne	.L49
 522 0048 7B68     		ldr	r3, [r7, #4]
 523 004a DA6B     		ldr	r2, [r3, #60]
 524 004c 7B68     		ldr	r3, [r7, #4]
 525 004e 9B6A     		ldr	r3, [r3, #40]
 526 0050 1A40     		ands	r2, r2, r3
 527 0052 7B68     		ldr	r3, [r7, #4]
 528 0054 9B6A     		ldr	r3, [r3, #40]
 529 0056 9A42     		cmp	r2, r3
 530 0058 05D1     		bne	.L49
 531              	.L47:
 532 005a 7B68     		ldr	r3, [r7, #4]
 533 005c 0022     		movs	r2, #0
 534 005e 9A62     		str	r2, [r3, #40]
 535 0060 7868     		ldr	r0, [r7, #4]
 536 0062 FFF7FEFF 		bl	chSchReadyI
 537              	.L49:
 538 0066 00BF     		nop
 539 0068 0837     		adds	r7, r7, #8
 540 006a BD46     		mov	sp, r7
 541              		@ sp needed
 542 006c 80BD     		pop	{r7, pc}
 543              	.L51:
 544 006e 00BF     		.align	2
 545              	.L50:
 546 0070 00000000 		.word	__func__.7891
 547              		.size	chEvtSignalI, .-chEvtSignalI
 548              		.section	.text.chEvtBroadcastFlags,"ax",%progbits
 549              		.align	1
 550              		.global	chEvtBroadcastFlags
 551              		.syntax unified
 552              		.thumb
 553              		.thumb_func
 554              		.fpu fpv4-sp-d16
 555              		.type	chEvtBroadcastFlags, %function
 556              	chEvtBroadcastFlags:
 557              		@ args = 0, pretend = 0, frame = 8
 558              		@ frame_needed = 1, uses_anonymous_args = 0
 559 0000 80B5     		push	{r7, lr}
 560 0002 82B0     		sub	sp, sp, #8
 561 0004 00AF     		add	r7, sp, #0
 562 0006 7860     		str	r0, [r7, #4]
 563 0008 3960     		str	r1, [r7]
 564 000a FFF7FEFF 		bl	chSysLock
 565 000e 3968     		ldr	r1, [r7]
 566 0010 7868     		ldr	r0, [r7, #4]
 567 0012 FFF7FEFF 		bl	chEvtBroadcastFlagsI
 568 0016 FFF7FEFF 		bl	chSchRescheduleS
 569 001a FFF7FEFF 		bl	chSysUnlock
 570 001e 00BF     		nop
ARM GAS  /var/folders/d2/nstgp4h54kz7g1l847x_b8wc0000gn/T//ccKlpRL4.s 			page 11


 571 0020 0837     		adds	r7, r7, #8
 572 0022 BD46     		mov	sp, r7
 573              		@ sp needed
 574 0024 80BD     		pop	{r7, pc}
 575              		.size	chEvtBroadcastFlags, .-chEvtBroadcastFlags
 576              		.section	.text.chEvtGetAndClearFlagsI,"ax",%progbits
 577              		.align	1
 578              		.global	chEvtGetAndClearFlagsI
 579              		.syntax unified
 580              		.thumb
 581              		.thumb_func
 582              		.fpu fpv4-sp-d16
 583              		.type	chEvtGetAndClearFlagsI, %function
 584              	chEvtGetAndClearFlagsI:
 585              		@ args = 0, pretend = 0, frame = 16
 586              		@ frame_needed = 1, uses_anonymous_args = 0
 587              		@ link register save eliminated.
 588 0000 80B4     		push	{r7}
 589 0002 85B0     		sub	sp, sp, #20
 590 0004 00AF     		add	r7, sp, #0
 591 0006 7860     		str	r0, [r7, #4]
 592 0008 7B68     		ldr	r3, [r7, #4]
 593 000a DB68     		ldr	r3, [r3, #12]
 594 000c FB60     		str	r3, [r7, #12]
 595 000e 7B68     		ldr	r3, [r7, #4]
 596 0010 0022     		movs	r2, #0
 597 0012 DA60     		str	r2, [r3, #12]
 598 0014 FB68     		ldr	r3, [r7, #12]
 599 0016 1846     		mov	r0, r3
 600 0018 1437     		adds	r7, r7, #20
 601 001a BD46     		mov	sp, r7
 602              		@ sp needed
 603 001c 5DF8047B 		ldr	r7, [sp], #4
 604 0020 7047     		bx	lr
 605              		.size	chEvtGetAndClearFlagsI, .-chEvtGetAndClearFlagsI
 606              		.section	.text.chEvtDispatch,"ax",%progbits
 607              		.align	1
 608              		.global	chEvtDispatch
 609              		.syntax unified
 610              		.thumb
 611              		.thumb_func
 612              		.fpu fpv4-sp-d16
 613              		.type	chEvtDispatch, %function
 614              	chEvtDispatch:
 615              		@ args = 0, pretend = 0, frame = 16
 616              		@ frame_needed = 1, uses_anonymous_args = 0
 617 0000 80B5     		push	{r7, lr}
 618 0002 84B0     		sub	sp, sp, #16
 619 0004 00AF     		add	r7, sp, #0
 620 0006 7860     		str	r0, [r7, #4]
 621 0008 3960     		str	r1, [r7]
 622 000a 7B68     		ldr	r3, [r7, #4]
 623 000c 002B     		cmp	r3, #0
 624 000e 02D1     		bne	.L56
 625 0010 1848     		ldr	r0, .L61
 626 0012 FFF7FEFF 		bl	chSysHalt
 627              	.L56:
ARM GAS  /var/folders/d2/nstgp4h54kz7g1l847x_b8wc0000gn/T//ccKlpRL4.s 			page 12


 628 0016 0023     		movs	r3, #0
 629 0018 FB60     		str	r3, [r7, #12]
 630 001a 23E0     		b	.L57
 631              	.L60:
 632 001c FB68     		ldr	r3, [r7, #12]
 633 001e 3A68     		ldr	r2, [r7]
 634 0020 22FA03F3 		lsr	r3, r2, r3
 635 0024 03F00103 		and	r3, r3, #1
 636 0028 002B     		cmp	r3, #0
 637 002a 18D0     		beq	.L58
 638 002c FB68     		ldr	r3, [r7, #12]
 639 002e 9B00     		lsls	r3, r3, #2
 640 0030 7A68     		ldr	r2, [r7, #4]
 641 0032 1344     		add	r3, r3, r2
 642 0034 1B68     		ldr	r3, [r3]
 643 0036 002B     		cmp	r3, #0
 644 0038 02D1     		bne	.L59
 645 003a 0E48     		ldr	r0, .L61
 646 003c FFF7FEFF 		bl	chSysHalt
 647              	.L59:
 648 0040 FB68     		ldr	r3, [r7, #12]
 649 0042 0122     		movs	r2, #1
 650 0044 02FA03F3 		lsl	r3, r2, r3
 651 0048 DB43     		mvns	r3, r3
 652 004a 3A68     		ldr	r2, [r7]
 653 004c 1340     		ands	r3, r3, r2
 654 004e 3B60     		str	r3, [r7]
 655 0050 FB68     		ldr	r3, [r7, #12]
 656 0052 9B00     		lsls	r3, r3, #2
 657 0054 7A68     		ldr	r2, [r7, #4]
 658 0056 1344     		add	r3, r3, r2
 659 0058 1B68     		ldr	r3, [r3]
 660 005a F868     		ldr	r0, [r7, #12]
 661 005c 9847     		blx	r3
 662              	.L58:
 663 005e FB68     		ldr	r3, [r7, #12]
 664 0060 0133     		adds	r3, r3, #1
 665 0062 FB60     		str	r3, [r7, #12]
 666              	.L57:
 667 0064 3B68     		ldr	r3, [r7]
 668 0066 002B     		cmp	r3, #0
 669 0068 D8D1     		bne	.L60
 670 006a 00BF     		nop
 671 006c 1037     		adds	r7, r7, #16
 672 006e BD46     		mov	sp, r7
 673              		@ sp needed
 674 0070 80BD     		pop	{r7, pc}
 675              	.L62:
 676 0072 00BF     		.align	2
 677              	.L61:
 678 0074 00000000 		.word	__func__.7905
 679              		.size	chEvtDispatch, .-chEvtDispatch
 680              		.section	.text.chEvtWaitOne,"ax",%progbits
 681              		.align	1
 682              		.global	chEvtWaitOne
 683              		.syntax unified
 684              		.thumb
ARM GAS  /var/folders/d2/nstgp4h54kz7g1l847x_b8wc0000gn/T//ccKlpRL4.s 			page 13


 685              		.thumb_func
 686              		.fpu fpv4-sp-d16
 687              		.type	chEvtWaitOne, %function
 688              	chEvtWaitOne:
 689              		@ args = 0, pretend = 0, frame = 16
 690              		@ frame_needed = 1, uses_anonymous_args = 0
 691 0000 80B5     		push	{r7, lr}
 692 0002 84B0     		sub	sp, sp, #16
 693 0004 00AF     		add	r7, sp, #0
 694 0006 7860     		str	r0, [r7, #4]
 695 0008 154B     		ldr	r3, .L66
 696 000a 9B69     		ldr	r3, [r3, #24]
 697 000c BB60     		str	r3, [r7, #8]
 698 000e FFF7FEFF 		bl	chSysLock
 699 0012 BB68     		ldr	r3, [r7, #8]
 700 0014 DB6B     		ldr	r3, [r3, #60]
 701 0016 7A68     		ldr	r2, [r7, #4]
 702 0018 1340     		ands	r3, r3, r2
 703 001a FB60     		str	r3, [r7, #12]
 704 001c FB68     		ldr	r3, [r7, #12]
 705 001e 002B     		cmp	r3, #0
 706 0020 0AD1     		bne	.L64
 707 0022 BB68     		ldr	r3, [r7, #8]
 708 0024 7A68     		ldr	r2, [r7, #4]
 709 0026 9A62     		str	r2, [r3, #40]
 710 0028 0A20     		movs	r0, #10
 711 002a FFF7FEFF 		bl	chSchGoSleepS
 712 002e BB68     		ldr	r3, [r7, #8]
 713 0030 DB6B     		ldr	r3, [r3, #60]
 714 0032 7A68     		ldr	r2, [r7, #4]
 715 0034 1340     		ands	r3, r3, r2
 716 0036 FB60     		str	r3, [r7, #12]
 717              	.L64:
 718 0038 FB68     		ldr	r3, [r7, #12]
 719 003a 5B42     		negs	r3, r3
 720 003c FA68     		ldr	r2, [r7, #12]
 721 003e 1340     		ands	r3, r3, r2
 722 0040 FB60     		str	r3, [r7, #12]
 723 0042 BB68     		ldr	r3, [r7, #8]
 724 0044 DA6B     		ldr	r2, [r3, #60]
 725 0046 FB68     		ldr	r3, [r7, #12]
 726 0048 DB43     		mvns	r3, r3
 727 004a 1A40     		ands	r2, r2, r3
 728 004c BB68     		ldr	r3, [r7, #8]
 729 004e DA63     		str	r2, [r3, #60]
 730 0050 FFF7FEFF 		bl	chSysUnlock
 731 0054 FB68     		ldr	r3, [r7, #12]
 732 0056 1846     		mov	r0, r3
 733 0058 1037     		adds	r7, r7, #16
 734 005a BD46     		mov	sp, r7
 735              		@ sp needed
 736 005c 80BD     		pop	{r7, pc}
 737              	.L67:
 738 005e 00BF     		.align	2
 739              	.L66:
 740 0060 00000000 		.word	ch
 741              		.size	chEvtWaitOne, .-chEvtWaitOne
ARM GAS  /var/folders/d2/nstgp4h54kz7g1l847x_b8wc0000gn/T//ccKlpRL4.s 			page 14


 742              		.section	.text.chEvtWaitAny,"ax",%progbits
 743              		.align	1
 744              		.global	chEvtWaitAny
 745              		.syntax unified
 746              		.thumb
 747              		.thumb_func
 748              		.fpu fpv4-sp-d16
 749              		.type	chEvtWaitAny, %function
 750              	chEvtWaitAny:
 751              		@ args = 0, pretend = 0, frame = 16
 752              		@ frame_needed = 1, uses_anonymous_args = 0
 753 0000 80B5     		push	{r7, lr}
 754 0002 84B0     		sub	sp, sp, #16
 755 0004 00AF     		add	r7, sp, #0
 756 0006 7860     		str	r0, [r7, #4]
 757 0008 124B     		ldr	r3, .L71
 758 000a 9B69     		ldr	r3, [r3, #24]
 759 000c BB60     		str	r3, [r7, #8]
 760 000e FFF7FEFF 		bl	chSysLock
 761 0012 BB68     		ldr	r3, [r7, #8]
 762 0014 DB6B     		ldr	r3, [r3, #60]
 763 0016 7A68     		ldr	r2, [r7, #4]
 764 0018 1340     		ands	r3, r3, r2
 765 001a FB60     		str	r3, [r7, #12]
 766 001c FB68     		ldr	r3, [r7, #12]
 767 001e 002B     		cmp	r3, #0
 768 0020 0AD1     		bne	.L69
 769 0022 BB68     		ldr	r3, [r7, #8]
 770 0024 7A68     		ldr	r2, [r7, #4]
 771 0026 9A62     		str	r2, [r3, #40]
 772 0028 0A20     		movs	r0, #10
 773 002a FFF7FEFF 		bl	chSchGoSleepS
 774 002e BB68     		ldr	r3, [r7, #8]
 775 0030 DB6B     		ldr	r3, [r3, #60]
 776 0032 7A68     		ldr	r2, [r7, #4]
 777 0034 1340     		ands	r3, r3, r2
 778 0036 FB60     		str	r3, [r7, #12]
 779              	.L69:
 780 0038 BB68     		ldr	r3, [r7, #8]
 781 003a DA6B     		ldr	r2, [r3, #60]
 782 003c FB68     		ldr	r3, [r7, #12]
 783 003e DB43     		mvns	r3, r3
 784 0040 1A40     		ands	r2, r2, r3
 785 0042 BB68     		ldr	r3, [r7, #8]
 786 0044 DA63     		str	r2, [r3, #60]
 787 0046 FFF7FEFF 		bl	chSysUnlock
 788 004a FB68     		ldr	r3, [r7, #12]
 789 004c 1846     		mov	r0, r3
 790 004e 1037     		adds	r7, r7, #16
 791 0050 BD46     		mov	sp, r7
 792              		@ sp needed
 793 0052 80BD     		pop	{r7, pc}
 794              	.L72:
 795              		.align	2
 796              	.L71:
 797 0054 00000000 		.word	ch
 798              		.size	chEvtWaitAny, .-chEvtWaitAny
ARM GAS  /var/folders/d2/nstgp4h54kz7g1l847x_b8wc0000gn/T//ccKlpRL4.s 			page 15


 799              		.section	.text.chEvtWaitAll,"ax",%progbits
 800              		.align	1
 801              		.global	chEvtWaitAll
 802              		.syntax unified
 803              		.thumb
 804              		.thumb_func
 805              		.fpu fpv4-sp-d16
 806              		.type	chEvtWaitAll, %function
 807              	chEvtWaitAll:
 808              		@ args = 0, pretend = 0, frame = 16
 809              		@ frame_needed = 1, uses_anonymous_args = 0
 810 0000 80B5     		push	{r7, lr}
 811 0002 84B0     		sub	sp, sp, #16
 812 0004 00AF     		add	r7, sp, #0
 813 0006 7860     		str	r0, [r7, #4]
 814 0008 0F4B     		ldr	r3, .L76
 815 000a 9B69     		ldr	r3, [r3, #24]
 816 000c FB60     		str	r3, [r7, #12]
 817 000e FFF7FEFF 		bl	chSysLock
 818 0012 FB68     		ldr	r3, [r7, #12]
 819 0014 DA6B     		ldr	r2, [r3, #60]
 820 0016 7B68     		ldr	r3, [r7, #4]
 821 0018 1340     		ands	r3, r3, r2
 822 001a 7A68     		ldr	r2, [r7, #4]
 823 001c 9A42     		cmp	r2, r3
 824 001e 05D0     		beq	.L74
 825 0020 FB68     		ldr	r3, [r7, #12]
 826 0022 7A68     		ldr	r2, [r7, #4]
 827 0024 9A62     		str	r2, [r3, #40]
 828 0026 0B20     		movs	r0, #11
 829 0028 FFF7FEFF 		bl	chSchGoSleepS
 830              	.L74:
 831 002c FB68     		ldr	r3, [r7, #12]
 832 002e DA6B     		ldr	r2, [r3, #60]
 833 0030 7B68     		ldr	r3, [r7, #4]
 834 0032 DB43     		mvns	r3, r3
 835 0034 1A40     		ands	r2, r2, r3
 836 0036 FB68     		ldr	r3, [r7, #12]
 837 0038 DA63     		str	r2, [r3, #60]
 838 003a FFF7FEFF 		bl	chSysUnlock
 839 003e 7B68     		ldr	r3, [r7, #4]
 840 0040 1846     		mov	r0, r3
 841 0042 1037     		adds	r7, r7, #16
 842 0044 BD46     		mov	sp, r7
 843              		@ sp needed
 844 0046 80BD     		pop	{r7, pc}
 845              	.L77:
 846              		.align	2
 847              	.L76:
 848 0048 00000000 		.word	ch
 849              		.size	chEvtWaitAll, .-chEvtWaitAll
 850              		.section	.text.chEvtWaitOneTimeout,"ax",%progbits
 851              		.align	1
 852              		.global	chEvtWaitOneTimeout
 853              		.syntax unified
 854              		.thumb
 855              		.thumb_func
ARM GAS  /var/folders/d2/nstgp4h54kz7g1l847x_b8wc0000gn/T//ccKlpRL4.s 			page 16


 856              		.fpu fpv4-sp-d16
 857              		.type	chEvtWaitOneTimeout, %function
 858              	chEvtWaitOneTimeout:
 859              		@ args = 0, pretend = 0, frame = 16
 860              		@ frame_needed = 1, uses_anonymous_args = 0
 861 0000 80B5     		push	{r7, lr}
 862 0002 84B0     		sub	sp, sp, #16
 863 0004 00AF     		add	r7, sp, #0
 864 0006 7860     		str	r0, [r7, #4]
 865 0008 3960     		str	r1, [r7]
 866 000a 1D4B     		ldr	r3, .L83
 867 000c 9B69     		ldr	r3, [r3, #24]
 868 000e BB60     		str	r3, [r7, #8]
 869 0010 FFF7FEFF 		bl	chSysLock
 870 0014 BB68     		ldr	r3, [r7, #8]
 871 0016 DB6B     		ldr	r3, [r3, #60]
 872 0018 7A68     		ldr	r2, [r7, #4]
 873 001a 1340     		ands	r3, r3, r2
 874 001c FB60     		str	r3, [r7, #12]
 875 001e FB68     		ldr	r3, [r7, #12]
 876 0020 002B     		cmp	r3, #0
 877 0022 19D1     		bne	.L79
 878 0024 3B68     		ldr	r3, [r7]
 879 0026 002B     		cmp	r3, #0
 880 0028 03D1     		bne	.L80
 881 002a FFF7FEFF 		bl	chSysUnlock
 882 002e 0023     		movs	r3, #0
 883 0030 21E0     		b	.L81
 884              	.L80:
 885 0032 BB68     		ldr	r3, [r7, #8]
 886 0034 7A68     		ldr	r2, [r7, #4]
 887 0036 9A62     		str	r2, [r3, #40]
 888 0038 3968     		ldr	r1, [r7]
 889 003a 0A20     		movs	r0, #10
 890 003c FFF7FEFF 		bl	chSchGoSleepTimeoutS
 891 0040 0346     		mov	r3, r0
 892 0042 002B     		cmp	r3, #0
 893 0044 03DA     		bge	.L82
 894 0046 FFF7FEFF 		bl	chSysUnlock
 895 004a 0023     		movs	r3, #0
 896 004c 13E0     		b	.L81
 897              	.L82:
 898 004e BB68     		ldr	r3, [r7, #8]
 899 0050 DB6B     		ldr	r3, [r3, #60]
 900 0052 7A68     		ldr	r2, [r7, #4]
 901 0054 1340     		ands	r3, r3, r2
 902 0056 FB60     		str	r3, [r7, #12]
 903              	.L79:
 904 0058 FB68     		ldr	r3, [r7, #12]
 905 005a 5B42     		negs	r3, r3
 906 005c FA68     		ldr	r2, [r7, #12]
 907 005e 1340     		ands	r3, r3, r2
 908 0060 FB60     		str	r3, [r7, #12]
 909 0062 BB68     		ldr	r3, [r7, #8]
 910 0064 DA6B     		ldr	r2, [r3, #60]
 911 0066 FB68     		ldr	r3, [r7, #12]
 912 0068 DB43     		mvns	r3, r3
ARM GAS  /var/folders/d2/nstgp4h54kz7g1l847x_b8wc0000gn/T//ccKlpRL4.s 			page 17


 913 006a 1A40     		ands	r2, r2, r3
 914 006c BB68     		ldr	r3, [r7, #8]
 915 006e DA63     		str	r2, [r3, #60]
 916 0070 FFF7FEFF 		bl	chSysUnlock
 917 0074 FB68     		ldr	r3, [r7, #12]
 918              	.L81:
 919 0076 1846     		mov	r0, r3
 920 0078 1037     		adds	r7, r7, #16
 921 007a BD46     		mov	sp, r7
 922              		@ sp needed
 923 007c 80BD     		pop	{r7, pc}
 924              	.L84:
 925 007e 00BF     		.align	2
 926              	.L83:
 927 0080 00000000 		.word	ch
 928              		.size	chEvtWaitOneTimeout, .-chEvtWaitOneTimeout
 929              		.section	.text.chEvtWaitAnyTimeout,"ax",%progbits
 930              		.align	1
 931              		.global	chEvtWaitAnyTimeout
 932              		.syntax unified
 933              		.thumb
 934              		.thumb_func
 935              		.fpu fpv4-sp-d16
 936              		.type	chEvtWaitAnyTimeout, %function
 937              	chEvtWaitAnyTimeout:
 938              		@ args = 0, pretend = 0, frame = 16
 939              		@ frame_needed = 1, uses_anonymous_args = 0
 940 0000 80B5     		push	{r7, lr}
 941 0002 84B0     		sub	sp, sp, #16
 942 0004 00AF     		add	r7, sp, #0
 943 0006 7860     		str	r0, [r7, #4]
 944 0008 3960     		str	r1, [r7]
 945 000a 1A4B     		ldr	r3, .L90
 946 000c 9B69     		ldr	r3, [r3, #24]
 947 000e BB60     		str	r3, [r7, #8]
 948 0010 FFF7FEFF 		bl	chSysLock
 949 0014 BB68     		ldr	r3, [r7, #8]
 950 0016 DB6B     		ldr	r3, [r3, #60]
 951 0018 7A68     		ldr	r2, [r7, #4]
 952 001a 1340     		ands	r3, r3, r2
 953 001c FB60     		str	r3, [r7, #12]
 954 001e FB68     		ldr	r3, [r7, #12]
 955 0020 002B     		cmp	r3, #0
 956 0022 19D1     		bne	.L86
 957 0024 3B68     		ldr	r3, [r7]
 958 0026 002B     		cmp	r3, #0
 959 0028 03D1     		bne	.L87
 960 002a FFF7FEFF 		bl	chSysUnlock
 961 002e 0023     		movs	r3, #0
 962 0030 1CE0     		b	.L88
 963              	.L87:
 964 0032 BB68     		ldr	r3, [r7, #8]
 965 0034 7A68     		ldr	r2, [r7, #4]
 966 0036 9A62     		str	r2, [r3, #40]
 967 0038 3968     		ldr	r1, [r7]
 968 003a 0A20     		movs	r0, #10
 969 003c FFF7FEFF 		bl	chSchGoSleepTimeoutS
ARM GAS  /var/folders/d2/nstgp4h54kz7g1l847x_b8wc0000gn/T//ccKlpRL4.s 			page 18


 970 0040 0346     		mov	r3, r0
 971 0042 002B     		cmp	r3, #0
 972 0044 03DA     		bge	.L89
 973 0046 FFF7FEFF 		bl	chSysUnlock
 974 004a 0023     		movs	r3, #0
 975 004c 0EE0     		b	.L88
 976              	.L89:
 977 004e BB68     		ldr	r3, [r7, #8]
 978 0050 DB6B     		ldr	r3, [r3, #60]
 979 0052 7A68     		ldr	r2, [r7, #4]
 980 0054 1340     		ands	r3, r3, r2
 981 0056 FB60     		str	r3, [r7, #12]
 982              	.L86:
 983 0058 BB68     		ldr	r3, [r7, #8]
 984 005a DA6B     		ldr	r2, [r3, #60]
 985 005c FB68     		ldr	r3, [r7, #12]
 986 005e DB43     		mvns	r3, r3
 987 0060 1A40     		ands	r2, r2, r3
 988 0062 BB68     		ldr	r3, [r7, #8]
 989 0064 DA63     		str	r2, [r3, #60]
 990 0066 FFF7FEFF 		bl	chSysUnlock
 991 006a FB68     		ldr	r3, [r7, #12]
 992              	.L88:
 993 006c 1846     		mov	r0, r3
 994 006e 1037     		adds	r7, r7, #16
 995 0070 BD46     		mov	sp, r7
 996              		@ sp needed
 997 0072 80BD     		pop	{r7, pc}
 998              	.L91:
 999              		.align	2
 1000              	.L90:
 1001 0074 00000000 		.word	ch
 1002              		.size	chEvtWaitAnyTimeout, .-chEvtWaitAnyTimeout
 1003              		.section	.text.chEvtWaitAllTimeout,"ax",%progbits
 1004              		.align	1
 1005              		.global	chEvtWaitAllTimeout
 1006              		.syntax unified
 1007              		.thumb
 1008              		.thumb_func
 1009              		.fpu fpv4-sp-d16
 1010              		.type	chEvtWaitAllTimeout, %function
 1011              	chEvtWaitAllTimeout:
 1012              		@ args = 0, pretend = 0, frame = 16
 1013              		@ frame_needed = 1, uses_anonymous_args = 0
 1014 0000 80B5     		push	{r7, lr}
 1015 0002 84B0     		sub	sp, sp, #16
 1016 0004 00AF     		add	r7, sp, #0
 1017 0006 7860     		str	r0, [r7, #4]
 1018 0008 3960     		str	r1, [r7]
 1019 000a 174B     		ldr	r3, .L96
 1020 000c 9B69     		ldr	r3, [r3, #24]
 1021 000e FB60     		str	r3, [r7, #12]
 1022 0010 FFF7FEFF 		bl	chSysLock
 1023 0014 FB68     		ldr	r3, [r7, #12]
 1024 0016 DA6B     		ldr	r2, [r3, #60]
 1025 0018 7B68     		ldr	r3, [r7, #4]
 1026 001a 1340     		ands	r3, r3, r2
ARM GAS  /var/folders/d2/nstgp4h54kz7g1l847x_b8wc0000gn/T//ccKlpRL4.s 			page 19


 1027 001c 7A68     		ldr	r2, [r7, #4]
 1028 001e 9A42     		cmp	r2, r3
 1029 0020 14D0     		beq	.L93
 1030 0022 3B68     		ldr	r3, [r7]
 1031 0024 002B     		cmp	r3, #0
 1032 0026 03D1     		bne	.L94
 1033 0028 FFF7FEFF 		bl	chSysUnlock
 1034 002c 0023     		movs	r3, #0
 1035 002e 17E0     		b	.L95
 1036              	.L94:
 1037 0030 FB68     		ldr	r3, [r7, #12]
 1038 0032 7A68     		ldr	r2, [r7, #4]
 1039 0034 9A62     		str	r2, [r3, #40]
 1040 0036 3968     		ldr	r1, [r7]
 1041 0038 0B20     		movs	r0, #11
 1042 003a FFF7FEFF 		bl	chSchGoSleepTimeoutS
 1043 003e 0346     		mov	r3, r0
 1044 0040 002B     		cmp	r3, #0
 1045 0042 03DA     		bge	.L93
 1046 0044 FFF7FEFF 		bl	chSysUnlock
 1047 0048 0023     		movs	r3, #0
 1048 004a 09E0     		b	.L95
 1049              	.L93:
 1050 004c FB68     		ldr	r3, [r7, #12]
 1051 004e DA6B     		ldr	r2, [r3, #60]
 1052 0050 7B68     		ldr	r3, [r7, #4]
 1053 0052 DB43     		mvns	r3, r3
 1054 0054 1A40     		ands	r2, r2, r3
 1055 0056 FB68     		ldr	r3, [r7, #12]
 1056 0058 DA63     		str	r2, [r3, #60]
 1057 005a FFF7FEFF 		bl	chSysUnlock
 1058 005e 7B68     		ldr	r3, [r7, #4]
 1059              	.L95:
 1060 0060 1846     		mov	r0, r3
 1061 0062 1037     		adds	r7, r7, #16
 1062 0064 BD46     		mov	sp, r7
 1063              		@ sp needed
 1064 0066 80BD     		pop	{r7, pc}
 1065              	.L97:
 1066              		.align	2
 1067              	.L96:
 1068 0068 00000000 		.word	ch
 1069              		.size	chEvtWaitAllTimeout, .-chEvtWaitAllTimeout
 1070              		.section	.rodata.__func__.7852,"a",%progbits
 1071              		.align	2
 1072              		.type	__func__.7852, %object
 1073              		.size	__func__.7852, 27
 1074              	__func__.7852:
 1075 0000 63684576 		.ascii	"chEvtRegisterMaskWithFlags\000"
 1075      74526567 
 1075      69737465 
 1075      724D6173 
 1075      6B576974 
 1076              		.section	.rodata.__func__.7153,"a",%progbits
 1077              		.align	2
 1078              		.type	__func__.7153, %object
 1079              		.size	__func__.7153, 12
ARM GAS  /var/folders/d2/nstgp4h54kz7g1l847x_b8wc0000gn/T//ccKlpRL4.s 			page 20


 1080              	__func__.7153:
 1081 0000 63685379 		.ascii	"chSysUnlock\000"
 1081      73556E6C 
 1081      6F636B00 
 1082              		.section	.rodata.__func__.7858,"a",%progbits
 1083              		.align	2
 1084              		.type	__func__.7858, %object
 1085              		.size	__func__.7858, 16
 1086              	__func__.7858:
 1087 0000 63684576 		.ascii	"chEvtUnregister\000"
 1087      74556E72 
 1087      65676973 
 1087      74657200 
 1088              		.section	.rodata.__func__.7874,"a",%progbits
 1089              		.align	2
 1090              		.type	__func__.7874, %object
 1091              		.size	__func__.7874, 21
 1092              	__func__.7874:
 1093 0000 63684576 		.ascii	"chEvtBroadcastFlagsI\000"
 1093      7442726F 
 1093      61646361 
 1093      7374466C 
 1093      61677349 
 1094              		.section	.rodata.__func__.7886,"a",%progbits
 1095              		.align	2
 1096              		.type	__func__.7886, %object
 1097              		.size	__func__.7886, 12
 1098              	__func__.7886:
 1099 0000 63684576 		.ascii	"chEvtSignal\000"
 1099      74536967 
 1099      6E616C00 
 1100              		.section	.rodata.__func__.7891,"a",%progbits
 1101              		.align	2
 1102              		.type	__func__.7891, %object
 1103              		.size	__func__.7891, 13
 1104              	__func__.7891:
 1105 0000 63684576 		.ascii	"chEvtSignalI\000"
 1105      74536967 
 1105      6E616C49 
 1105      00
 1106              		.section	.rodata.__func__.7905,"a",%progbits
 1107              		.align	2
 1108              		.type	__func__.7905, %object
 1109              		.size	__func__.7905, 14
 1110              	__func__.7905:
 1111 0000 63684576 		.ascii	"chEvtDispatch\000"
 1111      74446973 
 1111      70617463 
 1111      6800
 1112              		.ident	"GCC: (GNU Tools for Arm Embedded Processors 7-2017-q4-major) 7.2.1 20170904 (release) [ARM
ARM GAS  /var/folders/d2/nstgp4h54kz7g1l847x_b8wc0000gn/T//ccKlpRL4.s 			page 21

