ARM GAS  /var/folders/d2/nstgp4h54kz7g1l847x_b8wc0000gn/T//ccAX8soo.s 			page 1


   1              		.cpu cortex-m4
   2              		.eabi_attribute 27, 1
   3              		.eabi_attribute 28, 1
   4              		.eabi_attribute 20, 1
   5              		.eabi_attribute 21, 1
   6              		.eabi_attribute 23, 3
   7              		.eabi_attribute 24, 1
   8              		.eabi_attribute 25, 1
   9              		.eabi_attribute 26, 1
  10              		.eabi_attribute 30, 6
  11              		.eabi_attribute 34, 1
  12              		.eabi_attribute 18, 4
  13              		.file	"chheap.c"
  14              		.section	.bss.default_heap,"aw",%nobits
  15              		.align	3
  16              		.type	default_heap, %object
  17              		.size	default_heap, 40
  18              	default_heap:
  19 0000 00000000 		.space	40
  19      00000000 
  19      00000000 
  19      00000000 
  19      00000000 
  20              		.section	.text._heap_init,"ax",%progbits
  21              		.align	1
  22              		.global	_heap_init
  23              		.syntax unified
  24              		.thumb
  25              		.thumb_func
  26              		.fpu fpv4-sp-d16
  27              		.type	_heap_init, %function
  28              	_heap_init:
  29              		@ args = 0, pretend = 0, frame = 0
  30              		@ frame_needed = 1, uses_anonymous_args = 0
  31 0000 80B5     		push	{r7, lr}
  32 0002 00AF     		add	r7, sp, #0
  33 0004 064B     		ldr	r3, .L2
  34 0006 074A     		ldr	r2, .L2+4
  35 0008 1A60     		str	r2, [r3]
  36 000a 054B     		ldr	r3, .L2
  37 000c 0022     		movs	r2, #0
  38 000e 9A60     		str	r2, [r3, #8]
  39 0010 034B     		ldr	r3, .L2
  40 0012 0022     		movs	r2, #0
  41 0014 DA60     		str	r2, [r3, #12]
  42 0016 0448     		ldr	r0, .L2+8
  43 0018 FFF7FEFF 		bl	chMtxObjectInit
  44 001c 00BF     		nop
  45 001e 80BD     		pop	{r7, pc}
  46              	.L3:
  47              		.align	2
  48              	.L2:
  49 0020 00000000 		.word	default_heap
  50 0024 00000000 		.word	chCoreAlloc
  51 0028 10000000 		.word	default_heap+16
  52              		.size	_heap_init, .-_heap_init
  53              		.section	.text.chHeapObjectInit,"ax",%progbits
ARM GAS  /var/folders/d2/nstgp4h54kz7g1l847x_b8wc0000gn/T//ccAX8soo.s 			page 2


  54              		.align	1
  55              		.global	chHeapObjectInit
  56              		.syntax unified
  57              		.thumb
  58              		.thumb_func
  59              		.fpu fpv4-sp-d16
  60              		.type	chHeapObjectInit, %function
  61              	chHeapObjectInit:
  62              		@ args = 0, pretend = 0, frame = 24
  63              		@ frame_needed = 1, uses_anonymous_args = 0
  64 0000 80B5     		push	{r7, lr}
  65 0002 86B0     		sub	sp, sp, #24
  66 0004 00AF     		add	r7, sp, #0
  67 0006 F860     		str	r0, [r7, #12]
  68 0008 B960     		str	r1, [r7, #8]
  69 000a 7A60     		str	r2, [r7, #4]
  70 000c BB68     		ldr	r3, [r7, #8]
  71 000e 7B61     		str	r3, [r7, #20]
  72 0010 BB68     		ldr	r3, [r7, #8]
  73 0012 03F00703 		and	r3, r3, #7
  74 0016 002B     		cmp	r3, #0
  75 0018 04D1     		bne	.L5
  76 001a 7B68     		ldr	r3, [r7, #4]
  77 001c 03F00703 		and	r3, r3, #7
  78 0020 002B     		cmp	r3, #0
  79 0022 02D0     		beq	.L6
  80              	.L5:
  81 0024 0E48     		ldr	r0, .L7
  82 0026 FFF7FEFF 		bl	chSysHalt
  83              	.L6:
  84 002a FB68     		ldr	r3, [r7, #12]
  85 002c 0022     		movs	r2, #0
  86 002e 1A60     		str	r2, [r3]
  87 0030 FB68     		ldr	r3, [r7, #12]
  88 0032 7A69     		ldr	r2, [r7, #20]
  89 0034 9A60     		str	r2, [r3, #8]
  90 0036 FB68     		ldr	r3, [r7, #12]
  91 0038 0022     		movs	r2, #0
  92 003a DA60     		str	r2, [r3, #12]
  93 003c 7B69     		ldr	r3, [r7, #20]
  94 003e 0022     		movs	r2, #0
  95 0040 1A60     		str	r2, [r3]
  96 0042 7B68     		ldr	r3, [r7, #4]
  97 0044 A3F10802 		sub	r2, r3, #8
  98 0048 7B69     		ldr	r3, [r7, #20]
  99 004a 5A60     		str	r2, [r3, #4]
 100 004c FB68     		ldr	r3, [r7, #12]
 101 004e 1033     		adds	r3, r3, #16
 102 0050 1846     		mov	r0, r3
 103 0052 FFF7FEFF 		bl	chMtxObjectInit
 104 0056 00BF     		nop
 105 0058 1837     		adds	r7, r7, #24
 106 005a BD46     		mov	sp, r7
 107              		@ sp needed
 108 005c 80BD     		pop	{r7, pc}
 109              	.L8:
 110 005e 00BF     		.align	2
ARM GAS  /var/folders/d2/nstgp4h54kz7g1l847x_b8wc0000gn/T//ccAX8soo.s 			page 3


 111              	.L7:
 112 0060 00000000 		.word	__func__.7856
 113              		.size	chHeapObjectInit, .-chHeapObjectInit
 114              		.section	.text.chHeapAlloc,"ax",%progbits
 115              		.align	1
 116              		.global	chHeapAlloc
 117              		.syntax unified
 118              		.thumb
 119              		.thumb_func
 120              		.fpu fpv4-sp-d16
 121              		.type	chHeapAlloc, %function
 122              	chHeapAlloc:
 123              		@ args = 0, pretend = 0, frame = 24
 124              		@ frame_needed = 1, uses_anonymous_args = 0
 125 0000 80B5     		push	{r7, lr}
 126 0002 86B0     		sub	sp, sp, #24
 127 0004 00AF     		add	r7, sp, #0
 128 0006 7860     		str	r0, [r7, #4]
 129 0008 3960     		str	r1, [r7]
 130 000a 7B68     		ldr	r3, [r7, #4]
 131 000c 002B     		cmp	r3, #0
 132 000e 01D1     		bne	.L10
 133 0010 364B     		ldr	r3, .L18
 134 0012 7B60     		str	r3, [r7, #4]
 135              	.L10:
 136 0014 3B68     		ldr	r3, [r7]
 137 0016 0733     		adds	r3, r3, #7
 138 0018 23F00703 		bic	r3, r3, #7
 139 001c 3B60     		str	r3, [r7]
 140 001e 7B68     		ldr	r3, [r7, #4]
 141 0020 0833     		adds	r3, r3, #8
 142 0022 7B61     		str	r3, [r7, #20]
 143 0024 7B68     		ldr	r3, [r7, #4]
 144 0026 1033     		adds	r3, r3, #16
 145 0028 1846     		mov	r0, r3
 146 002a FFF7FEFF 		bl	chMtxLock
 147 002e 36E0     		b	.L11
 148              	.L16:
 149 0030 7B69     		ldr	r3, [r7, #20]
 150 0032 1B68     		ldr	r3, [r3]
 151 0034 3B61     		str	r3, [r7, #16]
 152 0036 3B69     		ldr	r3, [r7, #16]
 153 0038 5B68     		ldr	r3, [r3, #4]
 154 003a 3A68     		ldr	r2, [r7]
 155 003c 9A42     		cmp	r2, r3
 156 003e 2CD8     		bhi	.L12
 157 0040 3B69     		ldr	r3, [r7, #16]
 158 0042 5A68     		ldr	r2, [r3, #4]
 159 0044 3B68     		ldr	r3, [r7]
 160 0046 0833     		adds	r3, r3, #8
 161 0048 9A42     		cmp	r2, r3
 162 004a 04D2     		bcs	.L13
 163 004c 3B69     		ldr	r3, [r7, #16]
 164 004e 1A68     		ldr	r2, [r3]
 165 0050 7B69     		ldr	r3, [r7, #20]
 166 0052 1A60     		str	r2, [r3]
 167 0054 16E0     		b	.L14
ARM GAS  /var/folders/d2/nstgp4h54kz7g1l847x_b8wc0000gn/T//ccAX8soo.s 			page 4


 168              	.L13:
 169 0056 3B68     		ldr	r3, [r7]
 170 0058 0833     		adds	r3, r3, #8
 171 005a 3A69     		ldr	r2, [r7, #16]
 172 005c 1344     		add	r3, r3, r2
 173 005e FB60     		str	r3, [r7, #12]
 174 0060 3B69     		ldr	r3, [r7, #16]
 175 0062 1A68     		ldr	r2, [r3]
 176 0064 FB68     		ldr	r3, [r7, #12]
 177 0066 1A60     		str	r2, [r3]
 178 0068 3B69     		ldr	r3, [r7, #16]
 179 006a 5A68     		ldr	r2, [r3, #4]
 180 006c 3B68     		ldr	r3, [r7]
 181 006e D31A     		subs	r3, r2, r3
 182 0070 A3F10802 		sub	r2, r3, #8
 183 0074 FB68     		ldr	r3, [r7, #12]
 184 0076 5A60     		str	r2, [r3, #4]
 185 0078 7B69     		ldr	r3, [r7, #20]
 186 007a FA68     		ldr	r2, [r7, #12]
 187 007c 1A60     		str	r2, [r3]
 188 007e 3B69     		ldr	r3, [r7, #16]
 189 0080 3A68     		ldr	r2, [r7]
 190 0082 5A60     		str	r2, [r3, #4]
 191              	.L14:
 192 0084 3B69     		ldr	r3, [r7, #16]
 193 0086 7A68     		ldr	r2, [r7, #4]
 194 0088 1A60     		str	r2, [r3]
 195 008a 7B68     		ldr	r3, [r7, #4]
 196 008c 1033     		adds	r3, r3, #16
 197 008e 1846     		mov	r0, r3
 198 0090 FFF7FEFF 		bl	chMtxUnlock
 199 0094 3B69     		ldr	r3, [r7, #16]
 200 0096 0833     		adds	r3, r3, #8
 201 0098 24E0     		b	.L15
 202              	.L12:
 203 009a 3B69     		ldr	r3, [r7, #16]
 204 009c 7B61     		str	r3, [r7, #20]
 205              	.L11:
 206 009e 7B69     		ldr	r3, [r7, #20]
 207 00a0 1B68     		ldr	r3, [r3]
 208 00a2 002B     		cmp	r3, #0
 209 00a4 C4D1     		bne	.L16
 210 00a6 7B68     		ldr	r3, [r7, #4]
 211 00a8 1033     		adds	r3, r3, #16
 212 00aa 1846     		mov	r0, r3
 213 00ac FFF7FEFF 		bl	chMtxUnlock
 214 00b0 7B68     		ldr	r3, [r7, #4]
 215 00b2 1B68     		ldr	r3, [r3]
 216 00b4 002B     		cmp	r3, #0
 217 00b6 14D0     		beq	.L17
 218 00b8 7B68     		ldr	r3, [r7, #4]
 219 00ba 1B68     		ldr	r3, [r3]
 220 00bc 3A68     		ldr	r2, [r7]
 221 00be 0832     		adds	r2, r2, #8
 222 00c0 1046     		mov	r0, r2
 223 00c2 9847     		blx	r3
 224 00c4 3861     		str	r0, [r7, #16]
ARM GAS  /var/folders/d2/nstgp4h54kz7g1l847x_b8wc0000gn/T//ccAX8soo.s 			page 5


 225 00c6 3B69     		ldr	r3, [r7, #16]
 226 00c8 002B     		cmp	r3, #0
 227 00ca 0AD0     		beq	.L17
 228 00cc 3B69     		ldr	r3, [r7, #16]
 229 00ce 7A68     		ldr	r2, [r7, #4]
 230 00d0 1A60     		str	r2, [r3]
 231 00d2 3B69     		ldr	r3, [r7, #16]
 232 00d4 3A68     		ldr	r2, [r7]
 233 00d6 5A60     		str	r2, [r3, #4]
 234 00d8 3B69     		ldr	r3, [r7, #16]
 235 00da 0833     		adds	r3, r3, #8
 236 00dc 3B61     		str	r3, [r7, #16]
 237 00de 3B69     		ldr	r3, [r7, #16]
 238 00e0 00E0     		b	.L15
 239              	.L17:
 240 00e2 0023     		movs	r3, #0
 241              	.L15:
 242 00e4 1846     		mov	r0, r3
 243 00e6 1837     		adds	r7, r7, #24
 244 00e8 BD46     		mov	sp, r7
 245              		@ sp needed
 246 00ea 80BD     		pop	{r7, pc}
 247              	.L19:
 248              		.align	2
 249              	.L18:
 250 00ec 00000000 		.word	default_heap
 251              		.size	chHeapAlloc, .-chHeapAlloc
 252              		.section	.text.chHeapFree,"ax",%progbits
 253              		.align	1
 254              		.global	chHeapFree
 255              		.syntax unified
 256              		.thumb
 257              		.thumb_func
 258              		.fpu fpv4-sp-d16
 259              		.type	chHeapFree, %function
 260              	chHeapFree:
 261              		@ args = 0, pretend = 0, frame = 24
 262              		@ frame_needed = 1, uses_anonymous_args = 0
 263 0000 80B5     		push	{r7, lr}
 264 0002 86B0     		sub	sp, sp, #24
 265 0004 00AF     		add	r7, sp, #0
 266 0006 7860     		str	r0, [r7, #4]
 267 0008 7B68     		ldr	r3, [r7, #4]
 268 000a 002B     		cmp	r3, #0
 269 000c 02D1     		bne	.L21
 270 000e 3A48     		ldr	r0, .L32
 271 0010 FFF7FEFF 		bl	chSysHalt
 272              	.L21:
 273 0014 7B68     		ldr	r3, [r7, #4]
 274 0016 083B     		subs	r3, r3, #8
 275 0018 3B61     		str	r3, [r7, #16]
 276 001a 3B69     		ldr	r3, [r7, #16]
 277 001c 1B68     		ldr	r3, [r3]
 278 001e FB60     		str	r3, [r7, #12]
 279 0020 FB68     		ldr	r3, [r7, #12]
 280 0022 0833     		adds	r3, r3, #8
 281 0024 7B61     		str	r3, [r7, #20]
ARM GAS  /var/folders/d2/nstgp4h54kz7g1l847x_b8wc0000gn/T//ccAX8soo.s 			page 6


 282 0026 FB68     		ldr	r3, [r7, #12]
 283 0028 1033     		adds	r3, r3, #16
 284 002a 1846     		mov	r0, r3
 285 002c FFF7FEFF 		bl	chMtxLock
 286              	.L29:
 287 0030 3A69     		ldr	r2, [r7, #16]
 288 0032 7B69     		ldr	r3, [r7, #20]
 289 0034 9A42     		cmp	r2, r3
 290 0036 0AD3     		bcc	.L22
 291 0038 7B69     		ldr	r3, [r7, #20]
 292 003a 5B68     		ldr	r3, [r3, #4]
 293 003c 0833     		adds	r3, r3, #8
 294 003e 7A69     		ldr	r2, [r7, #20]
 295 0040 1344     		add	r3, r3, r2
 296 0042 3A69     		ldr	r2, [r7, #16]
 297 0044 9A42     		cmp	r2, r3
 298 0046 02D2     		bcs	.L22
 299 0048 2B48     		ldr	r0, .L32
 300 004a FFF7FEFF 		bl	chSysHalt
 301              	.L22:
 302 004e FB68     		ldr	r3, [r7, #12]
 303 0050 0833     		adds	r3, r3, #8
 304 0052 7A69     		ldr	r2, [r7, #20]
 305 0054 9A42     		cmp	r2, r3
 306 0056 03D0     		beq	.L23
 307 0058 3A69     		ldr	r2, [r7, #16]
 308 005a 7B69     		ldr	r3, [r7, #20]
 309 005c 9A42     		cmp	r2, r3
 310 005e 3DD9     		bls	.L24
 311              	.L23:
 312 0060 7B69     		ldr	r3, [r7, #20]
 313 0062 1B68     		ldr	r3, [r3]
 314 0064 002B     		cmp	r3, #0
 315 0066 04D0     		beq	.L25
 316 0068 7B69     		ldr	r3, [r7, #20]
 317 006a 1B68     		ldr	r3, [r3]
 318 006c 3A69     		ldr	r2, [r7, #16]
 319 006e 9A42     		cmp	r2, r3
 320 0070 34D2     		bcs	.L24
 321              	.L25:
 322 0072 7B69     		ldr	r3, [r7, #20]
 323 0074 1A68     		ldr	r2, [r3]
 324 0076 3B69     		ldr	r3, [r7, #16]
 325 0078 1A60     		str	r2, [r3]
 326 007a 7B69     		ldr	r3, [r7, #20]
 327 007c 3A69     		ldr	r2, [r7, #16]
 328 007e 1A60     		str	r2, [r3]
 329 0080 3B69     		ldr	r3, [r7, #16]
 330 0082 5B68     		ldr	r3, [r3, #4]
 331 0084 0833     		adds	r3, r3, #8
 332 0086 3A69     		ldr	r2, [r7, #16]
 333 0088 1A44     		add	r2, r2, r3
 334 008a 3B69     		ldr	r3, [r7, #16]
 335 008c 1B68     		ldr	r3, [r3]
 336 008e 9A42     		cmp	r2, r3
 337 0090 0ED1     		bne	.L26
 338 0092 3B69     		ldr	r3, [r7, #16]
ARM GAS  /var/folders/d2/nstgp4h54kz7g1l847x_b8wc0000gn/T//ccAX8soo.s 			page 7


 339 0094 5A68     		ldr	r2, [r3, #4]
 340 0096 3B69     		ldr	r3, [r7, #16]
 341 0098 1B68     		ldr	r3, [r3]
 342 009a 5B68     		ldr	r3, [r3, #4]
 343 009c 1344     		add	r3, r3, r2
 344 009e 03F10802 		add	r2, r3, #8
 345 00a2 3B69     		ldr	r3, [r7, #16]
 346 00a4 5A60     		str	r2, [r3, #4]
 347 00a6 3B69     		ldr	r3, [r7, #16]
 348 00a8 1B68     		ldr	r3, [r3]
 349 00aa 1A68     		ldr	r2, [r3]
 350 00ac 3B69     		ldr	r3, [r7, #16]
 351 00ae 1A60     		str	r2, [r3]
 352              	.L26:
 353 00b0 7B69     		ldr	r3, [r7, #20]
 354 00b2 5B68     		ldr	r3, [r3, #4]
 355 00b4 0833     		adds	r3, r3, #8
 356 00b6 7A69     		ldr	r2, [r7, #20]
 357 00b8 1344     		add	r3, r3, r2
 358 00ba 3A69     		ldr	r2, [r7, #16]
 359 00bc 9A42     		cmp	r2, r3
 360 00be 11D1     		bne	.L31
 361 00c0 7B69     		ldr	r3, [r7, #20]
 362 00c2 5A68     		ldr	r2, [r3, #4]
 363 00c4 3B69     		ldr	r3, [r7, #16]
 364 00c6 5B68     		ldr	r3, [r3, #4]
 365 00c8 1344     		add	r3, r3, r2
 366 00ca 03F10802 		add	r2, r3, #8
 367 00ce 7B69     		ldr	r3, [r7, #20]
 368 00d0 5A60     		str	r2, [r3, #4]
 369 00d2 3B69     		ldr	r3, [r7, #16]
 370 00d4 1A68     		ldr	r2, [r3]
 371 00d6 7B69     		ldr	r3, [r7, #20]
 372 00d8 1A60     		str	r2, [r3]
 373 00da 03E0     		b	.L31
 374              	.L24:
 375 00dc 7B69     		ldr	r3, [r7, #20]
 376 00de 1B68     		ldr	r3, [r3]
 377 00e0 7B61     		str	r3, [r7, #20]
 378 00e2 A5E7     		b	.L29
 379              	.L31:
 380 00e4 00BF     		nop
 381 00e6 FB68     		ldr	r3, [r7, #12]
 382 00e8 1033     		adds	r3, r3, #16
 383 00ea 1846     		mov	r0, r3
 384 00ec FFF7FEFF 		bl	chMtxUnlock
 385 00f0 00BF     		nop
 386 00f2 1837     		adds	r7, r7, #24
 387 00f4 BD46     		mov	sp, r7
 388              		@ sp needed
 389 00f6 80BD     		pop	{r7, pc}
 390              	.L33:
 391              		.align	2
 392              	.L32:
 393 00f8 00000000 		.word	__func__.7873
 394              		.size	chHeapFree, .-chHeapFree
 395              		.section	.text.chHeapStatus,"ax",%progbits
ARM GAS  /var/folders/d2/nstgp4h54kz7g1l847x_b8wc0000gn/T//ccAX8soo.s 			page 8


 396              		.align	1
 397              		.global	chHeapStatus
 398              		.syntax unified
 399              		.thumb
 400              		.thumb_func
 401              		.fpu fpv4-sp-d16
 402              		.type	chHeapStatus, %function
 403              	chHeapStatus:
 404              		@ args = 0, pretend = 0, frame = 24
 405              		@ frame_needed = 1, uses_anonymous_args = 0
 406 0000 80B5     		push	{r7, lr}
 407 0002 86B0     		sub	sp, sp, #24
 408 0004 00AF     		add	r7, sp, #0
 409 0006 7860     		str	r0, [r7, #4]
 410 0008 3960     		str	r1, [r7]
 411 000a 7B68     		ldr	r3, [r7, #4]
 412 000c 002B     		cmp	r3, #0
 413 000e 01D1     		bne	.L35
 414 0010 174B     		ldr	r3, .L40
 415 0012 7B60     		str	r3, [r7, #4]
 416              	.L35:
 417 0014 7B68     		ldr	r3, [r7, #4]
 418 0016 1033     		adds	r3, r3, #16
 419 0018 1846     		mov	r0, r3
 420 001a FFF7FEFF 		bl	chMtxLock
 421 001e 0023     		movs	r3, #0
 422 0020 FB60     		str	r3, [r7, #12]
 423 0022 0023     		movs	r3, #0
 424 0024 3B61     		str	r3, [r7, #16]
 425 0026 7B68     		ldr	r3, [r7, #4]
 426 0028 0833     		adds	r3, r3, #8
 427 002a 7B61     		str	r3, [r7, #20]
 428 002c 0BE0     		b	.L36
 429              	.L37:
 430 002e 7B69     		ldr	r3, [r7, #20]
 431 0030 1B68     		ldr	r3, [r3]
 432 0032 5B68     		ldr	r3, [r3, #4]
 433 0034 FA68     		ldr	r2, [r7, #12]
 434 0036 1344     		add	r3, r3, r2
 435 0038 FB60     		str	r3, [r7, #12]
 436 003a 3B69     		ldr	r3, [r7, #16]
 437 003c 0133     		adds	r3, r3, #1
 438 003e 3B61     		str	r3, [r7, #16]
 439 0040 7B69     		ldr	r3, [r7, #20]
 440 0042 1B68     		ldr	r3, [r3]
 441 0044 7B61     		str	r3, [r7, #20]
 442              	.L36:
 443 0046 7B69     		ldr	r3, [r7, #20]
 444 0048 1B68     		ldr	r3, [r3]
 445 004a 002B     		cmp	r3, #0
 446 004c EFD1     		bne	.L37
 447 004e 3B68     		ldr	r3, [r7]
 448 0050 002B     		cmp	r3, #0
 449 0052 02D0     		beq	.L38
 450 0054 3B68     		ldr	r3, [r7]
 451 0056 FA68     		ldr	r2, [r7, #12]
 452 0058 1A60     		str	r2, [r3]
ARM GAS  /var/folders/d2/nstgp4h54kz7g1l847x_b8wc0000gn/T//ccAX8soo.s 			page 9


 453              	.L38:
 454 005a 7B68     		ldr	r3, [r7, #4]
 455 005c 1033     		adds	r3, r3, #16
 456 005e 1846     		mov	r0, r3
 457 0060 FFF7FEFF 		bl	chMtxUnlock
 458 0064 3B69     		ldr	r3, [r7, #16]
 459 0066 1846     		mov	r0, r3
 460 0068 1837     		adds	r7, r7, #24
 461 006a BD46     		mov	sp, r7
 462              		@ sp needed
 463 006c 80BD     		pop	{r7, pc}
 464              	.L41:
 465 006e 00BF     		.align	2
 466              	.L40:
 467 0070 00000000 		.word	default_heap
 468              		.size	chHeapStatus, .-chHeapStatus
 469              		.section	.rodata.__func__.7856,"a",%progbits
 470              		.align	2
 471              		.type	__func__.7856, %object
 472              		.size	__func__.7856, 17
 473              	__func__.7856:
 474 0000 63684865 		.ascii	"chHeapObjectInit\000"
 474      61704F62 
 474      6A656374 
 474      496E6974 
 474      00
 475              		.section	.rodata.__func__.7873,"a",%progbits
 476              		.align	2
 477              		.type	__func__.7873, %object
 478              		.size	__func__.7873, 11
 479              	__func__.7873:
 480 0000 63684865 		.ascii	"chHeapFree\000"
 480      61704672 
 480      656500
 481              		.ident	"GCC: (GNU Tools for Arm Embedded Processors 7-2017-q4-major) 7.2.1 20170904 (release) [ARM
ARM GAS  /var/folders/d2/nstgp4h54kz7g1l847x_b8wc0000gn/T//ccAX8soo.s 			page 10

