ARM GAS  /var/folders/d2/nstgp4h54kz7g1l847x_b8wc0000gn/T//cc54yhAR.s 			page 1


   1              		.cpu cortex-m4
   2              		.eabi_attribute 27, 1
   3              		.eabi_attribute 28, 1
   4              		.eabi_attribute 20, 1
   5              		.eabi_attribute 21, 1
   6              		.eabi_attribute 23, 3
   7              		.eabi_attribute 24, 1
   8              		.eabi_attribute 25, 1
   9              		.eabi_attribute 26, 1
  10              		.eabi_attribute 30, 6
  11              		.eabi_attribute 34, 1
  12              		.eabi_attribute 18, 4
  13              		.file	"chmemcore.c"
  14              		.section	.text.port_lock,"ax",%progbits
  15              		.align	1
  16              		.syntax unified
  17              		.thumb
  18              		.thumb_func
  19              		.fpu fpv4-sp-d16
  20              		.type	port_lock, %function
  21              	port_lock:
  22              		@ args = 0, pretend = 0, frame = 8
  23              		@ frame_needed = 1, uses_anonymous_args = 0
  24              		@ link register save eliminated.
  25 0000 80B4     		push	{r7}
  26 0002 83B0     		sub	sp, sp, #12
  27 0004 00AF     		add	r7, sp, #0
  28 0006 2023     		movs	r3, #32
  29 0008 7B60     		str	r3, [r7, #4]
  30 000a 7B68     		ldr	r3, [r7, #4]
  31              		.syntax unified
  32              	@ 546 "../e-puck2_main-processor/ChibiOS//os/ext/CMSIS/include/core_cmFunc.h" 1
  33 000c 83F31188 		MSR basepri, r3
  34              	@ 0 "" 2
  35              		.thumb
  36              		.syntax unified
  37 0010 00BF     		nop
  38 0012 0C37     		adds	r7, r7, #12
  39 0014 BD46     		mov	sp, r7
  40              		@ sp needed
  41 0016 5DF8047B 		ldr	r7, [sp], #4
  42 001a 7047     		bx	lr
  43              		.size	port_lock, .-port_lock
  44              		.section	.text.port_unlock,"ax",%progbits
  45              		.align	1
  46              		.syntax unified
  47              		.thumb
  48              		.thumb_func
  49              		.fpu fpv4-sp-d16
  50              		.type	port_unlock, %function
  51              	port_unlock:
  52              		@ args = 0, pretend = 0, frame = 8
  53              		@ frame_needed = 1, uses_anonymous_args = 0
  54              		@ link register save eliminated.
  55 0000 80B4     		push	{r7}
  56 0002 83B0     		sub	sp, sp, #12
  57 0004 00AF     		add	r7, sp, #0
ARM GAS  /var/folders/d2/nstgp4h54kz7g1l847x_b8wc0000gn/T//cc54yhAR.s 			page 2


  58 0006 0023     		movs	r3, #0
  59 0008 7B60     		str	r3, [r7, #4]
  60 000a 7B68     		ldr	r3, [r7, #4]
  61              		.syntax unified
  62              	@ 546 "../e-puck2_main-processor/ChibiOS//os/ext/CMSIS/include/core_cmFunc.h" 1
  63 000c 83F31188 		MSR basepri, r3
  64              	@ 0 "" 2
  65              		.thumb
  66              		.syntax unified
  67 0010 00BF     		nop
  68 0012 0C37     		adds	r7, r7, #12
  69 0014 BD46     		mov	sp, r7
  70              		@ sp needed
  71 0016 5DF8047B 		ldr	r7, [sp], #4
  72 001a 7047     		bx	lr
  73              		.size	port_unlock, .-port_unlock
  74              		.section	.text.chSysLock,"ax",%progbits
  75              		.align	1
  76              		.syntax unified
  77              		.thumb
  78              		.thumb_func
  79              		.fpu fpv4-sp-d16
  80              		.type	chSysLock, %function
  81              	chSysLock:
  82              		@ args = 0, pretend = 0, frame = 0
  83              		@ frame_needed = 1, uses_anonymous_args = 0
  84 0000 80B5     		push	{r7, lr}
  85 0002 00AF     		add	r7, sp, #0
  86 0004 FFF7FEFF 		bl	port_lock
  87 0008 FFF7FEFF 		bl	_stats_start_measure_crit_thd
  88 000c FFF7FEFF 		bl	_dbg_check_lock
  89 0010 00BF     		nop
  90 0012 80BD     		pop	{r7, pc}
  91              		.size	chSysLock, .-chSysLock
  92              		.section	.text.chSysUnlock,"ax",%progbits
  93              		.align	1
  94              		.syntax unified
  95              		.thumb
  96              		.thumb_func
  97              		.fpu fpv4-sp-d16
  98              		.type	chSysUnlock, %function
  99              	chSysUnlock:
 100              		@ args = 0, pretend = 0, frame = 0
 101              		@ frame_needed = 1, uses_anonymous_args = 0
 102 0000 80B5     		push	{r7, lr}
 103 0002 00AF     		add	r7, sp, #0
 104 0004 FFF7FEFF 		bl	_dbg_check_unlock
 105 0008 FFF7FEFF 		bl	_stats_stop_measure_crit_thd
 106 000c 094B     		ldr	r3, .L6
 107 000e 1B68     		ldr	r3, [r3]
 108 0010 084A     		ldr	r2, .L6
 109 0012 9342     		cmp	r3, r2
 110 0014 0AD0     		beq	.L5
 111 0016 074B     		ldr	r3, .L6
 112 0018 9B69     		ldr	r3, [r3, #24]
 113 001a 9A68     		ldr	r2, [r3, #8]
 114 001c 054B     		ldr	r3, .L6
ARM GAS  /var/folders/d2/nstgp4h54kz7g1l847x_b8wc0000gn/T//cc54yhAR.s 			page 3


 115 001e 1B68     		ldr	r3, [r3]
 116 0020 9B68     		ldr	r3, [r3, #8]
 117 0022 9A42     		cmp	r2, r3
 118 0024 02D2     		bcs	.L5
 119 0026 0448     		ldr	r0, .L6+4
 120 0028 FFF7FEFF 		bl	chSysHalt
 121              	.L5:
 122 002c FFF7FEFF 		bl	port_unlock
 123 0030 00BF     		nop
 124 0032 80BD     		pop	{r7, pc}
 125              	.L7:
 126              		.align	2
 127              	.L6:
 128 0034 00000000 		.word	ch
 129 0038 00000000 		.word	__func__.7153
 130              		.size	chSysUnlock, .-chSysUnlock
 131              		.section	.bss.nextmem,"aw",%nobits
 132              		.align	2
 133              		.type	nextmem, %object
 134              		.size	nextmem, 4
 135              	nextmem:
 136 0000 00000000 		.space	4
 137              		.section	.bss.endmem,"aw",%nobits
 138              		.align	2
 139              		.type	endmem, %object
 140              		.size	endmem, 4
 141              	endmem:
 142 0000 00000000 		.space	4
 143              		.section	.text._core_init,"ax",%progbits
 144              		.align	1
 145              		.global	_core_init
 146              		.syntax unified
 147              		.thumb
 148              		.thumb_func
 149              		.fpu fpv4-sp-d16
 150              		.type	_core_init, %function
 151              	_core_init:
 152              		@ args = 0, pretend = 0, frame = 0
 153              		@ frame_needed = 1, uses_anonymous_args = 0
 154              		@ link register save eliminated.
 155 0000 80B4     		push	{r7}
 156 0002 00AF     		add	r7, sp, #0
 157 0004 084B     		ldr	r3, .L9
 158 0006 0733     		adds	r3, r3, #7
 159 0008 23F00703 		bic	r3, r3, #7
 160 000c 1A46     		mov	r2, r3
 161 000e 074B     		ldr	r3, .L9+4
 162 0010 1A60     		str	r2, [r3]
 163 0012 074B     		ldr	r3, .L9+8
 164 0014 23F00703 		bic	r3, r3, #7
 165 0018 1A46     		mov	r2, r3
 166 001a 064B     		ldr	r3, .L9+12
 167 001c 1A60     		str	r2, [r3]
 168 001e 00BF     		nop
 169 0020 BD46     		mov	sp, r7
 170              		@ sp needed
 171 0022 5DF8047B 		ldr	r7, [sp], #4
ARM GAS  /var/folders/d2/nstgp4h54kz7g1l847x_b8wc0000gn/T//cc54yhAR.s 			page 4


 172 0026 7047     		bx	lr
 173              	.L10:
 174              		.align	2
 175              	.L9:
 176 0028 00000000 		.word	__heap_base__
 177 002c 00000000 		.word	nextmem
 178 0030 00000000 		.word	__heap_end__
 179 0034 00000000 		.word	endmem
 180              		.size	_core_init, .-_core_init
 181              		.section	.text.chCoreAlloc,"ax",%progbits
 182              		.align	1
 183              		.global	chCoreAlloc
 184              		.syntax unified
 185              		.thumb
 186              		.thumb_func
 187              		.fpu fpv4-sp-d16
 188              		.type	chCoreAlloc, %function
 189              	chCoreAlloc:
 190              		@ args = 0, pretend = 0, frame = 16
 191              		@ frame_needed = 1, uses_anonymous_args = 0
 192 0000 80B5     		push	{r7, lr}
 193 0002 84B0     		sub	sp, sp, #16
 194 0004 00AF     		add	r7, sp, #0
 195 0006 7860     		str	r0, [r7, #4]
 196 0008 FFF7FEFF 		bl	chSysLock
 197 000c 7868     		ldr	r0, [r7, #4]
 198 000e FFF7FEFF 		bl	chCoreAllocI
 199 0012 F860     		str	r0, [r7, #12]
 200 0014 FFF7FEFF 		bl	chSysUnlock
 201 0018 FB68     		ldr	r3, [r7, #12]
 202 001a 1846     		mov	r0, r3
 203 001c 1037     		adds	r7, r7, #16
 204 001e BD46     		mov	sp, r7
 205              		@ sp needed
 206 0020 80BD     		pop	{r7, pc}
 207              		.size	chCoreAlloc, .-chCoreAlloc
 208              		.section	.text.chCoreAllocI,"ax",%progbits
 209              		.align	1
 210              		.global	chCoreAllocI
 211              		.syntax unified
 212              		.thumb
 213              		.thumb_func
 214              		.fpu fpv4-sp-d16
 215              		.type	chCoreAllocI, %function
 216              	chCoreAllocI:
 217              		@ args = 0, pretend = 0, frame = 16
 218              		@ frame_needed = 1, uses_anonymous_args = 0
 219 0000 80B5     		push	{r7, lr}
 220 0002 84B0     		sub	sp, sp, #16
 221 0004 00AF     		add	r7, sp, #0
 222 0006 7860     		str	r0, [r7, #4]
 223 0008 FFF7FEFF 		bl	chDbgCheckClassI
 224 000c 7B68     		ldr	r3, [r7, #4]
 225 000e 0733     		adds	r3, r3, #7
 226 0010 23F00703 		bic	r3, r3, #7
 227 0014 7B60     		str	r3, [r7, #4]
 228 0016 0D4B     		ldr	r3, .L16
ARM GAS  /var/folders/d2/nstgp4h54kz7g1l847x_b8wc0000gn/T//cc54yhAR.s 			page 5


 229 0018 1B68     		ldr	r3, [r3]
 230 001a 1A46     		mov	r2, r3
 231 001c 0C4B     		ldr	r3, .L16+4
 232 001e 1B68     		ldr	r3, [r3]
 233 0020 D31A     		subs	r3, r2, r3
 234 0022 1A46     		mov	r2, r3
 235 0024 7B68     		ldr	r3, [r7, #4]
 236 0026 9342     		cmp	r3, r2
 237 0028 01D9     		bls	.L14
 238 002a 0023     		movs	r3, #0
 239 002c 09E0     		b	.L15
 240              	.L14:
 241 002e 084B     		ldr	r3, .L16+4
 242 0030 1B68     		ldr	r3, [r3]
 243 0032 FB60     		str	r3, [r7, #12]
 244 0034 064B     		ldr	r3, .L16+4
 245 0036 1A68     		ldr	r2, [r3]
 246 0038 7B68     		ldr	r3, [r7, #4]
 247 003a 1344     		add	r3, r3, r2
 248 003c 044A     		ldr	r2, .L16+4
 249 003e 1360     		str	r3, [r2]
 250 0040 FB68     		ldr	r3, [r7, #12]
 251              	.L15:
 252 0042 1846     		mov	r0, r3
 253 0044 1037     		adds	r7, r7, #16
 254 0046 BD46     		mov	sp, r7
 255              		@ sp needed
 256 0048 80BD     		pop	{r7, pc}
 257              	.L17:
 258 004a 00BF     		.align	2
 259              	.L16:
 260 004c 00000000 		.word	endmem
 261 0050 00000000 		.word	nextmem
 262              		.size	chCoreAllocI, .-chCoreAllocI
 263              		.section	.text.chCoreGetStatusX,"ax",%progbits
 264              		.align	1
 265              		.global	chCoreGetStatusX
 266              		.syntax unified
 267              		.thumb
 268              		.thumb_func
 269              		.fpu fpv4-sp-d16
 270              		.type	chCoreGetStatusX, %function
 271              	chCoreGetStatusX:
 272              		@ args = 0, pretend = 0, frame = 0
 273              		@ frame_needed = 1, uses_anonymous_args = 0
 274              		@ link register save eliminated.
 275 0000 80B4     		push	{r7}
 276 0002 00AF     		add	r7, sp, #0
 277 0004 054B     		ldr	r3, .L20
 278 0006 1B68     		ldr	r3, [r3]
 279 0008 1A46     		mov	r2, r3
 280 000a 054B     		ldr	r3, .L20+4
 281 000c 1B68     		ldr	r3, [r3]
 282 000e D31A     		subs	r3, r2, r3
 283 0010 1846     		mov	r0, r3
 284 0012 BD46     		mov	sp, r7
 285              		@ sp needed
ARM GAS  /var/folders/d2/nstgp4h54kz7g1l847x_b8wc0000gn/T//cc54yhAR.s 			page 6


 286 0014 5DF8047B 		ldr	r7, [sp], #4
 287 0018 7047     		bx	lr
 288              	.L21:
 289 001a 00BF     		.align	2
 290              	.L20:
 291 001c 00000000 		.word	endmem
 292 0020 00000000 		.word	nextmem
 293              		.size	chCoreGetStatusX, .-chCoreGetStatusX
 294              		.section	.rodata.__func__.7153,"a",%progbits
 295              		.align	2
 296              		.type	__func__.7153, %object
 297              		.size	__func__.7153, 12
 298              	__func__.7153:
 299 0000 63685379 		.ascii	"chSysUnlock\000"
 299      73556E6C 
 299      6F636B00 
 300              		.ident	"GCC: (GNU Tools for Arm Embedded Processors 7-2017-q4-major) 7.2.1 20170904 (release) [ARM
ARM GAS  /var/folders/d2/nstgp4h54kz7g1l847x_b8wc0000gn/T//cc54yhAR.s 			page 7

