ARM GAS  /var/folders/d2/nstgp4h54kz7g1l847x_b8wc0000gn/T//ccFz8f4B.s 			page 1


   1              		.cpu cortex-m4
   2              		.eabi_attribute 27, 1
   3              		.eabi_attribute 28, 1
   4              		.eabi_attribute 20, 1
   5              		.eabi_attribute 21, 1
   6              		.eabi_attribute 23, 3
   7              		.eabi_attribute 24, 1
   8              		.eabi_attribute 25, 1
   9              		.eabi_attribute 26, 1
  10              		.eabi_attribute 30, 2
  11              		.eabi_attribute 34, 1
  12              		.eabi_attribute 18, 4
  13              		.file	"chmemcore.c"
  14              		.text
  15              	.Ltext0:
  16              		.cfi_sections	.debug_frame
  17              		.section	.text._core_init,"ax",%progbits
  18              		.align	1
  19              		.p2align 4,,15
  20              		.global	_core_init
  21              		.syntax unified
  22              		.thumb
  23              		.thumb_func
  24              		.fpu fpv4-sp-d16
  25              		.type	_core_init, %function
  26              	_core_init:
  27              	.LFB219:
  28              		.file 1 "../e-puck2_main-processor/ChibiOS//os/rt/src/chmemcore.c"
  29              		.loc 1 78 0
  30              		.cfi_startproc
  31              		@ args = 0, pretend = 0, frame = 8
  32              		@ frame_needed = 0, uses_anonymous_args = 0
  33 0000 30B5     		push	{r4, r5, lr}
  34              		.cfi_def_cfa_offset 12
  35              		.cfi_offset 4, -12
  36              		.cfi_offset 5, -8
  37              		.cfi_offset 14, -4
  38 0002 0B49     		ldr	r1, .L6
  39              		.loc 1 84 0
  40 0004 0B4A     		ldr	r2, .L6+4
  41              		.loc 1 78 0
  42 0006 0B68     		ldr	r3, [r1]
  43              		.loc 1 84 0
  44 0008 0B4D     		ldr	r5, .L6+8
  45              		.loc 1 85 0
  46 000a 0C4C     		ldr	r4, .L6+12
  47              		.loc 1 78 0
  48 000c 83B0     		sub	sp, sp, #12
  49              		.cfi_def_cfa_offset 24
  50              		.loc 1 84 0
  51 000e 22F00702 		bic	r2, r2, #7
  52              		.loc 1 78 0
  53 0012 0193     		str	r3, [sp, #4]
  54              		.loc 1 95 0
  55 0014 0198     		ldr	r0, [sp, #4]
  56              		.loc 1 85 0
  57 0016 0A4B     		ldr	r3, .L6+16
ARM GAS  /var/folders/d2/nstgp4h54kz7g1l847x_b8wc0000gn/T//ccFz8f4B.s 			page 2


  58              		.loc 1 95 0
  59 0018 0968     		ldr	r1, [r1]
  60              		.loc 1 84 0
  61 001a 2A60     		str	r2, [r5]
  62              		.loc 1 85 0
  63 001c 23F00703 		bic	r3, r3, #7
  64              		.loc 1 95 0
  65 0020 8842     		cmp	r0, r1
  66              		.loc 1 85 0
  67 0022 2360     		str	r3, [r4]
  68              		.loc 1 95 0
  69 0024 01D1     		bne	.L5
  70 0026 03B0     		add	sp, sp, #12
  71              		.cfi_remember_state
  72              		.cfi_def_cfa_offset 12
  73              		@ sp needed
  74 0028 30BD     		pop	{r4, r5, pc}
  75              	.L5:
  76              		.cfi_restore_state
  77 002a FFF7FEFF 		bl	__stack_chk_fail
  78              	.LVL0:
  79              	.L7:
  80 002e 00BF     		.align	2
  81              	.L6:
  82 0030 00000000 		.word	__stack_chk_guard
  83 0034 07000000 		.word	__heap_base__+7
  84 0038 00000000 		.word	.LANCHOR0
  85 003c 00000000 		.word	.LANCHOR1
  86 0040 00000000 		.word	__heap_end__
  87              		.cfi_endproc
  88              	.LFE219:
  89              		.size	_core_init, .-_core_init
  90              		.section	.text.chCoreAlloc,"ax",%progbits
  91              		.align	1
  92              		.p2align 4,,15
  93              		.global	chCoreAlloc
  94              		.syntax unified
  95              		.thumb
  96              		.thumb_func
  97              		.fpu fpv4-sp-d16
  98              		.type	chCoreAlloc, %function
  99              	chCoreAlloc:
 100              	.LFB220:
 101              		.loc 1 109 0
 102              		.cfi_startproc
 103              		@ args = 0, pretend = 0, frame = 8
 104              		@ frame_needed = 0, uses_anonymous_args = 0
 105              	.LVL1:
 106 0000 70B5     		push	{r4, r5, r6, lr}
 107              		.cfi_def_cfa_offset 16
 108              		.cfi_offset 4, -16
 109              		.cfi_offset 5, -12
 110              		.cfi_offset 6, -8
 111              		.cfi_offset 14, -4
 112 0002 1C4E     		ldr	r6, .L16
 113 0004 82B0     		sub	sp, sp, #8
 114              		.cfi_def_cfa_offset 24
ARM GAS  /var/folders/d2/nstgp4h54kz7g1l847x_b8wc0000gn/T//ccFz8f4B.s 			page 3


 115              		.loc 1 109 0
 116 0006 3368     		ldr	r3, [r6]
 117 0008 0193     		str	r3, [sp, #4]
 118              	.LVL2:
 119 000a 0446     		mov	r4, r0
 120              	.LBB33:
 121              	.LBB34:
 122              	.LBB35:
 123              	.LBB36:
 124              	.LBB37:
 125              		.file 2 "../e-puck2_main-processor/ChibiOS//os/ext/CMSIS/include/core_cmFunc.h"
 126              		.loc 2 546 0
 127 000c 2023     		movs	r3, #32
 128              		.syntax unified
 129              	@ 546 "../e-puck2_main-processor/ChibiOS//os/ext/CMSIS/include/core_cmFunc.h" 1
 130 000e 83F31188 		MSR basepri, r3
 131              	@ 0 "" 2
 132              	.LVL3:
 133              		.thumb
 134              		.syntax unified
 135              	.LBE37:
 136              	.LBE36:
 137              	.LBE35:
 138              		.file 3 "../e-puck2_main-processor/ChibiOS//os/rt/include/chsys.h"
 139              		.loc 3 349 0
 140 0012 FFF7FEFF 		bl	_stats_start_measure_crit_thd
 141              	.LVL4:
 142              		.loc 3 350 0
 143 0016 FFF7FEFF 		bl	_dbg_check_lock
 144              	.LVL5:
 145              	.LBE34:
 146              	.LBE33:
 147              	.LBB38:
 148              	.LBB39:
 149              		.loc 1 134 0
 150 001a FFF7FEFF 		bl	chDbgCheckClassI
 151              	.LVL6:
 152              		.loc 1 138 0
 153 001e 164A     		ldr	r2, .L16+4
 154 0020 164B     		ldr	r3, .L16+8
 155 0022 1568     		ldr	r5, [r2]
 156 0024 1B68     		ldr	r3, [r3]
 157              		.loc 1 136 0
 158 0026 E01D     		adds	r0, r4, #7
 159 0028 20F00700 		bic	r0, r0, #7
 160              	.LVL7:
 161              		.loc 1 138 0
 162 002c 5B1B     		subs	r3, r3, r5
 163 002e 9842     		cmp	r0, r3
 164              	.LVL8:
 165              		.loc 1 143 0
 166 0030 9ABF     		itte	ls
 167 0032 4019     		addls	r0, r0, r5
 168              	.LVL9:
 169 0034 1060     		strls	r0, [r2]
 170              		.loc 1 140 0
 171 0036 0025     		movhi	r5, #0
ARM GAS  /var/folders/d2/nstgp4h54kz7g1l847x_b8wc0000gn/T//ccFz8f4B.s 			page 4


 172              	.LVL10:
 173              	.LBE39:
 174              	.LBE38:
 175              	.LBB40:
 176              	.LBB41:
 177              		.loc 3 360 0
 178 0038 FFF7FEFF 		bl	_dbg_check_unlock
 179              	.LVL11:
 180              		.loc 3 361 0
 181 003c FFF7FEFF 		bl	_stats_stop_measure_crit_thd
 182              	.LVL12:
 183              		.loc 3 367 0
 184 0040 0F4B     		ldr	r3, .L16+12
 185 0042 1A68     		ldr	r2, [r3]
 186 0044 9A42     		cmp	r2, r3
 187 0046 04D0     		beq	.L10
 188 0048 9969     		ldr	r1, [r3, #24]
 189 004a 9368     		ldr	r3, [r2, #8]
 190 004c 8A68     		ldr	r2, [r1, #8]
 191 004e 9A42     		cmp	r2, r3
 192 0050 09D3     		bcc	.L14
 193              	.L10:
 194              	.LVL13:
 195              	.LBB42:
 196              	.LBB43:
 197              	.LBB44:
 198              		.loc 2 546 0
 199 0052 0023     		movs	r3, #0
 200              		.syntax unified
 201              	@ 546 "../e-puck2_main-processor/ChibiOS//os/ext/CMSIS/include/core_cmFunc.h" 1
 202 0054 83F31188 		MSR basepri, r3
 203              	@ 0 "" 2
 204              	.LVL14:
 205              		.thumb
 206              		.syntax unified
 207              	.LBE44:
 208              	.LBE43:
 209              	.LBE42:
 210              	.LBE41:
 211              	.LBE40:
 212              		.loc 1 117 0
 213 0058 019A     		ldr	r2, [sp, #4]
 214 005a 3368     		ldr	r3, [r6]
 215 005c 9A42     		cmp	r2, r3
 216 005e 2846     		mov	r0, r5
 217 0060 05D1     		bne	.L15
 218 0062 02B0     		add	sp, sp, #8
 219              		.cfi_remember_state
 220              		.cfi_def_cfa_offset 16
 221              		@ sp needed
 222 0064 70BD     		pop	{r4, r5, r6, pc}
 223              	.LVL15:
 224              	.L14:
 225              		.cfi_restore_state
 226              	.LBB46:
 227              	.LBB45:
 228              		.loc 3 367 0
ARM GAS  /var/folders/d2/nstgp4h54kz7g1l847x_b8wc0000gn/T//ccFz8f4B.s 			page 5


 229 0066 0748     		ldr	r0, .L16+16
 230 0068 FFF7FEFF 		bl	chSysHalt
 231              	.LVL16:
 232 006c F1E7     		b	.L10
 233              	.L15:
 234              	.LBE45:
 235              	.LBE46:
 236              		.loc 1 117 0
 237 006e FFF7FEFF 		bl	__stack_chk_fail
 238              	.LVL17:
 239              	.L17:
 240 0072 00BF     		.align	2
 241              	.L16:
 242 0074 00000000 		.word	__stack_chk_guard
 243 0078 00000000 		.word	.LANCHOR0
 244 007c 00000000 		.word	.LANCHOR1
 245 0080 00000000 		.word	ch
 246 0084 00000000 		.word	.LANCHOR2
 247              		.cfi_endproc
 248              	.LFE220:
 249              		.size	chCoreAlloc, .-chCoreAlloc
 250              		.section	.text.chCoreAllocI,"ax",%progbits
 251              		.align	1
 252              		.p2align 4,,15
 253              		.global	chCoreAllocI
 254              		.syntax unified
 255              		.thumb
 256              		.thumb_func
 257              		.fpu fpv4-sp-d16
 258              		.type	chCoreAllocI, %function
 259              	chCoreAllocI:
 260              	.LFB221:
 261              		.loc 1 131 0
 262              		.cfi_startproc
 263              		@ args = 0, pretend = 0, frame = 8
 264              		@ frame_needed = 0, uses_anonymous_args = 0
 265              	.LVL18:
 266 0000 30B5     		push	{r4, r5, lr}
 267              		.cfi_def_cfa_offset 12
 268              		.cfi_offset 4, -12
 269              		.cfi_offset 5, -8
 270              		.cfi_offset 14, -4
 271 0002 0E4D     		ldr	r5, .L24
 272 0004 83B0     		sub	sp, sp, #12
 273              		.cfi_def_cfa_offset 24
 274              		.loc 1 131 0
 275 0006 2B68     		ldr	r3, [r5]
 276 0008 0193     		str	r3, [sp, #4]
 277 000a 0446     		mov	r4, r0
 278              		.loc 1 134 0
 279 000c FFF7FEFF 		bl	chDbgCheckClassI
 280              	.LVL19:
 281              		.loc 1 138 0
 282 0010 0B49     		ldr	r1, .L24+4
 283 0012 0C4B     		ldr	r3, .L24+8
 284 0014 0868     		ldr	r0, [r1]
 285 0016 1A68     		ldr	r2, [r3]
ARM GAS  /var/folders/d2/nstgp4h54kz7g1l847x_b8wc0000gn/T//ccFz8f4B.s 			page 6


 286              		.loc 1 136 0
 287 0018 E31D     		adds	r3, r4, #7
 288 001a 23F00703 		bic	r3, r3, #7
 289              	.LVL20:
 290              		.loc 1 138 0
 291 001e 121A     		subs	r2, r2, r0
 292 0020 9A42     		cmp	r2, r3
 293              	.LVL21:
 294              		.loc 1 143 0
 295 0022 24BF     		itt	cs
 296 0024 1B18     		addcs	r3, r3, r0
 297              	.LVL22:
 298 0026 0B60     		strcs	r3, [r1]
 299              		.loc 1 146 0
 300 0028 019A     		ldr	r2, [sp, #4]
 301 002a 2B68     		ldr	r3, [r5]
 302              		.loc 1 140 0
 303 002c 38BF     		it	cc
 304 002e 0020     		movcc	r0, #0
 305              	.LVL23:
 306              		.loc 1 146 0
 307 0030 9A42     		cmp	r2, r3
 308 0032 01D1     		bne	.L23
 309 0034 03B0     		add	sp, sp, #12
 310              		.cfi_remember_state
 311              		.cfi_def_cfa_offset 12
 312              		@ sp needed
 313 0036 30BD     		pop	{r4, r5, pc}
 314              	.LVL24:
 315              	.L23:
 316              		.cfi_restore_state
 317 0038 FFF7FEFF 		bl	__stack_chk_fail
 318              	.LVL25:
 319              	.L25:
 320              		.align	2
 321              	.L24:
 322 003c 00000000 		.word	__stack_chk_guard
 323 0040 00000000 		.word	.LANCHOR0
 324 0044 00000000 		.word	.LANCHOR1
 325              		.cfi_endproc
 326              	.LFE221:
 327              		.size	chCoreAllocI, .-chCoreAllocI
 328              		.section	.text.chCoreGetStatusX,"ax",%progbits
 329              		.align	1
 330              		.p2align 4,,15
 331              		.global	chCoreGetStatusX
 332              		.syntax unified
 333              		.thumb
 334              		.thumb_func
 335              		.fpu fpv4-sp-d16
 336              		.type	chCoreGetStatusX, %function
 337              	chCoreGetStatusX:
 338              	.LFB222:
 339              		.loc 1 155 0
 340              		.cfi_startproc
 341              		@ args = 0, pretend = 0, frame = 8
 342              		@ frame_needed = 0, uses_anonymous_args = 0
ARM GAS  /var/folders/d2/nstgp4h54kz7g1l847x_b8wc0000gn/T//ccFz8f4B.s 			page 7


 343 0000 00B5     		push	{lr}
 344              		.cfi_def_cfa_offset 4
 345              		.cfi_offset 14, -4
 346 0002 094B     		ldr	r3, .L30
 347              		.loc 1 158 0
 348 0004 0948     		ldr	r0, .L30+4
 349              		.loc 1 155 0
 350 0006 1A68     		ldr	r2, [r3]
 351              		.loc 1 158 0
 352 0008 0949     		ldr	r1, .L30+8
 353 000a 0068     		ldr	r0, [r0]
 354 000c 0968     		ldr	r1, [r1]
 355              		.loc 1 155 0
 356 000e 83B0     		sub	sp, sp, #12
 357              		.cfi_def_cfa_offset 16
 358              		.loc 1 160 0
 359 0010 401A     		subs	r0, r0, r1
 360              		.loc 1 155 0
 361 0012 0192     		str	r2, [sp, #4]
 362              		.loc 1 160 0
 363 0014 019A     		ldr	r2, [sp, #4]
 364 0016 1B68     		ldr	r3, [r3]
 365 0018 9A42     		cmp	r2, r3
 366 001a 02D1     		bne	.L29
 367 001c 03B0     		add	sp, sp, #12
 368              		.cfi_remember_state
 369              		.cfi_def_cfa_offset 4
 370              		@ sp needed
 371 001e 5DF804FB 		ldr	pc, [sp], #4
 372              	.L29:
 373              		.cfi_restore_state
 374 0022 FFF7FEFF 		bl	__stack_chk_fail
 375              	.LVL26:
 376              	.L31:
 377 0026 00BF     		.align	2
 378              	.L30:
 379 0028 00000000 		.word	__stack_chk_guard
 380 002c 00000000 		.word	.LANCHOR1
 381 0030 00000000 		.word	.LANCHOR0
 382              		.cfi_endproc
 383              	.LFE222:
 384              		.size	chCoreGetStatusX, .-chCoreGetStatusX
 385              		.section	.bss.endmem,"aw",%nobits
 386              		.align	2
 387              		.set	.LANCHOR1,. + 0
 388              		.type	endmem, %object
 389              		.size	endmem, 4
 390              	endmem:
 391 0000 00000000 		.space	4
 392              		.section	.bss.nextmem,"aw",%nobits
 393              		.align	2
 394              		.set	.LANCHOR0,. + 0
 395              		.type	nextmem, %object
 396              		.size	nextmem, 4
 397              	nextmem:
 398 0000 00000000 		.space	4
 399              		.section	.rodata.__func__.7153,"a",%progbits
ARM GAS  /var/folders/d2/nstgp4h54kz7g1l847x_b8wc0000gn/T//ccFz8f4B.s 			page 8


 400              		.align	2
 401              		.set	.LANCHOR2,. + 0
 402              		.type	__func__.7153, %object
 403              		.size	__func__.7153, 12
 404              	__func__.7153:
 405 0000 63685379 		.ascii	"chSysUnlock\000"
 405      73556E6C 
 405      6F636B00 
 406              		.text
 407              	.Letext0:
 408              		.file 4 "/Applications/Eclipse_e-puck2.app/Contents/Eclipse_e-puck2/Tools/gcc-arm-none-eabi-7-2017
 409              		.file 5 "/Applications/Eclipse_e-puck2.app/Contents/Eclipse_e-puck2/Tools/gcc-arm-none-eabi-7-2017
 410              		.file 6 "/Applications/Eclipse_e-puck2.app/Contents/Eclipse_e-puck2/Tools/gcc-arm-none-eabi-7-2017
 411              		.file 7 "../e-puck2_main-processor/ChibiOS//os/rt/ports/ARMCMx/compilers/GCC/chtypes.h"
 412              		.file 8 "../e-puck2_main-processor/ChibiOS//os/rt/include/chsystypes.h"
 413              		.file 9 "../e-puck2_main-processor/ChibiOS//os/rt/include/chschd.h"
 414              		.file 10 "../e-puck2_main-processor/ChibiOS//os/ext/CMSIS/include/core_cm4.h"
 415              		.file 11 "../e-puck2_main-processor/ChibiOS//os/ext/CMSIS/ST/system_stm32f4xx.h"
 416              		.file 12 "../e-puck2_main-processor/ChibiOS//os/rt/ports/ARMCMx/chcore.h"
 417              		.file 13 "../e-puck2_main-processor/ChibiOS//os/rt/ports/ARMCMx/chcore_v7m.h"
 418              		.file 14 "../e-puck2_main-processor/ChibiOS//os/rt/include/chdebug.h"
 419              		.file 15 "../e-puck2_main-processor/ChibiOS//os/rt/include/chtm.h"
 420              		.file 16 "../e-puck2_main-processor/ChibiOS//os/rt/include/chstats.h"
 421              		.file 17 "../e-puck2_main-processor/ChibiOS//os/rt/include/chsem.h"
 422              		.file 18 "../e-puck2_main-processor/ChibiOS//os/rt/include/chmtx.h"
 423              		.file 19 "../e-puck2_main-processor/ChibiOS//os/rt/include/chregistry.h"
 424              		.section	.debug_info,"",%progbits
 425              	.Ldebug_info0:
 426 0000 C90C0000 		.4byte	0xcc9
 427 0004 0400     		.2byte	0x4
 428 0006 00000000 		.4byte	.Ldebug_abbrev0
 429 000a 04       		.byte	0x4
 430 000b 01       		.uleb128 0x1
 431 000c 31030000 		.4byte	.LASF177
 432 0010 0C       		.byte	0xc
 433 0011 66020000 		.4byte	.LASF178
 434 0015 07000000 		.4byte	.LASF179
 435 0019 18000000 		.4byte	.Ldebug_ranges0+0x18
 436 001d 00000000 		.4byte	0
 437 0021 00000000 		.4byte	.Ldebug_line0
 438 0025 02       		.uleb128 0x2
 439 0026 04       		.byte	0x4
 440 0027 05       		.byte	0x5
 441 0028 696E7400 		.ascii	"int\000"
 442 002c 03       		.uleb128 0x3
 443 002d 75000000 		.4byte	.LASF4
 444 0031 04       		.byte	0x4
 445 0032 D8       		.byte	0xd8
 446 0033 37000000 		.4byte	0x37
 447 0037 04       		.uleb128 0x4
 448 0038 04       		.byte	0x4
 449 0039 07       		.byte	0x7
 450 003a 24030000 		.4byte	.LASF0
 451 003e 04       		.uleb128 0x4
 452 003f 08       		.byte	0x8
 453 0040 05       		.byte	0x5
 454 0041 C0010000 		.4byte	.LASF1
ARM GAS  /var/folders/d2/nstgp4h54kz7g1l847x_b8wc0000gn/T//ccFz8f4B.s 			page 9


 455 0045 04       		.uleb128 0x4
 456 0046 08       		.byte	0x8
 457 0047 04       		.byte	0x4
 458 0048 EC050000 		.4byte	.LASF2
 459 004c 04       		.uleb128 0x4
 460 004d 01       		.byte	0x1
 461 004e 06       		.byte	0x6
 462 004f CE010000 		.4byte	.LASF3
 463 0053 03       		.uleb128 0x3
 464 0054 A5000000 		.4byte	.LASF5
 465 0058 05       		.byte	0x5
 466 0059 2B       		.byte	0x2b
 467 005a 5E000000 		.4byte	0x5e
 468 005e 04       		.uleb128 0x4
 469 005f 01       		.byte	0x1
 470 0060 08       		.byte	0x8
 471 0061 C0060000 		.4byte	.LASF6
 472 0065 04       		.uleb128 0x4
 473 0066 02       		.byte	0x2
 474 0067 05       		.byte	0x5
 475 0068 E3060000 		.4byte	.LASF7
 476 006c 03       		.uleb128 0x3
 477 006d 05080000 		.4byte	.LASF8
 478 0071 05       		.byte	0x5
 479 0072 39       		.byte	0x39
 480 0073 77000000 		.4byte	0x77
 481 0077 04       		.uleb128 0x4
 482 0078 02       		.byte	0x2
 483 0079 07       		.byte	0x7
 484 007a D2040000 		.4byte	.LASF9
 485 007e 03       		.uleb128 0x3
 486 007f 5E050000 		.4byte	.LASF10
 487 0083 05       		.byte	0x5
 488 0084 4D       		.byte	0x4d
 489 0085 89000000 		.4byte	0x89
 490 0089 04       		.uleb128 0x4
 491 008a 04       		.byte	0x4
 492 008b 05       		.byte	0x5
 493 008c 34020000 		.4byte	.LASF11
 494 0090 03       		.uleb128 0x3
 495 0091 4B080000 		.4byte	.LASF12
 496 0095 05       		.byte	0x5
 497 0096 4F       		.byte	0x4f
 498 0097 9B000000 		.4byte	0x9b
 499 009b 04       		.uleb128 0x4
 500 009c 04       		.byte	0x4
 501 009d 07       		.byte	0x7
 502 009e E7070000 		.4byte	.LASF13
 503 00a2 03       		.uleb128 0x3
 504 00a3 5D060000 		.4byte	.LASF14
 505 00a7 05       		.byte	0x5
 506 00a8 69       		.byte	0x69
 507 00a9 AD000000 		.4byte	0xad
 508 00ad 04       		.uleb128 0x4
 509 00ae 08       		.byte	0x8
 510 00af 07       		.byte	0x7
 511 00b0 FE000000 		.4byte	.LASF15
ARM GAS  /var/folders/d2/nstgp4h54kz7g1l847x_b8wc0000gn/T//ccFz8f4B.s 			page 10


 512 00b4 03       		.uleb128 0x3
 513 00b5 CA080000 		.4byte	.LASF16
 514 00b9 06       		.byte	0x6
 515 00ba 18       		.byte	0x18
 516 00bb 53000000 		.4byte	0x53
 517 00bf 03       		.uleb128 0x3
 518 00c0 75040000 		.4byte	.LASF17
 519 00c4 06       		.byte	0x6
 520 00c5 24       		.byte	0x24
 521 00c6 6C000000 		.4byte	0x6c
 522 00ca 03       		.uleb128 0x3
 523 00cb B8060000 		.4byte	.LASF18
 524 00cf 06       		.byte	0x6
 525 00d0 2C       		.byte	0x2c
 526 00d1 7E000000 		.4byte	0x7e
 527 00d5 05       		.uleb128 0x5
 528 00d6 CA000000 		.4byte	0xca
 529 00da 03       		.uleb128 0x3
 530 00db B2070000 		.4byte	.LASF19
 531 00df 06       		.byte	0x6
 532 00e0 30       		.byte	0x30
 533 00e1 90000000 		.4byte	0x90
 534 00e5 03       		.uleb128 0x3
 535 00e6 83000000 		.4byte	.LASF20
 536 00ea 06       		.byte	0x6
 537 00eb 3C       		.byte	0x3c
 538 00ec A2000000 		.4byte	0xa2
 539 00f0 03       		.uleb128 0x3
 540 00f1 BD050000 		.4byte	.LASF21
 541 00f5 07       		.byte	0x7
 542 00f6 45       		.byte	0x45
 543 00f7 DA000000 		.4byte	0xda
 544 00fb 03       		.uleb128 0x3
 545 00fc 9B010000 		.4byte	.LASF22
 546 0100 07       		.byte	0x7
 547 0101 46       		.byte	0x46
 548 0102 E5000000 		.4byte	0xe5
 549 0106 03       		.uleb128 0x3
 550 0107 21070000 		.4byte	.LASF23
 551 010b 07       		.byte	0x7
 552 010c 48       		.byte	0x48
 553 010d B4000000 		.4byte	0xb4
 554 0111 03       		.uleb128 0x3
 555 0112 3D020000 		.4byte	.LASF24
 556 0116 07       		.byte	0x7
 557 0117 49       		.byte	0x49
 558 0118 B4000000 		.4byte	0xb4
 559 011c 03       		.uleb128 0x3
 560 011d 73060000 		.4byte	.LASF25
 561 0121 07       		.byte	0x7
 562 0122 4A       		.byte	0x4a
 563 0123 B4000000 		.4byte	0xb4
 564 0127 03       		.uleb128 0x3
 565 0128 1A020000 		.4byte	.LASF26
 566 012c 07       		.byte	0x7
 567 012d 4B       		.byte	0x4b
 568 012e B4000000 		.4byte	0xb4
ARM GAS  /var/folders/d2/nstgp4h54kz7g1l847x_b8wc0000gn/T//ccFz8f4B.s 			page 11


 569 0132 03       		.uleb128 0x3
 570 0133 A7060000 		.4byte	.LASF27
 571 0137 07       		.byte	0x7
 572 0138 4C       		.byte	0x4c
 573 0139 DA000000 		.4byte	0xda
 574 013d 03       		.uleb128 0x3
 575 013e FE040000 		.4byte	.LASF28
 576 0142 07       		.byte	0x7
 577 0143 4D       		.byte	0x4d
 578 0144 CA000000 		.4byte	0xca
 579 0148 03       		.uleb128 0x3
 580 0149 52050000 		.4byte	.LASF29
 581 014d 07       		.byte	0x7
 582 014e 4F       		.byte	0x4f
 583 014f DA000000 		.4byte	0xda
 584 0153 03       		.uleb128 0x3
 585 0154 13030000 		.4byte	.LASF30
 586 0158 07       		.byte	0x7
 587 0159 51       		.byte	0x51
 588 015a CA000000 		.4byte	0xca
 589 015e 03       		.uleb128 0x3
 590 015f 09050000 		.4byte	.LASF31
 591 0163 07       		.byte	0x7
 592 0164 52       		.byte	0x52
 593 0165 DA000000 		.4byte	0xda
 594 0169 03       		.uleb128 0x3
 595 016a 2D080000 		.4byte	.LASF32
 596 016e 08       		.byte	0x8
 597 016f 33       		.byte	0x33
 598 0170 DA000000 		.4byte	0xda
 599 0174 05       		.uleb128 0x5
 600 0175 69010000 		.4byte	0x169
 601 0179 03       		.uleb128 0x3
 602 017a 10080000 		.4byte	.LASF33
 603 017e 08       		.byte	0x8
 604 017f 3F       		.byte	0x3f
 605 0180 84010000 		.4byte	0x184
 606 0184 06       		.uleb128 0x6
 607 0185 F4040000 		.4byte	.LASF57
 608 0189 68       		.byte	0x68
 609 018a 09       		.byte	0x9
 610 018b C2       		.byte	0xc2
 611 018c A2020000 		.4byte	0x2a2
 612 0190 07       		.uleb128 0x7
 613 0191 1A070000 		.4byte	.LASF34
 614 0195 09       		.byte	0x9
 615 0196 C3       		.byte	0xc3
 616 0197 AD020000 		.4byte	0x2ad
 617 019b 00       		.byte	0
 618 019c 07       		.uleb128 0x7
 619 019d A0060000 		.4byte	.LASF35
 620 01a1 09       		.byte	0x9
 621 01a2 C5       		.byte	0xc5
 622 01a3 AD020000 		.4byte	0x2ad
 623 01a7 04       		.byte	0x4
 624 01a8 07       		.uleb128 0x7
 625 01a9 A4010000 		.4byte	.LASF36
ARM GAS  /var/folders/d2/nstgp4h54kz7g1l847x_b8wc0000gn/T//ccFz8f4B.s 			page 12


 626 01ad 09       		.byte	0x9
 627 01ae C7       		.byte	0xc7
 628 01af 32010000 		.4byte	0x132
 629 01b3 08       		.byte	0x8
 630 01b4 07       		.uleb128 0x7
 631 01b5 34060000 		.4byte	.LASF37
 632 01b9 09       		.byte	0x9
 633 01ba C8       		.byte	0xc8
 634 01bb 26050000 		.4byte	0x526
 635 01bf 0C       		.byte	0xc
 636 01c0 07       		.uleb128 0x7
 637 01c1 56020000 		.4byte	.LASF38
 638 01c5 09       		.byte	0x9
 639 01c6 CA       		.byte	0xca
 640 01c7 AD020000 		.4byte	0x2ad
 641 01cb 10       		.byte	0x10
 642 01cc 07       		.uleb128 0x7
 643 01cd 26060000 		.4byte	.LASF39
 644 01d1 09       		.byte	0x9
 645 01d2 CB       		.byte	0xcb
 646 01d3 AD020000 		.4byte	0x2ad
 647 01d7 14       		.byte	0x14
 648 01d8 07       		.uleb128 0x7
 649 01d9 FE080000 		.4byte	.LASF40
 650 01dd 09       		.byte	0x9
 651 01de D2       		.byte	0xd2
 652 01df 9C080000 		.4byte	0x89c
 653 01e3 18       		.byte	0x18
 654 01e4 07       		.uleb128 0x7
 655 01e5 19030000 		.4byte	.LASF41
 656 01e9 09       		.byte	0x9
 657 01ea D8       		.byte	0xd8
 658 01eb B3080000 		.4byte	0x8b3
 659 01ef 1C       		.byte	0x1c
 660 01f0 07       		.uleb128 0x7
 661 01f1 ED060000 		.4byte	.LASF42
 662 01f5 09       		.byte	0x9
 663 01f6 DD       		.byte	0xdd
 664 01f7 11010000 		.4byte	0x111
 665 01fb 20       		.byte	0x20
 666 01fc 07       		.uleb128 0x7
 667 01fd 38070000 		.4byte	.LASF43
 668 0201 09       		.byte	0x9
 669 0202 E1       		.byte	0xe1
 670 0203 06010000 		.4byte	0x106
 671 0207 21       		.byte	0x21
 672 0208 07       		.uleb128 0x7
 673 0209 AC080000 		.4byte	.LASF44
 674 020d 09       		.byte	0x9
 675 020e E6       		.byte	0xe6
 676 020f 1C010000 		.4byte	0x11c
 677 0213 22       		.byte	0x22
 678 0214 07       		.uleb128 0x7
 679 0215 F5060000 		.4byte	.LASF45
 680 0219 09       		.byte	0x9
 681 021a EC       		.byte	0xec
 682 021b 27010000 		.4byte	0x127
ARM GAS  /var/folders/d2/nstgp4h54kz7g1l847x_b8wc0000gn/T//ccFz8f4B.s 			page 13


 683 021f 23       		.byte	0x23
 684 0220 07       		.uleb128 0x7
 685 0221 8E040000 		.4byte	.LASF46
 686 0225 09       		.byte	0x9
 687 0226 F3       		.byte	0xf3
 688 0227 74010000 		.4byte	0x174
 689 022b 24       		.byte	0x24
 690 022c 08       		.uleb128 0x8
 691 022d 705F7500 		.ascii	"p_u\000"
 692 0231 09       		.byte	0x9
 693 0232 3101     		.2byte	0x131
 694 0234 CB070000 		.4byte	0x7cb
 695 0238 28       		.byte	0x28
 696 0239 09       		.uleb128 0x9
 697 023a 96050000 		.4byte	.LASF47
 698 023e 09       		.byte	0x9
 699 023f 3601     		.2byte	0x136
 700 0241 B3020000 		.4byte	0x2b3
 701 0245 2C       		.byte	0x2c
 702 0246 09       		.uleb128 0x9
 703 0247 B2040000 		.4byte	.LASF48
 704 024b 09       		.byte	0x9
 705 024c 3C01     		.2byte	0x13c
 706 024e D7020000 		.4byte	0x2d7
 707 0252 30       		.byte	0x30
 708 0253 09       		.uleb128 0x9
 709 0254 7D080000 		.4byte	.LASF49
 710 0258 09       		.byte	0x9
 711 0259 4001     		.2byte	0x140
 712 025b 3D010000 		.4byte	0x13d
 713 025f 38       		.byte	0x38
 714 0260 09       		.uleb128 0x9
 715 0261 A7070000 		.4byte	.LASF50
 716 0265 09       		.byte	0x9
 717 0266 4601     		.2byte	0x146
 718 0268 48010000 		.4byte	0x148
 719 026c 3C       		.byte	0x3c
 720 026d 09       		.uleb128 0x9
 721 026e D9060000 		.4byte	.LASF51
 722 0272 09       		.byte	0x9
 723 0273 4D01     		.2byte	0x14d
 724 0275 96080000 		.4byte	0x896
 725 0279 40       		.byte	0x40
 726 027a 09       		.uleb128 0x9
 727 027b 37080000 		.4byte	.LASF52
 728 027f 09       		.byte	0x9
 729 0280 5101     		.2byte	0x151
 730 0282 32010000 		.4byte	0x132
 731 0286 44       		.byte	0x44
 732 0287 09       		.uleb128 0x9
 733 0288 F7010000 		.4byte	.LASF53
 734 028c 09       		.byte	0x9
 735 028d 5801     		.2byte	0x158
 736 028f 8A030000 		.4byte	0x38a
 737 0293 48       		.byte	0x48
 738 0294 09       		.uleb128 0x9
 739 0295 49070000 		.4byte	.LASF54
ARM GAS  /var/folders/d2/nstgp4h54kz7g1l847x_b8wc0000gn/T//ccFz8f4B.s 			page 14


 740 0299 09       		.byte	0x9
 741 029a 5E01     		.2byte	0x15e
 742 029c 7C070000 		.4byte	0x77c
 743 02a0 50       		.byte	0x50
 744 02a1 00       		.byte	0
 745 02a2 03       		.uleb128 0x3
 746 02a3 E4080000 		.4byte	.LASF55
 747 02a7 08       		.byte	0x8
 748 02a8 44       		.byte	0x44
 749 02a9 AD020000 		.4byte	0x2ad
 750 02ad 0A       		.uleb128 0xa
 751 02ae 04       		.byte	0x4
 752 02af 79010000 		.4byte	0x179
 753 02b3 03       		.uleb128 0x3
 754 02b4 73050000 		.4byte	.LASF56
 755 02b8 08       		.byte	0x8
 756 02b9 49       		.byte	0x49
 757 02ba BE020000 		.4byte	0x2be
 758 02be 06       		.uleb128 0x6
 759 02bf CF070000 		.4byte	.LASF58
 760 02c3 04       		.byte	0x4
 761 02c4 09       		.byte	0x9
 762 02c5 B0       		.byte	0xb0
 763 02c6 D7020000 		.4byte	0x2d7
 764 02ca 07       		.uleb128 0x7
 765 02cb 1A070000 		.4byte	.LASF34
 766 02cf 09       		.byte	0x9
 767 02d0 B1       		.byte	0xb1
 768 02d1 AD020000 		.4byte	0x2ad
 769 02d5 00       		.byte	0
 770 02d6 00       		.byte	0
 771 02d7 03       		.uleb128 0x3
 772 02d8 5B070000 		.4byte	.LASF59
 773 02dc 08       		.byte	0x8
 774 02dd 50       		.byte	0x50
 775 02de E2020000 		.4byte	0x2e2
 776 02e2 06       		.uleb128 0x6
 777 02e3 BB000000 		.4byte	.LASF60
 778 02e7 08       		.byte	0x8
 779 02e8 09       		.byte	0x9
 780 02e9 B7       		.byte	0xb7
 781 02ea 07030000 		.4byte	0x307
 782 02ee 07       		.uleb128 0x7
 783 02ef 1A070000 		.4byte	.LASF34
 784 02f3 09       		.byte	0x9
 785 02f4 B8       		.byte	0xb8
 786 02f5 AD020000 		.4byte	0x2ad
 787 02f9 00       		.byte	0
 788 02fa 07       		.uleb128 0x7
 789 02fb A0060000 		.4byte	.LASF35
 790 02ff 09       		.byte	0x9
 791 0300 B9       		.byte	0xb9
 792 0301 AD020000 		.4byte	0x2ad
 793 0305 04       		.byte	0x4
 794 0306 00       		.byte	0
 795 0307 03       		.uleb128 0x3
 796 0308 60000000 		.4byte	.LASF61
ARM GAS  /var/folders/d2/nstgp4h54kz7g1l847x_b8wc0000gn/T//ccFz8f4B.s 			page 15


 797 030c 08       		.byte	0x8
 798 030d 57       		.byte	0x57
 799 030e 12030000 		.4byte	0x312
 800 0312 0B       		.uleb128 0xb
 801 0313 44050000 		.4byte	.LASF62
 802 0317 1C       		.byte	0x1c
 803 0318 09       		.byte	0x9
 804 0319 9001     		.2byte	0x190
 805 031b 6E030000 		.4byte	0x36e
 806 031f 09       		.uleb128 0x9
 807 0320 C7070000 		.4byte	.LASF63
 808 0324 09       		.byte	0x9
 809 0325 9101     		.2byte	0x191
 810 0327 D7020000 		.4byte	0x2d7
 811 032b 00       		.byte	0
 812 032c 09       		.uleb128 0x9
 813 032d 0C070000 		.4byte	.LASF64
 814 0331 09       		.byte	0x9
 815 0332 9201     		.2byte	0x192
 816 0334 32010000 		.4byte	0x132
 817 0338 08       		.byte	0x8
 818 0339 09       		.uleb128 0x9
 819 033a 2E060000 		.4byte	.LASF65
 820 033e 09       		.byte	0x9
 821 033f 9401     		.2byte	0x194
 822 0341 26050000 		.4byte	0x526
 823 0345 0C       		.byte	0xc
 824 0346 09       		.uleb128 0x9
 825 0347 B4020000 		.4byte	.LASF66
 826 034b 09       		.byte	0x9
 827 034c 9701     		.2byte	0x197
 828 034e AD020000 		.4byte	0x2ad
 829 0352 10       		.byte	0x10
 830 0353 09       		.uleb128 0x9
 831 0354 55060000 		.4byte	.LASF67
 832 0358 09       		.byte	0x9
 833 0359 9801     		.2byte	0x198
 834 035b AD020000 		.4byte	0x2ad
 835 035f 14       		.byte	0x14
 836 0360 09       		.uleb128 0x9
 837 0361 4B060000 		.4byte	.LASF68
 838 0365 09       		.byte	0x9
 839 0366 9B01     		.2byte	0x19b
 840 0368 AD020000 		.4byte	0x2ad
 841 036c 18       		.byte	0x18
 842 036d 00       		.byte	0
 843 036e 03       		.uleb128 0x3
 844 036f 42080000 		.4byte	.LASF69
 845 0373 08       		.byte	0x8
 846 0374 5C       		.byte	0x5c
 847 0375 79030000 		.4byte	0x379
 848 0379 0A       		.uleb128 0xa
 849 037a 04       		.byte	0x4
 850 037b 7F030000 		.4byte	0x37f
 851 037f 0C       		.uleb128 0xc
 852 0380 8A030000 		.4byte	0x38a
 853 0384 0D       		.uleb128 0xd
ARM GAS  /var/folders/d2/nstgp4h54kz7g1l847x_b8wc0000gn/T//ccFz8f4B.s 			page 16


 854 0385 8A030000 		.4byte	0x38a
 855 0389 00       		.byte	0
 856 038a 0E       		.uleb128 0xe
 857 038b 04       		.byte	0x4
 858 038c 03       		.uleb128 0x3
 859 038d 90060000 		.4byte	.LASF70
 860 0391 08       		.byte	0x8
 861 0392 61       		.byte	0x61
 862 0393 97030000 		.4byte	0x397
 863 0397 0B       		.uleb128 0xb
 864 0398 6B070000 		.4byte	.LASF71
 865 039c 14       		.byte	0x14
 866 039d 09       		.byte	0x9
 867 039e 6B01     		.2byte	0x16b
 868 03a0 E6030000 		.4byte	0x3e6
 869 03a4 09       		.uleb128 0x9
 870 03a5 ED020000 		.4byte	.LASF72
 871 03a9 09       		.byte	0x9
 872 03aa 6C01     		.2byte	0x16c
 873 03ac B9080000 		.4byte	0x8b9
 874 03b0 00       		.byte	0
 875 03b1 09       		.uleb128 0x9
 876 03b2 C5020000 		.4byte	.LASF73
 877 03b6 09       		.byte	0x9
 878 03b7 6D01     		.2byte	0x16d
 879 03b9 B9080000 		.4byte	0x8b9
 880 03bd 04       		.byte	0x4
 881 03be 09       		.uleb128 0x9
 882 03bf A9040000 		.4byte	.LASF74
 883 03c3 09       		.byte	0x9
 884 03c4 6E01     		.2byte	0x16e
 885 03c6 69010000 		.4byte	0x169
 886 03ca 08       		.byte	0x8
 887 03cb 09       		.uleb128 0x9
 888 03cc 64090000 		.4byte	.LASF75
 889 03d0 09       		.byte	0x9
 890 03d1 6F01     		.2byte	0x16f
 891 03d3 6E030000 		.4byte	0x36e
 892 03d7 0C       		.byte	0xc
 893 03d8 09       		.uleb128 0x9
 894 03d9 83080000 		.4byte	.LASF76
 895 03dd 09       		.byte	0x9
 896 03de 7101     		.2byte	0x171
 897 03e0 8A030000 		.4byte	0x38a
 898 03e4 10       		.byte	0x10
 899 03e5 00       		.byte	0
 900 03e6 03       		.uleb128 0x3
 901 03e7 78010000 		.4byte	.LASF77
 902 03eb 08       		.byte	0x8
 903 03ec 66       		.byte	0x66
 904 03ed F1030000 		.4byte	0x3f1
 905 03f1 0B       		.uleb128 0xb
 906 03f2 D5050000 		.4byte	.LASF78
 907 03f6 10       		.byte	0x10
 908 03f7 09       		.byte	0x9
 909 03f8 7B01     		.2byte	0x17b
 910 03fa 33040000 		.4byte	0x433
ARM GAS  /var/folders/d2/nstgp4h54kz7g1l847x_b8wc0000gn/T//ccFz8f4B.s 			page 17


 911 03fe 09       		.uleb128 0x9
 912 03ff ED020000 		.4byte	.LASF72
 913 0403 09       		.byte	0x9
 914 0404 7C01     		.2byte	0x17c
 915 0406 B9080000 		.4byte	0x8b9
 916 040a 00       		.byte	0
 917 040b 09       		.uleb128 0x9
 918 040c C5020000 		.4byte	.LASF73
 919 0410 09       		.byte	0x9
 920 0411 7E01     		.2byte	0x17e
 921 0413 B9080000 		.4byte	0x8b9
 922 0417 04       		.byte	0x4
 923 0418 09       		.uleb128 0x9
 924 0419 A9040000 		.4byte	.LASF74
 925 041d 09       		.byte	0x9
 926 041e 8001     		.2byte	0x180
 927 0420 69010000 		.4byte	0x169
 928 0424 08       		.byte	0x8
 929 0425 09       		.uleb128 0x9
 930 0426 0A090000 		.4byte	.LASF79
 931 042a 09       		.byte	0x9
 932 042b 8201     		.2byte	0x182
 933 042d 74010000 		.4byte	0x174
 934 0431 0C       		.byte	0xc
 935 0432 00       		.byte	0
 936 0433 03       		.uleb128 0x3
 937 0434 CC000000 		.4byte	.LASF80
 938 0438 08       		.byte	0x8
 939 0439 6B       		.byte	0x6b
 940 043a 3E040000 		.4byte	0x43e
 941 043e 0F       		.uleb128 0xf
 942 043f D7020000 		.4byte	.LASF81
 943 0443 1404     		.2byte	0x414
 944 0445 09       		.byte	0x9
 945 0446 A201     		.2byte	0x1a2
 946 0448 81040000 		.4byte	0x481
 947 044c 09       		.uleb128 0x9
 948 044d 64080000 		.4byte	.LASF82
 949 0451 09       		.byte	0x9
 950 0452 AA01     		.2byte	0x1aa
 951 0454 A2080000 		.4byte	0x8a2
 952 0458 00       		.byte	0
 953 0459 09       		.uleb128 0x9
 954 045a B3080000 		.4byte	.LASF83
 955 045e 09       		.byte	0x9
 956 045f AF01     		.2byte	0x1af
 957 0461 53010000 		.4byte	0x153
 958 0465 04       		.byte	0x4
 959 0466 09       		.uleb128 0x9
 960 0467 FB020000 		.4byte	.LASF84
 961 046b 09       		.byte	0x9
 962 046c B301     		.2byte	0x1b3
 963 046e 53010000 		.4byte	0x153
 964 0472 08       		.byte	0x8
 965 0473 09       		.uleb128 0x9
 966 0474 15090000 		.4byte	.LASF85
 967 0478 09       		.byte	0x9
ARM GAS  /var/folders/d2/nstgp4h54kz7g1l847x_b8wc0000gn/T//ccFz8f4B.s 			page 18


 968 0479 B901     		.2byte	0x1b9
 969 047b 0E070000 		.4byte	0x70e
 970 047f 0C       		.byte	0xc
 971 0480 00       		.byte	0
 972 0481 03       		.uleb128 0x3
 973 0482 21050000 		.4byte	.LASF86
 974 0486 08       		.byte	0x8
 975 0487 70       		.byte	0x70
 976 0488 8C040000 		.4byte	0x48c
 977 048c 0F       		.uleb128 0xf
 978 048d 2A020000 		.4byte	.LASF87
 979 0491 7006     		.2byte	0x670
 980 0493 09       		.byte	0x9
 981 0494 C201     		.2byte	0x1c2
 982 0496 F9040000 		.4byte	0x4f9
 983 049a 09       		.uleb128 0x9
 984 049b C4080000 		.4byte	.LASF88
 985 049f 09       		.byte	0x9
 986 04a0 C601     		.2byte	0x1c6
 987 04a2 07030000 		.4byte	0x307
 988 04a6 00       		.byte	0
 989 04a7 09       		.uleb128 0x9
 990 04a8 07020000 		.4byte	.LASF89
 991 04ac 09       		.byte	0x9
 992 04ad CA01     		.2byte	0x1ca
 993 04af E6030000 		.4byte	0x3e6
 994 04b3 1C       		.byte	0x1c
 995 04b4 08       		.uleb128 0x8
 996 04b5 64626700 		.ascii	"dbg\000"
 997 04b9 09       		.byte	0x9
 998 04ba CE01     		.2byte	0x1ce
 999 04bc 33040000 		.4byte	0x433
 1000 04c0 2C       		.byte	0x2c
 1001 04c1 10       		.uleb128 0x10
 1002 04c2 4F010000 		.4byte	.LASF90
 1003 04c6 09       		.byte	0x9
 1004 04c7 D201     		.2byte	0x1d2
 1005 04c9 79010000 		.4byte	0x179
 1006 04cd 4004     		.2byte	0x440
 1007 04cf 11       		.uleb128 0x11
 1008 04d0 746D00   		.ascii	"tm\000"
 1009 04d3 09       		.byte	0x9
 1010 04d4 D701     		.2byte	0x1d7
 1011 04d6 2E070000 		.4byte	0x72e
 1012 04da A804     		.2byte	0x4a8
 1013 04dc 10       		.uleb128 0x10
 1014 04dd 8C000000 		.4byte	.LASF91
 1015 04e1 09       		.byte	0x9
 1016 04e2 DD01     		.2byte	0x1dd
 1017 04e4 C0070000 		.4byte	0x7c0
 1018 04e8 B004     		.2byte	0x4b0
 1019 04ea 10       		.uleb128 0x10
 1020 04eb 04030000 		.4byte	.LASF92
 1021 04ef 09       		.byte	0x9
 1022 04f0 E301     		.2byte	0x1e3
 1023 04f2 BF080000 		.4byte	0x8bf
 1024 04f6 E804     		.2byte	0x4e8
ARM GAS  /var/folders/d2/nstgp4h54kz7g1l847x_b8wc0000gn/T//ccFz8f4B.s 			page 19


 1025 04f8 00       		.byte	0
 1026 04f9 12       		.uleb128 0x12
 1027 04fa 8E010000 		.4byte	.LASF93
 1028 04fe 0A       		.byte	0xa
 1029 04ff A706     		.2byte	0x6a7
 1030 0501 D5000000 		.4byte	0xd5
 1031 0505 13       		.uleb128 0x13
 1032 0506 7E040000 		.4byte	.LASF94
 1033 050a 0B       		.byte	0xb
 1034 050b 4C       		.byte	0x4c
 1035 050c DA000000 		.4byte	0xda
 1036 0510 03       		.uleb128 0x3
 1037 0511 BC020000 		.4byte	.LASF95
 1038 0515 0C       		.byte	0xc
 1039 0516 65       		.byte	0x65
 1040 0517 8A030000 		.4byte	0x38a
 1041 051b 03       		.uleb128 0x3
 1042 051c 68050000 		.4byte	.LASF96
 1043 0520 0C       		.byte	0xc
 1044 0521 6D       		.byte	0x6d
 1045 0522 E5000000 		.4byte	0xe5
 1046 0526 06       		.uleb128 0x6
 1047 0527 75080000 		.4byte	.LASF97
 1048 052b 04       		.byte	0x4
 1049 052c 0C       		.byte	0xc
 1050 052d 89       		.byte	0x89
 1051 052e 3F050000 		.4byte	0x53f
 1052 0532 14       		.uleb128 0x14
 1053 0533 72313300 		.ascii	"r13\000"
 1054 0537 0C       		.byte	0xc
 1055 0538 8A       		.byte	0x8a
 1056 0539 80060000 		.4byte	0x680
 1057 053d 00       		.byte	0
 1058 053e 00       		.byte	0
 1059 053f 06       		.uleb128 0x6
 1060 0540 AF000000 		.4byte	.LASF98
 1061 0544 64       		.byte	0x64
 1062 0545 0D       		.byte	0xd
 1063 0546 F4       		.byte	0xf4
 1064 0547 80060000 		.4byte	0x680
 1065 054b 14       		.uleb128 0x14
 1066 054c 73313600 		.ascii	"s16\000"
 1067 0550 0D       		.byte	0xd
 1068 0551 F6       		.byte	0xf6
 1069 0552 10050000 		.4byte	0x510
 1070 0556 00       		.byte	0
 1071 0557 14       		.uleb128 0x14
 1072 0558 73313700 		.ascii	"s17\000"
 1073 055c 0D       		.byte	0xd
 1074 055d F7       		.byte	0xf7
 1075 055e 10050000 		.4byte	0x510
 1076 0562 04       		.byte	0x4
 1077 0563 14       		.uleb128 0x14
 1078 0564 73313800 		.ascii	"s18\000"
 1079 0568 0D       		.byte	0xd
 1080 0569 F8       		.byte	0xf8
 1081 056a 10050000 		.4byte	0x510
ARM GAS  /var/folders/d2/nstgp4h54kz7g1l847x_b8wc0000gn/T//ccFz8f4B.s 			page 20


 1082 056e 08       		.byte	0x8
 1083 056f 14       		.uleb128 0x14
 1084 0570 73313900 		.ascii	"s19\000"
 1085 0574 0D       		.byte	0xd
 1086 0575 F9       		.byte	0xf9
 1087 0576 10050000 		.4byte	0x510
 1088 057a 0C       		.byte	0xc
 1089 057b 14       		.uleb128 0x14
 1090 057c 73323000 		.ascii	"s20\000"
 1091 0580 0D       		.byte	0xd
 1092 0581 FA       		.byte	0xfa
 1093 0582 10050000 		.4byte	0x510
 1094 0586 10       		.byte	0x10
 1095 0587 14       		.uleb128 0x14
 1096 0588 73323100 		.ascii	"s21\000"
 1097 058c 0D       		.byte	0xd
 1098 058d FB       		.byte	0xfb
 1099 058e 10050000 		.4byte	0x510
 1100 0592 14       		.byte	0x14
 1101 0593 14       		.uleb128 0x14
 1102 0594 73323200 		.ascii	"s22\000"
 1103 0598 0D       		.byte	0xd
 1104 0599 FC       		.byte	0xfc
 1105 059a 10050000 		.4byte	0x510
 1106 059e 18       		.byte	0x18
 1107 059f 14       		.uleb128 0x14
 1108 05a0 73323300 		.ascii	"s23\000"
 1109 05a4 0D       		.byte	0xd
 1110 05a5 FD       		.byte	0xfd
 1111 05a6 10050000 		.4byte	0x510
 1112 05aa 1C       		.byte	0x1c
 1113 05ab 14       		.uleb128 0x14
 1114 05ac 73323400 		.ascii	"s24\000"
 1115 05b0 0D       		.byte	0xd
 1116 05b1 FE       		.byte	0xfe
 1117 05b2 10050000 		.4byte	0x510
 1118 05b6 20       		.byte	0x20
 1119 05b7 14       		.uleb128 0x14
 1120 05b8 73323500 		.ascii	"s25\000"
 1121 05bc 0D       		.byte	0xd
 1122 05bd FF       		.byte	0xff
 1123 05be 10050000 		.4byte	0x510
 1124 05c2 24       		.byte	0x24
 1125 05c3 08       		.uleb128 0x8
 1126 05c4 73323600 		.ascii	"s26\000"
 1127 05c8 0D       		.byte	0xd
 1128 05c9 0001     		.2byte	0x100
 1129 05cb 10050000 		.4byte	0x510
 1130 05cf 28       		.byte	0x28
 1131 05d0 08       		.uleb128 0x8
 1132 05d1 73323700 		.ascii	"s27\000"
 1133 05d5 0D       		.byte	0xd
 1134 05d6 0101     		.2byte	0x101
 1135 05d8 10050000 		.4byte	0x510
 1136 05dc 2C       		.byte	0x2c
 1137 05dd 08       		.uleb128 0x8
 1138 05de 73323800 		.ascii	"s28\000"
ARM GAS  /var/folders/d2/nstgp4h54kz7g1l847x_b8wc0000gn/T//ccFz8f4B.s 			page 21


 1139 05e2 0D       		.byte	0xd
 1140 05e3 0201     		.2byte	0x102
 1141 05e5 10050000 		.4byte	0x510
 1142 05e9 30       		.byte	0x30
 1143 05ea 08       		.uleb128 0x8
 1144 05eb 73323900 		.ascii	"s29\000"
 1145 05ef 0D       		.byte	0xd
 1146 05f0 0301     		.2byte	0x103
 1147 05f2 10050000 		.4byte	0x510
 1148 05f6 34       		.byte	0x34
 1149 05f7 08       		.uleb128 0x8
 1150 05f8 73333000 		.ascii	"s30\000"
 1151 05fc 0D       		.byte	0xd
 1152 05fd 0401     		.2byte	0x104
 1153 05ff 10050000 		.4byte	0x510
 1154 0603 38       		.byte	0x38
 1155 0604 08       		.uleb128 0x8
 1156 0605 73333100 		.ascii	"s31\000"
 1157 0609 0D       		.byte	0xd
 1158 060a 0501     		.2byte	0x105
 1159 060c 10050000 		.4byte	0x510
 1160 0610 3C       		.byte	0x3c
 1161 0611 08       		.uleb128 0x8
 1162 0612 723400   		.ascii	"r4\000"
 1163 0615 0D       		.byte	0xd
 1164 0616 0701     		.2byte	0x107
 1165 0618 10050000 		.4byte	0x510
 1166 061c 40       		.byte	0x40
 1167 061d 08       		.uleb128 0x8
 1168 061e 723500   		.ascii	"r5\000"
 1169 0621 0D       		.byte	0xd
 1170 0622 0801     		.2byte	0x108
 1171 0624 10050000 		.4byte	0x510
 1172 0628 44       		.byte	0x44
 1173 0629 08       		.uleb128 0x8
 1174 062a 723600   		.ascii	"r6\000"
 1175 062d 0D       		.byte	0xd
 1176 062e 0901     		.2byte	0x109
 1177 0630 10050000 		.4byte	0x510
 1178 0634 48       		.byte	0x48
 1179 0635 08       		.uleb128 0x8
 1180 0636 723700   		.ascii	"r7\000"
 1181 0639 0D       		.byte	0xd
 1182 063a 0A01     		.2byte	0x10a
 1183 063c 10050000 		.4byte	0x510
 1184 0640 4C       		.byte	0x4c
 1185 0641 08       		.uleb128 0x8
 1186 0642 723800   		.ascii	"r8\000"
 1187 0645 0D       		.byte	0xd
 1188 0646 0B01     		.2byte	0x10b
 1189 0648 10050000 		.4byte	0x510
 1190 064c 50       		.byte	0x50
 1191 064d 08       		.uleb128 0x8
 1192 064e 723900   		.ascii	"r9\000"
 1193 0651 0D       		.byte	0xd
 1194 0652 0C01     		.2byte	0x10c
 1195 0654 10050000 		.4byte	0x510
ARM GAS  /var/folders/d2/nstgp4h54kz7g1l847x_b8wc0000gn/T//ccFz8f4B.s 			page 22


 1196 0658 54       		.byte	0x54
 1197 0659 08       		.uleb128 0x8
 1198 065a 72313000 		.ascii	"r10\000"
 1199 065e 0D       		.byte	0xd
 1200 065f 0D01     		.2byte	0x10d
 1201 0661 10050000 		.4byte	0x510
 1202 0665 58       		.byte	0x58
 1203 0666 08       		.uleb128 0x8
 1204 0667 72313100 		.ascii	"r11\000"
 1205 066b 0D       		.byte	0xd
 1206 066c 0E01     		.2byte	0x10e
 1207 066e 10050000 		.4byte	0x510
 1208 0672 5C       		.byte	0x5c
 1209 0673 08       		.uleb128 0x8
 1210 0674 6C7200   		.ascii	"lr\000"
 1211 0677 0D       		.byte	0xd
 1212 0678 0F01     		.2byte	0x10f
 1213 067a 10050000 		.4byte	0x510
 1214 067e 60       		.byte	0x60
 1215 067f 00       		.byte	0
 1216 0680 0A       		.uleb128 0xa
 1217 0681 04       		.byte	0x4
 1218 0682 3F050000 		.4byte	0x53f
 1219 0686 15       		.uleb128 0x15
 1220 0687 10       		.byte	0x10
 1221 0688 0E       		.byte	0xe
 1222 0689 51       		.byte	0x51
 1223 068a BF060000 		.4byte	0x6bf
 1224 068e 07       		.uleb128 0x7
 1225 068f 6D000000 		.4byte	.LASF99
 1226 0693 0E       		.byte	0xe
 1227 0694 55       		.byte	0x55
 1228 0695 69010000 		.4byte	0x169
 1229 0699 00       		.byte	0
 1230 069a 07       		.uleb128 0x7
 1231 069b 46020000 		.4byte	.LASF100
 1232 069f 0E       		.byte	0xe
 1233 06a0 59       		.byte	0x59
 1234 06a1 AD020000 		.4byte	0x2ad
 1235 06a5 04       		.byte	0x4
 1236 06a6 07       		.uleb128 0x7
 1237 06a7 4C090000 		.4byte	.LASF101
 1238 06ab 0E       		.byte	0xe
 1239 06ac 5D       		.byte	0x5d
 1240 06ad 8A030000 		.4byte	0x38a
 1241 06b1 08       		.byte	0x8
 1242 06b2 07       		.uleb128 0x7
 1243 06b3 BB080000 		.4byte	.LASF102
 1244 06b7 0E       		.byte	0xe
 1245 06b8 61       		.byte	0x61
 1246 06b9 B4000000 		.4byte	0xb4
 1247 06bd 0C       		.byte	0xc
 1248 06be 00       		.byte	0
 1249 06bf 03       		.uleb128 0x3
 1250 06c0 0B060000 		.4byte	.LASF103
 1251 06c4 0E       		.byte	0xe
 1252 06c5 62       		.byte	0x62
ARM GAS  /var/folders/d2/nstgp4h54kz7g1l847x_b8wc0000gn/T//ccFz8f4B.s 			page 23


 1253 06c6 86060000 		.4byte	0x686
 1254 06ca 16       		.uleb128 0x16
 1255 06cb 0804     		.2byte	0x408
 1256 06cd 0E       		.byte	0xe
 1257 06ce 67       		.byte	0x67
 1258 06cf F8060000 		.4byte	0x6f8
 1259 06d3 07       		.uleb128 0x7
 1260 06d4 AC020000 		.4byte	.LASF104
 1261 06d8 0E       		.byte	0xe
 1262 06d9 6B       		.byte	0x6b
 1263 06da 37000000 		.4byte	0x37
 1264 06de 00       		.byte	0
 1265 06df 07       		.uleb128 0x7
 1266 06e0 04060000 		.4byte	.LASF105
 1267 06e4 0E       		.byte	0xe
 1268 06e5 6F       		.byte	0x6f
 1269 06e6 F8060000 		.4byte	0x6f8
 1270 06ea 04       		.byte	0x4
 1271 06eb 07       		.uleb128 0x7
 1272 06ec 7B060000 		.4byte	.LASF106
 1273 06f0 0E       		.byte	0xe
 1274 06f1 73       		.byte	0x73
 1275 06f2 FE060000 		.4byte	0x6fe
 1276 06f6 08       		.byte	0x8
 1277 06f7 00       		.byte	0
 1278 06f8 0A       		.uleb128 0xa
 1279 06f9 04       		.byte	0x4
 1280 06fa BF060000 		.4byte	0x6bf
 1281 06fe 17       		.uleb128 0x17
 1282 06ff BF060000 		.4byte	0x6bf
 1283 0703 0E070000 		.4byte	0x70e
 1284 0707 18       		.uleb128 0x18
 1285 0708 37000000 		.4byte	0x37
 1286 070c 3F       		.byte	0x3f
 1287 070d 00       		.byte	0
 1288 070e 03       		.uleb128 0x3
 1289 070f 15010000 		.4byte	.LASF107
 1290 0713 0E       		.byte	0xe
 1291 0714 74       		.byte	0x74
 1292 0715 CA060000 		.4byte	0x6ca
 1293 0719 15       		.uleb128 0x15
 1294 071a 04       		.byte	0x4
 1295 071b 0F       		.byte	0xf
 1296 071c 38       		.byte	0x38
 1297 071d 2E070000 		.4byte	0x72e
 1298 0721 07       		.uleb128 0x7
 1299 0722 6E080000 		.4byte	.LASF108
 1300 0726 0F       		.byte	0xf
 1301 0727 3C       		.byte	0x3c
 1302 0728 F0000000 		.4byte	0xf0
 1303 072c 00       		.byte	0
 1304 072d 00       		.byte	0
 1305 072e 03       		.uleb128 0x3
 1306 072f 3A060000 		.4byte	.LASF109
 1307 0733 0F       		.byte	0xf
 1308 0734 3D       		.byte	0x3d
 1309 0735 19070000 		.4byte	0x719
ARM GAS  /var/folders/d2/nstgp4h54kz7g1l847x_b8wc0000gn/T//ccFz8f4B.s 			page 24


 1310 0739 15       		.uleb128 0x15
 1311 073a 18       		.byte	0x18
 1312 073b 0F       		.byte	0xf
 1313 073c 48       		.byte	0x48
 1314 073d 7C070000 		.4byte	0x77c
 1315 0741 07       		.uleb128 0x7
 1316 0742 19080000 		.4byte	.LASF110
 1317 0746 0F       		.byte	0xf
 1318 0747 49       		.byte	0x49
 1319 0748 F0000000 		.4byte	0xf0
 1320 074c 00       		.byte	0
 1321 074d 07       		.uleb128 0x7
 1322 074e E5000000 		.4byte	.LASF111
 1323 0752 0F       		.byte	0xf
 1324 0753 4A       		.byte	0x4a
 1325 0754 F0000000 		.4byte	0xf0
 1326 0758 04       		.byte	0x4
 1327 0759 07       		.uleb128 0x7
 1328 075a 04050000 		.4byte	.LASF112
 1329 075e 0F       		.byte	0xf
 1330 075f 4B       		.byte	0x4b
 1331 0760 F0000000 		.4byte	0xf0
 1332 0764 08       		.byte	0x8
 1333 0765 14       		.uleb128 0x14
 1334 0766 6E00     		.ascii	"n\000"
 1335 0768 0F       		.byte	0xf
 1336 0769 4C       		.byte	0x4c
 1337 076a 5E010000 		.4byte	0x15e
 1338 076e 0C       		.byte	0xc
 1339 076f 07       		.uleb128 0x7
 1340 0770 68060000 		.4byte	.LASF113
 1341 0774 0F       		.byte	0xf
 1342 0775 4D       		.byte	0x4d
 1343 0776 FB000000 		.4byte	0xfb
 1344 077a 10       		.byte	0x10
 1345 077b 00       		.byte	0
 1346 077c 03       		.uleb128 0x3
 1347 077d EB000000 		.4byte	.LASF114
 1348 0781 0F       		.byte	0xf
 1349 0782 4E       		.byte	0x4e
 1350 0783 39070000 		.4byte	0x739
 1351 0787 15       		.uleb128 0x15
 1352 0788 38       		.byte	0x38
 1353 0789 10       		.byte	0x10
 1354 078a 38       		.byte	0x38
 1355 078b C0070000 		.4byte	0x7c0
 1356 078f 07       		.uleb128 0x7
 1357 0790 C6040000 		.4byte	.LASF115
 1358 0794 10       		.byte	0x10
 1359 0795 39       		.byte	0x39
 1360 0796 5E010000 		.4byte	0x15e
 1361 079a 00       		.byte	0
 1362 079b 07       		.uleb128 0x7
 1363 079c AF060000 		.4byte	.LASF116
 1364 07a0 10       		.byte	0x10
 1365 07a1 3A       		.byte	0x3a
 1366 07a2 5E010000 		.4byte	0x15e
ARM GAS  /var/folders/d2/nstgp4h54kz7g1l847x_b8wc0000gn/T//ccFz8f4B.s 			page 25


 1367 07a6 04       		.byte	0x4
 1368 07a7 07       		.uleb128 0x7
 1369 07a8 39090000 		.4byte	.LASF117
 1370 07ac 10       		.byte	0x10
 1371 07ad 3B       		.byte	0x3b
 1372 07ae 7C070000 		.4byte	0x77c
 1373 07b2 08       		.byte	0x8
 1374 07b3 07       		.uleb128 0x7
 1375 07b4 39050000 		.4byte	.LASF118
 1376 07b8 10       		.byte	0x10
 1377 07b9 3D       		.byte	0x3d
 1378 07ba 7C070000 		.4byte	0x77c
 1379 07be 20       		.byte	0x20
 1380 07bf 00       		.byte	0
 1381 07c0 03       		.uleb128 0x3
 1382 07c1 E5040000 		.4byte	.LASF119
 1383 07c5 10       		.byte	0x10
 1384 07c6 3F       		.byte	0x3f
 1385 07c7 87070000 		.4byte	0x787
 1386 07cb 19       		.uleb128 0x19
 1387 07cc 04       		.byte	0x4
 1388 07cd 09       		.byte	0x9
 1389 07ce FA       		.byte	0xfa
 1390 07cf 28080000 		.4byte	0x828
 1391 07d3 1A       		.uleb128 0x1a
 1392 07d4 7C000000 		.4byte	.LASF120
 1393 07d8 09       		.byte	0x9
 1394 07d9 0101     		.2byte	0x101
 1395 07db 3D010000 		.4byte	0x13d
 1396 07df 1A       		.uleb128 0x1a
 1397 07e0 46010000 		.4byte	.LASF121
 1398 07e4 09       		.byte	0x9
 1399 07e5 0801     		.2byte	0x108
 1400 07e7 3D010000 		.4byte	0x13d
 1401 07eb 1A       		.uleb128 0x1a
 1402 07ec F7080000 		.4byte	.LASF122
 1403 07f0 09       		.byte	0x9
 1404 07f1 0F01     		.2byte	0x10f
 1405 07f3 8A030000 		.4byte	0x38a
 1406 07f7 1A       		.uleb128 0x1a
 1407 07f8 24020000 		.4byte	.LASF123
 1408 07fc 09       		.byte	0x9
 1409 07fd 1601     		.2byte	0x116
 1410 07ff 28080000 		.4byte	0x828
 1411 0803 1A       		.uleb128 0x1a
 1412 0804 95040000 		.4byte	.LASF124
 1413 0808 09       		.byte	0x9
 1414 0809 1E01     		.2byte	0x11e
 1415 080b 53080000 		.4byte	0x853
 1416 080f 1A       		.uleb128 0x1a
 1417 0810 FE070000 		.4byte	.LASF125
 1418 0814 09       		.byte	0x9
 1419 0815 2701     		.2byte	0x127
 1420 0817 96080000 		.4byte	0x896
 1421 081b 1A       		.uleb128 0x1a
 1422 081c 13070000 		.4byte	.LASF126
 1423 0820 09       		.byte	0x9
ARM GAS  /var/folders/d2/nstgp4h54kz7g1l847x_b8wc0000gn/T//ccFz8f4B.s 			page 26


 1424 0821 2F01     		.2byte	0x12f
 1425 0823 48010000 		.4byte	0x148
 1426 0827 00       		.byte	0
 1427 0828 0A       		.uleb128 0xa
 1428 0829 04       		.byte	0x4
 1429 082a A2020000 		.4byte	0x2a2
 1430 082e 06       		.uleb128 0x6
 1431 082f 9A070000 		.4byte	.LASF127
 1432 0833 0C       		.byte	0xc
 1433 0834 11       		.byte	0x11
 1434 0835 34       		.byte	0x34
 1435 0836 53080000 		.4byte	0x853
 1436 083a 07       		.uleb128 0x7
 1437 083b 5E020000 		.4byte	.LASF128
 1438 083f 11       		.byte	0x11
 1439 0840 35       		.byte	0x35
 1440 0841 D7020000 		.4byte	0x2d7
 1441 0845 00       		.byte	0
 1442 0846 07       		.uleb128 0x7
 1443 0847 CC040000 		.4byte	.LASF129
 1444 084b 11       		.byte	0x11
 1445 084c 37       		.byte	0x37
 1446 084d 53010000 		.4byte	0x153
 1447 0851 08       		.byte	0x8
 1448 0852 00       		.byte	0
 1449 0853 0A       		.uleb128 0xa
 1450 0854 04       		.byte	0x4
 1451 0855 2E080000 		.4byte	0x82e
 1452 0859 06       		.uleb128 0x6
 1453 085a A3080000 		.4byte	.LASF130
 1454 085e 14       		.byte	0x14
 1455 085f 12       		.byte	0x12
 1456 0860 39       		.byte	0x39
 1457 0861 96080000 		.4byte	0x896
 1458 0865 07       		.uleb128 0x7
 1459 0866 FF010000 		.4byte	.LASF131
 1460 086a 12       		.byte	0x12
 1461 086b 3A       		.byte	0x3a
 1462 086c D7020000 		.4byte	0x2d7
 1463 0870 00       		.byte	0
 1464 0871 07       		.uleb128 0x7
 1465 0872 44090000 		.4byte	.LASF132
 1466 0876 12       		.byte	0x12
 1467 0877 3C       		.byte	0x3c
 1468 0878 AD020000 		.4byte	0x2ad
 1469 087c 08       		.byte	0x8
 1470 087d 07       		.uleb128 0x7
 1471 087e 26080000 		.4byte	.LASF133
 1472 0882 12       		.byte	0x12
 1473 0883 3E       		.byte	0x3e
 1474 0884 F1090000 		.4byte	0x9f1
 1475 0888 0C       		.byte	0xc
 1476 0889 07       		.uleb128 0x7
 1477 088a E7020000 		.4byte	.LASF134
 1478 088e 12       		.byte	0x12
 1479 088f 41       		.byte	0x41
 1480 0890 53010000 		.4byte	0x153
ARM GAS  /var/folders/d2/nstgp4h54kz7g1l847x_b8wc0000gn/T//ccFz8f4B.s 			page 27


 1481 0894 10       		.byte	0x10
 1482 0895 00       		.byte	0
 1483 0896 0A       		.uleb128 0xa
 1484 0897 04       		.byte	0x4
 1485 0898 59080000 		.4byte	0x859
 1486 089c 0A       		.uleb128 0xa
 1487 089d 04       		.byte	0x4
 1488 089e AE080000 		.4byte	0x8ae
 1489 08a2 05       		.uleb128 0x5
 1490 08a3 9C080000 		.4byte	0x89c
 1491 08a7 04       		.uleb128 0x4
 1492 08a8 01       		.byte	0x1
 1493 08a9 08       		.byte	0x8
 1494 08aa F9070000 		.4byte	.LASF135
 1495 08ae 1B       		.uleb128 0x1b
 1496 08af A7080000 		.4byte	0x8a7
 1497 08b3 0A       		.uleb128 0xa
 1498 08b4 04       		.byte	0x4
 1499 08b5 1B050000 		.4byte	0x51b
 1500 08b9 0A       		.uleb128 0xa
 1501 08ba 04       		.byte	0x4
 1502 08bb 8C030000 		.4byte	0x38c
 1503 08bf 17       		.uleb128 0x17
 1504 08c0 1B050000 		.4byte	0x51b
 1505 08c4 CF080000 		.4byte	0x8cf
 1506 08c8 18       		.uleb128 0x18
 1507 08c9 37000000 		.4byte	0x37
 1508 08cd 30       		.byte	0x30
 1509 08ce 00       		.byte	0
 1510 08cf 1C       		.uleb128 0x1c
 1511 08d0 636800   		.ascii	"ch\000"
 1512 08d3 09       		.byte	0x9
 1513 08d4 0902     		.2byte	0x209
 1514 08d6 81040000 		.4byte	0x481
 1515 08da 15       		.uleb128 0x15
 1516 08db 16       		.byte	0x16
 1517 08dc 13       		.byte	0x13
 1518 08dd 34       		.byte	0x34
 1519 08de BB090000 		.4byte	0x9bb
 1520 08e2 07       		.uleb128 0x7
 1521 08e3 56090000 		.4byte	.LASF136
 1522 08e7 13       		.byte	0x13
 1523 08e8 35       		.byte	0x35
 1524 08e9 BB090000 		.4byte	0x9bb
 1525 08ed 00       		.byte	0
 1526 08ee 07       		.uleb128 0x7
 1527 08ef 82050000 		.4byte	.LASF137
 1528 08f3 13       		.byte	0x13
 1529 08f4 36       		.byte	0x36
 1530 08f5 B4000000 		.4byte	0xb4
 1531 08f9 04       		.byte	0x4
 1532 08fa 07       		.uleb128 0x7
 1533 08fb DF070000 		.4byte	.LASF138
 1534 08ff 13       		.byte	0x13
 1535 0900 37       		.byte	0x37
 1536 0901 B4000000 		.4byte	0xb4
 1537 0905 05       		.byte	0x5
ARM GAS  /var/folders/d2/nstgp4h54kz7g1l847x_b8wc0000gn/T//ccFz8f4B.s 			page 28


 1538 0906 07       		.uleb128 0x7
 1539 0907 2E090000 		.4byte	.LASF139
 1540 090b 13       		.byte	0x13
 1541 090c 38       		.byte	0x38
 1542 090d BF000000 		.4byte	0xbf
 1543 0911 06       		.byte	0x6
 1544 0912 07       		.uleb128 0x7
 1545 0913 85060000 		.4byte	.LASF140
 1546 0917 13       		.byte	0x13
 1547 0918 39       		.byte	0x39
 1548 0919 B4000000 		.4byte	0xb4
 1549 091d 08       		.byte	0x8
 1550 091e 07       		.uleb128 0x7
 1551 091f F8050000 		.4byte	.LASF141
 1552 0923 13       		.byte	0x13
 1553 0924 3A       		.byte	0x3a
 1554 0925 B4000000 		.4byte	0xb4
 1555 0929 09       		.byte	0x9
 1556 092a 07       		.uleb128 0x7
 1557 092b 38010000 		.4byte	.LASF142
 1558 092f 13       		.byte	0x13
 1559 0930 3B       		.byte	0x3b
 1560 0931 B4000000 		.4byte	0xb4
 1561 0935 0A       		.byte	0xa
 1562 0936 07       		.uleb128 0x7
 1563 0937 BB070000 		.4byte	.LASF143
 1564 093b 13       		.byte	0x13
 1565 093c 3C       		.byte	0x3c
 1566 093d B4000000 		.4byte	0xb4
 1567 0941 0B       		.byte	0xb
 1568 0942 07       		.uleb128 0x7
 1569 0943 98080000 		.4byte	.LASF144
 1570 0947 13       		.byte	0x13
 1571 0948 3D       		.byte	0x3d
 1572 0949 B4000000 		.4byte	0xb4
 1573 094d 0C       		.byte	0xc
 1574 094e 07       		.uleb128 0x7
 1575 094f 7C070000 		.4byte	.LASF145
 1576 0953 13       		.byte	0x13
 1577 0954 3E       		.byte	0x3e
 1578 0955 B4000000 		.4byte	0xb4
 1579 0959 0D       		.byte	0xd
 1580 095a 07       		.uleb128 0x7
 1581 095b 9C040000 		.4byte	.LASF146
 1582 095f 13       		.byte	0x13
 1583 0960 3F       		.byte	0x3f
 1584 0961 B4000000 		.4byte	0xb4
 1585 0965 0E       		.byte	0xe
 1586 0966 07       		.uleb128 0x7
 1587 0967 1A060000 		.4byte	.LASF147
 1588 096b 13       		.byte	0x13
 1589 096c 40       		.byte	0x40
 1590 096d B4000000 		.4byte	0xb4
 1591 0971 0F       		.byte	0xf
 1592 0972 07       		.uleb128 0x7
 1593 0973 DA010000 		.4byte	.LASF148
 1594 0977 13       		.byte	0x13
ARM GAS  /var/folders/d2/nstgp4h54kz7g1l847x_b8wc0000gn/T//ccFz8f4B.s 			page 29


 1595 0978 41       		.byte	0x41
 1596 0979 B4000000 		.4byte	0xb4
 1597 097d 10       		.byte	0x10
 1598 097e 07       		.uleb128 0x7
 1599 097f AB010000 		.4byte	.LASF149
 1600 0983 13       		.byte	0x13
 1601 0984 43       		.byte	0x43
 1602 0985 B4000000 		.4byte	0xb4
 1603 0989 11       		.byte	0x11
 1604 098a 07       		.uleb128 0x7
 1605 098b EA010000 		.4byte	.LASF150
 1606 098f 13       		.byte	0x13
 1607 0990 44       		.byte	0x44
 1608 0991 B4000000 		.4byte	0xb4
 1609 0995 12       		.byte	0x12
 1610 0996 07       		.uleb128 0x7
 1611 0997 8A050000 		.4byte	.LASF151
 1612 099b 13       		.byte	0x13
 1613 099c 45       		.byte	0x45
 1614 099d B4000000 		.4byte	0xb4
 1615 09a1 13       		.byte	0x13
 1616 09a2 07       		.uleb128 0x7
 1617 09a3 29070000 		.4byte	.LASF152
 1618 09a7 13       		.byte	0x13
 1619 09a8 46       		.byte	0x46
 1620 09a9 B4000000 		.4byte	0xb4
 1621 09ad 14       		.byte	0x14
 1622 09ae 07       		.uleb128 0x7
 1623 09af 2D050000 		.4byte	.LASF153
 1624 09b3 13       		.byte	0x13
 1625 09b4 48       		.byte	0x48
 1626 09b5 B4000000 		.4byte	0xb4
 1627 09b9 15       		.byte	0x15
 1628 09ba 00       		.byte	0
 1629 09bb 17       		.uleb128 0x17
 1630 09bc A7080000 		.4byte	0x8a7
 1631 09c0 CB090000 		.4byte	0x9cb
 1632 09c4 18       		.uleb128 0x18
 1633 09c5 37000000 		.4byte	0x37
 1634 09c9 03       		.byte	0x3
 1635 09ca 00       		.byte	0
 1636 09cb 03       		.uleb128 0x3
 1637 09cc 4C020000 		.4byte	.LASF154
 1638 09d0 13       		.byte	0x13
 1639 09d1 49       		.byte	0x49
 1640 09d2 DA080000 		.4byte	0x8da
 1641 09d6 1B       		.uleb128 0x1b
 1642 09d7 CB090000 		.4byte	0x9cb
 1643 09db 13       		.uleb128 0x13
 1644 09dc BD040000 		.4byte	.LASF155
 1645 09e0 13       		.byte	0x13
 1646 09e1 6E       		.byte	0x6e
 1647 09e2 D6090000 		.4byte	0x9d6
 1648 09e6 03       		.uleb128 0x3
 1649 09e7 B8010000 		.4byte	.LASF156
 1650 09eb 12       		.byte	0x12
 1651 09ec 34       		.byte	0x34
ARM GAS  /var/folders/d2/nstgp4h54kz7g1l847x_b8wc0000gn/T//ccFz8f4B.s 			page 30


 1652 09ed 59080000 		.4byte	0x859
 1653 09f1 0A       		.uleb128 0xa
 1654 09f2 04       		.byte	0x4
 1655 09f3 E6090000 		.4byte	0x9e6
 1656 09f7 0A       		.uleb128 0xa
 1657 09f8 04       		.byte	0x4
 1658 09f9 B4000000 		.4byte	0xb4
 1659 09fd 1D       		.uleb128 0x1d
 1660 09fe 1E080000 		.4byte	.LASF157
 1661 0a02 01       		.byte	0x1
 1662 0a03 3E       		.byte	0x3e
 1663 0a04 F7090000 		.4byte	0x9f7
 1664 0a08 05       		.uleb128 0x5
 1665 0a09 03       		.byte	0x3
 1666 0a0a 00000000 		.4byte	nextmem
 1667 0a0e 1D       		.uleb128 0x1d
 1668 0a0f 00000000 		.4byte	.LASF158
 1669 0a13 01       		.byte	0x1
 1670 0a14 3F       		.byte	0x3f
 1671 0a15 F7090000 		.4byte	0x9f7
 1672 0a19 05       		.uleb128 0x5
 1673 0a1a 03       		.byte	0x3
 1674 0a1b 00000000 		.4byte	endmem
 1675 0a1f 1E       		.uleb128 0x1e
 1676 0a20 27010000 		.4byte	.LASF159
 1677 0a24 01       		.byte	0x1
 1678 0a25 9B       		.byte	0x9b
 1679 0a26 2C000000 		.4byte	0x2c
 1680 0a2a 00000000 		.4byte	.LFB222
 1681 0a2e 34000000 		.4byte	.LFE222-.LFB222
 1682 0a32 01       		.uleb128 0x1
 1683 0a33 9C       		.byte	0x9c
 1684 0a34 420A0000 		.4byte	0xa42
 1685 0a38 1F       		.uleb128 0x1f
 1686 0a39 26000000 		.4byte	.LVL26
 1687 0a3d 800C0000 		.4byte	0xc80
 1688 0a41 00       		.byte	0
 1689 0a42 20       		.uleb128 0x20
 1690 0a43 9F020000 		.4byte	.LASF180
 1691 0a47 01       		.byte	0x1
 1692 0a48 83       		.byte	0x83
 1693 0a49 8A030000 		.4byte	0x38a
 1694 0a4d 01       		.byte	0x1
 1695 0a4e 670A0000 		.4byte	0xa67
 1696 0a52 21       		.uleb128 0x21
 1697 0a53 05090000 		.4byte	.LASF169
 1698 0a57 01       		.byte	0x1
 1699 0a58 83       		.byte	0x83
 1700 0a59 2C000000 		.4byte	0x2c
 1701 0a5d 22       		.uleb128 0x22
 1702 0a5e 7000     		.ascii	"p\000"
 1703 0a60 01       		.byte	0x1
 1704 0a61 84       		.byte	0x84
 1705 0a62 8A030000 		.4byte	0x38a
 1706 0a66 00       		.byte	0
 1707 0a67 1E       		.uleb128 0x1e
 1708 0a68 99000000 		.4byte	.LASF160
ARM GAS  /var/folders/d2/nstgp4h54kz7g1l847x_b8wc0000gn/T//ccFz8f4B.s 			page 31


 1709 0a6c 01       		.byte	0x1
 1710 0a6d 6D       		.byte	0x6d
 1711 0a6e 8A030000 		.4byte	0x38a
 1712 0a72 00000000 		.4byte	.LFB220
 1713 0a76 88000000 		.4byte	.LFE220-.LFB220
 1714 0a7a 01       		.uleb128 0x1
 1715 0a7b 9C       		.byte	0x9c
 1716 0a7c A30B0000 		.4byte	0xba3
 1717 0a80 23       		.uleb128 0x23
 1718 0a81 05090000 		.4byte	.LASF169
 1719 0a85 01       		.byte	0x1
 1720 0a86 6D       		.byte	0x6d
 1721 0a87 2C000000 		.4byte	0x2c
 1722 0a8b 00000000 		.4byte	.LLST0
 1723 0a8f 22       		.uleb128 0x22
 1724 0a90 7000     		.ascii	"p\000"
 1725 0a92 01       		.byte	0x1
 1726 0a93 6E       		.byte	0x6e
 1727 0a94 8A030000 		.4byte	0x38a
 1728 0a98 24       		.uleb128 0x24
 1729 0a99 130C0000 		.4byte	0xc13
 1730 0a9d 0C000000 		.4byte	.LBB33
 1731 0aa1 0E000000 		.4byte	.LBE33-.LBB33
 1732 0aa5 01       		.byte	0x1
 1733 0aa6 70       		.byte	0x70
 1734 0aa7 ED0A0000 		.4byte	0xaed
 1735 0aab 25       		.uleb128 0x25
 1736 0aac 250C0000 		.4byte	0xc25
 1737 0ab0 0C000000 		.4byte	.LBB35
 1738 0ab4 06000000 		.4byte	.LBE35-.LBB35
 1739 0ab8 03       		.byte	0x3
 1740 0ab9 5C01     		.2byte	0x15c
 1741 0abb DA0A0000 		.4byte	0xada
 1742 0abf 26       		.uleb128 0x26
 1743 0ac0 2E0C0000 		.4byte	0xc2e
 1744 0ac4 0C000000 		.4byte	.LBB36
 1745 0ac8 06000000 		.4byte	.LBE36-.LBB36
 1746 0acc 0D       		.byte	0xd
 1747 0acd BF01     		.2byte	0x1bf
 1748 0acf 27       		.uleb128 0x27
 1749 0ad0 3B0C0000 		.4byte	0xc3b
 1750 0ad4 1E000000 		.4byte	.LLST1
 1751 0ad8 00       		.byte	0
 1752 0ad9 00       		.byte	0
 1753 0ada 1F       		.uleb128 0x1f
 1754 0adb 16000000 		.4byte	.LVL4
 1755 0adf 890C0000 		.4byte	0xc89
 1756 0ae3 1F       		.uleb128 0x1f
 1757 0ae4 1A000000 		.4byte	.LVL5
 1758 0ae8 940C0000 		.4byte	0xc94
 1759 0aec 00       		.byte	0
 1760 0aed 24       		.uleb128 0x24
 1761 0aee 420A0000 		.4byte	0xa42
 1762 0af2 1A000000 		.4byte	.LBB38
 1763 0af6 1E000000 		.4byte	.LBE38-.LBB38
 1764 0afa 01       		.byte	0x1
 1765 0afb 71       		.byte	0x71
ARM GAS  /var/folders/d2/nstgp4h54kz7g1l847x_b8wc0000gn/T//ccFz8f4B.s 			page 32


 1766 0afc 260B0000 		.4byte	0xb26
 1767 0b00 27       		.uleb128 0x27
 1768 0b01 520A0000 		.4byte	0xa52
 1769 0b05 33000000 		.4byte	.LLST2
 1770 0b09 28       		.uleb128 0x28
 1771 0b0a 1A000000 		.4byte	.LBB39
 1772 0b0e 1E000000 		.4byte	.LBE39-.LBB39
 1773 0b12 29       		.uleb128 0x29
 1774 0b13 5D0A0000 		.4byte	0xa5d
 1775 0b17 61000000 		.4byte	.LLST3
 1776 0b1b 1F       		.uleb128 0x1f
 1777 0b1c 1E000000 		.4byte	.LVL6
 1778 0b20 9F0C0000 		.4byte	0xc9f
 1779 0b24 00       		.byte	0
 1780 0b25 00       		.byte	0
 1781 0b26 2A       		.uleb128 0x2a
 1782 0b27 E30B0000 		.4byte	0xbe3
 1783 0b2b 38000000 		.4byte	.LBB40
 1784 0b2f 00000000 		.4byte	.Ldebug_ranges0+0
 1785 0b33 01       		.byte	0x1
 1786 0b34 72       		.byte	0x72
 1787 0b35 990B0000 		.4byte	0xb99
 1788 0b39 2B       		.uleb128 0x2b
 1789 0b3a 00000000 		.4byte	.Ldebug_ranges0+0
 1790 0b3e 2C       		.uleb128 0x2c
 1791 0b3f F00B0000 		.4byte	0xbf0
 1792 0b43 25       		.uleb128 0x25
 1793 0b44 1C0C0000 		.4byte	0xc1c
 1794 0b48 52000000 		.4byte	.LBB42
 1795 0b4c 06000000 		.4byte	.LBE42-.LBB42
 1796 0b50 03       		.byte	0x3
 1797 0b51 7301     		.2byte	0x173
 1798 0b53 720B0000 		.4byte	0xb72
 1799 0b57 26       		.uleb128 0x26
 1800 0b58 2E0C0000 		.4byte	0xc2e
 1801 0b5c 52000000 		.4byte	.LBB43
 1802 0b60 06000000 		.4byte	.LBE43-.LBB43
 1803 0b64 0D       		.byte	0xd
 1804 0b65 CD01     		.2byte	0x1cd
 1805 0b67 27       		.uleb128 0x27
 1806 0b68 3B0C0000 		.4byte	0xc3b
 1807 0b6c 74000000 		.4byte	.LLST4
 1808 0b70 00       		.byte	0
 1809 0b71 00       		.byte	0
 1810 0b72 1F       		.uleb128 0x1f
 1811 0b73 3C000000 		.4byte	.LVL11
 1812 0b77 AA0C0000 		.4byte	0xcaa
 1813 0b7b 1F       		.uleb128 0x1f
 1814 0b7c 40000000 		.4byte	.LVL12
 1815 0b80 B50C0000 		.4byte	0xcb5
 1816 0b84 2D       		.uleb128 0x2d
 1817 0b85 6C000000 		.4byte	.LVL16
 1818 0b89 C00C0000 		.4byte	0xcc0
 1819 0b8d 2E       		.uleb128 0x2e
 1820 0b8e 01       		.uleb128 0x1
 1821 0b8f 50       		.byte	0x50
 1822 0b90 05       		.uleb128 0x5
ARM GAS  /var/folders/d2/nstgp4h54kz7g1l847x_b8wc0000gn/T//ccFz8f4B.s 			page 33


 1823 0b91 03       		.byte	0x3
 1824 0b92 00000000 		.4byte	.LANCHOR2
 1825 0b96 00       		.byte	0
 1826 0b97 00       		.byte	0
 1827 0b98 00       		.byte	0
 1828 0b99 1F       		.uleb128 0x1f
 1829 0b9a 72000000 		.4byte	.LVL17
 1830 0b9e 800C0000 		.4byte	0xc80
 1831 0ba2 00       		.byte	0
 1832 0ba3 2F       		.uleb128 0x2f
 1833 0ba4 CE060000 		.4byte	.LASF181
 1834 0ba8 01       		.byte	0x1
 1835 0ba9 4E       		.byte	0x4e
 1836 0baa 00000000 		.4byte	.LFB219
 1837 0bae 44000000 		.4byte	.LFE219-.LFB219
 1838 0bb2 01       		.uleb128 0x1
 1839 0bb3 9C       		.byte	0x9c
 1840 0bb4 D80B0000 		.4byte	0xbd8
 1841 0bb8 13       		.uleb128 0x13
 1842 0bb9 8A080000 		.4byte	.LASF161
 1843 0bbd 01       		.byte	0x1
 1844 0bbe 50       		.byte	0x50
 1845 0bbf D80B0000 		.4byte	0xbd8
 1846 0bc3 13       		.uleb128 0x13
 1847 0bc4 FF060000 		.4byte	.LASF162
 1848 0bc8 01       		.byte	0x1
 1849 0bc9 51       		.byte	0x51
 1850 0bca D80B0000 		.4byte	0xbd8
 1851 0bce 1F       		.uleb128 0x1f
 1852 0bcf 2E000000 		.4byte	.LVL0
 1853 0bd3 800C0000 		.4byte	0xc80
 1854 0bd7 00       		.byte	0
 1855 0bd8 17       		.uleb128 0x17
 1856 0bd9 B4000000 		.4byte	0xb4
 1857 0bdd E30B0000 		.4byte	0xbe3
 1858 0be1 30       		.uleb128 0x30
 1859 0be2 00       		.byte	0
 1860 0be3 31       		.uleb128 0x31
 1861 0be4 22090000 		.4byte	.LASF167
 1862 0be8 03       		.byte	0x3
 1863 0be9 6601     		.2byte	0x166
 1864 0beb 03       		.byte	0x3
 1865 0bec FE0B0000 		.4byte	0xbfe
 1866 0bf0 32       		.uleb128 0x32
 1867 0bf1 40070000 		.4byte	.LASF163
 1868 0bf5 0E0C0000 		.4byte	0xc0e
 1869 0bf9 22090000 		.4byte	.LASF167
 1870 0bfd 00       		.byte	0
 1871 0bfe 17       		.uleb128 0x17
 1872 0bff AE080000 		.4byte	0x8ae
 1873 0c03 0E0C0000 		.4byte	0xc0e
 1874 0c07 18       		.uleb128 0x18
 1875 0c08 37000000 		.4byte	0x37
 1876 0c0c 0B       		.byte	0xb
 1877 0c0d 00       		.byte	0
 1878 0c0e 1B       		.uleb128 0x1b
 1879 0c0f FE0B0000 		.4byte	0xbfe
ARM GAS  /var/folders/d2/nstgp4h54kz7g1l847x_b8wc0000gn/T//ccFz8f4B.s 			page 34


 1880 0c13 33       		.uleb128 0x33
 1881 0c14 51070000 		.4byte	.LASF164
 1882 0c18 03       		.byte	0x3
 1883 0c19 5A01     		.2byte	0x15a
 1884 0c1b 03       		.byte	0x3
 1885 0c1c 33       		.uleb128 0x33
 1886 0c1d 0E020000 		.4byte	.LASF165
 1887 0c21 0D       		.byte	0xd
 1888 0c22 CA01     		.2byte	0x1ca
 1889 0c24 03       		.byte	0x3
 1890 0c25 33       		.uleb128 0x33
 1891 0c26 DB000000 		.4byte	.LASF166
 1892 0c2a 0D       		.byte	0xd
 1893 0c2b BC01     		.2byte	0x1bc
 1894 0c2d 03       		.byte	0x3
 1895 0c2e 31       		.uleb128 0x31
 1896 0c2f 56080000 		.4byte	.LASF168
 1897 0c33 02       		.byte	0x2
 1898 0c34 2002     		.2byte	0x220
 1899 0c36 03       		.byte	0x3
 1900 0c37 480C0000 		.4byte	0xc48
 1901 0c3b 34       		.uleb128 0x34
 1902 0c3c F5020000 		.4byte	.LASF170
 1903 0c40 02       		.byte	0x2
 1904 0c41 2002     		.2byte	0x220
 1905 0c43 DA000000 		.4byte	0xda
 1906 0c47 00       		.byte	0
 1907 0c48 35       		.uleb128 0x35
 1908 0c49 420A0000 		.4byte	0xa42
 1909 0c4d 00000000 		.4byte	.LFB221
 1910 0c51 48000000 		.4byte	.LFE221-.LFB221
 1911 0c55 01       		.uleb128 0x1
 1912 0c56 9C       		.byte	0x9c
 1913 0c57 800C0000 		.4byte	0xc80
 1914 0c5b 27       		.uleb128 0x27
 1915 0c5c 520A0000 		.4byte	0xa52
 1916 0c60 88000000 		.4byte	.LLST5
 1917 0c64 29       		.uleb128 0x29
 1918 0c65 5D0A0000 		.4byte	0xa5d
 1919 0c69 C1000000 		.4byte	.LLST6
 1920 0c6d 1F       		.uleb128 0x1f
 1921 0c6e 10000000 		.4byte	.LVL19
 1922 0c72 9F0C0000 		.4byte	0xc9f
 1923 0c76 1F       		.uleb128 0x1f
 1924 0c77 3C000000 		.4byte	.LVL25
 1925 0c7b 800C0000 		.4byte	0xc80
 1926 0c7f 00       		.byte	0
 1927 0c80 36       		.uleb128 0x36
 1928 0c81 89070000 		.4byte	.LASF182
 1929 0c85 89070000 		.4byte	.LASF182
 1930 0c89 37       		.uleb128 0x37
 1931 0c8a 5A010000 		.4byte	.LASF171
 1932 0c8e 5A010000 		.4byte	.LASF171
 1933 0c92 10       		.byte	0x10
 1934 0c93 4F       		.byte	0x4f
 1935 0c94 37       		.uleb128 0x37
 1936 0c95 C5050000 		.4byte	.LASF172
ARM GAS  /var/folders/d2/nstgp4h54kz7g1l847x_b8wc0000gn/T//ccFz8f4B.s 			page 35


 1937 0c99 C5050000 		.4byte	.LASF172
 1938 0c9d 0E       		.byte	0xe
 1939 0c9e D8       		.byte	0xd8
 1940 0c9f 37       		.uleb128 0x37
 1941 0ca0 10050000 		.4byte	.LASF173
 1942 0ca4 10050000 		.4byte	.LASF173
 1943 0ca8 0E       		.byte	0xe
 1944 0ca9 DE       		.byte	0xde
 1945 0caa 37       		.uleb128 0x37
 1946 0cab D2080000 		.4byte	.LASF174
 1947 0caf D2080000 		.4byte	.LASF174
 1948 0cb3 0E       		.byte	0xe
 1949 0cb4 D9       		.byte	0xd9
 1950 0cb5 37       		.uleb128 0x37
 1951 0cb6 A0050000 		.4byte	.LASF175
 1952 0cba A0050000 		.4byte	.LASF175
 1953 0cbe 10       		.byte	0x10
 1954 0cbf 50       		.byte	0x50
 1955 0cc0 38       		.uleb128 0x38
 1956 0cc1 CD020000 		.4byte	.LASF176
 1957 0cc5 CD020000 		.4byte	.LASF176
 1958 0cc9 03       		.byte	0x3
 1959 0cca 1601     		.2byte	0x116
 1960 0ccc 00       		.byte	0
 1961              		.section	.debug_abbrev,"",%progbits
 1962              	.Ldebug_abbrev0:
 1963 0000 01       		.uleb128 0x1
 1964 0001 11       		.uleb128 0x11
 1965 0002 01       		.byte	0x1
 1966 0003 25       		.uleb128 0x25
 1967 0004 0E       		.uleb128 0xe
 1968 0005 13       		.uleb128 0x13
 1969 0006 0B       		.uleb128 0xb
 1970 0007 03       		.uleb128 0x3
 1971 0008 0E       		.uleb128 0xe
 1972 0009 1B       		.uleb128 0x1b
 1973 000a 0E       		.uleb128 0xe
 1974 000b 55       		.uleb128 0x55
 1975 000c 17       		.uleb128 0x17
 1976 000d 11       		.uleb128 0x11
 1977 000e 01       		.uleb128 0x1
 1978 000f 10       		.uleb128 0x10
 1979 0010 17       		.uleb128 0x17
 1980 0011 00       		.byte	0
 1981 0012 00       		.byte	0
 1982 0013 02       		.uleb128 0x2
 1983 0014 24       		.uleb128 0x24
 1984 0015 00       		.byte	0
 1985 0016 0B       		.uleb128 0xb
 1986 0017 0B       		.uleb128 0xb
 1987 0018 3E       		.uleb128 0x3e
 1988 0019 0B       		.uleb128 0xb
 1989 001a 03       		.uleb128 0x3
 1990 001b 08       		.uleb128 0x8
 1991 001c 00       		.byte	0
 1992 001d 00       		.byte	0
 1993 001e 03       		.uleb128 0x3
ARM GAS  /var/folders/d2/nstgp4h54kz7g1l847x_b8wc0000gn/T//ccFz8f4B.s 			page 36


 1994 001f 16       		.uleb128 0x16
 1995 0020 00       		.byte	0
 1996 0021 03       		.uleb128 0x3
 1997 0022 0E       		.uleb128 0xe
 1998 0023 3A       		.uleb128 0x3a
 1999 0024 0B       		.uleb128 0xb
 2000 0025 3B       		.uleb128 0x3b
 2001 0026 0B       		.uleb128 0xb
 2002 0027 49       		.uleb128 0x49
 2003 0028 13       		.uleb128 0x13
 2004 0029 00       		.byte	0
 2005 002a 00       		.byte	0
 2006 002b 04       		.uleb128 0x4
 2007 002c 24       		.uleb128 0x24
 2008 002d 00       		.byte	0
 2009 002e 0B       		.uleb128 0xb
 2010 002f 0B       		.uleb128 0xb
 2011 0030 3E       		.uleb128 0x3e
 2012 0031 0B       		.uleb128 0xb
 2013 0032 03       		.uleb128 0x3
 2014 0033 0E       		.uleb128 0xe
 2015 0034 00       		.byte	0
 2016 0035 00       		.byte	0
 2017 0036 05       		.uleb128 0x5
 2018 0037 35       		.uleb128 0x35
 2019 0038 00       		.byte	0
 2020 0039 49       		.uleb128 0x49
 2021 003a 13       		.uleb128 0x13
 2022 003b 00       		.byte	0
 2023 003c 00       		.byte	0
 2024 003d 06       		.uleb128 0x6
 2025 003e 13       		.uleb128 0x13
 2026 003f 01       		.byte	0x1
 2027 0040 03       		.uleb128 0x3
 2028 0041 0E       		.uleb128 0xe
 2029 0042 0B       		.uleb128 0xb
 2030 0043 0B       		.uleb128 0xb
 2031 0044 3A       		.uleb128 0x3a
 2032 0045 0B       		.uleb128 0xb
 2033 0046 3B       		.uleb128 0x3b
 2034 0047 0B       		.uleb128 0xb
 2035 0048 01       		.uleb128 0x1
 2036 0049 13       		.uleb128 0x13
 2037 004a 00       		.byte	0
 2038 004b 00       		.byte	0
 2039 004c 07       		.uleb128 0x7
 2040 004d 0D       		.uleb128 0xd
 2041 004e 00       		.byte	0
 2042 004f 03       		.uleb128 0x3
 2043 0050 0E       		.uleb128 0xe
 2044 0051 3A       		.uleb128 0x3a
 2045 0052 0B       		.uleb128 0xb
 2046 0053 3B       		.uleb128 0x3b
 2047 0054 0B       		.uleb128 0xb
 2048 0055 49       		.uleb128 0x49
 2049 0056 13       		.uleb128 0x13
 2050 0057 38       		.uleb128 0x38
ARM GAS  /var/folders/d2/nstgp4h54kz7g1l847x_b8wc0000gn/T//ccFz8f4B.s 			page 37


 2051 0058 0B       		.uleb128 0xb
 2052 0059 00       		.byte	0
 2053 005a 00       		.byte	0
 2054 005b 08       		.uleb128 0x8
 2055 005c 0D       		.uleb128 0xd
 2056 005d 00       		.byte	0
 2057 005e 03       		.uleb128 0x3
 2058 005f 08       		.uleb128 0x8
 2059 0060 3A       		.uleb128 0x3a
 2060 0061 0B       		.uleb128 0xb
 2061 0062 3B       		.uleb128 0x3b
 2062 0063 05       		.uleb128 0x5
 2063 0064 49       		.uleb128 0x49
 2064 0065 13       		.uleb128 0x13
 2065 0066 38       		.uleb128 0x38
 2066 0067 0B       		.uleb128 0xb
 2067 0068 00       		.byte	0
 2068 0069 00       		.byte	0
 2069 006a 09       		.uleb128 0x9
 2070 006b 0D       		.uleb128 0xd
 2071 006c 00       		.byte	0
 2072 006d 03       		.uleb128 0x3
 2073 006e 0E       		.uleb128 0xe
 2074 006f 3A       		.uleb128 0x3a
 2075 0070 0B       		.uleb128 0xb
 2076 0071 3B       		.uleb128 0x3b
 2077 0072 05       		.uleb128 0x5
 2078 0073 49       		.uleb128 0x49
 2079 0074 13       		.uleb128 0x13
 2080 0075 38       		.uleb128 0x38
 2081 0076 0B       		.uleb128 0xb
 2082 0077 00       		.byte	0
 2083 0078 00       		.byte	0
 2084 0079 0A       		.uleb128 0xa
 2085 007a 0F       		.uleb128 0xf
 2086 007b 00       		.byte	0
 2087 007c 0B       		.uleb128 0xb
 2088 007d 0B       		.uleb128 0xb
 2089 007e 49       		.uleb128 0x49
 2090 007f 13       		.uleb128 0x13
 2091 0080 00       		.byte	0
 2092 0081 00       		.byte	0
 2093 0082 0B       		.uleb128 0xb
 2094 0083 13       		.uleb128 0x13
 2095 0084 01       		.byte	0x1
 2096 0085 03       		.uleb128 0x3
 2097 0086 0E       		.uleb128 0xe
 2098 0087 0B       		.uleb128 0xb
 2099 0088 0B       		.uleb128 0xb
 2100 0089 3A       		.uleb128 0x3a
 2101 008a 0B       		.uleb128 0xb
 2102 008b 3B       		.uleb128 0x3b
 2103 008c 05       		.uleb128 0x5
 2104 008d 01       		.uleb128 0x1
 2105 008e 13       		.uleb128 0x13
 2106 008f 00       		.byte	0
 2107 0090 00       		.byte	0
ARM GAS  /var/folders/d2/nstgp4h54kz7g1l847x_b8wc0000gn/T//ccFz8f4B.s 			page 38


 2108 0091 0C       		.uleb128 0xc
 2109 0092 15       		.uleb128 0x15
 2110 0093 01       		.byte	0x1
 2111 0094 27       		.uleb128 0x27
 2112 0095 19       		.uleb128 0x19
 2113 0096 01       		.uleb128 0x1
 2114 0097 13       		.uleb128 0x13
 2115 0098 00       		.byte	0
 2116 0099 00       		.byte	0
 2117 009a 0D       		.uleb128 0xd
 2118 009b 05       		.uleb128 0x5
 2119 009c 00       		.byte	0
 2120 009d 49       		.uleb128 0x49
 2121 009e 13       		.uleb128 0x13
 2122 009f 00       		.byte	0
 2123 00a0 00       		.byte	0
 2124 00a1 0E       		.uleb128 0xe
 2125 00a2 0F       		.uleb128 0xf
 2126 00a3 00       		.byte	0
 2127 00a4 0B       		.uleb128 0xb
 2128 00a5 0B       		.uleb128 0xb
 2129 00a6 00       		.byte	0
 2130 00a7 00       		.byte	0
 2131 00a8 0F       		.uleb128 0xf
 2132 00a9 13       		.uleb128 0x13
 2133 00aa 01       		.byte	0x1
 2134 00ab 03       		.uleb128 0x3
 2135 00ac 0E       		.uleb128 0xe
 2136 00ad 0B       		.uleb128 0xb
 2137 00ae 05       		.uleb128 0x5
 2138 00af 3A       		.uleb128 0x3a
 2139 00b0 0B       		.uleb128 0xb
 2140 00b1 3B       		.uleb128 0x3b
 2141 00b2 05       		.uleb128 0x5
 2142 00b3 01       		.uleb128 0x1
 2143 00b4 13       		.uleb128 0x13
 2144 00b5 00       		.byte	0
 2145 00b6 00       		.byte	0
 2146 00b7 10       		.uleb128 0x10
 2147 00b8 0D       		.uleb128 0xd
 2148 00b9 00       		.byte	0
 2149 00ba 03       		.uleb128 0x3
 2150 00bb 0E       		.uleb128 0xe
 2151 00bc 3A       		.uleb128 0x3a
 2152 00bd 0B       		.uleb128 0xb
 2153 00be 3B       		.uleb128 0x3b
 2154 00bf 05       		.uleb128 0x5
 2155 00c0 49       		.uleb128 0x49
 2156 00c1 13       		.uleb128 0x13
 2157 00c2 38       		.uleb128 0x38
 2158 00c3 05       		.uleb128 0x5
 2159 00c4 00       		.byte	0
 2160 00c5 00       		.byte	0
 2161 00c6 11       		.uleb128 0x11
 2162 00c7 0D       		.uleb128 0xd
 2163 00c8 00       		.byte	0
 2164 00c9 03       		.uleb128 0x3
ARM GAS  /var/folders/d2/nstgp4h54kz7g1l847x_b8wc0000gn/T//ccFz8f4B.s 			page 39


 2165 00ca 08       		.uleb128 0x8
 2166 00cb 3A       		.uleb128 0x3a
 2167 00cc 0B       		.uleb128 0xb
 2168 00cd 3B       		.uleb128 0x3b
 2169 00ce 05       		.uleb128 0x5
 2170 00cf 49       		.uleb128 0x49
 2171 00d0 13       		.uleb128 0x13
 2172 00d1 38       		.uleb128 0x38
 2173 00d2 05       		.uleb128 0x5
 2174 00d3 00       		.byte	0
 2175 00d4 00       		.byte	0
 2176 00d5 12       		.uleb128 0x12
 2177 00d6 34       		.uleb128 0x34
 2178 00d7 00       		.byte	0
 2179 00d8 03       		.uleb128 0x3
 2180 00d9 0E       		.uleb128 0xe
 2181 00da 3A       		.uleb128 0x3a
 2182 00db 0B       		.uleb128 0xb
 2183 00dc 3B       		.uleb128 0x3b
 2184 00dd 05       		.uleb128 0x5
 2185 00de 49       		.uleb128 0x49
 2186 00df 13       		.uleb128 0x13
 2187 00e0 3F       		.uleb128 0x3f
 2188 00e1 19       		.uleb128 0x19
 2189 00e2 3C       		.uleb128 0x3c
 2190 00e3 19       		.uleb128 0x19
 2191 00e4 00       		.byte	0
 2192 00e5 00       		.byte	0
 2193 00e6 13       		.uleb128 0x13
 2194 00e7 34       		.uleb128 0x34
 2195 00e8 00       		.byte	0
 2196 00e9 03       		.uleb128 0x3
 2197 00ea 0E       		.uleb128 0xe
 2198 00eb 3A       		.uleb128 0x3a
 2199 00ec 0B       		.uleb128 0xb
 2200 00ed 3B       		.uleb128 0x3b
 2201 00ee 0B       		.uleb128 0xb
 2202 00ef 49       		.uleb128 0x49
 2203 00f0 13       		.uleb128 0x13
 2204 00f1 3F       		.uleb128 0x3f
 2205 00f2 19       		.uleb128 0x19
 2206 00f3 3C       		.uleb128 0x3c
 2207 00f4 19       		.uleb128 0x19
 2208 00f5 00       		.byte	0
 2209 00f6 00       		.byte	0
 2210 00f7 14       		.uleb128 0x14
 2211 00f8 0D       		.uleb128 0xd
 2212 00f9 00       		.byte	0
 2213 00fa 03       		.uleb128 0x3
 2214 00fb 08       		.uleb128 0x8
 2215 00fc 3A       		.uleb128 0x3a
 2216 00fd 0B       		.uleb128 0xb
 2217 00fe 3B       		.uleb128 0x3b
 2218 00ff 0B       		.uleb128 0xb
 2219 0100 49       		.uleb128 0x49
 2220 0101 13       		.uleb128 0x13
 2221 0102 38       		.uleb128 0x38
ARM GAS  /var/folders/d2/nstgp4h54kz7g1l847x_b8wc0000gn/T//ccFz8f4B.s 			page 40


 2222 0103 0B       		.uleb128 0xb
 2223 0104 00       		.byte	0
 2224 0105 00       		.byte	0
 2225 0106 15       		.uleb128 0x15
 2226 0107 13       		.uleb128 0x13
 2227 0108 01       		.byte	0x1
 2228 0109 0B       		.uleb128 0xb
 2229 010a 0B       		.uleb128 0xb
 2230 010b 3A       		.uleb128 0x3a
 2231 010c 0B       		.uleb128 0xb
 2232 010d 3B       		.uleb128 0x3b
 2233 010e 0B       		.uleb128 0xb
 2234 010f 01       		.uleb128 0x1
 2235 0110 13       		.uleb128 0x13
 2236 0111 00       		.byte	0
 2237 0112 00       		.byte	0
 2238 0113 16       		.uleb128 0x16
 2239 0114 13       		.uleb128 0x13
 2240 0115 01       		.byte	0x1
 2241 0116 0B       		.uleb128 0xb
 2242 0117 05       		.uleb128 0x5
 2243 0118 3A       		.uleb128 0x3a
 2244 0119 0B       		.uleb128 0xb
 2245 011a 3B       		.uleb128 0x3b
 2246 011b 0B       		.uleb128 0xb
 2247 011c 01       		.uleb128 0x1
 2248 011d 13       		.uleb128 0x13
 2249 011e 00       		.byte	0
 2250 011f 00       		.byte	0
 2251 0120 17       		.uleb128 0x17
 2252 0121 01       		.uleb128 0x1
 2253 0122 01       		.byte	0x1
 2254 0123 49       		.uleb128 0x49
 2255 0124 13       		.uleb128 0x13
 2256 0125 01       		.uleb128 0x1
 2257 0126 13       		.uleb128 0x13
 2258 0127 00       		.byte	0
 2259 0128 00       		.byte	0
 2260 0129 18       		.uleb128 0x18
 2261 012a 21       		.uleb128 0x21
 2262 012b 00       		.byte	0
 2263 012c 49       		.uleb128 0x49
 2264 012d 13       		.uleb128 0x13
 2265 012e 2F       		.uleb128 0x2f
 2266 012f 0B       		.uleb128 0xb
 2267 0130 00       		.byte	0
 2268 0131 00       		.byte	0
 2269 0132 19       		.uleb128 0x19
 2270 0133 17       		.uleb128 0x17
 2271 0134 01       		.byte	0x1
 2272 0135 0B       		.uleb128 0xb
 2273 0136 0B       		.uleb128 0xb
 2274 0137 3A       		.uleb128 0x3a
 2275 0138 0B       		.uleb128 0xb
 2276 0139 3B       		.uleb128 0x3b
 2277 013a 0B       		.uleb128 0xb
 2278 013b 01       		.uleb128 0x1
ARM GAS  /var/folders/d2/nstgp4h54kz7g1l847x_b8wc0000gn/T//ccFz8f4B.s 			page 41


 2279 013c 13       		.uleb128 0x13
 2280 013d 00       		.byte	0
 2281 013e 00       		.byte	0
 2282 013f 1A       		.uleb128 0x1a
 2283 0140 0D       		.uleb128 0xd
 2284 0141 00       		.byte	0
 2285 0142 03       		.uleb128 0x3
 2286 0143 0E       		.uleb128 0xe
 2287 0144 3A       		.uleb128 0x3a
 2288 0145 0B       		.uleb128 0xb
 2289 0146 3B       		.uleb128 0x3b
 2290 0147 05       		.uleb128 0x5
 2291 0148 49       		.uleb128 0x49
 2292 0149 13       		.uleb128 0x13
 2293 014a 00       		.byte	0
 2294 014b 00       		.byte	0
 2295 014c 1B       		.uleb128 0x1b
 2296 014d 26       		.uleb128 0x26
 2297 014e 00       		.byte	0
 2298 014f 49       		.uleb128 0x49
 2299 0150 13       		.uleb128 0x13
 2300 0151 00       		.byte	0
 2301 0152 00       		.byte	0
 2302 0153 1C       		.uleb128 0x1c
 2303 0154 34       		.uleb128 0x34
 2304 0155 00       		.byte	0
 2305 0156 03       		.uleb128 0x3
 2306 0157 08       		.uleb128 0x8
 2307 0158 3A       		.uleb128 0x3a
 2308 0159 0B       		.uleb128 0xb
 2309 015a 3B       		.uleb128 0x3b
 2310 015b 05       		.uleb128 0x5
 2311 015c 49       		.uleb128 0x49
 2312 015d 13       		.uleb128 0x13
 2313 015e 3F       		.uleb128 0x3f
 2314 015f 19       		.uleb128 0x19
 2315 0160 3C       		.uleb128 0x3c
 2316 0161 19       		.uleb128 0x19
 2317 0162 00       		.byte	0
 2318 0163 00       		.byte	0
 2319 0164 1D       		.uleb128 0x1d
 2320 0165 34       		.uleb128 0x34
 2321 0166 00       		.byte	0
 2322 0167 03       		.uleb128 0x3
 2323 0168 0E       		.uleb128 0xe
 2324 0169 3A       		.uleb128 0x3a
 2325 016a 0B       		.uleb128 0xb
 2326 016b 3B       		.uleb128 0x3b
 2327 016c 0B       		.uleb128 0xb
 2328 016d 49       		.uleb128 0x49
 2329 016e 13       		.uleb128 0x13
 2330 016f 02       		.uleb128 0x2
 2331 0170 18       		.uleb128 0x18
 2332 0171 00       		.byte	0
 2333 0172 00       		.byte	0
 2334 0173 1E       		.uleb128 0x1e
 2335 0174 2E       		.uleb128 0x2e
ARM GAS  /var/folders/d2/nstgp4h54kz7g1l847x_b8wc0000gn/T//ccFz8f4B.s 			page 42


 2336 0175 01       		.byte	0x1
 2337 0176 3F       		.uleb128 0x3f
 2338 0177 19       		.uleb128 0x19
 2339 0178 03       		.uleb128 0x3
 2340 0179 0E       		.uleb128 0xe
 2341 017a 3A       		.uleb128 0x3a
 2342 017b 0B       		.uleb128 0xb
 2343 017c 3B       		.uleb128 0x3b
 2344 017d 0B       		.uleb128 0xb
 2345 017e 27       		.uleb128 0x27
 2346 017f 19       		.uleb128 0x19
 2347 0180 49       		.uleb128 0x49
 2348 0181 13       		.uleb128 0x13
 2349 0182 11       		.uleb128 0x11
 2350 0183 01       		.uleb128 0x1
 2351 0184 12       		.uleb128 0x12
 2352 0185 06       		.uleb128 0x6
 2353 0186 40       		.uleb128 0x40
 2354 0187 18       		.uleb128 0x18
 2355 0188 9742     		.uleb128 0x2117
 2356 018a 19       		.uleb128 0x19
 2357 018b 01       		.uleb128 0x1
 2358 018c 13       		.uleb128 0x13
 2359 018d 00       		.byte	0
 2360 018e 00       		.byte	0
 2361 018f 1F       		.uleb128 0x1f
 2362 0190 898201   		.uleb128 0x4109
 2363 0193 00       		.byte	0
 2364 0194 11       		.uleb128 0x11
 2365 0195 01       		.uleb128 0x1
 2366 0196 31       		.uleb128 0x31
 2367 0197 13       		.uleb128 0x13
 2368 0198 00       		.byte	0
 2369 0199 00       		.byte	0
 2370 019a 20       		.uleb128 0x20
 2371 019b 2E       		.uleb128 0x2e
 2372 019c 01       		.byte	0x1
 2373 019d 3F       		.uleb128 0x3f
 2374 019e 19       		.uleb128 0x19
 2375 019f 03       		.uleb128 0x3
 2376 01a0 0E       		.uleb128 0xe
 2377 01a1 3A       		.uleb128 0x3a
 2378 01a2 0B       		.uleb128 0xb
 2379 01a3 3B       		.uleb128 0x3b
 2380 01a4 0B       		.uleb128 0xb
 2381 01a5 27       		.uleb128 0x27
 2382 01a6 19       		.uleb128 0x19
 2383 01a7 49       		.uleb128 0x49
 2384 01a8 13       		.uleb128 0x13
 2385 01a9 20       		.uleb128 0x20
 2386 01aa 0B       		.uleb128 0xb
 2387 01ab 01       		.uleb128 0x1
 2388 01ac 13       		.uleb128 0x13
 2389 01ad 00       		.byte	0
 2390 01ae 00       		.byte	0
 2391 01af 21       		.uleb128 0x21
 2392 01b0 05       		.uleb128 0x5
ARM GAS  /var/folders/d2/nstgp4h54kz7g1l847x_b8wc0000gn/T//ccFz8f4B.s 			page 43


 2393 01b1 00       		.byte	0
 2394 01b2 03       		.uleb128 0x3
 2395 01b3 0E       		.uleb128 0xe
 2396 01b4 3A       		.uleb128 0x3a
 2397 01b5 0B       		.uleb128 0xb
 2398 01b6 3B       		.uleb128 0x3b
 2399 01b7 0B       		.uleb128 0xb
 2400 01b8 49       		.uleb128 0x49
 2401 01b9 13       		.uleb128 0x13
 2402 01ba 00       		.byte	0
 2403 01bb 00       		.byte	0
 2404 01bc 22       		.uleb128 0x22
 2405 01bd 34       		.uleb128 0x34
 2406 01be 00       		.byte	0
 2407 01bf 03       		.uleb128 0x3
 2408 01c0 08       		.uleb128 0x8
 2409 01c1 3A       		.uleb128 0x3a
 2410 01c2 0B       		.uleb128 0xb
 2411 01c3 3B       		.uleb128 0x3b
 2412 01c4 0B       		.uleb128 0xb
 2413 01c5 49       		.uleb128 0x49
 2414 01c6 13       		.uleb128 0x13
 2415 01c7 00       		.byte	0
 2416 01c8 00       		.byte	0
 2417 01c9 23       		.uleb128 0x23
 2418 01ca 05       		.uleb128 0x5
 2419 01cb 00       		.byte	0
 2420 01cc 03       		.uleb128 0x3
 2421 01cd 0E       		.uleb128 0xe
 2422 01ce 3A       		.uleb128 0x3a
 2423 01cf 0B       		.uleb128 0xb
 2424 01d0 3B       		.uleb128 0x3b
 2425 01d1 0B       		.uleb128 0xb
 2426 01d2 49       		.uleb128 0x49
 2427 01d3 13       		.uleb128 0x13
 2428 01d4 02       		.uleb128 0x2
 2429 01d5 17       		.uleb128 0x17
 2430 01d6 00       		.byte	0
 2431 01d7 00       		.byte	0
 2432 01d8 24       		.uleb128 0x24
 2433 01d9 1D       		.uleb128 0x1d
 2434 01da 01       		.byte	0x1
 2435 01db 31       		.uleb128 0x31
 2436 01dc 13       		.uleb128 0x13
 2437 01dd 11       		.uleb128 0x11
 2438 01de 01       		.uleb128 0x1
 2439 01df 12       		.uleb128 0x12
 2440 01e0 06       		.uleb128 0x6
 2441 01e1 58       		.uleb128 0x58
 2442 01e2 0B       		.uleb128 0xb
 2443 01e3 59       		.uleb128 0x59
 2444 01e4 0B       		.uleb128 0xb
 2445 01e5 01       		.uleb128 0x1
 2446 01e6 13       		.uleb128 0x13
 2447 01e7 00       		.byte	0
 2448 01e8 00       		.byte	0
 2449 01e9 25       		.uleb128 0x25
ARM GAS  /var/folders/d2/nstgp4h54kz7g1l847x_b8wc0000gn/T//ccFz8f4B.s 			page 44


 2450 01ea 1D       		.uleb128 0x1d
 2451 01eb 01       		.byte	0x1
 2452 01ec 31       		.uleb128 0x31
 2453 01ed 13       		.uleb128 0x13
 2454 01ee 11       		.uleb128 0x11
 2455 01ef 01       		.uleb128 0x1
 2456 01f0 12       		.uleb128 0x12
 2457 01f1 06       		.uleb128 0x6
 2458 01f2 58       		.uleb128 0x58
 2459 01f3 0B       		.uleb128 0xb
 2460 01f4 59       		.uleb128 0x59
 2461 01f5 05       		.uleb128 0x5
 2462 01f6 01       		.uleb128 0x1
 2463 01f7 13       		.uleb128 0x13
 2464 01f8 00       		.byte	0
 2465 01f9 00       		.byte	0
 2466 01fa 26       		.uleb128 0x26
 2467 01fb 1D       		.uleb128 0x1d
 2468 01fc 01       		.byte	0x1
 2469 01fd 31       		.uleb128 0x31
 2470 01fe 13       		.uleb128 0x13
 2471 01ff 11       		.uleb128 0x11
 2472 0200 01       		.uleb128 0x1
 2473 0201 12       		.uleb128 0x12
 2474 0202 06       		.uleb128 0x6
 2475 0203 58       		.uleb128 0x58
 2476 0204 0B       		.uleb128 0xb
 2477 0205 59       		.uleb128 0x59
 2478 0206 05       		.uleb128 0x5
 2479 0207 00       		.byte	0
 2480 0208 00       		.byte	0
 2481 0209 27       		.uleb128 0x27
 2482 020a 05       		.uleb128 0x5
 2483 020b 00       		.byte	0
 2484 020c 31       		.uleb128 0x31
 2485 020d 13       		.uleb128 0x13
 2486 020e 02       		.uleb128 0x2
 2487 020f 17       		.uleb128 0x17
 2488 0210 00       		.byte	0
 2489 0211 00       		.byte	0
 2490 0212 28       		.uleb128 0x28
 2491 0213 0B       		.uleb128 0xb
 2492 0214 01       		.byte	0x1
 2493 0215 11       		.uleb128 0x11
 2494 0216 01       		.uleb128 0x1
 2495 0217 12       		.uleb128 0x12
 2496 0218 06       		.uleb128 0x6
 2497 0219 00       		.byte	0
 2498 021a 00       		.byte	0
 2499 021b 29       		.uleb128 0x29
 2500 021c 34       		.uleb128 0x34
 2501 021d 00       		.byte	0
 2502 021e 31       		.uleb128 0x31
 2503 021f 13       		.uleb128 0x13
 2504 0220 02       		.uleb128 0x2
 2505 0221 17       		.uleb128 0x17
 2506 0222 00       		.byte	0
ARM GAS  /var/folders/d2/nstgp4h54kz7g1l847x_b8wc0000gn/T//ccFz8f4B.s 			page 45


 2507 0223 00       		.byte	0
 2508 0224 2A       		.uleb128 0x2a
 2509 0225 1D       		.uleb128 0x1d
 2510 0226 01       		.byte	0x1
 2511 0227 31       		.uleb128 0x31
 2512 0228 13       		.uleb128 0x13
 2513 0229 52       		.uleb128 0x52
 2514 022a 01       		.uleb128 0x1
 2515 022b 55       		.uleb128 0x55
 2516 022c 17       		.uleb128 0x17
 2517 022d 58       		.uleb128 0x58
 2518 022e 0B       		.uleb128 0xb
 2519 022f 59       		.uleb128 0x59
 2520 0230 0B       		.uleb128 0xb
 2521 0231 01       		.uleb128 0x1
 2522 0232 13       		.uleb128 0x13
 2523 0233 00       		.byte	0
 2524 0234 00       		.byte	0
 2525 0235 2B       		.uleb128 0x2b
 2526 0236 0B       		.uleb128 0xb
 2527 0237 01       		.byte	0x1
 2528 0238 55       		.uleb128 0x55
 2529 0239 17       		.uleb128 0x17
 2530 023a 00       		.byte	0
 2531 023b 00       		.byte	0
 2532 023c 2C       		.uleb128 0x2c
 2533 023d 34       		.uleb128 0x34
 2534 023e 00       		.byte	0
 2535 023f 31       		.uleb128 0x31
 2536 0240 13       		.uleb128 0x13
 2537 0241 00       		.byte	0
 2538 0242 00       		.byte	0
 2539 0243 2D       		.uleb128 0x2d
 2540 0244 898201   		.uleb128 0x4109
 2541 0247 01       		.byte	0x1
 2542 0248 11       		.uleb128 0x11
 2543 0249 01       		.uleb128 0x1
 2544 024a 31       		.uleb128 0x31
 2545 024b 13       		.uleb128 0x13
 2546 024c 00       		.byte	0
 2547 024d 00       		.byte	0
 2548 024e 2E       		.uleb128 0x2e
 2549 024f 8A8201   		.uleb128 0x410a
 2550 0252 00       		.byte	0
 2551 0253 02       		.uleb128 0x2
 2552 0254 18       		.uleb128 0x18
 2553 0255 9142     		.uleb128 0x2111
 2554 0257 18       		.uleb128 0x18
 2555 0258 00       		.byte	0
 2556 0259 00       		.byte	0
 2557 025a 2F       		.uleb128 0x2f
 2558 025b 2E       		.uleb128 0x2e
 2559 025c 01       		.byte	0x1
 2560 025d 3F       		.uleb128 0x3f
 2561 025e 19       		.uleb128 0x19
 2562 025f 03       		.uleb128 0x3
 2563 0260 0E       		.uleb128 0xe
ARM GAS  /var/folders/d2/nstgp4h54kz7g1l847x_b8wc0000gn/T//ccFz8f4B.s 			page 46


 2564 0261 3A       		.uleb128 0x3a
 2565 0262 0B       		.uleb128 0xb
 2566 0263 3B       		.uleb128 0x3b
 2567 0264 0B       		.uleb128 0xb
 2568 0265 27       		.uleb128 0x27
 2569 0266 19       		.uleb128 0x19
 2570 0267 11       		.uleb128 0x11
 2571 0268 01       		.uleb128 0x1
 2572 0269 12       		.uleb128 0x12
 2573 026a 06       		.uleb128 0x6
 2574 026b 40       		.uleb128 0x40
 2575 026c 18       		.uleb128 0x18
 2576 026d 9742     		.uleb128 0x2117
 2577 026f 19       		.uleb128 0x19
 2578 0270 01       		.uleb128 0x1
 2579 0271 13       		.uleb128 0x13
 2580 0272 00       		.byte	0
 2581 0273 00       		.byte	0
 2582 0274 30       		.uleb128 0x30
 2583 0275 21       		.uleb128 0x21
 2584 0276 00       		.byte	0
 2585 0277 00       		.byte	0
 2586 0278 00       		.byte	0
 2587 0279 31       		.uleb128 0x31
 2588 027a 2E       		.uleb128 0x2e
 2589 027b 01       		.byte	0x1
 2590 027c 03       		.uleb128 0x3
 2591 027d 0E       		.uleb128 0xe
 2592 027e 3A       		.uleb128 0x3a
 2593 027f 0B       		.uleb128 0xb
 2594 0280 3B       		.uleb128 0x3b
 2595 0281 05       		.uleb128 0x5
 2596 0282 27       		.uleb128 0x27
 2597 0283 19       		.uleb128 0x19
 2598 0284 20       		.uleb128 0x20
 2599 0285 0B       		.uleb128 0xb
 2600 0286 01       		.uleb128 0x1
 2601 0287 13       		.uleb128 0x13
 2602 0288 00       		.byte	0
 2603 0289 00       		.byte	0
 2604 028a 32       		.uleb128 0x32
 2605 028b 34       		.uleb128 0x34
 2606 028c 00       		.byte	0
 2607 028d 03       		.uleb128 0x3
 2608 028e 0E       		.uleb128 0xe
 2609 028f 49       		.uleb128 0x49
 2610 0290 13       		.uleb128 0x13
 2611 0291 34       		.uleb128 0x34
 2612 0292 19       		.uleb128 0x19
 2613 0293 1C       		.uleb128 0x1c
 2614 0294 0E       		.uleb128 0xe
 2615 0295 00       		.byte	0
 2616 0296 00       		.byte	0
 2617 0297 33       		.uleb128 0x33
 2618 0298 2E       		.uleb128 0x2e
 2619 0299 00       		.byte	0
 2620 029a 03       		.uleb128 0x3
ARM GAS  /var/folders/d2/nstgp4h54kz7g1l847x_b8wc0000gn/T//ccFz8f4B.s 			page 47


 2621 029b 0E       		.uleb128 0xe
 2622 029c 3A       		.uleb128 0x3a
 2623 029d 0B       		.uleb128 0xb
 2624 029e 3B       		.uleb128 0x3b
 2625 029f 05       		.uleb128 0x5
 2626 02a0 27       		.uleb128 0x27
 2627 02a1 19       		.uleb128 0x19
 2628 02a2 20       		.uleb128 0x20
 2629 02a3 0B       		.uleb128 0xb
 2630 02a4 00       		.byte	0
 2631 02a5 00       		.byte	0
 2632 02a6 34       		.uleb128 0x34
 2633 02a7 05       		.uleb128 0x5
 2634 02a8 00       		.byte	0
 2635 02a9 03       		.uleb128 0x3
 2636 02aa 0E       		.uleb128 0xe
 2637 02ab 3A       		.uleb128 0x3a
 2638 02ac 0B       		.uleb128 0xb
 2639 02ad 3B       		.uleb128 0x3b
 2640 02ae 05       		.uleb128 0x5
 2641 02af 49       		.uleb128 0x49
 2642 02b0 13       		.uleb128 0x13
 2643 02b1 00       		.byte	0
 2644 02b2 00       		.byte	0
 2645 02b3 35       		.uleb128 0x35
 2646 02b4 2E       		.uleb128 0x2e
 2647 02b5 01       		.byte	0x1
 2648 02b6 31       		.uleb128 0x31
 2649 02b7 13       		.uleb128 0x13
 2650 02b8 11       		.uleb128 0x11
 2651 02b9 01       		.uleb128 0x1
 2652 02ba 12       		.uleb128 0x12
 2653 02bb 06       		.uleb128 0x6
 2654 02bc 40       		.uleb128 0x40
 2655 02bd 18       		.uleb128 0x18
 2656 02be 9742     		.uleb128 0x2117
 2657 02c0 19       		.uleb128 0x19
 2658 02c1 01       		.uleb128 0x1
 2659 02c2 13       		.uleb128 0x13
 2660 02c3 00       		.byte	0
 2661 02c4 00       		.byte	0
 2662 02c5 36       		.uleb128 0x36
 2663 02c6 2E       		.uleb128 0x2e
 2664 02c7 00       		.byte	0
 2665 02c8 3F       		.uleb128 0x3f
 2666 02c9 19       		.uleb128 0x19
 2667 02ca 3C       		.uleb128 0x3c
 2668 02cb 19       		.uleb128 0x19
 2669 02cc 6E       		.uleb128 0x6e
 2670 02cd 0E       		.uleb128 0xe
 2671 02ce 03       		.uleb128 0x3
 2672 02cf 0E       		.uleb128 0xe
 2673 02d0 00       		.byte	0
 2674 02d1 00       		.byte	0
 2675 02d2 37       		.uleb128 0x37
 2676 02d3 2E       		.uleb128 0x2e
 2677 02d4 00       		.byte	0
ARM GAS  /var/folders/d2/nstgp4h54kz7g1l847x_b8wc0000gn/T//ccFz8f4B.s 			page 48


 2678 02d5 3F       		.uleb128 0x3f
 2679 02d6 19       		.uleb128 0x19
 2680 02d7 3C       		.uleb128 0x3c
 2681 02d8 19       		.uleb128 0x19
 2682 02d9 6E       		.uleb128 0x6e
 2683 02da 0E       		.uleb128 0xe
 2684 02db 03       		.uleb128 0x3
 2685 02dc 0E       		.uleb128 0xe
 2686 02dd 3A       		.uleb128 0x3a
 2687 02de 0B       		.uleb128 0xb
 2688 02df 3B       		.uleb128 0x3b
 2689 02e0 0B       		.uleb128 0xb
 2690 02e1 00       		.byte	0
 2691 02e2 00       		.byte	0
 2692 02e3 38       		.uleb128 0x38
 2693 02e4 2E       		.uleb128 0x2e
 2694 02e5 00       		.byte	0
 2695 02e6 3F       		.uleb128 0x3f
 2696 02e7 19       		.uleb128 0x19
 2697 02e8 3C       		.uleb128 0x3c
 2698 02e9 19       		.uleb128 0x19
 2699 02ea 6E       		.uleb128 0x6e
 2700 02eb 0E       		.uleb128 0xe
 2701 02ec 03       		.uleb128 0x3
 2702 02ed 0E       		.uleb128 0xe
 2703 02ee 3A       		.uleb128 0x3a
 2704 02ef 0B       		.uleb128 0xb
 2705 02f0 3B       		.uleb128 0x3b
 2706 02f1 05       		.uleb128 0x5
 2707 02f2 00       		.byte	0
 2708 02f3 00       		.byte	0
 2709 02f4 00       		.byte	0
 2710              		.section	.debug_loc,"",%progbits
 2711              	.Ldebug_loc0:
 2712              	.LLST0:
 2713 0000 00000000 		.4byte	.LVL1
 2714 0004 15000000 		.4byte	.LVL4-1
 2715 0008 0100     		.2byte	0x1
 2716 000a 50       		.byte	0x50
 2717 000b 15000000 		.4byte	.LVL4-1
 2718 000f 88000000 		.4byte	.LFE220
 2719 0013 0100     		.2byte	0x1
 2720 0015 54       		.byte	0x54
 2721 0016 00000000 		.4byte	0
 2722 001a 00000000 		.4byte	0
 2723              	.LLST1:
 2724 001e 0A000000 		.4byte	.LVL2
 2725 0022 12000000 		.4byte	.LVL3
 2726 0026 0300     		.2byte	0x3
 2727 0028 08       		.byte	0x8
 2728 0029 20       		.byte	0x20
 2729 002a 9F       		.byte	0x9f
 2730 002b 00000000 		.4byte	0
 2731 002f 00000000 		.4byte	0
 2732              	.LLST2:
 2733 0033 1A000000 		.4byte	.LVL5
 2734 0037 2C000000 		.4byte	.LVL7
ARM GAS  /var/folders/d2/nstgp4h54kz7g1l847x_b8wc0000gn/T//ccFz8f4B.s 			page 49


 2735 003b 0100     		.2byte	0x1
 2736 003d 54       		.byte	0x54
 2737 003e 2C000000 		.4byte	.LVL7
 2738 0042 34000000 		.4byte	.LVL9
 2739 0046 0100     		.2byte	0x1
 2740 0048 50       		.byte	0x50
 2741 0049 34000000 		.4byte	.LVL9
 2742 004d 38000000 		.4byte	.LVL10
 2743 0051 0600     		.2byte	0x6
 2744 0053 74       		.byte	0x74
 2745 0054 07       		.sleb128 7
 2746 0055 09       		.byte	0x9
 2747 0056 F8       		.byte	0xf8
 2748 0057 1A       		.byte	0x1a
 2749 0058 9F       		.byte	0x9f
 2750 0059 00000000 		.4byte	0
 2751 005d 00000000 		.4byte	0
 2752              	.LLST3:
 2753 0061 30000000 		.4byte	.LVL8
 2754 0065 38000000 		.4byte	.LVL10
 2755 0069 0100     		.2byte	0x1
 2756 006b 55       		.byte	0x55
 2757 006c 00000000 		.4byte	0
 2758 0070 00000000 		.4byte	0
 2759              	.LLST4:
 2760 0074 52000000 		.4byte	.LVL13
 2761 0078 58000000 		.4byte	.LVL14
 2762 007c 0200     		.2byte	0x2
 2763 007e 30       		.byte	0x30
 2764 007f 9F       		.byte	0x9f
 2765 0080 00000000 		.4byte	0
 2766 0084 00000000 		.4byte	0
 2767              	.LLST5:
 2768 0088 00000000 		.4byte	.LVL18
 2769 008c 0F000000 		.4byte	.LVL19-1
 2770 0090 0100     		.2byte	0x1
 2771 0092 50       		.byte	0x50
 2772 0093 0F000000 		.4byte	.LVL19-1
 2773 0097 1E000000 		.4byte	.LVL20
 2774 009b 0100     		.2byte	0x1
 2775 009d 54       		.byte	0x54
 2776 009e 1E000000 		.4byte	.LVL20
 2777 00a2 26000000 		.4byte	.LVL22
 2778 00a6 0100     		.2byte	0x1
 2779 00a8 53       		.byte	0x53
 2780 00a9 26000000 		.4byte	.LVL22
 2781 00ad 48000000 		.4byte	.LFE221
 2782 00b1 0600     		.2byte	0x6
 2783 00b3 74       		.byte	0x74
 2784 00b4 07       		.sleb128 7
 2785 00b5 09       		.byte	0x9
 2786 00b6 F8       		.byte	0xf8
 2787 00b7 1A       		.byte	0x1a
 2788 00b8 9F       		.byte	0x9f
 2789 00b9 00000000 		.4byte	0
 2790 00bd 00000000 		.4byte	0
 2791              	.LLST6:
ARM GAS  /var/folders/d2/nstgp4h54kz7g1l847x_b8wc0000gn/T//ccFz8f4B.s 			page 50


 2792 00c1 22000000 		.4byte	.LVL21
 2793 00c5 30000000 		.4byte	.LVL23
 2794 00c9 0100     		.2byte	0x1
 2795 00cb 50       		.byte	0x50
 2796 00cc 00000000 		.4byte	0
 2797 00d0 00000000 		.4byte	0
 2798              		.section	.debug_aranges,"",%progbits
 2799 0000 34000000 		.4byte	0x34
 2800 0004 0200     		.2byte	0x2
 2801 0006 00000000 		.4byte	.Ldebug_info0
 2802 000a 04       		.byte	0x4
 2803 000b 00       		.byte	0
 2804 000c 0000     		.2byte	0
 2805 000e 0000     		.2byte	0
 2806 0010 00000000 		.4byte	.LFB219
 2807 0014 44000000 		.4byte	.LFE219-.LFB219
 2808 0018 00000000 		.4byte	.LFB220
 2809 001c 88000000 		.4byte	.LFE220-.LFB220
 2810 0020 00000000 		.4byte	.LFB221
 2811 0024 48000000 		.4byte	.LFE221-.LFB221
 2812 0028 00000000 		.4byte	.LFB222
 2813 002c 34000000 		.4byte	.LFE222-.LFB222
 2814 0030 00000000 		.4byte	0
 2815 0034 00000000 		.4byte	0
 2816              		.section	.debug_ranges,"",%progbits
 2817              	.Ldebug_ranges0:
 2818 0000 38000000 		.4byte	.LBB40
 2819 0004 58000000 		.4byte	.LBE40
 2820 0008 66000000 		.4byte	.LBB46
 2821 000c 6E000000 		.4byte	.LBE46
 2822 0010 00000000 		.4byte	0
 2823 0014 00000000 		.4byte	0
 2824 0018 00000000 		.4byte	.LFB219
 2825 001c 44000000 		.4byte	.LFE219
 2826 0020 00000000 		.4byte	.LFB220
 2827 0024 88000000 		.4byte	.LFE220
 2828 0028 00000000 		.4byte	.LFB221
 2829 002c 48000000 		.4byte	.LFE221
 2830 0030 00000000 		.4byte	.LFB222
 2831 0034 34000000 		.4byte	.LFE222
 2832 0038 00000000 		.4byte	0
 2833 003c 00000000 		.4byte	0
 2834              		.section	.debug_line,"",%progbits
 2835              	.Ldebug_line0:
 2836 0000 9A040000 		.section	.debug_str,"MS",%progbits,1
 2836      0200E603 
 2836      00000201 
 2836      FB0E0D00 
 2836      01010101 
 2837              	.LASF158:
 2838 0000 656E646D 		.ascii	"endmem\000"
 2838      656D00
 2839              	.LASF179:
 2840 0007 2F557365 		.ascii	"/Users/bharathkeshavamurthy/Workspaces/Talos/src/ma"
 2840      72732F62 
 2840      68617261 
 2840      74686B65 
ARM GAS  /var/folders/d2/nstgp4h54kz7g1l847x_b8wc0000gn/T//ccFz8f4B.s 			page 51


 2840      73686176 
 2841 003a 696E2F63 		.ascii	"in/cpp/org/purdue/ece/talos/optimize/\000"
 2841      70702F6F 
 2841      72672F70 
 2841      75726475 
 2841      652F6563 
 2842              	.LASF61:
 2843 0060 72656164 		.ascii	"ready_list_t\000"
 2843      795F6C69 
 2843      73745F74 
 2843      00
 2844              	.LASF99:
 2845 006d 73655F74 		.ascii	"se_time\000"
 2845      696D6500 
 2846              	.LASF4:
 2847 0075 73697A65 		.ascii	"size_t\000"
 2847      5F7400
 2848              	.LASF120:
 2849 007c 7264796D 		.ascii	"rdymsg\000"
 2849      736700
 2850              	.LASF20:
 2851 0083 75696E74 		.ascii	"uint64_t\000"
 2851      36345F74 
 2851      00
 2852              	.LASF91:
 2853 008c 6B65726E 		.ascii	"kernel_stats\000"
 2853      656C5F73 
 2853      74617473 
 2853      00
 2854              	.LASF160:
 2855 0099 6368436F 		.ascii	"chCoreAlloc\000"
 2855      7265416C 
 2855      6C6F6300 
 2856              	.LASF5:
 2857 00a5 5F5F7569 		.ascii	"__uint8_t\000"
 2857      6E74385F 
 2857      7400
 2858              	.LASF98:
 2859 00af 706F7274 		.ascii	"port_intctx\000"
 2859      5F696E74 
 2859      63747800 
 2860              	.LASF60:
 2861 00bb 63685F74 		.ascii	"ch_threads_queue\000"
 2861      68726561 
 2861      64735F71 
 2861      75657565 
 2861      00
 2862              	.LASF80:
 2863 00cc 73797374 		.ascii	"system_debug_t\000"
 2863      656D5F64 
 2863      65627567 
 2863      5F7400
 2864              	.LASF166:
 2865 00db 706F7274 		.ascii	"port_lock\000"
 2865      5F6C6F63 
 2865      6B00
 2866              	.LASF111:
ARM GAS  /var/folders/d2/nstgp4h54kz7g1l847x_b8wc0000gn/T//ccFz8f4B.s 			page 52


 2867 00e5 776F7273 		.ascii	"worst\000"
 2867      7400
 2868              	.LASF114:
 2869 00eb 74696D65 		.ascii	"time_measurement_t\000"
 2869      5F6D6561 
 2869      73757265 
 2869      6D656E74 
 2869      5F7400
 2870              	.LASF15:
 2871 00fe 6C6F6E67 		.ascii	"long long unsigned int\000"
 2871      206C6F6E 
 2871      6720756E 
 2871      7369676E 
 2871      65642069 
 2872              	.LASF107:
 2873 0115 63685F74 		.ascii	"ch_trace_buffer_t\000"
 2873      72616365 
 2873      5F627566 
 2873      6665725F 
 2873      7400
 2874              	.LASF159:
 2875 0127 6368436F 		.ascii	"chCoreGetStatusX\000"
 2875      72654765 
 2875      74537461 
 2875      74757358 
 2875      00
 2876              	.LASF142:
 2877 0138 63685F74 		.ascii	"ch_threadsize\000"
 2877      68726561 
 2877      6473697A 
 2877      6500
 2878              	.LASF121:
 2879 0146 65786974 		.ascii	"exitcode\000"
 2879      636F6465 
 2879      00
 2880              	.LASF90:
 2881 014f 6D61696E 		.ascii	"mainthread\000"
 2881      74687265 
 2881      616400
 2882              	.LASF171:
 2883 015a 5F737461 		.ascii	"_stats_start_measure_crit_thd\000"
 2883      74735F73 
 2883      74617274 
 2883      5F6D6561 
 2883      73757265 
 2884              	.LASF77:
 2885 0178 76697274 		.ascii	"virtual_timers_list_t\000"
 2885      75616C5F 
 2885      74696D65 
 2885      72735F6C 
 2885      6973745F 
 2886              	.LASF93:
 2887 018e 49544D5F 		.ascii	"ITM_RxBuffer\000"
 2887      52784275 
 2887      66666572 
 2887      00
 2888              	.LASF22:
ARM GAS  /var/folders/d2/nstgp4h54kz7g1l847x_b8wc0000gn/T//ccFz8f4B.s 			page 53


 2889 019b 72747469 		.ascii	"rttime_t\000"
 2889      6D655F74 
 2889      00
 2890              	.LASF36:
 2891 01a4 705F7072 		.ascii	"p_prio\000"
 2891      696F00
 2892              	.LASF149:
 2893 01ab 63665F6F 		.ascii	"cf_off_state\000"
 2893      66665F73 
 2893      74617465 
 2893      00
 2894              	.LASF156:
 2895 01b8 6D757465 		.ascii	"mutex_t\000"
 2895      785F7400 
 2896              	.LASF1:
 2897 01c0 6C6F6E67 		.ascii	"long long int\000"
 2897      206C6F6E 
 2897      6720696E 
 2897      7400
 2898              	.LASF3:
 2899 01ce 7369676E 		.ascii	"signed char\000"
 2899      65642063 
 2899      68617200 
 2900              	.LASF148:
 2901 01da 63665F6F 		.ascii	"cf_off_stklimit\000"
 2901      66665F73 
 2901      746B6C69 
 2901      6D697400 
 2902              	.LASF150:
 2903 01ea 63665F6F 		.ascii	"cf_off_flags\000"
 2903      66665F66 
 2903      6C616773 
 2903      00
 2904              	.LASF53:
 2905 01f7 705F6D70 		.ascii	"p_mpool\000"
 2905      6F6F6C00 
 2906              	.LASF131:
 2907 01ff 6D5F7175 		.ascii	"m_queue\000"
 2907      65756500 
 2908              	.LASF89:
 2909 0207 76746C69 		.ascii	"vtlist\000"
 2909      737400
 2910              	.LASF165:
 2911 020e 706F7274 		.ascii	"port_unlock\000"
 2911      5F756E6C 
 2911      6F636B00 
 2912              	.LASF26:
 2913 021a 74736C69 		.ascii	"tslices_t\000"
 2913      6365735F 
 2913      7400
 2914              	.LASF123:
 2915 0224 77747472 		.ascii	"wttrp\000"
 2915      7000
 2916              	.LASF87:
 2917 022a 63685F73 		.ascii	"ch_system\000"
 2917      79737465 
 2917      6D00
ARM GAS  /var/folders/d2/nstgp4h54kz7g1l847x_b8wc0000gn/T//ccFz8f4B.s 			page 54


 2918              	.LASF11:
 2919 0234 6C6F6E67 		.ascii	"long int\000"
 2919      20696E74 
 2919      00
 2920              	.LASF24:
 2921 023d 74737461 		.ascii	"tstate_t\000"
 2921      74655F74 
 2921      00
 2922              	.LASF100:
 2923 0246 73655F74 		.ascii	"se_tp\000"
 2923      7000
 2924              	.LASF154:
 2925 024c 63686465 		.ascii	"chdebug_t\000"
 2925      6275675F 
 2925      7400
 2926              	.LASF38:
 2927 0256 705F6E65 		.ascii	"p_newer\000"
 2927      77657200 
 2928              	.LASF128:
 2929 025e 735F7175 		.ascii	"s_queue\000"
 2929      65756500 
 2930              	.LASF178:
 2931 0266 2E2E2F65 		.ascii	"../e-puck2_main-processor/ChibiOS//os/rt/src/chmemc"
 2931      2D707563 
 2931      6B325F6D 
 2931      61696E2D 
 2931      70726F63 
 2932 0299 6F72652E 		.ascii	"ore.c\000"
 2932      6300
 2933              	.LASF180:
 2934 029f 6368436F 		.ascii	"chCoreAllocI\000"
 2934      7265416C 
 2934      6C6F6349 
 2934      00
 2935              	.LASF104:
 2936 02ac 74625F73 		.ascii	"tb_size\000"
 2936      697A6500 
 2937              	.LASF66:
 2938 02b4 725F6E65 		.ascii	"r_newer\000"
 2938      77657200 
 2939              	.LASF95:
 2940 02bc 72656761 		.ascii	"regarm_t\000"
 2940      726D5F74 
 2940      00
 2941              	.LASF73:
 2942 02c5 76745F70 		.ascii	"vt_prev\000"
 2942      72657600 
 2943              	.LASF176:
 2944 02cd 63685379 		.ascii	"chSysHalt\000"
 2944      7348616C 
 2944      7400
 2945              	.LASF81:
 2946 02d7 63685F73 		.ascii	"ch_system_debug\000"
 2946      79737465 
 2946      6D5F6465 
 2946      62756700 
 2947              	.LASF134:
ARM GAS  /var/folders/d2/nstgp4h54kz7g1l847x_b8wc0000gn/T//ccFz8f4B.s 			page 55


 2948 02e7 6D5F636E 		.ascii	"m_cnt\000"
 2948      7400
 2949              	.LASF72:
 2950 02ed 76745F6E 		.ascii	"vt_next\000"
 2950      65787400 
 2951              	.LASF170:
 2952 02f5 76616C75 		.ascii	"value\000"
 2952      6500
 2953              	.LASF84:
 2954 02fb 6C6F636B 		.ascii	"lock_cnt\000"
 2954      5F636E74 
 2954      00
 2955              	.LASF92:
 2956 0304 69646C65 		.ascii	"idle_thread_wa\000"
 2956      5F746872 
 2956      6561645F 
 2956      776100
 2957              	.LASF30:
 2958 0313 636E745F 		.ascii	"cnt_t\000"
 2958      7400
 2959              	.LASF41:
 2960 0319 705F7374 		.ascii	"p_stklimit\000"
 2960      6B6C696D 
 2960      697400
 2961              	.LASF0:
 2962 0324 756E7369 		.ascii	"unsigned int\000"
 2962      676E6564 
 2962      20696E74 
 2962      00
 2963              	.LASF177:
 2964 0331 474E5520 		.ascii	"GNU C11 7.2.1 20170904 (release) [ARM/embedded-7-br"
 2964      43313120 
 2964      372E322E 
 2964      31203230 
 2964      31373039 
 2965 0364 616E6368 		.ascii	"anch revision 255204] -mcpu=cortex-m4 -mfloat-abi=h"
 2965      20726576 
 2965      6973696F 
 2965      6E203235 
 2965      35323034 
 2966 0397 61726420 		.ascii	"ard -mfpu=fpv4-sp-d16 -mno-thumb-interwork -mthumb "
 2966      2D6D6670 
 2966      753D6670 
 2966      76342D73 
 2966      702D6431 
 2967 03ca 2D676764 		.ascii	"-ggdb -O2 -fomit-frame-pointer -falign-functions=16"
 2967      62202D4F 
 2967      32202D66 
 2967      6F6D6974 
 2967      2D667261 
 2968 03fd 202D666E 		.ascii	" -fno-strict-aliasing -fstack-protector-all -ffunct"
 2968      6F2D7374 
 2968      72696374 
 2968      2D616C69 
 2968      6173696E 
 2969 0430 696F6E2D 		.ascii	"ion-sections -fdata-sections -fno-common -fsingle-p"
 2969      73656374 
ARM GAS  /var/folders/d2/nstgp4h54kz7g1l847x_b8wc0000gn/T//ccFz8f4B.s 			page 56


 2969      696F6E73 
 2969      202D6664 
 2969      6174612D 
 2970 0463 72656369 		.ascii	"recision-constant\000"
 2970      73696F6E 
 2970      2D636F6E 
 2970      7374616E 
 2970      7400
 2971              	.LASF17:
 2972 0475 75696E74 		.ascii	"uint16_t\000"
 2972      31365F74 
 2972      00
 2973              	.LASF94:
 2974 047e 53797374 		.ascii	"SystemCoreClock\000"
 2974      656D436F 
 2974      7265436C 
 2974      6F636B00 
 2975              	.LASF46:
 2976 048e 705F7469 		.ascii	"p_time\000"
 2976      6D6500
 2977              	.LASF124:
 2978 0495 77747365 		.ascii	"wtsemp\000"
 2978      6D7000
 2979              	.LASF146:
 2980 049c 63665F6F 		.ascii	"cf_off_older\000"
 2980      66665F6F 
 2980      6C646572 
 2980      00
 2981              	.LASF74:
 2982 04a9 76745F64 		.ascii	"vt_delta\000"
 2982      656C7461 
 2982      00
 2983              	.LASF48:
 2984 04b2 705F6D73 		.ascii	"p_msgqueue\000"
 2984      67717565 
 2984      756500
 2985              	.LASF155:
 2986 04bd 63685F64 		.ascii	"ch_debug\000"
 2986      65627567 
 2986      00
 2987              	.LASF115:
 2988 04c6 6E5F6972 		.ascii	"n_irq\000"
 2988      7100
 2989              	.LASF129:
 2990 04cc 735F636E 		.ascii	"s_cnt\000"
 2990      7400
 2991              	.LASF9:
 2992 04d2 73686F72 		.ascii	"short unsigned int\000"
 2992      7420756E 
 2992      7369676E 
 2992      65642069 
 2992      6E7400
 2993              	.LASF119:
 2994 04e5 6B65726E 		.ascii	"kernel_stats_t\000"
 2994      656C5F73 
 2994      74617473 
 2994      5F7400
ARM GAS  /var/folders/d2/nstgp4h54kz7g1l847x_b8wc0000gn/T//ccFz8f4B.s 			page 57


 2995              	.LASF57:
 2996 04f4 63685F74 		.ascii	"ch_thread\000"
 2996      68726561 
 2996      6400
 2997              	.LASF28:
 2998 04fe 6D73675F 		.ascii	"msg_t\000"
 2998      7400
 2999              	.LASF112:
 3000 0504 6C617374 		.ascii	"last\000"
 3000      00
 3001              	.LASF31:
 3002 0509 75636E74 		.ascii	"ucnt_t\000"
 3002      5F7400
 3003              	.LASF173:
 3004 0510 63684462 		.ascii	"chDbgCheckClassI\000"
 3004      67436865 
 3004      636B436C 
 3004      61737349 
 3004      00
 3005              	.LASF86:
 3006 0521 63685F73 		.ascii	"ch_system_t\000"
 3006      79737465 
 3006      6D5F7400 
 3007              	.LASF153:
 3008 052d 63665F6F 		.ascii	"cf_off_time\000"
 3008      66665F74 
 3008      696D6500 
 3009              	.LASF118:
 3010 0539 6D5F6372 		.ascii	"m_crit_isr\000"
 3010      69745F69 
 3010      737200
 3011              	.LASF62:
 3012 0544 63685F72 		.ascii	"ch_ready_list\000"
 3012      65616479 
 3012      5F6C6973 
 3012      7400
 3013              	.LASF29:
 3014 0552 6576656E 		.ascii	"eventmask_t\000"
 3014      746D6173 
 3014      6B5F7400 
 3015              	.LASF10:
 3016 055e 5F5F696E 		.ascii	"__int32_t\000"
 3016      7433325F 
 3016      7400
 3017              	.LASF96:
 3018 0568 73746B61 		.ascii	"stkalign_t\000"
 3018      6C69676E 
 3018      5F7400
 3019              	.LASF56:
 3020 0573 74687265 		.ascii	"threads_list_t\000"
 3020      6164735F 
 3020      6C697374 
 3020      5F7400
 3021              	.LASF137:
 3022 0582 63685F7A 		.ascii	"ch_zero\000"
 3022      65726F00 
 3023              	.LASF151:
ARM GAS  /var/folders/d2/nstgp4h54kz7g1l847x_b8wc0000gn/T//ccFz8f4B.s 			page 58


 3024 058a 63665F6F 		.ascii	"cf_off_refs\000"
 3024      66665F72 
 3024      65667300 
 3025              	.LASF47:
 3026 0596 705F7761 		.ascii	"p_waiting\000"
 3026      6974696E 
 3026      6700
 3027              	.LASF175:
 3028 05a0 5F737461 		.ascii	"_stats_stop_measure_crit_thd\000"
 3028      74735F73 
 3028      746F705F 
 3028      6D656173 
 3028      7572655F 
 3029              	.LASF21:
 3030 05bd 7274636E 		.ascii	"rtcnt_t\000"
 3030      745F7400 
 3031              	.LASF172:
 3032 05c5 5F646267 		.ascii	"_dbg_check_lock\000"
 3032      5F636865 
 3032      636B5F6C 
 3032      6F636B00 
 3033              	.LASF78:
 3034 05d5 63685F76 		.ascii	"ch_virtual_timers_list\000"
 3034      69727475 
 3034      616C5F74 
 3034      696D6572 
 3034      735F6C69 
 3035              	.LASF2:
 3036 05ec 6C6F6E67 		.ascii	"long double\000"
 3036      20646F75 
 3036      626C6500 
 3037              	.LASF141:
 3038 05f8 63685F74 		.ascii	"ch_timesize\000"
 3038      696D6573 
 3038      697A6500 
 3039              	.LASF105:
 3040 0604 74625F70 		.ascii	"tb_ptr\000"
 3040      747200
 3041              	.LASF103:
 3042 060b 63685F73 		.ascii	"ch_swc_event_t\000"
 3042      77635F65 
 3042      76656E74 
 3042      5F7400
 3043              	.LASF147:
 3044 061a 63665F6F 		.ascii	"cf_off_name\000"
 3044      66665F6E 
 3044      616D6500 
 3045              	.LASF39:
 3046 0626 705F6F6C 		.ascii	"p_older\000"
 3046      64657200 
 3047              	.LASF65:
 3048 062e 725F6374 		.ascii	"r_ctx\000"
 3048      7800
 3049              	.LASF37:
 3050 0634 705F6374 		.ascii	"p_ctx\000"
 3050      7800
 3051              	.LASF109:
ARM GAS  /var/folders/d2/nstgp4h54kz7g1l847x_b8wc0000gn/T//ccFz8f4B.s 			page 59


 3052 063a 746D5F63 		.ascii	"tm_calibration_t\000"
 3052      616C6962 
 3052      72617469 
 3052      6F6E5F74 
 3052      00
 3053              	.LASF68:
 3054 064b 725F6375 		.ascii	"r_current\000"
 3054      7272656E 
 3054      7400
 3055              	.LASF67:
 3056 0655 725F6F6C 		.ascii	"r_older\000"
 3056      64657200 
 3057              	.LASF14:
 3058 065d 5F5F7569 		.ascii	"__uint64_t\000"
 3058      6E743634 
 3058      5F7400
 3059              	.LASF113:
 3060 0668 63756D75 		.ascii	"cumulative\000"
 3060      6C617469 
 3060      766500
 3061              	.LASF25:
 3062 0673 74726566 		.ascii	"trefs_t\000"
 3062      735F7400 
 3063              	.LASF106:
 3064 067b 74625F62 		.ascii	"tb_buffer\000"
 3064      75666665 
 3064      7200
 3065              	.LASF140:
 3066 0685 63685F70 		.ascii	"ch_ptrsize\000"
 3066      74727369 
 3066      7A6500
 3067              	.LASF70:
 3068 0690 76697274 		.ascii	"virtual_timer_t\000"
 3068      75616C5F 
 3068      74696D65 
 3068      725F7400 
 3069              	.LASF35:
 3070 06a0 705F7072 		.ascii	"p_prev\000"
 3070      657600
 3071              	.LASF27:
 3072 06a7 74707269 		.ascii	"tprio_t\000"
 3072      6F5F7400 
 3073              	.LASF116:
 3074 06af 6E5F6374 		.ascii	"n_ctxswc\000"
 3074      78737763 
 3074      00
 3075              	.LASF18:
 3076 06b8 696E7433 		.ascii	"int32_t\000"
 3076      325F7400 
 3077              	.LASF6:
 3078 06c0 756E7369 		.ascii	"unsigned char\000"
 3078      676E6564 
 3078      20636861 
 3078      7200
 3079              	.LASF181:
 3080 06ce 5F636F72 		.ascii	"_core_init\000"
 3080      655F696E 
ARM GAS  /var/folders/d2/nstgp4h54kz7g1l847x_b8wc0000gn/T//ccFz8f4B.s 			page 60


 3080      697400
 3081              	.LASF51:
 3082 06d9 705F6D74 		.ascii	"p_mtxlist\000"
 3082      786C6973 
 3082      7400
 3083              	.LASF7:
 3084 06e3 73686F72 		.ascii	"short int\000"
 3084      7420696E 
 3084      7400
 3085              	.LASF42:
 3086 06ed 705F7374 		.ascii	"p_state\000"
 3086      61746500 
 3087              	.LASF45:
 3088 06f5 705F7072 		.ascii	"p_preempt\000"
 3088      65656D70 
 3088      7400
 3089              	.LASF162:
 3090 06ff 5F5F6865 		.ascii	"__heap_end__\000"
 3090      61705F65 
 3090      6E645F5F 
 3090      00
 3091              	.LASF64:
 3092 070c 725F7072 		.ascii	"r_prio\000"
 3092      696F00
 3093              	.LASF126:
 3094 0713 65776D61 		.ascii	"ewmask\000"
 3094      736B00
 3095              	.LASF34:
 3096 071a 705F6E65 		.ascii	"p_next\000"
 3096      787400
 3097              	.LASF23:
 3098 0721 746D6F64 		.ascii	"tmode_t\000"
 3098      655F7400 
 3099              	.LASF152:
 3100 0729 63665F6F 		.ascii	"cf_off_preempt\000"
 3100      66665F70 
 3100      7265656D 
 3100      707400
 3101              	.LASF43:
 3102 0738 705F666C 		.ascii	"p_flags\000"
 3102      61677300 
 3103              	.LASF163:
 3104 0740 5F5F6675 		.ascii	"__func__\000"
 3104      6E635F5F 
 3104      00
 3105              	.LASF54:
 3106 0749 705F7374 		.ascii	"p_stats\000"
 3106      61747300 
 3107              	.LASF164:
 3108 0751 63685379 		.ascii	"chSysLock\000"
 3108      734C6F63 
 3108      6B00
 3109              	.LASF59:
 3110 075b 74687265 		.ascii	"threads_queue_t\000"
 3110      6164735F 
 3110      71756575 
 3110      655F7400 
ARM GAS  /var/folders/d2/nstgp4h54kz7g1l847x_b8wc0000gn/T//ccFz8f4B.s 			page 61


 3111              	.LASF71:
 3112 076b 63685F76 		.ascii	"ch_virtual_timer\000"
 3112      69727475 
 3112      616C5F74 
 3112      696D6572 
 3112      00
 3113              	.LASF145:
 3114 077c 63665F6F 		.ascii	"cf_off_newer\000"
 3114      66665F6E 
 3114      65776572 
 3114      00
 3115              	.LASF182:
 3116 0789 5F5F7374 		.ascii	"__stack_chk_fail\000"
 3116      61636B5F 
 3116      63686B5F 
 3116      6661696C 
 3116      00
 3117              	.LASF127:
 3118 079a 63685F73 		.ascii	"ch_semaphore\000"
 3118      656D6170 
 3118      686F7265 
 3118      00
 3119              	.LASF50:
 3120 07a7 705F6570 		.ascii	"p_epending\000"
 3120      656E6469 
 3120      6E6700
 3121              	.LASF19:
 3122 07b2 75696E74 		.ascii	"uint32_t\000"
 3122      33325F74 
 3122      00
 3123              	.LASF143:
 3124 07bb 63665F6F 		.ascii	"cf_off_prio\000"
 3124      66665F70 
 3124      72696F00 
 3125              	.LASF63:
 3126 07c7 725F7175 		.ascii	"r_queue\000"
 3126      65756500 
 3127              	.LASF58:
 3128 07cf 63685F74 		.ascii	"ch_threads_list\000"
 3128      68726561 
 3128      64735F6C 
 3128      69737400 
 3129              	.LASF138:
 3130 07df 63685F73 		.ascii	"ch_size\000"
 3130      697A6500 
 3131              	.LASF13:
 3132 07e7 6C6F6E67 		.ascii	"long unsigned int\000"
 3132      20756E73 
 3132      69676E65 
 3132      6420696E 
 3132      7400
 3133              	.LASF135:
 3134 07f9 63686172 		.ascii	"char\000"
 3134      00
 3135              	.LASF125:
 3136 07fe 77746D74 		.ascii	"wtmtxp\000"
 3136      787000
ARM GAS  /var/folders/d2/nstgp4h54kz7g1l847x_b8wc0000gn/T//ccFz8f4B.s 			page 62


 3137              	.LASF8:
 3138 0805 5F5F7569 		.ascii	"__uint16_t\000"
 3138      6E743136 
 3138      5F7400
 3139              	.LASF33:
 3140 0810 74687265 		.ascii	"thread_t\000"
 3140      61645F74 
 3140      00
 3141              	.LASF110:
 3142 0819 62657374 		.ascii	"best\000"
 3142      00
 3143              	.LASF157:
 3144 081e 6E657874 		.ascii	"nextmem\000"
 3144      6D656D00 
 3145              	.LASF133:
 3146 0826 6D5F6E65 		.ascii	"m_next\000"
 3146      787400
 3147              	.LASF32:
 3148 082d 73797374 		.ascii	"systime_t\000"
 3148      696D655F 
 3148      7400
 3149              	.LASF52:
 3150 0837 705F7265 		.ascii	"p_realprio\000"
 3150      616C7072 
 3150      696F00
 3151              	.LASF69:
 3152 0842 76746675 		.ascii	"vtfunc_t\000"
 3152      6E635F74 
 3152      00
 3153              	.LASF12:
 3154 084b 5F5F7569 		.ascii	"__uint32_t\000"
 3154      6E743332 
 3154      5F7400
 3155              	.LASF168:
 3156 0856 5F5F7365 		.ascii	"__set_BASEPRI\000"
 3156      745F4241 
 3156      53455052 
 3156      4900
 3157              	.LASF82:
 3158 0864 70616E69 		.ascii	"panic_msg\000"
 3158      635F6D73 
 3158      6700
 3159              	.LASF108:
 3160 086e 6F666673 		.ascii	"offset\000"
 3160      657400
 3161              	.LASF97:
 3162 0875 636F6E74 		.ascii	"context\000"
 3162      65787400 
 3163              	.LASF49:
 3164 087d 705F6D73 		.ascii	"p_msg\000"
 3164      6700
 3165              	.LASF76:
 3166 0883 76745F70 		.ascii	"vt_par\000"
 3166      617200
 3167              	.LASF161:
 3168 088a 5F5F6865 		.ascii	"__heap_base__\000"
 3168      61705F62 
ARM GAS  /var/folders/d2/nstgp4h54kz7g1l847x_b8wc0000gn/T//ccFz8f4B.s 			page 63


 3168      6173655F 
 3168      5F00
 3169              	.LASF144:
 3170 0898 63665F6F 		.ascii	"cf_off_ctx\000"
 3170      66665F63 
 3170      747800
 3171              	.LASF130:
 3172 08a3 63685F6D 		.ascii	"ch_mutex\000"
 3172      75746578 
 3172      00
 3173              	.LASF44:
 3174 08ac 705F7265 		.ascii	"p_refs\000"
 3174      667300
 3175              	.LASF83:
 3176 08b3 6973725F 		.ascii	"isr_cnt\000"
 3176      636E7400 
 3177              	.LASF102:
 3178 08bb 73655F73 		.ascii	"se_state\000"
 3178      74617465 
 3178      00
 3179              	.LASF88:
 3180 08c4 726C6973 		.ascii	"rlist\000"
 3180      7400
 3181              	.LASF16:
 3182 08ca 75696E74 		.ascii	"uint8_t\000"
 3182      385F7400 
 3183              	.LASF174:
 3184 08d2 5F646267 		.ascii	"_dbg_check_unlock\000"
 3184      5F636865 
 3184      636B5F75 
 3184      6E6C6F63 
 3184      6B00
 3185              	.LASF55:
 3186 08e4 74687265 		.ascii	"thread_reference_t\000"
 3186      61645F72 
 3186      65666572 
 3186      656E6365 
 3186      5F7400
 3187              	.LASF122:
 3188 08f7 77746F62 		.ascii	"wtobjp\000"
 3188      6A7000
 3189              	.LASF40:
 3190 08fe 705F6E61 		.ascii	"p_name\000"
 3190      6D6500
 3191              	.LASF169:
 3192 0905 73697A65 		.ascii	"size\000"
 3192      00
 3193              	.LASF79:
 3194 090a 76745F73 		.ascii	"vt_systime\000"
 3194      79737469 
 3194      6D6500
 3195              	.LASF85:
 3196 0915 74726163 		.ascii	"trace_buffer\000"
 3196      655F6275 
 3196      66666572 
 3196      00
 3197              	.LASF167:
ARM GAS  /var/folders/d2/nstgp4h54kz7g1l847x_b8wc0000gn/T//ccFz8f4B.s 			page 64


 3198 0922 63685379 		.ascii	"chSysUnlock\000"
 3198      73556E6C 
 3198      6F636B00 
 3199              	.LASF139:
 3200 092e 63685F76 		.ascii	"ch_version\000"
 3200      65727369 
 3200      6F6E00
 3201              	.LASF117:
 3202 0939 6D5F6372 		.ascii	"m_crit_thd\000"
 3202      69745F74 
 3202      686400
 3203              	.LASF132:
 3204 0944 6D5F6F77 		.ascii	"m_owner\000"
 3204      6E657200 
 3205              	.LASF101:
 3206 094c 73655F77 		.ascii	"se_wtobjp\000"
 3206      746F626A 
 3206      7000
 3207              	.LASF136:
 3208 0956 63685F69 		.ascii	"ch_identifier\000"
 3208      64656E74 
 3208      69666965 
 3208      7200
 3209              	.LASF75:
 3210 0964 76745F66 		.ascii	"vt_func\000"
 3210      756E6300 
 3211              		.ident	"GCC: (GNU Tools for Arm Embedded Processors 7-2017-q4-major) 7.2.1 20170904 (release) [ARM
ARM GAS  /var/folders/d2/nstgp4h54kz7g1l847x_b8wc0000gn/T//ccFz8f4B.s 			page 65


DEFINED SYMBOLS
                            *ABS*:0000000000000000 chmemcore.c
/var/folders/d2/nstgp4h54kz7g1l847x_b8wc0000gn/T//ccFz8f4B.s:18     .text._core_init:0000000000000000 $t
/var/folders/d2/nstgp4h54kz7g1l847x_b8wc0000gn/T//ccFz8f4B.s:26     .text._core_init:0000000000000000 _core_init
/var/folders/d2/nstgp4h54kz7g1l847x_b8wc0000gn/T//ccFz8f4B.s:82     .text._core_init:0000000000000030 $d
/var/folders/d2/nstgp4h54kz7g1l847x_b8wc0000gn/T//ccFz8f4B.s:91     .text.chCoreAlloc:0000000000000000 $t
/var/folders/d2/nstgp4h54kz7g1l847x_b8wc0000gn/T//ccFz8f4B.s:99     .text.chCoreAlloc:0000000000000000 chCoreAlloc
/var/folders/d2/nstgp4h54kz7g1l847x_b8wc0000gn/T//ccFz8f4B.s:242    .text.chCoreAlloc:0000000000000074 $d
/var/folders/d2/nstgp4h54kz7g1l847x_b8wc0000gn/T//ccFz8f4B.s:251    .text.chCoreAllocI:0000000000000000 $t
/var/folders/d2/nstgp4h54kz7g1l847x_b8wc0000gn/T//ccFz8f4B.s:259    .text.chCoreAllocI:0000000000000000 chCoreAllocI
/var/folders/d2/nstgp4h54kz7g1l847x_b8wc0000gn/T//ccFz8f4B.s:322    .text.chCoreAllocI:000000000000003c $d
/var/folders/d2/nstgp4h54kz7g1l847x_b8wc0000gn/T//ccFz8f4B.s:329    .text.chCoreGetStatusX:0000000000000000 $t
/var/folders/d2/nstgp4h54kz7g1l847x_b8wc0000gn/T//ccFz8f4B.s:337    .text.chCoreGetStatusX:0000000000000000 chCoreGetStatusX
/var/folders/d2/nstgp4h54kz7g1l847x_b8wc0000gn/T//ccFz8f4B.s:379    .text.chCoreGetStatusX:0000000000000028 $d
/var/folders/d2/nstgp4h54kz7g1l847x_b8wc0000gn/T//ccFz8f4B.s:386    .bss.endmem:0000000000000000 $d
/var/folders/d2/nstgp4h54kz7g1l847x_b8wc0000gn/T//ccFz8f4B.s:390    .bss.endmem:0000000000000000 endmem
/var/folders/d2/nstgp4h54kz7g1l847x_b8wc0000gn/T//ccFz8f4B.s:393    .bss.nextmem:0000000000000000 $d
/var/folders/d2/nstgp4h54kz7g1l847x_b8wc0000gn/T//ccFz8f4B.s:397    .bss.nextmem:0000000000000000 nextmem
/var/folders/d2/nstgp4h54kz7g1l847x_b8wc0000gn/T//ccFz8f4B.s:400    .rodata.__func__.7153:0000000000000000 $d
/var/folders/d2/nstgp4h54kz7g1l847x_b8wc0000gn/T//ccFz8f4B.s:404    .rodata.__func__.7153:0000000000000000 __func__.7153

UNDEFINED SYMBOLS
__stack_chk_fail
__stack_chk_guard
__heap_base__
__heap_end__
_stats_start_measure_crit_thd
_dbg_check_lock
chDbgCheckClassI
_dbg_check_unlock
_stats_stop_measure_crit_thd
chSysHalt
ch
