ARM GAS  /var/folders/d2/nstgp4h54kz7g1l847x_b8wc0000gn/T//ccgorJ5f.s 			page 1


   1              		.cpu cortex-m4
   2              		.eabi_attribute 27, 1
   3              		.eabi_attribute 28, 1
   4              		.eabi_attribute 20, 1
   5              		.eabi_attribute 21, 1
   6              		.eabi_attribute 23, 3
   7              		.eabi_attribute 24, 1
   8              		.eabi_attribute 25, 1
   9              		.eabi_attribute 26, 1
  10              		.eabi_attribute 30, 2
  11              		.eabi_attribute 34, 1
  12              		.eabi_attribute 18, 4
  13              		.file	"chmempools.c"
  14              		.text
  15              	.Ltext0:
  16              		.cfi_sections	.debug_frame
  17              		.section	.text.chPoolObjectInit,"ax",%progbits
  18              		.align	1
  19              		.p2align 4,,15
  20              		.global	chPoolObjectInit
  21              		.syntax unified
  22              		.thumb
  23              		.thumb_func
  24              		.fpu fpv4-sp-d16
  25              		.type	chPoolObjectInit, %function
  26              	chPoolObjectInit:
  27              	.LFB219:
  28              		.file 1 "../e-puck2_main-processor/ChibiOS//os/rt/src/chmempools.c"
  29              		.loc 1 75 0
  30              		.cfi_startproc
  31              		@ args = 0, pretend = 0, frame = 8
  32              		@ frame_needed = 0, uses_anonymous_args = 0
  33              	.LVL0:
  34 0000 F0B5     		push	{r4, r5, r6, r7, lr}
  35              		.cfi_def_cfa_offset 20
  36              		.cfi_offset 4, -20
  37              		.cfi_offset 5, -16
  38              		.cfi_offset 6, -12
  39              		.cfi_offset 7, -8
  40              		.cfi_offset 14, -4
  41 0002 0C4D     		ldr	r5, .L11
  42 0004 83B0     		sub	sp, sp, #12
  43              		.cfi_def_cfa_offset 32
  44              		.loc 1 75 0
  45 0006 2B68     		ldr	r3, [r5]
  46 0008 0193     		str	r3, [sp, #4]
  47 000a 0E46     		mov	r6, r1
  48 000c 1746     		mov	r7, r2
  49              		.loc 1 77 0
  50 000e 0446     		mov	r4, r0
  51 0010 08B1     		cbz	r0, .L2
  52              		.loc 1 77 0 is_stmt 0 discriminator 3
  53 0012 0329     		cmp	r1, #3
  54 0014 02D8     		bhi	.L3
  55              	.L2:
  56              		.loc 1 77 0 discriminator 4
  57 0016 0848     		ldr	r0, .L11+4
ARM GAS  /var/folders/d2/nstgp4h54kz7g1l847x_b8wc0000gn/T//ccgorJ5f.s 			page 2


  58              	.LVL1:
  59 0018 FFF7FEFF 		bl	chSysHalt
  60              	.LVL2:
  61              	.L3:
  62              		.loc 1 79 0 is_stmt 1
  63 001c 0023     		movs	r3, #0
  64 001e 2360     		str	r3, [r4]
  65              		.loc 1 82 0
  66 0020 0199     		ldr	r1, [sp, #4]
  67 0022 2B68     		ldr	r3, [r5]
  68 0024 9942     		cmp	r1, r3
  69              		.loc 1 81 0
  70 0026 C4E90167 		strd	r6, r7, [r4, #4]
  71              		.loc 1 82 0
  72 002a 01D1     		bne	.L10
  73 002c 03B0     		add	sp, sp, #12
  74              		.cfi_remember_state
  75              		.cfi_def_cfa_offset 20
  76              		@ sp needed
  77 002e F0BD     		pop	{r4, r5, r6, r7, pc}
  78              	.LVL3:
  79              	.L10:
  80              		.cfi_restore_state
  81 0030 FFF7FEFF 		bl	__stack_chk_fail
  82              	.LVL4:
  83              	.L12:
  84              		.align	2
  85              	.L11:
  86 0034 00000000 		.word	__stack_chk_guard
  87 0038 00000000 		.word	.LANCHOR0
  88              		.cfi_endproc
  89              	.LFE219:
  90              		.size	chPoolObjectInit, .-chPoolObjectInit
  91              		.section	.text.chPoolAllocI,"ax",%progbits
  92              		.align	1
  93              		.p2align 4,,15
  94              		.global	chPoolAllocI
  95              		.syntax unified
  96              		.thumb
  97              		.thumb_func
  98              		.fpu fpv4-sp-d16
  99              		.type	chPoolAllocI, %function
 100              	chPoolAllocI:
 101              	.LFB221:
 102              		.loc 1 120 0
 103              		.cfi_startproc
 104              		@ args = 0, pretend = 0, frame = 8
 105              		@ frame_needed = 0, uses_anonymous_args = 0
 106              	.LVL5:
 107 0000 30B5     		push	{r4, r5, lr}
 108              		.cfi_def_cfa_offset 12
 109              		.cfi_offset 4, -12
 110              		.cfi_offset 5, -8
 111              		.cfi_offset 14, -4
 112 0002 124D     		ldr	r5, .L25
 113 0004 83B0     		sub	sp, sp, #12
 114              		.cfi_def_cfa_offset 24
ARM GAS  /var/folders/d2/nstgp4h54kz7g1l847x_b8wc0000gn/T//ccgorJ5f.s 			page 3


 115              		.loc 1 120 0
 116 0006 0446     		mov	r4, r0
 117 0008 2B68     		ldr	r3, [r5]
 118 000a 0193     		str	r3, [sp, #4]
 119              		.loc 1 123 0
 120 000c FFF7FEFF 		bl	chDbgCheckClassI
 121              	.LVL6:
 122              		.loc 1 124 0
 123 0010 ACB1     		cbz	r4, .L24
 124              	.L14:
 125              		.loc 1 126 0
 126 0012 2068     		ldr	r0, [r4]
 127              	.LVL7:
 128              		.loc 1 128 0
 129 0014 38B1     		cbz	r0, .L15
 130              		.loc 1 129 0
 131 0016 0368     		ldr	r3, [r0]
 132 0018 2360     		str	r3, [r4]
 133              	.L13:
 134              		.loc 1 137 0
 135 001a 019A     		ldr	r2, [sp, #4]
 136 001c 2B68     		ldr	r3, [r5]
 137 001e 9A42     		cmp	r2, r3
 138 0020 11D1     		bne	.L23
 139 0022 03B0     		add	sp, sp, #12
 140              		.cfi_remember_state
 141              		.cfi_def_cfa_offset 12
 142              		@ sp needed
 143 0024 30BD     		pop	{r4, r5, pc}
 144              	.LVL8:
 145              	.L15:
 146              		.cfi_restore_state
 147              	.LBB28:
 148              	.LBB29:
 149              		.loc 1 131 0
 150 0026 A368     		ldr	r3, [r4, #8]
 151 0028 002B     		cmp	r3, #0
 152 002a F6D0     		beq	.L13
 153              		.loc 1 132 0
 154 002c 0199     		ldr	r1, [sp, #4]
 155 002e 2A68     		ldr	r2, [r5]
 156 0030 9142     		cmp	r1, r2
 157 0032 08D1     		bne	.L23
 158 0034 6068     		ldr	r0, [r4, #4]
 159              	.LVL9:
 160              	.LBE29:
 161              	.LBE28:
 162              		.loc 1 137 0
 163 0036 03B0     		add	sp, sp, #12
 164              		.cfi_remember_state
 165              		.cfi_def_cfa_offset 12
 166              		@ sp needed
 167 0038 BDE83040 		pop	{r4, r5, lr}
 168              		.cfi_restore 14
 169              		.cfi_restore 5
 170              		.cfi_restore 4
 171              		.cfi_def_cfa_offset 0
ARM GAS  /var/folders/d2/nstgp4h54kz7g1l847x_b8wc0000gn/T//ccgorJ5f.s 			page 4


 172              	.LVL10:
 173              	.LBB31:
 174              	.LBB30:
 175              		.loc 1 132 0
 176 003c 1847     		bx	r3
 177              	.LVL11:
 178              	.L24:
 179              		.cfi_restore_state
 180              	.LBE30:
 181              	.LBE31:
 182              		.loc 1 124 0 discriminator 2
 183 003e 0448     		ldr	r0, .L25+4
 184 0040 FFF7FEFF 		bl	chSysHalt
 185              	.LVL12:
 186 0044 E5E7     		b	.L14
 187              	.LVL13:
 188              	.L23:
 189              		.loc 1 137 0
 190 0046 FFF7FEFF 		bl	__stack_chk_fail
 191              	.LVL14:
 192              	.L26:
 193 004a 00BF     		.align	2
 194              	.L25:
 195 004c 00000000 		.word	__stack_chk_guard
 196 0050 00000000 		.word	.LANCHOR1
 197              		.cfi_endproc
 198              	.LFE221:
 199              		.size	chPoolAllocI, .-chPoolAllocI
 200              		.section	.text.chPoolAlloc,"ax",%progbits
 201              		.align	1
 202              		.p2align 4,,15
 203              		.global	chPoolAlloc
 204              		.syntax unified
 205              		.thumb
 206              		.thumb_func
 207              		.fpu fpv4-sp-d16
 208              		.type	chPoolAlloc, %function
 209              	chPoolAlloc:
 210              	.LFB222:
 211              		.loc 1 149 0
 212              		.cfi_startproc
 213              		@ args = 0, pretend = 0, frame = 8
 214              		@ frame_needed = 0, uses_anonymous_args = 0
 215              	.LVL15:
 216 0000 30B5     		push	{r4, r5, lr}
 217              		.cfi_def_cfa_offset 12
 218              		.cfi_offset 4, -12
 219              		.cfi_offset 5, -8
 220              		.cfi_offset 14, -4
 221 0002 164C     		ldr	r4, .L33
 222 0004 83B0     		sub	sp, sp, #12
 223              		.cfi_def_cfa_offset 24
 224              		.loc 1 149 0
 225 0006 2368     		ldr	r3, [r4]
 226 0008 0193     		str	r3, [sp, #4]
 227              	.LVL16:
 228 000a 0546     		mov	r5, r0
ARM GAS  /var/folders/d2/nstgp4h54kz7g1l847x_b8wc0000gn/T//ccgorJ5f.s 			page 5


 229              	.LBB42:
 230              	.LBB43:
 231              	.LBB44:
 232              	.LBB45:
 233              	.LBB46:
 234              		.file 2 "../e-puck2_main-processor/ChibiOS//os/ext/CMSIS/include/core_cmFunc.h"
 235              		.loc 2 546 0
 236 000c 2023     		movs	r3, #32
 237              		.syntax unified
 238              	@ 546 "../e-puck2_main-processor/ChibiOS//os/ext/CMSIS/include/core_cmFunc.h" 1
 239 000e 83F31188 		MSR basepri, r3
 240              	@ 0 "" 2
 241              	.LVL17:
 242              		.thumb
 243              		.syntax unified
 244              	.LBE46:
 245              	.LBE45:
 246              	.LBE44:
 247              		.file 3 "../e-puck2_main-processor/ChibiOS//os/rt/include/chsys.h"
 248              		.loc 3 349 0
 249 0012 FFF7FEFF 		bl	_stats_start_measure_crit_thd
 250              	.LVL18:
 251              		.loc 3 350 0
 252 0016 FFF7FEFF 		bl	_dbg_check_lock
 253              	.LVL19:
 254              	.LBE43:
 255              	.LBE42:
 256              		.loc 1 153 0
 257 001a 2846     		mov	r0, r5
 258 001c FFF7FEFF 		bl	chPoolAllocI
 259              	.LVL20:
 260 0020 0546     		mov	r5, r0
 261              	.LVL21:
 262              	.LBB47:
 263              	.LBB48:
 264              		.loc 3 360 0
 265 0022 FFF7FEFF 		bl	_dbg_check_unlock
 266              	.LVL22:
 267              		.loc 3 361 0
 268 0026 FFF7FEFF 		bl	_stats_stop_measure_crit_thd
 269              	.LVL23:
 270              		.loc 3 367 0
 271 002a 0D4B     		ldr	r3, .L33+4
 272 002c 1A68     		ldr	r2, [r3]
 273 002e 9A42     		cmp	r2, r3
 274 0030 04D0     		beq	.L28
 275 0032 9969     		ldr	r1, [r3, #24]
 276 0034 9368     		ldr	r3, [r2, #8]
 277 0036 8A68     		ldr	r2, [r1, #8]
 278 0038 9A42     		cmp	r2, r3
 279 003a 09D3     		bcc	.L31
 280              	.L28:
 281              	.LVL24:
 282              	.LBB49:
 283              	.LBB50:
 284              	.LBB51:
 285              		.loc 2 546 0
ARM GAS  /var/folders/d2/nstgp4h54kz7g1l847x_b8wc0000gn/T//ccgorJ5f.s 			page 6


 286 003c 0023     		movs	r3, #0
 287              		.syntax unified
 288              	@ 546 "../e-puck2_main-processor/ChibiOS//os/ext/CMSIS/include/core_cmFunc.h" 1
 289 003e 83F31188 		MSR basepri, r3
 290              	@ 0 "" 2
 291              	.LVL25:
 292              		.thumb
 293              		.syntax unified
 294              	.LBE51:
 295              	.LBE50:
 296              	.LBE49:
 297              	.LBE48:
 298              	.LBE47:
 299              		.loc 1 157 0
 300 0042 019A     		ldr	r2, [sp, #4]
 301 0044 2368     		ldr	r3, [r4]
 302 0046 9A42     		cmp	r2, r3
 303 0048 2846     		mov	r0, r5
 304 004a 05D1     		bne	.L32
 305              	.LVL26:
 306 004c 03B0     		add	sp, sp, #12
 307              		.cfi_remember_state
 308              		.cfi_def_cfa_offset 12
 309              		@ sp needed
 310 004e 30BD     		pop	{r4, r5, pc}
 311              	.LVL27:
 312              	.L31:
 313              		.cfi_restore_state
 314              	.LBB53:
 315              	.LBB52:
 316              		.loc 3 367 0
 317 0050 0448     		ldr	r0, .L33+8
 318 0052 FFF7FEFF 		bl	chSysHalt
 319              	.LVL28:
 320 0056 F1E7     		b	.L28
 321              	.LVL29:
 322              	.L32:
 323              	.LBE52:
 324              	.LBE53:
 325              		.loc 1 157 0
 326 0058 FFF7FEFF 		bl	__stack_chk_fail
 327              	.LVL30:
 328              	.L34:
 329              		.align	2
 330              	.L33:
 331 005c 00000000 		.word	__stack_chk_guard
 332 0060 00000000 		.word	ch
 333 0064 00000000 		.word	.LANCHOR2
 334              		.cfi_endproc
 335              	.LFE222:
 336              		.size	chPoolAlloc, .-chPoolAlloc
 337              		.section	.text.chPoolFreeI,"ax",%progbits
 338              		.align	1
 339              		.p2align 4,,15
 340              		.global	chPoolFreeI
 341              		.syntax unified
 342              		.thumb
ARM GAS  /var/folders/d2/nstgp4h54kz7g1l847x_b8wc0000gn/T//ccgorJ5f.s 			page 7


 343              		.thumb_func
 344              		.fpu fpv4-sp-d16
 345              		.type	chPoolFreeI, %function
 346              	chPoolFreeI:
 347              	.LFB223:
 348              		.loc 1 171 0
 349              		.cfi_startproc
 350              		@ args = 0, pretend = 0, frame = 8
 351              		@ frame_needed = 0, uses_anonymous_args = 0
 352              	.LVL31:
 353 0000 70B5     		push	{r4, r5, r6, lr}
 354              		.cfi_def_cfa_offset 16
 355              		.cfi_offset 4, -16
 356              		.cfi_offset 5, -12
 357              		.cfi_offset 6, -8
 358              		.cfi_offset 14, -4
 359 0002 0C4E     		ldr	r6, .L44
 360 0004 82B0     		sub	sp, sp, #8
 361              		.cfi_def_cfa_offset 24
 362              		.loc 1 171 0
 363 0006 0446     		mov	r4, r0
 364 0008 3368     		ldr	r3, [r6]
 365 000a 0193     		str	r3, [sp, #4]
 366 000c 0D46     		mov	r5, r1
 367              	.LVL32:
 368              		.loc 1 174 0
 369 000e FFF7FEFF 		bl	chDbgCheckClassI
 370              	.LVL33:
 371              		.loc 1 175 0
 372 0012 4CB1     		cbz	r4, .L36
 373              		.loc 1 175 0 is_stmt 0 discriminator 3
 374 0014 45B1     		cbz	r5, .L36
 375              	.L37:
 376              		.loc 1 177 0 is_stmt 1
 377 0016 2368     		ldr	r3, [r4]
 378 0018 2B60     		str	r3, [r5]
 379              		.loc 1 178 0
 380 001a 2560     		str	r5, [r4]
 381              		.loc 1 179 0
 382 001c 019A     		ldr	r2, [sp, #4]
 383 001e 3368     		ldr	r3, [r6]
 384 0020 9A42     		cmp	r2, r3
 385 0022 05D1     		bne	.L43
 386 0024 02B0     		add	sp, sp, #8
 387              		.cfi_remember_state
 388              		.cfi_def_cfa_offset 16
 389              		@ sp needed
 390 0026 70BD     		pop	{r4, r5, r6, pc}
 391              	.LVL34:
 392              	.L36:
 393              		.cfi_restore_state
 394              		.loc 1 175 0 discriminator 4
 395 0028 0348     		ldr	r0, .L44+4
 396 002a FFF7FEFF 		bl	chSysHalt
 397              	.LVL35:
 398 002e F2E7     		b	.L37
 399              	.L43:
ARM GAS  /var/folders/d2/nstgp4h54kz7g1l847x_b8wc0000gn/T//ccgorJ5f.s 			page 8


 400              		.loc 1 179 0
 401 0030 FFF7FEFF 		bl	__stack_chk_fail
 402              	.LVL36:
 403              	.L45:
 404              		.align	2
 405              	.L44:
 406 0034 00000000 		.word	__stack_chk_guard
 407 0038 00000000 		.word	.LANCHOR3
 408              		.cfi_endproc
 409              	.LFE223:
 410              		.size	chPoolFreeI, .-chPoolFreeI
 411              		.section	.text.chPoolFree,"ax",%progbits
 412              		.align	1
 413              		.p2align 4,,15
 414              		.global	chPoolFree
 415              		.syntax unified
 416              		.thumb
 417              		.thumb_func
 418              		.fpu fpv4-sp-d16
 419              		.type	chPoolFree, %function
 420              	chPoolFree:
 421              	.LFB224:
 422              		.loc 1 193 0
 423              		.cfi_startproc
 424              		@ args = 0, pretend = 0, frame = 8
 425              		@ frame_needed = 0, uses_anonymous_args = 0
 426              	.LVL37:
 427 0000 70B5     		push	{r4, r5, r6, lr}
 428              		.cfi_def_cfa_offset 16
 429              		.cfi_offset 4, -16
 430              		.cfi_offset 5, -12
 431              		.cfi_offset 6, -8
 432              		.cfi_offset 14, -4
 433 0002 164C     		ldr	r4, .L52
 434 0004 82B0     		sub	sp, sp, #8
 435              		.cfi_def_cfa_offset 24
 436              		.loc 1 193 0
 437 0006 2368     		ldr	r3, [r4]
 438 0008 0193     		str	r3, [sp, #4]
 439              	.LVL38:
 440 000a 0546     		mov	r5, r0
 441 000c 0E46     		mov	r6, r1
 442              	.LBB64:
 443              	.LBB65:
 444              	.LBB66:
 445              	.LBB67:
 446              	.LBB68:
 447              		.loc 2 546 0
 448 000e 2023     		movs	r3, #32
 449              		.syntax unified
 450              	@ 546 "../e-puck2_main-processor/ChibiOS//os/ext/CMSIS/include/core_cmFunc.h" 1
 451 0010 83F31188 		MSR basepri, r3
 452              	@ 0 "" 2
 453              	.LVL39:
 454              		.thumb
 455              		.syntax unified
 456              	.LBE68:
ARM GAS  /var/folders/d2/nstgp4h54kz7g1l847x_b8wc0000gn/T//ccgorJ5f.s 			page 9


 457              	.LBE67:
 458              	.LBE66:
 459              		.loc 3 349 0
 460 0014 FFF7FEFF 		bl	_stats_start_measure_crit_thd
 461              	.LVL40:
 462              		.loc 3 350 0
 463 0018 FFF7FEFF 		bl	_dbg_check_lock
 464              	.LVL41:
 465              	.LBE65:
 466              	.LBE64:
 467              		.loc 1 196 0
 468 001c 3146     		mov	r1, r6
 469 001e 2846     		mov	r0, r5
 470 0020 FFF7FEFF 		bl	chPoolFreeI
 471              	.LVL42:
 472              	.LBB69:
 473              	.LBB70:
 474              		.loc 3 360 0
 475 0024 FFF7FEFF 		bl	_dbg_check_unlock
 476              	.LVL43:
 477              		.loc 3 361 0
 478 0028 FFF7FEFF 		bl	_stats_stop_measure_crit_thd
 479              	.LVL44:
 480              		.loc 3 367 0
 481 002c 0C4B     		ldr	r3, .L52+4
 482 002e 1A68     		ldr	r2, [r3]
 483 0030 9A42     		cmp	r2, r3
 484 0032 04D0     		beq	.L47
 485 0034 9969     		ldr	r1, [r3, #24]
 486 0036 9368     		ldr	r3, [r2, #8]
 487 0038 8A68     		ldr	r2, [r1, #8]
 488 003a 9A42     		cmp	r2, r3
 489 003c 08D3     		bcc	.L50
 490              	.L47:
 491              	.LVL45:
 492              	.LBB71:
 493              	.LBB72:
 494              	.LBB73:
 495              		.loc 2 546 0
 496 003e 0023     		movs	r3, #0
 497              		.syntax unified
 498              	@ 546 "../e-puck2_main-processor/ChibiOS//os/ext/CMSIS/include/core_cmFunc.h" 1
 499 0040 83F31188 		MSR basepri, r3
 500              	@ 0 "" 2
 501              	.LVL46:
 502              		.thumb
 503              		.syntax unified
 504              	.LBE73:
 505              	.LBE72:
 506              	.LBE71:
 507              	.LBE70:
 508              	.LBE69:
 509              		.loc 1 198 0
 510 0044 019A     		ldr	r2, [sp, #4]
 511 0046 2368     		ldr	r3, [r4]
 512 0048 9A42     		cmp	r2, r3
 513 004a 05D1     		bne	.L51
ARM GAS  /var/folders/d2/nstgp4h54kz7g1l847x_b8wc0000gn/T//ccgorJ5f.s 			page 10


 514 004c 02B0     		add	sp, sp, #8
 515              		.cfi_remember_state
 516              		.cfi_def_cfa_offset 16
 517              		@ sp needed
 518 004e 70BD     		pop	{r4, r5, r6, pc}
 519              	.LVL47:
 520              	.L50:
 521              		.cfi_restore_state
 522              	.LBB75:
 523              	.LBB74:
 524              		.loc 3 367 0
 525 0050 0448     		ldr	r0, .L52+8
 526 0052 FFF7FEFF 		bl	chSysHalt
 527              	.LVL48:
 528 0056 F2E7     		b	.L47
 529              	.L51:
 530              	.LBE74:
 531              	.LBE75:
 532              		.loc 1 198 0
 533 0058 FFF7FEFF 		bl	__stack_chk_fail
 534              	.LVL49:
 535              	.L53:
 536              		.align	2
 537              	.L52:
 538 005c 00000000 		.word	__stack_chk_guard
 539 0060 00000000 		.word	ch
 540 0064 00000000 		.word	.LANCHOR2
 541              		.cfi_endproc
 542              	.LFE224:
 543              		.size	chPoolFree, .-chPoolFree
 544              		.section	.text.chPoolLoadArray,"ax",%progbits
 545              		.align	1
 546              		.p2align 4,,15
 547              		.global	chPoolLoadArray
 548              		.syntax unified
 549              		.thumb
 550              		.thumb_func
 551              		.fpu fpv4-sp-d16
 552              		.type	chPoolLoadArray, %function
 553              	chPoolLoadArray:
 554              	.LFB220:
 555              		.loc 1 97 0
 556              		.cfi_startproc
 557              		@ args = 0, pretend = 0, frame = 8
 558              		@ frame_needed = 0, uses_anonymous_args = 0
 559              	.LVL50:
 560 0000 F0B5     		push	{r4, r5, r6, r7, lr}
 561              		.cfi_def_cfa_offset 20
 562              		.cfi_offset 4, -20
 563              		.cfi_offset 5, -16
 564              		.cfi_offset 6, -12
 565              		.cfi_offset 7, -8
 566              		.cfi_offset 14, -4
 567 0002 134F     		ldr	r7, .L65
 568 0004 83B0     		sub	sp, sp, #12
 569              		.cfi_def_cfa_offset 32
 570              		.loc 1 97 0
ARM GAS  /var/folders/d2/nstgp4h54kz7g1l847x_b8wc0000gn/T//ccgorJ5f.s 			page 11


 571 0006 3B68     		ldr	r3, [r7]
 572 0008 0193     		str	r3, [sp, #4]
 573 000a 0D46     		mov	r5, r1
 574 000c 1446     		mov	r4, r2
 575              		.loc 1 99 0
 576 000e 0646     		mov	r6, r0
 577 0010 50B1     		cbz	r0, .L55
 578              		.loc 1 99 0 is_stmt 0 discriminator 3
 579 0012 6AB9     		cbnz	r2, .L57
 580              		.loc 1 99 0
 581 0014 019A     		ldr	r2, [sp, #4]
 582              	.LVL51:
 583 0016 3B68     		ldr	r3, [r7]
 584 0018 9A42     		cmp	r2, r3
 585 001a 17D1     		bne	.L64
 586 001c 0D48     		ldr	r0, .L65+4
 587              	.LVL52:
 588              		.loc 1 108 0 is_stmt 1
 589 001e 03B0     		add	sp, sp, #12
 590              		.cfi_remember_state
 591              		.cfi_def_cfa_offset 20
 592              		@ sp needed
 593 0020 BDE8F040 		pop	{r4, r5, r6, r7, lr}
 594              		.cfi_restore 14
 595              		.cfi_restore 7
 596              		.cfi_restore 6
 597              		.cfi_restore 5
 598              		.cfi_restore 4
 599              		.cfi_def_cfa_offset 0
 600              	.LVL53:
 601              		.loc 1 99 0
 602 0024 FFF7FEBF 		b	chSysHalt
 603              	.LVL54:
 604              	.L55:
 605              		.cfi_restore_state
 606              		.loc 1 99 0 is_stmt 0 discriminator 4
 607 0028 0A48     		ldr	r0, .L65+4
 608              	.LVL55:
 609 002a FFF7FEFF 		bl	chSysHalt
 610              	.LVL56:
 611              		.loc 1 101 0 is_stmt 1 discriminator 4
 612 002e 3CB1     		cbz	r4, .L54
 613              	.LVL57:
 614              	.L57:
 615              	.LBB76:
 616              	.LBB77:
 617              		.file 4 "../e-puck2_main-processor/ChibiOS//os/rt/include/chmempools.h"
 618              		.loc 4 139 0
 619 0030 2946     		mov	r1, r5
 620 0032 3046     		mov	r0, r6
 621 0034 FFF7FEFF 		bl	chPoolFree
 622              	.LVL58:
 623              	.LBE77:
 624              	.LBE76:
 625              		.loc 1 104 0
 626 0038 7368     		ldr	r3, [r6, #4]
 627              		.loc 1 101 0
ARM GAS  /var/folders/d2/nstgp4h54kz7g1l847x_b8wc0000gn/T//ccgorJ5f.s 			page 12


 628 003a 013C     		subs	r4, r4, #1
 629              	.LVL59:
 630              		.loc 1 104 0
 631 003c 1D44     		add	r5, r5, r3
 632              	.LVL60:
 633              		.loc 1 101 0
 634 003e F7D1     		bne	.L57
 635              	.L54:
 636              		.loc 1 108 0
 637 0040 019A     		ldr	r2, [sp, #4]
 638 0042 3B68     		ldr	r3, [r7]
 639 0044 9A42     		cmp	r2, r3
 640 0046 01D1     		bne	.L64
 641 0048 03B0     		add	sp, sp, #12
 642              		.cfi_remember_state
 643              		.cfi_def_cfa_offset 20
 644              		@ sp needed
 645 004a F0BD     		pop	{r4, r5, r6, r7, pc}
 646              	.LVL61:
 647              	.L64:
 648              		.cfi_restore_state
 649 004c FFF7FEFF 		bl	__stack_chk_fail
 650              	.LVL62:
 651              	.L66:
 652              		.align	2
 653              	.L65:
 654 0050 00000000 		.word	__stack_chk_guard
 655 0054 00000000 		.word	.LANCHOR4
 656              		.cfi_endproc
 657              	.LFE220:
 658              		.size	chPoolLoadArray, .-chPoolLoadArray
 659              		.section	.rodata.__func__.7153,"a",%progbits
 660              		.align	2
 661              		.set	.LANCHOR2,. + 0
 662              		.type	__func__.7153, %object
 663              		.size	__func__.7153, 12
 664              	__func__.7153:
 665 0000 63685379 		.ascii	"chSysUnlock\000"
 665      73556E6C 
 665      6F636B00 
 666              		.section	.rodata.__func__.7851,"a",%progbits
 667              		.align	2
 668              		.set	.LANCHOR0,. + 0
 669              		.type	__func__.7851, %object
 670              		.size	__func__.7851, 17
 671              	__func__.7851:
 672 0000 6368506F 		.ascii	"chPoolObjectInit\000"
 672      6F6C4F62 
 672      6A656374 
 672      496E6974 
 672      00
 673              		.section	.rodata.__func__.7857,"a",%progbits
 674              		.align	2
 675              		.set	.LANCHOR4,. + 0
 676              		.type	__func__.7857, %object
 677              		.size	__func__.7857, 16
 678              	__func__.7857:
ARM GAS  /var/folders/d2/nstgp4h54kz7g1l847x_b8wc0000gn/T//ccgorJ5f.s 			page 13


 679 0000 6368506F 		.ascii	"chPoolLoadArray\000"
 679      6F6C4C6F 
 679      61644172 
 679      72617900 
 680              		.section	.rodata.__func__.7865,"a",%progbits
 681              		.align	2
 682              		.set	.LANCHOR1,. + 0
 683              		.type	__func__.7865, %object
 684              		.size	__func__.7865, 13
 685              	__func__.7865:
 686 0000 6368506F 		.ascii	"chPoolAllocI\000"
 686      6F6C416C 
 686      6C6F6349 
 686      00
 687              		.section	.rodata.__func__.7875,"a",%progbits
 688              		.align	2
 689              		.set	.LANCHOR3,. + 0
 690              		.type	__func__.7875, %object
 691              		.size	__func__.7875, 12
 692              	__func__.7875:
 693 0000 6368506F 		.ascii	"chPoolFreeI\000"
 693      6F6C4672 
 693      65654900 
 694              		.text
 695              	.Letext0:
 696              		.file 5 "/Applications/Eclipse_e-puck2.app/Contents/Eclipse_e-puck2/Tools/gcc-arm-none-eabi-7-2017
 697              		.file 6 "/Applications/Eclipse_e-puck2.app/Contents/Eclipse_e-puck2/Tools/gcc-arm-none-eabi-7-2017
 698              		.file 7 "/Applications/Eclipse_e-puck2.app/Contents/Eclipse_e-puck2/Tools/gcc-arm-none-eabi-7-2017
 699              		.file 8 "../e-puck2_main-processor/ChibiOS//os/rt/ports/ARMCMx/compilers/GCC/chtypes.h"
 700              		.file 9 "../e-puck2_main-processor/ChibiOS//os/rt/include/chsystypes.h"
 701              		.file 10 "../e-puck2_main-processor/ChibiOS//os/rt/include/chschd.h"
 702              		.file 11 "../e-puck2_main-processor/ChibiOS//os/ext/CMSIS/include/core_cm4.h"
 703              		.file 12 "../e-puck2_main-processor/ChibiOS//os/ext/CMSIS/ST/system_stm32f4xx.h"
 704              		.file 13 "../e-puck2_main-processor/ChibiOS//os/rt/ports/ARMCMx/chcore.h"
 705              		.file 14 "../e-puck2_main-processor/ChibiOS//os/rt/ports/ARMCMx/chcore_v7m.h"
 706              		.file 15 "../e-puck2_main-processor/ChibiOS//os/rt/include/chdebug.h"
 707              		.file 16 "../e-puck2_main-processor/ChibiOS//os/rt/include/chtm.h"
 708              		.file 17 "../e-puck2_main-processor/ChibiOS//os/rt/include/chstats.h"
 709              		.file 18 "../e-puck2_main-processor/ChibiOS//os/rt/include/chsem.h"
 710              		.file 19 "../e-puck2_main-processor/ChibiOS//os/rt/include/chmtx.h"
 711              		.file 20 "../e-puck2_main-processor/ChibiOS//os/rt/include/chregistry.h"
 712              		.file 21 "../e-puck2_main-processor/ChibiOS//os/rt/include/chmemcore.h"
 713              		.section	.debug_info,"",%progbits
 714              	.Ldebug_info0:
 715 0000 16100000 		.4byte	0x1016
 716 0004 0400     		.2byte	0x4
 717 0006 00000000 		.4byte	.Ldebug_abbrev0
 718 000a 04       		.byte	0x4
 719 000b 01       		.uleb128 0x1
 720 000c 20030000 		.4byte	.LASF186
 721 0010 0C       		.byte	0xc
 722 0011 13020000 		.4byte	.LASF187
 723 0015 0D000000 		.4byte	.LASF188
 724 0019 48000000 		.4byte	.Ldebug_ranges0+0x48
 725 001d 00000000 		.4byte	0
 726 0021 00000000 		.4byte	.Ldebug_line0
 727 0025 02       		.uleb128 0x2
ARM GAS  /var/folders/d2/nstgp4h54kz7g1l847x_b8wc0000gn/T//ccgorJ5f.s 			page 14


 728 0026 04       		.byte	0x4
 729 0027 05       		.byte	0x5
 730 0028 696E7400 		.ascii	"int\000"
 731 002c 03       		.uleb128 0x3
 732 002d 7B000000 		.4byte	.LASF4
 733 0031 05       		.byte	0x5
 734 0032 D8       		.byte	0xd8
 735 0033 37000000 		.4byte	0x37
 736 0037 04       		.uleb128 0x4
 737 0038 04       		.byte	0x4
 738 0039 07       		.byte	0x7
 739 003a 13030000 		.4byte	.LASF0
 740 003e 04       		.uleb128 0x4
 741 003f 08       		.byte	0x8
 742 0040 05       		.byte	0x5
 743 0041 B9010000 		.4byte	.LASF1
 744 0045 04       		.uleb128 0x4
 745 0046 08       		.byte	0x8
 746 0047 04       		.byte	0x4
 747 0048 FE050000 		.4byte	.LASF2
 748 004c 04       		.uleb128 0x4
 749 004d 01       		.byte	0x1
 750 004e 06       		.byte	0x6
 751 004f C7010000 		.4byte	.LASF3
 752 0053 03       		.uleb128 0x3
 753 0054 A6000000 		.4byte	.LASF5
 754 0058 06       		.byte	0x6
 755 0059 2B       		.byte	0x2b
 756 005a 5E000000 		.4byte	0x5e
 757 005e 04       		.uleb128 0x4
 758 005f 01       		.byte	0x1
 759 0060 08       		.byte	0x8
 760 0061 E7060000 		.4byte	.LASF6
 761 0065 04       		.uleb128 0x4
 762 0066 02       		.byte	0x2
 763 0067 05       		.byte	0x5
 764 0068 FF060000 		.4byte	.LASF7
 765 006c 03       		.uleb128 0x3
 766 006d 1F080000 		.4byte	.LASF8
 767 0071 06       		.byte	0x6
 768 0072 39       		.byte	0x39
 769 0073 77000000 		.4byte	0x77
 770 0077 04       		.uleb128 0x4
 771 0078 02       		.byte	0x2
 772 0079 07       		.byte	0x7
 773 007a C2040000 		.4byte	.LASF9
 774 007e 03       		.uleb128 0x3
 775 007f 69050000 		.4byte	.LASF10
 776 0083 06       		.byte	0x6
 777 0084 4D       		.byte	0x4d
 778 0085 89000000 		.4byte	0x89
 779 0089 04       		.uleb128 0x4
 780 008a 04       		.byte	0x4
 781 008b 05       		.byte	0x5
 782 008c 5D020000 		.4byte	.LASF11
 783 0090 03       		.uleb128 0x3
 784 0091 69080000 		.4byte	.LASF12
ARM GAS  /var/folders/d2/nstgp4h54kz7g1l847x_b8wc0000gn/T//ccgorJ5f.s 			page 15


 785 0095 06       		.byte	0x6
 786 0096 4F       		.byte	0x4f
 787 0097 9B000000 		.4byte	0x9b
 788 009b 04       		.uleb128 0x4
 789 009c 04       		.byte	0x4
 790 009d 07       		.byte	0x7
 791 009e 01080000 		.4byte	.LASF13
 792 00a2 03       		.uleb128 0x3
 793 00a3 84060000 		.4byte	.LASF14
 794 00a7 06       		.byte	0x6
 795 00a8 69       		.byte	0x69
 796 00a9 AD000000 		.4byte	0xad
 797 00ad 04       		.uleb128 0x4
 798 00ae 08       		.byte	0x8
 799 00af 07       		.byte	0x7
 800 00b0 08010000 		.4byte	.LASF15
 801 00b4 03       		.uleb128 0x3
 802 00b5 FB080000 		.4byte	.LASF16
 803 00b9 07       		.byte	0x7
 804 00ba 18       		.byte	0x18
 805 00bb 53000000 		.4byte	0x53
 806 00bf 03       		.uleb128 0x3
 807 00c0 64040000 		.4byte	.LASF17
 808 00c4 07       		.byte	0x7
 809 00c5 24       		.byte	0x24
 810 00c6 6C000000 		.4byte	0x6c
 811 00ca 03       		.uleb128 0x3
 812 00cb DF060000 		.4byte	.LASF18
 813 00cf 07       		.byte	0x7
 814 00d0 2C       		.byte	0x2c
 815 00d1 7E000000 		.4byte	0x7e
 816 00d5 05       		.uleb128 0x5
 817 00d6 CA000000 		.4byte	0xca
 818 00da 03       		.uleb128 0x3
 819 00db C2070000 		.4byte	.LASF19
 820 00df 07       		.byte	0x7
 821 00e0 30       		.byte	0x30
 822 00e1 90000000 		.4byte	0x90
 823 00e5 03       		.uleb128 0x3
 824 00e6 90000000 		.4byte	.LASF20
 825 00ea 07       		.byte	0x7
 826 00eb 3C       		.byte	0x3c
 827 00ec A2000000 		.4byte	0xa2
 828 00f0 03       		.uleb128 0x3
 829 00f1 CF050000 		.4byte	.LASF21
 830 00f5 08       		.byte	0x8
 831 00f6 45       		.byte	0x45
 832 00f7 DA000000 		.4byte	0xda
 833 00fb 03       		.uleb128 0x3
 834 00fc 94010000 		.4byte	.LASF22
 835 0100 08       		.byte	0x8
 836 0101 46       		.byte	0x46
 837 0102 E5000000 		.4byte	0xe5
 838 0106 03       		.uleb128 0x3
 839 0107 34070000 		.4byte	.LASF23
 840 010b 08       		.byte	0x8
 841 010c 48       		.byte	0x48
ARM GAS  /var/folders/d2/nstgp4h54kz7g1l847x_b8wc0000gn/T//ccgorJ5f.s 			page 16


 842 010d B4000000 		.4byte	0xb4
 843 0111 03       		.uleb128 0x3
 844 0112 66020000 		.4byte	.LASF24
 845 0116 08       		.byte	0x8
 846 0117 49       		.byte	0x49
 847 0118 B4000000 		.4byte	0xb4
 848 011c 03       		.uleb128 0x3
 849 011d 9A060000 		.4byte	.LASF25
 850 0121 08       		.byte	0x8
 851 0122 4A       		.byte	0x4a
 852 0123 B4000000 		.4byte	0xb4
 853 0127 03       		.uleb128 0x3
 854 0128 F7070000 		.4byte	.LASF26
 855 012c 08       		.byte	0x8
 856 012d 4B       		.byte	0x4b
 857 012e B4000000 		.4byte	0xb4
 858 0132 03       		.uleb128 0x3
 859 0133 CE060000 		.4byte	.LASF27
 860 0137 08       		.byte	0x8
 861 0138 4C       		.byte	0x4c
 862 0139 DA000000 		.4byte	0xda
 863 013d 03       		.uleb128 0x3
 864 013e EE040000 		.4byte	.LASF28
 865 0142 08       		.byte	0x8
 866 0143 4D       		.byte	0x4d
 867 0144 CA000000 		.4byte	0xca
 868 0148 03       		.uleb128 0x3
 869 0149 5D050000 		.4byte	.LASF29
 870 014d 08       		.byte	0x8
 871 014e 4F       		.byte	0x4f
 872 014f DA000000 		.4byte	0xda
 873 0153 03       		.uleb128 0x3
 874 0154 02030000 		.4byte	.LASF30
 875 0158 08       		.byte	0x8
 876 0159 51       		.byte	0x51
 877 015a CA000000 		.4byte	0xca
 878 015e 03       		.uleb128 0x3
 879 015f F9040000 		.4byte	.LASF31
 880 0163 08       		.byte	0x8
 881 0164 52       		.byte	0x52
 882 0165 DA000000 		.4byte	0xda
 883 0169 03       		.uleb128 0x3
 884 016a 4B080000 		.4byte	.LASF32
 885 016e 09       		.byte	0x9
 886 016f 33       		.byte	0x33
 887 0170 DA000000 		.4byte	0xda
 888 0174 05       		.uleb128 0x5
 889 0175 69010000 		.4byte	0x169
 890 0179 03       		.uleb128 0x3
 891 017a 36080000 		.4byte	.LASF33
 892 017e 09       		.byte	0x9
 893 017f 3F       		.byte	0x3f
 894 0180 84010000 		.4byte	0x184
 895 0184 06       		.uleb128 0x6
 896 0185 E4040000 		.4byte	.LASF57
 897 0189 68       		.byte	0x68
 898 018a 0A       		.byte	0xa
ARM GAS  /var/folders/d2/nstgp4h54kz7g1l847x_b8wc0000gn/T//ccgorJ5f.s 			page 17


 899 018b C2       		.byte	0xc2
 900 018c A2020000 		.4byte	0x2a2
 901 0190 07       		.uleb128 0x7
 902 0191 2D070000 		.4byte	.LASF34
 903 0195 0A       		.byte	0xa
 904 0196 C3       		.byte	0xc3
 905 0197 AD020000 		.4byte	0x2ad
 906 019b 00       		.byte	0
 907 019c 07       		.uleb128 0x7
 908 019d C7060000 		.4byte	.LASF35
 909 01a1 0A       		.byte	0xa
 910 01a2 C5       		.byte	0xc5
 911 01a3 AD020000 		.4byte	0x2ad
 912 01a7 04       		.byte	0x4
 913 01a8 07       		.uleb128 0x7
 914 01a9 9D010000 		.4byte	.LASF36
 915 01ad 0A       		.byte	0xa
 916 01ae C7       		.byte	0xc7
 917 01af 32010000 		.4byte	0x132
 918 01b3 08       		.byte	0x8
 919 01b4 07       		.uleb128 0x7
 920 01b5 4C060000 		.4byte	.LASF37
 921 01b9 0A       		.byte	0xa
 922 01ba C8       		.byte	0xc8
 923 01bb 26050000 		.4byte	0x526
 924 01bf 0C       		.byte	0xc
 925 01c0 07       		.uleb128 0x7
 926 01c1 7F020000 		.4byte	.LASF38
 927 01c5 0A       		.byte	0xa
 928 01c6 CA       		.byte	0xca
 929 01c7 AD020000 		.4byte	0x2ad
 930 01cb 10       		.byte	0x10
 931 01cc 07       		.uleb128 0x7
 932 01cd 3E060000 		.4byte	.LASF39
 933 01d1 0A       		.byte	0xa
 934 01d2 CB       		.byte	0xcb
 935 01d3 AD020000 		.4byte	0x2ad
 936 01d7 14       		.byte	0x14
 937 01d8 07       		.uleb128 0x7
 938 01d9 4E090000 		.4byte	.LASF40
 939 01dd 0A       		.byte	0xa
 940 01de D2       		.byte	0xd2
 941 01df 9C080000 		.4byte	0x89c
 942 01e3 18       		.byte	0x18
 943 01e4 07       		.uleb128 0x7
 944 01e5 08030000 		.4byte	.LASF41
 945 01e9 0A       		.byte	0xa
 946 01ea D8       		.byte	0xd8
 947 01eb B3080000 		.4byte	0x8b3
 948 01ef 1C       		.byte	0x1c
 949 01f0 07       		.uleb128 0x7
 950 01f1 09070000 		.4byte	.LASF42
 951 01f5 0A       		.byte	0xa
 952 01f6 DD       		.byte	0xdd
 953 01f7 11010000 		.4byte	0x111
 954 01fb 20       		.byte	0x20
 955 01fc 07       		.uleb128 0x7
ARM GAS  /var/folders/d2/nstgp4h54kz7g1l847x_b8wc0000gn/T//ccgorJ5f.s 			page 18


 956 01fd 72090000 		.4byte	.LASF43
 957 0201 0A       		.byte	0xa
 958 0202 E1       		.byte	0xe1
 959 0203 06010000 		.4byte	0x106
 960 0207 21       		.byte	0x21
 961 0208 07       		.uleb128 0x7
 962 0209 DD080000 		.4byte	.LASF44
 963 020d 0A       		.byte	0xa
 964 020e E6       		.byte	0xe6
 965 020f 1C010000 		.4byte	0x11c
 966 0213 22       		.byte	0x22
 967 0214 07       		.uleb128 0x7
 968 0215 11070000 		.4byte	.LASF45
 969 0219 0A       		.byte	0xa
 970 021a EC       		.byte	0xec
 971 021b 27010000 		.4byte	0x127
 972 021f 23       		.byte	0x23
 973 0220 07       		.uleb128 0x7
 974 0221 7D040000 		.4byte	.LASF46
 975 0225 0A       		.byte	0xa
 976 0226 F3       		.byte	0xf3
 977 0227 74010000 		.4byte	0x174
 978 022b 24       		.byte	0x24
 979 022c 08       		.uleb128 0x8
 980 022d 705F7500 		.ascii	"p_u\000"
 981 0231 0A       		.byte	0xa
 982 0232 3101     		.2byte	0x131
 983 0234 CB070000 		.4byte	0x7cb
 984 0238 28       		.byte	0x28
 985 0239 09       		.uleb128 0x9
 986 023a A8050000 		.4byte	.LASF47
 987 023e 0A       		.byte	0xa
 988 023f 3601     		.2byte	0x136
 989 0241 B3020000 		.4byte	0x2b3
 990 0245 2C       		.byte	0x2c
 991 0246 09       		.uleb128 0x9
 992 0247 94040000 		.4byte	.LASF48
 993 024b 0A       		.byte	0xa
 994 024c 3C01     		.2byte	0x13c
 995 024e D7020000 		.4byte	0x2d7
 996 0252 30       		.byte	0x30
 997 0253 09       		.uleb128 0x9
 998 0254 AC080000 		.4byte	.LASF49
 999 0258 0A       		.byte	0xa
 1000 0259 4001     		.2byte	0x140
 1001 025b 3D010000 		.4byte	0x13d
 1002 025f 38       		.byte	0x38
 1003 0260 09       		.uleb128 0x9
 1004 0261 B7070000 		.4byte	.LASF50
 1005 0265 0A       		.byte	0xa
 1006 0266 4601     		.2byte	0x146
 1007 0268 48010000 		.4byte	0x148
 1008 026c 3C       		.byte	0x3c
 1009 026d 09       		.uleb128 0x9
 1010 026e F5060000 		.4byte	.LASF51
 1011 0272 0A       		.byte	0xa
 1012 0273 4D01     		.2byte	0x14d
ARM GAS  /var/folders/d2/nstgp4h54kz7g1l847x_b8wc0000gn/T//ccgorJ5f.s 			page 19


 1013 0275 96080000 		.4byte	0x896
 1014 0279 40       		.byte	0x40
 1015 027a 09       		.uleb128 0x9
 1016 027b 55080000 		.4byte	.LASF52
 1017 027f 0A       		.byte	0xa
 1018 0280 5101     		.2byte	0x151
 1019 0282 32010000 		.4byte	0x132
 1020 0286 44       		.byte	0x44
 1021 0287 09       		.uleb128 0x9
 1022 0288 F0010000 		.4byte	.LASF53
 1023 028c 0A       		.byte	0xa
 1024 028d 5801     		.2byte	0x158
 1025 028f 8A030000 		.4byte	0x38a
 1026 0293 48       		.byte	0x48
 1027 0294 09       		.uleb128 0x9
 1028 0295 54070000 		.4byte	.LASF54
 1029 0299 0A       		.byte	0xa
 1030 029a 5E01     		.2byte	0x15e
 1031 029c 7C070000 		.4byte	0x77c
 1032 02a0 50       		.byte	0x50
 1033 02a1 00       		.byte	0
 1034 02a2 03       		.uleb128 0x3
 1035 02a3 2C090000 		.4byte	.LASF55
 1036 02a7 09       		.byte	0x9
 1037 02a8 44       		.byte	0x44
 1038 02a9 AD020000 		.4byte	0x2ad
 1039 02ad 0A       		.uleb128 0xa
 1040 02ae 04       		.byte	0x4
 1041 02af 79010000 		.4byte	0x179
 1042 02b3 03       		.uleb128 0x3
 1043 02b4 7E050000 		.4byte	.LASF56
 1044 02b8 09       		.byte	0x9
 1045 02b9 49       		.byte	0x49
 1046 02ba BE020000 		.4byte	0x2be
 1047 02be 06       		.uleb128 0x6
 1048 02bf DF070000 		.4byte	.LASF58
 1049 02c3 04       		.byte	0x4
 1050 02c4 0A       		.byte	0xa
 1051 02c5 B0       		.byte	0xb0
 1052 02c6 D7020000 		.4byte	0x2d7
 1053 02ca 07       		.uleb128 0x7
 1054 02cb 2D070000 		.4byte	.LASF34
 1055 02cf 0A       		.byte	0xa
 1056 02d0 B1       		.byte	0xb1
 1057 02d1 AD020000 		.4byte	0x2ad
 1058 02d5 00       		.byte	0
 1059 02d6 00       		.byte	0
 1060 02d7 03       		.uleb128 0x3
 1061 02d8 6B070000 		.4byte	.LASF59
 1062 02dc 09       		.byte	0x9
 1063 02dd 50       		.byte	0x50
 1064 02de E2020000 		.4byte	0x2e2
 1065 02e2 06       		.uleb128 0x6
 1066 02e3 BC000000 		.4byte	.LASF60
 1067 02e7 08       		.byte	0x8
 1068 02e8 0A       		.byte	0xa
 1069 02e9 B7       		.byte	0xb7
ARM GAS  /var/folders/d2/nstgp4h54kz7g1l847x_b8wc0000gn/T//ccgorJ5f.s 			page 20


 1070 02ea 07030000 		.4byte	0x307
 1071 02ee 07       		.uleb128 0x7
 1072 02ef 2D070000 		.4byte	.LASF34
 1073 02f3 0A       		.byte	0xa
 1074 02f4 B8       		.byte	0xb8
 1075 02f5 AD020000 		.4byte	0x2ad
 1076 02f9 00       		.byte	0
 1077 02fa 07       		.uleb128 0x7
 1078 02fb C7060000 		.4byte	.LASF35
 1079 02ff 0A       		.byte	0xa
 1080 0300 B9       		.byte	0xb9
 1081 0301 AD020000 		.4byte	0x2ad
 1082 0305 04       		.byte	0x4
 1083 0306 00       		.byte	0
 1084 0307 03       		.uleb128 0x3
 1085 0308 66000000 		.4byte	.LASF61
 1086 030c 09       		.byte	0x9
 1087 030d 57       		.byte	0x57
 1088 030e 12030000 		.4byte	0x312
 1089 0312 0B       		.uleb128 0xb
 1090 0313 4F050000 		.4byte	.LASF62
 1091 0317 1C       		.byte	0x1c
 1092 0318 0A       		.byte	0xa
 1093 0319 9001     		.2byte	0x190
 1094 031b 6E030000 		.4byte	0x36e
 1095 031f 09       		.uleb128 0x9
 1096 0320 D7070000 		.4byte	.LASF63
 1097 0324 0A       		.byte	0xa
 1098 0325 9101     		.2byte	0x191
 1099 0327 D7020000 		.4byte	0x2d7
 1100 032b 00       		.byte	0
 1101 032c 09       		.uleb128 0x9
 1102 032d A1050000 		.4byte	.LASF64
 1103 0331 0A       		.byte	0xa
 1104 0332 9201     		.2byte	0x192
 1105 0334 32010000 		.4byte	0x132
 1106 0338 08       		.byte	0x8
 1107 0339 09       		.uleb128 0x9
 1108 033a 46060000 		.4byte	.LASF65
 1109 033e 0A       		.byte	0xa
 1110 033f 9401     		.2byte	0x194
 1111 0341 26050000 		.4byte	0x526
 1112 0345 0C       		.byte	0xc
 1113 0346 09       		.uleb128 0x9
 1114 0347 97020000 		.4byte	.LASF66
 1115 034b 0A       		.byte	0xa
 1116 034c 9701     		.2byte	0x197
 1117 034e AD020000 		.4byte	0x2ad
 1118 0352 10       		.byte	0x10
 1119 0353 09       		.uleb128 0x9
 1120 0354 7C060000 		.4byte	.LASF67
 1121 0358 0A       		.byte	0xa
 1122 0359 9801     		.2byte	0x198
 1123 035b AD020000 		.4byte	0x2ad
 1124 035f 14       		.byte	0x14
 1125 0360 09       		.uleb128 0x9
 1126 0361 72060000 		.4byte	.LASF68
ARM GAS  /var/folders/d2/nstgp4h54kz7g1l847x_b8wc0000gn/T//ccgorJ5f.s 			page 21


 1127 0365 0A       		.byte	0xa
 1128 0366 9B01     		.2byte	0x19b
 1129 0368 AD020000 		.4byte	0x2ad
 1130 036c 18       		.byte	0x18
 1131 036d 00       		.byte	0
 1132 036e 03       		.uleb128 0x3
 1133 036f 60080000 		.4byte	.LASF69
 1134 0373 09       		.byte	0x9
 1135 0374 5C       		.byte	0x5c
 1136 0375 79030000 		.4byte	0x379
 1137 0379 0A       		.uleb128 0xa
 1138 037a 04       		.byte	0x4
 1139 037b 7F030000 		.4byte	0x37f
 1140 037f 0C       		.uleb128 0xc
 1141 0380 8A030000 		.4byte	0x38a
 1142 0384 0D       		.uleb128 0xd
 1143 0385 8A030000 		.4byte	0x38a
 1144 0389 00       		.byte	0
 1145 038a 0E       		.uleb128 0xe
 1146 038b 04       		.byte	0x4
 1147 038c 03       		.uleb128 0x3
 1148 038d B7060000 		.4byte	.LASF70
 1149 0391 09       		.byte	0x9
 1150 0392 61       		.byte	0x61
 1151 0393 97030000 		.4byte	0x397
 1152 0397 0B       		.uleb128 0xb
 1153 0398 7B070000 		.4byte	.LASF71
 1154 039c 14       		.byte	0x14
 1155 039d 0A       		.byte	0xa
 1156 039e 6B01     		.2byte	0x16b
 1157 03a0 E6030000 		.4byte	0x3e6
 1158 03a4 09       		.uleb128 0x9
 1159 03a5 DC020000 		.4byte	.LASF72
 1160 03a9 0A       		.byte	0xa
 1161 03aa 6C01     		.2byte	0x16c
 1162 03ac B9080000 		.4byte	0x8b9
 1163 03b0 00       		.byte	0
 1164 03b1 09       		.uleb128 0x9
 1165 03b2 B4020000 		.4byte	.LASF73
 1166 03b6 0A       		.byte	0xa
 1167 03b7 6D01     		.2byte	0x16d
 1168 03b9 B9080000 		.4byte	0x8b9
 1169 03bd 04       		.byte	0x4
 1170 03be 09       		.uleb128 0x9
 1171 03bf 8B040000 		.4byte	.LASF74
 1172 03c3 0A       		.byte	0xa
 1173 03c4 6E01     		.2byte	0x16e
 1174 03c6 69010000 		.4byte	0x169
 1175 03ca 08       		.byte	0x8
 1176 03cb 09       		.uleb128 0x9
 1177 03cc C1090000 		.4byte	.LASF75
 1178 03d0 0A       		.byte	0xa
 1179 03d1 6F01     		.2byte	0x16f
 1180 03d3 6E030000 		.4byte	0x36e
 1181 03d7 0C       		.byte	0xc
 1182 03d8 09       		.uleb128 0x9
 1183 03d9 BF080000 		.4byte	.LASF76
ARM GAS  /var/folders/d2/nstgp4h54kz7g1l847x_b8wc0000gn/T//ccgorJ5f.s 			page 22


 1184 03dd 0A       		.byte	0xa
 1185 03de 7101     		.2byte	0x171
 1186 03e0 8A030000 		.4byte	0x38a
 1187 03e4 10       		.byte	0x10
 1188 03e5 00       		.byte	0
 1189 03e6 03       		.uleb128 0x3
 1190 03e7 71010000 		.4byte	.LASF77
 1191 03eb 09       		.byte	0x9
 1192 03ec 66       		.byte	0x66
 1193 03ed F1030000 		.4byte	0x3f1
 1194 03f1 0B       		.uleb128 0xb
 1195 03f2 E7050000 		.4byte	.LASF78
 1196 03f6 10       		.byte	0x10
 1197 03f7 0A       		.byte	0xa
 1198 03f8 7B01     		.2byte	0x17b
 1199 03fa 33040000 		.4byte	0x433
 1200 03fe 09       		.uleb128 0x9
 1201 03ff DC020000 		.4byte	.LASF72
 1202 0403 0A       		.byte	0xa
 1203 0404 7C01     		.2byte	0x17c
 1204 0406 B9080000 		.4byte	0x8b9
 1205 040a 00       		.byte	0
 1206 040b 09       		.uleb128 0x9
 1207 040c B4020000 		.4byte	.LASF73
 1208 0410 0A       		.byte	0xa
 1209 0411 7E01     		.2byte	0x17e
 1210 0413 B9080000 		.4byte	0x8b9
 1211 0417 04       		.byte	0x4
 1212 0418 09       		.uleb128 0x9
 1213 0419 8B040000 		.4byte	.LASF74
 1214 041d 0A       		.byte	0xa
 1215 041e 8001     		.2byte	0x180
 1216 0420 69010000 		.4byte	0x169
 1217 0424 08       		.byte	0x8
 1218 0425 09       		.uleb128 0x9
 1219 0426 5A090000 		.4byte	.LASF79
 1220 042a 0A       		.byte	0xa
 1221 042b 8201     		.2byte	0x182
 1222 042d 74010000 		.4byte	0x174
 1223 0431 0C       		.byte	0xc
 1224 0432 00       		.byte	0
 1225 0433 03       		.uleb128 0x3
 1226 0434 CD000000 		.4byte	.LASF80
 1227 0438 09       		.byte	0x9
 1228 0439 6B       		.byte	0x6b
 1229 043a 3E040000 		.4byte	0x43e
 1230 043e 0F       		.uleb128 0xf
 1231 043f C6020000 		.4byte	.LASF81
 1232 0443 1404     		.2byte	0x414
 1233 0445 0A       		.byte	0xa
 1234 0446 A201     		.2byte	0x1a2
 1235 0448 81040000 		.4byte	0x481
 1236 044c 09       		.uleb128 0x9
 1237 044d 82080000 		.4byte	.LASF82
 1238 0451 0A       		.byte	0xa
 1239 0452 AA01     		.2byte	0x1aa
 1240 0454 A2080000 		.4byte	0x8a2
ARM GAS  /var/folders/d2/nstgp4h54kz7g1l847x_b8wc0000gn/T//ccgorJ5f.s 			page 23


 1241 0458 00       		.byte	0
 1242 0459 09       		.uleb128 0x9
 1243 045a E4080000 		.4byte	.LASF83
 1244 045e 0A       		.byte	0xa
 1245 045f AF01     		.2byte	0x1af
 1246 0461 53010000 		.4byte	0x153
 1247 0465 04       		.byte	0x4
 1248 0466 09       		.uleb128 0x9
 1249 0467 EA020000 		.4byte	.LASF84
 1250 046b 0A       		.byte	0xa
 1251 046c B301     		.2byte	0x1b3
 1252 046e 53010000 		.4byte	0x153
 1253 0472 08       		.byte	0x8
 1254 0473 09       		.uleb128 0x9
 1255 0474 65090000 		.4byte	.LASF85
 1256 0478 0A       		.byte	0xa
 1257 0479 B901     		.2byte	0x1b9
 1258 047b 0E070000 		.4byte	0x70e
 1259 047f 0C       		.byte	0xc
 1260 0480 00       		.byte	0
 1261 0481 03       		.uleb128 0x3
 1262 0482 11050000 		.4byte	.LASF86
 1263 0486 09       		.byte	0x9
 1264 0487 70       		.byte	0x70
 1265 0488 8C040000 		.4byte	0x48c
 1266 048c 0F       		.uleb128 0xf
 1267 048d 53020000 		.4byte	.LASF87
 1268 0491 7006     		.2byte	0x670
 1269 0493 0A       		.byte	0xa
 1270 0494 C201     		.2byte	0x1c2
 1271 0496 F9040000 		.4byte	0x4f9
 1272 049a 09       		.uleb128 0x9
 1273 049b F5080000 		.4byte	.LASF88
 1274 049f 0A       		.byte	0xa
 1275 04a0 C601     		.2byte	0x1c6
 1276 04a2 07030000 		.4byte	0x307
 1277 04a6 00       		.byte	0
 1278 04a7 09       		.uleb128 0x9
 1279 04a8 00020000 		.4byte	.LASF89
 1280 04ac 0A       		.byte	0xa
 1281 04ad CA01     		.2byte	0x1ca
 1282 04af E6030000 		.4byte	0x3e6
 1283 04b3 1C       		.byte	0x1c
 1284 04b4 08       		.uleb128 0x8
 1285 04b5 64626700 		.ascii	"dbg\000"
 1286 04b9 0A       		.byte	0xa
 1287 04ba CE01     		.2byte	0x1ce
 1288 04bc 33040000 		.4byte	0x433
 1289 04c0 2C       		.byte	0x2c
 1290 04c1 10       		.uleb128 0x10
 1291 04c2 48010000 		.4byte	.LASF90
 1292 04c6 0A       		.byte	0xa
 1293 04c7 D201     		.2byte	0x1d2
 1294 04c9 79010000 		.4byte	0x179
 1295 04cd 4004     		.2byte	0x440
 1296 04cf 11       		.uleb128 0x11
 1297 04d0 746D00   		.ascii	"tm\000"
ARM GAS  /var/folders/d2/nstgp4h54kz7g1l847x_b8wc0000gn/T//ccgorJ5f.s 			page 24


 1298 04d3 0A       		.byte	0xa
 1299 04d4 D701     		.2byte	0x1d7
 1300 04d6 2E070000 		.4byte	0x72e
 1301 04da A804     		.2byte	0x4a8
 1302 04dc 10       		.uleb128 0x10
 1303 04dd 99000000 		.4byte	.LASF91
 1304 04e1 0A       		.byte	0xa
 1305 04e2 DD01     		.2byte	0x1dd
 1306 04e4 C0070000 		.4byte	0x7c0
 1307 04e8 B004     		.2byte	0x4b0
 1308 04ea 10       		.uleb128 0x10
 1309 04eb F3020000 		.4byte	.LASF92
 1310 04ef 0A       		.byte	0xa
 1311 04f0 E301     		.2byte	0x1e3
 1312 04f2 BF080000 		.4byte	0x8bf
 1313 04f6 E804     		.2byte	0x4e8
 1314 04f8 00       		.byte	0
 1315 04f9 12       		.uleb128 0x12
 1316 04fa 87010000 		.4byte	.LASF93
 1317 04fe 0B       		.byte	0xb
 1318 04ff A706     		.2byte	0x6a7
 1319 0501 D5000000 		.4byte	0xd5
 1320 0505 13       		.uleb128 0x13
 1321 0506 6D040000 		.4byte	.LASF94
 1322 050a 0C       		.byte	0xc
 1323 050b 4C       		.byte	0x4c
 1324 050c DA000000 		.4byte	0xda
 1325 0510 03       		.uleb128 0x3
 1326 0511 AB020000 		.4byte	.LASF95
 1327 0515 0D       		.byte	0xd
 1328 0516 65       		.byte	0x65
 1329 0517 8A030000 		.4byte	0x38a
 1330 051b 03       		.uleb128 0x3
 1331 051c 73050000 		.4byte	.LASF96
 1332 0520 0D       		.byte	0xd
 1333 0521 6D       		.byte	0x6d
 1334 0522 E5000000 		.4byte	0xe5
 1335 0526 06       		.uleb128 0x6
 1336 0527 A4080000 		.4byte	.LASF97
 1337 052b 04       		.byte	0x4
 1338 052c 0D       		.byte	0xd
 1339 052d 89       		.byte	0x89
 1340 052e 3F050000 		.4byte	0x53f
 1341 0532 14       		.uleb128 0x14
 1342 0533 72313300 		.ascii	"r13\000"
 1343 0537 0D       		.byte	0xd
 1344 0538 8A       		.byte	0x8a
 1345 0539 80060000 		.4byte	0x680
 1346 053d 00       		.byte	0
 1347 053e 00       		.byte	0
 1348 053f 06       		.uleb128 0x6
 1349 0540 B0000000 		.4byte	.LASF98
 1350 0544 64       		.byte	0x64
 1351 0545 0E       		.byte	0xe
 1352 0546 F4       		.byte	0xf4
 1353 0547 80060000 		.4byte	0x680
 1354 054b 14       		.uleb128 0x14
ARM GAS  /var/folders/d2/nstgp4h54kz7g1l847x_b8wc0000gn/T//ccgorJ5f.s 			page 25


 1355 054c 73313600 		.ascii	"s16\000"
 1356 0550 0E       		.byte	0xe
 1357 0551 F6       		.byte	0xf6
 1358 0552 10050000 		.4byte	0x510
 1359 0556 00       		.byte	0
 1360 0557 14       		.uleb128 0x14
 1361 0558 73313700 		.ascii	"s17\000"
 1362 055c 0E       		.byte	0xe
 1363 055d F7       		.byte	0xf7
 1364 055e 10050000 		.4byte	0x510
 1365 0562 04       		.byte	0x4
 1366 0563 14       		.uleb128 0x14
 1367 0564 73313800 		.ascii	"s18\000"
 1368 0568 0E       		.byte	0xe
 1369 0569 F8       		.byte	0xf8
 1370 056a 10050000 		.4byte	0x510
 1371 056e 08       		.byte	0x8
 1372 056f 14       		.uleb128 0x14
 1373 0570 73313900 		.ascii	"s19\000"
 1374 0574 0E       		.byte	0xe
 1375 0575 F9       		.byte	0xf9
 1376 0576 10050000 		.4byte	0x510
 1377 057a 0C       		.byte	0xc
 1378 057b 14       		.uleb128 0x14
 1379 057c 73323000 		.ascii	"s20\000"
 1380 0580 0E       		.byte	0xe
 1381 0581 FA       		.byte	0xfa
 1382 0582 10050000 		.4byte	0x510
 1383 0586 10       		.byte	0x10
 1384 0587 14       		.uleb128 0x14
 1385 0588 73323100 		.ascii	"s21\000"
 1386 058c 0E       		.byte	0xe
 1387 058d FB       		.byte	0xfb
 1388 058e 10050000 		.4byte	0x510
 1389 0592 14       		.byte	0x14
 1390 0593 14       		.uleb128 0x14
 1391 0594 73323200 		.ascii	"s22\000"
 1392 0598 0E       		.byte	0xe
 1393 0599 FC       		.byte	0xfc
 1394 059a 10050000 		.4byte	0x510
 1395 059e 18       		.byte	0x18
 1396 059f 14       		.uleb128 0x14
 1397 05a0 73323300 		.ascii	"s23\000"
 1398 05a4 0E       		.byte	0xe
 1399 05a5 FD       		.byte	0xfd
 1400 05a6 10050000 		.4byte	0x510
 1401 05aa 1C       		.byte	0x1c
 1402 05ab 14       		.uleb128 0x14
 1403 05ac 73323400 		.ascii	"s24\000"
 1404 05b0 0E       		.byte	0xe
 1405 05b1 FE       		.byte	0xfe
 1406 05b2 10050000 		.4byte	0x510
 1407 05b6 20       		.byte	0x20
 1408 05b7 14       		.uleb128 0x14
 1409 05b8 73323500 		.ascii	"s25\000"
 1410 05bc 0E       		.byte	0xe
 1411 05bd FF       		.byte	0xff
ARM GAS  /var/folders/d2/nstgp4h54kz7g1l847x_b8wc0000gn/T//ccgorJ5f.s 			page 26


 1412 05be 10050000 		.4byte	0x510
 1413 05c2 24       		.byte	0x24
 1414 05c3 08       		.uleb128 0x8
 1415 05c4 73323600 		.ascii	"s26\000"
 1416 05c8 0E       		.byte	0xe
 1417 05c9 0001     		.2byte	0x100
 1418 05cb 10050000 		.4byte	0x510
 1419 05cf 28       		.byte	0x28
 1420 05d0 08       		.uleb128 0x8
 1421 05d1 73323700 		.ascii	"s27\000"
 1422 05d5 0E       		.byte	0xe
 1423 05d6 0101     		.2byte	0x101
 1424 05d8 10050000 		.4byte	0x510
 1425 05dc 2C       		.byte	0x2c
 1426 05dd 08       		.uleb128 0x8
 1427 05de 73323800 		.ascii	"s28\000"
 1428 05e2 0E       		.byte	0xe
 1429 05e3 0201     		.2byte	0x102
 1430 05e5 10050000 		.4byte	0x510
 1431 05e9 30       		.byte	0x30
 1432 05ea 08       		.uleb128 0x8
 1433 05eb 73323900 		.ascii	"s29\000"
 1434 05ef 0E       		.byte	0xe
 1435 05f0 0301     		.2byte	0x103
 1436 05f2 10050000 		.4byte	0x510
 1437 05f6 34       		.byte	0x34
 1438 05f7 08       		.uleb128 0x8
 1439 05f8 73333000 		.ascii	"s30\000"
 1440 05fc 0E       		.byte	0xe
 1441 05fd 0401     		.2byte	0x104
 1442 05ff 10050000 		.4byte	0x510
 1443 0603 38       		.byte	0x38
 1444 0604 08       		.uleb128 0x8
 1445 0605 73333100 		.ascii	"s31\000"
 1446 0609 0E       		.byte	0xe
 1447 060a 0501     		.2byte	0x105
 1448 060c 10050000 		.4byte	0x510
 1449 0610 3C       		.byte	0x3c
 1450 0611 08       		.uleb128 0x8
 1451 0612 723400   		.ascii	"r4\000"
 1452 0615 0E       		.byte	0xe
 1453 0616 0701     		.2byte	0x107
 1454 0618 10050000 		.4byte	0x510
 1455 061c 40       		.byte	0x40
 1456 061d 08       		.uleb128 0x8
 1457 061e 723500   		.ascii	"r5\000"
 1458 0621 0E       		.byte	0xe
 1459 0622 0801     		.2byte	0x108
 1460 0624 10050000 		.4byte	0x510
 1461 0628 44       		.byte	0x44
 1462 0629 08       		.uleb128 0x8
 1463 062a 723600   		.ascii	"r6\000"
 1464 062d 0E       		.byte	0xe
 1465 062e 0901     		.2byte	0x109
 1466 0630 10050000 		.4byte	0x510
 1467 0634 48       		.byte	0x48
 1468 0635 08       		.uleb128 0x8
ARM GAS  /var/folders/d2/nstgp4h54kz7g1l847x_b8wc0000gn/T//ccgorJ5f.s 			page 27


 1469 0636 723700   		.ascii	"r7\000"
 1470 0639 0E       		.byte	0xe
 1471 063a 0A01     		.2byte	0x10a
 1472 063c 10050000 		.4byte	0x510
 1473 0640 4C       		.byte	0x4c
 1474 0641 08       		.uleb128 0x8
 1475 0642 723800   		.ascii	"r8\000"
 1476 0645 0E       		.byte	0xe
 1477 0646 0B01     		.2byte	0x10b
 1478 0648 10050000 		.4byte	0x510
 1479 064c 50       		.byte	0x50
 1480 064d 08       		.uleb128 0x8
 1481 064e 723900   		.ascii	"r9\000"
 1482 0651 0E       		.byte	0xe
 1483 0652 0C01     		.2byte	0x10c
 1484 0654 10050000 		.4byte	0x510
 1485 0658 54       		.byte	0x54
 1486 0659 08       		.uleb128 0x8
 1487 065a 72313000 		.ascii	"r10\000"
 1488 065e 0E       		.byte	0xe
 1489 065f 0D01     		.2byte	0x10d
 1490 0661 10050000 		.4byte	0x510
 1491 0665 58       		.byte	0x58
 1492 0666 08       		.uleb128 0x8
 1493 0667 72313100 		.ascii	"r11\000"
 1494 066b 0E       		.byte	0xe
 1495 066c 0E01     		.2byte	0x10e
 1496 066e 10050000 		.4byte	0x510
 1497 0672 5C       		.byte	0x5c
 1498 0673 08       		.uleb128 0x8
 1499 0674 6C7200   		.ascii	"lr\000"
 1500 0677 0E       		.byte	0xe
 1501 0678 0F01     		.2byte	0x10f
 1502 067a 10050000 		.4byte	0x510
 1503 067e 60       		.byte	0x60
 1504 067f 00       		.byte	0
 1505 0680 0A       		.uleb128 0xa
 1506 0681 04       		.byte	0x4
 1507 0682 3F050000 		.4byte	0x53f
 1508 0686 15       		.uleb128 0x15
 1509 0687 10       		.byte	0x10
 1510 0688 0F       		.byte	0xf
 1511 0689 51       		.byte	0x51
 1512 068a BF060000 		.4byte	0x6bf
 1513 068e 07       		.uleb128 0x7
 1514 068f 73000000 		.4byte	.LASF99
 1515 0693 0F       		.byte	0xf
 1516 0694 55       		.byte	0x55
 1517 0695 69010000 		.4byte	0x169
 1518 0699 00       		.byte	0
 1519 069a 07       		.uleb128 0x7
 1520 069b 6F020000 		.4byte	.LASF100
 1521 069f 0F       		.byte	0xf
 1522 06a0 59       		.byte	0x59
 1523 06a1 AD020000 		.4byte	0x2ad
 1524 06a5 04       		.byte	0x4
 1525 06a6 07       		.uleb128 0x7
ARM GAS  /var/folders/d2/nstgp4h54kz7g1l847x_b8wc0000gn/T//ccgorJ5f.s 			page 28


 1526 06a7 A9090000 		.4byte	.LASF101
 1527 06ab 0F       		.byte	0xf
 1528 06ac 5D       		.byte	0x5d
 1529 06ad 8A030000 		.4byte	0x38a
 1530 06b1 08       		.byte	0x8
 1531 06b2 07       		.uleb128 0x7
 1532 06b3 EC080000 		.4byte	.LASF102
 1533 06b7 0F       		.byte	0xf
 1534 06b8 61       		.byte	0x61
 1535 06b9 B4000000 		.4byte	0xb4
 1536 06bd 0C       		.byte	0xc
 1537 06be 00       		.byte	0
 1538 06bf 03       		.uleb128 0x3
 1539 06c0 23060000 		.4byte	.LASF103
 1540 06c4 0F       		.byte	0xf
 1541 06c5 62       		.byte	0x62
 1542 06c6 86060000 		.4byte	0x686
 1543 06ca 16       		.uleb128 0x16
 1544 06cb 0804     		.2byte	0x408
 1545 06cd 0F       		.byte	0xf
 1546 06ce 67       		.byte	0x67
 1547 06cf F8060000 		.4byte	0x6f8
 1548 06d3 07       		.uleb128 0x7
 1549 06d4 8F020000 		.4byte	.LASF104
 1550 06d8 0F       		.byte	0xf
 1551 06d9 6B       		.byte	0x6b
 1552 06da 37000000 		.4byte	0x37
 1553 06de 00       		.byte	0
 1554 06df 07       		.uleb128 0x7
 1555 06e0 89000000 		.4byte	.LASF105
 1556 06e4 0F       		.byte	0xf
 1557 06e5 6F       		.byte	0x6f
 1558 06e6 F8060000 		.4byte	0x6f8
 1559 06ea 04       		.byte	0x4
 1560 06eb 07       		.uleb128 0x7
 1561 06ec A2060000 		.4byte	.LASF106
 1562 06f0 0F       		.byte	0xf
 1563 06f1 73       		.byte	0x73
 1564 06f2 FE060000 		.4byte	0x6fe
 1565 06f6 08       		.byte	0x8
 1566 06f7 00       		.byte	0
 1567 06f8 0A       		.uleb128 0xa
 1568 06f9 04       		.byte	0x4
 1569 06fa BF060000 		.4byte	0x6bf
 1570 06fe 17       		.uleb128 0x17
 1571 06ff BF060000 		.4byte	0x6bf
 1572 0703 0E070000 		.4byte	0x70e
 1573 0707 18       		.uleb128 0x18
 1574 0708 37000000 		.4byte	0x37
 1575 070c 3F       		.byte	0x3f
 1576 070d 00       		.byte	0
 1577 070e 03       		.uleb128 0x3
 1578 070f 1F010000 		.4byte	.LASF107
 1579 0713 0F       		.byte	0xf
 1580 0714 74       		.byte	0x74
 1581 0715 CA060000 		.4byte	0x6ca
 1582 0719 15       		.uleb128 0x15
ARM GAS  /var/folders/d2/nstgp4h54kz7g1l847x_b8wc0000gn/T//ccgorJ5f.s 			page 29


 1583 071a 04       		.byte	0x4
 1584 071b 10       		.byte	0x10
 1585 071c 38       		.byte	0x38
 1586 071d 2E070000 		.4byte	0x72e
 1587 0721 07       		.uleb128 0x7
 1588 0722 8C080000 		.4byte	.LASF108
 1589 0726 10       		.byte	0x10
 1590 0727 3C       		.byte	0x3c
 1591 0728 F0000000 		.4byte	0xf0
 1592 072c 00       		.byte	0
 1593 072d 00       		.byte	0
 1594 072e 03       		.uleb128 0x3
 1595 072f 61060000 		.4byte	.LASF109
 1596 0733 10       		.byte	0x10
 1597 0734 3D       		.byte	0x3d
 1598 0735 19070000 		.4byte	0x719
 1599 0739 15       		.uleb128 0x15
 1600 073a 18       		.byte	0x18
 1601 073b 10       		.byte	0x10
 1602 073c 48       		.byte	0x48
 1603 073d 7C070000 		.4byte	0x77c
 1604 0741 07       		.uleb128 0x7
 1605 0742 3F080000 		.4byte	.LASF110
 1606 0746 10       		.byte	0x10
 1607 0747 49       		.byte	0x49
 1608 0748 F0000000 		.4byte	0xf0
 1609 074c 00       		.byte	0
 1610 074d 07       		.uleb128 0x7
 1611 074e EF000000 		.4byte	.LASF111
 1612 0752 10       		.byte	0x10
 1613 0753 4A       		.byte	0x4a
 1614 0754 F0000000 		.4byte	0xf0
 1615 0758 04       		.byte	0x4
 1616 0759 07       		.uleb128 0x7
 1617 075a F4040000 		.4byte	.LASF112
 1618 075e 10       		.byte	0x10
 1619 075f 4B       		.byte	0x4b
 1620 0760 F0000000 		.4byte	0xf0
 1621 0764 08       		.byte	0x8
 1622 0765 14       		.uleb128 0x14
 1623 0766 6E00     		.ascii	"n\000"
 1624 0768 10       		.byte	0x10
 1625 0769 4C       		.byte	0x4c
 1626 076a 5E010000 		.4byte	0x15e
 1627 076e 0C       		.byte	0xc
 1628 076f 07       		.uleb128 0x7
 1629 0770 8F060000 		.4byte	.LASF113
 1630 0774 10       		.byte	0x10
 1631 0775 4D       		.byte	0x4d
 1632 0776 FB000000 		.4byte	0xfb
 1633 077a 10       		.byte	0x10
 1634 077b 00       		.byte	0
 1635 077c 03       		.uleb128 0x3
 1636 077d F5000000 		.4byte	.LASF114
 1637 0781 10       		.byte	0x10
 1638 0782 4E       		.byte	0x4e
 1639 0783 39070000 		.4byte	0x739
ARM GAS  /var/folders/d2/nstgp4h54kz7g1l847x_b8wc0000gn/T//ccgorJ5f.s 			page 30


 1640 0787 15       		.uleb128 0x15
 1641 0788 38       		.byte	0x38
 1642 0789 11       		.byte	0x11
 1643 078a 38       		.byte	0x38
 1644 078b C0070000 		.4byte	0x7c0
 1645 078f 07       		.uleb128 0x7
 1646 0790 B6040000 		.4byte	.LASF115
 1647 0794 11       		.byte	0x11
 1648 0795 39       		.byte	0x39
 1649 0796 5E010000 		.4byte	0x15e
 1650 079a 00       		.byte	0
 1651 079b 07       		.uleb128 0x7
 1652 079c D6060000 		.4byte	.LASF116
 1653 07a0 11       		.byte	0x11
 1654 07a1 3A       		.byte	0x3a
 1655 07a2 5E010000 		.4byte	0x15e
 1656 07a6 04       		.byte	0x4
 1657 07a7 07       		.uleb128 0x7
 1658 07a8 96090000 		.4byte	.LASF117
 1659 07ac 11       		.byte	0x11
 1660 07ad 3B       		.byte	0x3b
 1661 07ae 7C070000 		.4byte	0x77c
 1662 07b2 08       		.byte	0x8
 1663 07b3 07       		.uleb128 0x7
 1664 07b4 44050000 		.4byte	.LASF118
 1665 07b8 11       		.byte	0x11
 1666 07b9 3D       		.byte	0x3d
 1667 07ba 7C070000 		.4byte	0x77c
 1668 07be 20       		.byte	0x20
 1669 07bf 00       		.byte	0
 1670 07c0 03       		.uleb128 0x3
 1671 07c1 D5040000 		.4byte	.LASF119
 1672 07c5 11       		.byte	0x11
 1673 07c6 3F       		.byte	0x3f
 1674 07c7 87070000 		.4byte	0x787
 1675 07cb 19       		.uleb128 0x19
 1676 07cc 04       		.byte	0x4
 1677 07cd 0A       		.byte	0xa
 1678 07ce FA       		.byte	0xfa
 1679 07cf 28080000 		.4byte	0x828
 1680 07d3 1A       		.uleb128 0x1a
 1681 07d4 82000000 		.4byte	.LASF120
 1682 07d8 0A       		.byte	0xa
 1683 07d9 0101     		.2byte	0x101
 1684 07db 3D010000 		.4byte	0x13d
 1685 07df 1A       		.uleb128 0x1a
 1686 07e0 3F010000 		.4byte	.LASF121
 1687 07e4 0A       		.byte	0xa
 1688 07e5 0801     		.2byte	0x108
 1689 07e7 3D010000 		.4byte	0x13d
 1690 07eb 1A       		.uleb128 0x1a
 1691 07ec 3F090000 		.4byte	.LASF122
 1692 07f0 0A       		.byte	0xa
 1693 07f1 0F01     		.2byte	0x10f
 1694 07f3 8A030000 		.4byte	0x38a
 1695 07f7 1A       		.uleb128 0x1a
 1696 07f8 4D020000 		.4byte	.LASF123
ARM GAS  /var/folders/d2/nstgp4h54kz7g1l847x_b8wc0000gn/T//ccgorJ5f.s 			page 31


 1697 07fc 0A       		.byte	0xa
 1698 07fd 1601     		.2byte	0x116
 1699 07ff 28080000 		.4byte	0x828
 1700 0803 1A       		.uleb128 0x1a
 1701 0804 84040000 		.4byte	.LASF124
 1702 0808 0A       		.byte	0xa
 1703 0809 1E01     		.2byte	0x11e
 1704 080b 53080000 		.4byte	0x853
 1705 080f 1A       		.uleb128 0x1a
 1706 0810 18080000 		.4byte	.LASF125
 1707 0814 0A       		.byte	0xa
 1708 0815 2701     		.2byte	0x127
 1709 0817 96080000 		.4byte	0x896
 1710 081b 1A       		.uleb128 0x1a
 1711 081c 26070000 		.4byte	.LASF126
 1712 0820 0A       		.byte	0xa
 1713 0821 2F01     		.2byte	0x12f
 1714 0823 48010000 		.4byte	0x148
 1715 0827 00       		.byte	0
 1716 0828 0A       		.uleb128 0xa
 1717 0829 04       		.byte	0x4
 1718 082a A2020000 		.4byte	0x2a2
 1719 082e 06       		.uleb128 0x6
 1720 082f AA070000 		.4byte	.LASF127
 1721 0833 0C       		.byte	0xc
 1722 0834 12       		.byte	0x12
 1723 0835 34       		.byte	0x34
 1724 0836 53080000 		.4byte	0x853
 1725 083a 07       		.uleb128 0x7
 1726 083b 87020000 		.4byte	.LASF128
 1727 083f 12       		.byte	0x12
 1728 0840 35       		.byte	0x35
 1729 0841 D7020000 		.4byte	0x2d7
 1730 0845 00       		.byte	0
 1731 0846 07       		.uleb128 0x7
 1732 0847 BC040000 		.4byte	.LASF129
 1733 084b 12       		.byte	0x12
 1734 084c 37       		.byte	0x37
 1735 084d 53010000 		.4byte	0x153
 1736 0851 08       		.byte	0x8
 1737 0852 00       		.byte	0
 1738 0853 0A       		.uleb128 0xa
 1739 0854 04       		.byte	0x4
 1740 0855 2E080000 		.4byte	0x82e
 1741 0859 06       		.uleb128 0x6
 1742 085a 93080000 		.4byte	.LASF130
 1743 085e 14       		.byte	0x14
 1744 085f 13       		.byte	0x13
 1745 0860 39       		.byte	0x39
 1746 0861 96080000 		.4byte	0x896
 1747 0865 07       		.uleb128 0x7
 1748 0866 F8010000 		.4byte	.LASF131
 1749 086a 13       		.byte	0x13
 1750 086b 3A       		.byte	0x3a
 1751 086c D7020000 		.4byte	0x2d7
 1752 0870 00       		.byte	0
 1753 0871 07       		.uleb128 0x7
ARM GAS  /var/folders/d2/nstgp4h54kz7g1l847x_b8wc0000gn/T//ccgorJ5f.s 			page 32


 1754 0872 A1090000 		.4byte	.LASF132
 1755 0876 13       		.byte	0x13
 1756 0877 3C       		.byte	0x3c
 1757 0878 AD020000 		.4byte	0x2ad
 1758 087c 08       		.byte	0x8
 1759 087d 07       		.uleb128 0x7
 1760 087e 44080000 		.4byte	.LASF133
 1761 0882 13       		.byte	0x13
 1762 0883 3E       		.byte	0x3e
 1763 0884 F1090000 		.4byte	0x9f1
 1764 0888 0C       		.byte	0xc
 1765 0889 07       		.uleb128 0x7
 1766 088a D6020000 		.4byte	.LASF134
 1767 088e 13       		.byte	0x13
 1768 088f 41       		.byte	0x41
 1769 0890 53010000 		.4byte	0x153
 1770 0894 10       		.byte	0x10
 1771 0895 00       		.byte	0
 1772 0896 0A       		.uleb128 0xa
 1773 0897 04       		.byte	0x4
 1774 0898 59080000 		.4byte	0x859
 1775 089c 0A       		.uleb128 0xa
 1776 089d 04       		.byte	0x4
 1777 089e AE080000 		.4byte	0x8ae
 1778 08a2 05       		.uleb128 0x5
 1779 08a3 9C080000 		.4byte	0x89c
 1780 08a7 04       		.uleb128 0x4
 1781 08a8 01       		.byte	0x1
 1782 08a9 08       		.byte	0x8
 1783 08aa 13080000 		.4byte	.LASF135
 1784 08ae 1B       		.uleb128 0x1b
 1785 08af A7080000 		.4byte	0x8a7
 1786 08b3 0A       		.uleb128 0xa
 1787 08b4 04       		.byte	0x4
 1788 08b5 1B050000 		.4byte	0x51b
 1789 08b9 0A       		.uleb128 0xa
 1790 08ba 04       		.byte	0x4
 1791 08bb 8C030000 		.4byte	0x38c
 1792 08bf 17       		.uleb128 0x17
 1793 08c0 1B050000 		.4byte	0x51b
 1794 08c4 CF080000 		.4byte	0x8cf
 1795 08c8 18       		.uleb128 0x18
 1796 08c9 37000000 		.4byte	0x37
 1797 08cd 30       		.byte	0x30
 1798 08ce 00       		.byte	0
 1799 08cf 1C       		.uleb128 0x1c
 1800 08d0 636800   		.ascii	"ch\000"
 1801 08d3 0A       		.byte	0xa
 1802 08d4 0902     		.2byte	0x209
 1803 08d6 81040000 		.4byte	0x481
 1804 08da 15       		.uleb128 0x15
 1805 08db 16       		.byte	0x16
 1806 08dc 14       		.byte	0x14
 1807 08dd 34       		.byte	0x34
 1808 08de BB090000 		.4byte	0x9bb
 1809 08e2 07       		.uleb128 0x7
 1810 08e3 B3090000 		.4byte	.LASF136
ARM GAS  /var/folders/d2/nstgp4h54kz7g1l847x_b8wc0000gn/T//ccgorJ5f.s 			page 33


 1811 08e7 14       		.byte	0x14
 1812 08e8 35       		.byte	0x35
 1813 08e9 BB090000 		.4byte	0x9bb
 1814 08ed 00       		.byte	0
 1815 08ee 07       		.uleb128 0x7
 1816 08ef 8D050000 		.4byte	.LASF137
 1817 08f3 14       		.byte	0x14
 1818 08f4 36       		.byte	0x36
 1819 08f5 B4000000 		.4byte	0xb4
 1820 08f9 04       		.byte	0x4
 1821 08fa 07       		.uleb128 0x7
 1822 08fb EF070000 		.4byte	.LASF138
 1823 08ff 14       		.byte	0x14
 1824 0900 37       		.byte	0x37
 1825 0901 B4000000 		.4byte	0xb4
 1826 0905 05       		.byte	0x5
 1827 0906 07       		.uleb128 0x7
 1828 0907 1B070000 		.4byte	.LASF139
 1829 090b 14       		.byte	0x14
 1830 090c 38       		.byte	0x38
 1831 090d BF000000 		.4byte	0xbf
 1832 0911 06       		.byte	0x6
 1833 0912 07       		.uleb128 0x7
 1834 0913 AC060000 		.4byte	.LASF140
 1835 0917 14       		.byte	0x14
 1836 0918 39       		.byte	0x39
 1837 0919 B4000000 		.4byte	0xb4
 1838 091d 08       		.byte	0x8
 1839 091e 07       		.uleb128 0x7
 1840 091f 0A060000 		.4byte	.LASF141
 1841 0923 14       		.byte	0x14
 1842 0924 3A       		.byte	0x3a
 1843 0925 B4000000 		.4byte	0xb4
 1844 0929 09       		.byte	0x9
 1845 092a 07       		.uleb128 0x7
 1846 092b 31010000 		.4byte	.LASF142
 1847 092f 14       		.byte	0x14
 1848 0930 3B       		.byte	0x3b
 1849 0931 B4000000 		.4byte	0xb4
 1850 0935 0A       		.byte	0xa
 1851 0936 07       		.uleb128 0x7
 1852 0937 CB070000 		.4byte	.LASF143
 1853 093b 14       		.byte	0x14
 1854 093c 3C       		.byte	0x3c
 1855 093d B4000000 		.4byte	0xb4
 1856 0941 0B       		.byte	0xb
 1857 0942 07       		.uleb128 0x7
 1858 0943 C6080000 		.4byte	.LASF144
 1859 0947 14       		.byte	0x14
 1860 0948 3D       		.byte	0x3d
 1861 0949 B4000000 		.4byte	0xb4
 1862 094d 0C       		.byte	0xc
 1863 094e 07       		.uleb128 0x7
 1864 094f 8C070000 		.4byte	.LASF145
 1865 0953 14       		.byte	0x14
 1866 0954 3E       		.byte	0x3e
 1867 0955 B4000000 		.4byte	0xb4
ARM GAS  /var/folders/d2/nstgp4h54kz7g1l847x_b8wc0000gn/T//ccgorJ5f.s 			page 34


 1868 0959 0D       		.byte	0xd
 1869 095a 07       		.uleb128 0x7
 1870 095b 00000000 		.4byte	.LASF146
 1871 095f 14       		.byte	0x14
 1872 0960 3F       		.byte	0x3f
 1873 0961 B4000000 		.4byte	0xb4
 1874 0965 0E       		.byte	0xe
 1875 0966 07       		.uleb128 0x7
 1876 0967 32060000 		.4byte	.LASF147
 1877 096b 14       		.byte	0x14
 1878 096c 40       		.byte	0x40
 1879 096d B4000000 		.4byte	0xb4
 1880 0971 0F       		.byte	0xf
 1881 0972 07       		.uleb128 0x7
 1882 0973 D3010000 		.4byte	.LASF148
 1883 0977 14       		.byte	0x14
 1884 0978 41       		.byte	0x41
 1885 0979 B4000000 		.4byte	0xb4
 1886 097d 10       		.byte	0x10
 1887 097e 07       		.uleb128 0x7
 1888 097f A4010000 		.4byte	.LASF149
 1889 0983 14       		.byte	0x14
 1890 0984 43       		.byte	0x43
 1891 0985 B4000000 		.4byte	0xb4
 1892 0989 11       		.byte	0x11
 1893 098a 07       		.uleb128 0x7
 1894 098b E3010000 		.4byte	.LASF150
 1895 098f 14       		.byte	0x14
 1896 0990 44       		.byte	0x44
 1897 0991 B4000000 		.4byte	0xb4
 1898 0995 12       		.byte	0x12
 1899 0996 07       		.uleb128 0x7
 1900 0997 95050000 		.4byte	.LASF151
 1901 099b 14       		.byte	0x14
 1902 099c 45       		.byte	0x45
 1903 099d B4000000 		.4byte	0xb4
 1904 09a1 13       		.byte	0x13
 1905 09a2 07       		.uleb128 0x7
 1906 09a3 3C070000 		.4byte	.LASF152
 1907 09a7 14       		.byte	0x14
 1908 09a8 46       		.byte	0x46
 1909 09a9 B4000000 		.4byte	0xb4
 1910 09ad 14       		.byte	0x14
 1911 09ae 07       		.uleb128 0x7
 1912 09af 27050000 		.4byte	.LASF153
 1913 09b3 14       		.byte	0x14
 1914 09b4 48       		.byte	0x48
 1915 09b5 B4000000 		.4byte	0xb4
 1916 09b9 15       		.byte	0x15
 1917 09ba 00       		.byte	0
 1918 09bb 17       		.uleb128 0x17
 1919 09bc A7080000 		.4byte	0x8a7
 1920 09c0 CB090000 		.4byte	0x9cb
 1921 09c4 18       		.uleb128 0x18
 1922 09c5 37000000 		.4byte	0x37
 1923 09c9 03       		.byte	0x3
 1924 09ca 00       		.byte	0
ARM GAS  /var/folders/d2/nstgp4h54kz7g1l847x_b8wc0000gn/T//ccgorJ5f.s 			page 35


 1925 09cb 03       		.uleb128 0x3
 1926 09cc 75020000 		.4byte	.LASF154
 1927 09d0 14       		.byte	0x14
 1928 09d1 49       		.byte	0x49
 1929 09d2 DA080000 		.4byte	0x8da
 1930 09d6 1B       		.uleb128 0x1b
 1931 09d7 CB090000 		.4byte	0x9cb
 1932 09db 13       		.uleb128 0x13
 1933 09dc 9F040000 		.4byte	.LASF155
 1934 09e0 14       		.byte	0x14
 1935 09e1 6E       		.byte	0x6e
 1936 09e2 D6090000 		.4byte	0x9d6
 1937 09e6 03       		.uleb128 0x3
 1938 09e7 B1010000 		.4byte	.LASF156
 1939 09eb 13       		.byte	0x13
 1940 09ec 34       		.byte	0x34
 1941 09ed 59080000 		.4byte	0x859
 1942 09f1 0A       		.uleb128 0xa
 1943 09f2 04       		.byte	0x4
 1944 09f3 E6090000 		.4byte	0x9e6
 1945 09f7 03       		.uleb128 0x3
 1946 09f8 B2080000 		.4byte	.LASF157
 1947 09fc 15       		.byte	0x15
 1948 09fd 36       		.byte	0x36
 1949 09fe 020A0000 		.4byte	0xa02
 1950 0a02 0A       		.uleb128 0xa
 1951 0a03 04       		.byte	0x4
 1952 0a04 080A0000 		.4byte	0xa08
 1953 0a08 1D       		.uleb128 0x1d
 1954 0a09 8A030000 		.4byte	0x38a
 1955 0a0d 170A0000 		.4byte	0xa17
 1956 0a11 0D       		.uleb128 0xd
 1957 0a12 2C000000 		.4byte	0x2c
 1958 0a16 00       		.byte	0
 1959 0a17 06       		.uleb128 0x6
 1960 0a18 D1080000 		.4byte	.LASF158
 1961 0a1c 04       		.byte	0x4
 1962 0a1d 04       		.byte	0x4
 1963 0a1e 38       		.byte	0x38
 1964 0a1f 300A0000 		.4byte	0xa30
 1965 0a23 07       		.uleb128 0x7
 1966 0a24 46090000 		.4byte	.LASF159
 1967 0a28 04       		.byte	0x4
 1968 0a29 39       		.byte	0x39
 1969 0a2a 300A0000 		.4byte	0xa30
 1970 0a2e 00       		.byte	0
 1971 0a2f 00       		.byte	0
 1972 0a30 0A       		.uleb128 0xa
 1973 0a31 04       		.byte	0x4
 1974 0a32 170A0000 		.4byte	0xa17
 1975 0a36 15       		.uleb128 0x15
 1976 0a37 0C       		.byte	0xc
 1977 0a38 04       		.byte	0x4
 1978 0a39 40       		.byte	0x40
 1979 0a3a 630A0000 		.4byte	0xa63
 1980 0a3e 07       		.uleb128 0x7
 1981 0a3f 9C080000 		.4byte	.LASF160
ARM GAS  /var/folders/d2/nstgp4h54kz7g1l847x_b8wc0000gn/T//ccgorJ5f.s 			page 36


 1982 0a43 04       		.byte	0x4
 1983 0a44 41       		.byte	0x41
 1984 0a45 300A0000 		.4byte	0xa30
 1985 0a49 00       		.byte	0
 1986 0a4a 07       		.uleb128 0x7
 1987 0a4b 52060000 		.4byte	.LASF161
 1988 0a4f 04       		.byte	0x4
 1989 0a50 42       		.byte	0x42
 1990 0a51 2C000000 		.4byte	0x2c
 1991 0a55 04       		.byte	0x4
 1992 0a56 07       		.uleb128 0x7
 1993 0a57 9F020000 		.4byte	.LASF162
 1994 0a5b 04       		.byte	0x4
 1995 0a5c 44       		.byte	0x44
 1996 0a5d F7090000 		.4byte	0x9f7
 1997 0a61 08       		.byte	0x8
 1998 0a62 00       		.byte	0
 1999 0a63 03       		.uleb128 0x3
 2000 0a64 A8040000 		.4byte	.LASF163
 2001 0a68 04       		.byte	0x4
 2002 0a69 46       		.byte	0x46
 2003 0a6a 360A0000 		.4byte	0xa36
 2004 0a6e 1E       		.uleb128 0x1e
 2005 0a6f 0F090000 		.4byte	.LASF165
 2006 0a73 01       		.byte	0x1
 2007 0a74 C1       		.byte	0xc1
 2008 0a75 00000000 		.4byte	.LFB224
 2009 0a79 68000000 		.4byte	.LFE224-.LFB224
 2010 0a7d 01       		.uleb128 0x1
 2011 0a7e 9C       		.byte	0x9c
 2012 0a7f 8C0B0000 		.4byte	0xb8c
 2013 0a83 1F       		.uleb128 0x1f
 2014 0a84 6D7000   		.ascii	"mp\000"
 2015 0a87 01       		.byte	0x1
 2016 0a88 C1       		.byte	0xc1
 2017 0a89 8C0B0000 		.4byte	0xb8c
 2018 0a8d 00000000 		.4byte	.LLST13
 2019 0a91 20       		.uleb128 0x20
 2020 0a92 66070000 		.4byte	.LASF164
 2021 0a96 01       		.byte	0x1
 2022 0a97 C1       		.byte	0xc1
 2023 0a98 8A030000 		.4byte	0x38a
 2024 0a9c 1E000000 		.4byte	.LLST14
 2025 0aa0 21       		.uleb128 0x21
 2026 0aa1 1D0F0000 		.4byte	0xf1d
 2027 0aa5 0E000000 		.4byte	.LBB64
 2028 0aa9 0E000000 		.4byte	.LBE64-.LBB64
 2029 0aad 01       		.byte	0x1
 2030 0aae C3       		.byte	0xc3
 2031 0aaf F50A0000 		.4byte	0xaf5
 2032 0ab3 22       		.uleb128 0x22
 2033 0ab4 2F0F0000 		.4byte	0xf2f
 2034 0ab8 0E000000 		.4byte	.LBB66
 2035 0abc 06000000 		.4byte	.LBE66-.LBB66
 2036 0ac0 03       		.byte	0x3
 2037 0ac1 5C01     		.2byte	0x15c
 2038 0ac3 E20A0000 		.4byte	0xae2
ARM GAS  /var/folders/d2/nstgp4h54kz7g1l847x_b8wc0000gn/T//ccgorJ5f.s 			page 37


 2039 0ac7 23       		.uleb128 0x23
 2040 0ac8 380F0000 		.4byte	0xf38
 2041 0acc 0E000000 		.4byte	.LBB67
 2042 0ad0 06000000 		.4byte	.LBE67-.LBB67
 2043 0ad4 0E       		.byte	0xe
 2044 0ad5 BF01     		.2byte	0x1bf
 2045 0ad7 24       		.uleb128 0x24
 2046 0ad8 450F0000 		.4byte	0xf45
 2047 0adc 3C000000 		.4byte	.LLST15
 2048 0ae0 00       		.byte	0
 2049 0ae1 00       		.byte	0
 2050 0ae2 25       		.uleb128 0x25
 2051 0ae3 18000000 		.4byte	.LVL40
 2052 0ae7 CD0F0000 		.4byte	0xfcd
 2053 0aeb 25       		.uleb128 0x25
 2054 0aec 1C000000 		.4byte	.LVL41
 2055 0af0 D80F0000 		.4byte	0xfd8
 2056 0af4 00       		.byte	0
 2057 0af5 26       		.uleb128 0x26
 2058 0af6 020F0000 		.4byte	0xf02
 2059 0afa 24000000 		.4byte	.LBB69
 2060 0afe 30000000 		.4byte	.Ldebug_ranges0+0x30
 2061 0b02 01       		.byte	0x1
 2062 0b03 C5       		.byte	0xc5
 2063 0b04 680B0000 		.4byte	0xb68
 2064 0b08 27       		.uleb128 0x27
 2065 0b09 30000000 		.4byte	.Ldebug_ranges0+0x30
 2066 0b0d 28       		.uleb128 0x28
 2067 0b0e 0F0F0000 		.4byte	0xf0f
 2068 0b12 22       		.uleb128 0x22
 2069 0b13 260F0000 		.4byte	0xf26
 2070 0b17 3E000000 		.4byte	.LBB71
 2071 0b1b 06000000 		.4byte	.LBE71-.LBB71
 2072 0b1f 03       		.byte	0x3
 2073 0b20 7301     		.2byte	0x173
 2074 0b22 410B0000 		.4byte	0xb41
 2075 0b26 23       		.uleb128 0x23
 2076 0b27 380F0000 		.4byte	0xf38
 2077 0b2b 3E000000 		.4byte	.LBB72
 2078 0b2f 06000000 		.4byte	.LBE72-.LBB72
 2079 0b33 0E       		.byte	0xe
 2080 0b34 CD01     		.2byte	0x1cd
 2081 0b36 24       		.uleb128 0x24
 2082 0b37 450F0000 		.4byte	0xf45
 2083 0b3b 51000000 		.4byte	.LLST16
 2084 0b3f 00       		.byte	0
 2085 0b40 00       		.byte	0
 2086 0b41 25       		.uleb128 0x25
 2087 0b42 28000000 		.4byte	.LVL43
 2088 0b46 E30F0000 		.4byte	0xfe3
 2089 0b4a 25       		.uleb128 0x25
 2090 0b4b 2C000000 		.4byte	.LVL44
 2091 0b4f EE0F0000 		.4byte	0xfee
 2092 0b53 29       		.uleb128 0x29
 2093 0b54 56000000 		.4byte	.LVL48
 2094 0b58 F90F0000 		.4byte	0xff9
 2095 0b5c 2A       		.uleb128 0x2a
ARM GAS  /var/folders/d2/nstgp4h54kz7g1l847x_b8wc0000gn/T//ccgorJ5f.s 			page 38


 2096 0b5d 01       		.uleb128 0x1
 2097 0b5e 50       		.byte	0x50
 2098 0b5f 05       		.uleb128 0x5
 2099 0b60 03       		.byte	0x3
 2100 0b61 00000000 		.4byte	.LANCHOR2
 2101 0b65 00       		.byte	0
 2102 0b66 00       		.byte	0
 2103 0b67 00       		.byte	0
 2104 0b68 2B       		.uleb128 0x2b
 2105 0b69 24000000 		.4byte	.LVL42
 2106 0b6d 920B0000 		.4byte	0xb92
 2107 0b71 820B0000 		.4byte	0xb82
 2108 0b75 2A       		.uleb128 0x2a
 2109 0b76 01       		.uleb128 0x1
 2110 0b77 50       		.byte	0x50
 2111 0b78 02       		.uleb128 0x2
 2112 0b79 75       		.byte	0x75
 2113 0b7a 00       		.sleb128 0
 2114 0b7b 2A       		.uleb128 0x2a
 2115 0b7c 01       		.uleb128 0x1
 2116 0b7d 51       		.byte	0x51
 2117 0b7e 02       		.uleb128 0x2
 2118 0b7f 76       		.byte	0x76
 2119 0b80 00       		.sleb128 0
 2120 0b81 00       		.byte	0
 2121 0b82 25       		.uleb128 0x25
 2122 0b83 5C000000 		.4byte	.LVL49
 2123 0b87 05100000 		.4byte	0x1005
 2124 0b8b 00       		.byte	0
 2125 0b8c 0A       		.uleb128 0xa
 2126 0b8d 04       		.byte	0x4
 2127 0b8e 630A0000 		.4byte	0xa63
 2128 0b92 1E       		.uleb128 0x1e
 2129 0b93 2A080000 		.4byte	.LASF166
 2130 0b97 01       		.byte	0x1
 2131 0b98 AB       		.byte	0xab
 2132 0b99 00000000 		.4byte	.LFB223
 2133 0b9d 3C000000 		.4byte	.LFE223-.LFB223
 2134 0ba1 01       		.uleb128 0x1
 2135 0ba2 9C       		.byte	0x9c
 2136 0ba3 0C0C0000 		.4byte	0xc0c
 2137 0ba7 1F       		.uleb128 0x1f
 2138 0ba8 6D7000   		.ascii	"mp\000"
 2139 0bab 01       		.byte	0x1
 2140 0bac AB       		.byte	0xab
 2141 0bad 8C0B0000 		.4byte	0xb8c
 2142 0bb1 65000000 		.4byte	.LLST10
 2143 0bb5 20       		.uleb128 0x20
 2144 0bb6 66070000 		.4byte	.LASF164
 2145 0bba 01       		.byte	0x1
 2146 0bbb AB       		.byte	0xab
 2147 0bbc 8A030000 		.4byte	0x38a
 2148 0bc0 83000000 		.4byte	.LLST11
 2149 0bc4 2C       		.uleb128 0x2c
 2150 0bc5 70687000 		.ascii	"php\000"
 2151 0bc9 01       		.byte	0x1
 2152 0bca AC       		.byte	0xac
ARM GAS  /var/folders/d2/nstgp4h54kz7g1l847x_b8wc0000gn/T//ccgorJ5f.s 			page 39


 2153 0bcb 300A0000 		.4byte	0xa30
 2154 0bcf A1000000 		.4byte	.LLST12
 2155 0bd3 2D       		.uleb128 0x2d
 2156 0bd4 4B070000 		.4byte	.LASF167
 2157 0bd8 1C0C0000 		.4byte	0xc1c
 2158 0bdc 05       		.uleb128 0x5
 2159 0bdd 03       		.byte	0x3
 2160 0bde 00000000 		.4byte	__func__.7875
 2161 0be2 25       		.uleb128 0x25
 2162 0be3 12000000 		.4byte	.LVL33
 2163 0be7 0E100000 		.4byte	0x100e
 2164 0beb 2B       		.uleb128 0x2b
 2165 0bec 2E000000 		.4byte	.LVL35
 2166 0bf0 F90F0000 		.4byte	0xff9
 2167 0bf4 020C0000 		.4byte	0xc02
 2168 0bf8 2A       		.uleb128 0x2a
 2169 0bf9 01       		.uleb128 0x1
 2170 0bfa 50       		.byte	0x50
 2171 0bfb 05       		.uleb128 0x5
 2172 0bfc 03       		.byte	0x3
 2173 0bfd 00000000 		.4byte	.LANCHOR3
 2174 0c01 00       		.byte	0
 2175 0c02 25       		.uleb128 0x25
 2176 0c03 34000000 		.4byte	.LVL36
 2177 0c07 05100000 		.4byte	0x1005
 2178 0c0b 00       		.byte	0
 2179 0c0c 17       		.uleb128 0x17
 2180 0c0d AE080000 		.4byte	0x8ae
 2181 0c11 1C0C0000 		.4byte	0xc1c
 2182 0c15 18       		.uleb128 0x18
 2183 0c16 37000000 		.4byte	0x37
 2184 0c1a 0B       		.byte	0xb
 2185 0c1b 00       		.byte	0
 2186 0c1c 1B       		.uleb128 0x1b
 2187 0c1d 0C0C0000 		.4byte	0xc0c
 2188 0c21 2E       		.uleb128 0x2e
 2189 0c22 03090000 		.4byte	.LASF189
 2190 0c26 01       		.byte	0x1
 2191 0c27 95       		.byte	0x95
 2192 0c28 8A030000 		.4byte	0x38a
 2193 0c2c 00000000 		.4byte	.LFB222
 2194 0c30 68000000 		.4byte	.LFE222-.LFB222
 2195 0c34 01       		.uleb128 0x1
 2196 0c35 9C       		.byte	0x9c
 2197 0c36 3D0D0000 		.4byte	0xd3d
 2198 0c3a 1F       		.uleb128 0x1f
 2199 0c3b 6D7000   		.ascii	"mp\000"
 2200 0c3e 01       		.byte	0x1
 2201 0c3f 95       		.byte	0x95
 2202 0c40 8C0B0000 		.4byte	0xb8c
 2203 0c44 BF000000 		.4byte	.LLST6
 2204 0c48 2F       		.uleb128 0x2f
 2205 0c49 66070000 		.4byte	.LASF164
 2206 0c4d 01       		.byte	0x1
 2207 0c4e 96       		.byte	0x96
 2208 0c4f 8A030000 		.4byte	0x38a
 2209 0c53 EB000000 		.4byte	.LLST7
ARM GAS  /var/folders/d2/nstgp4h54kz7g1l847x_b8wc0000gn/T//ccgorJ5f.s 			page 40


 2210 0c57 21       		.uleb128 0x21
 2211 0c58 1D0F0000 		.4byte	0xf1d
 2212 0c5c 0C000000 		.4byte	.LBB42
 2213 0c60 0E000000 		.4byte	.LBE42-.LBB42
 2214 0c64 01       		.byte	0x1
 2215 0c65 98       		.byte	0x98
 2216 0c66 AC0C0000 		.4byte	0xcac
 2217 0c6a 22       		.uleb128 0x22
 2218 0c6b 2F0F0000 		.4byte	0xf2f
 2219 0c6f 0C000000 		.4byte	.LBB44
 2220 0c73 06000000 		.4byte	.LBE44-.LBB44
 2221 0c77 03       		.byte	0x3
 2222 0c78 5C01     		.2byte	0x15c
 2223 0c7a 990C0000 		.4byte	0xc99
 2224 0c7e 23       		.uleb128 0x23
 2225 0c7f 380F0000 		.4byte	0xf38
 2226 0c83 0C000000 		.4byte	.LBB45
 2227 0c87 06000000 		.4byte	.LBE45-.LBB45
 2228 0c8b 0E       		.byte	0xe
 2229 0c8c BF01     		.2byte	0x1bf
 2230 0c8e 24       		.uleb128 0x24
 2231 0c8f 450F0000 		.4byte	0xf45
 2232 0c93 35010000 		.4byte	.LLST8
 2233 0c97 00       		.byte	0
 2234 0c98 00       		.byte	0
 2235 0c99 25       		.uleb128 0x25
 2236 0c9a 16000000 		.4byte	.LVL18
 2237 0c9e CD0F0000 		.4byte	0xfcd
 2238 0ca2 25       		.uleb128 0x25
 2239 0ca3 1A000000 		.4byte	.LVL19
 2240 0ca7 D80F0000 		.4byte	0xfd8
 2241 0cab 00       		.byte	0
 2242 0cac 26       		.uleb128 0x26
 2243 0cad 020F0000 		.4byte	0xf02
 2244 0cb1 22000000 		.4byte	.LBB47
 2245 0cb5 18000000 		.4byte	.Ldebug_ranges0+0x18
 2246 0cb9 01       		.byte	0x1
 2247 0cba 9A       		.byte	0x9a
 2248 0cbb 1F0D0000 		.4byte	0xd1f
 2249 0cbf 27       		.uleb128 0x27
 2250 0cc0 18000000 		.4byte	.Ldebug_ranges0+0x18
 2251 0cc4 28       		.uleb128 0x28
 2252 0cc5 0F0F0000 		.4byte	0xf0f
 2253 0cc9 22       		.uleb128 0x22
 2254 0cca 260F0000 		.4byte	0xf26
 2255 0cce 3C000000 		.4byte	.LBB49
 2256 0cd2 06000000 		.4byte	.LBE49-.LBB49
 2257 0cd6 03       		.byte	0x3
 2258 0cd7 7301     		.2byte	0x173
 2259 0cd9 F80C0000 		.4byte	0xcf8
 2260 0cdd 23       		.uleb128 0x23
 2261 0cde 380F0000 		.4byte	0xf38
 2262 0ce2 3C000000 		.4byte	.LBB50
 2263 0ce6 06000000 		.4byte	.LBE50-.LBB50
 2264 0cea 0E       		.byte	0xe
 2265 0ceb CD01     		.2byte	0x1cd
 2266 0ced 24       		.uleb128 0x24
ARM GAS  /var/folders/d2/nstgp4h54kz7g1l847x_b8wc0000gn/T//ccgorJ5f.s 			page 41


 2267 0cee 450F0000 		.4byte	0xf45
 2268 0cf2 4A010000 		.4byte	.LLST9
 2269 0cf6 00       		.byte	0
 2270 0cf7 00       		.byte	0
 2271 0cf8 25       		.uleb128 0x25
 2272 0cf9 26000000 		.4byte	.LVL22
 2273 0cfd E30F0000 		.4byte	0xfe3
 2274 0d01 25       		.uleb128 0x25
 2275 0d02 2A000000 		.4byte	.LVL23
 2276 0d06 EE0F0000 		.4byte	0xfee
 2277 0d0a 29       		.uleb128 0x29
 2278 0d0b 56000000 		.4byte	.LVL28
 2279 0d0f F90F0000 		.4byte	0xff9
 2280 0d13 2A       		.uleb128 0x2a
 2281 0d14 01       		.uleb128 0x1
 2282 0d15 50       		.byte	0x50
 2283 0d16 05       		.uleb128 0x5
 2284 0d17 03       		.byte	0x3
 2285 0d18 00000000 		.4byte	.LANCHOR2
 2286 0d1c 00       		.byte	0
 2287 0d1d 00       		.byte	0
 2288 0d1e 00       		.byte	0
 2289 0d1f 2B       		.uleb128 0x2b
 2290 0d20 20000000 		.4byte	.LVL20
 2291 0d24 3D0D0000 		.4byte	0xd3d
 2292 0d28 330D0000 		.4byte	0xd33
 2293 0d2c 2A       		.uleb128 0x2a
 2294 0d2d 01       		.uleb128 0x1
 2295 0d2e 50       		.byte	0x50
 2296 0d2f 02       		.uleb128 0x2
 2297 0d30 75       		.byte	0x75
 2298 0d31 00       		.sleb128 0
 2299 0d32 00       		.byte	0
 2300 0d33 25       		.uleb128 0x25
 2301 0d34 5C000000 		.4byte	.LVL30
 2302 0d38 05100000 		.4byte	0x1005
 2303 0d3c 00       		.byte	0
 2304 0d3d 30       		.uleb128 0x30
 2305 0d3e 16060000 		.4byte	.LASF174
 2306 0d42 01       		.byte	0x1
 2307 0d43 78       		.byte	0x78
 2308 0d44 8A030000 		.4byte	0x38a
 2309 0d48 01       		.byte	0x1
 2310 0d49 700D0000 		.4byte	0xd70
 2311 0d4d 31       		.uleb128 0x31
 2312 0d4e 6D7000   		.ascii	"mp\000"
 2313 0d51 01       		.byte	0x1
 2314 0d52 78       		.byte	0x78
 2315 0d53 8C0B0000 		.4byte	0xb8c
 2316 0d57 32       		.uleb128 0x32
 2317 0d58 66070000 		.4byte	.LASF164
 2318 0d5c 01       		.byte	0x1
 2319 0d5d 79       		.byte	0x79
 2320 0d5e 8A030000 		.4byte	0x38a
 2321 0d62 33       		.uleb128 0x33
 2322 0d63 4B070000 		.4byte	.LASF167
 2323 0d67 800D0000 		.4byte	0xd80
ARM GAS  /var/folders/d2/nstgp4h54kz7g1l847x_b8wc0000gn/T//ccgorJ5f.s 			page 42


 2324 0d6b 16060000 		.4byte	.LASF174
 2325 0d6f 00       		.byte	0
 2326 0d70 17       		.uleb128 0x17
 2327 0d71 AE080000 		.4byte	0x8ae
 2328 0d75 800D0000 		.4byte	0xd80
 2329 0d79 18       		.uleb128 0x18
 2330 0d7a 37000000 		.4byte	0x37
 2331 0d7e 0C       		.byte	0xc
 2332 0d7f 00       		.byte	0
 2333 0d80 1B       		.uleb128 0x1b
 2334 0d81 700D0000 		.4byte	0xd70
 2335 0d85 1E       		.uleb128 0x1e
 2336 0d86 86090000 		.4byte	.LASF168
 2337 0d8a 01       		.byte	0x1
 2338 0d8b 61       		.byte	0x61
 2339 0d8c 00000000 		.4byte	.LFB220
 2340 0d90 58000000 		.4byte	.LFE220-.LFB220
 2341 0d94 01       		.uleb128 0x1
 2342 0d95 9C       		.byte	0x9c
 2343 0d96 450E0000 		.4byte	0xe45
 2344 0d9a 1F       		.uleb128 0x1f
 2345 0d9b 6D7000   		.ascii	"mp\000"
 2346 0d9e 01       		.byte	0x1
 2347 0d9f 61       		.byte	0x61
 2348 0da0 8C0B0000 		.4byte	0xb8c
 2349 0da4 5E010000 		.4byte	.LLST17
 2350 0da8 1F       		.uleb128 0x1f
 2351 0da9 7000     		.ascii	"p\000"
 2352 0dab 01       		.byte	0x1
 2353 0dac 61       		.byte	0x61
 2354 0dad 8A030000 		.4byte	0x38a
 2355 0db1 A0010000 		.4byte	.LLST18
 2356 0db5 1F       		.uleb128 0x1f
 2357 0db6 6E00     		.ascii	"n\000"
 2358 0db8 01       		.byte	0x1
 2359 0db9 61       		.byte	0x61
 2360 0dba 2C000000 		.4byte	0x2c
 2361 0dbe D7010000 		.4byte	.LLST19
 2362 0dc2 2D       		.uleb128 0x2d
 2363 0dc3 4B070000 		.4byte	.LASF167
 2364 0dc7 550E0000 		.4byte	0xe55
 2365 0dcb 05       		.uleb128 0x5
 2366 0dcc 03       		.byte	0x3
 2367 0dcd 00000000 		.4byte	__func__.7857
 2368 0dd1 21       		.uleb128 0x21
 2369 0dd2 E00E0000 		.4byte	0xee0
 2370 0dd6 30000000 		.4byte	.LBB76
 2371 0dda 08000000 		.4byte	.LBE76-.LBB76
 2372 0dde 01       		.byte	0x1
 2373 0ddf 66       		.byte	0x66
 2374 0de0 0D0E0000 		.4byte	0xe0d
 2375 0de4 24       		.uleb128 0x24
 2376 0de5 F60E0000 		.4byte	0xef6
 2377 0de9 26020000 		.4byte	.LLST20
 2378 0ded 24       		.uleb128 0x24
 2379 0dee EC0E0000 		.4byte	0xeec
 2380 0df2 39020000 		.4byte	.LLST21
ARM GAS  /var/folders/d2/nstgp4h54kz7g1l847x_b8wc0000gn/T//ccgorJ5f.s 			page 43


 2381 0df6 29       		.uleb128 0x29
 2382 0df7 38000000 		.4byte	.LVL58
 2383 0dfb 6E0A0000 		.4byte	0xa6e
 2384 0dff 2A       		.uleb128 0x2a
 2385 0e00 01       		.uleb128 0x1
 2386 0e01 50       		.byte	0x50
 2387 0e02 02       		.uleb128 0x2
 2388 0e03 76       		.byte	0x76
 2389 0e04 00       		.sleb128 0
 2390 0e05 2A       		.uleb128 0x2a
 2391 0e06 01       		.uleb128 0x1
 2392 0e07 51       		.byte	0x51
 2393 0e08 02       		.uleb128 0x2
 2394 0e09 75       		.byte	0x75
 2395 0e0a 00       		.sleb128 0
 2396 0e0b 00       		.byte	0
 2397 0e0c 00       		.byte	0
 2398 0e0d 34       		.uleb128 0x34
 2399 0e0e 28000000 		.4byte	.LVL54
 2400 0e12 F90F0000 		.4byte	0xff9
 2401 0e16 240E0000 		.4byte	0xe24
 2402 0e1a 2A       		.uleb128 0x2a
 2403 0e1b 01       		.uleb128 0x1
 2404 0e1c 50       		.byte	0x50
 2405 0e1d 05       		.uleb128 0x5
 2406 0e1e 03       		.byte	0x3
 2407 0e1f 00000000 		.4byte	.LANCHOR4
 2408 0e23 00       		.byte	0
 2409 0e24 2B       		.uleb128 0x2b
 2410 0e25 2E000000 		.4byte	.LVL56
 2411 0e29 F90F0000 		.4byte	0xff9
 2412 0e2d 3B0E0000 		.4byte	0xe3b
 2413 0e31 2A       		.uleb128 0x2a
 2414 0e32 01       		.uleb128 0x1
 2415 0e33 50       		.byte	0x50
 2416 0e34 05       		.uleb128 0x5
 2417 0e35 03       		.byte	0x3
 2418 0e36 00000000 		.4byte	.LANCHOR4
 2419 0e3a 00       		.byte	0
 2420 0e3b 25       		.uleb128 0x25
 2421 0e3c 50000000 		.4byte	.LVL62
 2422 0e40 05100000 		.4byte	0x1005
 2423 0e44 00       		.byte	0
 2424 0e45 17       		.uleb128 0x17
 2425 0e46 AE080000 		.4byte	0x8ae
 2426 0e4a 550E0000 		.4byte	0xe55
 2427 0e4e 18       		.uleb128 0x18
 2428 0e4f 37000000 		.4byte	0x37
 2429 0e53 0F       		.byte	0xf
 2430 0e54 00       		.byte	0
 2431 0e55 1B       		.uleb128 0x1b
 2432 0e56 450E0000 		.4byte	0xe45
 2433 0e5a 1E       		.uleb128 0x1e
 2434 0e5b 33050000 		.4byte	.LASF169
 2435 0e5f 01       		.byte	0x1
 2436 0e60 4B       		.byte	0x4b
 2437 0e61 00000000 		.4byte	.LFB219
ARM GAS  /var/folders/d2/nstgp4h54kz7g1l847x_b8wc0000gn/T//ccgorJ5f.s 			page 44


 2438 0e65 3C000000 		.4byte	.LFE219-.LFB219
 2439 0e69 01       		.uleb128 0x1
 2440 0e6a 9C       		.byte	0x9c
 2441 0e6b CB0E0000 		.4byte	0xecb
 2442 0e6f 1F       		.uleb128 0x1f
 2443 0e70 6D7000   		.ascii	"mp\000"
 2444 0e73 01       		.byte	0x1
 2445 0e74 4B       		.byte	0x4b
 2446 0e75 8C0B0000 		.4byte	0xb8c
 2447 0e79 4C020000 		.4byte	.LLST0
 2448 0e7d 20       		.uleb128 0x20
 2449 0e7e 55090000 		.4byte	.LASF170
 2450 0e82 01       		.byte	0x1
 2451 0e83 4B       		.byte	0x4b
 2452 0e84 2C000000 		.4byte	0x2c
 2453 0e88 6A020000 		.4byte	.LLST1
 2454 0e8c 20       		.uleb128 0x20
 2455 0e8d DC000000 		.4byte	.LASF171
 2456 0e91 01       		.byte	0x1
 2457 0e92 4B       		.byte	0x4b
 2458 0e93 F7090000 		.4byte	0x9f7
 2459 0e97 88020000 		.4byte	.LLST2
 2460 0e9b 2D       		.uleb128 0x2d
 2461 0e9c 4B070000 		.4byte	.LASF167
 2462 0ea0 DB0E0000 		.4byte	0xedb
 2463 0ea4 05       		.uleb128 0x5
 2464 0ea5 03       		.byte	0x3
 2465 0ea6 00000000 		.4byte	__func__.7851
 2466 0eaa 2B       		.uleb128 0x2b
 2467 0eab 1C000000 		.4byte	.LVL2
 2468 0eaf F90F0000 		.4byte	0xff9
 2469 0eb3 C10E0000 		.4byte	0xec1
 2470 0eb7 2A       		.uleb128 0x2a
 2471 0eb8 01       		.uleb128 0x1
 2472 0eb9 50       		.byte	0x50
 2473 0eba 05       		.uleb128 0x5
 2474 0ebb 03       		.byte	0x3
 2475 0ebc 00000000 		.4byte	.LANCHOR0
 2476 0ec0 00       		.byte	0
 2477 0ec1 25       		.uleb128 0x25
 2478 0ec2 34000000 		.4byte	.LVL4
 2479 0ec6 05100000 		.4byte	0x1005
 2480 0eca 00       		.byte	0
 2481 0ecb 17       		.uleb128 0x17
 2482 0ecc AE080000 		.4byte	0x8ae
 2483 0ed0 DB0E0000 		.4byte	0xedb
 2484 0ed4 18       		.uleb128 0x18
 2485 0ed5 37000000 		.4byte	0x37
 2486 0ed9 10       		.byte	0x10
 2487 0eda 00       		.byte	0
 2488 0edb 1B       		.uleb128 0x1b
 2489 0edc CB0E0000 		.4byte	0xecb
 2490 0ee0 35       		.uleb128 0x35
 2491 0ee1 1D050000 		.4byte	.LASF172
 2492 0ee5 04       		.byte	0x4
 2493 0ee6 89       		.byte	0x89
 2494 0ee7 03       		.byte	0x3
ARM GAS  /var/folders/d2/nstgp4h54kz7g1l847x_b8wc0000gn/T//ccgorJ5f.s 			page 45


 2495 0ee8 020F0000 		.4byte	0xf02
 2496 0eec 31       		.uleb128 0x31
 2497 0eed 6D7000   		.ascii	"mp\000"
 2498 0ef0 04       		.byte	0x4
 2499 0ef1 89       		.byte	0x89
 2500 0ef2 8C0B0000 		.4byte	0xb8c
 2501 0ef6 36       		.uleb128 0x36
 2502 0ef7 66070000 		.4byte	.LASF164
 2503 0efb 04       		.byte	0x4
 2504 0efc 89       		.byte	0x89
 2505 0efd 8A030000 		.4byte	0x38a
 2506 0f01 00       		.byte	0
 2507 0f02 37       		.uleb128 0x37
 2508 0f03 7A090000 		.4byte	.LASF173
 2509 0f07 03       		.byte	0x3
 2510 0f08 6601     		.2byte	0x166
 2511 0f0a 03       		.byte	0x3
 2512 0f0b 1D0F0000 		.4byte	0xf1d
 2513 0f0f 33       		.uleb128 0x33
 2514 0f10 4B070000 		.4byte	.LASF167
 2515 0f14 1C0C0000 		.4byte	0xc1c
 2516 0f18 7A090000 		.4byte	.LASF173
 2517 0f1c 00       		.byte	0
 2518 0f1d 38       		.uleb128 0x38
 2519 0f1e 5C070000 		.4byte	.LASF175
 2520 0f22 03       		.byte	0x3
 2521 0f23 5A01     		.2byte	0x15a
 2522 0f25 03       		.byte	0x3
 2523 0f26 38       		.uleb128 0x38
 2524 0f27 07020000 		.4byte	.LASF176
 2525 0f2b 0E       		.byte	0xe
 2526 0f2c CA01     		.2byte	0x1ca
 2527 0f2e 03       		.byte	0x3
 2528 0f2f 38       		.uleb128 0x38
 2529 0f30 E5000000 		.4byte	.LASF177
 2530 0f34 0E       		.byte	0xe
 2531 0f35 BC01     		.2byte	0x1bc
 2532 0f37 03       		.byte	0x3
 2533 0f38 37       		.uleb128 0x37
 2534 0f39 74080000 		.4byte	.LASF178
 2535 0f3d 02       		.byte	0x2
 2536 0f3e 2002     		.2byte	0x220
 2537 0f40 03       		.byte	0x3
 2538 0f41 520F0000 		.4byte	0xf52
 2539 0f45 39       		.uleb128 0x39
 2540 0f46 E4020000 		.4byte	.LASF179
 2541 0f4a 02       		.byte	0x2
 2542 0f4b 2002     		.2byte	0x220
 2543 0f4d DA000000 		.4byte	0xda
 2544 0f51 00       		.byte	0
 2545 0f52 3A       		.uleb128 0x3a
 2546 0f53 3D0D0000 		.4byte	0xd3d
 2547 0f57 00000000 		.4byte	.LFB221
 2548 0f5b 54000000 		.4byte	.LFE221-.LFB221
 2549 0f5f 01       		.uleb128 0x1
 2550 0f60 9C       		.byte	0x9c
 2551 0f61 CD0F0000 		.4byte	0xfcd
ARM GAS  /var/folders/d2/nstgp4h54kz7g1l847x_b8wc0000gn/T//ccgorJ5f.s 			page 46


 2552 0f65 24       		.uleb128 0x24
 2553 0f66 4D0D0000 		.4byte	0xd4d
 2554 0f6a A6020000 		.4byte	.LLST3
 2555 0f6e 3B       		.uleb128 0x3b
 2556 0f6f 570D0000 		.4byte	0xd57
 2557 0f73 DD020000 		.4byte	.LLST4
 2558 0f77 28       		.uleb128 0x28
 2559 0f78 620D0000 		.4byte	0xd62
 2560 0f7c 3C       		.uleb128 0x3c
 2561 0f7d 3D0D0000 		.4byte	0xd3d
 2562 0f81 00000000 		.4byte	.Ldebug_ranges0+0
 2563 0f85 A30F0000 		.4byte	0xfa3
 2564 0f89 24       		.uleb128 0x24
 2565 0f8a 4D0D0000 		.4byte	0xd4d
 2566 0f8e 14030000 		.4byte	.LLST5
 2567 0f92 27       		.uleb128 0x27
 2568 0f93 00000000 		.4byte	.Ldebug_ranges0+0
 2569 0f97 28       		.uleb128 0x28
 2570 0f98 6E0F0000 		.4byte	0xf6e
 2571 0f9c 28       		.uleb128 0x28
 2572 0f9d 770F0000 		.4byte	0xf77
 2573 0fa1 00       		.byte	0
 2574 0fa2 00       		.byte	0
 2575 0fa3 25       		.uleb128 0x25
 2576 0fa4 10000000 		.4byte	.LVL6
 2577 0fa8 0E100000 		.4byte	0x100e
 2578 0fac 2B       		.uleb128 0x2b
 2579 0fad 44000000 		.4byte	.LVL12
 2580 0fb1 F90F0000 		.4byte	0xff9
 2581 0fb5 C30F0000 		.4byte	0xfc3
 2582 0fb9 2A       		.uleb128 0x2a
 2583 0fba 01       		.uleb128 0x1
 2584 0fbb 50       		.byte	0x50
 2585 0fbc 05       		.uleb128 0x5
 2586 0fbd 03       		.byte	0x3
 2587 0fbe 00000000 		.4byte	.LANCHOR1
 2588 0fc2 00       		.byte	0
 2589 0fc3 25       		.uleb128 0x25
 2590 0fc4 4A000000 		.4byte	.LVL14
 2591 0fc8 05100000 		.4byte	0x1005
 2592 0fcc 00       		.byte	0
 2593 0fcd 3D       		.uleb128 0x3d
 2594 0fce 53010000 		.4byte	.LASF180
 2595 0fd2 53010000 		.4byte	.LASF180
 2596 0fd6 11       		.byte	0x11
 2597 0fd7 4F       		.byte	0x4f
 2598 0fd8 3D       		.uleb128 0x3d
 2599 0fd9 D7050000 		.4byte	.LASF181
 2600 0fdd D7050000 		.4byte	.LASF181
 2601 0fe1 0F       		.byte	0xf
 2602 0fe2 D8       		.byte	0xd8
 2603 0fe3 3D       		.uleb128 0x3d
 2604 0fe4 1A090000 		.4byte	.LASF182
 2605 0fe8 1A090000 		.4byte	.LASF182
 2606 0fec 0F       		.byte	0xf
 2607 0fed D9       		.byte	0xd9
 2608 0fee 3D       		.uleb128 0x3d
ARM GAS  /var/folders/d2/nstgp4h54kz7g1l847x_b8wc0000gn/T//ccgorJ5f.s 			page 47


 2609 0fef B2050000 		.4byte	.LASF183
 2610 0ff3 B2050000 		.4byte	.LASF183
 2611 0ff7 11       		.byte	0x11
 2612 0ff8 50       		.byte	0x50
 2613 0ff9 3E       		.uleb128 0x3e
 2614 0ffa BC020000 		.4byte	.LASF184
 2615 0ffe BC020000 		.4byte	.LASF184
 2616 1002 03       		.byte	0x3
 2617 1003 1601     		.2byte	0x116
 2618 1005 3F       		.uleb128 0x3f
 2619 1006 99070000 		.4byte	.LASF190
 2620 100a 99070000 		.4byte	.LASF190
 2621 100e 3D       		.uleb128 0x3d
 2622 100f 00050000 		.4byte	.LASF185
 2623 1013 00050000 		.4byte	.LASF185
 2624 1017 0F       		.byte	0xf
 2625 1018 DE       		.byte	0xde
 2626 1019 00       		.byte	0
 2627              		.section	.debug_abbrev,"",%progbits
 2628              	.Ldebug_abbrev0:
 2629 0000 01       		.uleb128 0x1
 2630 0001 11       		.uleb128 0x11
 2631 0002 01       		.byte	0x1
 2632 0003 25       		.uleb128 0x25
 2633 0004 0E       		.uleb128 0xe
 2634 0005 13       		.uleb128 0x13
 2635 0006 0B       		.uleb128 0xb
 2636 0007 03       		.uleb128 0x3
 2637 0008 0E       		.uleb128 0xe
 2638 0009 1B       		.uleb128 0x1b
 2639 000a 0E       		.uleb128 0xe
 2640 000b 55       		.uleb128 0x55
 2641 000c 17       		.uleb128 0x17
 2642 000d 11       		.uleb128 0x11
 2643 000e 01       		.uleb128 0x1
 2644 000f 10       		.uleb128 0x10
 2645 0010 17       		.uleb128 0x17
 2646 0011 00       		.byte	0
 2647 0012 00       		.byte	0
 2648 0013 02       		.uleb128 0x2
 2649 0014 24       		.uleb128 0x24
 2650 0015 00       		.byte	0
 2651 0016 0B       		.uleb128 0xb
 2652 0017 0B       		.uleb128 0xb
 2653 0018 3E       		.uleb128 0x3e
 2654 0019 0B       		.uleb128 0xb
 2655 001a 03       		.uleb128 0x3
 2656 001b 08       		.uleb128 0x8
 2657 001c 00       		.byte	0
 2658 001d 00       		.byte	0
 2659 001e 03       		.uleb128 0x3
 2660 001f 16       		.uleb128 0x16
 2661 0020 00       		.byte	0
 2662 0021 03       		.uleb128 0x3
 2663 0022 0E       		.uleb128 0xe
 2664 0023 3A       		.uleb128 0x3a
 2665 0024 0B       		.uleb128 0xb
ARM GAS  /var/folders/d2/nstgp4h54kz7g1l847x_b8wc0000gn/T//ccgorJ5f.s 			page 48


 2666 0025 3B       		.uleb128 0x3b
 2667 0026 0B       		.uleb128 0xb
 2668 0027 49       		.uleb128 0x49
 2669 0028 13       		.uleb128 0x13
 2670 0029 00       		.byte	0
 2671 002a 00       		.byte	0
 2672 002b 04       		.uleb128 0x4
 2673 002c 24       		.uleb128 0x24
 2674 002d 00       		.byte	0
 2675 002e 0B       		.uleb128 0xb
 2676 002f 0B       		.uleb128 0xb
 2677 0030 3E       		.uleb128 0x3e
 2678 0031 0B       		.uleb128 0xb
 2679 0032 03       		.uleb128 0x3
 2680 0033 0E       		.uleb128 0xe
 2681 0034 00       		.byte	0
 2682 0035 00       		.byte	0
 2683 0036 05       		.uleb128 0x5
 2684 0037 35       		.uleb128 0x35
 2685 0038 00       		.byte	0
 2686 0039 49       		.uleb128 0x49
 2687 003a 13       		.uleb128 0x13
 2688 003b 00       		.byte	0
 2689 003c 00       		.byte	0
 2690 003d 06       		.uleb128 0x6
 2691 003e 13       		.uleb128 0x13
 2692 003f 01       		.byte	0x1
 2693 0040 03       		.uleb128 0x3
 2694 0041 0E       		.uleb128 0xe
 2695 0042 0B       		.uleb128 0xb
 2696 0043 0B       		.uleb128 0xb
 2697 0044 3A       		.uleb128 0x3a
 2698 0045 0B       		.uleb128 0xb
 2699 0046 3B       		.uleb128 0x3b
 2700 0047 0B       		.uleb128 0xb
 2701 0048 01       		.uleb128 0x1
 2702 0049 13       		.uleb128 0x13
 2703 004a 00       		.byte	0
 2704 004b 00       		.byte	0
 2705 004c 07       		.uleb128 0x7
 2706 004d 0D       		.uleb128 0xd
 2707 004e 00       		.byte	0
 2708 004f 03       		.uleb128 0x3
 2709 0050 0E       		.uleb128 0xe
 2710 0051 3A       		.uleb128 0x3a
 2711 0052 0B       		.uleb128 0xb
 2712 0053 3B       		.uleb128 0x3b
 2713 0054 0B       		.uleb128 0xb
 2714 0055 49       		.uleb128 0x49
 2715 0056 13       		.uleb128 0x13
 2716 0057 38       		.uleb128 0x38
 2717 0058 0B       		.uleb128 0xb
 2718 0059 00       		.byte	0
 2719 005a 00       		.byte	0
 2720 005b 08       		.uleb128 0x8
 2721 005c 0D       		.uleb128 0xd
 2722 005d 00       		.byte	0
ARM GAS  /var/folders/d2/nstgp4h54kz7g1l847x_b8wc0000gn/T//ccgorJ5f.s 			page 49


 2723 005e 03       		.uleb128 0x3
 2724 005f 08       		.uleb128 0x8
 2725 0060 3A       		.uleb128 0x3a
 2726 0061 0B       		.uleb128 0xb
 2727 0062 3B       		.uleb128 0x3b
 2728 0063 05       		.uleb128 0x5
 2729 0064 49       		.uleb128 0x49
 2730 0065 13       		.uleb128 0x13
 2731 0066 38       		.uleb128 0x38
 2732 0067 0B       		.uleb128 0xb
 2733 0068 00       		.byte	0
 2734 0069 00       		.byte	0
 2735 006a 09       		.uleb128 0x9
 2736 006b 0D       		.uleb128 0xd
 2737 006c 00       		.byte	0
 2738 006d 03       		.uleb128 0x3
 2739 006e 0E       		.uleb128 0xe
 2740 006f 3A       		.uleb128 0x3a
 2741 0070 0B       		.uleb128 0xb
 2742 0071 3B       		.uleb128 0x3b
 2743 0072 05       		.uleb128 0x5
 2744 0073 49       		.uleb128 0x49
 2745 0074 13       		.uleb128 0x13
 2746 0075 38       		.uleb128 0x38
 2747 0076 0B       		.uleb128 0xb
 2748 0077 00       		.byte	0
 2749 0078 00       		.byte	0
 2750 0079 0A       		.uleb128 0xa
 2751 007a 0F       		.uleb128 0xf
 2752 007b 00       		.byte	0
 2753 007c 0B       		.uleb128 0xb
 2754 007d 0B       		.uleb128 0xb
 2755 007e 49       		.uleb128 0x49
 2756 007f 13       		.uleb128 0x13
 2757 0080 00       		.byte	0
 2758 0081 00       		.byte	0
 2759 0082 0B       		.uleb128 0xb
 2760 0083 13       		.uleb128 0x13
 2761 0084 01       		.byte	0x1
 2762 0085 03       		.uleb128 0x3
 2763 0086 0E       		.uleb128 0xe
 2764 0087 0B       		.uleb128 0xb
 2765 0088 0B       		.uleb128 0xb
 2766 0089 3A       		.uleb128 0x3a
 2767 008a 0B       		.uleb128 0xb
 2768 008b 3B       		.uleb128 0x3b
 2769 008c 05       		.uleb128 0x5
 2770 008d 01       		.uleb128 0x1
 2771 008e 13       		.uleb128 0x13
 2772 008f 00       		.byte	0
 2773 0090 00       		.byte	0
 2774 0091 0C       		.uleb128 0xc
 2775 0092 15       		.uleb128 0x15
 2776 0093 01       		.byte	0x1
 2777 0094 27       		.uleb128 0x27
 2778 0095 19       		.uleb128 0x19
 2779 0096 01       		.uleb128 0x1
ARM GAS  /var/folders/d2/nstgp4h54kz7g1l847x_b8wc0000gn/T//ccgorJ5f.s 			page 50


 2780 0097 13       		.uleb128 0x13
 2781 0098 00       		.byte	0
 2782 0099 00       		.byte	0
 2783 009a 0D       		.uleb128 0xd
 2784 009b 05       		.uleb128 0x5
 2785 009c 00       		.byte	0
 2786 009d 49       		.uleb128 0x49
 2787 009e 13       		.uleb128 0x13
 2788 009f 00       		.byte	0
 2789 00a0 00       		.byte	0
 2790 00a1 0E       		.uleb128 0xe
 2791 00a2 0F       		.uleb128 0xf
 2792 00a3 00       		.byte	0
 2793 00a4 0B       		.uleb128 0xb
 2794 00a5 0B       		.uleb128 0xb
 2795 00a6 00       		.byte	0
 2796 00a7 00       		.byte	0
 2797 00a8 0F       		.uleb128 0xf
 2798 00a9 13       		.uleb128 0x13
 2799 00aa 01       		.byte	0x1
 2800 00ab 03       		.uleb128 0x3
 2801 00ac 0E       		.uleb128 0xe
 2802 00ad 0B       		.uleb128 0xb
 2803 00ae 05       		.uleb128 0x5
 2804 00af 3A       		.uleb128 0x3a
 2805 00b0 0B       		.uleb128 0xb
 2806 00b1 3B       		.uleb128 0x3b
 2807 00b2 05       		.uleb128 0x5
 2808 00b3 01       		.uleb128 0x1
 2809 00b4 13       		.uleb128 0x13
 2810 00b5 00       		.byte	0
 2811 00b6 00       		.byte	0
 2812 00b7 10       		.uleb128 0x10
 2813 00b8 0D       		.uleb128 0xd
 2814 00b9 00       		.byte	0
 2815 00ba 03       		.uleb128 0x3
 2816 00bb 0E       		.uleb128 0xe
 2817 00bc 3A       		.uleb128 0x3a
 2818 00bd 0B       		.uleb128 0xb
 2819 00be 3B       		.uleb128 0x3b
 2820 00bf 05       		.uleb128 0x5
 2821 00c0 49       		.uleb128 0x49
 2822 00c1 13       		.uleb128 0x13
 2823 00c2 38       		.uleb128 0x38
 2824 00c3 05       		.uleb128 0x5
 2825 00c4 00       		.byte	0
 2826 00c5 00       		.byte	0
 2827 00c6 11       		.uleb128 0x11
 2828 00c7 0D       		.uleb128 0xd
 2829 00c8 00       		.byte	0
 2830 00c9 03       		.uleb128 0x3
 2831 00ca 08       		.uleb128 0x8
 2832 00cb 3A       		.uleb128 0x3a
 2833 00cc 0B       		.uleb128 0xb
 2834 00cd 3B       		.uleb128 0x3b
 2835 00ce 05       		.uleb128 0x5
 2836 00cf 49       		.uleb128 0x49
ARM GAS  /var/folders/d2/nstgp4h54kz7g1l847x_b8wc0000gn/T//ccgorJ5f.s 			page 51


 2837 00d0 13       		.uleb128 0x13
 2838 00d1 38       		.uleb128 0x38
 2839 00d2 05       		.uleb128 0x5
 2840 00d3 00       		.byte	0
 2841 00d4 00       		.byte	0
 2842 00d5 12       		.uleb128 0x12
 2843 00d6 34       		.uleb128 0x34
 2844 00d7 00       		.byte	0
 2845 00d8 03       		.uleb128 0x3
 2846 00d9 0E       		.uleb128 0xe
 2847 00da 3A       		.uleb128 0x3a
 2848 00db 0B       		.uleb128 0xb
 2849 00dc 3B       		.uleb128 0x3b
 2850 00dd 05       		.uleb128 0x5
 2851 00de 49       		.uleb128 0x49
 2852 00df 13       		.uleb128 0x13
 2853 00e0 3F       		.uleb128 0x3f
 2854 00e1 19       		.uleb128 0x19
 2855 00e2 3C       		.uleb128 0x3c
 2856 00e3 19       		.uleb128 0x19
 2857 00e4 00       		.byte	0
 2858 00e5 00       		.byte	0
 2859 00e6 13       		.uleb128 0x13
 2860 00e7 34       		.uleb128 0x34
 2861 00e8 00       		.byte	0
 2862 00e9 03       		.uleb128 0x3
 2863 00ea 0E       		.uleb128 0xe
 2864 00eb 3A       		.uleb128 0x3a
 2865 00ec 0B       		.uleb128 0xb
 2866 00ed 3B       		.uleb128 0x3b
 2867 00ee 0B       		.uleb128 0xb
 2868 00ef 49       		.uleb128 0x49
 2869 00f0 13       		.uleb128 0x13
 2870 00f1 3F       		.uleb128 0x3f
 2871 00f2 19       		.uleb128 0x19
 2872 00f3 3C       		.uleb128 0x3c
 2873 00f4 19       		.uleb128 0x19
 2874 00f5 00       		.byte	0
 2875 00f6 00       		.byte	0
 2876 00f7 14       		.uleb128 0x14
 2877 00f8 0D       		.uleb128 0xd
 2878 00f9 00       		.byte	0
 2879 00fa 03       		.uleb128 0x3
 2880 00fb 08       		.uleb128 0x8
 2881 00fc 3A       		.uleb128 0x3a
 2882 00fd 0B       		.uleb128 0xb
 2883 00fe 3B       		.uleb128 0x3b
 2884 00ff 0B       		.uleb128 0xb
 2885 0100 49       		.uleb128 0x49
 2886 0101 13       		.uleb128 0x13
 2887 0102 38       		.uleb128 0x38
 2888 0103 0B       		.uleb128 0xb
 2889 0104 00       		.byte	0
 2890 0105 00       		.byte	0
 2891 0106 15       		.uleb128 0x15
 2892 0107 13       		.uleb128 0x13
 2893 0108 01       		.byte	0x1
ARM GAS  /var/folders/d2/nstgp4h54kz7g1l847x_b8wc0000gn/T//ccgorJ5f.s 			page 52


 2894 0109 0B       		.uleb128 0xb
 2895 010a 0B       		.uleb128 0xb
 2896 010b 3A       		.uleb128 0x3a
 2897 010c 0B       		.uleb128 0xb
 2898 010d 3B       		.uleb128 0x3b
 2899 010e 0B       		.uleb128 0xb
 2900 010f 01       		.uleb128 0x1
 2901 0110 13       		.uleb128 0x13
 2902 0111 00       		.byte	0
 2903 0112 00       		.byte	0
 2904 0113 16       		.uleb128 0x16
 2905 0114 13       		.uleb128 0x13
 2906 0115 01       		.byte	0x1
 2907 0116 0B       		.uleb128 0xb
 2908 0117 05       		.uleb128 0x5
 2909 0118 3A       		.uleb128 0x3a
 2910 0119 0B       		.uleb128 0xb
 2911 011a 3B       		.uleb128 0x3b
 2912 011b 0B       		.uleb128 0xb
 2913 011c 01       		.uleb128 0x1
 2914 011d 13       		.uleb128 0x13
 2915 011e 00       		.byte	0
 2916 011f 00       		.byte	0
 2917 0120 17       		.uleb128 0x17
 2918 0121 01       		.uleb128 0x1
 2919 0122 01       		.byte	0x1
 2920 0123 49       		.uleb128 0x49
 2921 0124 13       		.uleb128 0x13
 2922 0125 01       		.uleb128 0x1
 2923 0126 13       		.uleb128 0x13
 2924 0127 00       		.byte	0
 2925 0128 00       		.byte	0
 2926 0129 18       		.uleb128 0x18
 2927 012a 21       		.uleb128 0x21
 2928 012b 00       		.byte	0
 2929 012c 49       		.uleb128 0x49
 2930 012d 13       		.uleb128 0x13
 2931 012e 2F       		.uleb128 0x2f
 2932 012f 0B       		.uleb128 0xb
 2933 0130 00       		.byte	0
 2934 0131 00       		.byte	0
 2935 0132 19       		.uleb128 0x19
 2936 0133 17       		.uleb128 0x17
 2937 0134 01       		.byte	0x1
 2938 0135 0B       		.uleb128 0xb
 2939 0136 0B       		.uleb128 0xb
 2940 0137 3A       		.uleb128 0x3a
 2941 0138 0B       		.uleb128 0xb
 2942 0139 3B       		.uleb128 0x3b
 2943 013a 0B       		.uleb128 0xb
 2944 013b 01       		.uleb128 0x1
 2945 013c 13       		.uleb128 0x13
 2946 013d 00       		.byte	0
 2947 013e 00       		.byte	0
 2948 013f 1A       		.uleb128 0x1a
 2949 0140 0D       		.uleb128 0xd
 2950 0141 00       		.byte	0
ARM GAS  /var/folders/d2/nstgp4h54kz7g1l847x_b8wc0000gn/T//ccgorJ5f.s 			page 53


 2951 0142 03       		.uleb128 0x3
 2952 0143 0E       		.uleb128 0xe
 2953 0144 3A       		.uleb128 0x3a
 2954 0145 0B       		.uleb128 0xb
 2955 0146 3B       		.uleb128 0x3b
 2956 0147 05       		.uleb128 0x5
 2957 0148 49       		.uleb128 0x49
 2958 0149 13       		.uleb128 0x13
 2959 014a 00       		.byte	0
 2960 014b 00       		.byte	0
 2961 014c 1B       		.uleb128 0x1b
 2962 014d 26       		.uleb128 0x26
 2963 014e 00       		.byte	0
 2964 014f 49       		.uleb128 0x49
 2965 0150 13       		.uleb128 0x13
 2966 0151 00       		.byte	0
 2967 0152 00       		.byte	0
 2968 0153 1C       		.uleb128 0x1c
 2969 0154 34       		.uleb128 0x34
 2970 0155 00       		.byte	0
 2971 0156 03       		.uleb128 0x3
 2972 0157 08       		.uleb128 0x8
 2973 0158 3A       		.uleb128 0x3a
 2974 0159 0B       		.uleb128 0xb
 2975 015a 3B       		.uleb128 0x3b
 2976 015b 05       		.uleb128 0x5
 2977 015c 49       		.uleb128 0x49
 2978 015d 13       		.uleb128 0x13
 2979 015e 3F       		.uleb128 0x3f
 2980 015f 19       		.uleb128 0x19
 2981 0160 3C       		.uleb128 0x3c
 2982 0161 19       		.uleb128 0x19
 2983 0162 00       		.byte	0
 2984 0163 00       		.byte	0
 2985 0164 1D       		.uleb128 0x1d
 2986 0165 15       		.uleb128 0x15
 2987 0166 01       		.byte	0x1
 2988 0167 27       		.uleb128 0x27
 2989 0168 19       		.uleb128 0x19
 2990 0169 49       		.uleb128 0x49
 2991 016a 13       		.uleb128 0x13
 2992 016b 01       		.uleb128 0x1
 2993 016c 13       		.uleb128 0x13
 2994 016d 00       		.byte	0
 2995 016e 00       		.byte	0
 2996 016f 1E       		.uleb128 0x1e
 2997 0170 2E       		.uleb128 0x2e
 2998 0171 01       		.byte	0x1
 2999 0172 3F       		.uleb128 0x3f
 3000 0173 19       		.uleb128 0x19
 3001 0174 03       		.uleb128 0x3
 3002 0175 0E       		.uleb128 0xe
 3003 0176 3A       		.uleb128 0x3a
 3004 0177 0B       		.uleb128 0xb
 3005 0178 3B       		.uleb128 0x3b
 3006 0179 0B       		.uleb128 0xb
 3007 017a 27       		.uleb128 0x27
ARM GAS  /var/folders/d2/nstgp4h54kz7g1l847x_b8wc0000gn/T//ccgorJ5f.s 			page 54


 3008 017b 19       		.uleb128 0x19
 3009 017c 11       		.uleb128 0x11
 3010 017d 01       		.uleb128 0x1
 3011 017e 12       		.uleb128 0x12
 3012 017f 06       		.uleb128 0x6
 3013 0180 40       		.uleb128 0x40
 3014 0181 18       		.uleb128 0x18
 3015 0182 9742     		.uleb128 0x2117
 3016 0184 19       		.uleb128 0x19
 3017 0185 01       		.uleb128 0x1
 3018 0186 13       		.uleb128 0x13
 3019 0187 00       		.byte	0
 3020 0188 00       		.byte	0
 3021 0189 1F       		.uleb128 0x1f
 3022 018a 05       		.uleb128 0x5
 3023 018b 00       		.byte	0
 3024 018c 03       		.uleb128 0x3
 3025 018d 08       		.uleb128 0x8
 3026 018e 3A       		.uleb128 0x3a
 3027 018f 0B       		.uleb128 0xb
 3028 0190 3B       		.uleb128 0x3b
 3029 0191 0B       		.uleb128 0xb
 3030 0192 49       		.uleb128 0x49
 3031 0193 13       		.uleb128 0x13
 3032 0194 02       		.uleb128 0x2
 3033 0195 17       		.uleb128 0x17
 3034 0196 00       		.byte	0
 3035 0197 00       		.byte	0
 3036 0198 20       		.uleb128 0x20
 3037 0199 05       		.uleb128 0x5
 3038 019a 00       		.byte	0
 3039 019b 03       		.uleb128 0x3
 3040 019c 0E       		.uleb128 0xe
 3041 019d 3A       		.uleb128 0x3a
 3042 019e 0B       		.uleb128 0xb
 3043 019f 3B       		.uleb128 0x3b
 3044 01a0 0B       		.uleb128 0xb
 3045 01a1 49       		.uleb128 0x49
 3046 01a2 13       		.uleb128 0x13
 3047 01a3 02       		.uleb128 0x2
 3048 01a4 17       		.uleb128 0x17
 3049 01a5 00       		.byte	0
 3050 01a6 00       		.byte	0
 3051 01a7 21       		.uleb128 0x21
 3052 01a8 1D       		.uleb128 0x1d
 3053 01a9 01       		.byte	0x1
 3054 01aa 31       		.uleb128 0x31
 3055 01ab 13       		.uleb128 0x13
 3056 01ac 11       		.uleb128 0x11
 3057 01ad 01       		.uleb128 0x1
 3058 01ae 12       		.uleb128 0x12
 3059 01af 06       		.uleb128 0x6
 3060 01b0 58       		.uleb128 0x58
 3061 01b1 0B       		.uleb128 0xb
 3062 01b2 59       		.uleb128 0x59
 3063 01b3 0B       		.uleb128 0xb
 3064 01b4 01       		.uleb128 0x1
ARM GAS  /var/folders/d2/nstgp4h54kz7g1l847x_b8wc0000gn/T//ccgorJ5f.s 			page 55


 3065 01b5 13       		.uleb128 0x13
 3066 01b6 00       		.byte	0
 3067 01b7 00       		.byte	0
 3068 01b8 22       		.uleb128 0x22
 3069 01b9 1D       		.uleb128 0x1d
 3070 01ba 01       		.byte	0x1
 3071 01bb 31       		.uleb128 0x31
 3072 01bc 13       		.uleb128 0x13
 3073 01bd 11       		.uleb128 0x11
 3074 01be 01       		.uleb128 0x1
 3075 01bf 12       		.uleb128 0x12
 3076 01c0 06       		.uleb128 0x6
 3077 01c1 58       		.uleb128 0x58
 3078 01c2 0B       		.uleb128 0xb
 3079 01c3 59       		.uleb128 0x59
 3080 01c4 05       		.uleb128 0x5
 3081 01c5 01       		.uleb128 0x1
 3082 01c6 13       		.uleb128 0x13
 3083 01c7 00       		.byte	0
 3084 01c8 00       		.byte	0
 3085 01c9 23       		.uleb128 0x23
 3086 01ca 1D       		.uleb128 0x1d
 3087 01cb 01       		.byte	0x1
 3088 01cc 31       		.uleb128 0x31
 3089 01cd 13       		.uleb128 0x13
 3090 01ce 11       		.uleb128 0x11
 3091 01cf 01       		.uleb128 0x1
 3092 01d0 12       		.uleb128 0x12
 3093 01d1 06       		.uleb128 0x6
 3094 01d2 58       		.uleb128 0x58
 3095 01d3 0B       		.uleb128 0xb
 3096 01d4 59       		.uleb128 0x59
 3097 01d5 05       		.uleb128 0x5
 3098 01d6 00       		.byte	0
 3099 01d7 00       		.byte	0
 3100 01d8 24       		.uleb128 0x24
 3101 01d9 05       		.uleb128 0x5
 3102 01da 00       		.byte	0
 3103 01db 31       		.uleb128 0x31
 3104 01dc 13       		.uleb128 0x13
 3105 01dd 02       		.uleb128 0x2
 3106 01de 17       		.uleb128 0x17
 3107 01df 00       		.byte	0
 3108 01e0 00       		.byte	0
 3109 01e1 25       		.uleb128 0x25
 3110 01e2 898201   		.uleb128 0x4109
 3111 01e5 00       		.byte	0
 3112 01e6 11       		.uleb128 0x11
 3113 01e7 01       		.uleb128 0x1
 3114 01e8 31       		.uleb128 0x31
 3115 01e9 13       		.uleb128 0x13
 3116 01ea 00       		.byte	0
 3117 01eb 00       		.byte	0
 3118 01ec 26       		.uleb128 0x26
 3119 01ed 1D       		.uleb128 0x1d
 3120 01ee 01       		.byte	0x1
 3121 01ef 31       		.uleb128 0x31
ARM GAS  /var/folders/d2/nstgp4h54kz7g1l847x_b8wc0000gn/T//ccgorJ5f.s 			page 56


 3122 01f0 13       		.uleb128 0x13
 3123 01f1 52       		.uleb128 0x52
 3124 01f2 01       		.uleb128 0x1
 3125 01f3 55       		.uleb128 0x55
 3126 01f4 17       		.uleb128 0x17
 3127 01f5 58       		.uleb128 0x58
 3128 01f6 0B       		.uleb128 0xb
 3129 01f7 59       		.uleb128 0x59
 3130 01f8 0B       		.uleb128 0xb
 3131 01f9 01       		.uleb128 0x1
 3132 01fa 13       		.uleb128 0x13
 3133 01fb 00       		.byte	0
 3134 01fc 00       		.byte	0
 3135 01fd 27       		.uleb128 0x27
 3136 01fe 0B       		.uleb128 0xb
 3137 01ff 01       		.byte	0x1
 3138 0200 55       		.uleb128 0x55
 3139 0201 17       		.uleb128 0x17
 3140 0202 00       		.byte	0
 3141 0203 00       		.byte	0
 3142 0204 28       		.uleb128 0x28
 3143 0205 34       		.uleb128 0x34
 3144 0206 00       		.byte	0
 3145 0207 31       		.uleb128 0x31
 3146 0208 13       		.uleb128 0x13
 3147 0209 00       		.byte	0
 3148 020a 00       		.byte	0
 3149 020b 29       		.uleb128 0x29
 3150 020c 898201   		.uleb128 0x4109
 3151 020f 01       		.byte	0x1
 3152 0210 11       		.uleb128 0x11
 3153 0211 01       		.uleb128 0x1
 3154 0212 31       		.uleb128 0x31
 3155 0213 13       		.uleb128 0x13
 3156 0214 00       		.byte	0
 3157 0215 00       		.byte	0
 3158 0216 2A       		.uleb128 0x2a
 3159 0217 8A8201   		.uleb128 0x410a
 3160 021a 00       		.byte	0
 3161 021b 02       		.uleb128 0x2
 3162 021c 18       		.uleb128 0x18
 3163 021d 9142     		.uleb128 0x2111
 3164 021f 18       		.uleb128 0x18
 3165 0220 00       		.byte	0
 3166 0221 00       		.byte	0
 3167 0222 2B       		.uleb128 0x2b
 3168 0223 898201   		.uleb128 0x4109
 3169 0226 01       		.byte	0x1
 3170 0227 11       		.uleb128 0x11
 3171 0228 01       		.uleb128 0x1
 3172 0229 31       		.uleb128 0x31
 3173 022a 13       		.uleb128 0x13
 3174 022b 01       		.uleb128 0x1
 3175 022c 13       		.uleb128 0x13
 3176 022d 00       		.byte	0
 3177 022e 00       		.byte	0
 3178 022f 2C       		.uleb128 0x2c
ARM GAS  /var/folders/d2/nstgp4h54kz7g1l847x_b8wc0000gn/T//ccgorJ5f.s 			page 57


 3179 0230 34       		.uleb128 0x34
 3180 0231 00       		.byte	0
 3181 0232 03       		.uleb128 0x3
 3182 0233 08       		.uleb128 0x8
 3183 0234 3A       		.uleb128 0x3a
 3184 0235 0B       		.uleb128 0xb
 3185 0236 3B       		.uleb128 0x3b
 3186 0237 0B       		.uleb128 0xb
 3187 0238 49       		.uleb128 0x49
 3188 0239 13       		.uleb128 0x13
 3189 023a 02       		.uleb128 0x2
 3190 023b 17       		.uleb128 0x17
 3191 023c 00       		.byte	0
 3192 023d 00       		.byte	0
 3193 023e 2D       		.uleb128 0x2d
 3194 023f 34       		.uleb128 0x34
 3195 0240 00       		.byte	0
 3196 0241 03       		.uleb128 0x3
 3197 0242 0E       		.uleb128 0xe
 3198 0243 49       		.uleb128 0x49
 3199 0244 13       		.uleb128 0x13
 3200 0245 34       		.uleb128 0x34
 3201 0246 19       		.uleb128 0x19
 3202 0247 02       		.uleb128 0x2
 3203 0248 18       		.uleb128 0x18
 3204 0249 00       		.byte	0
 3205 024a 00       		.byte	0
 3206 024b 2E       		.uleb128 0x2e
 3207 024c 2E       		.uleb128 0x2e
 3208 024d 01       		.byte	0x1
 3209 024e 3F       		.uleb128 0x3f
 3210 024f 19       		.uleb128 0x19
 3211 0250 03       		.uleb128 0x3
 3212 0251 0E       		.uleb128 0xe
 3213 0252 3A       		.uleb128 0x3a
 3214 0253 0B       		.uleb128 0xb
 3215 0254 3B       		.uleb128 0x3b
 3216 0255 0B       		.uleb128 0xb
 3217 0256 27       		.uleb128 0x27
 3218 0257 19       		.uleb128 0x19
 3219 0258 49       		.uleb128 0x49
 3220 0259 13       		.uleb128 0x13
 3221 025a 11       		.uleb128 0x11
 3222 025b 01       		.uleb128 0x1
 3223 025c 12       		.uleb128 0x12
 3224 025d 06       		.uleb128 0x6
 3225 025e 40       		.uleb128 0x40
 3226 025f 18       		.uleb128 0x18
 3227 0260 9742     		.uleb128 0x2117
 3228 0262 19       		.uleb128 0x19
 3229 0263 01       		.uleb128 0x1
 3230 0264 13       		.uleb128 0x13
 3231 0265 00       		.byte	0
 3232 0266 00       		.byte	0
 3233 0267 2F       		.uleb128 0x2f
 3234 0268 34       		.uleb128 0x34
 3235 0269 00       		.byte	0
ARM GAS  /var/folders/d2/nstgp4h54kz7g1l847x_b8wc0000gn/T//ccgorJ5f.s 			page 58


 3236 026a 03       		.uleb128 0x3
 3237 026b 0E       		.uleb128 0xe
 3238 026c 3A       		.uleb128 0x3a
 3239 026d 0B       		.uleb128 0xb
 3240 026e 3B       		.uleb128 0x3b
 3241 026f 0B       		.uleb128 0xb
 3242 0270 49       		.uleb128 0x49
 3243 0271 13       		.uleb128 0x13
 3244 0272 02       		.uleb128 0x2
 3245 0273 17       		.uleb128 0x17
 3246 0274 00       		.byte	0
 3247 0275 00       		.byte	0
 3248 0276 30       		.uleb128 0x30
 3249 0277 2E       		.uleb128 0x2e
 3250 0278 01       		.byte	0x1
 3251 0279 3F       		.uleb128 0x3f
 3252 027a 19       		.uleb128 0x19
 3253 027b 03       		.uleb128 0x3
 3254 027c 0E       		.uleb128 0xe
 3255 027d 3A       		.uleb128 0x3a
 3256 027e 0B       		.uleb128 0xb
 3257 027f 3B       		.uleb128 0x3b
 3258 0280 0B       		.uleb128 0xb
 3259 0281 27       		.uleb128 0x27
 3260 0282 19       		.uleb128 0x19
 3261 0283 49       		.uleb128 0x49
 3262 0284 13       		.uleb128 0x13
 3263 0285 20       		.uleb128 0x20
 3264 0286 0B       		.uleb128 0xb
 3265 0287 01       		.uleb128 0x1
 3266 0288 13       		.uleb128 0x13
 3267 0289 00       		.byte	0
 3268 028a 00       		.byte	0
 3269 028b 31       		.uleb128 0x31
 3270 028c 05       		.uleb128 0x5
 3271 028d 00       		.byte	0
 3272 028e 03       		.uleb128 0x3
 3273 028f 08       		.uleb128 0x8
 3274 0290 3A       		.uleb128 0x3a
 3275 0291 0B       		.uleb128 0xb
 3276 0292 3B       		.uleb128 0x3b
 3277 0293 0B       		.uleb128 0xb
 3278 0294 49       		.uleb128 0x49
 3279 0295 13       		.uleb128 0x13
 3280 0296 00       		.byte	0
 3281 0297 00       		.byte	0
 3282 0298 32       		.uleb128 0x32
 3283 0299 34       		.uleb128 0x34
 3284 029a 00       		.byte	0
 3285 029b 03       		.uleb128 0x3
 3286 029c 0E       		.uleb128 0xe
 3287 029d 3A       		.uleb128 0x3a
 3288 029e 0B       		.uleb128 0xb
 3289 029f 3B       		.uleb128 0x3b
 3290 02a0 0B       		.uleb128 0xb
 3291 02a1 49       		.uleb128 0x49
 3292 02a2 13       		.uleb128 0x13
ARM GAS  /var/folders/d2/nstgp4h54kz7g1l847x_b8wc0000gn/T//ccgorJ5f.s 			page 59


 3293 02a3 00       		.byte	0
 3294 02a4 00       		.byte	0
 3295 02a5 33       		.uleb128 0x33
 3296 02a6 34       		.uleb128 0x34
 3297 02a7 00       		.byte	0
 3298 02a8 03       		.uleb128 0x3
 3299 02a9 0E       		.uleb128 0xe
 3300 02aa 49       		.uleb128 0x49
 3301 02ab 13       		.uleb128 0x13
 3302 02ac 34       		.uleb128 0x34
 3303 02ad 19       		.uleb128 0x19
 3304 02ae 1C       		.uleb128 0x1c
 3305 02af 0E       		.uleb128 0xe
 3306 02b0 00       		.byte	0
 3307 02b1 00       		.byte	0
 3308 02b2 34       		.uleb128 0x34
 3309 02b3 898201   		.uleb128 0x4109
 3310 02b6 01       		.byte	0x1
 3311 02b7 11       		.uleb128 0x11
 3312 02b8 01       		.uleb128 0x1
 3313 02b9 9542     		.uleb128 0x2115
 3314 02bb 19       		.uleb128 0x19
 3315 02bc 31       		.uleb128 0x31
 3316 02bd 13       		.uleb128 0x13
 3317 02be 01       		.uleb128 0x1
 3318 02bf 13       		.uleb128 0x13
 3319 02c0 00       		.byte	0
 3320 02c1 00       		.byte	0
 3321 02c2 35       		.uleb128 0x35
 3322 02c3 2E       		.uleb128 0x2e
 3323 02c4 01       		.byte	0x1
 3324 02c5 03       		.uleb128 0x3
 3325 02c6 0E       		.uleb128 0xe
 3326 02c7 3A       		.uleb128 0x3a
 3327 02c8 0B       		.uleb128 0xb
 3328 02c9 3B       		.uleb128 0x3b
 3329 02ca 0B       		.uleb128 0xb
 3330 02cb 27       		.uleb128 0x27
 3331 02cc 19       		.uleb128 0x19
 3332 02cd 20       		.uleb128 0x20
 3333 02ce 0B       		.uleb128 0xb
 3334 02cf 01       		.uleb128 0x1
 3335 02d0 13       		.uleb128 0x13
 3336 02d1 00       		.byte	0
 3337 02d2 00       		.byte	0
 3338 02d3 36       		.uleb128 0x36
 3339 02d4 05       		.uleb128 0x5
 3340 02d5 00       		.byte	0
 3341 02d6 03       		.uleb128 0x3
 3342 02d7 0E       		.uleb128 0xe
 3343 02d8 3A       		.uleb128 0x3a
 3344 02d9 0B       		.uleb128 0xb
 3345 02da 3B       		.uleb128 0x3b
 3346 02db 0B       		.uleb128 0xb
 3347 02dc 49       		.uleb128 0x49
 3348 02dd 13       		.uleb128 0x13
 3349 02de 00       		.byte	0
ARM GAS  /var/folders/d2/nstgp4h54kz7g1l847x_b8wc0000gn/T//ccgorJ5f.s 			page 60


 3350 02df 00       		.byte	0
 3351 02e0 37       		.uleb128 0x37
 3352 02e1 2E       		.uleb128 0x2e
 3353 02e2 01       		.byte	0x1
 3354 02e3 03       		.uleb128 0x3
 3355 02e4 0E       		.uleb128 0xe
 3356 02e5 3A       		.uleb128 0x3a
 3357 02e6 0B       		.uleb128 0xb
 3358 02e7 3B       		.uleb128 0x3b
 3359 02e8 05       		.uleb128 0x5
 3360 02e9 27       		.uleb128 0x27
 3361 02ea 19       		.uleb128 0x19
 3362 02eb 20       		.uleb128 0x20
 3363 02ec 0B       		.uleb128 0xb
 3364 02ed 01       		.uleb128 0x1
 3365 02ee 13       		.uleb128 0x13
 3366 02ef 00       		.byte	0
 3367 02f0 00       		.byte	0
 3368 02f1 38       		.uleb128 0x38
 3369 02f2 2E       		.uleb128 0x2e
 3370 02f3 00       		.byte	0
 3371 02f4 03       		.uleb128 0x3
 3372 02f5 0E       		.uleb128 0xe
 3373 02f6 3A       		.uleb128 0x3a
 3374 02f7 0B       		.uleb128 0xb
 3375 02f8 3B       		.uleb128 0x3b
 3376 02f9 05       		.uleb128 0x5
 3377 02fa 27       		.uleb128 0x27
 3378 02fb 19       		.uleb128 0x19
 3379 02fc 20       		.uleb128 0x20
 3380 02fd 0B       		.uleb128 0xb
 3381 02fe 00       		.byte	0
 3382 02ff 00       		.byte	0
 3383 0300 39       		.uleb128 0x39
 3384 0301 05       		.uleb128 0x5
 3385 0302 00       		.byte	0
 3386 0303 03       		.uleb128 0x3
 3387 0304 0E       		.uleb128 0xe
 3388 0305 3A       		.uleb128 0x3a
 3389 0306 0B       		.uleb128 0xb
 3390 0307 3B       		.uleb128 0x3b
 3391 0308 05       		.uleb128 0x5
 3392 0309 49       		.uleb128 0x49
 3393 030a 13       		.uleb128 0x13
 3394 030b 00       		.byte	0
 3395 030c 00       		.byte	0
 3396 030d 3A       		.uleb128 0x3a
 3397 030e 2E       		.uleb128 0x2e
 3398 030f 01       		.byte	0x1
 3399 0310 31       		.uleb128 0x31
 3400 0311 13       		.uleb128 0x13
 3401 0312 11       		.uleb128 0x11
 3402 0313 01       		.uleb128 0x1
 3403 0314 12       		.uleb128 0x12
 3404 0315 06       		.uleb128 0x6
 3405 0316 40       		.uleb128 0x40
 3406 0317 18       		.uleb128 0x18
ARM GAS  /var/folders/d2/nstgp4h54kz7g1l847x_b8wc0000gn/T//ccgorJ5f.s 			page 61


 3407 0318 01       		.uleb128 0x1
 3408 0319 13       		.uleb128 0x13
 3409 031a 00       		.byte	0
 3410 031b 00       		.byte	0
 3411 031c 3B       		.uleb128 0x3b
 3412 031d 34       		.uleb128 0x34
 3413 031e 00       		.byte	0
 3414 031f 31       		.uleb128 0x31
 3415 0320 13       		.uleb128 0x13
 3416 0321 02       		.uleb128 0x2
 3417 0322 17       		.uleb128 0x17
 3418 0323 00       		.byte	0
 3419 0324 00       		.byte	0
 3420 0325 3C       		.uleb128 0x3c
 3421 0326 0B       		.uleb128 0xb
 3422 0327 01       		.byte	0x1
 3423 0328 31       		.uleb128 0x31
 3424 0329 13       		.uleb128 0x13
 3425 032a 55       		.uleb128 0x55
 3426 032b 17       		.uleb128 0x17
 3427 032c 01       		.uleb128 0x1
 3428 032d 13       		.uleb128 0x13
 3429 032e 00       		.byte	0
 3430 032f 00       		.byte	0
 3431 0330 3D       		.uleb128 0x3d
 3432 0331 2E       		.uleb128 0x2e
 3433 0332 00       		.byte	0
 3434 0333 3F       		.uleb128 0x3f
 3435 0334 19       		.uleb128 0x19
 3436 0335 3C       		.uleb128 0x3c
 3437 0336 19       		.uleb128 0x19
 3438 0337 6E       		.uleb128 0x6e
 3439 0338 0E       		.uleb128 0xe
 3440 0339 03       		.uleb128 0x3
 3441 033a 0E       		.uleb128 0xe
 3442 033b 3A       		.uleb128 0x3a
 3443 033c 0B       		.uleb128 0xb
 3444 033d 3B       		.uleb128 0x3b
 3445 033e 0B       		.uleb128 0xb
 3446 033f 00       		.byte	0
 3447 0340 00       		.byte	0
 3448 0341 3E       		.uleb128 0x3e
 3449 0342 2E       		.uleb128 0x2e
 3450 0343 00       		.byte	0
 3451 0344 3F       		.uleb128 0x3f
 3452 0345 19       		.uleb128 0x19
 3453 0346 3C       		.uleb128 0x3c
 3454 0347 19       		.uleb128 0x19
 3455 0348 6E       		.uleb128 0x6e
 3456 0349 0E       		.uleb128 0xe
 3457 034a 03       		.uleb128 0x3
 3458 034b 0E       		.uleb128 0xe
 3459 034c 3A       		.uleb128 0x3a
 3460 034d 0B       		.uleb128 0xb
 3461 034e 3B       		.uleb128 0x3b
 3462 034f 05       		.uleb128 0x5
 3463 0350 00       		.byte	0
ARM GAS  /var/folders/d2/nstgp4h54kz7g1l847x_b8wc0000gn/T//ccgorJ5f.s 			page 62


 3464 0351 00       		.byte	0
 3465 0352 3F       		.uleb128 0x3f
 3466 0353 2E       		.uleb128 0x2e
 3467 0354 00       		.byte	0
 3468 0355 3F       		.uleb128 0x3f
 3469 0356 19       		.uleb128 0x19
 3470 0357 3C       		.uleb128 0x3c
 3471 0358 19       		.uleb128 0x19
 3472 0359 6E       		.uleb128 0x6e
 3473 035a 0E       		.uleb128 0xe
 3474 035b 03       		.uleb128 0x3
 3475 035c 0E       		.uleb128 0xe
 3476 035d 00       		.byte	0
 3477 035e 00       		.byte	0
 3478 035f 00       		.byte	0
 3479              		.section	.debug_loc,"",%progbits
 3480              	.Ldebug_loc0:
 3481              	.LLST13:
 3482 0000 00000000 		.4byte	.LVL37
 3483 0004 17000000 		.4byte	.LVL40-1
 3484 0008 0100     		.2byte	0x1
 3485 000a 50       		.byte	0x50
 3486 000b 17000000 		.4byte	.LVL40-1
 3487 000f 68000000 		.4byte	.LFE224
 3488 0013 0100     		.2byte	0x1
 3489 0015 55       		.byte	0x55
 3490 0016 00000000 		.4byte	0
 3491 001a 00000000 		.4byte	0
 3492              	.LLST14:
 3493 001e 00000000 		.4byte	.LVL37
 3494 0022 17000000 		.4byte	.LVL40-1
 3495 0026 0100     		.2byte	0x1
 3496 0028 51       		.byte	0x51
 3497 0029 17000000 		.4byte	.LVL40-1
 3498 002d 68000000 		.4byte	.LFE224
 3499 0031 0100     		.2byte	0x1
 3500 0033 56       		.byte	0x56
 3501 0034 00000000 		.4byte	0
 3502 0038 00000000 		.4byte	0
 3503              	.LLST15:
 3504 003c 0A000000 		.4byte	.LVL38
 3505 0040 14000000 		.4byte	.LVL39
 3506 0044 0300     		.2byte	0x3
 3507 0046 08       		.byte	0x8
 3508 0047 20       		.byte	0x20
 3509 0048 9F       		.byte	0x9f
 3510 0049 00000000 		.4byte	0
 3511 004d 00000000 		.4byte	0
 3512              	.LLST16:
 3513 0051 3E000000 		.4byte	.LVL45
 3514 0055 44000000 		.4byte	.LVL46
 3515 0059 0200     		.2byte	0x2
 3516 005b 30       		.byte	0x30
 3517 005c 9F       		.byte	0x9f
 3518 005d 00000000 		.4byte	0
 3519 0061 00000000 		.4byte	0
 3520              	.LLST10:
ARM GAS  /var/folders/d2/nstgp4h54kz7g1l847x_b8wc0000gn/T//ccgorJ5f.s 			page 63


 3521 0065 00000000 		.4byte	.LVL31
 3522 0069 11000000 		.4byte	.LVL33-1
 3523 006d 0100     		.2byte	0x1
 3524 006f 50       		.byte	0x50
 3525 0070 11000000 		.4byte	.LVL33-1
 3526 0074 3C000000 		.4byte	.LFE223
 3527 0078 0100     		.2byte	0x1
 3528 007a 54       		.byte	0x54
 3529 007b 00000000 		.4byte	0
 3530 007f 00000000 		.4byte	0
 3531              	.LLST11:
 3532 0083 00000000 		.4byte	.LVL31
 3533 0087 11000000 		.4byte	.LVL33-1
 3534 008b 0100     		.2byte	0x1
 3535 008d 51       		.byte	0x51
 3536 008e 11000000 		.4byte	.LVL33-1
 3537 0092 3C000000 		.4byte	.LFE223
 3538 0096 0100     		.2byte	0x1
 3539 0098 55       		.byte	0x55
 3540 0099 00000000 		.4byte	0
 3541 009d 00000000 		.4byte	0
 3542              	.LLST12:
 3543 00a1 0E000000 		.4byte	.LVL32
 3544 00a5 11000000 		.4byte	.LVL33-1
 3545 00a9 0100     		.2byte	0x1
 3546 00ab 51       		.byte	0x51
 3547 00ac 11000000 		.4byte	.LVL33-1
 3548 00b0 3C000000 		.4byte	.LFE223
 3549 00b4 0100     		.2byte	0x1
 3550 00b6 55       		.byte	0x55
 3551 00b7 00000000 		.4byte	0
 3552 00bb 00000000 		.4byte	0
 3553              	.LLST6:
 3554 00bf 00000000 		.4byte	.LVL15
 3555 00c3 15000000 		.4byte	.LVL18-1
 3556 00c7 0100     		.2byte	0x1
 3557 00c9 50       		.byte	0x50
 3558 00ca 15000000 		.4byte	.LVL18-1
 3559 00ce 22000000 		.4byte	.LVL21
 3560 00d2 0100     		.2byte	0x1
 3561 00d4 55       		.byte	0x55
 3562 00d5 22000000 		.4byte	.LVL21
 3563 00d9 68000000 		.4byte	.LFE222
 3564 00dd 0400     		.2byte	0x4
 3565 00df F3       		.byte	0xf3
 3566 00e0 01       		.uleb128 0x1
 3567 00e1 50       		.byte	0x50
 3568 00e2 9F       		.byte	0x9f
 3569 00e3 00000000 		.4byte	0
 3570 00e7 00000000 		.4byte	0
 3571              	.LLST7:
 3572 00eb 22000000 		.4byte	.LVL21
 3573 00ef 25000000 		.4byte	.LVL22-1
 3574 00f3 0100     		.2byte	0x1
 3575 00f5 50       		.byte	0x50
 3576 00f6 25000000 		.4byte	.LVL22-1
 3577 00fa 4C000000 		.4byte	.LVL26
ARM GAS  /var/folders/d2/nstgp4h54kz7g1l847x_b8wc0000gn/T//ccgorJ5f.s 			page 64


 3578 00fe 0100     		.2byte	0x1
 3579 0100 55       		.byte	0x55
 3580 0101 4C000000 		.4byte	.LVL26
 3581 0105 50000000 		.4byte	.LVL27
 3582 0109 0100     		.2byte	0x1
 3583 010b 50       		.byte	0x50
 3584 010c 50000000 		.4byte	.LVL27
 3585 0110 58000000 		.4byte	.LVL29
 3586 0114 0100     		.2byte	0x1
 3587 0116 55       		.byte	0x55
 3588 0117 58000000 		.4byte	.LVL29
 3589 011b 5B000000 		.4byte	.LVL30-1
 3590 011f 0100     		.2byte	0x1
 3591 0121 50       		.byte	0x50
 3592 0122 5B000000 		.4byte	.LVL30-1
 3593 0126 68000000 		.4byte	.LFE222
 3594 012a 0100     		.2byte	0x1
 3595 012c 55       		.byte	0x55
 3596 012d 00000000 		.4byte	0
 3597 0131 00000000 		.4byte	0
 3598              	.LLST8:
 3599 0135 0A000000 		.4byte	.LVL16
 3600 0139 12000000 		.4byte	.LVL17
 3601 013d 0300     		.2byte	0x3
 3602 013f 08       		.byte	0x8
 3603 0140 20       		.byte	0x20
 3604 0141 9F       		.byte	0x9f
 3605 0142 00000000 		.4byte	0
 3606 0146 00000000 		.4byte	0
 3607              	.LLST9:
 3608 014a 3C000000 		.4byte	.LVL24
 3609 014e 42000000 		.4byte	.LVL25
 3610 0152 0200     		.2byte	0x2
 3611 0154 30       		.byte	0x30
 3612 0155 9F       		.byte	0x9f
 3613 0156 00000000 		.4byte	0
 3614 015a 00000000 		.4byte	0
 3615              	.LLST17:
 3616 015e 00000000 		.4byte	.LVL50
 3617 0162 1E000000 		.4byte	.LVL52
 3618 0166 0100     		.2byte	0x1
 3619 0168 50       		.byte	0x50
 3620 0169 1E000000 		.4byte	.LVL52
 3621 016d 24000000 		.4byte	.LVL53
 3622 0171 0100     		.2byte	0x1
 3623 0173 56       		.byte	0x56
 3624 0174 24000000 		.4byte	.LVL53
 3625 0178 28000000 		.4byte	.LVL54
 3626 017c 0400     		.2byte	0x4
 3627 017e F3       		.byte	0xf3
 3628 017f 01       		.uleb128 0x1
 3629 0180 50       		.byte	0x50
 3630 0181 9F       		.byte	0x9f
 3631 0182 28000000 		.4byte	.LVL54
 3632 0186 2A000000 		.4byte	.LVL55
 3633 018a 0100     		.2byte	0x1
 3634 018c 50       		.byte	0x50
ARM GAS  /var/folders/d2/nstgp4h54kz7g1l847x_b8wc0000gn/T//ccgorJ5f.s 			page 65


 3635 018d 2A000000 		.4byte	.LVL55
 3636 0191 58000000 		.4byte	.LFE220
 3637 0195 0100     		.2byte	0x1
 3638 0197 56       		.byte	0x56
 3639 0198 00000000 		.4byte	0
 3640 019c 00000000 		.4byte	0
 3641              	.LLST18:
 3642 01a0 00000000 		.4byte	.LVL50
 3643 01a4 27000000 		.4byte	.LVL54-1
 3644 01a8 0100     		.2byte	0x1
 3645 01aa 51       		.byte	0x51
 3646 01ab 27000000 		.4byte	.LVL54-1
 3647 01af 28000000 		.4byte	.LVL54
 3648 01b3 0400     		.2byte	0x4
 3649 01b5 F3       		.byte	0xf3
 3650 01b6 01       		.uleb128 0x1
 3651 01b7 51       		.byte	0x51
 3652 01b8 9F       		.byte	0x9f
 3653 01b9 28000000 		.4byte	.LVL54
 3654 01bd 2D000000 		.4byte	.LVL56-1
 3655 01c1 0100     		.2byte	0x1
 3656 01c3 51       		.byte	0x51
 3657 01c4 2D000000 		.4byte	.LVL56-1
 3658 01c8 58000000 		.4byte	.LFE220
 3659 01cc 0100     		.2byte	0x1
 3660 01ce 55       		.byte	0x55
 3661 01cf 00000000 		.4byte	0
 3662 01d3 00000000 		.4byte	0
 3663              	.LLST19:
 3664 01d7 00000000 		.4byte	.LVL50
 3665 01db 16000000 		.4byte	.LVL51
 3666 01df 0100     		.2byte	0x1
 3667 01e1 52       		.byte	0x52
 3668 01e2 16000000 		.4byte	.LVL51
 3669 01e6 24000000 		.4byte	.LVL53
 3670 01ea 0100     		.2byte	0x1
 3671 01ec 54       		.byte	0x54
 3672 01ed 24000000 		.4byte	.LVL53
 3673 01f1 28000000 		.4byte	.LVL54
 3674 01f5 0400     		.2byte	0x4
 3675 01f7 F3       		.byte	0xf3
 3676 01f8 01       		.uleb128 0x1
 3677 01f9 52       		.byte	0x52
 3678 01fa 9F       		.byte	0x9f
 3679 01fb 28000000 		.4byte	.LVL54
 3680 01ff 2D000000 		.4byte	.LVL56-1
 3681 0203 0100     		.2byte	0x1
 3682 0205 52       		.byte	0x52
 3683 0206 2D000000 		.4byte	.LVL56-1
 3684 020a 3C000000 		.4byte	.LVL59
 3685 020e 0100     		.2byte	0x1
 3686 0210 54       		.byte	0x54
 3687 0211 3C000000 		.4byte	.LVL59
 3688 0215 3E000000 		.4byte	.LVL60
 3689 0219 0300     		.2byte	0x3
 3690 021b 74       		.byte	0x74
 3691 021c 01       		.sleb128 1
ARM GAS  /var/folders/d2/nstgp4h54kz7g1l847x_b8wc0000gn/T//ccgorJ5f.s 			page 66


 3692 021d 9F       		.byte	0x9f
 3693 021e 00000000 		.4byte	0
 3694 0222 00000000 		.4byte	0
 3695              	.LLST20:
 3696 0226 30000000 		.4byte	.LVL57
 3697 022a 38000000 		.4byte	.LVL58
 3698 022e 0100     		.2byte	0x1
 3699 0230 55       		.byte	0x55
 3700 0231 00000000 		.4byte	0
 3701 0235 00000000 		.4byte	0
 3702              	.LLST21:
 3703 0239 30000000 		.4byte	.LVL57
 3704 023d 38000000 		.4byte	.LVL58
 3705 0241 0100     		.2byte	0x1
 3706 0243 56       		.byte	0x56
 3707 0244 00000000 		.4byte	0
 3708 0248 00000000 		.4byte	0
 3709              	.LLST0:
 3710 024c 00000000 		.4byte	.LVL0
 3711 0250 18000000 		.4byte	.LVL1
 3712 0254 0100     		.2byte	0x1
 3713 0256 50       		.byte	0x50
 3714 0257 18000000 		.4byte	.LVL1
 3715 025b 3C000000 		.4byte	.LFE219
 3716 025f 0100     		.2byte	0x1
 3717 0261 54       		.byte	0x54
 3718 0262 00000000 		.4byte	0
 3719 0266 00000000 		.4byte	0
 3720              	.LLST1:
 3721 026a 00000000 		.4byte	.LVL0
 3722 026e 1B000000 		.4byte	.LVL2-1
 3723 0272 0100     		.2byte	0x1
 3724 0274 51       		.byte	0x51
 3725 0275 1B000000 		.4byte	.LVL2-1
 3726 0279 3C000000 		.4byte	.LFE219
 3727 027d 0100     		.2byte	0x1
 3728 027f 56       		.byte	0x56
 3729 0280 00000000 		.4byte	0
 3730 0284 00000000 		.4byte	0
 3731              	.LLST2:
 3732 0288 00000000 		.4byte	.LVL0
 3733 028c 1B000000 		.4byte	.LVL2-1
 3734 0290 0100     		.2byte	0x1
 3735 0292 52       		.byte	0x52
 3736 0293 1B000000 		.4byte	.LVL2-1
 3737 0297 3C000000 		.4byte	.LFE219
 3738 029b 0100     		.2byte	0x1
 3739 029d 57       		.byte	0x57
 3740 029e 00000000 		.4byte	0
 3741 02a2 00000000 		.4byte	0
 3742              	.LLST3:
 3743 02a6 00000000 		.4byte	.LVL5
 3744 02aa 0F000000 		.4byte	.LVL6-1
 3745 02ae 0100     		.2byte	0x1
 3746 02b0 50       		.byte	0x50
 3747 02b1 0F000000 		.4byte	.LVL6-1
 3748 02b5 3C000000 		.4byte	.LVL10
ARM GAS  /var/folders/d2/nstgp4h54kz7g1l847x_b8wc0000gn/T//ccgorJ5f.s 			page 67


 3749 02b9 0100     		.2byte	0x1
 3750 02bb 54       		.byte	0x54
 3751 02bc 3C000000 		.4byte	.LVL10
 3752 02c0 3E000000 		.4byte	.LVL11
 3753 02c4 0400     		.2byte	0x4
 3754 02c6 F3       		.byte	0xf3
 3755 02c7 01       		.uleb128 0x1
 3756 02c8 50       		.byte	0x50
 3757 02c9 9F       		.byte	0x9f
 3758 02ca 3E000000 		.4byte	.LVL11
 3759 02ce 54000000 		.4byte	.LFE221
 3760 02d2 0100     		.2byte	0x1
 3761 02d4 54       		.byte	0x54
 3762 02d5 00000000 		.4byte	0
 3763 02d9 00000000 		.4byte	0
 3764              	.LLST4:
 3765 02dd 14000000 		.4byte	.LVL7
 3766 02e1 36000000 		.4byte	.LVL9
 3767 02e5 0100     		.2byte	0x1
 3768 02e7 50       		.byte	0x50
 3769 02e8 36000000 		.4byte	.LVL9
 3770 02ec 3C000000 		.4byte	.LVL10
 3771 02f0 0200     		.2byte	0x2
 3772 02f2 74       		.byte	0x74
 3773 02f3 00       		.sleb128 0
 3774 02f4 3C000000 		.4byte	.LVL10
 3775 02f8 3D000000 		.4byte	.LVL11-1
 3776 02fc 0300     		.2byte	0x3
 3777 02fe F3       		.byte	0xf3
 3778 02ff 01       		.uleb128 0x1
 3779 0300 50       		.byte	0x50
 3780 0301 46000000 		.4byte	.LVL13
 3781 0305 49000000 		.4byte	.LVL14-1
 3782 0309 0100     		.2byte	0x1
 3783 030b 50       		.byte	0x50
 3784 030c 00000000 		.4byte	0
 3785 0310 00000000 		.4byte	0
 3786              	.LLST5:
 3787 0314 26000000 		.4byte	.LVL8
 3788 0318 3C000000 		.4byte	.LVL10
 3789 031c 0100     		.2byte	0x1
 3790 031e 54       		.byte	0x54
 3791 031f 3C000000 		.4byte	.LVL10
 3792 0323 3E000000 		.4byte	.LVL11
 3793 0327 0400     		.2byte	0x4
 3794 0329 F3       		.byte	0xf3
 3795 032a 01       		.uleb128 0x1
 3796 032b 50       		.byte	0x50
 3797 032c 9F       		.byte	0x9f
 3798 032d 00000000 		.4byte	0
 3799 0331 00000000 		.4byte	0
 3800              		.section	.debug_aranges,"",%progbits
 3801 0000 44000000 		.4byte	0x44
 3802 0004 0200     		.2byte	0x2
 3803 0006 00000000 		.4byte	.Ldebug_info0
 3804 000a 04       		.byte	0x4
 3805 000b 00       		.byte	0
ARM GAS  /var/folders/d2/nstgp4h54kz7g1l847x_b8wc0000gn/T//ccgorJ5f.s 			page 68


 3806 000c 0000     		.2byte	0
 3807 000e 0000     		.2byte	0
 3808 0010 00000000 		.4byte	.LFB219
 3809 0014 3C000000 		.4byte	.LFE219-.LFB219
 3810 0018 00000000 		.4byte	.LFB221
 3811 001c 54000000 		.4byte	.LFE221-.LFB221
 3812 0020 00000000 		.4byte	.LFB222
 3813 0024 68000000 		.4byte	.LFE222-.LFB222
 3814 0028 00000000 		.4byte	.LFB223
 3815 002c 3C000000 		.4byte	.LFE223-.LFB223
 3816 0030 00000000 		.4byte	.LFB224
 3817 0034 68000000 		.4byte	.LFE224-.LFB224
 3818 0038 00000000 		.4byte	.LFB220
 3819 003c 58000000 		.4byte	.LFE220-.LFB220
 3820 0040 00000000 		.4byte	0
 3821 0044 00000000 		.4byte	0
 3822              		.section	.debug_ranges,"",%progbits
 3823              	.Ldebug_ranges0:
 3824 0000 26000000 		.4byte	.LBB28
 3825 0004 36000000 		.4byte	.LBE28
 3826 0008 3C000000 		.4byte	.LBB31
 3827 000c 3E000000 		.4byte	.LBE31
 3828 0010 00000000 		.4byte	0
 3829 0014 00000000 		.4byte	0
 3830 0018 22000000 		.4byte	.LBB47
 3831 001c 42000000 		.4byte	.LBE47
 3832 0020 50000000 		.4byte	.LBB53
 3833 0024 58000000 		.4byte	.LBE53
 3834 0028 00000000 		.4byte	0
 3835 002c 00000000 		.4byte	0
 3836 0030 24000000 		.4byte	.LBB69
 3837 0034 44000000 		.4byte	.LBE69
 3838 0038 50000000 		.4byte	.LBB75
 3839 003c 58000000 		.4byte	.LBE75
 3840 0040 00000000 		.4byte	0
 3841 0044 00000000 		.4byte	0
 3842 0048 00000000 		.4byte	.LFB219
 3843 004c 3C000000 		.4byte	.LFE219
 3844 0050 00000000 		.4byte	.LFB221
 3845 0054 54000000 		.4byte	.LFE221
 3846 0058 00000000 		.4byte	.LFB222
 3847 005c 68000000 		.4byte	.LFE222
 3848 0060 00000000 		.4byte	.LFB223
 3849 0064 3C000000 		.4byte	.LFE223
 3850 0068 00000000 		.4byte	.LFB224
 3851 006c 68000000 		.4byte	.LFE224
 3852 0070 00000000 		.4byte	.LFB220
 3853 0074 58000000 		.4byte	.LFE220
 3854 0078 00000000 		.4byte	0
 3855 007c 00000000 		.4byte	0
 3856              		.section	.debug_line,"",%progbits
 3857              	.Ldebug_line0:
 3858 0000 3A050000 		.section	.debug_str,"MS",%progbits,1
 3858      02000604 
 3858      00000201 
 3858      FB0E0D00 
 3858      01010101 
ARM GAS  /var/folders/d2/nstgp4h54kz7g1l847x_b8wc0000gn/T//ccgorJ5f.s 			page 69


 3859              	.LASF146:
 3860 0000 63665F6F 		.ascii	"cf_off_older\000"
 3860      66665F6F 
 3860      6C646572 
 3860      00
 3861              	.LASF188:
 3862 000d 2F557365 		.ascii	"/Users/bharathkeshavamurthy/Workspaces/Talos/src/ma"
 3862      72732F62 
 3862      68617261 
 3862      74686B65 
 3862      73686176 
 3863 0040 696E2F63 		.ascii	"in/cpp/org/purdue/ece/talos/optimize/\000"
 3863      70702F6F 
 3863      72672F70 
 3863      75726475 
 3863      652F6563 
 3864              	.LASF61:
 3865 0066 72656164 		.ascii	"ready_list_t\000"
 3865      795F6C69 
 3865      73745F74 
 3865      00
 3866              	.LASF99:
 3867 0073 73655F74 		.ascii	"se_time\000"
 3867      696D6500 
 3868              	.LASF4:
 3869 007b 73697A65 		.ascii	"size_t\000"
 3869      5F7400
 3870              	.LASF120:
 3871 0082 7264796D 		.ascii	"rdymsg\000"
 3871      736700
 3872              	.LASF105:
 3873 0089 74625F70 		.ascii	"tb_ptr\000"
 3873      747200
 3874              	.LASF20:
 3875 0090 75696E74 		.ascii	"uint64_t\000"
 3875      36345F74 
 3875      00
 3876              	.LASF91:
 3877 0099 6B65726E 		.ascii	"kernel_stats\000"
 3877      656C5F73 
 3877      74617473 
 3877      00
 3878              	.LASF5:
 3879 00a6 5F5F7569 		.ascii	"__uint8_t\000"
 3879      6E74385F 
 3879      7400
 3880              	.LASF98:
 3881 00b0 706F7274 		.ascii	"port_intctx\000"
 3881      5F696E74 
 3881      63747800 
 3882              	.LASF60:
 3883 00bc 63685F74 		.ascii	"ch_threads_queue\000"
 3883      68726561 
 3883      64735F71 
 3883      75657565 
 3883      00
 3884              	.LASF80:
ARM GAS  /var/folders/d2/nstgp4h54kz7g1l847x_b8wc0000gn/T//ccgorJ5f.s 			page 70


 3885 00cd 73797374 		.ascii	"system_debug_t\000"
 3885      656D5F64 
 3885      65627567 
 3885      5F7400
 3886              	.LASF171:
 3887 00dc 70726F76 		.ascii	"provider\000"
 3887      69646572 
 3887      00
 3888              	.LASF177:
 3889 00e5 706F7274 		.ascii	"port_lock\000"
 3889      5F6C6F63 
 3889      6B00
 3890              	.LASF111:
 3891 00ef 776F7273 		.ascii	"worst\000"
 3891      7400
 3892              	.LASF114:
 3893 00f5 74696D65 		.ascii	"time_measurement_t\000"
 3893      5F6D6561 
 3893      73757265 
 3893      6D656E74 
 3893      5F7400
 3894              	.LASF15:
 3895 0108 6C6F6E67 		.ascii	"long long unsigned int\000"
 3895      206C6F6E 
 3895      6720756E 
 3895      7369676E 
 3895      65642069 
 3896              	.LASF107:
 3897 011f 63685F74 		.ascii	"ch_trace_buffer_t\000"
 3897      72616365 
 3897      5F627566 
 3897      6665725F 
 3897      7400
 3898              	.LASF142:
 3899 0131 63685F74 		.ascii	"ch_threadsize\000"
 3899      68726561 
 3899      6473697A 
 3899      6500
 3900              	.LASF121:
 3901 013f 65786974 		.ascii	"exitcode\000"
 3901      636F6465 
 3901      00
 3902              	.LASF90:
 3903 0148 6D61696E 		.ascii	"mainthread\000"
 3903      74687265 
 3903      616400
 3904              	.LASF180:
 3905 0153 5F737461 		.ascii	"_stats_start_measure_crit_thd\000"
 3905      74735F73 
 3905      74617274 
 3905      5F6D6561 
 3905      73757265 
 3906              	.LASF77:
 3907 0171 76697274 		.ascii	"virtual_timers_list_t\000"
 3907      75616C5F 
 3907      74696D65 
 3907      72735F6C 
ARM GAS  /var/folders/d2/nstgp4h54kz7g1l847x_b8wc0000gn/T//ccgorJ5f.s 			page 71


 3907      6973745F 
 3908              	.LASF93:
 3909 0187 49544D5F 		.ascii	"ITM_RxBuffer\000"
 3909      52784275 
 3909      66666572 
 3909      00
 3910              	.LASF22:
 3911 0194 72747469 		.ascii	"rttime_t\000"
 3911      6D655F74 
 3911      00
 3912              	.LASF36:
 3913 019d 705F7072 		.ascii	"p_prio\000"
 3913      696F00
 3914              	.LASF149:
 3915 01a4 63665F6F 		.ascii	"cf_off_state\000"
 3915      66665F73 
 3915      74617465 
 3915      00
 3916              	.LASF156:
 3917 01b1 6D757465 		.ascii	"mutex_t\000"
 3917      785F7400 
 3918              	.LASF1:
 3919 01b9 6C6F6E67 		.ascii	"long long int\000"
 3919      206C6F6E 
 3919      6720696E 
 3919      7400
 3920              	.LASF3:
 3921 01c7 7369676E 		.ascii	"signed char\000"
 3921      65642063 
 3921      68617200 
 3922              	.LASF148:
 3923 01d3 63665F6F 		.ascii	"cf_off_stklimit\000"
 3923      66665F73 
 3923      746B6C69 
 3923      6D697400 
 3924              	.LASF150:
 3925 01e3 63665F6F 		.ascii	"cf_off_flags\000"
 3925      66665F66 
 3925      6C616773 
 3925      00
 3926              	.LASF53:
 3927 01f0 705F6D70 		.ascii	"p_mpool\000"
 3927      6F6F6C00 
 3928              	.LASF131:
 3929 01f8 6D5F7175 		.ascii	"m_queue\000"
 3929      65756500 
 3930              	.LASF89:
 3931 0200 76746C69 		.ascii	"vtlist\000"
 3931      737400
 3932              	.LASF176:
 3933 0207 706F7274 		.ascii	"port_unlock\000"
 3933      5F756E6C 
 3933      6F636B00 
 3934              	.LASF187:
 3935 0213 2E2E2F65 		.ascii	"../e-puck2_main-processor/ChibiOS//os/rt/src/chmemp"
 3935      2D707563 
 3935      6B325F6D 
ARM GAS  /var/folders/d2/nstgp4h54kz7g1l847x_b8wc0000gn/T//ccgorJ5f.s 			page 72


 3935      61696E2D 
 3935      70726F63 
 3936 0246 6F6F6C73 		.ascii	"ools.c\000"
 3936      2E6300
 3937              	.LASF123:
 3938 024d 77747472 		.ascii	"wttrp\000"
 3938      7000
 3939              	.LASF87:
 3940 0253 63685F73 		.ascii	"ch_system\000"
 3940      79737465 
 3940      6D00
 3941              	.LASF11:
 3942 025d 6C6F6E67 		.ascii	"long int\000"
 3942      20696E74 
 3942      00
 3943              	.LASF24:
 3944 0266 74737461 		.ascii	"tstate_t\000"
 3944      74655F74 
 3944      00
 3945              	.LASF100:
 3946 026f 73655F74 		.ascii	"se_tp\000"
 3946      7000
 3947              	.LASF154:
 3948 0275 63686465 		.ascii	"chdebug_t\000"
 3948      6275675F 
 3948      7400
 3949              	.LASF38:
 3950 027f 705F6E65 		.ascii	"p_newer\000"
 3950      77657200 
 3951              	.LASF128:
 3952 0287 735F7175 		.ascii	"s_queue\000"
 3952      65756500 
 3953              	.LASF104:
 3954 028f 74625F73 		.ascii	"tb_size\000"
 3954      697A6500 
 3955              	.LASF66:
 3956 0297 725F6E65 		.ascii	"r_newer\000"
 3956      77657200 
 3957              	.LASF162:
 3958 029f 6D705F70 		.ascii	"mp_provider\000"
 3958      726F7669 
 3958      64657200 
 3959              	.LASF95:
 3960 02ab 72656761 		.ascii	"regarm_t\000"
 3960      726D5F74 
 3960      00
 3961              	.LASF73:
 3962 02b4 76745F70 		.ascii	"vt_prev\000"
 3962      72657600 
 3963              	.LASF184:
 3964 02bc 63685379 		.ascii	"chSysHalt\000"
 3964      7348616C 
 3964      7400
 3965              	.LASF81:
 3966 02c6 63685F73 		.ascii	"ch_system_debug\000"
 3966      79737465 
 3966      6D5F6465 
ARM GAS  /var/folders/d2/nstgp4h54kz7g1l847x_b8wc0000gn/T//ccgorJ5f.s 			page 73


 3966      62756700 
 3967              	.LASF134:
 3968 02d6 6D5F636E 		.ascii	"m_cnt\000"
 3968      7400
 3969              	.LASF72:
 3970 02dc 76745F6E 		.ascii	"vt_next\000"
 3970      65787400 
 3971              	.LASF179:
 3972 02e4 76616C75 		.ascii	"value\000"
 3972      6500
 3973              	.LASF84:
 3974 02ea 6C6F636B 		.ascii	"lock_cnt\000"
 3974      5F636E74 
 3974      00
 3975              	.LASF92:
 3976 02f3 69646C65 		.ascii	"idle_thread_wa\000"
 3976      5F746872 
 3976      6561645F 
 3976      776100
 3977              	.LASF30:
 3978 0302 636E745F 		.ascii	"cnt_t\000"
 3978      7400
 3979              	.LASF41:
 3980 0308 705F7374 		.ascii	"p_stklimit\000"
 3980      6B6C696D 
 3980      697400
 3981              	.LASF0:
 3982 0313 756E7369 		.ascii	"unsigned int\000"
 3982      676E6564 
 3982      20696E74 
 3982      00
 3983              	.LASF186:
 3984 0320 474E5520 		.ascii	"GNU C11 7.2.1 20170904 (release) [ARM/embedded-7-br"
 3984      43313120 
 3984      372E322E 
 3984      31203230 
 3984      31373039 
 3985 0353 616E6368 		.ascii	"anch revision 255204] -mcpu=cortex-m4 -mfloat-abi=h"
 3985      20726576 
 3985      6973696F 
 3985      6E203235 
 3985      35323034 
 3986 0386 61726420 		.ascii	"ard -mfpu=fpv4-sp-d16 -mno-thumb-interwork -mthumb "
 3986      2D6D6670 
 3986      753D6670 
 3986      76342D73 
 3986      702D6431 
 3987 03b9 2D676764 		.ascii	"-ggdb -O2 -fomit-frame-pointer -falign-functions=16"
 3987      62202D4F 
 3987      32202D66 
 3987      6F6D6974 
 3987      2D667261 
 3988 03ec 202D666E 		.ascii	" -fno-strict-aliasing -fstack-protector-all -ffunct"
 3988      6F2D7374 
 3988      72696374 
 3988      2D616C69 
 3988      6173696E 
ARM GAS  /var/folders/d2/nstgp4h54kz7g1l847x_b8wc0000gn/T//ccgorJ5f.s 			page 74


 3989 041f 696F6E2D 		.ascii	"ion-sections -fdata-sections -fno-common -fsingle-p"
 3989      73656374 
 3989      696F6E73 
 3989      202D6664 
 3989      6174612D 
 3990 0452 72656369 		.ascii	"recision-constant\000"
 3990      73696F6E 
 3990      2D636F6E 
 3990      7374616E 
 3990      7400
 3991              	.LASF17:
 3992 0464 75696E74 		.ascii	"uint16_t\000"
 3992      31365F74 
 3992      00
 3993              	.LASF94:
 3994 046d 53797374 		.ascii	"SystemCoreClock\000"
 3994      656D436F 
 3994      7265436C 
 3994      6F636B00 
 3995              	.LASF46:
 3996 047d 705F7469 		.ascii	"p_time\000"
 3996      6D6500
 3997              	.LASF124:
 3998 0484 77747365 		.ascii	"wtsemp\000"
 3998      6D7000
 3999              	.LASF74:
 4000 048b 76745F64 		.ascii	"vt_delta\000"
 4000      656C7461 
 4000      00
 4001              	.LASF48:
 4002 0494 705F6D73 		.ascii	"p_msgqueue\000"
 4002      67717565 
 4002      756500
 4003              	.LASF155:
 4004 049f 63685F64 		.ascii	"ch_debug\000"
 4004      65627567 
 4004      00
 4005              	.LASF163:
 4006 04a8 6D656D6F 		.ascii	"memory_pool_t\000"
 4006      72795F70 
 4006      6F6F6C5F 
 4006      7400
 4007              	.LASF115:
 4008 04b6 6E5F6972 		.ascii	"n_irq\000"
 4008      7100
 4009              	.LASF129:
 4010 04bc 735F636E 		.ascii	"s_cnt\000"
 4010      7400
 4011              	.LASF9:
 4012 04c2 73686F72 		.ascii	"short unsigned int\000"
 4012      7420756E 
 4012      7369676E 
 4012      65642069 
 4012      6E7400
 4013              	.LASF119:
 4014 04d5 6B65726E 		.ascii	"kernel_stats_t\000"
 4014      656C5F73 
ARM GAS  /var/folders/d2/nstgp4h54kz7g1l847x_b8wc0000gn/T//ccgorJ5f.s 			page 75


 4014      74617473 
 4014      5F7400
 4015              	.LASF57:
 4016 04e4 63685F74 		.ascii	"ch_thread\000"
 4016      68726561 
 4016      6400
 4017              	.LASF28:
 4018 04ee 6D73675F 		.ascii	"msg_t\000"
 4018      7400
 4019              	.LASF112:
 4020 04f4 6C617374 		.ascii	"last\000"
 4020      00
 4021              	.LASF31:
 4022 04f9 75636E74 		.ascii	"ucnt_t\000"
 4022      5F7400
 4023              	.LASF185:
 4024 0500 63684462 		.ascii	"chDbgCheckClassI\000"
 4024      67436865 
 4024      636B436C 
 4024      61737349 
 4024      00
 4025              	.LASF86:
 4026 0511 63685F73 		.ascii	"ch_system_t\000"
 4026      79737465 
 4026      6D5F7400 
 4027              	.LASF172:
 4028 051d 6368506F 		.ascii	"chPoolAdd\000"
 4028      6F6C4164 
 4028      6400
 4029              	.LASF153:
 4030 0527 63665F6F 		.ascii	"cf_off_time\000"
 4030      66665F74 
 4030      696D6500 
 4031              	.LASF169:
 4032 0533 6368506F 		.ascii	"chPoolObjectInit\000"
 4032      6F6C4F62 
 4032      6A656374 
 4032      496E6974 
 4032      00
 4033              	.LASF118:
 4034 0544 6D5F6372 		.ascii	"m_crit_isr\000"
 4034      69745F69 
 4034      737200
 4035              	.LASF62:
 4036 054f 63685F72 		.ascii	"ch_ready_list\000"
 4036      65616479 
 4036      5F6C6973 
 4036      7400
 4037              	.LASF29:
 4038 055d 6576656E 		.ascii	"eventmask_t\000"
 4038      746D6173 
 4038      6B5F7400 
 4039              	.LASF10:
 4040 0569 5F5F696E 		.ascii	"__int32_t\000"
 4040      7433325F 
 4040      7400
 4041              	.LASF96:
ARM GAS  /var/folders/d2/nstgp4h54kz7g1l847x_b8wc0000gn/T//ccgorJ5f.s 			page 76


 4042 0573 73746B61 		.ascii	"stkalign_t\000"
 4042      6C69676E 
 4042      5F7400
 4043              	.LASF56:
 4044 057e 74687265 		.ascii	"threads_list_t\000"
 4044      6164735F 
 4044      6C697374 
 4044      5F7400
 4045              	.LASF137:
 4046 058d 63685F7A 		.ascii	"ch_zero\000"
 4046      65726F00 
 4047              	.LASF151:
 4048 0595 63665F6F 		.ascii	"cf_off_refs\000"
 4048      66665F72 
 4048      65667300 
 4049              	.LASF64:
 4050 05a1 725F7072 		.ascii	"r_prio\000"
 4050      696F00
 4051              	.LASF47:
 4052 05a8 705F7761 		.ascii	"p_waiting\000"
 4052      6974696E 
 4052      6700
 4053              	.LASF183:
 4054 05b2 5F737461 		.ascii	"_stats_stop_measure_crit_thd\000"
 4054      74735F73 
 4054      746F705F 
 4054      6D656173 
 4054      7572655F 
 4055              	.LASF21:
 4056 05cf 7274636E 		.ascii	"rtcnt_t\000"
 4056      745F7400 
 4057              	.LASF181:
 4058 05d7 5F646267 		.ascii	"_dbg_check_lock\000"
 4058      5F636865 
 4058      636B5F6C 
 4058      6F636B00 
 4059              	.LASF78:
 4060 05e7 63685F76 		.ascii	"ch_virtual_timers_list\000"
 4060      69727475 
 4060      616C5F74 
 4060      696D6572 
 4060      735F6C69 
 4061              	.LASF2:
 4062 05fe 6C6F6E67 		.ascii	"long double\000"
 4062      20646F75 
 4062      626C6500 
 4063              	.LASF141:
 4064 060a 63685F74 		.ascii	"ch_timesize\000"
 4064      696D6573 
 4064      697A6500 
 4065              	.LASF174:
 4066 0616 6368506F 		.ascii	"chPoolAllocI\000"
 4066      6F6C416C 
 4066      6C6F6349 
 4066      00
 4067              	.LASF103:
 4068 0623 63685F73 		.ascii	"ch_swc_event_t\000"
ARM GAS  /var/folders/d2/nstgp4h54kz7g1l847x_b8wc0000gn/T//ccgorJ5f.s 			page 77


 4068      77635F65 
 4068      76656E74 
 4068      5F7400
 4069              	.LASF147:
 4070 0632 63665F6F 		.ascii	"cf_off_name\000"
 4070      66665F6E 
 4070      616D6500 
 4071              	.LASF39:
 4072 063e 705F6F6C 		.ascii	"p_older\000"
 4072      64657200 
 4073              	.LASF65:
 4074 0646 725F6374 		.ascii	"r_ctx\000"
 4074      7800
 4075              	.LASF37:
 4076 064c 705F6374 		.ascii	"p_ctx\000"
 4076      7800
 4077              	.LASF161:
 4078 0652 6D705F6F 		.ascii	"mp_object_size\000"
 4078      626A6563 
 4078      745F7369 
 4078      7A6500
 4079              	.LASF109:
 4080 0661 746D5F63 		.ascii	"tm_calibration_t\000"
 4080      616C6962 
 4080      72617469 
 4080      6F6E5F74 
 4080      00
 4081              	.LASF68:
 4082 0672 725F6375 		.ascii	"r_current\000"
 4082      7272656E 
 4082      7400
 4083              	.LASF67:
 4084 067c 725F6F6C 		.ascii	"r_older\000"
 4084      64657200 
 4085              	.LASF14:
 4086 0684 5F5F7569 		.ascii	"__uint64_t\000"
 4086      6E743634 
 4086      5F7400
 4087              	.LASF113:
 4088 068f 63756D75 		.ascii	"cumulative\000"
 4088      6C617469 
 4088      766500
 4089              	.LASF25:
 4090 069a 74726566 		.ascii	"trefs_t\000"
 4090      735F7400 
 4091              	.LASF106:
 4092 06a2 74625F62 		.ascii	"tb_buffer\000"
 4092      75666665 
 4092      7200
 4093              	.LASF140:
 4094 06ac 63685F70 		.ascii	"ch_ptrsize\000"
 4094      74727369 
 4094      7A6500
 4095              	.LASF70:
 4096 06b7 76697274 		.ascii	"virtual_timer_t\000"
 4096      75616C5F 
 4096      74696D65 
ARM GAS  /var/folders/d2/nstgp4h54kz7g1l847x_b8wc0000gn/T//ccgorJ5f.s 			page 78


 4096      725F7400 
 4097              	.LASF35:
 4098 06c7 705F7072 		.ascii	"p_prev\000"
 4098      657600
 4099              	.LASF27:
 4100 06ce 74707269 		.ascii	"tprio_t\000"
 4100      6F5F7400 
 4101              	.LASF116:
 4102 06d6 6E5F6374 		.ascii	"n_ctxswc\000"
 4102      78737763 
 4102      00
 4103              	.LASF18:
 4104 06df 696E7433 		.ascii	"int32_t\000"
 4104      325F7400 
 4105              	.LASF6:
 4106 06e7 756E7369 		.ascii	"unsigned char\000"
 4106      676E6564 
 4106      20636861 
 4106      7200
 4107              	.LASF51:
 4108 06f5 705F6D74 		.ascii	"p_mtxlist\000"
 4108      786C6973 
 4108      7400
 4109              	.LASF7:
 4110 06ff 73686F72 		.ascii	"short int\000"
 4110      7420696E 
 4110      7400
 4111              	.LASF42:
 4112 0709 705F7374 		.ascii	"p_state\000"
 4112      61746500 
 4113              	.LASF45:
 4114 0711 705F7072 		.ascii	"p_preempt\000"
 4114      65656D70 
 4114      7400
 4115              	.LASF139:
 4116 071b 63685F76 		.ascii	"ch_version\000"
 4116      65727369 
 4116      6F6E00
 4117              	.LASF126:
 4118 0726 65776D61 		.ascii	"ewmask\000"
 4118      736B00
 4119              	.LASF34:
 4120 072d 705F6E65 		.ascii	"p_next\000"
 4120      787400
 4121              	.LASF23:
 4122 0734 746D6F64 		.ascii	"tmode_t\000"
 4122      655F7400 
 4123              	.LASF152:
 4124 073c 63665F6F 		.ascii	"cf_off_preempt\000"
 4124      66665F70 
 4124      7265656D 
 4124      707400
 4125              	.LASF167:
 4126 074b 5F5F6675 		.ascii	"__func__\000"
 4126      6E635F5F 
 4126      00
 4127              	.LASF54:
ARM GAS  /var/folders/d2/nstgp4h54kz7g1l847x_b8wc0000gn/T//ccgorJ5f.s 			page 79


 4128 0754 705F7374 		.ascii	"p_stats\000"
 4128      61747300 
 4129              	.LASF175:
 4130 075c 63685379 		.ascii	"chSysLock\000"
 4130      734C6F63 
 4130      6B00
 4131              	.LASF164:
 4132 0766 6F626A70 		.ascii	"objp\000"
 4132      00
 4133              	.LASF59:
 4134 076b 74687265 		.ascii	"threads_queue_t\000"
 4134      6164735F 
 4134      71756575 
 4134      655F7400 
 4135              	.LASF71:
 4136 077b 63685F76 		.ascii	"ch_virtual_timer\000"
 4136      69727475 
 4136      616C5F74 
 4136      696D6572 
 4136      00
 4137              	.LASF145:
 4138 078c 63665F6F 		.ascii	"cf_off_newer\000"
 4138      66665F6E 
 4138      65776572 
 4138      00
 4139              	.LASF190:
 4140 0799 5F5F7374 		.ascii	"__stack_chk_fail\000"
 4140      61636B5F 
 4140      63686B5F 
 4140      6661696C 
 4140      00
 4141              	.LASF127:
 4142 07aa 63685F73 		.ascii	"ch_semaphore\000"
 4142      656D6170 
 4142      686F7265 
 4142      00
 4143              	.LASF50:
 4144 07b7 705F6570 		.ascii	"p_epending\000"
 4144      656E6469 
 4144      6E6700
 4145              	.LASF19:
 4146 07c2 75696E74 		.ascii	"uint32_t\000"
 4146      33325F74 
 4146      00
 4147              	.LASF143:
 4148 07cb 63665F6F 		.ascii	"cf_off_prio\000"
 4148      66665F70 
 4148      72696F00 
 4149              	.LASF63:
 4150 07d7 725F7175 		.ascii	"r_queue\000"
 4150      65756500 
 4151              	.LASF58:
 4152 07df 63685F74 		.ascii	"ch_threads_list\000"
 4152      68726561 
 4152      64735F6C 
 4152      69737400 
 4153              	.LASF138:
ARM GAS  /var/folders/d2/nstgp4h54kz7g1l847x_b8wc0000gn/T//ccgorJ5f.s 			page 80


 4154 07ef 63685F73 		.ascii	"ch_size\000"
 4154      697A6500 
 4155              	.LASF26:
 4156 07f7 74736C69 		.ascii	"tslices_t\000"
 4156      6365735F 
 4156      7400
 4157              	.LASF13:
 4158 0801 6C6F6E67 		.ascii	"long unsigned int\000"
 4158      20756E73 
 4158      69676E65 
 4158      6420696E 
 4158      7400
 4159              	.LASF135:
 4160 0813 63686172 		.ascii	"char\000"
 4160      00
 4161              	.LASF125:
 4162 0818 77746D74 		.ascii	"wtmtxp\000"
 4162      787000
 4163              	.LASF8:
 4164 081f 5F5F7569 		.ascii	"__uint16_t\000"
 4164      6E743136 
 4164      5F7400
 4165              	.LASF166:
 4166 082a 6368506F 		.ascii	"chPoolFreeI\000"
 4166      6F6C4672 
 4166      65654900 
 4167              	.LASF33:
 4168 0836 74687265 		.ascii	"thread_t\000"
 4168      61645F74 
 4168      00
 4169              	.LASF110:
 4170 083f 62657374 		.ascii	"best\000"
 4170      00
 4171              	.LASF133:
 4172 0844 6D5F6E65 		.ascii	"m_next\000"
 4172      787400
 4173              	.LASF32:
 4174 084b 73797374 		.ascii	"systime_t\000"
 4174      696D655F 
 4174      7400
 4175              	.LASF52:
 4176 0855 705F7265 		.ascii	"p_realprio\000"
 4176      616C7072 
 4176      696F00
 4177              	.LASF69:
 4178 0860 76746675 		.ascii	"vtfunc_t\000"
 4178      6E635F74 
 4178      00
 4179              	.LASF12:
 4180 0869 5F5F7569 		.ascii	"__uint32_t\000"
 4180      6E743332 
 4180      5F7400
 4181              	.LASF178:
 4182 0874 5F5F7365 		.ascii	"__set_BASEPRI\000"
 4182      745F4241 
 4182      53455052 
 4182      4900
ARM GAS  /var/folders/d2/nstgp4h54kz7g1l847x_b8wc0000gn/T//ccgorJ5f.s 			page 81


 4183              	.LASF82:
 4184 0882 70616E69 		.ascii	"panic_msg\000"
 4184      635F6D73 
 4184      6700
 4185              	.LASF108:
 4186 088c 6F666673 		.ascii	"offset\000"
 4186      657400
 4187              	.LASF130:
 4188 0893 63685F6D 		.ascii	"ch_mutex\000"
 4188      75746578 
 4188      00
 4189              	.LASF160:
 4190 089c 6D705F6E 		.ascii	"mp_next\000"
 4190      65787400 
 4191              	.LASF97:
 4192 08a4 636F6E74 		.ascii	"context\000"
 4192      65787400 
 4193              	.LASF49:
 4194 08ac 705F6D73 		.ascii	"p_msg\000"
 4194      6700
 4195              	.LASF157:
 4196 08b2 6D656D67 		.ascii	"memgetfunc_t\000"
 4196      65746675 
 4196      6E635F74 
 4196      00
 4197              	.LASF76:
 4198 08bf 76745F70 		.ascii	"vt_par\000"
 4198      617200
 4199              	.LASF144:
 4200 08c6 63665F6F 		.ascii	"cf_off_ctx\000"
 4200      66665F63 
 4200      747800
 4201              	.LASF158:
 4202 08d1 706F6F6C 		.ascii	"pool_header\000"
 4202      5F686561 
 4202      64657200 
 4203              	.LASF44:
 4204 08dd 705F7265 		.ascii	"p_refs\000"
 4204      667300
 4205              	.LASF83:
 4206 08e4 6973725F 		.ascii	"isr_cnt\000"
 4206      636E7400 
 4207              	.LASF102:
 4208 08ec 73655F73 		.ascii	"se_state\000"
 4208      74617465 
 4208      00
 4209              	.LASF88:
 4210 08f5 726C6973 		.ascii	"rlist\000"
 4210      7400
 4211              	.LASF16:
 4212 08fb 75696E74 		.ascii	"uint8_t\000"
 4212      385F7400 
 4213              	.LASF189:
 4214 0903 6368506F 		.ascii	"chPoolAlloc\000"
 4214      6F6C416C 
 4214      6C6F6300 
 4215              	.LASF165:
ARM GAS  /var/folders/d2/nstgp4h54kz7g1l847x_b8wc0000gn/T//ccgorJ5f.s 			page 82


 4216 090f 6368506F 		.ascii	"chPoolFree\000"
 4216      6F6C4672 
 4216      656500
 4217              	.LASF182:
 4218 091a 5F646267 		.ascii	"_dbg_check_unlock\000"
 4218      5F636865 
 4218      636B5F75 
 4218      6E6C6F63 
 4218      6B00
 4219              	.LASF55:
 4220 092c 74687265 		.ascii	"thread_reference_t\000"
 4220      61645F72 
 4220      65666572 
 4220      656E6365 
 4220      5F7400
 4221              	.LASF122:
 4222 093f 77746F62 		.ascii	"wtobjp\000"
 4222      6A7000
 4223              	.LASF159:
 4224 0946 70685F6E 		.ascii	"ph_next\000"
 4224      65787400 
 4225              	.LASF40:
 4226 094e 705F6E61 		.ascii	"p_name\000"
 4226      6D6500
 4227              	.LASF170:
 4228 0955 73697A65 		.ascii	"size\000"
 4228      00
 4229              	.LASF79:
 4230 095a 76745F73 		.ascii	"vt_systime\000"
 4230      79737469 
 4230      6D6500
 4231              	.LASF85:
 4232 0965 74726163 		.ascii	"trace_buffer\000"
 4232      655F6275 
 4232      66666572 
 4232      00
 4233              	.LASF43:
 4234 0972 705F666C 		.ascii	"p_flags\000"
 4234      61677300 
 4235              	.LASF173:
 4236 097a 63685379 		.ascii	"chSysUnlock\000"
 4236      73556E6C 
 4236      6F636B00 
 4237              	.LASF168:
 4238 0986 6368506F 		.ascii	"chPoolLoadArray\000"
 4238      6F6C4C6F 
 4238      61644172 
 4238      72617900 
 4239              	.LASF117:
 4240 0996 6D5F6372 		.ascii	"m_crit_thd\000"
 4240      69745F74 
 4240      686400
 4241              	.LASF132:
 4242 09a1 6D5F6F77 		.ascii	"m_owner\000"
 4242      6E657200 
 4243              	.LASF101:
 4244 09a9 73655F77 		.ascii	"se_wtobjp\000"
ARM GAS  /var/folders/d2/nstgp4h54kz7g1l847x_b8wc0000gn/T//ccgorJ5f.s 			page 83


 4244      746F626A 
 4244      7000
 4245              	.LASF136:
 4246 09b3 63685F69 		.ascii	"ch_identifier\000"
 4246      64656E74 
 4246      69666965 
 4246      7200
 4247              	.LASF75:
 4248 09c1 76745F66 		.ascii	"vt_func\000"
 4248      756E6300 
 4249              		.ident	"GCC: (GNU Tools for Arm Embedded Processors 7-2017-q4-major) 7.2.1 20170904 (release) [ARM
ARM GAS  /var/folders/d2/nstgp4h54kz7g1l847x_b8wc0000gn/T//ccgorJ5f.s 			page 84


DEFINED SYMBOLS
                            *ABS*:0000000000000000 chmempools.c
/var/folders/d2/nstgp4h54kz7g1l847x_b8wc0000gn/T//ccgorJ5f.s:18     .text.chPoolObjectInit:0000000000000000 $t
/var/folders/d2/nstgp4h54kz7g1l847x_b8wc0000gn/T//ccgorJ5f.s:26     .text.chPoolObjectInit:0000000000000000 chPoolObjectInit
/var/folders/d2/nstgp4h54kz7g1l847x_b8wc0000gn/T//ccgorJ5f.s:86     .text.chPoolObjectInit:0000000000000034 $d
/var/folders/d2/nstgp4h54kz7g1l847x_b8wc0000gn/T//ccgorJ5f.s:92     .text.chPoolAllocI:0000000000000000 $t
/var/folders/d2/nstgp4h54kz7g1l847x_b8wc0000gn/T//ccgorJ5f.s:100    .text.chPoolAllocI:0000000000000000 chPoolAllocI
/var/folders/d2/nstgp4h54kz7g1l847x_b8wc0000gn/T//ccgorJ5f.s:195    .text.chPoolAllocI:000000000000004c $d
/var/folders/d2/nstgp4h54kz7g1l847x_b8wc0000gn/T//ccgorJ5f.s:201    .text.chPoolAlloc:0000000000000000 $t
/var/folders/d2/nstgp4h54kz7g1l847x_b8wc0000gn/T//ccgorJ5f.s:209    .text.chPoolAlloc:0000000000000000 chPoolAlloc
/var/folders/d2/nstgp4h54kz7g1l847x_b8wc0000gn/T//ccgorJ5f.s:331    .text.chPoolAlloc:000000000000005c $d
/var/folders/d2/nstgp4h54kz7g1l847x_b8wc0000gn/T//ccgorJ5f.s:338    .text.chPoolFreeI:0000000000000000 $t
/var/folders/d2/nstgp4h54kz7g1l847x_b8wc0000gn/T//ccgorJ5f.s:346    .text.chPoolFreeI:0000000000000000 chPoolFreeI
/var/folders/d2/nstgp4h54kz7g1l847x_b8wc0000gn/T//ccgorJ5f.s:406    .text.chPoolFreeI:0000000000000034 $d
/var/folders/d2/nstgp4h54kz7g1l847x_b8wc0000gn/T//ccgorJ5f.s:412    .text.chPoolFree:0000000000000000 $t
/var/folders/d2/nstgp4h54kz7g1l847x_b8wc0000gn/T//ccgorJ5f.s:420    .text.chPoolFree:0000000000000000 chPoolFree
/var/folders/d2/nstgp4h54kz7g1l847x_b8wc0000gn/T//ccgorJ5f.s:538    .text.chPoolFree:000000000000005c $d
/var/folders/d2/nstgp4h54kz7g1l847x_b8wc0000gn/T//ccgorJ5f.s:545    .text.chPoolLoadArray:0000000000000000 $t
/var/folders/d2/nstgp4h54kz7g1l847x_b8wc0000gn/T//ccgorJ5f.s:553    .text.chPoolLoadArray:0000000000000000 chPoolLoadArray
/var/folders/d2/nstgp4h54kz7g1l847x_b8wc0000gn/T//ccgorJ5f.s:654    .text.chPoolLoadArray:0000000000000050 $d
/var/folders/d2/nstgp4h54kz7g1l847x_b8wc0000gn/T//ccgorJ5f.s:660    .rodata.__func__.7153:0000000000000000 $d
/var/folders/d2/nstgp4h54kz7g1l847x_b8wc0000gn/T//ccgorJ5f.s:664    .rodata.__func__.7153:0000000000000000 __func__.7153
/var/folders/d2/nstgp4h54kz7g1l847x_b8wc0000gn/T//ccgorJ5f.s:667    .rodata.__func__.7851:0000000000000000 $d
/var/folders/d2/nstgp4h54kz7g1l847x_b8wc0000gn/T//ccgorJ5f.s:671    .rodata.__func__.7851:0000000000000000 __func__.7851
/var/folders/d2/nstgp4h54kz7g1l847x_b8wc0000gn/T//ccgorJ5f.s:674    .rodata.__func__.7857:0000000000000000 $d
/var/folders/d2/nstgp4h54kz7g1l847x_b8wc0000gn/T//ccgorJ5f.s:678    .rodata.__func__.7857:0000000000000000 __func__.7857
/var/folders/d2/nstgp4h54kz7g1l847x_b8wc0000gn/T//ccgorJ5f.s:681    .rodata.__func__.7865:0000000000000000 $d
/var/folders/d2/nstgp4h54kz7g1l847x_b8wc0000gn/T//ccgorJ5f.s:685    .rodata.__func__.7865:0000000000000000 __func__.7865
/var/folders/d2/nstgp4h54kz7g1l847x_b8wc0000gn/T//ccgorJ5f.s:688    .rodata.__func__.7875:0000000000000000 $d
/var/folders/d2/nstgp4h54kz7g1l847x_b8wc0000gn/T//ccgorJ5f.s:692    .rodata.__func__.7875:0000000000000000 __func__.7875

UNDEFINED SYMBOLS
chSysHalt
__stack_chk_fail
__stack_chk_guard
chDbgCheckClassI
_stats_start_measure_crit_thd
_dbg_check_lock
_dbg_check_unlock
_stats_stop_measure_crit_thd
ch
