ARM GAS  /var/folders/d2/nstgp4h54kz7g1l847x_b8wc0000gn/T//ccC2Fxw0.s 			page 1


   1              		.cpu cortex-m4
   2              		.eabi_attribute 27, 1
   3              		.eabi_attribute 28, 1
   4              		.eabi_attribute 20, 1
   5              		.eabi_attribute 21, 1
   6              		.eabi_attribute 23, 3
   7              		.eabi_attribute 24, 1
   8              		.eabi_attribute 25, 1
   9              		.eabi_attribute 26, 1
  10              		.eabi_attribute 30, 6
  11              		.eabi_attribute 34, 1
  12              		.eabi_attribute 18, 4
  13              		.file	"chmempools.c"
  14              		.section	.text.port_lock,"ax",%progbits
  15              		.align	1
  16              		.syntax unified
  17              		.thumb
  18              		.thumb_func
  19              		.fpu fpv4-sp-d16
  20              		.type	port_lock, %function
  21              	port_lock:
  22              		@ args = 0, pretend = 0, frame = 8
  23              		@ frame_needed = 1, uses_anonymous_args = 0
  24              		@ link register save eliminated.
  25 0000 80B4     		push	{r7}
  26 0002 83B0     		sub	sp, sp, #12
  27 0004 00AF     		add	r7, sp, #0
  28 0006 2023     		movs	r3, #32
  29 0008 7B60     		str	r3, [r7, #4]
  30 000a 7B68     		ldr	r3, [r7, #4]
  31              		.syntax unified
  32              	@ 546 "../e-puck2_main-processor/ChibiOS//os/ext/CMSIS/include/core_cmFunc.h" 1
  33 000c 83F31188 		MSR basepri, r3
  34              	@ 0 "" 2
  35              		.thumb
  36              		.syntax unified
  37 0010 00BF     		nop
  38 0012 0C37     		adds	r7, r7, #12
  39 0014 BD46     		mov	sp, r7
  40              		@ sp needed
  41 0016 5DF8047B 		ldr	r7, [sp], #4
  42 001a 7047     		bx	lr
  43              		.size	port_lock, .-port_lock
  44              		.section	.text.port_unlock,"ax",%progbits
  45              		.align	1
  46              		.syntax unified
  47              		.thumb
  48              		.thumb_func
  49              		.fpu fpv4-sp-d16
  50              		.type	port_unlock, %function
  51              	port_unlock:
  52              		@ args = 0, pretend = 0, frame = 8
  53              		@ frame_needed = 1, uses_anonymous_args = 0
  54              		@ link register save eliminated.
  55 0000 80B4     		push	{r7}
  56 0002 83B0     		sub	sp, sp, #12
  57 0004 00AF     		add	r7, sp, #0
ARM GAS  /var/folders/d2/nstgp4h54kz7g1l847x_b8wc0000gn/T//ccC2Fxw0.s 			page 2


  58 0006 0023     		movs	r3, #0
  59 0008 7B60     		str	r3, [r7, #4]
  60 000a 7B68     		ldr	r3, [r7, #4]
  61              		.syntax unified
  62              	@ 546 "../e-puck2_main-processor/ChibiOS//os/ext/CMSIS/include/core_cmFunc.h" 1
  63 000c 83F31188 		MSR basepri, r3
  64              	@ 0 "" 2
  65              		.thumb
  66              		.syntax unified
  67 0010 00BF     		nop
  68 0012 0C37     		adds	r7, r7, #12
  69 0014 BD46     		mov	sp, r7
  70              		@ sp needed
  71 0016 5DF8047B 		ldr	r7, [sp], #4
  72 001a 7047     		bx	lr
  73              		.size	port_unlock, .-port_unlock
  74              		.section	.text.chSysLock,"ax",%progbits
  75              		.align	1
  76              		.syntax unified
  77              		.thumb
  78              		.thumb_func
  79              		.fpu fpv4-sp-d16
  80              		.type	chSysLock, %function
  81              	chSysLock:
  82              		@ args = 0, pretend = 0, frame = 0
  83              		@ frame_needed = 1, uses_anonymous_args = 0
  84 0000 80B5     		push	{r7, lr}
  85 0002 00AF     		add	r7, sp, #0
  86 0004 FFF7FEFF 		bl	port_lock
  87 0008 FFF7FEFF 		bl	_stats_start_measure_crit_thd
  88 000c FFF7FEFF 		bl	_dbg_check_lock
  89 0010 00BF     		nop
  90 0012 80BD     		pop	{r7, pc}
  91              		.size	chSysLock, .-chSysLock
  92              		.section	.text.chSysUnlock,"ax",%progbits
  93              		.align	1
  94              		.syntax unified
  95              		.thumb
  96              		.thumb_func
  97              		.fpu fpv4-sp-d16
  98              		.type	chSysUnlock, %function
  99              	chSysUnlock:
 100              		@ args = 0, pretend = 0, frame = 0
 101              		@ frame_needed = 1, uses_anonymous_args = 0
 102 0000 80B5     		push	{r7, lr}
 103 0002 00AF     		add	r7, sp, #0
 104 0004 FFF7FEFF 		bl	_dbg_check_unlock
 105 0008 FFF7FEFF 		bl	_stats_stop_measure_crit_thd
 106 000c 094B     		ldr	r3, .L6
 107 000e 1B68     		ldr	r3, [r3]
 108 0010 084A     		ldr	r2, .L6
 109 0012 9342     		cmp	r3, r2
 110 0014 0AD0     		beq	.L5
 111 0016 074B     		ldr	r3, .L6
 112 0018 9B69     		ldr	r3, [r3, #24]
 113 001a 9A68     		ldr	r2, [r3, #8]
 114 001c 054B     		ldr	r3, .L6
ARM GAS  /var/folders/d2/nstgp4h54kz7g1l847x_b8wc0000gn/T//ccC2Fxw0.s 			page 3


 115 001e 1B68     		ldr	r3, [r3]
 116 0020 9B68     		ldr	r3, [r3, #8]
 117 0022 9A42     		cmp	r2, r3
 118 0024 02D2     		bcs	.L5
 119 0026 0448     		ldr	r0, .L6+4
 120 0028 FFF7FEFF 		bl	chSysHalt
 121              	.L5:
 122 002c FFF7FEFF 		bl	port_unlock
 123 0030 00BF     		nop
 124 0032 80BD     		pop	{r7, pc}
 125              	.L7:
 126              		.align	2
 127              	.L6:
 128 0034 00000000 		.word	ch
 129 0038 00000000 		.word	__func__.7153
 130              		.size	chSysUnlock, .-chSysUnlock
 131              		.section	.text.chPoolAdd,"ax",%progbits
 132              		.align	1
 133              		.syntax unified
 134              		.thumb
 135              		.thumb_func
 136              		.fpu fpv4-sp-d16
 137              		.type	chPoolAdd, %function
 138              	chPoolAdd:
 139              		@ args = 0, pretend = 0, frame = 8
 140              		@ frame_needed = 1, uses_anonymous_args = 0
 141 0000 80B5     		push	{r7, lr}
 142 0002 82B0     		sub	sp, sp, #8
 143 0004 00AF     		add	r7, sp, #0
 144 0006 7860     		str	r0, [r7, #4]
 145 0008 3960     		str	r1, [r7]
 146 000a 3968     		ldr	r1, [r7]
 147 000c 7868     		ldr	r0, [r7, #4]
 148 000e FFF7FEFF 		bl	chPoolFree
 149 0012 00BF     		nop
 150 0014 0837     		adds	r7, r7, #8
 151 0016 BD46     		mov	sp, r7
 152              		@ sp needed
 153 0018 80BD     		pop	{r7, pc}
 154              		.size	chPoolAdd, .-chPoolAdd
 155              		.section	.text.chPoolObjectInit,"ax",%progbits
 156              		.align	1
 157              		.global	chPoolObjectInit
 158              		.syntax unified
 159              		.thumb
 160              		.thumb_func
 161              		.fpu fpv4-sp-d16
 162              		.type	chPoolObjectInit, %function
 163              	chPoolObjectInit:
 164              		@ args = 0, pretend = 0, frame = 16
 165              		@ frame_needed = 1, uses_anonymous_args = 0
 166 0000 80B5     		push	{r7, lr}
 167 0002 84B0     		sub	sp, sp, #16
 168 0004 00AF     		add	r7, sp, #0
 169 0006 F860     		str	r0, [r7, #12]
 170 0008 B960     		str	r1, [r7, #8]
 171 000a 7A60     		str	r2, [r7, #4]
ARM GAS  /var/folders/d2/nstgp4h54kz7g1l847x_b8wc0000gn/T//ccC2Fxw0.s 			page 4


 172 000c FB68     		ldr	r3, [r7, #12]
 173 000e 002B     		cmp	r3, #0
 174 0010 02D0     		beq	.L10
 175 0012 BB68     		ldr	r3, [r7, #8]
 176 0014 032B     		cmp	r3, #3
 177 0016 02D8     		bhi	.L11
 178              	.L10:
 179 0018 0748     		ldr	r0, .L12
 180 001a FFF7FEFF 		bl	chSysHalt
 181              	.L11:
 182 001e FB68     		ldr	r3, [r7, #12]
 183 0020 0022     		movs	r2, #0
 184 0022 1A60     		str	r2, [r3]
 185 0024 FB68     		ldr	r3, [r7, #12]
 186 0026 BA68     		ldr	r2, [r7, #8]
 187 0028 5A60     		str	r2, [r3, #4]
 188 002a FB68     		ldr	r3, [r7, #12]
 189 002c 7A68     		ldr	r2, [r7, #4]
 190 002e 9A60     		str	r2, [r3, #8]
 191 0030 00BF     		nop
 192 0032 1037     		adds	r7, r7, #16
 193 0034 BD46     		mov	sp, r7
 194              		@ sp needed
 195 0036 80BD     		pop	{r7, pc}
 196              	.L13:
 197              		.align	2
 198              	.L12:
 199 0038 00000000 		.word	__func__.7851
 200              		.size	chPoolObjectInit, .-chPoolObjectInit
 201              		.section	.text.chPoolLoadArray,"ax",%progbits
 202              		.align	1
 203              		.global	chPoolLoadArray
 204              		.syntax unified
 205              		.thumb
 206              		.thumb_func
 207              		.fpu fpv4-sp-d16
 208              		.type	chPoolLoadArray, %function
 209              	chPoolLoadArray:
 210              		@ args = 0, pretend = 0, frame = 16
 211              		@ frame_needed = 1, uses_anonymous_args = 0
 212 0000 80B5     		push	{r7, lr}
 213 0002 84B0     		sub	sp, sp, #16
 214 0004 00AF     		add	r7, sp, #0
 215 0006 F860     		str	r0, [r7, #12]
 216 0008 B960     		str	r1, [r7, #8]
 217 000a 7A60     		str	r2, [r7, #4]
 218 000c FB68     		ldr	r3, [r7, #12]
 219 000e 002B     		cmp	r3, #0
 220 0010 02D0     		beq	.L15
 221 0012 7B68     		ldr	r3, [r7, #4]
 222 0014 002B     		cmp	r3, #0
 223 0016 0FD1     		bne	.L17
 224              	.L15:
 225 0018 0B48     		ldr	r0, .L19
 226 001a FFF7FEFF 		bl	chSysHalt
 227 001e 0BE0     		b	.L17
 228              	.L18:
ARM GAS  /var/folders/d2/nstgp4h54kz7g1l847x_b8wc0000gn/T//ccC2Fxw0.s 			page 5


 229 0020 B968     		ldr	r1, [r7, #8]
 230 0022 F868     		ldr	r0, [r7, #12]
 231 0024 FFF7FEFF 		bl	chPoolAdd
 232 0028 FB68     		ldr	r3, [r7, #12]
 233 002a 5B68     		ldr	r3, [r3, #4]
 234 002c BA68     		ldr	r2, [r7, #8]
 235 002e 1344     		add	r3, r3, r2
 236 0030 BB60     		str	r3, [r7, #8]
 237 0032 7B68     		ldr	r3, [r7, #4]
 238 0034 013B     		subs	r3, r3, #1
 239 0036 7B60     		str	r3, [r7, #4]
 240              	.L17:
 241 0038 7B68     		ldr	r3, [r7, #4]
 242 003a 002B     		cmp	r3, #0
 243 003c F0D1     		bne	.L18
 244 003e 00BF     		nop
 245 0040 1037     		adds	r7, r7, #16
 246 0042 BD46     		mov	sp, r7
 247              		@ sp needed
 248 0044 80BD     		pop	{r7, pc}
 249              	.L20:
 250 0046 00BF     		.align	2
 251              	.L19:
 252 0048 00000000 		.word	__func__.7857
 253              		.size	chPoolLoadArray, .-chPoolLoadArray
 254              		.section	.text.chPoolAllocI,"ax",%progbits
 255              		.align	1
 256              		.global	chPoolAllocI
 257              		.syntax unified
 258              		.thumb
 259              		.thumb_func
 260              		.fpu fpv4-sp-d16
 261              		.type	chPoolAllocI, %function
 262              	chPoolAllocI:
 263              		@ args = 0, pretend = 0, frame = 16
 264              		@ frame_needed = 1, uses_anonymous_args = 0
 265 0000 80B5     		push	{r7, lr}
 266 0002 84B0     		sub	sp, sp, #16
 267 0004 00AF     		add	r7, sp, #0
 268 0006 7860     		str	r0, [r7, #4]
 269 0008 FFF7FEFF 		bl	chDbgCheckClassI
 270 000c 7B68     		ldr	r3, [r7, #4]
 271 000e 002B     		cmp	r3, #0
 272 0010 02D1     		bne	.L22
 273 0012 0F48     		ldr	r0, .L26
 274 0014 FFF7FEFF 		bl	chSysHalt
 275              	.L22:
 276 0018 7B68     		ldr	r3, [r7, #4]
 277 001a 1B68     		ldr	r3, [r3]
 278 001c FB60     		str	r3, [r7, #12]
 279 001e FB68     		ldr	r3, [r7, #12]
 280 0020 002B     		cmp	r3, #0
 281 0022 05D0     		beq	.L23
 282 0024 7B68     		ldr	r3, [r7, #4]
 283 0026 1B68     		ldr	r3, [r3]
 284 0028 1A68     		ldr	r2, [r3]
 285 002a 7B68     		ldr	r3, [r7, #4]
ARM GAS  /var/folders/d2/nstgp4h54kz7g1l847x_b8wc0000gn/T//ccC2Fxw0.s 			page 6


 286 002c 1A60     		str	r2, [r3]
 287 002e 0AE0     		b	.L24
 288              	.L23:
 289 0030 7B68     		ldr	r3, [r7, #4]
 290 0032 9B68     		ldr	r3, [r3, #8]
 291 0034 002B     		cmp	r3, #0
 292 0036 06D0     		beq	.L24
 293 0038 7B68     		ldr	r3, [r7, #4]
 294 003a 9B68     		ldr	r3, [r3, #8]
 295 003c 7A68     		ldr	r2, [r7, #4]
 296 003e 5268     		ldr	r2, [r2, #4]
 297 0040 1046     		mov	r0, r2
 298 0042 9847     		blx	r3
 299 0044 F860     		str	r0, [r7, #12]
 300              	.L24:
 301 0046 FB68     		ldr	r3, [r7, #12]
 302 0048 1846     		mov	r0, r3
 303 004a 1037     		adds	r7, r7, #16
 304 004c BD46     		mov	sp, r7
 305              		@ sp needed
 306 004e 80BD     		pop	{r7, pc}
 307              	.L27:
 308              		.align	2
 309              	.L26:
 310 0050 00000000 		.word	__func__.7865
 311              		.size	chPoolAllocI, .-chPoolAllocI
 312              		.section	.text.chPoolAlloc,"ax",%progbits
 313              		.align	1
 314              		.global	chPoolAlloc
 315              		.syntax unified
 316              		.thumb
 317              		.thumb_func
 318              		.fpu fpv4-sp-d16
 319              		.type	chPoolAlloc, %function
 320              	chPoolAlloc:
 321              		@ args = 0, pretend = 0, frame = 16
 322              		@ frame_needed = 1, uses_anonymous_args = 0
 323 0000 80B5     		push	{r7, lr}
 324 0002 84B0     		sub	sp, sp, #16
 325 0004 00AF     		add	r7, sp, #0
 326 0006 7860     		str	r0, [r7, #4]
 327 0008 FFF7FEFF 		bl	chSysLock
 328 000c 7868     		ldr	r0, [r7, #4]
 329 000e FFF7FEFF 		bl	chPoolAllocI
 330 0012 F860     		str	r0, [r7, #12]
 331 0014 FFF7FEFF 		bl	chSysUnlock
 332 0018 FB68     		ldr	r3, [r7, #12]
 333 001a 1846     		mov	r0, r3
 334 001c 1037     		adds	r7, r7, #16
 335 001e BD46     		mov	sp, r7
 336              		@ sp needed
 337 0020 80BD     		pop	{r7, pc}
 338              		.size	chPoolAlloc, .-chPoolAlloc
 339              		.section	.text.chPoolFreeI,"ax",%progbits
 340              		.align	1
 341              		.global	chPoolFreeI
 342              		.syntax unified
ARM GAS  /var/folders/d2/nstgp4h54kz7g1l847x_b8wc0000gn/T//ccC2Fxw0.s 			page 7


 343              		.thumb
 344              		.thumb_func
 345              		.fpu fpv4-sp-d16
 346              		.type	chPoolFreeI, %function
 347              	chPoolFreeI:
 348              		@ args = 0, pretend = 0, frame = 16
 349              		@ frame_needed = 1, uses_anonymous_args = 0
 350 0000 80B5     		push	{r7, lr}
 351 0002 84B0     		sub	sp, sp, #16
 352 0004 00AF     		add	r7, sp, #0
 353 0006 7860     		str	r0, [r7, #4]
 354 0008 3960     		str	r1, [r7]
 355 000a 3B68     		ldr	r3, [r7]
 356 000c FB60     		str	r3, [r7, #12]
 357 000e FFF7FEFF 		bl	chDbgCheckClassI
 358 0012 7B68     		ldr	r3, [r7, #4]
 359 0014 002B     		cmp	r3, #0
 360 0016 02D0     		beq	.L31
 361 0018 3B68     		ldr	r3, [r7]
 362 001a 002B     		cmp	r3, #0
 363 001c 02D1     		bne	.L32
 364              	.L31:
 365 001e 0748     		ldr	r0, .L33
 366 0020 FFF7FEFF 		bl	chSysHalt
 367              	.L32:
 368 0024 7B68     		ldr	r3, [r7, #4]
 369 0026 1A68     		ldr	r2, [r3]
 370 0028 FB68     		ldr	r3, [r7, #12]
 371 002a 1A60     		str	r2, [r3]
 372 002c 7B68     		ldr	r3, [r7, #4]
 373 002e FA68     		ldr	r2, [r7, #12]
 374 0030 1A60     		str	r2, [r3]
 375 0032 00BF     		nop
 376 0034 1037     		adds	r7, r7, #16
 377 0036 BD46     		mov	sp, r7
 378              		@ sp needed
 379 0038 80BD     		pop	{r7, pc}
 380              	.L34:
 381 003a 00BF     		.align	2
 382              	.L33:
 383 003c 00000000 		.word	__func__.7875
 384              		.size	chPoolFreeI, .-chPoolFreeI
 385              		.section	.text.chPoolFree,"ax",%progbits
 386              		.align	1
 387              		.global	chPoolFree
 388              		.syntax unified
 389              		.thumb
 390              		.thumb_func
 391              		.fpu fpv4-sp-d16
 392              		.type	chPoolFree, %function
 393              	chPoolFree:
 394              		@ args = 0, pretend = 0, frame = 8
 395              		@ frame_needed = 1, uses_anonymous_args = 0
 396 0000 80B5     		push	{r7, lr}
 397 0002 82B0     		sub	sp, sp, #8
 398 0004 00AF     		add	r7, sp, #0
 399 0006 7860     		str	r0, [r7, #4]
ARM GAS  /var/folders/d2/nstgp4h54kz7g1l847x_b8wc0000gn/T//ccC2Fxw0.s 			page 8


 400 0008 3960     		str	r1, [r7]
 401 000a FFF7FEFF 		bl	chSysLock
 402 000e 3968     		ldr	r1, [r7]
 403 0010 7868     		ldr	r0, [r7, #4]
 404 0012 FFF7FEFF 		bl	chPoolFreeI
 405 0016 FFF7FEFF 		bl	chSysUnlock
 406 001a 00BF     		nop
 407 001c 0837     		adds	r7, r7, #8
 408 001e BD46     		mov	sp, r7
 409              		@ sp needed
 410 0020 80BD     		pop	{r7, pc}
 411              		.size	chPoolFree, .-chPoolFree
 412              		.section	.rodata.__func__.7851,"a",%progbits
 413              		.align	2
 414              		.type	__func__.7851, %object
 415              		.size	__func__.7851, 17
 416              	__func__.7851:
 417 0000 6368506F 		.ascii	"chPoolObjectInit\000"
 417      6F6C4F62 
 417      6A656374 
 417      496E6974 
 417      00
 418              		.section	.rodata.__func__.7857,"a",%progbits
 419              		.align	2
 420              		.type	__func__.7857, %object
 421              		.size	__func__.7857, 16
 422              	__func__.7857:
 423 0000 6368506F 		.ascii	"chPoolLoadArray\000"
 423      6F6C4C6F 
 423      61644172 
 423      72617900 
 424              		.section	.rodata.__func__.7865,"a",%progbits
 425              		.align	2
 426              		.type	__func__.7865, %object
 427              		.size	__func__.7865, 13
 428              	__func__.7865:
 429 0000 6368506F 		.ascii	"chPoolAllocI\000"
 429      6F6C416C 
 429      6C6F6349 
 429      00
 430              		.section	.rodata.__func__.7153,"a",%progbits
 431              		.align	2
 432              		.type	__func__.7153, %object
 433              		.size	__func__.7153, 12
 434              	__func__.7153:
 435 0000 63685379 		.ascii	"chSysUnlock\000"
 435      73556E6C 
 435      6F636B00 
 436              		.section	.rodata.__func__.7875,"a",%progbits
 437              		.align	2
 438              		.type	__func__.7875, %object
 439              		.size	__func__.7875, 12
 440              	__func__.7875:
 441 0000 6368506F 		.ascii	"chPoolFreeI\000"
 441      6F6C4672 
 441      65654900 
 442              		.ident	"GCC: (GNU Tools for Arm Embedded Processors 7-2017-q4-major) 7.2.1 20170904 (release) [ARM
ARM GAS  /var/folders/d2/nstgp4h54kz7g1l847x_b8wc0000gn/T//ccC2Fxw0.s 			page 9


ARM GAS  /var/folders/d2/nstgp4h54kz7g1l847x_b8wc0000gn/T//ccC2Fxw0.s 			page 10

