ARM GAS  /var/folders/d2/nstgp4h54kz7g1l847x_b8wc0000gn/T//ccRPy61C.s 			page 1


   1              		.cpu cortex-m4
   2              		.eabi_attribute 27, 1
   3              		.eabi_attribute 28, 1
   4              		.eabi_attribute 20, 1
   5              		.eabi_attribute 21, 1
   6              		.eabi_attribute 23, 3
   7              		.eabi_attribute 24, 1
   8              		.eabi_attribute 25, 1
   9              		.eabi_attribute 26, 1
  10              		.eabi_attribute 30, 2
  11              		.eabi_attribute 34, 1
  12              		.eabi_attribute 18, 4
  13              		.file	"chmsg.c"
  14              		.text
  15              	.Ltext0:
  16              		.cfi_sections	.debug_frame
  17              		.section	.text.chMsgSend,"ax",%progbits
  18              		.align	1
  19              		.p2align 4,,15
  20              		.global	chMsgSend
  21              		.syntax unified
  22              		.thumb
  23              		.thumb_func
  24              		.fpu fpv4-sp-d16
  25              		.type	chMsgSend, %function
  26              	chMsgSend:
  27              	.LFB219:
  28              		.file 1 "../e-puck2_main-processor/ChibiOS//os/rt/src/chmsg.c"
  29              		.loc 1 87 0
  30              		.cfi_startproc
  31              		@ args = 0, pretend = 0, frame = 8
  32              		@ frame_needed = 0, uses_anonymous_args = 0
  33              	.LVL0:
  34 0000 2DE9F041 		push	{r4, r5, r6, r7, r8, lr}
  35              		.cfi_def_cfa_offset 24
  36              		.cfi_offset 4, -24
  37              		.cfi_offset 5, -20
  38              		.cfi_offset 6, -16
  39              		.cfi_offset 7, -12
  40              		.cfi_offset 8, -8
  41              		.cfi_offset 14, -4
  42 0004 234F     		ldr	r7, .L12
  43              		.loc 1 88 0
  44 0006 244E     		ldr	r6, .L12+4
  45              		.loc 1 87 0
  46 0008 3B68     		ldr	r3, [r7]
  47              		.loc 1 88 0
  48 000a B469     		ldr	r4, [r6, #24]
  49              	.LVL1:
  50              		.loc 1 87 0
  51 000c 82B0     		sub	sp, sp, #8
  52              		.cfi_def_cfa_offset 32
  53              		.loc 1 87 0
  54 000e 8846     		mov	r8, r1
  55 0010 0193     		str	r3, [sp, #4]
  56              		.loc 1 90 0
  57 0012 0546     		mov	r5, r0
ARM GAS  /var/folders/d2/nstgp4h54kz7g1l847x_b8wc0000gn/T//ccRPy61C.s 			page 2


  58 0014 0028     		cmp	r0, #0
  59 0016 37D0     		beq	.L8
  60              	.LVL2:
  61              	.L2:
  62              	.LBB49:
  63              	.LBB50:
  64              	.LBB51:
  65              	.LBB52:
  66              	.LBB53:
  67              		.file 2 "../e-puck2_main-processor/ChibiOS//os/ext/CMSIS/include/core_cmFunc.h"
  68              		.loc 2 546 0
  69 0018 2023     		movs	r3, #32
  70              		.syntax unified
  71              	@ 546 "../e-puck2_main-processor/ChibiOS//os/ext/CMSIS/include/core_cmFunc.h" 1
  72 001a 83F31188 		MSR basepri, r3
  73              	@ 0 "" 2
  74              	.LVL3:
  75              		.thumb
  76              		.syntax unified
  77              	.LBE53:
  78              	.LBE52:
  79              	.LBE51:
  80              		.file 3 "../e-puck2_main-processor/ChibiOS//os/rt/include/chsys.h"
  81              		.loc 3 349 0
  82 001e FFF7FEFF 		bl	_stats_start_measure_crit_thd
  83              	.LVL4:
  84              		.loc 3 350 0
  85 0022 FFF7FEFF 		bl	_dbg_check_lock
  86              	.LVL5:
  87              	.LBE50:
  88              	.LBE49:
  89              		.loc 1 94 0
  90 0026 05F13003 		add	r3, r5, #48
  91              		.loc 1 93 0
  92 002a C4F83880 		str	r8, [r4, #56]
  93              		.loc 1 94 0
  94 002e A362     		str	r3, [r4, #40]
  95              	.LVL6:
  96              	.LBB54:
  97              	.LBB55:
  98              		.file 4 "../e-puck2_main-processor/ChibiOS//os/rt/include/chschd.h"
  99              		.loc 4 665 0
 100 0030 2360     		str	r3, [r4]
 101              		.loc 4 666 0
 102 0032 6B6B     		ldr	r3, [r5, #52]
 103              	.LVL7:
 104 0034 6360     		str	r3, [r4, #4]
 105              		.loc 4 667 0
 106 0036 1C60     		str	r4, [r3]
 107              	.LVL8:
 108              	.LBE55:
 109              	.LBE54:
 110              		.loc 1 96 0
 111 0038 95F82030 		ldrb	r3, [r5, #32]	@ zero_extendqisi2
 112              	.LBB57:
 113              	.LBB56:
 114              		.loc 4 668 0
ARM GAS  /var/folders/d2/nstgp4h54kz7g1l847x_b8wc0000gn/T//ccRPy61C.s 			page 3


 115 003c 6C63     		str	r4, [r5, #52]
 116              	.LVL9:
 117              	.LBE56:
 118              	.LBE57:
 119              		.loc 1 96 0
 120 003e 0E2B     		cmp	r3, #14
 121 0040 1ED0     		beq	.L9
 122              	.L3:
 123              		.loc 1 99 0
 124 0042 0C20     		movs	r0, #12
 125 0044 FFF7FEFF 		bl	chSchGoSleepS
 126              	.LVL10:
 127              		.loc 1 100 0
 128 0048 A46A     		ldr	r4, [r4, #40]
 129              	.LVL11:
 130              	.LBB58:
 131              	.LBB59:
 132              		.loc 3 360 0
 133 004a FFF7FEFF 		bl	_dbg_check_unlock
 134              	.LVL12:
 135              		.loc 3 361 0
 136 004e FFF7FEFF 		bl	_stats_stop_measure_crit_thd
 137              	.LVL13:
 138              		.loc 3 367 0
 139 0052 3368     		ldr	r3, [r6]
 140 0054 B342     		cmp	r3, r6
 141 0056 04D0     		beq	.L4
 142 0058 B269     		ldr	r2, [r6, #24]
 143 005a 9B68     		ldr	r3, [r3, #8]
 144 005c 9268     		ldr	r2, [r2, #8]
 145 005e 9A42     		cmp	r2, r3
 146 0060 0AD3     		bcc	.L10
 147              	.L4:
 148              	.LVL14:
 149              	.LBB60:
 150              	.LBB61:
 151              	.LBB62:
 152              		.loc 2 546 0
 153 0062 0023     		movs	r3, #0
 154              		.syntax unified
 155              	@ 546 "../e-puck2_main-processor/ChibiOS//os/ext/CMSIS/include/core_cmFunc.h" 1
 156 0064 83F31188 		MSR basepri, r3
 157              	@ 0 "" 2
 158              	.LVL15:
 159              		.thumb
 160              		.syntax unified
 161              	.LBE62:
 162              	.LBE61:
 163              	.LBE60:
 164              	.LBE59:
 165              	.LBE58:
 166              		.loc 1 104 0
 167 0068 019A     		ldr	r2, [sp, #4]
 168 006a 3B68     		ldr	r3, [r7]
 169 006c 9A42     		cmp	r2, r3
 170 006e 2046     		mov	r0, r4
 171 0070 0ED1     		bne	.L11
ARM GAS  /var/folders/d2/nstgp4h54kz7g1l847x_b8wc0000gn/T//ccRPy61C.s 			page 4


 172              	.LVL16:
 173 0072 02B0     		add	sp, sp, #8
 174              		.cfi_remember_state
 175              		.cfi_def_cfa_offset 24
 176              		@ sp needed
 177 0074 BDE8F081 		pop	{r4, r5, r6, r7, r8, pc}
 178              	.LVL17:
 179              	.L10:
 180              		.cfi_restore_state
 181              	.LBB64:
 182              	.LBB63:
 183              		.loc 3 367 0
 184 0078 0848     		ldr	r0, .L12+8
 185 007a FFF7FEFF 		bl	chSysHalt
 186              	.LVL18:
 187 007e F0E7     		b	.L4
 188              	.LVL19:
 189              	.L9:
 190              	.LBE63:
 191              	.LBE64:
 192              		.loc 1 97 0
 193 0080 2846     		mov	r0, r5
 194 0082 FFF7FEFF 		bl	chSchReadyI
 195              	.LVL20:
 196 0086 DCE7     		b	.L3
 197              	.LVL21:
 198              	.L8:
 199              		.loc 1 90 0 discriminator 2
 200 0088 0548     		ldr	r0, .L12+12
 201              	.LVL22:
 202 008a FFF7FEFF 		bl	chSysHalt
 203              	.LVL23:
 204 008e C3E7     		b	.L2
 205              	.LVL24:
 206              	.L11:
 207              		.loc 1 104 0
 208 0090 FFF7FEFF 		bl	__stack_chk_fail
 209              	.LVL25:
 210              	.L13:
 211              		.align	2
 212              	.L12:
 213 0094 00000000 		.word	__stack_chk_guard
 214 0098 00000000 		.word	ch
 215 009c 00000000 		.word	.LANCHOR1
 216 00a0 00000000 		.word	.LANCHOR0
 217              		.cfi_endproc
 218              	.LFE219:
 219              		.size	chMsgSend, .-chMsgSend
 220              		.section	.text.chMsgWait,"ax",%progbits
 221              		.align	1
 222              		.p2align 4,,15
 223              		.global	chMsgWait
 224              		.syntax unified
 225              		.thumb
 226              		.thumb_func
 227              		.fpu fpv4-sp-d16
 228              		.type	chMsgWait, %function
ARM GAS  /var/folders/d2/nstgp4h54kz7g1l847x_b8wc0000gn/T//ccRPy61C.s 			page 5


 229              	chMsgWait:
 230              	.LFB220:
 231              		.loc 1 120 0
 232              		.cfi_startproc
 233              		@ args = 0, pretend = 0, frame = 8
 234              		@ frame_needed = 0, uses_anonymous_args = 0
 235 0000 70B5     		push	{r4, r5, r6, lr}
 236              		.cfi_def_cfa_offset 16
 237              		.cfi_offset 4, -16
 238              		.cfi_offset 5, -12
 239              		.cfi_offset 6, -8
 240              		.cfi_offset 14, -4
 241 0002 1E4E     		ldr	r6, .L22
 242 0004 82B0     		sub	sp, sp, #8
 243              		.cfi_def_cfa_offset 24
 244              		.loc 1 120 0
 245 0006 3368     		ldr	r3, [r6]
 246 0008 0193     		str	r3, [sp, #4]
 247              	.LVL26:
 248              	.LBB79:
 249              	.LBB80:
 250              	.LBB81:
 251              	.LBB82:
 252              	.LBB83:
 253              		.loc 2 546 0
 254 000a 2023     		movs	r3, #32
 255              		.syntax unified
 256              	@ 546 "../e-puck2_main-processor/ChibiOS//os/ext/CMSIS/include/core_cmFunc.h" 1
 257 000c 83F31188 		MSR basepri, r3
 258              	@ 0 "" 2
 259              	.LVL27:
 260              		.thumb
 261              		.syntax unified
 262              	.LBE83:
 263              	.LBE82:
 264              	.LBE81:
 265              	.LBE80:
 266              	.LBE79:
 267              		.loc 1 124 0
 268 0010 1B4C     		ldr	r4, .L22+4
 269              	.LBB85:
 270              	.LBB84:
 271              		.loc 3 349 0
 272 0012 FFF7FEFF 		bl	_stats_start_measure_crit_thd
 273              	.LVL28:
 274              		.loc 3 350 0
 275 0016 FFF7FEFF 		bl	_dbg_check_lock
 276              	.LVL29:
 277              	.LBE84:
 278              	.LBE85:
 279              		.loc 1 124 0
 280 001a A569     		ldr	r5, [r4, #24]
 281              	.LVL30:
 282              	.LBB86:
 283              	.LBB87:
 284              		.file 5 "../e-puck2_main-processor/ChibiOS//os/rt/include/chmsg.h"
 285              		.loc 5 81 0
ARM GAS  /var/folders/d2/nstgp4h54kz7g1l847x_b8wc0000gn/T//ccRPy61C.s 			page 6


 286 001c FFF7FEFF 		bl	chDbgCheckClassI
 287              	.LVL31:
 288              	.LBE87:
 289              	.LBE86:
 290              		.loc 1 124 0
 291 0020 2B6B     		ldr	r3, [r5, #48]
 292              	.LBB89:
 293              	.LBB88:
 294              		.loc 5 83 0
 295 0022 3035     		adds	r5, r5, #48
 296              	.LBE88:
 297              	.LBE89:
 298              		.loc 1 124 0
 299 0024 AB42     		cmp	r3, r5
 300 0026 22D0     		beq	.L19
 301              	.L15:
 302              		.loc 1 127 0
 303 0028 A369     		ldr	r3, [r4, #24]
 304              	.LVL32:
 305              	.LBB90:
 306              	.LBB91:
 307              		.loc 4 672 0
 308 002a 1D6B     		ldr	r5, [r3, #48]
 309              	.LVL33:
 310              		.loc 4 674 0
 311 002c 2A68     		ldr	r2, [r5]
 312 002e 43F8302F 		str	r2, [r3, #48]!
 313              	.LVL34:
 314              	.LBE91:
 315              	.LBE90:
 316              		.loc 1 128 0
 317 0032 0D21     		movs	r1, #13
 318              	.LBB93:
 319              	.LBB92:
 320              		.loc 4 675 0
 321 0034 5360     		str	r3, [r2, #4]
 322              	.LVL35:
 323              	.LBE92:
 324              	.LBE93:
 325              		.loc 1 128 0
 326 0036 85F82010 		strb	r1, [r5, #32]
 327              	.LBB94:
 328              	.LBB95:
 329              		.loc 3 360 0
 330 003a FFF7FEFF 		bl	_dbg_check_unlock
 331              	.LVL36:
 332              		.loc 3 361 0
 333 003e FFF7FEFF 		bl	_stats_stop_measure_crit_thd
 334              	.LVL37:
 335              		.loc 3 367 0
 336 0042 2368     		ldr	r3, [r4]
 337 0044 A342     		cmp	r3, r4
 338 0046 04D0     		beq	.L16
 339 0048 A269     		ldr	r2, [r4, #24]
 340 004a 9B68     		ldr	r3, [r3, #8]
 341 004c 9268     		ldr	r2, [r2, #8]
 342 004e 9A42     		cmp	r2, r3
ARM GAS  /var/folders/d2/nstgp4h54kz7g1l847x_b8wc0000gn/T//ccRPy61C.s 			page 7


 343 0050 09D3     		bcc	.L20
 344              	.L16:
 345              	.LVL38:
 346              	.LBB96:
 347              	.LBB97:
 348              	.LBB98:
 349              		.loc 2 546 0
 350 0052 0023     		movs	r3, #0
 351              		.syntax unified
 352              	@ 546 "../e-puck2_main-processor/ChibiOS//os/ext/CMSIS/include/core_cmFunc.h" 1
 353 0054 83F31188 		MSR basepri, r3
 354              	@ 0 "" 2
 355              	.LVL39:
 356              		.thumb
 357              		.syntax unified
 358              	.LBE98:
 359              	.LBE97:
 360              	.LBE96:
 361              	.LBE95:
 362              	.LBE94:
 363              		.loc 1 132 0
 364 0058 019A     		ldr	r2, [sp, #4]
 365 005a 3368     		ldr	r3, [r6]
 366 005c 9A42     		cmp	r2, r3
 367 005e 2846     		mov	r0, r5
 368 0060 09D1     		bne	.L21
 369 0062 02B0     		add	sp, sp, #8
 370              		.cfi_remember_state
 371              		.cfi_def_cfa_offset 16
 372              		@ sp needed
 373 0064 70BD     		pop	{r4, r5, r6, pc}
 374              	.L20:
 375              		.cfi_restore_state
 376              	.LBB100:
 377              	.LBB99:
 378              		.loc 3 367 0
 379 0066 0748     		ldr	r0, .L22+8
 380 0068 FFF7FEFF 		bl	chSysHalt
 381              	.LVL40:
 382 006c F1E7     		b	.L16
 383              	.L19:
 384              	.LBE99:
 385              	.LBE100:
 386              		.loc 1 125 0
 387 006e 0E20     		movs	r0, #14
 388 0070 FFF7FEFF 		bl	chSchGoSleepS
 389              	.LVL41:
 390 0074 D8E7     		b	.L15
 391              	.L21:
 392              		.loc 1 132 0
 393 0076 FFF7FEFF 		bl	__stack_chk_fail
 394              	.LVL42:
 395              	.L23:
 396 007a 00BF     		.align	2
 397              	.L22:
 398 007c 00000000 		.word	__stack_chk_guard
 399 0080 00000000 		.word	ch
ARM GAS  /var/folders/d2/nstgp4h54kz7g1l847x_b8wc0000gn/T//ccRPy61C.s 			page 8


 400 0084 00000000 		.word	.LANCHOR1
 401              		.cfi_endproc
 402              	.LFE220:
 403              		.size	chMsgWait, .-chMsgWait
 404              		.section	.text.chMsgRelease,"ax",%progbits
 405              		.align	1
 406              		.p2align 4,,15
 407              		.global	chMsgRelease
 408              		.syntax unified
 409              		.thumb
 410              		.thumb_func
 411              		.fpu fpv4-sp-d16
 412              		.type	chMsgRelease, %function
 413              	chMsgRelease:
 414              	.LFB221:
 415              		.loc 1 144 0
 416              		.cfi_startproc
 417              		@ args = 0, pretend = 0, frame = 8
 418              		@ frame_needed = 0, uses_anonymous_args = 0
 419              	.LVL43:
 420 0000 70B5     		push	{r4, r5, r6, lr}
 421              		.cfi_def_cfa_offset 16
 422              		.cfi_offset 4, -16
 423              		.cfi_offset 5, -12
 424              		.cfi_offset 6, -8
 425              		.cfi_offset 14, -4
 426 0002 1B4C     		ldr	r4, .L34
 427 0004 82B0     		sub	sp, sp, #8
 428              		.cfi_def_cfa_offset 24
 429              		.loc 1 144 0
 430 0006 2368     		ldr	r3, [r4]
 431 0008 0193     		str	r3, [sp, #4]
 432              	.LVL44:
 433 000a 0546     		mov	r5, r0
 434 000c 0E46     		mov	r6, r1
 435              	.LBB113:
 436              	.LBB114:
 437              	.LBB115:
 438              	.LBB116:
 439              	.LBB117:
 440              		.loc 2 546 0
 441 000e 2023     		movs	r3, #32
 442              		.syntax unified
 443              	@ 546 "../e-puck2_main-processor/ChibiOS//os/ext/CMSIS/include/core_cmFunc.h" 1
 444 0010 83F31188 		MSR basepri, r3
 445              	@ 0 "" 2
 446              	.LVL45:
 447              		.thumb
 448              		.syntax unified
 449              	.LBE117:
 450              	.LBE116:
 451              	.LBE115:
 452              		.loc 3 349 0
 453 0014 FFF7FEFF 		bl	_stats_start_measure_crit_thd
 454              	.LVL46:
 455              		.loc 3 350 0
 456 0018 FFF7FEFF 		bl	_dbg_check_lock
ARM GAS  /var/folders/d2/nstgp4h54kz7g1l847x_b8wc0000gn/T//ccRPy61C.s 			page 9


 457              	.LVL47:
 458              	.LBE114:
 459              	.LBE113:
 460              		.loc 1 147 0
 461 001c 95F82030 		ldrb	r3, [r5, #32]	@ zero_extendqisi2
 462 0020 0D2B     		cmp	r3, #13
 463 0022 02D0     		beq	.L25
 464              		.loc 1 147 0 is_stmt 0 discriminator 2
 465 0024 1348     		ldr	r0, .L34+4
 466 0026 FFF7FEFF 		bl	chSysHalt
 467              	.LVL48:
 468              	.L25:
 469              	.LBB118:
 470              	.LBB119:
 471              		.loc 5 113 0 is_stmt 1
 472 002a FFF7FEFF 		bl	chDbgCheckClassS
 473              	.LVL49:
 474              		.loc 5 115 0
 475 002e 3146     		mov	r1, r6
 476 0030 2846     		mov	r0, r5
 477 0032 FFF7FEFF 		bl	chSchWakeupS
 478              	.LVL50:
 479              	.LBE119:
 480              	.LBE118:
 481              	.LBB120:
 482              	.LBB121:
 483              		.loc 3 360 0
 484 0036 FFF7FEFF 		bl	_dbg_check_unlock
 485              	.LVL51:
 486              		.loc 3 361 0
 487 003a FFF7FEFF 		bl	_stats_stop_measure_crit_thd
 488              	.LVL52:
 489              		.loc 3 367 0
 490 003e 0E4B     		ldr	r3, .L34+8
 491 0040 1A68     		ldr	r2, [r3]
 492 0042 9A42     		cmp	r2, r3
 493 0044 04D0     		beq	.L26
 494 0046 9969     		ldr	r1, [r3, #24]
 495 0048 9368     		ldr	r3, [r2, #8]
 496 004a 8A68     		ldr	r2, [r1, #8]
 497 004c 9A42     		cmp	r2, r3
 498 004e 08D3     		bcc	.L32
 499              	.L26:
 500              	.LVL53:
 501              	.LBB122:
 502              	.LBB123:
 503              	.LBB124:
 504              		.loc 2 546 0
 505 0050 0023     		movs	r3, #0
 506              		.syntax unified
 507              	@ 546 "../e-puck2_main-processor/ChibiOS//os/ext/CMSIS/include/core_cmFunc.h" 1
 508 0052 83F31188 		MSR basepri, r3
 509              	@ 0 "" 2
 510              	.LVL54:
 511              		.thumb
 512              		.syntax unified
 513              	.LBE124:
ARM GAS  /var/folders/d2/nstgp4h54kz7g1l847x_b8wc0000gn/T//ccRPy61C.s 			page 10


 514              	.LBE123:
 515              	.LBE122:
 516              	.LBE121:
 517              	.LBE120:
 518              		.loc 1 150 0
 519 0056 019A     		ldr	r2, [sp, #4]
 520 0058 2368     		ldr	r3, [r4]
 521 005a 9A42     		cmp	r2, r3
 522 005c 05D1     		bne	.L33
 523 005e 02B0     		add	sp, sp, #8
 524              		.cfi_remember_state
 525              		.cfi_def_cfa_offset 16
 526              		@ sp needed
 527 0060 70BD     		pop	{r4, r5, r6, pc}
 528              	.LVL55:
 529              	.L32:
 530              		.cfi_restore_state
 531              	.LBB126:
 532              	.LBB125:
 533              		.loc 3 367 0
 534 0062 0648     		ldr	r0, .L34+12
 535 0064 FFF7FEFF 		bl	chSysHalt
 536              	.LVL56:
 537 0068 F2E7     		b	.L26
 538              	.L33:
 539              	.LBE125:
 540              	.LBE126:
 541              		.loc 1 150 0
 542 006a FFF7FEFF 		bl	__stack_chk_fail
 543              	.LVL57:
 544              	.L35:
 545 006e 00BF     		.align	2
 546              	.L34:
 547 0070 00000000 		.word	__stack_chk_guard
 548 0074 00000000 		.word	.LANCHOR2
 549 0078 00000000 		.word	ch
 550 007c 00000000 		.word	.LANCHOR1
 551              		.cfi_endproc
 552              	.LFE221:
 553              		.size	chMsgRelease, .-chMsgRelease
 554              		.section	.rodata.__func__.7153,"a",%progbits
 555              		.align	2
 556              		.set	.LANCHOR1,. + 0
 557              		.type	__func__.7153, %object
 558              		.size	__func__.7153, 12
 559              	__func__.7153:
 560 0000 63685379 		.ascii	"chSysUnlock\000"
 560      73556E6C 
 560      6F636B00 
 561              		.section	.rodata.__func__.7851,"a",%progbits
 562              		.align	2
 563              		.set	.LANCHOR0,. + 0
 564              		.type	__func__.7851, %object
 565              		.size	__func__.7851, 10
 566              	__func__.7851:
 567 0000 63684D73 		.ascii	"chMsgSend\000"
 567      6753656E 
ARM GAS  /var/folders/d2/nstgp4h54kz7g1l847x_b8wc0000gn/T//ccRPy61C.s 			page 11


 567      6400
 568              		.section	.rodata.__func__.7860,"a",%progbits
 569              		.align	2
 570              		.set	.LANCHOR2,. + 0
 571              		.type	__func__.7860, %object
 572              		.size	__func__.7860, 13
 573              	__func__.7860:
 574 0000 63684D73 		.ascii	"chMsgRelease\000"
 574      6752656C 
 574      65617365 
 574      00
 575              		.text
 576              	.Letext0:
 577              		.file 6 "/Applications/Eclipse_e-puck2.app/Contents/Eclipse_e-puck2/Tools/gcc-arm-none-eabi-7-2017
 578              		.file 7 "/Applications/Eclipse_e-puck2.app/Contents/Eclipse_e-puck2/Tools/gcc-arm-none-eabi-7-2017
 579              		.file 8 "../e-puck2_main-processor/ChibiOS//os/rt/ports/ARMCMx/compilers/GCC/chtypes.h"
 580              		.file 9 "../e-puck2_main-processor/ChibiOS//os/rt/include/chsystypes.h"
 581              		.file 10 "../e-puck2_main-processor/ChibiOS//os/ext/CMSIS/include/core_cm4.h"
 582              		.file 11 "../e-puck2_main-processor/ChibiOS//os/ext/CMSIS/ST/system_stm32f4xx.h"
 583              		.file 12 "../e-puck2_main-processor/ChibiOS//os/rt/ports/ARMCMx/chcore.h"
 584              		.file 13 "../e-puck2_main-processor/ChibiOS//os/rt/ports/ARMCMx/chcore_v7m.h"
 585              		.file 14 "../e-puck2_main-processor/ChibiOS//os/rt/include/chdebug.h"
 586              		.file 15 "../e-puck2_main-processor/ChibiOS//os/rt/include/chtm.h"
 587              		.file 16 "../e-puck2_main-processor/ChibiOS//os/rt/include/chstats.h"
 588              		.file 17 "../e-puck2_main-processor/ChibiOS//os/rt/include/chsem.h"
 589              		.file 18 "../e-puck2_main-processor/ChibiOS//os/rt/include/chmtx.h"
 590              		.file 19 "../e-puck2_main-processor/ChibiOS//os/rt/include/chregistry.h"
 591              		.section	.debug_info,"",%progbits
 592              	.Ldebug_info0:
 593 0000 DE0F0000 		.4byte	0xfde
 594 0004 0400     		.2byte	0x4
 595 0006 00000000 		.4byte	.Ldebug_abbrev0
 596 000a 04       		.byte	0x4
 597 000b 01       		.uleb128 0x1
 598 000c EC020000 		.4byte	.LASF180
 599 0010 0C       		.byte	0xc
 600 0011 B4080000 		.4byte	.LASF181
 601 0015 0D000000 		.4byte	.LASF182
 602 0019 A8000000 		.4byte	.Ldebug_ranges0+0xa8
 603 001d 00000000 		.4byte	0
 604 0021 00000000 		.4byte	.Ldebug_line0
 605 0025 02       		.uleb128 0x2
 606 0026 04       		.byte	0x4
 607 0027 05       		.byte	0x5
 608 0028 696E7400 		.ascii	"int\000"
 609 002c 03       		.uleb128 0x3
 610 002d 04       		.byte	0x4
 611 002e 07       		.byte	0x7
 612 002f DF020000 		.4byte	.LASF0
 613 0033 03       		.uleb128 0x3
 614 0034 08       		.byte	0x8
 615 0035 05       		.byte	0x5
 616 0036 AD010000 		.4byte	.LASF1
 617 003a 03       		.uleb128 0x3
 618 003b 08       		.byte	0x8
 619 003c 04       		.byte	0x4
 620 003d B8050000 		.4byte	.LASF2
ARM GAS  /var/folders/d2/nstgp4h54kz7g1l847x_b8wc0000gn/T//ccRPy61C.s 			page 12


 621 0041 03       		.uleb128 0x3
 622 0042 01       		.byte	0x1
 623 0043 06       		.byte	0x6
 624 0044 BB010000 		.4byte	.LASF3
 625 0048 04       		.uleb128 0x4
 626 0049 A3000000 		.4byte	.LASF6
 627 004d 06       		.byte	0x6
 628 004e 2B       		.byte	0x2b
 629 004f 53000000 		.4byte	0x53
 630 0053 03       		.uleb128 0x3
 631 0054 01       		.byte	0x1
 632 0055 08       		.byte	0x8
 633 0056 99060000 		.4byte	.LASF4
 634 005a 03       		.uleb128 0x3
 635 005b 02       		.byte	0x2
 636 005c 05       		.byte	0x5
 637 005d B1060000 		.4byte	.LASF5
 638 0061 04       		.uleb128 0x4
 639 0062 E0070000 		.4byte	.LASF7
 640 0066 06       		.byte	0x6
 641 0067 39       		.byte	0x39
 642 0068 6C000000 		.4byte	0x6c
 643 006c 03       		.uleb128 0x3
 644 006d 02       		.byte	0x2
 645 006e 07       		.byte	0x7
 646 006f 80040000 		.4byte	.LASF8
 647 0073 04       		.uleb128 0x4
 648 0074 2A050000 		.4byte	.LASF9
 649 0078 06       		.byte	0x6
 650 0079 4D       		.byte	0x4d
 651 007a 7E000000 		.4byte	0x7e
 652 007e 03       		.uleb128 0x3
 653 007f 04       		.byte	0x4
 654 0080 05       		.byte	0x5
 655 0081 1B020000 		.4byte	.LASF10
 656 0085 04       		.uleb128 0x4
 657 0086 29080000 		.4byte	.LASF11
 658 008a 06       		.byte	0x6
 659 008b 4F       		.byte	0x4f
 660 008c 90000000 		.4byte	0x90
 661 0090 03       		.uleb128 0x3
 662 0091 04       		.byte	0x4
 663 0092 07       		.byte	0x7
 664 0093 C2070000 		.4byte	.LASF12
 665 0097 04       		.uleb128 0x4
 666 0098 30060000 		.4byte	.LASF13
 667 009c 06       		.byte	0x6
 668 009d 69       		.byte	0x69
 669 009e A2000000 		.4byte	0xa2
 670 00a2 03       		.uleb128 0x3
 671 00a3 08       		.byte	0x8
 672 00a4 07       		.byte	0x7
 673 00a5 FC000000 		.4byte	.LASF14
 674 00a9 04       		.uleb128 0x4
 675 00aa AC080000 		.4byte	.LASF15
 676 00ae 07       		.byte	0x7
 677 00af 18       		.byte	0x18
ARM GAS  /var/folders/d2/nstgp4h54kz7g1l847x_b8wc0000gn/T//ccRPy61C.s 			page 13


 678 00b0 48000000 		.4byte	0x48
 679 00b4 04       		.uleb128 0x4
 680 00b5 30040000 		.4byte	.LASF16
 681 00b9 07       		.byte	0x7
 682 00ba 24       		.byte	0x24
 683 00bb 61000000 		.4byte	0x61
 684 00bf 04       		.uleb128 0x4
 685 00c0 91060000 		.4byte	.LASF17
 686 00c4 07       		.byte	0x7
 687 00c5 2C       		.byte	0x2c
 688 00c6 73000000 		.4byte	0x73
 689 00ca 05       		.uleb128 0x5
 690 00cb BF000000 		.4byte	0xbf
 691 00cf 04       		.uleb128 0x4
 692 00d0 81070000 		.4byte	.LASF18
 693 00d4 07       		.byte	0x7
 694 00d5 30       		.byte	0x30
 695 00d6 85000000 		.4byte	0x85
 696 00da 04       		.uleb128 0x4
 697 00db 8D000000 		.4byte	.LASF19
 698 00df 07       		.byte	0x7
 699 00e0 3C       		.byte	0x3c
 700 00e1 97000000 		.4byte	0x97
 701 00e5 04       		.uleb128 0x4
 702 00e6 89050000 		.4byte	.LASF20
 703 00ea 08       		.byte	0x8
 704 00eb 45       		.byte	0x45
 705 00ec CF000000 		.4byte	0xcf
 706 00f0 04       		.uleb128 0x4
 707 00f1 88010000 		.4byte	.LASF21
 708 00f5 08       		.byte	0x8
 709 00f6 46       		.byte	0x46
 710 00f7 DA000000 		.4byte	0xda
 711 00fb 04       		.uleb128 0x4
 712 00fc E2060000 		.4byte	.LASF22
 713 0100 08       		.byte	0x8
 714 0101 48       		.byte	0x48
 715 0102 A9000000 		.4byte	0xa9
 716 0106 04       		.uleb128 0x4
 717 0107 2E020000 		.4byte	.LASF23
 718 010b 08       		.byte	0x8
 719 010c 49       		.byte	0x49
 720 010d A9000000 		.4byte	0xa9
 721 0111 04       		.uleb128 0x4
 722 0112 46060000 		.4byte	.LASF24
 723 0116 08       		.byte	0x8
 724 0117 4A       		.byte	0x4a
 725 0118 A9000000 		.4byte	0xa9
 726 011c 04       		.uleb128 0x4
 727 011d 07020000 		.4byte	.LASF25
 728 0121 08       		.byte	0x8
 729 0122 4B       		.byte	0x4b
 730 0123 A9000000 		.4byte	0xa9
 731 0127 04       		.uleb128 0x4
 732 0128 7A060000 		.4byte	.LASF26
 733 012c 08       		.byte	0x8
 734 012d 4C       		.byte	0x4c
ARM GAS  /var/folders/d2/nstgp4h54kz7g1l847x_b8wc0000gn/T//ccRPy61C.s 			page 14


 735 012e CF000000 		.4byte	0xcf
 736 0132 04       		.uleb128 0x4
 737 0133 B9040000 		.4byte	.LASF27
 738 0137 08       		.byte	0x8
 739 0138 4D       		.byte	0x4d
 740 0139 BF000000 		.4byte	0xbf
 741 013d 04       		.uleb128 0x4
 742 013e 1E050000 		.4byte	.LASF28
 743 0142 08       		.byte	0x8
 744 0143 4F       		.byte	0x4f
 745 0144 CF000000 		.4byte	0xcf
 746 0148 04       		.uleb128 0x4
 747 0149 CE020000 		.4byte	.LASF29
 748 014d 08       		.byte	0x8
 749 014e 51       		.byte	0x51
 750 014f BF000000 		.4byte	0xbf
 751 0153 04       		.uleb128 0x4
 752 0154 C4040000 		.4byte	.LASF30
 753 0158 08       		.byte	0x8
 754 0159 52       		.byte	0x52
 755 015a CF000000 		.4byte	0xcf
 756 015e 04       		.uleb128 0x4
 757 015f 0B080000 		.4byte	.LASF31
 758 0163 09       		.byte	0x9
 759 0164 33       		.byte	0x33
 760 0165 CF000000 		.4byte	0xcf
 761 0169 05       		.uleb128 0x5
 762 016a 5E010000 		.4byte	0x15e
 763 016e 04       		.uleb128 0x4
 764 016f EB070000 		.4byte	.LASF32
 765 0173 09       		.byte	0x9
 766 0174 3F       		.byte	0x3f
 767 0175 79010000 		.4byte	0x179
 768 0179 06       		.uleb128 0x6
 769 017a A2040000 		.4byte	.LASF56
 770 017e 68       		.byte	0x68
 771 017f 04       		.byte	0x4
 772 0180 C2       		.byte	0xc2
 773 0181 97020000 		.4byte	0x297
 774 0185 07       		.uleb128 0x7
 775 0186 DB060000 		.4byte	.LASF33
 776 018a 04       		.byte	0x4
 777 018b C3       		.byte	0xc3
 778 018c A2020000 		.4byte	0x2a2
 779 0190 00       		.byte	0
 780 0191 07       		.uleb128 0x7
 781 0192 73060000 		.4byte	.LASF34
 782 0196 04       		.byte	0x4
 783 0197 C5       		.byte	0xc5
 784 0198 A2020000 		.4byte	0x2a2
 785 019c 04       		.byte	0x4
 786 019d 07       		.uleb128 0x7
 787 019e 91010000 		.4byte	.LASF35
 788 01a2 04       		.byte	0x4
 789 01a3 C7       		.byte	0xc7
 790 01a4 27010000 		.4byte	0x127
 791 01a8 08       		.byte	0x8
ARM GAS  /var/folders/d2/nstgp4h54kz7g1l847x_b8wc0000gn/T//ccRPy61C.s 			page 15


 792 01a9 07       		.uleb128 0x7
 793 01aa 00060000 		.4byte	.LASF36
 794 01ae 04       		.byte	0x4
 795 01af C8       		.byte	0xc8
 796 01b0 1B050000 		.4byte	0x51b
 797 01b4 0C       		.byte	0xc
 798 01b5 07       		.uleb128 0x7
 799 01b6 57020000 		.4byte	.LASF37
 800 01ba 04       		.byte	0x4
 801 01bb CA       		.byte	0xca
 802 01bc A2020000 		.4byte	0x2a2
 803 01c0 10       		.byte	0x10
 804 01c1 07       		.uleb128 0x7
 805 01c2 F2050000 		.4byte	.LASF38
 806 01c6 04       		.byte	0x4
 807 01c7 CB       		.byte	0xcb
 808 01c8 A2020000 		.4byte	0x2a2
 809 01cc 14       		.byte	0x14
 810 01cd 07       		.uleb128 0x7
 811 01ce 22090000 		.4byte	.LASF39
 812 01d2 04       		.byte	0x4
 813 01d3 D2       		.byte	0xd2
 814 01d4 91080000 		.4byte	0x891
 815 01d8 18       		.byte	0x18
 816 01d9 07       		.uleb128 0x7
 817 01da D4020000 		.4byte	.LASF40
 818 01de 04       		.byte	0x4
 819 01df D8       		.byte	0xd8
 820 01e0 A8080000 		.4byte	0x8a8
 821 01e4 1C       		.byte	0x1c
 822 01e5 07       		.uleb128 0x7
 823 01e6 BB060000 		.4byte	.LASF41
 824 01ea 04       		.byte	0x4
 825 01eb DD       		.byte	0xdd
 826 01ec 06010000 		.4byte	0x106
 827 01f0 20       		.byte	0x20
 828 01f1 07       		.uleb128 0x7
 829 01f2 F9060000 		.4byte	.LASF42
 830 01f6 04       		.byte	0x4
 831 01f7 E1       		.byte	0xe1
 832 01f8 FB000000 		.4byte	0xfb
 833 01fc 21       		.byte	0x21
 834 01fd 07       		.uleb128 0x7
 835 01fe 8E080000 		.4byte	.LASF43
 836 0202 04       		.byte	0x4
 837 0203 E6       		.byte	0xe6
 838 0204 11010000 		.4byte	0x111
 839 0208 22       		.byte	0x22
 840 0209 07       		.uleb128 0x7
 841 020a C3060000 		.4byte	.LASF44
 842 020e 04       		.byte	0x4
 843 020f EC       		.byte	0xec
 844 0210 1C010000 		.4byte	0x11c
 845 0214 23       		.byte	0x23
 846 0215 07       		.uleb128 0x7
 847 0216 49040000 		.4byte	.LASF45
 848 021a 04       		.byte	0x4
ARM GAS  /var/folders/d2/nstgp4h54kz7g1l847x_b8wc0000gn/T//ccRPy61C.s 			page 16


 849 021b F3       		.byte	0xf3
 850 021c 69010000 		.4byte	0x169
 851 0220 24       		.byte	0x24
 852 0221 08       		.uleb128 0x8
 853 0222 705F7500 		.ascii	"p_u\000"
 854 0226 04       		.byte	0x4
 855 0227 3101     		.2byte	0x131
 856 0229 C0070000 		.4byte	0x7c0
 857 022d 28       		.byte	0x28
 858 022e 09       		.uleb128 0x9
 859 022f 62050000 		.4byte	.LASF46
 860 0233 04       		.byte	0x4
 861 0234 3601     		.2byte	0x136
 862 0236 A8020000 		.4byte	0x2a8
 863 023a 2C       		.byte	0x2c
 864 023b 09       		.uleb128 0x9
 865 023c 60040000 		.4byte	.LASF47
 866 0240 04       		.byte	0x4
 867 0241 3C01     		.2byte	0x13c
 868 0243 CC020000 		.4byte	0x2cc
 869 0247 30       		.byte	0x30
 870 0248 09       		.uleb128 0x9
 871 0249 5B080000 		.4byte	.LASF48
 872 024d 04       		.byte	0x4
 873 024e 4001     		.2byte	0x140
 874 0250 32010000 		.4byte	0x132
 875 0254 38       		.byte	0x38
 876 0255 09       		.uleb128 0x9
 877 0256 76070000 		.4byte	.LASF49
 878 025a 04       		.byte	0x4
 879 025b 4601     		.2byte	0x146
 880 025d 3D010000 		.4byte	0x13d
 881 0261 3C       		.byte	0x3c
 882 0262 09       		.uleb128 0x9
 883 0263 A7060000 		.4byte	.LASF50
 884 0267 04       		.byte	0x4
 885 0268 4D01     		.2byte	0x14d
 886 026a 8B080000 		.4byte	0x88b
 887 026e 40       		.byte	0x40
 888 026f 09       		.uleb128 0x9
 889 0270 15080000 		.4byte	.LASF51
 890 0274 04       		.byte	0x4
 891 0275 5101     		.2byte	0x151
 892 0277 27010000 		.4byte	0x127
 893 027b 44       		.byte	0x44
 894 027c 09       		.uleb128 0x9
 895 027d E4010000 		.4byte	.LASF52
 896 0281 04       		.byte	0x4
 897 0282 5801     		.2byte	0x158
 898 0284 7F030000 		.4byte	0x37f
 899 0288 48       		.byte	0x48
 900 0289 09       		.uleb128 0x9
 901 028a 0A070000 		.4byte	.LASF53
 902 028e 04       		.byte	0x4
 903 028f 5E01     		.2byte	0x15e
 904 0291 71070000 		.4byte	0x771
 905 0295 50       		.byte	0x50
ARM GAS  /var/folders/d2/nstgp4h54kz7g1l847x_b8wc0000gn/T//ccRPy61C.s 			page 17


 906 0296 00       		.byte	0
 907 0297 04       		.uleb128 0x4
 908 0298 FB080000 		.4byte	.LASF54
 909 029c 09       		.byte	0x9
 910 029d 44       		.byte	0x44
 911 029e A2020000 		.4byte	0x2a2
 912 02a2 0A       		.uleb128 0xa
 913 02a3 04       		.byte	0x4
 914 02a4 6E010000 		.4byte	0x16e
 915 02a8 04       		.uleb128 0x4
 916 02a9 3F050000 		.4byte	.LASF55
 917 02ad 09       		.byte	0x9
 918 02ae 49       		.byte	0x49
 919 02af B3020000 		.4byte	0x2b3
 920 02b3 06       		.uleb128 0x6
 921 02b4 AA070000 		.4byte	.LASF57
 922 02b8 04       		.byte	0x4
 923 02b9 04       		.byte	0x4
 924 02ba B0       		.byte	0xb0
 925 02bb CC020000 		.4byte	0x2cc
 926 02bf 07       		.uleb128 0x7
 927 02c0 DB060000 		.4byte	.LASF33
 928 02c4 04       		.byte	0x4
 929 02c5 B1       		.byte	0xb1
 930 02c6 A2020000 		.4byte	0x2a2
 931 02ca 00       		.byte	0
 932 02cb 00       		.byte	0
 933 02cc 04       		.uleb128 0x4
 934 02cd 1C070000 		.4byte	.LASF58
 935 02d1 09       		.byte	0x9
 936 02d2 50       		.byte	0x50
 937 02d3 D7020000 		.4byte	0x2d7
 938 02d7 06       		.uleb128 0x6
 939 02d8 B9000000 		.4byte	.LASF59
 940 02dc 08       		.byte	0x8
 941 02dd 04       		.byte	0x4
 942 02de B7       		.byte	0xb7
 943 02df FC020000 		.4byte	0x2fc
 944 02e3 07       		.uleb128 0x7
 945 02e4 DB060000 		.4byte	.LASF33
 946 02e8 04       		.byte	0x4
 947 02e9 B8       		.byte	0xb8
 948 02ea A2020000 		.4byte	0x2a2
 949 02ee 00       		.byte	0
 950 02ef 07       		.uleb128 0x7
 951 02f0 73060000 		.4byte	.LASF34
 952 02f4 04       		.byte	0x4
 953 02f5 B9       		.byte	0xb9
 954 02f6 A2020000 		.4byte	0x2a2
 955 02fa 04       		.byte	0x4
 956 02fb 00       		.byte	0
 957 02fc 04       		.uleb128 0x4
 958 02fd 66000000 		.4byte	.LASF60
 959 0301 09       		.byte	0x9
 960 0302 57       		.byte	0x57
 961 0303 07030000 		.4byte	0x307
 962 0307 0B       		.uleb128 0xb
ARM GAS  /var/folders/d2/nstgp4h54kz7g1l847x_b8wc0000gn/T//ccRPy61C.s 			page 18


 963 0308 10050000 		.4byte	.LASF61
 964 030c 1C       		.byte	0x1c
 965 030d 04       		.byte	0x4
 966 030e 9001     		.2byte	0x190
 967 0310 63030000 		.4byte	0x363
 968 0314 09       		.uleb128 0x9
 969 0315 96070000 		.4byte	.LASF62
 970 0319 04       		.byte	0x4
 971 031a 9101     		.2byte	0x191
 972 031c CC020000 		.4byte	0x2cc
 973 0320 00       		.byte	0
 974 0321 09       		.uleb128 0x9
 975 0322 CD060000 		.4byte	.LASF63
 976 0326 04       		.byte	0x4
 977 0327 9201     		.2byte	0x192
 978 0329 27010000 		.4byte	0x127
 979 032d 08       		.byte	0x8
 980 032e 09       		.uleb128 0x9
 981 032f FA050000 		.4byte	.LASF64
 982 0333 04       		.byte	0x4
 983 0334 9401     		.2byte	0x194
 984 0336 1B050000 		.4byte	0x51b
 985 033a 0C       		.byte	0xc
 986 033b 09       		.uleb128 0x9
 987 033c 6F020000 		.4byte	.LASF65
 988 0340 04       		.byte	0x4
 989 0341 9701     		.2byte	0x197
 990 0343 A2020000 		.4byte	0x2a2
 991 0347 10       		.byte	0x10
 992 0348 09       		.uleb128 0x9
 993 0349 28060000 		.4byte	.LASF66
 994 034d 04       		.byte	0x4
 995 034e 9801     		.2byte	0x198
 996 0350 A2020000 		.4byte	0x2a2
 997 0354 14       		.byte	0x14
 998 0355 09       		.uleb128 0x9
 999 0356 1E060000 		.4byte	.LASF67
 1000 035a 04       		.byte	0x4
 1001 035b 9B01     		.2byte	0x19b
 1002 035d A2020000 		.4byte	0x2a2
 1003 0361 18       		.byte	0x18
 1004 0362 00       		.byte	0
 1005 0363 04       		.uleb128 0x4
 1006 0364 20080000 		.4byte	.LASF68
 1007 0368 09       		.byte	0x9
 1008 0369 5C       		.byte	0x5c
 1009 036a 6E030000 		.4byte	0x36e
 1010 036e 0A       		.uleb128 0xa
 1011 036f 04       		.byte	0x4
 1012 0370 74030000 		.4byte	0x374
 1013 0374 0C       		.uleb128 0xc
 1014 0375 7F030000 		.4byte	0x37f
 1015 0379 0D       		.uleb128 0xd
 1016 037a 7F030000 		.4byte	0x37f
 1017 037e 00       		.byte	0
 1018 037f 0E       		.uleb128 0xe
 1019 0380 04       		.byte	0x4
ARM GAS  /var/folders/d2/nstgp4h54kz7g1l847x_b8wc0000gn/T//ccRPy61C.s 			page 19


 1020 0381 04       		.uleb128 0x4
 1021 0382 63060000 		.4byte	.LASF69
 1022 0386 09       		.byte	0x9
 1023 0387 61       		.byte	0x61
 1024 0388 8C030000 		.4byte	0x38c
 1025 038c 0B       		.uleb128 0xb
 1026 038d 2C070000 		.4byte	.LASF70
 1027 0391 14       		.byte	0x14
 1028 0392 04       		.byte	0x4
 1029 0393 6B01     		.2byte	0x16b
 1030 0395 DB030000 		.4byte	0x3db
 1031 0399 09       		.uleb128 0x9
 1032 039a A8020000 		.4byte	.LASF71
 1033 039e 04       		.byte	0x4
 1034 039f 6C01     		.2byte	0x16c
 1035 03a1 AE080000 		.4byte	0x8ae
 1036 03a5 00       		.byte	0
 1037 03a6 09       		.uleb128 0x9
 1038 03a7 80020000 		.4byte	.LASF72
 1039 03ab 04       		.byte	0x4
 1040 03ac 6D01     		.2byte	0x16d
 1041 03ae AE080000 		.4byte	0x8ae
 1042 03b2 04       		.byte	0x4
 1043 03b3 09       		.uleb128 0x9
 1044 03b4 57040000 		.4byte	.LASF73
 1045 03b8 04       		.byte	0x4
 1046 03b9 6E01     		.2byte	0x16e
 1047 03bb 5E010000 		.4byte	0x15e
 1048 03bf 08       		.byte	0x8
 1049 03c0 09       		.uleb128 0x9
 1050 03c1 91090000 		.4byte	.LASF74
 1051 03c5 04       		.byte	0x4
 1052 03c6 6F01     		.2byte	0x16f
 1053 03c8 63030000 		.4byte	0x363
 1054 03cc 0C       		.byte	0xc
 1055 03cd 09       		.uleb128 0x9
 1056 03ce 61080000 		.4byte	.LASF75
 1057 03d2 04       		.byte	0x4
 1058 03d3 7101     		.2byte	0x171
 1059 03d5 7F030000 		.4byte	0x37f
 1060 03d9 10       		.byte	0x10
 1061 03da 00       		.byte	0
 1062 03db 04       		.uleb128 0x4
 1063 03dc 65010000 		.4byte	.LASF76
 1064 03e0 09       		.byte	0x9
 1065 03e1 66       		.byte	0x66
 1066 03e2 E6030000 		.4byte	0x3e6
 1067 03e6 0B       		.uleb128 0xb
 1068 03e7 A1050000 		.4byte	.LASF77
 1069 03eb 10       		.byte	0x10
 1070 03ec 04       		.byte	0x4
 1071 03ed 7B01     		.2byte	0x17b
 1072 03ef 28040000 		.4byte	0x428
 1073 03f3 09       		.uleb128 0x9
 1074 03f4 A8020000 		.4byte	.LASF71
 1075 03f8 04       		.byte	0x4
 1076 03f9 7C01     		.2byte	0x17c
ARM GAS  /var/folders/d2/nstgp4h54kz7g1l847x_b8wc0000gn/T//ccRPy61C.s 			page 20


 1077 03fb AE080000 		.4byte	0x8ae
 1078 03ff 00       		.byte	0
 1079 0400 09       		.uleb128 0x9
 1080 0401 80020000 		.4byte	.LASF72
 1081 0405 04       		.byte	0x4
 1082 0406 7E01     		.2byte	0x17e
 1083 0408 AE080000 		.4byte	0x8ae
 1084 040c 04       		.byte	0x4
 1085 040d 09       		.uleb128 0x9
 1086 040e 57040000 		.4byte	.LASF73
 1087 0412 04       		.byte	0x4
 1088 0413 8001     		.2byte	0x180
 1089 0415 5E010000 		.4byte	0x15e
 1090 0419 08       		.byte	0x8
 1091 041a 09       		.uleb128 0x9
 1092 041b 29090000 		.4byte	.LASF78
 1093 041f 04       		.byte	0x4
 1094 0420 8201     		.2byte	0x182
 1095 0422 69010000 		.4byte	0x169
 1096 0426 0C       		.byte	0xc
 1097 0427 00       		.byte	0
 1098 0428 04       		.uleb128 0x4
 1099 0429 CA000000 		.4byte	.LASF79
 1100 042d 09       		.byte	0x9
 1101 042e 6B       		.byte	0x6b
 1102 042f 33040000 		.4byte	0x433
 1103 0433 0F       		.uleb128 0xf
 1104 0434 92020000 		.4byte	.LASF80
 1105 0438 1404     		.2byte	0x414
 1106 043a 04       		.byte	0x4
 1107 043b A201     		.2byte	0x1a2
 1108 043d 76040000 		.4byte	0x476
 1109 0441 09       		.uleb128 0x9
 1110 0442 42080000 		.4byte	.LASF81
 1111 0446 04       		.byte	0x4
 1112 0447 AA01     		.2byte	0x1aa
 1113 0449 97080000 		.4byte	0x897
 1114 044d 00       		.byte	0
 1115 044e 09       		.uleb128 0x9
 1116 044f 95080000 		.4byte	.LASF82
 1117 0453 04       		.byte	0x4
 1118 0454 AF01     		.2byte	0x1af
 1119 0456 48010000 		.4byte	0x148
 1120 045a 04       		.byte	0x4
 1121 045b 09       		.uleb128 0x9
 1122 045c B6020000 		.4byte	.LASF83
 1123 0460 04       		.byte	0x4
 1124 0461 B301     		.2byte	0x1b3
 1125 0463 48010000 		.4byte	0x148
 1126 0467 08       		.byte	0x8
 1127 0468 09       		.uleb128 0x9
 1128 0469 34090000 		.4byte	.LASF84
 1129 046d 04       		.byte	0x4
 1130 046e B901     		.2byte	0x1b9
 1131 0470 03070000 		.4byte	0x703
 1132 0474 0C       		.byte	0xc
 1133 0475 00       		.byte	0
ARM GAS  /var/folders/d2/nstgp4h54kz7g1l847x_b8wc0000gn/T//ccRPy61C.s 			page 21


 1134 0476 04       		.uleb128 0x4
 1135 0477 DC040000 		.4byte	.LASF85
 1136 047b 09       		.byte	0x9
 1137 047c 70       		.byte	0x70
 1138 047d 81040000 		.4byte	0x481
 1139 0481 0F       		.uleb128 0xf
 1140 0482 11020000 		.4byte	.LASF86
 1141 0486 7006     		.2byte	0x670
 1142 0488 04       		.byte	0x4
 1143 0489 C201     		.2byte	0x1c2
 1144 048b EE040000 		.4byte	0x4ee
 1145 048f 09       		.uleb128 0x9
 1146 0490 A6080000 		.4byte	.LASF87
 1147 0494 04       		.byte	0x4
 1148 0495 C601     		.2byte	0x1c6
 1149 0497 FC020000 		.4byte	0x2fc
 1150 049b 00       		.byte	0
 1151 049c 09       		.uleb128 0x9
 1152 049d F4010000 		.4byte	.LASF88
 1153 04a1 04       		.byte	0x4
 1154 04a2 CA01     		.2byte	0x1ca
 1155 04a4 DB030000 		.4byte	0x3db
 1156 04a8 1C       		.byte	0x1c
 1157 04a9 08       		.uleb128 0x8
 1158 04aa 64626700 		.ascii	"dbg\000"
 1159 04ae 04       		.byte	0x4
 1160 04af CE01     		.2byte	0x1ce
 1161 04b1 28040000 		.4byte	0x428
 1162 04b5 2C       		.byte	0x2c
 1163 04b6 10       		.uleb128 0x10
 1164 04b7 3C010000 		.4byte	.LASF89
 1165 04bb 04       		.byte	0x4
 1166 04bc D201     		.2byte	0x1d2
 1167 04be 6E010000 		.4byte	0x16e
 1168 04c2 4004     		.2byte	0x440
 1169 04c4 11       		.uleb128 0x11
 1170 04c5 746D00   		.ascii	"tm\000"
 1171 04c8 04       		.byte	0x4
 1172 04c9 D701     		.2byte	0x1d7
 1173 04cb 23070000 		.4byte	0x723
 1174 04cf A804     		.2byte	0x4a8
 1175 04d1 10       		.uleb128 0x10
 1176 04d2 96000000 		.4byte	.LASF90
 1177 04d6 04       		.byte	0x4
 1178 04d7 DD01     		.2byte	0x1dd
 1179 04d9 B5070000 		.4byte	0x7b5
 1180 04dd B004     		.2byte	0x4b0
 1181 04df 10       		.uleb128 0x10
 1182 04e0 BF020000 		.4byte	.LASF91
 1183 04e4 04       		.byte	0x4
 1184 04e5 E301     		.2byte	0x1e3
 1185 04e7 B4080000 		.4byte	0x8b4
 1186 04eb E804     		.2byte	0x4e8
 1187 04ed 00       		.byte	0
 1188 04ee 12       		.uleb128 0x12
 1189 04ef 7B010000 		.4byte	.LASF92
 1190 04f3 0A       		.byte	0xa
ARM GAS  /var/folders/d2/nstgp4h54kz7g1l847x_b8wc0000gn/T//ccRPy61C.s 			page 22


 1191 04f4 A706     		.2byte	0x6a7
 1192 04f6 CA000000 		.4byte	0xca
 1193 04fa 13       		.uleb128 0x13
 1194 04fb 39040000 		.4byte	.LASF93
 1195 04ff 0B       		.byte	0xb
 1196 0500 4C       		.byte	0x4c
 1197 0501 CF000000 		.4byte	0xcf
 1198 0505 04       		.uleb128 0x4
 1199 0506 77020000 		.4byte	.LASF94
 1200 050a 0C       		.byte	0xc
 1201 050b 65       		.byte	0x65
 1202 050c 7F030000 		.4byte	0x37f
 1203 0510 04       		.uleb128 0x4
 1204 0511 34050000 		.4byte	.LASF95
 1205 0515 0C       		.byte	0xc
 1206 0516 6D       		.byte	0x6d
 1207 0517 DA000000 		.4byte	0xda
 1208 051b 06       		.uleb128 0x6
 1209 051c 53080000 		.4byte	.LASF96
 1210 0520 04       		.byte	0x4
 1211 0521 0C       		.byte	0xc
 1212 0522 89       		.byte	0x89
 1213 0523 34050000 		.4byte	0x534
 1214 0527 14       		.uleb128 0x14
 1215 0528 72313300 		.ascii	"r13\000"
 1216 052c 0C       		.byte	0xc
 1217 052d 8A       		.byte	0x8a
 1218 052e 75060000 		.4byte	0x675
 1219 0532 00       		.byte	0
 1220 0533 00       		.byte	0
 1221 0534 06       		.uleb128 0x6
 1222 0535 AD000000 		.4byte	.LASF97
 1223 0539 64       		.byte	0x64
 1224 053a 0D       		.byte	0xd
 1225 053b F4       		.byte	0xf4
 1226 053c 75060000 		.4byte	0x675
 1227 0540 14       		.uleb128 0x14
 1228 0541 73313600 		.ascii	"s16\000"
 1229 0545 0D       		.byte	0xd
 1230 0546 F6       		.byte	0xf6
 1231 0547 05050000 		.4byte	0x505
 1232 054b 00       		.byte	0
 1233 054c 14       		.uleb128 0x14
 1234 054d 73313700 		.ascii	"s17\000"
 1235 0551 0D       		.byte	0xd
 1236 0552 F7       		.byte	0xf7
 1237 0553 05050000 		.4byte	0x505
 1238 0557 04       		.byte	0x4
 1239 0558 14       		.uleb128 0x14
 1240 0559 73313800 		.ascii	"s18\000"
 1241 055d 0D       		.byte	0xd
 1242 055e F8       		.byte	0xf8
 1243 055f 05050000 		.4byte	0x505
 1244 0563 08       		.byte	0x8
 1245 0564 14       		.uleb128 0x14
 1246 0565 73313900 		.ascii	"s19\000"
 1247 0569 0D       		.byte	0xd
ARM GAS  /var/folders/d2/nstgp4h54kz7g1l847x_b8wc0000gn/T//ccRPy61C.s 			page 23


 1248 056a F9       		.byte	0xf9
 1249 056b 05050000 		.4byte	0x505
 1250 056f 0C       		.byte	0xc
 1251 0570 14       		.uleb128 0x14
 1252 0571 73323000 		.ascii	"s20\000"
 1253 0575 0D       		.byte	0xd
 1254 0576 FA       		.byte	0xfa
 1255 0577 05050000 		.4byte	0x505
 1256 057b 10       		.byte	0x10
 1257 057c 14       		.uleb128 0x14
 1258 057d 73323100 		.ascii	"s21\000"
 1259 0581 0D       		.byte	0xd
 1260 0582 FB       		.byte	0xfb
 1261 0583 05050000 		.4byte	0x505
 1262 0587 14       		.byte	0x14
 1263 0588 14       		.uleb128 0x14
 1264 0589 73323200 		.ascii	"s22\000"
 1265 058d 0D       		.byte	0xd
 1266 058e FC       		.byte	0xfc
 1267 058f 05050000 		.4byte	0x505
 1268 0593 18       		.byte	0x18
 1269 0594 14       		.uleb128 0x14
 1270 0595 73323300 		.ascii	"s23\000"
 1271 0599 0D       		.byte	0xd
 1272 059a FD       		.byte	0xfd
 1273 059b 05050000 		.4byte	0x505
 1274 059f 1C       		.byte	0x1c
 1275 05a0 14       		.uleb128 0x14
 1276 05a1 73323400 		.ascii	"s24\000"
 1277 05a5 0D       		.byte	0xd
 1278 05a6 FE       		.byte	0xfe
 1279 05a7 05050000 		.4byte	0x505
 1280 05ab 20       		.byte	0x20
 1281 05ac 14       		.uleb128 0x14
 1282 05ad 73323500 		.ascii	"s25\000"
 1283 05b1 0D       		.byte	0xd
 1284 05b2 FF       		.byte	0xff
 1285 05b3 05050000 		.4byte	0x505
 1286 05b7 24       		.byte	0x24
 1287 05b8 08       		.uleb128 0x8
 1288 05b9 73323600 		.ascii	"s26\000"
 1289 05bd 0D       		.byte	0xd
 1290 05be 0001     		.2byte	0x100
 1291 05c0 05050000 		.4byte	0x505
 1292 05c4 28       		.byte	0x28
 1293 05c5 08       		.uleb128 0x8
 1294 05c6 73323700 		.ascii	"s27\000"
 1295 05ca 0D       		.byte	0xd
 1296 05cb 0101     		.2byte	0x101
 1297 05cd 05050000 		.4byte	0x505
 1298 05d1 2C       		.byte	0x2c
 1299 05d2 08       		.uleb128 0x8
 1300 05d3 73323800 		.ascii	"s28\000"
 1301 05d7 0D       		.byte	0xd
 1302 05d8 0201     		.2byte	0x102
 1303 05da 05050000 		.4byte	0x505
 1304 05de 30       		.byte	0x30
ARM GAS  /var/folders/d2/nstgp4h54kz7g1l847x_b8wc0000gn/T//ccRPy61C.s 			page 24


 1305 05df 08       		.uleb128 0x8
 1306 05e0 73323900 		.ascii	"s29\000"
 1307 05e4 0D       		.byte	0xd
 1308 05e5 0301     		.2byte	0x103
 1309 05e7 05050000 		.4byte	0x505
 1310 05eb 34       		.byte	0x34
 1311 05ec 08       		.uleb128 0x8
 1312 05ed 73333000 		.ascii	"s30\000"
 1313 05f1 0D       		.byte	0xd
 1314 05f2 0401     		.2byte	0x104
 1315 05f4 05050000 		.4byte	0x505
 1316 05f8 38       		.byte	0x38
 1317 05f9 08       		.uleb128 0x8
 1318 05fa 73333100 		.ascii	"s31\000"
 1319 05fe 0D       		.byte	0xd
 1320 05ff 0501     		.2byte	0x105
 1321 0601 05050000 		.4byte	0x505
 1322 0605 3C       		.byte	0x3c
 1323 0606 08       		.uleb128 0x8
 1324 0607 723400   		.ascii	"r4\000"
 1325 060a 0D       		.byte	0xd
 1326 060b 0701     		.2byte	0x107
 1327 060d 05050000 		.4byte	0x505
 1328 0611 40       		.byte	0x40
 1329 0612 08       		.uleb128 0x8
 1330 0613 723500   		.ascii	"r5\000"
 1331 0616 0D       		.byte	0xd
 1332 0617 0801     		.2byte	0x108
 1333 0619 05050000 		.4byte	0x505
 1334 061d 44       		.byte	0x44
 1335 061e 08       		.uleb128 0x8
 1336 061f 723600   		.ascii	"r6\000"
 1337 0622 0D       		.byte	0xd
 1338 0623 0901     		.2byte	0x109
 1339 0625 05050000 		.4byte	0x505
 1340 0629 48       		.byte	0x48
 1341 062a 08       		.uleb128 0x8
 1342 062b 723700   		.ascii	"r7\000"
 1343 062e 0D       		.byte	0xd
 1344 062f 0A01     		.2byte	0x10a
 1345 0631 05050000 		.4byte	0x505
 1346 0635 4C       		.byte	0x4c
 1347 0636 08       		.uleb128 0x8
 1348 0637 723800   		.ascii	"r8\000"
 1349 063a 0D       		.byte	0xd
 1350 063b 0B01     		.2byte	0x10b
 1351 063d 05050000 		.4byte	0x505
 1352 0641 50       		.byte	0x50
 1353 0642 08       		.uleb128 0x8
 1354 0643 723900   		.ascii	"r9\000"
 1355 0646 0D       		.byte	0xd
 1356 0647 0C01     		.2byte	0x10c
 1357 0649 05050000 		.4byte	0x505
 1358 064d 54       		.byte	0x54
 1359 064e 08       		.uleb128 0x8
 1360 064f 72313000 		.ascii	"r10\000"
 1361 0653 0D       		.byte	0xd
ARM GAS  /var/folders/d2/nstgp4h54kz7g1l847x_b8wc0000gn/T//ccRPy61C.s 			page 25


 1362 0654 0D01     		.2byte	0x10d
 1363 0656 05050000 		.4byte	0x505
 1364 065a 58       		.byte	0x58
 1365 065b 08       		.uleb128 0x8
 1366 065c 72313100 		.ascii	"r11\000"
 1367 0660 0D       		.byte	0xd
 1368 0661 0E01     		.2byte	0x10e
 1369 0663 05050000 		.4byte	0x505
 1370 0667 5C       		.byte	0x5c
 1371 0668 08       		.uleb128 0x8
 1372 0669 6C7200   		.ascii	"lr\000"
 1373 066c 0D       		.byte	0xd
 1374 066d 0F01     		.2byte	0x10f
 1375 066f 05050000 		.4byte	0x505
 1376 0673 60       		.byte	0x60
 1377 0674 00       		.byte	0
 1378 0675 0A       		.uleb128 0xa
 1379 0676 04       		.byte	0x4
 1380 0677 34050000 		.4byte	0x534
 1381 067b 15       		.uleb128 0x15
 1382 067c 10       		.byte	0x10
 1383 067d 0E       		.byte	0xe
 1384 067e 51       		.byte	0x51
 1385 067f B4060000 		.4byte	0x6b4
 1386 0683 07       		.uleb128 0x7
 1387 0684 72080000 		.4byte	.LASF98
 1388 0688 0E       		.byte	0xe
 1389 0689 55       		.byte	0x55
 1390 068a 5E010000 		.4byte	0x15e
 1391 068e 00       		.byte	0
 1392 068f 07       		.uleb128 0x7
 1393 0690 37020000 		.4byte	.LASF99
 1394 0694 0E       		.byte	0xe
 1395 0695 59       		.byte	0x59
 1396 0696 A2020000 		.4byte	0x2a2
 1397 069a 04       		.byte	0x4
 1398 069b 07       		.uleb128 0x7
 1399 069c 79090000 		.4byte	.LASF100
 1400 06a0 0E       		.byte	0xe
 1401 06a1 5D       		.byte	0x5d
 1402 06a2 7F030000 		.4byte	0x37f
 1403 06a6 08       		.byte	0x8
 1404 06a7 07       		.uleb128 0x7
 1405 06a8 9D080000 		.4byte	.LASF101
 1406 06ac 0E       		.byte	0xe
 1407 06ad 61       		.byte	0x61
 1408 06ae A9000000 		.4byte	0xa9
 1409 06b2 0C       		.byte	0xc
 1410 06b3 00       		.byte	0
 1411 06b4 04       		.uleb128 0x4
 1412 06b5 D7050000 		.4byte	.LASF102
 1413 06b9 0E       		.byte	0xe
 1414 06ba 62       		.byte	0x62
 1415 06bb 7B060000 		.4byte	0x67b
 1416 06bf 16       		.uleb128 0x16
 1417 06c0 0804     		.2byte	0x408
 1418 06c2 0E       		.byte	0xe
ARM GAS  /var/folders/d2/nstgp4h54kz7g1l847x_b8wc0000gn/T//ccRPy61C.s 			page 26


 1419 06c3 67       		.byte	0x67
 1420 06c4 ED060000 		.4byte	0x6ed
 1421 06c8 07       		.uleb128 0x7
 1422 06c9 67020000 		.4byte	.LASF103
 1423 06cd 0E       		.byte	0xe
 1424 06ce 6B       		.byte	0x6b
 1425 06cf 2C000000 		.4byte	0x2c
 1426 06d3 00       		.byte	0
 1427 06d4 07       		.uleb128 0x7
 1428 06d5 D0050000 		.4byte	.LASF104
 1429 06d9 0E       		.byte	0xe
 1430 06da 6F       		.byte	0x6f
 1431 06db ED060000 		.4byte	0x6ed
 1432 06df 04       		.byte	0x4
 1433 06e0 07       		.uleb128 0x7
 1434 06e1 4E060000 		.4byte	.LASF105
 1435 06e5 0E       		.byte	0xe
 1436 06e6 73       		.byte	0x73
 1437 06e7 F3060000 		.4byte	0x6f3
 1438 06eb 08       		.byte	0x8
 1439 06ec 00       		.byte	0
 1440 06ed 0A       		.uleb128 0xa
 1441 06ee 04       		.byte	0x4
 1442 06ef B4060000 		.4byte	0x6b4
 1443 06f3 17       		.uleb128 0x17
 1444 06f4 B4060000 		.4byte	0x6b4
 1445 06f8 03070000 		.4byte	0x703
 1446 06fc 18       		.uleb128 0x18
 1447 06fd 2C000000 		.4byte	0x2c
 1448 0701 3F       		.byte	0x3f
 1449 0702 00       		.byte	0
 1450 0703 04       		.uleb128 0x4
 1451 0704 13010000 		.4byte	.LASF106
 1452 0708 0E       		.byte	0xe
 1453 0709 74       		.byte	0x74
 1454 070a BF060000 		.4byte	0x6bf
 1455 070e 15       		.uleb128 0x15
 1456 070f 04       		.byte	0x4
 1457 0710 0F       		.byte	0xf
 1458 0711 38       		.byte	0x38
 1459 0712 23070000 		.4byte	0x723
 1460 0716 07       		.uleb128 0x7
 1461 0717 4C080000 		.4byte	.LASF107
 1462 071b 0F       		.byte	0xf
 1463 071c 3C       		.byte	0x3c
 1464 071d E5000000 		.4byte	0xe5
 1465 0721 00       		.byte	0
 1466 0722 00       		.byte	0
 1467 0723 04       		.uleb128 0x4
 1468 0724 06060000 		.4byte	.LASF108
 1469 0728 0F       		.byte	0xf
 1470 0729 3D       		.byte	0x3d
 1471 072a 0E070000 		.4byte	0x70e
 1472 072e 15       		.uleb128 0x15
 1473 072f 18       		.byte	0x18
 1474 0730 0F       		.byte	0xf
 1475 0731 48       		.byte	0x48
ARM GAS  /var/folders/d2/nstgp4h54kz7g1l847x_b8wc0000gn/T//ccRPy61C.s 			page 27


 1476 0732 71070000 		.4byte	0x771
 1477 0736 07       		.uleb128 0x7
 1478 0737 F4070000 		.4byte	.LASF109
 1479 073b 0F       		.byte	0xf
 1480 073c 49       		.byte	0x49
 1481 073d E5000000 		.4byte	0xe5
 1482 0741 00       		.byte	0
 1483 0742 07       		.uleb128 0x7
 1484 0743 E3000000 		.4byte	.LASF110
 1485 0747 0F       		.byte	0xf
 1486 0748 4A       		.byte	0x4a
 1487 0749 E5000000 		.4byte	0xe5
 1488 074d 04       		.byte	0x4
 1489 074e 07       		.uleb128 0x7
 1490 074f BF040000 		.4byte	.LASF111
 1491 0753 0F       		.byte	0xf
 1492 0754 4B       		.byte	0x4b
 1493 0755 E5000000 		.4byte	0xe5
 1494 0759 08       		.byte	0x8
 1495 075a 14       		.uleb128 0x14
 1496 075b 6E00     		.ascii	"n\000"
 1497 075d 0F       		.byte	0xf
 1498 075e 4C       		.byte	0x4c
 1499 075f 53010000 		.4byte	0x153
 1500 0763 0C       		.byte	0xc
 1501 0764 07       		.uleb128 0x7
 1502 0765 3B060000 		.4byte	.LASF112
 1503 0769 0F       		.byte	0xf
 1504 076a 4D       		.byte	0x4d
 1505 076b F0000000 		.4byte	0xf0
 1506 076f 10       		.byte	0x10
 1507 0770 00       		.byte	0
 1508 0771 04       		.uleb128 0x4
 1509 0772 E9000000 		.4byte	.LASF113
 1510 0776 0F       		.byte	0xf
 1511 0777 4E       		.byte	0x4e
 1512 0778 2E070000 		.4byte	0x72e
 1513 077c 15       		.uleb128 0x15
 1514 077d 38       		.byte	0x38
 1515 077e 10       		.byte	0x10
 1516 077f 38       		.byte	0x38
 1517 0780 B5070000 		.4byte	0x7b5
 1518 0784 07       		.uleb128 0x7
 1519 0785 74040000 		.4byte	.LASF114
 1520 0789 10       		.byte	0x10
 1521 078a 39       		.byte	0x39
 1522 078b 53010000 		.4byte	0x153
 1523 078f 00       		.byte	0
 1524 0790 07       		.uleb128 0x7
 1525 0791 82060000 		.4byte	.LASF115
 1526 0795 10       		.byte	0x10
 1527 0796 3A       		.byte	0x3a
 1528 0797 53010000 		.4byte	0x153
 1529 079b 04       		.byte	0x4
 1530 079c 07       		.uleb128 0x7
 1531 079d 66090000 		.4byte	.LASF116
 1532 07a1 10       		.byte	0x10
ARM GAS  /var/folders/d2/nstgp4h54kz7g1l847x_b8wc0000gn/T//ccRPy61C.s 			page 28


 1533 07a2 3B       		.byte	0x3b
 1534 07a3 71070000 		.4byte	0x771
 1535 07a7 08       		.byte	0x8
 1536 07a8 07       		.uleb128 0x7
 1537 07a9 05050000 		.4byte	.LASF117
 1538 07ad 10       		.byte	0x10
 1539 07ae 3D       		.byte	0x3d
 1540 07af 71070000 		.4byte	0x771
 1541 07b3 20       		.byte	0x20
 1542 07b4 00       		.byte	0
 1543 07b5 04       		.uleb128 0x4
 1544 07b6 93040000 		.4byte	.LASF118
 1545 07ba 10       		.byte	0x10
 1546 07bb 3F       		.byte	0x3f
 1547 07bc 7C070000 		.4byte	0x77c
 1548 07c0 19       		.uleb128 0x19
 1549 07c1 04       		.byte	0x4
 1550 07c2 04       		.byte	0x4
 1551 07c3 FA       		.byte	0xfa
 1552 07c4 1D080000 		.4byte	0x81d
 1553 07c8 1A       		.uleb128 0x1a
 1554 07c9 86000000 		.4byte	.LASF119
 1555 07cd 04       		.byte	0x4
 1556 07ce 0101     		.2byte	0x101
 1557 07d0 32010000 		.4byte	0x132
 1558 07d4 1A       		.uleb128 0x1a
 1559 07d5 33010000 		.4byte	.LASF120
 1560 07d9 04       		.byte	0x4
 1561 07da 0801     		.2byte	0x108
 1562 07dc 32010000 		.4byte	0x132
 1563 07e0 1A       		.uleb128 0x1a
 1564 07e1 0E090000 		.4byte	.LASF121
 1565 07e5 04       		.byte	0x4
 1566 07e6 0F01     		.2byte	0x10f
 1567 07e8 7F030000 		.4byte	0x37f
 1568 07ec 1A       		.uleb128 0x1a
 1569 07ed 80000000 		.4byte	.LASF122
 1570 07f1 04       		.byte	0x4
 1571 07f2 1601     		.2byte	0x116
 1572 07f4 1D080000 		.4byte	0x81d
 1573 07f8 1A       		.uleb128 0x1a
 1574 07f9 50040000 		.4byte	.LASF123
 1575 07fd 04       		.byte	0x4
 1576 07fe 1E01     		.2byte	0x11e
 1577 0800 48080000 		.4byte	0x848
 1578 0804 1A       		.uleb128 0x1a
 1579 0805 D9070000 		.4byte	.LASF124
 1580 0809 04       		.byte	0x4
 1581 080a 2701     		.2byte	0x127
 1582 080c 8B080000 		.4byte	0x88b
 1583 0810 1A       		.uleb128 0x1a
 1584 0811 D4060000 		.4byte	.LASF125
 1585 0815 04       		.byte	0x4
 1586 0816 2F01     		.2byte	0x12f
 1587 0818 3D010000 		.4byte	0x13d
 1588 081c 00       		.byte	0
 1589 081d 0A       		.uleb128 0xa
ARM GAS  /var/folders/d2/nstgp4h54kz7g1l847x_b8wc0000gn/T//ccRPy61C.s 			page 29


 1590 081e 04       		.byte	0x4
 1591 081f 97020000 		.4byte	0x297
 1592 0823 06       		.uleb128 0x6
 1593 0824 5B070000 		.4byte	.LASF126
 1594 0828 0C       		.byte	0xc
 1595 0829 11       		.byte	0x11
 1596 082a 34       		.byte	0x34
 1597 082b 48080000 		.4byte	0x848
 1598 082f 07       		.uleb128 0x7
 1599 0830 5F020000 		.4byte	.LASF127
 1600 0834 11       		.byte	0x11
 1601 0835 35       		.byte	0x35
 1602 0836 CC020000 		.4byte	0x2cc
 1603 083a 00       		.byte	0
 1604 083b 07       		.uleb128 0x7
 1605 083c 7A040000 		.4byte	.LASF128
 1606 0840 11       		.byte	0x11
 1607 0841 37       		.byte	0x37
 1608 0842 48010000 		.4byte	0x148
 1609 0846 08       		.byte	0x8
 1610 0847 00       		.byte	0
 1611 0848 0A       		.uleb128 0xa
 1612 0849 04       		.byte	0x4
 1613 084a 23080000 		.4byte	0x823
 1614 084e 06       		.uleb128 0x6
 1615 084f 85080000 		.4byte	.LASF129
 1616 0853 14       		.byte	0x14
 1617 0854 12       		.byte	0x12
 1618 0855 39       		.byte	0x39
 1619 0856 8B080000 		.4byte	0x88b
 1620 085a 07       		.uleb128 0x7
 1621 085b EC010000 		.4byte	.LASF130
 1622 085f 12       		.byte	0x12
 1623 0860 3A       		.byte	0x3a
 1624 0861 CC020000 		.4byte	0x2cc
 1625 0865 00       		.byte	0
 1626 0866 07       		.uleb128 0x7
 1627 0867 71090000 		.4byte	.LASF131
 1628 086b 12       		.byte	0x12
 1629 086c 3C       		.byte	0x3c
 1630 086d A2020000 		.4byte	0x2a2
 1631 0871 08       		.byte	0x8
 1632 0872 07       		.uleb128 0x7
 1633 0873 17060000 		.4byte	.LASF132
 1634 0877 12       		.byte	0x12
 1635 0878 3E       		.byte	0x3e
 1636 0879 E6090000 		.4byte	0x9e6
 1637 087d 0C       		.byte	0xc
 1638 087e 07       		.uleb128 0x7
 1639 087f A2020000 		.4byte	.LASF133
 1640 0883 12       		.byte	0x12
 1641 0884 41       		.byte	0x41
 1642 0885 48010000 		.4byte	0x148
 1643 0889 10       		.byte	0x10
 1644 088a 00       		.byte	0
 1645 088b 0A       		.uleb128 0xa
 1646 088c 04       		.byte	0x4
ARM GAS  /var/folders/d2/nstgp4h54kz7g1l847x_b8wc0000gn/T//ccRPy61C.s 			page 30


 1647 088d 4E080000 		.4byte	0x84e
 1648 0891 0A       		.uleb128 0xa
 1649 0892 04       		.byte	0x4
 1650 0893 A3080000 		.4byte	0x8a3
 1651 0897 05       		.uleb128 0x5
 1652 0898 91080000 		.4byte	0x891
 1653 089c 03       		.uleb128 0x3
 1654 089d 01       		.byte	0x1
 1655 089e 08       		.byte	0x8
 1656 089f D4070000 		.4byte	.LASF134
 1657 08a3 1B       		.uleb128 0x1b
 1658 08a4 9C080000 		.4byte	0x89c
 1659 08a8 0A       		.uleb128 0xa
 1660 08a9 04       		.byte	0x4
 1661 08aa 10050000 		.4byte	0x510
 1662 08ae 0A       		.uleb128 0xa
 1663 08af 04       		.byte	0x4
 1664 08b0 81030000 		.4byte	0x381
 1665 08b4 17       		.uleb128 0x17
 1666 08b5 10050000 		.4byte	0x510
 1667 08b9 C4080000 		.4byte	0x8c4
 1668 08bd 18       		.uleb128 0x18
 1669 08be 2C000000 		.4byte	0x2c
 1670 08c2 30       		.byte	0x30
 1671 08c3 00       		.byte	0
 1672 08c4 1C       		.uleb128 0x1c
 1673 08c5 636800   		.ascii	"ch\000"
 1674 08c8 04       		.byte	0x4
 1675 08c9 0902     		.2byte	0x209
 1676 08cb 76040000 		.4byte	0x476
 1677 08cf 15       		.uleb128 0x15
 1678 08d0 16       		.byte	0x16
 1679 08d1 13       		.byte	0x13
 1680 08d2 34       		.byte	0x34
 1681 08d3 B0090000 		.4byte	0x9b0
 1682 08d7 07       		.uleb128 0x7
 1683 08d8 83090000 		.4byte	.LASF135
 1684 08dc 13       		.byte	0x13
 1685 08dd 35       		.byte	0x35
 1686 08de B0090000 		.4byte	0x9b0
 1687 08e2 00       		.byte	0
 1688 08e3 07       		.uleb128 0x7
 1689 08e4 4E050000 		.4byte	.LASF136
 1690 08e8 13       		.byte	0x13
 1691 08e9 36       		.byte	0x36
 1692 08ea A9000000 		.4byte	0xa9
 1693 08ee 04       		.byte	0x4
 1694 08ef 07       		.uleb128 0x7
 1695 08f0 BA070000 		.4byte	.LASF137
 1696 08f4 13       		.byte	0x13
 1697 08f5 37       		.byte	0x37
 1698 08f6 A9000000 		.4byte	0xa9
 1699 08fa 05       		.byte	0x5
 1700 08fb 07       		.uleb128 0x7
 1701 08fc 4D090000 		.4byte	.LASF138
 1702 0900 13       		.byte	0x13
 1703 0901 38       		.byte	0x38
ARM GAS  /var/folders/d2/nstgp4h54kz7g1l847x_b8wc0000gn/T//ccRPy61C.s 			page 31


 1704 0902 B4000000 		.4byte	0xb4
 1705 0906 06       		.byte	0x6
 1706 0907 07       		.uleb128 0x7
 1707 0908 58060000 		.4byte	.LASF139
 1708 090c 13       		.byte	0x13
 1709 090d 39       		.byte	0x39
 1710 090e A9000000 		.4byte	0xa9
 1711 0912 08       		.byte	0x8
 1712 0913 07       		.uleb128 0x7
 1713 0914 C4050000 		.4byte	.LASF140
 1714 0918 13       		.byte	0x13
 1715 0919 3A       		.byte	0x3a
 1716 091a A9000000 		.4byte	0xa9
 1717 091e 09       		.byte	0x9
 1718 091f 07       		.uleb128 0x7
 1719 0920 25010000 		.4byte	.LASF141
 1720 0924 13       		.byte	0x13
 1721 0925 3B       		.byte	0x3b
 1722 0926 A9000000 		.4byte	0xa9
 1723 092a 0A       		.byte	0xa
 1724 092b 07       		.uleb128 0x7
 1725 092c 8A070000 		.4byte	.LASF142
 1726 0930 13       		.byte	0x13
 1727 0931 3C       		.byte	0x3c
 1728 0932 A9000000 		.4byte	0xa9
 1729 0936 0B       		.byte	0xb
 1730 0937 07       		.uleb128 0x7
 1731 0938 7A080000 		.4byte	.LASF143
 1732 093c 13       		.byte	0x13
 1733 093d 3D       		.byte	0x3d
 1734 093e A9000000 		.4byte	0xa9
 1735 0942 0C       		.byte	0xc
 1736 0943 07       		.uleb128 0x7
 1737 0944 15090000 		.4byte	.LASF144
 1738 0948 13       		.byte	0x13
 1739 0949 3E       		.byte	0x3e
 1740 094a A9000000 		.4byte	0xa9
 1741 094e 0D       		.byte	0xd
 1742 094f 07       		.uleb128 0x7
 1743 0950 00000000 		.4byte	.LASF145
 1744 0954 13       		.byte	0x13
 1745 0955 3F       		.byte	0x3f
 1746 0956 A9000000 		.4byte	0xa9
 1747 095a 0E       		.byte	0xe
 1748 095b 07       		.uleb128 0x7
 1749 095c E6050000 		.4byte	.LASF146
 1750 0960 13       		.byte	0x13
 1751 0961 40       		.byte	0x40
 1752 0962 A9000000 		.4byte	0xa9
 1753 0966 0F       		.byte	0xf
 1754 0967 07       		.uleb128 0x7
 1755 0968 C7010000 		.4byte	.LASF147
 1756 096c 13       		.byte	0x13
 1757 096d 41       		.byte	0x41
 1758 096e A9000000 		.4byte	0xa9
 1759 0972 10       		.byte	0x10
 1760 0973 07       		.uleb128 0x7
ARM GAS  /var/folders/d2/nstgp4h54kz7g1l847x_b8wc0000gn/T//ccRPy61C.s 			page 32


 1761 0974 98010000 		.4byte	.LASF148
 1762 0978 13       		.byte	0x13
 1763 0979 43       		.byte	0x43
 1764 097a A9000000 		.4byte	0xa9
 1765 097e 11       		.byte	0x11
 1766 097f 07       		.uleb128 0x7
 1767 0980 D7010000 		.4byte	.LASF149
 1768 0984 13       		.byte	0x13
 1769 0985 44       		.byte	0x44
 1770 0986 A9000000 		.4byte	0xa9
 1771 098a 12       		.byte	0x12
 1772 098b 07       		.uleb128 0x7
 1773 098c 56050000 		.4byte	.LASF150
 1774 0990 13       		.byte	0x13
 1775 0991 45       		.byte	0x45
 1776 0992 A9000000 		.4byte	0xa9
 1777 0996 13       		.byte	0x13
 1778 0997 07       		.uleb128 0x7
 1779 0998 EA060000 		.4byte	.LASF151
 1780 099c 13       		.byte	0x13
 1781 099d 46       		.byte	0x46
 1782 099e A9000000 		.4byte	0xa9
 1783 09a2 14       		.byte	0x14
 1784 09a3 07       		.uleb128 0x7
 1785 09a4 E8040000 		.4byte	.LASF152
 1786 09a8 13       		.byte	0x13
 1787 09a9 48       		.byte	0x48
 1788 09aa A9000000 		.4byte	0xa9
 1789 09ae 15       		.byte	0x15
 1790 09af 00       		.byte	0
 1791 09b0 17       		.uleb128 0x17
 1792 09b1 9C080000 		.4byte	0x89c
 1793 09b5 C0090000 		.4byte	0x9c0
 1794 09b9 18       		.uleb128 0x18
 1795 09ba 2C000000 		.4byte	0x2c
 1796 09be 03       		.byte	0x3
 1797 09bf 00       		.byte	0
 1798 09c0 04       		.uleb128 0x4
 1799 09c1 3D020000 		.4byte	.LASF153
 1800 09c5 13       		.byte	0x13
 1801 09c6 49       		.byte	0x49
 1802 09c7 CF080000 		.4byte	0x8cf
 1803 09cb 1B       		.uleb128 0x1b
 1804 09cc C0090000 		.4byte	0x9c0
 1805 09d0 13       		.uleb128 0x13
 1806 09d1 6B040000 		.4byte	.LASF154
 1807 09d5 13       		.byte	0x13
 1808 09d6 6E       		.byte	0x6e
 1809 09d7 CB090000 		.4byte	0x9cb
 1810 09db 04       		.uleb128 0x4
 1811 09dc A5010000 		.4byte	.LASF155
 1812 09e0 12       		.byte	0x12
 1813 09e1 34       		.byte	0x34
 1814 09e2 4E080000 		.4byte	0x84e
 1815 09e6 0A       		.uleb128 0xa
 1816 09e7 04       		.byte	0x4
 1817 09e8 DB090000 		.4byte	0x9db
ARM GAS  /var/folders/d2/nstgp4h54kz7g1l847x_b8wc0000gn/T//ccRPy61C.s 			page 33


 1818 09ec 1D       		.uleb128 0x1d
 1819 09ed 3D070000 		.4byte	.LASF183
 1820 09f1 01       		.byte	0x1
 1821 09f2 90       		.byte	0x90
 1822 09f3 00000000 		.4byte	.LFB221
 1823 09f7 80000000 		.4byte	.LFE221-.LFB221
 1824 09fb 01       		.uleb128 0x1
 1825 09fc 9C       		.byte	0x9c
 1826 09fd 5B0B0000 		.4byte	0xb5b
 1827 0a01 1E       		.uleb128 0x1e
 1828 0a02 747000   		.ascii	"tp\000"
 1829 0a05 01       		.byte	0x1
 1830 0a06 90       		.byte	0x90
 1831 0a07 A2020000 		.4byte	0x2a2
 1832 0a0b 00000000 		.4byte	.LLST12
 1833 0a0f 1E       		.uleb128 0x1e
 1834 0a10 6D736700 		.ascii	"msg\000"
 1835 0a14 01       		.byte	0x1
 1836 0a15 90       		.byte	0x90
 1837 0a16 32010000 		.4byte	0x132
 1838 0a1a 1E000000 		.4byte	.LLST13
 1839 0a1e 1F       		.uleb128 0x1f
 1840 0a1f 01070000 		.4byte	.LASF156
 1841 0a23 6B0B0000 		.4byte	0xb6b
 1842 0a27 05       		.uleb128 0x5
 1843 0a28 03       		.byte	0x3
 1844 0a29 00000000 		.4byte	__func__.7860
 1845 0a2d 20       		.uleb128 0x20
 1846 0a2e DD0E0000 		.4byte	0xedd
 1847 0a32 0E000000 		.4byte	.LBB113
 1848 0a36 0E000000 		.4byte	.LBE113-.LBB113
 1849 0a3a 01       		.byte	0x1
 1850 0a3b 92       		.byte	0x92
 1851 0a3c 820A0000 		.4byte	0xa82
 1852 0a40 21       		.uleb128 0x21
 1853 0a41 430F0000 		.4byte	0xf43
 1854 0a45 0E000000 		.4byte	.LBB115
 1855 0a49 06000000 		.4byte	.LBE115-.LBB115
 1856 0a4d 03       		.byte	0x3
 1857 0a4e 5C01     		.2byte	0x15c
 1858 0a50 6F0A0000 		.4byte	0xa6f
 1859 0a54 22       		.uleb128 0x22
 1860 0a55 4C0F0000 		.4byte	0xf4c
 1861 0a59 0E000000 		.4byte	.LBB116
 1862 0a5d 06000000 		.4byte	.LBE116-.LBB116
 1863 0a61 0D       		.byte	0xd
 1864 0a62 BF01     		.2byte	0x1bf
 1865 0a64 23       		.uleb128 0x23
 1866 0a65 590F0000 		.4byte	0xf59
 1867 0a69 3C000000 		.4byte	.LLST14
 1868 0a6d 00       		.byte	0
 1869 0a6e 00       		.byte	0
 1870 0a6f 24       		.uleb128 0x24
 1871 0a70 18000000 		.4byte	.LVL46
 1872 0a74 660F0000 		.4byte	0xf66
 1873 0a78 24       		.uleb128 0x24
 1874 0a79 1C000000 		.4byte	.LVL47
ARM GAS  /var/folders/d2/nstgp4h54kz7g1l847x_b8wc0000gn/T//ccRPy61C.s 			page 34


 1875 0a7d 710F0000 		.4byte	0xf71
 1876 0a81 00       		.byte	0
 1877 0a82 20       		.uleb128 0x20
 1878 0a83 690E0000 		.4byte	0xe69
 1879 0a87 2A000000 		.4byte	.LBB118
 1880 0a8b 0C000000 		.4byte	.LBE118-.LBB118
 1881 0a8f 01       		.byte	0x1
 1882 0a90 94       		.byte	0x94
 1883 0a91 C70A0000 		.4byte	0xac7
 1884 0a95 23       		.uleb128 0x23
 1885 0a96 7F0E0000 		.4byte	0xe7f
 1886 0a9a 51000000 		.4byte	.LLST15
 1887 0a9e 23       		.uleb128 0x23
 1888 0a9f 750E0000 		.4byte	0xe75
 1889 0aa3 64000000 		.4byte	.LLST16
 1890 0aa7 24       		.uleb128 0x24
 1891 0aa8 2E000000 		.4byte	.LVL49
 1892 0aac 7C0F0000 		.4byte	0xf7c
 1893 0ab0 25       		.uleb128 0x25
 1894 0ab1 36000000 		.4byte	.LVL50
 1895 0ab5 870F0000 		.4byte	0xf87
 1896 0ab9 26       		.uleb128 0x26
 1897 0aba 01       		.uleb128 0x1
 1898 0abb 50       		.byte	0x50
 1899 0abc 02       		.uleb128 0x2
 1900 0abd 75       		.byte	0x75
 1901 0abe 00       		.sleb128 0
 1902 0abf 26       		.uleb128 0x26
 1903 0ac0 01       		.uleb128 0x1
 1904 0ac1 51       		.byte	0x51
 1905 0ac2 02       		.uleb128 0x2
 1906 0ac3 76       		.byte	0x76
 1907 0ac4 00       		.sleb128 0
 1908 0ac5 00       		.byte	0
 1909 0ac6 00       		.byte	0
 1910 0ac7 27       		.uleb128 0x27
 1911 0ac8 AD0E0000 		.4byte	0xead
 1912 0acc 36000000 		.4byte	.LBB120
 1913 0ad0 90000000 		.4byte	.Ldebug_ranges0+0x90
 1914 0ad4 01       		.byte	0x1
 1915 0ad5 95       		.byte	0x95
 1916 0ad6 3A0B0000 		.4byte	0xb3a
 1917 0ada 28       		.uleb128 0x28
 1918 0adb 90000000 		.4byte	.Ldebug_ranges0+0x90
 1919 0adf 29       		.uleb128 0x29
 1920 0ae0 BA0E0000 		.4byte	0xeba
 1921 0ae4 21       		.uleb128 0x21
 1922 0ae5 3A0F0000 		.4byte	0xf3a
 1923 0ae9 50000000 		.4byte	.LBB122
 1924 0aed 06000000 		.4byte	.LBE122-.LBB122
 1925 0af1 03       		.byte	0x3
 1926 0af2 7301     		.2byte	0x173
 1927 0af4 130B0000 		.4byte	0xb13
 1928 0af8 22       		.uleb128 0x22
 1929 0af9 4C0F0000 		.4byte	0xf4c
 1930 0afd 50000000 		.4byte	.LBB123
 1931 0b01 06000000 		.4byte	.LBE123-.LBB123
ARM GAS  /var/folders/d2/nstgp4h54kz7g1l847x_b8wc0000gn/T//ccRPy61C.s 			page 35


 1932 0b05 0D       		.byte	0xd
 1933 0b06 CD01     		.2byte	0x1cd
 1934 0b08 23       		.uleb128 0x23
 1935 0b09 590F0000 		.4byte	0xf59
 1936 0b0d 77000000 		.4byte	.LLST17
 1937 0b11 00       		.byte	0
 1938 0b12 00       		.byte	0
 1939 0b13 24       		.uleb128 0x24
 1940 0b14 3A000000 		.4byte	.LVL51
 1941 0b18 930F0000 		.4byte	0xf93
 1942 0b1c 24       		.uleb128 0x24
 1943 0b1d 3E000000 		.4byte	.LVL52
 1944 0b21 9E0F0000 		.4byte	0xf9e
 1945 0b25 25       		.uleb128 0x25
 1946 0b26 68000000 		.4byte	.LVL56
 1947 0b2a A90F0000 		.4byte	0xfa9
 1948 0b2e 26       		.uleb128 0x26
 1949 0b2f 01       		.uleb128 0x1
 1950 0b30 50       		.byte	0x50
 1951 0b31 05       		.uleb128 0x5
 1952 0b32 03       		.byte	0x3
 1953 0b33 00000000 		.4byte	.LANCHOR1
 1954 0b37 00       		.byte	0
 1955 0b38 00       		.byte	0
 1956 0b39 00       		.byte	0
 1957 0b3a 2A       		.uleb128 0x2a
 1958 0b3b 2A000000 		.4byte	.LVL48
 1959 0b3f A90F0000 		.4byte	0xfa9
 1960 0b43 510B0000 		.4byte	0xb51
 1961 0b47 26       		.uleb128 0x26
 1962 0b48 01       		.uleb128 0x1
 1963 0b49 50       		.byte	0x50
 1964 0b4a 05       		.uleb128 0x5
 1965 0b4b 03       		.byte	0x3
 1966 0b4c 00000000 		.4byte	.LANCHOR2
 1967 0b50 00       		.byte	0
 1968 0b51 24       		.uleb128 0x24
 1969 0b52 6E000000 		.4byte	.LVL57
 1970 0b56 B50F0000 		.4byte	0xfb5
 1971 0b5a 00       		.byte	0
 1972 0b5b 17       		.uleb128 0x17
 1973 0b5c A3080000 		.4byte	0x8a3
 1974 0b60 6B0B0000 		.4byte	0xb6b
 1975 0b64 18       		.uleb128 0x18
 1976 0b65 2C000000 		.4byte	0x2c
 1977 0b69 0C       		.byte	0xc
 1978 0b6a 00       		.byte	0
 1979 0b6b 1B       		.uleb128 0x1b
 1980 0b6c 5B0B0000 		.4byte	0xb5b
 1981 0b70 2B       		.uleb128 0x2b
 1982 0b71 68080000 		.4byte	.LASF157
 1983 0b75 01       		.byte	0x1
 1984 0b76 78       		.byte	0x78
 1985 0b77 A2020000 		.4byte	0x2a2
 1986 0b7b 00000000 		.4byte	.LFB220
 1987 0b7f 88000000 		.4byte	.LFE220-.LFB220
 1988 0b83 01       		.uleb128 0x1
ARM GAS  /var/folders/d2/nstgp4h54kz7g1l847x_b8wc0000gn/T//ccRPy61C.s 			page 36


 1989 0b84 9C       		.byte	0x9c
 1990 0b85 CA0C0000 		.4byte	0xcca
 1991 0b89 2C       		.uleb128 0x2c
 1992 0b8a 747000   		.ascii	"tp\000"
 1993 0b8d 01       		.byte	0x1
 1994 0b8e 79       		.byte	0x79
 1995 0b8f A2020000 		.4byte	0x2a2
 1996 0b93 27       		.uleb128 0x27
 1997 0b94 DD0E0000 		.4byte	0xedd
 1998 0b98 0A000000 		.4byte	.LBB79
 1999 0b9c 30000000 		.4byte	.Ldebug_ranges0+0x30
 2000 0ba0 01       		.byte	0x1
 2001 0ba1 7B       		.byte	0x7b
 2002 0ba2 E80B0000 		.4byte	0xbe8
 2003 0ba6 21       		.uleb128 0x21
 2004 0ba7 430F0000 		.4byte	0xf43
 2005 0bab 0A000000 		.4byte	.LBB81
 2006 0baf 06000000 		.4byte	.LBE81-.LBB81
 2007 0bb3 03       		.byte	0x3
 2008 0bb4 5C01     		.2byte	0x15c
 2009 0bb6 D50B0000 		.4byte	0xbd5
 2010 0bba 22       		.uleb128 0x22
 2011 0bbb 4C0F0000 		.4byte	0xf4c
 2012 0bbf 0A000000 		.4byte	.LBB82
 2013 0bc3 06000000 		.4byte	.LBE82-.LBB82
 2014 0bc7 0D       		.byte	0xd
 2015 0bc8 BF01     		.2byte	0x1bf
 2016 0bca 23       		.uleb128 0x23
 2017 0bcb 590F0000 		.4byte	0xf59
 2018 0bcf 8B000000 		.4byte	.LLST7
 2019 0bd3 00       		.byte	0
 2020 0bd4 00       		.byte	0
 2021 0bd5 24       		.uleb128 0x24
 2022 0bd6 16000000 		.4byte	.LVL28
 2023 0bda 660F0000 		.4byte	0xf66
 2024 0bde 24       		.uleb128 0x24
 2025 0bdf 1A000000 		.4byte	.LVL29
 2026 0be3 710F0000 		.4byte	0xf71
 2027 0be7 00       		.byte	0
 2028 0be8 27       		.uleb128 0x27
 2029 0be9 8B0E0000 		.4byte	0xe8b
 2030 0bed 1C000000 		.4byte	.LBB86
 2031 0bf1 48000000 		.4byte	.Ldebug_ranges0+0x48
 2032 0bf5 01       		.byte	0x1
 2033 0bf6 7C       		.byte	0x7c
 2034 0bf7 0E0C0000 		.4byte	0xc0e
 2035 0bfb 23       		.uleb128 0x23
 2036 0bfc 9B0E0000 		.4byte	0xe9b
 2037 0c00 A0000000 		.4byte	.LLST8
 2038 0c04 24       		.uleb128 0x24
 2039 0c05 20000000 		.4byte	.LVL31
 2040 0c09 BE0F0000 		.4byte	0xfbe
 2041 0c0d 00       		.byte	0
 2042 0c0e 27       		.uleb128 0x27
 2043 0c0f E60E0000 		.4byte	0xee6
 2044 0c13 2A000000 		.4byte	.LBB90
 2045 0c17 60000000 		.4byte	.Ldebug_ranges0+0x60
ARM GAS  /var/folders/d2/nstgp4h54kz7g1l847x_b8wc0000gn/T//ccRPy61C.s 			page 37


 2046 0c1b 01       		.byte	0x1
 2047 0c1c 7F       		.byte	0x7f
 2048 0c1d 3A0C0000 		.4byte	0xc3a
 2049 0c21 23       		.uleb128 0x23
 2050 0c22 F70E0000 		.4byte	0xef7
 2051 0c26 B3000000 		.4byte	.LLST9
 2052 0c2a 28       		.uleb128 0x28
 2053 0c2b 60000000 		.4byte	.Ldebug_ranges0+0x60
 2054 0c2f 2D       		.uleb128 0x2d
 2055 0c30 030F0000 		.4byte	0xf03
 2056 0c34 D3000000 		.4byte	.LLST10
 2057 0c38 00       		.byte	0
 2058 0c39 00       		.byte	0
 2059 0c3a 27       		.uleb128 0x27
 2060 0c3b AD0E0000 		.4byte	0xead
 2061 0c3f 3A000000 		.4byte	.LBB94
 2062 0c43 78000000 		.4byte	.Ldebug_ranges0+0x78
 2063 0c47 01       		.byte	0x1
 2064 0c48 81       		.byte	0x81
 2065 0c49 AD0C0000 		.4byte	0xcad
 2066 0c4d 28       		.uleb128 0x28
 2067 0c4e 78000000 		.4byte	.Ldebug_ranges0+0x78
 2068 0c52 29       		.uleb128 0x29
 2069 0c53 BA0E0000 		.4byte	0xeba
 2070 0c57 21       		.uleb128 0x21
 2071 0c58 3A0F0000 		.4byte	0xf3a
 2072 0c5c 52000000 		.4byte	.LBB96
 2073 0c60 06000000 		.4byte	.LBE96-.LBB96
 2074 0c64 03       		.byte	0x3
 2075 0c65 7301     		.2byte	0x173
 2076 0c67 860C0000 		.4byte	0xc86
 2077 0c6b 22       		.uleb128 0x22
 2078 0c6c 4C0F0000 		.4byte	0xf4c
 2079 0c70 52000000 		.4byte	.LBB97
 2080 0c74 06000000 		.4byte	.LBE97-.LBB97
 2081 0c78 0D       		.byte	0xd
 2082 0c79 CD01     		.2byte	0x1cd
 2083 0c7b 23       		.uleb128 0x23
 2084 0c7c 590F0000 		.4byte	0xf59
 2085 0c80 E6000000 		.4byte	.LLST11
 2086 0c84 00       		.byte	0
 2087 0c85 00       		.byte	0
 2088 0c86 24       		.uleb128 0x24
 2089 0c87 3E000000 		.4byte	.LVL36
 2090 0c8b 930F0000 		.4byte	0xf93
 2091 0c8f 24       		.uleb128 0x24
 2092 0c90 42000000 		.4byte	.LVL37
 2093 0c94 9E0F0000 		.4byte	0xf9e
 2094 0c98 25       		.uleb128 0x25
 2095 0c99 6C000000 		.4byte	.LVL40
 2096 0c9d A90F0000 		.4byte	0xfa9
 2097 0ca1 26       		.uleb128 0x26
 2098 0ca2 01       		.uleb128 0x1
 2099 0ca3 50       		.byte	0x50
 2100 0ca4 05       		.uleb128 0x5
 2101 0ca5 03       		.byte	0x3
 2102 0ca6 00000000 		.4byte	.LANCHOR1
ARM GAS  /var/folders/d2/nstgp4h54kz7g1l847x_b8wc0000gn/T//ccRPy61C.s 			page 38


 2103 0caa 00       		.byte	0
 2104 0cab 00       		.byte	0
 2105 0cac 00       		.byte	0
 2106 0cad 2A       		.uleb128 0x2a
 2107 0cae 74000000 		.4byte	.LVL41
 2108 0cb2 C90F0000 		.4byte	0xfc9
 2109 0cb6 C00C0000 		.4byte	0xcc0
 2110 0cba 26       		.uleb128 0x26
 2111 0cbb 01       		.uleb128 0x1
 2112 0cbc 50       		.byte	0x50
 2113 0cbd 01       		.uleb128 0x1
 2114 0cbe 3E       		.byte	0x3e
 2115 0cbf 00       		.byte	0
 2116 0cc0 24       		.uleb128 0x24
 2117 0cc1 7A000000 		.4byte	.LVL42
 2118 0cc5 B50F0000 		.4byte	0xfb5
 2119 0cc9 00       		.byte	0
 2120 0cca 2B       		.uleb128 0x2b
 2121 0ccb 24020000 		.4byte	.LASF158
 2122 0ccf 01       		.byte	0x1
 2123 0cd0 57       		.byte	0x57
 2124 0cd1 32010000 		.4byte	0x132
 2125 0cd5 00000000 		.4byte	.LFB219
 2126 0cd9 A4000000 		.4byte	.LFE219-.LFB219
 2127 0cdd 01       		.uleb128 0x1
 2128 0cde 9C       		.byte	0x9c
 2129 0cdf 540E0000 		.4byte	0xe54
 2130 0ce3 1E       		.uleb128 0x1e
 2131 0ce4 747000   		.ascii	"tp\000"
 2132 0ce7 01       		.byte	0x1
 2133 0ce8 57       		.byte	0x57
 2134 0ce9 A2020000 		.4byte	0x2a2
 2135 0ced FA000000 		.4byte	.LLST0
 2136 0cf1 1E       		.uleb128 0x1e
 2137 0cf2 6D736700 		.ascii	"msg\000"
 2138 0cf6 01       		.byte	0x1
 2139 0cf7 57       		.byte	0x57
 2140 0cf8 32010000 		.4byte	0x132
 2141 0cfc 2E010000 		.4byte	.LLST1
 2142 0d00 2E       		.uleb128 0x2e
 2143 0d01 63747000 		.ascii	"ctp\000"
 2144 0d05 01       		.byte	0x1
 2145 0d06 58       		.byte	0x58
 2146 0d07 A2020000 		.4byte	0x2a2
 2147 0d0b A4010000 		.4byte	.LLST2
 2148 0d0f 1F       		.uleb128 0x1f
 2149 0d10 01070000 		.4byte	.LASF156
 2150 0d14 640E0000 		.4byte	0xe64
 2151 0d18 05       		.uleb128 0x5
 2152 0d19 03       		.byte	0x3
 2153 0d1a 00000000 		.4byte	__func__.7851
 2154 0d1e 20       		.uleb128 0x20
 2155 0d1f DD0E0000 		.4byte	0xedd
 2156 0d23 18000000 		.4byte	.LBB49
 2157 0d27 0E000000 		.4byte	.LBE49-.LBB49
 2158 0d2b 01       		.byte	0x1
 2159 0d2c 5C       		.byte	0x5c
ARM GAS  /var/folders/d2/nstgp4h54kz7g1l847x_b8wc0000gn/T//ccRPy61C.s 			page 39


 2160 0d2d 730D0000 		.4byte	0xd73
 2161 0d31 21       		.uleb128 0x21
 2162 0d32 430F0000 		.4byte	0xf43
 2163 0d36 18000000 		.4byte	.LBB51
 2164 0d3a 06000000 		.4byte	.LBE51-.LBB51
 2165 0d3e 03       		.byte	0x3
 2166 0d3f 5C01     		.2byte	0x15c
 2167 0d41 600D0000 		.4byte	0xd60
 2168 0d45 22       		.uleb128 0x22
 2169 0d46 4C0F0000 		.4byte	0xf4c
 2170 0d4a 18000000 		.4byte	.LBB52
 2171 0d4e 06000000 		.4byte	.LBE52-.LBB52
 2172 0d52 0D       		.byte	0xd
 2173 0d53 BF01     		.2byte	0x1bf
 2174 0d55 23       		.uleb128 0x23
 2175 0d56 590F0000 		.4byte	0xf59
 2176 0d5a C2010000 		.4byte	.LLST3
 2177 0d5e 00       		.byte	0
 2178 0d5f 00       		.byte	0
 2179 0d60 24       		.uleb128 0x24
 2180 0d61 22000000 		.4byte	.LVL4
 2181 0d65 660F0000 		.4byte	0xf66
 2182 0d69 24       		.uleb128 0x24
 2183 0d6a 26000000 		.4byte	.LVL5
 2184 0d6e 710F0000 		.4byte	0xf71
 2185 0d72 00       		.byte	0
 2186 0d73 27       		.uleb128 0x27
 2187 0d74 150F0000 		.4byte	0xf15
 2188 0d78 30000000 		.4byte	.LBB54
 2189 0d7c 00000000 		.4byte	.Ldebug_ranges0+0
 2190 0d80 01       		.byte	0x1
 2191 0d81 5F       		.byte	0x5f
 2192 0d82 990D0000 		.4byte	0xd99
 2193 0d86 23       		.uleb128 0x23
 2194 0d87 2D0F0000 		.4byte	0xf2d
 2195 0d8b D7010000 		.4byte	.LLST4
 2196 0d8f 23       		.uleb128 0x23
 2197 0d90 220F0000 		.4byte	0xf22
 2198 0d94 03020000 		.4byte	.LLST5
 2199 0d98 00       		.byte	0
 2200 0d99 27       		.uleb128 0x27
 2201 0d9a AD0E0000 		.4byte	0xead
 2202 0d9e 4A000000 		.4byte	.LBB58
 2203 0da2 18000000 		.4byte	.Ldebug_ranges0+0x18
 2204 0da6 01       		.byte	0x1
 2205 0da7 65       		.byte	0x65
 2206 0da8 0C0E0000 		.4byte	0xe0c
 2207 0dac 28       		.uleb128 0x28
 2208 0dad 18000000 		.4byte	.Ldebug_ranges0+0x18
 2209 0db1 29       		.uleb128 0x29
 2210 0db2 BA0E0000 		.4byte	0xeba
 2211 0db6 21       		.uleb128 0x21
 2212 0db7 3A0F0000 		.4byte	0xf3a
 2213 0dbb 62000000 		.4byte	.LBB60
 2214 0dbf 06000000 		.4byte	.LBE60-.LBB60
 2215 0dc3 03       		.byte	0x3
 2216 0dc4 7301     		.2byte	0x173
ARM GAS  /var/folders/d2/nstgp4h54kz7g1l847x_b8wc0000gn/T//ccRPy61C.s 			page 40


 2217 0dc6 E50D0000 		.4byte	0xde5
 2218 0dca 22       		.uleb128 0x22
 2219 0dcb 4C0F0000 		.4byte	0xf4c
 2220 0dcf 62000000 		.4byte	.LBB61
 2221 0dd3 06000000 		.4byte	.LBE61-.LBB61
 2222 0dd7 0D       		.byte	0xd
 2223 0dd8 CD01     		.2byte	0x1cd
 2224 0dda 23       		.uleb128 0x23
 2225 0ddb 590F0000 		.4byte	0xf59
 2226 0ddf 16020000 		.4byte	.LLST6
 2227 0de3 00       		.byte	0
 2228 0de4 00       		.byte	0
 2229 0de5 24       		.uleb128 0x24
 2230 0de6 4E000000 		.4byte	.LVL12
 2231 0dea 930F0000 		.4byte	0xf93
 2232 0dee 24       		.uleb128 0x24
 2233 0def 52000000 		.4byte	.LVL13
 2234 0df3 9E0F0000 		.4byte	0xf9e
 2235 0df7 25       		.uleb128 0x25
 2236 0df8 7E000000 		.4byte	.LVL18
 2237 0dfc A90F0000 		.4byte	0xfa9
 2238 0e00 26       		.uleb128 0x26
 2239 0e01 01       		.uleb128 0x1
 2240 0e02 50       		.byte	0x50
 2241 0e03 05       		.uleb128 0x5
 2242 0e04 03       		.byte	0x3
 2243 0e05 00000000 		.4byte	.LANCHOR1
 2244 0e09 00       		.byte	0
 2245 0e0a 00       		.byte	0
 2246 0e0b 00       		.byte	0
 2247 0e0c 2A       		.uleb128 0x2a
 2248 0e0d 48000000 		.4byte	.LVL10
 2249 0e11 C90F0000 		.4byte	0xfc9
 2250 0e15 1F0E0000 		.4byte	0xe1f
 2251 0e19 26       		.uleb128 0x26
 2252 0e1a 01       		.uleb128 0x1
 2253 0e1b 50       		.byte	0x50
 2254 0e1c 01       		.uleb128 0x1
 2255 0e1d 3C       		.byte	0x3c
 2256 0e1e 00       		.byte	0
 2257 0e1f 2A       		.uleb128 0x2a
 2258 0e20 86000000 		.4byte	.LVL20
 2259 0e24 D50F0000 		.4byte	0xfd5
 2260 0e28 330E0000 		.4byte	0xe33
 2261 0e2c 26       		.uleb128 0x26
 2262 0e2d 01       		.uleb128 0x1
 2263 0e2e 50       		.byte	0x50
 2264 0e2f 02       		.uleb128 0x2
 2265 0e30 75       		.byte	0x75
 2266 0e31 00       		.sleb128 0
 2267 0e32 00       		.byte	0
 2268 0e33 2A       		.uleb128 0x2a
 2269 0e34 8E000000 		.4byte	.LVL23
 2270 0e38 A90F0000 		.4byte	0xfa9
 2271 0e3c 4A0E0000 		.4byte	0xe4a
 2272 0e40 26       		.uleb128 0x26
 2273 0e41 01       		.uleb128 0x1
ARM GAS  /var/folders/d2/nstgp4h54kz7g1l847x_b8wc0000gn/T//ccRPy61C.s 			page 41


 2274 0e42 50       		.byte	0x50
 2275 0e43 05       		.uleb128 0x5
 2276 0e44 03       		.byte	0x3
 2277 0e45 00000000 		.4byte	.LANCHOR0
 2278 0e49 00       		.byte	0
 2279 0e4a 24       		.uleb128 0x24
 2280 0e4b 94000000 		.4byte	.LVL25
 2281 0e4f B50F0000 		.4byte	0xfb5
 2282 0e53 00       		.byte	0
 2283 0e54 17       		.uleb128 0x17
 2284 0e55 A3080000 		.4byte	0x8a3
 2285 0e59 640E0000 		.4byte	0xe64
 2286 0e5d 18       		.uleb128 0x18
 2287 0e5e 2C000000 		.4byte	0x2c
 2288 0e62 09       		.byte	0x9
 2289 0e63 00       		.byte	0
 2290 0e64 1B       		.uleb128 0x1b
 2291 0e65 540E0000 		.4byte	0xe54
 2292 0e69 2F       		.uleb128 0x2f
 2293 0e6a 58090000 		.4byte	.LASF160
 2294 0e6e 05       		.byte	0x5
 2295 0e6f 6F       		.byte	0x6f
 2296 0e70 03       		.byte	0x3
 2297 0e71 8B0E0000 		.4byte	0xe8b
 2298 0e75 30       		.uleb128 0x30
 2299 0e76 747000   		.ascii	"tp\000"
 2300 0e79 05       		.byte	0x5
 2301 0e7a 6F       		.byte	0x6f
 2302 0e7b A2020000 		.4byte	0x2a2
 2303 0e7f 30       		.uleb128 0x30
 2304 0e80 6D736700 		.ascii	"msg\000"
 2305 0e84 05       		.byte	0x5
 2306 0e85 6F       		.byte	0x6f
 2307 0e86 32010000 		.4byte	0x132
 2308 0e8a 00       		.byte	0
 2309 0e8b 31       		.uleb128 0x31
 2310 0e8c 47020000 		.4byte	.LASF162
 2311 0e90 05       		.byte	0x5
 2312 0e91 4F       		.byte	0x4f
 2313 0e92 A60E0000 		.4byte	0xea6
 2314 0e96 03       		.byte	0x3
 2315 0e97 A60E0000 		.4byte	0xea6
 2316 0e9b 30       		.uleb128 0x30
 2317 0e9c 747000   		.ascii	"tp\000"
 2318 0e9f 05       		.byte	0x5
 2319 0ea0 4F       		.byte	0x4f
 2320 0ea1 A2020000 		.4byte	0x2a2
 2321 0ea5 00       		.byte	0
 2322 0ea6 03       		.uleb128 0x3
 2323 0ea7 01       		.byte	0x1
 2324 0ea8 02       		.byte	0x2
 2325 0ea9 8B060000 		.4byte	.LASF159
 2326 0ead 32       		.uleb128 0x32
 2327 0eae 41090000 		.4byte	.LASF161
 2328 0eb2 03       		.byte	0x3
 2329 0eb3 6601     		.2byte	0x166
 2330 0eb5 03       		.byte	0x3
ARM GAS  /var/folders/d2/nstgp4h54kz7g1l847x_b8wc0000gn/T//ccRPy61C.s 			page 42


 2331 0eb6 C80E0000 		.4byte	0xec8
 2332 0eba 33       		.uleb128 0x33
 2333 0ebb 01070000 		.4byte	.LASF156
 2334 0ebf D80E0000 		.4byte	0xed8
 2335 0ec3 41090000 		.4byte	.LASF161
 2336 0ec7 00       		.byte	0
 2337 0ec8 17       		.uleb128 0x17
 2338 0ec9 A3080000 		.4byte	0x8a3
 2339 0ecd D80E0000 		.4byte	0xed8
 2340 0ed1 18       		.uleb128 0x18
 2341 0ed2 2C000000 		.4byte	0x2c
 2342 0ed6 0B       		.byte	0xb
 2343 0ed7 00       		.byte	0
 2344 0ed8 1B       		.uleb128 0x1b
 2345 0ed9 C80E0000 		.4byte	0xec8
 2346 0edd 34       		.uleb128 0x34
 2347 0ede 12070000 		.4byte	.LASF165
 2348 0ee2 03       		.byte	0x3
 2349 0ee3 5A01     		.2byte	0x15a
 2350 0ee5 03       		.byte	0x3
 2351 0ee6 35       		.uleb128 0x35
 2352 0ee7 F9070000 		.4byte	.LASF163
 2353 0eeb 04       		.byte	0x4
 2354 0eec 9F02     		.2byte	0x29f
 2355 0eee A2020000 		.4byte	0x2a2
 2356 0ef2 03       		.byte	0x3
 2357 0ef3 0F0F0000 		.4byte	0xf0f
 2358 0ef7 36       		.uleb128 0x36
 2359 0ef8 74717000 		.ascii	"tqp\000"
 2360 0efc 04       		.byte	0x4
 2361 0efd 9F02     		.2byte	0x29f
 2362 0eff 0F0F0000 		.4byte	0xf0f
 2363 0f03 37       		.uleb128 0x37
 2364 0f04 747000   		.ascii	"tp\000"
 2365 0f07 04       		.byte	0x4
 2366 0f08 A002     		.2byte	0x2a0
 2367 0f0a A2020000 		.4byte	0x2a2
 2368 0f0e 00       		.byte	0
 2369 0f0f 0A       		.uleb128 0xa
 2370 0f10 04       		.byte	0x4
 2371 0f11 CC020000 		.4byte	0x2cc
 2372 0f15 32       		.uleb128 0x32
 2373 0f16 73000000 		.4byte	.LASF164
 2374 0f1a 04       		.byte	0x4
 2375 0f1b 9702     		.2byte	0x297
 2376 0f1d 03       		.byte	0x3
 2377 0f1e 3A0F0000 		.4byte	0xf3a
 2378 0f22 36       		.uleb128 0x36
 2379 0f23 747000   		.ascii	"tp\000"
 2380 0f26 04       		.byte	0x4
 2381 0f27 9702     		.2byte	0x297
 2382 0f29 A2020000 		.4byte	0x2a2
 2383 0f2d 36       		.uleb128 0x36
 2384 0f2e 74717000 		.ascii	"tqp\000"
 2385 0f32 04       		.byte	0x4
 2386 0f33 9702     		.2byte	0x297
 2387 0f35 0F0F0000 		.4byte	0xf0f
ARM GAS  /var/folders/d2/nstgp4h54kz7g1l847x_b8wc0000gn/T//ccRPy61C.s 			page 43


 2388 0f39 00       		.byte	0
 2389 0f3a 34       		.uleb128 0x34
 2390 0f3b FB010000 		.4byte	.LASF166
 2391 0f3f 0D       		.byte	0xd
 2392 0f40 CA01     		.2byte	0x1ca
 2393 0f42 03       		.byte	0x3
 2394 0f43 34       		.uleb128 0x34
 2395 0f44 D9000000 		.4byte	.LASF167
 2396 0f48 0D       		.byte	0xd
 2397 0f49 BC01     		.2byte	0x1bc
 2398 0f4b 03       		.byte	0x3
 2399 0f4c 32       		.uleb128 0x32
 2400 0f4d 34080000 		.4byte	.LASF168
 2401 0f51 02       		.byte	0x2
 2402 0f52 2002     		.2byte	0x220
 2403 0f54 03       		.byte	0x3
 2404 0f55 660F0000 		.4byte	0xf66
 2405 0f59 38       		.uleb128 0x38
 2406 0f5a B0020000 		.4byte	.LASF169
 2407 0f5e 02       		.byte	0x2
 2408 0f5f 2002     		.2byte	0x220
 2409 0f61 CF000000 		.4byte	0xcf
 2410 0f65 00       		.byte	0
 2411 0f66 39       		.uleb128 0x39
 2412 0f67 47010000 		.4byte	.LASF170
 2413 0f6b 47010000 		.4byte	.LASF170
 2414 0f6f 10       		.byte	0x10
 2415 0f70 4F       		.byte	0x4f
 2416 0f71 39       		.uleb128 0x39
 2417 0f72 91050000 		.4byte	.LASF171
 2418 0f76 91050000 		.4byte	.LASF171
 2419 0f7a 0E       		.byte	0xe
 2420 0f7b D8       		.byte	0xd8
 2421 0f7c 39       		.uleb128 0x39
 2422 0f7d F4040000 		.4byte	.LASF172
 2423 0f81 F4040000 		.4byte	.LASF172
 2424 0f85 0E       		.byte	0xe
 2425 0f86 DF       		.byte	0xdf
 2426 0f87 3A       		.uleb128 0x3a
 2427 0f88 AC040000 		.4byte	.LASF173
 2428 0f8c AC040000 		.4byte	.LASF173
 2429 0f90 04       		.byte	0x4
 2430 0f91 1602     		.2byte	0x216
 2431 0f93 39       		.uleb128 0x39
 2432 0f94 E9080000 		.4byte	.LASF174
 2433 0f98 E9080000 		.4byte	.LASF174
 2434 0f9c 0E       		.byte	0xe
 2435 0f9d D9       		.byte	0xd9
 2436 0f9e 39       		.uleb128 0x39
 2437 0f9f 6C050000 		.4byte	.LASF175
 2438 0fa3 6C050000 		.4byte	.LASF175
 2439 0fa7 10       		.byte	0x10
 2440 0fa8 50       		.byte	0x50
 2441 0fa9 3A       		.uleb128 0x3a
 2442 0faa 88020000 		.4byte	.LASF176
 2443 0fae 88020000 		.4byte	.LASF176
 2444 0fb2 03       		.byte	0x3
ARM GAS  /var/folders/d2/nstgp4h54kz7g1l847x_b8wc0000gn/T//ccRPy61C.s 			page 44


 2445 0fb3 1601     		.2byte	0x116
 2446 0fb5 3B       		.uleb128 0x3b
 2447 0fb6 4A070000 		.4byte	.LASF184
 2448 0fba 4A070000 		.4byte	.LASF184
 2449 0fbe 39       		.uleb128 0x39
 2450 0fbf CB040000 		.4byte	.LASF177
 2451 0fc3 CB040000 		.4byte	.LASF177
 2452 0fc7 0E       		.byte	0xe
 2453 0fc8 DE       		.byte	0xde
 2454 0fc9 3A       		.uleb128 0x3a
 2455 0fca 68070000 		.4byte	.LASF178
 2456 0fce 68070000 		.4byte	.LASF178
 2457 0fd2 04       		.byte	0x4
 2458 0fd3 1402     		.2byte	0x214
 2459 0fd5 3A       		.uleb128 0x3a
 2460 0fd6 9E070000 		.4byte	.LASF179
 2461 0fda 9E070000 		.4byte	.LASF179
 2462 0fde 04       		.byte	0x4
 2463 0fdf 1302     		.2byte	0x213
 2464 0fe1 00       		.byte	0
 2465              		.section	.debug_abbrev,"",%progbits
 2466              	.Ldebug_abbrev0:
 2467 0000 01       		.uleb128 0x1
 2468 0001 11       		.uleb128 0x11
 2469 0002 01       		.byte	0x1
 2470 0003 25       		.uleb128 0x25
 2471 0004 0E       		.uleb128 0xe
 2472 0005 13       		.uleb128 0x13
 2473 0006 0B       		.uleb128 0xb
 2474 0007 03       		.uleb128 0x3
 2475 0008 0E       		.uleb128 0xe
 2476 0009 1B       		.uleb128 0x1b
 2477 000a 0E       		.uleb128 0xe
 2478 000b 55       		.uleb128 0x55
 2479 000c 17       		.uleb128 0x17
 2480 000d 11       		.uleb128 0x11
 2481 000e 01       		.uleb128 0x1
 2482 000f 10       		.uleb128 0x10
 2483 0010 17       		.uleb128 0x17
 2484 0011 00       		.byte	0
 2485 0012 00       		.byte	0
 2486 0013 02       		.uleb128 0x2
 2487 0014 24       		.uleb128 0x24
 2488 0015 00       		.byte	0
 2489 0016 0B       		.uleb128 0xb
 2490 0017 0B       		.uleb128 0xb
 2491 0018 3E       		.uleb128 0x3e
 2492 0019 0B       		.uleb128 0xb
 2493 001a 03       		.uleb128 0x3
 2494 001b 08       		.uleb128 0x8
 2495 001c 00       		.byte	0
 2496 001d 00       		.byte	0
 2497 001e 03       		.uleb128 0x3
 2498 001f 24       		.uleb128 0x24
 2499 0020 00       		.byte	0
 2500 0021 0B       		.uleb128 0xb
 2501 0022 0B       		.uleb128 0xb
ARM GAS  /var/folders/d2/nstgp4h54kz7g1l847x_b8wc0000gn/T//ccRPy61C.s 			page 45


 2502 0023 3E       		.uleb128 0x3e
 2503 0024 0B       		.uleb128 0xb
 2504 0025 03       		.uleb128 0x3
 2505 0026 0E       		.uleb128 0xe
 2506 0027 00       		.byte	0
 2507 0028 00       		.byte	0
 2508 0029 04       		.uleb128 0x4
 2509 002a 16       		.uleb128 0x16
 2510 002b 00       		.byte	0
 2511 002c 03       		.uleb128 0x3
 2512 002d 0E       		.uleb128 0xe
 2513 002e 3A       		.uleb128 0x3a
 2514 002f 0B       		.uleb128 0xb
 2515 0030 3B       		.uleb128 0x3b
 2516 0031 0B       		.uleb128 0xb
 2517 0032 49       		.uleb128 0x49
 2518 0033 13       		.uleb128 0x13
 2519 0034 00       		.byte	0
 2520 0035 00       		.byte	0
 2521 0036 05       		.uleb128 0x5
 2522 0037 35       		.uleb128 0x35
 2523 0038 00       		.byte	0
 2524 0039 49       		.uleb128 0x49
 2525 003a 13       		.uleb128 0x13
 2526 003b 00       		.byte	0
 2527 003c 00       		.byte	0
 2528 003d 06       		.uleb128 0x6
 2529 003e 13       		.uleb128 0x13
 2530 003f 01       		.byte	0x1
 2531 0040 03       		.uleb128 0x3
 2532 0041 0E       		.uleb128 0xe
 2533 0042 0B       		.uleb128 0xb
 2534 0043 0B       		.uleb128 0xb
 2535 0044 3A       		.uleb128 0x3a
 2536 0045 0B       		.uleb128 0xb
 2537 0046 3B       		.uleb128 0x3b
 2538 0047 0B       		.uleb128 0xb
 2539 0048 01       		.uleb128 0x1
 2540 0049 13       		.uleb128 0x13
 2541 004a 00       		.byte	0
 2542 004b 00       		.byte	0
 2543 004c 07       		.uleb128 0x7
 2544 004d 0D       		.uleb128 0xd
 2545 004e 00       		.byte	0
 2546 004f 03       		.uleb128 0x3
 2547 0050 0E       		.uleb128 0xe
 2548 0051 3A       		.uleb128 0x3a
 2549 0052 0B       		.uleb128 0xb
 2550 0053 3B       		.uleb128 0x3b
 2551 0054 0B       		.uleb128 0xb
 2552 0055 49       		.uleb128 0x49
 2553 0056 13       		.uleb128 0x13
 2554 0057 38       		.uleb128 0x38
 2555 0058 0B       		.uleb128 0xb
 2556 0059 00       		.byte	0
 2557 005a 00       		.byte	0
 2558 005b 08       		.uleb128 0x8
ARM GAS  /var/folders/d2/nstgp4h54kz7g1l847x_b8wc0000gn/T//ccRPy61C.s 			page 46


 2559 005c 0D       		.uleb128 0xd
 2560 005d 00       		.byte	0
 2561 005e 03       		.uleb128 0x3
 2562 005f 08       		.uleb128 0x8
 2563 0060 3A       		.uleb128 0x3a
 2564 0061 0B       		.uleb128 0xb
 2565 0062 3B       		.uleb128 0x3b
 2566 0063 05       		.uleb128 0x5
 2567 0064 49       		.uleb128 0x49
 2568 0065 13       		.uleb128 0x13
 2569 0066 38       		.uleb128 0x38
 2570 0067 0B       		.uleb128 0xb
 2571 0068 00       		.byte	0
 2572 0069 00       		.byte	0
 2573 006a 09       		.uleb128 0x9
 2574 006b 0D       		.uleb128 0xd
 2575 006c 00       		.byte	0
 2576 006d 03       		.uleb128 0x3
 2577 006e 0E       		.uleb128 0xe
 2578 006f 3A       		.uleb128 0x3a
 2579 0070 0B       		.uleb128 0xb
 2580 0071 3B       		.uleb128 0x3b
 2581 0072 05       		.uleb128 0x5
 2582 0073 49       		.uleb128 0x49
 2583 0074 13       		.uleb128 0x13
 2584 0075 38       		.uleb128 0x38
 2585 0076 0B       		.uleb128 0xb
 2586 0077 00       		.byte	0
 2587 0078 00       		.byte	0
 2588 0079 0A       		.uleb128 0xa
 2589 007a 0F       		.uleb128 0xf
 2590 007b 00       		.byte	0
 2591 007c 0B       		.uleb128 0xb
 2592 007d 0B       		.uleb128 0xb
 2593 007e 49       		.uleb128 0x49
 2594 007f 13       		.uleb128 0x13
 2595 0080 00       		.byte	0
 2596 0081 00       		.byte	0
 2597 0082 0B       		.uleb128 0xb
 2598 0083 13       		.uleb128 0x13
 2599 0084 01       		.byte	0x1
 2600 0085 03       		.uleb128 0x3
 2601 0086 0E       		.uleb128 0xe
 2602 0087 0B       		.uleb128 0xb
 2603 0088 0B       		.uleb128 0xb
 2604 0089 3A       		.uleb128 0x3a
 2605 008a 0B       		.uleb128 0xb
 2606 008b 3B       		.uleb128 0x3b
 2607 008c 05       		.uleb128 0x5
 2608 008d 01       		.uleb128 0x1
 2609 008e 13       		.uleb128 0x13
 2610 008f 00       		.byte	0
 2611 0090 00       		.byte	0
 2612 0091 0C       		.uleb128 0xc
 2613 0092 15       		.uleb128 0x15
 2614 0093 01       		.byte	0x1
 2615 0094 27       		.uleb128 0x27
ARM GAS  /var/folders/d2/nstgp4h54kz7g1l847x_b8wc0000gn/T//ccRPy61C.s 			page 47


 2616 0095 19       		.uleb128 0x19
 2617 0096 01       		.uleb128 0x1
 2618 0097 13       		.uleb128 0x13
 2619 0098 00       		.byte	0
 2620 0099 00       		.byte	0
 2621 009a 0D       		.uleb128 0xd
 2622 009b 05       		.uleb128 0x5
 2623 009c 00       		.byte	0
 2624 009d 49       		.uleb128 0x49
 2625 009e 13       		.uleb128 0x13
 2626 009f 00       		.byte	0
 2627 00a0 00       		.byte	0
 2628 00a1 0E       		.uleb128 0xe
 2629 00a2 0F       		.uleb128 0xf
 2630 00a3 00       		.byte	0
 2631 00a4 0B       		.uleb128 0xb
 2632 00a5 0B       		.uleb128 0xb
 2633 00a6 00       		.byte	0
 2634 00a7 00       		.byte	0
 2635 00a8 0F       		.uleb128 0xf
 2636 00a9 13       		.uleb128 0x13
 2637 00aa 01       		.byte	0x1
 2638 00ab 03       		.uleb128 0x3
 2639 00ac 0E       		.uleb128 0xe
 2640 00ad 0B       		.uleb128 0xb
 2641 00ae 05       		.uleb128 0x5
 2642 00af 3A       		.uleb128 0x3a
 2643 00b0 0B       		.uleb128 0xb
 2644 00b1 3B       		.uleb128 0x3b
 2645 00b2 05       		.uleb128 0x5
 2646 00b3 01       		.uleb128 0x1
 2647 00b4 13       		.uleb128 0x13
 2648 00b5 00       		.byte	0
 2649 00b6 00       		.byte	0
 2650 00b7 10       		.uleb128 0x10
 2651 00b8 0D       		.uleb128 0xd
 2652 00b9 00       		.byte	0
 2653 00ba 03       		.uleb128 0x3
 2654 00bb 0E       		.uleb128 0xe
 2655 00bc 3A       		.uleb128 0x3a
 2656 00bd 0B       		.uleb128 0xb
 2657 00be 3B       		.uleb128 0x3b
 2658 00bf 05       		.uleb128 0x5
 2659 00c0 49       		.uleb128 0x49
 2660 00c1 13       		.uleb128 0x13
 2661 00c2 38       		.uleb128 0x38
 2662 00c3 05       		.uleb128 0x5
 2663 00c4 00       		.byte	0
 2664 00c5 00       		.byte	0
 2665 00c6 11       		.uleb128 0x11
 2666 00c7 0D       		.uleb128 0xd
 2667 00c8 00       		.byte	0
 2668 00c9 03       		.uleb128 0x3
 2669 00ca 08       		.uleb128 0x8
 2670 00cb 3A       		.uleb128 0x3a
 2671 00cc 0B       		.uleb128 0xb
 2672 00cd 3B       		.uleb128 0x3b
ARM GAS  /var/folders/d2/nstgp4h54kz7g1l847x_b8wc0000gn/T//ccRPy61C.s 			page 48


 2673 00ce 05       		.uleb128 0x5
 2674 00cf 49       		.uleb128 0x49
 2675 00d0 13       		.uleb128 0x13
 2676 00d1 38       		.uleb128 0x38
 2677 00d2 05       		.uleb128 0x5
 2678 00d3 00       		.byte	0
 2679 00d4 00       		.byte	0
 2680 00d5 12       		.uleb128 0x12
 2681 00d6 34       		.uleb128 0x34
 2682 00d7 00       		.byte	0
 2683 00d8 03       		.uleb128 0x3
 2684 00d9 0E       		.uleb128 0xe
 2685 00da 3A       		.uleb128 0x3a
 2686 00db 0B       		.uleb128 0xb
 2687 00dc 3B       		.uleb128 0x3b
 2688 00dd 05       		.uleb128 0x5
 2689 00de 49       		.uleb128 0x49
 2690 00df 13       		.uleb128 0x13
 2691 00e0 3F       		.uleb128 0x3f
 2692 00e1 19       		.uleb128 0x19
 2693 00e2 3C       		.uleb128 0x3c
 2694 00e3 19       		.uleb128 0x19
 2695 00e4 00       		.byte	0
 2696 00e5 00       		.byte	0
 2697 00e6 13       		.uleb128 0x13
 2698 00e7 34       		.uleb128 0x34
 2699 00e8 00       		.byte	0
 2700 00e9 03       		.uleb128 0x3
 2701 00ea 0E       		.uleb128 0xe
 2702 00eb 3A       		.uleb128 0x3a
 2703 00ec 0B       		.uleb128 0xb
 2704 00ed 3B       		.uleb128 0x3b
 2705 00ee 0B       		.uleb128 0xb
 2706 00ef 49       		.uleb128 0x49
 2707 00f0 13       		.uleb128 0x13
 2708 00f1 3F       		.uleb128 0x3f
 2709 00f2 19       		.uleb128 0x19
 2710 00f3 3C       		.uleb128 0x3c
 2711 00f4 19       		.uleb128 0x19
 2712 00f5 00       		.byte	0
 2713 00f6 00       		.byte	0
 2714 00f7 14       		.uleb128 0x14
 2715 00f8 0D       		.uleb128 0xd
 2716 00f9 00       		.byte	0
 2717 00fa 03       		.uleb128 0x3
 2718 00fb 08       		.uleb128 0x8
 2719 00fc 3A       		.uleb128 0x3a
 2720 00fd 0B       		.uleb128 0xb
 2721 00fe 3B       		.uleb128 0x3b
 2722 00ff 0B       		.uleb128 0xb
 2723 0100 49       		.uleb128 0x49
 2724 0101 13       		.uleb128 0x13
 2725 0102 38       		.uleb128 0x38
 2726 0103 0B       		.uleb128 0xb
 2727 0104 00       		.byte	0
 2728 0105 00       		.byte	0
 2729 0106 15       		.uleb128 0x15
ARM GAS  /var/folders/d2/nstgp4h54kz7g1l847x_b8wc0000gn/T//ccRPy61C.s 			page 49


 2730 0107 13       		.uleb128 0x13
 2731 0108 01       		.byte	0x1
 2732 0109 0B       		.uleb128 0xb
 2733 010a 0B       		.uleb128 0xb
 2734 010b 3A       		.uleb128 0x3a
 2735 010c 0B       		.uleb128 0xb
 2736 010d 3B       		.uleb128 0x3b
 2737 010e 0B       		.uleb128 0xb
 2738 010f 01       		.uleb128 0x1
 2739 0110 13       		.uleb128 0x13
 2740 0111 00       		.byte	0
 2741 0112 00       		.byte	0
 2742 0113 16       		.uleb128 0x16
 2743 0114 13       		.uleb128 0x13
 2744 0115 01       		.byte	0x1
 2745 0116 0B       		.uleb128 0xb
 2746 0117 05       		.uleb128 0x5
 2747 0118 3A       		.uleb128 0x3a
 2748 0119 0B       		.uleb128 0xb
 2749 011a 3B       		.uleb128 0x3b
 2750 011b 0B       		.uleb128 0xb
 2751 011c 01       		.uleb128 0x1
 2752 011d 13       		.uleb128 0x13
 2753 011e 00       		.byte	0
 2754 011f 00       		.byte	0
 2755 0120 17       		.uleb128 0x17
 2756 0121 01       		.uleb128 0x1
 2757 0122 01       		.byte	0x1
 2758 0123 49       		.uleb128 0x49
 2759 0124 13       		.uleb128 0x13
 2760 0125 01       		.uleb128 0x1
 2761 0126 13       		.uleb128 0x13
 2762 0127 00       		.byte	0
 2763 0128 00       		.byte	0
 2764 0129 18       		.uleb128 0x18
 2765 012a 21       		.uleb128 0x21
 2766 012b 00       		.byte	0
 2767 012c 49       		.uleb128 0x49
 2768 012d 13       		.uleb128 0x13
 2769 012e 2F       		.uleb128 0x2f
 2770 012f 0B       		.uleb128 0xb
 2771 0130 00       		.byte	0
 2772 0131 00       		.byte	0
 2773 0132 19       		.uleb128 0x19
 2774 0133 17       		.uleb128 0x17
 2775 0134 01       		.byte	0x1
 2776 0135 0B       		.uleb128 0xb
 2777 0136 0B       		.uleb128 0xb
 2778 0137 3A       		.uleb128 0x3a
 2779 0138 0B       		.uleb128 0xb
 2780 0139 3B       		.uleb128 0x3b
 2781 013a 0B       		.uleb128 0xb
 2782 013b 01       		.uleb128 0x1
 2783 013c 13       		.uleb128 0x13
 2784 013d 00       		.byte	0
 2785 013e 00       		.byte	0
 2786 013f 1A       		.uleb128 0x1a
ARM GAS  /var/folders/d2/nstgp4h54kz7g1l847x_b8wc0000gn/T//ccRPy61C.s 			page 50


 2787 0140 0D       		.uleb128 0xd
 2788 0141 00       		.byte	0
 2789 0142 03       		.uleb128 0x3
 2790 0143 0E       		.uleb128 0xe
 2791 0144 3A       		.uleb128 0x3a
 2792 0145 0B       		.uleb128 0xb
 2793 0146 3B       		.uleb128 0x3b
 2794 0147 05       		.uleb128 0x5
 2795 0148 49       		.uleb128 0x49
 2796 0149 13       		.uleb128 0x13
 2797 014a 00       		.byte	0
 2798 014b 00       		.byte	0
 2799 014c 1B       		.uleb128 0x1b
 2800 014d 26       		.uleb128 0x26
 2801 014e 00       		.byte	0
 2802 014f 49       		.uleb128 0x49
 2803 0150 13       		.uleb128 0x13
 2804 0151 00       		.byte	0
 2805 0152 00       		.byte	0
 2806 0153 1C       		.uleb128 0x1c
 2807 0154 34       		.uleb128 0x34
 2808 0155 00       		.byte	0
 2809 0156 03       		.uleb128 0x3
 2810 0157 08       		.uleb128 0x8
 2811 0158 3A       		.uleb128 0x3a
 2812 0159 0B       		.uleb128 0xb
 2813 015a 3B       		.uleb128 0x3b
 2814 015b 05       		.uleb128 0x5
 2815 015c 49       		.uleb128 0x49
 2816 015d 13       		.uleb128 0x13
 2817 015e 3F       		.uleb128 0x3f
 2818 015f 19       		.uleb128 0x19
 2819 0160 3C       		.uleb128 0x3c
 2820 0161 19       		.uleb128 0x19
 2821 0162 00       		.byte	0
 2822 0163 00       		.byte	0
 2823 0164 1D       		.uleb128 0x1d
 2824 0165 2E       		.uleb128 0x2e
 2825 0166 01       		.byte	0x1
 2826 0167 3F       		.uleb128 0x3f
 2827 0168 19       		.uleb128 0x19
 2828 0169 03       		.uleb128 0x3
 2829 016a 0E       		.uleb128 0xe
 2830 016b 3A       		.uleb128 0x3a
 2831 016c 0B       		.uleb128 0xb
 2832 016d 3B       		.uleb128 0x3b
 2833 016e 0B       		.uleb128 0xb
 2834 016f 27       		.uleb128 0x27
 2835 0170 19       		.uleb128 0x19
 2836 0171 11       		.uleb128 0x11
 2837 0172 01       		.uleb128 0x1
 2838 0173 12       		.uleb128 0x12
 2839 0174 06       		.uleb128 0x6
 2840 0175 40       		.uleb128 0x40
 2841 0176 18       		.uleb128 0x18
 2842 0177 9742     		.uleb128 0x2117
 2843 0179 19       		.uleb128 0x19
ARM GAS  /var/folders/d2/nstgp4h54kz7g1l847x_b8wc0000gn/T//ccRPy61C.s 			page 51


 2844 017a 01       		.uleb128 0x1
 2845 017b 13       		.uleb128 0x13
 2846 017c 00       		.byte	0
 2847 017d 00       		.byte	0
 2848 017e 1E       		.uleb128 0x1e
 2849 017f 05       		.uleb128 0x5
 2850 0180 00       		.byte	0
 2851 0181 03       		.uleb128 0x3
 2852 0182 08       		.uleb128 0x8
 2853 0183 3A       		.uleb128 0x3a
 2854 0184 0B       		.uleb128 0xb
 2855 0185 3B       		.uleb128 0x3b
 2856 0186 0B       		.uleb128 0xb
 2857 0187 49       		.uleb128 0x49
 2858 0188 13       		.uleb128 0x13
 2859 0189 02       		.uleb128 0x2
 2860 018a 17       		.uleb128 0x17
 2861 018b 00       		.byte	0
 2862 018c 00       		.byte	0
 2863 018d 1F       		.uleb128 0x1f
 2864 018e 34       		.uleb128 0x34
 2865 018f 00       		.byte	0
 2866 0190 03       		.uleb128 0x3
 2867 0191 0E       		.uleb128 0xe
 2868 0192 49       		.uleb128 0x49
 2869 0193 13       		.uleb128 0x13
 2870 0194 34       		.uleb128 0x34
 2871 0195 19       		.uleb128 0x19
 2872 0196 02       		.uleb128 0x2
 2873 0197 18       		.uleb128 0x18
 2874 0198 00       		.byte	0
 2875 0199 00       		.byte	0
 2876 019a 20       		.uleb128 0x20
 2877 019b 1D       		.uleb128 0x1d
 2878 019c 01       		.byte	0x1
 2879 019d 31       		.uleb128 0x31
 2880 019e 13       		.uleb128 0x13
 2881 019f 11       		.uleb128 0x11
 2882 01a0 01       		.uleb128 0x1
 2883 01a1 12       		.uleb128 0x12
 2884 01a2 06       		.uleb128 0x6
 2885 01a3 58       		.uleb128 0x58
 2886 01a4 0B       		.uleb128 0xb
 2887 01a5 59       		.uleb128 0x59
 2888 01a6 0B       		.uleb128 0xb
 2889 01a7 01       		.uleb128 0x1
 2890 01a8 13       		.uleb128 0x13
 2891 01a9 00       		.byte	0
 2892 01aa 00       		.byte	0
 2893 01ab 21       		.uleb128 0x21
 2894 01ac 1D       		.uleb128 0x1d
 2895 01ad 01       		.byte	0x1
 2896 01ae 31       		.uleb128 0x31
 2897 01af 13       		.uleb128 0x13
 2898 01b0 11       		.uleb128 0x11
 2899 01b1 01       		.uleb128 0x1
 2900 01b2 12       		.uleb128 0x12
ARM GAS  /var/folders/d2/nstgp4h54kz7g1l847x_b8wc0000gn/T//ccRPy61C.s 			page 52


 2901 01b3 06       		.uleb128 0x6
 2902 01b4 58       		.uleb128 0x58
 2903 01b5 0B       		.uleb128 0xb
 2904 01b6 59       		.uleb128 0x59
 2905 01b7 05       		.uleb128 0x5
 2906 01b8 01       		.uleb128 0x1
 2907 01b9 13       		.uleb128 0x13
 2908 01ba 00       		.byte	0
 2909 01bb 00       		.byte	0
 2910 01bc 22       		.uleb128 0x22
 2911 01bd 1D       		.uleb128 0x1d
 2912 01be 01       		.byte	0x1
 2913 01bf 31       		.uleb128 0x31
 2914 01c0 13       		.uleb128 0x13
 2915 01c1 11       		.uleb128 0x11
 2916 01c2 01       		.uleb128 0x1
 2917 01c3 12       		.uleb128 0x12
 2918 01c4 06       		.uleb128 0x6
 2919 01c5 58       		.uleb128 0x58
 2920 01c6 0B       		.uleb128 0xb
 2921 01c7 59       		.uleb128 0x59
 2922 01c8 05       		.uleb128 0x5
 2923 01c9 00       		.byte	0
 2924 01ca 00       		.byte	0
 2925 01cb 23       		.uleb128 0x23
 2926 01cc 05       		.uleb128 0x5
 2927 01cd 00       		.byte	0
 2928 01ce 31       		.uleb128 0x31
 2929 01cf 13       		.uleb128 0x13
 2930 01d0 02       		.uleb128 0x2
 2931 01d1 17       		.uleb128 0x17
 2932 01d2 00       		.byte	0
 2933 01d3 00       		.byte	0
 2934 01d4 24       		.uleb128 0x24
 2935 01d5 898201   		.uleb128 0x4109
 2936 01d8 00       		.byte	0
 2937 01d9 11       		.uleb128 0x11
 2938 01da 01       		.uleb128 0x1
 2939 01db 31       		.uleb128 0x31
 2940 01dc 13       		.uleb128 0x13
 2941 01dd 00       		.byte	0
 2942 01de 00       		.byte	0
 2943 01df 25       		.uleb128 0x25
 2944 01e0 898201   		.uleb128 0x4109
 2945 01e3 01       		.byte	0x1
 2946 01e4 11       		.uleb128 0x11
 2947 01e5 01       		.uleb128 0x1
 2948 01e6 31       		.uleb128 0x31
 2949 01e7 13       		.uleb128 0x13
 2950 01e8 00       		.byte	0
 2951 01e9 00       		.byte	0
 2952 01ea 26       		.uleb128 0x26
 2953 01eb 8A8201   		.uleb128 0x410a
 2954 01ee 00       		.byte	0
 2955 01ef 02       		.uleb128 0x2
 2956 01f0 18       		.uleb128 0x18
 2957 01f1 9142     		.uleb128 0x2111
ARM GAS  /var/folders/d2/nstgp4h54kz7g1l847x_b8wc0000gn/T//ccRPy61C.s 			page 53


 2958 01f3 18       		.uleb128 0x18
 2959 01f4 00       		.byte	0
 2960 01f5 00       		.byte	0
 2961 01f6 27       		.uleb128 0x27
 2962 01f7 1D       		.uleb128 0x1d
 2963 01f8 01       		.byte	0x1
 2964 01f9 31       		.uleb128 0x31
 2965 01fa 13       		.uleb128 0x13
 2966 01fb 52       		.uleb128 0x52
 2967 01fc 01       		.uleb128 0x1
 2968 01fd 55       		.uleb128 0x55
 2969 01fe 17       		.uleb128 0x17
 2970 01ff 58       		.uleb128 0x58
 2971 0200 0B       		.uleb128 0xb
 2972 0201 59       		.uleb128 0x59
 2973 0202 0B       		.uleb128 0xb
 2974 0203 01       		.uleb128 0x1
 2975 0204 13       		.uleb128 0x13
 2976 0205 00       		.byte	0
 2977 0206 00       		.byte	0
 2978 0207 28       		.uleb128 0x28
 2979 0208 0B       		.uleb128 0xb
 2980 0209 01       		.byte	0x1
 2981 020a 55       		.uleb128 0x55
 2982 020b 17       		.uleb128 0x17
 2983 020c 00       		.byte	0
 2984 020d 00       		.byte	0
 2985 020e 29       		.uleb128 0x29
 2986 020f 34       		.uleb128 0x34
 2987 0210 00       		.byte	0
 2988 0211 31       		.uleb128 0x31
 2989 0212 13       		.uleb128 0x13
 2990 0213 00       		.byte	0
 2991 0214 00       		.byte	0
 2992 0215 2A       		.uleb128 0x2a
 2993 0216 898201   		.uleb128 0x4109
 2994 0219 01       		.byte	0x1
 2995 021a 11       		.uleb128 0x11
 2996 021b 01       		.uleb128 0x1
 2997 021c 31       		.uleb128 0x31
 2998 021d 13       		.uleb128 0x13
 2999 021e 01       		.uleb128 0x1
 3000 021f 13       		.uleb128 0x13
 3001 0220 00       		.byte	0
 3002 0221 00       		.byte	0
 3003 0222 2B       		.uleb128 0x2b
 3004 0223 2E       		.uleb128 0x2e
 3005 0224 01       		.byte	0x1
 3006 0225 3F       		.uleb128 0x3f
 3007 0226 19       		.uleb128 0x19
 3008 0227 03       		.uleb128 0x3
 3009 0228 0E       		.uleb128 0xe
 3010 0229 3A       		.uleb128 0x3a
 3011 022a 0B       		.uleb128 0xb
 3012 022b 3B       		.uleb128 0x3b
 3013 022c 0B       		.uleb128 0xb
 3014 022d 27       		.uleb128 0x27
ARM GAS  /var/folders/d2/nstgp4h54kz7g1l847x_b8wc0000gn/T//ccRPy61C.s 			page 54


 3015 022e 19       		.uleb128 0x19
 3016 022f 49       		.uleb128 0x49
 3017 0230 13       		.uleb128 0x13
 3018 0231 11       		.uleb128 0x11
 3019 0232 01       		.uleb128 0x1
 3020 0233 12       		.uleb128 0x12
 3021 0234 06       		.uleb128 0x6
 3022 0235 40       		.uleb128 0x40
 3023 0236 18       		.uleb128 0x18
 3024 0237 9742     		.uleb128 0x2117
 3025 0239 19       		.uleb128 0x19
 3026 023a 01       		.uleb128 0x1
 3027 023b 13       		.uleb128 0x13
 3028 023c 00       		.byte	0
 3029 023d 00       		.byte	0
 3030 023e 2C       		.uleb128 0x2c
 3031 023f 34       		.uleb128 0x34
 3032 0240 00       		.byte	0
 3033 0241 03       		.uleb128 0x3
 3034 0242 08       		.uleb128 0x8
 3035 0243 3A       		.uleb128 0x3a
 3036 0244 0B       		.uleb128 0xb
 3037 0245 3B       		.uleb128 0x3b
 3038 0246 0B       		.uleb128 0xb
 3039 0247 49       		.uleb128 0x49
 3040 0248 13       		.uleb128 0x13
 3041 0249 00       		.byte	0
 3042 024a 00       		.byte	0
 3043 024b 2D       		.uleb128 0x2d
 3044 024c 34       		.uleb128 0x34
 3045 024d 00       		.byte	0
 3046 024e 31       		.uleb128 0x31
 3047 024f 13       		.uleb128 0x13
 3048 0250 02       		.uleb128 0x2
 3049 0251 17       		.uleb128 0x17
 3050 0252 00       		.byte	0
 3051 0253 00       		.byte	0
 3052 0254 2E       		.uleb128 0x2e
 3053 0255 34       		.uleb128 0x34
 3054 0256 00       		.byte	0
 3055 0257 03       		.uleb128 0x3
 3056 0258 08       		.uleb128 0x8
 3057 0259 3A       		.uleb128 0x3a
 3058 025a 0B       		.uleb128 0xb
 3059 025b 3B       		.uleb128 0x3b
 3060 025c 0B       		.uleb128 0xb
 3061 025d 49       		.uleb128 0x49
 3062 025e 13       		.uleb128 0x13
 3063 025f 02       		.uleb128 0x2
 3064 0260 17       		.uleb128 0x17
 3065 0261 00       		.byte	0
 3066 0262 00       		.byte	0
 3067 0263 2F       		.uleb128 0x2f
 3068 0264 2E       		.uleb128 0x2e
 3069 0265 01       		.byte	0x1
 3070 0266 03       		.uleb128 0x3
 3071 0267 0E       		.uleb128 0xe
ARM GAS  /var/folders/d2/nstgp4h54kz7g1l847x_b8wc0000gn/T//ccRPy61C.s 			page 55


 3072 0268 3A       		.uleb128 0x3a
 3073 0269 0B       		.uleb128 0xb
 3074 026a 3B       		.uleb128 0x3b
 3075 026b 0B       		.uleb128 0xb
 3076 026c 27       		.uleb128 0x27
 3077 026d 19       		.uleb128 0x19
 3078 026e 20       		.uleb128 0x20
 3079 026f 0B       		.uleb128 0xb
 3080 0270 01       		.uleb128 0x1
 3081 0271 13       		.uleb128 0x13
 3082 0272 00       		.byte	0
 3083 0273 00       		.byte	0
 3084 0274 30       		.uleb128 0x30
 3085 0275 05       		.uleb128 0x5
 3086 0276 00       		.byte	0
 3087 0277 03       		.uleb128 0x3
 3088 0278 08       		.uleb128 0x8
 3089 0279 3A       		.uleb128 0x3a
 3090 027a 0B       		.uleb128 0xb
 3091 027b 3B       		.uleb128 0x3b
 3092 027c 0B       		.uleb128 0xb
 3093 027d 49       		.uleb128 0x49
 3094 027e 13       		.uleb128 0x13
 3095 027f 00       		.byte	0
 3096 0280 00       		.byte	0
 3097 0281 31       		.uleb128 0x31
 3098 0282 2E       		.uleb128 0x2e
 3099 0283 01       		.byte	0x1
 3100 0284 03       		.uleb128 0x3
 3101 0285 0E       		.uleb128 0xe
 3102 0286 3A       		.uleb128 0x3a
 3103 0287 0B       		.uleb128 0xb
 3104 0288 3B       		.uleb128 0x3b
 3105 0289 0B       		.uleb128 0xb
 3106 028a 27       		.uleb128 0x27
 3107 028b 19       		.uleb128 0x19
 3108 028c 49       		.uleb128 0x49
 3109 028d 13       		.uleb128 0x13
 3110 028e 20       		.uleb128 0x20
 3111 028f 0B       		.uleb128 0xb
 3112 0290 01       		.uleb128 0x1
 3113 0291 13       		.uleb128 0x13
 3114 0292 00       		.byte	0
 3115 0293 00       		.byte	0
 3116 0294 32       		.uleb128 0x32
 3117 0295 2E       		.uleb128 0x2e
 3118 0296 01       		.byte	0x1
 3119 0297 03       		.uleb128 0x3
 3120 0298 0E       		.uleb128 0xe
 3121 0299 3A       		.uleb128 0x3a
 3122 029a 0B       		.uleb128 0xb
 3123 029b 3B       		.uleb128 0x3b
 3124 029c 05       		.uleb128 0x5
 3125 029d 27       		.uleb128 0x27
 3126 029e 19       		.uleb128 0x19
 3127 029f 20       		.uleb128 0x20
 3128 02a0 0B       		.uleb128 0xb
ARM GAS  /var/folders/d2/nstgp4h54kz7g1l847x_b8wc0000gn/T//ccRPy61C.s 			page 56


 3129 02a1 01       		.uleb128 0x1
 3130 02a2 13       		.uleb128 0x13
 3131 02a3 00       		.byte	0
 3132 02a4 00       		.byte	0
 3133 02a5 33       		.uleb128 0x33
 3134 02a6 34       		.uleb128 0x34
 3135 02a7 00       		.byte	0
 3136 02a8 03       		.uleb128 0x3
 3137 02a9 0E       		.uleb128 0xe
 3138 02aa 49       		.uleb128 0x49
 3139 02ab 13       		.uleb128 0x13
 3140 02ac 34       		.uleb128 0x34
 3141 02ad 19       		.uleb128 0x19
 3142 02ae 1C       		.uleb128 0x1c
 3143 02af 0E       		.uleb128 0xe
 3144 02b0 00       		.byte	0
 3145 02b1 00       		.byte	0
 3146 02b2 34       		.uleb128 0x34
 3147 02b3 2E       		.uleb128 0x2e
 3148 02b4 00       		.byte	0
 3149 02b5 03       		.uleb128 0x3
 3150 02b6 0E       		.uleb128 0xe
 3151 02b7 3A       		.uleb128 0x3a
 3152 02b8 0B       		.uleb128 0xb
 3153 02b9 3B       		.uleb128 0x3b
 3154 02ba 05       		.uleb128 0x5
 3155 02bb 27       		.uleb128 0x27
 3156 02bc 19       		.uleb128 0x19
 3157 02bd 20       		.uleb128 0x20
 3158 02be 0B       		.uleb128 0xb
 3159 02bf 00       		.byte	0
 3160 02c0 00       		.byte	0
 3161 02c1 35       		.uleb128 0x35
 3162 02c2 2E       		.uleb128 0x2e
 3163 02c3 01       		.byte	0x1
 3164 02c4 03       		.uleb128 0x3
 3165 02c5 0E       		.uleb128 0xe
 3166 02c6 3A       		.uleb128 0x3a
 3167 02c7 0B       		.uleb128 0xb
 3168 02c8 3B       		.uleb128 0x3b
 3169 02c9 05       		.uleb128 0x5
 3170 02ca 27       		.uleb128 0x27
 3171 02cb 19       		.uleb128 0x19
 3172 02cc 49       		.uleb128 0x49
 3173 02cd 13       		.uleb128 0x13
 3174 02ce 20       		.uleb128 0x20
 3175 02cf 0B       		.uleb128 0xb
 3176 02d0 01       		.uleb128 0x1
 3177 02d1 13       		.uleb128 0x13
 3178 02d2 00       		.byte	0
 3179 02d3 00       		.byte	0
 3180 02d4 36       		.uleb128 0x36
 3181 02d5 05       		.uleb128 0x5
 3182 02d6 00       		.byte	0
 3183 02d7 03       		.uleb128 0x3
 3184 02d8 08       		.uleb128 0x8
 3185 02d9 3A       		.uleb128 0x3a
ARM GAS  /var/folders/d2/nstgp4h54kz7g1l847x_b8wc0000gn/T//ccRPy61C.s 			page 57


 3186 02da 0B       		.uleb128 0xb
 3187 02db 3B       		.uleb128 0x3b
 3188 02dc 05       		.uleb128 0x5
 3189 02dd 49       		.uleb128 0x49
 3190 02de 13       		.uleb128 0x13
 3191 02df 00       		.byte	0
 3192 02e0 00       		.byte	0
 3193 02e1 37       		.uleb128 0x37
 3194 02e2 34       		.uleb128 0x34
 3195 02e3 00       		.byte	0
 3196 02e4 03       		.uleb128 0x3
 3197 02e5 08       		.uleb128 0x8
 3198 02e6 3A       		.uleb128 0x3a
 3199 02e7 0B       		.uleb128 0xb
 3200 02e8 3B       		.uleb128 0x3b
 3201 02e9 05       		.uleb128 0x5
 3202 02ea 49       		.uleb128 0x49
 3203 02eb 13       		.uleb128 0x13
 3204 02ec 00       		.byte	0
 3205 02ed 00       		.byte	0
 3206 02ee 38       		.uleb128 0x38
 3207 02ef 05       		.uleb128 0x5
 3208 02f0 00       		.byte	0
 3209 02f1 03       		.uleb128 0x3
 3210 02f2 0E       		.uleb128 0xe
 3211 02f3 3A       		.uleb128 0x3a
 3212 02f4 0B       		.uleb128 0xb
 3213 02f5 3B       		.uleb128 0x3b
 3214 02f6 05       		.uleb128 0x5
 3215 02f7 49       		.uleb128 0x49
 3216 02f8 13       		.uleb128 0x13
 3217 02f9 00       		.byte	0
 3218 02fa 00       		.byte	0
 3219 02fb 39       		.uleb128 0x39
 3220 02fc 2E       		.uleb128 0x2e
 3221 02fd 00       		.byte	0
 3222 02fe 3F       		.uleb128 0x3f
 3223 02ff 19       		.uleb128 0x19
 3224 0300 3C       		.uleb128 0x3c
 3225 0301 19       		.uleb128 0x19
 3226 0302 6E       		.uleb128 0x6e
 3227 0303 0E       		.uleb128 0xe
 3228 0304 03       		.uleb128 0x3
 3229 0305 0E       		.uleb128 0xe
 3230 0306 3A       		.uleb128 0x3a
 3231 0307 0B       		.uleb128 0xb
 3232 0308 3B       		.uleb128 0x3b
 3233 0309 0B       		.uleb128 0xb
 3234 030a 00       		.byte	0
 3235 030b 00       		.byte	0
 3236 030c 3A       		.uleb128 0x3a
 3237 030d 2E       		.uleb128 0x2e
 3238 030e 00       		.byte	0
 3239 030f 3F       		.uleb128 0x3f
 3240 0310 19       		.uleb128 0x19
 3241 0311 3C       		.uleb128 0x3c
 3242 0312 19       		.uleb128 0x19
ARM GAS  /var/folders/d2/nstgp4h54kz7g1l847x_b8wc0000gn/T//ccRPy61C.s 			page 58


 3243 0313 6E       		.uleb128 0x6e
 3244 0314 0E       		.uleb128 0xe
 3245 0315 03       		.uleb128 0x3
 3246 0316 0E       		.uleb128 0xe
 3247 0317 3A       		.uleb128 0x3a
 3248 0318 0B       		.uleb128 0xb
 3249 0319 3B       		.uleb128 0x3b
 3250 031a 05       		.uleb128 0x5
 3251 031b 00       		.byte	0
 3252 031c 00       		.byte	0
 3253 031d 3B       		.uleb128 0x3b
 3254 031e 2E       		.uleb128 0x2e
 3255 031f 00       		.byte	0
 3256 0320 3F       		.uleb128 0x3f
 3257 0321 19       		.uleb128 0x19
 3258 0322 3C       		.uleb128 0x3c
 3259 0323 19       		.uleb128 0x19
 3260 0324 6E       		.uleb128 0x6e
 3261 0325 0E       		.uleb128 0xe
 3262 0326 03       		.uleb128 0x3
 3263 0327 0E       		.uleb128 0xe
 3264 0328 00       		.byte	0
 3265 0329 00       		.byte	0
 3266 032a 00       		.byte	0
 3267              		.section	.debug_loc,"",%progbits
 3268              	.Ldebug_loc0:
 3269              	.LLST12:
 3270 0000 00000000 		.4byte	.LVL43
 3271 0004 17000000 		.4byte	.LVL46-1
 3272 0008 0100     		.2byte	0x1
 3273 000a 50       		.byte	0x50
 3274 000b 17000000 		.4byte	.LVL46-1
 3275 000f 80000000 		.4byte	.LFE221
 3276 0013 0100     		.2byte	0x1
 3277 0015 55       		.byte	0x55
 3278 0016 00000000 		.4byte	0
 3279 001a 00000000 		.4byte	0
 3280              	.LLST13:
 3281 001e 00000000 		.4byte	.LVL43
 3282 0022 17000000 		.4byte	.LVL46-1
 3283 0026 0100     		.2byte	0x1
 3284 0028 51       		.byte	0x51
 3285 0029 17000000 		.4byte	.LVL46-1
 3286 002d 80000000 		.4byte	.LFE221
 3287 0031 0100     		.2byte	0x1
 3288 0033 56       		.byte	0x56
 3289 0034 00000000 		.4byte	0
 3290 0038 00000000 		.4byte	0
 3291              	.LLST14:
 3292 003c 0A000000 		.4byte	.LVL44
 3293 0040 14000000 		.4byte	.LVL45
 3294 0044 0300     		.2byte	0x3
 3295 0046 08       		.byte	0x8
 3296 0047 20       		.byte	0x20
 3297 0048 9F       		.byte	0x9f
 3298 0049 00000000 		.4byte	0
 3299 004d 00000000 		.4byte	0
ARM GAS  /var/folders/d2/nstgp4h54kz7g1l847x_b8wc0000gn/T//ccRPy61C.s 			page 59


 3300              	.LLST15:
 3301 0051 2A000000 		.4byte	.LVL48
 3302 0055 36000000 		.4byte	.LVL50
 3303 0059 0100     		.2byte	0x1
 3304 005b 56       		.byte	0x56
 3305 005c 00000000 		.4byte	0
 3306 0060 00000000 		.4byte	0
 3307              	.LLST16:
 3308 0064 2A000000 		.4byte	.LVL48
 3309 0068 36000000 		.4byte	.LVL50
 3310 006c 0100     		.2byte	0x1
 3311 006e 55       		.byte	0x55
 3312 006f 00000000 		.4byte	0
 3313 0073 00000000 		.4byte	0
 3314              	.LLST17:
 3315 0077 50000000 		.4byte	.LVL53
 3316 007b 56000000 		.4byte	.LVL54
 3317 007f 0200     		.2byte	0x2
 3318 0081 30       		.byte	0x30
 3319 0082 9F       		.byte	0x9f
 3320 0083 00000000 		.4byte	0
 3321 0087 00000000 		.4byte	0
 3322              	.LLST7:
 3323 008b 0A000000 		.4byte	.LVL26
 3324 008f 10000000 		.4byte	.LVL27
 3325 0093 0300     		.2byte	0x3
 3326 0095 08       		.byte	0x8
 3327 0096 20       		.byte	0x20
 3328 0097 9F       		.byte	0x9f
 3329 0098 00000000 		.4byte	0
 3330 009c 00000000 		.4byte	0
 3331              	.LLST8:
 3332 00a0 1C000000 		.4byte	.LVL30
 3333 00a4 20000000 		.4byte	.LVL31
 3334 00a8 0100     		.2byte	0x1
 3335 00aa 55       		.byte	0x55
 3336 00ab 00000000 		.4byte	0
 3337 00af 00000000 		.4byte	0
 3338              	.LLST9:
 3339 00b3 2A000000 		.4byte	.LVL32
 3340 00b7 32000000 		.4byte	.LVL34
 3341 00bb 0300     		.2byte	0x3
 3342 00bd 73       		.byte	0x73
 3343 00be 30       		.sleb128 48
 3344 00bf 9F       		.byte	0x9f
 3345 00c0 32000000 		.4byte	.LVL34
 3346 00c4 36000000 		.4byte	.LVL35
 3347 00c8 0100     		.2byte	0x1
 3348 00ca 53       		.byte	0x53
 3349 00cb 00000000 		.4byte	0
 3350 00cf 00000000 		.4byte	0
 3351              	.LLST10:
 3352 00d3 2C000000 		.4byte	.LVL33
 3353 00d7 36000000 		.4byte	.LVL35
 3354 00db 0100     		.2byte	0x1
 3355 00dd 55       		.byte	0x55
 3356 00de 00000000 		.4byte	0
ARM GAS  /var/folders/d2/nstgp4h54kz7g1l847x_b8wc0000gn/T//ccRPy61C.s 			page 60


 3357 00e2 00000000 		.4byte	0
 3358              	.LLST11:
 3359 00e6 52000000 		.4byte	.LVL38
 3360 00ea 58000000 		.4byte	.LVL39
 3361 00ee 0200     		.2byte	0x2
 3362 00f0 30       		.byte	0x30
 3363 00f1 9F       		.byte	0x9f
 3364 00f2 00000000 		.4byte	0
 3365 00f6 00000000 		.4byte	0
 3366              	.LLST0:
 3367 00fa 00000000 		.4byte	.LVL0
 3368 00fe 18000000 		.4byte	.LVL2
 3369 0102 0100     		.2byte	0x1
 3370 0104 50       		.byte	0x50
 3371 0105 18000000 		.4byte	.LVL2
 3372 0109 88000000 		.4byte	.LVL21
 3373 010d 0100     		.2byte	0x1
 3374 010f 55       		.byte	0x55
 3375 0110 88000000 		.4byte	.LVL21
 3376 0114 8A000000 		.4byte	.LVL22
 3377 0118 0100     		.2byte	0x1
 3378 011a 50       		.byte	0x50
 3379 011b 8A000000 		.4byte	.LVL22
 3380 011f A4000000 		.4byte	.LFE219
 3381 0123 0100     		.2byte	0x1
 3382 0125 55       		.byte	0x55
 3383 0126 00000000 		.4byte	0
 3384 012a 00000000 		.4byte	0
 3385              	.LLST1:
 3386 012e 00000000 		.4byte	.LVL0
 3387 0132 18000000 		.4byte	.LVL2
 3388 0136 0100     		.2byte	0x1
 3389 0138 51       		.byte	0x51
 3390 0139 18000000 		.4byte	.LVL2
 3391 013d 4A000000 		.4byte	.LVL11
 3392 0141 0100     		.2byte	0x1
 3393 0143 58       		.byte	0x58
 3394 0144 4A000000 		.4byte	.LVL11
 3395 0148 72000000 		.4byte	.LVL16
 3396 014c 0100     		.2byte	0x1
 3397 014e 54       		.byte	0x54
 3398 014f 72000000 		.4byte	.LVL16
 3399 0153 78000000 		.4byte	.LVL17
 3400 0157 0100     		.2byte	0x1
 3401 0159 50       		.byte	0x50
 3402 015a 78000000 		.4byte	.LVL17
 3403 015e 80000000 		.4byte	.LVL19
 3404 0162 0100     		.2byte	0x1
 3405 0164 54       		.byte	0x54
 3406 0165 80000000 		.4byte	.LVL19
 3407 0169 88000000 		.4byte	.LVL21
 3408 016d 0100     		.2byte	0x1
 3409 016f 58       		.byte	0x58
 3410 0170 88000000 		.4byte	.LVL21
 3411 0174 8D000000 		.4byte	.LVL23-1
 3412 0178 0100     		.2byte	0x1
 3413 017a 51       		.byte	0x51
ARM GAS  /var/folders/d2/nstgp4h54kz7g1l847x_b8wc0000gn/T//ccRPy61C.s 			page 61


 3414 017b 8D000000 		.4byte	.LVL23-1
 3415 017f 90000000 		.4byte	.LVL24
 3416 0183 0100     		.2byte	0x1
 3417 0185 58       		.byte	0x58
 3418 0186 90000000 		.4byte	.LVL24
 3419 018a 93000000 		.4byte	.LVL25-1
 3420 018e 0100     		.2byte	0x1
 3421 0190 50       		.byte	0x50
 3422 0191 93000000 		.4byte	.LVL25-1
 3423 0195 A4000000 		.4byte	.LFE219
 3424 0199 0100     		.2byte	0x1
 3425 019b 54       		.byte	0x54
 3426 019c 00000000 		.4byte	0
 3427 01a0 00000000 		.4byte	0
 3428              	.LLST2:
 3429 01a4 0C000000 		.4byte	.LVL1
 3430 01a8 4A000000 		.4byte	.LVL11
 3431 01ac 0100     		.2byte	0x1
 3432 01ae 54       		.byte	0x54
 3433 01af 80000000 		.4byte	.LVL19
 3434 01b3 90000000 		.4byte	.LVL24
 3435 01b7 0100     		.2byte	0x1
 3436 01b9 54       		.byte	0x54
 3437 01ba 00000000 		.4byte	0
 3438 01be 00000000 		.4byte	0
 3439              	.LLST3:
 3440 01c2 18000000 		.4byte	.LVL2
 3441 01c6 1E000000 		.4byte	.LVL3
 3442 01ca 0300     		.2byte	0x3
 3443 01cc 08       		.byte	0x8
 3444 01cd 20       		.byte	0x20
 3445 01ce 9F       		.byte	0x9f
 3446 01cf 00000000 		.4byte	0
 3447 01d3 00000000 		.4byte	0
 3448              	.LLST4:
 3449 01d7 30000000 		.4byte	.LVL6
 3450 01db 34000000 		.4byte	.LVL7
 3451 01df 0100     		.2byte	0x1
 3452 01e1 53       		.byte	0x53
 3453 01e2 34000000 		.4byte	.LVL7
 3454 01e6 38000000 		.4byte	.LVL8
 3455 01ea 0200     		.2byte	0x2
 3456 01ec 74       		.byte	0x74
 3457 01ed 00       		.sleb128 0
 3458 01ee 38000000 		.4byte	.LVL8
 3459 01f2 3E000000 		.4byte	.LVL9
 3460 01f6 0300     		.2byte	0x3
 3461 01f8 75       		.byte	0x75
 3462 01f9 30       		.sleb128 48
 3463 01fa 9F       		.byte	0x9f
 3464 01fb 00000000 		.4byte	0
 3465 01ff 00000000 		.4byte	0
 3466              	.LLST5:
 3467 0203 30000000 		.4byte	.LVL6
 3468 0207 3E000000 		.4byte	.LVL9
 3469 020b 0100     		.2byte	0x1
 3470 020d 54       		.byte	0x54
ARM GAS  /var/folders/d2/nstgp4h54kz7g1l847x_b8wc0000gn/T//ccRPy61C.s 			page 62


 3471 020e 00000000 		.4byte	0
 3472 0212 00000000 		.4byte	0
 3473              	.LLST6:
 3474 0216 62000000 		.4byte	.LVL14
 3475 021a 68000000 		.4byte	.LVL15
 3476 021e 0200     		.2byte	0x2
 3477 0220 30       		.byte	0x30
 3478 0221 9F       		.byte	0x9f
 3479 0222 00000000 		.4byte	0
 3480 0226 00000000 		.4byte	0
 3481              		.section	.debug_aranges,"",%progbits
 3482 0000 2C000000 		.4byte	0x2c
 3483 0004 0200     		.2byte	0x2
 3484 0006 00000000 		.4byte	.Ldebug_info0
 3485 000a 04       		.byte	0x4
 3486 000b 00       		.byte	0
 3487 000c 0000     		.2byte	0
 3488 000e 0000     		.2byte	0
 3489 0010 00000000 		.4byte	.LFB219
 3490 0014 A4000000 		.4byte	.LFE219-.LFB219
 3491 0018 00000000 		.4byte	.LFB220
 3492 001c 88000000 		.4byte	.LFE220-.LFB220
 3493 0020 00000000 		.4byte	.LFB221
 3494 0024 80000000 		.4byte	.LFE221-.LFB221
 3495 0028 00000000 		.4byte	0
 3496 002c 00000000 		.4byte	0
 3497              		.section	.debug_ranges,"",%progbits
 3498              	.Ldebug_ranges0:
 3499 0000 30000000 		.4byte	.LBB54
 3500 0004 38000000 		.4byte	.LBE54
 3501 0008 3C000000 		.4byte	.LBB57
 3502 000c 3E000000 		.4byte	.LBE57
 3503 0010 00000000 		.4byte	0
 3504 0014 00000000 		.4byte	0
 3505 0018 4A000000 		.4byte	.LBB58
 3506 001c 68000000 		.4byte	.LBE58
 3507 0020 78000000 		.4byte	.LBB64
 3508 0024 80000000 		.4byte	.LBE64
 3509 0028 00000000 		.4byte	0
 3510 002c 00000000 		.4byte	0
 3511 0030 0A000000 		.4byte	.LBB79
 3512 0034 10000000 		.4byte	.LBE79
 3513 0038 12000000 		.4byte	.LBB85
 3514 003c 1A000000 		.4byte	.LBE85
 3515 0040 00000000 		.4byte	0
 3516 0044 00000000 		.4byte	0
 3517 0048 1C000000 		.4byte	.LBB86
 3518 004c 20000000 		.4byte	.LBE86
 3519 0050 22000000 		.4byte	.LBB89
 3520 0054 24000000 		.4byte	.LBE89
 3521 0058 00000000 		.4byte	0
 3522 005c 00000000 		.4byte	0
 3523 0060 2A000000 		.4byte	.LBB90
 3524 0064 32000000 		.4byte	.LBE90
 3525 0068 34000000 		.4byte	.LBB93
 3526 006c 36000000 		.4byte	.LBE93
 3527 0070 00000000 		.4byte	0
ARM GAS  /var/folders/d2/nstgp4h54kz7g1l847x_b8wc0000gn/T//ccRPy61C.s 			page 63


 3528 0074 00000000 		.4byte	0
 3529 0078 3A000000 		.4byte	.LBB94
 3530 007c 58000000 		.4byte	.LBE94
 3531 0080 66000000 		.4byte	.LBB100
 3532 0084 6E000000 		.4byte	.LBE100
 3533 0088 00000000 		.4byte	0
 3534 008c 00000000 		.4byte	0
 3535 0090 36000000 		.4byte	.LBB120
 3536 0094 56000000 		.4byte	.LBE120
 3537 0098 62000000 		.4byte	.LBB126
 3538 009c 6A000000 		.4byte	.LBE126
 3539 00a0 00000000 		.4byte	0
 3540 00a4 00000000 		.4byte	0
 3541 00a8 00000000 		.4byte	.LFB219
 3542 00ac A4000000 		.4byte	.LFE219
 3543 00b0 00000000 		.4byte	.LFB220
 3544 00b4 88000000 		.4byte	.LFE220
 3545 00b8 00000000 		.4byte	.LFB221
 3546 00bc 80000000 		.4byte	.LFE221
 3547 00c0 00000000 		.4byte	0
 3548 00c4 00000000 		.4byte	0
 3549              		.section	.debug_line,"",%progbits
 3550              	.Ldebug_line0:
 3551 0000 9B040000 		.section	.debug_str,"MS",%progbits,1
 3551      02005A03 
 3551      00000201 
 3551      FB0E0D00 
 3551      01010101 
 3552              	.LASF145:
 3553 0000 63665F6F 		.ascii	"cf_off_older\000"
 3553      66665F6F 
 3553      6C646572 
 3553      00
 3554              	.LASF182:
 3555 000d 2F557365 		.ascii	"/Users/bharathkeshavamurthy/Workspaces/Talos/src/ma"
 3555      72732F62 
 3555      68617261 
 3555      74686B65 
 3555      73686176 
 3556 0040 696E2F63 		.ascii	"in/cpp/org/purdue/ece/talos/optimize/\000"
 3556      70702F6F 
 3556      72672F70 
 3556      75726475 
 3556      652F6563 
 3557              	.LASF60:
 3558 0066 72656164 		.ascii	"ready_list_t\000"
 3558      795F6C69 
 3558      73745F74 
 3558      00
 3559              	.LASF164:
 3560 0073 71756575 		.ascii	"queue_insert\000"
 3560      655F696E 
 3560      73657274 
 3560      00
 3561              	.LASF122:
 3562 0080 77747472 		.ascii	"wttrp\000"
 3562      7000
ARM GAS  /var/folders/d2/nstgp4h54kz7g1l847x_b8wc0000gn/T//ccRPy61C.s 			page 64


 3563              	.LASF119:
 3564 0086 7264796D 		.ascii	"rdymsg\000"
 3564      736700
 3565              	.LASF19:
 3566 008d 75696E74 		.ascii	"uint64_t\000"
 3566      36345F74 
 3566      00
 3567              	.LASF90:
 3568 0096 6B65726E 		.ascii	"kernel_stats\000"
 3568      656C5F73 
 3568      74617473 
 3568      00
 3569              	.LASF6:
 3570 00a3 5F5F7569 		.ascii	"__uint8_t\000"
 3570      6E74385F 
 3570      7400
 3571              	.LASF97:
 3572 00ad 706F7274 		.ascii	"port_intctx\000"
 3572      5F696E74 
 3572      63747800 
 3573              	.LASF59:
 3574 00b9 63685F74 		.ascii	"ch_threads_queue\000"
 3574      68726561 
 3574      64735F71 
 3574      75657565 
 3574      00
 3575              	.LASF79:
 3576 00ca 73797374 		.ascii	"system_debug_t\000"
 3576      656D5F64 
 3576      65627567 
 3576      5F7400
 3577              	.LASF167:
 3578 00d9 706F7274 		.ascii	"port_lock\000"
 3578      5F6C6F63 
 3578      6B00
 3579              	.LASF110:
 3580 00e3 776F7273 		.ascii	"worst\000"
 3580      7400
 3581              	.LASF113:
 3582 00e9 74696D65 		.ascii	"time_measurement_t\000"
 3582      5F6D6561 
 3582      73757265 
 3582      6D656E74 
 3582      5F7400
 3583              	.LASF14:
 3584 00fc 6C6F6E67 		.ascii	"long long unsigned int\000"
 3584      206C6F6E 
 3584      6720756E 
 3584      7369676E 
 3584      65642069 
 3585              	.LASF106:
 3586 0113 63685F74 		.ascii	"ch_trace_buffer_t\000"
 3586      72616365 
 3586      5F627566 
 3586      6665725F 
 3586      7400
 3587              	.LASF141:
ARM GAS  /var/folders/d2/nstgp4h54kz7g1l847x_b8wc0000gn/T//ccRPy61C.s 			page 65


 3588 0125 63685F74 		.ascii	"ch_threadsize\000"
 3588      68726561 
 3588      6473697A 
 3588      6500
 3589              	.LASF120:
 3590 0133 65786974 		.ascii	"exitcode\000"
 3590      636F6465 
 3590      00
 3591              	.LASF89:
 3592 013c 6D61696E 		.ascii	"mainthread\000"
 3592      74687265 
 3592      616400
 3593              	.LASF170:
 3594 0147 5F737461 		.ascii	"_stats_start_measure_crit_thd\000"
 3594      74735F73 
 3594      74617274 
 3594      5F6D6561 
 3594      73757265 
 3595              	.LASF76:
 3596 0165 76697274 		.ascii	"virtual_timers_list_t\000"
 3596      75616C5F 
 3596      74696D65 
 3596      72735F6C 
 3596      6973745F 
 3597              	.LASF92:
 3598 017b 49544D5F 		.ascii	"ITM_RxBuffer\000"
 3598      52784275 
 3598      66666572 
 3598      00
 3599              	.LASF21:
 3600 0188 72747469 		.ascii	"rttime_t\000"
 3600      6D655F74 
 3600      00
 3601              	.LASF35:
 3602 0191 705F7072 		.ascii	"p_prio\000"
 3602      696F00
 3603              	.LASF148:
 3604 0198 63665F6F 		.ascii	"cf_off_state\000"
 3604      66665F73 
 3604      74617465 
 3604      00
 3605              	.LASF155:
 3606 01a5 6D757465 		.ascii	"mutex_t\000"
 3606      785F7400 
 3607              	.LASF1:
 3608 01ad 6C6F6E67 		.ascii	"long long int\000"
 3608      206C6F6E 
 3608      6720696E 
 3608      7400
 3609              	.LASF3:
 3610 01bb 7369676E 		.ascii	"signed char\000"
 3610      65642063 
 3610      68617200 
 3611              	.LASF147:
 3612 01c7 63665F6F 		.ascii	"cf_off_stklimit\000"
 3612      66665F73 
 3612      746B6C69 
ARM GAS  /var/folders/d2/nstgp4h54kz7g1l847x_b8wc0000gn/T//ccRPy61C.s 			page 66


 3612      6D697400 
 3613              	.LASF149:
 3614 01d7 63665F6F 		.ascii	"cf_off_flags\000"
 3614      66665F66 
 3614      6C616773 
 3614      00
 3615              	.LASF52:
 3616 01e4 705F6D70 		.ascii	"p_mpool\000"
 3616      6F6F6C00 
 3617              	.LASF130:
 3618 01ec 6D5F7175 		.ascii	"m_queue\000"
 3618      65756500 
 3619              	.LASF88:
 3620 01f4 76746C69 		.ascii	"vtlist\000"
 3620      737400
 3621              	.LASF166:
 3622 01fb 706F7274 		.ascii	"port_unlock\000"
 3622      5F756E6C 
 3622      6F636B00 
 3623              	.LASF25:
 3624 0207 74736C69 		.ascii	"tslices_t\000"
 3624      6365735F 
 3624      7400
 3625              	.LASF86:
 3626 0211 63685F73 		.ascii	"ch_system\000"
 3626      79737465 
 3626      6D00
 3627              	.LASF10:
 3628 021b 6C6F6E67 		.ascii	"long int\000"
 3628      20696E74 
 3628      00
 3629              	.LASF158:
 3630 0224 63684D73 		.ascii	"chMsgSend\000"
 3630      6753656E 
 3630      6400
 3631              	.LASF23:
 3632 022e 74737461 		.ascii	"tstate_t\000"
 3632      74655F74 
 3632      00
 3633              	.LASF99:
 3634 0237 73655F74 		.ascii	"se_tp\000"
 3634      7000
 3635              	.LASF153:
 3636 023d 63686465 		.ascii	"chdebug_t\000"
 3636      6275675F 
 3636      7400
 3637              	.LASF162:
 3638 0247 63684D73 		.ascii	"chMsgIsPendingI\000"
 3638      67497350 
 3638      656E6469 
 3638      6E674900 
 3639              	.LASF37:
 3640 0257 705F6E65 		.ascii	"p_newer\000"
 3640      77657200 
 3641              	.LASF127:
 3642 025f 735F7175 		.ascii	"s_queue\000"
 3642      65756500 
ARM GAS  /var/folders/d2/nstgp4h54kz7g1l847x_b8wc0000gn/T//ccRPy61C.s 			page 67


 3643              	.LASF103:
 3644 0267 74625F73 		.ascii	"tb_size\000"
 3644      697A6500 
 3645              	.LASF65:
 3646 026f 725F6E65 		.ascii	"r_newer\000"
 3646      77657200 
 3647              	.LASF94:
 3648 0277 72656761 		.ascii	"regarm_t\000"
 3648      726D5F74 
 3648      00
 3649              	.LASF72:
 3650 0280 76745F70 		.ascii	"vt_prev\000"
 3650      72657600 
 3651              	.LASF176:
 3652 0288 63685379 		.ascii	"chSysHalt\000"
 3652      7348616C 
 3652      7400
 3653              	.LASF80:
 3654 0292 63685F73 		.ascii	"ch_system_debug\000"
 3654      79737465 
 3654      6D5F6465 
 3654      62756700 
 3655              	.LASF133:
 3656 02a2 6D5F636E 		.ascii	"m_cnt\000"
 3656      7400
 3657              	.LASF71:
 3658 02a8 76745F6E 		.ascii	"vt_next\000"
 3658      65787400 
 3659              	.LASF169:
 3660 02b0 76616C75 		.ascii	"value\000"
 3660      6500
 3661              	.LASF83:
 3662 02b6 6C6F636B 		.ascii	"lock_cnt\000"
 3662      5F636E74 
 3662      00
 3663              	.LASF91:
 3664 02bf 69646C65 		.ascii	"idle_thread_wa\000"
 3664      5F746872 
 3664      6561645F 
 3664      776100
 3665              	.LASF29:
 3666 02ce 636E745F 		.ascii	"cnt_t\000"
 3666      7400
 3667              	.LASF40:
 3668 02d4 705F7374 		.ascii	"p_stklimit\000"
 3668      6B6C696D 
 3668      697400
 3669              	.LASF0:
 3670 02df 756E7369 		.ascii	"unsigned int\000"
 3670      676E6564 
 3670      20696E74 
 3670      00
 3671              	.LASF180:
 3672 02ec 474E5520 		.ascii	"GNU C11 7.2.1 20170904 (release) [ARM/embedded-7-br"
 3672      43313120 
 3672      372E322E 
 3672      31203230 
ARM GAS  /var/folders/d2/nstgp4h54kz7g1l847x_b8wc0000gn/T//ccRPy61C.s 			page 68


 3672      31373039 
 3673 031f 616E6368 		.ascii	"anch revision 255204] -mcpu=cortex-m4 -mfloat-abi=h"
 3673      20726576 
 3673      6973696F 
 3673      6E203235 
 3673      35323034 
 3674 0352 61726420 		.ascii	"ard -mfpu=fpv4-sp-d16 -mno-thumb-interwork -mthumb "
 3674      2D6D6670 
 3674      753D6670 
 3674      76342D73 
 3674      702D6431 
 3675 0385 2D676764 		.ascii	"-ggdb -O2 -fomit-frame-pointer -falign-functions=16"
 3675      62202D4F 
 3675      32202D66 
 3675      6F6D6974 
 3675      2D667261 
 3676 03b8 202D666E 		.ascii	" -fno-strict-aliasing -fstack-protector-all -ffunct"
 3676      6F2D7374 
 3676      72696374 
 3676      2D616C69 
 3676      6173696E 
 3677 03eb 696F6E2D 		.ascii	"ion-sections -fdata-sections -fno-common -fsingle-p"
 3677      73656374 
 3677      696F6E73 
 3677      202D6664 
 3677      6174612D 
 3678 041e 72656369 		.ascii	"recision-constant\000"
 3678      73696F6E 
 3678      2D636F6E 
 3678      7374616E 
 3678      7400
 3679              	.LASF16:
 3680 0430 75696E74 		.ascii	"uint16_t\000"
 3680      31365F74 
 3680      00
 3681              	.LASF93:
 3682 0439 53797374 		.ascii	"SystemCoreClock\000"
 3682      656D436F 
 3682      7265436C 
 3682      6F636B00 
 3683              	.LASF45:
 3684 0449 705F7469 		.ascii	"p_time\000"
 3684      6D6500
 3685              	.LASF123:
 3686 0450 77747365 		.ascii	"wtsemp\000"
 3686      6D7000
 3687              	.LASF73:
 3688 0457 76745F64 		.ascii	"vt_delta\000"
 3688      656C7461 
 3688      00
 3689              	.LASF47:
 3690 0460 705F6D73 		.ascii	"p_msgqueue\000"
 3690      67717565 
 3690      756500
 3691              	.LASF154:
 3692 046b 63685F64 		.ascii	"ch_debug\000"
 3692      65627567 
ARM GAS  /var/folders/d2/nstgp4h54kz7g1l847x_b8wc0000gn/T//ccRPy61C.s 			page 69


 3692      00
 3693              	.LASF114:
 3694 0474 6E5F6972 		.ascii	"n_irq\000"
 3694      7100
 3695              	.LASF128:
 3696 047a 735F636E 		.ascii	"s_cnt\000"
 3696      7400
 3697              	.LASF8:
 3698 0480 73686F72 		.ascii	"short unsigned int\000"
 3698      7420756E 
 3698      7369676E 
 3698      65642069 
 3698      6E7400
 3699              	.LASF118:
 3700 0493 6B65726E 		.ascii	"kernel_stats_t\000"
 3700      656C5F73 
 3700      74617473 
 3700      5F7400
 3701              	.LASF56:
 3702 04a2 63685F74 		.ascii	"ch_thread\000"
 3702      68726561 
 3702      6400
 3703              	.LASF173:
 3704 04ac 63685363 		.ascii	"chSchWakeupS\000"
 3704      6857616B 
 3704      65757053 
 3704      00
 3705              	.LASF27:
 3706 04b9 6D73675F 		.ascii	"msg_t\000"
 3706      7400
 3707              	.LASF111:
 3708 04bf 6C617374 		.ascii	"last\000"
 3708      00
 3709              	.LASF30:
 3710 04c4 75636E74 		.ascii	"ucnt_t\000"
 3710      5F7400
 3711              	.LASF177:
 3712 04cb 63684462 		.ascii	"chDbgCheckClassI\000"
 3712      67436865 
 3712      636B436C 
 3712      61737349 
 3712      00
 3713              	.LASF85:
 3714 04dc 63685F73 		.ascii	"ch_system_t\000"
 3714      79737465 
 3714      6D5F7400 
 3715              	.LASF152:
 3716 04e8 63665F6F 		.ascii	"cf_off_time\000"
 3716      66665F74 
 3716      696D6500 
 3717              	.LASF172:
 3718 04f4 63684462 		.ascii	"chDbgCheckClassS\000"
 3718      67436865 
 3718      636B436C 
 3718      61737353 
 3718      00
 3719              	.LASF117:
ARM GAS  /var/folders/d2/nstgp4h54kz7g1l847x_b8wc0000gn/T//ccRPy61C.s 			page 70


 3720 0505 6D5F6372 		.ascii	"m_crit_isr\000"
 3720      69745F69 
 3720      737200
 3721              	.LASF61:
 3722 0510 63685F72 		.ascii	"ch_ready_list\000"
 3722      65616479 
 3722      5F6C6973 
 3722      7400
 3723              	.LASF28:
 3724 051e 6576656E 		.ascii	"eventmask_t\000"
 3724      746D6173 
 3724      6B5F7400 
 3725              	.LASF9:
 3726 052a 5F5F696E 		.ascii	"__int32_t\000"
 3726      7433325F 
 3726      7400
 3727              	.LASF95:
 3728 0534 73746B61 		.ascii	"stkalign_t\000"
 3728      6C69676E 
 3728      5F7400
 3729              	.LASF55:
 3730 053f 74687265 		.ascii	"threads_list_t\000"
 3730      6164735F 
 3730      6C697374 
 3730      5F7400
 3731              	.LASF136:
 3732 054e 63685F7A 		.ascii	"ch_zero\000"
 3732      65726F00 
 3733              	.LASF150:
 3734 0556 63665F6F 		.ascii	"cf_off_refs\000"
 3734      66665F72 
 3734      65667300 
 3735              	.LASF46:
 3736 0562 705F7761 		.ascii	"p_waiting\000"
 3736      6974696E 
 3736      6700
 3737              	.LASF175:
 3738 056c 5F737461 		.ascii	"_stats_stop_measure_crit_thd\000"
 3738      74735F73 
 3738      746F705F 
 3738      6D656173 
 3738      7572655F 
 3739              	.LASF20:
 3740 0589 7274636E 		.ascii	"rtcnt_t\000"
 3740      745F7400 
 3741              	.LASF171:
 3742 0591 5F646267 		.ascii	"_dbg_check_lock\000"
 3742      5F636865 
 3742      636B5F6C 
 3742      6F636B00 
 3743              	.LASF77:
 3744 05a1 63685F76 		.ascii	"ch_virtual_timers_list\000"
 3744      69727475 
 3744      616C5F74 
 3744      696D6572 
 3744      735F6C69 
 3745              	.LASF2:
ARM GAS  /var/folders/d2/nstgp4h54kz7g1l847x_b8wc0000gn/T//ccRPy61C.s 			page 71


 3746 05b8 6C6F6E67 		.ascii	"long double\000"
 3746      20646F75 
 3746      626C6500 
 3747              	.LASF140:
 3748 05c4 63685F74 		.ascii	"ch_timesize\000"
 3748      696D6573 
 3748      697A6500 
 3749              	.LASF104:
 3750 05d0 74625F70 		.ascii	"tb_ptr\000"
 3750      747200
 3751              	.LASF102:
 3752 05d7 63685F73 		.ascii	"ch_swc_event_t\000"
 3752      77635F65 
 3752      76656E74 
 3752      5F7400
 3753              	.LASF146:
 3754 05e6 63665F6F 		.ascii	"cf_off_name\000"
 3754      66665F6E 
 3754      616D6500 
 3755              	.LASF38:
 3756 05f2 705F6F6C 		.ascii	"p_older\000"
 3756      64657200 
 3757              	.LASF64:
 3758 05fa 725F6374 		.ascii	"r_ctx\000"
 3758      7800
 3759              	.LASF36:
 3760 0600 705F6374 		.ascii	"p_ctx\000"
 3760      7800
 3761              	.LASF108:
 3762 0606 746D5F63 		.ascii	"tm_calibration_t\000"
 3762      616C6962 
 3762      72617469 
 3762      6F6E5F74 
 3762      00
 3763              	.LASF132:
 3764 0617 6D5F6E65 		.ascii	"m_next\000"
 3764      787400
 3765              	.LASF67:
 3766 061e 725F6375 		.ascii	"r_current\000"
 3766      7272656E 
 3766      7400
 3767              	.LASF66:
 3768 0628 725F6F6C 		.ascii	"r_older\000"
 3768      64657200 
 3769              	.LASF13:
 3770 0630 5F5F7569 		.ascii	"__uint64_t\000"
 3770      6E743634 
 3770      5F7400
 3771              	.LASF112:
 3772 063b 63756D75 		.ascii	"cumulative\000"
 3772      6C617469 
 3772      766500
 3773              	.LASF24:
 3774 0646 74726566 		.ascii	"trefs_t\000"
 3774      735F7400 
 3775              	.LASF105:
 3776 064e 74625F62 		.ascii	"tb_buffer\000"
ARM GAS  /var/folders/d2/nstgp4h54kz7g1l847x_b8wc0000gn/T//ccRPy61C.s 			page 72


 3776      75666665 
 3776      7200
 3777              	.LASF139:
 3778 0658 63685F70 		.ascii	"ch_ptrsize\000"
 3778      74727369 
 3778      7A6500
 3779              	.LASF69:
 3780 0663 76697274 		.ascii	"virtual_timer_t\000"
 3780      75616C5F 
 3780      74696D65 
 3780      725F7400 
 3781              	.LASF34:
 3782 0673 705F7072 		.ascii	"p_prev\000"
 3782      657600
 3783              	.LASF26:
 3784 067a 74707269 		.ascii	"tprio_t\000"
 3784      6F5F7400 
 3785              	.LASF115:
 3786 0682 6E5F6374 		.ascii	"n_ctxswc\000"
 3786      78737763 
 3786      00
 3787              	.LASF159:
 3788 068b 5F426F6F 		.ascii	"_Bool\000"
 3788      6C00
 3789              	.LASF17:
 3790 0691 696E7433 		.ascii	"int32_t\000"
 3790      325F7400 
 3791              	.LASF4:
 3792 0699 756E7369 		.ascii	"unsigned char\000"
 3792      676E6564 
 3792      20636861 
 3792      7200
 3793              	.LASF50:
 3794 06a7 705F6D74 		.ascii	"p_mtxlist\000"
 3794      786C6973 
 3794      7400
 3795              	.LASF5:
 3796 06b1 73686F72 		.ascii	"short int\000"
 3796      7420696E 
 3796      7400
 3797              	.LASF41:
 3798 06bb 705F7374 		.ascii	"p_state\000"
 3798      61746500 
 3799              	.LASF44:
 3800 06c3 705F7072 		.ascii	"p_preempt\000"
 3800      65656D70 
 3800      7400
 3801              	.LASF63:
 3802 06cd 725F7072 		.ascii	"r_prio\000"
 3802      696F00
 3803              	.LASF125:
 3804 06d4 65776D61 		.ascii	"ewmask\000"
 3804      736B00
 3805              	.LASF33:
 3806 06db 705F6E65 		.ascii	"p_next\000"
 3806      787400
 3807              	.LASF22:
ARM GAS  /var/folders/d2/nstgp4h54kz7g1l847x_b8wc0000gn/T//ccRPy61C.s 			page 73


 3808 06e2 746D6F64 		.ascii	"tmode_t\000"
 3808      655F7400 
 3809              	.LASF151:
 3810 06ea 63665F6F 		.ascii	"cf_off_preempt\000"
 3810      66665F70 
 3810      7265656D 
 3810      707400
 3811              	.LASF42:
 3812 06f9 705F666C 		.ascii	"p_flags\000"
 3812      61677300 
 3813              	.LASF156:
 3814 0701 5F5F6675 		.ascii	"__func__\000"
 3814      6E635F5F 
 3814      00
 3815              	.LASF53:
 3816 070a 705F7374 		.ascii	"p_stats\000"
 3816      61747300 
 3817              	.LASF165:
 3818 0712 63685379 		.ascii	"chSysLock\000"
 3818      734C6F63 
 3818      6B00
 3819              	.LASF58:
 3820 071c 74687265 		.ascii	"threads_queue_t\000"
 3820      6164735F 
 3820      71756575 
 3820      655F7400 
 3821              	.LASF70:
 3822 072c 63685F76 		.ascii	"ch_virtual_timer\000"
 3822      69727475 
 3822      616C5F74 
 3822      696D6572 
 3822      00
 3823              	.LASF183:
 3824 073d 63684D73 		.ascii	"chMsgRelease\000"
 3824      6752656C 
 3824      65617365 
 3824      00
 3825              	.LASF184:
 3826 074a 5F5F7374 		.ascii	"__stack_chk_fail\000"
 3826      61636B5F 
 3826      63686B5F 
 3826      6661696C 
 3826      00
 3827              	.LASF126:
 3828 075b 63685F73 		.ascii	"ch_semaphore\000"
 3828      656D6170 
 3828      686F7265 
 3828      00
 3829              	.LASF178:
 3830 0768 63685363 		.ascii	"chSchGoSleepS\000"
 3830      68476F53 
 3830      6C656570 
 3830      5300
 3831              	.LASF49:
 3832 0776 705F6570 		.ascii	"p_epending\000"
 3832      656E6469 
 3832      6E6700
ARM GAS  /var/folders/d2/nstgp4h54kz7g1l847x_b8wc0000gn/T//ccRPy61C.s 			page 74


 3833              	.LASF18:
 3834 0781 75696E74 		.ascii	"uint32_t\000"
 3834      33325F74 
 3834      00
 3835              	.LASF142:
 3836 078a 63665F6F 		.ascii	"cf_off_prio\000"
 3836      66665F70 
 3836      72696F00 
 3837              	.LASF62:
 3838 0796 725F7175 		.ascii	"r_queue\000"
 3838      65756500 
 3839              	.LASF179:
 3840 079e 63685363 		.ascii	"chSchReadyI\000"
 3840      68526561 
 3840      64794900 
 3841              	.LASF57:
 3842 07aa 63685F74 		.ascii	"ch_threads_list\000"
 3842      68726561 
 3842      64735F6C 
 3842      69737400 
 3843              	.LASF137:
 3844 07ba 63685F73 		.ascii	"ch_size\000"
 3844      697A6500 
 3845              	.LASF12:
 3846 07c2 6C6F6E67 		.ascii	"long unsigned int\000"
 3846      20756E73 
 3846      69676E65 
 3846      6420696E 
 3846      7400
 3847              	.LASF134:
 3848 07d4 63686172 		.ascii	"char\000"
 3848      00
 3849              	.LASF124:
 3850 07d9 77746D74 		.ascii	"wtmtxp\000"
 3850      787000
 3851              	.LASF7:
 3852 07e0 5F5F7569 		.ascii	"__uint16_t\000"
 3852      6E743136 
 3852      5F7400
 3853              	.LASF32:
 3854 07eb 74687265 		.ascii	"thread_t\000"
 3854      61645F74 
 3854      00
 3855              	.LASF109:
 3856 07f4 62657374 		.ascii	"best\000"
 3856      00
 3857              	.LASF163:
 3858 07f9 71756575 		.ascii	"queue_fifo_remove\000"
 3858      655F6669 
 3858      666F5F72 
 3858      656D6F76 
 3858      6500
 3859              	.LASF31:
 3860 080b 73797374 		.ascii	"systime_t\000"
 3860      696D655F 
 3860      7400
 3861              	.LASF51:
ARM GAS  /var/folders/d2/nstgp4h54kz7g1l847x_b8wc0000gn/T//ccRPy61C.s 			page 75


 3862 0815 705F7265 		.ascii	"p_realprio\000"
 3862      616C7072 
 3862      696F00
 3863              	.LASF68:
 3864 0820 76746675 		.ascii	"vtfunc_t\000"
 3864      6E635F74 
 3864      00
 3865              	.LASF11:
 3866 0829 5F5F7569 		.ascii	"__uint32_t\000"
 3866      6E743332 
 3866      5F7400
 3867              	.LASF168:
 3868 0834 5F5F7365 		.ascii	"__set_BASEPRI\000"
 3868      745F4241 
 3868      53455052 
 3868      4900
 3869              	.LASF81:
 3870 0842 70616E69 		.ascii	"panic_msg\000"
 3870      635F6D73 
 3870      6700
 3871              	.LASF107:
 3872 084c 6F666673 		.ascii	"offset\000"
 3872      657400
 3873              	.LASF96:
 3874 0853 636F6E74 		.ascii	"context\000"
 3874      65787400 
 3875              	.LASF48:
 3876 085b 705F6D73 		.ascii	"p_msg\000"
 3876      6700
 3877              	.LASF75:
 3878 0861 76745F70 		.ascii	"vt_par\000"
 3878      617200
 3879              	.LASF157:
 3880 0868 63684D73 		.ascii	"chMsgWait\000"
 3880      67576169 
 3880      7400
 3881              	.LASF98:
 3882 0872 73655F74 		.ascii	"se_time\000"
 3882      696D6500 
 3883              	.LASF143:
 3884 087a 63665F6F 		.ascii	"cf_off_ctx\000"
 3884      66665F63 
 3884      747800
 3885              	.LASF129:
 3886 0885 63685F6D 		.ascii	"ch_mutex\000"
 3886      75746578 
 3886      00
 3887              	.LASF43:
 3888 088e 705F7265 		.ascii	"p_refs\000"
 3888      667300
 3889              	.LASF82:
 3890 0895 6973725F 		.ascii	"isr_cnt\000"
 3890      636E7400 
 3891              	.LASF101:
 3892 089d 73655F73 		.ascii	"se_state\000"
 3892      74617465 
 3892      00
ARM GAS  /var/folders/d2/nstgp4h54kz7g1l847x_b8wc0000gn/T//ccRPy61C.s 			page 76


 3893              	.LASF87:
 3894 08a6 726C6973 		.ascii	"rlist\000"
 3894      7400
 3895              	.LASF15:
 3896 08ac 75696E74 		.ascii	"uint8_t\000"
 3896      385F7400 
 3897              	.LASF181:
 3898 08b4 2E2E2F65 		.ascii	"../e-puck2_main-processor/ChibiOS//os/rt/src/chmsg."
 3898      2D707563 
 3898      6B325F6D 
 3898      61696E2D 
 3898      70726F63 
 3899 08e7 6300     		.ascii	"c\000"
 3900              	.LASF174:
 3901 08e9 5F646267 		.ascii	"_dbg_check_unlock\000"
 3901      5F636865 
 3901      636B5F75 
 3901      6E6C6F63 
 3901      6B00
 3902              	.LASF54:
 3903 08fb 74687265 		.ascii	"thread_reference_t\000"
 3903      61645F72 
 3903      65666572 
 3903      656E6365 
 3903      5F7400
 3904              	.LASF121:
 3905 090e 77746F62 		.ascii	"wtobjp\000"
 3905      6A7000
 3906              	.LASF144:
 3907 0915 63665F6F 		.ascii	"cf_off_newer\000"
 3907      66665F6E 
 3907      65776572 
 3907      00
 3908              	.LASF39:
 3909 0922 705F6E61 		.ascii	"p_name\000"
 3909      6D6500
 3910              	.LASF78:
 3911 0929 76745F73 		.ascii	"vt_systime\000"
 3911      79737469 
 3911      6D6500
 3912              	.LASF84:
 3913 0934 74726163 		.ascii	"trace_buffer\000"
 3913      655F6275 
 3913      66666572 
 3913      00
 3914              	.LASF161:
 3915 0941 63685379 		.ascii	"chSysUnlock\000"
 3915      73556E6C 
 3915      6F636B00 
 3916              	.LASF138:
 3917 094d 63685F76 		.ascii	"ch_version\000"
 3917      65727369 
 3917      6F6E00
 3918              	.LASF160:
 3919 0958 63684D73 		.ascii	"chMsgReleaseS\000"
 3919      6752656C 
 3919      65617365 
ARM GAS  /var/folders/d2/nstgp4h54kz7g1l847x_b8wc0000gn/T//ccRPy61C.s 			page 77


 3919      5300
 3920              	.LASF116:
 3921 0966 6D5F6372 		.ascii	"m_crit_thd\000"
 3921      69745F74 
 3921      686400
 3922              	.LASF131:
 3923 0971 6D5F6F77 		.ascii	"m_owner\000"
 3923      6E657200 
 3924              	.LASF100:
 3925 0979 73655F77 		.ascii	"se_wtobjp\000"
 3925      746F626A 
 3925      7000
 3926              	.LASF135:
 3927 0983 63685F69 		.ascii	"ch_identifier\000"
 3927      64656E74 
 3927      69666965 
 3927      7200
 3928              	.LASF74:
 3929 0991 76745F66 		.ascii	"vt_func\000"
 3929      756E6300 
 3930              		.ident	"GCC: (GNU Tools for Arm Embedded Processors 7-2017-q4-major) 7.2.1 20170904 (release) [ARM
ARM GAS  /var/folders/d2/nstgp4h54kz7g1l847x_b8wc0000gn/T//ccRPy61C.s 			page 78


DEFINED SYMBOLS
                            *ABS*:0000000000000000 chmsg.c
/var/folders/d2/nstgp4h54kz7g1l847x_b8wc0000gn/T//ccRPy61C.s:18     .text.chMsgSend:0000000000000000 $t
/var/folders/d2/nstgp4h54kz7g1l847x_b8wc0000gn/T//ccRPy61C.s:26     .text.chMsgSend:0000000000000000 chMsgSend
/var/folders/d2/nstgp4h54kz7g1l847x_b8wc0000gn/T//ccRPy61C.s:213    .text.chMsgSend:0000000000000094 $d
/var/folders/d2/nstgp4h54kz7g1l847x_b8wc0000gn/T//ccRPy61C.s:221    .text.chMsgWait:0000000000000000 $t
/var/folders/d2/nstgp4h54kz7g1l847x_b8wc0000gn/T//ccRPy61C.s:229    .text.chMsgWait:0000000000000000 chMsgWait
/var/folders/d2/nstgp4h54kz7g1l847x_b8wc0000gn/T//ccRPy61C.s:398    .text.chMsgWait:000000000000007c $d
/var/folders/d2/nstgp4h54kz7g1l847x_b8wc0000gn/T//ccRPy61C.s:405    .text.chMsgRelease:0000000000000000 $t
/var/folders/d2/nstgp4h54kz7g1l847x_b8wc0000gn/T//ccRPy61C.s:413    .text.chMsgRelease:0000000000000000 chMsgRelease
/var/folders/d2/nstgp4h54kz7g1l847x_b8wc0000gn/T//ccRPy61C.s:547    .text.chMsgRelease:0000000000000070 $d
/var/folders/d2/nstgp4h54kz7g1l847x_b8wc0000gn/T//ccRPy61C.s:555    .rodata.__func__.7153:0000000000000000 $d
/var/folders/d2/nstgp4h54kz7g1l847x_b8wc0000gn/T//ccRPy61C.s:559    .rodata.__func__.7153:0000000000000000 __func__.7153
/var/folders/d2/nstgp4h54kz7g1l847x_b8wc0000gn/T//ccRPy61C.s:562    .rodata.__func__.7851:0000000000000000 $d
/var/folders/d2/nstgp4h54kz7g1l847x_b8wc0000gn/T//ccRPy61C.s:566    .rodata.__func__.7851:0000000000000000 __func__.7851
/var/folders/d2/nstgp4h54kz7g1l847x_b8wc0000gn/T//ccRPy61C.s:569    .rodata.__func__.7860:0000000000000000 $d
/var/folders/d2/nstgp4h54kz7g1l847x_b8wc0000gn/T//ccRPy61C.s:573    .rodata.__func__.7860:0000000000000000 __func__.7860

UNDEFINED SYMBOLS
_stats_start_measure_crit_thd
_dbg_check_lock
chSchGoSleepS
_dbg_check_unlock
_stats_stop_measure_crit_thd
chSysHalt
chSchReadyI
__stack_chk_fail
__stack_chk_guard
ch
chDbgCheckClassI
chDbgCheckClassS
chSchWakeupS
