ARM GAS  /var/folders/d2/nstgp4h54kz7g1l847x_b8wc0000gn/T//ccwS2Uuf.s 			page 1


   1              		.cpu cortex-m4
   2              		.eabi_attribute 27, 1
   3              		.eabi_attribute 28, 1
   4              		.eabi_attribute 20, 1
   5              		.eabi_attribute 21, 1
   6              		.eabi_attribute 23, 3
   7              		.eabi_attribute 24, 1
   8              		.eabi_attribute 25, 1
   9              		.eabi_attribute 26, 1
  10              		.eabi_attribute 30, 6
  11              		.eabi_attribute 34, 1
  12              		.eabi_attribute 18, 4
  13              		.file	"chprintf.c"
  14              		.section	.text.long_to_string_with_divisor,"ax",%progbits
  15              		.align	1
  16              		.syntax unified
  17              		.thumb
  18              		.thumb_func
  19              		.fpu fpv4-sp-d16
  20              		.type	long_to_string_with_divisor, %function
  21              	long_to_string_with_divisor:
  22              		@ args = 0, pretend = 0, frame = 32
  23              		@ frame_needed = 1, uses_anonymous_args = 0
  24              		@ link register save eliminated.
  25 0000 80B4     		push	{r7}
  26 0002 89B0     		sub	sp, sp, #36
  27 0004 00AF     		add	r7, sp, #0
  28 0006 F860     		str	r0, [r7, #12]
  29 0008 B960     		str	r1, [r7, #8]
  30 000a 7A60     		str	r2, [r7, #4]
  31 000c 3B60     		str	r3, [r7]
  32 000e BB68     		ldr	r3, [r7, #8]
  33 0010 7B61     		str	r3, [r7, #20]
  34 0012 3B68     		ldr	r3, [r7]
  35 0014 002B     		cmp	r3, #0
  36 0016 02D1     		bne	.L2
  37 0018 BB68     		ldr	r3, [r7, #8]
  38 001a 3B61     		str	r3, [r7, #16]
  39 001c 01E0     		b	.L3
  40              	.L2:
  41 001e 3B68     		ldr	r3, [r7]
  42 0020 3B61     		str	r3, [r7, #16]
  43              	.L3:
  44 0022 FB68     		ldr	r3, [r7, #12]
  45 0024 0B33     		adds	r3, r3, #11
  46 0026 BB61     		str	r3, [r7, #24]
  47              	.L5:
  48 0028 7B69     		ldr	r3, [r7, #20]
  49 002a 7A68     		ldr	r2, [r7, #4]
  50 002c B3FBF2F2 		udiv	r2, r3, r2
  51 0030 7968     		ldr	r1, [r7, #4]
  52 0032 01FB02F2 		mul	r2, r1, r2
  53 0036 9B1A     		subs	r3, r3, r2
  54 0038 FB61     		str	r3, [r7, #28]
  55 003a FB69     		ldr	r3, [r7, #28]
  56 003c 3033     		adds	r3, r3, #48
  57 003e FB61     		str	r3, [r7, #28]
ARM GAS  /var/folders/d2/nstgp4h54kz7g1l847x_b8wc0000gn/T//ccwS2Uuf.s 			page 2


  58 0040 FB69     		ldr	r3, [r7, #28]
  59 0042 392B     		cmp	r3, #57
  60 0044 02DD     		ble	.L4
  61 0046 FB69     		ldr	r3, [r7, #28]
  62 0048 0733     		adds	r3, r3, #7
  63 004a FB61     		str	r3, [r7, #28]
  64              	.L4:
  65 004c BB69     		ldr	r3, [r7, #24]
  66 004e 013B     		subs	r3, r3, #1
  67 0050 BB61     		str	r3, [r7, #24]
  68 0052 FB69     		ldr	r3, [r7, #28]
  69 0054 DAB2     		uxtb	r2, r3
  70 0056 BB69     		ldr	r3, [r7, #24]
  71 0058 1A70     		strb	r2, [r3]
  72 005a 7A69     		ldr	r2, [r7, #20]
  73 005c 7B68     		ldr	r3, [r7, #4]
  74 005e B2FBF3F3 		udiv	r3, r2, r3
  75 0062 7B61     		str	r3, [r7, #20]
  76 0064 3A69     		ldr	r2, [r7, #16]
  77 0066 7B68     		ldr	r3, [r7, #4]
  78 0068 B2FBF3F3 		udiv	r3, r2, r3
  79 006c 3B61     		str	r3, [r7, #16]
  80 006e 3B69     		ldr	r3, [r7, #16]
  81 0070 002B     		cmp	r3, #0
  82 0072 D9D1     		bne	.L5
  83 0074 FB68     		ldr	r3, [r7, #12]
  84 0076 0B33     		adds	r3, r3, #11
  85 0078 1A46     		mov	r2, r3
  86 007a BB69     		ldr	r3, [r7, #24]
  87 007c D31A     		subs	r3, r2, r3
  88 007e FB61     		str	r3, [r7, #28]
  89              	.L6:
  90 0080 BA69     		ldr	r2, [r7, #24]
  91 0082 531C     		adds	r3, r2, #1
  92 0084 BB61     		str	r3, [r7, #24]
  93 0086 FB68     		ldr	r3, [r7, #12]
  94 0088 591C     		adds	r1, r3, #1
  95 008a F960     		str	r1, [r7, #12]
  96 008c 1278     		ldrb	r2, [r2]	@ zero_extendqisi2
  97 008e 1A70     		strb	r2, [r3]
  98 0090 FB69     		ldr	r3, [r7, #28]
  99 0092 013B     		subs	r3, r3, #1
 100 0094 FB61     		str	r3, [r7, #28]
 101 0096 FB69     		ldr	r3, [r7, #28]
 102 0098 002B     		cmp	r3, #0
 103 009a F1D1     		bne	.L6
 104 009c FB68     		ldr	r3, [r7, #12]
 105 009e 1846     		mov	r0, r3
 106 00a0 2437     		adds	r7, r7, #36
 107 00a2 BD46     		mov	sp, r7
 108              		@ sp needed
 109 00a4 5DF8047B 		ldr	r7, [sp], #4
 110 00a8 7047     		bx	lr
 111              		.size	long_to_string_with_divisor, .-long_to_string_with_divisor
 112              		.section	.text.ch_ltoa,"ax",%progbits
 113              		.align	1
 114              		.syntax unified
ARM GAS  /var/folders/d2/nstgp4h54kz7g1l847x_b8wc0000gn/T//ccwS2Uuf.s 			page 3


 115              		.thumb
 116              		.thumb_func
 117              		.fpu fpv4-sp-d16
 118              		.type	ch_ltoa, %function
 119              	ch_ltoa:
 120              		@ args = 0, pretend = 0, frame = 16
 121              		@ frame_needed = 1, uses_anonymous_args = 0
 122 0000 80B5     		push	{r7, lr}
 123 0002 84B0     		sub	sp, sp, #16
 124 0004 00AF     		add	r7, sp, #0
 125 0006 F860     		str	r0, [r7, #12]
 126 0008 B960     		str	r1, [r7, #8]
 127 000a 7A60     		str	r2, [r7, #4]
 128 000c 0023     		movs	r3, #0
 129 000e 7A68     		ldr	r2, [r7, #4]
 130 0010 B968     		ldr	r1, [r7, #8]
 131 0012 F868     		ldr	r0, [r7, #12]
 132 0014 FFF7FEFF 		bl	long_to_string_with_divisor
 133 0018 0346     		mov	r3, r0
 134 001a 1846     		mov	r0, r3
 135 001c 1037     		adds	r7, r7, #16
 136 001e BD46     		mov	sp, r7
 137              		@ sp needed
 138 0020 80BD     		pop	{r7, pc}
 139              		.size	ch_ltoa, .-ch_ltoa
 140              		.section	.rodata.pow10,"a",%progbits
 141              		.align	2
 142              		.type	pow10, %object
 143              		.size	pow10, 36
 144              	pow10:
 145 0000 0A000000 		.word	10
 146 0004 64000000 		.word	100
 147 0008 E8030000 		.word	1000
 148 000c 10270000 		.word	10000
 149 0010 A0860100 		.word	100000
 150 0014 40420F00 		.word	1000000
 151 0018 80969800 		.word	10000000
 152 001c 00E1F505 		.word	100000000
 153 0020 00CA9A3B 		.word	1000000000
 154              		.global	__aeabi_d2iz
 155              		.global	__aeabi_i2d
 156              		.global	__aeabi_dsub
 157              		.global	__aeabi_ui2d
 158              		.global	__aeabi_dmul
 159              		.section	.text.ftoa,"ax",%progbits
 160              		.align	1
 161              		.syntax unified
 162              		.thumb
 163              		.thumb_func
 164              		.fpu fpv4-sp-d16
 165              		.type	ftoa, %function
 166              	ftoa:
 167              		@ args = 0, pretend = 0, frame = 24
 168              		@ frame_needed = 1, uses_anonymous_args = 0
 169 0000 B0B5     		push	{r4, r5, r7, lr}
 170 0002 86B0     		sub	sp, sp, #24
 171 0004 00AF     		add	r7, sp, #0
ARM GAS  /var/folders/d2/nstgp4h54kz7g1l847x_b8wc0000gn/T//ccwS2Uuf.s 			page 4


 172 0006 F860     		str	r0, [r7, #12]
 173 0008 87ED000B 		vstr.64	d0, [r7]
 174 000c B960     		str	r1, [r7, #8]
 175 000e BB68     		ldr	r3, [r7, #8]
 176 0010 002B     		cmp	r3, #0
 177 0012 02D0     		beq	.L11
 178 0014 BB68     		ldr	r3, [r7, #8]
 179 0016 092B     		cmp	r3, #9
 180 0018 01D9     		bls	.L12
 181              	.L11:
 182 001a 0923     		movs	r3, #9
 183 001c BB60     		str	r3, [r7, #8]
 184              	.L12:
 185 001e BB68     		ldr	r3, [r7, #8]
 186 0020 013B     		subs	r3, r3, #1
 187 0022 224A     		ldr	r2, .L14
 188 0024 52F82330 		ldr	r3, [r2, r3, lsl #2]
 189 0028 BB60     		str	r3, [r7, #8]
 190 002a D7E90001 		ldrd	r0, [r7]
 191 002e FFF7FEFF 		bl	__aeabi_d2iz
 192 0032 0346     		mov	r3, r0
 193 0034 7B61     		str	r3, [r7, #20]
 194 0036 0023     		movs	r3, #0
 195 0038 0A22     		movs	r2, #10
 196 003a 7969     		ldr	r1, [r7, #20]
 197 003c F868     		ldr	r0, [r7, #12]
 198 003e FFF7FEFF 		bl	long_to_string_with_divisor
 199 0042 F860     		str	r0, [r7, #12]
 200 0044 FB68     		ldr	r3, [r7, #12]
 201 0046 5A1C     		adds	r2, r3, #1
 202 0048 FA60     		str	r2, [r7, #12]
 203 004a 2E22     		movs	r2, #46
 204 004c 1A70     		strb	r2, [r3]
 205 004e 7869     		ldr	r0, [r7, #20]
 206 0050 FFF7FEFF 		bl	__aeabi_i2d
 207 0054 0346     		mov	r3, r0
 208 0056 0C46     		mov	r4, r1
 209 0058 1A46     		mov	r2, r3
 210 005a 2346     		mov	r3, r4
 211 005c D7E90001 		ldrd	r0, [r7]
 212 0060 FFF7FEFF 		bl	__aeabi_dsub
 213 0064 0346     		mov	r3, r0
 214 0066 0C46     		mov	r4, r1
 215 0068 2546     		mov	r5, r4
 216 006a 1C46     		mov	r4, r3
 217 006c B868     		ldr	r0, [r7, #8]
 218 006e FFF7FEFF 		bl	__aeabi_ui2d
 219 0072 0246     		mov	r2, r0
 220 0074 0B46     		mov	r3, r1
 221 0076 2046     		mov	r0, r4
 222 0078 2946     		mov	r1, r5
 223 007a FFF7FEFF 		bl	__aeabi_dmul
 224 007e 0346     		mov	r3, r0
 225 0080 0C46     		mov	r4, r1
 226 0082 1846     		mov	r0, r3
 227 0084 2146     		mov	r1, r4
 228 0086 FFF7FEFF 		bl	__aeabi_d2iz
ARM GAS  /var/folders/d2/nstgp4h54kz7g1l847x_b8wc0000gn/T//ccwS2Uuf.s 			page 5


 229 008a 0346     		mov	r3, r0
 230 008c 7B61     		str	r3, [r7, #20]
 231 008e BB68     		ldr	r3, [r7, #8]
 232 0090 074A     		ldr	r2, .L14+4
 233 0092 A2FB0323 		umull	r2, r3, r2, r3
 234 0096 DB08     		lsrs	r3, r3, #3
 235 0098 0A22     		movs	r2, #10
 236 009a 7969     		ldr	r1, [r7, #20]
 237 009c F868     		ldr	r0, [r7, #12]
 238 009e FFF7FEFF 		bl	long_to_string_with_divisor
 239 00a2 0346     		mov	r3, r0
 240 00a4 1846     		mov	r0, r3
 241 00a6 1837     		adds	r7, r7, #24
 242 00a8 BD46     		mov	sp, r7
 243              		@ sp needed
 244 00aa B0BD     		pop	{r4, r5, r7, pc}
 245              	.L15:
 246              		.align	2
 247              	.L14:
 248 00ac 00000000 		.word	pow10
 249 00b0 CDCCCCCC 		.word	-858993459
 250              		.size	ftoa, .-ftoa
 251              		.section	.rodata
 252              		.align	2
 253              	.LC0:
 254 0000 286E756C 		.ascii	"(null)\000"
 254      6C2900
 255              		.global	__aeabi_d2f
 256              		.global	__aeabi_f2d
 257              		.section	.text.chvprintf,"ax",%progbits
 258              		.align	1
 259              		.global	chvprintf
 260              		.syntax unified
 261              		.thumb
 262              		.thumb_func
 263              		.fpu fpv4-sp-d16
 264              		.type	chvprintf, %function
 265              	chvprintf:
 266              		@ args = 0, pretend = 0, frame = 80
 267              		@ frame_needed = 1, uses_anonymous_args = 0
 268 0000 B0B5     		push	{r4, r5, r7, lr}
 269 0002 94B0     		sub	sp, sp, #80
 270 0004 00AF     		add	r7, sp, #0
 271 0006 F860     		str	r0, [r7, #12]
 272 0008 B960     		str	r1, [r7, #8]
 273 000a 7A60     		str	r2, [r7, #4]
 274 000c 0023     		movs	r3, #0
 275 000e 7B63     		str	r3, [r7, #52]
 276              	.L71:
 277 0010 BB68     		ldr	r3, [r7, #8]
 278 0012 5A1C     		adds	r2, r3, #1
 279 0014 BA60     		str	r2, [r7, #8]
 280 0016 1B78     		ldrb	r3, [r3]
 281 0018 87F84730 		strb	r3, [r7, #71]
 282 001c 97F84730 		ldrb	r3, [r7, #71]	@ zero_extendqisi2
 283 0020 002B     		cmp	r3, #0
 284 0022 01D1     		bne	.L17
ARM GAS  /var/folders/d2/nstgp4h54kz7g1l847x_b8wc0000gn/T//ccwS2Uuf.s 			page 6


 285 0024 7B6B     		ldr	r3, [r7, #52]
 286 0026 40E2     		b	.L73
 287              	.L17:
 288 0028 97F84730 		ldrb	r3, [r7, #71]	@ zero_extendqisi2
 289 002c 252B     		cmp	r3, #37
 290 002e 0BD0     		beq	.L19
 291 0030 FB68     		ldr	r3, [r7, #12]
 292 0032 1B68     		ldr	r3, [r3]
 293 0034 9B68     		ldr	r3, [r3, #8]
 294 0036 97F84720 		ldrb	r2, [r7, #71]	@ zero_extendqisi2
 295 003a 1146     		mov	r1, r2
 296 003c F868     		ldr	r0, [r7, #12]
 297 003e 9847     		blx	r3
 298 0040 7B6B     		ldr	r3, [r7, #52]
 299 0042 0133     		adds	r3, r3, #1
 300 0044 7B63     		str	r3, [r7, #52]
 301 0046 2FE2     		b	.L20
 302              	.L19:
 303 0048 07F11003 		add	r3, r7, #16
 304 004c FB64     		str	r3, [r7, #76]
 305 004e 07F11003 		add	r3, r7, #16
 306 0052 BB64     		str	r3, [r7, #72]
 307 0054 0023     		movs	r3, #0
 308 0056 87F83230 		strb	r3, [r7, #50]
 309 005a BB68     		ldr	r3, [r7, #8]
 310 005c 1B78     		ldrb	r3, [r3]	@ zero_extendqisi2
 311 005e 2D2B     		cmp	r3, #45
 312 0060 05D1     		bne	.L21
 313 0062 BB68     		ldr	r3, [r7, #8]
 314 0064 0133     		adds	r3, r3, #1
 315 0066 BB60     		str	r3, [r7, #8]
 316 0068 0123     		movs	r3, #1
 317 006a 87F83230 		strb	r3, [r7, #50]
 318              	.L21:
 319 006e 2023     		movs	r3, #32
 320 0070 87F84630 		strb	r3, [r7, #70]
 321 0074 BB68     		ldr	r3, [r7, #8]
 322 0076 1B78     		ldrb	r3, [r3]	@ zero_extendqisi2
 323 0078 302B     		cmp	r3, #48
 324 007a 05D1     		bne	.L22
 325 007c BB68     		ldr	r3, [r7, #8]
 326 007e 0133     		adds	r3, r3, #1
 327 0080 BB60     		str	r3, [r7, #8]
 328 0082 3023     		movs	r3, #48
 329 0084 87F84630 		strb	r3, [r7, #70]
 330              	.L22:
 331 0088 0023     		movs	r3, #0
 332 008a BB63     		str	r3, [r7, #56]
 333              	.L27:
 334 008c BB68     		ldr	r3, [r7, #8]
 335 008e 5A1C     		adds	r2, r3, #1
 336 0090 BA60     		str	r2, [r7, #8]
 337 0092 1B78     		ldrb	r3, [r3]
 338 0094 87F84730 		strb	r3, [r7, #71]
 339 0098 97F84730 		ldrb	r3, [r7, #71]	@ zero_extendqisi2
 340 009c 2F2B     		cmp	r3, #47
 341 009e 09D9     		bls	.L23
ARM GAS  /var/folders/d2/nstgp4h54kz7g1l847x_b8wc0000gn/T//ccwS2Uuf.s 			page 7


 342 00a0 97F84730 		ldrb	r3, [r7, #71]	@ zero_extendqisi2
 343 00a4 392B     		cmp	r3, #57
 344 00a6 05D8     		bhi	.L23
 345 00a8 97F84730 		ldrb	r3, [r7, #71]
 346 00ac 303B     		subs	r3, r3, #48
 347 00ae 87F84730 		strb	r3, [r7, #71]
 348 00b2 09E0     		b	.L24
 349              	.L23:
 350 00b4 97F84730 		ldrb	r3, [r7, #71]	@ zero_extendqisi2
 351 00b8 2A2B     		cmp	r3, #42
 352 00ba 10D1     		bne	.L74
 353 00bc 7B68     		ldr	r3, [r7, #4]
 354 00be 1A1D     		adds	r2, r3, #4
 355 00c0 7A60     		str	r2, [r7, #4]
 356 00c2 1B68     		ldr	r3, [r3]
 357 00c4 87F84730 		strb	r3, [r7, #71]
 358              	.L24:
 359 00c8 BA6B     		ldr	r2, [r7, #56]
 360 00ca 1346     		mov	r3, r2
 361 00cc 9B00     		lsls	r3, r3, #2
 362 00ce 1344     		add	r3, r3, r2
 363 00d0 5B00     		lsls	r3, r3, #1
 364 00d2 1A46     		mov	r2, r3
 365 00d4 97F84730 		ldrb	r3, [r7, #71]	@ zero_extendqisi2
 366 00d8 1344     		add	r3, r3, r2
 367 00da BB63     		str	r3, [r7, #56]
 368 00dc D6E7     		b	.L27
 369              	.L74:
 370 00de 00BF     		nop
 371 00e0 0023     		movs	r3, #0
 372 00e2 FB63     		str	r3, [r7, #60]
 373 00e4 97F84730 		ldrb	r3, [r7, #71]	@ zero_extendqisi2
 374 00e8 2E2B     		cmp	r3, #46
 375 00ea 2AD1     		bne	.L28
 376              	.L32:
 377 00ec BB68     		ldr	r3, [r7, #8]
 378 00ee 5A1C     		adds	r2, r3, #1
 379 00f0 BA60     		str	r2, [r7, #8]
 380 00f2 1B78     		ldrb	r3, [r3]
 381 00f4 87F84730 		strb	r3, [r7, #71]
 382 00f8 97F84730 		ldrb	r3, [r7, #71]	@ zero_extendqisi2
 383 00fc 2F2B     		cmp	r3, #47
 384 00fe 09D9     		bls	.L29
 385 0100 97F84730 		ldrb	r3, [r7, #71]	@ zero_extendqisi2
 386 0104 392B     		cmp	r3, #57
 387 0106 05D8     		bhi	.L29
 388 0108 97F84730 		ldrb	r3, [r7, #71]
 389 010c 303B     		subs	r3, r3, #48
 390 010e 87F84730 		strb	r3, [r7, #71]
 391 0112 09E0     		b	.L30
 392              	.L29:
 393 0114 97F84730 		ldrb	r3, [r7, #71]	@ zero_extendqisi2
 394 0118 2A2B     		cmp	r3, #42
 395 011a 11D1     		bne	.L75
 396 011c 7B68     		ldr	r3, [r7, #4]
 397 011e 1A1D     		adds	r2, r3, #4
 398 0120 7A60     		str	r2, [r7, #4]
ARM GAS  /var/folders/d2/nstgp4h54kz7g1l847x_b8wc0000gn/T//ccwS2Uuf.s 			page 8


 399 0122 1B68     		ldr	r3, [r3]
 400 0124 87F84730 		strb	r3, [r7, #71]
 401              	.L30:
 402 0128 FA6B     		ldr	r2, [r7, #60]
 403 012a 1346     		mov	r3, r2
 404 012c 9B00     		lsls	r3, r3, #2
 405 012e 1344     		add	r3, r3, r2
 406 0130 5B00     		lsls	r3, r3, #1
 407 0132 FB63     		str	r3, [r7, #60]
 408 0134 97F84730 		ldrb	r3, [r7, #71]	@ zero_extendqisi2
 409 0138 FA6B     		ldr	r2, [r7, #60]
 410 013a 1344     		add	r3, r3, r2
 411 013c FB63     		str	r3, [r7, #60]
 412 013e D5E7     		b	.L32
 413              	.L75:
 414 0140 00BF     		nop
 415              	.L28:
 416 0142 97F84730 		ldrb	r3, [r7, #71]	@ zero_extendqisi2
 417 0146 6C2B     		cmp	r3, #108
 418 0148 03D0     		beq	.L33
 419 014a 97F84730 		ldrb	r3, [r7, #71]	@ zero_extendqisi2
 420 014e 4C2B     		cmp	r3, #76
 421 0150 0DD1     		bne	.L34
 422              	.L33:
 423 0152 0123     		movs	r3, #1
 424 0154 87F83330 		strb	r3, [r7, #51]
 425 0158 BB68     		ldr	r3, [r7, #8]
 426 015a 1B78     		ldrb	r3, [r3]	@ zero_extendqisi2
 427 015c 002B     		cmp	r3, #0
 428 015e 19D0     		beq	.L36
 429 0160 BB68     		ldr	r3, [r7, #8]
 430 0162 5A1C     		adds	r2, r3, #1
 431 0164 BA60     		str	r2, [r7, #8]
 432 0166 1B78     		ldrb	r3, [r3]
 433 0168 87F84730 		strb	r3, [r7, #71]
 434 016c 12E0     		b	.L36
 435              	.L34:
 436 016e 97F84730 		ldrb	r3, [r7, #71]	@ zero_extendqisi2
 437 0172 402B     		cmp	r3, #64
 438 0174 05D9     		bls	.L37
 439 0176 97F84730 		ldrb	r3, [r7, #71]	@ zero_extendqisi2
 440 017a 5A2B     		cmp	r3, #90
 441 017c 01D8     		bhi	.L37
 442 017e 0123     		movs	r3, #1
 443 0180 00E0     		b	.L38
 444              	.L37:
 445 0182 0023     		movs	r3, #0
 446              	.L38:
 447 0184 87F83330 		strb	r3, [r7, #51]
 448 0188 97F83330 		ldrb	r3, [r7, #51]
 449 018c 03F00103 		and	r3, r3, #1
 450 0190 87F83330 		strb	r3, [r7, #51]
 451              	.L36:
 452 0194 97F84730 		ldrb	r3, [r7, #71]	@ zero_extendqisi2
 453 0198 443B     		subs	r3, r3, #68
 454 019a 342B     		cmp	r3, #52
 455 019c 00F21381 		bhi	.L39
ARM GAS  /var/folders/d2/nstgp4h54kz7g1l847x_b8wc0000gn/T//ccwS2Uuf.s 			page 9


 456 01a0 01A2     		adr	r2, .L41
 457 01a2 52F823F0 		ldr	pc, [r2, r3, lsl #2]
 458 01a6 00BF     		.p2align 2
 459              	.L41:
 460 01a8 E1020000 		.word	.L40+1
 461 01ac C7030000 		.word	.L39+1
 462 01b0 C7030000 		.word	.L39+1
 463 01b4 C7030000 		.word	.L39+1
 464 01b8 C7030000 		.word	.L39+1
 465 01bc E1020000 		.word	.L40+1
 466 01c0 C7030000 		.word	.L39+1
 467 01c4 C7030000 		.word	.L39+1
 468 01c8 C7030000 		.word	.L39+1
 469 01cc C7030000 		.word	.L39+1
 470 01d0 C7030000 		.word	.L39+1
 471 01d4 91030000 		.word	.L42+1
 472 01d8 C7030000 		.word	.L39+1
 473 01dc C7030000 		.word	.L39+1
 474 01e0 C7030000 		.word	.L39+1
 475 01e4 C7030000 		.word	.L39+1
 476 01e8 C7030000 		.word	.L39+1
 477 01ec 89030000 		.word	.L43+1
 478 01f0 C7030000 		.word	.L39+1
 479 01f4 C7030000 		.word	.L39+1
 480 01f8 81030000 		.word	.L44+1
 481 01fc C7030000 		.word	.L39+1
 482 0200 C7030000 		.word	.L39+1
 483 0204 C7030000 		.word	.L39+1
 484 0208 C7030000 		.word	.L39+1
 485 020c C7030000 		.word	.L39+1
 486 0210 C7030000 		.word	.L39+1
 487 0214 C7030000 		.word	.L39+1
 488 0218 C7030000 		.word	.L39+1
 489 021c C7030000 		.word	.L39+1
 490 0220 C7030000 		.word	.L39+1
 491 0224 7D020000 		.word	.L45+1
 492 0228 E1020000 		.word	.L40+1
 493 022c C7030000 		.word	.L39+1
 494 0230 23030000 		.word	.L46+1
 495 0234 C7030000 		.word	.L39+1
 496 0238 C7030000 		.word	.L39+1
 497 023c E1020000 		.word	.L40+1
 498 0240 C7030000 		.word	.L39+1
 499 0244 C7030000 		.word	.L39+1
 500 0248 C7030000 		.word	.L39+1
 501 024c C7030000 		.word	.L39+1
 502 0250 C7030000 		.word	.L39+1
 503 0254 91030000 		.word	.L42+1
 504 0258 C7030000 		.word	.L39+1
 505 025c C7030000 		.word	.L39+1
 506 0260 C7030000 		.word	.L39+1
 507 0264 97020000 		.word	.L47+1
 508 0268 C7030000 		.word	.L39+1
 509 026c 89030000 		.word	.L43+1
 510 0270 C7030000 		.word	.L39+1
 511 0274 C7030000 		.word	.L39+1
 512 0278 81030000 		.word	.L44+1
ARM GAS  /var/folders/d2/nstgp4h54kz7g1l847x_b8wc0000gn/T//ccwS2Uuf.s 			page 10


 513              		.p2align 1
 514              	.L45:
 515 027c 2023     		movs	r3, #32
 516 027e 87F84630 		strb	r3, [r7, #70]
 517 0282 7B68     		ldr	r3, [r7, #4]
 518 0284 1A1D     		adds	r2, r3, #4
 519 0286 7A60     		str	r2, [r7, #4]
 520 0288 1968     		ldr	r1, [r3]
 521 028a FB6C     		ldr	r3, [r7, #76]
 522 028c 5A1C     		adds	r2, r3, #1
 523 028e FA64     		str	r2, [r7, #76]
 524 0290 CAB2     		uxtb	r2, r1
 525 0292 1A70     		strb	r2, [r3]
 526 0294 9FE0     		b	.L48
 527              	.L47:
 528 0296 2023     		movs	r3, #32
 529 0298 87F84630 		strb	r3, [r7, #70]
 530 029c 7B68     		ldr	r3, [r7, #4]
 531 029e 1A1D     		adds	r2, r3, #4
 532 02a0 7A60     		str	r2, [r7, #4]
 533 02a2 1B68     		ldr	r3, [r3]
 534 02a4 BB64     		str	r3, [r7, #72]
 535 02a6 BB6C     		ldr	r3, [r7, #72]
 536 02a8 002B     		cmp	r3, #0
 537 02aa 01D1     		bne	.L49
 538 02ac 814B     		ldr	r3, .L77
 539 02ae BB64     		str	r3, [r7, #72]
 540              	.L49:
 541 02b0 FB6B     		ldr	r3, [r7, #60]
 542 02b2 002B     		cmp	r3, #0
 543 02b4 02D1     		bne	.L50
 544 02b6 47F6FF73 		movw	r3, #32767
 545 02ba FB63     		str	r3, [r7, #60]
 546              	.L50:
 547 02bc BB6C     		ldr	r3, [r7, #72]
 548 02be FB64     		str	r3, [r7, #76]
 549 02c0 02E0     		b	.L51
 550              	.L53:
 551 02c2 FB6C     		ldr	r3, [r7, #76]
 552 02c4 0133     		adds	r3, r3, #1
 553 02c6 FB64     		str	r3, [r7, #76]
 554              	.L51:
 555 02c8 FB6C     		ldr	r3, [r7, #76]
 556 02ca 1B78     		ldrb	r3, [r3]	@ zero_extendqisi2
 557 02cc 002B     		cmp	r3, #0
 558 02ce 00F08180 		beq	.L76
 559 02d2 FB6B     		ldr	r3, [r7, #60]
 560 02d4 013B     		subs	r3, r3, #1
 561 02d6 FB63     		str	r3, [r7, #60]
 562 02d8 FB6B     		ldr	r3, [r7, #60]
 563 02da 002B     		cmp	r3, #0
 564 02dc F1DA     		bge	.L53
 565 02de 79E0     		b	.L76
 566              	.L40:
 567 02e0 97F83330 		ldrb	r3, [r7, #51]	@ zero_extendqisi2
 568 02e4 002B     		cmp	r3, #0
 569 02e6 05D0     		beq	.L54
ARM GAS  /var/folders/d2/nstgp4h54kz7g1l847x_b8wc0000gn/T//ccwS2Uuf.s 			page 11


 570 02e8 7B68     		ldr	r3, [r7, #4]
 571 02ea 1A1D     		adds	r2, r3, #4
 572 02ec 7A60     		str	r2, [r7, #4]
 573 02ee 1B68     		ldr	r3, [r3]
 574 02f0 FB62     		str	r3, [r7, #44]
 575 02f2 04E0     		b	.L55
 576              	.L54:
 577 02f4 7B68     		ldr	r3, [r7, #4]
 578 02f6 1A1D     		adds	r2, r3, #4
 579 02f8 7A60     		str	r2, [r7, #4]
 580 02fa 1B68     		ldr	r3, [r3]
 581 02fc FB62     		str	r3, [r7, #44]
 582              	.L55:
 583 02fe FB6A     		ldr	r3, [r7, #44]
 584 0300 002B     		cmp	r3, #0
 585 0302 07DA     		bge	.L56
 586 0304 FB6C     		ldr	r3, [r7, #76]
 587 0306 5A1C     		adds	r2, r3, #1
 588 0308 FA64     		str	r2, [r7, #76]
 589 030a 2D22     		movs	r2, #45
 590 030c 1A70     		strb	r2, [r3]
 591 030e FB6A     		ldr	r3, [r7, #44]
 592 0310 5B42     		negs	r3, r3
 593 0312 FB62     		str	r3, [r7, #44]
 594              	.L56:
 595 0314 0A22     		movs	r2, #10
 596 0316 F96A     		ldr	r1, [r7, #44]
 597 0318 F86C     		ldr	r0, [r7, #76]
 598 031a FFF7FEFF 		bl	ch_ltoa
 599 031e F864     		str	r0, [r7, #76]
 600 0320 59E0     		b	.L48
 601              	.L46:
 602 0322 7B68     		ldr	r3, [r7, #4]
 603 0324 0733     		adds	r3, r3, #7
 604 0326 23F00703 		bic	r3, r3, #7
 605 032a 03F10802 		add	r2, r3, #8
 606 032e 7A60     		str	r2, [r7, #4]
 607 0330 D3E90034 		ldrd	r3, [r3]
 608 0334 1846     		mov	r0, r3
 609 0336 2146     		mov	r1, r4
 610 0338 FFF7FEFF 		bl	__aeabi_d2f
 611 033c 0346     		mov	r3, r0	@ float
 612 033e BB62     		str	r3, [r7, #40]	@ float
 613 0340 D7ED0A7A 		vldr.32	s15, [r7, #40]
 614 0344 F5EEC07A 		vcmpe.f32	s15, #0
 615 0348 F1EE10FA 		vmrs	APSR_nzcv, FPSCR
 616 034c 0AD5     		bpl	.L57
 617 034e FB6C     		ldr	r3, [r7, #76]
 618 0350 5A1C     		adds	r2, r3, #1
 619 0352 FA64     		str	r2, [r7, #76]
 620 0354 2D22     		movs	r2, #45
 621 0356 1A70     		strb	r2, [r3]
 622 0358 D7ED0A7A 		vldr.32	s15, [r7, #40]
 623 035c F1EE677A 		vneg.f32	s15, s15
 624 0360 C7ED0A7A 		vstr.32	s15, [r7, #40]
 625              	.L57:
 626 0364 B86A     		ldr	r0, [r7, #40]	@ float
ARM GAS  /var/folders/d2/nstgp4h54kz7g1l847x_b8wc0000gn/T//ccwS2Uuf.s 			page 12


 627 0366 FFF7FEFF 		bl	__aeabi_f2d
 628 036a 0446     		mov	r4, r0
 629 036c 0D46     		mov	r5, r1
 630 036e FB6B     		ldr	r3, [r7, #60]
 631 0370 1946     		mov	r1, r3
 632 0372 45EC104B 		vmov	d0, r4, r5
 633 0376 F86C     		ldr	r0, [r7, #76]
 634 0378 FFF7FEFF 		bl	ftoa
 635 037c F864     		str	r0, [r7, #76]
 636 037e 2AE0     		b	.L48
 637              	.L44:
 638 0380 1023     		movs	r3, #16
 639 0382 87F84730 		strb	r3, [r7, #71]
 640 0386 06E0     		b	.L59
 641              	.L43:
 642 0388 0A23     		movs	r3, #10
 643 038a 87F84730 		strb	r3, [r7, #71]
 644 038e 02E0     		b	.L59
 645              	.L42:
 646 0390 0823     		movs	r3, #8
 647 0392 87F84730 		strb	r3, [r7, #71]
 648              	.L59:
 649 0396 97F83330 		ldrb	r3, [r7, #51]	@ zero_extendqisi2
 650 039a 002B     		cmp	r3, #0
 651 039c 05D0     		beq	.L60
 652 039e 7B68     		ldr	r3, [r7, #4]
 653 03a0 1A1D     		adds	r2, r3, #4
 654 03a2 7A60     		str	r2, [r7, #4]
 655 03a4 1B68     		ldr	r3, [r3]
 656 03a6 FB62     		str	r3, [r7, #44]
 657 03a8 04E0     		b	.L61
 658              	.L60:
 659 03aa 7B68     		ldr	r3, [r7, #4]
 660 03ac 1A1D     		adds	r2, r3, #4
 661 03ae 7A60     		str	r2, [r7, #4]
 662 03b0 1B68     		ldr	r3, [r3]
 663 03b2 FB62     		str	r3, [r7, #44]
 664              	.L61:
 665 03b4 97F84730 		ldrb	r3, [r7, #71]	@ zero_extendqisi2
 666 03b8 1A46     		mov	r2, r3
 667 03ba F96A     		ldr	r1, [r7, #44]
 668 03bc F86C     		ldr	r0, [r7, #76]
 669 03be FFF7FEFF 		bl	ch_ltoa
 670 03c2 F864     		str	r0, [r7, #76]
 671 03c4 07E0     		b	.L48
 672              	.L39:
 673 03c6 FB6C     		ldr	r3, [r7, #76]
 674 03c8 5A1C     		adds	r2, r3, #1
 675 03ca FA64     		str	r2, [r7, #76]
 676 03cc 97F84720 		ldrb	r2, [r7, #71]
 677 03d0 1A70     		strb	r2, [r3]
 678 03d2 00E0     		b	.L48
 679              	.L76:
 680 03d4 00BF     		nop
 681              	.L48:
 682 03d6 FA6C     		ldr	r2, [r7, #76]
 683 03d8 BB6C     		ldr	r3, [r7, #72]
ARM GAS  /var/folders/d2/nstgp4h54kz7g1l847x_b8wc0000gn/T//ccwS2Uuf.s 			page 13


 684 03da D31A     		subs	r3, r2, r3
 685 03dc 3B64     		str	r3, [r7, #64]
 686 03de BA6B     		ldr	r2, [r7, #56]
 687 03e0 3B6C     		ldr	r3, [r7, #64]
 688 03e2 D31A     		subs	r3, r2, r3
 689 03e4 BB63     		str	r3, [r7, #56]
 690 03e6 BB6B     		ldr	r3, [r7, #56]
 691 03e8 002B     		cmp	r3, #0
 692 03ea 01DA     		bge	.L62
 693 03ec 0023     		movs	r3, #0
 694 03ee BB63     		str	r3, [r7, #56]
 695              	.L62:
 696 03f0 97F83230 		ldrb	r3, [r7, #50]
 697 03f4 83F00103 		eor	r3, r3, #1
 698 03f8 DBB2     		uxtb	r3, r3
 699 03fa 002B     		cmp	r3, #0
 700 03fc 02D0     		beq	.L63
 701 03fe BB6B     		ldr	r3, [r7, #56]
 702 0400 5B42     		negs	r3, r3
 703 0402 BB63     		str	r3, [r7, #56]
 704              	.L63:
 705 0404 BB6B     		ldr	r3, [r7, #56]
 706 0406 002B     		cmp	r3, #0
 707 0408 36DA     		bge	.L67
 708 040a BB6C     		ldr	r3, [r7, #72]
 709 040c 1B78     		ldrb	r3, [r3]	@ zero_extendqisi2
 710 040e 2D2B     		cmp	r3, #45
 711 0410 13D1     		bne	.L66
 712 0412 97F84630 		ldrb	r3, [r7, #70]	@ zero_extendqisi2
 713 0416 302B     		cmp	r3, #48
 714 0418 0FD1     		bne	.L66
 715 041a FB68     		ldr	r3, [r7, #12]
 716 041c 1B68     		ldr	r3, [r3]
 717 041e 9A68     		ldr	r2, [r3, #8]
 718 0420 BB6C     		ldr	r3, [r7, #72]
 719 0422 591C     		adds	r1, r3, #1
 720 0424 B964     		str	r1, [r7, #72]
 721 0426 1B78     		ldrb	r3, [r3]	@ zero_extendqisi2
 722 0428 1946     		mov	r1, r3
 723 042a F868     		ldr	r0, [r7, #12]
 724 042c 9047     		blx	r2
 725 042e 7B6B     		ldr	r3, [r7, #52]
 726 0430 0133     		adds	r3, r3, #1
 727 0432 7B63     		str	r3, [r7, #52]
 728 0434 3B6C     		ldr	r3, [r7, #64]
 729 0436 013B     		subs	r3, r3, #1
 730 0438 3B64     		str	r3, [r7, #64]
 731              	.L66:
 732 043a FB68     		ldr	r3, [r7, #12]
 733 043c 1B68     		ldr	r3, [r3]
 734 043e 9B68     		ldr	r3, [r3, #8]
 735 0440 97F84620 		ldrb	r2, [r7, #70]	@ zero_extendqisi2
 736 0444 1146     		mov	r1, r2
 737 0446 F868     		ldr	r0, [r7, #12]
 738 0448 9847     		blx	r3
 739 044a 7B6B     		ldr	r3, [r7, #52]
 740 044c 0133     		adds	r3, r3, #1
ARM GAS  /var/folders/d2/nstgp4h54kz7g1l847x_b8wc0000gn/T//ccwS2Uuf.s 			page 14


 741 044e 7B63     		str	r3, [r7, #52]
 742 0450 BB6B     		ldr	r3, [r7, #56]
 743 0452 0133     		adds	r3, r3, #1
 744 0454 BB63     		str	r3, [r7, #56]
 745 0456 BB6B     		ldr	r3, [r7, #56]
 746 0458 002B     		cmp	r3, #0
 747 045a EED1     		bne	.L66
 748 045c 0CE0     		b	.L67
 749              	.L68:
 750 045e FB68     		ldr	r3, [r7, #12]
 751 0460 1B68     		ldr	r3, [r3]
 752 0462 9A68     		ldr	r2, [r3, #8]
 753 0464 BB6C     		ldr	r3, [r7, #72]
 754 0466 591C     		adds	r1, r3, #1
 755 0468 B964     		str	r1, [r7, #72]
 756 046a 1B78     		ldrb	r3, [r3]	@ zero_extendqisi2
 757 046c 1946     		mov	r1, r3
 758 046e F868     		ldr	r0, [r7, #12]
 759 0470 9047     		blx	r2
 760 0472 7B6B     		ldr	r3, [r7, #52]
 761 0474 0133     		adds	r3, r3, #1
 762 0476 7B63     		str	r3, [r7, #52]
 763              	.L67:
 764 0478 3B6C     		ldr	r3, [r7, #64]
 765 047a 013B     		subs	r3, r3, #1
 766 047c 3B64     		str	r3, [r7, #64]
 767 047e 3B6C     		ldr	r3, [r7, #64]
 768 0480 002B     		cmp	r3, #0
 769 0482 ECDA     		bge	.L68
 770 0484 0DE0     		b	.L69
 771              	.L70:
 772 0486 FB68     		ldr	r3, [r7, #12]
 773 0488 1B68     		ldr	r3, [r3]
 774 048a 9B68     		ldr	r3, [r3, #8]
 775 048c 97F84620 		ldrb	r2, [r7, #70]	@ zero_extendqisi2
 776 0490 1146     		mov	r1, r2
 777 0492 F868     		ldr	r0, [r7, #12]
 778 0494 9847     		blx	r3
 779 0496 7B6B     		ldr	r3, [r7, #52]
 780 0498 0133     		adds	r3, r3, #1
 781 049a 7B63     		str	r3, [r7, #52]
 782 049c BB6B     		ldr	r3, [r7, #56]
 783 049e 013B     		subs	r3, r3, #1
 784 04a0 BB63     		str	r3, [r7, #56]
 785              	.L69:
 786 04a2 BB6B     		ldr	r3, [r7, #56]
 787 04a4 002B     		cmp	r3, #0
 788 04a6 EED1     		bne	.L70
 789              	.L20:
 790 04a8 B2E5     		b	.L71
 791              	.L73:
 792 04aa 1846     		mov	r0, r3
 793 04ac 5037     		adds	r7, r7, #80
 794 04ae BD46     		mov	sp, r7
 795              		@ sp needed
 796 04b0 B0BD     		pop	{r4, r5, r7, pc}
 797              	.L78:
ARM GAS  /var/folders/d2/nstgp4h54kz7g1l847x_b8wc0000gn/T//ccwS2Uuf.s 			page 15


 798 04b2 00BF     		.align	2
 799              	.L77:
 800 04b4 00000000 		.word	.LC0
 801              		.size	chvprintf, .-chvprintf
 802              		.section	.text.chsnprintf,"ax",%progbits
 803              		.align	1
 804              		.global	chsnprintf
 805              		.syntax unified
 806              		.thumb
 807              		.thumb_func
 808              		.fpu fpv4-sp-d16
 809              		.type	chsnprintf, %function
 810              	chsnprintf:
 811              		@ args = 4, pretend = 8, frame = 48
 812              		@ frame_needed = 1, uses_anonymous_args = 1
 813 0000 0CB4     		push	{r2, r3}
 814 0002 80B5     		push	{r7, lr}
 815 0004 8CB0     		sub	sp, sp, #48
 816 0006 00AF     		add	r7, sp, #0
 817 0008 7860     		str	r0, [r7, #4]
 818 000a 3960     		str	r1, [r7]
 819 000c 3B68     		ldr	r3, [r7]
 820 000e 002B     		cmp	r3, #0
 821 0010 03D0     		beq	.L80
 822 0012 3B68     		ldr	r3, [r7]
 823 0014 013B     		subs	r3, r3, #1
 824 0016 FB62     		str	r3, [r7, #44]
 825 0018 01E0     		b	.L81
 826              	.L80:
 827 001a 0023     		movs	r3, #0
 828 001c FB62     		str	r3, [r7, #44]
 829              	.L81:
 830 001e 07F10C00 		add	r0, r7, #12
 831 0022 0023     		movs	r3, #0
 832 0024 FA6A     		ldr	r2, [r7, #44]
 833 0026 7968     		ldr	r1, [r7, #4]
 834 0028 FFF7FEFF 		bl	msObjectInit
 835 002c 07F10C03 		add	r3, r7, #12
 836 0030 BB62     		str	r3, [r7, #40]
 837 0032 07F13C03 		add	r3, r7, #60
 838 0036 3B62     		str	r3, [r7, #32]
 839 0038 3A6A     		ldr	r2, [r7, #32]
 840 003a B96B     		ldr	r1, [r7, #56]
 841 003c B86A     		ldr	r0, [r7, #40]
 842 003e FFF7FEFF 		bl	chvprintf
 843 0042 7862     		str	r0, [r7, #36]
 844 0044 BB69     		ldr	r3, [r7, #24]
 845 0046 3A68     		ldr	r2, [r7]
 846 0048 9A42     		cmp	r2, r3
 847 004a 04D9     		bls	.L82
 848 004c BB69     		ldr	r3, [r7, #24]
 849 004e 7A68     		ldr	r2, [r7, #4]
 850 0050 1344     		add	r3, r3, r2
 851 0052 0022     		movs	r2, #0
 852 0054 1A70     		strb	r2, [r3]
 853              	.L82:
 854 0056 7B6A     		ldr	r3, [r7, #36]
ARM GAS  /var/folders/d2/nstgp4h54kz7g1l847x_b8wc0000gn/T//ccwS2Uuf.s 			page 16


 855 0058 1846     		mov	r0, r3
 856 005a 3037     		adds	r7, r7, #48
 857 005c BD46     		mov	sp, r7
 858              		@ sp needed
 859 005e BDE88040 		pop	{r7, lr}
 860 0062 02B0     		add	sp, sp, #8
 861 0064 7047     		bx	lr
 862              		.size	chsnprintf, .-chsnprintf
 863              		.ident	"GCC: (GNU Tools for Arm Embedded Processors 7-2017-q4-major) 7.2.1 20170904 (release) [ARM
ARM GAS  /var/folders/d2/nstgp4h54kz7g1l847x_b8wc0000gn/T//ccwS2Uuf.s 			page 17

