ARM GAS  /var/folders/d2/nstgp4h54kz7g1l847x_b8wc0000gn/T//ccgaysYU.s 			page 1


   1              		.cpu cortex-m4
   2              		.eabi_attribute 27, 1
   3              		.eabi_attribute 28, 1
   4              		.eabi_attribute 20, 1
   5              		.eabi_attribute 21, 1
   6              		.eabi_attribute 23, 3
   7              		.eabi_attribute 24, 1
   8              		.eabi_attribute 25, 1
   9              		.eabi_attribute 26, 1
  10              		.eabi_attribute 30, 6
  11              		.eabi_attribute 34, 1
  12              		.eabi_attribute 18, 4
  13              		.file	"chregistry.c"
  14              		.section	.text.port_lock,"ax",%progbits
  15              		.align	1
  16              		.syntax unified
  17              		.thumb
  18              		.thumb_func
  19              		.fpu fpv4-sp-d16
  20              		.type	port_lock, %function
  21              	port_lock:
  22              		@ args = 0, pretend = 0, frame = 8
  23              		@ frame_needed = 1, uses_anonymous_args = 0
  24              		@ link register save eliminated.
  25 0000 80B4     		push	{r7}
  26 0002 83B0     		sub	sp, sp, #12
  27 0004 00AF     		add	r7, sp, #0
  28 0006 2023     		movs	r3, #32
  29 0008 7B60     		str	r3, [r7, #4]
  30 000a 7B68     		ldr	r3, [r7, #4]
  31              		.syntax unified
  32              	@ 546 "../e-puck2_main-processor/ChibiOS//os/ext/CMSIS/include/core_cmFunc.h" 1
  33 000c 83F31188 		MSR basepri, r3
  34              	@ 0 "" 2
  35              		.thumb
  36              		.syntax unified
  37 0010 00BF     		nop
  38 0012 0C37     		adds	r7, r7, #12
  39 0014 BD46     		mov	sp, r7
  40              		@ sp needed
  41 0016 5DF8047B 		ldr	r7, [sp], #4
  42 001a 7047     		bx	lr
  43              		.size	port_lock, .-port_lock
  44              		.section	.text.port_unlock,"ax",%progbits
  45              		.align	1
  46              		.syntax unified
  47              		.thumb
  48              		.thumb_func
  49              		.fpu fpv4-sp-d16
  50              		.type	port_unlock, %function
  51              	port_unlock:
  52              		@ args = 0, pretend = 0, frame = 8
  53              		@ frame_needed = 1, uses_anonymous_args = 0
  54              		@ link register save eliminated.
  55 0000 80B4     		push	{r7}
  56 0002 83B0     		sub	sp, sp, #12
  57 0004 00AF     		add	r7, sp, #0
ARM GAS  /var/folders/d2/nstgp4h54kz7g1l847x_b8wc0000gn/T//ccgaysYU.s 			page 2


  58 0006 0023     		movs	r3, #0
  59 0008 7B60     		str	r3, [r7, #4]
  60 000a 7B68     		ldr	r3, [r7, #4]
  61              		.syntax unified
  62              	@ 546 "../e-puck2_main-processor/ChibiOS//os/ext/CMSIS/include/core_cmFunc.h" 1
  63 000c 83F31188 		MSR basepri, r3
  64              	@ 0 "" 2
  65              		.thumb
  66              		.syntax unified
  67 0010 00BF     		nop
  68 0012 0C37     		adds	r7, r7, #12
  69 0014 BD46     		mov	sp, r7
  70              		@ sp needed
  71 0016 5DF8047B 		ldr	r7, [sp], #4
  72 001a 7047     		bx	lr
  73              		.size	port_unlock, .-port_unlock
  74              		.section	.text.chSysLock,"ax",%progbits
  75              		.align	1
  76              		.syntax unified
  77              		.thumb
  78              		.thumb_func
  79              		.fpu fpv4-sp-d16
  80              		.type	chSysLock, %function
  81              	chSysLock:
  82              		@ args = 0, pretend = 0, frame = 0
  83              		@ frame_needed = 1, uses_anonymous_args = 0
  84 0000 80B5     		push	{r7, lr}
  85 0002 00AF     		add	r7, sp, #0
  86 0004 FFF7FEFF 		bl	port_lock
  87 0008 FFF7FEFF 		bl	_stats_start_measure_crit_thd
  88 000c FFF7FEFF 		bl	_dbg_check_lock
  89 0010 00BF     		nop
  90 0012 80BD     		pop	{r7, pc}
  91              		.size	chSysLock, .-chSysLock
  92              		.section	.text.chSysUnlock,"ax",%progbits
  93              		.align	1
  94              		.syntax unified
  95              		.thumb
  96              		.thumb_func
  97              		.fpu fpv4-sp-d16
  98              		.type	chSysUnlock, %function
  99              	chSysUnlock:
 100              		@ args = 0, pretend = 0, frame = 0
 101              		@ frame_needed = 1, uses_anonymous_args = 0
 102 0000 80B5     		push	{r7, lr}
 103 0002 00AF     		add	r7, sp, #0
 104 0004 FFF7FEFF 		bl	_dbg_check_unlock
 105 0008 FFF7FEFF 		bl	_stats_stop_measure_crit_thd
 106 000c 094B     		ldr	r3, .L6
 107 000e 1B68     		ldr	r3, [r3]
 108 0010 084A     		ldr	r2, .L6
 109 0012 9342     		cmp	r3, r2
 110 0014 0AD0     		beq	.L5
 111 0016 074B     		ldr	r3, .L6
 112 0018 9B69     		ldr	r3, [r3, #24]
 113 001a 9A68     		ldr	r2, [r3, #8]
 114 001c 054B     		ldr	r3, .L6
ARM GAS  /var/folders/d2/nstgp4h54kz7g1l847x_b8wc0000gn/T//ccgaysYU.s 			page 3


 115 001e 1B68     		ldr	r3, [r3]
 116 0020 9B68     		ldr	r3, [r3, #8]
 117 0022 9A42     		cmp	r2, r3
 118 0024 02D2     		bcs	.L5
 119 0026 0448     		ldr	r0, .L6+4
 120 0028 FFF7FEFF 		bl	chSysHalt
 121              	.L5:
 122 002c FFF7FEFF 		bl	port_unlock
 123 0030 00BF     		nop
 124 0032 80BD     		pop	{r7, pc}
 125              	.L7:
 126              		.align	2
 127              	.L6:
 128 0034 00000000 		.word	ch
 129 0038 00000000 		.word	__func__.7153
 130              		.size	chSysUnlock, .-chSysUnlock
 131              		.global	ch_debug
 132              		.section	.rodata.ch_debug,"a",%progbits
 133              		.align	2
 134              		.type	ch_debug, %object
 135              		.size	ch_debug, 22
 136              	ch_debug:
 137 0000 6D       		.byte	109
 138 0001 61       		.byte	97
 139 0002 69       		.byte	105
 140 0003 6E       		.byte	110
 141 0004 00       		.byte	0
 142 0005 16       		.byte	22
 143 0006 0118     		.short	6145
 144 0008 04       		.byte	4
 145 0009 04       		.byte	4
 146 000a 68       		.byte	104
 147 000b 08       		.byte	8
 148 000c 0C       		.byte	12
 149 000d 10       		.byte	16
 150 000e 14       		.byte	20
 151 000f 18       		.byte	24
 152 0010 1C       		.byte	28
 153 0011 20       		.byte	32
 154 0012 21       		.byte	33
 155 0013 22       		.byte	34
 156 0014 23       		.byte	35
 157 0015 24       		.byte	36
 158              		.section	.text.chRegFirstThread,"ax",%progbits
 159              		.align	1
 160              		.global	chRegFirstThread
 161              		.syntax unified
 162              		.thumb
 163              		.thumb_func
 164              		.fpu fpv4-sp-d16
 165              		.type	chRegFirstThread, %function
 166              	chRegFirstThread:
 167              		@ args = 0, pretend = 0, frame = 8
 168              		@ frame_needed = 1, uses_anonymous_args = 0
 169 0000 80B5     		push	{r7, lr}
 170 0002 82B0     		sub	sp, sp, #8
 171 0004 00AF     		add	r7, sp, #0
ARM GAS  /var/folders/d2/nstgp4h54kz7g1l847x_b8wc0000gn/T//ccgaysYU.s 			page 4


 172 0006 FFF7FEFF 		bl	chSysLock
 173 000a 094B     		ldr	r3, .L10
 174 000c 1B69     		ldr	r3, [r3, #16]
 175 000e 7B60     		str	r3, [r7, #4]
 176 0010 7B68     		ldr	r3, [r7, #4]
 177 0012 93F82230 		ldrb	r3, [r3, #34]	@ zero_extendqisi2
 178 0016 0133     		adds	r3, r3, #1
 179 0018 DAB2     		uxtb	r2, r3
 180 001a 7B68     		ldr	r3, [r7, #4]
 181 001c 83F82220 		strb	r2, [r3, #34]
 182 0020 FFF7FEFF 		bl	chSysUnlock
 183 0024 7B68     		ldr	r3, [r7, #4]
 184 0026 1846     		mov	r0, r3
 185 0028 0837     		adds	r7, r7, #8
 186 002a BD46     		mov	sp, r7
 187              		@ sp needed
 188 002c 80BD     		pop	{r7, pc}
 189              	.L11:
 190 002e 00BF     		.align	2
 191              	.L10:
 192 0030 00000000 		.word	ch
 193              		.size	chRegFirstThread, .-chRegFirstThread
 194              		.section	.text.chRegNextThread,"ax",%progbits
 195              		.align	1
 196              		.global	chRegNextThread
 197              		.syntax unified
 198              		.thumb
 199              		.thumb_func
 200              		.fpu fpv4-sp-d16
 201              		.type	chRegNextThread, %function
 202              	chRegNextThread:
 203              		@ args = 0, pretend = 0, frame = 16
 204              		@ frame_needed = 1, uses_anonymous_args = 0
 205 0000 80B5     		push	{r7, lr}
 206 0002 84B0     		sub	sp, sp, #16
 207 0004 00AF     		add	r7, sp, #0
 208 0006 7860     		str	r0, [r7, #4]
 209 0008 FFF7FEFF 		bl	chSysLock
 210 000c 7B68     		ldr	r3, [r7, #4]
 211 000e 1B69     		ldr	r3, [r3, #16]
 212 0010 FB60     		str	r3, [r7, #12]
 213 0012 FB68     		ldr	r3, [r7, #12]
 214 0014 0F4A     		ldr	r2, .L17
 215 0016 9342     		cmp	r3, r2
 216 0018 02D1     		bne	.L13
 217 001a 0023     		movs	r3, #0
 218 001c FB60     		str	r3, [r7, #12]
 219 001e 0FE0     		b	.L14
 220              	.L13:
 221 0020 FB68     		ldr	r3, [r7, #12]
 222 0022 93F82230 		ldrb	r3, [r3, #34]	@ zero_extendqisi2
 223 0026 FF2B     		cmp	r3, #255
 224 0028 02D1     		bne	.L15
 225 002a 0B48     		ldr	r0, .L17+4
 226 002c FFF7FEFF 		bl	chSysHalt
 227              	.L15:
 228 0030 FB68     		ldr	r3, [r7, #12]
ARM GAS  /var/folders/d2/nstgp4h54kz7g1l847x_b8wc0000gn/T//ccgaysYU.s 			page 5


 229 0032 93F82230 		ldrb	r3, [r3, #34]	@ zero_extendqisi2
 230 0036 0133     		adds	r3, r3, #1
 231 0038 DAB2     		uxtb	r2, r3
 232 003a FB68     		ldr	r3, [r7, #12]
 233 003c 83F82220 		strb	r2, [r3, #34]
 234              	.L14:
 235 0040 FFF7FEFF 		bl	chSysUnlock
 236 0044 7868     		ldr	r0, [r7, #4]
 237 0046 FFF7FEFF 		bl	chThdRelease
 238 004a FB68     		ldr	r3, [r7, #12]
 239 004c 1846     		mov	r0, r3
 240 004e 1037     		adds	r7, r7, #16
 241 0050 BD46     		mov	sp, r7
 242              		@ sp needed
 243 0052 80BD     		pop	{r7, pc}
 244              	.L18:
 245              		.align	2
 246              	.L17:
 247 0054 00000000 		.word	ch
 248 0058 00000000 		.word	__func__.7855
 249              		.size	chRegNextThread, .-chRegNextThread
 250              		.section	.rodata.__func__.7153,"a",%progbits
 251              		.align	2
 252              		.type	__func__.7153, %object
 253              		.size	__func__.7153, 12
 254              	__func__.7153:
 255 0000 63685379 		.ascii	"chSysUnlock\000"
 255      73556E6C 
 255      6F636B00 
 256              		.section	.rodata.__func__.7855,"a",%progbits
 257              		.align	2
 258              		.type	__func__.7855, %object
 259              		.size	__func__.7855, 16
 260              	__func__.7855:
 261 0000 63685265 		.ascii	"chRegNextThread\000"
 261      674E6578 
 261      74546872 
 261      65616400 
 262              		.ident	"GCC: (GNU Tools for Arm Embedded Processors 7-2017-q4-major) 7.2.1 20170904 (release) [ARM
ARM GAS  /var/folders/d2/nstgp4h54kz7g1l847x_b8wc0000gn/T//ccgaysYU.s 			page 6


DEFINED SYMBOLS
                            *ABS*:0000000000000000 chregistry.c
/var/folders/d2/nstgp4h54kz7g1l847x_b8wc0000gn/T//ccgaysYU.s:15     .text.port_lock:0000000000000000 $t
/var/folders/d2/nstgp4h54kz7g1l847x_b8wc0000gn/T//ccgaysYU.s:21     .text.port_lock:0000000000000000 port_lock
/var/folders/d2/nstgp4h54kz7g1l847x_b8wc0000gn/T//ccgaysYU.s:45     .text.port_unlock:0000000000000000 $t
/var/folders/d2/nstgp4h54kz7g1l847x_b8wc0000gn/T//ccgaysYU.s:51     .text.port_unlock:0000000000000000 port_unlock
/var/folders/d2/nstgp4h54kz7g1l847x_b8wc0000gn/T//ccgaysYU.s:75     .text.chSysLock:0000000000000000 $t
/var/folders/d2/nstgp4h54kz7g1l847x_b8wc0000gn/T//ccgaysYU.s:81     .text.chSysLock:0000000000000000 chSysLock
/var/folders/d2/nstgp4h54kz7g1l847x_b8wc0000gn/T//ccgaysYU.s:93     .text.chSysUnlock:0000000000000000 $t
/var/folders/d2/nstgp4h54kz7g1l847x_b8wc0000gn/T//ccgaysYU.s:99     .text.chSysUnlock:0000000000000000 chSysUnlock
/var/folders/d2/nstgp4h54kz7g1l847x_b8wc0000gn/T//ccgaysYU.s:128    .text.chSysUnlock:0000000000000034 $d
/var/folders/d2/nstgp4h54kz7g1l847x_b8wc0000gn/T//ccgaysYU.s:254    .rodata.__func__.7153:0000000000000000 __func__.7153
/var/folders/d2/nstgp4h54kz7g1l847x_b8wc0000gn/T//ccgaysYU.s:136    .rodata.ch_debug:0000000000000000 ch_debug
/var/folders/d2/nstgp4h54kz7g1l847x_b8wc0000gn/T//ccgaysYU.s:133    .rodata.ch_debug:0000000000000000 $d
/var/folders/d2/nstgp4h54kz7g1l847x_b8wc0000gn/T//ccgaysYU.s:159    .text.chRegFirstThread:0000000000000000 $t
/var/folders/d2/nstgp4h54kz7g1l847x_b8wc0000gn/T//ccgaysYU.s:166    .text.chRegFirstThread:0000000000000000 chRegFirstThread
/var/folders/d2/nstgp4h54kz7g1l847x_b8wc0000gn/T//ccgaysYU.s:192    .text.chRegFirstThread:0000000000000030 $d
/var/folders/d2/nstgp4h54kz7g1l847x_b8wc0000gn/T//ccgaysYU.s:195    .text.chRegNextThread:0000000000000000 $t
/var/folders/d2/nstgp4h54kz7g1l847x_b8wc0000gn/T//ccgaysYU.s:202    .text.chRegNextThread:0000000000000000 chRegNextThread
/var/folders/d2/nstgp4h54kz7g1l847x_b8wc0000gn/T//ccgaysYU.s:247    .text.chRegNextThread:0000000000000054 $d
/var/folders/d2/nstgp4h54kz7g1l847x_b8wc0000gn/T//ccgaysYU.s:260    .rodata.__func__.7855:0000000000000000 __func__.7855
/var/folders/d2/nstgp4h54kz7g1l847x_b8wc0000gn/T//ccgaysYU.s:251    .rodata.__func__.7153:0000000000000000 $d
/var/folders/d2/nstgp4h54kz7g1l847x_b8wc0000gn/T//ccgaysYU.s:257    .rodata.__func__.7855:0000000000000000 $d

UNDEFINED SYMBOLS
_stats_start_measure_crit_thd
_dbg_check_lock
_dbg_check_unlock
_stats_stop_measure_crit_thd
chSysHalt
ch
chThdRelease
