ARM GAS  /var/folders/d2/nstgp4h54kz7g1l847x_b8wc0000gn/T//ccT1LzcA.s 			page 1


   1              		.cpu cortex-m4
   2              		.eabi_attribute 27, 1
   3              		.eabi_attribute 28, 1
   4              		.eabi_attribute 20, 1
   5              		.eabi_attribute 21, 1
   6              		.eabi_attribute 23, 3
   7              		.eabi_attribute 24, 1
   8              		.eabi_attribute 25, 1
   9              		.eabi_attribute 26, 1
  10              		.eabi_attribute 30, 2
  11              		.eabi_attribute 34, 1
  12              		.eabi_attribute 18, 4
  13              		.file	"chregistry.c"
  14              		.text
  15              	.Ltext0:
  16              		.cfi_sections	.debug_frame
  17              		.section	.text.chRegFirstThread,"ax",%progbits
  18              		.align	1
  19              		.p2align 4,,15
  20              		.global	chRegFirstThread
  21              		.syntax unified
  22              		.thumb
  23              		.thumb_func
  24              		.fpu fpv4-sp-d16
  25              		.type	chRegFirstThread, %function
  26              	chRegFirstThread:
  27              	.LFB219:
  28              		.file 1 "../e-puck2_main-processor/ChibiOS//os/rt/src/chregistry.c"
  29              		.loc 1 131 0
  30              		.cfi_startproc
  31              		@ args = 0, pretend = 0, frame = 8
  32              		@ frame_needed = 0, uses_anonymous_args = 0
  33 0000 70B5     		push	{r4, r5, r6, lr}
  34              		.cfi_def_cfa_offset 16
  35              		.cfi_offset 4, -16
  36              		.cfi_offset 5, -12
  37              		.cfi_offset 6, -8
  38              		.cfi_offset 14, -4
  39 0002 174E     		ldr	r6, .L8
  40 0004 82B0     		sub	sp, sp, #8
  41              		.cfi_def_cfa_offset 24
  42              		.loc 1 131 0
  43 0006 3368     		ldr	r3, [r6]
  44 0008 0193     		str	r3, [sp, #4]
  45              	.LVL0:
  46              	.LBB34:
  47              	.LBB35:
  48              	.LBB36:
  49              	.LBB37:
  50              	.LBB38:
  51              		.file 2 "../e-puck2_main-processor/ChibiOS//os/ext/CMSIS/include/core_cmFunc.h"
  52              		.loc 2 546 0
  53 000a 2023     		movs	r3, #32
  54              		.syntax unified
  55              	@ 546 "../e-puck2_main-processor/ChibiOS//os/ext/CMSIS/include/core_cmFunc.h" 1
  56 000c 83F31188 		MSR basepri, r3
  57              	@ 0 "" 2
ARM GAS  /var/folders/d2/nstgp4h54kz7g1l847x_b8wc0000gn/T//ccT1LzcA.s 			page 2


  58              	.LVL1:
  59              		.thumb
  60              		.syntax unified
  61              	.LBE38:
  62              	.LBE37:
  63              	.LBE36:
  64              	.LBE35:
  65              	.LBE34:
  66              		.loc 1 135 0
  67 0010 144C     		ldr	r4, .L8+4
  68              	.LBB40:
  69              	.LBB39:
  70              		.file 3 "../e-puck2_main-processor/ChibiOS//os/rt/include/chsys.h"
  71              		.loc 3 349 0
  72 0012 FFF7FEFF 		bl	_stats_start_measure_crit_thd
  73              	.LVL2:
  74              		.loc 3 350 0
  75 0016 FFF7FEFF 		bl	_dbg_check_lock
  76              	.LVL3:
  77              	.LBE39:
  78              	.LBE40:
  79              		.loc 1 135 0
  80 001a 2569     		ldr	r5, [r4, #16]
  81              	.LVL4:
  82              		.loc 1 137 0
  83 001c 95F82230 		ldrb	r3, [r5, #34]	@ zero_extendqisi2
  84 0020 0133     		adds	r3, r3, #1
  85 0022 85F82230 		strb	r3, [r5, #34]
  86              	.LBB41:
  87              	.LBB42:
  88              		.loc 3 360 0
  89 0026 FFF7FEFF 		bl	_dbg_check_unlock
  90              	.LVL5:
  91              		.loc 3 361 0
  92 002a FFF7FEFF 		bl	_stats_stop_measure_crit_thd
  93              	.LVL6:
  94              		.loc 3 367 0
  95 002e 2368     		ldr	r3, [r4]
  96 0030 A342     		cmp	r3, r4
  97 0032 04D0     		beq	.L2
  98 0034 A269     		ldr	r2, [r4, #24]
  99 0036 9B68     		ldr	r3, [r3, #8]
 100 0038 9268     		ldr	r2, [r2, #8]
 101 003a 9A42     		cmp	r2, r3
 102 003c 09D3     		bcc	.L6
 103              	.L2:
 104              	.LVL7:
 105              	.LBB43:
 106              	.LBB44:
 107              	.LBB45:
 108              		.loc 2 546 0
 109 003e 0023     		movs	r3, #0
 110              		.syntax unified
 111              	@ 546 "../e-puck2_main-processor/ChibiOS//os/ext/CMSIS/include/core_cmFunc.h" 1
 112 0040 83F31188 		MSR basepri, r3
 113              	@ 0 "" 2
 114              	.LVL8:
ARM GAS  /var/folders/d2/nstgp4h54kz7g1l847x_b8wc0000gn/T//ccT1LzcA.s 			page 3


 115              		.thumb
 116              		.syntax unified
 117              	.LBE45:
 118              	.LBE44:
 119              	.LBE43:
 120              	.LBE42:
 121              	.LBE41:
 122              		.loc 1 142 0
 123 0044 019A     		ldr	r2, [sp, #4]
 124 0046 3368     		ldr	r3, [r6]
 125 0048 9A42     		cmp	r2, r3
 126 004a 2846     		mov	r0, r5
 127 004c 05D1     		bne	.L7
 128              	.LVL9:
 129 004e 02B0     		add	sp, sp, #8
 130              		.cfi_remember_state
 131              		.cfi_def_cfa_offset 16
 132              		@ sp needed
 133 0050 70BD     		pop	{r4, r5, r6, pc}
 134              	.LVL10:
 135              	.L6:
 136              		.cfi_restore_state
 137              	.LBB47:
 138              	.LBB46:
 139              		.loc 3 367 0
 140 0052 0548     		ldr	r0, .L8+8
 141 0054 FFF7FEFF 		bl	chSysHalt
 142              	.LVL11:
 143 0058 F1E7     		b	.L2
 144              	.LVL12:
 145              	.L7:
 146              	.LBE46:
 147              	.LBE47:
 148              		.loc 1 142 0
 149 005a FFF7FEFF 		bl	__stack_chk_fail
 150              	.LVL13:
 151              	.L9:
 152 005e 00BF     		.align	2
 153              	.L8:
 154 0060 00000000 		.word	__stack_chk_guard
 155 0064 00000000 		.word	ch
 156 0068 00000000 		.word	.LANCHOR0
 157              		.cfi_endproc
 158              	.LFE219:
 159              		.size	chRegFirstThread, .-chRegFirstThread
 160              		.section	.text.chRegNextThread,"ax",%progbits
 161              		.align	1
 162              		.p2align 4,,15
 163              		.global	chRegNextThread
 164              		.syntax unified
 165              		.thumb
 166              		.thumb_func
 167              		.fpu fpv4-sp-d16
 168              		.type	chRegNextThread, %function
 169              	chRegNextThread:
 170              	.LFB220:
 171              		.loc 1 155 0
ARM GAS  /var/folders/d2/nstgp4h54kz7g1l847x_b8wc0000gn/T//ccT1LzcA.s 			page 4


 172              		.cfi_startproc
 173              		@ args = 0, pretend = 0, frame = 8
 174              		@ frame_needed = 0, uses_anonymous_args = 0
 175              	.LVL14:
 176 0000 F0B5     		push	{r4, r5, r6, r7, lr}
 177              		.cfi_def_cfa_offset 20
 178              		.cfi_offset 4, -20
 179              		.cfi_offset 5, -16
 180              		.cfi_offset 6, -12
 181              		.cfi_offset 7, -8
 182              		.cfi_offset 14, -4
 183 0002 1F4E     		ldr	r6, .L20
 184 0004 83B0     		sub	sp, sp, #12
 185              		.cfi_def_cfa_offset 32
 186              		.loc 1 155 0
 187 0006 3368     		ldr	r3, [r6]
 188 0008 0193     		str	r3, [sp, #4]
 189              	.LVL15:
 190 000a 0746     		mov	r7, r0
 191              	.LBB58:
 192              	.LBB59:
 193              	.LBB60:
 194              	.LBB61:
 195              	.LBB62:
 196              		.loc 2 546 0
 197 000c 2023     		movs	r3, #32
 198              		.syntax unified
 199              	@ 546 "../e-puck2_main-processor/ChibiOS//os/ext/CMSIS/include/core_cmFunc.h" 1
 200 000e 83F31188 		MSR basepri, r3
 201              	@ 0 "" 2
 202              	.LVL16:
 203              		.thumb
 204              		.syntax unified
 205              	.LBE62:
 206              	.LBE61:
 207              	.LBE60:
 208              		.loc 3 349 0
 209 0012 FFF7FEFF 		bl	_stats_start_measure_crit_thd
 210              	.LVL17:
 211              	.LBE59:
 212              	.LBE58:
 213              		.loc 1 161 0
 214 0016 1B4D     		ldr	r5, .L20+4
 215              	.LBB64:
 216              	.LBB63:
 217              		.loc 3 350 0
 218 0018 FFF7FEFF 		bl	_dbg_check_lock
 219              	.LVL18:
 220              	.LBE63:
 221              	.LBE64:
 222              		.loc 1 159 0
 223 001c 3C69     		ldr	r4, [r7, #16]
 224              	.LVL19:
 225              		.loc 1 161 0
 226 001e AC42     		cmp	r4, r5
 227 0020 29D0     		beq	.L15
 228              		.loc 1 167 0 discriminator 1
ARM GAS  /var/folders/d2/nstgp4h54kz7g1l847x_b8wc0000gn/T//ccT1LzcA.s 			page 5


 229 0022 94F82230 		ldrb	r3, [r4, #34]	@ zero_extendqisi2
 230 0026 FF2B     		cmp	r3, #255
 231 0028 1FD0     		beq	.L17
 232              	.L12:
 233              		.loc 1 168 0
 234 002a 0133     		adds	r3, r3, #1
 235 002c 84F82230 		strb	r3, [r4, #34]
 236              	.LVL20:
 237              	.L11:
 238              	.LBB65:
 239              	.LBB66:
 240              		.loc 3 360 0
 241 0030 FFF7FEFF 		bl	_dbg_check_unlock
 242              	.LVL21:
 243              		.loc 3 361 0
 244 0034 FFF7FEFF 		bl	_stats_stop_measure_crit_thd
 245              	.LVL22:
 246              		.loc 3 367 0
 247 0038 2B68     		ldr	r3, [r5]
 248 003a AB42     		cmp	r3, r5
 249 003c 04D0     		beq	.L13
 250 003e AA69     		ldr	r2, [r5, #24]
 251 0040 9B68     		ldr	r3, [r3, #8]
 252 0042 9268     		ldr	r2, [r2, #8]
 253 0044 9A42     		cmp	r2, r3
 254 0046 0CD3     		bcc	.L18
 255              	.L13:
 256              	.LVL23:
 257              	.LBB67:
 258              	.LBB68:
 259              	.LBB69:
 260              		.loc 2 546 0
 261 0048 0023     		movs	r3, #0
 262              		.syntax unified
 263              	@ 546 "../e-puck2_main-processor/ChibiOS//os/ext/CMSIS/include/core_cmFunc.h" 1
 264 004a 83F31188 		MSR basepri, r3
 265              	@ 0 "" 2
 266              	.LVL24:
 267              		.thumb
 268              		.syntax unified
 269              	.LBE69:
 270              	.LBE68:
 271              	.LBE67:
 272              	.LBE66:
 273              	.LBE65:
 274              		.loc 1 173 0
 275 004e 3846     		mov	r0, r7
 276 0050 FFF7FEFF 		bl	chThdRelease
 277              	.LVL25:
 278              		.loc 1 177 0
 279 0054 019A     		ldr	r2, [sp, #4]
 280 0056 3368     		ldr	r3, [r6]
 281 0058 9A42     		cmp	r2, r3
 282 005a 2046     		mov	r0, r4
 283 005c 0DD1     		bne	.L19
 284              	.LVL26:
 285 005e 03B0     		add	sp, sp, #12
ARM GAS  /var/folders/d2/nstgp4h54kz7g1l847x_b8wc0000gn/T//ccT1LzcA.s 			page 6


 286              		.cfi_remember_state
 287              		.cfi_def_cfa_offset 20
 288              		@ sp needed
 289 0060 F0BD     		pop	{r4, r5, r6, r7, pc}
 290              	.LVL27:
 291              	.L18:
 292              		.cfi_restore_state
 293              	.LBB71:
 294              	.LBB70:
 295              		.loc 3 367 0
 296 0062 0948     		ldr	r0, .L20+8
 297 0064 FFF7FEFF 		bl	chSysHalt
 298              	.LVL28:
 299 0068 EEE7     		b	.L13
 300              	.L17:
 301              	.LBE70:
 302              	.LBE71:
 303              		.loc 1 167 0 discriminator 2
 304 006a 0848     		ldr	r0, .L20+12
 305 006c FFF7FEFF 		bl	chSysHalt
 306              	.LVL29:
 307 0070 94F82230 		ldrb	r3, [r4, #34]	@ zero_extendqisi2
 308 0074 D9E7     		b	.L12
 309              	.L15:
 310              		.loc 1 163 0
 311 0076 0024     		movs	r4, #0
 312              	.LVL30:
 313 0078 DAE7     		b	.L11
 314              	.LVL31:
 315              	.L19:
 316              		.loc 1 177 0
 317 007a FFF7FEFF 		bl	__stack_chk_fail
 318              	.LVL32:
 319              	.L21:
 320 007e 00BF     		.align	2
 321              	.L20:
 322 0080 00000000 		.word	__stack_chk_guard
 323 0084 00000000 		.word	ch
 324 0088 00000000 		.word	.LANCHOR0
 325 008c 00000000 		.word	.LANCHOR1
 326              		.cfi_endproc
 327              	.LFE220:
 328              		.size	chRegNextThread, .-chRegNextThread
 329              		.global	ch_debug
 330              		.section	.rodata.__func__.7153,"a",%progbits
 331              		.align	2
 332              		.set	.LANCHOR0,. + 0
 333              		.type	__func__.7153, %object
 334              		.size	__func__.7153, 12
 335              	__func__.7153:
 336 0000 63685379 		.ascii	"chSysUnlock\000"
 336      73556E6C 
 336      6F636B00 
 337              		.section	.rodata.__func__.7855,"a",%progbits
 338              		.align	2
 339              		.set	.LANCHOR1,. + 0
 340              		.type	__func__.7855, %object
ARM GAS  /var/folders/d2/nstgp4h54kz7g1l847x_b8wc0000gn/T//ccT1LzcA.s 			page 7


 341              		.size	__func__.7855, 16
 342              	__func__.7855:
 343 0000 63685265 		.ascii	"chRegNextThread\000"
 343      674E6578 
 343      74546872 
 343      65616400 
 344              		.section	.rodata.ch_debug,"a",%progbits
 345              		.align	2
 346              		.type	ch_debug, %object
 347              		.size	ch_debug, 22
 348              	ch_debug:
 349 0000 6D       		.byte	109
 350 0001 61       		.byte	97
 351 0002 69       		.byte	105
 352 0003 6E       		.byte	110
 353 0004 00       		.byte	0
 354 0005 16       		.byte	22
 355 0006 0118     		.short	6145
 356 0008 04       		.byte	4
 357 0009 04       		.byte	4
 358 000a 68       		.byte	104
 359 000b 08       		.byte	8
 360 000c 0C       		.byte	12
 361 000d 10       		.byte	16
 362 000e 14       		.byte	20
 363 000f 18       		.byte	24
 364 0010 1C       		.byte	28
 365 0011 20       		.byte	32
 366 0012 21       		.byte	33
 367 0013 22       		.byte	34
 368 0014 23       		.byte	35
 369 0015 24       		.byte	36
 370              		.text
 371              	.Letext0:
 372              		.file 4 "/Applications/Eclipse_e-puck2.app/Contents/Eclipse_e-puck2/Tools/gcc-arm-none-eabi-7-2017
 373              		.file 5 "/Applications/Eclipse_e-puck2.app/Contents/Eclipse_e-puck2/Tools/gcc-arm-none-eabi-7-2017
 374              		.file 6 "/Applications/Eclipse_e-puck2.app/Contents/Eclipse_e-puck2/Tools/gcc-arm-none-eabi-7-2017
 375              		.file 7 "../e-puck2_main-processor/ChibiOS//os/rt/ports/ARMCMx/compilers/GCC/chtypes.h"
 376              		.file 8 "../e-puck2_main-processor/ChibiOS//os/rt/include/chsystypes.h"
 377              		.file 9 "../e-puck2_main-processor/ChibiOS//os/rt/include/chschd.h"
 378              		.file 10 "../e-puck2_main-processor/ChibiOS//os/ext/CMSIS/include/core_cm4.h"
 379              		.file 11 "../e-puck2_main-processor/ChibiOS//os/ext/CMSIS/ST/system_stm32f4xx.h"
 380              		.file 12 "../e-puck2_main-processor/ChibiOS//os/rt/ports/ARMCMx/chcore.h"
 381              		.file 13 "../e-puck2_main-processor/ChibiOS//os/rt/ports/ARMCMx/chcore_v7m.h"
 382              		.file 14 "../e-puck2_main-processor/ChibiOS//os/rt/include/chdebug.h"
 383              		.file 15 "../e-puck2_main-processor/ChibiOS//os/rt/include/chtm.h"
 384              		.file 16 "../e-puck2_main-processor/ChibiOS//os/rt/include/chstats.h"
 385              		.file 17 "../e-puck2_main-processor/ChibiOS//os/rt/include/chsem.h"
 386              		.file 18 "../e-puck2_main-processor/ChibiOS//os/rt/include/chmtx.h"
 387              		.file 19 "../e-puck2_main-processor/ChibiOS//os/rt/include/chregistry.h"
 388              		.file 20 "../e-puck2_main-processor/ChibiOS//os/rt/include/chdynamic.h"