ARM GAS  /var/folders/d2/nstgp4h54kz7g1l847x_b8wc0000gn/T//cc0NMf3t.s 			page 1


   1              		.cpu cortex-m4
   2              		.eabi_attribute 27, 1
   3              		.eabi_attribute 28, 1
   4              		.eabi_attribute 20, 1
   5              		.eabi_attribute 21, 1
   6              		.eabi_attribute 23, 3
   7              		.eabi_attribute 24, 1
   8              		.eabi_attribute 25, 1
   9              		.eabi_attribute 26, 1
  10              		.eabi_attribute 30, 2
  11              		.eabi_attribute 34, 1
  12              		.eabi_attribute 18, 4
  13              		.file	"chschd.c"
  14              		.text
  15              	.Ltext0:
  16              		.cfi_sections	.debug_frame
  17              		.section	.text._scheduler_init,"ax",%progbits
  18              		.align	1
  19              		.p2align 4,,15
  20              		.global	_scheduler_init
  21              		.syntax unified
  22              		.thumb
  23              		.thumb_func
  24              		.fpu fpv4-sp-d16
  25              		.type	_scheduler_init, %function
  26              	_scheduler_init:
  27              	.LFB219:
  28              		.file 1 "../e-puck2_main-processor/ChibiOS//os/rt/src/chschd.c"
  29              		.loc 1 65 0
  30              		.cfi_startproc
  31              		@ args = 0, pretend = 0, frame = 8
  32              		@ frame_needed = 0, uses_anonymous_args = 0
  33 0000 00B5     		push	{lr}
  34              		.cfi_def_cfa_offset 4
  35              		.cfi_offset 14, -4
  36 0002 0A4A     		ldr	r2, .L6
  37              	.LBB103:
  38              	.LBB104:
  39              		.file 2 "../e-puck2_main-processor/ChibiOS//os/rt/include/chschd.h"
  40              		.loc 2 604 0
  41 0004 0A4B     		ldr	r3, .L6+4
  42              	.LBE104:
  43              	.LBE103:
  44              		.loc 1 65 0
  45 0006 1168     		ldr	r1, [r2]
  46              	.LBB107:
  47              	.LBB105:
  48              		.loc 2 604 0
  49 0008 1B60     		str	r3, [r3]
  50              	.LBE105:
  51              	.LBE107:
  52              		.loc 1 65 0
  53 000a 83B0     		sub	sp, sp, #12
  54              		.cfi_def_cfa_offset 16
  55              		.loc 1 68 0
  56 000c 0020     		movs	r0, #0
  57              		.loc 1 65 0
ARM GAS  /var/folders/d2/nstgp4h54kz7g1l847x_b8wc0000gn/T//cc0NMf3t.s 			page 2


  58 000e 0191     		str	r1, [sp, #4]
  59              	.LVL0:
  60              		.loc 1 73 0
  61 0010 0199     		ldr	r1, [sp, #4]
  62 0012 1268     		ldr	r2, [r2]
  63              	.LBB108:
  64              	.LBB106:
  65              		.loc 2 605 0
  66 0014 5B60     		str	r3, [r3, #4]
  67              	.LVL1:
  68              	.LBE106:
  69              	.LBE108:
  70              		.loc 1 73 0
  71 0016 9142     		cmp	r1, r2
  72              		.loc 1 71 0
  73 0018 C3E90433 		strd	r3, r3, [r3, #16]
  74              		.loc 1 68 0
  75 001c 9860     		str	r0, [r3, #8]
  76              		.loc 1 73 0
  77 001e 02D1     		bne	.L5
  78 0020 03B0     		add	sp, sp, #12
  79              		.cfi_remember_state
  80              		.cfi_def_cfa_offset 4
  81              		@ sp needed
  82 0022 5DF804FB 		ldr	pc, [sp], #4
  83              	.L5:
  84              		.cfi_restore_state
  85 0026 FFF7FEFF 		bl	__stack_chk_fail
  86              	.LVL2:
  87              	.L7:
  88 002a 00BF     		.align	2
  89              	.L6:
  90 002c 00000000 		.word	__stack_chk_guard
  91 0030 00000000 		.word	.LANCHOR0
  92              		.cfi_endproc
  93              	.LFE219:
  94              		.size	_scheduler_init, .-_scheduler_init
  95              		.section	.text.chSchReadyI,"ax",%progbits
  96              		.align	1
  97              		.p2align 4,,15
  98              		.global	chSchReadyI
  99              		.syntax unified
 100              		.thumb
 101              		.thumb_func
 102              		.fpu fpv4-sp-d16
 103              		.type	chSchReadyI, %function
 104              	chSchReadyI:
 105              	.LFB220:
 106              		.loc 1 218 0
 107              		.cfi_startproc
 108              		@ args = 0, pretend = 0, frame = 8
 109              		@ frame_needed = 0, uses_anonymous_args = 0
 110              	.LVL3:
 111 0000 30B5     		push	{r4, r5, lr}
 112              		.cfi_def_cfa_offset 12
 113              		.cfi_offset 4, -12
 114              		.cfi_offset 5, -8
ARM GAS  /var/folders/d2/nstgp4h54kz7g1l847x_b8wc0000gn/T//cc0NMf3t.s 			page 3


 115              		.cfi_offset 14, -4
 116 0002 164D     		ldr	r5, .L21
 117 0004 83B0     		sub	sp, sp, #12
 118              		.cfi_def_cfa_offset 24
 119              		.loc 1 218 0
 120 0006 0446     		mov	r4, r0
 121 0008 2B68     		ldr	r3, [r5]
 122 000a 0193     		str	r3, [sp, #4]
 123              		.loc 1 221 0
 124 000c FFF7FEFF 		bl	chDbgCheckClassI
 125              	.LVL4:
 126              		.loc 1 222 0
 127 0010 ECB1     		cbz	r4, .L19
 128              	.L9:
 129              		.loc 1 223 0 discriminator 1
 130 0012 94F82030 		ldrb	r3, [r4, #32]	@ zero_extendqisi2
 131 0016 B3B1     		cbz	r3, .L10
 132              		.loc 1 223 0 is_stmt 0 discriminator 3
 133 0018 0F2B     		cmp	r3, #15
 134 001a 14D0     		beq	.L10
 135              	.L11:
 136              		.loc 1 227 0 is_stmt 1
 137 001c 0022     		movs	r2, #0
 138              		.loc 1 231 0
 139 001e A168     		ldr	r1, [r4, #8]
 140              		.loc 1 228 0
 141 0020 0F4B     		ldr	r3, .L21+4
 142              		.loc 1 227 0
 143 0022 84F82020 		strb	r2, [r4, #32]
 144              	.LVL5:
 145              	.L12:
 146              		.loc 1 230 0 discriminator 1
 147 0026 1B68     		ldr	r3, [r3]
 148              	.LVL6:
 149              		.loc 1 231 0 discriminator 1
 150 0028 9A68     		ldr	r2, [r3, #8]
 151 002a 8A42     		cmp	r2, r1
 152 002c FBD2     		bcs	.L12
 153              		.loc 1 233 0
 154 002e 2360     		str	r3, [r4]
 155              		.loc 1 234 0
 156 0030 5A68     		ldr	r2, [r3, #4]
 157 0032 6260     		str	r2, [r4, #4]
 158              		.loc 1 235 0
 159 0034 1460     		str	r4, [r2]
 160              		.loc 1 239 0
 161 0036 0199     		ldr	r1, [sp, #4]
 162 0038 2A68     		ldr	r2, [r5]
 163              		.loc 1 236 0
 164 003a 5C60     		str	r4, [r3, #4]
 165              		.loc 1 239 0
 166 003c 9142     		cmp	r1, r2
 167 003e 2046     		mov	r0, r4
 168 0040 09D1     		bne	.L20
 169              	.LVL7:
 170 0042 03B0     		add	sp, sp, #12
 171              		.cfi_remember_state
ARM GAS  /var/folders/d2/nstgp4h54kz7g1l847x_b8wc0000gn/T//cc0NMf3t.s 			page 4


 172              		.cfi_def_cfa_offset 12
 173              		@ sp needed
 174 0044 30BD     		pop	{r4, r5, pc}
 175              	.LVL8:
 176              	.L10:
 177              		.cfi_restore_state
 178              		.loc 1 223 0 discriminator 4
 179 0046 0748     		ldr	r0, .L21+8
 180 0048 FFF7FEFF 		bl	chSysHalt
 181              	.LVL9:
 182 004c E6E7     		b	.L11
 183              	.L19:
 184              		.loc 1 222 0 discriminator 2
 185 004e 0548     		ldr	r0, .L21+8
 186 0050 FFF7FEFF 		bl	chSysHalt
 187              	.LVL10:
 188 0054 DDE7     		b	.L9
 189              	.LVL11:
 190              	.L20:
 191              		.loc 1 239 0
 192 0056 FFF7FEFF 		bl	__stack_chk_fail
 193              	.LVL12:
 194              	.L22:
 195 005a 00BF     		.align	2
 196              	.L21:
 197 005c 00000000 		.word	__stack_chk_guard
 198 0060 00000000 		.word	.LANCHOR0
 199 0064 00000000 		.word	.LANCHOR1
 200              		.cfi_endproc
 201              	.LFE220:
 202              		.size	chSchReadyI, .-chSchReadyI
 203              		.section	.text.wakeup,"ax",%progbits
 204              		.align	1
 205              		.p2align 4,,15
 206              		.syntax unified
 207              		.thumb
 208              		.thumb_func
 209              		.fpu fpv4-sp-d16
 210              		.type	wakeup, %function
 211              	wakeup:
 212              	.LFB222:
 213              		.loc 1 275 0
 214              		.cfi_startproc
 215              		@ args = 0, pretend = 0, frame = 8
 216              		@ frame_needed = 0, uses_anonymous_args = 0
 217              	.LVL13:
 218 0000 70B5     		push	{r4, r5, r6, lr}
 219              		.cfi_def_cfa_offset 16
 220              		.cfi_offset 4, -16
 221              		.cfi_offset 5, -12
 222              		.cfi_offset 6, -8
 223              		.cfi_offset 14, -4
 224 0002 204D     		ldr	r5, .L35
 225 0004 82B0     		sub	sp, sp, #8
 226              		.cfi_def_cfa_offset 24
 227              		.loc 1 275 0
 228 0006 2B68     		ldr	r3, [r5]
ARM GAS  /var/folders/d2/nstgp4h54kz7g1l847x_b8wc0000gn/T//cc0NMf3t.s 			page 5


 229 0008 0193     		str	r3, [sp, #4]
 230              	.LVL14:
 231 000a 0446     		mov	r4, r0
 232              	.LBB149:
 233              	.LBB150:
 234              	.LBB151:
 235              	.LBB152:
 236              	.LBB153:
 237              	.LBB154:
 238              		.file 3 "../e-puck2_main-processor/ChibiOS//os/ext/CMSIS/include/core_cmFunc.h"
 239              		.loc 3 546 0
 240 000c 2023     		movs	r3, #32
 241              		.syntax unified
 242              	@ 546 "../e-puck2_main-processor/ChibiOS//os/ext/CMSIS/include/core_cmFunc.h" 1
 243 000e 83F31188 		MSR basepri, r3
 244              	@ 0 "" 2
 245              	.LVL15:
 246              		.thumb
 247              		.syntax unified
 248              	.LBE154:
 249              	.LBE153:
 250              	.LBE152:
 251              	.LBE151:
 252              		.file 4 "../e-puck2_main-processor/ChibiOS//os/rt/include/chsys.h"
 253              		.loc 4 389 0
 254 0012 FFF7FEFF 		bl	_stats_start_measure_crit_isr
 255              	.LVL16:
 256              		.loc 4 390 0
 257 0016 FFF7FEFF 		bl	_dbg_check_lock_from_isr
 258              	.LVL17:
 259              	.LBE150:
 260              	.LBE149:
 261              		.loc 1 279 0
 262 001a 94F82030 		ldrb	r3, [r4, #32]	@ zero_extendqisi2
 263 001e 072B     		cmp	r3, #7
 264 0020 11D8     		bhi	.L24
 265 0022 DFE803F0 		tbb	[pc, r3]
 266              	.L26:
 267 0026 16       		.byte	(.L33-.L26)/2
 268 0027 10       		.byte	(.L24-.L26)/2
 269 0028 10       		.byte	(.L24-.L26)/2
 270 0029 23       		.byte	(.L27-.L26)/2
 271 002a 0A       		.byte	(.L28-.L26)/2
 272 002b 04       		.byte	(.L29-.L26)/2
 273 002c 10       		.byte	(.L24-.L26)/2
 274 002d 0A       		.byte	(.L28-.L26)/2
 275              		.p2align 1
 276              	.L29:
 277              		.loc 1 290 0
 278 002e A66A     		ldr	r6, [r4, #40]
 279              	.LVL18:
 280              	.LBB155:
 281              	.LBB156:
 282              		.file 5 "../e-puck2_main-processor/ChibiOS//os/rt/include/chsem.h"
 283              		.loc 5 136 0
 284 0030 FFF7FEFF 		bl	chDbgCheckClassI
 285              	.LVL19:
ARM GAS  /var/folders/d2/nstgp4h54kz7g1l847x_b8wc0000gn/T//cc0NMf3t.s 			page 6


 286              		.loc 5 138 0
 287 0034 B368     		ldr	r3, [r6, #8]
 288 0036 0133     		adds	r3, r3, #1
 289 0038 B360     		str	r3, [r6, #8]
 290              	.LVL20:
 291              	.L28:
 292              	.LBE156:
 293              	.LBE155:
 294              	.LBB157:
 295              	.LBB158:
 296              		.loc 2 691 0
 297 003a D4E90023 		ldrd	r2, r3, [r4]
 298 003e 1A60     		str	r2, [r3]
 299              		.loc 2 692 0
 300 0040 D4E90032 		ldrd	r3, r2, [r4]
 301 0044 5A60     		str	r2, [r3, #4]
 302              	.LVL21:
 303              	.L24:
 304              	.LBE158:
 305              	.LBE157:
 306              		.loc 1 304 0
 307 0046 4FF0FF33 		mov	r3, #-1
 308 004a A362     		str	r3, [r4, #40]
 309              		.loc 1 305 0
 310 004c 2046     		mov	r0, r4
 311 004e FFF7FEFF 		bl	chSchReadyI
 312              	.LVL22:
 313              	.L33:
 314              	.LBB159:
 315              	.LBB160:
 316              		.loc 4 408 0
 317 0052 FFF7FEFF 		bl	_dbg_check_unlock_from_isr
 318              	.LVL23:
 319              		.loc 4 409 0
 320 0056 FFF7FEFF 		bl	_stats_stop_measure_crit_isr
 321              	.LVL24:
 322              	.LBB161:
 323              	.LBB162:
 324              	.LBB163:
 325              	.LBB164:
 326              		.loc 3 546 0
 327 005a 0023     		movs	r3, #0
 328              		.syntax unified
 329              	@ 546 "../e-puck2_main-processor/ChibiOS//os/ext/CMSIS/include/core_cmFunc.h" 1
 330 005c 83F31188 		MSR basepri, r3
 331              	@ 0 "" 2
 332              	.LVL25:
 333              		.thumb
 334              		.syntax unified
 335              	.LBE164:
 336              	.LBE163:
 337              	.LBE162:
 338              	.LBE161:
 339              	.LBE160:
 340              	.LBE159:
 341              		.loc 1 307 0
 342 0060 019A     		ldr	r2, [sp, #4]
ARM GAS  /var/folders/d2/nstgp4h54kz7g1l847x_b8wc0000gn/T//cc0NMf3t.s 			page 7


 343 0062 2B68     		ldr	r3, [r5]
 344 0064 9A42     		cmp	r2, r3
 345 0066 0BD1     		bne	.L34
 346 0068 02B0     		add	sp, sp, #8
 347              		.cfi_remember_state
 348              		.cfi_def_cfa_offset 16
 349              		@ sp needed
 350 006a 70BD     		pop	{r4, r5, r6, pc}
 351              	.LVL26:
 352              	.L27:
 353              		.cfi_restore_state
 354              		.loc 1 286 0
 355 006c A36A     		ldr	r3, [r4, #40]
 356 006e 0022     		movs	r2, #0
 357 0070 1A60     		str	r2, [r3]
 358              		.loc 1 304 0
 359 0072 4FF0FF33 		mov	r3, #-1
 360 0076 A362     		str	r3, [r4, #40]
 361              		.loc 1 305 0
 362 0078 2046     		mov	r0, r4
 363 007a FFF7FEFF 		bl	chSchReadyI
 364              	.LVL27:
 365 007e E8E7     		b	.L33
 366              	.L34:
 367              		.loc 1 307 0
 368 0080 FFF7FEFF 		bl	__stack_chk_fail
 369              	.LVL28:
 370              	.L36:
 371              		.align	2
 372              	.L35:
 373 0084 00000000 		.word	__stack_chk_guard
 374              		.cfi_endproc
 375              	.LFE222:
 376              		.size	wakeup, .-wakeup
 377              		.section	.text.chSchGoSleepS,"ax",%progbits
 378              		.align	1
 379              		.p2align 4,,15
 380              		.global	chSchGoSleepS
 381              		.syntax unified
 382              		.thumb
 383              		.thumb_func
 384              		.fpu fpv4-sp-d16
 385              		.type	chSchGoSleepS, %function
 386              	chSchGoSleepS:
 387              	.LFB221:
 388              		.loc 1 250 0
 389              		.cfi_startproc
 390              		@ args = 0, pretend = 0, frame = 8
 391              		@ frame_needed = 0, uses_anonymous_args = 0
 392              	.LVL29:
 393 0000 F0B5     		push	{r4, r5, r6, r7, lr}
 394              		.cfi_def_cfa_offset 20
 395              		.cfi_offset 4, -20
 396              		.cfi_offset 5, -16
 397              		.cfi_offset 6, -12
 398              		.cfi_offset 7, -8
 399              		.cfi_offset 14, -4
ARM GAS  /var/folders/d2/nstgp4h54kz7g1l847x_b8wc0000gn/T//cc0NMf3t.s 			page 8


 400 0002 194E     		ldr	r6, .L43
 401              		.loc 1 255 0
 402 0004 194C     		ldr	r4, .L43+4
 403              		.loc 1 250 0
 404 0006 3368     		ldr	r3, [r6]
 405 0008 83B0     		sub	sp, sp, #12
 406              		.cfi_def_cfa_offset 32
 407              		.loc 1 250 0
 408 000a 0746     		mov	r7, r0
 409 000c 0193     		str	r3, [sp, #4]
 410              		.loc 1 253 0
 411 000e FFF7FEFF 		bl	chDbgCheckClassS
 412              	.LVL30:
 413              		.loc 1 255 0
 414 0012 A569     		ldr	r5, [r4, #24]
 415              	.LVL31:
 416              	.LBB165:
 417              	.LBB166:
 418              		.loc 2 672 0
 419 0014 2368     		ldr	r3, [r4]
 420              	.LBE166:
 421              	.LBE165:
 422              		.loc 1 256 0
 423 0016 85F82070 		strb	r7, [r5, #32]
 424              		.loc 1 260 0
 425 001a 1422     		movs	r2, #20
 426 001c 85F82320 		strb	r2, [r5, #35]
 427              	.LVL32:
 428              	.LBB169:
 429              	.LBB167:
 430              		.loc 2 674 0
 431 0020 1A68     		ldr	r2, [r3]
 432 0022 2260     		str	r2, [r4]
 433              	.LBE167:
 434              	.LBE169:
 435              		.loc 1 268 0
 436 0024 0121     		movs	r1, #1
 437              	.LBB170:
 438              	.LBB168:
 439              		.loc 2 675 0
 440 0026 5460     		str	r4, [r2, #4]
 441              	.LVL33:
 442              	.LBE168:
 443              	.LBE170:
 444              		.loc 1 269 0
 445 0028 2846     		mov	r0, r5
 446              		.loc 1 268 0
 447 002a 83F82010 		strb	r1, [r3, #32]
 448              		.loc 1 262 0
 449 002e A361     		str	r3, [r4, #24]
 450              		.loc 1 269 0
 451 0030 FFF7FEFF 		bl	_dbg_trace
 452              	.LVL34:
 453 0034 2946     		mov	r1, r5
 454 0036 A069     		ldr	r0, [r4, #24]
 455 0038 FFF7FEFF 		bl	_stats_ctxswc
 456              	.LVL35:
ARM GAS  /var/folders/d2/nstgp4h54kz7g1l847x_b8wc0000gn/T//cc0NMf3t.s 			page 9


 457              	.LBB171:
 458              	.LBB172:
 459              	.LBB173:
 460              		.loc 3 428 0
 461              		.syntax unified
 462              	@ 428 "../e-puck2_main-processor/ChibiOS//os/ext/CMSIS/include/core_cmFunc.h" 1
 463 003c EFF30983 		MRS r3, psp
 464              	
 465              	@ 0 "" 2
 466              		.thumb
 467              		.syntax unified
 468              	.LBE173:
 469              	.LBE172:
 470              		.loc 1 269 0
 471 0040 EA69     		ldr	r2, [r5, #28]
 472 0042 643B     		subs	r3, r3, #100
 473 0044 9A42     		cmp	r2, r3
 474 0046 02D9     		bls	.L38
 475              		.loc 1 269 0 is_stmt 0 discriminator 1
 476 0048 0948     		ldr	r0, .L43+8
 477 004a FFF7FEFF 		bl	chSysHalt
 478              	.LVL36:
 479              	.L38:
 480              		.loc 1 269 0 discriminator 3
 481 004e 019A     		ldr	r2, [sp, #4]
 482 0050 3368     		ldr	r3, [r6]
 483 0052 9A42     		cmp	r2, r3
 484 0054 06D1     		bne	.L42
 485 0056 A069     		ldr	r0, [r4, #24]
 486 0058 2946     		mov	r1, r5
 487              	.LBE171:
 488              		.loc 1 270 0 is_stmt 1 discriminator 3
 489 005a 03B0     		add	sp, sp, #12
 490              		.cfi_remember_state
 491              		.cfi_def_cfa_offset 20
 492              		@ sp needed
 493 005c BDE8F040 		pop	{r4, r5, r6, r7, lr}
 494              		.cfi_restore 14
 495              		.cfi_restore 7
 496              		.cfi_restore 6
 497              		.cfi_restore 5
 498              		.cfi_restore 4
 499              		.cfi_def_cfa_offset 0
 500              	.LVL37:
 501              	.LBB174:
 502              		.loc 1 269 0 discriminator 3
 503 0060 FFF7FEBF 		b	_port_switch
 504              	.LVL38:
 505              	.L42:
 506              		.cfi_restore_state
 507 0064 FFF7FEFF 		bl	__stack_chk_fail
 508              	.LVL39:
 509              	.L44:
 510              		.align	2
 511              	.L43:
 512 0068 00000000 		.word	__stack_chk_guard
 513 006c 00000000 		.word	.LANCHOR0
ARM GAS  /var/folders/d2/nstgp4h54kz7g1l847x_b8wc0000gn/T//cc0NMf3t.s 			page 10


 514 0070 00000000 		.word	.LC0
 515              	.LBE174:
 516              		.cfi_endproc
 517              	.LFE221:
 518              		.size	chSchGoSleepS, .-chSchGoSleepS
 519              		.section	.text.chSchGoSleepTimeoutS,"ax",%progbits
 520              		.align	1
 521              		.p2align 4,,15
 522              		.global	chSchGoSleepTimeoutS
 523              		.syntax unified
 524              		.thumb
 525              		.thumb_func
 526              		.fpu fpv4-sp-d16
 527              		.type	chSchGoSleepTimeoutS, %function
 528              	chSchGoSleepTimeoutS:
 529              	.LFB223:
 530              		.loc 1 330 0
 531              		.cfi_startproc
 532              		@ args = 0, pretend = 0, frame = 24
 533              		@ frame_needed = 0, uses_anonymous_args = 0
 534              	.LVL40:
 535 0000 F0B5     		push	{r4, r5, r6, r7, lr}
 536              		.cfi_def_cfa_offset 20
 537              		.cfi_offset 4, -20
 538              		.cfi_offset 5, -16
 539              		.cfi_offset 6, -12
 540              		.cfi_offset 7, -8
 541              		.cfi_offset 14, -4
 542 0002 154C     		ldr	r4, .L55
 543 0004 87B0     		sub	sp, sp, #28
 544              		.cfi_def_cfa_offset 48
 545              		.loc 1 330 0
 546 0006 2368     		ldr	r3, [r4]
 547 0008 0593     		str	r3, [sp, #20]
 548 000a 0E46     		mov	r6, r1
 549 000c 0746     		mov	r7, r0
 550              		.loc 1 332 0
 551 000e FFF7FEFF 		bl	chDbgCheckClassS
 552              	.LVL41:
 553              		.loc 1 334 0
 554 0012 731C     		adds	r3, r6, #1
 555 0014 18D0     		beq	.L46
 556              	.LBB175:
 557              		.loc 1 337 0
 558 0016 114D     		ldr	r5, .L55+4
 559 0018 114A     		ldr	r2, .L55+8
 560 001a AB69     		ldr	r3, [r5, #24]
 561 001c 3146     		mov	r1, r6
 562 001e 6846     		mov	r0, sp
 563 0020 FFF7FEFF 		bl	chVTDoSetI
 564              	.LVL42:
 565              		.loc 1 338 0
 566 0024 3846     		mov	r0, r7
 567 0026 FFF7FEFF 		bl	chSchGoSleepS
 568              	.LVL43:
 569              	.LBB176:
 570              	.LBB177:
ARM GAS  /var/folders/d2/nstgp4h54kz7g1l847x_b8wc0000gn/T//cc0NMf3t.s 			page 11


 571              		.file 6 "../e-puck2_main-processor/ChibiOS//os/rt/include/chvt.h"
 572              		.loc 6 339 0
 573 002a FFF7FEFF 		bl	chDbgCheckClassI
 574              	.LVL44:
 575              	.LBE177:
 576              	.LBE176:
 577              		.loc 1 339 0
 578 002e 039B     		ldr	r3, [sp, #12]
 579 0030 13B1     		cbz	r3, .L48
 580              		.loc 1 340 0
 581 0032 6846     		mov	r0, sp
 582 0034 FFF7FEFF 		bl	chVTDoResetI
 583              	.LVL45:
 584              	.L48:
 585              	.LBE175:
 586              		.loc 1 348 0
 587 0038 059A     		ldr	r2, [sp, #20]
 588 003a 2368     		ldr	r3, [r4]
 589              		.loc 1 347 0
 590 003c A969     		ldr	r1, [r5, #24]
 591              		.loc 1 348 0
 592 003e 9A42     		cmp	r2, r3
 593 0040 886A     		ldr	r0, [r1, #40]
 594 0042 06D1     		bne	.L54
 595 0044 07B0     		add	sp, sp, #28
 596              		.cfi_remember_state
 597              		.cfi_def_cfa_offset 20
 598              		@ sp needed
 599 0046 F0BD     		pop	{r4, r5, r6, r7, pc}
 600              	.LVL46:
 601              	.L46:
 602              		.cfi_restore_state
 603              		.loc 1 344 0
 604 0048 3846     		mov	r0, r7
 605 004a FFF7FEFF 		bl	chSchGoSleepS
 606              	.LVL47:
 607 004e 034D     		ldr	r5, .L55+4
 608 0050 F2E7     		b	.L48
 609              	.L54:
 610              		.loc 1 348 0
 611 0052 FFF7FEFF 		bl	__stack_chk_fail
 612              	.LVL48:
 613              	.L56:
 614 0056 00BF     		.align	2
 615              	.L55:
 616 0058 00000000 		.word	__stack_chk_guard
 617 005c 00000000 		.word	.LANCHOR0
 618 0060 00000000 		.word	wakeup
 619              		.cfi_endproc
 620              	.LFE223:
 621              		.size	chSchGoSleepTimeoutS, .-chSchGoSleepTimeoutS
 622              		.section	.text.chSchWakeupS,"ax",%progbits
 623              		.align	1
 624              		.p2align 4,,15
 625              		.global	chSchWakeupS
 626              		.syntax unified
 627              		.thumb
ARM GAS  /var/folders/d2/nstgp4h54kz7g1l847x_b8wc0000gn/T//cc0NMf3t.s 			page 12


 628              		.thumb_func
 629              		.fpu fpv4-sp-d16
 630              		.type	chSchWakeupS, %function
 631              	chSchWakeupS:
 632              	.LFB224:
 633              		.loc 1 367 0
 634              		.cfi_startproc
 635              		@ args = 0, pretend = 0, frame = 8
 636              		@ frame_needed = 0, uses_anonymous_args = 0
 637              	.LVL49:
 638 0000 F0B5     		push	{r4, r5, r6, r7, lr}
 639              		.cfi_def_cfa_offset 20
 640              		.cfi_offset 4, -20
 641              		.cfi_offset 5, -16
 642              		.cfi_offset 6, -12
 643              		.cfi_offset 7, -8
 644              		.cfi_offset 14, -4
 645 0002 1E4D     		ldr	r5, .L67
 646              		.loc 1 379 0
 647 0004 1E4E     		ldr	r6, .L67+4
 648              		.loc 1 367 0
 649 0006 2B68     		ldr	r3, [r5]
 650 0008 83B0     		sub	sp, sp, #12
 651              		.cfi_def_cfa_offset 32
 652              		.loc 1 367 0
 653 000a 0446     		mov	r4, r0
 654 000c 0193     		str	r3, [sp, #4]
 655 000e 0F46     		mov	r7, r1
 656              		.loc 1 369 0
 657 0010 FFF7FEFF 		bl	chDbgCheckClassS
 658              	.LVL50:
 659              		.loc 1 379 0
 660 0014 B069     		ldr	r0, [r6, #24]
 661              		.loc 1 373 0
 662 0016 A762     		str	r7, [r4, #40]
 663              		.loc 1 379 0
 664 0018 8368     		ldr	r3, [r0, #8]
 665 001a A268     		ldr	r2, [r4, #8]
 666 001c 9A42     		cmp	r2, r3
 667 001e 1DD9     		bls	.L65
 668              	.LBB178:
 669              		.loc 1 383 0
 670 0020 FFF7FEFF 		bl	chSchReadyI
 671              	.LVL51:
 672              		.loc 1 390 0
 673 0024 0123     		movs	r3, #1
 674              		.loc 1 383 0
 675 0026 0746     		mov	r7, r0
 676              	.LVL52:
 677              		.loc 1 390 0
 678 0028 84F82030 		strb	r3, [r4, #32]
 679              		.loc 1 384 0
 680 002c B461     		str	r4, [r6, #24]
 681              		.loc 1 391 0
 682 002e FFF7FEFF 		bl	_dbg_trace
 683              	.LVL53:
 684 0032 3946     		mov	r1, r7
ARM GAS  /var/folders/d2/nstgp4h54kz7g1l847x_b8wc0000gn/T//cc0NMf3t.s 			page 13


 685 0034 2046     		mov	r0, r4
 686 0036 FFF7FEFF 		bl	_stats_ctxswc
 687              	.LVL54:
 688              	.LBB179:
 689              	.LBB180:
 690              	.LBB181:
 691              		.loc 3 428 0
 692              		.syntax unified
 693              	@ 428 "../e-puck2_main-processor/ChibiOS//os/ext/CMSIS/include/core_cmFunc.h" 1
 694 003a EFF30983 		MRS r3, psp
 695              	
 696              	@ 0 "" 2
 697              		.thumb
 698              		.syntax unified
 699              	.LBE181:
 700              	.LBE180:
 701              		.loc 1 391 0
 702 003e FA69     		ldr	r2, [r7, #28]
 703 0040 643B     		subs	r3, r3, #100
 704 0042 9A42     		cmp	r2, r3
 705 0044 14D8     		bhi	.L66
 706              	.L60:
 707              		.loc 1 391 0 is_stmt 0 discriminator 3
 708 0046 019A     		ldr	r2, [sp, #4]
 709 0048 2B68     		ldr	r3, [r5]
 710 004a 9A42     		cmp	r2, r3
 711 004c 14D1     		bne	.L64
 712 004e 3946     		mov	r1, r7
 713 0050 2046     		mov	r0, r4
 714              	.LBE179:
 715              	.LBE178:
 716              		.loc 1 393 0 is_stmt 1 discriminator 3
 717 0052 03B0     		add	sp, sp, #12
 718              		.cfi_remember_state
 719              		.cfi_def_cfa_offset 20
 720              		@ sp needed
 721 0054 BDE8F040 		pop	{r4, r5, r6, r7, lr}
 722              		.cfi_restore 14
 723              		.cfi_restore 7
 724              		.cfi_restore 6
 725              		.cfi_restore 5
 726              		.cfi_restore 4
 727              		.cfi_def_cfa_offset 0
 728              	.LVL55:
 729              	.LBB184:
 730              	.LBB182:
 731              		.loc 1 391 0 discriminator 3
 732 0058 FFF7FEBF 		b	_port_switch
 733              	.LVL56:
 734              	.L65:
 735              		.cfi_restore_state
 736              	.LBE182:
 737              	.LBE184:
 738              		.loc 1 380 0
 739 005c 019A     		ldr	r2, [sp, #4]
 740 005e 2B68     		ldr	r3, [r5]
 741 0060 9A42     		cmp	r2, r3
ARM GAS  /var/folders/d2/nstgp4h54kz7g1l847x_b8wc0000gn/T//cc0NMf3t.s 			page 14


 742 0062 09D1     		bne	.L64
 743 0064 2046     		mov	r0, r4
 744              		.loc 1 393 0
 745 0066 03B0     		add	sp, sp, #12
 746              		.cfi_remember_state
 747              		.cfi_def_cfa_offset 20
 748              		@ sp needed
 749 0068 BDE8F040 		pop	{r4, r5, r6, r7, lr}
 750              		.cfi_restore 14
 751              		.cfi_restore 7
 752              		.cfi_restore 6
 753              		.cfi_restore 5
 754              		.cfi_restore 4
 755              		.cfi_def_cfa_offset 0
 756              	.LVL57:
 757              		.loc 1 380 0
 758 006c FFF7FEBF 		b	chSchReadyI
 759              	.LVL58:
 760              	.L66:
 761              		.cfi_restore_state
 762              	.LBB185:
 763              	.LBB183:
 764              		.loc 1 391 0 discriminator 1
 765 0070 0448     		ldr	r0, .L67+8
 766 0072 FFF7FEFF 		bl	chSysHalt
 767              	.LVL59:
 768 0076 E6E7     		b	.L60
 769              	.LVL60:
 770              	.L64:
 771              		.loc 1 391 0 is_stmt 0 discriminator 3
 772 0078 FFF7FEFF 		bl	__stack_chk_fail
 773              	.LVL61:
 774              	.L68:
 775              		.align	2
 776              	.L67:
 777 007c 00000000 		.word	__stack_chk_guard
 778 0080 00000000 		.word	.LANCHOR0
 779 0084 00000000 		.word	.LC0
 780              	.LBE183:
 781              	.LBE185:
 782              		.cfi_endproc
 783              	.LFE224:
 784              		.size	chSchWakeupS, .-chSchWakeupS
 785              		.section	.text.chSchIsPreemptionRequired,"ax",%progbits
 786              		.align	1
 787              		.p2align 4,,15
 788              		.global	chSchIsPreemptionRequired
 789              		.syntax unified
 790              		.thumb
 791              		.thumb_func
 792              		.fpu fpv4-sp-d16
 793              		.type	chSchIsPreemptionRequired, %function
 794              	chSchIsPreemptionRequired:
 795              	.LFB226:
 796              		.loc 1 424 0 is_stmt 1
 797              		.cfi_startproc
 798              		@ args = 0, pretend = 0, frame = 8
ARM GAS  /var/folders/d2/nstgp4h54kz7g1l847x_b8wc0000gn/T//cc0NMf3t.s 			page 15


 799              		@ frame_needed = 0, uses_anonymous_args = 0
 800 0000 10B5     		push	{r4, lr}
 801              		.cfi_def_cfa_offset 8
 802              		.cfi_offset 4, -8
 803              		.cfi_offset 14, -4
 804              		.loc 1 425 0
 805 0002 0E49     		ldr	r1, .L76
 806              		.loc 1 424 0
 807 0004 0E4B     		ldr	r3, .L76+4
 808              		.loc 1 426 0
 809 0006 8A69     		ldr	r2, [r1, #24]
 810              		.loc 1 425 0
 811 0008 0868     		ldr	r0, [r1]
 812              		.loc 1 433 0
 813 000a 92F82310 		ldrb	r1, [r2, #35]	@ zero_extendqisi2
 814              		.loc 1 424 0
 815 000e 1C68     		ldr	r4, [r3]
 816              		.loc 1 425 0
 817 0010 8068     		ldr	r0, [r0, #8]
 818              	.LVL62:
 819              		.loc 1 426 0
 820 0012 9268     		ldr	r2, [r2, #8]
 821              	.LVL63:
 822              		.loc 1 424 0
 823 0014 82B0     		sub	sp, sp, #8
 824              		.cfi_def_cfa_offset 16
 825              		.loc 1 424 0
 826 0016 0194     		str	r4, [sp, #4]
 827              		.loc 1 433 0
 828 0018 49B9     		cbnz	r1, .L74
 829              		.loc 1 433 0 is_stmt 0 discriminator 2
 830 001a 9042     		cmp	r0, r2
 831 001c 34BF     		ite	cc
 832 001e 0020     		movcc	r0, #0
 833              	.LVL64:
 834 0020 0120     		movcs	r0, #1
 835              	.L71:
 836              		.loc 1 439 0 is_stmt 1 discriminator 4
 837 0022 019A     		ldr	r2, [sp, #4]
 838              	.LVL65:
 839 0024 1B68     		ldr	r3, [r3]
 840 0026 9A42     		cmp	r2, r3
 841 0028 06D1     		bne	.L75
 842              		.loc 1 439 0 is_stmt 0
 843 002a 02B0     		add	sp, sp, #8
 844              		.cfi_remember_state
 845              		.cfi_def_cfa_offset 8
 846              		@ sp needed
 847 002c 10BD     		pop	{r4, pc}
 848              	.LVL66:
 849              	.L74:
 850              		.cfi_restore_state
 851              		.loc 1 433 0 is_stmt 1 discriminator 1
 852 002e 9042     		cmp	r0, r2
 853 0030 94BF     		ite	ls
 854 0032 0020     		movls	r0, #0
 855              	.LVL67:
ARM GAS  /var/folders/d2/nstgp4h54kz7g1l847x_b8wc0000gn/T//cc0NMf3t.s 			page 16


 856 0034 0120     		movhi	r0, #1
 857 0036 F4E7     		b	.L71
 858              	.LVL68:
 859              	.L75:
 860              		.loc 1 439 0
 861 0038 FFF7FEFF 		bl	__stack_chk_fail
 862              	.LVL69:
 863              	.L77:
 864              		.align	2
 865              	.L76:
 866 003c 00000000 		.word	.LANCHOR0
 867 0040 00000000 		.word	__stack_chk_guard
 868              		.cfi_endproc
 869              	.LFE226:
 870              		.size	chSchIsPreemptionRequired, .-chSchIsPreemptionRequired
 871              		.section	.text.chSchDoRescheduleBehind,"ax",%progbits
 872              		.align	1
 873              		.p2align 4,,15
 874              		.global	chSchDoRescheduleBehind
 875              		.syntax unified
 876              		.thumb
 877              		.thumb_func
 878              		.fpu fpv4-sp-d16
 879              		.type	chSchDoRescheduleBehind, %function
 880              	chSchDoRescheduleBehind:
 881              	.LFB227:
 882              		.loc 1 451 0
 883              		.cfi_startproc
 884              		@ args = 0, pretend = 0, frame = 8
 885              		@ frame_needed = 0, uses_anonymous_args = 0
 886 0000 70B5     		push	{r4, r5, r6, lr}
 887              		.cfi_def_cfa_offset 16
 888              		.cfi_offset 4, -16
 889              		.cfi_offset 5, -12
 890              		.cfi_offset 6, -8
 891              		.cfi_offset 14, -4
 892              		.loc 1 454 0
 893 0002 184C     		ldr	r4, .L84
 894              		.loc 1 451 0
 895 0004 184E     		ldr	r6, .L84+4
 896              	.LBB186:
 897              	.LBB187:
 898              		.loc 2 672 0
 899 0006 2368     		ldr	r3, [r4]
 900              	.LBE187:
 901              	.LBE186:
 902              		.loc 1 454 0
 903 0008 A569     		ldr	r5, [r4, #24]
 904              	.LVL70:
 905              	.LBB189:
 906              	.LBB188:
 907              		.loc 2 674 0
 908 000a 1A68     		ldr	r2, [r3]
 909 000c 2260     		str	r2, [r4]
 910              		.loc 2 675 0
 911 000e 5460     		str	r4, [r2, #4]
 912              	.LVL71:
ARM GAS  /var/folders/d2/nstgp4h54kz7g1l847x_b8wc0000gn/T//cc0NMf3t.s 			page 17


 913              	.LBE188:
 914              	.LBE189:
 915              		.loc 1 462 0
 916 0010 0122     		movs	r2, #1
 917 0012 83F82020 		strb	r2, [r3, #32]
 918              		.loc 1 451 0
 919 0016 82B0     		sub	sp, sp, #8
 920              		.cfi_def_cfa_offset 24
 921              		.loc 1 464 0
 922 0018 1422     		movs	r2, #20
 923              		.loc 1 451 0
 924 001a 3168     		ldr	r1, [r6]
 925              		.loc 1 464 0
 926 001c 85F82320 		strb	r2, [r5, #35]
 927              		.loc 1 466 0
 928 0020 2846     		mov	r0, r5
 929              		.loc 1 456 0
 930 0022 A361     		str	r3, [r4, #24]
 931              		.loc 1 451 0
 932 0024 0191     		str	r1, [sp, #4]
 933              		.loc 1 466 0
 934 0026 FFF7FEFF 		bl	chSchReadyI
 935              	.LVL72:
 936              		.loc 1 467 0
 937 002a 2846     		mov	r0, r5
 938 002c FFF7FEFF 		bl	_dbg_trace
 939              	.LVL73:
 940 0030 2946     		mov	r1, r5
 941 0032 A069     		ldr	r0, [r4, #24]
 942 0034 FFF7FEFF 		bl	_stats_ctxswc
 943              	.LVL74:
 944              	.LBB190:
 945              	.LBB191:
 946              	.LBB192:
 947              		.loc 3 428 0
 948              		.syntax unified
 949              	@ 428 "../e-puck2_main-processor/ChibiOS//os/ext/CMSIS/include/core_cmFunc.h" 1
 950 0038 EFF30983 		MRS r3, psp
 951              	
 952              	@ 0 "" 2
 953              		.thumb
 954              		.syntax unified
 955              	.LBE192:
 956              	.LBE191:
 957              		.loc 1 467 0
 958 003c EA69     		ldr	r2, [r5, #28]
 959 003e 643B     		subs	r3, r3, #100
 960 0040 9A42     		cmp	r2, r3
 961 0042 02D9     		bls	.L79
 962              		.loc 1 467 0 is_stmt 0 discriminator 1
 963 0044 0948     		ldr	r0, .L84+8
 964 0046 FFF7FEFF 		bl	chSysHalt
 965              	.LVL75:
 966              	.L79:
 967              		.loc 1 467 0 discriminator 3
 968 004a 019A     		ldr	r2, [sp, #4]
 969 004c 3368     		ldr	r3, [r6]
ARM GAS  /var/folders/d2/nstgp4h54kz7g1l847x_b8wc0000gn/T//cc0NMf3t.s 			page 18


 970 004e 9A42     		cmp	r2, r3
 971 0050 06D1     		bne	.L83
 972 0052 A069     		ldr	r0, [r4, #24]
 973 0054 2946     		mov	r1, r5
 974              	.LBE190:
 975              		.loc 1 468 0 is_stmt 1 discriminator 3
 976 0056 02B0     		add	sp, sp, #8
 977              		.cfi_remember_state
 978              		.cfi_def_cfa_offset 16
 979              		@ sp needed
 980 0058 BDE87040 		pop	{r4, r5, r6, lr}
 981              		.cfi_restore 14
 982              		.cfi_restore 6
 983              		.cfi_restore 5
 984              		.cfi_restore 4
 985              		.cfi_def_cfa_offset 0
 986              	.LVL76:
 987              	.LBB193:
 988              		.loc 1 467 0 discriminator 3
 989 005c FFF7FEBF 		b	_port_switch
 990              	.LVL77:
 991              	.L83:
 992              		.cfi_restore_state
 993 0060 FFF7FEFF 		bl	__stack_chk_fail
 994              	.LVL78:
 995              	.L85:
 996              		.align	2
 997              	.L84:
 998 0064 00000000 		.word	.LANCHOR0
 999 0068 00000000 		.word	__stack_chk_guard
 1000 006c 00000000 		.word	.LC0
 1001              	.LBE193:
 1002              		.cfi_endproc
 1003              	.LFE227:
 1004              		.size	chSchDoRescheduleBehind, .-chSchDoRescheduleBehind
 1005              		.section	.text.chSchDoRescheduleAhead,"ax",%progbits
 1006              		.align	1
 1007              		.p2align 4,,15
 1008              		.global	chSchDoRescheduleAhead
 1009              		.syntax unified
 1010              		.thumb
 1011              		.thumb_func
 1012              		.fpu fpv4-sp-d16
 1013              		.type	chSchDoRescheduleAhead, %function
 1014              	chSchDoRescheduleAhead:
 1015              	.LFB228:
 1016              		.loc 1 479 0
 1017              		.cfi_startproc
 1018              		@ args = 0, pretend = 0, frame = 8
 1019              		@ frame_needed = 0, uses_anonymous_args = 0
 1020 0000 70B5     		push	{r4, r5, r6, lr}
 1021              		.cfi_def_cfa_offset 16
 1022              		.cfi_offset 4, -16
 1023              		.cfi_offset 5, -12
 1024              		.cfi_offset 6, -8
 1025              		.cfi_offset 14, -4
 1026              		.loc 1 482 0
ARM GAS  /var/folders/d2/nstgp4h54kz7g1l847x_b8wc0000gn/T//cc0NMf3t.s 			page 19


 1027 0002 1C4D     		ldr	r5, .L95
 1028              		.loc 1 479 0
 1029 0004 1C4E     		ldr	r6, .L95+4
 1030              	.LBB194:
 1031              	.LBB195:
 1032              		.loc 2 672 0
 1033 0006 2A68     		ldr	r2, [r5]
 1034              	.LBE195:
 1035              	.LBE194:
 1036              		.loc 1 482 0
 1037 0008 AC69     		ldr	r4, [r5, #24]
 1038              	.LVL79:
 1039              	.LBB198:
 1040              	.LBB196:
 1041              		.loc 2 674 0
 1042 000a 1368     		ldr	r3, [r2]
 1043 000c 2B60     		str	r3, [r5]
 1044              	.LBE196:
 1045              	.LBE198:
 1046              		.loc 1 490 0
 1047 000e 0121     		movs	r1, #1
 1048              		.loc 1 479 0
 1049 0010 82B0     		sub	sp, sp, #8
 1050              		.cfi_def_cfa_offset 24
 1051              	.LBB199:
 1052              	.LBB197:
 1053              		.loc 2 675 0
 1054 0012 5D60     		str	r5, [r3, #4]
 1055              	.LVL80:
 1056              	.LBE197:
 1057              	.LBE199:
 1058              		.loc 1 492 0
 1059 0014 0020     		movs	r0, #0
 1060              		.loc 1 490 0
 1061 0016 82F82010 		strb	r1, [r2, #32]
 1062              		.loc 1 484 0
 1063 001a AA61     		str	r2, [r5, #24]
 1064              		.loc 1 479 0
 1065 001c 3268     		ldr	r2, [r6]
 1066              		.loc 1 496 0
 1067 001e A168     		ldr	r1, [r4, #8]
 1068              		.loc 1 492 0
 1069 0020 84F82000 		strb	r0, [r4, #32]
 1070              	.LVL81:
 1071              		.loc 1 479 0
 1072 0024 0192     		str	r2, [sp, #4]
 1073 0026 00E0     		b	.L88
 1074              	.LVL82:
 1075              	.L93:
 1076 0028 1B68     		ldr	r3, [r3]
 1077              	.L88:
 1078              		.loc 1 496 0 discriminator 1
 1079 002a 9A68     		ldr	r2, [r3, #8]
 1080 002c 8A42     		cmp	r2, r1
 1081 002e FBD8     		bhi	.L93
 1082              		.loc 1 498 0
 1083 0030 2360     		str	r3, [r4]
ARM GAS  /var/folders/d2/nstgp4h54kz7g1l847x_b8wc0000gn/T//cc0NMf3t.s 			page 20


 1084              		.loc 1 499 0
 1085 0032 5A68     		ldr	r2, [r3, #4]
 1086 0034 6260     		str	r2, [r4, #4]
 1087              		.loc 1 503 0
 1088 0036 2046     		mov	r0, r4
 1089              		.loc 1 500 0
 1090 0038 1460     		str	r4, [r2]
 1091              		.loc 1 501 0
 1092 003a 5C60     		str	r4, [r3, #4]
 1093              		.loc 1 503 0
 1094 003c FFF7FEFF 		bl	_dbg_trace
 1095              	.LVL83:
 1096 0040 2146     		mov	r1, r4
 1097 0042 A869     		ldr	r0, [r5, #24]
 1098 0044 FFF7FEFF 		bl	_stats_ctxswc
 1099              	.LVL84:
 1100              	.LBB200:
 1101              	.LBB201:
 1102              	.LBB202:
 1103              		.loc 3 428 0
 1104              		.syntax unified
 1105              	@ 428 "../e-puck2_main-processor/ChibiOS//os/ext/CMSIS/include/core_cmFunc.h" 1
 1106 0048 EFF30983 		MRS r3, psp
 1107              	
 1108              	@ 0 "" 2
 1109              		.thumb
 1110              		.syntax unified
 1111              	.LBE202:
 1112              	.LBE201:
 1113              		.loc 1 503 0
 1114 004c E269     		ldr	r2, [r4, #28]
 1115 004e 643B     		subs	r3, r3, #100
 1116 0050 9A42     		cmp	r2, r3
 1117 0052 02D9     		bls	.L89
 1118              		.loc 1 503 0 is_stmt 0 discriminator 1
 1119 0054 0948     		ldr	r0, .L95+8
 1120 0056 FFF7FEFF 		bl	chSysHalt
 1121              	.LVL85:
 1122              	.L89:
 1123              		.loc 1 503 0 discriminator 3
 1124 005a 019A     		ldr	r2, [sp, #4]
 1125 005c 3368     		ldr	r3, [r6]
 1126 005e 9A42     		cmp	r2, r3
 1127 0060 06D1     		bne	.L94
 1128 0062 A869     		ldr	r0, [r5, #24]
 1129 0064 2146     		mov	r1, r4
 1130              	.LBE200:
 1131              		.loc 1 504 0 is_stmt 1 discriminator 3
 1132 0066 02B0     		add	sp, sp, #8
 1133              		.cfi_remember_state
 1134              		.cfi_def_cfa_offset 16
 1135              		@ sp needed
 1136 0068 BDE87040 		pop	{r4, r5, r6, lr}
 1137              		.cfi_restore 14
 1138              		.cfi_restore 6
 1139              		.cfi_restore 5
 1140              		.cfi_restore 4
ARM GAS  /var/folders/d2/nstgp4h54kz7g1l847x_b8wc0000gn/T//cc0NMf3t.s 			page 21


 1141              		.cfi_def_cfa_offset 0
 1142              	.LVL86:
 1143              	.LBB203:
 1144              		.loc 1 503 0 discriminator 3
 1145 006c FFF7FEBF 		b	_port_switch
 1146              	.LVL87:
 1147              	.L94:
 1148              		.cfi_restore_state
 1149 0070 FFF7FEFF 		bl	__stack_chk_fail
 1150              	.LVL88:
 1151              	.L96:
 1152              		.align	2
 1153              	.L95:
 1154 0074 00000000 		.word	.LANCHOR0
 1155 0078 00000000 		.word	__stack_chk_guard
 1156 007c 00000000 		.word	.LC0
 1157              	.LBE203:
 1158              		.cfi_endproc
 1159              	.LFE228:
 1160              		.size	chSchDoRescheduleAhead, .-chSchDoRescheduleAhead
 1161              		.section	.text.chSchRescheduleS,"ax",%progbits
 1162              		.align	1
 1163              		.p2align 4,,15
 1164              		.global	chSchRescheduleS
 1165              		.syntax unified
 1166              		.thumb
 1167              		.thumb_func
 1168              		.fpu fpv4-sp-d16
 1169              		.type	chSchRescheduleS, %function
 1170              	chSchRescheduleS:
 1171              	.LFB225:
 1172              		.loc 1 402 0
 1173              		.cfi_startproc
 1174              		@ args = 0, pretend = 0, frame = 8
 1175              		@ frame_needed = 0, uses_anonymous_args = 0
 1176 0000 10B5     		push	{r4, lr}
 1177              		.cfi_def_cfa_offset 8
 1178              		.cfi_offset 4, -8
 1179              		.cfi_offset 14, -4
 1180 0002 0F4C     		ldr	r4, .L104
 1181 0004 82B0     		sub	sp, sp, #8
 1182              		.cfi_def_cfa_offset 16
 1183              		.loc 1 402 0
 1184 0006 2368     		ldr	r3, [r4]
 1185 0008 0193     		str	r3, [sp, #4]
 1186              		.loc 1 404 0
 1187 000a FFF7FEFF 		bl	chDbgCheckClassS
 1188              	.LVL89:
 1189              	.LBB204:
 1190              	.LBB205:
 1191              		.loc 2 711 0
 1192 000e FFF7FEFF 		bl	chDbgCheckClassI
 1193              	.LVL90:
 1194              		.loc 2 713 0
 1195 0012 0C4B     		ldr	r3, .L104+4
 1196 0014 1A68     		ldr	r2, [r3]
 1197 0016 9B69     		ldr	r3, [r3, #24]
ARM GAS  /var/folders/d2/nstgp4h54kz7g1l847x_b8wc0000gn/T//cc0NMf3t.s 			page 22


 1198              	.LBE205:
 1199              	.LBE204:
 1200              		.loc 1 406 0
 1201 0018 9268     		ldr	r2, [r2, #8]
 1202 001a 9B68     		ldr	r3, [r3, #8]
 1203 001c 9A42     		cmp	r2, r3
 1204              		.loc 1 407 0
 1205 001e 019A     		ldr	r2, [sp, #4]
 1206 0020 2368     		ldr	r3, [r4]
 1207              		.loc 1 406 0
 1208 0022 03D8     		bhi	.L103
 1209              		.loc 1 409 0
 1210 0024 9A42     		cmp	r2, r3
 1211 0026 08D1     		bne	.L102
 1212 0028 02B0     		add	sp, sp, #8
 1213              		.cfi_remember_state
 1214              		.cfi_def_cfa_offset 8
 1215              		@ sp needed
 1216 002a 10BD     		pop	{r4, pc}
 1217              	.L103:
 1218              		.cfi_restore_state
 1219              		.loc 1 407 0
 1220 002c 9A42     		cmp	r2, r3
 1221 002e 04D1     		bne	.L102
 1222              		.loc 1 409 0
 1223 0030 02B0     		add	sp, sp, #8
 1224              		.cfi_remember_state
 1225              		.cfi_def_cfa_offset 8
 1226              		@ sp needed
 1227 0032 BDE81040 		pop	{r4, lr}
 1228              		.cfi_restore 14
 1229              		.cfi_restore 4
 1230              		.cfi_def_cfa_offset 0
 1231              		.loc 1 407 0
 1232 0036 FFF7FEBF 		b	chSchDoRescheduleAhead
 1233              	.LVL91:
 1234              	.L102:
 1235              		.cfi_restore_state
 1236              		.loc 1 409 0
 1237 003a FFF7FEFF 		bl	__stack_chk_fail
 1238              	.LVL92:
 1239              	.L105:
 1240 003e 00BF     		.align	2
 1241              	.L104:
 1242 0040 00000000 		.word	__stack_chk_guard
 1243 0044 00000000 		.word	.LANCHOR0
 1244              		.cfi_endproc
 1245              	.LFE225:
 1246              		.size	chSchRescheduleS, .-chSchRescheduleS
 1247              		.section	.text.chSchDoReschedule,"ax",%progbits
 1248              		.align	1
 1249              		.p2align 4,,15
 1250              		.global	chSchDoReschedule
 1251              		.syntax unified
 1252              		.thumb
 1253              		.thumb_func
 1254              		.fpu fpv4-sp-d16
ARM GAS  /var/folders/d2/nstgp4h54kz7g1l847x_b8wc0000gn/T//cc0NMf3t.s 			page 23


 1255              		.type	chSchDoReschedule, %function
 1256              	chSchDoReschedule:
 1257              	.LFB229:
 1258              		.loc 1 516 0
 1259              		.cfi_startproc
 1260              		@ args = 0, pretend = 0, frame = 8
 1261              		@ frame_needed = 0, uses_anonymous_args = 0
 1262 0000 00B5     		push	{lr}
 1263              		.cfi_def_cfa_offset 4
 1264              		.cfi_offset 14, -4
 1265              		.loc 1 521 0
 1266 0002 0E4A     		ldr	r2, .L114
 1267              		.loc 1 516 0
 1268 0004 0E4B     		ldr	r3, .L114+4
 1269              		.loc 1 521 0
 1270 0006 9269     		ldr	r2, [r2, #24]
 1271              		.loc 1 516 0
 1272 0008 1968     		ldr	r1, [r3]
 1273              		.loc 1 521 0
 1274 000a 92F82320 		ldrb	r2, [r2, #35]	@ zero_extendqisi2
 1275              		.loc 1 516 0
 1276 000e 83B0     		sub	sp, sp, #12
 1277              		.cfi_def_cfa_offset 16
 1278              		.loc 1 516 0
 1279 0010 0191     		str	r1, [sp, #4]
 1280              		.loc 1 521 0
 1281 0012 42B1     		cbz	r2, .L113
 1282              		.loc 1 529 0
 1283 0014 019A     		ldr	r2, [sp, #4]
 1284 0016 1B68     		ldr	r3, [r3]
 1285 0018 9A42     		cmp	r2, r3
 1286 001a 0DD1     		bne	.L112
 1287              		.loc 1 536 0
 1288 001c 03B0     		add	sp, sp, #12
 1289              		.cfi_remember_state
 1290              		.cfi_def_cfa_offset 4
 1291              		@ sp needed
 1292 001e 5DF804EB 		ldr	lr, [sp], #4
 1293              		.cfi_restore 14
 1294              		.cfi_def_cfa_offset 0
 1295              		.loc 1 529 0
 1296 0022 FFF7FEBF 		b	chSchDoRescheduleAhead
 1297              	.LVL93:
 1298              	.L113:
 1299              		.cfi_restore_state
 1300              		.loc 1 524 0
 1301 0026 019A     		ldr	r2, [sp, #4]
 1302 0028 1B68     		ldr	r3, [r3]
 1303 002a 9A42     		cmp	r2, r3
 1304 002c 04D1     		bne	.L112
 1305              		.loc 1 536 0
 1306 002e 03B0     		add	sp, sp, #12
 1307              		.cfi_remember_state
 1308              		.cfi_def_cfa_offset 4
 1309              		@ sp needed
 1310 0030 5DF804EB 		ldr	lr, [sp], #4
 1311              		.cfi_restore 14
ARM GAS  /var/folders/d2/nstgp4h54kz7g1l847x_b8wc0000gn/T//cc0NMf3t.s 			page 24


 1312              		.cfi_def_cfa_offset 0
 1313              		.loc 1 524 0
 1314 0034 FFF7FEBF 		b	chSchDoRescheduleBehind
 1315              	.LVL94:
 1316              	.L112:
 1317              		.cfi_restore_state
 1318              		.loc 1 529 0
 1319 0038 FFF7FEFF 		bl	__stack_chk_fail
 1320              	.LVL95:
 1321              	.L115:
 1322              		.align	2
 1323              	.L114:
 1324 003c 00000000 		.word	.LANCHOR0
 1325 0040 00000000 		.word	__stack_chk_guard
 1326              		.cfi_endproc
 1327              	.LFE229:
 1328              		.size	chSchDoReschedule, .-chSchDoReschedule
 1329              		.global	ch
 1330              		.section	.bss.ch,"aw",%nobits
 1331              		.align	3
 1332              		.set	.LANCHOR0,. + 0
 1333              		.type	ch, %object
 1334              		.size	ch, 1648
 1335              	ch:
 1336 0000 00000000 		.space	1648
 1336      00000000 
 1336      00000000 
 1336      00000000 
 1336      00000000 
 1337              		.section	.rodata.__func__.7854,"a",%progbits
 1338              		.align	2
 1339              		.set	.LANCHOR1,. + 0
 1340              		.type	__func__.7854, %object
 1341              		.size	__func__.7854, 12
 1342              	__func__.7854:
 1343 0000 63685363 		.ascii	"chSchReadyI\000"
 1343      68526561 
 1343      64794900 
 1344              		.section	.rodata.chSchGoSleepS.str1.4,"aMS",%progbits,1
 1345              		.align	2
 1346              	.LC0:
 1347 0000 73746163 		.ascii	"stack overflow\000"
 1347      6B206F76 
 1347      6572666C 
 1347      6F7700
 1348              		.text
 1349              	.Letext0:
 1350              		.file 7 "/Applications/Eclipse_e-puck2.app/Contents/Eclipse_e-puck2/Tools/gcc-arm-none-eabi-7-2017
 1351              		.file 8 "/Applications/Eclipse_e-puck2.app/Contents/Eclipse_e-puck2/Tools/gcc-arm-none-eabi-7-2017
 1352              		.file 9 "/Applications/Eclipse_e-puck2.app/Contents/Eclipse_e-puck2/Tools/gcc-arm-none-eabi-7-2017
 1353              		.file 10 "../e-puck2_main-processor/ChibiOS//os/rt/ports/ARMCMx/compilers/GCC/chtypes.h"
 1354              		.file 11 "../e-puck2_main-processor/ChibiOS//os/rt/include/chsystypes.h"
 1355              		.file 12 "../e-puck2_main-processor/ChibiOS//os/ext/CMSIS/include/core_cm4.h"
 1356              		.file 13 "../e-puck2_main-processor/ChibiOS//os/ext/CMSIS/ST/system_stm32f4xx.h"
 1357              		.file 14 "../e-puck2_main-processor/ChibiOS//os/rt/ports/ARMCMx/chcore.h"
 1358              		.file 15 "../e-puck2_main-processor/ChibiOS//os/rt/ports/ARMCMx/chcore_v7m.h"
 1359              		.file 16 "../e-puck2_main-processor/ChibiOS//os/rt/include/chdebug.h"
ARM GAS  /var/folders/d2/nstgp4h54kz7g1l847x_b8wc0000gn/T//cc0NMf3t.s 			page 25


 1360              		.file 17 "../e-puck2_main-processor/ChibiOS//os/rt/include/chtm.h"
 1361              		.file 18 "../e-puck2_main-processor/ChibiOS//os/rt/include/chstats.h"
 1362              		.file 19 "../e-puck2_main-processor/ChibiOS//os/rt/include/chmtx.h"
 1363              		.file 20 "../e-puck2_main-processor/ChibiOS//os/rt/include/chregistry.h"