ARM GAS  /var/folders/d2/nstgp4h54kz7g1l847x_b8wc0000gn/T//ccDctIlK.s 			page 1


   1              		.cpu cortex-m4
   2              		.eabi_attribute 27, 1
   3              		.eabi_attribute 28, 1
   4              		.eabi_attribute 20, 1
   5              		.eabi_attribute 21, 1
   6              		.eabi_attribute 23, 3
   7              		.eabi_attribute 24, 1
   8              		.eabi_attribute 25, 1
   9              		.eabi_attribute 26, 1
  10              		.eabi_attribute 30, 6
  11              		.eabi_attribute 34, 1
  12              		.eabi_attribute 18, 4
  13              		.file	"chschd.c"
  14              		.section	.text.port_lock,"ax",%progbits
  15              		.align	1
  16              		.syntax unified
  17              		.thumb
  18              		.thumb_func
  19              		.fpu fpv4-sp-d16
  20              		.type	port_lock, %function
  21              	port_lock:
  22              		@ args = 0, pretend = 0, frame = 8
  23              		@ frame_needed = 1, uses_anonymous_args = 0
  24              		@ link register save eliminated.
  25 0000 80B4     		push	{r7}
  26 0002 83B0     		sub	sp, sp, #12
  27 0004 00AF     		add	r7, sp, #0
  28 0006 2023     		movs	r3, #32
  29 0008 7B60     		str	r3, [r7, #4]
  30 000a 7B68     		ldr	r3, [r7, #4]
  31              		.syntax unified
  32              	@ 546 "../e-puck2_main-processor/ChibiOS//os/ext/CMSIS/include/core_cmFunc.h" 1
  33 000c 83F31188 		MSR basepri, r3
  34              	@ 0 "" 2
  35              		.thumb
  36              		.syntax unified
  37 0010 00BF     		nop
  38 0012 0C37     		adds	r7, r7, #12
  39 0014 BD46     		mov	sp, r7
  40              		@ sp needed
  41 0016 5DF8047B 		ldr	r7, [sp], #4
  42 001a 7047     		bx	lr
  43              		.size	port_lock, .-port_lock
  44              		.section	.text.port_unlock,"ax",%progbits
  45              		.align	1
  46              		.syntax unified
  47              		.thumb
  48              		.thumb_func
  49              		.fpu fpv4-sp-d16
  50              		.type	port_unlock, %function
  51              	port_unlock:
  52              		@ args = 0, pretend = 0, frame = 8
  53              		@ frame_needed = 1, uses_anonymous_args = 0
  54              		@ link register save eliminated.
  55 0000 80B4     		push	{r7}
  56 0002 83B0     		sub	sp, sp, #12
  57 0004 00AF     		add	r7, sp, #0
ARM GAS  /var/folders/d2/nstgp4h54kz7g1l847x_b8wc0000gn/T//ccDctIlK.s 			page 2


  58 0006 0023     		movs	r3, #0
  59 0008 7B60     		str	r3, [r7, #4]
  60 000a 7B68     		ldr	r3, [r7, #4]
  61              		.syntax unified
  62              	@ 546 "../e-puck2_main-processor/ChibiOS//os/ext/CMSIS/include/core_cmFunc.h" 1
  63 000c 83F31188 		MSR basepri, r3
  64              	@ 0 "" 2
  65              		.thumb
  66              		.syntax unified
  67 0010 00BF     		nop
  68 0012 0C37     		adds	r7, r7, #12
  69 0014 BD46     		mov	sp, r7
  70              		@ sp needed
  71 0016 5DF8047B 		ldr	r7, [sp], #4
  72 001a 7047     		bx	lr
  73              		.size	port_unlock, .-port_unlock
  74              		.section	.text.port_lock_from_isr,"ax",%progbits
  75              		.align	1
  76              		.syntax unified
  77              		.thumb
  78              		.thumb_func
  79              		.fpu fpv4-sp-d16
  80              		.type	port_lock_from_isr, %function
  81              	port_lock_from_isr:
  82              		@ args = 0, pretend = 0, frame = 0
  83              		@ frame_needed = 1, uses_anonymous_args = 0
  84 0000 80B5     		push	{r7, lr}
  85 0002 00AF     		add	r7, sp, #0
  86 0004 FFF7FEFF 		bl	port_lock
  87 0008 00BF     		nop
  88 000a 80BD     		pop	{r7, pc}
  89              		.size	port_lock_from_isr, .-port_lock_from_isr
  90              		.section	.text.port_unlock_from_isr,"ax",%progbits
  91              		.align	1
  92              		.syntax unified
  93              		.thumb
  94              		.thumb_func
  95              		.fpu fpv4-sp-d16
  96              		.type	port_unlock_from_isr, %function
  97              	port_unlock_from_isr:
  98              		@ args = 0, pretend = 0, frame = 0
  99              		@ frame_needed = 1, uses_anonymous_args = 0
 100 0000 80B5     		push	{r7, lr}
 101 0002 00AF     		add	r7, sp, #0
 102 0004 FFF7FEFF 		bl	port_unlock
 103 0008 00BF     		nop
 104 000a 80BD     		pop	{r7, pc}
 105              		.size	port_unlock_from_isr, .-port_unlock_from_isr
 106              		.section	.text.queue_init,"ax",%progbits
 107              		.align	1
 108              		.syntax unified
 109              		.thumb
 110              		.thumb_func
 111              		.fpu fpv4-sp-d16
 112              		.type	queue_init, %function
 113              	queue_init:
 114              		@ args = 0, pretend = 0, frame = 8
ARM GAS  /var/folders/d2/nstgp4h54kz7g1l847x_b8wc0000gn/T//ccDctIlK.s 			page 3


 115              		@ frame_needed = 1, uses_anonymous_args = 0
 116              		@ link register save eliminated.
 117 0000 80B4     		push	{r7}
 118 0002 83B0     		sub	sp, sp, #12
 119 0004 00AF     		add	r7, sp, #0
 120 0006 7860     		str	r0, [r7, #4]
 121 0008 7B68     		ldr	r3, [r7, #4]
 122 000a 7A68     		ldr	r2, [r7, #4]
 123 000c 1A60     		str	r2, [r3]
 124 000e 7B68     		ldr	r3, [r7, #4]
 125 0010 7A68     		ldr	r2, [r7, #4]
 126 0012 5A60     		str	r2, [r3, #4]
 127 0014 00BF     		nop
 128 0016 0C37     		adds	r7, r7, #12
 129 0018 BD46     		mov	sp, r7
 130              		@ sp needed
 131 001a 5DF8047B 		ldr	r7, [sp], #4
 132 001e 7047     		bx	lr
 133              		.size	queue_init, .-queue_init
 134              		.section	.text.queue_fifo_remove,"ax",%progbits
 135              		.align	1
 136              		.syntax unified
 137              		.thumb
 138              		.thumb_func
 139              		.fpu fpv4-sp-d16
 140              		.type	queue_fifo_remove, %function
 141              	queue_fifo_remove:
 142              		@ args = 0, pretend = 0, frame = 16
 143              		@ frame_needed = 1, uses_anonymous_args = 0
 144              		@ link register save eliminated.
 145 0000 80B4     		push	{r7}
 146 0002 85B0     		sub	sp, sp, #20
 147 0004 00AF     		add	r7, sp, #0
 148 0006 7860     		str	r0, [r7, #4]
 149 0008 7B68     		ldr	r3, [r7, #4]
 150 000a 1B68     		ldr	r3, [r3]
 151 000c FB60     		str	r3, [r7, #12]
 152 000e FB68     		ldr	r3, [r7, #12]
 153 0010 1A68     		ldr	r2, [r3]
 154 0012 7B68     		ldr	r3, [r7, #4]
 155 0014 1A60     		str	r2, [r3]
 156 0016 7B68     		ldr	r3, [r7, #4]
 157 0018 1B68     		ldr	r3, [r3]
 158 001a 7A68     		ldr	r2, [r7, #4]
 159 001c 5A60     		str	r2, [r3, #4]
 160 001e FB68     		ldr	r3, [r7, #12]
 161 0020 1846     		mov	r0, r3
 162 0022 1437     		adds	r7, r7, #20
 163 0024 BD46     		mov	sp, r7
 164              		@ sp needed
 165 0026 5DF8047B 		ldr	r7, [sp], #4
 166 002a 7047     		bx	lr
 167              		.size	queue_fifo_remove, .-queue_fifo_remove
 168              		.section	.text.queue_dequeue,"ax",%progbits
 169              		.align	1
 170              		.syntax unified
 171              		.thumb
ARM GAS  /var/folders/d2/nstgp4h54kz7g1l847x_b8wc0000gn/T//ccDctIlK.s 			page 4


 172              		.thumb_func
 173              		.fpu fpv4-sp-d16
 174              		.type	queue_dequeue, %function
 175              	queue_dequeue:
 176              		@ args = 0, pretend = 0, frame = 8
 177              		@ frame_needed = 1, uses_anonymous_args = 0
 178              		@ link register save eliminated.
 179 0000 80B4     		push	{r7}
 180 0002 83B0     		sub	sp, sp, #12
 181 0004 00AF     		add	r7, sp, #0
 182 0006 7860     		str	r0, [r7, #4]
 183 0008 7B68     		ldr	r3, [r7, #4]
 184 000a 5B68     		ldr	r3, [r3, #4]
 185 000c 7A68     		ldr	r2, [r7, #4]
 186 000e 1268     		ldr	r2, [r2]
 187 0010 1A60     		str	r2, [r3]
 188 0012 7B68     		ldr	r3, [r7, #4]
 189 0014 1B68     		ldr	r3, [r3]
 190 0016 7A68     		ldr	r2, [r7, #4]
 191 0018 5268     		ldr	r2, [r2, #4]
 192 001a 5A60     		str	r2, [r3, #4]
 193 001c 7B68     		ldr	r3, [r7, #4]
 194 001e 1846     		mov	r0, r3
 195 0020 0C37     		adds	r7, r7, #12
 196 0022 BD46     		mov	sp, r7
 197              		@ sp needed
 198 0024 5DF8047B 		ldr	r7, [sp], #4
 199 0028 7047     		bx	lr
 200              		.size	queue_dequeue, .-queue_dequeue
 201              		.section	.text.chSchIsRescRequiredI,"ax",%progbits
 202              		.align	1
 203              		.syntax unified
 204              		.thumb
 205              		.thumb_func
 206              		.fpu fpv4-sp-d16
 207              		.type	chSchIsRescRequiredI, %function
 208              	chSchIsRescRequiredI:
 209              		@ args = 0, pretend = 0, frame = 0
 210              		@ frame_needed = 1, uses_anonymous_args = 0
 211 0000 80B5     		push	{r7, lr}
 212 0002 00AF     		add	r7, sp, #0
 213 0004 FFF7FEFF 		bl	chDbgCheckClassI
 214 0008 064B     		ldr	r3, .L12
 215 000a 1B68     		ldr	r3, [r3]
 216 000c 9A68     		ldr	r2, [r3, #8]
 217 000e 054B     		ldr	r3, .L12
 218 0010 9B69     		ldr	r3, [r3, #24]
 219 0012 9B68     		ldr	r3, [r3, #8]
 220 0014 9A42     		cmp	r2, r3
 221 0016 8CBF     		ite	hi
 222 0018 0123     		movhi	r3, #1
 223 001a 0023     		movls	r3, #0
 224 001c DBB2     		uxtb	r3, r3
 225 001e 1846     		mov	r0, r3
 226 0020 80BD     		pop	{r7, pc}
 227              	.L13:
 228 0022 00BF     		.align	2
ARM GAS  /var/folders/d2/nstgp4h54kz7g1l847x_b8wc0000gn/T//ccDctIlK.s 			page 5


 229              	.L12:
 230 0024 00000000 		.word	ch
 231              		.size	chSchIsRescRequiredI, .-chSchIsRescRequiredI
 232              		.section	.text.chSysLockFromISR,"ax",%progbits
 233              		.align	1
 234              		.syntax unified
 235              		.thumb
 236              		.thumb_func
 237              		.fpu fpv4-sp-d16
 238              		.type	chSysLockFromISR, %function
 239              	chSysLockFromISR:
 240              		@ args = 0, pretend = 0, frame = 0
 241              		@ frame_needed = 1, uses_anonymous_args = 0
 242 0000 80B5     		push	{r7, lr}
 243 0002 00AF     		add	r7, sp, #0
 244 0004 FFF7FEFF 		bl	port_lock_from_isr
 245 0008 FFF7FEFF 		bl	_stats_start_measure_crit_isr
 246 000c FFF7FEFF 		bl	_dbg_check_lock_from_isr
 247 0010 00BF     		nop
 248 0012 80BD     		pop	{r7, pc}
 249              		.size	chSysLockFromISR, .-chSysLockFromISR
 250              		.section	.text.chSysUnlockFromISR,"ax",%progbits
 251              		.align	1
 252              		.syntax unified
 253              		.thumb
 254              		.thumb_func
 255              		.fpu fpv4-sp-d16
 256              		.type	chSysUnlockFromISR, %function
 257              	chSysUnlockFromISR:
 258              		@ args = 0, pretend = 0, frame = 0
 259              		@ frame_needed = 1, uses_anonymous_args = 0
 260 0000 80B5     		push	{r7, lr}
 261 0002 00AF     		add	r7, sp, #0
 262 0004 FFF7FEFF 		bl	_dbg_check_unlock_from_isr
 263 0008 FFF7FEFF 		bl	_stats_stop_measure_crit_isr
 264 000c FFF7FEFF 		bl	port_unlock_from_isr
 265 0010 00BF     		nop
 266 0012 80BD     		pop	{r7, pc}
 267              		.size	chSysUnlockFromISR, .-chSysUnlockFromISR
 268              		.section	.text.chVTIsArmedI,"ax",%progbits
 269              		.align	1
 270              		.syntax unified
 271              		.thumb
 272              		.thumb_func
 273              		.fpu fpv4-sp-d16
 274              		.type	chVTIsArmedI, %function
 275              	chVTIsArmedI:
 276              		@ args = 0, pretend = 0, frame = 8
 277              		@ frame_needed = 1, uses_anonymous_args = 0
 278 0000 80B5     		push	{r7, lr}
 279 0002 82B0     		sub	sp, sp, #8
 280 0004 00AF     		add	r7, sp, #0
 281 0006 7860     		str	r0, [r7, #4]
 282 0008 FFF7FEFF 		bl	chDbgCheckClassI
 283 000c 7B68     		ldr	r3, [r7, #4]
 284 000e DB68     		ldr	r3, [r3, #12]
 285 0010 002B     		cmp	r3, #0
ARM GAS  /var/folders/d2/nstgp4h54kz7g1l847x_b8wc0000gn/T//ccDctIlK.s 			page 6


 286 0012 14BF     		ite	ne
 287 0014 0123     		movne	r3, #1
 288 0016 0023     		moveq	r3, #0
 289 0018 DBB2     		uxtb	r3, r3
 290 001a 1846     		mov	r0, r3
 291 001c 0837     		adds	r7, r7, #8
 292 001e BD46     		mov	sp, r7
 293              		@ sp needed
 294 0020 80BD     		pop	{r7, pc}
 295              		.size	chVTIsArmedI, .-chVTIsArmedI
 296              		.section	.text.chSemFastSignalI,"ax",%progbits
 297              		.align	1
 298              		.syntax unified
 299              		.thumb
 300              		.thumb_func
 301              		.fpu fpv4-sp-d16
 302              		.type	chSemFastSignalI, %function
 303              	chSemFastSignalI:
 304              		@ args = 0, pretend = 0, frame = 8
 305              		@ frame_needed = 1, uses_anonymous_args = 0
 306 0000 80B5     		push	{r7, lr}
 307 0002 82B0     		sub	sp, sp, #8
 308 0004 00AF     		add	r7, sp, #0
 309 0006 7860     		str	r0, [r7, #4]
 310 0008 FFF7FEFF 		bl	chDbgCheckClassI
 311 000c 7B68     		ldr	r3, [r7, #4]
 312 000e 9B68     		ldr	r3, [r3, #8]
 313 0010 5A1C     		adds	r2, r3, #1
 314 0012 7B68     		ldr	r3, [r7, #4]
 315 0014 9A60     		str	r2, [r3, #8]
 316 0016 00BF     		nop
 317 0018 0837     		adds	r7, r7, #8
 318 001a BD46     		mov	sp, r7
 319              		@ sp needed
 320 001c 80BD     		pop	{r7, pc}
 321              		.size	chSemFastSignalI, .-chSemFastSignalI
 322              		.global	ch
 323              		.section	.bss.ch,"aw",%nobits
 324              		.align	3
 325              		.type	ch, %object
 326              		.size	ch, 1648
 327              	ch:
 328 0000 00000000 		.space	1648
 328      00000000 
 328      00000000 
 328      00000000 
 328      00000000 
 329              		.section	.text._scheduler_init,"ax",%progbits
 330              		.align	1
 331              		.global	_scheduler_init
 332              		.syntax unified
 333              		.thumb
 334              		.thumb_func
 335              		.fpu fpv4-sp-d16
 336              		.type	_scheduler_init, %function
 337              	_scheduler_init:
 338              		@ args = 0, pretend = 0, frame = 0
ARM GAS  /var/folders/d2/nstgp4h54kz7g1l847x_b8wc0000gn/T//ccDctIlK.s 			page 7


 339              		@ frame_needed = 1, uses_anonymous_args = 0
 340 0000 80B5     		push	{r7, lr}
 341 0002 00AF     		add	r7, sp, #0
 342 0004 0648     		ldr	r0, .L20
 343 0006 FFF7FEFF 		bl	queue_init
 344 000a 054B     		ldr	r3, .L20
 345 000c 0022     		movs	r2, #0
 346 000e 9A60     		str	r2, [r3, #8]
 347 0010 034B     		ldr	r3, .L20
 348 0012 034A     		ldr	r2, .L20
 349 0014 1A61     		str	r2, [r3, #16]
 350 0016 024B     		ldr	r3, .L20
 351 0018 014A     		ldr	r2, .L20
 352 001a 5A61     		str	r2, [r3, #20]
 353 001c 00BF     		nop
 354 001e 80BD     		pop	{r7, pc}
 355              	.L21:
 356              		.align	2
 357              	.L20:
 358 0020 00000000 		.word	ch
 359              		.size	_scheduler_init, .-_scheduler_init
 360              		.section	.text.chSchReadyI,"ax",%progbits
 361              		.align	1
 362              		.global	chSchReadyI
 363              		.syntax unified
 364              		.thumb
 365              		.thumb_func
 366              		.fpu fpv4-sp-d16
 367              		.type	chSchReadyI, %function
 368              	chSchReadyI:
 369              		@ args = 0, pretend = 0, frame = 16
 370              		@ frame_needed = 1, uses_anonymous_args = 0
 371 0000 80B5     		push	{r7, lr}
 372 0002 84B0     		sub	sp, sp, #16
 373 0004 00AF     		add	r7, sp, #0
 374 0006 7860     		str	r0, [r7, #4]
 375 0008 FFF7FEFF 		bl	chDbgCheckClassI
 376 000c 7B68     		ldr	r3, [r7, #4]
 377 000e 002B     		cmp	r3, #0
 378 0010 02D1     		bne	.L28
 379 0012 1948     		ldr	r0, .L29
 380 0014 FFF7FEFF 		bl	chSysHalt
 381              	.L28:
 382 0018 7B68     		ldr	r3, [r7, #4]
 383 001a 93F82030 		ldrb	r3, [r3, #32]	@ zero_extendqisi2
 384 001e 002B     		cmp	r3, #0
 385 0020 04D0     		beq	.L24
 386 0022 7B68     		ldr	r3, [r7, #4]
 387 0024 93F82030 		ldrb	r3, [r3, #32]	@ zero_extendqisi2
 388 0028 0F2B     		cmp	r3, #15
 389 002a 02D1     		bne	.L25
 390              	.L24:
 391 002c 1248     		ldr	r0, .L29
 392 002e FFF7FEFF 		bl	chSysHalt
 393              	.L25:
 394 0032 7B68     		ldr	r3, [r7, #4]
 395 0034 0022     		movs	r2, #0
ARM GAS  /var/folders/d2/nstgp4h54kz7g1l847x_b8wc0000gn/T//ccDctIlK.s 			page 8


 396 0036 83F82020 		strb	r2, [r3, #32]
 397 003a 104B     		ldr	r3, .L29+4
 398 003c FB60     		str	r3, [r7, #12]
 399              	.L26:
 400 003e FB68     		ldr	r3, [r7, #12]
 401 0040 1B68     		ldr	r3, [r3]
 402 0042 FB60     		str	r3, [r7, #12]
 403 0044 FB68     		ldr	r3, [r7, #12]
 404 0046 9A68     		ldr	r2, [r3, #8]
 405 0048 7B68     		ldr	r3, [r7, #4]
 406 004a 9B68     		ldr	r3, [r3, #8]
 407 004c 9A42     		cmp	r2, r3
 408 004e F6D2     		bcs	.L26
 409 0050 7B68     		ldr	r3, [r7, #4]
 410 0052 FA68     		ldr	r2, [r7, #12]
 411 0054 1A60     		str	r2, [r3]
 412 0056 FB68     		ldr	r3, [r7, #12]
 413 0058 5A68     		ldr	r2, [r3, #4]
 414 005a 7B68     		ldr	r3, [r7, #4]
 415 005c 5A60     		str	r2, [r3, #4]
 416 005e 7B68     		ldr	r3, [r7, #4]
 417 0060 5B68     		ldr	r3, [r3, #4]
 418 0062 7A68     		ldr	r2, [r7, #4]
 419 0064 1A60     		str	r2, [r3]
 420 0066 FB68     		ldr	r3, [r7, #12]
 421 0068 7A68     		ldr	r2, [r7, #4]
 422 006a 5A60     		str	r2, [r3, #4]
 423 006c 7B68     		ldr	r3, [r7, #4]
 424 006e 1846     		mov	r0, r3
 425 0070 1037     		adds	r7, r7, #16
 426 0072 BD46     		mov	sp, r7
 427              		@ sp needed
 428 0074 80BD     		pop	{r7, pc}
 429              	.L30:
 430 0076 00BF     		.align	2
 431              	.L29:
 432 0078 00000000 		.word	__func__.7854
 433 007c 00000000 		.word	ch
 434              		.size	chSchReadyI, .-chSchReadyI
 435              		.section	.rodata
 436              		.align	2
 437              	.LC0:
 438 0000 73746163 		.ascii	"stack overflow\000"
 438      6B206F76 
 438      6572666C 
 438      6F7700
 439              		.section	.text.chSchGoSleepS,"ax",%progbits
 440              		.align	1
 441              		.global	chSchGoSleepS
 442              		.syntax unified
 443              		.thumb
 444              		.thumb_func
 445              		.fpu fpv4-sp-d16
 446              		.type	chSchGoSleepS, %function
 447              	chSchGoSleepS:
 448              		@ args = 0, pretend = 0, frame = 16
 449              		@ frame_needed = 1, uses_anonymous_args = 0
ARM GAS  /var/folders/d2/nstgp4h54kz7g1l847x_b8wc0000gn/T//ccDctIlK.s 			page 9


 450 0000 90B5     		push	{r4, r7, lr}
 451 0002 85B0     		sub	sp, sp, #20
 452 0004 00AF     		add	r7, sp, #0
 453 0006 0346     		mov	r3, r0
 454 0008 FB71     		strb	r3, [r7, #7]
 455 000a FFF7FEFF 		bl	chDbgCheckClassS
 456 000e 1C4B     		ldr	r3, .L34
 457 0010 9B69     		ldr	r3, [r3, #24]
 458 0012 FB60     		str	r3, [r7, #12]
 459 0014 FB68     		ldr	r3, [r7, #12]
 460 0016 FA79     		ldrb	r2, [r7, #7]
 461 0018 83F82020 		strb	r2, [r3, #32]
 462 001c FB68     		ldr	r3, [r7, #12]
 463 001e 1422     		movs	r2, #20
 464 0020 83F82320 		strb	r2, [r3, #35]
 465 0024 1648     		ldr	r0, .L34
 466 0026 FFF7FEFF 		bl	queue_fifo_remove
 467 002a 0246     		mov	r2, r0
 468 002c 144B     		ldr	r3, .L34
 469 002e 9A61     		str	r2, [r3, #24]
 470 0030 134B     		ldr	r3, .L34
 471 0032 9B69     		ldr	r3, [r3, #24]
 472 0034 0122     		movs	r2, #1
 473 0036 83F82020 		strb	r2, [r3, #32]
 474 003a F868     		ldr	r0, [r7, #12]
 475 003c FFF7FEFF 		bl	_dbg_trace
 476 0040 0F4B     		ldr	r3, .L34
 477 0042 9B69     		ldr	r3, [r3, #24]
 478 0044 F968     		ldr	r1, [r7, #12]
 479 0046 1846     		mov	r0, r3
 480 0048 FFF7FEFF 		bl	_stats_ctxswc
 481              		.syntax unified
 482              	@ 428 "../e-puck2_main-processor/ChibiOS//os/ext/CMSIS/include/core_cmFunc.h" 1
 483 004c EFF30983 		MRS r3, psp
 484              	
 485              	@ 0 "" 2
 486              		.thumb
 487              		.syntax unified
 488 0050 1C46     		mov	r4, r3
 489 0052 2346     		mov	r3, r4
 490 0054 BB60     		str	r3, [r7, #8]
 491 0056 BB68     		ldr	r3, [r7, #8]
 492 0058 A3F16402 		sub	r2, r3, #100
 493 005c FB68     		ldr	r3, [r7, #12]
 494 005e DB69     		ldr	r3, [r3, #28]
 495 0060 9A42     		cmp	r2, r3
 496 0062 02D2     		bcs	.L33
 497 0064 0748     		ldr	r0, .L34+4
 498 0066 FFF7FEFF 		bl	chSysHalt
 499              	.L33:
 500 006a 054B     		ldr	r3, .L34
 501 006c 9B69     		ldr	r3, [r3, #24]
 502 006e F968     		ldr	r1, [r7, #12]
 503 0070 1846     		mov	r0, r3
 504 0072 FFF7FEFF 		bl	_port_switch
 505 0076 00BF     		nop
 506 0078 1437     		adds	r7, r7, #20
ARM GAS  /var/folders/d2/nstgp4h54kz7g1l847x_b8wc0000gn/T//ccDctIlK.s 			page 10


 507 007a BD46     		mov	sp, r7
 508              		@ sp needed
 509 007c 90BD     		pop	{r4, r7, pc}
 510              	.L35:
 511 007e 00BF     		.align	2
 512              	.L34:
 513 0080 00000000 		.word	ch
 514 0084 00000000 		.word	.LC0
 515              		.size	chSchGoSleepS, .-chSchGoSleepS
 516              		.section	.text.wakeup,"ax",%progbits
 517              		.align	1
 518              		.syntax unified
 519              		.thumb
 520              		.thumb_func
 521              		.fpu fpv4-sp-d16
 522              		.type	wakeup, %function
 523              	wakeup:
 524              		@ args = 0, pretend = 0, frame = 16
 525              		@ frame_needed = 1, uses_anonymous_args = 0
 526 0000 80B5     		push	{r7, lr}
 527 0002 84B0     		sub	sp, sp, #16
 528 0004 00AF     		add	r7, sp, #0
 529 0006 7860     		str	r0, [r7, #4]
 530 0008 7B68     		ldr	r3, [r7, #4]
 531 000a FB60     		str	r3, [r7, #12]
 532 000c FFF7FEFF 		bl	chSysLockFromISR
 533 0010 FB68     		ldr	r3, [r7, #12]
 534 0012 93F82030 		ldrb	r3, [r3, #32]	@ zero_extendqisi2
 535 0016 072B     		cmp	r3, #7
 536 0018 23D8     		bhi	.L45
 537 001a 01A2     		adr	r2, .L39
 538 001c 52F823F0 		ldr	pc, [r2, r3, lsl #2]
 539              		.p2align 2
 540              	.L39:
 541 0020 41000000 		.word	.L38+1
 542 0024 63000000 		.word	.L45+1
 543 0028 63000000 		.word	.L45+1
 544 002c 47000000 		.word	.L40+1
 545 0030 5B000000 		.word	.L41+1
 546 0034 51000000 		.word	.L42+1
 547 0038 63000000 		.word	.L45+1
 548 003c 5B000000 		.word	.L41+1
 549              		.p2align 1
 550              	.L38:
 551 0040 FFF7FEFF 		bl	chSysUnlockFromISR
 552 0044 17E0     		b	.L36
 553              	.L40:
 554 0046 FB68     		ldr	r3, [r7, #12]
 555 0048 9B6A     		ldr	r3, [r3, #40]
 556 004a 0022     		movs	r2, #0
 557 004c 1A60     		str	r2, [r3]
 558 004e 09E0     		b	.L44
 559              	.L42:
 560 0050 FB68     		ldr	r3, [r7, #12]
 561 0052 9B6A     		ldr	r3, [r3, #40]
 562 0054 1846     		mov	r0, r3
 563 0056 FFF7FEFF 		bl	chSemFastSignalI
ARM GAS  /var/folders/d2/nstgp4h54kz7g1l847x_b8wc0000gn/T//ccDctIlK.s 			page 11


 564              	.L41:
 565 005a F868     		ldr	r0, [r7, #12]
 566 005c FFF7FEFF 		bl	queue_dequeue
 567 0060 00E0     		b	.L44
 568              	.L45:
 569 0062 00BF     		nop
 570              	.L44:
 571 0064 FB68     		ldr	r3, [r7, #12]
 572 0066 4FF0FF32 		mov	r2, #-1
 573 006a 9A62     		str	r2, [r3, #40]
 574 006c F868     		ldr	r0, [r7, #12]
 575 006e FFF7FEFF 		bl	chSchReadyI
 576 0072 FFF7FEFF 		bl	chSysUnlockFromISR
 577              	.L36:
 578 0076 1037     		adds	r7, r7, #16
 579 0078 BD46     		mov	sp, r7
 580              		@ sp needed
 581 007a 80BD     		pop	{r7, pc}
 582              		.size	wakeup, .-wakeup
 583              		.section	.text.chSchGoSleepTimeoutS,"ax",%progbits
 584              		.align	1
 585              		.global	chSchGoSleepTimeoutS
 586              		.syntax unified
 587              		.thumb
 588              		.thumb_func
 589              		.fpu fpv4-sp-d16
 590              		.type	chSchGoSleepTimeoutS, %function
 591              	chSchGoSleepTimeoutS:
 592              		@ args = 0, pretend = 0, frame = 32
 593              		@ frame_needed = 1, uses_anonymous_args = 0
 594 0000 80B5     		push	{r7, lr}
 595 0002 88B0     		sub	sp, sp, #32
 596 0004 00AF     		add	r7, sp, #0
 597 0006 0346     		mov	r3, r0
 598 0008 3960     		str	r1, [r7]
 599 000a FB71     		strb	r3, [r7, #7]
 600 000c FFF7FEFF 		bl	chDbgCheckClassS
 601 0010 3B68     		ldr	r3, [r7]
 602 0012 B3F1FF3F 		cmp	r3, #-1
 603 0016 19D0     		beq	.L47
 604 0018 124B     		ldr	r3, .L51
 605 001a 9B69     		ldr	r3, [r3, #24]
 606 001c 07F10C00 		add	r0, r7, #12
 607 0020 114A     		ldr	r2, .L51+4
 608 0022 3968     		ldr	r1, [r7]
 609 0024 FFF7FEFF 		bl	chVTDoSetI
 610 0028 FB79     		ldrb	r3, [r7, #7]	@ zero_extendqisi2
 611 002a 1846     		mov	r0, r3
 612 002c FFF7FEFF 		bl	chSchGoSleepS
 613 0030 07F10C03 		add	r3, r7, #12
 614 0034 1846     		mov	r0, r3
 615 0036 FFF7FEFF 		bl	chVTIsArmedI
 616 003a 0346     		mov	r3, r0
 617 003c 002B     		cmp	r3, #0
 618 003e 09D0     		beq	.L49
 619 0040 07F10C03 		add	r3, r7, #12
 620 0044 1846     		mov	r0, r3
ARM GAS  /var/folders/d2/nstgp4h54kz7g1l847x_b8wc0000gn/T//ccDctIlK.s 			page 12


 621 0046 FFF7FEFF 		bl	chVTDoResetI
 622 004a 03E0     		b	.L49
 623              	.L47:
 624 004c FB79     		ldrb	r3, [r7, #7]	@ zero_extendqisi2
 625 004e 1846     		mov	r0, r3
 626 0050 FFF7FEFF 		bl	chSchGoSleepS
 627              	.L49:
 628 0054 034B     		ldr	r3, .L51
 629 0056 9B69     		ldr	r3, [r3, #24]
 630 0058 9B6A     		ldr	r3, [r3, #40]
 631 005a 1846     		mov	r0, r3
 632 005c 2037     		adds	r7, r7, #32
 633 005e BD46     		mov	sp, r7
 634              		@ sp needed
 635 0060 80BD     		pop	{r7, pc}
 636              	.L52:
 637 0062 00BF     		.align	2
 638              	.L51:
 639 0064 00000000 		.word	ch
 640 0068 00000000 		.word	wakeup
 641              		.size	chSchGoSleepTimeoutS, .-chSchGoSleepTimeoutS
 642              		.section	.text.chSchWakeupS,"ax",%progbits
 643              		.align	1
 644              		.global	chSchWakeupS
 645              		.syntax unified
 646              		.thumb
 647              		.thumb_func
 648              		.fpu fpv4-sp-d16
 649              		.type	chSchWakeupS, %function
 650              	chSchWakeupS:
 651              		@ args = 0, pretend = 0, frame = 16
 652              		@ frame_needed = 1, uses_anonymous_args = 0
 653 0000 90B5     		push	{r4, r7, lr}
 654 0002 85B0     		sub	sp, sp, #20
 655 0004 00AF     		add	r7, sp, #0
 656 0006 7860     		str	r0, [r7, #4]
 657 0008 3960     		str	r1, [r7]
 658 000a FFF7FEFF 		bl	chDbgCheckClassS
 659 000e 7B68     		ldr	r3, [r7, #4]
 660 0010 3A68     		ldr	r2, [r7]
 661 0012 9A62     		str	r2, [r3, #40]
 662 0014 7B68     		ldr	r3, [r7, #4]
 663 0016 9A68     		ldr	r2, [r3, #8]
 664 0018 194B     		ldr	r3, .L59
 665 001a 9B69     		ldr	r3, [r3, #24]
 666 001c 9B68     		ldr	r3, [r3, #8]
 667 001e 9A42     		cmp	r2, r3
 668 0020 03D8     		bhi	.L54
 669 0022 7868     		ldr	r0, [r7, #4]
 670 0024 FFF7FEFF 		bl	chSchReadyI
 671 0028 26E0     		b	.L58
 672              	.L54:
 673 002a 154B     		ldr	r3, .L59
 674 002c 9B69     		ldr	r3, [r3, #24]
 675 002e 1846     		mov	r0, r3
 676 0030 FFF7FEFF 		bl	chSchReadyI
 677 0034 F860     		str	r0, [r7, #12]
ARM GAS  /var/folders/d2/nstgp4h54kz7g1l847x_b8wc0000gn/T//ccDctIlK.s 			page 13


 678 0036 124A     		ldr	r2, .L59
 679 0038 7B68     		ldr	r3, [r7, #4]
 680 003a 9361     		str	r3, [r2, #24]
 681 003c 7B68     		ldr	r3, [r7, #4]
 682 003e 0122     		movs	r2, #1
 683 0040 83F82020 		strb	r2, [r3, #32]
 684 0044 F868     		ldr	r0, [r7, #12]
 685 0046 FFF7FEFF 		bl	_dbg_trace
 686 004a F968     		ldr	r1, [r7, #12]
 687 004c 7868     		ldr	r0, [r7, #4]
 688 004e FFF7FEFF 		bl	_stats_ctxswc
 689              		.syntax unified
 690              	@ 428 "../e-puck2_main-processor/ChibiOS//os/ext/CMSIS/include/core_cmFunc.h" 1
 691 0052 EFF30983 		MRS r3, psp
 692              	
 693              	@ 0 "" 2
 694              		.thumb
 695              		.syntax unified
 696 0056 1C46     		mov	r4, r3
 697 0058 2346     		mov	r3, r4
 698 005a BB60     		str	r3, [r7, #8]
 699 005c BB68     		ldr	r3, [r7, #8]
 700 005e A3F16402 		sub	r2, r3, #100
 701 0062 FB68     		ldr	r3, [r7, #12]
 702 0064 DB69     		ldr	r3, [r3, #28]
 703 0066 9A42     		cmp	r2, r3
 704 0068 02D2     		bcs	.L57
 705 006a 0648     		ldr	r0, .L59+4
 706 006c FFF7FEFF 		bl	chSysHalt
 707              	.L57:
 708 0070 F968     		ldr	r1, [r7, #12]
 709 0072 7868     		ldr	r0, [r7, #4]
 710 0074 FFF7FEFF 		bl	_port_switch
 711              	.L58:
 712 0078 00BF     		nop
 713 007a 1437     		adds	r7, r7, #20
 714 007c BD46     		mov	sp, r7
 715              		@ sp needed
 716 007e 90BD     		pop	{r4, r7, pc}
 717              	.L60:
 718              		.align	2
 719              	.L59:
 720 0080 00000000 		.word	ch
 721 0084 00000000 		.word	.LC0
 722              		.size	chSchWakeupS, .-chSchWakeupS
 723              		.section	.text.chSchRescheduleS,"ax",%progbits
 724              		.align	1
 725              		.global	chSchRescheduleS
 726              		.syntax unified
 727              		.thumb
 728              		.thumb_func
 729              		.fpu fpv4-sp-d16
 730              		.type	chSchRescheduleS, %function
 731              	chSchRescheduleS:
 732              		@ args = 0, pretend = 0, frame = 0
 733              		@ frame_needed = 1, uses_anonymous_args = 0
 734 0000 80B5     		push	{r7, lr}
ARM GAS  /var/folders/d2/nstgp4h54kz7g1l847x_b8wc0000gn/T//ccDctIlK.s 			page 14


 735 0002 00AF     		add	r7, sp, #0
 736 0004 FFF7FEFF 		bl	chDbgCheckClassS
 737 0008 FFF7FEFF 		bl	chSchIsRescRequiredI
 738 000c 0346     		mov	r3, r0
 739 000e 002B     		cmp	r3, #0
 740 0010 01D0     		beq	.L63
 741 0012 FFF7FEFF 		bl	chSchDoRescheduleAhead
 742              	.L63:
 743 0016 00BF     		nop
 744 0018 80BD     		pop	{r7, pc}
 745              		.size	chSchRescheduleS, .-chSchRescheduleS
 746              		.section	.text.chSchIsPreemptionRequired,"ax",%progbits
 747              		.align	1
 748              		.global	chSchIsPreemptionRequired
 749              		.syntax unified
 750              		.thumb
 751              		.thumb_func
 752              		.fpu fpv4-sp-d16
 753              		.type	chSchIsPreemptionRequired, %function
 754              	chSchIsPreemptionRequired:
 755              		@ args = 0, pretend = 0, frame = 8
 756              		@ frame_needed = 1, uses_anonymous_args = 0
 757              		@ link register save eliminated.
 758 0000 80B4     		push	{r7}
 759 0002 83B0     		sub	sp, sp, #12
 760 0004 00AF     		add	r7, sp, #0
 761 0006 114B     		ldr	r3, .L68
 762 0008 1B68     		ldr	r3, [r3]
 763 000a 9B68     		ldr	r3, [r3, #8]
 764 000c 7B60     		str	r3, [r7, #4]
 765 000e 0F4B     		ldr	r3, .L68
 766 0010 9B69     		ldr	r3, [r3, #24]
 767 0012 9B68     		ldr	r3, [r3, #8]
 768 0014 3B60     		str	r3, [r7]
 769 0016 0D4B     		ldr	r3, .L68
 770 0018 9B69     		ldr	r3, [r3, #24]
 771 001a 93F82330 		ldrb	r3, [r3, #35]	@ zero_extendqisi2
 772 001e 002B     		cmp	r3, #0
 773 0020 07D0     		beq	.L65
 774 0022 7A68     		ldr	r2, [r7, #4]
 775 0024 3B68     		ldr	r3, [r7]
 776 0026 9A42     		cmp	r2, r3
 777 0028 8CBF     		ite	hi
 778 002a 0123     		movhi	r3, #1
 779 002c 0023     		movls	r3, #0
 780 002e DBB2     		uxtb	r3, r3
 781 0030 06E0     		b	.L66
 782              	.L65:
 783 0032 7A68     		ldr	r2, [r7, #4]
 784 0034 3B68     		ldr	r3, [r7]
 785 0036 9A42     		cmp	r2, r3
 786 0038 2CBF     		ite	cs
 787 003a 0123     		movcs	r3, #1
 788 003c 0023     		movcc	r3, #0
 789 003e DBB2     		uxtb	r3, r3
 790              	.L66:
 791 0040 1846     		mov	r0, r3
ARM GAS  /var/folders/d2/nstgp4h54kz7g1l847x_b8wc0000gn/T//ccDctIlK.s 			page 15


 792 0042 0C37     		adds	r7, r7, #12
 793 0044 BD46     		mov	sp, r7
 794              		@ sp needed
 795 0046 5DF8047B 		ldr	r7, [sp], #4
 796 004a 7047     		bx	lr
 797              	.L69:
 798              		.align	2
 799              	.L68:
 800 004c 00000000 		.word	ch
 801              		.size	chSchIsPreemptionRequired, .-chSchIsPreemptionRequired
 802              		.section	.text.chSchDoRescheduleBehind,"ax",%progbits
 803              		.align	1
 804              		.global	chSchDoRescheduleBehind
 805              		.syntax unified
 806              		.thumb
 807              		.thumb_func
 808              		.fpu fpv4-sp-d16
 809              		.type	chSchDoRescheduleBehind, %function
 810              	chSchDoRescheduleBehind:
 811              		@ args = 0, pretend = 0, frame = 8
 812              		@ frame_needed = 1, uses_anonymous_args = 0
 813 0000 90B5     		push	{r4, r7, lr}
 814 0002 83B0     		sub	sp, sp, #12
 815 0004 00AF     		add	r7, sp, #0
 816 0006 1B4B     		ldr	r3, .L73
 817 0008 9B69     		ldr	r3, [r3, #24]
 818 000a 7B60     		str	r3, [r7, #4]
 819 000c 1948     		ldr	r0, .L73
 820 000e FFF7FEFF 		bl	queue_fifo_remove
 821 0012 0246     		mov	r2, r0
 822 0014 174B     		ldr	r3, .L73
 823 0016 9A61     		str	r2, [r3, #24]
 824 0018 164B     		ldr	r3, .L73
 825 001a 9B69     		ldr	r3, [r3, #24]
 826 001c 0122     		movs	r2, #1
 827 001e 83F82020 		strb	r2, [r3, #32]
 828 0022 7B68     		ldr	r3, [r7, #4]
 829 0024 1422     		movs	r2, #20
 830 0026 83F82320 		strb	r2, [r3, #35]
 831 002a 7868     		ldr	r0, [r7, #4]
 832 002c FFF7FEFF 		bl	chSchReadyI
 833 0030 7868     		ldr	r0, [r7, #4]
 834 0032 FFF7FEFF 		bl	_dbg_trace
 835 0036 0F4B     		ldr	r3, .L73
 836 0038 9B69     		ldr	r3, [r3, #24]
 837 003a 7968     		ldr	r1, [r7, #4]
 838 003c 1846     		mov	r0, r3
 839 003e FFF7FEFF 		bl	_stats_ctxswc
 840              		.syntax unified
 841              	@ 428 "../e-puck2_main-processor/ChibiOS//os/ext/CMSIS/include/core_cmFunc.h" 1
 842 0042 EFF30983 		MRS r3, psp
 843              	
 844              	@ 0 "" 2
 845              		.thumb
 846              		.syntax unified
 847 0046 1C46     		mov	r4, r3
 848 0048 2346     		mov	r3, r4
ARM GAS  /var/folders/d2/nstgp4h54kz7g1l847x_b8wc0000gn/T//ccDctIlK.s 			page 16


 849 004a 3B60     		str	r3, [r7]
 850 004c 3B68     		ldr	r3, [r7]
 851 004e A3F16402 		sub	r2, r3, #100
 852 0052 7B68     		ldr	r3, [r7, #4]
 853 0054 DB69     		ldr	r3, [r3, #28]
 854 0056 9A42     		cmp	r2, r3
 855 0058 02D2     		bcs	.L72
 856 005a 0748     		ldr	r0, .L73+4
 857 005c FFF7FEFF 		bl	chSysHalt
 858              	.L72:
 859 0060 044B     		ldr	r3, .L73
 860 0062 9B69     		ldr	r3, [r3, #24]
 861 0064 7968     		ldr	r1, [r7, #4]
 862 0066 1846     		mov	r0, r3
 863 0068 FFF7FEFF 		bl	_port_switch
 864 006c 00BF     		nop
 865 006e 0C37     		adds	r7, r7, #12
 866 0070 BD46     		mov	sp, r7
 867              		@ sp needed
 868 0072 90BD     		pop	{r4, r7, pc}
 869              	.L74:
 870              		.align	2
 871              	.L73:
 872 0074 00000000 		.word	ch
 873 0078 00000000 		.word	.LC0
 874              		.size	chSchDoRescheduleBehind, .-chSchDoRescheduleBehind
 875              		.section	.text.chSchDoRescheduleAhead,"ax",%progbits
 876              		.align	1
 877              		.global	chSchDoRescheduleAhead
 878              		.syntax unified
 879              		.thumb
 880              		.thumb_func
 881              		.fpu fpv4-sp-d16
 882              		.type	chSchDoRescheduleAhead, %function
 883              	chSchDoRescheduleAhead:
 884              		@ args = 0, pretend = 0, frame = 16
 885              		@ frame_needed = 1, uses_anonymous_args = 0
 886 0000 90B5     		push	{r4, r7, lr}
 887 0002 85B0     		sub	sp, sp, #20
 888 0004 00AF     		add	r7, sp, #0
 889 0006 264B     		ldr	r3, .L79
 890 0008 9B69     		ldr	r3, [r3, #24]
 891 000a BB60     		str	r3, [r7, #8]
 892 000c 2448     		ldr	r0, .L79
 893 000e FFF7FEFF 		bl	queue_fifo_remove
 894 0012 0246     		mov	r2, r0
 895 0014 224B     		ldr	r3, .L79
 896 0016 9A61     		str	r2, [r3, #24]
 897 0018 214B     		ldr	r3, .L79
 898 001a 9B69     		ldr	r3, [r3, #24]
 899 001c 0122     		movs	r2, #1
 900 001e 83F82020 		strb	r2, [r3, #32]
 901 0022 BB68     		ldr	r3, [r7, #8]
 902 0024 0022     		movs	r2, #0
 903 0026 83F82020 		strb	r2, [r3, #32]
 904 002a 1D4B     		ldr	r3, .L79
 905 002c FB60     		str	r3, [r7, #12]
ARM GAS  /var/folders/d2/nstgp4h54kz7g1l847x_b8wc0000gn/T//ccDctIlK.s 			page 17


 906              	.L76:
 907 002e FB68     		ldr	r3, [r7, #12]
 908 0030 1B68     		ldr	r3, [r3]
 909 0032 FB60     		str	r3, [r7, #12]
 910 0034 FB68     		ldr	r3, [r7, #12]
 911 0036 9A68     		ldr	r2, [r3, #8]
 912 0038 BB68     		ldr	r3, [r7, #8]
 913 003a 9B68     		ldr	r3, [r3, #8]
 914 003c 9A42     		cmp	r2, r3
 915 003e F6D8     		bhi	.L76
 916 0040 BB68     		ldr	r3, [r7, #8]
 917 0042 FA68     		ldr	r2, [r7, #12]
 918 0044 1A60     		str	r2, [r3]
 919 0046 FB68     		ldr	r3, [r7, #12]
 920 0048 5A68     		ldr	r2, [r3, #4]
 921 004a BB68     		ldr	r3, [r7, #8]
 922 004c 5A60     		str	r2, [r3, #4]
 923 004e BB68     		ldr	r3, [r7, #8]
 924 0050 5B68     		ldr	r3, [r3, #4]
 925 0052 BA68     		ldr	r2, [r7, #8]
 926 0054 1A60     		str	r2, [r3]
 927 0056 FB68     		ldr	r3, [r7, #12]
 928 0058 BA68     		ldr	r2, [r7, #8]
 929 005a 5A60     		str	r2, [r3, #4]
 930 005c B868     		ldr	r0, [r7, #8]
 931 005e FFF7FEFF 		bl	_dbg_trace
 932 0062 0F4B     		ldr	r3, .L79
 933 0064 9B69     		ldr	r3, [r3, #24]
 934 0066 B968     		ldr	r1, [r7, #8]
 935 0068 1846     		mov	r0, r3
 936 006a FFF7FEFF 		bl	_stats_ctxswc
 937              		.syntax unified
 938              	@ 428 "../e-puck2_main-processor/ChibiOS//os/ext/CMSIS/include/core_cmFunc.h" 1
 939 006e EFF30983 		MRS r3, psp
 940              	
 941              	@ 0 "" 2
 942              		.thumb
 943              		.syntax unified
 944 0072 1C46     		mov	r4, r3
 945 0074 2346     		mov	r3, r4
 946 0076 7B60     		str	r3, [r7, #4]
 947 0078 7B68     		ldr	r3, [r7, #4]
 948 007a A3F16402 		sub	r2, r3, #100
 949 007e BB68     		ldr	r3, [r7, #8]
 950 0080 DB69     		ldr	r3, [r3, #28]
 951 0082 9A42     		cmp	r2, r3
 952 0084 02D2     		bcs	.L78
 953 0086 0748     		ldr	r0, .L79+4
 954 0088 FFF7FEFF 		bl	chSysHalt
 955              	.L78:
 956 008c 044B     		ldr	r3, .L79
 957 008e 9B69     		ldr	r3, [r3, #24]
 958 0090 B968     		ldr	r1, [r7, #8]
 959 0092 1846     		mov	r0, r3
 960 0094 FFF7FEFF 		bl	_port_switch
 961 0098 00BF     		nop
 962 009a 1437     		adds	r7, r7, #20
ARM GAS  /var/folders/d2/nstgp4h54kz7g1l847x_b8wc0000gn/T//ccDctIlK.s 			page 18


 963 009c BD46     		mov	sp, r7
 964              		@ sp needed
 965 009e 90BD     		pop	{r4, r7, pc}
 966              	.L80:
 967              		.align	2
 968              	.L79:
 969 00a0 00000000 		.word	ch
 970 00a4 00000000 		.word	.LC0
 971              		.size	chSchDoRescheduleAhead, .-chSchDoRescheduleAhead
 972              		.section	.text.chSchDoReschedule,"ax",%progbits
 973              		.align	1
 974              		.global	chSchDoReschedule
 975              		.syntax unified
 976              		.thumb
 977              		.thumb_func
 978              		.fpu fpv4-sp-d16
 979              		.type	chSchDoReschedule, %function
 980              	chSchDoReschedule:
 981              		@ args = 0, pretend = 0, frame = 0
 982              		@ frame_needed = 1, uses_anonymous_args = 0
 983 0000 80B5     		push	{r7, lr}
 984 0002 00AF     		add	r7, sp, #0
 985 0004 064B     		ldr	r3, .L85
 986 0006 9B69     		ldr	r3, [r3, #24]
 987 0008 93F82330 		ldrb	r3, [r3, #35]	@ zero_extendqisi2
 988 000c 002B     		cmp	r3, #0
 989 000e 02D1     		bne	.L82
 990 0010 FFF7FEFF 		bl	chSchDoRescheduleBehind
 991 0014 01E0     		b	.L84
 992              	.L82:
 993 0016 FFF7FEFF 		bl	chSchDoRescheduleAhead
 994              	.L84:
 995 001a 00BF     		nop
 996 001c 80BD     		pop	{r7, pc}
 997              	.L86:
 998 001e 00BF     		.align	2
 999              	.L85:
 1000 0020 00000000 		.word	ch
 1001              		.size	chSchDoReschedule, .-chSchDoReschedule
 1002              		.section	.rodata.__func__.7854,"a",%progbits
 1003              		.align	2
 1004              		.type	__func__.7854, %object
 1005              		.size	__func__.7854, 12
 1006              	__func__.7854:
 1007 0000 63685363 		.ascii	"chSchReadyI\000"
 1007      68526561 
 1007      64794900 
 1008              		.ident	"GCC: (GNU Tools for Arm Embedded Processors 7-2017-q4-major) 7.2.1 20170904 (release) [ARM
ARM GAS  /var/folders/d2/nstgp4h54kz7g1l847x_b8wc0000gn/T//ccDctIlK.s 			page 19


DEFINED SYMBOLS
                            *ABS*:0000000000000000 chschd.c
/var/folders/d2/nstgp4h54kz7g1l847x_b8wc0000gn/T//ccDctIlK.s:15     .text.port_lock:0000000000000000 $t
/var/folders/d2/nstgp4h54kz7g1l847x_b8wc0000gn/T//ccDctIlK.s:21     .text.port_lock:0000000000000000 port_lock
/var/folders/d2/nstgp4h54kz7g1l847x_b8wc0000gn/T//ccDctIlK.s:45     .text.port_unlock:0000000000000000 $t
/var/folders/d2/nstgp4h54kz7g1l847x_b8wc0000gn/T//ccDctIlK.s:51     .text.port_unlock:0000000000000000 port_unlock
/var/folders/d2/nstgp4h54kz7g1l847x_b8wc0000gn/T//ccDctIlK.s:75     .text.port_lock_from_isr:0000000000000000 $t
/var/folders/d2/nstgp4h54kz7g1l847x_b8wc0000gn/T//ccDctIlK.s:81     .text.port_lock_from_isr:0000000000000000 port_lock_from_isr
/var/folders/d2/nstgp4h54kz7g1l847x_b8wc0000gn/T//ccDctIlK.s:91     .text.port_unlock_from_isr:0000000000000000 $t
/var/folders/d2/nstgp4h54kz7g1l847x_b8wc0000gn/T//ccDctIlK.s:97     .text.port_unlock_from_isr:0000000000000000 port_unlock_from_isr
/var/folders/d2/nstgp4h54kz7g1l847x_b8wc0000gn/T//ccDctIlK.s:107    .text.queue_init:0000000000000000 $t
/var/folders/d2/nstgp4h54kz7g1l847x_b8wc0000gn/T//ccDctIlK.s:113    .text.queue_init:0000000000000000 queue_init
/var/folders/d2/nstgp4h54kz7g1l847x_b8wc0000gn/T//ccDctIlK.s:135    .text.queue_fifo_remove:0000000000000000 $t
/var/folders/d2/nstgp4h54kz7g1l847x_b8wc0000gn/T//ccDctIlK.s:141    .text.queue_fifo_remove:0000000000000000 queue_fifo_remove
/var/folders/d2/nstgp4h54kz7g1l847x_b8wc0000gn/T//ccDctIlK.s:169    .text.queue_dequeue:0000000000000000 $t
/var/folders/d2/nstgp4h54kz7g1l847x_b8wc0000gn/T//ccDctIlK.s:175    .text.queue_dequeue:0000000000000000 queue_dequeue
/var/folders/d2/nstgp4h54kz7g1l847x_b8wc0000gn/T//ccDctIlK.s:202    .text.chSchIsRescRequiredI:0000000000000000 $t
/var/folders/d2/nstgp4h54kz7g1l847x_b8wc0000gn/T//ccDctIlK.s:208    .text.chSchIsRescRequiredI:0000000000000000 chSchIsRescRequiredI
/var/folders/d2/nstgp4h54kz7g1l847x_b8wc0000gn/T//ccDctIlK.s:230    .text.chSchIsRescRequiredI:0000000000000024 $d
/var/folders/d2/nstgp4h54kz7g1l847x_b8wc0000gn/T//ccDctIlK.s:327    .bss.ch:0000000000000000 ch
/var/folders/d2/nstgp4h54kz7g1l847x_b8wc0000gn/T//ccDctIlK.s:233    .text.chSysLockFromISR:0000000000000000 $t
/var/folders/d2/nstgp4h54kz7g1l847x_b8wc0000gn/T//ccDctIlK.s:239    .text.chSysLockFromISR:0000000000000000 chSysLockFromISR
/var/folders/d2/nstgp4h54kz7g1l847x_b8wc0000gn/T//ccDctIlK.s:251    .text.chSysUnlockFromISR:0000000000000000 $t
/var/folders/d2/nstgp4h54kz7g1l847x_b8wc0000gn/T//ccDctIlK.s:257    .text.chSysUnlockFromISR:0000000000000000 chSysUnlockFromISR
/var/folders/d2/nstgp4h54kz7g1l847x_b8wc0000gn/T//ccDctIlK.s:269    .text.chVTIsArmedI:0000000000000000 $t
/var/folders/d2/nstgp4h54kz7g1l847x_b8wc0000gn/T//ccDctIlK.s:275    .text.chVTIsArmedI:0000000000000000 chVTIsArmedI
/var/folders/d2/nstgp4h54kz7g1l847x_b8wc0000gn/T//ccDctIlK.s:297    .text.chSemFastSignalI:0000000000000000 $t
/var/folders/d2/nstgp4h54kz7g1l847x_b8wc0000gn/T//ccDctIlK.s:303    .text.chSemFastSignalI:0000000000000000 chSemFastSignalI
/var/folders/d2/nstgp4h54kz7g1l847x_b8wc0000gn/T//ccDctIlK.s:324    .bss.ch:0000000000000000 $d
/var/folders/d2/nstgp4h54kz7g1l847x_b8wc0000gn/T//ccDctIlK.s:330    .text._scheduler_init:0000000000000000 $t
/var/folders/d2/nstgp4h54kz7g1l847x_b8wc0000gn/T//ccDctIlK.s:337    .text._scheduler_init:0000000000000000 _scheduler_init
/var/folders/d2/nstgp4h54kz7g1l847x_b8wc0000gn/T//ccDctIlK.s:358    .text._scheduler_init:0000000000000020 $d
/var/folders/d2/nstgp4h54kz7g1l847x_b8wc0000gn/T//ccDctIlK.s:361    .text.chSchReadyI:0000000000000000 $t
/var/folders/d2/nstgp4h54kz7g1l847x_b8wc0000gn/T//ccDctIlK.s:368    .text.chSchReadyI:0000000000000000 chSchReadyI
/var/folders/d2/nstgp4h54kz7g1l847x_b8wc0000gn/T//ccDctIlK.s:432    .text.chSchReadyI:0000000000000078 $d
/var/folders/d2/nstgp4h54kz7g1l847x_b8wc0000gn/T//ccDctIlK.s:1006   .rodata.__func__.7854:0000000000000000 __func__.7854
/var/folders/d2/nstgp4h54kz7g1l847x_b8wc0000gn/T//ccDctIlK.s:436    .rodata:0000000000000000 $d
/var/folders/d2/nstgp4h54kz7g1l847x_b8wc0000gn/T//ccDctIlK.s:440    .text.chSchGoSleepS:0000000000000000 $t
/var/folders/d2/nstgp4h54kz7g1l847x_b8wc0000gn/T//ccDctIlK.s:447    .text.chSchGoSleepS:0000000000000000 chSchGoSleepS
/var/folders/d2/nstgp4h54kz7g1l847x_b8wc0000gn/T//ccDctIlK.s:513    .text.chSchGoSleepS:0000000000000080 $d
/var/folders/d2/nstgp4h54kz7g1l847x_b8wc0000gn/T//ccDctIlK.s:517    .text.wakeup:0000000000000000 $t
/var/folders/d2/nstgp4h54kz7g1l847x_b8wc0000gn/T//ccDctIlK.s:523    .text.wakeup:0000000000000000 wakeup
/var/folders/d2/nstgp4h54kz7g1l847x_b8wc0000gn/T//ccDctIlK.s:541    .text.wakeup:0000000000000020 $d
/var/folders/d2/nstgp4h54kz7g1l847x_b8wc0000gn/T//ccDctIlK.s:549    .text.wakeup:0000000000000040 $t
/var/folders/d2/nstgp4h54kz7g1l847x_b8wc0000gn/T//ccDctIlK.s:584    .text.chSchGoSleepTimeoutS:0000000000000000 $t
/var/folders/d2/nstgp4h54kz7g1l847x_b8wc0000gn/T//ccDctIlK.s:591    .text.chSchGoSleepTimeoutS:0000000000000000 chSchGoSleepTimeoutS
/var/folders/d2/nstgp4h54kz7g1l847x_b8wc0000gn/T//ccDctIlK.s:639    .text.chSchGoSleepTimeoutS:0000000000000064 $d
/var/folders/d2/nstgp4h54kz7g1l847x_b8wc0000gn/T//ccDctIlK.s:643    .text.chSchWakeupS:0000000000000000 $t
/var/folders/d2/nstgp4h54kz7g1l847x_b8wc0000gn/T//ccDctIlK.s:650    .text.chSchWakeupS:0000000000000000 chSchWakeupS
/var/folders/d2/nstgp4h54kz7g1l847x_b8wc0000gn/T//ccDctIlK.s:720    .text.chSchWakeupS:0000000000000080 $d
/var/folders/d2/nstgp4h54kz7g1l847x_b8wc0000gn/T//ccDctIlK.s:724    .text.chSchRescheduleS:0000000000000000 $t
/var/folders/d2/nstgp4h54kz7g1l847x_b8wc0000gn/T//ccDctIlK.s:731    .text.chSchRescheduleS:0000000000000000 chSchRescheduleS
/var/folders/d2/nstgp4h54kz7g1l847x_b8wc0000gn/T//ccDctIlK.s:883    .text.chSchDoRescheduleAhead:0000000000000000 chSchDoRescheduleAhead
/var/folders/d2/nstgp4h54kz7g1l847x_b8wc0000gn/T//ccDctIlK.s:747    .text.chSchIsPreemptionRequired:0000000000000000 $t
/var/folders/d2/nstgp4h54kz7g1l847x_b8wc0000gn/T//ccDctIlK.s:754    .text.chSchIsPreemptionRequired:0000000000000000 chSchIsPreemptionRequired
/var/folders/d2/nstgp4h54kz7g1l847x_b8wc0000gn/T//ccDctIlK.s:800    .text.chSchIsPreemptionRequired:000000000000004c $d
/var/folders/d2/nstgp4h54kz7g1l847x_b8wc0000gn/T//ccDctIlK.s:803    .text.chSchDoRescheduleBehind:0000000000000000 $t
ARM GAS  /var/folders/d2/nstgp4h54kz7g1l847x_b8wc0000gn/T//ccDctIlK.s 			page 20


/var/folders/d2/nstgp4h54kz7g1l847x_b8wc0000gn/T//ccDctIlK.s:810    .text.chSchDoRescheduleBehind:0000000000000000 chSchDoRescheduleBehind
/var/folders/d2/nstgp4h54kz7g1l847x_b8wc0000gn/T//ccDctIlK.s:872    .text.chSchDoRescheduleBehind:0000000000000074 $d
/var/folders/d2/nstgp4h54kz7g1l847x_b8wc0000gn/T//ccDctIlK.s:876    .text.chSchDoRescheduleAhead:0000000000000000 $t
/var/folders/d2/nstgp4h54kz7g1l847x_b8wc0000gn/T//ccDctIlK.s:969    .text.chSchDoRescheduleAhead:00000000000000a0 $d
/var/folders/d2/nstgp4h54kz7g1l847x_b8wc0000gn/T//ccDctIlK.s:973    .text.chSchDoReschedule:0000000000000000 $t
/var/folders/d2/nstgp4h54kz7g1l847x_b8wc0000gn/T//ccDctIlK.s:980    .text.chSchDoReschedule:0000000000000000 chSchDoReschedule
/var/folders/d2/nstgp4h54kz7g1l847x_b8wc0000gn/T//ccDctIlK.s:1000   .text.chSchDoReschedule:0000000000000020 $d
/var/folders/d2/nstgp4h54kz7g1l847x_b8wc0000gn/T//ccDctIlK.s:1003   .rodata.__func__.7854:0000000000000000 $d

UNDEFINED SYMBOLS
chDbgCheckClassI
_stats_start_measure_crit_isr
_dbg_check_lock_from_isr
_dbg_check_unlock_from_isr
_stats_stop_measure_crit_isr
chSysHalt
chDbgCheckClassS
_dbg_trace
_stats_ctxswc
_port_switch
chVTDoSetI
chVTDoResetI
