ARM GAS  /var/folders/d2/nstgp4h54kz7g1l847x_b8wc0000gn/T//ccVhzKqv.s 			page 1


   1              		.cpu cortex-m4
   2              		.eabi_attribute 27, 1
   3              		.eabi_attribute 28, 1
   4              		.eabi_attribute 20, 1
   5              		.eabi_attribute 21, 1
   6              		.eabi_attribute 23, 3
   7              		.eabi_attribute 24, 1
   8              		.eabi_attribute 25, 1
   9              		.eabi_attribute 26, 1
  10              		.eabi_attribute 30, 6
  11              		.eabi_attribute 34, 1
  12              		.eabi_attribute 18, 4
  13              		.file	"chsem.c"
  14              		.section	.text.port_lock,"ax",%progbits
  15              		.align	1
  16              		.syntax unified
  17              		.thumb
  18              		.thumb_func
  19              		.fpu fpv4-sp-d16
  20              		.type	port_lock, %function
  21              	port_lock:
  22              		@ args = 0, pretend = 0, frame = 8
  23              		@ frame_needed = 1, uses_anonymous_args = 0
  24              		@ link register save eliminated.
  25 0000 80B4     		push	{r7}
  26 0002 83B0     		sub	sp, sp, #12
  27 0004 00AF     		add	r7, sp, #0
  28 0006 2023     		movs	r3, #32
  29 0008 7B60     		str	r3, [r7, #4]
  30 000a 7B68     		ldr	r3, [r7, #4]
  31              		.syntax unified
  32              	@ 546 "../e-puck2_main-processor/ChibiOS//os/ext/CMSIS/include/core_cmFunc.h" 1
  33 000c 83F31188 		MSR basepri, r3
  34              	@ 0 "" 2
  35              		.thumb
  36              		.syntax unified
  37 0010 00BF     		nop
  38 0012 0C37     		adds	r7, r7, #12
  39 0014 BD46     		mov	sp, r7
  40              		@ sp needed
  41 0016 5DF8047B 		ldr	r7, [sp], #4
  42 001a 7047     		bx	lr
  43              		.size	port_lock, .-port_lock
  44              		.section	.text.port_unlock,"ax",%progbits
  45              		.align	1
  46              		.syntax unified
  47              		.thumb
  48              		.thumb_func
  49              		.fpu fpv4-sp-d16
  50              		.type	port_unlock, %function
  51              	port_unlock:
  52              		@ args = 0, pretend = 0, frame = 8
  53              		@ frame_needed = 1, uses_anonymous_args = 0
  54              		@ link register save eliminated.
  55 0000 80B4     		push	{r7}
  56 0002 83B0     		sub	sp, sp, #12
  57 0004 00AF     		add	r7, sp, #0
ARM GAS  /var/folders/d2/nstgp4h54kz7g1l847x_b8wc0000gn/T//ccVhzKqv.s 			page 2


  58 0006 0023     		movs	r3, #0
  59 0008 7B60     		str	r3, [r7, #4]
  60 000a 7B68     		ldr	r3, [r7, #4]
  61              		.syntax unified
  62              	@ 546 "../e-puck2_main-processor/ChibiOS//os/ext/CMSIS/include/core_cmFunc.h" 1
  63 000c 83F31188 		MSR basepri, r3
  64              	@ 0 "" 2
  65              		.thumb
  66              		.syntax unified
  67 0010 00BF     		nop
  68 0012 0C37     		adds	r7, r7, #12
  69 0014 BD46     		mov	sp, r7
  70              		@ sp needed
  71 0016 5DF8047B 		ldr	r7, [sp], #4
  72 001a 7047     		bx	lr
  73              		.size	port_unlock, .-port_unlock
  74              		.section	.text.queue_init,"ax",%progbits
  75              		.align	1
  76              		.syntax unified
  77              		.thumb
  78              		.thumb_func
  79              		.fpu fpv4-sp-d16
  80              		.type	queue_init, %function
  81              	queue_init:
  82              		@ args = 0, pretend = 0, frame = 8
  83              		@ frame_needed = 1, uses_anonymous_args = 0
  84              		@ link register save eliminated.
  85 0000 80B4     		push	{r7}
  86 0002 83B0     		sub	sp, sp, #12
  87 0004 00AF     		add	r7, sp, #0
  88 0006 7860     		str	r0, [r7, #4]
  89 0008 7B68     		ldr	r3, [r7, #4]
  90 000a 7A68     		ldr	r2, [r7, #4]
  91 000c 1A60     		str	r2, [r3]
  92 000e 7B68     		ldr	r3, [r7, #4]
  93 0010 7A68     		ldr	r2, [r7, #4]
  94 0012 5A60     		str	r2, [r3, #4]
  95 0014 00BF     		nop
  96 0016 0C37     		adds	r7, r7, #12
  97 0018 BD46     		mov	sp, r7
  98              		@ sp needed
  99 001a 5DF8047B 		ldr	r7, [sp], #4
 100 001e 7047     		bx	lr
 101              		.size	queue_init, .-queue_init
 102              		.section	.text.queue_isempty,"ax",%progbits
 103              		.align	1
 104              		.syntax unified
 105              		.thumb
 106              		.thumb_func
 107              		.fpu fpv4-sp-d16
 108              		.type	queue_isempty, %function
 109              	queue_isempty:
 110              		@ args = 0, pretend = 0, frame = 8
 111              		@ frame_needed = 1, uses_anonymous_args = 0
 112              		@ link register save eliminated.
 113 0000 80B4     		push	{r7}
 114 0002 83B0     		sub	sp, sp, #12
ARM GAS  /var/folders/d2/nstgp4h54kz7g1l847x_b8wc0000gn/T//ccVhzKqv.s 			page 3


 115 0004 00AF     		add	r7, sp, #0
 116 0006 7860     		str	r0, [r7, #4]
 117 0008 7B68     		ldr	r3, [r7, #4]
 118 000a 1B68     		ldr	r3, [r3]
 119 000c 7A68     		ldr	r2, [r7, #4]
 120 000e 9A42     		cmp	r2, r3
 121 0010 0CBF     		ite	eq
 122 0012 0123     		moveq	r3, #1
 123 0014 0023     		movne	r3, #0
 124 0016 DBB2     		uxtb	r3, r3
 125 0018 1846     		mov	r0, r3
 126 001a 0C37     		adds	r7, r7, #12
 127 001c BD46     		mov	sp, r7
 128              		@ sp needed
 129 001e 5DF8047B 		ldr	r7, [sp], #4
 130 0022 7047     		bx	lr
 131              		.size	queue_isempty, .-queue_isempty
 132              		.section	.text.queue_notempty,"ax",%progbits
 133              		.align	1
 134              		.syntax unified
 135              		.thumb
 136              		.thumb_func
 137              		.fpu fpv4-sp-d16
 138              		.type	queue_notempty, %function
 139              	queue_notempty:
 140              		@ args = 0, pretend = 0, frame = 8
 141              		@ frame_needed = 1, uses_anonymous_args = 0
 142              		@ link register save eliminated.
 143 0000 80B4     		push	{r7}
 144 0002 83B0     		sub	sp, sp, #12
 145 0004 00AF     		add	r7, sp, #0
 146 0006 7860     		str	r0, [r7, #4]
 147 0008 7B68     		ldr	r3, [r7, #4]
 148 000a 1B68     		ldr	r3, [r3]
 149 000c 7A68     		ldr	r2, [r7, #4]
 150 000e 9A42     		cmp	r2, r3
 151 0010 14BF     		ite	ne
 152 0012 0123     		movne	r3, #1
 153 0014 0023     		moveq	r3, #0
 154 0016 DBB2     		uxtb	r3, r3
 155 0018 1846     		mov	r0, r3
 156 001a 0C37     		adds	r7, r7, #12
 157 001c BD46     		mov	sp, r7
 158              		@ sp needed
 159 001e 5DF8047B 		ldr	r7, [sp], #4
 160 0022 7047     		bx	lr
 161              		.size	queue_notempty, .-queue_notempty
 162              		.section	.text.queue_insert,"ax",%progbits
 163              		.align	1
 164              		.syntax unified
 165              		.thumb
 166              		.thumb_func
 167              		.fpu fpv4-sp-d16
 168              		.type	queue_insert, %function
 169              	queue_insert:
 170              		@ args = 0, pretend = 0, frame = 8
 171              		@ frame_needed = 1, uses_anonymous_args = 0
ARM GAS  /var/folders/d2/nstgp4h54kz7g1l847x_b8wc0000gn/T//ccVhzKqv.s 			page 4


 172              		@ link register save eliminated.
 173 0000 80B4     		push	{r7}
 174 0002 83B0     		sub	sp, sp, #12
 175 0004 00AF     		add	r7, sp, #0
 176 0006 7860     		str	r0, [r7, #4]
 177 0008 3960     		str	r1, [r7]
 178 000a 7B68     		ldr	r3, [r7, #4]
 179 000c 3A68     		ldr	r2, [r7]
 180 000e 1A60     		str	r2, [r3]
 181 0010 3B68     		ldr	r3, [r7]
 182 0012 5A68     		ldr	r2, [r3, #4]
 183 0014 7B68     		ldr	r3, [r7, #4]
 184 0016 5A60     		str	r2, [r3, #4]
 185 0018 7B68     		ldr	r3, [r7, #4]
 186 001a 5B68     		ldr	r3, [r3, #4]
 187 001c 7A68     		ldr	r2, [r7, #4]
 188 001e 1A60     		str	r2, [r3]
 189 0020 3B68     		ldr	r3, [r7]
 190 0022 7A68     		ldr	r2, [r7, #4]
 191 0024 5A60     		str	r2, [r3, #4]
 192 0026 00BF     		nop
 193 0028 0C37     		adds	r7, r7, #12
 194 002a BD46     		mov	sp, r7
 195              		@ sp needed
 196 002c 5DF8047B 		ldr	r7, [sp], #4
 197 0030 7047     		bx	lr
 198              		.size	queue_insert, .-queue_insert
 199              		.section	.text.queue_fifo_remove,"ax",%progbits
 200              		.align	1
 201              		.syntax unified
 202              		.thumb
 203              		.thumb_func
 204              		.fpu fpv4-sp-d16
 205              		.type	queue_fifo_remove, %function
 206              	queue_fifo_remove:
 207              		@ args = 0, pretend = 0, frame = 16
 208              		@ frame_needed = 1, uses_anonymous_args = 0
 209              		@ link register save eliminated.
 210 0000 80B4     		push	{r7}
 211 0002 85B0     		sub	sp, sp, #20
 212 0004 00AF     		add	r7, sp, #0
 213 0006 7860     		str	r0, [r7, #4]
 214 0008 7B68     		ldr	r3, [r7, #4]
 215 000a 1B68     		ldr	r3, [r3]
 216 000c FB60     		str	r3, [r7, #12]
 217 000e FB68     		ldr	r3, [r7, #12]
 218 0010 1A68     		ldr	r2, [r3]
 219 0012 7B68     		ldr	r3, [r7, #4]
 220 0014 1A60     		str	r2, [r3]
 221 0016 7B68     		ldr	r3, [r7, #4]
 222 0018 1B68     		ldr	r3, [r3]
 223 001a 7A68     		ldr	r2, [r7, #4]
 224 001c 5A60     		str	r2, [r3, #4]
 225 001e FB68     		ldr	r3, [r7, #12]
 226 0020 1846     		mov	r0, r3
 227 0022 1437     		adds	r7, r7, #20
 228 0024 BD46     		mov	sp, r7
ARM GAS  /var/folders/d2/nstgp4h54kz7g1l847x_b8wc0000gn/T//ccVhzKqv.s 			page 5


 229              		@ sp needed
 230 0026 5DF8047B 		ldr	r7, [sp], #4
 231 002a 7047     		bx	lr
 232              		.size	queue_fifo_remove, .-queue_fifo_remove
 233              		.section	.text.queue_lifo_remove,"ax",%progbits
 234              		.align	1
 235              		.syntax unified
 236              		.thumb
 237              		.thumb_func
 238              		.fpu fpv4-sp-d16
 239              		.type	queue_lifo_remove, %function
 240              	queue_lifo_remove:
 241              		@ args = 0, pretend = 0, frame = 16
 242              		@ frame_needed = 1, uses_anonymous_args = 0
 243              		@ link register save eliminated.
 244 0000 80B4     		push	{r7}
 245 0002 85B0     		sub	sp, sp, #20
 246 0004 00AF     		add	r7, sp, #0
 247 0006 7860     		str	r0, [r7, #4]
 248 0008 7B68     		ldr	r3, [r7, #4]
 249 000a 5B68     		ldr	r3, [r3, #4]
 250 000c FB60     		str	r3, [r7, #12]
 251 000e FB68     		ldr	r3, [r7, #12]
 252 0010 5A68     		ldr	r2, [r3, #4]
 253 0012 7B68     		ldr	r3, [r7, #4]
 254 0014 5A60     		str	r2, [r3, #4]
 255 0016 7B68     		ldr	r3, [r7, #4]
 256 0018 5B68     		ldr	r3, [r3, #4]
 257 001a 7A68     		ldr	r2, [r7, #4]
 258 001c 1A60     		str	r2, [r3]
 259 001e FB68     		ldr	r3, [r7, #12]
 260 0020 1846     		mov	r0, r3
 261 0022 1437     		adds	r7, r7, #20
 262 0024 BD46     		mov	sp, r7
 263              		@ sp needed
 264 0026 5DF8047B 		ldr	r7, [sp], #4
 265 002a 7047     		bx	lr
 266              		.size	queue_lifo_remove, .-queue_lifo_remove
 267              		.section	.text.chSysLock,"ax",%progbits
 268              		.align	1
 269              		.syntax unified
 270              		.thumb
 271              		.thumb_func
 272              		.fpu fpv4-sp-d16
 273              		.type	chSysLock, %function
 274              	chSysLock:
 275              		@ args = 0, pretend = 0, frame = 0
 276              		@ frame_needed = 1, uses_anonymous_args = 0
 277 0000 80B5     		push	{r7, lr}
 278 0002 00AF     		add	r7, sp, #0
 279 0004 FFF7FEFF 		bl	port_lock
 280 0008 FFF7FEFF 		bl	_stats_start_measure_crit_thd
 281 000c FFF7FEFF 		bl	_dbg_check_lock
 282 0010 00BF     		nop
 283 0012 80BD     		pop	{r7, pc}
 284              		.size	chSysLock, .-chSysLock
 285              		.section	.text.chSysUnlock,"ax",%progbits
ARM GAS  /var/folders/d2/nstgp4h54kz7g1l847x_b8wc0000gn/T//ccVhzKqv.s 			page 6


 286              		.align	1
 287              		.syntax unified
 288              		.thumb
 289              		.thumb_func
 290              		.fpu fpv4-sp-d16
 291              		.type	chSysUnlock, %function
 292              	chSysUnlock:
 293              		@ args = 0, pretend = 0, frame = 0
 294              		@ frame_needed = 1, uses_anonymous_args = 0
 295 0000 80B5     		push	{r7, lr}
 296 0002 00AF     		add	r7, sp, #0
 297 0004 FFF7FEFF 		bl	_dbg_check_unlock
 298 0008 FFF7FEFF 		bl	_stats_stop_measure_crit_thd
 299 000c 094B     		ldr	r3, .L16
 300 000e 1B68     		ldr	r3, [r3]
 301 0010 084A     		ldr	r2, .L16
 302 0012 9342     		cmp	r3, r2
 303 0014 0AD0     		beq	.L15
 304 0016 074B     		ldr	r3, .L16
 305 0018 9B69     		ldr	r3, [r3, #24]
 306 001a 9A68     		ldr	r2, [r3, #8]
 307 001c 054B     		ldr	r3, .L16
 308 001e 1B68     		ldr	r3, [r3]
 309 0020 9B68     		ldr	r3, [r3, #8]
 310 0022 9A42     		cmp	r2, r3
 311 0024 02D2     		bcs	.L15
 312 0026 0448     		ldr	r0, .L16+4
 313 0028 FFF7FEFF 		bl	chSysHalt
 314              	.L15:
 315 002c FFF7FEFF 		bl	port_unlock
 316 0030 00BF     		nop
 317 0032 80BD     		pop	{r7, pc}
 318              	.L17:
 319              		.align	2
 320              	.L16:
 321 0034 00000000 		.word	ch
 322 0038 00000000 		.word	__func__.7153
 323              		.size	chSysUnlock, .-chSysUnlock
 324              		.section	.text.chSemObjectInit,"ax",%progbits
 325              		.align	1
 326              		.global	chSemObjectInit
 327              		.syntax unified
 328              		.thumb
 329              		.thumb_func
 330              		.fpu fpv4-sp-d16
 331              		.type	chSemObjectInit, %function
 332              	chSemObjectInit:
 333              		@ args = 0, pretend = 0, frame = 8
 334              		@ frame_needed = 1, uses_anonymous_args = 0
 335 0000 80B5     		push	{r7, lr}
 336 0002 82B0     		sub	sp, sp, #8
 337 0004 00AF     		add	r7, sp, #0
 338 0006 7860     		str	r0, [r7, #4]
 339 0008 3960     		str	r1, [r7]
 340 000a 7B68     		ldr	r3, [r7, #4]
 341 000c 002B     		cmp	r3, #0
 342 000e 02D0     		beq	.L19
ARM GAS  /var/folders/d2/nstgp4h54kz7g1l847x_b8wc0000gn/T//ccVhzKqv.s 			page 7


 343 0010 3B68     		ldr	r3, [r7]
 344 0012 002B     		cmp	r3, #0
 345 0014 02DA     		bge	.L20
 346              	.L19:
 347 0016 0748     		ldr	r0, .L21
 348 0018 FFF7FEFF 		bl	chSysHalt
 349              	.L20:
 350 001c 7B68     		ldr	r3, [r7, #4]
 351 001e 1846     		mov	r0, r3
 352 0020 FFF7FEFF 		bl	queue_init
 353 0024 7B68     		ldr	r3, [r7, #4]
 354 0026 3A68     		ldr	r2, [r7]
 355 0028 9A60     		str	r2, [r3, #8]
 356 002a 00BF     		nop
 357 002c 0837     		adds	r7, r7, #8
 358 002e BD46     		mov	sp, r7
 359              		@ sp needed
 360 0030 80BD     		pop	{r7, pc}
 361              	.L22:
 362 0032 00BF     		.align	2
 363              	.L21:
 364 0034 00000000 		.word	__func__.7850
 365              		.size	chSemObjectInit, .-chSemObjectInit
 366              		.section	.text.chSemReset,"ax",%progbits
 367              		.align	1
 368              		.global	chSemReset
 369              		.syntax unified
 370              		.thumb
 371              		.thumb_func
 372              		.fpu fpv4-sp-d16
 373              		.type	chSemReset, %function
 374              	chSemReset:
 375              		@ args = 0, pretend = 0, frame = 8
 376              		@ frame_needed = 1, uses_anonymous_args = 0
 377 0000 80B5     		push	{r7, lr}
 378 0002 82B0     		sub	sp, sp, #8
 379 0004 00AF     		add	r7, sp, #0
 380 0006 7860     		str	r0, [r7, #4]
 381 0008 3960     		str	r1, [r7]
 382 000a FFF7FEFF 		bl	chSysLock
 383 000e 3968     		ldr	r1, [r7]
 384 0010 7868     		ldr	r0, [r7, #4]
 385 0012 FFF7FEFF 		bl	chSemResetI
 386 0016 FFF7FEFF 		bl	chSchRescheduleS
 387 001a FFF7FEFF 		bl	chSysUnlock
 388 001e 00BF     		nop
 389 0020 0837     		adds	r7, r7, #8
 390 0022 BD46     		mov	sp, r7
 391              		@ sp needed
 392 0024 80BD     		pop	{r7, pc}
 393              		.size	chSemReset, .-chSemReset
 394              		.section	.text.chSemResetI,"ax",%progbits
 395              		.align	1
 396              		.global	chSemResetI
 397              		.syntax unified
 398              		.thumb
 399              		.thumb_func
ARM GAS  /var/folders/d2/nstgp4h54kz7g1l847x_b8wc0000gn/T//ccVhzKqv.s 			page 8


 400              		.fpu fpv4-sp-d16
 401              		.type	chSemResetI, %function
 402              	chSemResetI:
 403              		@ args = 0, pretend = 0, frame = 16
 404              		@ frame_needed = 1, uses_anonymous_args = 0
 405 0000 80B5     		push	{r7, lr}
 406 0002 84B0     		sub	sp, sp, #16
 407 0004 00AF     		add	r7, sp, #0
 408 0006 7860     		str	r0, [r7, #4]
 409 0008 3960     		str	r1, [r7]
 410 000a FFF7FEFF 		bl	chDbgCheckClassI
 411 000e 7B68     		ldr	r3, [r7, #4]
 412 0010 002B     		cmp	r3, #0
 413 0012 02D0     		beq	.L25
 414 0014 3B68     		ldr	r3, [r7]
 415 0016 002B     		cmp	r3, #0
 416 0018 02DA     		bge	.L32
 417              	.L25:
 418 001a 1F48     		ldr	r0, .L33
 419 001c FFF7FEFF 		bl	chSysHalt
 420              	.L32:
 421 0020 7B68     		ldr	r3, [r7, #4]
 422 0022 9B68     		ldr	r3, [r3, #8]
 423 0024 002B     		cmp	r3, #0
 424 0026 09DB     		blt	.L27
 425 0028 7B68     		ldr	r3, [r7, #4]
 426 002a 1846     		mov	r0, r3
 427 002c FFF7FEFF 		bl	queue_isempty
 428 0030 0346     		mov	r3, r0
 429 0032 83F00103 		eor	r3, r3, #1
 430 0036 DBB2     		uxtb	r3, r3
 431 0038 002B     		cmp	r3, #0
 432 003a 10D0     		beq	.L28
 433              	.L27:
 434 003c 7B68     		ldr	r3, [r7, #4]
 435 003e 9B68     		ldr	r3, [r3, #8]
 436 0040 002B     		cmp	r3, #0
 437 0042 09DA     		bge	.L29
 438 0044 7B68     		ldr	r3, [r7, #4]
 439 0046 1846     		mov	r0, r3
 440 0048 FFF7FEFF 		bl	queue_notempty
 441 004c 0346     		mov	r3, r0
 442 004e 83F00103 		eor	r3, r3, #1
 443 0052 DBB2     		uxtb	r3, r3
 444 0054 002B     		cmp	r3, #0
 445 0056 02D0     		beq	.L28
 446              	.L29:
 447 0058 0F48     		ldr	r0, .L33
 448 005a FFF7FEFF 		bl	chSysHalt
 449              	.L28:
 450 005e 7B68     		ldr	r3, [r7, #4]
 451 0060 9B68     		ldr	r3, [r3, #8]
 452 0062 FB60     		str	r3, [r7, #12]
 453 0064 7B68     		ldr	r3, [r7, #4]
 454 0066 3A68     		ldr	r2, [r7]
 455 0068 9A60     		str	r2, [r3, #8]
 456 006a 0BE0     		b	.L30
ARM GAS  /var/folders/d2/nstgp4h54kz7g1l847x_b8wc0000gn/T//ccVhzKqv.s 			page 9


 457              	.L31:
 458 006c 7B68     		ldr	r3, [r7, #4]
 459 006e 1846     		mov	r0, r3
 460 0070 FFF7FEFF 		bl	queue_lifo_remove
 461 0074 0346     		mov	r3, r0
 462 0076 1846     		mov	r0, r3
 463 0078 FFF7FEFF 		bl	chSchReadyI
 464 007c 0246     		mov	r2, r0
 465 007e 6FF00103 		mvn	r3, #1
 466 0082 9362     		str	r3, [r2, #40]
 467              	.L30:
 468 0084 FB68     		ldr	r3, [r7, #12]
 469 0086 0133     		adds	r3, r3, #1
 470 0088 FB60     		str	r3, [r7, #12]
 471 008a FB68     		ldr	r3, [r7, #12]
 472 008c 002B     		cmp	r3, #0
 473 008e EDDD     		ble	.L31
 474 0090 00BF     		nop
 475 0092 1037     		adds	r7, r7, #16
 476 0094 BD46     		mov	sp, r7
 477              		@ sp needed
 478 0096 80BD     		pop	{r7, pc}
 479              	.L34:
 480              		.align	2
 481              	.L33:
 482 0098 00000000 		.word	__func__.7860
 483              		.size	chSemResetI, .-chSemResetI
 484              		.section	.text.chSemWait,"ax",%progbits
 485              		.align	1
 486              		.global	chSemWait
 487              		.syntax unified
 488              		.thumb
 489              		.thumb_func
 490              		.fpu fpv4-sp-d16
 491              		.type	chSemWait, %function
 492              	chSemWait:
 493              		@ args = 0, pretend = 0, frame = 16
 494              		@ frame_needed = 1, uses_anonymous_args = 0
 495 0000 80B5     		push	{r7, lr}
 496 0002 84B0     		sub	sp, sp, #16
 497 0004 00AF     		add	r7, sp, #0
 498 0006 7860     		str	r0, [r7, #4]
 499 0008 FFF7FEFF 		bl	chSysLock
 500 000c 7868     		ldr	r0, [r7, #4]
 501 000e FFF7FEFF 		bl	chSemWaitS
 502 0012 F860     		str	r0, [r7, #12]
 503 0014 FFF7FEFF 		bl	chSysUnlock
 504 0018 FB68     		ldr	r3, [r7, #12]
 505 001a 1846     		mov	r0, r3
 506 001c 1037     		adds	r7, r7, #16
 507 001e BD46     		mov	sp, r7
 508              		@ sp needed
 509 0020 80BD     		pop	{r7, pc}
 510              		.size	chSemWait, .-chSemWait
 511              		.section	.text.chSemWaitS,"ax",%progbits
 512              		.align	1
 513              		.global	chSemWaitS
ARM GAS  /var/folders/d2/nstgp4h54kz7g1l847x_b8wc0000gn/T//ccVhzKqv.s 			page 10


 514              		.syntax unified
 515              		.thumb
 516              		.thumb_func
 517              		.fpu fpv4-sp-d16
 518              		.type	chSemWaitS, %function
 519              	chSemWaitS:
 520              		@ args = 0, pretend = 0, frame = 8
 521              		@ frame_needed = 1, uses_anonymous_args = 0
 522 0000 80B5     		push	{r7, lr}
 523 0002 82B0     		sub	sp, sp, #8
 524 0004 00AF     		add	r7, sp, #0
 525 0006 7860     		str	r0, [r7, #4]
 526 0008 FFF7FEFF 		bl	chDbgCheckClassS
 527 000c 7B68     		ldr	r3, [r7, #4]
 528 000e 002B     		cmp	r3, #0
 529 0010 02D1     		bne	.L44
 530 0012 2148     		ldr	r0, .L45
 531 0014 FFF7FEFF 		bl	chSysHalt
 532              	.L44:
 533 0018 7B68     		ldr	r3, [r7, #4]
 534 001a 9B68     		ldr	r3, [r3, #8]
 535 001c 002B     		cmp	r3, #0
 536 001e 09DB     		blt	.L39
 537 0020 7B68     		ldr	r3, [r7, #4]
 538 0022 1846     		mov	r0, r3
 539 0024 FFF7FEFF 		bl	queue_isempty
 540 0028 0346     		mov	r3, r0
 541 002a 83F00103 		eor	r3, r3, #1
 542 002e DBB2     		uxtb	r3, r3
 543 0030 002B     		cmp	r3, #0
 544 0032 10D0     		beq	.L40
 545              	.L39:
 546 0034 7B68     		ldr	r3, [r7, #4]
 547 0036 9B68     		ldr	r3, [r3, #8]
 548 0038 002B     		cmp	r3, #0
 549 003a 09DA     		bge	.L41
 550 003c 7B68     		ldr	r3, [r7, #4]
 551 003e 1846     		mov	r0, r3
 552 0040 FFF7FEFF 		bl	queue_notempty
 553 0044 0346     		mov	r3, r0
 554 0046 83F00103 		eor	r3, r3, #1
 555 004a DBB2     		uxtb	r3, r3
 556 004c 002B     		cmp	r3, #0
 557 004e 02D0     		beq	.L40
 558              	.L41:
 559 0050 1148     		ldr	r0, .L45
 560 0052 FFF7FEFF 		bl	chSysHalt
 561              	.L40:
 562 0056 7B68     		ldr	r3, [r7, #4]
 563 0058 9B68     		ldr	r3, [r3, #8]
 564 005a 5A1E     		subs	r2, r3, #1
 565 005c 7B68     		ldr	r3, [r7, #4]
 566 005e 9A60     		str	r2, [r3, #8]
 567 0060 7B68     		ldr	r3, [r7, #4]
 568 0062 9B68     		ldr	r3, [r3, #8]
 569 0064 002B     		cmp	r3, #0
 570 0066 11DA     		bge	.L42
ARM GAS  /var/folders/d2/nstgp4h54kz7g1l847x_b8wc0000gn/T//ccVhzKqv.s 			page 11


 571 0068 0C4B     		ldr	r3, .L45+4
 572 006a 9B69     		ldr	r3, [r3, #24]
 573 006c 7A68     		ldr	r2, [r7, #4]
 574 006e 9A62     		str	r2, [r3, #40]
 575 0070 0A4B     		ldr	r3, .L45+4
 576 0072 9B69     		ldr	r3, [r3, #24]
 577 0074 7A68     		ldr	r2, [r7, #4]
 578 0076 1146     		mov	r1, r2
 579 0078 1846     		mov	r0, r3
 580 007a FFF7FEFF 		bl	queue_insert
 581 007e 0520     		movs	r0, #5
 582 0080 FFF7FEFF 		bl	chSchGoSleepS
 583 0084 054B     		ldr	r3, .L45+4
 584 0086 9B69     		ldr	r3, [r3, #24]
 585 0088 9B6A     		ldr	r3, [r3, #40]
 586 008a 00E0     		b	.L43
 587              	.L42:
 588 008c 0023     		movs	r3, #0
 589              	.L43:
 590 008e 1846     		mov	r0, r3
 591 0090 0837     		adds	r7, r7, #8
 592 0092 BD46     		mov	sp, r7
 593              		@ sp needed
 594 0094 80BD     		pop	{r7, pc}
 595              	.L46:
 596 0096 00BF     		.align	2
 597              	.L45:
 598 0098 00000000 		.word	__func__.7871
 599 009c 00000000 		.word	ch
 600              		.size	chSemWaitS, .-chSemWaitS
 601              		.section	.text.chSemWaitTimeout,"ax",%progbits
 602              		.align	1
 603              		.global	chSemWaitTimeout
 604              		.syntax unified
 605              		.thumb
 606              		.thumb_func
 607              		.fpu fpv4-sp-d16
 608              		.type	chSemWaitTimeout, %function
 609              	chSemWaitTimeout:
 610              		@ args = 0, pretend = 0, frame = 16
 611              		@ frame_needed = 1, uses_anonymous_args = 0
 612 0000 80B5     		push	{r7, lr}
 613 0002 84B0     		sub	sp, sp, #16
 614 0004 00AF     		add	r7, sp, #0
 615 0006 7860     		str	r0, [r7, #4]
 616 0008 3960     		str	r1, [r7]
 617 000a FFF7FEFF 		bl	chSysLock
 618 000e 3968     		ldr	r1, [r7]
 619 0010 7868     		ldr	r0, [r7, #4]
 620 0012 FFF7FEFF 		bl	chSemWaitTimeoutS
 621 0016 F860     		str	r0, [r7, #12]
 622 0018 FFF7FEFF 		bl	chSysUnlock
 623 001c FB68     		ldr	r3, [r7, #12]
 624 001e 1846     		mov	r0, r3
 625 0020 1037     		adds	r7, r7, #16
 626 0022 BD46     		mov	sp, r7
 627              		@ sp needed
ARM GAS  /var/folders/d2/nstgp4h54kz7g1l847x_b8wc0000gn/T//ccVhzKqv.s 			page 12


 628 0024 80BD     		pop	{r7, pc}
 629              		.size	chSemWaitTimeout, .-chSemWaitTimeout
 630              		.section	.text.chSemWaitTimeoutS,"ax",%progbits
 631              		.align	1
 632              		.global	chSemWaitTimeoutS
 633              		.syntax unified
 634              		.thumb
 635              		.thumb_func
 636              		.fpu fpv4-sp-d16
 637              		.type	chSemWaitTimeoutS, %function
 638              	chSemWaitTimeoutS:
 639              		@ args = 0, pretend = 0, frame = 8
 640              		@ frame_needed = 1, uses_anonymous_args = 0
 641 0000 80B5     		push	{r7, lr}
 642 0002 82B0     		sub	sp, sp, #8
 643 0004 00AF     		add	r7, sp, #0
 644 0006 7860     		str	r0, [r7, #4]
 645 0008 3960     		str	r1, [r7]
 646 000a FFF7FEFF 		bl	chDbgCheckClassS
 647 000e 7B68     		ldr	r3, [r7, #4]
 648 0010 002B     		cmp	r3, #0
 649 0012 02D1     		bne	.L57
 650 0014 2548     		ldr	r0, .L58
 651 0016 FFF7FEFF 		bl	chSysHalt
 652              	.L57:
 653 001a 7B68     		ldr	r3, [r7, #4]
 654 001c 9B68     		ldr	r3, [r3, #8]
 655 001e 002B     		cmp	r3, #0
 656 0020 09DB     		blt	.L51
 657 0022 7B68     		ldr	r3, [r7, #4]
 658 0024 1846     		mov	r0, r3
 659 0026 FFF7FEFF 		bl	queue_isempty
 660 002a 0346     		mov	r3, r0
 661 002c 83F00103 		eor	r3, r3, #1
 662 0030 DBB2     		uxtb	r3, r3
 663 0032 002B     		cmp	r3, #0
 664 0034 10D0     		beq	.L52
 665              	.L51:
 666 0036 7B68     		ldr	r3, [r7, #4]
 667 0038 9B68     		ldr	r3, [r3, #8]
 668 003a 002B     		cmp	r3, #0
 669 003c 09DA     		bge	.L53
 670 003e 7B68     		ldr	r3, [r7, #4]
 671 0040 1846     		mov	r0, r3
 672 0042 FFF7FEFF 		bl	queue_notempty
 673 0046 0346     		mov	r3, r0
 674 0048 83F00103 		eor	r3, r3, #1
 675 004c DBB2     		uxtb	r3, r3
 676 004e 002B     		cmp	r3, #0
 677 0050 02D0     		beq	.L52
 678              	.L53:
 679 0052 1648     		ldr	r0, .L58
 680 0054 FFF7FEFF 		bl	chSysHalt
 681              	.L52:
 682 0058 7B68     		ldr	r3, [r7, #4]
 683 005a 9B68     		ldr	r3, [r3, #8]
 684 005c 5A1E     		subs	r2, r3, #1
ARM GAS  /var/folders/d2/nstgp4h54kz7g1l847x_b8wc0000gn/T//ccVhzKqv.s 			page 13


 685 005e 7B68     		ldr	r3, [r7, #4]
 686 0060 9A60     		str	r2, [r3, #8]
 687 0062 7B68     		ldr	r3, [r7, #4]
 688 0064 9B68     		ldr	r3, [r3, #8]
 689 0066 002B     		cmp	r3, #0
 690 0068 1BDA     		bge	.L54
 691 006a 3B68     		ldr	r3, [r7]
 692 006c 002B     		cmp	r3, #0
 693 006e 07D1     		bne	.L55
 694 0070 7B68     		ldr	r3, [r7, #4]
 695 0072 9B68     		ldr	r3, [r3, #8]
 696 0074 5A1C     		adds	r2, r3, #1
 697 0076 7B68     		ldr	r3, [r7, #4]
 698 0078 9A60     		str	r2, [r3, #8]
 699 007a 4FF0FF33 		mov	r3, #-1
 700 007e 11E0     		b	.L56
 701              	.L55:
 702 0080 0B4B     		ldr	r3, .L58+4
 703 0082 9B69     		ldr	r3, [r3, #24]
 704 0084 7A68     		ldr	r2, [r7, #4]
 705 0086 9A62     		str	r2, [r3, #40]
 706 0088 094B     		ldr	r3, .L58+4
 707 008a 9B69     		ldr	r3, [r3, #24]
 708 008c 7A68     		ldr	r2, [r7, #4]
 709 008e 1146     		mov	r1, r2
 710 0090 1846     		mov	r0, r3
 711 0092 FFF7FEFF 		bl	queue_insert
 712 0096 3968     		ldr	r1, [r7]
 713 0098 0520     		movs	r0, #5
 714 009a FFF7FEFF 		bl	chSchGoSleepTimeoutS
 715 009e 0346     		mov	r3, r0
 716 00a0 00E0     		b	.L56
 717              	.L54:
 718 00a2 0023     		movs	r3, #0
 719              	.L56:
 720 00a4 1846     		mov	r0, r3
 721 00a6 0837     		adds	r7, r7, #8
 722 00a8 BD46     		mov	sp, r7
 723              		@ sp needed
 724 00aa 80BD     		pop	{r7, pc}
 725              	.L59:
 726              		.align	2
 727              	.L58:
 728 00ac 00000000 		.word	__func__.7881
 729 00b0 00000000 		.word	ch
 730              		.size	chSemWaitTimeoutS, .-chSemWaitTimeoutS
 731              		.section	.text.chSemSignal,"ax",%progbits
 732              		.align	1
 733              		.global	chSemSignal
 734              		.syntax unified
 735              		.thumb
 736              		.thumb_func
 737              		.fpu fpv4-sp-d16
 738              		.type	chSemSignal, %function
 739              	chSemSignal:
 740              		@ args = 0, pretend = 0, frame = 8
 741              		@ frame_needed = 1, uses_anonymous_args = 0
ARM GAS  /var/folders/d2/nstgp4h54kz7g1l847x_b8wc0000gn/T//ccVhzKqv.s 			page 14


 742 0000 80B5     		push	{r7, lr}
 743 0002 82B0     		sub	sp, sp, #8
 744 0004 00AF     		add	r7, sp, #0
 745 0006 7860     		str	r0, [r7, #4]
 746 0008 7B68     		ldr	r3, [r7, #4]
 747 000a 002B     		cmp	r3, #0
 748 000c 02D1     		bne	.L66
 749 000e 1E48     		ldr	r0, .L67
 750 0010 FFF7FEFF 		bl	chSysHalt
 751              	.L66:
 752 0014 7B68     		ldr	r3, [r7, #4]
 753 0016 9B68     		ldr	r3, [r3, #8]
 754 0018 002B     		cmp	r3, #0
 755 001a 09DB     		blt	.L62
 756 001c 7B68     		ldr	r3, [r7, #4]
 757 001e 1846     		mov	r0, r3
 758 0020 FFF7FEFF 		bl	queue_isempty
 759 0024 0346     		mov	r3, r0
 760 0026 83F00103 		eor	r3, r3, #1
 761 002a DBB2     		uxtb	r3, r3
 762 002c 002B     		cmp	r3, #0
 763 002e 10D0     		beq	.L63
 764              	.L62:
 765 0030 7B68     		ldr	r3, [r7, #4]
 766 0032 9B68     		ldr	r3, [r3, #8]
 767 0034 002B     		cmp	r3, #0
 768 0036 09DA     		bge	.L64
 769 0038 7B68     		ldr	r3, [r7, #4]
 770 003a 1846     		mov	r0, r3
 771 003c FFF7FEFF 		bl	queue_notempty
 772 0040 0346     		mov	r3, r0
 773 0042 83F00103 		eor	r3, r3, #1
 774 0046 DBB2     		uxtb	r3, r3
 775 0048 002B     		cmp	r3, #0
 776 004a 02D0     		beq	.L63
 777              	.L64:
 778 004c 0E48     		ldr	r0, .L67
 779 004e FFF7FEFF 		bl	chSysHalt
 780              	.L63:
 781 0052 FFF7FEFF 		bl	chSysLock
 782 0056 7B68     		ldr	r3, [r7, #4]
 783 0058 9B68     		ldr	r3, [r3, #8]
 784 005a 5A1C     		adds	r2, r3, #1
 785 005c 7B68     		ldr	r3, [r7, #4]
 786 005e 9A60     		str	r2, [r3, #8]
 787 0060 7B68     		ldr	r3, [r7, #4]
 788 0062 9B68     		ldr	r3, [r3, #8]
 789 0064 002B     		cmp	r3, #0
 790 0066 08DC     		bgt	.L65
 791 0068 7B68     		ldr	r3, [r7, #4]
 792 006a 1846     		mov	r0, r3
 793 006c FFF7FEFF 		bl	queue_fifo_remove
 794 0070 0346     		mov	r3, r0
 795 0072 0021     		movs	r1, #0
 796 0074 1846     		mov	r0, r3
 797 0076 FFF7FEFF 		bl	chSchWakeupS
 798              	.L65:
ARM GAS  /var/folders/d2/nstgp4h54kz7g1l847x_b8wc0000gn/T//ccVhzKqv.s 			page 15


 799 007a FFF7FEFF 		bl	chSysUnlock
 800 007e 00BF     		nop
 801 0080 0837     		adds	r7, r7, #8
 802 0082 BD46     		mov	sp, r7
 803              		@ sp needed
 804 0084 80BD     		pop	{r7, pc}
 805              	.L68:
 806 0086 00BF     		.align	2
 807              	.L67:
 808 0088 00000000 		.word	__func__.7885
 809              		.size	chSemSignal, .-chSemSignal
 810              		.section	.text.chSemSignalI,"ax",%progbits
 811              		.align	1
 812              		.global	chSemSignalI
 813              		.syntax unified
 814              		.thumb
 815              		.thumb_func
 816              		.fpu fpv4-sp-d16
 817              		.type	chSemSignalI, %function
 818              	chSemSignalI:
 819              		@ args = 0, pretend = 0, frame = 16
 820              		@ frame_needed = 1, uses_anonymous_args = 0
 821 0000 80B5     		push	{r7, lr}
 822 0002 84B0     		sub	sp, sp, #16
 823 0004 00AF     		add	r7, sp, #0
 824 0006 7860     		str	r0, [r7, #4]
 825 0008 FFF7FEFF 		bl	chDbgCheckClassI
 826 000c 7B68     		ldr	r3, [r7, #4]
 827 000e 002B     		cmp	r3, #0
 828 0010 02D1     		bne	.L75
 829 0012 1D48     		ldr	r0, .L77
 830 0014 FFF7FEFF 		bl	chSysHalt
 831              	.L75:
 832 0018 7B68     		ldr	r3, [r7, #4]
 833 001a 9B68     		ldr	r3, [r3, #8]
 834 001c 002B     		cmp	r3, #0
 835 001e 09DB     		blt	.L71
 836 0020 7B68     		ldr	r3, [r7, #4]
 837 0022 1846     		mov	r0, r3
 838 0024 FFF7FEFF 		bl	queue_isempty
 839 0028 0346     		mov	r3, r0
 840 002a 83F00103 		eor	r3, r3, #1
 841 002e DBB2     		uxtb	r3, r3
 842 0030 002B     		cmp	r3, #0
 843 0032 10D0     		beq	.L72
 844              	.L71:
 845 0034 7B68     		ldr	r3, [r7, #4]
 846 0036 9B68     		ldr	r3, [r3, #8]
 847 0038 002B     		cmp	r3, #0
 848 003a 09DA     		bge	.L73
 849 003c 7B68     		ldr	r3, [r7, #4]
 850 003e 1846     		mov	r0, r3
 851 0040 FFF7FEFF 		bl	queue_notempty
 852 0044 0346     		mov	r3, r0
 853 0046 83F00103 		eor	r3, r3, #1
 854 004a DBB2     		uxtb	r3, r3
 855 004c 002B     		cmp	r3, #0
ARM GAS  /var/folders/d2/nstgp4h54kz7g1l847x_b8wc0000gn/T//ccVhzKqv.s 			page 16


 856 004e 02D0     		beq	.L72
 857              	.L73:
 858 0050 0D48     		ldr	r0, .L77
 859 0052 FFF7FEFF 		bl	chSysHalt
 860              	.L72:
 861 0056 7B68     		ldr	r3, [r7, #4]
 862 0058 9B68     		ldr	r3, [r3, #8]
 863 005a 5A1C     		adds	r2, r3, #1
 864 005c 7B68     		ldr	r3, [r7, #4]
 865 005e 9A60     		str	r2, [r3, #8]
 866 0060 7B68     		ldr	r3, [r7, #4]
 867 0062 9B68     		ldr	r3, [r3, #8]
 868 0064 002B     		cmp	r3, #0
 869 0066 0ADC     		bgt	.L76
 870 0068 7B68     		ldr	r3, [r7, #4]
 871 006a 1846     		mov	r0, r3
 872 006c FFF7FEFF 		bl	queue_fifo_remove
 873 0070 F860     		str	r0, [r7, #12]
 874 0072 FB68     		ldr	r3, [r7, #12]
 875 0074 0022     		movs	r2, #0
 876 0076 9A62     		str	r2, [r3, #40]
 877 0078 F868     		ldr	r0, [r7, #12]
 878 007a FFF7FEFF 		bl	chSchReadyI
 879              	.L76:
 880 007e 00BF     		nop
 881 0080 1037     		adds	r7, r7, #16
 882 0082 BD46     		mov	sp, r7
 883              		@ sp needed
 884 0084 80BD     		pop	{r7, pc}
 885              	.L78:
 886 0086 00BF     		.align	2
 887              	.L77:
 888 0088 00000000 		.word	__func__.7889
 889              		.size	chSemSignalI, .-chSemSignalI
 890              		.section	.text.chSemAddCounterI,"ax",%progbits
 891              		.align	1
 892              		.global	chSemAddCounterI
 893              		.syntax unified
 894              		.thumb
 895              		.thumb_func
 896              		.fpu fpv4-sp-d16
 897              		.type	chSemAddCounterI, %function
 898              	chSemAddCounterI:
 899              		@ args = 0, pretend = 0, frame = 8
 900              		@ frame_needed = 1, uses_anonymous_args = 0
 901 0000 80B5     		push	{r7, lr}
 902 0002 82B0     		sub	sp, sp, #8
 903 0004 00AF     		add	r7, sp, #0
 904 0006 7860     		str	r0, [r7, #4]
 905 0008 3960     		str	r1, [r7]
 906 000a FFF7FEFF 		bl	chDbgCheckClassI
 907 000e 7B68     		ldr	r3, [r7, #4]
 908 0010 002B     		cmp	r3, #0
 909 0012 02D0     		beq	.L80
 910 0014 3B68     		ldr	r3, [r7]
 911 0016 002B     		cmp	r3, #0
 912 0018 02DC     		bgt	.L88
ARM GAS  /var/folders/d2/nstgp4h54kz7g1l847x_b8wc0000gn/T//ccVhzKqv.s 			page 17


 913              	.L80:
 914 001a 2048     		ldr	r0, .L89
 915 001c FFF7FEFF 		bl	chSysHalt
 916              	.L88:
 917 0020 7B68     		ldr	r3, [r7, #4]
 918 0022 9B68     		ldr	r3, [r3, #8]
 919 0024 002B     		cmp	r3, #0
 920 0026 09DB     		blt	.L82
 921 0028 7B68     		ldr	r3, [r7, #4]
 922 002a 1846     		mov	r0, r3
 923 002c FFF7FEFF 		bl	queue_isempty
 924 0030 0346     		mov	r3, r0
 925 0032 83F00103 		eor	r3, r3, #1
 926 0036 DBB2     		uxtb	r3, r3
 927 0038 002B     		cmp	r3, #0
 928 003a 28D0     		beq	.L85
 929              	.L82:
 930 003c 7B68     		ldr	r3, [r7, #4]
 931 003e 9B68     		ldr	r3, [r3, #8]
 932 0040 002B     		cmp	r3, #0
 933 0042 09DA     		bge	.L84
 934 0044 7B68     		ldr	r3, [r7, #4]
 935 0046 1846     		mov	r0, r3
 936 0048 FFF7FEFF 		bl	queue_notempty
 937 004c 0346     		mov	r3, r0
 938 004e 83F00103 		eor	r3, r3, #1
 939 0052 DBB2     		uxtb	r3, r3
 940 0054 002B     		cmp	r3, #0
 941 0056 1AD0     		beq	.L85
 942              	.L84:
 943 0058 1048     		ldr	r0, .L89
 944 005a FFF7FEFF 		bl	chSysHalt
 945 005e 16E0     		b	.L85
 946              	.L87:
 947 0060 7B68     		ldr	r3, [r7, #4]
 948 0062 9B68     		ldr	r3, [r3, #8]
 949 0064 5A1C     		adds	r2, r3, #1
 950 0066 7B68     		ldr	r3, [r7, #4]
 951 0068 9A60     		str	r2, [r3, #8]
 952 006a 7B68     		ldr	r3, [r7, #4]
 953 006c 9B68     		ldr	r3, [r3, #8]
 954 006e 002B     		cmp	r3, #0
 955 0070 0ADC     		bgt	.L86
 956 0072 7B68     		ldr	r3, [r7, #4]
 957 0074 1846     		mov	r0, r3
 958 0076 FFF7FEFF 		bl	queue_fifo_remove
 959 007a 0346     		mov	r3, r0
 960 007c 1846     		mov	r0, r3
 961 007e FFF7FEFF 		bl	chSchReadyI
 962 0082 0246     		mov	r2, r0
 963 0084 0023     		movs	r3, #0
 964 0086 9362     		str	r3, [r2, #40]
 965              	.L86:
 966 0088 3B68     		ldr	r3, [r7]
 967 008a 013B     		subs	r3, r3, #1
 968 008c 3B60     		str	r3, [r7]
 969              	.L85:
ARM GAS  /var/folders/d2/nstgp4h54kz7g1l847x_b8wc0000gn/T//ccVhzKqv.s 			page 18


 970 008e 3B68     		ldr	r3, [r7]
 971 0090 002B     		cmp	r3, #0
 972 0092 E5DC     		bgt	.L87
 973 0094 00BF     		nop
 974 0096 0837     		adds	r7, r7, #8
 975 0098 BD46     		mov	sp, r7
 976              		@ sp needed
 977 009a 80BD     		pop	{r7, pc}
 978              	.L90:
 979              		.align	2
 980              	.L89:
 981 009c 00000000 		.word	__func__.7895
 982              		.size	chSemAddCounterI, .-chSemAddCounterI
 983              		.section	.text.chSemSignalWait,"ax",%progbits
 984              		.align	1
 985              		.global	chSemSignalWait
 986              		.syntax unified
 987              		.thumb
 988              		.thumb_func
 989              		.fpu fpv4-sp-d16
 990              		.type	chSemSignalWait, %function
 991              	chSemSignalWait:
 992              		@ args = 0, pretend = 0, frame = 16
 993              		@ frame_needed = 1, uses_anonymous_args = 0
 994 0000 80B5     		push	{r7, lr}
 995 0002 84B0     		sub	sp, sp, #16
 996 0004 00AF     		add	r7, sp, #0
 997 0006 7860     		str	r0, [r7, #4]
 998 0008 3960     		str	r1, [r7]
 999 000a 7B68     		ldr	r3, [r7, #4]
 1000 000c 002B     		cmp	r3, #0
 1001 000e 02D0     		beq	.L92
 1002 0010 3B68     		ldr	r3, [r7]
 1003 0012 002B     		cmp	r3, #0
 1004 0014 02D1     		bne	.L104
 1005              	.L92:
 1006 0016 3E48     		ldr	r0, .L106
 1007 0018 FFF7FEFF 		bl	chSysHalt
 1008              	.L104:
 1009 001c 7B68     		ldr	r3, [r7, #4]
 1010 001e 9B68     		ldr	r3, [r3, #8]
 1011 0020 002B     		cmp	r3, #0
 1012 0022 09DB     		blt	.L94
 1013 0024 7B68     		ldr	r3, [r7, #4]
 1014 0026 1846     		mov	r0, r3
 1015 0028 FFF7FEFF 		bl	queue_isempty
 1016 002c 0346     		mov	r3, r0
 1017 002e 83F00103 		eor	r3, r3, #1
 1018 0032 DBB2     		uxtb	r3, r3
 1019 0034 002B     		cmp	r3, #0
 1020 0036 10D0     		beq	.L105
 1021              	.L94:
 1022 0038 7B68     		ldr	r3, [r7, #4]
 1023 003a 9B68     		ldr	r3, [r3, #8]
 1024 003c 002B     		cmp	r3, #0
 1025 003e 09DA     		bge	.L96
 1026 0040 7B68     		ldr	r3, [r7, #4]
ARM GAS  /var/folders/d2/nstgp4h54kz7g1l847x_b8wc0000gn/T//ccVhzKqv.s 			page 19


 1027 0042 1846     		mov	r0, r3
 1028 0044 FFF7FEFF 		bl	queue_notempty
 1029 0048 0346     		mov	r3, r0
 1030 004a 83F00103 		eor	r3, r3, #1
 1031 004e DBB2     		uxtb	r3, r3
 1032 0050 002B     		cmp	r3, #0
 1033 0052 02D0     		beq	.L105
 1034              	.L96:
 1035 0054 2E48     		ldr	r0, .L106
 1036 0056 FFF7FEFF 		bl	chSysHalt
 1037              	.L105:
 1038 005a 3B68     		ldr	r3, [r7]
 1039 005c 9B68     		ldr	r3, [r3, #8]
 1040 005e 002B     		cmp	r3, #0
 1041 0060 09DB     		blt	.L97
 1042 0062 3B68     		ldr	r3, [r7]
 1043 0064 1846     		mov	r0, r3
 1044 0066 FFF7FEFF 		bl	queue_isempty
 1045 006a 0346     		mov	r3, r0
 1046 006c 83F00103 		eor	r3, r3, #1
 1047 0070 DBB2     		uxtb	r3, r3
 1048 0072 002B     		cmp	r3, #0
 1049 0074 10D0     		beq	.L98
 1050              	.L97:
 1051 0076 3B68     		ldr	r3, [r7]
 1052 0078 9B68     		ldr	r3, [r3, #8]
 1053 007a 002B     		cmp	r3, #0
 1054 007c 09DA     		bge	.L99
 1055 007e 3B68     		ldr	r3, [r7]
 1056 0080 1846     		mov	r0, r3
 1057 0082 FFF7FEFF 		bl	queue_notempty
 1058 0086 0346     		mov	r3, r0
 1059 0088 83F00103 		eor	r3, r3, #1
 1060 008c DBB2     		uxtb	r3, r3
 1061 008e 002B     		cmp	r3, #0
 1062 0090 02D0     		beq	.L98
 1063              	.L99:
 1064 0092 1F48     		ldr	r0, .L106
 1065 0094 FFF7FEFF 		bl	chSysHalt
 1066              	.L98:
 1067 0098 FFF7FEFF 		bl	chSysLock
 1068 009c 7B68     		ldr	r3, [r7, #4]
 1069 009e 9B68     		ldr	r3, [r3, #8]
 1070 00a0 5A1C     		adds	r2, r3, #1
 1071 00a2 7B68     		ldr	r3, [r7, #4]
 1072 00a4 9A60     		str	r2, [r3, #8]
 1073 00a6 7B68     		ldr	r3, [r7, #4]
 1074 00a8 9B68     		ldr	r3, [r3, #8]
 1075 00aa 002B     		cmp	r3, #0
 1076 00ac 0ADC     		bgt	.L100
 1077 00ae 7B68     		ldr	r3, [r7, #4]
 1078 00b0 1846     		mov	r0, r3
 1079 00b2 FFF7FEFF 		bl	queue_fifo_remove
 1080 00b6 0346     		mov	r3, r0
 1081 00b8 1846     		mov	r0, r3
 1082 00ba FFF7FEFF 		bl	chSchReadyI
 1083 00be 0246     		mov	r2, r0
ARM GAS  /var/folders/d2/nstgp4h54kz7g1l847x_b8wc0000gn/T//ccVhzKqv.s 			page 20


 1084 00c0 0023     		movs	r3, #0
 1085 00c2 9362     		str	r3, [r2, #40]
 1086              	.L100:
 1087 00c4 3B68     		ldr	r3, [r7]
 1088 00c6 9B68     		ldr	r3, [r3, #8]
 1089 00c8 5A1E     		subs	r2, r3, #1
 1090 00ca 3B68     		ldr	r3, [r7]
 1091 00cc 9A60     		str	r2, [r3, #8]
 1092 00ce 3B68     		ldr	r3, [r7]
 1093 00d0 9B68     		ldr	r3, [r3, #8]
 1094 00d2 002B     		cmp	r3, #0
 1095 00d4 11DA     		bge	.L101
 1096 00d6 0F4B     		ldr	r3, .L106+4
 1097 00d8 9B69     		ldr	r3, [r3, #24]
 1098 00da BB60     		str	r3, [r7, #8]
 1099 00dc 3B68     		ldr	r3, [r7]
 1100 00de 1946     		mov	r1, r3
 1101 00e0 B868     		ldr	r0, [r7, #8]
 1102 00e2 FFF7FEFF 		bl	queue_insert
 1103 00e6 BB68     		ldr	r3, [r7, #8]
 1104 00e8 3A68     		ldr	r2, [r7]
 1105 00ea 9A62     		str	r2, [r3, #40]
 1106 00ec 0520     		movs	r0, #5
 1107 00ee FFF7FEFF 		bl	chSchGoSleepS
 1108 00f2 BB68     		ldr	r3, [r7, #8]
 1109 00f4 9B6A     		ldr	r3, [r3, #40]
 1110 00f6 FB60     		str	r3, [r7, #12]
 1111 00f8 03E0     		b	.L102
 1112              	.L101:
 1113 00fa FFF7FEFF 		bl	chSchRescheduleS
 1114 00fe 0023     		movs	r3, #0
 1115 0100 FB60     		str	r3, [r7, #12]
 1116              	.L102:
 1117 0102 FFF7FEFF 		bl	chSysUnlock
 1118 0106 FB68     		ldr	r3, [r7, #12]
 1119 0108 1846     		mov	r0, r3
 1120 010a 1037     		adds	r7, r7, #16
 1121 010c BD46     		mov	sp, r7
 1122              		@ sp needed
 1123 010e 80BD     		pop	{r7, pc}
 1124              	.L107:
 1125              		.align	2
 1126              	.L106:
 1127 0110 00000000 		.word	__func__.7904
 1128 0114 00000000 		.word	ch
 1129              		.size	chSemSignalWait, .-chSemSignalWait
 1130              		.section	.rodata.__func__.7850,"a",%progbits
 1131              		.align	2
 1132              		.type	__func__.7850, %object
 1133              		.size	__func__.7850, 16
 1134              	__func__.7850:
 1135 0000 63685365 		.ascii	"chSemObjectInit\000"
 1135      6D4F626A 
 1135      65637449 
 1135      6E697400 
 1136              		.section	.rodata.__func__.7153,"a",%progbits
 1137              		.align	2
ARM GAS  /var/folders/d2/nstgp4h54kz7g1l847x_b8wc0000gn/T//ccVhzKqv.s 			page 21


 1138              		.type	__func__.7153, %object
 1139              		.size	__func__.7153, 12
 1140              	__func__.7153:
 1141 0000 63685379 		.ascii	"chSysUnlock\000"
 1141      73556E6C 
 1141      6F636B00 
 1142              		.section	.rodata.__func__.7860,"a",%progbits
 1143              		.align	2
 1144              		.type	__func__.7860, %object
 1145              		.size	__func__.7860, 12
 1146              	__func__.7860:
 1147 0000 63685365 		.ascii	"chSemResetI\000"
 1147      6D526573 
 1147      65744900 
 1148              		.section	.rodata.__func__.7871,"a",%progbits
 1149              		.align	2
 1150              		.type	__func__.7871, %object
 1151              		.size	__func__.7871, 11
 1152              	__func__.7871:
 1153 0000 63685365 		.ascii	"chSemWaitS\000"
 1153      6D576169 
 1153      745300
 1154              		.section	.rodata.__func__.7881,"a",%progbits
 1155              		.align	2
 1156              		.type	__func__.7881, %object
 1157              		.size	__func__.7881, 18
 1158              	__func__.7881:
 1159 0000 63685365 		.ascii	"chSemWaitTimeoutS\000"
 1159      6D576169 
 1159      7454696D 
 1159      656F7574 
 1159      5300
 1160              		.section	.rodata.__func__.7885,"a",%progbits
 1161              		.align	2
 1162              		.type	__func__.7885, %object
 1163              		.size	__func__.7885, 12
 1164              	__func__.7885:
 1165 0000 63685365 		.ascii	"chSemSignal\000"
 1165      6D536967 
 1165      6E616C00 
 1166              		.section	.rodata.__func__.7889,"a",%progbits
 1167              		.align	2
 1168              		.type	__func__.7889, %object
 1169              		.size	__func__.7889, 13
 1170              	__func__.7889:
 1171 0000 63685365 		.ascii	"chSemSignalI\000"
 1171      6D536967 
 1171      6E616C49 
 1171      00
 1172              		.section	.rodata.__func__.7895,"a",%progbits
 1173              		.align	2
 1174              		.type	__func__.7895, %object
 1175              		.size	__func__.7895, 17
 1176              	__func__.7895:
 1177 0000 63685365 		.ascii	"chSemAddCounterI\000"
 1177      6D416464 
 1177      436F756E 
ARM GAS  /var/folders/d2/nstgp4h54kz7g1l847x_b8wc0000gn/T//ccVhzKqv.s 			page 22


 1177      74657249 
 1177      00
 1178              		.section	.rodata.__func__.7904,"a",%progbits
 1179              		.align	2
 1180              		.type	__func__.7904, %object
 1181              		.size	__func__.7904, 16
 1182              	__func__.7904:
 1183 0000 63685365 		.ascii	"chSemSignalWait\000"
 1183      6D536967 
 1183      6E616C57 
 1183      61697400 
 1184              		.ident	"GCC: (GNU Tools for Arm Embedded Processors 7-2017-q4-major) 7.2.1 20170904 (release) [ARM
ARM GAS  /var/folders/d2/nstgp4h54kz7g1l847x_b8wc0000gn/T//ccVhzKqv.s 			page 23

