ARM GAS  /var/folders/d2/nstgp4h54kz7g1l847x_b8wc0000gn/T//ccJ52CnO.s 			page 1


   1              		.cpu cortex-m4
   2              		.eabi_attribute 27, 1
   3              		.eabi_attribute 28, 1
   4              		.eabi_attribute 20, 1
   5              		.eabi_attribute 21, 1
   6              		.eabi_attribute 23, 3
   7              		.eabi_attribute 24, 1
   8              		.eabi_attribute 25, 1
   9              		.eabi_attribute 26, 1
  10              		.eabi_attribute 30, 6
  11              		.eabi_attribute 34, 1
  12              		.eabi_attribute 18, 4
  13              		.file	"chsys.c"
  14              		.section	.text.NVIC_SetPriorityGrouping,"ax",%progbits
  15              		.align	1
  16              		.syntax unified
  17              		.thumb
  18              		.thumb_func
  19              		.fpu fpv4-sp-d16
  20              		.type	NVIC_SetPriorityGrouping, %function
  21              	NVIC_SetPriorityGrouping:
  22              		@ args = 0, pretend = 0, frame = 16
  23              		@ frame_needed = 1, uses_anonymous_args = 0
  24              		@ link register save eliminated.
  25 0000 80B4     		push	{r7}
  26 0002 85B0     		sub	sp, sp, #20
  27 0004 00AF     		add	r7, sp, #0
  28 0006 7860     		str	r0, [r7, #4]
  29 0008 7B68     		ldr	r3, [r7, #4]
  30 000a 03F00703 		and	r3, r3, #7
  31 000e FB60     		str	r3, [r7, #12]
  32 0010 0C4B     		ldr	r3, .L2
  33 0012 DB68     		ldr	r3, [r3, #12]
  34 0014 BB60     		str	r3, [r7, #8]
  35 0016 BA68     		ldr	r2, [r7, #8]
  36 0018 4FF6FF03 		movw	r3, #63743
  37 001c 1340     		ands	r3, r3, r2
  38 001e BB60     		str	r3, [r7, #8]
  39 0020 FB68     		ldr	r3, [r7, #12]
  40 0022 1A02     		lsls	r2, r3, #8
  41 0024 BB68     		ldr	r3, [r7, #8]
  42 0026 1343     		orrs	r3, r3, r2
  43 0028 43F0BF63 		orr	r3, r3, #100139008
  44 002c 43F40033 		orr	r3, r3, #131072
  45 0030 BB60     		str	r3, [r7, #8]
  46 0032 044A     		ldr	r2, .L2
  47 0034 BB68     		ldr	r3, [r7, #8]
  48 0036 D360     		str	r3, [r2, #12]
  49 0038 00BF     		nop
  50 003a 1437     		adds	r7, r7, #20
  51 003c BD46     		mov	sp, r7
  52              		@ sp needed
  53 003e 5DF8047B 		ldr	r7, [sp], #4
  54 0042 7047     		bx	lr
  55              	.L3:
  56              		.align	2
  57              	.L2:
ARM GAS  /var/folders/d2/nstgp4h54kz7g1l847x_b8wc0000gn/T//ccJ52CnO.s 			page 2


  58 0044 00ED00E0 		.word	-536810240
  59              		.size	NVIC_SetPriorityGrouping, .-NVIC_SetPriorityGrouping
  60              		.section	.text.NVIC_SetPriority,"ax",%progbits
  61              		.align	1
  62              		.syntax unified
  63              		.thumb
  64              		.thumb_func
  65              		.fpu fpv4-sp-d16
  66              		.type	NVIC_SetPriority, %function
  67              	NVIC_SetPriority:
  68              		@ args = 0, pretend = 0, frame = 8
  69              		@ frame_needed = 1, uses_anonymous_args = 0
  70              		@ link register save eliminated.
  71 0000 80B4     		push	{r7}
  72 0002 83B0     		sub	sp, sp, #12
  73 0004 00AF     		add	r7, sp, #0
  74 0006 0346     		mov	r3, r0
  75 0008 3960     		str	r1, [r7]
  76 000a FB71     		strb	r3, [r7, #7]
  77 000c 97F90730 		ldrsb	r3, [r7, #7]
  78 0010 002B     		cmp	r3, #0
  79 0012 0BDA     		bge	.L5
  80 0014 3B68     		ldr	r3, [r7]
  81 0016 DAB2     		uxtb	r2, r3
  82 0018 0C49     		ldr	r1, .L8
  83 001a FB79     		ldrb	r3, [r7, #7]	@ zero_extendqisi2
  84 001c 03F00F03 		and	r3, r3, #15
  85 0020 043B     		subs	r3, r3, #4
  86 0022 1201     		lsls	r2, r2, #4
  87 0024 D2B2     		uxtb	r2, r2
  88 0026 0B44     		add	r3, r3, r1
  89 0028 1A76     		strb	r2, [r3, #24]
  90 002a 09E0     		b	.L7
  91              	.L5:
  92 002c 3B68     		ldr	r3, [r7]
  93 002e DAB2     		uxtb	r2, r3
  94 0030 0749     		ldr	r1, .L8+4
  95 0032 97F90730 		ldrsb	r3, [r7, #7]
  96 0036 1201     		lsls	r2, r2, #4
  97 0038 D2B2     		uxtb	r2, r2
  98 003a 0B44     		add	r3, r3, r1
  99 003c 83F80023 		strb	r2, [r3, #768]
 100              	.L7:
 101 0040 00BF     		nop
 102 0042 0C37     		adds	r7, r7, #12
 103 0044 BD46     		mov	sp, r7
 104              		@ sp needed
 105 0046 5DF8047B 		ldr	r7, [sp], #4
 106 004a 7047     		bx	lr
 107              	.L9:
 108              		.align	2
 109              	.L8:
 110 004c 00ED00E0 		.word	-536810240
 111 0050 00E100E0 		.word	-536813312
 112              		.size	NVIC_SetPriority, .-NVIC_SetPriority
 113              		.section	.text.port_init,"ax",%progbits
 114              		.align	1
ARM GAS  /var/folders/d2/nstgp4h54kz7g1l847x_b8wc0000gn/T//ccJ52CnO.s 			page 3


 115              		.syntax unified
 116              		.thumb
 117              		.thumb_func
 118              		.fpu fpv4-sp-d16
 119              		.type	port_init, %function
 120              	port_init:
 121              		@ args = 0, pretend = 0, frame = 0
 122              		@ frame_needed = 1, uses_anonymous_args = 0
 123 0000 80B5     		push	{r7, lr}
 124 0002 00AF     		add	r7, sp, #0
 125 0004 0E4B     		ldr	r3, .L11
 126 0006 0022     		movs	r2, #0
 127 0008 9A60     		str	r2, [r3, #8]
 128 000a 0320     		movs	r0, #3
 129 000c FFF7FEFF 		bl	NVIC_SetPriorityGrouping
 130 0010 0C4B     		ldr	r3, .L11+4
 131 0012 DB68     		ldr	r3, [r3, #12]
 132 0014 0B4A     		ldr	r2, .L11+4
 133 0016 43F08073 		orr	r3, r3, #16777216
 134 001a D360     		str	r3, [r2, #12]
 135 001c 0A4B     		ldr	r3, .L11+8
 136 001e 1B68     		ldr	r3, [r3]
 137 0020 094A     		ldr	r2, .L11+8
 138 0022 43F00103 		orr	r3, r3, #1
 139 0026 1360     		str	r3, [r2]
 140 0028 0121     		movs	r1, #1
 141 002a 6FF00400 		mvn	r0, #4
 142 002e FFF7FEFF 		bl	NVIC_SetPriority
 143 0032 0221     		movs	r1, #2
 144 0034 6FF00100 		mvn	r0, #1
 145 0038 FFF7FEFF 		bl	NVIC_SetPriority
 146 003c 00BF     		nop
 147 003e 80BD     		pop	{r7, pc}
 148              	.L12:
 149              		.align	2
 150              	.L11:
 151 0040 00ED00E0 		.word	-536810240
 152 0044 F0ED00E0 		.word	-536810000
 153 0048 001000E0 		.word	-536866816
 154              		.size	port_init, .-port_init
 155              		.section	.text.port_get_irq_status,"ax",%progbits
 156              		.align	1
 157              		.syntax unified
 158              		.thumb
 159              		.thumb_func
 160              		.fpu fpv4-sp-d16
 161              		.type	port_get_irq_status, %function
 162              	port_get_irq_status:
 163              		@ args = 0, pretend = 0, frame = 8
 164              		@ frame_needed = 1, uses_anonymous_args = 0
 165              		@ link register save eliminated.
 166 0000 80B4     		push	{r7}
 167 0002 83B0     		sub	sp, sp, #12
 168 0004 00AF     		add	r7, sp, #0
 169              		.syntax unified
 170              	@ 533 "../e-puck2_main-processor/ChibiOS//os/ext/CMSIS/include/core_cmFunc.h" 1
 171 0006 EFF31283 		MRS r3, basepri_max
ARM GAS  /var/folders/d2/nstgp4h54kz7g1l847x_b8wc0000gn/T//ccJ52CnO.s 			page 4


 172              	@ 0 "" 2
 173              		.thumb
 174              		.syntax unified
 175 000a 3B60     		str	r3, [r7]
 176 000c 3B68     		ldr	r3, [r7]
 177 000e 7B60     		str	r3, [r7, #4]
 178 0010 7B68     		ldr	r3, [r7, #4]
 179 0012 1846     		mov	r0, r3
 180 0014 0C37     		adds	r7, r7, #12
 181 0016 BD46     		mov	sp, r7
 182              		@ sp needed
 183 0018 5DF8047B 		ldr	r7, [sp], #4
 184 001c 7047     		bx	lr
 185              		.size	port_get_irq_status, .-port_get_irq_status
 186              		.section	.text.port_irq_enabled,"ax",%progbits
 187              		.align	1
 188              		.syntax unified
 189              		.thumb
 190              		.thumb_func
 191              		.fpu fpv4-sp-d16
 192              		.type	port_irq_enabled, %function
 193              	port_irq_enabled:
 194              		@ args = 0, pretend = 0, frame = 8
 195              		@ frame_needed = 1, uses_anonymous_args = 0
 196              		@ link register save eliminated.
 197 0000 80B4     		push	{r7}
 198 0002 83B0     		sub	sp, sp, #12
 199 0004 00AF     		add	r7, sp, #0
 200 0006 7860     		str	r0, [r7, #4]
 201 0008 7B68     		ldr	r3, [r7, #4]
 202 000a 002B     		cmp	r3, #0
 203 000c 0CBF     		ite	eq
 204 000e 0123     		moveq	r3, #1
 205 0010 0023     		movne	r3, #0
 206 0012 DBB2     		uxtb	r3, r3
 207 0014 1846     		mov	r0, r3
 208 0016 0C37     		adds	r7, r7, #12
 209 0018 BD46     		mov	sp, r7
 210              		@ sp needed
 211 001a 5DF8047B 		ldr	r7, [sp], #4
 212 001e 7047     		bx	lr
 213              		.size	port_irq_enabled, .-port_irq_enabled
 214              		.section	.text.port_is_isr_context,"ax",%progbits
 215              		.align	1
 216              		.syntax unified
 217              		.thumb
 218              		.thumb_func
 219              		.fpu fpv4-sp-d16
 220              		.type	port_is_isr_context, %function
 221              	port_is_isr_context:
 222              		@ args = 0, pretend = 0, frame = 8
 223              		@ frame_needed = 1, uses_anonymous_args = 0
 224              		@ link register save eliminated.
 225 0000 80B4     		push	{r7}
 226 0002 83B0     		sub	sp, sp, #12
 227 0004 00AF     		add	r7, sp, #0
 228              		.syntax unified
ARM GAS  /var/folders/d2/nstgp4h54kz7g1l847x_b8wc0000gn/T//ccJ52CnO.s 			page 5


 229              	@ 383 "../e-puck2_main-processor/ChibiOS//os/ext/CMSIS/include/core_cmFunc.h" 1
 230 0006 EFF30583 		MRS r3, ipsr
 231              	@ 0 "" 2
 232              		.thumb
 233              		.syntax unified
 234 000a 7B60     		str	r3, [r7, #4]
 235 000c 7B68     		ldr	r3, [r7, #4]
 236 000e C3F30803 		ubfx	r3, r3, #0, #9
 237 0012 002B     		cmp	r3, #0
 238 0014 14BF     		ite	ne
 239 0016 0123     		movne	r3, #1
 240 0018 0023     		moveq	r3, #0
 241 001a DBB2     		uxtb	r3, r3
 242 001c 1846     		mov	r0, r3
 243 001e 0C37     		adds	r7, r7, #12
 244 0020 BD46     		mov	sp, r7
 245              		@ sp needed
 246 0022 5DF8047B 		ldr	r7, [sp], #4
 247 0026 7047     		bx	lr
 248              		.size	port_is_isr_context, .-port_is_isr_context
 249              		.section	.text.port_lock,"ax",%progbits
 250              		.align	1
 251              		.syntax unified
 252              		.thumb
 253              		.thumb_func
 254              		.fpu fpv4-sp-d16
 255              		.type	port_lock, %function
 256              	port_lock:
 257              		@ args = 0, pretend = 0, frame = 8
 258              		@ frame_needed = 1, uses_anonymous_args = 0
 259              		@ link register save eliminated.
 260 0000 80B4     		push	{r7}
 261 0002 83B0     		sub	sp, sp, #12
 262 0004 00AF     		add	r7, sp, #0
 263 0006 2023     		movs	r3, #32
 264 0008 7B60     		str	r3, [r7, #4]
 265 000a 7B68     		ldr	r3, [r7, #4]
 266              		.syntax unified
 267              	@ 546 "../e-puck2_main-processor/ChibiOS//os/ext/CMSIS/include/core_cmFunc.h" 1
 268 000c 83F31188 		MSR basepri, r3
 269              	@ 0 "" 2
 270              		.thumb
 271              		.syntax unified
 272 0010 00BF     		nop
 273 0012 0C37     		adds	r7, r7, #12
 274 0014 BD46     		mov	sp, r7
 275              		@ sp needed
 276 0016 5DF8047B 		ldr	r7, [sp], #4
 277 001a 7047     		bx	lr
 278              		.size	port_lock, .-port_lock
 279              		.section	.text.port_unlock,"ax",%progbits
 280              		.align	1
 281              		.syntax unified
 282              		.thumb
 283              		.thumb_func
 284              		.fpu fpv4-sp-d16
 285              		.type	port_unlock, %function
ARM GAS  /var/folders/d2/nstgp4h54kz7g1l847x_b8wc0000gn/T//ccJ52CnO.s 			page 6


 286              	port_unlock:
 287              		@ args = 0, pretend = 0, frame = 8
 288              		@ frame_needed = 1, uses_anonymous_args = 0
 289              		@ link register save eliminated.
 290 0000 80B4     		push	{r7}
 291 0002 83B0     		sub	sp, sp, #12
 292 0004 00AF     		add	r7, sp, #0
 293 0006 0023     		movs	r3, #0
 294 0008 7B60     		str	r3, [r7, #4]
 295 000a 7B68     		ldr	r3, [r7, #4]
 296              		.syntax unified
 297              	@ 546 "../e-puck2_main-processor/ChibiOS//os/ext/CMSIS/include/core_cmFunc.h" 1
 298 000c 83F31188 		MSR basepri, r3
 299              	@ 0 "" 2
 300              		.thumb
 301              		.syntax unified
 302 0010 00BF     		nop
 303 0012 0C37     		adds	r7, r7, #12
 304 0014 BD46     		mov	sp, r7
 305              		@ sp needed
 306 0016 5DF8047B 		ldr	r7, [sp], #4
 307 001a 7047     		bx	lr
 308              		.size	port_unlock, .-port_unlock
 309              		.section	.text.port_lock_from_isr,"ax",%progbits
 310              		.align	1
 311              		.syntax unified
 312              		.thumb
 313              		.thumb_func
 314              		.fpu fpv4-sp-d16
 315              		.type	port_lock_from_isr, %function
 316              	port_lock_from_isr:
 317              		@ args = 0, pretend = 0, frame = 0
 318              		@ frame_needed = 1, uses_anonymous_args = 0
 319 0000 80B5     		push	{r7, lr}
 320 0002 00AF     		add	r7, sp, #0
 321 0004 FFF7FEFF 		bl	port_lock
 322 0008 00BF     		nop
 323 000a 80BD     		pop	{r7, pc}
 324              		.size	port_lock_from_isr, .-port_lock_from_isr
 325              		.section	.text.port_unlock_from_isr,"ax",%progbits
 326              		.align	1
 327              		.syntax unified
 328              		.thumb
 329              		.thumb_func
 330              		.fpu fpv4-sp-d16
 331              		.type	port_unlock_from_isr, %function
 332              	port_unlock_from_isr:
 333              		@ args = 0, pretend = 0, frame = 0
 334              		@ frame_needed = 1, uses_anonymous_args = 0
 335 0000 80B5     		push	{r7, lr}
 336 0002 00AF     		add	r7, sp, #0
 337 0004 FFF7FEFF 		bl	port_unlock
 338 0008 00BF     		nop
 339 000a 80BD     		pop	{r7, pc}
 340              		.size	port_unlock_from_isr, .-port_unlock_from_isr
 341              		.section	.text.port_disable,"ax",%progbits
 342              		.align	1
ARM GAS  /var/folders/d2/nstgp4h54kz7g1l847x_b8wc0000gn/T//ccJ52CnO.s 			page 7


 343              		.syntax unified
 344              		.thumb
 345              		.thumb_func
 346              		.fpu fpv4-sp-d16
 347              		.type	port_disable, %function
 348              	port_disable:
 349              		@ args = 0, pretend = 0, frame = 0
 350              		@ frame_needed = 1, uses_anonymous_args = 0
 351              		@ link register save eliminated.
 352 0000 80B4     		push	{r7}
 353 0002 00AF     		add	r7, sp, #0
 354              		.syntax unified
 355              	@ 342 "../e-puck2_main-processor/ChibiOS//os/ext/CMSIS/include/core_cmFunc.h" 1
 356 0004 72B6     		cpsid i
 357              	@ 0 "" 2
 358              		.thumb
 359              		.syntax unified
 360 0006 00BF     		nop
 361 0008 BD46     		mov	sp, r7
 362              		@ sp needed
 363 000a 5DF8047B 		ldr	r7, [sp], #4
 364 000e 7047     		bx	lr
 365              		.size	port_disable, .-port_disable
 366              		.section	.text.port_enable,"ax",%progbits
 367              		.align	1
 368              		.syntax unified
 369              		.thumb
 370              		.thumb_func
 371              		.fpu fpv4-sp-d16
 372              		.type	port_enable, %function
 373              	port_enable:
 374              		@ args = 0, pretend = 0, frame = 8
 375              		@ frame_needed = 1, uses_anonymous_args = 0
 376              		@ link register save eliminated.
 377 0000 80B4     		push	{r7}
 378 0002 83B0     		sub	sp, sp, #12
 379 0004 00AF     		add	r7, sp, #0
 380 0006 0023     		movs	r3, #0
 381 0008 7B60     		str	r3, [r7, #4]
 382 000a 7B68     		ldr	r3, [r7, #4]
 383              		.syntax unified
 384              	@ 546 "../e-puck2_main-processor/ChibiOS//os/ext/CMSIS/include/core_cmFunc.h" 1
 385 000c 83F31188 		MSR basepri, r3
 386              	@ 0 "" 2
 387              	@ 331 "../e-puck2_main-processor/ChibiOS//os/ext/CMSIS/include/core_cmFunc.h" 1
 388 0010 62B6     		cpsie i
 389              	@ 0 "" 2
 390              		.thumb
 391              		.syntax unified
 392 0012 00BF     		nop
 393 0014 0C37     		adds	r7, r7, #12
 394 0016 BD46     		mov	sp, r7
 395              		@ sp needed
 396 0018 5DF8047B 		ldr	r7, [sp], #4
 397 001c 7047     		bx	lr
 398              		.size	port_enable, .-port_enable
 399              		.section	.text.port_wait_for_interrupt,"ax",%progbits
ARM GAS  /var/folders/d2/nstgp4h54kz7g1l847x_b8wc0000gn/T//ccJ52CnO.s 			page 8


 400              		.align	1
 401              		.syntax unified
 402              		.thumb
 403              		.thumb_func
 404              		.fpu fpv4-sp-d16
 405              		.type	port_wait_for_interrupt, %function
 406              	port_wait_for_interrupt:
 407              		@ args = 0, pretend = 0, frame = 0
 408              		@ frame_needed = 1, uses_anonymous_args = 0
 409              		@ link register save eliminated.
 410 0000 80B4     		push	{r7}
 411 0002 00AF     		add	r7, sp, #0
 412 0004 00BF     		nop
 413 0006 BD46     		mov	sp, r7
 414              		@ sp needed
 415 0008 5DF8047B 		ldr	r7, [sp], #4
 416 000c 7047     		bx	lr
 417              		.size	port_wait_for_interrupt, .-port_wait_for_interrupt
 418              		.section	.text.port_rt_get_counter_value,"ax",%progbits
 419              		.align	1
 420              		.syntax unified
 421              		.thumb
 422              		.thumb_func
 423              		.fpu fpv4-sp-d16
 424              		.type	port_rt_get_counter_value, %function
 425              	port_rt_get_counter_value:
 426              		@ args = 0, pretend = 0, frame = 0
 427              		@ frame_needed = 1, uses_anonymous_args = 0
 428              		@ link register save eliminated.
 429 0000 80B4     		push	{r7}
 430 0002 00AF     		add	r7, sp, #0
 431 0004 034B     		ldr	r3, .L30
 432 0006 5B68     		ldr	r3, [r3, #4]
 433 0008 1846     		mov	r0, r3
 434 000a BD46     		mov	sp, r7
 435              		@ sp needed
 436 000c 5DF8047B 		ldr	r7, [sp], #4
 437 0010 7047     		bx	lr
 438              	.L31:
 439 0012 00BF     		.align	2
 440              	.L30:
 441 0014 001000E0 		.word	-536866816
 442              		.size	port_rt_get_counter_value, .-port_rt_get_counter_value
 443              		.section	.text.chSysEnable,"ax",%progbits
 444              		.align	1
 445              		.syntax unified
 446              		.thumb
 447              		.thumb_func
 448              		.fpu fpv4-sp-d16
 449              		.type	chSysEnable, %function
 450              	chSysEnable:
 451              		@ args = 0, pretend = 0, frame = 0
 452              		@ frame_needed = 1, uses_anonymous_args = 0
 453 0000 80B5     		push	{r7, lr}
 454 0002 00AF     		add	r7, sp, #0
 455 0004 FFF7FEFF 		bl	_dbg_check_enable
 456 0008 FFF7FEFF 		bl	port_enable
ARM GAS  /var/folders/d2/nstgp4h54kz7g1l847x_b8wc0000gn/T//ccJ52CnO.s 			page 9


 457 000c 00BF     		nop
 458 000e 80BD     		pop	{r7, pc}
 459              		.size	chSysEnable, .-chSysEnable
 460              		.section	.text.chSysLock,"ax",%progbits
 461              		.align	1
 462              		.syntax unified
 463              		.thumb
 464              		.thumb_func
 465              		.fpu fpv4-sp-d16
 466              		.type	chSysLock, %function
 467              	chSysLock:
 468              		@ args = 0, pretend = 0, frame = 0
 469              		@ frame_needed = 1, uses_anonymous_args = 0
 470 0000 80B5     		push	{r7, lr}
 471 0002 00AF     		add	r7, sp, #0
 472 0004 FFF7FEFF 		bl	port_lock
 473 0008 FFF7FEFF 		bl	_stats_start_measure_crit_thd
 474 000c FFF7FEFF 		bl	_dbg_check_lock
 475 0010 00BF     		nop
 476 0012 80BD     		pop	{r7, pc}
 477              		.size	chSysLock, .-chSysLock
 478              		.section	.text.chSysUnlock,"ax",%progbits
 479              		.align	1
 480              		.syntax unified
 481              		.thumb
 482              		.thumb_func
 483              		.fpu fpv4-sp-d16
 484              		.type	chSysUnlock, %function
 485              	chSysUnlock:
 486              		@ args = 0, pretend = 0, frame = 0
 487              		@ frame_needed = 1, uses_anonymous_args = 0
 488 0000 80B5     		push	{r7, lr}
 489 0002 00AF     		add	r7, sp, #0
 490 0004 FFF7FEFF 		bl	_dbg_check_unlock
 491 0008 FFF7FEFF 		bl	_stats_stop_measure_crit_thd
 492 000c 094B     		ldr	r3, .L36
 493 000e 1B68     		ldr	r3, [r3]
 494 0010 084A     		ldr	r2, .L36
 495 0012 9342     		cmp	r3, r2
 496 0014 0AD0     		beq	.L35
 497 0016 074B     		ldr	r3, .L36
 498 0018 9B69     		ldr	r3, [r3, #24]
 499 001a 9A68     		ldr	r2, [r3, #8]
 500 001c 054B     		ldr	r3, .L36
 501 001e 1B68     		ldr	r3, [r3]
 502 0020 9B68     		ldr	r3, [r3, #8]
 503 0022 9A42     		cmp	r2, r3
 504 0024 02D2     		bcs	.L35
 505 0026 0448     		ldr	r0, .L36+4
 506 0028 FFF7FEFF 		bl	chSysHalt
 507              	.L35:
 508 002c FFF7FEFF 		bl	port_unlock
 509 0030 00BF     		nop
 510 0032 80BD     		pop	{r7, pc}
 511              	.L37:
 512              		.align	2
 513              	.L36:
ARM GAS  /var/folders/d2/nstgp4h54kz7g1l847x_b8wc0000gn/T//ccJ52CnO.s 			page 10


 514 0034 00000000 		.word	ch
 515 0038 00000000 		.word	__func__.7153
 516              		.size	chSysUnlock, .-chSysUnlock
 517              		.section	.text.chSysLockFromISR,"ax",%progbits
 518              		.align	1
 519              		.syntax unified
 520              		.thumb
 521              		.thumb_func
 522              		.fpu fpv4-sp-d16
 523              		.type	chSysLockFromISR, %function
 524              	chSysLockFromISR:
 525              		@ args = 0, pretend = 0, frame = 0
 526              		@ frame_needed = 1, uses_anonymous_args = 0
 527 0000 80B5     		push	{r7, lr}
 528 0002 00AF     		add	r7, sp, #0
 529 0004 FFF7FEFF 		bl	port_lock_from_isr
 530 0008 FFF7FEFF 		bl	_stats_start_measure_crit_isr
 531 000c FFF7FEFF 		bl	_dbg_check_lock_from_isr
 532 0010 00BF     		nop
 533 0012 80BD     		pop	{r7, pc}
 534              		.size	chSysLockFromISR, .-chSysLockFromISR
 535              		.section	.text.chSysUnlockFromISR,"ax",%progbits
 536              		.align	1
 537              		.syntax unified
 538              		.thumb
 539              		.thumb_func
 540              		.fpu fpv4-sp-d16
 541              		.type	chSysUnlockFromISR, %function
 542              	chSysUnlockFromISR:
 543              		@ args = 0, pretend = 0, frame = 0
 544              		@ frame_needed = 1, uses_anonymous_args = 0
 545 0000 80B5     		push	{r7, lr}
 546 0002 00AF     		add	r7, sp, #0
 547 0004 FFF7FEFF 		bl	_dbg_check_unlock_from_isr
 548 0008 FFF7FEFF 		bl	_stats_stop_measure_crit_isr
 549 000c FFF7FEFF 		bl	port_unlock_from_isr
 550 0010 00BF     		nop
 551 0012 80BD     		pop	{r7, pc}
 552              		.size	chSysUnlockFromISR, .-chSysUnlockFromISR
 553              		.section	.text.chVTDoTickI,"ax",%progbits
 554              		.align	1
 555              		.syntax unified
 556              		.thumb
 557              		.thumb_func
 558              		.fpu fpv4-sp-d16
 559              		.type	chVTDoTickI, %function
 560              	chVTDoTickI:
 561              		@ args = 0, pretend = 0, frame = 8
 562              		@ frame_needed = 1, uses_anonymous_args = 0
 563 0000 80B5     		push	{r7, lr}
 564 0002 82B0     		sub	sp, sp, #8
 565 0004 00AF     		add	r7, sp, #0
 566 0006 FFF7FEFF 		bl	chDbgCheckClassI
 567 000a 194B     		ldr	r3, .L45
 568 000c 9B6A     		ldr	r3, [r3, #40]
 569 000e 0133     		adds	r3, r3, #1
 570 0010 174A     		ldr	r2, .L45
ARM GAS  /var/folders/d2/nstgp4h54kz7g1l847x_b8wc0000gn/T//ccJ52CnO.s 			page 11


 571 0012 9362     		str	r3, [r2, #40]
 572 0014 164B     		ldr	r3, .L45
 573 0016 DB69     		ldr	r3, [r3, #28]
 574 0018 164A     		ldr	r2, .L45+4
 575 001a 9342     		cmp	r3, r2
 576 001c 24D0     		beq	.L44
 577 001e 144B     		ldr	r3, .L45
 578 0020 DB69     		ldr	r3, [r3, #28]
 579 0022 9A68     		ldr	r2, [r3, #8]
 580 0024 013A     		subs	r2, r2, #1
 581 0026 9A60     		str	r2, [r3, #8]
 582 0028 19E0     		b	.L42
 583              	.L43:
 584 002a 114B     		ldr	r3, .L45
 585 002c DB69     		ldr	r3, [r3, #28]
 586 002e 7B60     		str	r3, [r7, #4]
 587 0030 7B68     		ldr	r3, [r7, #4]
 588 0032 DB68     		ldr	r3, [r3, #12]
 589 0034 3B60     		str	r3, [r7]
 590 0036 7B68     		ldr	r3, [r7, #4]
 591 0038 0022     		movs	r2, #0
 592 003a DA60     		str	r2, [r3, #12]
 593 003c 7B68     		ldr	r3, [r7, #4]
 594 003e 1B68     		ldr	r3, [r3]
 595 0040 0C4A     		ldr	r2, .L45+4
 596 0042 5A60     		str	r2, [r3, #4]
 597 0044 7B68     		ldr	r3, [r7, #4]
 598 0046 1B68     		ldr	r3, [r3]
 599 0048 094A     		ldr	r2, .L45
 600 004a D361     		str	r3, [r2, #28]
 601 004c FFF7FEFF 		bl	chSysUnlockFromISR
 602 0050 7B68     		ldr	r3, [r7, #4]
 603 0052 1A69     		ldr	r2, [r3, #16]
 604 0054 3B68     		ldr	r3, [r7]
 605 0056 1046     		mov	r0, r2
 606 0058 9847     		blx	r3
 607 005a FFF7FEFF 		bl	chSysLockFromISR
 608              	.L42:
 609 005e 044B     		ldr	r3, .L45
 610 0060 DB69     		ldr	r3, [r3, #28]
 611 0062 9B68     		ldr	r3, [r3, #8]
 612 0064 002B     		cmp	r3, #0
 613 0066 E0D0     		beq	.L43
 614              	.L44:
 615 0068 00BF     		nop
 616 006a 0837     		adds	r7, r7, #8
 617 006c BD46     		mov	sp, r7
 618              		@ sp needed
 619 006e 80BD     		pop	{r7, pc}
 620              	.L46:
 621              		.align	2
 622              	.L45:
 623 0070 00000000 		.word	ch
 624 0074 1C000000 		.word	ch+28
 625              		.size	chVTDoTickI, .-chVTDoTickI
 626              		.section	.text.chRegSetThreadName,"ax",%progbits
 627              		.align	1
ARM GAS  /var/folders/d2/nstgp4h54kz7g1l847x_b8wc0000gn/T//ccJ52CnO.s 			page 12


 628              		.syntax unified
 629              		.thumb
 630              		.thumb_func
 631              		.fpu fpv4-sp-d16
 632              		.type	chRegSetThreadName, %function
 633              	chRegSetThreadName:
 634              		@ args = 0, pretend = 0, frame = 8
 635              		@ frame_needed = 1, uses_anonymous_args = 0
 636              		@ link register save eliminated.
 637 0000 80B4     		push	{r7}
 638 0002 83B0     		sub	sp, sp, #12
 639 0004 00AF     		add	r7, sp, #0
 640 0006 7860     		str	r0, [r7, #4]
 641 0008 044B     		ldr	r3, .L48
 642 000a 9B69     		ldr	r3, [r3, #24]
 643 000c 7A68     		ldr	r2, [r7, #4]
 644 000e 9A61     		str	r2, [r3, #24]
 645 0010 00BF     		nop
 646 0012 0C37     		adds	r7, r7, #12
 647 0014 BD46     		mov	sp, r7
 648              		@ sp needed
 649 0016 5DF8047B 		ldr	r7, [sp], #4
 650 001a 7047     		bx	lr
 651              	.L49:
 652              		.align	2
 653              	.L48:
 654 001c 00000000 		.word	ch
 655              		.size	chRegSetThreadName, .-chRegSetThreadName
 656              		.section	.text.chRegSetThreadNameX,"ax",%progbits
 657              		.align	1
 658              		.syntax unified
 659              		.thumb
 660              		.thumb_func
 661              		.fpu fpv4-sp-d16
 662              		.type	chRegSetThreadNameX, %function
 663              	chRegSetThreadNameX:
 664              		@ args = 0, pretend = 0, frame = 8
 665              		@ frame_needed = 1, uses_anonymous_args = 0
 666              		@ link register save eliminated.
 667 0000 80B4     		push	{r7}
 668 0002 83B0     		sub	sp, sp, #12
 669 0004 00AF     		add	r7, sp, #0
 670 0006 7860     		str	r0, [r7, #4]
 671 0008 3960     		str	r1, [r7]
 672 000a 7B68     		ldr	r3, [r7, #4]
 673 000c 3A68     		ldr	r2, [r7]
 674 000e 9A61     		str	r2, [r3, #24]
 675 0010 00BF     		nop
 676 0012 0C37     		adds	r7, r7, #12
 677 0014 BD46     		mov	sp, r7
 678              		@ sp needed
 679 0016 5DF8047B 		ldr	r7, [sp], #4
 680 001a 7047     		bx	lr
 681              		.size	chRegSetThreadNameX, .-chRegSetThreadNameX
 682              		.section	.text._idle_thread,"ax",%progbits
 683              		.align	1
 684              		.syntax unified
ARM GAS  /var/folders/d2/nstgp4h54kz7g1l847x_b8wc0000gn/T//ccJ52CnO.s 			page 13


 685              		.thumb
 686              		.thumb_func
 687              		.fpu fpv4-sp-d16
 688              		.type	_idle_thread, %function
 689              	_idle_thread:
 690              		@ args = 0, pretend = 0, frame = 8
 691              		@ frame_needed = 1, uses_anonymous_args = 0
 692 0000 80B5     		push	{r7, lr}
 693 0002 82B0     		sub	sp, sp, #8
 694 0004 00AF     		add	r7, sp, #0
 695 0006 7860     		str	r0, [r7, #4]
 696              	.L52:
 697 0008 FFF7FEFF 		bl	port_wait_for_interrupt
 698 000c FCE7     		b	.L52
 699              		.size	_idle_thread, .-_idle_thread
 700              		.section	.rodata
 701              		.align	2
 702              	.LC0:
 703 0000 69646C65 		.ascii	"idle\000"
 703      00
 704              		.section	.text.chSysInit,"ax",%progbits
 705              		.align	1
 706              		.global	chSysInit
 707              		.syntax unified
 708              		.thumb
 709              		.thumb_func
 710              		.fpu fpv4-sp-d16
 711              		.type	chSysInit, %function
 712              	chSysInit:
 713              		@ args = 0, pretend = 0, frame = 8
 714              		@ frame_needed = 1, uses_anonymous_args = 0
 715 0000 80B5     		push	{r7, lr}
 716 0002 84B0     		sub	sp, sp, #16
 717 0004 02AF     		add	r7, sp, #8
 718 0006 FFF7FEFF 		bl	port_init
 719 000a FFF7FEFF 		bl	_scheduler_init
 720 000e FFF7FEFF 		bl	_vt_init
 721 0012 FFF7FEFF 		bl	_tm_init
 722 0016 FFF7FEFF 		bl	_core_init
 723 001a FFF7FEFF 		bl	_heap_init
 724 001e FFF7FEFF 		bl	_stats_init
 725 0022 FFF7FEFF 		bl	_dbg_trace_init
 726 0026 4021     		movs	r1, #64
 727 0028 1248     		ldr	r0, .L54
 728 002a FFF7FEFF 		bl	_thread_init
 729 002e 0246     		mov	r2, r0
 730 0030 114B     		ldr	r3, .L54+4
 731 0032 9A61     		str	r2, [r3, #24]
 732 0034 104B     		ldr	r3, .L54+4
 733 0036 9B69     		ldr	r3, [r3, #24]
 734 0038 0122     		movs	r2, #1
 735 003a 83F82020 		strb	r2, [r3, #32]
 736 003e 0E4B     		ldr	r3, .L54+4
 737 0040 9B69     		ldr	r3, [r3, #24]
 738 0042 0E4A     		ldr	r2, .L54+8
 739 0044 DA61     		str	r2, [r3, #28]
 740 0046 FFF7FEFF 		bl	chSysEnable
ARM GAS  /var/folders/d2/nstgp4h54kz7g1l847x_b8wc0000gn/T//ccJ52CnO.s 			page 14


 741 004a 0D48     		ldr	r0, .L54+12
 742 004c FFF7FEFF 		bl	chRegSetThreadName
 743 0050 0023     		movs	r3, #0
 744 0052 0093     		str	r3, [sp]
 745 0054 0B4B     		ldr	r3, .L54+16
 746 0056 0122     		movs	r2, #1
 747 0058 4FF4C471 		mov	r1, #392
 748 005c 0A48     		ldr	r0, .L54+20
 749 005e FFF7FEFF 		bl	chThdCreateStatic
 750 0062 7860     		str	r0, [r7, #4]
 751 0064 0949     		ldr	r1, .L54+24
 752 0066 7868     		ldr	r0, [r7, #4]
 753 0068 FFF7FEFF 		bl	chRegSetThreadNameX
 754 006c 00BF     		nop
 755 006e 0837     		adds	r7, r7, #8
 756 0070 BD46     		mov	sp, r7
 757              		@ sp needed
 758 0072 80BD     		pop	{r7, pc}
 759              	.L55:
 760              		.align	2
 761              	.L54:
 762 0074 40040000 		.word	ch+1088
 763 0078 00000000 		.word	ch
 764 007c 00000000 		.word	__main_thread_stack_base__
 765 0080 00000000 		.word	ch_debug
 766 0084 00000000 		.word	_idle_thread
 767 0088 E8040000 		.word	ch+1256
 768 008c 00000000 		.word	.LC0
 769              		.size	chSysInit, .-chSysInit
 770              		.section	.text.chSysHalt,"ax",%progbits
 771              		.align	1
 772              		.global	chSysHalt
 773              		.syntax unified
 774              		.thumb
 775              		.thumb_func
 776              		.fpu fpv4-sp-d16
 777              		.type	chSysHalt, %function
 778              	chSysHalt:
 779              		@ args = 0, pretend = 0, frame = 8
 780              		@ frame_needed = 1, uses_anonymous_args = 0
 781 0000 80B5     		push	{r7, lr}
 782 0002 82B0     		sub	sp, sp, #8
 783 0004 00AF     		add	r7, sp, #0
 784 0006 7860     		str	r0, [r7, #4]
 785 0008 FFF7FEFF 		bl	port_disable
 786 000c 7868     		ldr	r0, [r7, #4]
 787 000e FFF7FEFF 		bl	panic_handler
 788 0012 024A     		ldr	r2, .L58
 789 0014 7B68     		ldr	r3, [r7, #4]
 790 0016 D362     		str	r3, [r2, #44]
 791              	.L57:
 792 0018 FEE7     		b	.L57
 793              	.L59:
 794 001a 00BF     		.align	2
 795              	.L58:
 796 001c 00000000 		.word	ch
 797              		.size	chSysHalt, .-chSysHalt
ARM GAS  /var/folders/d2/nstgp4h54kz7g1l847x_b8wc0000gn/T//ccJ52CnO.s 			page 15


 798              		.section	.text.chSysIntegrityCheckI,"ax",%progbits
 799              		.align	1
 800              		.global	chSysIntegrityCheckI
 801              		.syntax unified
 802              		.thumb
 803              		.thumb_func
 804              		.fpu fpv4-sp-d16
 805              		.type	chSysIntegrityCheckI, %function
 806              	chSysIntegrityCheckI:
 807              		@ args = 0, pretend = 0, frame = 24
 808              		@ frame_needed = 1, uses_anonymous_args = 0
 809 0000 80B5     		push	{r7, lr}
 810 0002 86B0     		sub	sp, sp, #24
 811 0004 00AF     		add	r7, sp, #0
 812 0006 7860     		str	r0, [r7, #4]
 813 0008 FFF7FEFF 		bl	chDbgCheckClassI
 814 000c 7B68     		ldr	r3, [r7, #4]
 815 000e 03F00103 		and	r3, r3, #1
 816 0012 002B     		cmp	r3, #0
 817 0014 22D0     		beq	.L61
 818 0016 0023     		movs	r3, #0
 819 0018 7B61     		str	r3, [r7, #20]
 820 001a 3B4B     		ldr	r3, .L77
 821 001c 1B68     		ldr	r3, [r3]
 822 001e 3B61     		str	r3, [r7, #16]
 823 0020 05E0     		b	.L62
 824              	.L63:
 825 0022 7B69     		ldr	r3, [r7, #20]
 826 0024 0133     		adds	r3, r3, #1
 827 0026 7B61     		str	r3, [r7, #20]
 828 0028 3B69     		ldr	r3, [r7, #16]
 829 002a 1B68     		ldr	r3, [r3]
 830 002c 3B61     		str	r3, [r7, #16]
 831              	.L62:
 832 002e 3B69     		ldr	r3, [r7, #16]
 833 0030 354A     		ldr	r2, .L77
 834 0032 9342     		cmp	r3, r2
 835 0034 F5D1     		bne	.L63
 836 0036 344B     		ldr	r3, .L77
 837 0038 5B68     		ldr	r3, [r3, #4]
 838 003a 3B61     		str	r3, [r7, #16]
 839 003c 05E0     		b	.L64
 840              	.L65:
 841 003e 7B69     		ldr	r3, [r7, #20]
 842 0040 013B     		subs	r3, r3, #1
 843 0042 7B61     		str	r3, [r7, #20]
 844 0044 3B69     		ldr	r3, [r7, #16]
 845 0046 5B68     		ldr	r3, [r3, #4]
 846 0048 3B61     		str	r3, [r7, #16]
 847              	.L64:
 848 004a 3B69     		ldr	r3, [r7, #16]
 849 004c 2E4A     		ldr	r2, .L77
 850 004e 9342     		cmp	r3, r2
 851 0050 F5D1     		bne	.L65
 852 0052 7B69     		ldr	r3, [r7, #20]
 853 0054 002B     		cmp	r3, #0
 854 0056 01D0     		beq	.L61
ARM GAS  /var/folders/d2/nstgp4h54kz7g1l847x_b8wc0000gn/T//ccJ52CnO.s 			page 16


 855 0058 0123     		movs	r3, #1
 856 005a 50E0     		b	.L66
 857              	.L61:
 858 005c 7B68     		ldr	r3, [r7, #4]
 859 005e 03F00203 		and	r3, r3, #2
 860 0062 002B     		cmp	r3, #0
 861 0064 22D0     		beq	.L67
 862 0066 0023     		movs	r3, #0
 863 0068 7B61     		str	r3, [r7, #20]
 864 006a 274B     		ldr	r3, .L77
 865 006c DB69     		ldr	r3, [r3, #28]
 866 006e FB60     		str	r3, [r7, #12]
 867 0070 05E0     		b	.L68
 868              	.L69:
 869 0072 7B69     		ldr	r3, [r7, #20]
 870 0074 0133     		adds	r3, r3, #1
 871 0076 7B61     		str	r3, [r7, #20]
 872 0078 FB68     		ldr	r3, [r7, #12]
 873 007a 1B68     		ldr	r3, [r3]
 874 007c FB60     		str	r3, [r7, #12]
 875              	.L68:
 876 007e FB68     		ldr	r3, [r7, #12]
 877 0080 224A     		ldr	r2, .L77+4
 878 0082 9342     		cmp	r3, r2
 879 0084 F5D1     		bne	.L69
 880 0086 204B     		ldr	r3, .L77
 881 0088 1B6A     		ldr	r3, [r3, #32]
 882 008a FB60     		str	r3, [r7, #12]
 883 008c 05E0     		b	.L70
 884              	.L71:
 885 008e 7B69     		ldr	r3, [r7, #20]
 886 0090 013B     		subs	r3, r3, #1
 887 0092 7B61     		str	r3, [r7, #20]
 888 0094 FB68     		ldr	r3, [r7, #12]
 889 0096 5B68     		ldr	r3, [r3, #4]
 890 0098 FB60     		str	r3, [r7, #12]
 891              	.L70:
 892 009a FB68     		ldr	r3, [r7, #12]
 893 009c 1B4A     		ldr	r2, .L77+4
 894 009e 9342     		cmp	r3, r2
 895 00a0 F5D1     		bne	.L71
 896 00a2 7B69     		ldr	r3, [r7, #20]
 897 00a4 002B     		cmp	r3, #0
 898 00a6 01D0     		beq	.L67
 899 00a8 0123     		movs	r3, #1
 900 00aa 28E0     		b	.L66
 901              	.L67:
 902 00ac 7B68     		ldr	r3, [r7, #4]
 903 00ae 03F00403 		and	r3, r3, #4
 904 00b2 002B     		cmp	r3, #0
 905 00b4 22D0     		beq	.L72
 906 00b6 0023     		movs	r3, #0
 907 00b8 7B61     		str	r3, [r7, #20]
 908 00ba 134B     		ldr	r3, .L77
 909 00bc 1B69     		ldr	r3, [r3, #16]
 910 00be BB60     		str	r3, [r7, #8]
 911 00c0 05E0     		b	.L73
ARM GAS  /var/folders/d2/nstgp4h54kz7g1l847x_b8wc0000gn/T//ccJ52CnO.s 			page 17


 912              	.L74:
 913 00c2 7B69     		ldr	r3, [r7, #20]
 914 00c4 0133     		adds	r3, r3, #1
 915 00c6 7B61     		str	r3, [r7, #20]
 916 00c8 BB68     		ldr	r3, [r7, #8]
 917 00ca 1B69     		ldr	r3, [r3, #16]
 918 00cc BB60     		str	r3, [r7, #8]
 919              	.L73:
 920 00ce BB68     		ldr	r3, [r7, #8]
 921 00d0 0D4A     		ldr	r2, .L77
 922 00d2 9342     		cmp	r3, r2
 923 00d4 F5D1     		bne	.L74
 924 00d6 0C4B     		ldr	r3, .L77
 925 00d8 5B69     		ldr	r3, [r3, #20]
 926 00da BB60     		str	r3, [r7, #8]
 927 00dc 05E0     		b	.L75
 928              	.L76:
 929 00de 7B69     		ldr	r3, [r7, #20]
 930 00e0 013B     		subs	r3, r3, #1
 931 00e2 7B61     		str	r3, [r7, #20]
 932 00e4 BB68     		ldr	r3, [r7, #8]
 933 00e6 5B69     		ldr	r3, [r3, #20]
 934 00e8 BB60     		str	r3, [r7, #8]
 935              	.L75:
 936 00ea BB68     		ldr	r3, [r7, #8]
 937 00ec 064A     		ldr	r2, .L77
 938 00ee 9342     		cmp	r3, r2
 939 00f0 F5D1     		bne	.L76
 940 00f2 7B69     		ldr	r3, [r7, #20]
 941 00f4 002B     		cmp	r3, #0
 942 00f6 01D0     		beq	.L72
 943 00f8 0123     		movs	r3, #1
 944 00fa 00E0     		b	.L66
 945              	.L72:
 946 00fc 0023     		movs	r3, #0
 947              	.L66:
 948 00fe 1846     		mov	r0, r3
 949 0100 1837     		adds	r7, r7, #24
 950 0102 BD46     		mov	sp, r7
 951              		@ sp needed
 952 0104 80BD     		pop	{r7, pc}
 953              	.L78:
 954 0106 00BF     		.align	2
 955              	.L77:
 956 0108 00000000 		.word	ch
 957 010c 1C000000 		.word	ch+28
 958              		.size	chSysIntegrityCheckI, .-chSysIntegrityCheckI
 959              		.section	.text.chSysTimerHandlerI,"ax",%progbits
 960              		.align	1
 961              		.global	chSysTimerHandlerI
 962              		.syntax unified
 963              		.thumb
 964              		.thumb_func
 965              		.fpu fpv4-sp-d16
 966              		.type	chSysTimerHandlerI, %function
 967              	chSysTimerHandlerI:
 968              		@ args = 0, pretend = 0, frame = 0
ARM GAS  /var/folders/d2/nstgp4h54kz7g1l847x_b8wc0000gn/T//ccJ52CnO.s 			page 18


 969              		@ frame_needed = 1, uses_anonymous_args = 0
 970 0000 80B5     		push	{r7, lr}
 971 0002 00AF     		add	r7, sp, #0
 972 0004 FFF7FEFF 		bl	chDbgCheckClassI
 973 0008 0B4B     		ldr	r3, .L81
 974 000a 9B69     		ldr	r3, [r3, #24]
 975 000c 93F82330 		ldrb	r3, [r3, #35]	@ zero_extendqisi2
 976 0010 002B     		cmp	r3, #0
 977 0012 07D0     		beq	.L80
 978 0014 084B     		ldr	r3, .L81
 979 0016 9B69     		ldr	r3, [r3, #24]
 980 0018 93F82320 		ldrb	r2, [r3, #35]	@ zero_extendqisi2
 981 001c 013A     		subs	r2, r2, #1
 982 001e D2B2     		uxtb	r2, r2
 983 0020 83F82320 		strb	r2, [r3, #35]
 984              	.L80:
 985 0024 044B     		ldr	r3, .L81
 986 0026 9B69     		ldr	r3, [r3, #24]
 987 0028 5A6A     		ldr	r2, [r3, #36]
 988 002a 0132     		adds	r2, r2, #1
 989 002c 5A62     		str	r2, [r3, #36]
 990 002e FFF7FEFF 		bl	chVTDoTickI
 991 0032 00BF     		nop
 992 0034 80BD     		pop	{r7, pc}
 993              	.L82:
 994 0036 00BF     		.align	2
 995              	.L81:
 996 0038 00000000 		.word	ch
 997              		.size	chSysTimerHandlerI, .-chSysTimerHandlerI
 998              		.section	.text.chSysGetStatusAndLockX,"ax",%progbits
 999              		.align	1
 1000              		.global	chSysGetStatusAndLockX
 1001              		.syntax unified
 1002              		.thumb
 1003              		.thumb_func
 1004              		.fpu fpv4-sp-d16
 1005              		.type	chSysGetStatusAndLockX, %function
 1006              	chSysGetStatusAndLockX:
 1007              		@ args = 0, pretend = 0, frame = 8
 1008              		@ frame_needed = 1, uses_anonymous_args = 0
 1009 0000 80B5     		push	{r7, lr}
 1010 0002 82B0     		sub	sp, sp, #8
 1011 0004 00AF     		add	r7, sp, #0
 1012 0006 FFF7FEFF 		bl	port_get_irq_status
 1013 000a 7860     		str	r0, [r7, #4]
 1014 000c 7868     		ldr	r0, [r7, #4]
 1015 000e FFF7FEFF 		bl	port_irq_enabled
 1016 0012 0346     		mov	r3, r0
 1017 0014 002B     		cmp	r3, #0
 1018 0016 09D0     		beq	.L84
 1019 0018 FFF7FEFF 		bl	port_is_isr_context
 1020 001c 0346     		mov	r3, r0
 1021 001e 002B     		cmp	r3, #0
 1022 0020 02D0     		beq	.L85
 1023 0022 FFF7FEFF 		bl	chSysLockFromISR
 1024 0026 01E0     		b	.L84
 1025              	.L85:
ARM GAS  /var/folders/d2/nstgp4h54kz7g1l847x_b8wc0000gn/T//ccJ52CnO.s 			page 19


 1026 0028 FFF7FEFF 		bl	chSysLock
 1027              	.L84:
 1028 002c 7B68     		ldr	r3, [r7, #4]
 1029 002e 1846     		mov	r0, r3
 1030 0030 0837     		adds	r7, r7, #8
 1031 0032 BD46     		mov	sp, r7
 1032              		@ sp needed
 1033 0034 80BD     		pop	{r7, pc}
 1034              		.size	chSysGetStatusAndLockX, .-chSysGetStatusAndLockX
 1035              		.section	.text.chSysRestoreStatusX,"ax",%progbits
 1036              		.align	1
 1037              		.global	chSysRestoreStatusX
 1038              		.syntax unified
 1039              		.thumb
 1040              		.thumb_func
 1041              		.fpu fpv4-sp-d16
 1042              		.type	chSysRestoreStatusX, %function
 1043              	chSysRestoreStatusX:
 1044              		@ args = 0, pretend = 0, frame = 8
 1045              		@ frame_needed = 1, uses_anonymous_args = 0
 1046 0000 80B5     		push	{r7, lr}
 1047 0002 82B0     		sub	sp, sp, #8
 1048 0004 00AF     		add	r7, sp, #0
 1049 0006 7860     		str	r0, [r7, #4]
 1050 0008 7868     		ldr	r0, [r7, #4]
 1051 000a FFF7FEFF 		bl	port_irq_enabled
 1052 000e 0346     		mov	r3, r0
 1053 0010 002B     		cmp	r3, #0
 1054 0012 0BD0     		beq	.L90
 1055 0014 FFF7FEFF 		bl	port_is_isr_context
 1056 0018 0346     		mov	r3, r0
 1057 001a 002B     		cmp	r3, #0
 1058 001c 02D0     		beq	.L89
 1059 001e FFF7FEFF 		bl	chSysUnlockFromISR
 1060 0022 03E0     		b	.L90
 1061              	.L89:
 1062 0024 FFF7FEFF 		bl	chSchRescheduleS
 1063 0028 FFF7FEFF 		bl	chSysUnlock
 1064              	.L90:
 1065 002c 00BF     		nop
 1066 002e 0837     		adds	r7, r7, #8
 1067 0030 BD46     		mov	sp, r7
 1068              		@ sp needed
 1069 0032 80BD     		pop	{r7, pc}
 1070              		.size	chSysRestoreStatusX, .-chSysRestoreStatusX
 1071              		.section	.text.chSysIsCounterWithinX,"ax",%progbits
 1072              		.align	1
 1073              		.global	chSysIsCounterWithinX
 1074              		.syntax unified
 1075              		.thumb
 1076              		.thumb_func
 1077              		.fpu fpv4-sp-d16
 1078              		.type	chSysIsCounterWithinX, %function
 1079              	chSysIsCounterWithinX:
 1080              		@ args = 0, pretend = 0, frame = 16
 1081              		@ frame_needed = 1, uses_anonymous_args = 0
 1082              		@ link register save eliminated.
ARM GAS  /var/folders/d2/nstgp4h54kz7g1l847x_b8wc0000gn/T//ccJ52CnO.s 			page 20


 1083 0000 80B4     		push	{r7}
 1084 0002 85B0     		sub	sp, sp, #20
 1085 0004 00AF     		add	r7, sp, #0
 1086 0006 F860     		str	r0, [r7, #12]
 1087 0008 B960     		str	r1, [r7, #8]
 1088 000a 7A60     		str	r2, [r7, #4]
 1089 000c FA68     		ldr	r2, [r7, #12]
 1090 000e BB68     		ldr	r3, [r7, #8]
 1091 0010 D21A     		subs	r2, r2, r3
 1092 0012 7968     		ldr	r1, [r7, #4]
 1093 0014 BB68     		ldr	r3, [r7, #8]
 1094 0016 CB1A     		subs	r3, r1, r3
 1095 0018 9A42     		cmp	r2, r3
 1096 001a 34BF     		ite	cc
 1097 001c 0123     		movcc	r3, #1
 1098 001e 0023     		movcs	r3, #0
 1099 0020 DBB2     		uxtb	r3, r3
 1100 0022 1846     		mov	r0, r3
 1101 0024 1437     		adds	r7, r7, #20
 1102 0026 BD46     		mov	sp, r7
 1103              		@ sp needed
 1104 0028 5DF8047B 		ldr	r7, [sp], #4
 1105 002c 7047     		bx	lr
 1106              		.size	chSysIsCounterWithinX, .-chSysIsCounterWithinX
 1107              		.section	.text.chSysPolledDelayX,"ax",%progbits
 1108              		.align	1
 1109              		.global	chSysPolledDelayX
 1110              		.syntax unified
 1111              		.thumb
 1112              		.thumb_func
 1113              		.fpu fpv4-sp-d16
 1114              		.type	chSysPolledDelayX, %function
 1115              	chSysPolledDelayX:
 1116              		@ args = 0, pretend = 0, frame = 16
 1117              		@ frame_needed = 1, uses_anonymous_args = 0
 1118 0000 80B5     		push	{r7, lr}
 1119 0002 84B0     		sub	sp, sp, #16
 1120 0004 00AF     		add	r7, sp, #0
 1121 0006 7860     		str	r0, [r7, #4]
 1122 0008 FFF7FEFF 		bl	port_rt_get_counter_value
 1123 000c F860     		str	r0, [r7, #12]
 1124 000e FA68     		ldr	r2, [r7, #12]
 1125 0010 7B68     		ldr	r3, [r7, #4]
 1126 0012 1344     		add	r3, r3, r2
 1127 0014 BB60     		str	r3, [r7, #8]
 1128 0016 00BF     		nop
 1129              	.L94:
 1130 0018 FFF7FEFF 		bl	port_rt_get_counter_value
 1131 001c 0346     		mov	r3, r0
 1132 001e BA68     		ldr	r2, [r7, #8]
 1133 0020 F968     		ldr	r1, [r7, #12]
 1134 0022 1846     		mov	r0, r3
 1135 0024 FFF7FEFF 		bl	chSysIsCounterWithinX
 1136 0028 0346     		mov	r3, r0
 1137 002a 002B     		cmp	r3, #0
 1138 002c F4D1     		bne	.L94
 1139 002e 00BF     		nop
ARM GAS  /var/folders/d2/nstgp4h54kz7g1l847x_b8wc0000gn/T//ccJ52CnO.s 			page 21


 1140 0030 1037     		adds	r7, r7, #16
 1141 0032 BD46     		mov	sp, r7
 1142              		@ sp needed
 1143 0034 80BD     		pop	{r7, pc}
 1144              		.size	chSysPolledDelayX, .-chSysPolledDelayX
 1145              		.section	.rodata.__func__.7153,"a",%progbits
 1146              		.align	2
 1147              		.type	__func__.7153, %object
 1148              		.size	__func__.7153, 12
 1149              	__func__.7153:
 1150 0000 63685379 		.ascii	"chSysUnlock\000"
 1150      73556E6C 
 1150      6F636B00 
 1151              		.ident	"GCC: (GNU Tools for Arm Embedded Processors 7-2017-q4-major) 7.2.1 20170904 (release) [ARM
ARM GAS  /var/folders/d2/nstgp4h54kz7g1l847x_b8wc0000gn/T//ccJ52CnO.s 			page 22

