ARM GAS  /var/folders/d2/nstgp4h54kz7g1l847x_b8wc0000gn/T//ccnMLvUn.s 			page 1


   1              		.cpu cortex-m4
   2              		.eabi_attribute 27, 1
   3              		.eabi_attribute 28, 1
   4              		.eabi_attribute 20, 1
   5              		.eabi_attribute 21, 1
   6              		.eabi_attribute 23, 3
   7              		.eabi_attribute 24, 1
   8              		.eabi_attribute 25, 1
   9              		.eabi_attribute 26, 1
  10              		.eabi_attribute 30, 2
  11              		.eabi_attribute 34, 1
  12              		.eabi_attribute 18, 4
  13              		.file	"chthreads.c"
  14              		.text
  15              	.Ltext0:
  16              		.cfi_sections	.debug_frame
  17              		.section	.text._thread_init,"ax",%progbits
  18              		.align	1
  19              		.p2align 4,,15
  20              		.global	_thread_init
  21              		.syntax unified
  22              		.thumb
  23              		.thumb_func
  24              		.fpu fpv4-sp-d16
  25              		.type	_thread_init, %function
  26              	_thread_init:
  27              	.LFB219:
  28              		.file 1 "../e-puck2_main-processor/ChibiOS//os/rt/src/chthreads.c"
  29              		.loc 1 91 0
  30              		.cfi_startproc
  31              		@ args = 0, pretend = 0, frame = 8
  32              		@ frame_needed = 0, uses_anonymous_args = 0
  33              	.LVL0:
  34 0000 F0B5     		push	{r4, r5, r6, r7, lr}
  35              		.cfi_def_cfa_offset 20
  36              		.cfi_offset 4, -20
  37              		.cfi_offset 5, -16
  38              		.cfi_offset 6, -12
  39              		.cfi_offset 7, -8
  40              		.cfi_offset 14, -4
  41              		.loc 1 114 0
  42 0002 1A4A     		ldr	r2, .L6
  43              		.loc 1 91 0
  44 0004 1A4D     		ldr	r5, .L6+4
  45              		.loc 1 114 0
  46 0006 0261     		str	r2, [r0, #16]
  47              		.loc 1 91 0
  48 0008 0446     		mov	r4, r0
  49              		.loc 1 93 0
  50 000a 8160     		str	r1, [r0, #8]
  51              		.loc 1 91 0
  52 000c 83B0     		sub	sp, sp, #12
  53              		.cfi_def_cfa_offset 32
  54              		.loc 1 97 0
  55 000e 1423     		movs	r3, #20
  56              		.loc 1 114 0
  57 0010 5069     		ldr	r0, [r2, #20]
ARM GAS  /var/folders/d2/nstgp4h54kz7g1l847x_b8wc0000gn/T//ccnMLvUn.s 			page 2


  58              	.LVL1:
  59              		.loc 1 91 0
  60 0012 2E68     		ldr	r6, [r5]
  61              		.loc 1 100 0
  62 0014 6164     		str	r1, [r4, #68]
  63              		.loc 1 97 0
  64 0016 84F82330 		strb	r3, [r4, #35]
  65              		.loc 1 94 0
  66 001a 0227     		movs	r7, #2
  67              		.loc 1 101 0
  68 001c 0023     		movs	r3, #0
  69              		.loc 1 110 0
  70 001e 0121     		movs	r1, #1
  71              	.LVL2:
  72              		.loc 1 94 0
  73 0020 2784     		strh	r7, [r4, #32]	@ movhi
  74              		.loc 1 110 0
  75 0022 84F82210 		strb	r1, [r4, #34]
  76              		.loc 1 104 0
  77 0026 C4E90F33 		strd	r3, r3, [r4, #60]
  78              		.loc 1 123 0
  79 002a 04F16801 		add	r1, r4, #104
  80              		.loc 1 113 0
  81 002e A361     		str	r3, [r4, #24]
  82              		.loc 1 91 0
  83 0030 0196     		str	r6, [sp, #4]
  84              		.loc 1 117 0
  85 0032 04F12C07 		add	r7, r4, #44
  86              		.loc 1 107 0
  87 0036 6362     		str	r3, [r4, #36]
  88              		.loc 1 126 0
  89 0038 04F15006 		add	r6, r4, #80
  90              		.loc 1 120 0
  91 003c 04F13003 		add	r3, r4, #48
  92              		.loc 1 114 0
  93 0040 6061     		str	r0, [r4, #20]
  94 0042 0461     		str	r4, [r0, #16]
  95              	.LVL3:
  96              	.LBB107:
  97              	.LBB108:
  98              		.file 2 "../e-puck2_main-processor/ChibiOS//os/rt/include/chschd.h"
  99              		.loc 2 605 0
 100 0044 C4E90C33 		strd	r3, r3, [r4, #48]
 101              	.LBE108:
 102              	.LBE107:
 103              		.loc 1 123 0
 104 0048 E161     		str	r1, [r4, #28]
 105              		.loc 1 126 0
 106 004a 3046     		mov	r0, r6
 107              	.LBB109:
 108              	.LBB110:
 109              		.loc 2 566 0
 110 004c E762     		str	r7, [r4, #44]
 111              	.LBE110:
 112              	.LBE109:
 113              		.loc 1 114 0
 114 004e 5461     		str	r4, [r2, #20]
ARM GAS  /var/folders/d2/nstgp4h54kz7g1l847x_b8wc0000gn/T//ccnMLvUn.s 			page 3


 115              		.loc 1 126 0
 116 0050 FFF7FEFF 		bl	chTMObjectInit
 117              	.LVL4:
 118              		.loc 1 127 0
 119 0054 3046     		mov	r0, r6
 120 0056 FFF7FEFF 		bl	chTMStartMeasurementX
 121              	.LVL5:
 122              		.loc 1 133 0
 123 005a 019A     		ldr	r2, [sp, #4]
 124 005c 2B68     		ldr	r3, [r5]
 125 005e 9A42     		cmp	r2, r3
 126 0060 02D1     		bne	.L5
 127 0062 2046     		mov	r0, r4
 128 0064 03B0     		add	sp, sp, #12
 129              		.cfi_remember_state
 130              		.cfi_def_cfa_offset 20
 131              		@ sp needed
 132 0066 F0BD     		pop	{r4, r5, r6, r7, pc}
 133              	.LVL6:
 134              	.L5:
 135              		.cfi_restore_state
 136 0068 FFF7FEFF 		bl	__stack_chk_fail
 137              	.LVL7:
 138              	.L7:
 139              		.align	2
 140              	.L6:
 141 006c 00000000 		.word	ch
 142 0070 00000000 		.word	__stack_chk_guard
 143              		.cfi_endproc
 144              	.LFE219:
 145              		.size	_thread_init, .-_thread_init
 146              		.section	.text._thread_memfill,"ax",%progbits
 147              		.align	1
 148              		.p2align 4,,15
 149              		.global	_thread_memfill
 150              		.syntax unified
 151              		.thumb
 152              		.thumb_func
 153              		.fpu fpv4-sp-d16
 154              		.type	_thread_memfill, %function
 155              	_thread_memfill:
 156              	.LFB220:
 157              		.loc 1 145 0
 158              		.cfi_startproc
 159              		@ args = 0, pretend = 0, frame = 8
 160              		@ frame_needed = 0, uses_anonymous_args = 0
 161              	.LVL8:
 162 0000 10B5     		push	{r4, lr}
 163              		.cfi_def_cfa_offset 8
 164              		.cfi_offset 4, -8
 165              		.cfi_offset 14, -4
 166 0002 094B     		ldr	r3, .L15
 167 0004 82B0     		sub	sp, sp, #8
 168              		.cfi_def_cfa_offset 16
 169              		.loc 1 145 0
 170 0006 1C68     		ldr	r4, [r3]
 171 0008 0194     		str	r4, [sp, #4]
ARM GAS  /var/folders/d2/nstgp4h54kz7g1l847x_b8wc0000gn/T//ccnMLvUn.s 			page 4


 172              		.loc 1 147 0
 173 000a 8842     		cmp	r0, r1
 174 000c 03D2     		bcs	.L8
 175              	.L10:
 176              		.loc 1 148 0
 177 000e 00F8012B 		strb	r2, [r0], #1
 178              	.LVL9:
 179              		.loc 1 147 0
 180 0012 8142     		cmp	r1, r0
 181 0014 FBD1     		bne	.L10
 182              	.L8:
 183              		.loc 1 150 0
 184 0016 019A     		ldr	r2, [sp, #4]
 185              	.LVL10:
 186 0018 1B68     		ldr	r3, [r3]
 187 001a 9A42     		cmp	r2, r3
 188 001c 01D1     		bne	.L14
 189 001e 02B0     		add	sp, sp, #8
 190              		.cfi_remember_state
 191              		.cfi_def_cfa_offset 8
 192              		@ sp needed
 193 0020 10BD     		pop	{r4, pc}
 194              	.L14:
 195              		.cfi_restore_state
 196 0022 FFF7FEFF 		bl	__stack_chk_fail
 197              	.LVL11:
 198              	.L16:
 199 0026 00BF     		.align	2
 200              	.L15:
 201 0028 00000000 		.word	__stack_chk_guard
 202              		.cfi_endproc
 203              	.LFE220:
 204              		.size	_thread_memfill, .-_thread_memfill
 205              		.section	.text.chThdCreateI,"ax",%progbits
 206              		.align	1
 207              		.p2align 4,,15
 208              		.global	chThdCreateI
 209              		.syntax unified
 210              		.thumb
 211              		.thumb_func
 212              		.fpu fpv4-sp-d16
 213              		.type	chThdCreateI, %function
 214              	chThdCreateI:
 215              	.LFB221:
 216              		.loc 1 178 0
 217              		.cfi_startproc
 218              		@ args = 4, pretend = 0, frame = 8
 219              		@ frame_needed = 0, uses_anonymous_args = 0
 220              	.LVL12:
 221 0000 2DE9F043 		push	{r4, r5, r6, r7, r8, r9, lr}
 222              		.cfi_def_cfa_offset 28
 223              		.cfi_offset 4, -28
 224              		.cfi_offset 5, -24
 225              		.cfi_offset 6, -20
 226              		.cfi_offset 7, -16
 227              		.cfi_offset 8, -12
 228              		.cfi_offset 9, -8
ARM GAS  /var/folders/d2/nstgp4h54kz7g1l847x_b8wc0000gn/T//ccnMLvUn.s 			page 5


 229              		.cfi_offset 14, -4
 230 0004 184E     		ldr	r6, .L28
 231 0006 83B0     		sub	sp, sp, #12
 232              		.cfi_def_cfa_offset 40
 233              		.loc 1 178 0
 234 0008 3468     		ldr	r4, [r6]
 235 000a 0194     		str	r4, [sp, #4]
 236 000c 0546     		mov	r5, r0
 237              	.LVL13:
 238 000e DDF82890 		ldr	r9, [sp, #40]
 239 0012 0C46     		mov	r4, r1
 240 0014 1746     		mov	r7, r2
 241 0016 9846     		mov	r8, r3
 242              		.loc 1 183 0
 243 0018 FFF7FEFF 		bl	chDbgCheckClassI
 244              	.LVL14:
 245              		.loc 1 184 0
 246 001c 15B1     		cbz	r5, .L18
 247              		.loc 1 184 0 is_stmt 0 discriminator 3
 248 001e B4F5BC7F 		cmp	r4, #376
 249 0022 19D2     		bcs	.L26
 250              	.L18:
 251              		.loc 1 184 0 discriminator 8
 252 0024 1148     		ldr	r0, .L28+4
 253 0026 FFF7FEFF 		bl	chSysHalt
 254              	.LVL15:
 255              	.L19:
 256              		.loc 1 187 0 is_stmt 1
 257 002a A4F16401 		sub	r1, r4, #100
 258 002e 2944     		add	r1, r1, r5
 259 0030 E960     		str	r1, [r5, #12]
 260 0032 C1F84080 		str	r8, [r1, #64]
 261 0036 EB68     		ldr	r3, [r5, #12]
 262              		.loc 1 189 0
 263 0038 019A     		ldr	r2, [sp, #4]
 264              		.loc 1 187 0
 265 003a C3F84490 		str	r9, [r3, #68]
 266              		.loc 1 189 0
 267 003e 3368     		ldr	r3, [r6]
 268              		.loc 1 187 0
 269 0040 E968     		ldr	r1, [r5, #12]
 270 0042 0B48     		ldr	r0, .L28+8
 271 0044 0866     		str	r0, [r1, #96]
 272              		.loc 1 189 0
 273 0046 9A42     		cmp	r2, r3
 274 0048 0CD1     		bne	.L27
 275 004a 3946     		mov	r1, r7
 276 004c 2846     		mov	r0, r5
 277              		.loc 1 190 0
 278 004e 03B0     		add	sp, sp, #12
 279              		.cfi_remember_state
 280              		.cfi_def_cfa_offset 28
 281              		@ sp needed
 282 0050 BDE8F043 		pop	{r4, r5, r6, r7, r8, r9, lr}
 283              		.cfi_restore 14
 284              		.cfi_restore 9
 285              		.cfi_restore 8
ARM GAS  /var/folders/d2/nstgp4h54kz7g1l847x_b8wc0000gn/T//ccnMLvUn.s 			page 6


 286              		.cfi_restore 7
 287              		.cfi_restore 6
 288              		.cfi_restore 5
 289              		.cfi_restore 4
 290              		.cfi_def_cfa_offset 0
 291              	.LVL16:
 292              		.loc 1 189 0
 293 0054 FFF7FEBF 		b	_thread_init
 294              	.LVL17:
 295              	.L26:
 296              		.cfi_restore_state
 297              		.loc 1 184 0 discriminator 5
 298 0058 7F2F     		cmp	r7, #127
 299 005a E3D8     		bhi	.L18
 300              		.loc 1 184 0 is_stmt 0 discriminator 7
 301 005c B8F1000F 		cmp	r8, #0
 302 0060 E3D1     		bne	.L19
 303 0062 DFE7     		b	.L18
 304              	.L27:
 305              		.loc 1 189 0 is_stmt 1
 306 0064 FFF7FEFF 		bl	__stack_chk_fail
 307              	.LVL18:
 308              	.L29:
 309              		.align	2
 310              	.L28:
 311 0068 00000000 		.word	__stack_chk_guard
 312 006c 00000000 		.word	.LANCHOR0
 313 0070 00000000 		.word	_port_thread_start
 314              		.cfi_endproc
 315              	.LFE221:
 316              		.size	chThdCreateI, .-chThdCreateI
 317              		.section	.text.chThdCreateStatic,"ax",%progbits
 318              		.align	1
 319              		.p2align 4,,15
 320              		.global	chThdCreateStatic
 321              		.syntax unified
 322              		.thumb
 323              		.thumb_func
 324              		.fpu fpv4-sp-d16
 325              		.type	chThdCreateStatic, %function
 326              	chThdCreateStatic:
 327              	.LFB222:
 328              		.loc 1 209 0
 329              		.cfi_startproc
 330              		@ args = 4, pretend = 0, frame = 16
 331              		@ frame_needed = 0, uses_anonymous_args = 0
 332              	.LVL19:
 333 0000 2DE9F04F 		push	{r4, r5, r6, r7, r8, r9, r10, fp, lr}
 334              		.cfi_def_cfa_offset 36
 335              		.cfi_offset 4, -36
 336              		.cfi_offset 5, -32
 337              		.cfi_offset 6, -28
 338              		.cfi_offset 7, -24
 339              		.cfi_offset 8, -20
 340              		.cfi_offset 9, -16
 341              		.cfi_offset 10, -12
 342              		.cfi_offset 11, -8
ARM GAS  /var/folders/d2/nstgp4h54kz7g1l847x_b8wc0000gn/T//ccnMLvUn.s 			page 7


 343              		.cfi_offset 14, -4
 344 0004 DFF8A480 		ldr	r8, .L41+8
 345 0008 87B0     		sub	sp, sp, #28
 346              		.cfi_def_cfa_offset 64
 347              		.loc 1 209 0
 348 000a D8F80040 		ldr	r4, [r8]
 349 000e DDF84090 		ldr	r9, [sp, #64]
 350 0012 0594     		str	r4, [sp, #20]
 351 0014 0746     		mov	r7, r0
 352 0016 8A46     		mov	r10, r1
 353 0018 9346     		mov	fp, r2
 354              		.loc 1 213 0
 355 001a 00F16806 		add	r6, r0, #104
 356              	.LVL20:
 357 001e 0446     		mov	r4, r0
 358              	.LBB125:
 359              	.LBB126:
 360              		.loc 1 148 0
 361 0020 FF25     		movs	r5, #255
 362              	.LVL21:
 363              	.L31:
 364 0022 04F8015B 		strb	r5, [r4], #1
 365              	.LVL22:
 366              		.loc 1 147 0
 367 0026 A642     		cmp	r6, r4
 368 0028 FBD1     		bne	.L31
 369              	.LVL23:
 370              	.LBE126:
 371              	.LBE125:
 372              		.loc 1 216 0
 373 002a 07EB0A05 		add	r5, r7, r10
 374              	.LVL24:
 375              	.LBB127:
 376              	.LBB128:
 377              		.loc 1 147 0
 378 002e A542     		cmp	r5, r4
 379 0030 04D9     		bls	.L32
 380              		.loc 1 148 0
 381 0032 5526     		movs	r6, #85
 382              	.L33:
 383 0034 04F8016B 		strb	r6, [r4], #1
 384              	.LVL25:
 385              		.loc 1 147 0
 386 0038 A542     		cmp	r5, r4
 387 003a FBD1     		bne	.L33
 388              	.L32:
 389 003c 0393     		str	r3, [sp, #12]
 390              	.LVL26:
 391              	.LBE128:
 392              	.LBE127:
 393              	.LBB129:
 394              	.LBB130:
 395              	.LBB131:
 396              	.LBB132:
 397              	.LBB133:
 398              		.file 3 "../e-puck2_main-processor/ChibiOS//os/ext/CMSIS/include/core_cmFunc.h"
 399              		.loc 3 546 0
ARM GAS  /var/folders/d2/nstgp4h54kz7g1l847x_b8wc0000gn/T//ccnMLvUn.s 			page 8


 400 003e 2022     		movs	r2, #32
 401              	.LVL27:
 402              		.syntax unified
 403              	@ 546 "../e-puck2_main-processor/ChibiOS//os/ext/CMSIS/include/core_cmFunc.h" 1
 404 0040 82F31188 		MSR basepri, r2
 405              	@ 0 "" 2
 406              	.LVL28:
 407              		.thumb
 408              		.syntax unified
 409              	.LBE133:
 410              	.LBE132:
 411              	.LBE131:
 412              		.file 4 "../e-puck2_main-processor/ChibiOS//os/rt/include/chsys.h"
 413              		.loc 4 349 0
 414 0044 FFF7FEFF 		bl	_stats_start_measure_crit_thd
 415              	.LVL29:
 416              		.loc 4 350 0
 417 0048 FFF7FEFF 		bl	_dbg_check_lock
 418              	.LVL30:
 419              	.LBE130:
 420              	.LBE129:
 421              		.loc 1 222 0
 422 004c 039B     		ldr	r3, [sp, #12]
 423 004e CDF80090 		str	r9, [sp]
 424 0052 5A46     		mov	r2, fp
 425 0054 5146     		mov	r1, r10
 426 0056 3846     		mov	r0, r7
 427 0058 FFF7FEFF 		bl	chThdCreateI
 428              	.LVL31:
 429              		.loc 1 223 0
 430 005c 0021     		movs	r1, #0
 431              		.loc 1 222 0
 432 005e 0446     		mov	r4, r0
 433              	.LVL32:
 434              		.loc 1 223 0
 435 0060 FFF7FEFF 		bl	chSchWakeupS
 436              	.LVL33:
 437              	.LBB134:
 438              	.LBB135:
 439              		.loc 4 360 0
 440 0064 FFF7FEFF 		bl	_dbg_check_unlock
 441              	.LVL34:
 442              		.loc 4 361 0
 443 0068 FFF7FEFF 		bl	_stats_stop_measure_crit_thd
 444              	.LVL35:
 445              		.loc 4 367 0
 446 006c 0D4B     		ldr	r3, .L41
 447 006e 1A68     		ldr	r2, [r3]
 448 0070 9A42     		cmp	r2, r3
 449 0072 04D0     		beq	.L34
 450 0074 9969     		ldr	r1, [r3, #24]
 451 0076 9368     		ldr	r3, [r2, #8]
 452 0078 8A68     		ldr	r2, [r1, #8]
 453 007a 9A42     		cmp	r2, r3
 454 007c 0BD3     		bcc	.L39
 455              	.L34:
 456              	.LVL36:
ARM GAS  /var/folders/d2/nstgp4h54kz7g1l847x_b8wc0000gn/T//ccnMLvUn.s 			page 9


 457              	.LBB136:
 458              	.LBB137:
 459              	.LBB138:
 460              		.loc 3 546 0
 461 007e 0023     		movs	r3, #0
 462              		.syntax unified
 463              	@ 546 "../e-puck2_main-processor/ChibiOS//os/ext/CMSIS/include/core_cmFunc.h" 1
 464 0080 83F31188 		MSR basepri, r3
 465              	@ 0 "" 2
 466              	.LVL37:
 467              		.thumb
 468              		.syntax unified
 469              	.LBE138:
 470              	.LBE137:
 471              	.LBE136:
 472              	.LBE135:
 473              	.LBE134:
 474              		.loc 1 227 0
 475 0084 059A     		ldr	r2, [sp, #20]
 476 0086 D8F80030 		ldr	r3, [r8]
 477 008a 9A42     		cmp	r2, r3
 478 008c 2046     		mov	r0, r4
 479 008e 06D1     		bne	.L40
 480              	.LVL38:
 481 0090 07B0     		add	sp, sp, #28
 482              		.cfi_remember_state
 483              		.cfi_def_cfa_offset 36
 484              		@ sp needed
 485 0092 BDE8F08F 		pop	{r4, r5, r6, r7, r8, r9, r10, fp, pc}
 486              	.LVL39:
 487              	.L39:
 488              		.cfi_restore_state
 489              	.LBB140:
 490              	.LBB139:
 491              		.loc 4 367 0
 492 0096 0448     		ldr	r0, .L41+4
 493 0098 FFF7FEFF 		bl	chSysHalt
 494              	.LVL40:
 495 009c EFE7     		b	.L34
 496              	.LVL41:
 497              	.L40:
 498              	.LBE139:
 499              	.LBE140:
 500              		.loc 1 227 0
 501 009e FFF7FEFF 		bl	__stack_chk_fail
 502              	.LVL42:
 503              	.L42:
 504 00a2 00BF     		.align	2
 505              	.L41:
 506 00a4 00000000 		.word	ch
 507 00a8 00000000 		.word	.LANCHOR1
 508 00ac 00000000 		.word	__stack_chk_guard
 509              		.cfi_endproc
 510              	.LFE222:
 511              		.size	chThdCreateStatic, .-chThdCreateStatic
 512              		.section	.text.chThdStart,"ax",%progbits
 513              		.align	1
ARM GAS  /var/folders/d2/nstgp4h54kz7g1l847x_b8wc0000gn/T//ccnMLvUn.s 			page 10


 514              		.p2align 4,,15
 515              		.global	chThdStart
 516              		.syntax unified
 517              		.thumb
 518              		.thumb_func
 519              		.fpu fpv4-sp-d16
 520              		.type	chThdStart, %function
 521              	chThdStart:
 522              	.LFB223:
 523              		.loc 1 238 0
 524              		.cfi_startproc
 525              		@ args = 0, pretend = 0, frame = 8
 526              		@ frame_needed = 0, uses_anonymous_args = 0
 527              	.LVL43:
 528 0000 30B5     		push	{r4, r5, lr}
 529              		.cfi_def_cfa_offset 12
 530              		.cfi_offset 4, -12
 531              		.cfi_offset 5, -8
 532              		.cfi_offset 14, -4
 533 0002 1A4C     		ldr	r4, .L53
 534 0004 83B0     		sub	sp, sp, #12
 535              		.cfi_def_cfa_offset 24
 536              		.loc 1 238 0
 537 0006 2368     		ldr	r3, [r4]
 538 0008 0193     		str	r3, [sp, #4]
 539              	.LVL44:
 540 000a 0546     		mov	r5, r0
 541              	.LBB153:
 542              	.LBB154:
 543              	.LBB155:
 544              	.LBB156:
 545              	.LBB157:
 546              		.loc 3 546 0
 547 000c 2023     		movs	r3, #32
 548              		.syntax unified
 549              	@ 546 "../e-puck2_main-processor/ChibiOS//os/ext/CMSIS/include/core_cmFunc.h" 1
 550 000e 83F31188 		MSR basepri, r3
 551              	@ 0 "" 2
 552              	.LVL45:
 553              		.thumb
 554              		.syntax unified
 555              	.LBE157:
 556              	.LBE156:
 557              	.LBE155:
 558              		.loc 4 349 0
 559 0012 FFF7FEFF 		bl	_stats_start_measure_crit_thd
 560              	.LVL46:
 561              		.loc 4 350 0
 562 0016 FFF7FEFF 		bl	_dbg_check_lock
 563              	.LVL47:
 564              	.LBE154:
 565              	.LBE153:
 566              	.LBB158:
 567              	.LBB159:
 568              		.file 5 "../e-puck2_main-processor/ChibiOS//os/rt/include/chthreads.h"
 569              		.loc 5 247 0
 570 001a 95F82030 		ldrb	r3, [r5, #32]	@ zero_extendqisi2
ARM GAS  /var/folders/d2/nstgp4h54kz7g1l847x_b8wc0000gn/T//ccnMLvUn.s 			page 11


 571 001e 022B     		cmp	r3, #2
 572 0020 02D0     		beq	.L44
 573 0022 1348     		ldr	r0, .L53+4
 574 0024 FFF7FEFF 		bl	chSysHalt
 575              	.LVL48:
 576              	.L44:
 577              		.loc 5 249 0
 578 0028 2846     		mov	r0, r5
 579 002a FFF7FEFF 		bl	chSchReadyI
 580              	.LVL49:
 581 002e 0546     		mov	r5, r0
 582              	.LVL50:
 583              	.LBE159:
 584              	.LBE158:
 585              	.LBB160:
 586              	.LBB161:
 587              		.loc 4 360 0
 588 0030 FFF7FEFF 		bl	_dbg_check_unlock
 589              	.LVL51:
 590              		.loc 4 361 0
 591 0034 FFF7FEFF 		bl	_stats_stop_measure_crit_thd
 592              	.LVL52:
 593              		.loc 4 367 0
 594 0038 0E4B     		ldr	r3, .L53+8
 595 003a 1A68     		ldr	r2, [r3]
 596 003c 9A42     		cmp	r2, r3
 597 003e 04D0     		beq	.L45
 598 0040 9969     		ldr	r1, [r3, #24]
 599 0042 9368     		ldr	r3, [r2, #8]
 600 0044 8A68     		ldr	r2, [r1, #8]
 601 0046 9A42     		cmp	r2, r3
 602 0048 09D3     		bcc	.L51
 603              	.L45:
 604              	.LVL53:
 605              	.LBB162:
 606              	.LBB163:
 607              	.LBB164:
 608              		.loc 3 546 0
 609 004a 0023     		movs	r3, #0
 610              		.syntax unified
 611              	@ 546 "../e-puck2_main-processor/ChibiOS//os/ext/CMSIS/include/core_cmFunc.h" 1
 612 004c 83F31188 		MSR basepri, r3
 613              	@ 0 "" 2
 614              	.LVL54:
 615              		.thumb
 616              		.syntax unified
 617              	.LBE164:
 618              	.LBE163:
 619              	.LBE162:
 620              	.LBE161:
 621              	.LBE160:
 622              		.loc 1 245 0
 623 0050 019A     		ldr	r2, [sp, #4]
 624 0052 2368     		ldr	r3, [r4]
 625 0054 9A42     		cmp	r2, r3
 626 0056 2846     		mov	r0, r5
 627 0058 05D1     		bne	.L52
ARM GAS  /var/folders/d2/nstgp4h54kz7g1l847x_b8wc0000gn/T//ccnMLvUn.s 			page 12


 628 005a 03B0     		add	sp, sp, #12
 629              		.cfi_remember_state
 630              		.cfi_def_cfa_offset 12
 631              		@ sp needed
 632 005c 30BD     		pop	{r4, r5, pc}
 633              	.L51:
 634              		.cfi_restore_state
 635              	.LBB166:
 636              	.LBB165:
 637              		.loc 4 367 0
 638 005e 0648     		ldr	r0, .L53+12
 639 0060 FFF7FEFF 		bl	chSysHalt
 640              	.LVL55:
 641 0064 F1E7     		b	.L45
 642              	.L52:
 643              	.LBE165:
 644              	.LBE166:
 645              		.loc 1 245 0
 646 0066 FFF7FEFF 		bl	__stack_chk_fail
 647              	.LVL56:
 648              	.L54:
 649 006a 00BF     		.align	2
 650              	.L53:
 651 006c 00000000 		.word	__stack_chk_guard
 652 0070 00000000 		.word	.LANCHOR2
 653 0074 00000000 		.word	ch
 654 0078 00000000 		.word	.LANCHOR1
 655              		.cfi_endproc
 656              	.LFE223:
 657              		.size	chThdStart, .-chThdStart
 658              		.section	.text.chThdSetPriority,"ax",%progbits
 659              		.align	1
 660              		.p2align 4,,15
 661              		.global	chThdSetPriority
 662              		.syntax unified
 663              		.thumb
 664              		.thumb_func
 665              		.fpu fpv4-sp-d16
 666              		.type	chThdSetPriority, %function
 667              	chThdSetPriority:
 668              	.LFB224:
 669              		.loc 1 259 0
 670              		.cfi_startproc
 671              		@ args = 0, pretend = 0, frame = 8
 672              		@ frame_needed = 0, uses_anonymous_args = 0
 673              	.LVL57:
 674 0000 F0B5     		push	{r4, r5, r6, r7, lr}
 675              		.cfi_def_cfa_offset 20
 676              		.cfi_offset 4, -20
 677              		.cfi_offset 5, -16
 678              		.cfi_offset 6, -12
 679              		.cfi_offset 7, -8
 680              		.cfi_offset 14, -4
 681 0002 1D4F     		ldr	r7, .L65
 682 0004 83B0     		sub	sp, sp, #12
 683              		.cfi_def_cfa_offset 32
 684              		.loc 1 259 0
ARM GAS  /var/folders/d2/nstgp4h54kz7g1l847x_b8wc0000gn/T//ccnMLvUn.s 			page 13


 685 0006 3B68     		ldr	r3, [r7]
 686 0008 0193     		str	r3, [sp, #4]
 687              		.loc 1 262 0
 688 000a 7F28     		cmp	r0, #127
 689              		.loc 1 259 0
 690 000c 0546     		mov	r5, r0
 691              		.loc 1 262 0
 692 000e 2DD8     		bhi	.L62
 693              	.LVL58:
 694              	.L56:
 695              	.LBB177:
 696              	.LBB178:
 697              	.LBB179:
 698              	.LBB180:
 699              	.LBB181:
 700              		.loc 3 546 0
 701 0010 2023     		movs	r3, #32
 702              		.syntax unified
 703              	@ 546 "../e-puck2_main-processor/ChibiOS//os/ext/CMSIS/include/core_cmFunc.h" 1
 704 0012 83F31188 		MSR basepri, r3
 705              	@ 0 "" 2
 706              	.LVL59:
 707              		.thumb
 708              		.syntax unified
 709              	.LBE181:
 710              	.LBE180:
 711              	.LBE179:
 712              	.LBE178:
 713              	.LBE177:
 714              		.loc 1 266 0
 715 0016 194C     		ldr	r4, .L65+4
 716              	.LBB183:
 717              	.LBB182:
 718              		.loc 4 349 0
 719 0018 FFF7FEFF 		bl	_stats_start_measure_crit_thd
 720              	.LVL60:
 721              		.loc 4 350 0
 722 001c FFF7FEFF 		bl	_dbg_check_lock
 723              	.LVL61:
 724              	.LBE182:
 725              	.LBE183:
 726              		.loc 1 266 0
 727 0020 A369     		ldr	r3, [r4, #24]
 728 0022 5E6C     		ldr	r6, [r3, #68]
 729              	.LVL62:
 730              		.loc 1 267 0
 731 0024 9A68     		ldr	r2, [r3, #8]
 732 0026 B242     		cmp	r2, r6
 733 0028 01D0     		beq	.L57
 734              		.loc 1 267 0 is_stmt 0 discriminator 1
 735 002a AA42     		cmp	r2, r5
 736 002c 01D2     		bcs	.L58
 737              	.L57:
 738              		.loc 1 268 0 is_stmt 1
 739 002e 9D60     		str	r5, [r3, #8]
 740 0030 A369     		ldr	r3, [r4, #24]
 741              	.L58:
ARM GAS  /var/folders/d2/nstgp4h54kz7g1l847x_b8wc0000gn/T//ccnMLvUn.s 			page 14


 742              		.loc 1 270 0
 743 0032 5D64     		str	r5, [r3, #68]
 744              		.loc 1 275 0
 745 0034 FFF7FEFF 		bl	chSchRescheduleS
 746              	.LVL63:
 747              	.LBB184:
 748              	.LBB185:
 749              		.loc 4 360 0
 750 0038 FFF7FEFF 		bl	_dbg_check_unlock
 751              	.LVL64:
 752              		.loc 4 361 0
 753 003c FFF7FEFF 		bl	_stats_stop_measure_crit_thd
 754              	.LVL65:
 755              		.loc 4 367 0
 756 0040 2368     		ldr	r3, [r4]
 757 0042 A342     		cmp	r3, r4
 758 0044 04D0     		beq	.L59
 759 0046 A269     		ldr	r2, [r4, #24]
 760 0048 9B68     		ldr	r3, [r3, #8]
 761 004a 9268     		ldr	r2, [r2, #8]
 762 004c 9A42     		cmp	r2, r3
 763 004e 09D3     		bcc	.L63
 764              	.L59:
 765              	.LVL66:
 766              	.LBB186:
 767              	.LBB187:
 768              	.LBB188:
 769              		.loc 3 546 0
 770 0050 0023     		movs	r3, #0
 771              		.syntax unified
 772              	@ 546 "../e-puck2_main-processor/ChibiOS//os/ext/CMSIS/include/core_cmFunc.h" 1
 773 0052 83F31188 		MSR basepri, r3
 774              	@ 0 "" 2
 775              	.LVL67:
 776              		.thumb
 777              		.syntax unified
 778              	.LBE188:
 779              	.LBE187:
 780              	.LBE186:
 781              	.LBE185:
 782              	.LBE184:
 783              		.loc 1 279 0
 784 0056 019A     		ldr	r2, [sp, #4]
 785 0058 3B68     		ldr	r3, [r7]
 786 005a 9A42     		cmp	r2, r3
 787 005c 3046     		mov	r0, r6
 788 005e 09D1     		bne	.L64
 789              	.LVL68:
 790 0060 03B0     		add	sp, sp, #12
 791              		.cfi_remember_state
 792              		.cfi_def_cfa_offset 20
 793              		@ sp needed
 794 0062 F0BD     		pop	{r4, r5, r6, r7, pc}
 795              	.LVL69:
 796              	.L63:
 797              		.cfi_restore_state
 798              	.LBB190:
ARM GAS  /var/folders/d2/nstgp4h54kz7g1l847x_b8wc0000gn/T//ccnMLvUn.s 			page 15


 799              	.LBB189:
 800              		.loc 4 367 0
 801 0064 0648     		ldr	r0, .L65+8
 802 0066 FFF7FEFF 		bl	chSysHalt
 803              	.LVL70:
 804 006a F1E7     		b	.L59
 805              	.LVL71:
 806              	.L62:
 807              	.LBE189:
 808              	.LBE190:
 809              		.loc 1 262 0 discriminator 2
 810 006c 0548     		ldr	r0, .L65+12
 811              	.LVL72:
 812 006e FFF7FEFF 		bl	chSysHalt
 813              	.LVL73:
 814 0072 CDE7     		b	.L56
 815              	.LVL74:
 816              	.L64:
 817              		.loc 1 279 0
 818 0074 FFF7FEFF 		bl	__stack_chk_fail
 819              	.LVL75:
 820              	.L66:
 821              		.align	2
 822              	.L65:
 823 0078 00000000 		.word	__stack_chk_guard
 824 007c 00000000 		.word	ch
 825 0080 00000000 		.word	.LANCHOR1
 826 0084 00000000 		.word	.LANCHOR3
 827              		.cfi_endproc
 828              	.LFE224:
 829              		.size	chThdSetPriority, .-chThdSetPriority
 830              		.section	.text.chThdTerminate,"ax",%progbits
 831              		.align	1
 832              		.p2align 4,,15
 833              		.global	chThdTerminate
 834              		.syntax unified
 835              		.thumb
 836              		.thumb_func
 837              		.fpu fpv4-sp-d16
 838              		.type	chThdTerminate, %function
 839              	chThdTerminate:
 840              	.LFB225:
 841              		.loc 1 293 0
 842              		.cfi_startproc
 843              		@ args = 0, pretend = 0, frame = 8
 844              		@ frame_needed = 0, uses_anonymous_args = 0
 845              	.LVL76:
 846 0000 30B5     		push	{r4, r5, lr}
 847              		.cfi_def_cfa_offset 12
 848              		.cfi_offset 4, -12
 849              		.cfi_offset 5, -8
 850              		.cfi_offset 14, -4
 851 0002 174C     		ldr	r4, .L73
 852 0004 83B0     		sub	sp, sp, #12
 853              		.cfi_def_cfa_offset 24
 854              		.loc 1 293 0
 855 0006 2368     		ldr	r3, [r4]
ARM GAS  /var/folders/d2/nstgp4h54kz7g1l847x_b8wc0000gn/T//ccnMLvUn.s 			page 16


 856 0008 0193     		str	r3, [sp, #4]
 857              	.LVL77:
 858 000a 0546     		mov	r5, r0
 859              	.LBB201:
 860              	.LBB202:
 861              	.LBB203:
 862              	.LBB204:
 863              	.LBB205:
 864              		.loc 3 546 0
 865 000c 2023     		movs	r3, #32
 866              		.syntax unified
 867              	@ 546 "../e-puck2_main-processor/ChibiOS//os/ext/CMSIS/include/core_cmFunc.h" 1
 868 000e 83F31188 		MSR basepri, r3
 869              	@ 0 "" 2
 870              	.LVL78:
 871              		.thumb
 872              		.syntax unified
 873              	.LBE205:
 874              	.LBE204:
 875              	.LBE203:
 876              		.loc 4 349 0
 877 0012 FFF7FEFF 		bl	_stats_start_measure_crit_thd
 878              	.LVL79:
 879              		.loc 4 350 0
 880 0016 FFF7FEFF 		bl	_dbg_check_lock
 881              	.LVL80:
 882              	.LBE202:
 883              	.LBE201:
 884              		.loc 1 296 0
 885 001a 95F82130 		ldrb	r3, [r5, #33]	@ zero_extendqisi2
 886 001e 43F00403 		orr	r3, r3, #4
 887 0022 85F82130 		strb	r3, [r5, #33]
 888              	.LBB206:
 889              	.LBB207:
 890              		.loc 4 360 0
 891 0026 FFF7FEFF 		bl	_dbg_check_unlock
 892              	.LVL81:
 893              		.loc 4 361 0
 894 002a FFF7FEFF 		bl	_stats_stop_measure_crit_thd
 895              	.LVL82:
 896              		.loc 4 367 0
 897 002e 0D4B     		ldr	r3, .L73+4
 898 0030 1A68     		ldr	r2, [r3]
 899 0032 9A42     		cmp	r2, r3
 900 0034 04D0     		beq	.L68
 901 0036 9969     		ldr	r1, [r3, #24]
 902 0038 9368     		ldr	r3, [r2, #8]
 903 003a 8A68     		ldr	r2, [r1, #8]
 904 003c 9A42     		cmp	r2, r3
 905 003e 08D3     		bcc	.L71
 906              	.L68:
 907              	.LVL83:
 908              	.LBB208:
 909              	.LBB209:
 910              	.LBB210:
 911              		.loc 3 546 0
 912 0040 0023     		movs	r3, #0
ARM GAS  /var/folders/d2/nstgp4h54kz7g1l847x_b8wc0000gn/T//ccnMLvUn.s 			page 17


 913              		.syntax unified
 914              	@ 546 "../e-puck2_main-processor/ChibiOS//os/ext/CMSIS/include/core_cmFunc.h" 1
 915 0042 83F31188 		MSR basepri, r3
 916              	@ 0 "" 2
 917              	.LVL84:
 918              		.thumb
 919              		.syntax unified
 920              	.LBE210:
 921              	.LBE209:
 922              	.LBE208:
 923              	.LBE207:
 924              	.LBE206:
 925              		.loc 1 298 0
 926 0046 019A     		ldr	r2, [sp, #4]
 927 0048 2368     		ldr	r3, [r4]
 928 004a 9A42     		cmp	r2, r3
 929 004c 05D1     		bne	.L72
 930 004e 03B0     		add	sp, sp, #12
 931              		.cfi_remember_state
 932              		.cfi_def_cfa_offset 12
 933              		@ sp needed
 934 0050 30BD     		pop	{r4, r5, pc}
 935              	.LVL85:
 936              	.L71:
 937              		.cfi_restore_state
 938              	.LBB212:
 939              	.LBB211:
 940              		.loc 4 367 0
 941 0052 0548     		ldr	r0, .L73+8
 942 0054 FFF7FEFF 		bl	chSysHalt
 943              	.LVL86:
 944 0058 F2E7     		b	.L68
 945              	.L72:
 946              	.LBE211:
 947              	.LBE212:
 948              		.loc 1 298 0
 949 005a FFF7FEFF 		bl	__stack_chk_fail
 950              	.LVL87:
 951              	.L74:
 952 005e 00BF     		.align	2
 953              	.L73:
 954 0060 00000000 		.word	__stack_chk_guard
 955 0064 00000000 		.word	ch
 956 0068 00000000 		.word	.LANCHOR1
 957              		.cfi_endproc
 958              	.LFE225:
 959              		.size	chThdTerminate, .-chThdTerminate
 960              		.section	.text.chThdSleep,"ax",%progbits
 961              		.align	1
 962              		.p2align 4,,15
 963              		.global	chThdSleep
 964              		.syntax unified
 965              		.thumb
 966              		.thumb_func
 967              		.fpu fpv4-sp-d16
 968              		.type	chThdSleep, %function
 969              	chThdSleep:
ARM GAS  /var/folders/d2/nstgp4h54kz7g1l847x_b8wc0000gn/T//ccnMLvUn.s 			page 18


 970              	.LFB226:
 971              		.loc 1 312 0
 972              		.cfi_startproc
 973              		@ args = 0, pretend = 0, frame = 8
 974              		@ frame_needed = 0, uses_anonymous_args = 0
 975              	.LVL88:
 976 0000 30B5     		push	{r4, r5, lr}
 977              		.cfi_def_cfa_offset 12
 978              		.cfi_offset 4, -12
 979              		.cfi_offset 5, -8
 980              		.cfi_offset 14, -4
 981 0002 184C     		ldr	r4, .L82
 982 0004 83B0     		sub	sp, sp, #12
 983              		.cfi_def_cfa_offset 24
 984              		.loc 1 312 0
 985 0006 2368     		ldr	r3, [r4]
 986 0008 0193     		str	r3, [sp, #4]
 987              	.LVL89:
 988 000a 0546     		mov	r5, r0
 989              	.LBB225:
 990              	.LBB226:
 991              	.LBB227:
 992              	.LBB228:
 993              	.LBB229:
 994              		.loc 3 546 0
 995 000c 2023     		movs	r3, #32
 996              		.syntax unified
 997              	@ 546 "../e-puck2_main-processor/ChibiOS//os/ext/CMSIS/include/core_cmFunc.h" 1
 998 000e 83F31188 		MSR basepri, r3
 999              	@ 0 "" 2
 1000              	.LVL90:
 1001              		.thumb
 1002              		.syntax unified
 1003              	.LBE229:
 1004              	.LBE228:
 1005              	.LBE227:
 1006              		.loc 4 349 0
 1007 0012 FFF7FEFF 		bl	_stats_start_measure_crit_thd
 1008              	.LVL91:
 1009              		.loc 4 350 0
 1010 0016 FFF7FEFF 		bl	_dbg_check_lock
 1011              	.LVL92:
 1012              	.LBE226:
 1013              	.LBE225:
 1014              	.LBB230:
 1015              	.LBB231:
 1016              		.loc 5 266 0
 1017 001a 15B9     		cbnz	r5, .L76
 1018 001c 1248     		ldr	r0, .L82+4
 1019 001e FFF7FEFF 		bl	chSysHalt
 1020              	.LVL93:
 1021              	.L76:
 1022              		.loc 5 268 0
 1023 0022 2946     		mov	r1, r5
 1024 0024 0820     		movs	r0, #8
 1025 0026 FFF7FEFF 		bl	chSchGoSleepTimeoutS
 1026              	.LVL94:
ARM GAS  /var/folders/d2/nstgp4h54kz7g1l847x_b8wc0000gn/T//ccnMLvUn.s 			page 19


 1027              	.LBE231:
 1028              	.LBE230:
 1029              	.LBB232:
 1030              	.LBB233:
 1031              		.loc 4 360 0
 1032 002a FFF7FEFF 		bl	_dbg_check_unlock
 1033              	.LVL95:
 1034              		.loc 4 361 0
 1035 002e FFF7FEFF 		bl	_stats_stop_measure_crit_thd
 1036              	.LVL96:
 1037              		.loc 4 367 0
 1038 0032 0E4B     		ldr	r3, .L82+8
 1039 0034 1A68     		ldr	r2, [r3]
 1040 0036 9A42     		cmp	r2, r3
 1041 0038 04D0     		beq	.L77
 1042 003a 9969     		ldr	r1, [r3, #24]
 1043 003c 9368     		ldr	r3, [r2, #8]
 1044 003e 8A68     		ldr	r2, [r1, #8]
 1045 0040 9A42     		cmp	r2, r3
 1046 0042 08D3     		bcc	.L80
 1047              	.L77:
 1048              	.LVL97:
 1049              	.LBB234:
 1050              	.LBB235:
 1051              	.LBB236:
 1052              		.loc 3 546 0
 1053 0044 0023     		movs	r3, #0
 1054              		.syntax unified
 1055              	@ 546 "../e-puck2_main-processor/ChibiOS//os/ext/CMSIS/include/core_cmFunc.h" 1
 1056 0046 83F31188 		MSR basepri, r3
 1057              	@ 0 "" 2
 1058              	.LVL98:
 1059              		.thumb
 1060              		.syntax unified
 1061              	.LBE236:
 1062              	.LBE235:
 1063              	.LBE234:
 1064              	.LBE233:
 1065              	.LBE232:
 1066              		.loc 1 317 0
 1067 004a 019A     		ldr	r2, [sp, #4]
 1068 004c 2368     		ldr	r3, [r4]
 1069 004e 9A42     		cmp	r2, r3
 1070 0050 05D1     		bne	.L81
 1071 0052 03B0     		add	sp, sp, #12
 1072              		.cfi_remember_state
 1073              		.cfi_def_cfa_offset 12
 1074              		@ sp needed
 1075 0054 30BD     		pop	{r4, r5, pc}
 1076              	.LVL99:
 1077              	.L80:
 1078              		.cfi_restore_state
 1079              	.LBB238:
 1080              	.LBB237:
 1081              		.loc 4 367 0
 1082 0056 0648     		ldr	r0, .L82+12
 1083 0058 FFF7FEFF 		bl	chSysHalt
ARM GAS  /var/folders/d2/nstgp4h54kz7g1l847x_b8wc0000gn/T//ccnMLvUn.s 			page 20


 1084              	.LVL100:
 1085 005c F2E7     		b	.L77
 1086              	.L81:
 1087              	.LBE237:
 1088              	.LBE238:
 1089              		.loc 1 317 0
 1090 005e FFF7FEFF 		bl	__stack_chk_fail
 1091              	.LVL101:
 1092              	.L83:
 1093 0062 00BF     		.align	2
 1094              	.L82:
 1095 0064 00000000 		.word	__stack_chk_guard
 1096 0068 00000000 		.word	.LANCHOR4
 1097 006c 00000000 		.word	ch
 1098 0070 00000000 		.word	.LANCHOR1
 1099              		.cfi_endproc
 1100              	.LFE226:
 1101              		.size	chThdSleep, .-chThdSleep
 1102              		.section	.text.chThdSleepUntil,"ax",%progbits
 1103              		.align	1
 1104              		.p2align 4,,15
 1105              		.global	chThdSleepUntil
 1106              		.syntax unified
 1107              		.thumb
 1108              		.thumb_func
 1109              		.fpu fpv4-sp-d16
 1110              		.type	chThdSleepUntil, %function
 1111              	chThdSleepUntil:
 1112              	.LFB227:
 1113              		.loc 1 332 0
 1114              		.cfi_startproc
 1115              		@ args = 0, pretend = 0, frame = 8
 1116              		@ frame_needed = 0, uses_anonymous_args = 0
 1117              	.LVL102:
 1118 0000 70B5     		push	{r4, r5, r6, lr}
 1119              		.cfi_def_cfa_offset 16
 1120              		.cfi_offset 4, -16
 1121              		.cfi_offset 5, -12
 1122              		.cfi_offset 6, -8
 1123              		.cfi_offset 14, -4
 1124 0002 174E     		ldr	r6, .L94
 1125 0004 82B0     		sub	sp, sp, #8
 1126              		.cfi_def_cfa_offset 24
 1127              		.loc 1 332 0
 1128 0006 3368     		ldr	r3, [r6]
 1129 0008 0193     		str	r3, [sp, #4]
 1130              	.LVL103:
 1131 000a 0546     		mov	r5, r0
 1132              	.LBB253:
 1133              	.LBB254:
 1134              	.LBB255:
 1135              	.LBB256:
 1136              	.LBB257:
 1137              		.loc 3 546 0
 1138 000c 2023     		movs	r3, #32
 1139              		.syntax unified
 1140              	@ 546 "../e-puck2_main-processor/ChibiOS//os/ext/CMSIS/include/core_cmFunc.h" 1
ARM GAS  /var/folders/d2/nstgp4h54kz7g1l847x_b8wc0000gn/T//ccnMLvUn.s 			page 21


 1141 000e 83F31188 		MSR basepri, r3
 1142              	@ 0 "" 2
 1143              	.LVL104:
 1144              		.thumb
 1145              		.syntax unified
 1146              	.LBE257:
 1147              	.LBE256:
 1148              	.LBE255:
 1149              	.LBE254:
 1150              	.LBE253:
 1151              	.LBB259:
 1152              	.LBB260:
 1153              		.file 6 "../e-puck2_main-processor/ChibiOS//os/rt/include/chvt.h"
 1154              		.loc 6 231 0
 1155 0012 144C     		ldr	r4, .L94+4
 1156              	.LBE260:
 1157              	.LBE259:
 1158              	.LBB262:
 1159              	.LBB258:
 1160              		.loc 4 349 0
 1161 0014 FFF7FEFF 		bl	_stats_start_measure_crit_thd
 1162              	.LVL105:
 1163              		.loc 4 350 0
 1164 0018 FFF7FEFF 		bl	_dbg_check_lock
 1165              	.LVL106:
 1166              	.LBE258:
 1167              	.LBE262:
 1168              	.LBB263:
 1169              	.LBB261:
 1170              		.loc 6 231 0
 1171 001c A16A     		ldr	r1, [r4, #40]
 1172              	.LVL107:
 1173              	.LBE261:
 1174              	.LBE263:
 1175              		.loc 1 336 0
 1176 001e 691A     		subs	r1, r5, r1
 1177              	.LVL108:
 1178 0020 02D0     		beq	.L85
 1179              	.LVL109:
 1180              	.LBB264:
 1181              	.LBB265:
 1182              		.loc 5 268 0
 1183 0022 0820     		movs	r0, #8
 1184 0024 FFF7FEFF 		bl	chSchGoSleepTimeoutS
 1185              	.LVL110:
 1186              	.L85:
 1187              	.LBE265:
 1188              	.LBE264:
 1189              	.LBB266:
 1190              	.LBB267:
 1191              		.loc 4 360 0
 1192 0028 FFF7FEFF 		bl	_dbg_check_unlock
 1193              	.LVL111:
 1194              		.loc 4 361 0
 1195 002c FFF7FEFF 		bl	_stats_stop_measure_crit_thd
 1196              	.LVL112:
 1197              		.loc 4 367 0
ARM GAS  /var/folders/d2/nstgp4h54kz7g1l847x_b8wc0000gn/T//ccnMLvUn.s 			page 22


 1198 0030 2368     		ldr	r3, [r4]
 1199 0032 A342     		cmp	r3, r4
 1200 0034 04D0     		beq	.L86
 1201 0036 A269     		ldr	r2, [r4, #24]
 1202 0038 9B68     		ldr	r3, [r3, #8]
 1203 003a 9268     		ldr	r2, [r2, #8]
 1204 003c 9A42     		cmp	r2, r3
 1205 003e 08D3     		bcc	.L92
 1206              	.L86:
 1207              	.LVL113:
 1208              	.LBB268:
 1209              	.LBB269:
 1210              	.LBB270:
 1211              		.loc 3 546 0
 1212 0040 0023     		movs	r3, #0
 1213              		.syntax unified
 1214              	@ 546 "../e-puck2_main-processor/ChibiOS//os/ext/CMSIS/include/core_cmFunc.h" 1
 1215 0042 83F31188 		MSR basepri, r3
 1216              	@ 0 "" 2
 1217              	.LVL114:
 1218              		.thumb
 1219              		.syntax unified
 1220              	.LBE270:
 1221              	.LBE269:
 1222              	.LBE268:
 1223              	.LBE267:
 1224              	.LBE266:
 1225              		.loc 1 340 0
 1226 0046 019A     		ldr	r2, [sp, #4]
 1227 0048 3368     		ldr	r3, [r6]
 1228 004a 9A42     		cmp	r2, r3
 1229 004c 05D1     		bne	.L93
 1230 004e 02B0     		add	sp, sp, #8
 1231              		.cfi_remember_state
 1232              		.cfi_def_cfa_offset 16
 1233              		@ sp needed
 1234 0050 70BD     		pop	{r4, r5, r6, pc}
 1235              	.L92:
 1236              		.cfi_restore_state
 1237              	.LBB272:
 1238              	.LBB271:
 1239              		.loc 4 367 0
 1240 0052 0548     		ldr	r0, .L94+8
 1241 0054 FFF7FEFF 		bl	chSysHalt
 1242              	.LVL115:
 1243 0058 F2E7     		b	.L86
 1244              	.L93:
 1245              	.LBE271:
 1246              	.LBE272:
 1247              		.loc 1 340 0
 1248 005a FFF7FEFF 		bl	__stack_chk_fail
 1249              	.LVL116:
 1250              	.L95:
 1251 005e 00BF     		.align	2
 1252              	.L94:
 1253 0060 00000000 		.word	__stack_chk_guard
 1254 0064 00000000 		.word	ch
ARM GAS  /var/folders/d2/nstgp4h54kz7g1l847x_b8wc0000gn/T//ccnMLvUn.s 			page 23


 1255 0068 00000000 		.word	.LANCHOR1
 1256              		.cfi_endproc
 1257              	.LFE227:
 1258              		.size	chThdSleepUntil, .-chThdSleepUntil
 1259              		.section	.text.chThdSleepUntilWindowed,"ax",%progbits
 1260              		.align	1
 1261              		.p2align 4,,15
 1262              		.global	chThdSleepUntilWindowed
 1263              		.syntax unified
 1264              		.thumb
 1265              		.thumb_func
 1266              		.fpu fpv4-sp-d16
 1267              		.type	chThdSleepUntilWindowed, %function
 1268              	chThdSleepUntilWindowed:
 1269              	.LFB228:
 1270              		.loc 1 356 0
 1271              		.cfi_startproc
 1272              		@ args = 0, pretend = 0, frame = 8
 1273              		@ frame_needed = 0, uses_anonymous_args = 0
 1274              	.LVL117:
 1275 0000 F0B5     		push	{r4, r5, r6, r7, lr}
 1276              		.cfi_def_cfa_offset 20
 1277              		.cfi_offset 4, -20
 1278              		.cfi_offset 5, -16
 1279              		.cfi_offset 6, -12
 1280              		.cfi_offset 7, -8
 1281              		.cfi_offset 14, -4
 1282 0002 1C4F     		ldr	r7, .L105
 1283 0004 83B0     		sub	sp, sp, #12
 1284              		.cfi_def_cfa_offset 32
 1285              		.loc 1 356 0
 1286 0006 3B68     		ldr	r3, [r7]
 1287 0008 0193     		str	r3, [sp, #4]
 1288              	.LVL118:
 1289 000a 0446     		mov	r4, r0
 1290 000c 0E46     		mov	r6, r1
 1291              	.LBB289:
 1292              	.LBB290:
 1293              	.LBB291:
 1294              	.LBB292:
 1295              	.LBB293:
 1296              		.loc 3 546 0
 1297 000e 2023     		movs	r3, #32
 1298              		.syntax unified
 1299              	@ 546 "../e-puck2_main-processor/ChibiOS//os/ext/CMSIS/include/core_cmFunc.h" 1
 1300 0010 83F31188 		MSR basepri, r3
 1301              	@ 0 "" 2
 1302              	.LVL119:
 1303              		.thumb
 1304              		.syntax unified
 1305              	.LBE293:
 1306              	.LBE292:
 1307              	.LBE291:
 1308              	.LBE290:
 1309              	.LBE289:
 1310              	.LBB295:
 1311              	.LBB296:
ARM GAS  /var/folders/d2/nstgp4h54kz7g1l847x_b8wc0000gn/T//ccnMLvUn.s 			page 24


 1312              		.loc 6 231 0
 1313 0014 184D     		ldr	r5, .L105+4
 1314              	.LBE296:
 1315              	.LBE295:
 1316              	.LBB298:
 1317              	.LBB294:
 1318              		.loc 4 349 0
 1319 0016 FFF7FEFF 		bl	_stats_start_measure_crit_thd
 1320              	.LVL120:
 1321              		.loc 4 350 0
 1322 001a FFF7FEFF 		bl	_dbg_check_lock
 1323              	.LVL121:
 1324              	.LBE294:
 1325              	.LBE298:
 1326              	.LBB299:
 1327              	.LBB297:
 1328              		.loc 6 231 0
 1329 001e A96A     		ldr	r1, [r5, #40]
 1330              	.LBE297:
 1331              	.LBE299:
 1332              	.LBB300:
 1333              	.LBB301:
 1334              		.loc 6 288 0
 1335 0020 331B     		subs	r3, r6, r4
 1336 0022 0C1B     		subs	r4, r1, r4
 1337              	.LVL122:
 1338              	.LBE301:
 1339              	.LBE300:
 1340              		.loc 1 361 0
 1341 0024 9C42     		cmp	r4, r3
 1342 0026 19D3     		bcc	.L102
 1343              	.L97:
 1344              	.LBB302:
 1345              	.LBB303:
 1346              		.loc 4 360 0
 1347 0028 FFF7FEFF 		bl	_dbg_check_unlock
 1348              	.LVL123:
 1349              		.loc 4 361 0
 1350 002c FFF7FEFF 		bl	_stats_stop_measure_crit_thd
 1351              	.LVL124:
 1352              		.loc 4 367 0
 1353 0030 2B68     		ldr	r3, [r5]
 1354 0032 AB42     		cmp	r3, r5
 1355 0034 04D0     		beq	.L99
 1356 0036 AA69     		ldr	r2, [r5, #24]
 1357 0038 9B68     		ldr	r3, [r3, #8]
 1358 003a 9268     		ldr	r2, [r2, #8]
 1359 003c 9A42     		cmp	r2, r3
 1360 003e 09D3     		bcc	.L103
 1361              	.L99:
 1362              	.LVL125:
 1363              	.LBB304:
 1364              	.LBB305:
 1365              	.LBB306:
 1366              		.loc 3 546 0
 1367 0040 0023     		movs	r3, #0
 1368              		.syntax unified
ARM GAS  /var/folders/d2/nstgp4h54kz7g1l847x_b8wc0000gn/T//ccnMLvUn.s 			page 25


 1369              	@ 546 "../e-puck2_main-processor/ChibiOS//os/ext/CMSIS/include/core_cmFunc.h" 1
 1370 0042 83F31188 		MSR basepri, r3
 1371              	@ 0 "" 2
 1372              	.LVL126:
 1373              		.thumb
 1374              		.syntax unified
 1375              	.LBE306:
 1376              	.LBE305:
 1377              	.LBE304:
 1378              	.LBE303:
 1379              	.LBE302:
 1380              		.loc 1 367 0
 1381 0046 019A     		ldr	r2, [sp, #4]
 1382 0048 3B68     		ldr	r3, [r7]
 1383 004a 9A42     		cmp	r2, r3
 1384 004c 3046     		mov	r0, r6
 1385 004e 0FD1     		bne	.L104
 1386              	.LVL127:
 1387 0050 03B0     		add	sp, sp, #12
 1388              		.cfi_remember_state
 1389              		.cfi_def_cfa_offset 20
 1390              		@ sp needed
 1391 0052 F0BD     		pop	{r4, r5, r6, r7, pc}
 1392              	.LVL128:
 1393              	.L103:
 1394              		.cfi_restore_state
 1395              	.LBB308:
 1396              	.LBB307:
 1397              		.loc 4 367 0
 1398 0054 0948     		ldr	r0, .L105+8
 1399 0056 FFF7FEFF 		bl	chSysHalt
 1400              	.LVL129:
 1401 005a F1E7     		b	.L99
 1402              	.L102:
 1403              	.LVL130:
 1404              	.LBE307:
 1405              	.LBE308:
 1406              	.LBB309:
 1407              	.LBB310:
 1408              		.loc 5 266 0
 1409 005c 741A     		subs	r4, r6, r1
 1410              	.LVL131:
 1411 005e 02D1     		bne	.L98
 1412 0060 0748     		ldr	r0, .L105+12
 1413 0062 FFF7FEFF 		bl	chSysHalt
 1414              	.LVL132:
 1415              	.L98:
 1416              		.loc 5 268 0
 1417 0066 2146     		mov	r1, r4
 1418 0068 0820     		movs	r0, #8
 1419 006a FFF7FEFF 		bl	chSchGoSleepTimeoutS
 1420              	.LVL133:
 1421 006e DBE7     		b	.L97
 1422              	.LVL134:
 1423              	.L104:
 1424              	.LBE310:
 1425              	.LBE309:
ARM GAS  /var/folders/d2/nstgp4h54kz7g1l847x_b8wc0000gn/T//ccnMLvUn.s 			page 26


 1426              		.loc 1 367 0
 1427 0070 FFF7FEFF 		bl	__stack_chk_fail
 1428              	.LVL135:
 1429              	.L106:
 1430              		.align	2
 1431              	.L105:
 1432 0074 00000000 		.word	__stack_chk_guard
 1433 0078 00000000 		.word	ch
 1434 007c 00000000 		.word	.LANCHOR1
 1435 0080 00000000 		.word	.LANCHOR4
 1436              		.cfi_endproc
 1437              	.LFE228:
 1438              		.size	chThdSleepUntilWindowed, .-chThdSleepUntilWindowed
 1439              		.section	.text.chThdYield,"ax",%progbits
 1440              		.align	1
 1441              		.p2align 4,,15
 1442              		.global	chThdYield
 1443              		.syntax unified
 1444              		.thumb
 1445              		.thumb_func
 1446              		.fpu fpv4-sp-d16
 1447              		.type	chThdYield, %function
 1448              	chThdYield:
 1449              	.LFB229:
 1450              		.loc 1 376 0
 1451              		.cfi_startproc
 1452              		@ args = 0, pretend = 0, frame = 8
 1453              		@ frame_needed = 0, uses_anonymous_args = 0
 1454 0000 30B5     		push	{r4, r5, lr}
 1455              		.cfi_def_cfa_offset 12
 1456              		.cfi_offset 4, -12
 1457              		.cfi_offset 5, -8
 1458              		.cfi_offset 14, -4
 1459 0002 194D     		ldr	r5, .L114
 1460 0004 83B0     		sub	sp, sp, #12
 1461              		.cfi_def_cfa_offset 24
 1462              		.loc 1 376 0
 1463 0006 2B68     		ldr	r3, [r5]
 1464 0008 0193     		str	r3, [sp, #4]
 1465              	.LVL136:
 1466              	.LBB325:
 1467              	.LBB326:
 1468              	.LBB327:
 1469              	.LBB328:
 1470              	.LBB329:
 1471              		.loc 3 546 0
 1472 000a 2023     		movs	r3, #32
 1473              		.syntax unified
 1474              	@ 546 "../e-puck2_main-processor/ChibiOS//os/ext/CMSIS/include/core_cmFunc.h" 1
 1475 000c 83F31188 		MSR basepri, r3
 1476              	@ 0 "" 2
 1477              	.LVL137:
 1478              		.thumb
 1479              		.syntax unified
 1480              	.LBE329:
 1481              	.LBE328:
 1482              	.LBE327:
ARM GAS  /var/folders/d2/nstgp4h54kz7g1l847x_b8wc0000gn/T//ccnMLvUn.s 			page 27


 1483              	.LBE326:
 1484              	.LBE325:
 1485              	.LBB331:
 1486              	.LBB332:
 1487              	.LBB333:
 1488              	.LBB334:
 1489              		.loc 2 731 0
 1490 0010 164C     		ldr	r4, .L114+4
 1491              	.LBE334:
 1492              	.LBE333:
 1493              	.LBE332:
 1494              	.LBE331:
 1495              	.LBB338:
 1496              	.LBB330:
 1497              		.loc 4 349 0
 1498 0012 FFF7FEFF 		bl	_stats_start_measure_crit_thd
 1499              	.LVL138:
 1500              		.loc 4 350 0
 1501 0016 FFF7FEFF 		bl	_dbg_check_lock
 1502              	.LVL139:
 1503              	.LBE330:
 1504              	.LBE338:
 1505              	.LBB339:
 1506              	.LBB337:
 1507              		.loc 2 743 0
 1508 001a FFF7FEFF 		bl	chDbgCheckClassS
 1509              	.LVL140:
 1510              	.LBB336:
 1511              	.LBB335:
 1512              		.loc 2 729 0
 1513 001e FFF7FEFF 		bl	chDbgCheckClassS
 1514              	.LVL141:
 1515              		.loc 2 731 0
 1516 0022 2268     		ldr	r2, [r4]
 1517 0024 A369     		ldr	r3, [r4, #24]
 1518              	.LBE335:
 1519              	.LBE336:
 1520              		.loc 2 745 0
 1521 0026 9268     		ldr	r2, [r2, #8]
 1522 0028 9B68     		ldr	r3, [r3, #8]
 1523 002a 9A42     		cmp	r2, r3
 1524 002c 01D3     		bcc	.L108
 1525              		.loc 2 746 0
 1526 002e FFF7FEFF 		bl	chSchDoRescheduleBehind
 1527              	.LVL142:
 1528              	.L108:
 1529              	.LBE337:
 1530              	.LBE339:
 1531              	.LBB340:
 1532              	.LBB341:
 1533              		.loc 4 360 0
 1534 0032 FFF7FEFF 		bl	_dbg_check_unlock
 1535              	.LVL143:
 1536              		.loc 4 361 0
 1537 0036 FFF7FEFF 		bl	_stats_stop_measure_crit_thd
 1538              	.LVL144:
 1539              		.loc 4 367 0
ARM GAS  /var/folders/d2/nstgp4h54kz7g1l847x_b8wc0000gn/T//ccnMLvUn.s 			page 28


 1540 003a 2368     		ldr	r3, [r4]
 1541 003c A342     		cmp	r3, r4
 1542 003e 04D0     		beq	.L109
 1543 0040 A269     		ldr	r2, [r4, #24]
 1544 0042 9B68     		ldr	r3, [r3, #8]
 1545 0044 9268     		ldr	r2, [r2, #8]
 1546 0046 9A42     		cmp	r2, r3
 1547 0048 08D3     		bcc	.L112
 1548              	.L109:
 1549              	.LVL145:
 1550              	.LBB342:
 1551              	.LBB343:
 1552              	.LBB344:
 1553              		.loc 3 546 0
 1554 004a 0023     		movs	r3, #0
 1555              		.syntax unified
 1556              	@ 546 "../e-puck2_main-processor/ChibiOS//os/ext/CMSIS/include/core_cmFunc.h" 1
 1557 004c 83F31188 		MSR basepri, r3
 1558              	@ 0 "" 2
 1559              	.LVL146:
 1560              		.thumb
 1561              		.syntax unified
 1562              	.LBE344:
 1563              	.LBE343:
 1564              	.LBE342:
 1565              	.LBE341:
 1566              	.LBE340:
 1567              		.loc 1 381 0
 1568 0050 019A     		ldr	r2, [sp, #4]
 1569 0052 2B68     		ldr	r3, [r5]
 1570 0054 9A42     		cmp	r2, r3
 1571 0056 05D1     		bne	.L113
 1572 0058 03B0     		add	sp, sp, #12
 1573              		.cfi_remember_state
 1574              		.cfi_def_cfa_offset 12
 1575              		@ sp needed
 1576 005a 30BD     		pop	{r4, r5, pc}
 1577              	.L112:
 1578              		.cfi_restore_state
 1579              	.LBB346:
 1580              	.LBB345:
 1581              		.loc 4 367 0
 1582 005c 0448     		ldr	r0, .L114+8
 1583 005e FFF7FEFF 		bl	chSysHalt
 1584              	.LVL147:
 1585 0062 F2E7     		b	.L109
 1586              	.L113:
 1587              	.LBE345:
 1588              	.LBE346:
 1589              		.loc 1 381 0
 1590 0064 FFF7FEFF 		bl	__stack_chk_fail
 1591              	.LVL148:
 1592              	.L115:
 1593              		.align	2
 1594              	.L114:
 1595 0068 00000000 		.word	__stack_chk_guard
 1596 006c 00000000 		.word	ch
ARM GAS  /var/folders/d2/nstgp4h54kz7g1l847x_b8wc0000gn/T//ccnMLvUn.s 			page 29


 1597 0070 00000000 		.word	.LANCHOR1
 1598              		.cfi_endproc
 1599              	.LFE229:
 1600              		.size	chThdYield, .-chThdYield
 1601              		.section	.text.chThdExitS,"ax",%progbits
 1602              		.align	1
 1603              		.p2align 4,,15
 1604              		.global	chThdExitS
 1605              		.syntax unified
 1606              		.thumb
 1607              		.thumb_func
 1608              		.fpu fpv4-sp-d16
 1609              		.type	chThdExitS, %function
 1610              	chThdExitS:
 1611              	.LFB231:
 1612              		.loc 1 418 0
 1613              		.cfi_startproc
 1614              		@ args = 0, pretend = 0, frame = 8
 1615              		@ frame_needed = 0, uses_anonymous_args = 0
 1616              	.LVL149:
 1617 0000 70B5     		push	{r4, r5, r6, lr}
 1618              		.cfi_def_cfa_offset 16
 1619              		.cfi_offset 4, -16
 1620              		.cfi_offset 5, -12
 1621              		.cfi_offset 6, -8
 1622              		.cfi_offset 14, -4
 1623              		.loc 1 419 0
 1624 0002 164B     		ldr	r3, .L125
 1625              		.loc 1 418 0
 1626 0004 164E     		ldr	r6, .L125+4
 1627              		.loc 1 419 0
 1628 0006 9C69     		ldr	r4, [r3, #24]
 1629              	.LVL150:
 1630              		.loc 1 418 0
 1631 0008 3268     		ldr	r2, [r6]
 1632              	.LBB347:
 1633              	.LBB348:
 1634              		.loc 2 592 0
 1635 000a E36A     		ldr	r3, [r4, #44]
 1636              	.LBE348:
 1637              	.LBE347:
 1638              		.loc 1 421 0
 1639 000c A062     		str	r0, [r4, #40]
 1640              		.loc 1 418 0
 1641 000e 82B0     		sub	sp, sp, #8
 1642              		.cfi_def_cfa_offset 24
 1643              		.loc 1 426 0
 1644 0010 04F12C05 		add	r5, r4, #44
 1645 0014 AB42     		cmp	r3, r5
 1646              		.loc 1 418 0
 1647 0016 0192     		str	r2, [sp, #4]
 1648              		.loc 1 426 0
 1649 0018 07D0     		beq	.L117
 1650              	.LVL151:
 1651              	.L118:
 1652              	.LBB350:
 1653              	.LBB351:
ARM GAS  /var/folders/d2/nstgp4h54kz7g1l847x_b8wc0000gn/T//ccnMLvUn.s 			page 30


 1654              		.loc 2 646 0
 1655 001a 1A68     		ldr	r2, [r3]
 1656 001c E262     		str	r2, [r4, #44]
 1657              	.LVL152:
 1658              	.LBE351:
 1659              	.LBE350:
 1660              		.loc 1 427 0
 1661 001e 1846     		mov	r0, r3
 1662 0020 FFF7FEFF 		bl	chSchReadyI
 1663              	.LVL153:
 1664              	.LBB352:
 1665              	.LBB349:
 1666              		.loc 2 592 0
 1667 0024 E36A     		ldr	r3, [r4, #44]
 1668              	.LVL154:
 1669              	.LBE349:
 1670              	.LBE352:
 1671              		.loc 1 426 0
 1672 0026 AB42     		cmp	r3, r5
 1673 0028 F7D1     		bne	.L118
 1674              	.L117:
 1675              		.loc 1 433 0
 1676 002a 94F82130 		ldrb	r3, [r4, #33]	@ zero_extendqisi2
 1677 002e 9B07     		lsls	r3, r3, #30
 1678 0030 05D1     		bne	.L119
 1679              		.loc 1 434 0
 1680 0032 D4E90423 		ldrd	r2, r3, [r4, #16]
 1681 0036 1A61     		str	r2, [r3, #16]
 1682 0038 D4E90432 		ldrd	r3, r2, [r4, #16]
 1683 003c 5A61     		str	r2, [r3, #20]
 1684              	.L119:
 1685              		.loc 1 437 0
 1686 003e 0F20     		movs	r0, #15
 1687 0040 FFF7FEFF 		bl	chSchGoSleepS
 1688              	.LVL155:
 1689              		.loc 1 440 0
 1690 0044 019A     		ldr	r2, [sp, #4]
 1691 0046 3368     		ldr	r3, [r6]
 1692 0048 9A42     		cmp	r2, r3
 1693 004a 05D1     		bne	.L124
 1694 004c 0548     		ldr	r0, .L125+8
 1695              		.loc 1 441 0
 1696 004e 02B0     		add	sp, sp, #8
 1697              		.cfi_remember_state
 1698              		.cfi_def_cfa_offset 16
 1699              		@ sp needed
 1700 0050 BDE87040 		pop	{r4, r5, r6, lr}
 1701              		.cfi_restore 14
 1702              		.cfi_restore 6
 1703              		.cfi_restore 5
 1704              		.cfi_restore 4
 1705              		.cfi_def_cfa_offset 0
 1706              	.LVL156:
 1707              		.loc 1 440 0
 1708 0054 FFF7FEBF 		b	chSysHalt
 1709              	.LVL157:
 1710              	.L124:
ARM GAS  /var/folders/d2/nstgp4h54kz7g1l847x_b8wc0000gn/T//ccnMLvUn.s 			page 31


 1711              		.cfi_restore_state
 1712 0058 FFF7FEFF 		bl	__stack_chk_fail
 1713              	.LVL158:
 1714              	.L126:
 1715              		.align	2
 1716              	.L125:
 1717 005c 00000000 		.word	ch
 1718 0060 00000000 		.word	__stack_chk_guard
 1719 0064 00000000 		.word	.LANCHOR5
 1720              		.cfi_endproc
 1721              	.LFE231:
 1722              		.size	chThdExitS, .-chThdExitS
 1723              		.section	.text.chThdExit,"ax",%progbits
 1724              		.align	1
 1725              		.p2align 4,,15
 1726              		.global	chThdExit
 1727              		.syntax unified
 1728              		.thumb
 1729              		.thumb_func
 1730              		.fpu fpv4-sp-d16
 1731              		.type	chThdExit, %function
 1732              	chThdExit:
 1733              	.LFB230:
 1734              		.loc 1 397 0
 1735              		.cfi_startproc
 1736              		@ args = 0, pretend = 0, frame = 8
 1737              		@ frame_needed = 0, uses_anonymous_args = 0
 1738              	.LVL159:
 1739 0000 30B5     		push	{r4, r5, lr}
 1740              		.cfi_def_cfa_offset 12
 1741              		.cfi_offset 4, -12
 1742              		.cfi_offset 5, -8
 1743              		.cfi_offset 14, -4
 1744 0002 0C4C     		ldr	r4, .L132
 1745 0004 83B0     		sub	sp, sp, #12
 1746              		.cfi_def_cfa_offset 24
 1747              		.loc 1 397 0
 1748 0006 2368     		ldr	r3, [r4]
 1749 0008 0193     		str	r3, [sp, #4]
 1750              	.LVL160:
 1751 000a 0546     		mov	r5, r0
 1752              	.LBB353:
 1753              	.LBB354:
 1754              	.LBB355:
 1755              	.LBB356:
 1756              	.LBB357:
 1757              		.loc 3 546 0
 1758 000c 2023     		movs	r3, #32
 1759              		.syntax unified
 1760              	@ 546 "../e-puck2_main-processor/ChibiOS//os/ext/CMSIS/include/core_cmFunc.h" 1
 1761 000e 83F31188 		MSR basepri, r3
 1762              	@ 0 "" 2
 1763              	.LVL161:
 1764              		.thumb
 1765              		.syntax unified
 1766              	.LBE357:
 1767              	.LBE356:
ARM GAS  /var/folders/d2/nstgp4h54kz7g1l847x_b8wc0000gn/T//ccnMLvUn.s 			page 32


 1768              	.LBE355:
 1769              		.loc 4 349 0
 1770 0012 FFF7FEFF 		bl	_stats_start_measure_crit_thd
 1771              	.LVL162:
 1772              		.loc 4 350 0
 1773 0016 FFF7FEFF 		bl	_dbg_check_lock
 1774              	.LVL163:
 1775              	.LBE354:
 1776              	.LBE353:
 1777              		.loc 1 400 0
 1778 001a 019A     		ldr	r2, [sp, #4]
 1779 001c 2368     		ldr	r3, [r4]
 1780 001e 9A42     		cmp	r2, r3
 1781 0020 05D1     		bne	.L131
 1782 0022 2846     		mov	r0, r5
 1783              		.loc 1 402 0
 1784 0024 03B0     		add	sp, sp, #12
 1785              		.cfi_remember_state
 1786              		.cfi_def_cfa_offset 12
 1787              		@ sp needed
 1788 0026 BDE83040 		pop	{r4, r5, lr}
 1789              		.cfi_restore 14
 1790              		.cfi_restore 5
 1791              		.cfi_restore 4
 1792              		.cfi_def_cfa_offset 0
 1793              	.LVL164:
 1794              		.loc 1 400 0
 1795 002a FFF7FEBF 		b	chThdExitS
 1796              	.LVL165:
 1797              	.L131:
 1798              		.cfi_restore_state
 1799 002e FFF7FEFF 		bl	__stack_chk_fail
 1800              	.LVL166:
 1801              	.L133:
 1802 0032 00BF     		.align	2
 1803              	.L132:
 1804 0034 00000000 		.word	__stack_chk_guard
 1805              		.cfi_endproc
 1806              	.LFE230:
 1807              		.size	chThdExit, .-chThdExit
 1808              		.section	.text.chThdWait,"ax",%progbits
 1809              		.align	1
 1810              		.p2align 4,,15
 1811              		.global	chThdWait
 1812              		.syntax unified
 1813              		.thumb
 1814              		.thumb_func
 1815              		.fpu fpv4-sp-d16
 1816              		.type	chThdWait, %function
 1817              	chThdWait:
 1818              	.LFB232:
 1819              		.loc 1 475 0
 1820              		.cfi_startproc
 1821              		@ args = 0, pretend = 0, frame = 8
 1822              		@ frame_needed = 0, uses_anonymous_args = 0
 1823              	.LVL167:
 1824 0000 F0B5     		push	{r4, r5, r6, r7, lr}
ARM GAS  /var/folders/d2/nstgp4h54kz7g1l847x_b8wc0000gn/T//ccnMLvUn.s 			page 33


 1825              		.cfi_def_cfa_offset 20
 1826              		.cfi_offset 4, -20
 1827              		.cfi_offset 5, -16
 1828              		.cfi_offset 6, -12
 1829              		.cfi_offset 7, -8
 1830              		.cfi_offset 14, -4
 1831 0002 264E     		ldr	r6, .L150
 1832 0004 83B0     		sub	sp, sp, #12
 1833              		.cfi_def_cfa_offset 32
 1834              		.loc 1 475 0
 1835 0006 3368     		ldr	r3, [r6]
 1836 0008 0193     		str	r3, [sp, #4]
 1837              		.loc 1 478 0
 1838 000a 0446     		mov	r4, r0
 1839 000c 0028     		cmp	r0, #0
 1840 000e 3ED0     		beq	.L145
 1841              	.LVL168:
 1842              	.L135:
 1843              	.LBB370:
 1844              	.LBB371:
 1845              	.LBB372:
 1846              	.LBB373:
 1847              	.LBB374:
 1848              		.loc 3 546 0
 1849 0010 2023     		movs	r3, #32
 1850              		.syntax unified
 1851              	@ 546 "../e-puck2_main-processor/ChibiOS//os/ext/CMSIS/include/core_cmFunc.h" 1
 1852 0012 83F31188 		MSR basepri, r3
 1853              	@ 0 "" 2
 1854              	.LVL169:
 1855              		.thumb
 1856              		.syntax unified
 1857              	.LBE374:
 1858              	.LBE373:
 1859              	.LBE372:
 1860              	.LBE371:
 1861              	.LBE370:
 1862              		.loc 1 481 0
 1863 0016 224D     		ldr	r5, .L150+4
 1864              	.LBB376:
 1865              	.LBB375:
 1866              		.loc 4 349 0
 1867 0018 FFF7FEFF 		bl	_stats_start_measure_crit_thd
 1868              	.LVL170:
 1869              		.loc 4 350 0
 1870 001c FFF7FEFF 		bl	_dbg_check_lock
 1871              	.LVL171:
 1872              	.LBE375:
 1873              	.LBE376:
 1874              		.loc 1 481 0
 1875 0020 AB69     		ldr	r3, [r5, #24]
 1876 0022 A342     		cmp	r3, r4
 1877 0024 2FD0     		beq	.L146
 1878              	.L136:
 1879              		.loc 1 483 0 discriminator 1
 1880 0026 94F82230 		ldrb	r3, [r4, #34]	@ zero_extendqisi2
 1881 002a 43B3     		cbz	r3, .L147
ARM GAS  /var/folders/d2/nstgp4h54kz7g1l847x_b8wc0000gn/T//ccnMLvUn.s 			page 34


 1882              	.L137:
 1883              		.loc 1 485 0
 1884 002c 94F82030 		ldrb	r3, [r4, #32]	@ zero_extendqisi2
 1885 0030 0F2B     		cmp	r3, #15
 1886 0032 06D0     		beq	.L138
 1887              		.loc 1 486 0
 1888 0034 AB69     		ldr	r3, [r5, #24]
 1889              	.LVL172:
 1890              	.LBB377:
 1891              	.LBB378:
 1892              		.loc 2 639 0
 1893 0036 E26A     		ldr	r2, [r4, #44]
 1894 0038 1A60     		str	r2, [r3]
 1895              	.LBE378:
 1896              	.LBE377:
 1897              		.loc 1 487 0
 1898 003a 0920     		movs	r0, #9
 1899              	.LBB380:
 1900              	.LBB379:
 1901              		.loc 2 640 0
 1902 003c E362     		str	r3, [r4, #44]
 1903              	.LVL173:
 1904              	.LBE379:
 1905              	.LBE380:
 1906              		.loc 1 487 0
 1907 003e FFF7FEFF 		bl	chSchGoSleepS
 1908              	.LVL174:
 1909              	.L138:
 1910              		.loc 1 489 0
 1911 0042 A76A     		ldr	r7, [r4, #40]
 1912              	.LVL175:
 1913              	.LBB381:
 1914              	.LBB382:
 1915              		.loc 4 360 0
 1916 0044 FFF7FEFF 		bl	_dbg_check_unlock
 1917              	.LVL176:
 1918              		.loc 4 361 0
 1919 0048 FFF7FEFF 		bl	_stats_stop_measure_crit_thd
 1920              	.LVL177:
 1921              		.loc 4 367 0
 1922 004c 2B68     		ldr	r3, [r5]
 1923 004e AB42     		cmp	r3, r5
 1924 0050 04D0     		beq	.L139
 1925 0052 AA69     		ldr	r2, [r5, #24]
 1926 0054 9B68     		ldr	r3, [r3, #8]
 1927 0056 9268     		ldr	r2, [r2, #8]
 1928 0058 9A42     		cmp	r2, r3
 1929 005a 0CD3     		bcc	.L148
 1930              	.L139:
 1931              	.LVL178:
 1932              	.LBB383:
 1933              	.LBB384:
 1934              	.LBB385:
 1935              		.loc 3 546 0
 1936 005c 0023     		movs	r3, #0
 1937              		.syntax unified
 1938              	@ 546 "../e-puck2_main-processor/ChibiOS//os/ext/CMSIS/include/core_cmFunc.h" 1
ARM GAS  /var/folders/d2/nstgp4h54kz7g1l847x_b8wc0000gn/T//ccnMLvUn.s 			page 35


 1939 005e 83F31188 		MSR basepri, r3
 1940              	@ 0 "" 2
 1941              	.LVL179:
 1942              		.thumb
 1943              		.syntax unified
 1944              	.LBE385:
 1945              	.LBE384:
 1946              	.LBE383:
 1947              	.LBE382:
 1948              	.LBE381:
 1949              		.loc 1 494 0
 1950 0062 2046     		mov	r0, r4
 1951 0064 FFF7FEFF 		bl	chThdRelease
 1952              	.LVL180:
 1953              		.loc 1 498 0
 1954 0068 019A     		ldr	r2, [sp, #4]
 1955 006a 3368     		ldr	r3, [r6]
 1956 006c 9A42     		cmp	r2, r3
 1957 006e 3846     		mov	r0, r7
 1958 0070 11D1     		bne	.L149
 1959              	.LVL181:
 1960 0072 03B0     		add	sp, sp, #12
 1961              		.cfi_remember_state
 1962              		.cfi_def_cfa_offset 20
 1963              		@ sp needed
 1964 0074 F0BD     		pop	{r4, r5, r6, r7, pc}
 1965              	.LVL182:
 1966              	.L148:
 1967              		.cfi_restore_state
 1968              	.LBB387:
 1969              	.LBB386:
 1970              		.loc 4 367 0
 1971 0076 0B48     		ldr	r0, .L150+8
 1972 0078 FFF7FEFF 		bl	chSysHalt
 1973              	.LVL183:
 1974 007c EEE7     		b	.L139
 1975              	.LVL184:
 1976              	.L147:
 1977              	.LBE386:
 1978              	.LBE387:
 1979              		.loc 1 483 0 discriminator 2
 1980 007e 0A48     		ldr	r0, .L150+12
 1981 0080 FFF7FEFF 		bl	chSysHalt
 1982              	.LVL185:
 1983 0084 D2E7     		b	.L137
 1984              	.L146:
 1985              		.loc 1 481 0 discriminator 2
 1986 0086 0848     		ldr	r0, .L150+12
 1987 0088 FFF7FEFF 		bl	chSysHalt
 1988              	.LVL186:
 1989 008c CBE7     		b	.L136
 1990              	.LVL187:
 1991              	.L145:
 1992              		.loc 1 478 0 discriminator 2
 1993 008e 0648     		ldr	r0, .L150+12
 1994              	.LVL188:
 1995 0090 FFF7FEFF 		bl	chSysHalt
ARM GAS  /var/folders/d2/nstgp4h54kz7g1l847x_b8wc0000gn/T//ccnMLvUn.s 			page 36


 1996              	.LVL189:
 1997 0094 BCE7     		b	.L135
 1998              	.LVL190:
 1999              	.L149:
 2000              		.loc 1 498 0
 2001 0096 FFF7FEFF 		bl	__stack_chk_fail
 2002              	.LVL191:
 2003              	.L151:
 2004 009a 00BF     		.align	2
 2005              	.L150:
 2006 009c 00000000 		.word	__stack_chk_guard
 2007 00a0 00000000 		.word	ch
 2008 00a4 00000000 		.word	.LANCHOR1
 2009 00a8 00000000 		.word	.LANCHOR6
 2010              		.cfi_endproc
 2011              	.LFE232:
 2012              		.size	chThdWait, .-chThdWait
 2013              		.section	.text.chThdSuspendS,"ax",%progbits
 2014              		.align	1
 2015              		.p2align 4,,15
 2016              		.global	chThdSuspendS
 2017              		.syntax unified
 2018              		.thumb
 2019              		.thumb_func
 2020              		.fpu fpv4-sp-d16
 2021              		.type	chThdSuspendS, %function
 2022              	chThdSuspendS:
 2023              	.LFB233:
 2024              		.loc 1 511 0
 2025              		.cfi_startproc
 2026              		@ args = 0, pretend = 0, frame = 8
 2027              		@ frame_needed = 0, uses_anonymous_args = 0
 2028              	.LVL192:
 2029 0000 F0B5     		push	{r4, r5, r6, r7, lr}
 2030              		.cfi_def_cfa_offset 20
 2031              		.cfi_offset 4, -20
 2032              		.cfi_offset 5, -16
 2033              		.cfi_offset 6, -12
 2034              		.cfi_offset 7, -8
 2035              		.cfi_offset 14, -4
 2036 0002 0D4D     		ldr	r5, .L160
 2037              	.LBB388:
 2038              	.LBB389:
 2039              		.loc 5 176 0
 2040 0004 0D4E     		ldr	r6, .L160+4
 2041              	.LBE389:
 2042              	.LBE388:
 2043              		.loc 1 514 0
 2044 0006 0368     		ldr	r3, [r0]
 2045              		.loc 1 511 0
 2046 0008 2A68     		ldr	r2, [r5]
 2047              	.LBB391:
 2048              	.LBB390:
 2049              		.loc 5 176 0
 2050 000a B769     		ldr	r7, [r6, #24]
 2051              	.LBE390:
 2052              	.LBE391:
ARM GAS  /var/folders/d2/nstgp4h54kz7g1l847x_b8wc0000gn/T//ccnMLvUn.s 			page 37


 2053              		.loc 1 511 0
 2054 000c 83B0     		sub	sp, sp, #12
 2055              		.cfi_def_cfa_offset 32
 2056              		.loc 1 511 0
 2057 000e 0446     		mov	r4, r0
 2058 0010 0192     		str	r2, [sp, #4]
 2059              		.loc 1 514 0
 2060 0012 13B1     		cbz	r3, .L153
 2061              		.loc 1 514 0 is_stmt 0 discriminator 2
 2062 0014 0A48     		ldr	r0, .L160+8
 2063              	.LVL193:
 2064 0016 FFF7FEFF 		bl	chSysHalt
 2065              	.LVL194:
 2066              	.L153:
 2067              		.loc 1 516 0 is_stmt 1
 2068 001a 2760     		str	r7, [r4]
 2069              		.loc 1 518 0
 2070 001c 0320     		movs	r0, #3
 2071              		.loc 1 517 0
 2072 001e BC62     		str	r4, [r7, #40]
 2073              		.loc 1 518 0
 2074 0020 FFF7FEFF 		bl	chSchGoSleepS
 2075              	.LVL195:
 2076              		.loc 1 521 0
 2077 0024 019A     		ldr	r2, [sp, #4]
 2078 0026 2B68     		ldr	r3, [r5]
 2079              		.loc 1 520 0
 2080 0028 B169     		ldr	r1, [r6, #24]
 2081              		.loc 1 521 0
 2082 002a 9A42     		cmp	r2, r3
 2083 002c 886A     		ldr	r0, [r1, #40]
 2084 002e 01D1     		bne	.L159
 2085 0030 03B0     		add	sp, sp, #12
 2086              		.cfi_remember_state
 2087              		.cfi_def_cfa_offset 20
 2088              		@ sp needed
 2089 0032 F0BD     		pop	{r4, r5, r6, r7, pc}
 2090              	.LVL196:
 2091              	.L159:
 2092              		.cfi_restore_state
 2093 0034 FFF7FEFF 		bl	__stack_chk_fail
 2094              	.LVL197:
 2095              	.L161:
 2096              		.align	2
 2097              	.L160:
 2098 0038 00000000 		.word	__stack_chk_guard
 2099 003c 00000000 		.word	ch
 2100 0040 00000000 		.word	.LANCHOR7
 2101              		.cfi_endproc
 2102              	.LFE233:
 2103              		.size	chThdSuspendS, .-chThdSuspendS
 2104              		.section	.text.chThdSuspendTimeoutS,"ax",%progbits
 2105              		.align	1
 2106              		.p2align 4,,15
 2107              		.global	chThdSuspendTimeoutS
 2108              		.syntax unified
 2109              		.thumb
ARM GAS  /var/folders/d2/nstgp4h54kz7g1l847x_b8wc0000gn/T//ccnMLvUn.s 			page 38


 2110              		.thumb_func
 2111              		.fpu fpv4-sp-d16
 2112              		.type	chThdSuspendTimeoutS, %function
 2113              	chThdSuspendTimeoutS:
 2114              	.LFB234:
 2115              		.loc 1 542 0
 2116              		.cfi_startproc
 2117              		@ args = 0, pretend = 0, frame = 8
 2118              		@ frame_needed = 0, uses_anonymous_args = 0
 2119              	.LVL198:
 2120 0000 F0B5     		push	{r4, r5, r6, r7, lr}
 2121              		.cfi_def_cfa_offset 20
 2122              		.cfi_offset 4, -20
 2123              		.cfi_offset 5, -16
 2124              		.cfi_offset 6, -12
 2125              		.cfi_offset 7, -8
 2126              		.cfi_offset 14, -4
 2127 0002 124D     		ldr	r5, .L172
 2128              		.loc 1 545 0
 2129 0004 0368     		ldr	r3, [r0]
 2130              	.LBB392:
 2131              	.LBB393:
 2132              		.loc 5 176 0
 2133 0006 124A     		ldr	r2, .L172+4
 2134              	.LBE393:
 2135              	.LBE392:
 2136              		.loc 1 542 0
 2137 0008 83B0     		sub	sp, sp, #12
 2138              		.cfi_def_cfa_offset 32
 2139              		.loc 1 542 0
 2140 000a 0446     		mov	r4, r0
 2141 000c 2868     		ldr	r0, [r5]
 2142              	.LVL199:
 2143 000e 0190     		str	r0, [sp, #4]
 2144 0010 0E46     		mov	r6, r1
 2145              	.LBB395:
 2146              	.LBB394:
 2147              		.loc 5 176 0
 2148 0012 9769     		ldr	r7, [r2, #24]
 2149              	.LBE394:
 2150              	.LBE395:
 2151              		.loc 1 545 0
 2152 0014 13B1     		cbz	r3, .L163
 2153              		.loc 1 545 0 is_stmt 0 discriminator 2
 2154 0016 0F48     		ldr	r0, .L172+8
 2155 0018 FFF7FEFF 		bl	chSysHalt
 2156              	.LVL200:
 2157              	.L163:
 2158              		.loc 1 547 0 is_stmt 1
 2159 001c 66B1     		cbz	r6, .L164
 2160              		.loc 1 551 0
 2161 001e 2760     		str	r7, [r4]
 2162              		.loc 1 554 0
 2163 0020 019A     		ldr	r2, [sp, #4]
 2164 0022 2B68     		ldr	r3, [r5]
 2165              		.loc 1 552 0
 2166 0024 BC62     		str	r4, [r7, #40]
ARM GAS  /var/folders/d2/nstgp4h54kz7g1l847x_b8wc0000gn/T//ccnMLvUn.s 			page 39


 2167              		.loc 1 554 0
 2168 0026 9A42     		cmp	r2, r3
 2169 0028 0ED1     		bne	.L171
 2170 002a 3146     		mov	r1, r6
 2171 002c 0320     		movs	r0, #3
 2172              		.loc 1 555 0
 2173 002e 03B0     		add	sp, sp, #12
 2174              		.cfi_remember_state
 2175              		.cfi_def_cfa_offset 20
 2176              		@ sp needed
 2177 0030 BDE8F040 		pop	{r4, r5, r6, r7, lr}
 2178              		.cfi_restore 14
 2179              		.cfi_restore 7
 2180              		.cfi_restore 6
 2181              		.cfi_restore 5
 2182              		.cfi_restore 4
 2183              		.cfi_def_cfa_offset 0
 2184              	.LVL201:
 2185              		.loc 1 554 0
 2186 0034 FFF7FEBF 		b	chSchGoSleepTimeoutS
 2187              	.LVL202:
 2188              	.L164:
 2189              		.cfi_restore_state
 2190              		.loc 1 555 0
 2191 0038 019A     		ldr	r2, [sp, #4]
 2192 003a 2B68     		ldr	r3, [r5]
 2193 003c 9A42     		cmp	r2, r3
 2194 003e 4FF0FF30 		mov	r0, #-1
 2195 0042 01D1     		bne	.L171
 2196 0044 03B0     		add	sp, sp, #12
 2197              		.cfi_remember_state
 2198              		.cfi_def_cfa_offset 20
 2199              		@ sp needed
 2200 0046 F0BD     		pop	{r4, r5, r6, r7, pc}
 2201              	.LVL203:
 2202              	.L171:
 2203              		.cfi_restore_state
 2204 0048 FFF7FEFF 		bl	__stack_chk_fail
 2205              	.LVL204:
 2206              	.L173:
 2207              		.align	2
 2208              	.L172:
 2209 004c 00000000 		.word	__stack_chk_guard
 2210 0050 00000000 		.word	ch
 2211 0054 00000000 		.word	.LANCHOR8
 2212              		.cfi_endproc
 2213              	.LFE234:
 2214              		.size	chThdSuspendTimeoutS, .-chThdSuspendTimeoutS
 2215              		.section	.text.chThdResumeI,"ax",%progbits
 2216              		.align	1
 2217              		.p2align 4,,15
 2218              		.global	chThdResumeI
 2219              		.syntax unified
 2220              		.thumb
 2221              		.thumb_func
 2222              		.fpu fpv4-sp-d16
 2223              		.type	chThdResumeI, %function
ARM GAS  /var/folders/d2/nstgp4h54kz7g1l847x_b8wc0000gn/T//ccnMLvUn.s 			page 40


 2224              	chThdResumeI:
 2225              	.LFB235:
 2226              		.loc 1 567 0
 2227              		.cfi_startproc
 2228              		@ args = 0, pretend = 0, frame = 8
 2229              		@ frame_needed = 0, uses_anonymous_args = 0
 2230              	.LVL205:
 2231 0000 F0B5     		push	{r4, r5, r6, r7, lr}
 2232              		.cfi_def_cfa_offset 20
 2233              		.cfi_offset 4, -20
 2234              		.cfi_offset 5, -16
 2235              		.cfi_offset 6, -12
 2236              		.cfi_offset 7, -8
 2237              		.cfi_offset 14, -4
 2238 0002 124D     		ldr	r5, .L185
 2239              		.loc 1 569 0
 2240 0004 0468     		ldr	r4, [r0]
 2241              		.loc 1 567 0
 2242 0006 2B68     		ldr	r3, [r5]
 2243 0008 83B0     		sub	sp, sp, #12
 2244              		.cfi_def_cfa_offset 32
 2245              		.loc 1 567 0
 2246 000a 0193     		str	r3, [sp, #4]
 2247              		.loc 1 569 0
 2248 000c B4B1     		cbz	r4, .L174
 2249              	.LBB396:
 2250              		.loc 1 572 0
 2251 000e 94F82030 		ldrb	r3, [r4, #32]	@ zero_extendqisi2
 2252 0012 032B     		cmp	r3, #3
 2253 0014 0646     		mov	r6, r0
 2254 0016 0F46     		mov	r7, r1
 2255              	.LVL206:
 2256 0018 0CD1     		bne	.L184
 2257              	.LVL207:
 2258              	.L176:
 2259              		.loc 1 575 0
 2260 001a 0023     		movs	r3, #0
 2261 001c 3360     		str	r3, [r6]
 2262              		.loc 1 577 0
 2263 001e 019A     		ldr	r2, [sp, #4]
 2264 0020 2B68     		ldr	r3, [r5]
 2265              		.loc 1 576 0
 2266 0022 A762     		str	r7, [r4, #40]
 2267              		.loc 1 577 0
 2268 0024 9A42     		cmp	r2, r3
 2269 0026 0FD1     		bne	.L183
 2270 0028 2046     		mov	r0, r4
 2271              	.LBE396:
 2272              		.loc 1 579 0
 2273 002a 03B0     		add	sp, sp, #12
 2274              		.cfi_remember_state
 2275              		.cfi_def_cfa_offset 20
 2276              		@ sp needed
 2277 002c BDE8F040 		pop	{r4, r5, r6, r7, lr}
 2278              		.cfi_restore 14
 2279              		.cfi_restore 7
 2280              		.cfi_restore 6
ARM GAS  /var/folders/d2/nstgp4h54kz7g1l847x_b8wc0000gn/T//ccnMLvUn.s 			page 41


 2281              		.cfi_restore 5
 2282              		.cfi_restore 4
 2283              		.cfi_def_cfa_offset 0
 2284              	.LVL208:
 2285              	.LBB397:
 2286              		.loc 1 577 0
 2287 0030 FFF7FEBF 		b	chSchReadyI
 2288              	.LVL209:
 2289              	.L184:
 2290              		.cfi_restore_state
 2291              		.loc 1 572 0 discriminator 2
 2292 0034 0648     		ldr	r0, .L185+4
 2293              	.LVL210:
 2294 0036 FFF7FEFF 		bl	chSysHalt
 2295              	.LVL211:
 2296 003a EEE7     		b	.L176
 2297              	.LVL212:
 2298              	.L174:
 2299              	.LBE397:
 2300              		.loc 1 579 0
 2301 003c 019A     		ldr	r2, [sp, #4]
 2302 003e 2B68     		ldr	r3, [r5]
 2303 0040 9A42     		cmp	r2, r3
 2304 0042 01D1     		bne	.L183
 2305 0044 03B0     		add	sp, sp, #12
 2306              		.cfi_remember_state
 2307              		.cfi_def_cfa_offset 20
 2308              		@ sp needed
 2309 0046 F0BD     		pop	{r4, r5, r6, r7, pc}
 2310              	.LVL213:
 2311              	.L183:
 2312              		.cfi_restore_state
 2313 0048 FFF7FEFF 		bl	__stack_chk_fail
 2314              	.LVL214:
 2315              	.L186:
 2316              		.align	2
 2317              	.L185:
 2318 004c 00000000 		.word	__stack_chk_guard
 2319 0050 00000000 		.word	.LANCHOR9
 2320              		.cfi_endproc
 2321              	.LFE235:
 2322              		.size	chThdResumeI, .-chThdResumeI
 2323              		.section	.text.chThdResumeS,"ax",%progbits
 2324              		.align	1
 2325              		.p2align 4,,15
 2326              		.global	chThdResumeS
 2327              		.syntax unified
 2328              		.thumb
 2329              		.thumb_func
 2330              		.fpu fpv4-sp-d16
 2331              		.type	chThdResumeS, %function
 2332              	chThdResumeS:
 2333              	.LFB236:
 2334              		.loc 1 591 0
 2335              		.cfi_startproc
 2336              		@ args = 0, pretend = 0, frame = 8
 2337              		@ frame_needed = 0, uses_anonymous_args = 0
ARM GAS  /var/folders/d2/nstgp4h54kz7g1l847x_b8wc0000gn/T//ccnMLvUn.s 			page 42


 2338              	.LVL215:
 2339 0000 F0B5     		push	{r4, r5, r6, r7, lr}
 2340              		.cfi_def_cfa_offset 20
 2341              		.cfi_offset 4, -20
 2342              		.cfi_offset 5, -16
 2343              		.cfi_offset 6, -12
 2344              		.cfi_offset 7, -8
 2345              		.cfi_offset 14, -4
 2346 0002 124D     		ldr	r5, .L198
 2347              		.loc 1 593 0
 2348 0004 0468     		ldr	r4, [r0]
 2349              		.loc 1 591 0
 2350 0006 2B68     		ldr	r3, [r5]
 2351 0008 83B0     		sub	sp, sp, #12
 2352              		.cfi_def_cfa_offset 32
 2353              		.loc 1 591 0
 2354 000a 0193     		str	r3, [sp, #4]
 2355              		.loc 1 593 0
 2356 000c B4B1     		cbz	r4, .L187
 2357              	.LBB398:
 2358              		.loc 1 596 0
 2359 000e 94F82030 		ldrb	r3, [r4, #32]	@ zero_extendqisi2
 2360 0012 032B     		cmp	r3, #3
 2361 0014 0646     		mov	r6, r0
 2362 0016 0F46     		mov	r7, r1
 2363              	.LVL216:
 2364 0018 0CD1     		bne	.L197
 2365              	.LVL217:
 2366              	.L189:
 2367              		.loc 1 599 0
 2368 001a 0023     		movs	r3, #0
 2369 001c 3360     		str	r3, [r6]
 2370              		.loc 1 600 0
 2371 001e 019A     		ldr	r2, [sp, #4]
 2372 0020 2B68     		ldr	r3, [r5]
 2373 0022 9A42     		cmp	r2, r3
 2374 0024 10D1     		bne	.L196
 2375 0026 3946     		mov	r1, r7
 2376 0028 2046     		mov	r0, r4
 2377              	.LBE398:
 2378              		.loc 1 602 0
 2379 002a 03B0     		add	sp, sp, #12
 2380              		.cfi_remember_state
 2381              		.cfi_def_cfa_offset 20
 2382              		@ sp needed
 2383 002c BDE8F040 		pop	{r4, r5, r6, r7, lr}
 2384              		.cfi_restore 14
 2385              		.cfi_restore 7
 2386              		.cfi_restore 6
 2387              		.cfi_restore 5
 2388              		.cfi_restore 4
 2389              		.cfi_def_cfa_offset 0
 2390              	.LVL218:
 2391              	.LBB399:
 2392              		.loc 1 600 0
 2393 0030 FFF7FEBF 		b	chSchWakeupS
 2394              	.LVL219:
ARM GAS  /var/folders/d2/nstgp4h54kz7g1l847x_b8wc0000gn/T//ccnMLvUn.s 			page 43


 2395              	.L197:
 2396              		.cfi_restore_state
 2397              		.loc 1 596 0 discriminator 2
 2398 0034 0648     		ldr	r0, .L198+4
 2399              	.LVL220:
 2400 0036 FFF7FEFF 		bl	chSysHalt
 2401              	.LVL221:
 2402 003a EEE7     		b	.L189
 2403              	.LVL222:
 2404              	.L187:
 2405              	.LBE399:
 2406              		.loc 1 602 0
 2407 003c 019A     		ldr	r2, [sp, #4]
 2408 003e 2B68     		ldr	r3, [r5]
 2409 0040 9A42     		cmp	r2, r3
 2410 0042 01D1     		bne	.L196
 2411 0044 03B0     		add	sp, sp, #12
 2412              		.cfi_remember_state
 2413              		.cfi_def_cfa_offset 20
 2414              		@ sp needed
 2415 0046 F0BD     		pop	{r4, r5, r6, r7, pc}
 2416              	.LVL223:
 2417              	.L196:
 2418              		.cfi_restore_state
 2419 0048 FFF7FEFF 		bl	__stack_chk_fail
 2420              	.LVL224:
 2421              	.L199:
 2422              		.align	2
 2423              	.L198:
 2424 004c 00000000 		.word	__stack_chk_guard
 2425 0050 00000000 		.word	.LANCHOR10
 2426              		.cfi_endproc
 2427              	.LFE236:
 2428              		.size	chThdResumeS, .-chThdResumeS
 2429              		.section	.text.chThdResume,"ax",%progbits
 2430              		.align	1
 2431              		.p2align 4,,15
 2432              		.global	chThdResume
 2433              		.syntax unified
 2434              		.thumb
 2435              		.thumb_func
 2436              		.fpu fpv4-sp-d16
 2437              		.type	chThdResume, %function
 2438              	chThdResume:
 2439              	.LFB237:
 2440              		.loc 1 614 0
 2441              		.cfi_startproc
 2442              		@ args = 0, pretend = 0, frame = 8
 2443              		@ frame_needed = 0, uses_anonymous_args = 0
 2444              	.LVL225:
 2445 0000 70B5     		push	{r4, r5, r6, lr}
 2446              		.cfi_def_cfa_offset 16
 2447              		.cfi_offset 4, -16
 2448              		.cfi_offset 5, -12
 2449              		.cfi_offset 6, -8
 2450              		.cfi_offset 14, -4
 2451 0002 164C     		ldr	r4, .L206
ARM GAS  /var/folders/d2/nstgp4h54kz7g1l847x_b8wc0000gn/T//ccnMLvUn.s 			page 44


 2452 0004 82B0     		sub	sp, sp, #8
 2453              		.cfi_def_cfa_offset 24
 2454              		.loc 1 614 0
 2455 0006 2368     		ldr	r3, [r4]
 2456 0008 0193     		str	r3, [sp, #4]
 2457              	.LVL226:
 2458 000a 0546     		mov	r5, r0
 2459 000c 0E46     		mov	r6, r1
 2460              	.LBB410:
 2461              	.LBB411:
 2462              	.LBB412:
 2463              	.LBB413:
 2464              	.LBB414:
 2465              		.loc 3 546 0
 2466 000e 2023     		movs	r3, #32
 2467              		.syntax unified
 2468              	@ 546 "../e-puck2_main-processor/ChibiOS//os/ext/CMSIS/include/core_cmFunc.h" 1
 2469 0010 83F31188 		MSR basepri, r3
 2470              	@ 0 "" 2
 2471              	.LVL227:
 2472              		.thumb
 2473              		.syntax unified
 2474              	.LBE414:
 2475              	.LBE413:
 2476              	.LBE412:
 2477              		.loc 4 349 0
 2478 0014 FFF7FEFF 		bl	_stats_start_measure_crit_thd
 2479              	.LVL228:
 2480              		.loc 4 350 0
 2481 0018 FFF7FEFF 		bl	_dbg_check_lock
 2482              	.LVL229:
 2483              	.LBE411:
 2484              	.LBE410:
 2485              		.loc 1 617 0
 2486 001c 3146     		mov	r1, r6
 2487 001e 2846     		mov	r0, r5
 2488 0020 FFF7FEFF 		bl	chThdResumeS
 2489              	.LVL230:
 2490              	.LBB415:
 2491              	.LBB416:
 2492              		.loc 4 360 0
 2493 0024 FFF7FEFF 		bl	_dbg_check_unlock
 2494              	.LVL231:
 2495              		.loc 4 361 0
 2496 0028 FFF7FEFF 		bl	_stats_stop_measure_crit_thd
 2497              	.LVL232:
 2498              		.loc 4 367 0
 2499 002c 0C4B     		ldr	r3, .L206+4
 2500 002e 1A68     		ldr	r2, [r3]
 2501 0030 9A42     		cmp	r2, r3
 2502 0032 04D0     		beq	.L201
 2503 0034 9969     		ldr	r1, [r3, #24]
 2504 0036 9368     		ldr	r3, [r2, #8]
 2505 0038 8A68     		ldr	r2, [r1, #8]
 2506 003a 9A42     		cmp	r2, r3
 2507 003c 08D3     		bcc	.L204
 2508              	.L201:
ARM GAS  /var/folders/d2/nstgp4h54kz7g1l847x_b8wc0000gn/T//ccnMLvUn.s 			page 45


 2509              	.LVL233:
 2510              	.LBB417:
 2511              	.LBB418:
 2512              	.LBB419:
 2513              		.loc 3 546 0
 2514 003e 0023     		movs	r3, #0
 2515              		.syntax unified
 2516              	@ 546 "../e-puck2_main-processor/ChibiOS//os/ext/CMSIS/include/core_cmFunc.h" 1
 2517 0040 83F31188 		MSR basepri, r3
 2518              	@ 0 "" 2
 2519              	.LVL234:
 2520              		.thumb
 2521              		.syntax unified
 2522              	.LBE419:
 2523              	.LBE418:
 2524              	.LBE417:
 2525              	.LBE416:
 2526              	.LBE415:
 2527              		.loc 1 619 0
 2528 0044 019A     		ldr	r2, [sp, #4]
 2529 0046 2368     		ldr	r3, [r4]
 2530 0048 9A42     		cmp	r2, r3
 2531 004a 05D1     		bne	.L205
 2532 004c 02B0     		add	sp, sp, #8
 2533              		.cfi_remember_state
 2534              		.cfi_def_cfa_offset 16
 2535              		@ sp needed
 2536 004e 70BD     		pop	{r4, r5, r6, pc}
 2537              	.LVL235:
 2538              	.L204:
 2539              		.cfi_restore_state
 2540              	.LBB421:
 2541              	.LBB420:
 2542              		.loc 4 367 0
 2543 0050 0448     		ldr	r0, .L206+8
 2544 0052 FFF7FEFF 		bl	chSysHalt
 2545              	.LVL236:
 2546 0056 F2E7     		b	.L201
 2547              	.L205:
 2548              	.LBE420:
 2549              	.LBE421:
 2550              		.loc 1 619 0
 2551 0058 FFF7FEFF 		bl	__stack_chk_fail
 2552              	.LVL237:
 2553              	.L207:
 2554              		.align	2
 2555              	.L206:
 2556 005c 00000000 		.word	__stack_chk_guard
 2557 0060 00000000 		.word	ch
 2558 0064 00000000 		.word	.LANCHOR1
 2559              		.cfi_endproc
 2560              	.LFE237:
 2561              		.size	chThdResume, .-chThdResume
 2562              		.section	.text.chThdEnqueueTimeoutS,"ax",%progbits
 2563              		.align	1
 2564              		.p2align 4,,15
 2565              		.global	chThdEnqueueTimeoutS
ARM GAS  /var/folders/d2/nstgp4h54kz7g1l847x_b8wc0000gn/T//ccnMLvUn.s 			page 46


 2566              		.syntax unified
 2567              		.thumb
 2568              		.thumb_func
 2569              		.fpu fpv4-sp-d16
 2570              		.type	chThdEnqueueTimeoutS, %function
 2571              	chThdEnqueueTimeoutS:
 2572              	.LFB238:
 2573              		.loc 1 644 0
 2574              		.cfi_startproc
 2575              		@ args = 0, pretend = 0, frame = 8
 2576              		@ frame_needed = 0, uses_anonymous_args = 0
 2577              	.LVL238:
 2578 0000 30B5     		push	{r4, r5, lr}
 2579              		.cfi_def_cfa_offset 12
 2580              		.cfi_offset 4, -12
 2581              		.cfi_offset 5, -8
 2582              		.cfi_offset 14, -4
 2583 0002 104A     		ldr	r2, .L214
 2584 0004 83B0     		sub	sp, sp, #12
 2585              		.cfi_def_cfa_offset 24
 2586              		.loc 1 644 0
 2587 0006 1368     		ldr	r3, [r2]
 2588 0008 0193     		str	r3, [sp, #4]
 2589              		.loc 1 646 0
 2590 000a 81B1     		cbz	r1, .L209
 2591              		.loc 1 650 0
 2592 000c 0E4B     		ldr	r3, .L214+4
 2593              		.loc 1 652 0
 2594 000e 019D     		ldr	r5, [sp, #4]
 2595              		.loc 1 650 0
 2596 0010 9B69     		ldr	r3, [r3, #24]
 2597              	.LVL239:
 2598              	.LBB422:
 2599              	.LBB423:
 2600              		.loc 2 665 0
 2601 0012 1860     		str	r0, [r3]
 2602              		.loc 2 666 0
 2603 0014 4468     		ldr	r4, [r0, #4]
 2604 0016 5C60     		str	r4, [r3, #4]
 2605              		.loc 2 667 0
 2606 0018 2360     		str	r3, [r4]
 2607              	.LBE423:
 2608              	.LBE422:
 2609              		.loc 1 652 0
 2610 001a 1268     		ldr	r2, [r2]
 2611              	.LBB425:
 2612              	.LBB424:
 2613              		.loc 2 668 0
 2614 001c 4360     		str	r3, [r0, #4]
 2615              	.LVL240:
 2616              	.LBE424:
 2617              	.LBE425:
 2618              		.loc 1 652 0
 2619 001e 9542     		cmp	r5, r2
 2620 0020 0DD1     		bne	.L213
 2621 0022 0420     		movs	r0, #4
 2622              	.LVL241:
ARM GAS  /var/folders/d2/nstgp4h54kz7g1l847x_b8wc0000gn/T//ccnMLvUn.s 			page 47


 2623              		.loc 1 653 0
 2624 0024 03B0     		add	sp, sp, #12
 2625              		.cfi_remember_state
 2626              		.cfi_def_cfa_offset 12
 2627              		@ sp needed
 2628 0026 BDE83040 		pop	{r4, r5, lr}
 2629              		.cfi_restore 14
 2630              		.cfi_restore 5
 2631              		.cfi_restore 4
 2632              		.cfi_def_cfa_offset 0
 2633              		.loc 1 652 0
 2634 002a FFF7FEBF 		b	chSchGoSleepTimeoutS
 2635              	.LVL242:
 2636              	.L209:
 2637              		.cfi_restore_state
 2638              		.loc 1 653 0
 2639 002e 0199     		ldr	r1, [sp, #4]
 2640              	.LVL243:
 2641 0030 1368     		ldr	r3, [r2]
 2642 0032 9942     		cmp	r1, r3
 2643 0034 4FF0FF30 		mov	r0, #-1
 2644              	.LVL244:
 2645 0038 01D1     		bne	.L213
 2646 003a 03B0     		add	sp, sp, #12
 2647              		.cfi_remember_state
 2648              		.cfi_def_cfa_offset 12
 2649              		@ sp needed
 2650 003c 30BD     		pop	{r4, r5, pc}
 2651              	.L213:
 2652              		.cfi_restore_state
 2653 003e FFF7FEFF 		bl	__stack_chk_fail
 2654              	.LVL245:
 2655              	.L215:
 2656 0042 00BF     		.align	2
 2657              	.L214:
 2658 0044 00000000 		.word	__stack_chk_guard
 2659 0048 00000000 		.word	ch
 2660              		.cfi_endproc
 2661              	.LFE238:
 2662              		.size	chThdEnqueueTimeoutS, .-chThdEnqueueTimeoutS
 2663              		.section	.text.chThdDequeueNextI,"ax",%progbits
 2664              		.align	1
 2665              		.p2align 4,,15
 2666              		.global	chThdDequeueNextI
 2667              		.syntax unified
 2668              		.thumb
 2669              		.thumb_func
 2670              		.fpu fpv4-sp-d16
 2671              		.type	chThdDequeueNextI, %function
 2672              	chThdDequeueNextI:
 2673              	.LFB239:
 2674              		.loc 1 664 0
 2675              		.cfi_startproc
 2676              		@ args = 0, pretend = 0, frame = 8
 2677              		@ frame_needed = 0, uses_anonymous_args = 0
 2678              	.LVL246:
 2679 0000 70B5     		push	{r4, r5, r6, lr}
ARM GAS  /var/folders/d2/nstgp4h54kz7g1l847x_b8wc0000gn/T//ccnMLvUn.s 			page 48


 2680              		.cfi_def_cfa_offset 16
 2681              		.cfi_offset 4, -16
 2682              		.cfi_offset 5, -12
 2683              		.cfi_offset 6, -8
 2684              		.cfi_offset 14, -4
 2685 0002 124D     		ldr	r5, .L226
 2686              	.LBB434:
 2687              	.LBB435:
 2688              		.loc 2 631 0
 2689 0004 0468     		ldr	r4, [r0]
 2690              	.LBE435:
 2691              	.LBE434:
 2692              		.loc 1 664 0
 2693 0006 2B68     		ldr	r3, [r5]
 2694 0008 82B0     		sub	sp, sp, #8
 2695              		.cfi_def_cfa_offset 24
 2696              		.loc 1 666 0
 2697 000a A042     		cmp	r0, r4
 2698              		.loc 1 664 0
 2699 000c 0193     		str	r3, [sp, #4]
 2700              		.loc 1 666 0
 2701 000e 15D0     		beq	.L216
 2702              	.LBB436:
 2703              	.LBB437:
 2704              	.LBB438:
 2705              	.LBB439:
 2706              		.loc 2 674 0
 2707 0010 2368     		ldr	r3, [r4]
 2708 0012 0360     		str	r3, [r0]
 2709              		.loc 2 675 0
 2710 0014 5860     		str	r0, [r3, #4]
 2711              	.LBE439:
 2712              	.LBE438:
 2713              		.loc 5 319 0
 2714 0016 94F82030 		ldrb	r3, [r4, #32]	@ zero_extendqisi2
 2715 001a 042B     		cmp	r3, #4
 2716 001c 0E46     		mov	r6, r1
 2717              	.LVL247:
 2718 001e 02D0     		beq	.L218
 2719 0020 0B48     		ldr	r0, .L226+4
 2720              	.LVL248:
 2721 0022 FFF7FEFF 		bl	chSysHalt
 2722              	.LVL249:
 2723              	.L218:
 2724              		.loc 5 322 0
 2725 0026 019A     		ldr	r2, [sp, #4]
 2726 0028 2B68     		ldr	r3, [r5]
 2727              		.loc 5 321 0
 2728 002a A662     		str	r6, [r4, #40]
 2729              		.loc 5 322 0
 2730 002c 9A42     		cmp	r2, r3
 2731 002e 0BD1     		bne	.L225
 2732 0030 2046     		mov	r0, r4
 2733              	.LBE437:
 2734              	.LBE436:
 2735              		.loc 1 669 0
 2736 0032 02B0     		add	sp, sp, #8
ARM GAS  /var/folders/d2/nstgp4h54kz7g1l847x_b8wc0000gn/T//ccnMLvUn.s 			page 49


 2737              		.cfi_remember_state
 2738              		.cfi_def_cfa_offset 16
 2739              		@ sp needed
 2740 0034 BDE87040 		pop	{r4, r5, r6, lr}
 2741              		.cfi_restore 14
 2742              		.cfi_restore 6
 2743              		.cfi_restore 5
 2744              		.cfi_restore 4
 2745              		.cfi_def_cfa_offset 0
 2746              	.LVL250:
 2747              	.LBB441:
 2748              	.LBB440:
 2749              		.loc 5 322 0
 2750 0038 FFF7FEBF 		b	chSchReadyI
 2751              	.LVL251:
 2752              	.L216:
 2753              		.cfi_restore_state
 2754              	.LBE440:
 2755              	.LBE441:
 2756              		.loc 1 669 0
 2757 003c 019A     		ldr	r2, [sp, #4]
 2758 003e 2B68     		ldr	r3, [r5]
 2759 0040 9A42     		cmp	r2, r3
 2760 0042 01D1     		bne	.L225
 2761 0044 02B0     		add	sp, sp, #8
 2762              		.cfi_remember_state
 2763              		.cfi_def_cfa_offset 16
 2764              		@ sp needed
 2765 0046 70BD     		pop	{r4, r5, r6, pc}
 2766              	.LVL252:
 2767              	.L225:
 2768              		.cfi_restore_state
 2769 0048 FFF7FEFF 		bl	__stack_chk_fail
 2770              	.LVL253:
 2771              	.L227:
 2772              		.align	2
 2773              	.L226:
 2774 004c 00000000 		.word	__stack_chk_guard
 2775 0050 00000000 		.word	.LANCHOR11
 2776              		.cfi_endproc
 2777              	.LFE239:
 2778              		.size	chThdDequeueNextI, .-chThdDequeueNextI
 2779              		.section	.text.chThdDequeueAllI,"ax",%progbits
 2780              		.align	1
 2781              		.p2align 4,,15
 2782              		.global	chThdDequeueAllI
 2783              		.syntax unified
 2784              		.thumb
 2785              		.thumb_func
 2786              		.fpu fpv4-sp-d16
 2787              		.type	chThdDequeueAllI, %function
 2788              	chThdDequeueAllI:
 2789              	.LFB240:
 2790              		.loc 1 679 0
 2791              		.cfi_startproc
 2792              		@ args = 0, pretend = 0, frame = 8
 2793              		@ frame_needed = 0, uses_anonymous_args = 0
ARM GAS  /var/folders/d2/nstgp4h54kz7g1l847x_b8wc0000gn/T//ccnMLvUn.s 			page 50


 2794              	.LVL254:
 2795 0000 2DE9F041 		push	{r4, r5, r6, r7, r8, lr}
 2796              		.cfi_def_cfa_offset 24
 2797              		.cfi_offset 4, -24
 2798              		.cfi_offset 5, -20
 2799              		.cfi_offset 6, -16
 2800              		.cfi_offset 7, -12
 2801              		.cfi_offset 8, -8
 2802              		.cfi_offset 14, -4
 2803 0004 DFF85080 		ldr	r8, .L239+4
 2804              	.LBB450:
 2805              	.LBB451:
 2806              		.loc 2 631 0
 2807 0008 0468     		ldr	r4, [r0]
 2808              	.LBE451:
 2809              	.LBE450:
 2810              		.loc 1 679 0
 2811 000a D8F80030 		ldr	r3, [r8]
 2812 000e 82B0     		sub	sp, sp, #8
 2813              		.cfi_def_cfa_offset 32
 2814              		.loc 1 681 0
 2815 0010 A042     		cmp	r0, r4
 2816              		.loc 1 679 0
 2817 0012 0193     		str	r3, [sp, #4]
 2818              		.loc 1 681 0
 2819 0014 13D0     		beq	.L228
 2820              	.LBB453:
 2821              	.LBB454:
 2822              		.loc 5 319 0
 2823 0016 0F4F     		ldr	r7, .L239
 2824 0018 0546     		mov	r5, r0
 2825 001a 0E46     		mov	r6, r1
 2826              	.LVL255:
 2827              	.L231:
 2828              	.LBB455:
 2829              	.LBB456:
 2830              		.loc 2 674 0
 2831 001c 2368     		ldr	r3, [r4]
 2832 001e 2B60     		str	r3, [r5]
 2833              	.LVL256:
 2834              		.loc 2 675 0
 2835 0020 5D60     		str	r5, [r3, #4]
 2836              	.LVL257:
 2837              	.LBE456:
 2838              	.LBE455:
 2839              		.loc 5 319 0
 2840 0022 94F82030 		ldrb	r3, [r4, #32]	@ zero_extendqisi2
 2841 0026 042B     		cmp	r3, #4
 2842 0028 02D0     		beq	.L230
 2843 002a 3846     		mov	r0, r7
 2844 002c FFF7FEFF 		bl	chSysHalt
 2845              	.LVL258:
 2846              	.L230:
 2847              		.loc 5 321 0
 2848 0030 A662     		str	r6, [r4, #40]
 2849              		.loc 5 322 0
 2850 0032 2046     		mov	r0, r4
ARM GAS  /var/folders/d2/nstgp4h54kz7g1l847x_b8wc0000gn/T//ccnMLvUn.s 			page 51


 2851 0034 FFF7FEFF 		bl	chSchReadyI
 2852              	.LVL259:
 2853              	.LBE454:
 2854              	.LBE453:
 2855              	.LBB457:
 2856              	.LBB452:
 2857              		.loc 2 631 0
 2858 0038 2C68     		ldr	r4, [r5]
 2859              	.LVL260:
 2860              	.LBE452:
 2861              	.LBE457:
 2862              		.loc 1 681 0
 2863 003a A542     		cmp	r5, r4
 2864 003c EED1     		bne	.L231
 2865              	.LVL261:
 2866              	.L228:
 2867              		.loc 1 684 0
 2868 003e 019A     		ldr	r2, [sp, #4]
 2869 0040 D8F80030 		ldr	r3, [r8]
 2870 0044 9A42     		cmp	r2, r3
 2871 0046 02D1     		bne	.L238
 2872 0048 02B0     		add	sp, sp, #8
 2873              		.cfi_remember_state
 2874              		.cfi_def_cfa_offset 24
 2875              		@ sp needed
 2876 004a BDE8F081 		pop	{r4, r5, r6, r7, r8, pc}
 2877              	.L238:
 2878              		.cfi_restore_state
 2879 004e FFF7FEFF 		bl	__stack_chk_fail
 2880              	.LVL262:
 2881              	.L240:
 2882 0052 00BF     		.align	2
 2883              	.L239:
 2884 0054 00000000 		.word	.LANCHOR11
 2885 0058 00000000 		.word	__stack_chk_guard
 2886              		.cfi_endproc
 2887              	.LFE240:
 2888              		.size	chThdDequeueAllI, .-chThdDequeueAllI
 2889              		.section	.rodata.__func__.7153,"a",%progbits
 2890              		.align	2
 2891              		.set	.LANCHOR1,. + 0
 2892              		.type	__func__.7153, %object
 2893              		.size	__func__.7153, 12
 2894              	__func__.7153:
 2895 0000 63685379 		.ascii	"chSysUnlock\000"
 2895      73556E6C 
 2895      6F636B00 
 2896              		.section	.rodata.__func__.7320,"a",%progbits
 2897              		.align	2
 2898              		.set	.LANCHOR2,. + 0
 2899              		.type	__func__.7320, %object
 2900              		.size	__func__.7320, 12
 2901              	__func__.7320:
 2902 0000 63685468 		.ascii	"chThdStartI\000"
 2902      64537461 
 2902      72744900 
 2903              		.section	.rodata.__func__.7324,"a",%progbits
ARM GAS  /var/folders/d2/nstgp4h54kz7g1l847x_b8wc0000gn/T//ccnMLvUn.s 			page 52


 2904              		.align	2
 2905              		.set	.LANCHOR4,. + 0
 2906              		.type	__func__.7324, %object
 2907              		.size	__func__.7324, 12
 2908              	__func__.7324:
 2909 0000 63685468 		.ascii	"chThdSleepS\000"
 2909      64536C65 
 2909      65705300 
 2910              		.section	.rodata.__func__.7336,"a",%progbits
 2911              		.align	2
 2912              		.set	.LANCHOR11,. + 0
 2913              		.type	__func__.7336, %object
 2914              		.size	__func__.7336, 20
 2915              	__func__.7336:
 2916 0000 63685468 		.ascii	"chThdDoDequeueNextI\000"
 2916      64446F44 
 2916      65717565 
 2916      75654E65 
 2916      78744900 
 2917              		.section	.rodata.__func__.7866,"a",%progbits
 2918              		.align	2
 2919              		.set	.LANCHOR0,. + 0
 2920              		.type	__func__.7866, %object
 2921              		.size	__func__.7866, 13
 2922              	__func__.7866:
 2923 0000 63685468 		.ascii	"chThdCreateI\000"
 2923      64437265 
 2923      61746549 
 2923      00
 2924              		.section	.rodata.__func__.7882,"a",%progbits
 2925              		.align	2
 2926              		.set	.LANCHOR3,. + 0
 2927              		.type	__func__.7882, %object
 2928              		.size	__func__.7882, 17
 2929              	__func__.7882:
 2930 0000 63685468 		.ascii	"chThdSetPriority\000"
 2930      64536574 
 2930      5072696F 
 2930      72697479 
 2930      00
 2931              		.section	.rodata.__func__.7910,"a",%progbits
 2932              		.align	2
 2933              		.set	.LANCHOR5,. + 0
 2934              		.type	__func__.7910, %object
 2935              		.size	__func__.7910, 11
 2936              	__func__.7910:
 2937 0000 63685468 		.ascii	"chThdExitS\000"
 2937      64457869 
 2937      745300
 2938              		.section	.rodata.__func__.7915,"a",%progbits
 2939              		.align	2
 2940              		.set	.LANCHOR6,. + 0
 2941              		.type	__func__.7915, %object
 2942              		.size	__func__.7915, 10
 2943              	__func__.7915:
 2944 0000 63685468 		.ascii	"chThdWait\000"
 2944      64576169 
ARM GAS  /var/folders/d2/nstgp4h54kz7g1l847x_b8wc0000gn/T//ccnMLvUn.s 			page 53


 2944      7400
 2945              		.section	.rodata.__func__.7920,"a",%progbits
 2946              		.align	2
 2947              		.set	.LANCHOR7,. + 0
 2948              		.type	__func__.7920, %object
 2949              		.size	__func__.7920, 14
 2950              	__func__.7920:
 2951 0000 63685468 		.ascii	"chThdSuspendS\000"
 2951      64537573 
 2951      70656E64 
 2951      5300
 2952              		.section	.rodata.__func__.7926,"a",%progbits
 2953              		.align	2
 2954              		.set	.LANCHOR8,. + 0
 2955              		.type	__func__.7926, %object
 2956              		.size	__func__.7926, 21
 2957              	__func__.7926:
 2958 0000 63685468 		.ascii	"chThdSuspendTimeoutS\000"
 2958      64537573 
 2958      70656E64 
 2958      54696D65 
 2958      6F757453 
 2959              		.section	.rodata.__func__.7932,"a",%progbits
 2960              		.align	2
 2961              		.set	.LANCHOR9,. + 0
 2962              		.type	__func__.7932, %object
 2963              		.size	__func__.7932, 13
 2964              	__func__.7932:
 2965 0000 63685468 		.ascii	"chThdResumeI\000"
 2965      64526573 
 2965      756D6549 
 2965      00
 2966              		.section	.rodata.__func__.7938,"a",%progbits
 2967              		.align	2
 2968              		.set	.LANCHOR10,. + 0
 2969              		.type	__func__.7938, %object
 2970              		.size	__func__.7938, 13
 2971              	__func__.7938:
 2972 0000 63685468 		.ascii	"chThdResumeS\000"
 2972      64526573 
 2972      756D6553 
 2972      00
 2973              		.text
 2974              	.Letext0:
 2975              		.file 7 "/Applications/Eclipse_e-puck2.app/Contents/Eclipse_e-puck2/Tools/gcc-arm-none-eabi-7-2017
 2976              		.file 8 "/Applications/Eclipse_e-puck2.app/Contents/Eclipse_e-puck2/Tools/gcc-arm-none-eabi-7-2017
 2977              		.file 9 "/Applications/Eclipse_e-puck2.app/Contents/Eclipse_e-puck2/Tools/gcc-arm-none-eabi-7-2017
 2978              		.file 10 "../e-puck2_main-processor/ChibiOS//os/rt/ports/ARMCMx/compilers/GCC/chtypes.h"
 2979              		.file 11 "../e-puck2_main-processor/ChibiOS//os/rt/include/chsystypes.h"
 2980              		.file 12 "../e-puck2_main-processor/ChibiOS//os/ext/CMSIS/include/core_cm4.h"
 2981              		.file 13 "../e-puck2_main-processor/ChibiOS//os/ext/CMSIS/ST/system_stm32f4xx.h"
 2982              		.file 14 "../e-puck2_main-processor/ChibiOS//os/rt/ports/ARMCMx/chcore.h"
 2983              		.file 15 "../e-puck2_main-processor/ChibiOS//os/rt/ports/ARMCMx/chcore_v7m.h"
 2984              		.file 16 "../e-puck2_main-processor/ChibiOS//os/rt/include/chdebug.h"
 2985              		.file 17 "../e-puck2_main-processor/ChibiOS//os/rt/include/chtm.h"
 2986              		.file 18 "../e-puck2_main-processor/ChibiOS//os/rt/include/chstats.h"
 2987              		.file 19 "../e-puck2_main-processor/ChibiOS//os/rt/include/chsem.h"
ARM GAS  /var/folders/d2/nstgp4h54kz7g1l847x_b8wc0000gn/T//ccnMLvUn.s 			page 54


 2988              		.file 20 "../e-puck2_main-processor/ChibiOS//os/rt/include/chmtx.h"
 2989              		.file 21 "../e-puck2_main-processor/ChibiOS//os/rt/include/chregistry.h"
 2990              		.file 22 "../e-puck2_main-processor/ChibiOS//os/rt/include/chdynamic.h"