ARM GAS  /var/folders/d2/nstgp4h54kz7g1l847x_b8wc0000gn/T//ccHr493i.s 			page 1


   1              		.cpu cortex-m4
   2              		.eabi_attribute 27, 1
   3              		.eabi_attribute 28, 1
   4              		.eabi_attribute 20, 1
   5              		.eabi_attribute 21, 1
   6              		.eabi_attribute 23, 3
   7              		.eabi_attribute 24, 1
   8              		.eabi_attribute 25, 1
   9              		.eabi_attribute 26, 1
  10              		.eabi_attribute 30, 2
  11              		.eabi_attribute 34, 1
  12              		.eabi_attribute 18, 4
  13              		.file	"chtm.c"
  14              		.text
  15              	.Ltext0:
  16              		.cfi_sections	.debug_frame
  17              		.section	.text.chTMObjectInit,"ax",%progbits
  18              		.align	1
  19              		.p2align 4,,15
  20              		.global	chTMObjectInit
  21              		.syntax unified
  22              		.thumb
  23              		.thumb_func
  24              		.fpu fpv4-sp-d16
  25              		.type	chTMObjectInit, %function
  26              	chTMObjectInit:
  27              	.LFB221:
  28              		.file 1 "../e-puck2_main-processor/ChibiOS//os/rt/src/chtm.c"
  29              		.loc 1 99 0
  30              		.cfi_startproc
  31              		@ args = 0, pretend = 0, frame = 8
  32              		@ frame_needed = 0, uses_anonymous_args = 0
  33              	.LVL0:
  34 0000 30B5     		push	{r4, r5, lr}
  35              		.cfi_def_cfa_offset 12
  36              		.cfi_offset 4, -12
  37              		.cfi_offset 5, -8
  38              		.cfi_offset 14, -4
  39 0002 0B4B     		ldr	r3, .L6
  40 0004 83B0     		sub	sp, sp, #12
  41              		.cfi_def_cfa_offset 24
  42              		.loc 1 99 0
  43 0006 1A68     		ldr	r2, [r3]
  44 0008 0192     		str	r2, [sp, #4]
  45              		.loc 1 101 0
  46 000a 4FF0FF32 		mov	r2, #-1
  47 000e 0260     		str	r2, [r0]
  48              		.loc 1 106 0
  49 0010 0199     		ldr	r1, [sp, #4]
  50 0012 1A68     		ldr	r2, [r3]
  51              		.loc 1 105 0
  52 0014 0024     		movs	r4, #0
  53              		.loc 1 102 0
  54 0016 0023     		movs	r3, #0
  55              		.loc 1 105 0
  56 0018 0025     		movs	r5, #0
  57              		.loc 1 106 0
ARM GAS  /var/folders/d2/nstgp4h54kz7g1l847x_b8wc0000gn/T//ccHr493i.s 			page 2


  58 001a 9142     		cmp	r1, r2
  59              		.loc 1 105 0
  60 001c C0E90445 		strd	r4, [r0, #16]
  61              		.loc 1 103 0
  62 0020 C0E90133 		strd	r3, r3, [r0, #4]
  63              		.loc 1 104 0
  64 0024 C360     		str	r3, [r0, #12]
  65              		.loc 1 106 0
  66 0026 01D1     		bne	.L5
  67 0028 03B0     		add	sp, sp, #12
  68              		.cfi_remember_state
  69              		.cfi_def_cfa_offset 12
  70              		@ sp needed
  71 002a 30BD     		pop	{r4, r5, pc}
  72              	.L5:
  73              		.cfi_restore_state
  74 002c FFF7FEFF 		bl	__stack_chk_fail
  75              	.LVL1:
  76              	.L7:
  77              		.align	2
  78              	.L6:
  79 0030 00000000 		.word	__stack_chk_guard
  80              		.cfi_endproc
  81              	.LFE221:
  82              		.size	chTMObjectInit, .-chTMObjectInit
  83              		.section	.text.chTMStartMeasurementX,"ax",%progbits
  84              		.align	1
  85              		.p2align 4,,15
  86              		.global	chTMStartMeasurementX
  87              		.syntax unified
  88              		.thumb
  89              		.thumb_func
  90              		.fpu fpv4-sp-d16
  91              		.type	chTMStartMeasurementX, %function
  92              	chTMStartMeasurementX:
  93              	.LFB222:
  94              		.loc 1 116 0
  95              		.cfi_startproc
  96              		@ args = 0, pretend = 0, frame = 8
  97              		@ frame_needed = 0, uses_anonymous_args = 0
  98              	.LVL2:
  99 0000 00B5     		push	{lr}
 100              		.cfi_def_cfa_offset 4
 101              		.cfi_offset 14, -4
 102 0002 084B     		ldr	r3, .L12
 103              	.LBB14:
 104              	.LBB15:
 105              		.file 2 "../e-puck2_main-processor/ChibiOS//os/rt/ports/ARMCMx/chcore_v7m.h"
 106              		.loc 2 548 0
 107 0004 084A     		ldr	r2, .L12+4
 108              	.LBE15:
 109              	.LBE14:
 110              		.loc 1 116 0
 111 0006 1968     		ldr	r1, [r3]
 112 0008 83B0     		sub	sp, sp, #12
 113              		.cfi_def_cfa_offset 16
 114              		.loc 1 116 0
ARM GAS  /var/folders/d2/nstgp4h54kz7g1l847x_b8wc0000gn/T//ccHr493i.s 			page 3


 115 000a 0191     		str	r1, [sp, #4]
 116              	.LBB17:
 117              	.LBB16:
 118              		.loc 2 548 0
 119 000c 5168     		ldr	r1, [r2, #4]
 120              	.LBE16:
 121              	.LBE17:
 122              		.loc 1 119 0
 123 000e 019A     		ldr	r2, [sp, #4]
 124 0010 1B68     		ldr	r3, [r3]
 125              		.loc 1 118 0
 126 0012 8160     		str	r1, [r0, #8]
 127              		.loc 1 119 0
 128 0014 9A42     		cmp	r2, r3
 129 0016 02D1     		bne	.L11
 130 0018 03B0     		add	sp, sp, #12
 131              		.cfi_remember_state
 132              		.cfi_def_cfa_offset 4
 133              		@ sp needed
 134 001a 5DF804FB 		ldr	pc, [sp], #4
 135              	.L11:
 136              		.cfi_restore_state
 137 001e FFF7FEFF 		bl	__stack_chk_fail
 138              	.LVL3:
 139              	.L13:
 140 0022 00BF     		.align	2
 141              	.L12:
 142 0024 00000000 		.word	__stack_chk_guard
 143 0028 001000E0 		.word	-536866816
 144              		.cfi_endproc
 145              	.LFE222:
 146              		.size	chTMStartMeasurementX, .-chTMStartMeasurementX
 147              		.section	.text.chTMStopMeasurementX,"ax",%progbits
 148              		.align	1
 149              		.p2align 4,,15
 150              		.global	chTMStopMeasurementX
 151              		.syntax unified
 152              		.thumb
 153              		.thumb_func
 154              		.fpu fpv4-sp-d16
 155              		.type	chTMStopMeasurementX, %function
 156              	chTMStopMeasurementX:
 157              	.LFB223:
 158              		.loc 1 129 0
 159              		.cfi_startproc
 160              		@ args = 0, pretend = 0, frame = 8
 161              		@ frame_needed = 0, uses_anonymous_args = 0
 162              	.LVL4:
 163 0000 F0B5     		push	{r4, r5, r6, r7, lr}
 164              		.cfi_def_cfa_offset 20
 165              		.cfi_offset 4, -20
 166              		.cfi_offset 5, -16
 167              		.cfi_offset 6, -12
 168              		.cfi_offset 7, -8
 169              		.cfi_offset 14, -4
 170 0002 1449     		ldr	r1, .L21
 171              	.LBB18:
ARM GAS  /var/folders/d2/nstgp4h54kz7g1l847x_b8wc0000gn/T//ccHr493i.s 			page 4


 172              	.LBB19:
 173              		.loc 2 548 0
 174 0004 144B     		ldr	r3, .L21+4
 175              	.LBE19:
 176              	.LBE18:
 177              		.loc 1 129 0
 178 0006 0A68     		ldr	r2, [r1]
 179              	.LBB21:
 180              	.LBB22:
 181              		.loc 1 58 0
 182 0008 8468     		ldr	r4, [r0, #8]
 183              	.LBE22:
 184              	.LBE21:
 185              		.loc 1 129 0
 186 000a 83B0     		sub	sp, sp, #12
 187              		.cfi_def_cfa_offset 32
 188              		.loc 1 129 0
 189 000c 0192     		str	r2, [sp, #4]
 190              		.loc 1 131 0
 191 000e 134A     		ldr	r2, .L21+8
 192              	.LBB25:
 193              	.LBB20:
 194              		.loc 2 548 0
 195 0010 5B68     		ldr	r3, [r3, #4]
 196              	.LBE20:
 197              	.LBE25:
 198              		.loc 1 131 0
 199 0012 D2F8A864 		ldr	r6, [r2, #1192]
 200              	.LVL5:
 201              	.LBB26:
 202              	.LBB23:
 203              		.loc 1 57 0
 204 0016 C268     		ldr	r2, [r0, #12]
 205              		.loc 1 58 0
 206 0018 1B1B     		subs	r3, r3, r4
 207              		.loc 1 59 0
 208 001a D0E90445 		ldrd	r4, [r0, #16]
 209              		.loc 1 57 0
 210 001e 0132     		adds	r2, r2, #1
 211              		.loc 1 58 0
 212 0020 9B1B     		subs	r3, r3, r6
 213              		.loc 1 57 0
 214 0022 C260     		str	r2, [r0, #12]
 215              		.loc 1 61 0
 216 0024 4268     		ldr	r2, [r0, #4]
 217              		.loc 1 58 0
 218 0026 8360     		str	r3, [r0, #8]
 219              		.loc 1 59 0
 220 0028 E618     		adds	r6, r4, r3
 221              	.LVL6:
 222 002a 45F10007 		adc	r7, r5, #0
 223              		.loc 1 61 0
 224 002e 9342     		cmp	r3, r2
 225              		.loc 1 59 0
 226 0030 C0E90467 		strd	r6, [r0, #16]
 227              		.loc 1 61 0
 228 0034 09D8     		bhi	.L19
ARM GAS  /var/folders/d2/nstgp4h54kz7g1l847x_b8wc0000gn/T//ccHr493i.s 			page 5


 229              		.loc 1 64 0
 230 0036 0268     		ldr	r2, [r0]
 231 0038 9342     		cmp	r3, r2
 232              		.loc 1 65 0
 233 003a 38BF     		it	cc
 234 003c 0360     		strcc	r3, [r0]
 235              	.LVL7:
 236              	.L14:
 237              	.LBE23:
 238              	.LBE26:
 239              		.loc 1 132 0
 240 003e 019A     		ldr	r2, [sp, #4]
 241 0040 0B68     		ldr	r3, [r1]
 242 0042 9A42     		cmp	r2, r3
 243 0044 03D1     		bne	.L20
 244 0046 03B0     		add	sp, sp, #12
 245              		.cfi_remember_state
 246              		.cfi_def_cfa_offset 20
 247              		@ sp needed
 248 0048 F0BD     		pop	{r4, r5, r6, r7, pc}
 249              	.LVL8:
 250              	.L19:
 251              		.cfi_restore_state
 252              	.LBB27:
 253              	.LBB24:
 254              		.loc 1 62 0
 255 004a 4360     		str	r3, [r0, #4]
 256 004c F7E7     		b	.L14
 257              	.LVL9:
 258              	.L20:
 259              	.LBE24:
 260              	.LBE27:
 261              		.loc 1 132 0
 262 004e FFF7FEFF 		bl	__stack_chk_fail
 263              	.LVL10:
 264              	.L22:
 265 0052 00BF     		.align	2
 266              	.L21:
 267 0054 00000000 		.word	__stack_chk_guard
 268 0058 001000E0 		.word	-536866816
 269 005c 00000000 		.word	ch
 270              		.cfi_endproc
 271              	.LFE223:
 272              		.size	chTMStopMeasurementX, .-chTMStopMeasurementX
 273              		.section	.text._tm_init,"ax",%progbits
 274              		.align	1
 275              		.p2align 4,,15
 276              		.global	_tm_init
 277              		.syntax unified
 278              		.thumb
 279              		.thumb_func
 280              		.fpu fpv4-sp-d16
 281              		.type	_tm_init, %function
 282              	_tm_init:
 283              	.LFB220:
 284              		.loc 1 79 0
 285              		.cfi_startproc
ARM GAS  /var/folders/d2/nstgp4h54kz7g1l847x_b8wc0000gn/T//ccHr493i.s 			page 6


 286              		@ args = 0, pretend = 0, frame = 32
 287              		@ frame_needed = 0, uses_anonymous_args = 0
 288 0000 30B5     		push	{r4, r5, lr}
 289              		.cfi_def_cfa_offset 12
 290              		.cfi_offset 4, -12
 291              		.cfi_offset 5, -8
 292              		.cfi_offset 14, -4
 293 0002 114D     		ldr	r5, .L27
 294              		.loc 1 85 0
 295 0004 114C     		ldr	r4, .L27+4
 296              		.loc 1 79 0
 297 0006 2B68     		ldr	r3, [r5]
 298 0008 89B0     		sub	sp, sp, #36
 299              		.cfi_def_cfa_offset 48
 300              	.LBB28:
 301              	.LBB29:
 302              		.loc 1 101 0
 303 000a 4FF0FF31 		mov	r1, #-1
 304              	.LBE29:
 305              	.LBE28:
 306              		.loc 1 79 0
 307 000e 0793     		str	r3, [sp, #28]
 308              		.loc 1 85 0
 309 0010 0023     		movs	r3, #0
 310              	.LBB32:
 311              	.LBB30:
 312              		.loc 1 105 0
 313 0012 0022     		movs	r2, #0
 314              	.LBE30:
 315              	.LBE32:
 316              		.loc 1 87 0
 317 0014 6846     		mov	r0, sp
 318              		.loc 1 85 0
 319 0016 C4F8A834 		str	r3, [r4, #1192]
 320              	.LVL11:
 321              	.LBB33:
 322              	.LBB31:
 323              		.loc 1 103 0
 324 001a CDE90133 		strd	r3, r3, [sp, #4]
 325              		.loc 1 104 0
 326 001e 0393     		str	r3, [sp, #12]
 327              		.loc 1 105 0
 328 0020 0023     		movs	r3, #0
 329 0022 CDE90423 		strd	r2, [sp, #16]
 330              	.LVL12:
 331              		.loc 1 101 0
 332 0026 0091     		str	r1, [sp]
 333              	.LBE31:
 334              	.LBE33:
 335              		.loc 1 87 0
 336 0028 FFF7FEFF 		bl	chTMStartMeasurementX
 337              	.LVL13:
 338              		.loc 1 88 0
 339 002c 6846     		mov	r0, sp
 340 002e FFF7FEFF 		bl	chTMStopMeasurementX
 341              	.LVL14:
 342              		.loc 1 90 0
ARM GAS  /var/folders/d2/nstgp4h54kz7g1l847x_b8wc0000gn/T//ccHr493i.s 			page 7


 343 0032 079A     		ldr	r2, [sp, #28]
 344 0034 2B68     		ldr	r3, [r5]
 345              		.loc 1 89 0
 346 0036 0299     		ldr	r1, [sp, #8]
 347 0038 C4F8A814 		str	r1, [r4, #1192]
 348              		.loc 1 90 0
 349 003c 9A42     		cmp	r2, r3
 350 003e 01D1     		bne	.L26
 351 0040 09B0     		add	sp, sp, #36
 352              		.cfi_remember_state
 353              		.cfi_def_cfa_offset 12
 354              		@ sp needed
 355 0042 30BD     		pop	{r4, r5, pc}
 356              	.L26:
 357              		.cfi_restore_state
 358 0044 FFF7FEFF 		bl	__stack_chk_fail
 359              	.LVL15:
 360              	.L28:
 361              		.align	2
 362              	.L27:
 363 0048 00000000 		.word	__stack_chk_guard
 364 004c 00000000 		.word	ch
 365              		.cfi_endproc
 366              	.LFE220:
 367              		.size	_tm_init, .-_tm_init
 368              		.section	.text.chTMChainMeasurementToX,"ax",%progbits
 369              		.align	1
 370              		.p2align 4,,15
 371              		.global	chTMChainMeasurementToX
 372              		.syntax unified
 373              		.thumb
 374              		.thumb_func
 375              		.fpu fpv4-sp-d16
 376              		.type	chTMChainMeasurementToX, %function
 377              	chTMChainMeasurementToX:
 378              	.LFB224:
 379              		.loc 1 147 0
 380              		.cfi_startproc
 381              		@ args = 0, pretend = 0, frame = 8
 382              		@ frame_needed = 0, uses_anonymous_args = 0
 383              	.LVL16:
 384 0000 2DE97048 		push	{r4, r5, r6, fp, lr}
 385              		.cfi_def_cfa_offset 20
 386              		.cfi_offset 4, -20
 387              		.cfi_offset 5, -16
 388              		.cfi_offset 6, -12
 389              		.cfi_offset 11, -8
 390              		.cfi_offset 14, -4
 391 0004 134E     		ldr	r6, .L36
 392              	.LBB34:
 393              	.LBB35:
 394              		.loc 2 548 0
 395 0006 144B     		ldr	r3, .L36+4
 396              	.LBE35:
 397              	.LBE34:
 398              		.loc 1 147 0
 399 0008 3268     		ldr	r2, [r6]
ARM GAS  /var/folders/d2/nstgp4h54kz7g1l847x_b8wc0000gn/T//ccHr493i.s 			page 8


 400 000a 83B0     		sub	sp, sp, #12
 401              		.cfi_def_cfa_offset 32
 402              		.loc 1 147 0
 403 000c 0192     		str	r2, [sp, #4]
 404              	.LBB37:
 405              	.LBB36:
 406              		.loc 2 548 0
 407 000e 5B68     		ldr	r3, [r3, #4]
 408              	.LBE36:
 409              	.LBE37:
 410              		.loc 1 150 0
 411 0010 8B60     		str	r3, [r1, #8]
 412              	.LVL17:
 413              	.LBB38:
 414              	.LBB39:
 415              		.loc 1 57 0
 416 0012 D0E90241 		ldrd	r4, r1, [r0, #8]
 417              	.LVL18:
 418              		.loc 1 58 0
 419 0016 1B1B     		subs	r3, r3, r4
 420              	.LVL19:
 421              		.loc 1 59 0
 422 0018 D0E90445 		ldrd	r4, [r0, #16]
 423              		.loc 1 61 0
 424 001c 4268     		ldr	r2, [r0, #4]
 425              		.loc 1 59 0
 426 001e 14EB030B 		adds	fp, r4, r3
 427 0022 45F1000C 		adc	ip, r5, #0
 428              		.loc 1 57 0
 429 0026 0131     		adds	r1, r1, #1
 430              		.loc 1 61 0
 431 0028 9342     		cmp	r3, r2
 432              		.loc 1 58 0
 433 002a C0E90231 		strd	r3, r1, [r0, #8]
 434              	.LVL20:
 435              		.loc 1 59 0
 436 002e C0E904BC 		strd	fp, [r0, #16]
 437              		.loc 1 61 0
 438 0032 0AD8     		bhi	.L34
 439              		.loc 1 64 0
 440 0034 0268     		ldr	r2, [r0]
 441 0036 9342     		cmp	r3, r2
 442              		.loc 1 65 0
 443 0038 38BF     		it	cc
 444 003a 0360     		strcc	r3, [r0]
 445              	.LVL21:
 446              	.L29:
 447              	.LBE39:
 448              	.LBE38:
 449              		.loc 1 154 0
 450 003c 019A     		ldr	r2, [sp, #4]
 451 003e 3368     		ldr	r3, [r6]
 452 0040 9A42     		cmp	r2, r3
 453 0042 04D1     		bne	.L35
 454 0044 03B0     		add	sp, sp, #12
 455              		.cfi_remember_state
 456              		.cfi_def_cfa_offset 20
ARM GAS  /var/folders/d2/nstgp4h54kz7g1l847x_b8wc0000gn/T//ccHr493i.s 			page 9


 457              		@ sp needed
 458 0046 BDE87088 		pop	{r4, r5, r6, fp, pc}
 459              	.LVL22:
 460              	.L34:
 461              		.cfi_restore_state
 462              	.LBB41:
 463              	.LBB40:
 464              		.loc 1 62 0
 465 004a 4360     		str	r3, [r0, #4]
 466 004c F6E7     		b	.L29
 467              	.LVL23:
 468              	.L35:
 469              	.LBE40:
 470              	.LBE41:
 471              		.loc 1 154 0
 472 004e FFF7FEFF 		bl	__stack_chk_fail
 473              	.LVL24:
 474              	.L37:
 475 0052 00BF     		.align	2
 476              	.L36:
 477 0054 00000000 		.word	__stack_chk_guard
 478 0058 001000E0 		.word	-536866816
 479              		.cfi_endproc
 480              	.LFE224:
 481              		.size	chTMChainMeasurementToX, .-chTMChainMeasurementToX
 482              		.text
 483              	.Letext0:
 484              		.file 3 "/Applications/Eclipse_e-puck2.app/Contents/Eclipse_e-puck2/Tools/gcc-arm-none-eabi-7-2017
 485              		.file 4 "/Applications/Eclipse_e-puck2.app/Contents/Eclipse_e-puck2/Tools/gcc-arm-none-eabi-7-2017
 486              		.file 5 "../e-puck2_main-processor/ChibiOS//os/rt/ports/ARMCMx/compilers/GCC/chtypes.h"
 487              		.file 6 "../e-puck2_main-processor/ChibiOS//os/rt/include/chsystypes.h"
 488              		.file 7 "../e-puck2_main-processor/ChibiOS//os/rt/include/chschd.h"
 489              		.file 8 "../e-puck2_main-processor/ChibiOS//os/ext/CMSIS/include/core_cm4.h"
 490              		.file 9 "../e-puck2_main-processor/ChibiOS//os/ext/CMSIS/ST/system_stm32f4xx.h"
 491              		.file 10 "../e-puck2_main-processor/ChibiOS//os/rt/ports/ARMCMx/chcore.h"
 492              		.file 11 "../e-puck2_main-processor/ChibiOS//os/rt/include/chdebug.h"
 493              		.file 12 "../e-puck2_main-processor/ChibiOS//os/rt/include/chtm.h"
 494              		.file 13 "../e-puck2_main-processor/ChibiOS//os/rt/include/chstats.h"
 495              		.file 14 "../e-puck2_main-processor/ChibiOS//os/rt/include/chsem.h"
 496              		.file 15 "../e-puck2_main-processor/ChibiOS//os/rt/include/chmtx.h"
 497              		.file 16 "../e-puck2_main-processor/ChibiOS//os/rt/include/chregistry.h"
 498              		.section	.debug_info,"",%progbits
 499              	.Ldebug_info0:
 500 0000 5D0D0000 		.4byte	0xd5d
 501 0004 0400     		.2byte	0x4
 502 0006 00000000 		.4byte	.Ldebug_abbrev0
 503 000a 04       		.byte	0x4
 504 000b 01       		.uleb128 0x1
 505 000c 7A020000 		.4byte	.LASF186
 506 0010 0C       		.byte	0xc
 507 0011 AD040000 		.4byte	.LASF187
 508 0015 37080000 		.4byte	.LASF188
 509 0019 A0000000 		.4byte	.Ldebug_ranges0+0xa0
 510 001d 00000000 		.4byte	0
 511 0021 00000000 		.4byte	.Ldebug_line0
 512 0025 02       		.uleb128 0x2
 513 0026 04       		.byte	0x4
ARM GAS  /var/folders/d2/nstgp4h54kz7g1l847x_b8wc0000gn/T//ccHr493i.s 			page 10


 514 0027 05       		.byte	0x5
 515 0028 696E7400 		.ascii	"int\000"
 516 002c 03       		.uleb128 0x3
 517 002d 04       		.byte	0x4
 518 002e 07       		.byte	0x7
 519 002f 6D020000 		.4byte	.LASF0
 520 0033 03       		.uleb128 0x3
 521 0034 08       		.byte	0x8
 522 0035 05       		.byte	0x5
 523 0036 41010000 		.4byte	.LASF1
 524 003a 03       		.uleb128 0x3
 525 003b 08       		.byte	0x8
 526 003c 04       		.byte	0x4
 527 003d 68050000 		.4byte	.LASF2
 528 0041 03       		.uleb128 0x3
 529 0042 01       		.byte	0x1
 530 0043 06       		.byte	0x6
 531 0044 4F010000 		.4byte	.LASF3
 532 0048 04       		.uleb128 0x4
 533 0049 4B000000 		.4byte	.LASF6
 534 004d 03       		.byte	0x3
 535 004e 2B       		.byte	0x2b
 536 004f 53000000 		.4byte	0x53
 537 0053 03       		.uleb128 0x3
 538 0054 01       		.byte	0x1
 539 0055 08       		.byte	0x8
 540 0056 5D060000 		.4byte	.LASF4
 541 005a 03       		.uleb128 0x3
 542 005b 02       		.byte	0x2
 543 005c 05       		.byte	0x5
 544 005d A0060000 		.4byte	.LASF5
 545 0061 04       		.uleb128 0x4
 546 0062 C8070000 		.4byte	.LASF7
 547 0066 03       		.byte	0x3
 548 0067 39       		.byte	0x39
 549 0068 6C000000 		.4byte	0x6c
 550 006c 03       		.uleb128 0x3
 551 006d 02       		.byte	0x2
 552 006e 07       		.byte	0x7
 553 006f 1E040000 		.4byte	.LASF8
 554 0073 04       		.uleb128 0x4
 555 0074 A3040000 		.4byte	.LASF9
 556 0078 03       		.byte	0x3
 557 0079 4D       		.byte	0x4d
 558 007a 7E000000 		.4byte	0x7e
 559 007e 03       		.uleb128 0x3
 560 007f 04       		.byte	0x4
 561 0080 05       		.byte	0x5
 562 0081 CF010000 		.4byte	.LASF10
 563 0085 04       		.uleb128 0x4
 564 0086 1B080000 		.4byte	.LASF11
 565 008a 03       		.byte	0x3
 566 008b 4F       		.byte	0x4f
 567 008c 90000000 		.4byte	0x90
 568 0090 03       		.uleb128 0x3
 569 0091 04       		.byte	0x4
 570 0092 07       		.byte	0x7
ARM GAS  /var/folders/d2/nstgp4h54kz7g1l847x_b8wc0000gn/T//ccHr493i.s 			page 11


 571 0093 A4070000 		.4byte	.LASF12
 572 0097 04       		.uleb128 0x4
 573 0098 E5050000 		.4byte	.LASF13
 574 009c 03       		.byte	0x3
 575 009d 69       		.byte	0x69
 576 009e A2000000 		.4byte	0xa2
 577 00a2 03       		.uleb128 0x3
 578 00a3 08       		.byte	0x8
 579 00a4 07       		.byte	0x7
 580 00a5 9A000000 		.4byte	.LASF14
 581 00a9 04       		.uleb128 0x4
 582 00aa F5080000 		.4byte	.LASF15
 583 00ae 04       		.byte	0x4
 584 00af 18       		.byte	0x18
 585 00b0 48000000 		.4byte	0x48
 586 00b4 04       		.uleb128 0x4
 587 00b5 79040000 		.4byte	.LASF16
 588 00b9 04       		.byte	0x4
 589 00ba 24       		.byte	0x24
 590 00bb 61000000 		.4byte	0x61
 591 00bf 04       		.uleb128 0x4
 592 00c0 55060000 		.4byte	.LASF17
 593 00c4 04       		.byte	0x4
 594 00c5 2C       		.byte	0x2c
 595 00c6 73000000 		.4byte	0x73
 596 00ca 05       		.uleb128 0x5
 597 00cb BF000000 		.4byte	0xbf
 598 00cf 04       		.uleb128 0x4
 599 00d0 65070000 		.4byte	.LASF18
 600 00d4 04       		.byte	0x4
 601 00d5 30       		.byte	0x30
 602 00d6 85000000 		.4byte	0x85
 603 00da 05       		.uleb128 0x5
 604 00db CF000000 		.4byte	0xcf
 605 00df 06       		.uleb128 0x6
 606 00e0 DA000000 		.4byte	0xda
 607 00e4 04       		.uleb128 0x4
 608 00e5 35000000 		.4byte	.LASF19
 609 00e9 04       		.byte	0x4
 610 00ea 3C       		.byte	0x3c
 611 00eb 97000000 		.4byte	0x97
 612 00ef 04       		.uleb128 0x4
 613 00f0 38050000 		.4byte	.LASF20
 614 00f4 05       		.byte	0x5
 615 00f5 45       		.byte	0x45
 616 00f6 CF000000 		.4byte	0xcf
 617 00fa 04       		.uleb128 0x4
 618 00fb 12010000 		.4byte	.LASF21
 619 00ff 05       		.byte	0x5
 620 0100 46       		.byte	0x46
 621 0101 E4000000 		.4byte	0xe4
 622 0105 04       		.uleb128 0x4
 623 0106 DD060000 		.4byte	.LASF22
 624 010a 05       		.byte	0x5
 625 010b 48       		.byte	0x48
 626 010c A9000000 		.4byte	0xa9
 627 0110 04       		.uleb128 0x4
ARM GAS  /var/folders/d2/nstgp4h54kz7g1l847x_b8wc0000gn/T//ccHr493i.s 			page 12


 628 0111 D8010000 		.4byte	.LASF23
 629 0115 05       		.byte	0x5
 630 0116 49       		.byte	0x49
 631 0117 A9000000 		.4byte	0xa9
 632 011b 04       		.uleb128 0x4
 633 011c FB050000 		.4byte	.LASF24
 634 0120 05       		.byte	0x5
 635 0121 4A       		.byte	0x4a
 636 0122 A9000000 		.4byte	0xa9
 637 0126 04       		.uleb128 0x4
 638 0127 9A070000 		.4byte	.LASF25
 639 012b 05       		.byte	0x5
 640 012c 4B       		.byte	0x4b
 641 012d A9000000 		.4byte	0xa9
 642 0131 04       		.uleb128 0x4
 643 0132 39060000 		.4byte	.LASF26
 644 0136 05       		.byte	0x5
 645 0137 4C       		.byte	0x4c
 646 0138 CF000000 		.4byte	0xcf
 647 013c 04       		.uleb128 0x4
 648 013d 51040000 		.4byte	.LASF27
 649 0141 05       		.byte	0x5
 650 0142 4D       		.byte	0x4d
 651 0143 BF000000 		.4byte	0xbf
 652 0147 04       		.uleb128 0x4
 653 0148 97040000 		.4byte	.LASF28
 654 014c 05       		.byte	0x5
 655 014d 4F       		.byte	0x4f
 656 014e CF000000 		.4byte	0xcf
 657 0152 04       		.uleb128 0x4
 658 0153 61020000 		.4byte	.LASF29
 659 0157 05       		.byte	0x5
 660 0158 51       		.byte	0x51
 661 0159 BF000000 		.4byte	0xbf
 662 015d 04       		.uleb128 0x4
 663 015e 5C040000 		.4byte	.LASF30
 664 0162 05       		.byte	0x5
 665 0163 52       		.byte	0x52
 666 0164 CF000000 		.4byte	0xcf
 667 0168 04       		.uleb128 0x4
 668 0169 FD070000 		.4byte	.LASF31
 669 016d 06       		.byte	0x6
 670 016e 33       		.byte	0x33
 671 016f CF000000 		.4byte	0xcf
 672 0173 05       		.uleb128 0x5
 673 0174 68010000 		.4byte	0x168
 674 0178 04       		.uleb128 0x4
 675 0179 D3070000 		.4byte	.LASF32
 676 017d 06       		.byte	0x6
 677 017e 3F       		.byte	0x3f
 678 017f 83010000 		.4byte	0x183
 679 0183 07       		.uleb128 0x7
 680 0184 40040000 		.4byte	.LASF56
 681 0188 68       		.byte	0x68
 682 0189 07       		.byte	0x7
 683 018a C2       		.byte	0xc2
 684 018b A1020000 		.4byte	0x2a1
ARM GAS  /var/folders/d2/nstgp4h54kz7g1l847x_b8wc0000gn/T//ccHr493i.s 			page 13


 685 018f 08       		.uleb128 0x8
 686 0190 D6060000 		.4byte	.LASF33
 687 0194 07       		.byte	0x7
 688 0195 C3       		.byte	0xc3
 689 0196 AC020000 		.4byte	0x2ac
 690 019a 00       		.byte	0
 691 019b 08       		.uleb128 0x8
 692 019c 32060000 		.4byte	.LASF34
 693 01a0 07       		.byte	0x7
 694 01a1 C5       		.byte	0xc5
 695 01a2 AC020000 		.4byte	0x2ac
 696 01a6 04       		.byte	0x4
 697 01a7 08       		.uleb128 0x8
 698 01a8 1B010000 		.4byte	.LASF35
 699 01ac 07       		.byte	0x7
 700 01ad C7       		.byte	0xc7
 701 01ae 31010000 		.4byte	0x131
 702 01b2 08       		.byte	0x8
 703 01b3 08       		.uleb128 0x8
 704 01b4 B0050000 		.4byte	.LASF36
 705 01b8 07       		.byte	0x7
 706 01b9 C8       		.byte	0xc8
 707 01ba 76060000 		.4byte	0x676
 708 01be 0C       		.byte	0xc
 709 01bf 08       		.uleb128 0x8
 710 01c0 FA010000 		.4byte	.LASF37
 711 01c4 07       		.byte	0x7
 712 01c5 CA       		.byte	0xca
 713 01c6 AC020000 		.4byte	0x2ac
 714 01ca 10       		.byte	0x10
 715 01cb 08       		.uleb128 0x8
 716 01cc A2050000 		.4byte	.LASF38
 717 01d0 07       		.byte	0x7
 718 01d1 CB       		.byte	0xcb
 719 01d2 AC020000 		.4byte	0x2ac
 720 01d6 14       		.byte	0x14
 721 01d7 08       		.uleb128 0x8
 722 01d8 1F090000 		.4byte	.LASF39
 723 01dc 07       		.byte	0x7
 724 01dd D2       		.byte	0xd2
 725 01de EC090000 		.4byte	0x9ec
 726 01e2 18       		.byte	0x18
 727 01e3 08       		.uleb128 0x8
 728 01e4 C8050000 		.4byte	.LASF40
 729 01e8 07       		.byte	0x7
 730 01e9 D8       		.byte	0xd8
 731 01ea 030A0000 		.4byte	0xa03
 732 01ee 1C       		.byte	0x1c
 733 01ef 08       		.uleb128 0x8
 734 01f0 AA060000 		.4byte	.LASF41
 735 01f4 07       		.byte	0x7
 736 01f5 DD       		.byte	0xdd
 737 01f6 10010000 		.4byte	0x110
 738 01fa 20       		.byte	0x20
 739 01fb 08       		.uleb128 0x8
 740 01fc F4060000 		.4byte	.LASF42
 741 0200 07       		.byte	0x7
ARM GAS  /var/folders/d2/nstgp4h54kz7g1l847x_b8wc0000gn/T//ccHr493i.s 			page 14


 742 0201 E1       		.byte	0xe1
 743 0202 05010000 		.4byte	0x105
 744 0206 21       		.byte	0x21
 745 0207 08       		.uleb128 0x8
 746 0208 D7080000 		.4byte	.LASF43
 747 020c 07       		.byte	0x7
 748 020d E6       		.byte	0xe6
 749 020e 1B010000 		.4byte	0x11b
 750 0212 22       		.byte	0x22
 751 0213 08       		.uleb128 0x8
 752 0214 B2060000 		.4byte	.LASF44
 753 0218 07       		.byte	0x7
 754 0219 EC       		.byte	0xec
 755 021a 26010000 		.4byte	0x126
 756 021e 23       		.byte	0x23
 757 021f 08       		.uleb128 0x8
 758 0220 D4030000 		.4byte	.LASF45
 759 0224 07       		.byte	0x7
 760 0225 F3       		.byte	0xf3
 761 0226 73010000 		.4byte	0x173
 762 022a 24       		.byte	0x24
 763 022b 09       		.uleb128 0x9
 764 022c 705F7500 		.ascii	"p_u\000"
 765 0230 07       		.byte	0x7
 766 0231 3101     		.2byte	0x131
 767 0233 1B090000 		.4byte	0x91b
 768 0237 28       		.byte	0x28
 769 0238 0A       		.uleb128 0xa
 770 0239 2E050000 		.4byte	.LASF46
 771 023d 07       		.byte	0x7
 772 023e 3601     		.2byte	0x136
 773 0240 B2020000 		.4byte	0x2b2
 774 0244 2C       		.byte	0x2c
 775 0245 0A       		.uleb128 0xa
 776 0246 EB030000 		.4byte	.LASF47
 777 024a 07       		.byte	0x7
 778 024b 3C01     		.2byte	0x13c
 779 024d D6020000 		.4byte	0x2d6
 780 0251 30       		.byte	0x30
 781 0252 0A       		.uleb128 0xa
 782 0253 C2070000 		.4byte	.LASF48
 783 0257 07       		.byte	0x7
 784 0258 4001     		.2byte	0x140
 785 025a 3C010000 		.4byte	0x13c
 786 025e 38       		.byte	0x38
 787 025f 0A       		.uleb128 0xa
 788 0260 53070000 		.4byte	.LASF49
 789 0264 07       		.byte	0x7
 790 0265 4601     		.2byte	0x146
 791 0267 47010000 		.4byte	0x147
 792 026b 3C       		.byte	0x3c
 793 026c 0A       		.uleb128 0xa
 794 026d 8D040000 		.4byte	.LASF50
 795 0271 07       		.byte	0x7
 796 0272 4D01     		.2byte	0x14d
 797 0274 E6090000 		.4byte	0x9e6
 798 0278 40       		.byte	0x40
ARM GAS  /var/folders/d2/nstgp4h54kz7g1l847x_b8wc0000gn/T//ccHr493i.s 			page 15


 799 0279 0A       		.uleb128 0xa
 800 027a 07080000 		.4byte	.LASF51
 801 027e 07       		.byte	0x7
 802 027f 5101     		.2byte	0x151
 803 0281 31010000 		.4byte	0x131
 804 0285 44       		.byte	0x44
 805 0286 0A       		.uleb128 0xa
 806 0287 78010000 		.4byte	.LASF52
 807 028b 07       		.byte	0x7
 808 028c 5801     		.2byte	0x158
 809 028e 89030000 		.4byte	0x389
 810 0292 48       		.byte	0x48
 811 0293 0A       		.uleb128 0xa
 812 0294 FC060000 		.4byte	.LASF53
 813 0298 07       		.byte	0x7
 814 0299 5E01     		.2byte	0x15e
 815 029b CC080000 		.4byte	0x8cc
 816 029f 50       		.byte	0x50
 817 02a0 00       		.byte	0
 818 02a1 04       		.uleb128 0x4
 819 02a2 05090000 		.4byte	.LASF54
 820 02a6 06       		.byte	0x6
 821 02a7 44       		.byte	0x44
 822 02a8 AC020000 		.4byte	0x2ac
 823 02ac 0B       		.uleb128 0xb
 824 02ad 04       		.byte	0x4
 825 02ae 78010000 		.4byte	0x178
 826 02b2 04       		.uleb128 0x4
 827 02b3 04050000 		.4byte	.LASF55
 828 02b7 06       		.byte	0x6
 829 02b8 49       		.byte	0x49
 830 02b9 BD020000 		.4byte	0x2bd
 831 02bd 07       		.uleb128 0x7
 832 02be 82070000 		.4byte	.LASF57
 833 02c2 04       		.byte	0x4
 834 02c3 07       		.byte	0x7
 835 02c4 B0       		.byte	0xb0
 836 02c5 D6020000 		.4byte	0x2d6
 837 02c9 08       		.uleb128 0x8
 838 02ca D6060000 		.4byte	.LASF33
 839 02ce 07       		.byte	0x7
 840 02cf B1       		.byte	0xb1
 841 02d0 AC020000 		.4byte	0x2ac
 842 02d4 00       		.byte	0
 843 02d5 00       		.byte	0
 844 02d6 04       		.uleb128 0x4
 845 02d7 0E070000 		.4byte	.LASF58
 846 02db 06       		.byte	0x6
 847 02dc 50       		.byte	0x50
 848 02dd E1020000 		.4byte	0x2e1
 849 02e1 07       		.uleb128 0x7
 850 02e2 61000000 		.4byte	.LASF59
 851 02e6 08       		.byte	0x8
 852 02e7 07       		.byte	0x7
 853 02e8 B7       		.byte	0xb7
 854 02e9 06030000 		.4byte	0x306
 855 02ed 08       		.uleb128 0x8
ARM GAS  /var/folders/d2/nstgp4h54kz7g1l847x_b8wc0000gn/T//ccHr493i.s 			page 16


 856 02ee D6060000 		.4byte	.LASF33
 857 02f2 07       		.byte	0x7
 858 02f3 B8       		.byte	0xb8
 859 02f4 AC020000 		.4byte	0x2ac
 860 02f8 00       		.byte	0
 861 02f9 08       		.uleb128 0x8
 862 02fa 32060000 		.4byte	.LASF34
 863 02fe 07       		.byte	0x7
 864 02ff B9       		.byte	0xb9
 865 0300 AC020000 		.4byte	0x2ac
 866 0304 04       		.byte	0x4
 867 0305 00       		.byte	0
 868 0306 04       		.uleb128 0x4
 869 0307 0D000000 		.4byte	.LASF60
 870 030b 06       		.byte	0x6
 871 030c 57       		.byte	0x57
 872 030d 11030000 		.4byte	0x311
 873 0311 0C       		.uleb128 0xc
 874 0312 FF030000 		.4byte	.LASF61
 875 0316 1C       		.byte	0x1c
 876 0317 07       		.byte	0x7
 877 0318 9001     		.2byte	0x190
 878 031a 6D030000 		.4byte	0x36d
 879 031e 0A       		.uleb128 0xa
 880 031f 7A070000 		.4byte	.LASF62
 881 0323 07       		.byte	0x7
 882 0324 9101     		.2byte	0x191
 883 0326 D6020000 		.4byte	0x2d6
 884 032a 00       		.byte	0
 885 032b 0A       		.uleb128 0xa
 886 032c C8060000 		.4byte	.LASF63
 887 0330 07       		.byte	0x7
 888 0331 9201     		.2byte	0x192
 889 0333 31010000 		.4byte	0x131
 890 0337 08       		.byte	0x8
 891 0338 0A       		.uleb128 0xa
 892 0339 AA050000 		.4byte	.LASF64
 893 033d 07       		.byte	0x7
 894 033e 9401     		.2byte	0x194
 895 0340 76060000 		.4byte	0x676
 896 0344 0C       		.byte	0xc
 897 0345 0A       		.uleb128 0xa
 898 0346 12020000 		.4byte	.LASF65
 899 034a 07       		.byte	0x7
 900 034b 9701     		.2byte	0x197
 901 034d AC020000 		.4byte	0x2ac
 902 0351 10       		.byte	0x10
 903 0352 0A       		.uleb128 0xa
 904 0353 DD050000 		.4byte	.LASF66
 905 0357 07       		.byte	0x7
 906 0358 9801     		.2byte	0x198
 907 035a AC020000 		.4byte	0x2ac
 908 035e 14       		.byte	0x14
 909 035f 0A       		.uleb128 0xa
 910 0360 D3050000 		.4byte	.LASF67
 911 0364 07       		.byte	0x7
 912 0365 9B01     		.2byte	0x19b
ARM GAS  /var/folders/d2/nstgp4h54kz7g1l847x_b8wc0000gn/T//ccHr493i.s 			page 17


 913 0367 AC020000 		.4byte	0x2ac
 914 036b 18       		.byte	0x18
 915 036c 00       		.byte	0
 916 036d 04       		.uleb128 0x4
 917 036e 12080000 		.4byte	.LASF68
 918 0372 06       		.byte	0x6
 919 0373 5C       		.byte	0x5c
 920 0374 78030000 		.4byte	0x378
 921 0378 0B       		.uleb128 0xb
 922 0379 04       		.byte	0x4
 923 037a 7E030000 		.4byte	0x37e
 924 037e 0D       		.uleb128 0xd
 925 037f 89030000 		.4byte	0x389
 926 0383 0E       		.uleb128 0xe
 927 0384 89030000 		.4byte	0x389
 928 0388 00       		.byte	0
 929 0389 0F       		.uleb128 0xf
 930 038a 04       		.byte	0x4
 931 038b 04       		.uleb128 0x4
 932 038c 22060000 		.4byte	.LASF69
 933 0390 06       		.byte	0x6
 934 0391 61       		.byte	0x61
 935 0392 96030000 		.4byte	0x396
 936 0396 0C       		.uleb128 0xc
 937 0397 A0080000 		.4byte	.LASF70
 938 039b 14       		.byte	0x14
 939 039c 07       		.byte	0x7
 940 039d 6B01     		.2byte	0x16b
 941 039f E5030000 		.4byte	0x3e5
 942 03a3 0A       		.uleb128 0xa
 943 03a4 41020000 		.4byte	.LASF71
 944 03a8 07       		.byte	0x7
 945 03a9 6C01     		.2byte	0x16c
 946 03ab 090A0000 		.4byte	0xa09
 947 03af 00       		.byte	0
 948 03b0 0A       		.uleb128 0xa
 949 03b1 23020000 		.4byte	.LASF72
 950 03b5 07       		.byte	0x7
 951 03b6 6D01     		.2byte	0x16d
 952 03b8 090A0000 		.4byte	0xa09
 953 03bc 04       		.byte	0x4
 954 03bd 0A       		.uleb128 0xa
 955 03be E2030000 		.4byte	.LASF73
 956 03c2 07       		.byte	0x7
 957 03c3 6E01     		.2byte	0x16e
 958 03c5 68010000 		.4byte	0x168
 959 03c9 08       		.byte	0x8
 960 03ca 0A       		.uleb128 0xa
 961 03cb 66090000 		.4byte	.LASF74
 962 03cf 07       		.byte	0x7
 963 03d0 6F01     		.2byte	0x16f
 964 03d2 6D030000 		.4byte	0x36d
 965 03d6 0C       		.byte	0xc
 966 03d7 0A       		.uleb128 0xa
 967 03d8 B6080000 		.4byte	.LASF75
 968 03dc 07       		.byte	0x7
 969 03dd 7101     		.2byte	0x171
ARM GAS  /var/folders/d2/nstgp4h54kz7g1l847x_b8wc0000gn/T//ccHr493i.s 			page 18


 970 03df 89030000 		.4byte	0x389
 971 03e3 10       		.byte	0x10
 972 03e4 00       		.byte	0
 973 03e5 04       		.uleb128 0x4
 974 03e6 ED000000 		.4byte	.LASF76
 975 03ea 06       		.byte	0x6
 976 03eb 66       		.byte	0x66
 977 03ec F0030000 		.4byte	0x3f0
 978 03f0 0C       		.uleb128 0xc
 979 03f1 51050000 		.4byte	.LASF77
 980 03f5 10       		.byte	0x10
 981 03f6 07       		.byte	0x7
 982 03f7 7B01     		.2byte	0x17b
 983 03f9 32040000 		.4byte	0x432
 984 03fd 0A       		.uleb128 0xa
 985 03fe 41020000 		.4byte	.LASF71
 986 0402 07       		.byte	0x7
 987 0403 7C01     		.2byte	0x17c
 988 0405 090A0000 		.4byte	0xa09
 989 0409 00       		.byte	0
 990 040a 0A       		.uleb128 0xa
 991 040b 23020000 		.4byte	.LASF72
 992 040f 07       		.byte	0x7
 993 0410 7E01     		.2byte	0x17e
 994 0412 090A0000 		.4byte	0xa09
 995 0416 04       		.byte	0x4
 996 0417 0A       		.uleb128 0xa
 997 0418 E2030000 		.4byte	.LASF73
 998 041c 07       		.byte	0x7
 999 041d 8001     		.2byte	0x180
 1000 041f 68010000 		.4byte	0x168
 1001 0423 08       		.byte	0x8
 1002 0424 0A       		.uleb128 0xa
 1003 0425 26090000 		.4byte	.LASF78
 1004 0429 07       		.byte	0x7
 1005 042a 8201     		.2byte	0x182
 1006 042c 73010000 		.4byte	0x173
 1007 0430 0C       		.byte	0xc
 1008 0431 00       		.byte	0
 1009 0432 04       		.uleb128 0x4
 1010 0433 72000000 		.4byte	.LASF79
 1011 0437 06       		.byte	0x6
 1012 0438 6B       		.byte	0x6b
 1013 0439 3D040000 		.4byte	0x43d
 1014 043d 10       		.uleb128 0x10
 1015 043e 2B020000 		.4byte	.LASF80
 1016 0442 1404     		.2byte	0x414
 1017 0444 07       		.byte	0x7
 1018 0445 A201     		.2byte	0x1a2
 1019 0447 80040000 		.4byte	0x480
 1020 044b 0A       		.uleb128 0xa
 1021 044c 26080000 		.4byte	.LASF81
 1022 0450 07       		.byte	0x7
 1023 0451 AA01     		.2byte	0x1aa
 1024 0453 F2090000 		.4byte	0x9f2
 1025 0457 00       		.byte	0
 1026 0458 0A       		.uleb128 0xa
ARM GAS  /var/folders/d2/nstgp4h54kz7g1l847x_b8wc0000gn/T//ccHr493i.s 			page 19


 1027 0459 DE080000 		.4byte	.LASF82
 1028 045d 07       		.byte	0x7
 1029 045e AF01     		.2byte	0x1af
 1030 0460 52010000 		.4byte	0x152
 1031 0464 04       		.byte	0x4
 1032 0465 0A       		.uleb128 0xa
 1033 0466 49020000 		.4byte	.LASF83
 1034 046a 07       		.byte	0x7
 1035 046b B301     		.2byte	0x1b3
 1036 046d 52010000 		.4byte	0x152
 1037 0471 08       		.byte	0x8
 1038 0472 0A       		.uleb128 0xa
 1039 0473 31090000 		.4byte	.LASF84
 1040 0477 07       		.byte	0x7
 1041 0478 B901     		.2byte	0x1b9
 1042 047a 5E080000 		.4byte	0x85e
 1043 047e 0C       		.byte	0xc
 1044 047f 00       		.byte	0
 1045 0480 04       		.uleb128 0x4
 1046 0481 63040000 		.4byte	.LASF85
 1047 0485 06       		.byte	0x6
 1048 0486 70       		.byte	0x70
 1049 0487 8B040000 		.4byte	0x48b
 1050 048b 10       		.uleb128 0x10
 1051 048c 04070000 		.4byte	.LASF86
 1052 0490 7006     		.2byte	0x670
 1053 0492 07       		.byte	0x7
 1054 0493 C201     		.2byte	0x1c2
 1055 0495 F8040000 		.4byte	0x4f8
 1056 0499 0A       		.uleb128 0xa
 1057 049a EF080000 		.4byte	.LASF87
 1058 049e 07       		.byte	0x7
 1059 049f C601     		.2byte	0x1c6
 1060 04a1 06030000 		.4byte	0x306
 1061 04a5 00       		.byte	0
 1062 04a6 0A       		.uleb128 0xa
 1063 04a7 8F010000 		.4byte	.LASF88
 1064 04ab 07       		.byte	0x7
 1065 04ac CA01     		.2byte	0x1ca
 1066 04ae E5030000 		.4byte	0x3e5
 1067 04b2 1C       		.byte	0x1c
 1068 04b3 09       		.uleb128 0x9
 1069 04b4 64626700 		.ascii	"dbg\000"
 1070 04b8 07       		.byte	0x7
 1071 04b9 CE01     		.2byte	0x1ce
 1072 04bb 32040000 		.4byte	0x432
 1073 04bf 2C       		.byte	0x2c
 1074 04c0 11       		.uleb128 0x11
 1075 04c1 DA000000 		.4byte	.LASF89
 1076 04c5 07       		.byte	0x7
 1077 04c6 D201     		.2byte	0x1d2
 1078 04c8 78010000 		.4byte	0x178
 1079 04cc 4004     		.2byte	0x440
 1080 04ce 12       		.uleb128 0x12
 1081 04cf 746D00   		.ascii	"tm\000"
 1082 04d2 07       		.byte	0x7
 1083 04d3 D701     		.2byte	0x1d7
ARM GAS  /var/folders/d2/nstgp4h54kz7g1l847x_b8wc0000gn/T//ccHr493i.s 			page 20


 1084 04d5 7E080000 		.4byte	0x87e
 1085 04d9 A804     		.2byte	0x4a8
 1086 04db 11       		.uleb128 0x11
 1087 04dc 3E000000 		.4byte	.LASF90
 1088 04e0 07       		.byte	0x7
 1089 04e1 DD01     		.2byte	0x1dd
 1090 04e3 10090000 		.4byte	0x910
 1091 04e7 B004     		.2byte	0x4b0
 1092 04e9 11       		.uleb128 0x11
 1093 04ea 52020000 		.4byte	.LASF91
 1094 04ee 07       		.byte	0x7
 1095 04ef E301     		.2byte	0x1e3
 1096 04f1 0F0A0000 		.4byte	0xa0f
 1097 04f5 E804     		.2byte	0x4e8
 1098 04f7 00       		.byte	0
 1099 04f8 13       		.uleb128 0x13
 1100 04f9 CF000000 		.4byte	0xcf
 1101 04fd 08050000 		.4byte	0x508
 1102 0501 14       		.uleb128 0x14
 1103 0502 2C000000 		.4byte	0x2c
 1104 0506 00       		.byte	0
 1105 0507 00       		.byte	0
 1106 0508 15       		.uleb128 0x15
 1107 0509 5C       		.byte	0x5c
 1108 050a 08       		.byte	0x8
 1109 050b 0603     		.2byte	0x306
 1110 050d 3D060000 		.4byte	0x63d
 1111 0511 0A       		.uleb128 0xa
 1112 0512 B1080000 		.4byte	.LASF92
 1113 0516 08       		.byte	0x8
 1114 0517 0803     		.2byte	0x308
 1115 0519 DA000000 		.4byte	0xda
 1116 051d 00       		.byte	0
 1117 051e 0A       		.uleb128 0xa
 1118 051f 27050000 		.4byte	.LASF93
 1119 0523 08       		.byte	0x8
 1120 0524 0903     		.2byte	0x309
 1121 0526 DA000000 		.4byte	0xda
 1122 052a 04       		.byte	0x4
 1123 052b 0A       		.uleb128 0xa
 1124 052c 80010000 		.4byte	.LASF94
 1125 0530 08       		.byte	0x8
 1126 0531 0A03     		.2byte	0x30a
 1127 0533 DA000000 		.4byte	0xda
 1128 0537 08       		.byte	0x8
 1129 0538 0A       		.uleb128 0xa
 1130 0539 4A040000 		.4byte	.LASF95
 1131 053d 08       		.byte	0x8
 1132 053e 0B03     		.2byte	0x30b
 1133 0540 DA000000 		.4byte	0xda
 1134 0544 0C       		.byte	0xc
 1135 0545 0A       		.uleb128 0xa
 1136 0546 F1010000 		.4byte	.LASF96
 1137 054a 08       		.byte	0x8
 1138 054b 0C03     		.2byte	0x30c
 1139 054d DA000000 		.4byte	0xda
 1140 0551 10       		.byte	0x10
ARM GAS  /var/folders/d2/nstgp4h54kz7g1l847x_b8wc0000gn/T//ccHr493i.s 			page 21


 1141 0552 0A       		.uleb128 0xa
 1142 0553 5E070000 		.4byte	.LASF97
 1143 0557 08       		.byte	0x8
 1144 0558 0D03     		.2byte	0x30d
 1145 055a DA000000 		.4byte	0xda
 1146 055e 14       		.byte	0x14
 1147 055f 0A       		.uleb128 0xa
 1148 0560 FD080000 		.4byte	.LASF98
 1149 0564 08       		.byte	0x8
 1150 0565 0E03     		.2byte	0x30e
 1151 0567 DA000000 		.4byte	0xda
 1152 056b 18       		.byte	0x18
 1153 056c 0A       		.uleb128 0xa
 1154 056d 41060000 		.4byte	.LASF99
 1155 0571 08       		.byte	0x8
 1156 0572 0F03     		.2byte	0x30f
 1157 0574 DF000000 		.4byte	0xdf
 1158 0578 1C       		.byte	0x1c
 1159 0579 0A       		.uleb128 0xa
 1160 057a BD080000 		.4byte	.LASF100
 1161 057e 08       		.byte	0x8
 1162 057f 1003     		.2byte	0x310
 1163 0581 DA000000 		.4byte	0xda
 1164 0585 20       		.byte	0x20
 1165 0586 0A       		.uleb128 0xa
 1166 0587 67020000 		.4byte	.LASF101
 1167 058b 08       		.byte	0x8
 1168 058c 1103     		.2byte	0x311
 1169 058e DA000000 		.4byte	0xda
 1170 0592 24       		.byte	0x24
 1171 0593 0A       		.uleb128 0xa
 1172 0594 78060000 		.4byte	.LASF102
 1173 0598 08       		.byte	0x8
 1174 0599 1203     		.2byte	0x312
 1175 059b DA000000 		.4byte	0xda
 1176 059f 28       		.byte	0x28
 1177 05a0 0A       		.uleb128 0xa
 1178 05a1 03060000 		.4byte	.LASF103
 1179 05a5 08       		.byte	0x8
 1180 05a6 1303     		.2byte	0x313
 1181 05a8 F8040000 		.4byte	0x4f8
 1182 05ac 2C       		.byte	0x2c
 1183 05ad 0A       		.uleb128 0xa
 1184 05ae B6050000 		.4byte	.LASF104
 1185 05b2 08       		.byte	0x8
 1186 05b3 1403     		.2byte	0x314
 1187 05b5 DA000000 		.4byte	0xda
 1188 05b9 30       		.byte	0x30
 1189 05ba 0A       		.uleb128 0xa
 1190 05bb 4F060000 		.4byte	.LASF105
 1191 05bf 08       		.byte	0x8
 1192 05c0 1503     		.2byte	0x315
 1193 05c2 DA000000 		.4byte	0xda
 1194 05c6 34       		.byte	0x34
 1195 05c7 0A       		.uleb128 0xa
 1196 05c8 82060000 		.4byte	.LASF106
 1197 05cc 08       		.byte	0x8
ARM GAS  /var/folders/d2/nstgp4h54kz7g1l847x_b8wc0000gn/T//ccHr493i.s 			page 22


 1198 05cd 1603     		.2byte	0x316
 1199 05cf DA000000 		.4byte	0xda
 1200 05d3 38       		.byte	0x38
 1201 05d4 0A       		.uleb128 0xa
 1202 05d5 1E070000 		.4byte	.LASF107
 1203 05d9 08       		.byte	0x8
 1204 05da 1703     		.2byte	0x317
 1205 05dc F8040000 		.4byte	0x4f8
 1206 05e0 3C       		.byte	0x3c
 1207 05e1 0A       		.uleb128 0xa
 1208 05e2 BC050000 		.4byte	.LASF108
 1209 05e6 08       		.byte	0x8
 1210 05e7 1803     		.2byte	0x318
 1211 05e9 DA000000 		.4byte	0xda
 1212 05ed 40       		.byte	0x40
 1213 05ee 0A       		.uleb128 0xa
 1214 05ef BE030000 		.4byte	.LASF109
 1215 05f3 08       		.byte	0x8
 1216 05f4 1903     		.2byte	0x319
 1217 05f6 DA000000 		.4byte	0xda
 1218 05fa 44       		.byte	0x44
 1219 05fb 0A       		.uleb128 0xa
 1220 05fc 8C060000 		.4byte	.LASF110
 1221 0600 08       		.byte	0x8
 1222 0601 1A03     		.2byte	0x31a
 1223 0603 DA000000 		.4byte	0xda
 1224 0607 48       		.byte	0x48
 1225 0608 0A       		.uleb128 0xa
 1226 0609 18060000 		.4byte	.LASF111
 1227 060d 08       		.byte	0x8
 1228 060e 1B03     		.2byte	0x31b
 1229 0610 F8040000 		.4byte	0x4f8
 1230 0614 4C       		.byte	0x4c
 1231 0615 0A       		.uleb128 0xa
 1232 0616 C2050000 		.4byte	.LASF112
 1233 061a 08       		.byte	0x8
 1234 061b 1C03     		.2byte	0x31c
 1235 061d DA000000 		.4byte	0xda
 1236 0621 50       		.byte	0x50
 1237 0622 0A       		.uleb128 0xa
 1238 0623 22000000 		.4byte	.LASF113
 1239 0627 08       		.byte	0x8
 1240 0628 1D03     		.2byte	0x31d
 1241 062a DA000000 		.4byte	0xda
 1242 062e 54       		.byte	0x54
 1243 062f 0A       		.uleb128 0xa
 1244 0630 96060000 		.4byte	.LASF114
 1245 0634 08       		.byte	0x8
 1246 0635 1E03     		.2byte	0x31e
 1247 0637 DA000000 		.4byte	0xda
 1248 063b 58       		.byte	0x58
 1249 063c 00       		.byte	0
 1250 063d 16       		.uleb128 0x16
 1251 063e 97080000 		.4byte	.LASF115
 1252 0642 08       		.byte	0x8
 1253 0643 1F03     		.2byte	0x31f
 1254 0645 08050000 		.4byte	0x508
ARM GAS  /var/folders/d2/nstgp4h54kz7g1l847x_b8wc0000gn/T//ccHr493i.s 			page 23


 1255 0649 17       		.uleb128 0x17
 1256 064a 6B060000 		.4byte	.LASF116
 1257 064e 08       		.byte	0x8
 1258 064f A706     		.2byte	0x6a7
 1259 0651 CA000000 		.4byte	0xca
 1260 0655 18       		.uleb128 0x18
 1261 0656 C4030000 		.4byte	.LASF117
 1262 065a 09       		.byte	0x9
 1263 065b 4C       		.byte	0x4c
 1264 065c CF000000 		.4byte	0xcf
 1265 0660 04       		.uleb128 0x4
 1266 0661 1A020000 		.4byte	.LASF118
 1267 0665 0A       		.byte	0xa
 1268 0666 65       		.byte	0x65
 1269 0667 89030000 		.4byte	0x389
 1270 066b 04       		.uleb128 0x4
 1271 066c F9040000 		.4byte	.LASF119
 1272 0670 0A       		.byte	0xa
 1273 0671 6D       		.byte	0x6d
 1274 0672 E4000000 		.4byte	0xe4
 1275 0676 07       		.uleb128 0x7
 1276 0677 8F080000 		.4byte	.LASF120
 1277 067b 04       		.byte	0x4
 1278 067c 0A       		.byte	0xa
 1279 067d 89       		.byte	0x89
 1280 067e 8F060000 		.4byte	0x68f
 1281 0682 19       		.uleb128 0x19
 1282 0683 72313300 		.ascii	"r13\000"
 1283 0687 0A       		.byte	0xa
 1284 0688 8A       		.byte	0x8a
 1285 0689 D0070000 		.4byte	0x7d0
 1286 068d 00       		.byte	0
 1287 068e 00       		.byte	0
 1288 068f 07       		.uleb128 0x7
 1289 0690 55000000 		.4byte	.LASF121
 1290 0694 64       		.byte	0x64
 1291 0695 02       		.byte	0x2
 1292 0696 F4       		.byte	0xf4
 1293 0697 D0070000 		.4byte	0x7d0
 1294 069b 19       		.uleb128 0x19
 1295 069c 73313600 		.ascii	"s16\000"
 1296 06a0 02       		.byte	0x2
 1297 06a1 F6       		.byte	0xf6
 1298 06a2 60060000 		.4byte	0x660
 1299 06a6 00       		.byte	0
 1300 06a7 19       		.uleb128 0x19
 1301 06a8 73313700 		.ascii	"s17\000"
 1302 06ac 02       		.byte	0x2
 1303 06ad F7       		.byte	0xf7
 1304 06ae 60060000 		.4byte	0x660
 1305 06b2 04       		.byte	0x4
 1306 06b3 19       		.uleb128 0x19
 1307 06b4 73313800 		.ascii	"s18\000"
 1308 06b8 02       		.byte	0x2
 1309 06b9 F8       		.byte	0xf8
 1310 06ba 60060000 		.4byte	0x660
 1311 06be 08       		.byte	0x8
ARM GAS  /var/folders/d2/nstgp4h54kz7g1l847x_b8wc0000gn/T//ccHr493i.s 			page 24


 1312 06bf 19       		.uleb128 0x19
 1313 06c0 73313900 		.ascii	"s19\000"
 1314 06c4 02       		.byte	0x2
 1315 06c5 F9       		.byte	0xf9
 1316 06c6 60060000 		.4byte	0x660
 1317 06ca 0C       		.byte	0xc
 1318 06cb 19       		.uleb128 0x19
 1319 06cc 73323000 		.ascii	"s20\000"
 1320 06d0 02       		.byte	0x2
 1321 06d1 FA       		.byte	0xfa
 1322 06d2 60060000 		.4byte	0x660
 1323 06d6 10       		.byte	0x10
 1324 06d7 19       		.uleb128 0x19
 1325 06d8 73323100 		.ascii	"s21\000"
 1326 06dc 02       		.byte	0x2
 1327 06dd FB       		.byte	0xfb
 1328 06de 60060000 		.4byte	0x660
 1329 06e2 14       		.byte	0x14
 1330 06e3 19       		.uleb128 0x19
 1331 06e4 73323200 		.ascii	"s22\000"
 1332 06e8 02       		.byte	0x2
 1333 06e9 FC       		.byte	0xfc
 1334 06ea 60060000 		.4byte	0x660
 1335 06ee 18       		.byte	0x18
 1336 06ef 19       		.uleb128 0x19
 1337 06f0 73323300 		.ascii	"s23\000"
 1338 06f4 02       		.byte	0x2
 1339 06f5 FD       		.byte	0xfd
 1340 06f6 60060000 		.4byte	0x660
 1341 06fa 1C       		.byte	0x1c
 1342 06fb 19       		.uleb128 0x19
 1343 06fc 73323400 		.ascii	"s24\000"
 1344 0700 02       		.byte	0x2
 1345 0701 FE       		.byte	0xfe
 1346 0702 60060000 		.4byte	0x660
 1347 0706 20       		.byte	0x20
 1348 0707 19       		.uleb128 0x19
 1349 0708 73323500 		.ascii	"s25\000"
 1350 070c 02       		.byte	0x2
 1351 070d FF       		.byte	0xff
 1352 070e 60060000 		.4byte	0x660
 1353 0712 24       		.byte	0x24
 1354 0713 09       		.uleb128 0x9
 1355 0714 73323600 		.ascii	"s26\000"
 1356 0718 02       		.byte	0x2
 1357 0719 0001     		.2byte	0x100
 1358 071b 60060000 		.4byte	0x660
 1359 071f 28       		.byte	0x28
 1360 0720 09       		.uleb128 0x9
 1361 0721 73323700 		.ascii	"s27\000"
 1362 0725 02       		.byte	0x2
 1363 0726 0101     		.2byte	0x101
 1364 0728 60060000 		.4byte	0x660
 1365 072c 2C       		.byte	0x2c
 1366 072d 09       		.uleb128 0x9
 1367 072e 73323800 		.ascii	"s28\000"
 1368 0732 02       		.byte	0x2
ARM GAS  /var/folders/d2/nstgp4h54kz7g1l847x_b8wc0000gn/T//ccHr493i.s 			page 25


 1369 0733 0201     		.2byte	0x102
 1370 0735 60060000 		.4byte	0x660
 1371 0739 30       		.byte	0x30
 1372 073a 09       		.uleb128 0x9
 1373 073b 73323900 		.ascii	"s29\000"
 1374 073f 02       		.byte	0x2
 1375 0740 0301     		.2byte	0x103
 1376 0742 60060000 		.4byte	0x660
 1377 0746 34       		.byte	0x34
 1378 0747 09       		.uleb128 0x9
 1379 0748 73333000 		.ascii	"s30\000"
 1380 074c 02       		.byte	0x2
 1381 074d 0401     		.2byte	0x104
 1382 074f 60060000 		.4byte	0x660
 1383 0753 38       		.byte	0x38
 1384 0754 09       		.uleb128 0x9
 1385 0755 73333100 		.ascii	"s31\000"
 1386 0759 02       		.byte	0x2
 1387 075a 0501     		.2byte	0x105
 1388 075c 60060000 		.4byte	0x660
 1389 0760 3C       		.byte	0x3c
 1390 0761 09       		.uleb128 0x9
 1391 0762 723400   		.ascii	"r4\000"
 1392 0765 02       		.byte	0x2
 1393 0766 0701     		.2byte	0x107
 1394 0768 60060000 		.4byte	0x660
 1395 076c 40       		.byte	0x40
 1396 076d 09       		.uleb128 0x9
 1397 076e 723500   		.ascii	"r5\000"
 1398 0771 02       		.byte	0x2
 1399 0772 0801     		.2byte	0x108
 1400 0774 60060000 		.4byte	0x660
 1401 0778 44       		.byte	0x44
 1402 0779 09       		.uleb128 0x9
 1403 077a 723600   		.ascii	"r6\000"
 1404 077d 02       		.byte	0x2
 1405 077e 0901     		.2byte	0x109
 1406 0780 60060000 		.4byte	0x660
 1407 0784 48       		.byte	0x48
 1408 0785 09       		.uleb128 0x9
 1409 0786 723700   		.ascii	"r7\000"
 1410 0789 02       		.byte	0x2
 1411 078a 0A01     		.2byte	0x10a
 1412 078c 60060000 		.4byte	0x660
 1413 0790 4C       		.byte	0x4c
 1414 0791 09       		.uleb128 0x9
 1415 0792 723800   		.ascii	"r8\000"
 1416 0795 02       		.byte	0x2
 1417 0796 0B01     		.2byte	0x10b
 1418 0798 60060000 		.4byte	0x660
 1419 079c 50       		.byte	0x50
 1420 079d 09       		.uleb128 0x9
 1421 079e 723900   		.ascii	"r9\000"
 1422 07a1 02       		.byte	0x2
 1423 07a2 0C01     		.2byte	0x10c
 1424 07a4 60060000 		.4byte	0x660
 1425 07a8 54       		.byte	0x54
ARM GAS  /var/folders/d2/nstgp4h54kz7g1l847x_b8wc0000gn/T//ccHr493i.s 			page 26


 1426 07a9 09       		.uleb128 0x9
 1427 07aa 72313000 		.ascii	"r10\000"
 1428 07ae 02       		.byte	0x2
 1429 07af 0D01     		.2byte	0x10d
 1430 07b1 60060000 		.4byte	0x660
 1431 07b5 58       		.byte	0x58
 1432 07b6 09       		.uleb128 0x9
 1433 07b7 72313100 		.ascii	"r11\000"
 1434 07bb 02       		.byte	0x2
 1435 07bc 0E01     		.2byte	0x10e
 1436 07be 60060000 		.4byte	0x660
 1437 07c2 5C       		.byte	0x5c
 1438 07c3 09       		.uleb128 0x9
 1439 07c4 6C7200   		.ascii	"lr\000"
 1440 07c7 02       		.byte	0x2
 1441 07c8 0F01     		.2byte	0x10f
 1442 07ca 60060000 		.4byte	0x660
 1443 07ce 60       		.byte	0x60
 1444 07cf 00       		.byte	0
 1445 07d0 0B       		.uleb128 0xb
 1446 07d1 04       		.byte	0x4
 1447 07d2 8F060000 		.4byte	0x68f
 1448 07d6 1A       		.uleb128 0x1a
 1449 07d7 10       		.byte	0x10
 1450 07d8 0B       		.byte	0xb
 1451 07d9 51       		.byte	0x51
 1452 07da 0F080000 		.4byte	0x80f
 1453 07de 08       		.uleb128 0x8
 1454 07df 1A000000 		.4byte	.LASF122
 1455 07e3 0B       		.byte	0xb
 1456 07e4 55       		.byte	0x55
 1457 07e5 68010000 		.4byte	0x168
 1458 07e9 00       		.byte	0
 1459 07ea 08       		.uleb128 0x8
 1460 07eb E1010000 		.4byte	.LASF123
 1461 07ef 0B       		.byte	0xb
 1462 07f0 59       		.byte	0x59
 1463 07f1 AC020000 		.4byte	0x2ac
 1464 07f5 04       		.byte	0x4
 1465 07f6 08       		.uleb128 0x8
 1466 07f7 5C090000 		.4byte	.LASF124
 1467 07fb 0B       		.byte	0xb
 1468 07fc 5D       		.byte	0x5d
 1469 07fd 89030000 		.4byte	0x389
 1470 0801 08       		.byte	0x8
 1471 0802 08       		.uleb128 0x8
 1472 0803 E6080000 		.4byte	.LASF125
 1473 0807 0B       		.byte	0xb
 1474 0808 61       		.byte	0x61
 1475 0809 A9000000 		.4byte	0xa9
 1476 080d 0C       		.byte	0xc
 1477 080e 00       		.byte	0
 1478 080f 04       		.uleb128 0x4
 1479 0810 87050000 		.4byte	.LASF126
 1480 0814 0B       		.byte	0xb
 1481 0815 62       		.byte	0x62
 1482 0816 D6070000 		.4byte	0x7d6
ARM GAS  /var/folders/d2/nstgp4h54kz7g1l847x_b8wc0000gn/T//ccHr493i.s 			page 27


 1483 081a 1B       		.uleb128 0x1b
 1484 081b 0804     		.2byte	0x408
 1485 081d 0B       		.byte	0xb
 1486 081e 67       		.byte	0x67
 1487 081f 48080000 		.4byte	0x848
 1488 0823 08       		.uleb128 0x8
 1489 0824 0A020000 		.4byte	.LASF127
 1490 0828 0B       		.byte	0xb
 1491 0829 6B       		.byte	0x6b
 1492 082a 2C000000 		.4byte	0x2c
 1493 082e 00       		.byte	0
 1494 082f 08       		.uleb128 0x8
 1495 0830 80050000 		.4byte	.LASF128
 1496 0834 0B       		.byte	0xb
 1497 0835 6F       		.byte	0x6f
 1498 0836 48080000 		.4byte	0x848
 1499 083a 04       		.byte	0x4
 1500 083b 08       		.uleb128 0x8
 1501 083c 6F040000 		.4byte	.LASF129
 1502 0840 0B       		.byte	0xb
 1503 0841 73       		.byte	0x73
 1504 0842 4E080000 		.4byte	0x84e
 1505 0846 08       		.byte	0x8
 1506 0847 00       		.byte	0
 1507 0848 0B       		.uleb128 0xb
 1508 0849 04       		.byte	0x4
 1509 084a 0F080000 		.4byte	0x80f
 1510 084e 13       		.uleb128 0x13
 1511 084f 0F080000 		.4byte	0x80f
 1512 0853 5E080000 		.4byte	0x85e
 1513 0857 14       		.uleb128 0x14
 1514 0858 2C000000 		.4byte	0x2c
 1515 085c 3F       		.byte	0x3f
 1516 085d 00       		.byte	0
 1517 085e 04       		.uleb128 0x4
 1518 085f B1000000 		.4byte	.LASF130
 1519 0863 0B       		.byte	0xb
 1520 0864 74       		.byte	0x74
 1521 0865 1A080000 		.4byte	0x81a
 1522 0869 1A       		.uleb128 0x1a
 1523 086a 04       		.byte	0x4
 1524 086b 0C       		.byte	0xc
 1525 086c 38       		.byte	0x38
 1526 086d 7E080000 		.4byte	0x87e
 1527 0871 08       		.uleb128 0x8
 1528 0872 30080000 		.4byte	.LASF131
 1529 0876 0C       		.byte	0xc
 1530 0877 3C       		.byte	0x3c
 1531 0878 EF000000 		.4byte	0xef
 1532 087c 00       		.byte	0
 1533 087d 00       		.byte	0
 1534 087e 04       		.uleb128 0x4
 1535 087f 40050000 		.4byte	.LASF132
 1536 0883 0C       		.byte	0xc
 1537 0884 3D       		.byte	0x3d
 1538 0885 69080000 		.4byte	0x869
 1539 0889 1A       		.uleb128 0x1a
ARM GAS  /var/folders/d2/nstgp4h54kz7g1l847x_b8wc0000gn/T//ccHr493i.s 			page 28


 1540 088a 18       		.byte	0x18
 1541 088b 0C       		.byte	0xc
 1542 088c 48       		.byte	0x48
 1543 088d CC080000 		.4byte	0x8cc
 1544 0891 08       		.uleb128 0x8
 1545 0892 19040000 		.4byte	.LASF133
 1546 0896 0C       		.byte	0xc
 1547 0897 49       		.byte	0x49
 1548 0898 EF000000 		.4byte	0xef
 1549 089c 00       		.byte	0
 1550 089d 08       		.uleb128 0x8
 1551 089e 81000000 		.4byte	.LASF134
 1552 08a2 0C       		.byte	0xc
 1553 08a3 4A       		.byte	0x4a
 1554 08a4 EF000000 		.4byte	0xef
 1555 08a8 04       		.byte	0x4
 1556 08a9 08       		.uleb128 0x8
 1557 08aa 57040000 		.4byte	.LASF135
 1558 08ae 0C       		.byte	0xc
 1559 08af 4B       		.byte	0x4b
 1560 08b0 EF000000 		.4byte	0xef
 1561 08b4 08       		.byte	0x8
 1562 08b5 19       		.uleb128 0x19
 1563 08b6 6E00     		.ascii	"n\000"
 1564 08b8 0C       		.byte	0xc
 1565 08b9 4C       		.byte	0x4c
 1566 08ba 5D010000 		.4byte	0x15d
 1567 08be 0C       		.byte	0xc
 1568 08bf 08       		.uleb128 0x8
 1569 08c0 F0050000 		.4byte	.LASF136
 1570 08c4 0C       		.byte	0xc
 1571 08c5 4D       		.byte	0x4d
 1572 08c6 FA000000 		.4byte	0xfa
 1573 08ca 10       		.byte	0x10
 1574 08cb 00       		.byte	0
 1575 08cc 04       		.uleb128 0x4
 1576 08cd 87000000 		.4byte	.LASF137
 1577 08d1 0C       		.byte	0xc
 1578 08d2 4E       		.byte	0x4e
 1579 08d3 89080000 		.4byte	0x889
 1580 08d7 1A       		.uleb128 0x1a
 1581 08d8 38       		.byte	0x38
 1582 08d9 0D       		.byte	0xd
 1583 08da 38       		.byte	0x38
 1584 08db 10090000 		.4byte	0x910
 1585 08df 08       		.uleb128 0x8
 1586 08e0 0D040000 		.4byte	.LASF138
 1587 08e4 0D       		.byte	0xd
 1588 08e5 39       		.byte	0x39
 1589 08e6 5D010000 		.4byte	0x15d
 1590 08ea 00       		.byte	0
 1591 08eb 08       		.uleb128 0x8
 1592 08ec 46060000 		.4byte	.LASF139
 1593 08f0 0D       		.byte	0xd
 1594 08f1 3A       		.byte	0x3a
 1595 08f2 5D010000 		.4byte	0x15d
 1596 08f6 04       		.byte	0x4
ARM GAS  /var/folders/d2/nstgp4h54kz7g1l847x_b8wc0000gn/T//ccHr493i.s 			page 29


 1597 08f7 08       		.uleb128 0x8
 1598 08f8 49090000 		.4byte	.LASF140
 1599 08fc 0D       		.byte	0xd
 1600 08fd 3B       		.byte	0x3b
 1601 08fe CC080000 		.4byte	0x8cc
 1602 0902 08       		.byte	0x8
 1603 0903 08       		.uleb128 0x8
 1604 0904 82040000 		.4byte	.LASF141
 1605 0908 0D       		.byte	0xd
 1606 0909 3D       		.byte	0x3d
 1607 090a CC080000 		.4byte	0x8cc
 1608 090e 20       		.byte	0x20
 1609 090f 00       		.byte	0
 1610 0910 04       		.uleb128 0x4
 1611 0911 31040000 		.4byte	.LASF142
 1612 0915 0D       		.byte	0xd
 1613 0916 3F       		.byte	0x3f
 1614 0917 D7080000 		.4byte	0x8d7
 1615 091b 1C       		.uleb128 0x1c
 1616 091c 04       		.byte	0x4
 1617 091d 07       		.byte	0x7
 1618 091e FA       		.byte	0xfa
 1619 091f 78090000 		.4byte	0x978
 1620 0923 1D       		.uleb128 0x1d
 1621 0924 2E000000 		.4byte	.LASF143
 1622 0928 07       		.byte	0x7
 1623 0929 0101     		.2byte	0x101
 1624 092b 3C010000 		.4byte	0x13c
 1625 092f 1D       		.uleb128 0x1d
 1626 0930 D1000000 		.4byte	.LASF144
 1627 0934 07       		.byte	0x7
 1628 0935 0801     		.2byte	0x108
 1629 0937 3C010000 		.4byte	0x13c
 1630 093b 1D       		.uleb128 0x1d
 1631 093c 18090000 		.4byte	.LASF145
 1632 0940 07       		.byte	0x7
 1633 0941 0F01     		.2byte	0x10f
 1634 0943 89030000 		.4byte	0x389
 1635 0947 1D       		.uleb128 0x1d
 1636 0948 28000000 		.4byte	.LASF146
 1637 094c 07       		.byte	0x7
 1638 094d 1601     		.2byte	0x116
 1639 094f 78090000 		.4byte	0x978
 1640 0953 1D       		.uleb128 0x1d
 1641 0954 DB030000 		.4byte	.LASF147
 1642 0958 07       		.byte	0x7
 1643 0959 1E01     		.2byte	0x11e
 1644 095b A3090000 		.4byte	0x9a3
 1645 095f 1D       		.uleb128 0x1d
 1646 0960 BB070000 		.4byte	.LASF148
 1647 0964 07       		.byte	0x7
 1648 0965 2701     		.2byte	0x127
 1649 0967 E6090000 		.4byte	0x9e6
 1650 096b 1D       		.uleb128 0x1d
 1651 096c CF060000 		.4byte	.LASF149
 1652 0970 07       		.byte	0x7
 1653 0971 2F01     		.2byte	0x12f
ARM GAS  /var/folders/d2/nstgp4h54kz7g1l847x_b8wc0000gn/T//ccHr493i.s 			page 30


 1654 0973 47010000 		.4byte	0x147
 1655 0977 00       		.byte	0
 1656 0978 0B       		.uleb128 0xb
 1657 0979 04       		.byte	0x4
 1658 097a A1020000 		.4byte	0x2a1
 1659 097e 07       		.uleb128 0x7
 1660 097f 46070000 		.4byte	.LASF150
 1661 0983 0C       		.byte	0xc
 1662 0984 0E       		.byte	0xe
 1663 0985 34       		.byte	0x34
 1664 0986 A3090000 		.4byte	0x9a3
 1665 098a 08       		.uleb128 0x8
 1666 098b 02020000 		.4byte	.LASF151
 1667 098f 0E       		.byte	0xe
 1668 0990 35       		.byte	0x35
 1669 0991 D6020000 		.4byte	0x2d6
 1670 0995 00       		.byte	0
 1671 0996 08       		.uleb128 0x8
 1672 0997 13040000 		.4byte	.LASF152
 1673 099b 0E       		.byte	0xe
 1674 099c 37       		.byte	0x37
 1675 099d 52010000 		.4byte	0x152
 1676 09a1 08       		.byte	0x8
 1677 09a2 00       		.byte	0
 1678 09a3 0B       		.uleb128 0xb
 1679 09a4 04       		.byte	0x4
 1680 09a5 7E090000 		.4byte	0x97e
 1681 09a9 07       		.uleb128 0x7
 1682 09aa CE080000 		.4byte	.LASF153
 1683 09ae 14       		.byte	0x14
 1684 09af 0F       		.byte	0xf
 1685 09b0 39       		.byte	0x39
 1686 09b1 E6090000 		.4byte	0x9e6
 1687 09b5 08       		.uleb128 0x8
 1688 09b6 87010000 		.4byte	.LASF154
 1689 09ba 0F       		.byte	0xf
 1690 09bb 3A       		.byte	0x3a
 1691 09bc D6020000 		.4byte	0x2d6
 1692 09c0 00       		.byte	0
 1693 09c1 08       		.uleb128 0x8
 1694 09c2 54090000 		.4byte	.LASF155
 1695 09c6 0F       		.byte	0xf
 1696 09c7 3C       		.byte	0x3c
 1697 09c8 AC020000 		.4byte	0x2ac
 1698 09cc 08       		.byte	0x8
 1699 09cd 08       		.uleb128 0x8
 1700 09ce F6070000 		.4byte	.LASF156
 1701 09d2 0F       		.byte	0xf
 1702 09d3 3E       		.byte	0x3e
 1703 09d4 410B0000 		.4byte	0xb41
 1704 09d8 0C       		.byte	0xc
 1705 09d9 08       		.uleb128 0x8
 1706 09da 3B020000 		.4byte	.LASF157
 1707 09de 0F       		.byte	0xf
 1708 09df 41       		.byte	0x41
 1709 09e0 52010000 		.4byte	0x152
 1710 09e4 10       		.byte	0x10
ARM GAS  /var/folders/d2/nstgp4h54kz7g1l847x_b8wc0000gn/T//ccHr493i.s 			page 31


 1711 09e5 00       		.byte	0
 1712 09e6 0B       		.uleb128 0xb
 1713 09e7 04       		.byte	0x4
 1714 09e8 A9090000 		.4byte	0x9a9
 1715 09ec 0B       		.uleb128 0xb
 1716 09ed 04       		.byte	0x4
 1717 09ee FE090000 		.4byte	0x9fe
 1718 09f2 05       		.uleb128 0x5
 1719 09f3 EC090000 		.4byte	0x9ec
 1720 09f7 03       		.uleb128 0x3
 1721 09f8 01       		.byte	0x1
 1722 09f9 08       		.byte	0x8
 1723 09fa B6070000 		.4byte	.LASF158
 1724 09fe 06       		.uleb128 0x6
 1725 09ff F7090000 		.4byte	0x9f7
 1726 0a03 0B       		.uleb128 0xb
 1727 0a04 04       		.byte	0x4
 1728 0a05 6B060000 		.4byte	0x66b
 1729 0a09 0B       		.uleb128 0xb
 1730 0a0a 04       		.byte	0x4
 1731 0a0b 8B030000 		.4byte	0x38b
 1732 0a0f 13       		.uleb128 0x13
 1733 0a10 6B060000 		.4byte	0x66b
 1734 0a14 1F0A0000 		.4byte	0xa1f
 1735 0a18 14       		.uleb128 0x14
 1736 0a19 2C000000 		.4byte	0x2c
 1737 0a1d 30       		.byte	0x30
 1738 0a1e 00       		.byte	0
 1739 0a1f 1E       		.uleb128 0x1e
 1740 0a20 636800   		.ascii	"ch\000"
 1741 0a23 07       		.byte	0x7
 1742 0a24 0902     		.2byte	0x209
 1743 0a26 80040000 		.4byte	0x480
 1744 0a2a 1A       		.uleb128 0x1a
 1745 0a2b 16       		.byte	0x16
 1746 0a2c 10       		.byte	0x10
 1747 0a2d 34       		.byte	0x34
 1748 0a2e 0B0B0000 		.4byte	0xb0b
 1749 0a32 08       		.uleb128 0x8
 1750 0a33 96010000 		.4byte	.LASF159
 1751 0a37 10       		.byte	0x10
 1752 0a38 35       		.byte	0x35
 1753 0a39 0B0B0000 		.4byte	0xb0b
 1754 0a3d 00       		.byte	0
 1755 0a3e 08       		.uleb128 0x8
 1756 0a3f 13050000 		.4byte	.LASF160
 1757 0a43 10       		.byte	0x10
 1758 0a44 36       		.byte	0x36
 1759 0a45 A9000000 		.4byte	0xa9
 1760 0a49 04       		.byte	0x4
 1761 0a4a 08       		.uleb128 0x8
 1762 0a4b 92070000 		.4byte	.LASF161
 1763 0a4f 10       		.byte	0x10
 1764 0a50 37       		.byte	0x37
 1765 0a51 A9000000 		.4byte	0xa9
 1766 0a55 05       		.byte	0x5
 1767 0a56 08       		.uleb128 0x8
ARM GAS  /var/folders/d2/nstgp4h54kz7g1l847x_b8wc0000gn/T//ccHr493i.s 			page 32


 1768 0a57 3E090000 		.4byte	.LASF162
 1769 0a5b 10       		.byte	0x10
 1770 0a5c 38       		.byte	0x38
 1771 0a5d B4000000 		.4byte	0xb4
 1772 0a61 06       		.byte	0x6
 1773 0a62 08       		.uleb128 0x8
 1774 0a63 0D060000 		.4byte	.LASF163
 1775 0a67 10       		.byte	0x10
 1776 0a68 39       		.byte	0x39
 1777 0a69 A9000000 		.4byte	0xa9
 1778 0a6d 08       		.byte	0x8
 1779 0a6e 08       		.uleb128 0x8
 1780 0a6f 74050000 		.4byte	.LASF164
 1781 0a73 10       		.byte	0x10
 1782 0a74 3A       		.byte	0x3a
 1783 0a75 A9000000 		.4byte	0xa9
 1784 0a79 09       		.byte	0x9
 1785 0a7a 08       		.uleb128 0x8
 1786 0a7b C3000000 		.4byte	.LASF165
 1787 0a7f 10       		.byte	0x10
 1788 0a80 3B       		.byte	0x3b
 1789 0a81 A9000000 		.4byte	0xa9
 1790 0a85 0A       		.byte	0xa
 1791 0a86 08       		.uleb128 0x8
 1792 0a87 6E070000 		.4byte	.LASF166
 1793 0a8b 10       		.byte	0x10
 1794 0a8c 3C       		.byte	0x3c
 1795 0a8d A9000000 		.4byte	0xa9
 1796 0a91 0B       		.byte	0xb
 1797 0a92 08       		.uleb128 0x8
 1798 0a93 C3080000 		.4byte	.LASF167
 1799 0a97 10       		.byte	0x10
 1800 0a98 3D       		.byte	0x3d
 1801 0a99 A9000000 		.4byte	0xa9
 1802 0a9d 0C       		.byte	0xc
 1803 0a9e 08       		.uleb128 0x8
 1804 0a9f 28070000 		.4byte	.LASF168
 1805 0aa3 10       		.byte	0x10
 1806 0aa4 3E       		.byte	0x3e
 1807 0aa5 A9000000 		.4byte	0xa9
 1808 0aa9 0D       		.byte	0xd
 1809 0aaa 08       		.uleb128 0x8
 1810 0aab 00000000 		.4byte	.LASF169
 1811 0aaf 10       		.byte	0x10
 1812 0ab0 3F       		.byte	0x3f
 1813 0ab1 A9000000 		.4byte	0xa9
 1814 0ab5 0E       		.byte	0xe
 1815 0ab6 08       		.uleb128 0x8
 1816 0ab7 96050000 		.4byte	.LASF170
 1817 0abb 10       		.byte	0x10
 1818 0abc 40       		.byte	0x40
 1819 0abd A9000000 		.4byte	0xa9
 1820 0ac1 0F       		.byte	0xf
 1821 0ac2 08       		.uleb128 0x8
 1822 0ac3 5B010000 		.4byte	.LASF171
 1823 0ac7 10       		.byte	0x10
 1824 0ac8 41       		.byte	0x41
ARM GAS  /var/folders/d2/nstgp4h54kz7g1l847x_b8wc0000gn/T//ccHr493i.s 			page 33


 1825 0ac9 A9000000 		.4byte	0xa9
 1826 0acd 10       		.byte	0x10
 1827 0ace 08       		.uleb128 0x8
 1828 0acf 22010000 		.4byte	.LASF172
 1829 0ad3 10       		.byte	0x10
 1830 0ad4 43       		.byte	0x43
 1831 0ad5 A9000000 		.4byte	0xa9
 1832 0ad9 11       		.byte	0x11
 1833 0ada 08       		.uleb128 0x8
 1834 0adb 6B010000 		.4byte	.LASF173
 1835 0adf 10       		.byte	0x10
 1836 0ae0 44       		.byte	0x44
 1837 0ae1 A9000000 		.4byte	0xa9
 1838 0ae5 12       		.byte	0x12
 1839 0ae6 08       		.uleb128 0x8
 1840 0ae7 1B050000 		.4byte	.LASF174
 1841 0aeb 10       		.byte	0x10
 1842 0aec 45       		.byte	0x45
 1843 0aed A9000000 		.4byte	0xa9
 1844 0af1 13       		.byte	0x13
 1845 0af2 08       		.uleb128 0x8
 1846 0af3 E5060000 		.4byte	.LASF175
 1847 0af7 10       		.byte	0x10
 1848 0af8 46       		.byte	0x46
 1849 0af9 A9000000 		.4byte	0xa9
 1850 0afd 14       		.byte	0x14
 1851 0afe 08       		.uleb128 0x8
 1852 0aff BC060000 		.4byte	.LASF176
 1853 0b03 10       		.byte	0x10
 1854 0b04 48       		.byte	0x48
 1855 0b05 A9000000 		.4byte	0xa9
 1856 0b09 15       		.byte	0x15
 1857 0b0a 00       		.byte	0
 1858 0b0b 13       		.uleb128 0x13
 1859 0b0c F7090000 		.4byte	0x9f7
 1860 0b10 1B0B0000 		.4byte	0xb1b
 1861 0b14 14       		.uleb128 0x14
 1862 0b15 2C000000 		.4byte	0x2c
 1863 0b19 03       		.byte	0x3
 1864 0b1a 00       		.byte	0
 1865 0b1b 04       		.uleb128 0x4
 1866 0b1c E7010000 		.4byte	.LASF177
 1867 0b20 10       		.byte	0x10
 1868 0b21 49       		.byte	0x49
 1869 0b22 2A0A0000 		.4byte	0xa2a
 1870 0b26 06       		.uleb128 0x6
 1871 0b27 1B0B0000 		.4byte	0xb1b
 1872 0b2b 18       		.uleb128 0x18
 1873 0b2c F6030000 		.4byte	.LASF178
 1874 0b30 10       		.byte	0x10
 1875 0b31 6E       		.byte	0x6e
 1876 0b32 260B0000 		.4byte	0xb26
 1877 0b36 04       		.uleb128 0x4
 1878 0b37 39010000 		.4byte	.LASF179
 1879 0b3b 0F       		.byte	0xf
 1880 0b3c 34       		.byte	0x34
 1881 0b3d A9090000 		.4byte	0x9a9
ARM GAS  /var/folders/d2/nstgp4h54kz7g1l847x_b8wc0000gn/T//ccHr493i.s 			page 34


 1882 0b41 0B       		.uleb128 0xb
 1883 0b42 04       		.byte	0x4
 1884 0b43 360B0000 		.4byte	0xb36
 1885 0b47 1F       		.uleb128 0x1f
 1886 0b48 E1040000 		.4byte	.LASF182
 1887 0b4c 01       		.byte	0x1
 1888 0b4d 92       		.byte	0x92
 1889 0b4e 00000000 		.4byte	.LFB224
 1890 0b52 5C000000 		.4byte	.LFE224-.LFB224
 1891 0b56 01       		.uleb128 0x1
 1892 0b57 9C       		.byte	0x9c
 1893 0b58 C20B0000 		.4byte	0xbc2
 1894 0b5c 20       		.uleb128 0x20
 1895 0b5d 2F010000 		.4byte	.LASF180
 1896 0b61 01       		.byte	0x1
 1897 0b62 92       		.byte	0x92
 1898 0b63 C20B0000 		.4byte	0xbc2
 1899 0b67 00000000 		.4byte	.LLST6
 1900 0b6b 20       		.uleb128 0x20
 1901 0b6c 34010000 		.4byte	.LASF181
 1902 0b70 01       		.byte	0x1
 1903 0b71 93       		.byte	0x93
 1904 0b72 C20B0000 		.4byte	0xbc2
 1905 0b76 21000000 		.4byte	.LLST7
 1906 0b7a 21       		.uleb128 0x21
 1907 0b7b 240D0000 		.4byte	0xd24
 1908 0b7f 06000000 		.4byte	.LBB34
 1909 0b83 70000000 		.4byte	.Ldebug_ranges0+0x70
 1910 0b87 01       		.byte	0x1
 1911 0b88 96       		.byte	0x96
 1912 0b89 22       		.uleb128 0x22
 1913 0b8a F60C0000 		.4byte	0xcf6
 1914 0b8e 12000000 		.4byte	.LBB38
 1915 0b92 88000000 		.4byte	.Ldebug_ranges0+0x88
 1916 0b96 01       		.byte	0x1
 1917 0b97 99       		.byte	0x99
 1918 0b98 B80B0000 		.4byte	0xbb8
 1919 0b9c 23       		.uleb128 0x23
 1920 0b9d 180D0000 		.4byte	0xd18
 1921 0ba1 42000000 		.4byte	.LLST8
 1922 0ba5 23       		.uleb128 0x23
 1923 0ba6 0D0D0000 		.4byte	0xd0d
 1924 0baa 62000000 		.4byte	.LLST9
 1925 0bae 23       		.uleb128 0x23
 1926 0baf 020D0000 		.4byte	0xd02
 1927 0bb3 84000000 		.4byte	.LLST10
 1928 0bb7 00       		.byte	0
 1929 0bb8 24       		.uleb128 0x24
 1930 0bb9 52000000 		.4byte	.LVL24
 1931 0bbd 570D0000 		.4byte	0xd57
 1932 0bc1 00       		.byte	0
 1933 0bc2 0B       		.uleb128 0xb
 1934 0bc3 04       		.byte	0x4
 1935 0bc4 CC080000 		.4byte	0x8cc
 1936 0bc8 1F       		.uleb128 0x1f
 1937 0bc9 BA010000 		.4byte	.LASF183
 1938 0bcd 01       		.byte	0x1
ARM GAS  /var/folders/d2/nstgp4h54kz7g1l847x_b8wc0000gn/T//ccHr493i.s 			page 35


 1939 0bce 81       		.byte	0x81
 1940 0bcf 00000000 		.4byte	.LFB223
 1941 0bd3 60000000 		.4byte	.LFE223-.LFB223
 1942 0bd7 01       		.uleb128 0x1
 1943 0bd8 9C       		.byte	0x9c
 1944 0bd9 300C0000 		.4byte	0xc30
 1945 0bdd 25       		.uleb128 0x25
 1946 0bde 746D7000 		.ascii	"tmp\000"
 1947 0be2 01       		.byte	0x1
 1948 0be3 81       		.byte	0x81
 1949 0be4 C20B0000 		.4byte	0xbc2
 1950 0be8 A2000000 		.4byte	.LLST2
 1951 0bec 21       		.uleb128 0x21
 1952 0bed 240D0000 		.4byte	0xd24
 1953 0bf1 04000000 		.4byte	.LBB18
 1954 0bf5 18000000 		.4byte	.Ldebug_ranges0+0x18
 1955 0bf9 01       		.byte	0x1
 1956 0bfa 83       		.byte	0x83
 1957 0bfb 22       		.uleb128 0x22
 1958 0bfc F60C0000 		.4byte	0xcf6
 1959 0c00 08000000 		.4byte	.LBB21
 1960 0c04 30000000 		.4byte	.Ldebug_ranges0+0x30
 1961 0c08 01       		.byte	0x1
 1962 0c09 83       		.byte	0x83
 1963 0c0a 260C0000 		.4byte	0xc26
 1964 0c0e 23       		.uleb128 0x23
 1965 0c0f 180D0000 		.4byte	0xd18
 1966 0c13 C3000000 		.4byte	.LLST3
 1967 0c17 26       		.uleb128 0x26
 1968 0c18 0D0D0000 		.4byte	0xd0d
 1969 0c1c 23       		.uleb128 0x23
 1970 0c1d 020D0000 		.4byte	0xd02
 1971 0c21 D6000000 		.4byte	.LLST4
 1972 0c25 00       		.byte	0
 1973 0c26 24       		.uleb128 0x24
 1974 0c27 52000000 		.4byte	.LVL10
 1975 0c2b 570D0000 		.4byte	0xd57
 1976 0c2f 00       		.byte	0
 1977 0c30 1F       		.uleb128 0x1f
 1978 0c31 A4010000 		.4byte	.LASF184
 1979 0c35 01       		.byte	0x1
 1980 0c36 74       		.byte	0x74
 1981 0c37 00000000 		.4byte	.LFB222
 1982 0c3b 2C000000 		.4byte	.LFE222-.LFB222
 1983 0c3f 01       		.uleb128 0x1
 1984 0c40 9C       		.byte	0x9c
 1985 0c41 6D0C0000 		.4byte	0xc6d
 1986 0c45 25       		.uleb128 0x25
 1987 0c46 746D7000 		.ascii	"tmp\000"
 1988 0c4a 01       		.byte	0x1
 1989 0c4b 74       		.byte	0x74
 1990 0c4c C20B0000 		.4byte	0xbc2
 1991 0c50 F4000000 		.4byte	.LLST1
 1992 0c54 21       		.uleb128 0x21
 1993 0c55 240D0000 		.4byte	0xd24
 1994 0c59 04000000 		.4byte	.LBB14
 1995 0c5d 00000000 		.4byte	.Ldebug_ranges0+0
ARM GAS  /var/folders/d2/nstgp4h54kz7g1l847x_b8wc0000gn/T//ccHr493i.s 			page 36


 1996 0c61 01       		.byte	0x1
 1997 0c62 76       		.byte	0x76
 1998 0c63 24       		.uleb128 0x24
 1999 0c64 22000000 		.4byte	.LVL3
 2000 0c68 570D0000 		.4byte	0xd57
 2001 0c6c 00       		.byte	0
 2002 0c6d 27       		.uleb128 0x27
 2003 0c6e 03010000 		.4byte	.LASF189
 2004 0c72 01       		.byte	0x1
 2005 0c73 63       		.byte	0x63
 2006 0c74 01       		.byte	0x1
 2007 0c75 850C0000 		.4byte	0xc85
 2008 0c79 28       		.uleb128 0x28
 2009 0c7a 746D7000 		.ascii	"tmp\000"
 2010 0c7e 01       		.byte	0x1
 2011 0c7f 63       		.byte	0x63
 2012 0c80 C20B0000 		.4byte	0xbc2
 2013 0c84 00       		.byte	0
 2014 0c85 1F       		.uleb128 0x1f
 2015 0c86 6E090000 		.4byte	.LASF185
 2016 0c8a 01       		.byte	0x1
 2017 0c8b 4F       		.byte	0x4f
 2018 0c8c 00000000 		.4byte	.LFB220
 2019 0c90 50000000 		.4byte	.LFE220-.LFB220
 2020 0c94 01       		.uleb128 0x1
 2021 0c95 9C       		.byte	0x9c
 2022 0c96 F60C0000 		.4byte	0xcf6
 2023 0c9a 29       		.uleb128 0x29
 2024 0c9b 746D00   		.ascii	"tm\000"
 2025 0c9e 01       		.byte	0x1
 2026 0c9f 50       		.byte	0x50
 2027 0ca0 CC080000 		.4byte	0x8cc
 2028 0ca4 02       		.uleb128 0x2
 2029 0ca5 91       		.byte	0x91
 2030 0ca6 50       		.sleb128 -48
 2031 0ca7 22       		.uleb128 0x22
 2032 0ca8 6D0C0000 		.4byte	0xc6d
 2033 0cac 0A000000 		.4byte	.LBB28
 2034 0cb0 50000000 		.4byte	.Ldebug_ranges0+0x50
 2035 0cb4 01       		.byte	0x1
 2036 0cb5 56       		.byte	0x56
 2037 0cb6 C40C0000 		.4byte	0xcc4
 2038 0cba 23       		.uleb128 0x23
 2039 0cbb 790C0000 		.4byte	0xc79
 2040 0cbf 15010000 		.4byte	.LLST5
 2041 0cc3 00       		.byte	0
 2042 0cc4 2A       		.uleb128 0x2a
 2043 0cc5 2C000000 		.4byte	.LVL13
 2044 0cc9 300C0000 		.4byte	0xc30
 2045 0ccd D80C0000 		.4byte	0xcd8
 2046 0cd1 2B       		.uleb128 0x2b
 2047 0cd2 01       		.uleb128 0x1
 2048 0cd3 50       		.byte	0x50
 2049 0cd4 02       		.uleb128 0x2
 2050 0cd5 7D       		.byte	0x7d
 2051 0cd6 00       		.sleb128 0
 2052 0cd7 00       		.byte	0
ARM GAS  /var/folders/d2/nstgp4h54kz7g1l847x_b8wc0000gn/T//ccHr493i.s 			page 37


 2053 0cd8 2A       		.uleb128 0x2a
 2054 0cd9 32000000 		.4byte	.LVL14
 2055 0cdd C80B0000 		.4byte	0xbc8
 2056 0ce1 EC0C0000 		.4byte	0xcec
 2057 0ce5 2B       		.uleb128 0x2b
 2058 0ce6 01       		.uleb128 0x1
 2059 0ce7 50       		.byte	0x50
 2060 0ce8 02       		.uleb128 0x2
 2061 0ce9 7D       		.byte	0x7d
 2062 0cea 00       		.sleb128 0
 2063 0ceb 00       		.byte	0
 2064 0cec 24       		.uleb128 0x24
 2065 0ced 48000000 		.4byte	.LVL15
 2066 0cf1 570D0000 		.4byte	0xd57
 2067 0cf5 00       		.byte	0
 2068 0cf6 2C       		.uleb128 0x2c
 2069 0cf7 E5000000 		.4byte	.LASF190
 2070 0cfb 01       		.byte	0x1
 2071 0cfc 35       		.byte	0x35
 2072 0cfd 03       		.byte	0x3
 2073 0cfe 240D0000 		.4byte	0xd24
 2074 0d02 28       		.uleb128 0x28
 2075 0d03 746D7000 		.ascii	"tmp\000"
 2076 0d07 01       		.byte	0x1
 2077 0d08 35       		.byte	0x35
 2078 0d09 C20B0000 		.4byte	0xbc2
 2079 0d0d 28       		.uleb128 0x28
 2080 0d0e 6E6F7700 		.ascii	"now\000"
 2081 0d12 01       		.byte	0x1
 2082 0d13 36       		.byte	0x36
 2083 0d14 EF000000 		.4byte	0xef
 2084 0d18 2D       		.uleb128 0x2d
 2085 0d19 30080000 		.4byte	.LASF131
 2086 0d1d 01       		.byte	0x1
 2087 0d1e 37       		.byte	0x37
 2088 0d1f EF000000 		.4byte	0xef
 2089 0d23 00       		.byte	0
 2090 0d24 2E       		.uleb128 0x2e
 2091 0d25 DC070000 		.4byte	.LASF191
 2092 0d29 02       		.byte	0x2
 2093 0d2a 2202     		.2byte	0x222
 2094 0d2c EF000000 		.4byte	0xef
 2095 0d30 03       		.byte	0x3
 2096 0d31 2F       		.uleb128 0x2f
 2097 0d32 6D0C0000 		.4byte	0xc6d
 2098 0d36 00000000 		.4byte	.LFB221
 2099 0d3a 34000000 		.4byte	.LFE221-.LFB221
 2100 0d3e 01       		.uleb128 0x1
 2101 0d3f 9C       		.byte	0x9c
 2102 0d40 570D0000 		.4byte	0xd57
 2103 0d44 23       		.uleb128 0x23
 2104 0d45 790C0000 		.4byte	0xc79
 2105 0d49 28010000 		.4byte	.LLST0
 2106 0d4d 24       		.uleb128 0x24
 2107 0d4e 30000000 		.4byte	.LVL1
 2108 0d52 570D0000 		.4byte	0xd57
 2109 0d56 00       		.byte	0
ARM GAS  /var/folders/d2/nstgp4h54kz7g1l847x_b8wc0000gn/T//ccHr493i.s 			page 38


 2110 0d57 30       		.uleb128 0x30
 2111 0d58 35070000 		.4byte	.LASF192
 2112 0d5c 35070000 		.4byte	.LASF192
 2113 0d60 00       		.byte	0
 2114              		.section	.debug_abbrev,"",%progbits
 2115              	.Ldebug_abbrev0:
 2116 0000 01       		.uleb128 0x1
 2117 0001 11       		.uleb128 0x11
 2118 0002 01       		.byte	0x1
 2119 0003 25       		.uleb128 0x25
 2120 0004 0E       		.uleb128 0xe
 2121 0005 13       		.uleb128 0x13
 2122 0006 0B       		.uleb128 0xb
 2123 0007 03       		.uleb128 0x3
 2124 0008 0E       		.uleb128 0xe
 2125 0009 1B       		.uleb128 0x1b
 2126 000a 0E       		.uleb128 0xe
 2127 000b 55       		.uleb128 0x55
 2128 000c 17       		.uleb128 0x17
 2129 000d 11       		.uleb128 0x11
 2130 000e 01       		.uleb128 0x1
 2131 000f 10       		.uleb128 0x10
 2132 0010 17       		.uleb128 0x17
 2133 0011 00       		.byte	0
 2134 0012 00       		.byte	0
 2135 0013 02       		.uleb128 0x2
 2136 0014 24       		.uleb128 0x24
 2137 0015 00       		.byte	0
 2138 0016 0B       		.uleb128 0xb
 2139 0017 0B       		.uleb128 0xb
 2140 0018 3E       		.uleb128 0x3e
 2141 0019 0B       		.uleb128 0xb
 2142 001a 03       		.uleb128 0x3
 2143 001b 08       		.uleb128 0x8
 2144 001c 00       		.byte	0
 2145 001d 00       		.byte	0
 2146 001e 03       		.uleb128 0x3
 2147 001f 24       		.uleb128 0x24
 2148 0020 00       		.byte	0
 2149 0021 0B       		.uleb128 0xb
 2150 0022 0B       		.uleb128 0xb
 2151 0023 3E       		.uleb128 0x3e
 2152 0024 0B       		.uleb128 0xb
 2153 0025 03       		.uleb128 0x3
 2154 0026 0E       		.uleb128 0xe
 2155 0027 00       		.byte	0
 2156 0028 00       		.byte	0
 2157 0029 04       		.uleb128 0x4
 2158 002a 16       		.uleb128 0x16
 2159 002b 00       		.byte	0
 2160 002c 03       		.uleb128 0x3
 2161 002d 0E       		.uleb128 0xe
 2162 002e 3A       		.uleb128 0x3a
 2163 002f 0B       		.uleb128 0xb
 2164 0030 3B       		.uleb128 0x3b
 2165 0031 0B       		.uleb128 0xb
 2166 0032 49       		.uleb128 0x49
ARM GAS  /var/folders/d2/nstgp4h54kz7g1l847x_b8wc0000gn/T//ccHr493i.s 			page 39


 2167 0033 13       		.uleb128 0x13
 2168 0034 00       		.byte	0
 2169 0035 00       		.byte	0
 2170 0036 05       		.uleb128 0x5
 2171 0037 35       		.uleb128 0x35
 2172 0038 00       		.byte	0
 2173 0039 49       		.uleb128 0x49
 2174 003a 13       		.uleb128 0x13
 2175 003b 00       		.byte	0
 2176 003c 00       		.byte	0
 2177 003d 06       		.uleb128 0x6
 2178 003e 26       		.uleb128 0x26
 2179 003f 00       		.byte	0
 2180 0040 49       		.uleb128 0x49
 2181 0041 13       		.uleb128 0x13
 2182 0042 00       		.byte	0
 2183 0043 00       		.byte	0
 2184 0044 07       		.uleb128 0x7
 2185 0045 13       		.uleb128 0x13
 2186 0046 01       		.byte	0x1
 2187 0047 03       		.uleb128 0x3
 2188 0048 0E       		.uleb128 0xe
 2189 0049 0B       		.uleb128 0xb
 2190 004a 0B       		.uleb128 0xb
 2191 004b 3A       		.uleb128 0x3a
 2192 004c 0B       		.uleb128 0xb
 2193 004d 3B       		.uleb128 0x3b
 2194 004e 0B       		.uleb128 0xb
 2195 004f 01       		.uleb128 0x1
 2196 0050 13       		.uleb128 0x13
 2197 0051 00       		.byte	0
 2198 0052 00       		.byte	0
 2199 0053 08       		.uleb128 0x8
 2200 0054 0D       		.uleb128 0xd
 2201 0055 00       		.byte	0
 2202 0056 03       		.uleb128 0x3
 2203 0057 0E       		.uleb128 0xe
 2204 0058 3A       		.uleb128 0x3a
 2205 0059 0B       		.uleb128 0xb
 2206 005a 3B       		.uleb128 0x3b
 2207 005b 0B       		.uleb128 0xb
 2208 005c 49       		.uleb128 0x49
 2209 005d 13       		.uleb128 0x13
 2210 005e 38       		.uleb128 0x38
 2211 005f 0B       		.uleb128 0xb
 2212 0060 00       		.byte	0
 2213 0061 00       		.byte	0
 2214 0062 09       		.uleb128 0x9
 2215 0063 0D       		.uleb128 0xd
 2216 0064 00       		.byte	0
 2217 0065 03       		.uleb128 0x3
 2218 0066 08       		.uleb128 0x8
 2219 0067 3A       		.uleb128 0x3a
 2220 0068 0B       		.uleb128 0xb
 2221 0069 3B       		.uleb128 0x3b
 2222 006a 05       		.uleb128 0x5
 2223 006b 49       		.uleb128 0x49
ARM GAS  /var/folders/d2/nstgp4h54kz7g1l847x_b8wc0000gn/T//ccHr493i.s 			page 40


 2224 006c 13       		.uleb128 0x13
 2225 006d 38       		.uleb128 0x38
 2226 006e 0B       		.uleb128 0xb
 2227 006f 00       		.byte	0
 2228 0070 00       		.byte	0
 2229 0071 0A       		.uleb128 0xa
 2230 0072 0D       		.uleb128 0xd
 2231 0073 00       		.byte	0
 2232 0074 03       		.uleb128 0x3
 2233 0075 0E       		.uleb128 0xe
 2234 0076 3A       		.uleb128 0x3a
 2235 0077 0B       		.uleb128 0xb
 2236 0078 3B       		.uleb128 0x3b
 2237 0079 05       		.uleb128 0x5
 2238 007a 49       		.uleb128 0x49
 2239 007b 13       		.uleb128 0x13
 2240 007c 38       		.uleb128 0x38
 2241 007d 0B       		.uleb128 0xb
 2242 007e 00       		.byte	0
 2243 007f 00       		.byte	0
 2244 0080 0B       		.uleb128 0xb
 2245 0081 0F       		.uleb128 0xf
 2246 0082 00       		.byte	0
 2247 0083 0B       		.uleb128 0xb
 2248 0084 0B       		.uleb128 0xb
 2249 0085 49       		.uleb128 0x49
 2250 0086 13       		.uleb128 0x13
 2251 0087 00       		.byte	0
 2252 0088 00       		.byte	0
 2253 0089 0C       		.uleb128 0xc
 2254 008a 13       		.uleb128 0x13
 2255 008b 01       		.byte	0x1
 2256 008c 03       		.uleb128 0x3
 2257 008d 0E       		.uleb128 0xe
 2258 008e 0B       		.uleb128 0xb
 2259 008f 0B       		.uleb128 0xb
 2260 0090 3A       		.uleb128 0x3a
 2261 0091 0B       		.uleb128 0xb
 2262 0092 3B       		.uleb128 0x3b
 2263 0093 05       		.uleb128 0x5
 2264 0094 01       		.uleb128 0x1
 2265 0095 13       		.uleb128 0x13
 2266 0096 00       		.byte	0
 2267 0097 00       		.byte	0
 2268 0098 0D       		.uleb128 0xd
 2269 0099 15       		.uleb128 0x15
 2270 009a 01       		.byte	0x1
 2271 009b 27       		.uleb128 0x27
 2272 009c 19       		.uleb128 0x19
 2273 009d 01       		.uleb128 0x1
 2274 009e 13       		.uleb128 0x13
 2275 009f 00       		.byte	0
 2276 00a0 00       		.byte	0
 2277 00a1 0E       		.uleb128 0xe
 2278 00a2 05       		.uleb128 0x5
 2279 00a3 00       		.byte	0
 2280 00a4 49       		.uleb128 0x49
ARM GAS  /var/folders/d2/nstgp4h54kz7g1l847x_b8wc0000gn/T//ccHr493i.s 			page 41


 2281 00a5 13       		.uleb128 0x13
 2282 00a6 00       		.byte	0
 2283 00a7 00       		.byte	0
 2284 00a8 0F       		.uleb128 0xf
 2285 00a9 0F       		.uleb128 0xf
 2286 00aa 00       		.byte	0
 2287 00ab 0B       		.uleb128 0xb
 2288 00ac 0B       		.uleb128 0xb
 2289 00ad 00       		.byte	0
 2290 00ae 00       		.byte	0
 2291 00af 10       		.uleb128 0x10
 2292 00b0 13       		.uleb128 0x13
 2293 00b1 01       		.byte	0x1
 2294 00b2 03       		.uleb128 0x3
 2295 00b3 0E       		.uleb128 0xe
 2296 00b4 0B       		.uleb128 0xb
 2297 00b5 05       		.uleb128 0x5
 2298 00b6 3A       		.uleb128 0x3a
 2299 00b7 0B       		.uleb128 0xb
 2300 00b8 3B       		.uleb128 0x3b
 2301 00b9 05       		.uleb128 0x5
 2302 00ba 01       		.uleb128 0x1
 2303 00bb 13       		.uleb128 0x13
 2304 00bc 00       		.byte	0
 2305 00bd 00       		.byte	0
 2306 00be 11       		.uleb128 0x11
 2307 00bf 0D       		.uleb128 0xd
 2308 00c0 00       		.byte	0
 2309 00c1 03       		.uleb128 0x3
 2310 00c2 0E       		.uleb128 0xe
 2311 00c3 3A       		.uleb128 0x3a
 2312 00c4 0B       		.uleb128 0xb
 2313 00c5 3B       		.uleb128 0x3b
 2314 00c6 05       		.uleb128 0x5
 2315 00c7 49       		.uleb128 0x49
 2316 00c8 13       		.uleb128 0x13
 2317 00c9 38       		.uleb128 0x38
 2318 00ca 05       		.uleb128 0x5
 2319 00cb 00       		.byte	0
 2320 00cc 00       		.byte	0
 2321 00cd 12       		.uleb128 0x12
 2322 00ce 0D       		.uleb128 0xd
 2323 00cf 00       		.byte	0
 2324 00d0 03       		.uleb128 0x3
 2325 00d1 08       		.uleb128 0x8
 2326 00d2 3A       		.uleb128 0x3a
 2327 00d3 0B       		.uleb128 0xb
 2328 00d4 3B       		.uleb128 0x3b
 2329 00d5 05       		.uleb128 0x5
 2330 00d6 49       		.uleb128 0x49
 2331 00d7 13       		.uleb128 0x13
 2332 00d8 38       		.uleb128 0x38
 2333 00d9 05       		.uleb128 0x5
 2334 00da 00       		.byte	0
 2335 00db 00       		.byte	0
 2336 00dc 13       		.uleb128 0x13
 2337 00dd 01       		.uleb128 0x1
ARM GAS  /var/folders/d2/nstgp4h54kz7g1l847x_b8wc0000gn/T//ccHr493i.s 			page 42


 2338 00de 01       		.byte	0x1
 2339 00df 49       		.uleb128 0x49
 2340 00e0 13       		.uleb128 0x13
 2341 00e1 01       		.uleb128 0x1
 2342 00e2 13       		.uleb128 0x13
 2343 00e3 00       		.byte	0
 2344 00e4 00       		.byte	0
 2345 00e5 14       		.uleb128 0x14
 2346 00e6 21       		.uleb128 0x21
 2347 00e7 00       		.byte	0
 2348 00e8 49       		.uleb128 0x49
 2349 00e9 13       		.uleb128 0x13
 2350 00ea 2F       		.uleb128 0x2f
 2351 00eb 0B       		.uleb128 0xb
 2352 00ec 00       		.byte	0
 2353 00ed 00       		.byte	0
 2354 00ee 15       		.uleb128 0x15
 2355 00ef 13       		.uleb128 0x13
 2356 00f0 01       		.byte	0x1
 2357 00f1 0B       		.uleb128 0xb
 2358 00f2 0B       		.uleb128 0xb
 2359 00f3 3A       		.uleb128 0x3a
 2360 00f4 0B       		.uleb128 0xb
 2361 00f5 3B       		.uleb128 0x3b
 2362 00f6 05       		.uleb128 0x5
 2363 00f7 01       		.uleb128 0x1
 2364 00f8 13       		.uleb128 0x13
 2365 00f9 00       		.byte	0
 2366 00fa 00       		.byte	0
 2367 00fb 16       		.uleb128 0x16
 2368 00fc 16       		.uleb128 0x16
 2369 00fd 00       		.byte	0
 2370 00fe 03       		.uleb128 0x3
 2371 00ff 0E       		.uleb128 0xe
 2372 0100 3A       		.uleb128 0x3a
 2373 0101 0B       		.uleb128 0xb
 2374 0102 3B       		.uleb128 0x3b
 2375 0103 05       		.uleb128 0x5
 2376 0104 49       		.uleb128 0x49
 2377 0105 13       		.uleb128 0x13
 2378 0106 00       		.byte	0
 2379 0107 00       		.byte	0
 2380 0108 17       		.uleb128 0x17
 2381 0109 34       		.uleb128 0x34
 2382 010a 00       		.byte	0
 2383 010b 03       		.uleb128 0x3
 2384 010c 0E       		.uleb128 0xe
 2385 010d 3A       		.uleb128 0x3a
 2386 010e 0B       		.uleb128 0xb
 2387 010f 3B       		.uleb128 0x3b
 2388 0110 05       		.uleb128 0x5
 2389 0111 49       		.uleb128 0x49
 2390 0112 13       		.uleb128 0x13
 2391 0113 3F       		.uleb128 0x3f
 2392 0114 19       		.uleb128 0x19
 2393 0115 3C       		.uleb128 0x3c
 2394 0116 19       		.uleb128 0x19
ARM GAS  /var/folders/d2/nstgp4h54kz7g1l847x_b8wc0000gn/T//ccHr493i.s 			page 43


 2395 0117 00       		.byte	0
 2396 0118 00       		.byte	0
 2397 0119 18       		.uleb128 0x18
 2398 011a 34       		.uleb128 0x34
 2399 011b 00       		.byte	0
 2400 011c 03       		.uleb128 0x3
 2401 011d 0E       		.uleb128 0xe
 2402 011e 3A       		.uleb128 0x3a
 2403 011f 0B       		.uleb128 0xb
 2404 0120 3B       		.uleb128 0x3b
 2405 0121 0B       		.uleb128 0xb
 2406 0122 49       		.uleb128 0x49
 2407 0123 13       		.uleb128 0x13
 2408 0124 3F       		.uleb128 0x3f
 2409 0125 19       		.uleb128 0x19
 2410 0126 3C       		.uleb128 0x3c
 2411 0127 19       		.uleb128 0x19
 2412 0128 00       		.byte	0
 2413 0129 00       		.byte	0
 2414 012a 19       		.uleb128 0x19
 2415 012b 0D       		.uleb128 0xd
 2416 012c 00       		.byte	0
 2417 012d 03       		.uleb128 0x3
 2418 012e 08       		.uleb128 0x8
 2419 012f 3A       		.uleb128 0x3a
 2420 0130 0B       		.uleb128 0xb
 2421 0131 3B       		.uleb128 0x3b
 2422 0132 0B       		.uleb128 0xb
 2423 0133 49       		.uleb128 0x49
 2424 0134 13       		.uleb128 0x13
 2425 0135 38       		.uleb128 0x38
 2426 0136 0B       		.uleb128 0xb
 2427 0137 00       		.byte	0
 2428 0138 00       		.byte	0
 2429 0139 1A       		.uleb128 0x1a
 2430 013a 13       		.uleb128 0x13
 2431 013b 01       		.byte	0x1
 2432 013c 0B       		.uleb128 0xb
 2433 013d 0B       		.uleb128 0xb
 2434 013e 3A       		.uleb128 0x3a
 2435 013f 0B       		.uleb128 0xb
 2436 0140 3B       		.uleb128 0x3b
 2437 0141 0B       		.uleb128 0xb
 2438 0142 01       		.uleb128 0x1
 2439 0143 13       		.uleb128 0x13
 2440 0144 00       		.byte	0
 2441 0145 00       		.byte	0
 2442 0146 1B       		.uleb128 0x1b
 2443 0147 13       		.uleb128 0x13
 2444 0148 01       		.byte	0x1
 2445 0149 0B       		.uleb128 0xb
 2446 014a 05       		.uleb128 0x5
 2447 014b 3A       		.uleb128 0x3a
 2448 014c 0B       		.uleb128 0xb
 2449 014d 3B       		.uleb128 0x3b
 2450 014e 0B       		.uleb128 0xb
 2451 014f 01       		.uleb128 0x1
ARM GAS  /var/folders/d2/nstgp4h54kz7g1l847x_b8wc0000gn/T//ccHr493i.s 			page 44


 2452 0150 13       		.uleb128 0x13
 2453 0151 00       		.byte	0
 2454 0152 00       		.byte	0
 2455 0153 1C       		.uleb128 0x1c
 2456 0154 17       		.uleb128 0x17
 2457 0155 01       		.byte	0x1
 2458 0156 0B       		.uleb128 0xb
 2459 0157 0B       		.uleb128 0xb
 2460 0158 3A       		.uleb128 0x3a
 2461 0159 0B       		.uleb128 0xb
 2462 015a 3B       		.uleb128 0x3b
 2463 015b 0B       		.uleb128 0xb
 2464 015c 01       		.uleb128 0x1
 2465 015d 13       		.uleb128 0x13
 2466 015e 00       		.byte	0
 2467 015f 00       		.byte	0
 2468 0160 1D       		.uleb128 0x1d
 2469 0161 0D       		.uleb128 0xd
 2470 0162 00       		.byte	0
 2471 0163 03       		.uleb128 0x3
 2472 0164 0E       		.uleb128 0xe
 2473 0165 3A       		.uleb128 0x3a
 2474 0166 0B       		.uleb128 0xb
 2475 0167 3B       		.uleb128 0x3b
 2476 0168 05       		.uleb128 0x5
 2477 0169 49       		.uleb128 0x49
 2478 016a 13       		.uleb128 0x13
 2479 016b 00       		.byte	0
 2480 016c 00       		.byte	0
 2481 016d 1E       		.uleb128 0x1e
 2482 016e 34       		.uleb128 0x34
 2483 016f 00       		.byte	0
 2484 0170 03       		.uleb128 0x3
 2485 0171 08       		.uleb128 0x8
 2486 0172 3A       		.uleb128 0x3a
 2487 0173 0B       		.uleb128 0xb
 2488 0174 3B       		.uleb128 0x3b
 2489 0175 05       		.uleb128 0x5
 2490 0176 49       		.uleb128 0x49
 2491 0177 13       		.uleb128 0x13
 2492 0178 3F       		.uleb128 0x3f
 2493 0179 19       		.uleb128 0x19
 2494 017a 3C       		.uleb128 0x3c
 2495 017b 19       		.uleb128 0x19
 2496 017c 00       		.byte	0
 2497 017d 00       		.byte	0
 2498 017e 1F       		.uleb128 0x1f
 2499 017f 2E       		.uleb128 0x2e
 2500 0180 01       		.byte	0x1
 2501 0181 3F       		.uleb128 0x3f
 2502 0182 19       		.uleb128 0x19
 2503 0183 03       		.uleb128 0x3
 2504 0184 0E       		.uleb128 0xe
 2505 0185 3A       		.uleb128 0x3a
 2506 0186 0B       		.uleb128 0xb
 2507 0187 3B       		.uleb128 0x3b
 2508 0188 0B       		.uleb128 0xb
ARM GAS  /var/folders/d2/nstgp4h54kz7g1l847x_b8wc0000gn/T//ccHr493i.s 			page 45


 2509 0189 27       		.uleb128 0x27
 2510 018a 19       		.uleb128 0x19
 2511 018b 11       		.uleb128 0x11
 2512 018c 01       		.uleb128 0x1
 2513 018d 12       		.uleb128 0x12
 2514 018e 06       		.uleb128 0x6
 2515 018f 40       		.uleb128 0x40
 2516 0190 18       		.uleb128 0x18
 2517 0191 9742     		.uleb128 0x2117
 2518 0193 19       		.uleb128 0x19
 2519 0194 01       		.uleb128 0x1
 2520 0195 13       		.uleb128 0x13
 2521 0196 00       		.byte	0
 2522 0197 00       		.byte	0
 2523 0198 20       		.uleb128 0x20
 2524 0199 05       		.uleb128 0x5
 2525 019a 00       		.byte	0
 2526 019b 03       		.uleb128 0x3
 2527 019c 0E       		.uleb128 0xe
 2528 019d 3A       		.uleb128 0x3a
 2529 019e 0B       		.uleb128 0xb
 2530 019f 3B       		.uleb128 0x3b
 2531 01a0 0B       		.uleb128 0xb
 2532 01a1 49       		.uleb128 0x49
 2533 01a2 13       		.uleb128 0x13
 2534 01a3 02       		.uleb128 0x2
 2535 01a4 17       		.uleb128 0x17
 2536 01a5 00       		.byte	0
 2537 01a6 00       		.byte	0
 2538 01a7 21       		.uleb128 0x21
 2539 01a8 1D       		.uleb128 0x1d
 2540 01a9 00       		.byte	0
 2541 01aa 31       		.uleb128 0x31
 2542 01ab 13       		.uleb128 0x13
 2543 01ac 52       		.uleb128 0x52
 2544 01ad 01       		.uleb128 0x1
 2545 01ae 55       		.uleb128 0x55
 2546 01af 17       		.uleb128 0x17
 2547 01b0 58       		.uleb128 0x58
 2548 01b1 0B       		.uleb128 0xb
 2549 01b2 59       		.uleb128 0x59
 2550 01b3 0B       		.uleb128 0xb
 2551 01b4 00       		.byte	0
 2552 01b5 00       		.byte	0
 2553 01b6 22       		.uleb128 0x22
 2554 01b7 1D       		.uleb128 0x1d
 2555 01b8 01       		.byte	0x1
 2556 01b9 31       		.uleb128 0x31
 2557 01ba 13       		.uleb128 0x13
 2558 01bb 52       		.uleb128 0x52
 2559 01bc 01       		.uleb128 0x1
 2560 01bd 55       		.uleb128 0x55
 2561 01be 17       		.uleb128 0x17
 2562 01bf 58       		.uleb128 0x58
 2563 01c0 0B       		.uleb128 0xb
 2564 01c1 59       		.uleb128 0x59
 2565 01c2 0B       		.uleb128 0xb
ARM GAS  /var/folders/d2/nstgp4h54kz7g1l847x_b8wc0000gn/T//ccHr493i.s 			page 46


 2566 01c3 01       		.uleb128 0x1
 2567 01c4 13       		.uleb128 0x13
 2568 01c5 00       		.byte	0
 2569 01c6 00       		.byte	0
 2570 01c7 23       		.uleb128 0x23
 2571 01c8 05       		.uleb128 0x5
 2572 01c9 00       		.byte	0
 2573 01ca 31       		.uleb128 0x31
 2574 01cb 13       		.uleb128 0x13
 2575 01cc 02       		.uleb128 0x2
 2576 01cd 17       		.uleb128 0x17
 2577 01ce 00       		.byte	0
 2578 01cf 00       		.byte	0
 2579 01d0 24       		.uleb128 0x24
 2580 01d1 898201   		.uleb128 0x4109
 2581 01d4 00       		.byte	0
 2582 01d5 11       		.uleb128 0x11
 2583 01d6 01       		.uleb128 0x1
 2584 01d7 31       		.uleb128 0x31
 2585 01d8 13       		.uleb128 0x13
 2586 01d9 00       		.byte	0
 2587 01da 00       		.byte	0
 2588 01db 25       		.uleb128 0x25
 2589 01dc 05       		.uleb128 0x5
 2590 01dd 00       		.byte	0
 2591 01de 03       		.uleb128 0x3
 2592 01df 08       		.uleb128 0x8
 2593 01e0 3A       		.uleb128 0x3a
 2594 01e1 0B       		.uleb128 0xb
 2595 01e2 3B       		.uleb128 0x3b
 2596 01e3 0B       		.uleb128 0xb
 2597 01e4 49       		.uleb128 0x49
 2598 01e5 13       		.uleb128 0x13
 2599 01e6 02       		.uleb128 0x2
 2600 01e7 17       		.uleb128 0x17
 2601 01e8 00       		.byte	0
 2602 01e9 00       		.byte	0
 2603 01ea 26       		.uleb128 0x26
 2604 01eb 05       		.uleb128 0x5
 2605 01ec 00       		.byte	0
 2606 01ed 31       		.uleb128 0x31
 2607 01ee 13       		.uleb128 0x13
 2608 01ef 00       		.byte	0
 2609 01f0 00       		.byte	0
 2610 01f1 27       		.uleb128 0x27
 2611 01f2 2E       		.uleb128 0x2e
 2612 01f3 01       		.byte	0x1
 2613 01f4 3F       		.uleb128 0x3f
 2614 01f5 19       		.uleb128 0x19
 2615 01f6 03       		.uleb128 0x3
 2616 01f7 0E       		.uleb128 0xe
 2617 01f8 3A       		.uleb128 0x3a
 2618 01f9 0B       		.uleb128 0xb
 2619 01fa 3B       		.uleb128 0x3b
 2620 01fb 0B       		.uleb128 0xb
 2621 01fc 27       		.uleb128 0x27
 2622 01fd 19       		.uleb128 0x19
ARM GAS  /var/folders/d2/nstgp4h54kz7g1l847x_b8wc0000gn/T//ccHr493i.s 			page 47


 2623 01fe 20       		.uleb128 0x20
 2624 01ff 0B       		.uleb128 0xb
 2625 0200 01       		.uleb128 0x1
 2626 0201 13       		.uleb128 0x13
 2627 0202 00       		.byte	0
 2628 0203 00       		.byte	0
 2629 0204 28       		.uleb128 0x28
 2630 0205 05       		.uleb128 0x5
 2631 0206 00       		.byte	0
 2632 0207 03       		.uleb128 0x3
 2633 0208 08       		.uleb128 0x8
 2634 0209 3A       		.uleb128 0x3a
 2635 020a 0B       		.uleb128 0xb
 2636 020b 3B       		.uleb128 0x3b
 2637 020c 0B       		.uleb128 0xb
 2638 020d 49       		.uleb128 0x49
 2639 020e 13       		.uleb128 0x13
 2640 020f 00       		.byte	0
 2641 0210 00       		.byte	0
 2642 0211 29       		.uleb128 0x29
 2643 0212 34       		.uleb128 0x34
 2644 0213 00       		.byte	0
 2645 0214 03       		.uleb128 0x3
 2646 0215 08       		.uleb128 0x8
 2647 0216 3A       		.uleb128 0x3a
 2648 0217 0B       		.uleb128 0xb
 2649 0218 3B       		.uleb128 0x3b
 2650 0219 0B       		.uleb128 0xb
 2651 021a 49       		.uleb128 0x49
 2652 021b 13       		.uleb128 0x13
 2653 021c 02       		.uleb128 0x2
 2654 021d 18       		.uleb128 0x18
 2655 021e 00       		.byte	0
 2656 021f 00       		.byte	0
 2657 0220 2A       		.uleb128 0x2a
 2658 0221 898201   		.uleb128 0x4109
 2659 0224 01       		.byte	0x1
 2660 0225 11       		.uleb128 0x11
 2661 0226 01       		.uleb128 0x1
 2662 0227 31       		.uleb128 0x31
 2663 0228 13       		.uleb128 0x13
 2664 0229 01       		.uleb128 0x1
 2665 022a 13       		.uleb128 0x13
 2666 022b 00       		.byte	0
 2667 022c 00       		.byte	0
 2668 022d 2B       		.uleb128 0x2b
 2669 022e 8A8201   		.uleb128 0x410a
 2670 0231 00       		.byte	0
 2671 0232 02       		.uleb128 0x2
 2672 0233 18       		.uleb128 0x18
 2673 0234 9142     		.uleb128 0x2111
 2674 0236 18       		.uleb128 0x18
 2675 0237 00       		.byte	0
 2676 0238 00       		.byte	0
 2677 0239 2C       		.uleb128 0x2c
 2678 023a 2E       		.uleb128 0x2e
 2679 023b 01       		.byte	0x1
ARM GAS  /var/folders/d2/nstgp4h54kz7g1l847x_b8wc0000gn/T//ccHr493i.s 			page 48


 2680 023c 03       		.uleb128 0x3
 2681 023d 0E       		.uleb128 0xe
 2682 023e 3A       		.uleb128 0x3a
 2683 023f 0B       		.uleb128 0xb
 2684 0240 3B       		.uleb128 0x3b
 2685 0241 0B       		.uleb128 0xb
 2686 0242 27       		.uleb128 0x27
 2687 0243 19       		.uleb128 0x19
 2688 0244 20       		.uleb128 0x20
 2689 0245 0B       		.uleb128 0xb
 2690 0246 01       		.uleb128 0x1
 2691 0247 13       		.uleb128 0x13
 2692 0248 00       		.byte	0
 2693 0249 00       		.byte	0
 2694 024a 2D       		.uleb128 0x2d
 2695 024b 05       		.uleb128 0x5
 2696 024c 00       		.byte	0
 2697 024d 03       		.uleb128 0x3
 2698 024e 0E       		.uleb128 0xe
 2699 024f 3A       		.uleb128 0x3a
 2700 0250 0B       		.uleb128 0xb
 2701 0251 3B       		.uleb128 0x3b
 2702 0252 0B       		.uleb128 0xb
 2703 0253 49       		.uleb128 0x49
 2704 0254 13       		.uleb128 0x13
 2705 0255 00       		.byte	0
 2706 0256 00       		.byte	0
 2707 0257 2E       		.uleb128 0x2e
 2708 0258 2E       		.uleb128 0x2e
 2709 0259 00       		.byte	0
 2710 025a 03       		.uleb128 0x3
 2711 025b 0E       		.uleb128 0xe
 2712 025c 3A       		.uleb128 0x3a
 2713 025d 0B       		.uleb128 0xb
 2714 025e 3B       		.uleb128 0x3b
 2715 025f 05       		.uleb128 0x5
 2716 0260 27       		.uleb128 0x27
 2717 0261 19       		.uleb128 0x19
 2718 0262 49       		.uleb128 0x49
 2719 0263 13       		.uleb128 0x13
 2720 0264 20       		.uleb128 0x20
 2721 0265 0B       		.uleb128 0xb
 2722 0266 00       		.byte	0
 2723 0267 00       		.byte	0
 2724 0268 2F       		.uleb128 0x2f
 2725 0269 2E       		.uleb128 0x2e
 2726 026a 01       		.byte	0x1
 2727 026b 31       		.uleb128 0x31
 2728 026c 13       		.uleb128 0x13
 2729 026d 11       		.uleb128 0x11
 2730 026e 01       		.uleb128 0x1
 2731 026f 12       		.uleb128 0x12
 2732 0270 06       		.uleb128 0x6
 2733 0271 40       		.uleb128 0x40
 2734 0272 18       		.uleb128 0x18
 2735 0273 9742     		.uleb128 0x2117
 2736 0275 19       		.uleb128 0x19
ARM GAS  /var/folders/d2/nstgp4h54kz7g1l847x_b8wc0000gn/T//ccHr493i.s 			page 49


 2737 0276 01       		.uleb128 0x1
 2738 0277 13       		.uleb128 0x13
 2739 0278 00       		.byte	0
 2740 0279 00       		.byte	0
 2741 027a 30       		.uleb128 0x30
 2742 027b 2E       		.uleb128 0x2e
 2743 027c 00       		.byte	0
 2744 027d 3F       		.uleb128 0x3f
 2745 027e 19       		.uleb128 0x19
 2746 027f 3C       		.uleb128 0x3c
 2747 0280 19       		.uleb128 0x19
 2748 0281 6E       		.uleb128 0x6e
 2749 0282 0E       		.uleb128 0xe
 2750 0283 03       		.uleb128 0x3
 2751 0284 0E       		.uleb128 0xe
 2752 0285 00       		.byte	0
 2753 0286 00       		.byte	0
 2754 0287 00       		.byte	0
 2755              		.section	.debug_loc,"",%progbits
 2756              	.Ldebug_loc0:
 2757              	.LLST6:
 2758 0000 00000000 		.4byte	.LVL16
 2759 0004 51000000 		.4byte	.LVL24-1
 2760 0008 0100     		.2byte	0x1
 2761 000a 50       		.byte	0x50
 2762 000b 51000000 		.4byte	.LVL24-1
 2763 000f 5C000000 		.4byte	.LFE224
 2764 0013 0400     		.2byte	0x4
 2765 0015 F3       		.byte	0xf3
 2766 0016 01       		.uleb128 0x1
 2767 0017 50       		.byte	0x50
 2768 0018 9F       		.byte	0x9f
 2769 0019 00000000 		.4byte	0
 2770 001d 00000000 		.4byte	0
 2771              	.LLST7:
 2772 0021 00000000 		.4byte	.LVL16
 2773 0025 16000000 		.4byte	.LVL18
 2774 0029 0100     		.2byte	0x1
 2775 002b 51       		.byte	0x51
 2776 002c 16000000 		.4byte	.LVL18
 2777 0030 5C000000 		.4byte	.LFE224
 2778 0034 0400     		.2byte	0x4
 2779 0036 F3       		.byte	0xf3
 2780 0037 01       		.uleb128 0x1
 2781 0038 51       		.byte	0x51
 2782 0039 9F       		.byte	0x9f
 2783 003a 00000000 		.4byte	0
 2784 003e 00000000 		.4byte	0
 2785              	.LLST8:
 2786 0042 12000000 		.4byte	.LVL17
 2787 0046 3C000000 		.4byte	.LVL21
 2788 004a 0200     		.2byte	0x2
 2789 004c 30       		.byte	0x30
 2790 004d 9F       		.byte	0x9f
 2791 004e 4A000000 		.4byte	.LVL22
 2792 0052 4E000000 		.4byte	.LVL23
 2793 0056 0200     		.2byte	0x2
ARM GAS  /var/folders/d2/nstgp4h54kz7g1l847x_b8wc0000gn/T//ccHr493i.s 			page 50


 2794 0058 30       		.byte	0x30
 2795 0059 9F       		.byte	0x9f
 2796 005a 00000000 		.4byte	0
 2797 005e 00000000 		.4byte	0
 2798              	.LLST9:
 2799 0062 12000000 		.4byte	.LVL17
 2800 0066 18000000 		.4byte	.LVL19
 2801 006a 0100     		.2byte	0x1
 2802 006c 53       		.byte	0x53
 2803 006d 18000000 		.4byte	.LVL19
 2804 0071 2E000000 		.4byte	.LVL20
 2805 0075 0500     		.2byte	0x5
 2806 0077 F3       		.byte	0xf3
 2807 0078 01       		.uleb128 0x1
 2808 0079 51       		.byte	0x51
 2809 007a 23       		.byte	0x23
 2810 007b 08       		.uleb128 0x8
 2811 007c 00000000 		.4byte	0
 2812 0080 00000000 		.4byte	0
 2813              	.LLST10:
 2814 0084 12000000 		.4byte	.LVL17
 2815 0088 3C000000 		.4byte	.LVL21
 2816 008c 0100     		.2byte	0x1
 2817 008e 50       		.byte	0x50
 2818 008f 4A000000 		.4byte	.LVL22
 2819 0093 4E000000 		.4byte	.LVL23
 2820 0097 0100     		.2byte	0x1
 2821 0099 50       		.byte	0x50
 2822 009a 00000000 		.4byte	0
 2823 009e 00000000 		.4byte	0
 2824              	.LLST2:
 2825 00a2 00000000 		.4byte	.LVL4
 2826 00a6 51000000 		.4byte	.LVL10-1
 2827 00aa 0100     		.2byte	0x1
 2828 00ac 50       		.byte	0x50
 2829 00ad 51000000 		.4byte	.LVL10-1
 2830 00b1 60000000 		.4byte	.LFE223
 2831 00b5 0400     		.2byte	0x4
 2832 00b7 F3       		.byte	0xf3
 2833 00b8 01       		.uleb128 0x1
 2834 00b9 50       		.byte	0x50
 2835 00ba 9F       		.byte	0x9f
 2836 00bb 00000000 		.4byte	0
 2837 00bf 00000000 		.4byte	0
 2838              	.LLST3:
 2839 00c3 16000000 		.4byte	.LVL5
 2840 00c7 2A000000 		.4byte	.LVL6
 2841 00cb 0100     		.2byte	0x1
 2842 00cd 56       		.byte	0x56
 2843 00ce 00000000 		.4byte	0
 2844 00d2 00000000 		.4byte	0
 2845              	.LLST4:
 2846 00d6 16000000 		.4byte	.LVL5
 2847 00da 3E000000 		.4byte	.LVL7
 2848 00de 0100     		.2byte	0x1
 2849 00e0 50       		.byte	0x50
 2850 00e1 4A000000 		.4byte	.LVL8
ARM GAS  /var/folders/d2/nstgp4h54kz7g1l847x_b8wc0000gn/T//ccHr493i.s 			page 51


 2851 00e5 4E000000 		.4byte	.LVL9
 2852 00e9 0100     		.2byte	0x1
 2853 00eb 50       		.byte	0x50
 2854 00ec 00000000 		.4byte	0
 2855 00f0 00000000 		.4byte	0
 2856              	.LLST1:
 2857 00f4 00000000 		.4byte	.LVL2
 2858 00f8 21000000 		.4byte	.LVL3-1
 2859 00fc 0100     		.2byte	0x1
 2860 00fe 50       		.byte	0x50
 2861 00ff 21000000 		.4byte	.LVL3-1
 2862 0103 2C000000 		.4byte	.LFE222
 2863 0107 0400     		.2byte	0x4
 2864 0109 F3       		.byte	0xf3
 2865 010a 01       		.uleb128 0x1
 2866 010b 50       		.byte	0x50
 2867 010c 9F       		.byte	0x9f
 2868 010d 00000000 		.4byte	0
 2869 0111 00000000 		.4byte	0
 2870              	.LLST5:
 2871 0115 1A000000 		.4byte	.LVL11
 2872 0119 26000000 		.4byte	.LVL12
 2873 011d 0100     		.2byte	0x1
 2874 011f 50       		.byte	0x50
 2875 0120 00000000 		.4byte	0
 2876 0124 00000000 		.4byte	0
 2877              	.LLST0:
 2878 0128 00000000 		.4byte	.LVL0
 2879 012c 2F000000 		.4byte	.LVL1-1
 2880 0130 0100     		.2byte	0x1
 2881 0132 50       		.byte	0x50
 2882 0133 2F000000 		.4byte	.LVL1-1
 2883 0137 34000000 		.4byte	.LFE221
 2884 013b 0400     		.2byte	0x4
 2885 013d F3       		.byte	0xf3
 2886 013e 01       		.uleb128 0x1
 2887 013f 50       		.byte	0x50
 2888 0140 9F       		.byte	0x9f
 2889 0141 00000000 		.4byte	0
 2890 0145 00000000 		.4byte	0
 2891              		.section	.debug_aranges,"",%progbits
 2892 0000 3C000000 		.4byte	0x3c
 2893 0004 0200     		.2byte	0x2
 2894 0006 00000000 		.4byte	.Ldebug_info0
 2895 000a 04       		.byte	0x4
 2896 000b 00       		.byte	0
 2897 000c 0000     		.2byte	0
 2898 000e 0000     		.2byte	0
 2899 0010 00000000 		.4byte	.LFB221
 2900 0014 34000000 		.4byte	.LFE221-.LFB221
 2901 0018 00000000 		.4byte	.LFB222
 2902 001c 2C000000 		.4byte	.LFE222-.LFB222
 2903 0020 00000000 		.4byte	.LFB223
 2904 0024 60000000 		.4byte	.LFE223-.LFB223
 2905 0028 00000000 		.4byte	.LFB220
 2906 002c 50000000 		.4byte	.LFE220-.LFB220
 2907 0030 00000000 		.4byte	.LFB224
ARM GAS  /var/folders/d2/nstgp4h54kz7g1l847x_b8wc0000gn/T//ccHr493i.s 			page 52


 2908 0034 5C000000 		.4byte	.LFE224-.LFB224
 2909 0038 00000000 		.4byte	0
 2910 003c 00000000 		.4byte	0
 2911              		.section	.debug_ranges,"",%progbits
 2912              	.Ldebug_ranges0:
 2913 0000 04000000 		.4byte	.LBB14
 2914 0004 06000000 		.4byte	.LBE14
 2915 0008 0C000000 		.4byte	.LBB17
 2916 000c 0E000000 		.4byte	.LBE17
 2917 0010 00000000 		.4byte	0
 2918 0014 00000000 		.4byte	0
 2919 0018 04000000 		.4byte	.LBB18
 2920 001c 06000000 		.4byte	.LBE18
 2921 0020 10000000 		.4byte	.LBB25
 2922 0024 12000000 		.4byte	.LBE25
 2923 0028 00000000 		.4byte	0
 2924 002c 00000000 		.4byte	0
 2925 0030 08000000 		.4byte	.LBB21
 2926 0034 0A000000 		.4byte	.LBE21
 2927 0038 16000000 		.4byte	.LBB26
 2928 003c 3E000000 		.4byte	.LBE26
 2929 0040 4A000000 		.4byte	.LBB27
 2930 0044 4E000000 		.4byte	.LBE27
 2931 0048 00000000 		.4byte	0
 2932 004c 00000000 		.4byte	0
 2933 0050 0A000000 		.4byte	.LBB28
 2934 0054 0E000000 		.4byte	.LBE28
 2935 0058 12000000 		.4byte	.LBB32
 2936 005c 14000000 		.4byte	.LBE32
 2937 0060 1A000000 		.4byte	.LBB33
 2938 0064 28000000 		.4byte	.LBE33
 2939 0068 00000000 		.4byte	0
 2940 006c 00000000 		.4byte	0
 2941 0070 06000000 		.4byte	.LBB34
 2942 0074 08000000 		.4byte	.LBE34
 2943 0078 0E000000 		.4byte	.LBB37
 2944 007c 10000000 		.4byte	.LBE37
 2945 0080 00000000 		.4byte	0
 2946 0084 00000000 		.4byte	0
 2947 0088 12000000 		.4byte	.LBB38
 2948 008c 3C000000 		.4byte	.LBE38
 2949 0090 4A000000 		.4byte	.LBB41
 2950 0094 4E000000 		.4byte	.LBE41
 2951 0098 00000000 		.4byte	0
 2952 009c 00000000 		.4byte	0
 2953 00a0 00000000 		.4byte	.LFB221
 2954 00a4 34000000 		.4byte	.LFE221
 2955 00a8 00000000 		.4byte	.LFB222
 2956 00ac 2C000000 		.4byte	.LFE222
 2957 00b0 00000000 		.4byte	.LFB223
 2958 00b4 60000000 		.4byte	.LFE223
 2959 00b8 00000000 		.4byte	.LFB220
 2960 00bc 50000000 		.4byte	.LFE220
 2961 00c0 00000000 		.4byte	.LFB224
 2962 00c4 5C000000 		.4byte	.LFE224
 2963 00c8 00000000 		.4byte	0
 2964 00cc 00000000 		.4byte	0
ARM GAS  /var/folders/d2/nstgp4h54kz7g1l847x_b8wc0000gn/T//ccHr493i.s 			page 53


 2965              		.section	.debug_line,"",%progbits
 2966              	.Ldebug_line0:
 2967 0000 40040000 		.section	.debug_str,"MS",%progbits,1
 2967      02003203 
 2967      00000201 
 2967      FB0E0D00 
 2967      01010101 
 2968              	.LASF169:
 2969 0000 63665F6F 		.ascii	"cf_off_older\000"
 2969      66665F6F 
 2969      6C646572 
 2969      00
 2970              	.LASF60:
 2971 000d 72656164 		.ascii	"ready_list_t\000"
 2971      795F6C69 
 2971      73745F74 
 2971      00
 2972              	.LASF122:
 2973 001a 73655F74 		.ascii	"se_time\000"
 2973      696D6500 
 2974              	.LASF113:
 2975 0022 4D41534B 		.ascii	"MASK3\000"
 2975      3300
 2976              	.LASF146:
 2977 0028 77747472 		.ascii	"wttrp\000"
 2977      7000
 2978              	.LASF143:
 2979 002e 7264796D 		.ascii	"rdymsg\000"
 2979      736700
 2980              	.LASF19:
 2981 0035 75696E74 		.ascii	"uint64_t\000"
 2981      36345F74 
 2981      00
 2982              	.LASF90:
 2983 003e 6B65726E 		.ascii	"kernel_stats\000"
 2983      656C5F73 
 2983      74617473 
 2983      00
 2984              	.LASF6:
 2985 004b 5F5F7569 		.ascii	"__uint8_t\000"
 2985      6E74385F 
 2985      7400
 2986              	.LASF121:
 2987 0055 706F7274 		.ascii	"port_intctx\000"
 2987      5F696E74 
 2987      63747800 
 2988              	.LASF59:
 2989 0061 63685F74 		.ascii	"ch_threads_queue\000"
 2989      68726561 
 2989      64735F71 
 2989      75657565 
 2989      00
 2990              	.LASF79:
 2991 0072 73797374 		.ascii	"system_debug_t\000"
 2991      656D5F64 
 2991      65627567 
 2991      5F7400
ARM GAS  /var/folders/d2/nstgp4h54kz7g1l847x_b8wc0000gn/T//ccHr493i.s 			page 54


 2992              	.LASF134:
 2993 0081 776F7273 		.ascii	"worst\000"
 2993      7400
 2994              	.LASF137:
 2995 0087 74696D65 		.ascii	"time_measurement_t\000"
 2995      5F6D6561 
 2995      73757265 
 2995      6D656E74 
 2995      5F7400
 2996              	.LASF14:
 2997 009a 6C6F6E67 		.ascii	"long long unsigned int\000"
 2997      206C6F6E 
 2997      6720756E 
 2997      7369676E 
 2997      65642069 
 2998              	.LASF130:
 2999 00b1 63685F74 		.ascii	"ch_trace_buffer_t\000"
 2999      72616365 
 2999      5F627566 
 2999      6665725F 
 2999      7400
 3000              	.LASF165:
 3001 00c3 63685F74 		.ascii	"ch_threadsize\000"
 3001      68726561 
 3001      6473697A 
 3001      6500
 3002              	.LASF144:
 3003 00d1 65786974 		.ascii	"exitcode\000"
 3003      636F6465 
 3003      00
 3004              	.LASF89:
 3005 00da 6D61696E 		.ascii	"mainthread\000"
 3005      74687265 
 3005      616400
 3006              	.LASF190:
 3007 00e5 746D5F73 		.ascii	"tm_stop\000"
 3007      746F7000 
 3008              	.LASF76:
 3009 00ed 76697274 		.ascii	"virtual_timers_list_t\000"
 3009      75616C5F 
 3009      74696D65 
 3009      72735F6C 
 3009      6973745F 
 3010              	.LASF189:
 3011 0103 6368544D 		.ascii	"chTMObjectInit\000"
 3011      4F626A65 
 3011      6374496E 
 3011      697400
 3012              	.LASF21:
 3013 0112 72747469 		.ascii	"rttime_t\000"
 3013      6D655F74 
 3013      00
 3014              	.LASF35:
 3015 011b 705F7072 		.ascii	"p_prio\000"
 3015      696F00
 3016              	.LASF172:
 3017 0122 63665F6F 		.ascii	"cf_off_state\000"
ARM GAS  /var/folders/d2/nstgp4h54kz7g1l847x_b8wc0000gn/T//ccHr493i.s 			page 55


 3017      66665F73 
 3017      74617465 
 3017      00
 3018              	.LASF180:
 3019 012f 746D7031 		.ascii	"tmp1\000"
 3019      00
 3020              	.LASF181:
 3021 0134 746D7032 		.ascii	"tmp2\000"
 3021      00
 3022              	.LASF179:
 3023 0139 6D757465 		.ascii	"mutex_t\000"
 3023      785F7400 
 3024              	.LASF1:
 3025 0141 6C6F6E67 		.ascii	"long long int\000"
 3025      206C6F6E 
 3025      6720696E 
 3025      7400
 3026              	.LASF3:
 3027 014f 7369676E 		.ascii	"signed char\000"
 3027      65642063 
 3027      68617200 
 3028              	.LASF171:
 3029 015b 63665F6F 		.ascii	"cf_off_stklimit\000"
 3029      66665F73 
 3029      746B6C69 
 3029      6D697400 
 3030              	.LASF173:
 3031 016b 63665F6F 		.ascii	"cf_off_flags\000"
 3031      66665F66 
 3031      6C616773 
 3031      00
 3032              	.LASF52:
 3033 0178 705F6D70 		.ascii	"p_mpool\000"
 3033      6F6F6C00 
 3034              	.LASF94:
 3035 0180 43504943 		.ascii	"CPICNT\000"
 3035      4E5400
 3036              	.LASF154:
 3037 0187 6D5F7175 		.ascii	"m_queue\000"
 3037      65756500 
 3038              	.LASF88:
 3039 018f 76746C69 		.ascii	"vtlist\000"
 3039      737400
 3040              	.LASF159:
 3041 0196 63685F69 		.ascii	"ch_identifier\000"
 3041      64656E74 
 3041      69666965 
 3041      7200
 3042              	.LASF184:
 3043 01a4 6368544D 		.ascii	"chTMStartMeasurementX\000"
 3043      53746172 
 3043      744D6561 
 3043      73757265 
 3043      6D656E74 
 3044              	.LASF183:
 3045 01ba 6368544D 		.ascii	"chTMStopMeasurementX\000"
 3045      53746F70 
ARM GAS  /var/folders/d2/nstgp4h54kz7g1l847x_b8wc0000gn/T//ccHr493i.s 			page 56


 3045      4D656173 
 3045      7572656D 
 3045      656E7458 
 3046              	.LASF10:
 3047 01cf 6C6F6E67 		.ascii	"long int\000"
 3047      20696E74 
 3047      00
 3048              	.LASF23:
 3049 01d8 74737461 		.ascii	"tstate_t\000"
 3049      74655F74 
 3049      00
 3050              	.LASF123:
 3051 01e1 73655F74 		.ascii	"se_tp\000"
 3051      7000
 3052              	.LASF177:
 3053 01e7 63686465 		.ascii	"chdebug_t\000"
 3053      6275675F 
 3053      7400
 3054              	.LASF96:
 3055 01f1 534C4545 		.ascii	"SLEEPCNT\000"
 3055      50434E54 
 3055      00
 3056              	.LASF37:
 3057 01fa 705F6E65 		.ascii	"p_newer\000"
 3057      77657200 
 3058              	.LASF151:
 3059 0202 735F7175 		.ascii	"s_queue\000"
 3059      65756500 
 3060              	.LASF127:
 3061 020a 74625F73 		.ascii	"tb_size\000"
 3061      697A6500 
 3062              	.LASF65:
 3063 0212 725F6E65 		.ascii	"r_newer\000"
 3063      77657200 
 3064              	.LASF118:
 3065 021a 72656761 		.ascii	"regarm_t\000"
 3065      726D5F74 
 3065      00
 3066              	.LASF72:
 3067 0223 76745F70 		.ascii	"vt_prev\000"
 3067      72657600 
 3068              	.LASF80:
 3069 022b 63685F73 		.ascii	"ch_system_debug\000"
 3069      79737465 
 3069      6D5F6465 
 3069      62756700 
 3070              	.LASF157:
 3071 023b 6D5F636E 		.ascii	"m_cnt\000"
 3071      7400
 3072              	.LASF71:
 3073 0241 76745F6E 		.ascii	"vt_next\000"
 3073      65787400 
 3074              	.LASF83:
 3075 0249 6C6F636B 		.ascii	"lock_cnt\000"
 3075      5F636E74 
 3075      00
 3076              	.LASF91:
ARM GAS  /var/folders/d2/nstgp4h54kz7g1l847x_b8wc0000gn/T//ccHr493i.s 			page 57


 3077 0252 69646C65 		.ascii	"idle_thread_wa\000"
 3077      5F746872 
 3077      6561645F 
 3077      776100
 3078              	.LASF29:
 3079 0261 636E745F 		.ascii	"cnt_t\000"
 3079      7400
 3080              	.LASF101:
 3081 0267 4D41534B 		.ascii	"MASK0\000"
 3081      3000
 3082              	.LASF0:
 3083 026d 756E7369 		.ascii	"unsigned int\000"
 3083      676E6564 
 3083      20696E74 
 3083      00
 3084              	.LASF186:
 3085 027a 474E5520 		.ascii	"GNU C11 7.2.1 20170904 (release) [ARM/embedded-7-br"
 3085      43313120 
 3085      372E322E 
 3085      31203230 
 3085      31373039 
 3086 02ad 616E6368 		.ascii	"anch revision 255204] -mcpu=cortex-m4 -mfloat-abi=h"
 3086      20726576 
 3086      6973696F 
 3086      6E203235 
 3086      35323034 
 3087 02e0 61726420 		.ascii	"ard -mfpu=fpv4-sp-d16 -mno-thumb-interwork -mthumb "
 3087      2D6D6670 
 3087      753D6670 
 3087      76342D73 
 3087      702D6431 
 3088 0313 2D676764 		.ascii	"-ggdb -O2 -fomit-frame-pointer -falign-functions=16"
 3088      62202D4F 
 3088      32202D66 
 3088      6F6D6974 
 3088      2D667261 
 3089 0346 202D666E 		.ascii	" -fno-strict-aliasing -fstack-protector-all -ffunct"
 3089      6F2D7374 
 3089      72696374 
 3089      2D616C69 
 3089      6173696E 
 3090 0379 696F6E2D 		.ascii	"ion-sections -fdata-sections -fno-common -fsingle-p"
 3090      73656374 
 3090      696F6E73 
 3090      202D6664 
 3090      6174612D 
 3091 03ac 72656369 		.ascii	"recision-constant\000"
 3091      73696F6E 
 3091      2D636F6E 
 3091      7374616E 
 3091      7400
 3092              	.LASF109:
 3093 03be 4D41534B 		.ascii	"MASK2\000"
 3093      3200
 3094              	.LASF117:
 3095 03c4 53797374 		.ascii	"SystemCoreClock\000"
 3095      656D436F 
ARM GAS  /var/folders/d2/nstgp4h54kz7g1l847x_b8wc0000gn/T//ccHr493i.s 			page 58


 3095      7265436C 
 3095      6F636B00 
 3096              	.LASF45:
 3097 03d4 705F7469 		.ascii	"p_time\000"
 3097      6D6500
 3098              	.LASF147:
 3099 03db 77747365 		.ascii	"wtsemp\000"
 3099      6D7000
 3100              	.LASF73:
 3101 03e2 76745F64 		.ascii	"vt_delta\000"
 3101      656C7461 
 3101      00
 3102              	.LASF47:
 3103 03eb 705F6D73 		.ascii	"p_msgqueue\000"
 3103      67717565 
 3103      756500
 3104              	.LASF178:
 3105 03f6 63685F64 		.ascii	"ch_debug\000"
 3105      65627567 
 3105      00
 3106              	.LASF61:
 3107 03ff 63685F72 		.ascii	"ch_ready_list\000"
 3107      65616479 
 3107      5F6C6973 
 3107      7400
 3108              	.LASF138:
 3109 040d 6E5F6972 		.ascii	"n_irq\000"
 3109      7100
 3110              	.LASF152:
 3111 0413 735F636E 		.ascii	"s_cnt\000"
 3111      7400
 3112              	.LASF133:
 3113 0419 62657374 		.ascii	"best\000"
 3113      00
 3114              	.LASF8:
 3115 041e 73686F72 		.ascii	"short unsigned int\000"
 3115      7420756E 
 3115      7369676E 
 3115      65642069 
 3115      6E7400
 3116              	.LASF142:
 3117 0431 6B65726E 		.ascii	"kernel_stats_t\000"
 3117      656C5F73 
 3117      74617473 
 3117      5F7400
 3118              	.LASF56:
 3119 0440 63685F74 		.ascii	"ch_thread\000"
 3119      68726561 
 3119      6400
 3120              	.LASF95:
 3121 044a 45584343 		.ascii	"EXCCNT\000"
 3121      4E5400
 3122              	.LASF27:
 3123 0451 6D73675F 		.ascii	"msg_t\000"
 3123      7400
 3124              	.LASF135:
 3125 0457 6C617374 		.ascii	"last\000"
ARM GAS  /var/folders/d2/nstgp4h54kz7g1l847x_b8wc0000gn/T//ccHr493i.s 			page 59


 3125      00
 3126              	.LASF30:
 3127 045c 75636E74 		.ascii	"ucnt_t\000"
 3127      5F7400
 3128              	.LASF85:
 3129 0463 63685F73 		.ascii	"ch_system_t\000"
 3129      79737465 
 3129      6D5F7400 
 3130              	.LASF129:
 3131 046f 74625F62 		.ascii	"tb_buffer\000"
 3131      75666665 
 3131      7200
 3132              	.LASF16:
 3133 0479 75696E74 		.ascii	"uint16_t\000"
 3133      31365F74 
 3133      00
 3134              	.LASF141:
 3135 0482 6D5F6372 		.ascii	"m_crit_isr\000"
 3135      69745F69 
 3135      737200
 3136              	.LASF50:
 3137 048d 705F6D74 		.ascii	"p_mtxlist\000"
 3137      786C6973 
 3137      7400
 3138              	.LASF28:
 3139 0497 6576656E 		.ascii	"eventmask_t\000"
 3139      746D6173 
 3139      6B5F7400 
 3140              	.LASF9:
 3141 04a3 5F5F696E 		.ascii	"__int32_t\000"
 3141      7433325F 
 3141      7400
 3142              	.LASF187:
 3143 04ad 2E2E2F65 		.ascii	"../e-puck2_main-processor/ChibiOS//os/rt/src/chtm.c"
 3143      2D707563 
 3143      6B325F6D 
 3143      61696E2D 
 3143      70726F63 
 3144 04e0 00       		.ascii	"\000"
 3145              	.LASF182:
 3146 04e1 6368544D 		.ascii	"chTMChainMeasurementToX\000"
 3146      43686169 
 3146      6E4D6561 
 3146      73757265 
 3146      6D656E74 
 3147              	.LASF119:
 3148 04f9 73746B61 		.ascii	"stkalign_t\000"
 3148      6C69676E 
 3148      5F7400
 3149              	.LASF55:
 3150 0504 74687265 		.ascii	"threads_list_t\000"
 3150      6164735F 
 3150      6C697374 
 3150      5F7400
 3151              	.LASF160:
 3152 0513 63685F7A 		.ascii	"ch_zero\000"
 3152      65726F00 
ARM GAS  /var/folders/d2/nstgp4h54kz7g1l847x_b8wc0000gn/T//ccHr493i.s 			page 60


 3153              	.LASF174:
 3154 051b 63665F6F 		.ascii	"cf_off_refs\000"
 3154      66665F72 
 3154      65667300 
 3155              	.LASF93:
 3156 0527 43594343 		.ascii	"CYCCNT\000"
 3156      4E5400
 3157              	.LASF46:
 3158 052e 705F7761 		.ascii	"p_waiting\000"
 3158      6974696E 
 3158      6700
 3159              	.LASF20:
 3160 0538 7274636E 		.ascii	"rtcnt_t\000"
 3160      745F7400 
 3161              	.LASF132:
 3162 0540 746D5F63 		.ascii	"tm_calibration_t\000"
 3162      616C6962 
 3162      72617469 
 3162      6F6E5F74 
 3162      00
 3163              	.LASF77:
 3164 0551 63685F76 		.ascii	"ch_virtual_timers_list\000"
 3164      69727475 
 3164      616C5F74 
 3164      696D6572 
 3164      735F6C69 
 3165              	.LASF2:
 3166 0568 6C6F6E67 		.ascii	"long double\000"
 3166      20646F75 
 3166      626C6500 
 3167              	.LASF164:
 3168 0574 63685F74 		.ascii	"ch_timesize\000"
 3168      696D6573 
 3168      697A6500 
 3169              	.LASF128:
 3170 0580 74625F70 		.ascii	"tb_ptr\000"
 3170      747200
 3171              	.LASF126:
 3172 0587 63685F73 		.ascii	"ch_swc_event_t\000"
 3172      77635F65 
 3172      76656E74 
 3172      5F7400
 3173              	.LASF170:
 3174 0596 63665F6F 		.ascii	"cf_off_name\000"
 3174      66665F6E 
 3174      616D6500 
 3175              	.LASF38:
 3176 05a2 705F6F6C 		.ascii	"p_older\000"
 3176      64657200 
 3177              	.LASF64:
 3178 05aa 725F6374 		.ascii	"r_ctx\000"
 3178      7800
 3179              	.LASF36:
 3180 05b0 705F6374 		.ascii	"p_ctx\000"
 3180      7800
 3181              	.LASF104:
 3182 05b6 434F4D50 		.ascii	"COMP1\000"
ARM GAS  /var/folders/d2/nstgp4h54kz7g1l847x_b8wc0000gn/T//ccHr493i.s 			page 61


 3182      3100
 3183              	.LASF108:
 3184 05bc 434F4D50 		.ascii	"COMP2\000"
 3184      3200
 3185              	.LASF112:
 3186 05c2 434F4D50 		.ascii	"COMP3\000"
 3186      3300
 3187              	.LASF40:
 3188 05c8 705F7374 		.ascii	"p_stklimit\000"
 3188      6B6C696D 
 3188      697400
 3189              	.LASF67:
 3190 05d3 725F6375 		.ascii	"r_current\000"
 3190      7272656E 
 3190      7400
 3191              	.LASF66:
 3192 05dd 725F6F6C 		.ascii	"r_older\000"
 3192      64657200 
 3193              	.LASF13:
 3194 05e5 5F5F7569 		.ascii	"__uint64_t\000"
 3194      6E743634 
 3194      5F7400
 3195              	.LASF136:
 3196 05f0 63756D75 		.ascii	"cumulative\000"
 3196      6C617469 
 3196      766500
 3197              	.LASF24:
 3198 05fb 74726566 		.ascii	"trefs_t\000"
 3198      735F7400 
 3199              	.LASF103:
 3200 0603 52455345 		.ascii	"RESERVED0\000"
 3200      52564544 
 3200      3000
 3201              	.LASF163:
 3202 060d 63685F70 		.ascii	"ch_ptrsize\000"
 3202      74727369 
 3202      7A6500
 3203              	.LASF111:
 3204 0618 52455345 		.ascii	"RESERVED2\000"
 3204      52564544 
 3204      3200
 3205              	.LASF69:
 3206 0622 76697274 		.ascii	"virtual_timer_t\000"
 3206      75616C5F 
 3206      74696D65 
 3206      725F7400 
 3207              	.LASF34:
 3208 0632 705F7072 		.ascii	"p_prev\000"
 3208      657600
 3209              	.LASF26:
 3210 0639 74707269 		.ascii	"tprio_t\000"
 3210      6F5F7400 
 3211              	.LASF99:
 3212 0641 50435352 		.ascii	"PCSR\000"
 3212      00
 3213              	.LASF139:
 3214 0646 6E5F6374 		.ascii	"n_ctxswc\000"
ARM GAS  /var/folders/d2/nstgp4h54kz7g1l847x_b8wc0000gn/T//ccHr493i.s 			page 62


 3214      78737763 
 3214      00
 3215              	.LASF105:
 3216 064f 4D41534B 		.ascii	"MASK1\000"
 3216      3100
 3217              	.LASF17:
 3218 0655 696E7433 		.ascii	"int32_t\000"
 3218      325F7400 
 3219              	.LASF4:
 3220 065d 756E7369 		.ascii	"unsigned char\000"
 3220      676E6564 
 3220      20636861 
 3220      7200
 3221              	.LASF116:
 3222 066b 49544D5F 		.ascii	"ITM_RxBuffer\000"
 3222      52784275 
 3222      66666572 
 3222      00
 3223              	.LASF102:
 3224 0678 46554E43 		.ascii	"FUNCTION0\000"
 3224      54494F4E 
 3224      3000
 3225              	.LASF106:
 3226 0682 46554E43 		.ascii	"FUNCTION1\000"
 3226      54494F4E 
 3226      3100
 3227              	.LASF110:
 3228 068c 46554E43 		.ascii	"FUNCTION2\000"
 3228      54494F4E 
 3228      3200
 3229              	.LASF114:
 3230 0696 46554E43 		.ascii	"FUNCTION3\000"
 3230      54494F4E 
 3230      3300
 3231              	.LASF5:
 3232 06a0 73686F72 		.ascii	"short int\000"
 3232      7420696E 
 3232      7400
 3233              	.LASF41:
 3234 06aa 705F7374 		.ascii	"p_state\000"
 3234      61746500 
 3235              	.LASF44:
 3236 06b2 705F7072 		.ascii	"p_preempt\000"
 3236      65656D70 
 3236      7400
 3237              	.LASF176:
 3238 06bc 63665F6F 		.ascii	"cf_off_time\000"
 3238      66665F74 
 3238      696D6500 
 3239              	.LASF63:
 3240 06c8 725F7072 		.ascii	"r_prio\000"
 3240      696F00
 3241              	.LASF149:
 3242 06cf 65776D61 		.ascii	"ewmask\000"
 3242      736B00
 3243              	.LASF33:
 3244 06d6 705F6E65 		.ascii	"p_next\000"
ARM GAS  /var/folders/d2/nstgp4h54kz7g1l847x_b8wc0000gn/T//ccHr493i.s 			page 63


 3244      787400
 3245              	.LASF22:
 3246 06dd 746D6F64 		.ascii	"tmode_t\000"
 3246      655F7400 
 3247              	.LASF175:
 3248 06e5 63665F6F 		.ascii	"cf_off_preempt\000"
 3248      66665F70 
 3248      7265656D 
 3248      707400
 3249              	.LASF42:
 3250 06f4 705F666C 		.ascii	"p_flags\000"
 3250      61677300 
 3251              	.LASF53:
 3252 06fc 705F7374 		.ascii	"p_stats\000"
 3252      61747300 
 3253              	.LASF86:
 3254 0704 63685F73 		.ascii	"ch_system\000"
 3254      79737465 
 3254      6D00
 3255              	.LASF58:
 3256 070e 74687265 		.ascii	"threads_queue_t\000"
 3256      6164735F 
 3256      71756575 
 3256      655F7400 
 3257              	.LASF107:
 3258 071e 52455345 		.ascii	"RESERVED1\000"
 3258      52564544 
 3258      3100
 3259              	.LASF168:
 3260 0728 63665F6F 		.ascii	"cf_off_newer\000"
 3260      66665F6E 
 3260      65776572 
 3260      00
 3261              	.LASF192:
 3262 0735 5F5F7374 		.ascii	"__stack_chk_fail\000"
 3262      61636B5F 
 3262      63686B5F 
 3262      6661696C 
 3262      00
 3263              	.LASF150:
 3264 0746 63685F73 		.ascii	"ch_semaphore\000"
 3264      656D6170 
 3264      686F7265 
 3264      00
 3265              	.LASF49:
 3266 0753 705F6570 		.ascii	"p_epending\000"
 3266      656E6469 
 3266      6E6700
 3267              	.LASF97:
 3268 075e 4C535543 		.ascii	"LSUCNT\000"
 3268      4E5400
 3269              	.LASF18:
 3270 0765 75696E74 		.ascii	"uint32_t\000"
 3270      33325F74 
 3270      00
 3271              	.LASF166:
 3272 076e 63665F6F 		.ascii	"cf_off_prio\000"
ARM GAS  /var/folders/d2/nstgp4h54kz7g1l847x_b8wc0000gn/T//ccHr493i.s 			page 64


 3272      66665F70 
 3272      72696F00 
 3273              	.LASF62:
 3274 077a 725F7175 		.ascii	"r_queue\000"
 3274      65756500 
 3275              	.LASF57:
 3276 0782 63685F74 		.ascii	"ch_threads_list\000"
 3276      68726561 
 3276      64735F6C 
 3276      69737400 
 3277              	.LASF161:
 3278 0792 63685F73 		.ascii	"ch_size\000"
 3278      697A6500 
 3279              	.LASF25:
 3280 079a 74736C69 		.ascii	"tslices_t\000"
 3280      6365735F 
 3280      7400
 3281              	.LASF12:
 3282 07a4 6C6F6E67 		.ascii	"long unsigned int\000"
 3282      20756E73 
 3282      69676E65 
 3282      6420696E 
 3282      7400
 3283              	.LASF158:
 3284 07b6 63686172 		.ascii	"char\000"
 3284      00
 3285              	.LASF148:
 3286 07bb 77746D74 		.ascii	"wtmtxp\000"
 3286      787000
 3287              	.LASF48:
 3288 07c2 705F6D73 		.ascii	"p_msg\000"
 3288      6700
 3289              	.LASF7:
 3290 07c8 5F5F7569 		.ascii	"__uint16_t\000"
 3290      6E743136 
 3290      5F7400
 3291              	.LASF32:
 3292 07d3 74687265 		.ascii	"thread_t\000"
 3292      61645F74 
 3292      00
 3293              	.LASF191:
 3294 07dc 706F7274 		.ascii	"port_rt_get_counter_value\000"
 3294      5F72745F 
 3294      6765745F 
 3294      636F756E 
 3294      7465725F 
 3295              	.LASF156:
 3296 07f6 6D5F6E65 		.ascii	"m_next\000"
 3296      787400
 3297              	.LASF31:
 3298 07fd 73797374 		.ascii	"systime_t\000"
 3298      696D655F 
 3298      7400
 3299              	.LASF51:
 3300 0807 705F7265 		.ascii	"p_realprio\000"
 3300      616C7072 
 3300      696F00
ARM GAS  /var/folders/d2/nstgp4h54kz7g1l847x_b8wc0000gn/T//ccHr493i.s 			page 65


 3301              	.LASF68:
 3302 0812 76746675 		.ascii	"vtfunc_t\000"
 3302      6E635F74 
 3302      00
 3303              	.LASF11:
 3304 081b 5F5F7569 		.ascii	"__uint32_t\000"
 3304      6E743332 
 3304      5F7400
 3305              	.LASF81:
 3306 0826 70616E69 		.ascii	"panic_msg\000"
 3306      635F6D73 
 3306      6700
 3307              	.LASF131:
 3308 0830 6F666673 		.ascii	"offset\000"
 3308      657400
 3309              	.LASF188:
 3310 0837 2F557365 		.ascii	"/Users/bharathkeshavamurthy/Workspaces/Talos/src/ma"
 3310      72732F62 
 3310      68617261 
 3310      74686B65 
 3310      73686176 
 3311 086a 696E2F63 		.ascii	"in/cpp/org/purdue/ece/talos/optimize\000"
 3311      70702F6F 
 3311      72672F70 
 3311      75726475 
 3311      652F6563 
 3312              	.LASF120:
 3313 088f 636F6E74 		.ascii	"context\000"
 3313      65787400 
 3314              	.LASF115:
 3315 0897 4457545F 		.ascii	"DWT_Type\000"
 3315      54797065 
 3315      00
 3316              	.LASF70:
 3317 08a0 63685F76 		.ascii	"ch_virtual_timer\000"
 3317      69727475 
 3317      616C5F74 
 3317      696D6572 
 3317      00
 3318              	.LASF92:
 3319 08b1 4354524C 		.ascii	"CTRL\000"
 3319      00
 3320              	.LASF75:
 3321 08b6 76745F70 		.ascii	"vt_par\000"
 3321      617200
 3322              	.LASF100:
 3323 08bd 434F4D50 		.ascii	"COMP0\000"
 3323      3000
 3324              	.LASF167:
 3325 08c3 63665F6F 		.ascii	"cf_off_ctx\000"
 3325      66665F63 
 3325      747800
 3326              	.LASF153:
 3327 08ce 63685F6D 		.ascii	"ch_mutex\000"
 3327      75746578 
 3327      00
 3328              	.LASF43:
ARM GAS  /var/folders/d2/nstgp4h54kz7g1l847x_b8wc0000gn/T//ccHr493i.s 			page 66


 3329 08d7 705F7265 		.ascii	"p_refs\000"
 3329      667300
 3330              	.LASF82:
 3331 08de 6973725F 		.ascii	"isr_cnt\000"
 3331      636E7400 
 3332              	.LASF125:
 3333 08e6 73655F73 		.ascii	"se_state\000"
 3333      74617465 
 3333      00
 3334              	.LASF87:
 3335 08ef 726C6973 		.ascii	"rlist\000"
 3335      7400
 3336              	.LASF15:
 3337 08f5 75696E74 		.ascii	"uint8_t\000"
 3337      385F7400 
 3338              	.LASF98:
 3339 08fd 464F4C44 		.ascii	"FOLDCNT\000"
 3339      434E5400 
 3340              	.LASF54:
 3341 0905 74687265 		.ascii	"thread_reference_t\000"
 3341      61645F72 
 3341      65666572 
 3341      656E6365 
 3341      5F7400
 3342              	.LASF145:
 3343 0918 77746F62 		.ascii	"wtobjp\000"
 3343      6A7000
 3344              	.LASF39:
 3345 091f 705F6E61 		.ascii	"p_name\000"
 3345      6D6500
 3346              	.LASF78:
 3347 0926 76745F73 		.ascii	"vt_systime\000"
 3347      79737469 
 3347      6D6500
 3348              	.LASF84:
 3349 0931 74726163 		.ascii	"trace_buffer\000"
 3349      655F6275 
 3349      66666572 
 3349      00
 3350              	.LASF162:
 3351 093e 63685F76 		.ascii	"ch_version\000"
 3351      65727369 
 3351      6F6E00
 3352              	.LASF140:
 3353 0949 6D5F6372 		.ascii	"m_crit_thd\000"
 3353      69745F74 
 3353      686400
 3354              	.LASF155:
 3355 0954 6D5F6F77 		.ascii	"m_owner\000"
 3355      6E657200 
 3356              	.LASF124:
 3357 095c 73655F77 		.ascii	"se_wtobjp\000"
 3357      746F626A 
 3357      7000
 3358              	.LASF74:
 3359 0966 76745F66 		.ascii	"vt_func\000"
 3359      756E6300 
ARM GAS  /var/folders/d2/nstgp4h54kz7g1l847x_b8wc0000gn/T//ccHr493i.s 			page 67


 3360              	.LASF185:
 3361 096e 5F746D5F 		.ascii	"_tm_init\000"
 3361      696E6974 
 3361      00
 3362              		.ident	"GCC: (GNU Tools for Arm Embedded Processors 7-2017-q4-major) 7.2.1 20170904 (release) [ARM
ARM GAS  /var/folders/d2/nstgp4h54kz7g1l847x_b8wc0000gn/T//ccHr493i.s 			page 68


DEFINED SYMBOLS
                            *ABS*:0000000000000000 chtm.c
/var/folders/d2/nstgp4h54kz7g1l847x_b8wc0000gn/T//ccHr493i.s:18     .text.chTMObjectInit:0000000000000000 $t
/var/folders/d2/nstgp4h54kz7g1l847x_b8wc0000gn/T//ccHr493i.s:26     .text.chTMObjectInit:0000000000000000 chTMObjectInit
/var/folders/d2/nstgp4h54kz7g1l847x_b8wc0000gn/T//ccHr493i.s:79     .text.chTMObjectInit:0000000000000030 $d
/var/folders/d2/nstgp4h54kz7g1l847x_b8wc0000gn/T//ccHr493i.s:84     .text.chTMStartMeasurementX:0000000000000000 $t
/var/folders/d2/nstgp4h54kz7g1l847x_b8wc0000gn/T//ccHr493i.s:92     .text.chTMStartMeasurementX:0000000000000000 chTMStartMeasurementX
/var/folders/d2/nstgp4h54kz7g1l847x_b8wc0000gn/T//ccHr493i.s:142    .text.chTMStartMeasurementX:0000000000000024 $d
/var/folders/d2/nstgp4h54kz7g1l847x_b8wc0000gn/T//ccHr493i.s:148    .text.chTMStopMeasurementX:0000000000000000 $t
/var/folders/d2/nstgp4h54kz7g1l847x_b8wc0000gn/T//ccHr493i.s:156    .text.chTMStopMeasurementX:0000000000000000 chTMStopMeasurementX
/var/folders/d2/nstgp4h54kz7g1l847x_b8wc0000gn/T//ccHr493i.s:267    .text.chTMStopMeasurementX:0000000000000054 $d
/var/folders/d2/nstgp4h54kz7g1l847x_b8wc0000gn/T//ccHr493i.s:274    .text._tm_init:0000000000000000 $t
/var/folders/d2/nstgp4h54kz7g1l847x_b8wc0000gn/T//ccHr493i.s:282    .text._tm_init:0000000000000000 _tm_init
/var/folders/d2/nstgp4h54kz7g1l847x_b8wc0000gn/T//ccHr493i.s:363    .text._tm_init:0000000000000048 $d
/var/folders/d2/nstgp4h54kz7g1l847x_b8wc0000gn/T//ccHr493i.s:369    .text.chTMChainMeasurementToX:0000000000000000 $t
/var/folders/d2/nstgp4h54kz7g1l847x_b8wc0000gn/T//ccHr493i.s:377    .text.chTMChainMeasurementToX:0000000000000000 chTMChainMeasurementToX
/var/folders/d2/nstgp4h54kz7g1l847x_b8wc0000gn/T//ccHr493i.s:477    .text.chTMChainMeasurementToX:0000000000000054 $d

UNDEFINED SYMBOLS
__stack_chk_fail
__stack_chk_guard
ch
