ARM GAS  /var/folders/d2/nstgp4h54kz7g1l847x_b8wc0000gn/T//ccTOMPAK.s 			page 1


   1              		.cpu cortex-m4
   2              		.eabi_attribute 27, 1
   3              		.eabi_attribute 28, 1
   4              		.eabi_attribute 20, 1
   5              		.eabi_attribute 21, 1
   6              		.eabi_attribute 23, 3
   7              		.eabi_attribute 24, 1
   8              		.eabi_attribute 25, 1
   9              		.eabi_attribute 26, 1
  10              		.eabi_attribute 30, 6
  11              		.eabi_attribute 34, 1
  12              		.eabi_attribute 18, 4
  13              		.file	"chtm.c"
  14              		.section	.text.port_rt_get_counter_value,"ax",%progbits
  15              		.align	1
  16              		.syntax unified
  17              		.thumb
  18              		.thumb_func
  19              		.fpu fpv4-sp-d16
  20              		.type	port_rt_get_counter_value, %function
  21              	port_rt_get_counter_value:
  22              		@ args = 0, pretend = 0, frame = 0
  23              		@ frame_needed = 1, uses_anonymous_args = 0
  24              		@ link register save eliminated.
  25 0000 80B4     		push	{r7}
  26 0002 00AF     		add	r7, sp, #0
  27 0004 034B     		ldr	r3, .L3
  28 0006 5B68     		ldr	r3, [r3, #4]
  29 0008 1846     		mov	r0, r3
  30 000a BD46     		mov	sp, r7
  31              		@ sp needed
  32 000c 5DF8047B 		ldr	r7, [sp], #4
  33 0010 7047     		bx	lr
  34              	.L4:
  35 0012 00BF     		.align	2
  36              	.L3:
  37 0014 001000E0 		.word	-536866816
  38              		.size	port_rt_get_counter_value, .-port_rt_get_counter_value
  39              		.section	.text.tm_stop,"ax",%progbits
  40              		.align	1
  41              		.syntax unified
  42              		.thumb
  43              		.thumb_func
  44              		.fpu fpv4-sp-d16
  45              		.type	tm_stop, %function
  46              	tm_stop:
  47              		@ args = 0, pretend = 0, frame = 16
  48              		@ frame_needed = 1, uses_anonymous_args = 0
  49              		@ link register save eliminated.
  50 0000 2DE99008 		push	{r4, r7, fp}
  51 0004 85B0     		sub	sp, sp, #20
  52 0006 00AF     		add	r7, sp, #0
  53 0008 F860     		str	r0, [r7, #12]
  54 000a B960     		str	r1, [r7, #8]
  55 000c 7A60     		str	r2, [r7, #4]
  56 000e FB68     		ldr	r3, [r7, #12]
  57 0010 DB68     		ldr	r3, [r3, #12]
ARM GAS  /var/folders/d2/nstgp4h54kz7g1l847x_b8wc0000gn/T//ccTOMPAK.s 			page 2


  58 0012 5A1C     		adds	r2, r3, #1
  59 0014 FB68     		ldr	r3, [r7, #12]
  60 0016 DA60     		str	r2, [r3, #12]
  61 0018 FB68     		ldr	r3, [r7, #12]
  62 001a 9B68     		ldr	r3, [r3, #8]
  63 001c BA68     		ldr	r2, [r7, #8]
  64 001e D21A     		subs	r2, r2, r3
  65 0020 7B68     		ldr	r3, [r7, #4]
  66 0022 D21A     		subs	r2, r2, r3
  67 0024 FB68     		ldr	r3, [r7, #12]
  68 0026 9A60     		str	r2, [r3, #8]
  69 0028 FB68     		ldr	r3, [r7, #12]
  70 002a D3E90412 		ldrd	r1, [r3, #16]
  71 002e FB68     		ldr	r3, [r7, #12]
  72 0030 9B68     		ldr	r3, [r3, #8]
  73 0032 9B46     		mov	fp, r3
  74 0034 4FF0000C 		mov	ip, #0
  75 0038 1BEB0103 		adds	r3, fp, r1
  76 003c 4CEB0204 		adc	r4, ip, r2
  77 0040 FA68     		ldr	r2, [r7, #12]
  78 0042 C2E90434 		strd	r3, [r2, #16]
  79 0046 FB68     		ldr	r3, [r7, #12]
  80 0048 9A68     		ldr	r2, [r3, #8]
  81 004a FB68     		ldr	r3, [r7, #12]
  82 004c 5B68     		ldr	r3, [r3, #4]
  83 004e 9A42     		cmp	r2, r3
  84 0050 04D9     		bls	.L6
  85 0052 FB68     		ldr	r3, [r7, #12]
  86 0054 9A68     		ldr	r2, [r3, #8]
  87 0056 FB68     		ldr	r3, [r7, #12]
  88 0058 5A60     		str	r2, [r3, #4]
  89 005a 09E0     		b	.L8
  90              	.L6:
  91 005c FB68     		ldr	r3, [r7, #12]
  92 005e 9A68     		ldr	r2, [r3, #8]
  93 0060 FB68     		ldr	r3, [r7, #12]
  94 0062 1B68     		ldr	r3, [r3]
  95 0064 9A42     		cmp	r2, r3
  96 0066 03D2     		bcs	.L8
  97 0068 FB68     		ldr	r3, [r7, #12]
  98 006a 9A68     		ldr	r2, [r3, #8]
  99 006c FB68     		ldr	r3, [r7, #12]
 100 006e 1A60     		str	r2, [r3]
 101              	.L8:
 102 0070 00BF     		nop
 103 0072 1437     		adds	r7, r7, #20
 104 0074 BD46     		mov	sp, r7
 105              		@ sp needed
 106 0076 BDE89008 		pop	{r4, r7, fp}
 107 007a 7047     		bx	lr
 108              		.size	tm_stop, .-tm_stop
 109              		.section	.text._tm_init,"ax",%progbits
 110              		.align	1
 111              		.global	_tm_init
 112              		.syntax unified
 113              		.thumb
 114              		.thumb_func
ARM GAS  /var/folders/d2/nstgp4h54kz7g1l847x_b8wc0000gn/T//ccTOMPAK.s 			page 3


 115              		.fpu fpv4-sp-d16
 116              		.type	_tm_init, %function
 117              	_tm_init:
 118              		@ args = 0, pretend = 0, frame = 24
 119              		@ frame_needed = 1, uses_anonymous_args = 0
 120 0000 80B5     		push	{r7, lr}
 121 0002 86B0     		sub	sp, sp, #24
 122 0004 00AF     		add	r7, sp, #0
 123 0006 0C4B     		ldr	r3, .L10
 124 0008 0022     		movs	r2, #0
 125 000a C3F8A824 		str	r2, [r3, #1192]
 126 000e 3B46     		mov	r3, r7
 127 0010 1846     		mov	r0, r3
 128 0012 FFF7FEFF 		bl	chTMObjectInit
 129 0016 3B46     		mov	r3, r7
 130 0018 1846     		mov	r0, r3
 131 001a FFF7FEFF 		bl	chTMStartMeasurementX
 132 001e 3B46     		mov	r3, r7
 133 0020 1846     		mov	r0, r3
 134 0022 FFF7FEFF 		bl	chTMStopMeasurementX
 135 0026 BB68     		ldr	r3, [r7, #8]
 136 0028 034A     		ldr	r2, .L10
 137 002a C2F8A834 		str	r3, [r2, #1192]
 138 002e 00BF     		nop
 139 0030 1837     		adds	r7, r7, #24
 140 0032 BD46     		mov	sp, r7
 141              		@ sp needed
 142 0034 80BD     		pop	{r7, pc}
 143              	.L11:
 144 0036 00BF     		.align	2
 145              	.L10:
 146 0038 00000000 		.word	ch
 147              		.size	_tm_init, .-_tm_init
 148              		.section	.text.chTMObjectInit,"ax",%progbits
 149              		.align	1
 150              		.global	chTMObjectInit
 151              		.syntax unified
 152              		.thumb
 153              		.thumb_func
 154              		.fpu fpv4-sp-d16
 155              		.type	chTMObjectInit, %function
 156              	chTMObjectInit:
 157              		@ args = 0, pretend = 0, frame = 8
 158              		@ frame_needed = 1, uses_anonymous_args = 0
 159              		@ link register save eliminated.
 160 0000 90B4     		push	{r4, r7}
 161 0002 82B0     		sub	sp, sp, #8
 162 0004 00AF     		add	r7, sp, #0
 163 0006 7860     		str	r0, [r7, #4]
 164 0008 7B68     		ldr	r3, [r7, #4]
 165 000a 4FF0FF32 		mov	r2, #-1
 166 000e 1A60     		str	r2, [r3]
 167 0010 7B68     		ldr	r3, [r7, #4]
 168 0012 0022     		movs	r2, #0
 169 0014 5A60     		str	r2, [r3, #4]
 170 0016 7B68     		ldr	r3, [r7, #4]
 171 0018 0022     		movs	r2, #0
ARM GAS  /var/folders/d2/nstgp4h54kz7g1l847x_b8wc0000gn/T//ccTOMPAK.s 			page 4


 172 001a 9A60     		str	r2, [r3, #8]
 173 001c 7B68     		ldr	r3, [r7, #4]
 174 001e 0022     		movs	r2, #0
 175 0020 DA60     		str	r2, [r3, #12]
 176 0022 7A68     		ldr	r2, [r7, #4]
 177 0024 4FF00003 		mov	r3, #0
 178 0028 4FF00004 		mov	r4, #0
 179 002c C2E90434 		strd	r3, [r2, #16]
 180 0030 00BF     		nop
 181 0032 0837     		adds	r7, r7, #8
 182 0034 BD46     		mov	sp, r7
 183              		@ sp needed
 184 0036 90BC     		pop	{r4, r7}
 185 0038 7047     		bx	lr
 186              		.size	chTMObjectInit, .-chTMObjectInit
 187              		.section	.text.chTMStartMeasurementX,"ax",%progbits
 188              		.align	1
 189              		.global	chTMStartMeasurementX
 190              		.syntax unified
 191              		.thumb
 192              		.thumb_func
 193              		.fpu fpv4-sp-d16
 194              		.type	chTMStartMeasurementX, %function
 195              	chTMStartMeasurementX:
 196              		@ args = 0, pretend = 0, frame = 8
 197              		@ frame_needed = 1, uses_anonymous_args = 0
 198 0000 80B5     		push	{r7, lr}
 199 0002 82B0     		sub	sp, sp, #8
 200 0004 00AF     		add	r7, sp, #0
 201 0006 7860     		str	r0, [r7, #4]
 202 0008 FFF7FEFF 		bl	port_rt_get_counter_value
 203 000c 0246     		mov	r2, r0
 204 000e 7B68     		ldr	r3, [r7, #4]
 205 0010 9A60     		str	r2, [r3, #8]
 206 0012 00BF     		nop
 207 0014 0837     		adds	r7, r7, #8
 208 0016 BD46     		mov	sp, r7
 209              		@ sp needed
 210 0018 80BD     		pop	{r7, pc}
 211              		.size	chTMStartMeasurementX, .-chTMStartMeasurementX
 212              		.section	.text.chTMStopMeasurementX,"ax",%progbits
 213              		.align	1
 214              		.global	chTMStopMeasurementX
 215              		.syntax unified
 216              		.thumb
 217              		.thumb_func
 218              		.fpu fpv4-sp-d16
 219              		.type	chTMStopMeasurementX, %function
 220              	chTMStopMeasurementX:
 221              		@ args = 0, pretend = 0, frame = 8
 222              		@ frame_needed = 1, uses_anonymous_args = 0
 223 0000 80B5     		push	{r7, lr}
 224 0002 82B0     		sub	sp, sp, #8
 225 0004 00AF     		add	r7, sp, #0
 226 0006 7860     		str	r0, [r7, #4]
 227 0008 FFF7FEFF 		bl	port_rt_get_counter_value
 228 000c 0146     		mov	r1, r0
ARM GAS  /var/folders/d2/nstgp4h54kz7g1l847x_b8wc0000gn/T//ccTOMPAK.s 			page 5


 229 000e 054B     		ldr	r3, .L15
 230 0010 D3F8A834 		ldr	r3, [r3, #1192]
 231 0014 1A46     		mov	r2, r3
 232 0016 7868     		ldr	r0, [r7, #4]
 233 0018 FFF7FEFF 		bl	tm_stop
 234 001c 00BF     		nop
 235 001e 0837     		adds	r7, r7, #8
 236 0020 BD46     		mov	sp, r7
 237              		@ sp needed
 238 0022 80BD     		pop	{r7, pc}
 239              	.L16:
 240              		.align	2
 241              	.L15:
 242 0024 00000000 		.word	ch
 243              		.size	chTMStopMeasurementX, .-chTMStopMeasurementX
 244              		.section	.text.chTMChainMeasurementToX,"ax",%progbits
 245              		.align	1
 246              		.global	chTMChainMeasurementToX
 247              		.syntax unified
 248              		.thumb
 249              		.thumb_func
 250              		.fpu fpv4-sp-d16
 251              		.type	chTMChainMeasurementToX, %function
 252              	chTMChainMeasurementToX:
 253              		@ args = 0, pretend = 0, frame = 8
 254              		@ frame_needed = 1, uses_anonymous_args = 0
 255 0000 80B5     		push	{r7, lr}
 256 0002 82B0     		sub	sp, sp, #8
 257 0004 00AF     		add	r7, sp, #0
 258 0006 7860     		str	r0, [r7, #4]
 259 0008 3960     		str	r1, [r7]
 260 000a FFF7FEFF 		bl	port_rt_get_counter_value
 261 000e 0246     		mov	r2, r0
 262 0010 3B68     		ldr	r3, [r7]
 263 0012 9A60     		str	r2, [r3, #8]
 264 0014 3B68     		ldr	r3, [r7]
 265 0016 9B68     		ldr	r3, [r3, #8]
 266 0018 0022     		movs	r2, #0
 267 001a 1946     		mov	r1, r3
 268 001c 7868     		ldr	r0, [r7, #4]
 269 001e FFF7FEFF 		bl	tm_stop
 270 0022 00BF     		nop
 271 0024 0837     		adds	r7, r7, #8
 272 0026 BD46     		mov	sp, r7
 273              		@ sp needed
 274 0028 80BD     		pop	{r7, pc}
 275              		.size	chTMChainMeasurementToX, .-chTMChainMeasurementToX
 276              		.ident	"GCC: (GNU Tools for Arm Embedded Processors 7-2017-q4-major) 7.2.1 20170904 (release) [ARM
ARM GAS  /var/folders/d2/nstgp4h54kz7g1l847x_b8wc0000gn/T//ccTOMPAK.s 			page 6

