ARM GAS  /var/folders/d2/nstgp4h54kz7g1l847x_b8wc0000gn/T//cc2RLY3J.s 			page 1


   1              		.cpu cortex-m4
   2              		.eabi_attribute 27, 1
   3              		.eabi_attribute 28, 1
   4              		.eabi_attribute 20, 1
   5              		.eabi_attribute 21, 1
   6              		.eabi_attribute 23, 3
   7              		.eabi_attribute 24, 1
   8              		.eabi_attribute 25, 1
   9              		.eabi_attribute 26, 1
  10              		.eabi_attribute 30, 6
  11              		.eabi_attribute 34, 1
  12              		.eabi_attribute 18, 4
  13              		.file	"chvt.c"
  14              		.section	.text._vt_init,"ax",%progbits
  15              		.align	1
  16              		.global	_vt_init
  17              		.syntax unified
  18              		.thumb
  19              		.thumb_func
  20              		.fpu fpv4-sp-d16
  21              		.type	_vt_init, %function
  22              	_vt_init:
  23              		@ args = 0, pretend = 0, frame = 0
  24              		@ frame_needed = 1, uses_anonymous_args = 0
  25              		@ link register save eliminated.
  26 0000 80B4     		push	{r7}
  27 0002 00AF     		add	r7, sp, #0
  28 0004 084B     		ldr	r3, .L2
  29 0006 094A     		ldr	r2, .L2+4
  30 0008 DA61     		str	r2, [r3, #28]
  31 000a 074B     		ldr	r3, .L2
  32 000c 074A     		ldr	r2, .L2+4
  33 000e 1A62     		str	r2, [r3, #32]
  34 0010 054B     		ldr	r3, .L2
  35 0012 4FF0FF32 		mov	r2, #-1
  36 0016 5A62     		str	r2, [r3, #36]
  37 0018 034B     		ldr	r3, .L2
  38 001a 0022     		movs	r2, #0
  39 001c 9A62     		str	r2, [r3, #40]
  40 001e 00BF     		nop
  41 0020 BD46     		mov	sp, r7
  42              		@ sp needed
  43 0022 5DF8047B 		ldr	r7, [sp], #4
  44 0026 7047     		bx	lr
  45              	.L3:
  46              		.align	2
  47              	.L2:
  48 0028 00000000 		.word	ch
  49 002c 1C000000 		.word	ch+28
  50              		.size	_vt_init, .-_vt_init
  51              		.section	.text.chVTDoSetI,"ax",%progbits
  52              		.align	1
  53              		.global	chVTDoSetI
  54              		.syntax unified
  55              		.thumb
  56              		.thumb_func
  57              		.fpu fpv4-sp-d16
ARM GAS  /var/folders/d2/nstgp4h54kz7g1l847x_b8wc0000gn/T//cc2RLY3J.s 			page 2


  58              		.type	chVTDoSetI, %function
  59              	chVTDoSetI:
  60              		@ args = 0, pretend = 0, frame = 24
  61              		@ frame_needed = 1, uses_anonymous_args = 0
  62 0000 80B5     		push	{r7, lr}
  63 0002 86B0     		sub	sp, sp, #24
  64 0004 00AF     		add	r7, sp, #0
  65 0006 F860     		str	r0, [r7, #12]
  66 0008 B960     		str	r1, [r7, #8]
  67 000a 7A60     		str	r2, [r7, #4]
  68 000c 3B60     		str	r3, [r7]
  69 000e FFF7FEFF 		bl	chDbgCheckClassI
  70 0012 FB68     		ldr	r3, [r7, #12]
  71 0014 002B     		cmp	r3, #0
  72 0016 05D0     		beq	.L5
  73 0018 7B68     		ldr	r3, [r7, #4]
  74 001a 002B     		cmp	r3, #0
  75 001c 02D0     		beq	.L5
  76 001e BB68     		ldr	r3, [r7, #8]
  77 0020 002B     		cmp	r3, #0
  78 0022 02D1     		bne	.L6
  79              	.L5:
  80 0024 1D48     		ldr	r0, .L9
  81 0026 FFF7FEFF 		bl	chSysHalt
  82              	.L6:
  83 002a FB68     		ldr	r3, [r7, #12]
  84 002c 3A68     		ldr	r2, [r7]
  85 002e 1A61     		str	r2, [r3, #16]
  86 0030 FB68     		ldr	r3, [r7, #12]
  87 0032 7A68     		ldr	r2, [r7, #4]
  88 0034 DA60     		str	r2, [r3, #12]
  89 0036 BB68     		ldr	r3, [r7, #8]
  90 0038 3B61     		str	r3, [r7, #16]
  91 003a 194B     		ldr	r3, .L9+4
  92 003c DB69     		ldr	r3, [r3, #28]
  93 003e 7B61     		str	r3, [r7, #20]
  94 0040 07E0     		b	.L7
  95              	.L8:
  96 0042 7B69     		ldr	r3, [r7, #20]
  97 0044 9B68     		ldr	r3, [r3, #8]
  98 0046 3A69     		ldr	r2, [r7, #16]
  99 0048 D31A     		subs	r3, r2, r3
 100 004a 3B61     		str	r3, [r7, #16]
 101 004c 7B69     		ldr	r3, [r7, #20]
 102 004e 1B68     		ldr	r3, [r3]
 103 0050 7B61     		str	r3, [r7, #20]
 104              	.L7:
 105 0052 7B69     		ldr	r3, [r7, #20]
 106 0054 9B68     		ldr	r3, [r3, #8]
 107 0056 3A69     		ldr	r2, [r7, #16]
 108 0058 9A42     		cmp	r2, r3
 109 005a F2D8     		bhi	.L8
 110 005c FB68     		ldr	r3, [r7, #12]
 111 005e 7A69     		ldr	r2, [r7, #20]
 112 0060 1A60     		str	r2, [r3]
 113 0062 FB68     		ldr	r3, [r7, #12]
 114 0064 1B68     		ldr	r3, [r3]
ARM GAS  /var/folders/d2/nstgp4h54kz7g1l847x_b8wc0000gn/T//cc2RLY3J.s 			page 3


 115 0066 5A68     		ldr	r2, [r3, #4]
 116 0068 FB68     		ldr	r3, [r7, #12]
 117 006a 5A60     		str	r2, [r3, #4]
 118 006c FB68     		ldr	r3, [r7, #12]
 119 006e 5B68     		ldr	r3, [r3, #4]
 120 0070 FA68     		ldr	r2, [r7, #12]
 121 0072 1A60     		str	r2, [r3]
 122 0074 7B69     		ldr	r3, [r7, #20]
 123 0076 FA68     		ldr	r2, [r7, #12]
 124 0078 5A60     		str	r2, [r3, #4]
 125 007a FB68     		ldr	r3, [r7, #12]
 126 007c 3A69     		ldr	r2, [r7, #16]
 127 007e 9A60     		str	r2, [r3, #8]
 128 0080 7B69     		ldr	r3, [r7, #20]
 129 0082 9A68     		ldr	r2, [r3, #8]
 130 0084 3B69     		ldr	r3, [r7, #16]
 131 0086 D21A     		subs	r2, r2, r3
 132 0088 7B69     		ldr	r3, [r7, #20]
 133 008a 9A60     		str	r2, [r3, #8]
 134 008c 044B     		ldr	r3, .L9+4
 135 008e 4FF0FF32 		mov	r2, #-1
 136 0092 5A62     		str	r2, [r3, #36]
 137 0094 00BF     		nop
 138 0096 1837     		adds	r7, r7, #24
 139 0098 BD46     		mov	sp, r7
 140              		@ sp needed
 141 009a 80BD     		pop	{r7, pc}
 142              	.L10:
 143              		.align	2
 144              	.L9:
 145 009c 00000000 		.word	__func__.7857
 146 00a0 00000000 		.word	ch
 147              		.size	chVTDoSetI, .-chVTDoSetI
 148              		.section	.text.chVTDoResetI,"ax",%progbits
 149              		.align	1
 150              		.global	chVTDoResetI
 151              		.syntax unified
 152              		.thumb
 153              		.thumb_func
 154              		.fpu fpv4-sp-d16
 155              		.type	chVTDoResetI, %function
 156              	chVTDoResetI:
 157              		@ args = 0, pretend = 0, frame = 8
 158              		@ frame_needed = 1, uses_anonymous_args = 0
 159 0000 80B5     		push	{r7, lr}
 160 0002 82B0     		sub	sp, sp, #8
 161 0004 00AF     		add	r7, sp, #0
 162 0006 7860     		str	r0, [r7, #4]
 163 0008 FFF7FEFF 		bl	chDbgCheckClassI
 164 000c 7B68     		ldr	r3, [r7, #4]
 165 000e 002B     		cmp	r3, #0
 166 0010 02D1     		bne	.L14
 167 0012 1448     		ldr	r0, .L15
 168 0014 FFF7FEFF 		bl	chSysHalt
 169              	.L14:
 170 0018 7B68     		ldr	r3, [r7, #4]
 171 001a DB68     		ldr	r3, [r3, #12]
ARM GAS  /var/folders/d2/nstgp4h54kz7g1l847x_b8wc0000gn/T//cc2RLY3J.s 			page 4


 172 001c 002B     		cmp	r3, #0
 173 001e 02D1     		bne	.L13
 174 0020 1048     		ldr	r0, .L15
 175 0022 FFF7FEFF 		bl	chSysHalt
 176              	.L13:
 177 0026 7B68     		ldr	r3, [r7, #4]
 178 0028 1B68     		ldr	r3, [r3]
 179 002a 9968     		ldr	r1, [r3, #8]
 180 002c 7B68     		ldr	r3, [r7, #4]
 181 002e 9A68     		ldr	r2, [r3, #8]
 182 0030 7B68     		ldr	r3, [r7, #4]
 183 0032 1B68     		ldr	r3, [r3]
 184 0034 0A44     		add	r2, r2, r1
 185 0036 9A60     		str	r2, [r3, #8]
 186 0038 7B68     		ldr	r3, [r7, #4]
 187 003a 5B68     		ldr	r3, [r3, #4]
 188 003c 7A68     		ldr	r2, [r7, #4]
 189 003e 1268     		ldr	r2, [r2]
 190 0040 1A60     		str	r2, [r3]
 191 0042 7B68     		ldr	r3, [r7, #4]
 192 0044 1B68     		ldr	r3, [r3]
 193 0046 7A68     		ldr	r2, [r7, #4]
 194 0048 5268     		ldr	r2, [r2, #4]
 195 004a 5A60     		str	r2, [r3, #4]
 196 004c 7B68     		ldr	r3, [r7, #4]
 197 004e 0022     		movs	r2, #0
 198 0050 DA60     		str	r2, [r3, #12]
 199 0052 054B     		ldr	r3, .L15+4
 200 0054 4FF0FF32 		mov	r2, #-1
 201 0058 5A62     		str	r2, [r3, #36]
 202 005a 00BF     		nop
 203 005c 0837     		adds	r7, r7, #8
 204 005e BD46     		mov	sp, r7
 205              		@ sp needed
 206 0060 80BD     		pop	{r7, pc}
 207              	.L16:
 208 0062 00BF     		.align	2
 209              	.L15:
 210 0064 00000000 		.word	__func__.7864
 211 0068 00000000 		.word	ch
 212              		.size	chVTDoResetI, .-chVTDoResetI
 213              		.section	.rodata.__func__.7857,"a",%progbits
 214              		.align	2
 215              		.type	__func__.7857, %object
 216              		.size	__func__.7857, 11
 217              	__func__.7857:
 218 0000 63685654 		.ascii	"chVTDoSetI\000"
 218      446F5365 
 218      744900
 219              		.section	.rodata.__func__.7864,"a",%progbits
 220              		.align	2
 221              		.type	__func__.7864, %object
 222              		.size	__func__.7864, 13
 223              	__func__.7864:
 224 0000 63685654 		.ascii	"chVTDoResetI\000"
 224      446F5265 
 224      73657449 
ARM GAS  /var/folders/d2/nstgp4h54kz7g1l847x_b8wc0000gn/T//cc2RLY3J.s 			page 5


 224      00
 225              		.ident	"GCC: (GNU Tools for Arm Embedded Processors 7-2017-q4-major) 7.2.1 20170904 (release) [ARM
ARM GAS  /var/folders/d2/nstgp4h54kz7g1l847x_b8wc0000gn/T//cc2RLY3J.s 			page 6

