ARM GAS  /var/folders/d2/nstgp4h54kz7g1l847x_b8wc0000gn/T//cc3fOn4s.s 			page 1


   1              		.cpu cortex-m4
   2              		.eabi_attribute 27, 1
   3              		.eabi_attribute 28, 1
   4              		.eabi_attribute 20, 1
   5              		.eabi_attribute 21, 1
   6              		.eabi_attribute 23, 3
   7              		.eabi_attribute 24, 1
   8              		.eabi_attribute 25, 1
   9              		.eabi_attribute 26, 1
  10              		.eabi_attribute 30, 6
  11              		.eabi_attribute 34, 1
  12              		.eabi_attribute 18, 4
  13              		.file	"cmd.c"
  14              		.section	.text.port_lock,"ax",%progbits
  15              		.align	1
  16              		.syntax unified
  17              		.thumb
  18              		.thumb_func
  19              		.fpu fpv4-sp-d16
  20              		.type	port_lock, %function
  21              	port_lock:
  22              		@ args = 0, pretend = 0, frame = 8
  23              		@ frame_needed = 1, uses_anonymous_args = 0
  24              		@ link register save eliminated.
  25 0000 80B4     		push	{r7}
  26 0002 83B0     		sub	sp, sp, #12
  27 0004 00AF     		add	r7, sp, #0
  28 0006 2023     		movs	r3, #32
  29 0008 7B60     		str	r3, [r7, #4]
  30 000a 7B68     		ldr	r3, [r7, #4]
  31              		.syntax unified
  32              	@ 546 "../e-puck2_main-processor/ChibiOS//os/ext/CMSIS/include/core_cmFunc.h" 1
  33 000c 83F31188 		MSR basepri, r3
  34              	@ 0 "" 2
  35              		.thumb
  36              		.syntax unified
  37 0010 00BF     		nop
  38 0012 0C37     		adds	r7, r7, #12
  39 0014 BD46     		mov	sp, r7
  40              		@ sp needed
  41 0016 5DF8047B 		ldr	r7, [sp], #4
  42 001a 7047     		bx	lr
  43              		.size	port_lock, .-port_lock
  44              		.section	.text.port_unlock,"ax",%progbits
  45              		.align	1
  46              		.syntax unified
  47              		.thumb
  48              		.thumb_func
  49              		.fpu fpv4-sp-d16
  50              		.type	port_unlock, %function
  51              	port_unlock:
  52              		@ args = 0, pretend = 0, frame = 8
  53              		@ frame_needed = 1, uses_anonymous_args = 0
  54              		@ link register save eliminated.
  55 0000 80B4     		push	{r7}
  56 0002 83B0     		sub	sp, sp, #12
  57 0004 00AF     		add	r7, sp, #0
ARM GAS  /var/folders/d2/nstgp4h54kz7g1l847x_b8wc0000gn/T//cc3fOn4s.s 			page 2


  58 0006 0023     		movs	r3, #0
  59 0008 7B60     		str	r3, [r7, #4]
  60 000a 7B68     		ldr	r3, [r7, #4]
  61              		.syntax unified
  62              	@ 546 "../e-puck2_main-processor/ChibiOS//os/ext/CMSIS/include/core_cmFunc.h" 1
  63 000c 83F31188 		MSR basepri, r3
  64              	@ 0 "" 2
  65              		.thumb
  66              		.syntax unified
  67 0010 00BF     		nop
  68 0012 0C37     		adds	r7, r7, #12
  69 0014 BD46     		mov	sp, r7
  70              		@ sp needed
  71 0016 5DF8047B 		ldr	r7, [sp], #4
  72 001a 7047     		bx	lr
  73              		.size	port_unlock, .-port_unlock
  74              		.section	.text.chSysLock,"ax",%progbits
  75              		.align	1
  76              		.syntax unified
  77              		.thumb
  78              		.thumb_func
  79              		.fpu fpv4-sp-d16
  80              		.type	chSysLock, %function
  81              	chSysLock:
  82              		@ args = 0, pretend = 0, frame = 0
  83              		@ frame_needed = 1, uses_anonymous_args = 0
  84 0000 80B5     		push	{r7, lr}
  85 0002 00AF     		add	r7, sp, #0
  86 0004 FFF7FEFF 		bl	port_lock
  87 0008 FFF7FEFF 		bl	_stats_start_measure_crit_thd
  88 000c FFF7FEFF 		bl	_dbg_check_lock
  89 0010 00BF     		nop
  90 0012 80BD     		pop	{r7, pc}
  91              		.size	chSysLock, .-chSysLock
  92              		.section	.text.chSysUnlock,"ax",%progbits
  93              		.align	1
  94              		.syntax unified
  95              		.thumb
  96              		.thumb_func
  97              		.fpu fpv4-sp-d16
  98              		.type	chSysUnlock, %function
  99              	chSysUnlock:
 100              		@ args = 0, pretend = 0, frame = 0
 101              		@ frame_needed = 1, uses_anonymous_args = 0
 102 0000 80B5     		push	{r7, lr}
 103 0002 00AF     		add	r7, sp, #0
 104 0004 FFF7FEFF 		bl	_dbg_check_unlock
 105 0008 FFF7FEFF 		bl	_stats_stop_measure_crit_thd
 106 000c 094B     		ldr	r3, .L6
 107 000e 1B68     		ldr	r3, [r3]
 108 0010 084A     		ldr	r2, .L6
 109 0012 9342     		cmp	r3, r2
 110 0014 0AD0     		beq	.L5
 111 0016 074B     		ldr	r3, .L6
 112 0018 9B69     		ldr	r3, [r3, #24]
 113 001a 9A68     		ldr	r2, [r3, #8]
 114 001c 054B     		ldr	r3, .L6
ARM GAS  /var/folders/d2/nstgp4h54kz7g1l847x_b8wc0000gn/T//cc3fOn4s.s 			page 3


 115 001e 1B68     		ldr	r3, [r3]
 116 0020 9B68     		ldr	r3, [r3, #8]
 117 0022 9A42     		cmp	r2, r3
 118 0024 02D2     		bcs	.L5
 119 0026 0448     		ldr	r0, .L6+4
 120 0028 FFF7FEFF 		bl	chSysHalt
 121              	.L5:
 122 002c FFF7FEFF 		bl	port_unlock
 123 0030 00BF     		nop
 124 0032 80BD     		pop	{r7, pc}
 125              	.L7:
 126              		.align	2
 127              	.L6:
 128 0034 00000000 		.word	ch
 129 0038 00000000 		.word	__func__.8875
 130              		.size	chSysUnlock, .-chSysUnlock
 131              		.section	.text.chVTGetSystemTimeX,"ax",%progbits
 132              		.align	1
 133              		.syntax unified
 134              		.thumb
 135              		.thumb_func
 136              		.fpu fpv4-sp-d16
 137              		.type	chVTGetSystemTimeX, %function
 138              	chVTGetSystemTimeX:
 139              		@ args = 0, pretend = 0, frame = 0
 140              		@ frame_needed = 1, uses_anonymous_args = 0
 141              		@ link register save eliminated.
 142 0000 80B4     		push	{r7}
 143 0002 00AF     		add	r7, sp, #0
 144 0004 034B     		ldr	r3, .L10
 145 0006 9B6A     		ldr	r3, [r3, #40]
 146 0008 1846     		mov	r0, r3
 147 000a BD46     		mov	sp, r7
 148              		@ sp needed
 149 000c 5DF8047B 		ldr	r7, [sp], #4
 150 0010 7047     		bx	lr
 151              	.L11:
 152 0012 00BF     		.align	2
 153              	.L10:
 154 0014 00000000 		.word	ch
 155              		.size	chVTGetSystemTimeX, .-chVTGetSystemTimeX
 156              		.section	.text.chVTGetSystemTime,"ax",%progbits
 157              		.align	1
 158              		.syntax unified
 159              		.thumb
 160              		.thumb_func
 161              		.fpu fpv4-sp-d16
 162              		.type	chVTGetSystemTime, %function
 163              	chVTGetSystemTime:
 164              		@ args = 0, pretend = 0, frame = 8
 165              		@ frame_needed = 1, uses_anonymous_args = 0
 166 0000 80B5     		push	{r7, lr}
 167 0002 82B0     		sub	sp, sp, #8
 168 0004 00AF     		add	r7, sp, #0
 169 0006 FFF7FEFF 		bl	chSysLock
 170 000a FFF7FEFF 		bl	chVTGetSystemTimeX
 171 000e 7860     		str	r0, [r7, #4]
ARM GAS  /var/folders/d2/nstgp4h54kz7g1l847x_b8wc0000gn/T//cc3fOn4s.s 			page 4


 172 0010 FFF7FEFF 		bl	chSysUnlock
 173 0014 7B68     		ldr	r3, [r7, #4]
 174 0016 1846     		mov	r0, r3
 175 0018 0837     		adds	r7, r7, #8
 176 001a BD46     		mov	sp, r7
 177              		@ sp needed
 178 001c 80BD     		pop	{r7, pc}
 179              		.size	chVTGetSystemTime, .-chVTGetSystemTime
 180              		.section	.text.chVTIsTimeWithinX,"ax",%progbits
 181              		.align	1
 182              		.syntax unified
 183              		.thumb
 184              		.thumb_func
 185              		.fpu fpv4-sp-d16
 186              		.type	chVTIsTimeWithinX, %function
 187              	chVTIsTimeWithinX:
 188              		@ args = 0, pretend = 0, frame = 16
 189              		@ frame_needed = 1, uses_anonymous_args = 0
 190              		@ link register save eliminated.
 191 0000 80B4     		push	{r7}
 192 0002 85B0     		sub	sp, sp, #20
 193 0004 00AF     		add	r7, sp, #0
 194 0006 F860     		str	r0, [r7, #12]
 195 0008 B960     		str	r1, [r7, #8]
 196 000a 7A60     		str	r2, [r7, #4]
 197 000c FA68     		ldr	r2, [r7, #12]
 198 000e BB68     		ldr	r3, [r7, #8]
 199 0010 D21A     		subs	r2, r2, r3
 200 0012 7968     		ldr	r1, [r7, #4]
 201 0014 BB68     		ldr	r3, [r7, #8]
 202 0016 CB1A     		subs	r3, r1, r3
 203 0018 9A42     		cmp	r2, r3
 204 001a 34BF     		ite	cc
 205 001c 0123     		movcc	r3, #1
 206 001e 0023     		movcs	r3, #0
 207 0020 DBB2     		uxtb	r3, r3
 208 0022 1846     		mov	r0, r3
 209 0024 1437     		adds	r7, r7, #20
 210 0026 BD46     		mov	sp, r7
 211              		@ sp needed
 212 0028 5DF8047B 		ldr	r7, [sp], #4
 213 002c 7047     		bx	lr
 214              		.size	chVTIsTimeWithinX, .-chVTIsTimeWithinX
 215              		.section	.text.chVTIsSystemTimeWithin,"ax",%progbits
 216              		.align	1
 217              		.syntax unified
 218              		.thumb
 219              		.thumb_func
 220              		.fpu fpv4-sp-d16
 221              		.type	chVTIsSystemTimeWithin, %function
 222              	chVTIsSystemTimeWithin:
 223              		@ args = 0, pretend = 0, frame = 8
 224              		@ frame_needed = 1, uses_anonymous_args = 0
 225 0000 80B5     		push	{r7, lr}
 226 0002 82B0     		sub	sp, sp, #8
 227 0004 00AF     		add	r7, sp, #0
 228 0006 7860     		str	r0, [r7, #4]
ARM GAS  /var/folders/d2/nstgp4h54kz7g1l847x_b8wc0000gn/T//cc3fOn4s.s 			page 5


 229 0008 3960     		str	r1, [r7]
 230 000a FFF7FEFF 		bl	chVTGetSystemTime
 231 000e 0346     		mov	r3, r0
 232 0010 3A68     		ldr	r2, [r7]
 233 0012 7968     		ldr	r1, [r7, #4]
 234 0014 1846     		mov	r0, r3
 235 0016 FFF7FEFF 		bl	chVTIsTimeWithinX
 236 001a 0346     		mov	r3, r0
 237 001c 1846     		mov	r0, r3
 238 001e 0837     		adds	r7, r7, #8
 239 0020 BD46     		mov	sp, r7
 240              		@ sp needed
 241 0022 80BD     		pop	{r7, pc}
 242              		.size	chVTIsSystemTimeWithin, .-chVTIsSystemTimeWithin
 243              		.section	.text.chThdGetSelfX,"ax",%progbits
 244              		.align	1
 245              		.syntax unified
 246              		.thumb
 247              		.thumb_func
 248              		.fpu fpv4-sp-d16
 249              		.type	chThdGetSelfX, %function
 250              	chThdGetSelfX:
 251              		@ args = 0, pretend = 0, frame = 0
 252              		@ frame_needed = 1, uses_anonymous_args = 0
 253              		@ link register save eliminated.
 254 0000 80B4     		push	{r7}
 255 0002 00AF     		add	r7, sp, #0
 256 0004 034B     		ldr	r3, .L20
 257 0006 9B69     		ldr	r3, [r3, #24]
 258 0008 1846     		mov	r0, r3
 259 000a BD46     		mov	sp, r7
 260              		@ sp needed
 261 000c 5DF8047B 		ldr	r7, [sp], #4
 262 0010 7047     		bx	lr
 263              	.L21:
 264 0012 00BF     		.align	2
 265              	.L20:
 266 0014 00000000 		.word	ch
 267              		.size	chThdGetSelfX, .-chThdGetSelfX
 268              		.section	.text.chThdGetPriorityX,"ax",%progbits
 269              		.align	1
 270              		.syntax unified
 271              		.thumb
 272              		.thumb_func
 273              		.fpu fpv4-sp-d16
 274              		.type	chThdGetPriorityX, %function
 275              	chThdGetPriorityX:
 276              		@ args = 0, pretend = 0, frame = 0
 277              		@ frame_needed = 1, uses_anonymous_args = 0
 278 0000 80B5     		push	{r7, lr}
 279 0002 00AF     		add	r7, sp, #0
 280 0004 FFF7FEFF 		bl	chThdGetSelfX
 281 0008 0346     		mov	r3, r0
 282 000a 9B68     		ldr	r3, [r3, #8]
 283 000c 1846     		mov	r0, r3
 284 000e 80BD     		pop	{r7, pc}
 285              		.size	chThdGetPriorityX, .-chThdGetPriorityX
ARM GAS  /var/folders/d2/nstgp4h54kz7g1l847x_b8wc0000gn/T//cc3fOn4s.s 			page 6


 286              		.section	.text.chThdTerminatedX,"ax",%progbits
 287              		.align	1
 288              		.syntax unified
 289              		.thumb
 290              		.thumb_func
 291              		.fpu fpv4-sp-d16
 292              		.type	chThdTerminatedX, %function
 293              	chThdTerminatedX:
 294              		@ args = 0, pretend = 0, frame = 8
 295              		@ frame_needed = 1, uses_anonymous_args = 0
 296              		@ link register save eliminated.
 297 0000 80B4     		push	{r7}
 298 0002 83B0     		sub	sp, sp, #12
 299 0004 00AF     		add	r7, sp, #0
 300 0006 7860     		str	r0, [r7, #4]
 301 0008 7B68     		ldr	r3, [r7, #4]
 302 000a 93F82030 		ldrb	r3, [r3, #32]	@ zero_extendqisi2
 303 000e 0F2B     		cmp	r3, #15
 304 0010 0CBF     		ite	eq
 305 0012 0123     		moveq	r3, #1
 306 0014 0023     		movne	r3, #0
 307 0016 DBB2     		uxtb	r3, r3
 308 0018 1846     		mov	r0, r3
 309 001a 0C37     		adds	r7, r7, #12
 310 001c BD46     		mov	sp, r7
 311              		@ sp needed
 312 001e 5DF8047B 		ldr	r7, [sp], #4
 313 0022 7047     		bx	lr
 314              		.size	chThdTerminatedX, .-chThdTerminatedX
 315              		.section	.text.chprintf,"ax",%progbits
 316              		.align	1
 317              		.syntax unified
 318              		.thumb
 319              		.thumb_func
 320              		.fpu fpv4-sp-d16
 321              		.type	chprintf, %function
 322              	chprintf:
 323              		@ args = 4, pretend = 12, frame = 16
 324              		@ frame_needed = 1, uses_anonymous_args = 1
 325 0000 0EB4     		push	{r1, r2, r3}
 326 0002 80B5     		push	{r7, lr}
 327 0004 85B0     		sub	sp, sp, #20
 328 0006 00AF     		add	r7, sp, #0
 329 0008 7860     		str	r0, [r7, #4]
 330 000a 07F12003 		add	r3, r7, #32
 331 000e BB60     		str	r3, [r7, #8]
 332 0010 BA68     		ldr	r2, [r7, #8]
 333 0012 F969     		ldr	r1, [r7, #28]
 334 0014 7868     		ldr	r0, [r7, #4]
 335 0016 FFF7FEFF 		bl	chvprintf
 336 001a F860     		str	r0, [r7, #12]
 337 001c FB68     		ldr	r3, [r7, #12]
 338 001e 1846     		mov	r0, r3
 339 0020 1437     		adds	r7, r7, #20
 340 0022 BD46     		mov	sp, r7
 341              		@ sp needed
 342 0024 BDE88040 		pop	{r7, lr}
ARM GAS  /var/folders/d2/nstgp4h54kz7g1l847x_b8wc0000gn/T//cc3fOn4s.s 			page 7


 343 0028 03B0     		add	sp, sp, #12
 344 002a 7047     		bx	lr
 345              		.size	chprintf, .-chprintf
 346              		.section	.bss.buf,"aw",%nobits
 347              		.align	2
 348              		.type	buf, %object
 349              		.size	buf, 8196
 350              	buf:
 351 0000 00000000 		.space	8196
 351      00000000 
 351      00000000 
 351      00000000 
 351      00000000 
 352              		.section	.bss.buf2,"aw",%nobits
 353              		.align	2
 354              		.type	buf2, %object
 355              		.size	buf2, 8192
 356              	buf2:
 357 0000 00000000 		.space	8192
 357      00000000 
 357      00000000 
 357      00000000 
 357      00000000 
 358              		.section	.bss.cmd_fmt,"aw",%nobits
 359              		.type	cmd_fmt, %object
 360              		.size	cmd_fmt, 1
 361              	cmd_fmt:
 362 0000 00       		.space	1
 363              		.section	.bss.cmd_subx,"aw",%nobits
 364              		.type	cmd_subx, %object
 365              		.size	cmd_subx, 1
 366              	cmd_subx:
 367 0000 00       		.space	1
 368              		.section	.bss.cmd_suby,"aw",%nobits
 369              		.type	cmd_suby, %object
 370              		.size	cmd_suby, 1
 371              	cmd_suby:
 372 0000 00       		.space	1
 373              		.section	.bss.cmd_x1,"aw",%nobits
 374              		.align	1
 375              		.type	cmd_x1, %object
 376              		.size	cmd_x1, 2
 377              	cmd_x1:
 378 0000 0000     		.space	2
 379              		.section	.bss.cmd_y1,"aw",%nobits
 380              		.align	1
 381              		.type	cmd_y1, %object
 382              		.size	cmd_y1, 2
 383              	cmd_y1:
 384 0000 0000     		.space	2
 385              		.section	.bss.cmd_width,"aw",%nobits
 386              		.align	1
 387              		.type	cmd_width, %object
 388              		.size	cmd_width, 2
 389              	cmd_width:
 390 0000 0000     		.space	2
 391              		.section	.bss.cmd_height,"aw",%nobits
ARM GAS  /var/folders/d2/nstgp4h54kz7g1l847x_b8wc0000gn/T//cc3fOn4s.s 			page 8


 392              		.align	1
 393              		.type	cmd_height, %object
 394              		.size	cmd_height, 2
 395              	cmd_height:
 396 0000 0000     		.space	2
 397              		.section	.bss.fbuff,"aw",%nobits
 398              		.align	2
 399              		.type	fbuff, %object
 400              		.size	fbuff, 256
 401              	fbuff:
 402 0000 00000000 		.space	256
 402      00000000 
 402      00000000 
 402      00000000 
 402      00000000 
 403              		.section	.rodata
 404              		.align	2
 405              	.LC0:
 406 0000 46533A20 		.ascii	"FS: f_mount() failed. Is the SD card inserted?\015\012"
 406      665F6D6F 
 406      756E7428 
 406      29206661 
 406      696C6564 
 407 0030 00       		.ascii	"\000"
 408 0031 000000   		.align	2
 409              	.LC1:
 410 0034 46533A20 		.ascii	"FS: f_mount() succeeded\015\012\000"
 410      665F6D6F 
 410      756E7428 
 410      29207375 
 410      63636565 
 411              		.section	.text.cmd_mount,"ax",%progbits
 412              		.align	1
 413              		.global	cmd_mount
 414              		.syntax unified
 415              		.thumb
 416              		.thumb_func
 417              		.fpu fpv4-sp-d16
 418              		.type	cmd_mount, %function
 419              	cmd_mount:
 420              		@ args = 0, pretend = 0, frame = 16
 421              		@ frame_needed = 1, uses_anonymous_args = 0
 422 0000 80B5     		push	{r7, lr}
 423 0002 84B0     		sub	sp, sp, #16
 424 0004 00AF     		add	r7, sp, #0
 425 0006 F860     		str	r0, [r7, #12]
 426 0008 B960     		str	r1, [r7, #8]
 427 000a 7A60     		str	r2, [r7, #4]
 428 000c FFF7FEFF 		bl	mountSDCard
 429 0010 0346     		mov	r3, r0
 430 0012 83F00103 		eor	r3, r3, #1
 431 0016 DBB2     		uxtb	r3, r3
 432 0018 002B     		cmp	r3, #0
 433 001a 04D0     		beq	.L29
 434 001c 0549     		ldr	r1, .L31
 435 001e F868     		ldr	r0, [r7, #12]
 436 0020 FFF7FEFF 		bl	chprintf
ARM GAS  /var/folders/d2/nstgp4h54kz7g1l847x_b8wc0000gn/T//cc3fOn4s.s 			page 9


 437 0024 03E0     		b	.L28
 438              	.L29:
 439 0026 0449     		ldr	r1, .L31+4
 440 0028 F868     		ldr	r0, [r7, #12]
 441 002a FFF7FEFF 		bl	chprintf
 442              	.L28:
 443 002e 1037     		adds	r7, r7, #16
 444 0030 BD46     		mov	sp, r7
 445              		@ sp needed
 446 0032 80BD     		pop	{r7, pc}
 447              	.L32:
 448              		.align	2
 449              	.L31:
 450 0034 00000000 		.word	.LC0
 451 0038 34000000 		.word	.LC1
 452              		.size	cmd_mount, .-cmd_mount
 453              		.section	.rodata
 454 004e 0000     		.align	2
 455              	.LC2:
 456 0050 46533A20 		.ascii	"FS: f_mount() unmount failed\015\012\000"
 456      665F6D6F 
 456      756E7428 
 456      2920756E 
 456      6D6F756E 
 457              		.section	.text.cmd_unmount,"ax",%progbits
 458              		.align	1
 459              		.global	cmd_unmount
 460              		.syntax unified
 461              		.thumb
 462              		.thumb_func
 463              		.fpu fpv4-sp-d16
 464              		.type	cmd_unmount, %function
 465              	cmd_unmount:
 466              		@ args = 0, pretend = 0, frame = 16
 467              		@ frame_needed = 1, uses_anonymous_args = 0
 468 0000 80B5     		push	{r7, lr}
 469 0002 84B0     		sub	sp, sp, #16
 470 0004 00AF     		add	r7, sp, #0
 471 0006 F860     		str	r0, [r7, #12]
 472 0008 B960     		str	r1, [r7, #8]
 473 000a 7A60     		str	r2, [r7, #4]
 474 000c FFF7FEFF 		bl	unmountSDCard
 475 0010 0346     		mov	r3, r0
 476 0012 83F00103 		eor	r3, r3, #1
 477 0016 DBB2     		uxtb	r3, r3
 478 0018 002B     		cmp	r3, #0
 479 001a 04D0     		beq	.L33
 480 001c 0349     		ldr	r1, .L35
 481 001e F868     		ldr	r0, [r7, #12]
 482 0020 FFF7FEFF 		bl	chprintf
 483 0024 00BF     		nop
 484              	.L33:
 485 0026 1037     		adds	r7, r7, #16
 486 0028 BD46     		mov	sp, r7
 487              		@ sp needed
 488 002a 80BD     		pop	{r7, pc}
 489              	.L36:
ARM GAS  /var/folders/d2/nstgp4h54kz7g1l847x_b8wc0000gn/T//cc3fOn4s.s 			page 10


 490              		.align	2
 491              	.L35:
 492 002c 50000000 		.word	.LC2
 493              		.size	cmd_unmount, .-cmd_unmount
 494              		.section	.rodata
 495 006f 00       		.align	2
 496              	.LC3:
 497 0070 2F00     		.ascii	"/\000"
 498 0072 0000     		.align	2
 499              	.LC4:
 500 0074 46533A20 		.ascii	"FS: f_getfree() failed\015\012\000"
 500      665F6765 
 500      74667265 
 500      65282920 
 500      6661696C 
 501 008d 000000   		.align	2
 502              	.LC5:
 503 0090 46533A20 		.ascii	"FS: %lu free clusters\015\012    %lu sectors per cl"
 503      256C7520 
 503      66726565 
 503      20636C75 
 503      73746572 
 504 00bd 75737465 		.ascii	"uster\015\012\000"
 504      720D0A00 
 505 00c5 000000   		.align	2
 506              	.LC6:
 507 00c8 256C7520 		.ascii	"%lu B free\015\012\000"
 507      42206672 
 507      65650D0A 
 507      00
 508 00d5 000000   		.align	2
 509              	.LC7:
 510 00d8 256C7520 		.ascii	"%lu KB free\015\012\000"
 510      4B422066 
 510      7265650D 
 510      0A00
 511 00e6 0000     		.align	2
 512              	.LC8:
 513 00e8 256C7520 		.ascii	"%lu MB free\015\012\000"
 513      4D422066 
 513      7265650D 
 513      0A00
 514              		.section	.text.cmd_free,"ax",%progbits
 515              		.align	1
 516              		.global	cmd_free
 517              		.syntax unified
 518              		.thumb
 519              		.thumb_func
 520              		.fpu fpv4-sp-d16
 521              		.type	cmd_free, %function
 522              	cmd_free:
 523              		@ args = 0, pretend = 0, frame = 32
 524              		@ frame_needed = 1, uses_anonymous_args = 0
 525 0000 80B5     		push	{r7, lr}
 526 0002 88B0     		sub	sp, sp, #32
 527 0004 00AF     		add	r7, sp, #0
 528 0006 F860     		str	r0, [r7, #12]
ARM GAS  /var/folders/d2/nstgp4h54kz7g1l847x_b8wc0000gn/T//cc3fOn4s.s 			page 11


 529 0008 B960     		str	r1, [r7, #8]
 530 000a 7A60     		str	r2, [r7, #4]
 531 000c 07F11402 		add	r2, r7, #20
 532 0010 07F11803 		add	r3, r7, #24
 533 0014 1946     		mov	r1, r3
 534 0016 1D48     		ldr	r0, .L40
 535 0018 FFF7FEFF 		bl	f_getfree
 536 001c 0346     		mov	r3, r0
 537 001e FB77     		strb	r3, [r7, #31]
 538 0020 FB7F     		ldrb	r3, [r7, #31]	@ zero_extendqisi2
 539 0022 002B     		cmp	r3, #0
 540 0024 04D0     		beq	.L38
 541 0026 1A49     		ldr	r1, .L40+4
 542 0028 F868     		ldr	r0, [r7, #12]
 543 002a FFF7FEFF 		bl	chprintf
 544 002e 29E0     		b	.L37
 545              	.L38:
 546 0030 FFF7FEFF 		bl	getSDCardClusterSize
 547 0034 0346     		mov	r3, r0
 548 0036 BB77     		strb	r3, [r7, #30]
 549 0038 BA69     		ldr	r2, [r7, #24]
 550 003a BB7F     		ldrb	r3, [r7, #30]	@ zero_extendqisi2
 551 003c 1549     		ldr	r1, .L40+8
 552 003e F868     		ldr	r0, [r7, #12]
 553 0040 FFF7FEFF 		bl	chprintf
 554 0044 BB7F     		ldrb	r3, [r7, #30]	@ zero_extendqisi2
 555 0046 BA69     		ldr	r2, [r7, #24]
 556 0048 02FB03F3 		mul	r3, r2, r3
 557 004c 5B02     		lsls	r3, r3, #9
 558 004e 1A46     		mov	r2, r3
 559 0050 1149     		ldr	r1, .L40+12
 560 0052 F868     		ldr	r0, [r7, #12]
 561 0054 FFF7FEFF 		bl	chprintf
 562 0058 BB7F     		ldrb	r3, [r7, #30]	@ zero_extendqisi2
 563 005a BA69     		ldr	r2, [r7, #24]
 564 005c 02FB03F3 		mul	r3, r2, r3
 565 0060 5B02     		lsls	r3, r3, #9
 566 0062 9B0A     		lsrs	r3, r3, #10
 567 0064 1A46     		mov	r2, r3
 568 0066 0D49     		ldr	r1, .L40+16
 569 0068 F868     		ldr	r0, [r7, #12]
 570 006a FFF7FEFF 		bl	chprintf
 571 006e BB7F     		ldrb	r3, [r7, #30]	@ zero_extendqisi2
 572 0070 BA69     		ldr	r2, [r7, #24]
 573 0072 02FB03F3 		mul	r3, r2, r3
 574 0076 5B02     		lsls	r3, r3, #9
 575 0078 1B0D     		lsrs	r3, r3, #20
 576 007a 1A46     		mov	r2, r3
 577 007c 0849     		ldr	r1, .L40+20
 578 007e F868     		ldr	r0, [r7, #12]
 579 0080 FFF7FEFF 		bl	chprintf
 580              	.L37:
 581 0084 2037     		adds	r7, r7, #32
 582 0086 BD46     		mov	sp, r7
 583              		@ sp needed
 584 0088 80BD     		pop	{r7, pc}
 585              	.L41:
ARM GAS  /var/folders/d2/nstgp4h54kz7g1l847x_b8wc0000gn/T//cc3fOn4s.s 			page 12


 586 008a 00BF     		.align	2
 587              	.L40:
 588 008c 70000000 		.word	.LC3
 589 0090 74000000 		.word	.LC4
 590 0094 90000000 		.word	.LC5
 591 0098 C8000000 		.word	.LC6
 592 009c D8000000 		.word	.LC7
 593 00a0 E8000000 		.word	.LC8
 594              		.size	cmd_free, .-cmd_free
 595              		.section	.text.cmd_tree,"ax",%progbits
 596              		.align	1
 597              		.global	cmd_tree
 598              		.syntax unified
 599              		.thumb
 600              		.thumb_func
 601              		.fpu fpv4-sp-d16
 602              		.type	cmd_tree, %function
 603              	cmd_tree:
 604              		@ args = 0, pretend = 0, frame = 16
 605              		@ frame_needed = 1, uses_anonymous_args = 0
 606 0000 80B5     		push	{r7, lr}
 607 0002 84B0     		sub	sp, sp, #16
 608 0004 00AF     		add	r7, sp, #0
 609 0006 F860     		str	r0, [r7, #12]
 610 0008 B960     		str	r1, [r7, #8]
 611 000a 7A60     		str	r2, [r7, #4]
 612 000c 4FF48072 		mov	r2, #256
 613 0010 0021     		movs	r1, #0
 614 0012 0548     		ldr	r0, .L43
 615 0014 FFF7FEFF 		bl	memset
 616 0018 0349     		ldr	r1, .L43
 617 001a F868     		ldr	r0, [r7, #12]
 618 001c FFF7FEFF 		bl	scan_files
 619 0020 00BF     		nop
 620 0022 1037     		adds	r7, r7, #16
 621 0024 BD46     		mov	sp, r7
 622              		@ sp needed
 623 0026 80BD     		pop	{r7, pc}
 624              	.L44:
 625              		.align	2
 626              	.L43:
 627 0028 00000000 		.word	fbuff
 628              		.size	cmd_tree, .-cmd_tree
 629              		.section	.rodata
 630 00f6 0000     		.align	2
 631              	.LC9:
 632 00f8 55736167 		.ascii	"Usage: hello\015\012\000"
 632      653A2068 
 632      656C6C6F 
 632      0D0A00
 633 0107 00       		.align	2
 634              	.LC10:
 635 0108 20202020 		.ascii	"       Creates hello.txt with 'Hello World'\015\012"
 635      20202043 
 635      72656174 
 635      65732068 
 635      656C6C6F 
ARM GAS  /var/folders/d2/nstgp4h54kz7g1l847x_b8wc0000gn/T//cc3fOn4s.s 			page 13


 636 0135 00       		.ascii	"\000"
 637 0136 0000     		.align	2
 638              	.LC11:
 639 0138 68656C6C 		.ascii	"hello.txt\000"
 639      6F2E7478 
 639      7400
 640 0142 0000     		.align	2
 641              	.LC12:
 642 0144 46533A20 		.ascii	"FS: f_open(\"hello.txt\") failed.\015\012\000"
 642      665F6F70 
 642      656E2822 
 642      68656C6C 
 642      6F2E7478 
 643 0166 0000     		.align	2
 644              	.LC13:
 645 0168 46533A20 		.ascii	"FS: f_open(\"hello.txt\") succeeded\015\012\000"
 645      665F6F70 
 645      656E2822 
 645      68656C6C 
 645      6F2E7478 
 646              		.align	2
 647              	.LC14:
 648 018c 48656C6C 		.ascii	"Hello World\000"
 648      6F20576F 
 648      726C6400 
 649              		.align	2
 650              	.LC15:
 651 0198 46533A20 		.ascii	"FS: f_puts(\"Hello World\",\"hello.txt\") failed\015"
 651      665F7075 
 651      74732822 
 651      48656C6C 
 651      6F20576F 
 652 01c5 0A00     		.ascii	"\012\000"
 653 01c7 00       		.align	2
 654              	.LC16:
 655 01c8 46533A20 		.ascii	"FS: f_puts(\"Hello World\",\"hello.txt\") succeeded"
 655      665F7075 
 655      74732822 
 655      48656C6C 
 655      6F20576F 
 656 01f7 0D0A00   		.ascii	"\015\012\000"
 657              		.section	.text.cmd_hello,"ax",%progbits
 658              		.align	1
 659              		.global	cmd_hello
 660              		.syntax unified
 661              		.thumb
 662              		.thumb_func
 663              		.fpu fpv4-sp-d16
 664              		.type	cmd_hello, %function
 665              	cmd_hello:
 666              		@ args = 0, pretend = 0, frame = 576
 667              		@ frame_needed = 1, uses_anonymous_args = 0
 668 0000 80B5     		push	{r7, lr}
 669 0002 ADF5107D 		sub	sp, sp, #576
 670 0006 00AF     		add	r7, sp, #0
 671 0008 07F10C03 		add	r3, r7, #12
 672 000c 1860     		str	r0, [r3]
ARM GAS  /var/folders/d2/nstgp4h54kz7g1l847x_b8wc0000gn/T//cc3fOn4s.s 			page 14


 673 000e 07F10803 		add	r3, r7, #8
 674 0012 1960     		str	r1, [r3]
 675 0014 3B1D     		adds	r3, r7, #4
 676 0016 1A60     		str	r2, [r3]
 677 0018 07F10803 		add	r3, r7, #8
 678 001c 1B68     		ldr	r3, [r3]
 679 001e 002B     		cmp	r3, #0
 680 0020 0CDD     		ble	.L46
 681 0022 07F10C03 		add	r3, r7, #12
 682 0026 2849     		ldr	r1, .L52
 683 0028 1868     		ldr	r0, [r3]
 684 002a FFF7FEFF 		bl	chprintf
 685 002e 07F10C03 		add	r3, r7, #12
 686 0032 2649     		ldr	r1, .L52+4
 687 0034 1868     		ldr	r0, [r3]
 688 0036 FFF7FEFF 		bl	chprintf
 689 003a 41E0     		b	.L45
 690              	.L46:
 691 003c 07F11003 		add	r3, r7, #16
 692 0040 0B22     		movs	r2, #11
 693 0042 2349     		ldr	r1, .L52+8
 694 0044 1846     		mov	r0, r3
 695 0046 FFF7FEFF 		bl	f_open
 696 004a 0346     		mov	r3, r0
 697 004c 87F83F32 		strb	r3, [r7, #575]
 698 0050 97F83F32 		ldrb	r3, [r7, #575]	@ zero_extendqisi2
 699 0054 002B     		cmp	r3, #0
 700 0056 0ED0     		beq	.L48
 701 0058 07F10C03 		add	r3, r7, #12
 702 005c 1D49     		ldr	r1, .L52+12
 703 005e 1868     		ldr	r0, [r3]
 704 0060 FFF7FEFF 		bl	chprintf
 705 0064 97F83F22 		ldrb	r2, [r7, #575]	@ zero_extendqisi2
 706 0068 07F10C03 		add	r3, r7, #12
 707 006c 1146     		mov	r1, r2
 708 006e 1868     		ldr	r0, [r3]
 709 0070 FFF7FEFF 		bl	fverbose_error
 710 0074 24E0     		b	.L45
 711              	.L48:
 712 0076 07F10C03 		add	r3, r7, #12
 713 007a 1749     		ldr	r1, .L52+16
 714 007c 1868     		ldr	r0, [r3]
 715 007e FFF7FEFF 		bl	chprintf
 716 0082 07F11003 		add	r3, r7, #16
 717 0086 1946     		mov	r1, r3
 718 0088 1448     		ldr	r0, .L52+20
 719 008a FFF7FEFF 		bl	f_puts
 720 008e C7F83802 		str	r0, [r7, #568]
 721 0092 D7F83832 		ldr	r3, [r7, #568]
 722 0096 B3F1FF3F 		cmp	r3, #-1
 723 009a 06D1     		bne	.L49
 724 009c 07F10C03 		add	r3, r7, #12
 725 00a0 0F49     		ldr	r1, .L52+24
 726 00a2 1868     		ldr	r0, [r3]
 727 00a4 FFF7FEFF 		bl	chprintf
 728 00a8 05E0     		b	.L50
 729              	.L49:
ARM GAS  /var/folders/d2/nstgp4h54kz7g1l847x_b8wc0000gn/T//cc3fOn4s.s 			page 15


 730 00aa 07F10C03 		add	r3, r7, #12
 731 00ae 0D49     		ldr	r1, .L52+28
 732 00b0 1868     		ldr	r0, [r3]
 733 00b2 FFF7FEFF 		bl	chprintf
 734              	.L50:
 735 00b6 07F11003 		add	r3, r7, #16
 736 00ba 1846     		mov	r0, r3
 737 00bc FFF7FEFF 		bl	f_close
 738              	.L45:
 739 00c0 07F51077 		add	r7, r7, #576
 740 00c4 BD46     		mov	sp, r7
 741              		@ sp needed
 742 00c6 80BD     		pop	{r7, pc}
 743              	.L53:
 744              		.align	2
 745              	.L52:
 746 00c8 F8000000 		.word	.LC9
 747 00cc 08010000 		.word	.LC10
 748 00d0 38010000 		.word	.LC11
 749 00d4 44010000 		.word	.LC12
 750 00d8 68010000 		.word	.LC13
 751 00dc 8C010000 		.word	.LC14
 752 00e0 98010000 		.word	.LC15
 753 00e4 C8010000 		.word	.LC16
 754              		.size	cmd_hello, .-cmd_hello
 755              		.section	.rodata
 756 01fa 0000     		.align	2
 757              	.LC17:
 758 01fc 55736167 		.ascii	"Usage: mkdir dirName\015\012\000"
 758      653A206D 
 758      6B646972 
 758      20646972 
 758      4E616D65 
 759 0213 00       		.align	2
 760              	.LC18:
 761 0214 20202020 		.ascii	"       Creates directory with dirName (no spaces)\015"
 761      20202043 
 761      72656174 
 761      65732064 
 761      69726563 
 762 0246 0A00     		.ascii	"\012\000"
 763              		.align	2
 764              	.LC19:
 765 0248 46533A20 		.ascii	"FS: f_mkdir(%s) failed\015\012\000"
 765      665F6D6B 
 765      64697228 
 765      25732920 
 765      6661696C 
 766 0261 000000   		.align	2
 767              	.LC20:
 768 0264 46533A20 		.ascii	"FS: f_mkdir(%s) succeeded\015\012\000"
 768      665F6D6B 
 768      64697228 
 768      25732920 
 768      73756363 
 769              		.section	.text.cmd_mkdir,"ax",%progbits
 770              		.align	1
ARM GAS  /var/folders/d2/nstgp4h54kz7g1l847x_b8wc0000gn/T//cc3fOn4s.s 			page 16


 771              		.global	cmd_mkdir
 772              		.syntax unified
 773              		.thumb
 774              		.thumb_func
 775              		.fpu fpv4-sp-d16
 776              		.type	cmd_mkdir, %function
 777              	cmd_mkdir:
 778              		@ args = 0, pretend = 0, frame = 24
 779              		@ frame_needed = 1, uses_anonymous_args = 0
 780 0000 80B5     		push	{r7, lr}
 781 0002 86B0     		sub	sp, sp, #24
 782 0004 00AF     		add	r7, sp, #0
 783 0006 F860     		str	r0, [r7, #12]
 784 0008 B960     		str	r1, [r7, #8]
 785 000a 7A60     		str	r2, [r7, #4]
 786 000c BB68     		ldr	r3, [r7, #8]
 787 000e 012B     		cmp	r3, #1
 788 0010 08D0     		beq	.L55
 789 0012 1549     		ldr	r1, .L58
 790 0014 F868     		ldr	r0, [r7, #12]
 791 0016 FFF7FEFF 		bl	chprintf
 792 001a 1449     		ldr	r1, .L58+4
 793 001c F868     		ldr	r0, [r7, #12]
 794 001e FFF7FEFF 		bl	chprintf
 795 0022 1EE0     		b	.L54
 796              	.L55:
 797 0024 7B68     		ldr	r3, [r7, #4]
 798 0026 1B68     		ldr	r3, [r3]
 799 0028 1846     		mov	r0, r3
 800 002a FFF7FEFF 		bl	f_mkdir
 801 002e 0346     		mov	r3, r0
 802 0030 FB75     		strb	r3, [r7, #23]
 803 0032 FB7D     		ldrb	r3, [r7, #23]	@ zero_extendqisi2
 804 0034 002B     		cmp	r3, #0
 805 0036 0CD0     		beq	.L57
 806 0038 7B68     		ldr	r3, [r7, #4]
 807 003a 1B68     		ldr	r3, [r3]
 808 003c 1A46     		mov	r2, r3
 809 003e 0C49     		ldr	r1, .L58+8
 810 0040 F868     		ldr	r0, [r7, #12]
 811 0042 FFF7FEFF 		bl	chprintf
 812 0046 FB7D     		ldrb	r3, [r7, #23]	@ zero_extendqisi2
 813 0048 1946     		mov	r1, r3
 814 004a F868     		ldr	r0, [r7, #12]
 815 004c FFF7FEFF 		bl	fverbose_error
 816 0050 07E0     		b	.L54
 817              	.L57:
 818 0052 7B68     		ldr	r3, [r7, #4]
 819 0054 1B68     		ldr	r3, [r3]
 820 0056 1A46     		mov	r2, r3
 821 0058 0649     		ldr	r1, .L58+12
 822 005a F868     		ldr	r0, [r7, #12]
 823 005c FFF7FEFF 		bl	chprintf
 824 0060 00BF     		nop
 825              	.L54:
 826 0062 1837     		adds	r7, r7, #24
 827 0064 BD46     		mov	sp, r7
ARM GAS  /var/folders/d2/nstgp4h54kz7g1l847x_b8wc0000gn/T//cc3fOn4s.s 			page 17


 828              		@ sp needed
 829 0066 80BD     		pop	{r7, pc}
 830              	.L59:
 831              		.align	2
 832              	.L58:
 833 0068 FC010000 		.word	.LC17
 834 006c 14020000 		.word	.LC18
 835 0070 48020000 		.word	.LC19
 836 0074 64020000 		.word	.LC20
 837              		.size	cmd_mkdir, .-cmd_mkdir
 838              		.section	.rodata
 839              		.align	2
 840              	.LC21:
 841 0280 55736167 		.ascii	"Usage: setlabel label\015\012\000"
 841      653A2073 
 841      65746C61 
 841      62656C20 
 841      6C616265 
 842              		.align	2
 843              	.LC22:
 844 0298 20202020 		.ascii	"       Sets FAT label (no spaces)\015\012\000"
 844      20202053 
 844      65747320 
 844      46415420 
 844      6C616265 
 845              		.align	2
 846              	.LC23:
 847 02bc 46533A20 		.ascii	"FS: f_setlabel(%s) failed.\015\012\000"
 847      665F7365 
 847      746C6162 
 847      656C2825 
 847      73292066 
 848 02d9 000000   		.align	2
 849              	.LC24:
 850 02dc 46533A20 		.ascii	"FS: f_setlabel(%s) succeeded.\015\012\000"
 850      665F7365 
 850      746C6162 
 850      656C2825 
 850      73292073 
 851              		.section	.text.cmd_setlabel,"ax",%progbits
 852              		.align	1
 853              		.global	cmd_setlabel
 854              		.syntax unified
 855              		.thumb
 856              		.thumb_func
 857              		.fpu fpv4-sp-d16
 858              		.type	cmd_setlabel, %function
 859              	cmd_setlabel:
 860              		@ args = 0, pretend = 0, frame = 24
 861              		@ frame_needed = 1, uses_anonymous_args = 0
 862 0000 80B5     		push	{r7, lr}
 863 0002 86B0     		sub	sp, sp, #24
 864 0004 00AF     		add	r7, sp, #0
 865 0006 F860     		str	r0, [r7, #12]
 866 0008 B960     		str	r1, [r7, #8]
 867 000a 7A60     		str	r2, [r7, #4]
 868 000c BB68     		ldr	r3, [r7, #8]
ARM GAS  /var/folders/d2/nstgp4h54kz7g1l847x_b8wc0000gn/T//cc3fOn4s.s 			page 18


 869 000e 012B     		cmp	r3, #1
 870 0010 08D0     		beq	.L61
 871 0012 1249     		ldr	r1, .L64
 872 0014 F868     		ldr	r0, [r7, #12]
 873 0016 FFF7FEFF 		bl	chprintf
 874 001a 1149     		ldr	r1, .L64+4
 875 001c F868     		ldr	r0, [r7, #12]
 876 001e FFF7FEFF 		bl	chprintf
 877 0022 18E0     		b	.L60
 878              	.L61:
 879 0024 7B68     		ldr	r3, [r7, #4]
 880 0026 1B68     		ldr	r3, [r3]
 881 0028 1846     		mov	r0, r3
 882 002a FFF7FEFF 		bl	f_setlabel
 883 002e 0346     		mov	r3, r0
 884 0030 FB75     		strb	r3, [r7, #23]
 885 0032 FB7D     		ldrb	r3, [r7, #23]	@ zero_extendqisi2
 886 0034 002B     		cmp	r3, #0
 887 0036 09D0     		beq	.L63
 888 0038 0A49     		ldr	r1, .L64+8
 889 003a F868     		ldr	r0, [r7, #12]
 890 003c FFF7FEFF 		bl	chprintf
 891 0040 FB7D     		ldrb	r3, [r7, #23]	@ zero_extendqisi2
 892 0042 1946     		mov	r1, r3
 893 0044 F868     		ldr	r0, [r7, #12]
 894 0046 FFF7FEFF 		bl	fverbose_error
 895 004a 04E0     		b	.L60
 896              	.L63:
 897 004c 0649     		ldr	r1, .L64+12
 898 004e F868     		ldr	r0, [r7, #12]
 899 0050 FFF7FEFF 		bl	chprintf
 900 0054 00BF     		nop
 901              	.L60:
 902 0056 1837     		adds	r7, r7, #24
 903 0058 BD46     		mov	sp, r7
 904              		@ sp needed
 905 005a 80BD     		pop	{r7, pc}
 906              	.L65:
 907              		.align	2
 908              	.L64:
 909 005c 80020000 		.word	.LC21
 910 0060 98020000 		.word	.LC22
 911 0064 BC020000 		.word	.LC23
 912 0068 DC020000 		.word	.LC24
 913              		.size	cmd_setlabel, .-cmd_setlabel
 914              		.section	.rodata
 915              		.align	2
 916              	.LC25:
 917 02fc 55736167 		.ascii	"Usage: getlabel\015\012\000"
 917      653A2067 
 917      65746C61 
 917      62656C0D 
 917      0A00
 918 030e 0000     		.align	2
 919              	.LC26:
 920 0310 20202020 		.ascii	"       Gets and prints FAT label\015\012\000"
 920      20202047 
ARM GAS  /var/folders/d2/nstgp4h54kz7g1l847x_b8wc0000gn/T//cc3fOn4s.s 			page 19


 920      65747320 
 920      616E6420 
 920      7072696E 
 921 0333 00       		.align	2
 922              	.LC27:
 923 0334 00       		.ascii	"\000"
 924 0335 000000   		.align	2
 925              	.LC28:
 926 0338 46533A20 		.ascii	"FS: f_getlabel failed.\015\012\000"
 926      665F6765 
 926      746C6162 
 926      656C2066 
 926      61696C65 
 927 0351 000000   		.align	2
 928              	.LC29:
 929 0354 4C414245 		.ascii	"LABEL: %s\015\012\000"
 929      4C3A2025 
 929      730D0A00 
 930              		.align	2
 931              	.LC30:
 932 0360 2020532F 		.ascii	"  S/N: 0x%X\015\012\000"
 932      4E3A2030 
 932      7825580D 
 932      0A00
 933              		.section	.text.cmd_getlabel,"ax",%progbits
 934              		.align	1
 935              		.global	cmd_getlabel
 936              		.syntax unified
 937              		.thumb
 938              		.thumb_func
 939              		.fpu fpv4-sp-d16
 940              		.type	cmd_getlabel, %function
 941              	cmd_getlabel:
 942              		@ args = 0, pretend = 0, frame = 40
 943              		@ frame_needed = 1, uses_anonymous_args = 0
 944 0000 80B5     		push	{r7, lr}
 945 0002 8AB0     		sub	sp, sp, #40
 946 0004 00AF     		add	r7, sp, #0
 947 0006 F860     		str	r0, [r7, #12]
 948 0008 B960     		str	r1, [r7, #8]
 949 000a 7A60     		str	r2, [r7, #4]
 950 000c BB68     		ldr	r3, [r7, #8]
 951 000e 002B     		cmp	r3, #0
 952 0010 08DD     		ble	.L67
 953 0012 1D49     		ldr	r1, .L71
 954 0014 F868     		ldr	r0, [r7, #12]
 955 0016 FFF7FEFF 		bl	chprintf
 956 001a 1C49     		ldr	r1, .L71+4
 957 001c F868     		ldr	r0, [r7, #12]
 958 001e FFF7FEFF 		bl	chprintf
 959 0022 2EE0     		b	.L66
 960              	.L67:
 961 0024 07F11803 		add	r3, r7, #24
 962 0028 0C22     		movs	r2, #12
 963 002a 0021     		movs	r1, #0
 964 002c 1846     		mov	r0, r3
 965 002e FFF7FEFF 		bl	memset
ARM GAS  /var/folders/d2/nstgp4h54kz7g1l847x_b8wc0000gn/T//cc3fOn4s.s 			page 20


 966 0032 07F11402 		add	r2, r7, #20
 967 0036 07F11803 		add	r3, r7, #24
 968 003a 1946     		mov	r1, r3
 969 003c 1448     		ldr	r0, .L71+8
 970 003e FFF7FEFF 		bl	f_getlabel
 971 0042 0346     		mov	r3, r0
 972 0044 87F82730 		strb	r3, [r7, #39]
 973 0048 97F82730 		ldrb	r3, [r7, #39]	@ zero_extendqisi2
 974 004c 002B     		cmp	r3, #0
 975 004e 0AD0     		beq	.L69
 976 0050 1049     		ldr	r1, .L71+12
 977 0052 F868     		ldr	r0, [r7, #12]
 978 0054 FFF7FEFF 		bl	chprintf
 979 0058 97F82730 		ldrb	r3, [r7, #39]	@ zero_extendqisi2
 980 005c 1946     		mov	r1, r3
 981 005e F868     		ldr	r0, [r7, #12]
 982 0060 FFF7FEFF 		bl	fverbose_error
 983 0064 0DE0     		b	.L66
 984              	.L69:
 985 0066 07F11803 		add	r3, r7, #24
 986 006a 1A46     		mov	r2, r3
 987 006c 0A49     		ldr	r1, .L71+16
 988 006e F868     		ldr	r0, [r7, #12]
 989 0070 FFF7FEFF 		bl	chprintf
 990 0074 7B69     		ldr	r3, [r7, #20]
 991 0076 1A46     		mov	r2, r3
 992 0078 0849     		ldr	r1, .L71+20
 993 007a F868     		ldr	r0, [r7, #12]
 994 007c FFF7FEFF 		bl	chprintf
 995 0080 00BF     		nop
 996              	.L66:
 997 0082 2837     		adds	r7, r7, #40
 998 0084 BD46     		mov	sp, r7
 999              		@ sp needed
 1000 0086 80BD     		pop	{r7, pc}
 1001              	.L72:
 1002              		.align	2
 1003              	.L71:
 1004 0088 FC020000 		.word	.LC25
 1005 008c 10030000 		.word	.LC26
 1006 0090 34030000 		.word	.LC27
 1007 0094 38030000 		.word	.LC28
 1008 0098 54030000 		.word	.LC29
 1009 009c 60030000 		.word	.LC30
 1010              		.size	cmd_getlabel, .-cmd_getlabel
 1011              		.section	.rodata
 1012 036e 0000     		.align	2
 1013              	.LC31:
 1014 0370 55736167 		.ascii	"Usage: cat filename\015\012\000"
 1014      653A2063 
 1014      61742066 
 1014      696C656E 
 1014      616D650D 
 1015 0386 0000     		.align	2
 1016              	.LC32:
 1017 0388 20202020 		.ascii	"       Echos filename (no spaces)\015\012\000"
 1017      20202045 
ARM GAS  /var/folders/d2/nstgp4h54kz7g1l847x_b8wc0000gn/T//cc3fOn4s.s 			page 21


 1017      63686F73 
 1017      2066696C 
 1017      656E616D 
 1018              		.align	2
 1019              	.LC33:
 1020 03ac 46533A20 		.ascii	"FS: f_open(%s) failed.\015\012\000"
 1020      665F6F70 
 1020      656E2825 
 1020      73292066 
 1020      61696C65 
 1021 03c5 000000   		.align	2
 1022              	.LC34:
 1023 03c8 46533A20 		.ascii	"FS: f_read() failed\015\012\000"
 1023      665F7265 
 1023      61642829 
 1023      20666169 
 1023      6C65640D 
 1024 03de 0000     		.align	2
 1025              	.LC35:
 1026 03e0 257300   		.ascii	"%s\000"
 1027 03e3 00       		.align	2
 1028              	.LC36:
 1029 03e4 0D0A00   		.ascii	"\015\012\000"
 1030              		.section	.text.cmd_cat,"ax",%progbits
 1031              		.align	1
 1032              		.global	cmd_cat
 1033              		.syntax unified
 1034              		.thumb
 1035              		.thumb_func
 1036              		.fpu fpv4-sp-d16
 1037              		.type	cmd_cat, %function
 1038              	cmd_cat:
 1039              		@ args = 0, pretend = 0, frame = 840
 1040              		@ frame_needed = 1, uses_anonymous_args = 0
 1041 0000 80B5     		push	{r7, lr}
 1042 0002 ADF5527D 		sub	sp, sp, #840
 1043 0006 00AF     		add	r7, sp, #0
 1044 0008 07F10C03 		add	r3, r7, #12
 1045 000c 1860     		str	r0, [r3]
 1046 000e 07F10803 		add	r3, r7, #8
 1047 0012 1960     		str	r1, [r3]
 1048 0014 3B1D     		adds	r3, r7, #4
 1049 0016 1A60     		str	r2, [r3]
 1050 0018 FF23     		movs	r3, #255
 1051 001a C7F84433 		str	r3, [r7, #836]
 1052 001e 07F10803 		add	r3, r7, #8
 1053 0022 1B68     		ldr	r3, [r3]
 1054 0024 012B     		cmp	r3, #1
 1055 0026 0CD0     		beq	.L74
 1056 0028 07F10C03 		add	r3, r7, #12
 1057 002c 3B49     		ldr	r1, .L79
 1058 002e 1868     		ldr	r0, [r3]
 1059 0030 FFF7FEFF 		bl	chprintf
 1060 0034 07F10C03 		add	r3, r7, #12
 1061 0038 3949     		ldr	r1, .L79+4
 1062 003a 1868     		ldr	r0, [r3]
 1063 003c FFF7FEFF 		bl	chprintf
ARM GAS  /var/folders/d2/nstgp4h54kz7g1l847x_b8wc0000gn/T//cc3fOn4s.s 			page 22


 1064 0040 68E0     		b	.L73
 1065              	.L74:
 1066 0042 3B1D     		adds	r3, r7, #4
 1067 0044 1B68     		ldr	r3, [r3]
 1068 0046 1968     		ldr	r1, [r3]
 1069 0048 07F58C73 		add	r3, r7, #280
 1070 004c 0122     		movs	r2, #1
 1071 004e 1846     		mov	r0, r3
 1072 0050 FFF7FEFF 		bl	f_open
 1073 0054 0346     		mov	r3, r0
 1074 0056 87F84333 		strb	r3, [r7, #835]
 1075 005a 97F84333 		ldrb	r3, [r7, #835]	@ zero_extendqisi2
 1076 005e 002B     		cmp	r3, #0
 1077 0060 11D0     		beq	.L76
 1078 0062 3B1D     		adds	r3, r7, #4
 1079 0064 1B68     		ldr	r3, [r3]
 1080 0066 1A68     		ldr	r2, [r3]
 1081 0068 07F10C03 		add	r3, r7, #12
 1082 006c 2D49     		ldr	r1, .L79+8
 1083 006e 1868     		ldr	r0, [r3]
 1084 0070 FFF7FEFF 		bl	chprintf
 1085 0074 97F84323 		ldrb	r2, [r7, #835]	@ zero_extendqisi2
 1086 0078 07F10C03 		add	r3, r7, #12
 1087 007c 1146     		mov	r1, r2
 1088 007e 1868     		ldr	r0, [r3]
 1089 0080 FFF7FEFF 		bl	fverbose_error
 1090 0084 46E0     		b	.L73
 1091              	.L76:
 1092 0086 07F11803 		add	r3, r7, #24
 1093 008a FF22     		movs	r2, #255
 1094 008c 0021     		movs	r1, #0
 1095 008e 1846     		mov	r0, r3
 1096 0090 FFF7FEFF 		bl	memset
 1097 0094 07F11403 		add	r3, r7, #20
 1098 0098 07F11801 		add	r1, r7, #24
 1099 009c 07F58C70 		add	r0, r7, #280
 1100 00a0 D7F84423 		ldr	r2, [r7, #836]
 1101 00a4 FFF7FEFF 		bl	f_read
 1102 00a8 0346     		mov	r3, r0
 1103 00aa 87F84333 		strb	r3, [r7, #835]
 1104 00ae 97F84333 		ldrb	r3, [r7, #835]	@ zero_extendqisi2
 1105 00b2 002B     		cmp	r3, #0
 1106 00b4 13D0     		beq	.L77
 1107 00b6 07F10C03 		add	r3, r7, #12
 1108 00ba 1B49     		ldr	r1, .L79+12
 1109 00bc 1868     		ldr	r0, [r3]
 1110 00be FFF7FEFF 		bl	chprintf
 1111 00c2 97F84323 		ldrb	r2, [r7, #835]	@ zero_extendqisi2
 1112 00c6 07F10C03 		add	r3, r7, #12
 1113 00ca 1146     		mov	r1, r2
 1114 00cc 1868     		ldr	r0, [r3]
 1115 00ce FFF7FEFF 		bl	fverbose_error
 1116 00d2 07F58C73 		add	r3, r7, #280
 1117 00d6 1846     		mov	r0, r3
 1118 00d8 FFF7FEFF 		bl	f_close
 1119 00dc 1AE0     		b	.L73
 1120              	.L77:
ARM GAS  /var/folders/d2/nstgp4h54kz7g1l847x_b8wc0000gn/T//cc3fOn4s.s 			page 23


 1121 00de 07F11802 		add	r2, r7, #24
 1122 00e2 07F10C03 		add	r3, r7, #12
 1123 00e6 1149     		ldr	r1, .L79+16
 1124 00e8 1868     		ldr	r0, [r3]
 1125 00ea FFF7FEFF 		bl	chprintf
 1126 00ee 07F11403 		add	r3, r7, #20
 1127 00f2 1B68     		ldr	r3, [r3]
 1128 00f4 D7F84423 		ldr	r2, [r7, #836]
 1129 00f8 9A42     		cmp	r2, r3
 1130 00fa C4D9     		bls	.L76
 1131 00fc 07F10C03 		add	r3, r7, #12
 1132 0100 0B49     		ldr	r1, .L79+20
 1133 0102 1868     		ldr	r0, [r3]
 1134 0104 FFF7FEFF 		bl	chprintf
 1135 0108 07F58C73 		add	r3, r7, #280
 1136 010c 1846     		mov	r0, r3
 1137 010e FFF7FEFF 		bl	f_close
 1138 0112 00BF     		nop
 1139              	.L73:
 1140 0114 07F55277 		add	r7, r7, #840
 1141 0118 BD46     		mov	sp, r7
 1142              		@ sp needed
 1143 011a 80BD     		pop	{r7, pc}
 1144              	.L80:
 1145              		.align	2
 1146              	.L79:
 1147 011c 70030000 		.word	.LC31
 1148 0120 88030000 		.word	.LC32
 1149 0124 AC030000 		.word	.LC33
 1150 0128 C8030000 		.word	.LC34
 1151 012c E0030000 		.word	.LC35
 1152 0130 E4030000 		.word	.LC36
 1153              		.size	cmd_cat, .-cmd_cat
 1154              		.section	.rodata
 1155 03e7 00       		.align	2
 1156              	.LC37:
 1157 03e8 55736167 		.ascii	"Usage: sf_play pathToTheMusic\015\012\000"
 1157      653A2073 
 1157      665F706C 
 1157      61792070 
 1157      61746854 
 1158              		.section	.text.cmd_sound_file_play,"ax",%progbits
 1159              		.align	1
 1160              		.syntax unified
 1161              		.thumb
 1162              		.thumb_func
 1163              		.fpu fpv4-sp-d16
 1164              		.type	cmd_sound_file_play, %function
 1165              	cmd_sound_file_play:
 1166              		@ args = 0, pretend = 0, frame = 16
 1167              		@ frame_needed = 1, uses_anonymous_args = 0
 1168 0000 80B5     		push	{r7, lr}
 1169 0002 84B0     		sub	sp, sp, #16
 1170 0004 00AF     		add	r7, sp, #0
 1171 0006 F860     		str	r0, [r7, #12]
 1172 0008 B960     		str	r1, [r7, #8]
 1173 000a 7A60     		str	r2, [r7, #4]
ARM GAS  /var/folders/d2/nstgp4h54kz7g1l847x_b8wc0000gn/T//cc3fOn4s.s 			page 24


 1174 000c BB68     		ldr	r3, [r7, #8]
 1175 000e 012B     		cmp	r3, #1
 1176 0010 04D0     		beq	.L82
 1177 0012 0849     		ldr	r1, .L84
 1178 0014 F868     		ldr	r0, [r7, #12]
 1179 0016 FFF7FEFF 		bl	chprintf
 1180 001a 07E0     		b	.L81
 1181              	.L82:
 1182 001c 7B68     		ldr	r3, [r7, #4]
 1183 001e 1B68     		ldr	r3, [r3]
 1184 0020 4AF64442 		movw	r2, #44100
 1185 0024 0221     		movs	r1, #2
 1186 0026 1846     		mov	r0, r3
 1187 0028 FFF7FEFF 		bl	playSoundFile
 1188              	.L81:
 1189 002c 1037     		adds	r7, r7, #16
 1190 002e BD46     		mov	sp, r7
 1191              		@ sp needed
 1192 0030 80BD     		pop	{r7, pc}
 1193              	.L85:
 1194 0032 00BF     		.align	2
 1195              	.L84:
 1196 0034 E8030000 		.word	.LC37
 1197              		.size	cmd_sound_file_play, .-cmd_sound_file_play
 1198              		.section	.text.cmd_sound_file_stop,"ax",%progbits
 1199              		.align	1
 1200              		.syntax unified
 1201              		.thumb
 1202              		.thumb_func
 1203              		.fpu fpv4-sp-d16
 1204              		.type	cmd_sound_file_stop, %function
 1205              	cmd_sound_file_stop:
 1206              		@ args = 0, pretend = 0, frame = 16
 1207              		@ frame_needed = 1, uses_anonymous_args = 0
 1208 0000 80B5     		push	{r7, lr}
 1209 0002 84B0     		sub	sp, sp, #16
 1210 0004 00AF     		add	r7, sp, #0
 1211 0006 F860     		str	r0, [r7, #12]
 1212 0008 B960     		str	r1, [r7, #8]
 1213 000a 7A60     		str	r2, [r7, #4]
 1214 000c FFF7FEFF 		bl	stopCurrentSoundFile
 1215 0010 00BF     		nop
 1216 0012 1037     		adds	r7, r7, #16
 1217 0014 BD46     		mov	sp, r7
 1218              		@ sp needed
 1219 0016 80BD     		pop	{r7, pc}
 1220              		.size	cmd_sound_file_stop, .-cmd_sound_file_stop
 1221              		.section	.rodata
 1222              		.align	2
 1223              	.LC38:
 1224 0408 55736167 		.ascii	"Usage: sf_volume value\015\012\000"
 1224      653A2073 
 1224      665F766F 
 1224      6C756D65 
 1224      2076616C 
 1225              		.section	.text.cmd_sound_file_volume,"ax",%progbits
 1226              		.align	1
ARM GAS  /var/folders/d2/nstgp4h54kz7g1l847x_b8wc0000gn/T//cc3fOn4s.s 			page 25


 1227              		.syntax unified
 1228              		.thumb
 1229              		.thumb_func
 1230              		.fpu fpv4-sp-d16
 1231              		.type	cmd_sound_file_volume, %function
 1232              	cmd_sound_file_volume:
 1233              		@ args = 0, pretend = 0, frame = 16
 1234              		@ frame_needed = 1, uses_anonymous_args = 0
 1235 0000 80B5     		push	{r7, lr}
 1236 0002 84B0     		sub	sp, sp, #16
 1237 0004 00AF     		add	r7, sp, #0
 1238 0006 F860     		str	r0, [r7, #12]
 1239 0008 B960     		str	r1, [r7, #8]
 1240 000a 7A60     		str	r2, [r7, #4]
 1241 000c BB68     		ldr	r3, [r7, #8]
 1242 000e 012B     		cmp	r3, #1
 1243 0010 04D0     		beq	.L88
 1244 0012 0949     		ldr	r1, .L90
 1245 0014 F868     		ldr	r0, [r7, #12]
 1246 0016 FFF7FEFF 		bl	chprintf
 1247 001a 09E0     		b	.L87
 1248              	.L88:
 1249 001c 7B68     		ldr	r3, [r7, #4]
 1250 001e 1B68     		ldr	r3, [r3]
 1251 0020 1846     		mov	r0, r3
 1252 0022 FFF7FEFF 		bl	atoi
 1253 0026 0346     		mov	r3, r0
 1254 0028 DBB2     		uxtb	r3, r3
 1255 002a 1846     		mov	r0, r3
 1256 002c FFF7FEFF 		bl	setSoundFileVolume
 1257              	.L87:
 1258 0030 1037     		adds	r7, r7, #16
 1259 0032 BD46     		mov	sp, r7
 1260              		@ sp needed
 1261 0034 80BD     		pop	{r7, pc}
 1262              	.L91:
 1263 0036 00BF     		.align	2
 1264              	.L90:
 1265 0038 08040000 		.word	.LC38
 1266              		.size	cmd_sound_file_volume, .-cmd_sound_file_volume
 1267              		.section	.rodata
 1268 0421 000000   		.align	2
 1269              	.LC39:
 1270 0424 55736167 		.ascii	"Usage: ml_play numberOfTheMelody\015\012\000"
 1270      653A206D 
 1270      6C5F706C 
 1270      6179206E 
 1270      756D6265 
 1271 0447 00       		.align	2
 1272              	.LC40:
 1273 0448 6D656C6F 		.ascii	"melodies availables :\015\012\000"
 1273      64696573 
 1273      20617661 
 1273      696C6162 
 1273      6C657320 
 1274              		.align	2
 1275              	.LC41:
ARM GAS  /var/folders/d2/nstgp4h54kz7g1l847x_b8wc0000gn/T//cc3fOn4s.s 			page 26


 1276 0460 31292049 		.ascii	"1) IMPOSSIBLE_MISSION,\015\012\000"
 1276      4D504F53 
 1276      5349424C 
 1276      455F4D49 
 1276      5353494F 
 1277 0479 000000   		.align	2
 1278              	.LC42:
 1279 047c 32292057 		.ascii	"2) WE_ARE_THE_CHAMPIONS,\015\012\000"
 1279      455F4152 
 1279      455F5448 
 1279      455F4348 
 1279      414D5049 
 1280 0497 00       		.align	2
 1281              	.LC43:
 1282 0498 33292052 		.ascii	"3) RUSSIA,\015\012\000"
 1282      55535349 
 1282      412C0D0A 
 1282      00
 1283 04a5 000000   		.align	2
 1284              	.LC44:
 1285 04a8 3429204D 		.ascii	"4) MARIO,\015\012\000"
 1285      4152494F 
 1285      2C0D0A00 
 1286              		.align	2
 1287              	.LC45:
 1288 04b4 35292055 		.ascii	"5) UNDERWORLD,\015\012\000"
 1288      4E444552 
 1288      574F524C 
 1288      442C0D0A 
 1288      00
 1289 04c5 000000   		.align	2
 1290              	.LC46:
 1291 04c8 3629204D 		.ascii	"6) MARIO_START,\015\012\000"
 1291      4152494F 
 1291      5F535441 
 1291      52542C0D 
 1291      0A00
 1292 04da 0000     		.align	2
 1293              	.LC47:
 1294 04dc 3729204D 		.ascii	"7) MARIO_DEATH,\015\012\000"
 1294      4152494F 
 1294      5F444541 
 1294      54482C0D 
 1294      0A00
 1295 04ee 0000     		.align	2
 1296              	.LC48:
 1297 04f0 3829204D 		.ascii	"8) MARIO_FLAG,\015\012\000"
 1297      4152494F 
 1297      5F464C41 
 1297      472C0D0A 
 1297      00
 1298 0501 000000   		.align	2
 1299              	.LC49:
 1300 0504 39292057 		.ascii	"9) WALKING,\015\012\000"
 1300      414C4B49 
 1300      4E472C0D 
 1300      0A00
ARM GAS  /var/folders/d2/nstgp4h54kz7g1l847x_b8wc0000gn/T//cc3fOn4s.s 			page 27


 1301 0512 0000     		.align	2
 1302              	.LC50:
 1303 0514 31302920 		.ascii	"10) PIRATES_OF_THE_CARIBBEAN,\015\012\000"
 1303      50495241 
 1303      5445535F 
 1303      4F465F54 
 1303      48455F43 
 1304              		.align	2
 1305              	.LC51:
 1306 0534 31312920 		.ascii	"11) SIMPSON,\015\012\000"
 1306      53494D50 
 1306      534F4E2C 
 1306      0D0A00
 1307 0543 00       		.align	2
 1308              	.LC52:
 1309 0544 31322920 		.ascii	"12) STARWARS,\015\012\000"
 1309      53544152 
 1309      57415253 
 1309      2C0D0A00 
 1310              		.align	2
 1311              	.LC53:
 1312 0554 31332920 		.ascii	"13) SANDSTORMS,\015\012\000"
 1312      53414E44 
 1312      53544F52 
 1312      4D532C0D 
 1312      0A00
 1313 0566 0000     		.align	2
 1314              	.LC54:
 1315 0568 31342920 		.ascii	"14) SEVEN_NATION_ARMY\015\012\000"
 1315      53455645 
 1315      4E5F4E41 
 1315      54494F4E 
 1315      5F41524D 
 1316              		.section	.text.cmd_melody_play,"ax",%progbits
 1317              		.align	1
 1318              		.syntax unified
 1319              		.thumb
 1320              		.thumb_func
 1321              		.fpu fpv4-sp-d16
 1322              		.type	cmd_melody_play, %function
 1323              	cmd_melody_play:
 1324              		@ args = 0, pretend = 0, frame = 16
 1325              		@ frame_needed = 1, uses_anonymous_args = 0
 1326 0000 80B5     		push	{r7, lr}
 1327 0002 84B0     		sub	sp, sp, #16
 1328 0004 00AF     		add	r7, sp, #0
 1329 0006 F860     		str	r0, [r7, #12]
 1330 0008 B960     		str	r1, [r7, #8]
 1331 000a 7A60     		str	r2, [r7, #4]
 1332 000c BB68     		ldr	r3, [r7, #8]
 1333 000e 012B     		cmp	r3, #1
 1334 0010 40D0     		beq	.L93
 1335 0012 2949     		ldr	r1, .L95
 1336 0014 F868     		ldr	r0, [r7, #12]
 1337 0016 FFF7FEFF 		bl	chprintf
 1338 001a 2849     		ldr	r1, .L95+4
 1339 001c F868     		ldr	r0, [r7, #12]
ARM GAS  /var/folders/d2/nstgp4h54kz7g1l847x_b8wc0000gn/T//cc3fOn4s.s 			page 28


 1340 001e FFF7FEFF 		bl	chprintf
 1341 0022 2749     		ldr	r1, .L95+8
 1342 0024 F868     		ldr	r0, [r7, #12]
 1343 0026 FFF7FEFF 		bl	chprintf
 1344 002a 2649     		ldr	r1, .L95+12
 1345 002c F868     		ldr	r0, [r7, #12]
 1346 002e FFF7FEFF 		bl	chprintf
 1347 0032 2549     		ldr	r1, .L95+16
 1348 0034 F868     		ldr	r0, [r7, #12]
 1349 0036 FFF7FEFF 		bl	chprintf
 1350 003a 2449     		ldr	r1, .L95+20
 1351 003c F868     		ldr	r0, [r7, #12]
 1352 003e FFF7FEFF 		bl	chprintf
 1353 0042 2349     		ldr	r1, .L95+24
 1354 0044 F868     		ldr	r0, [r7, #12]
 1355 0046 FFF7FEFF 		bl	chprintf
 1356 004a 2249     		ldr	r1, .L95+28
 1357 004c F868     		ldr	r0, [r7, #12]
 1358 004e FFF7FEFF 		bl	chprintf
 1359 0052 2149     		ldr	r1, .L95+32
 1360 0054 F868     		ldr	r0, [r7, #12]
 1361 0056 FFF7FEFF 		bl	chprintf
 1362 005a 2049     		ldr	r1, .L95+36
 1363 005c F868     		ldr	r0, [r7, #12]
 1364 005e FFF7FEFF 		bl	chprintf
 1365 0062 1F49     		ldr	r1, .L95+40
 1366 0064 F868     		ldr	r0, [r7, #12]
 1367 0066 FFF7FEFF 		bl	chprintf
 1368 006a 1E49     		ldr	r1, .L95+44
 1369 006c F868     		ldr	r0, [r7, #12]
 1370 006e FFF7FEFF 		bl	chprintf
 1371 0072 1D49     		ldr	r1, .L95+48
 1372 0074 F868     		ldr	r0, [r7, #12]
 1373 0076 FFF7FEFF 		bl	chprintf
 1374 007a 1C49     		ldr	r1, .L95+52
 1375 007c F868     		ldr	r0, [r7, #12]
 1376 007e FFF7FEFF 		bl	chprintf
 1377 0082 1B49     		ldr	r1, .L95+56
 1378 0084 F868     		ldr	r0, [r7, #12]
 1379 0086 FFF7FEFF 		bl	chprintf
 1380 008a 1A49     		ldr	r1, .L95+60
 1381 008c F868     		ldr	r0, [r7, #12]
 1382 008e FFF7FEFF 		bl	chprintf
 1383 0092 0DE0     		b	.L92
 1384              	.L93:
 1385 0094 7B68     		ldr	r3, [r7, #4]
 1386 0096 1B68     		ldr	r3, [r3]
 1387 0098 1846     		mov	r0, r3
 1388 009a FFF7FEFF 		bl	atoi
 1389 009e 0346     		mov	r3, r0
 1390 00a0 DBB2     		uxtb	r3, r3
 1391 00a2 013B     		subs	r3, r3, #1
 1392 00a4 DBB2     		uxtb	r3, r3
 1393 00a6 0022     		movs	r2, #0
 1394 00a8 0221     		movs	r1, #2
 1395 00aa 1846     		mov	r0, r3
 1396 00ac FFF7FEFF 		bl	playMelody
ARM GAS  /var/folders/d2/nstgp4h54kz7g1l847x_b8wc0000gn/T//cc3fOn4s.s 			page 29


 1397              	.L92:
 1398 00b0 1037     		adds	r7, r7, #16
 1399 00b2 BD46     		mov	sp, r7
 1400              		@ sp needed
 1401 00b4 80BD     		pop	{r7, pc}
 1402              	.L96:
 1403 00b6 00BF     		.align	2
 1404              	.L95:
 1405 00b8 24040000 		.word	.LC39
 1406 00bc 48040000 		.word	.LC40
 1407 00c0 60040000 		.word	.LC41
 1408 00c4 7C040000 		.word	.LC42
 1409 00c8 98040000 		.word	.LC43
 1410 00cc A8040000 		.word	.LC44
 1411 00d0 B4040000 		.word	.LC45
 1412 00d4 C8040000 		.word	.LC46
 1413 00d8 DC040000 		.word	.LC47
 1414 00dc F0040000 		.word	.LC48
 1415 00e0 04050000 		.word	.LC49
 1416 00e4 14050000 		.word	.LC50
 1417 00e8 34050000 		.word	.LC51
 1418 00ec 44050000 		.word	.LC52
 1419 00f0 54050000 		.word	.LC53
 1420 00f4 68050000 		.word	.LC54
 1421              		.size	cmd_melody_play, .-cmd_melody_play
 1422              		.section	.text.cmd_melody_stop,"ax",%progbits
 1423              		.align	1
 1424              		.syntax unified
 1425              		.thumb
 1426              		.thumb_func
 1427              		.fpu fpv4-sp-d16
 1428              		.type	cmd_melody_stop, %function
 1429              	cmd_melody_stop:
 1430              		@ args = 0, pretend = 0, frame = 16
 1431              		@ frame_needed = 1, uses_anonymous_args = 0
 1432 0000 80B5     		push	{r7, lr}
 1433 0002 84B0     		sub	sp, sp, #16
 1434 0004 00AF     		add	r7, sp, #0
 1435 0006 F860     		str	r0, [r7, #12]
 1436 0008 B960     		str	r1, [r7, #8]
 1437 000a 7A60     		str	r2, [r7, #4]
 1438 000c FFF7FEFF 		bl	stopCurrentMelody
 1439 0010 00BF     		nop
 1440 0012 1037     		adds	r7, r7, #16
 1441 0014 BD46     		mov	sp, r7
 1442              		@ sp needed
 1443 0016 80BD     		pop	{r7, pc}
 1444              		.size	cmd_melody_stop, .-cmd_melody_stop
 1445              		.section	.rodata
 1446              		.align	2
 1447              	.LC55:
 1448 0580 55736167 		.ascii	"Usage: mem\015\012\000"
 1448      653A206D 
 1448      656D0D0A 
 1448      00
 1449 058d 000000   		.align	2
 1450              	.LC56:
ARM GAS  /var/folders/d2/nstgp4h54kz7g1l847x_b8wc0000gn/T//cc3fOn4s.s 			page 30


 1451 0590 636F7265 		.ascii	"core free memory : %u bytes\015\012\000"
 1451      20667265 
 1451      65206D65 
 1451      6D6F7279 
 1451      203A2025 
 1452 05ae 0000     		.align	2
 1453              	.LC57:
 1454 05b0 68656170 		.ascii	"heap fragments     : %u\015\012\000"
 1454      20667261 
 1454      676D656E 
 1454      74732020 
 1454      2020203A 
 1455 05ca 0000     		.align	2
 1456              	.LC58:
 1457 05cc 68656170 		.ascii	"heap free total    : %u bytes\015\012\000"
 1457      20667265 
 1457      6520746F 
 1457      74616C20 
 1457      2020203A 
 1458              		.section	.text.cmd_mem,"ax",%progbits
 1459              		.align	1
 1460              		.syntax unified
 1461              		.thumb
 1462              		.thumb_func
 1463              		.fpu fpv4-sp-d16
 1464              		.type	cmd_mem, %function
 1465              	cmd_mem:
 1466              		@ args = 0, pretend = 0, frame = 24
 1467              		@ frame_needed = 1, uses_anonymous_args = 0
 1468 0000 80B5     		push	{r7, lr}
 1469 0002 86B0     		sub	sp, sp, #24
 1470 0004 00AF     		add	r7, sp, #0
 1471 0006 F860     		str	r0, [r7, #12]
 1472 0008 B960     		str	r1, [r7, #8]
 1473 000a 7A60     		str	r2, [r7, #4]
 1474 000c BB68     		ldr	r3, [r7, #8]
 1475 000e 002B     		cmp	r3, #0
 1476 0010 04DD     		ble	.L99
 1477 0012 1149     		ldr	r1, .L101
 1478 0014 F868     		ldr	r0, [r7, #12]
 1479 0016 FFF7FEFF 		bl	chprintf
 1480 001a 19E0     		b	.L98
 1481              	.L99:
 1482 001c 07F11003 		add	r3, r7, #16
 1483 0020 1946     		mov	r1, r3
 1484 0022 0020     		movs	r0, #0
 1485 0024 FFF7FEFF 		bl	chHeapStatus
 1486 0028 7861     		str	r0, [r7, #20]
 1487 002a FFF7FEFF 		bl	chCoreGetStatusX
 1488 002e 0346     		mov	r3, r0
 1489 0030 1A46     		mov	r2, r3
 1490 0032 0A49     		ldr	r1, .L101+4
 1491 0034 F868     		ldr	r0, [r7, #12]
 1492 0036 FFF7FEFF 		bl	chprintf
 1493 003a 7A69     		ldr	r2, [r7, #20]
 1494 003c 0849     		ldr	r1, .L101+8
 1495 003e F868     		ldr	r0, [r7, #12]
ARM GAS  /var/folders/d2/nstgp4h54kz7g1l847x_b8wc0000gn/T//cc3fOn4s.s 			page 31


 1496 0040 FFF7FEFF 		bl	chprintf
 1497 0044 3B69     		ldr	r3, [r7, #16]
 1498 0046 1A46     		mov	r2, r3
 1499 0048 0649     		ldr	r1, .L101+12
 1500 004a F868     		ldr	r0, [r7, #12]
 1501 004c FFF7FEFF 		bl	chprintf
 1502              	.L98:
 1503 0050 1837     		adds	r7, r7, #24
 1504 0052 BD46     		mov	sp, r7
 1505              		@ sp needed
 1506 0054 80BD     		pop	{r7, pc}
 1507              	.L102:
 1508 0056 00BF     		.align	2
 1509              	.L101:
 1510 0058 80050000 		.word	.LC55
 1511 005c 90050000 		.word	.LC56
 1512 0060 B0050000 		.word	.LC57
 1513 0064 CC050000 		.word	.LC58
 1514              		.size	cmd_mem, .-cmd_mem
 1515              		.section	.rodata
 1516              		.align	2
 1517              	.LC59:
 1518 05ec 55736167 		.ascii	"Usage: threads\015\012\000"
 1518      653A2074 
 1518      68726561 
 1518      64730D0A 
 1518      00
 1519 05fd 000000   		.align	2
 1520              	.LC60:
 1521 0600 20202020 		.ascii	"        addr        stack prio refs         state\015"
 1521      20202020 
 1521      61646472 
 1521      20202020 
 1521      20202020 
 1522 0632 0A00     		.ascii	"\012\000"
 1523              		.align	2
 1524              	.LC61:
 1525 0634 2530386C 		.ascii	"%08lx %08lx %4lu %4lu %9s\015\012\000"
 1525      78202530 
 1525      386C7820 
 1525      25346C75 
 1525      2025346C 
 1526              		.section	.text.cmd_threads,"ax",%progbits
 1527              		.align	1
 1528              		.syntax unified
 1529              		.thumb
 1530              		.thumb_func
 1531              		.fpu fpv4-sp-d16
 1532              		.type	cmd_threads, %function
 1533              	cmd_threads:
 1534              		@ args = 0, pretend = 0, frame = 24
 1535              		@ frame_needed = 1, uses_anonymous_args = 0
 1536 0000 B0B5     		push	{r4, r5, r7, lr}
 1537 0002 8AB0     		sub	sp, sp, #40
 1538 0004 04AF     		add	r7, sp, #16
 1539 0006 F860     		str	r0, [r7, #12]
 1540 0008 B960     		str	r1, [r7, #8]
ARM GAS  /var/folders/d2/nstgp4h54kz7g1l847x_b8wc0000gn/T//cc3fOn4s.s 			page 32


 1541 000a 7A60     		str	r2, [r7, #4]
 1542 000c BB68     		ldr	r3, [r7, #8]
 1543 000e 002B     		cmp	r3, #0
 1544 0010 04DD     		ble	.L104
 1545 0012 1849     		ldr	r1, .L107
 1546 0014 F868     		ldr	r0, [r7, #12]
 1547 0016 FFF7FEFF 		bl	chprintf
 1548 001a 28E0     		b	.L103
 1549              	.L104:
 1550 001c 1649     		ldr	r1, .L107+4
 1551 001e F868     		ldr	r0, [r7, #12]
 1552 0020 FFF7FEFF 		bl	chprintf
 1553 0024 FFF7FEFF 		bl	chRegFirstThread
 1554 0028 7861     		str	r0, [r7, #20]
 1555              	.L106:
 1556 002a 7969     		ldr	r1, [r7, #20]
 1557 002c 7B69     		ldr	r3, [r7, #20]
 1558 002e DB68     		ldr	r3, [r3, #12]
 1559 0030 1D46     		mov	r5, r3
 1560 0032 7B69     		ldr	r3, [r7, #20]
 1561 0034 9B68     		ldr	r3, [r3, #8]
 1562 0036 7A69     		ldr	r2, [r7, #20]
 1563 0038 92F82220 		ldrb	r2, [r2, #34]	@ zero_extendqisi2
 1564 003c 013A     		subs	r2, r2, #1
 1565 003e 1046     		mov	r0, r2
 1566 0040 7A69     		ldr	r2, [r7, #20]
 1567 0042 92F82020 		ldrb	r2, [r2, #32]	@ zero_extendqisi2
 1568 0046 1446     		mov	r4, r2
 1569 0048 0C4A     		ldr	r2, .L107+8
 1570 004a 52F82420 		ldr	r2, [r2, r4, lsl #2]
 1571 004e 0292     		str	r2, [sp, #8]
 1572 0050 0190     		str	r0, [sp, #4]
 1573 0052 0093     		str	r3, [sp]
 1574 0054 2B46     		mov	r3, r5
 1575 0056 0A46     		mov	r2, r1
 1576 0058 0949     		ldr	r1, .L107+12
 1577 005a F868     		ldr	r0, [r7, #12]
 1578 005c FFF7FEFF 		bl	chprintf
 1579 0060 7869     		ldr	r0, [r7, #20]
 1580 0062 FFF7FEFF 		bl	chRegNextThread
 1581 0066 7861     		str	r0, [r7, #20]
 1582 0068 7B69     		ldr	r3, [r7, #20]
 1583 006a 002B     		cmp	r3, #0
 1584 006c DDD1     		bne	.L106
 1585              	.L103:
 1586 006e 1837     		adds	r7, r7, #24
 1587 0070 BD46     		mov	sp, r7
 1588              		@ sp needed
 1589 0072 B0BD     		pop	{r4, r5, r7, pc}
 1590              	.L108:
 1591              		.align	2
 1592              	.L107:
 1593 0074 EC050000 		.word	.LC59
 1594 0078 00060000 		.word	.LC60
 1595 007c 00000000 		.word	states.13510
 1596 0080 34060000 		.word	.LC61
 1597              		.size	cmd_threads, .-cmd_threads
ARM GAS  /var/folders/d2/nstgp4h54kz7g1l847x_b8wc0000gn/T//cc3fOn4s.s 			page 33


 1598              		.section	.rodata
 1599              		.align	2
 1600              	.LC62:
 1601 0650 55736167 		.ascii	"Usage: test\015\012\000"
 1601      653A2074 
 1601      6573740D 
 1601      0A00
 1602 065e 0000     		.align	2
 1603              	.LC63:
 1604 0660 6F757420 		.ascii	"out of memory\015\012\000"
 1604      6F66206D 
 1604      656D6F72 
 1604      790D0A00 
 1605              		.section	.text.cmd_test,"ax",%progbits
 1606              		.align	1
 1607              		.syntax unified
 1608              		.thumb
 1609              		.thumb_func
 1610              		.fpu fpv4-sp-d16
 1611              		.type	cmd_test, %function
 1612              	cmd_test:
 1613              		@ args = 0, pretend = 0, frame = 24
 1614              		@ frame_needed = 1, uses_anonymous_args = 0
 1615 0000 80B5     		push	{r7, lr}
 1616 0002 88B0     		sub	sp, sp, #32
 1617 0004 02AF     		add	r7, sp, #8
 1618 0006 F860     		str	r0, [r7, #12]
 1619 0008 B960     		str	r1, [r7, #8]
 1620 000a 7A60     		str	r2, [r7, #4]
 1621 000c BB68     		ldr	r3, [r7, #8]
 1622 000e 002B     		cmp	r3, #0
 1623 0010 04DD     		ble	.L110
 1624 0012 0F49     		ldr	r1, .L113
 1625 0014 F868     		ldr	r0, [r7, #12]
 1626 0016 FFF7FEFF 		bl	chprintf
 1627 001a 16E0     		b	.L109
 1628              	.L110:
 1629 001c FFF7FEFF 		bl	chThdGetPriorityX
 1630 0020 0246     		mov	r2, r0
 1631 0022 FB68     		ldr	r3, [r7, #12]
 1632 0024 0093     		str	r3, [sp]
 1633 0026 0B4B     		ldr	r3, .L113+4
 1634 0028 4FF41E71 		mov	r1, #632
 1635 002c 0020     		movs	r0, #0
 1636 002e FFF7FEFF 		bl	chThdCreateFromHeap
 1637 0032 7861     		str	r0, [r7, #20]
 1638 0034 7B69     		ldr	r3, [r7, #20]
 1639 0036 002B     		cmp	r3, #0
 1640 0038 04D1     		bne	.L112
 1641 003a 0749     		ldr	r1, .L113+8
 1642 003c F868     		ldr	r0, [r7, #12]
 1643 003e FFF7FEFF 		bl	chprintf
 1644 0042 02E0     		b	.L109
 1645              	.L112:
 1646 0044 7869     		ldr	r0, [r7, #20]
 1647 0046 FFF7FEFF 		bl	chThdWait
 1648              	.L109:
ARM GAS  /var/folders/d2/nstgp4h54kz7g1l847x_b8wc0000gn/T//cc3fOn4s.s 			page 34


 1649 004a 1837     		adds	r7, r7, #24
 1650 004c BD46     		mov	sp, r7
 1651              		@ sp needed
 1652 004e 80BD     		pop	{r7, pc}
 1653              	.L114:
 1654              		.align	2
 1655              	.L113:
 1656 0050 50060000 		.word	.LC62
 1657 0054 00000000 		.word	TestThread
 1658 0058 60060000 		.word	.LC63
 1659              		.size	cmd_test, .-cmd_test
 1660              		.section	.rodata
 1661              		.align	2
 1662              	.LC64:
 1663 0670 53595343 		.ascii	"SYSCLK: %i \012 HCLK: %i \012 PCLK1  %i \012 PCLK2 "
 1663      4C4B3A20 
 1663      2569200A 
 1663      2048434C 
 1663      4B3A2025 
 1664 069a 2569200A 		.ascii	"%i \012\000"
 1664      00
 1665              		.section	.text.cmd_readclock,"ax",%progbits
 1666              		.align	1
 1667              		.syntax unified
 1668              		.thumb
 1669              		.thumb_func
 1670              		.fpu fpv4-sp-d16
 1671              		.type	cmd_readclock, %function
 1672              	cmd_readclock:
 1673              		@ args = 0, pretend = 0, frame = 16
 1674              		@ frame_needed = 1, uses_anonymous_args = 0
 1675 0000 80B5     		push	{r7, lr}
 1676 0002 86B0     		sub	sp, sp, #24
 1677 0004 02AF     		add	r7, sp, #8
 1678 0006 F860     		str	r0, [r7, #12]
 1679 0008 B960     		str	r1, [r7, #8]
 1680 000a 7A60     		str	r2, [r7, #4]
 1681 000c 064B     		ldr	r3, .L116
 1682 000e 0193     		str	r3, [sp, #4]
 1683 0010 064B     		ldr	r3, .L116+4
 1684 0012 0093     		str	r3, [sp]
 1685 0014 064B     		ldr	r3, .L116+8
 1686 0016 064A     		ldr	r2, .L116+8
 1687 0018 0649     		ldr	r1, .L116+12
 1688 001a F868     		ldr	r0, [r7, #12]
 1689 001c FFF7FEFF 		bl	chprintf
 1690 0020 00BF     		nop
 1691 0022 1037     		adds	r7, r7, #16
 1692 0024 BD46     		mov	sp, r7
 1693              		@ sp needed
 1694 0026 80BD     		pop	{r7, pc}
 1695              	.L117:
 1696              		.align	2
 1697              	.L116:
 1698 0028 00BD0105 		.word	84000000
 1699 002c 80DE8002 		.word	42000000
 1700 0030 007A030A 		.word	168000000
ARM GAS  /var/folders/d2/nstgp4h54kz7g1l847x_b8wc0000gn/T//cc3fOn4s.s 			page 35


 1701 0034 70060000 		.word	.LC64
 1702              		.size	cmd_readclock, .-cmd_readclock
 1703              		.section	.rodata
 1704 069f 00       		.align	2
 1705              	.LC65:
 1706 06a0 55736167 		.ascii	"Usage: sqrt mode int\015\012Modes: a (aseba), b (ma"
 1706      653A2073 
 1706      71727420 
 1706      6D6F6465 
 1706      20696E74 
 1707 06cd 7468292C 		.ascii	"th), c (assembler) is default mode\015\012\000"
 1707      20632028 
 1707      61737365 
 1707      6D626C65 
 1707      72292069 
 1708 06f2 0000     		.align	2
 1709              	.LC66:
 1710 06f4 6100     		.ascii	"a\000"
 1711 06f6 0000     		.align	2
 1712              	.LC67:
 1713 06f8 6200     		.ascii	"b\000"
 1714 06fa 0000     		.align	2
 1715              	.LC68:
 1716 06fc 73717274 		.ascii	"sqrt(%u) = %u \015\012\000"
 1716      28257529 
 1716      203D2025 
 1716      75200D0A 
 1716      00
 1717 070d 000000   		.align	2
 1718              	.LC69:
 1719 0710 74696D65 		.ascii	"time: %u \015\012\000"
 1719      3A202575 
 1719      200D0A00 
 1720              		.section	.text.cmd_sqrt,"ax",%progbits
 1721              		.align	1
 1722              		.syntax unified
 1723              		.thumb
 1724              		.thumb_func
 1725              		.fpu fpv4-sp-d16
 1726              		.type	cmd_sqrt, %function
 1727              	cmd_sqrt:
 1728              		@ args = 0, pretend = 0, frame = 48
 1729              		@ frame_needed = 1, uses_anonymous_args = 0
 1730 0000 80B5     		push	{r7, lr}
 1731 0002 8CB0     		sub	sp, sp, #48
 1732 0004 00AF     		add	r7, sp, #0
 1733 0006 F860     		str	r0, [r7, #12]
 1734 0008 B960     		str	r1, [r7, #8]
 1735 000a 7A60     		str	r2, [r7, #4]
 1736 000c 07F11003 		add	r3, r7, #16
 1737 0010 1846     		mov	r0, r3
 1738 0012 FFF7FEFF 		bl	chTMObjectInit
 1739 0016 BB68     		ldr	r3, [r7, #8]
 1740 0018 022B     		cmp	r3, #2
 1741 001a 04D0     		beq	.L119
 1742 001c 4349     		ldr	r1, .L125
 1743 001e F868     		ldr	r0, [r7, #12]
ARM GAS  /var/folders/d2/nstgp4h54kz7g1l847x_b8wc0000gn/T//cc3fOn4s.s 			page 36


 1744 0020 FFF7FEFF 		bl	chprintf
 1745 0024 7DE0     		b	.L124
 1746              	.L119:
 1747 0026 7B68     		ldr	r3, [r7, #4]
 1748 0028 0433     		adds	r3, r3, #4
 1749 002a 1B68     		ldr	r3, [r3]
 1750 002c 1846     		mov	r0, r3
 1751 002e FFF7FEFF 		bl	atoi
 1752 0032 0346     		mov	r3, r0
 1753 0034 BB85     		strh	r3, [r7, #44]	@ movhi
 1754 0036 7B68     		ldr	r3, [r7, #4]
 1755 0038 1B68     		ldr	r3, [r3]
 1756 003a 3D49     		ldr	r1, .L125+4
 1757 003c 1846     		mov	r0, r3
 1758 003e FFF7FEFF 		bl	strcmp
 1759 0042 0346     		mov	r3, r0
 1760 0044 002B     		cmp	r3, #0
 1761 0046 15D1     		bne	.L121
 1762 0048 FFF7FEFF 		bl	chSysLock
 1763 004c 07F11003 		add	r3, r7, #16
 1764 0050 1846     		mov	r0, r3
 1765 0052 FFF7FEFF 		bl	chTMStartMeasurementX
 1766 0056 B7F92C30 		ldrsh	r3, [r7, #44]
 1767 005a 1846     		mov	r0, r3
 1768 005c FFF7FEFF 		bl	aseba_sqrt
 1769 0060 0346     		mov	r3, r0
 1770 0062 FB85     		strh	r3, [r7, #46]	@ movhi
 1771 0064 07F11003 		add	r3, r7, #16
 1772 0068 1846     		mov	r0, r3
 1773 006a FFF7FEFF 		bl	chTMStopMeasurementX
 1774 006e FFF7FEFF 		bl	chSysUnlock
 1775 0072 4AE0     		b	.L122
 1776              	.L121:
 1777 0074 7B68     		ldr	r3, [r7, #4]
 1778 0076 1B68     		ldr	r3, [r3]
 1779 0078 2E49     		ldr	r1, .L125+8
 1780 007a 1846     		mov	r0, r3
 1781 007c FFF7FEFF 		bl	strcmp
 1782 0080 0346     		mov	r3, r0
 1783 0082 002B     		cmp	r3, #0
 1784 0084 1ED1     		bne	.L123
 1785 0086 FFF7FEFF 		bl	chSysLock
 1786 008a 07F11003 		add	r3, r7, #16
 1787 008e 1846     		mov	r0, r3
 1788 0090 FFF7FEFF 		bl	chTMStartMeasurementX
 1789 0094 BB8D     		ldrh	r3, [r7, #44]
 1790 0096 07EE903A 		vmov	s15, r3	@ int
 1791 009a F8EE677A 		vcvt.f32.u32	s15, s15
 1792 009e B0EE670A 		vmov.f32	s0, s15
 1793 00a2 FFF7FEFF 		bl	sqrtf
 1794 00a6 F0EE407A 		vmov.f32	s15, s0
 1795 00aa FCEEE77A 		vcvt.u32.f32	s15, s15
 1796 00ae 17EE903A 		vmov	r3, s15	@ int
 1797 00b2 FB85     		strh	r3, [r7, #46]	@ movhi
 1798 00b4 07F11003 		add	r3, r7, #16
 1799 00b8 1846     		mov	r0, r3
 1800 00ba FFF7FEFF 		bl	chTMStopMeasurementX
ARM GAS  /var/folders/d2/nstgp4h54kz7g1l847x_b8wc0000gn/T//cc3fOn4s.s 			page 37


 1801 00be FFF7FEFF 		bl	chSysUnlock
 1802 00c2 22E0     		b	.L122
 1803              	.L123:
 1804 00c4 FFF7FEFF 		bl	chSysLock
 1805 00c8 07F11003 		add	r3, r7, #16
 1806 00cc 1846     		mov	r0, r3
 1807 00ce FFF7FEFF 		bl	chTMStartMeasurementX
 1808 00d2 BB8D     		ldrh	r3, [r7, #44]
 1809 00d4 07EE903A 		vmov	s15, r3	@ int
 1810 00d8 F8EE677A 		vcvt.f32.u32	s15, s15
 1811 00dc C7ED0A7A 		vstr.32	s15, [r7, #40]
 1812 00e0 BB6A     		ldr	r3, [r7, #40]	@ float
 1813 00e2 07EE903A 		vmov	s15, r3
 1814              		.syntax unified
 1815              	@ 446 "../e-puck2_main-processor/src/cmd.c" 1
 1816 00e6 F1EEE77A 		vsqrt.f32 s15, s15
 1817              	@ 0 "" 2
 1818              		.thumb
 1819              		.syntax unified
 1820 00ea C7ED0A7A 		vstr.32	s15, [r7, #40]
 1821 00ee D7ED0A7A 		vldr.32	s15, [r7, #40]
 1822 00f2 FCEEE77A 		vcvt.u32.f32	s15, s15
 1823 00f6 17EE903A 		vmov	r3, s15	@ int
 1824 00fa FB85     		strh	r3, [r7, #46]	@ movhi
 1825 00fc 07F11003 		add	r3, r7, #16
 1826 0100 1846     		mov	r0, r3
 1827 0102 FFF7FEFF 		bl	chTMStopMeasurementX
 1828 0106 FFF7FEFF 		bl	chSysUnlock
 1829              	.L122:
 1830 010a BA8D     		ldrh	r2, [r7, #44]
 1831 010c FB8D     		ldrh	r3, [r7, #46]
 1832 010e 0A49     		ldr	r1, .L125+12
 1833 0110 F868     		ldr	r0, [r7, #12]
 1834 0112 FFF7FEFF 		bl	chprintf
 1835 0116 BB69     		ldr	r3, [r7, #24]
 1836 0118 1A46     		mov	r2, r3
 1837 011a 0849     		ldr	r1, .L125+16
 1838 011c F868     		ldr	r0, [r7, #12]
 1839 011e FFF7FEFF 		bl	chprintf
 1840              	.L124:
 1841 0122 00BF     		nop
 1842 0124 3037     		adds	r7, r7, #48
 1843 0126 BD46     		mov	sp, r7
 1844              		@ sp needed
 1845 0128 80BD     		pop	{r7, pc}
 1846              	.L126:
 1847 012a 00BF     		.align	2
 1848              	.L125:
 1849 012c A0060000 		.word	.LC65
 1850 0130 F4060000 		.word	.LC66
 1851 0134 F8060000 		.word	.LC67
 1852 0138 FC060000 		.word	.LC68
 1853 013c 10070000 		.word	.LC69
 1854              		.size	cmd_sqrt, .-cmd_sqrt
 1855              		.section	.rodata
 1856              		.align	2
 1857              	.LC70:
ARM GAS  /var/folders/d2/nstgp4h54kz7g1l847x_b8wc0000gn/T//cc3fOn4s.s 			page 38


 1858 071c 55736167 		.ascii	"Usage: atan2 mode a b\015\012Modes: a (aseba), b (m"
 1858      653A2061 
 1858      74616E32 
 1858      206D6F64 
 1858      65206120 
 1859 0749 61746829 		.ascii	"ath) is default mode\015\012\000"
 1859      20697320 
 1859      64656661 
 1859      756C7420 
 1859      6D6F6465 
 1860              		.align	2
 1861              	.LC71:
 1862 0760 6174616E 		.ascii	"atan2(%d, %d) = %d \015\012\000"
 1862      32282564 
 1862      2C202564 
 1862      29203D20 
 1862      2564200D 
 1863              		.section	.text.cmd_atan2,"ax",%progbits
 1864              		.align	1
 1865              		.syntax unified
 1866              		.thumb
 1867              		.thumb_func
 1868              		.fpu fpv4-sp-d16
 1869              		.type	cmd_atan2, %function
 1870              	cmd_atan2:
 1871              		@ args = 0, pretend = 0, frame = 48
 1872              		@ frame_needed = 1, uses_anonymous_args = 0
 1873 0000 80B5     		push	{r7, lr}
 1874 0002 8EB0     		sub	sp, sp, #56
 1875 0004 02AF     		add	r7, sp, #8
 1876 0006 F860     		str	r0, [r7, #12]
 1877 0008 B960     		str	r1, [r7, #8]
 1878 000a 7A60     		str	r2, [r7, #4]
 1879 000c 07F11003 		add	r3, r7, #16
 1880 0010 1846     		mov	r0, r3
 1881 0012 FFF7FEFF 		bl	chTMObjectInit
 1882 0016 BB68     		ldr	r3, [r7, #8]
 1883 0018 032B     		cmp	r3, #3
 1884 001a 04D0     		beq	.L128
 1885 001c 3D49     		ldr	r1, .L133
 1886 001e F868     		ldr	r0, [r7, #12]
 1887 0020 FFF7FEFF 		bl	chprintf
 1888 0024 72E0     		b	.L132
 1889              	.L128:
 1890 0026 7B68     		ldr	r3, [r7, #4]
 1891 0028 0433     		adds	r3, r3, #4
 1892 002a 1B68     		ldr	r3, [r3]
 1893 002c 1846     		mov	r0, r3
 1894 002e FFF7FEFF 		bl	atoi
 1895 0032 0346     		mov	r3, r0
 1896 0034 BB85     		strh	r3, [r7, #44]	@ movhi
 1897 0036 7B68     		ldr	r3, [r7, #4]
 1898 0038 0833     		adds	r3, r3, #8
 1899 003a 1B68     		ldr	r3, [r3]
 1900 003c 1846     		mov	r0, r3
 1901 003e FFF7FEFF 		bl	atoi
 1902 0042 0346     		mov	r3, r0
ARM GAS  /var/folders/d2/nstgp4h54kz7g1l847x_b8wc0000gn/T//cc3fOn4s.s 			page 39


 1903 0044 7B85     		strh	r3, [r7, #42]	@ movhi
 1904 0046 7B68     		ldr	r3, [r7, #4]
 1905 0048 1B68     		ldr	r3, [r3]
 1906 004a 3349     		ldr	r1, .L133+4
 1907 004c 1846     		mov	r0, r3
 1908 004e FFF7FEFF 		bl	strcmp
 1909 0052 0346     		mov	r3, r0
 1910 0054 002B     		cmp	r3, #0
 1911 0056 18D1     		bne	.L130
 1912 0058 FFF7FEFF 		bl	chSysLock
 1913 005c 07F11003 		add	r3, r7, #16
 1914 0060 1846     		mov	r0, r3
 1915 0062 FFF7FEFF 		bl	chTMStartMeasurementX
 1916 0066 B7F92A20 		ldrsh	r2, [r7, #42]
 1917 006a B7F92C30 		ldrsh	r3, [r7, #44]
 1918 006e 1146     		mov	r1, r2
 1919 0070 1846     		mov	r0, r3
 1920 0072 FFF7FEFF 		bl	aseba_atan2
 1921 0076 0346     		mov	r3, r0
 1922 0078 FB85     		strh	r3, [r7, #46]	@ movhi
 1923 007a 07F11003 		add	r3, r7, #16
 1924 007e 1846     		mov	r0, r3
 1925 0080 FFF7FEFF 		bl	chTMStopMeasurementX
 1926 0084 FFF7FEFF 		bl	chSysUnlock
 1927 0088 2EE0     		b	.L131
 1928              	.L130:
 1929 008a FFF7FEFF 		bl	chSysLock
 1930 008e 07F11003 		add	r3, r7, #16
 1931 0092 1846     		mov	r0, r3
 1932 0094 FFF7FEFF 		bl	chTMStartMeasurementX
 1933 0098 B7F92C30 		ldrsh	r3, [r7, #44]
 1934 009c 07EE903A 		vmov	s15, r3	@ int
 1935 00a0 F8EEE77A 		vcvt.f32.s32	s15, s15
 1936 00a4 B7F92A30 		ldrsh	r3, [r7, #42]
 1937 00a8 07EE103A 		vmov	s14, r3	@ int
 1938 00ac B8EEC77A 		vcvt.f32.s32	s14, s14
 1939 00b0 F0EE470A 		vmov.f32	s1, s14
 1940 00b4 B0EE670A 		vmov.f32	s0, s15
 1941 00b8 FFF7FEFF 		bl	atan2f
 1942 00bc B0EE407A 		vmov.f32	s14, s0
 1943 00c0 DFED167A 		vldr.32	s15, .L133+8
 1944 00c4 27EE277A 		vmul.f32	s14, s14, s15
 1945 00c8 DFED156A 		vldr.32	s13, .L133+12
 1946 00cc C7EE267A 		vdiv.f32	s15, s14, s13
 1947 00d0 FDEEE77A 		vcvt.s32.f32	s15, s15
 1948 00d4 17EE903A 		vmov	r3, s15	@ int
 1949 00d8 FB85     		strh	r3, [r7, #46]	@ movhi
 1950 00da 07F11003 		add	r3, r7, #16
 1951 00de 1846     		mov	r0, r3
 1952 00e0 FFF7FEFF 		bl	chTMStopMeasurementX
 1953 00e4 FFF7FEFF 		bl	chSysUnlock
 1954              	.L131:
 1955 00e8 B7F92C20 		ldrsh	r2, [r7, #44]
 1956 00ec B7F92A10 		ldrsh	r1, [r7, #42]
 1957 00f0 B7F92E30 		ldrsh	r3, [r7, #46]
 1958 00f4 0093     		str	r3, [sp]
 1959 00f6 0B46     		mov	r3, r1
ARM GAS  /var/folders/d2/nstgp4h54kz7g1l847x_b8wc0000gn/T//cc3fOn4s.s 			page 40


 1960 00f8 0A49     		ldr	r1, .L133+16
 1961 00fa F868     		ldr	r0, [r7, #12]
 1962 00fc FFF7FEFF 		bl	chprintf
 1963 0100 BB69     		ldr	r3, [r7, #24]
 1964 0102 1A46     		mov	r2, r3
 1965 0104 0849     		ldr	r1, .L133+20
 1966 0106 F868     		ldr	r0, [r7, #12]
 1967 0108 FFF7FEFF 		bl	chprintf
 1968              	.L132:
 1969 010c 00BF     		nop
 1970 010e 3037     		adds	r7, r7, #48
 1971 0110 BD46     		mov	sp, r7
 1972              		@ sp needed
 1973 0112 80BD     		pop	{r7, pc}
 1974              	.L134:
 1975              		.align	2
 1976              	.L133:
 1977 0114 1C070000 		.word	.LC70
 1978 0118 F4060000 		.word	.LC66
 1979 011c 00000047 		.word	1191182336
 1980 0120 DB0F4940 		.word	1078530011
 1981 0124 60070000 		.word	.LC71
 1982 0128 10070000 		.word	.LC69
 1983              		.size	cmd_atan2, .-cmd_atan2
 1984              		.section	.rodata
 1985 0776 0000     		.align	2
 1986              	.LC72:
 1987 0778 202000   		.ascii	"  \000"
 1988              		.section	.text.tree_indent,"ax",%progbits
 1989              		.align	1
 1990              		.syntax unified
 1991              		.thumb
 1992              		.thumb_func
 1993              		.fpu fpv4-sp-d16
 1994              		.type	tree_indent, %function
 1995              	tree_indent:
 1996              		@ args = 0, pretend = 0, frame = 16
 1997              		@ frame_needed = 1, uses_anonymous_args = 0
 1998 0000 80B5     		push	{r7, lr}
 1999 0002 84B0     		sub	sp, sp, #16
 2000 0004 00AF     		add	r7, sp, #0
 2001 0006 7860     		str	r0, [r7, #4]
 2002 0008 3960     		str	r1, [r7]
 2003 000a 0023     		movs	r3, #0
 2004 000c FB60     		str	r3, [r7, #12]
 2005 000e 06E0     		b	.L136
 2006              	.L137:
 2007 0010 0749     		ldr	r1, .L138
 2008 0012 7868     		ldr	r0, [r7, #4]
 2009 0014 FFF7FEFF 		bl	chprintf
 2010 0018 FB68     		ldr	r3, [r7, #12]
 2011 001a 0133     		adds	r3, r3, #1
 2012 001c FB60     		str	r3, [r7, #12]
 2013              	.L136:
 2014 001e FA68     		ldr	r2, [r7, #12]
 2015 0020 3B68     		ldr	r3, [r7]
 2016 0022 9A42     		cmp	r2, r3
ARM GAS  /var/folders/d2/nstgp4h54kz7g1l847x_b8wc0000gn/T//cc3fOn4s.s 			page 41


 2017 0024 F4DB     		blt	.L137
 2018 0026 00BF     		nop
 2019 0028 1037     		adds	r7, r7, #16
 2020 002a BD46     		mov	sp, r7
 2021              		@ sp needed
 2022 002c 80BD     		pop	{r7, pc}
 2023              	.L139:
 2024 002e 00BF     		.align	2
 2025              	.L138:
 2026 0030 78070000 		.word	.LC72
 2027              		.size	tree_indent, .-tree_indent
 2028              		.section	.rodata
 2029 077b 00       		.align	2
 2030              	.LC73:
 2031 077c 25733A0D 		.ascii	"%s:\015\012\000"
 2031      0A00
 2032              		.global	__aeabi_f2d
 2033 0782 0000     		.align	2
 2034              	.LC74:
 2035 0784 25733A20 		.ascii	"%s: %f\015\012\000"
 2035      25660D0A 
 2035      00
 2036 078d 000000   		.align	2
 2037              	.LC75:
 2038 0790 25733A20 		.ascii	"%s: %d\015\012\000"
 2038      25640D0A 
 2038      00
 2039 0799 000000   		.align	2
 2040              	.LC76:
 2041 079c 74727565 		.ascii	"true\000"
 2041      00
 2042 07a1 000000   		.align	2
 2043              	.LC77:
 2044 07a4 66616C73 		.ascii	"false\000"
 2044      6500
 2045 07aa 0000     		.align	2
 2046              	.LC78:
 2047 07ac 25733A20 		.ascii	"%s: %s\015\012\000"
 2047      25730D0A 
 2047      00
 2048 07b5 000000   		.align	2
 2049              	.LC79:
 2050 07b8 25733A20 		.ascii	"%s: unknown type %d\015\012\000"
 2050      756E6B6E 
 2050      6F776E20 
 2050      74797065 
 2050      2025640D 
 2051 07ce 0000     		.align	2
 2052              	.LC80:
 2053 07d0 25733A20 		.ascii	"%s: [not set]\015\012\000"
 2053      5B6E6F74 
 2053      20736574 
 2053      5D0D0A00 
 2054              		.section	.text.show_config_tree,"ax",%progbits
 2055              		.align	1
 2056              		.syntax unified
 2057              		.thumb
ARM GAS  /var/folders/d2/nstgp4h54kz7g1l847x_b8wc0000gn/T//cc3fOn4s.s 			page 42


 2058              		.thumb_func
 2059              		.fpu fpv4-sp-d16
 2060              		.type	show_config_tree, %function
 2061              	show_config_tree:
 2062              		@ args = 0, pretend = 0, frame = 88
 2063              		@ frame_needed = 1, uses_anonymous_args = 0
 2064 0000 B0B5     		push	{r4, r5, r7, lr}
 2065 0002 98B0     		sub	sp, sp, #96
 2066 0004 02AF     		add	r7, sp, #8
 2067 0006 F860     		str	r0, [r7, #12]
 2068 0008 B960     		str	r1, [r7, #8]
 2069 000a 7A60     		str	r2, [r7, #4]
 2070 000c 7968     		ldr	r1, [r7, #4]
 2071 000e F868     		ldr	r0, [r7, #12]
 2072 0010 FFF7FEFF 		bl	tree_indent
 2073 0014 BB68     		ldr	r3, [r7, #8]
 2074 0016 1B68     		ldr	r3, [r3]
 2075 0018 1A46     		mov	r2, r3
 2076 001a 4C49     		ldr	r1, .L157
 2077 001c F868     		ldr	r0, [r7, #12]
 2078 001e FFF7FEFF 		bl	chprintf
 2079 0022 BB68     		ldr	r3, [r7, #8]
 2080 0024 5B69     		ldr	r3, [r3, #20]
 2081 0026 7B65     		str	r3, [r7, #84]
 2082 0028 71E0     		b	.L141
 2083              	.L153:
 2084 002a 7B68     		ldr	r3, [r7, #4]
 2085 002c 0133     		adds	r3, r3, #1
 2086 002e 1946     		mov	r1, r3
 2087 0030 F868     		ldr	r0, [r7, #12]
 2088 0032 FFF7FEFF 		bl	tree_indent
 2089 0036 786D     		ldr	r0, [r7, #84]
 2090 0038 FFF7FEFF 		bl	parameter_defined
 2091 003c 0346     		mov	r3, r0
 2092 003e 002B     		cmp	r3, #0
 2093 0040 5BD0     		beq	.L142
 2094 0042 7B6D     		ldr	r3, [r7, #84]
 2095 0044 9B7B     		ldrb	r3, [r3, #14]	@ zero_extendqisi2
 2096 0046 013B     		subs	r3, r3, #1
 2097 0048 032B     		cmp	r3, #3
 2098 004a 4CD8     		bhi	.L143
 2099 004c 01A2     		adr	r2, .L145
 2100 004e 52F823F0 		ldr	pc, [r2, r3, lsl #2]
 2101 0052 00BF     		.p2align 2
 2102              	.L145:
 2103 0054 65000000 		.word	.L144+1
 2104 0058 A5000000 		.word	.L146+1
 2105 005c 8D000000 		.word	.L147+1
 2106 0060 C7000000 		.word	.L148+1
 2107              		.p2align 1
 2108              	.L144:
 2109 0064 7B6D     		ldr	r3, [r7, #84]
 2110 0066 1D68     		ldr	r5, [r3]
 2111 0068 786D     		ldr	r0, [r7, #84]
 2112 006a FFF7FEFF 		bl	parameter_scalar_get
 2113 006e 10EE103A 		vmov	r3, s0
 2114 0072 1846     		mov	r0, r3	@ float
ARM GAS  /var/folders/d2/nstgp4h54kz7g1l847x_b8wc0000gn/T//cc3fOn4s.s 			page 43


 2115 0074 FFF7FEFF 		bl	__aeabi_f2d
 2116 0078 0346     		mov	r3, r0
 2117 007a 0C46     		mov	r4, r1
 2118 007c CDE90034 		strd	r3, [sp]
 2119 0080 2A46     		mov	r2, r5
 2120 0082 3349     		ldr	r1, .L157+4
 2121 0084 F868     		ldr	r0, [r7, #12]
 2122 0086 FFF7FEFF 		bl	chprintf
 2123 008a 3DE0     		b	.L152
 2124              	.L147:
 2125 008c 7B6D     		ldr	r3, [r7, #84]
 2126 008e 1C68     		ldr	r4, [r3]
 2127 0090 786D     		ldr	r0, [r7, #84]
 2128 0092 FFF7FEFF 		bl	parameter_integer_get
 2129 0096 0346     		mov	r3, r0
 2130 0098 2246     		mov	r2, r4
 2131 009a 2E49     		ldr	r1, .L157+8
 2132 009c F868     		ldr	r0, [r7, #12]
 2133 009e FFF7FEFF 		bl	chprintf
 2134 00a2 31E0     		b	.L152
 2135              	.L146:
 2136 00a4 7B6D     		ldr	r3, [r7, #84]
 2137 00a6 1C68     		ldr	r4, [r3]
 2138 00a8 786D     		ldr	r0, [r7, #84]
 2139 00aa FFF7FEFF 		bl	parameter_boolean_get
 2140 00ae 0346     		mov	r3, r0
 2141 00b0 002B     		cmp	r3, #0
 2142 00b2 01D0     		beq	.L150
 2143 00b4 284B     		ldr	r3, .L157+12
 2144 00b6 00E0     		b	.L151
 2145              	.L150:
 2146 00b8 284B     		ldr	r3, .L157+16
 2147              	.L151:
 2148 00ba 2246     		mov	r2, r4
 2149 00bc 2849     		ldr	r1, .L157+20
 2150 00be F868     		ldr	r0, [r7, #12]
 2151 00c0 FFF7FEFF 		bl	chprintf
 2152 00c4 20E0     		b	.L152
 2153              	.L148:
 2154 00c6 07F11403 		add	r3, r7, #20
 2155 00ca 4022     		movs	r2, #64
 2156 00cc 1946     		mov	r1, r3
 2157 00ce 786D     		ldr	r0, [r7, #84]
 2158 00d0 FFF7FEFF 		bl	parameter_string_get
 2159 00d4 7B6D     		ldr	r3, [r7, #84]
 2160 00d6 1A68     		ldr	r2, [r3]
 2161 00d8 07F11403 		add	r3, r7, #20
 2162 00dc 2049     		ldr	r1, .L157+20
 2163 00de F868     		ldr	r0, [r7, #12]
 2164 00e0 FFF7FEFF 		bl	chprintf
 2165 00e4 10E0     		b	.L152
 2166              	.L143:
 2167 00e6 7B6D     		ldr	r3, [r7, #84]
 2168 00e8 1A68     		ldr	r2, [r3]
 2169 00ea 7B6D     		ldr	r3, [r7, #84]
 2170 00ec 9B7B     		ldrb	r3, [r3, #14]	@ zero_extendqisi2
 2171 00ee 1D49     		ldr	r1, .L157+24
ARM GAS  /var/folders/d2/nstgp4h54kz7g1l847x_b8wc0000gn/T//cc3fOn4s.s 			page 44


 2172 00f0 F868     		ldr	r0, [r7, #12]
 2173 00f2 FFF7FEFF 		bl	chprintf
 2174 00f6 00BF     		nop
 2175 00f8 06E0     		b	.L152
 2176              	.L142:
 2177 00fa 7B6D     		ldr	r3, [r7, #84]
 2178 00fc 1B68     		ldr	r3, [r3]
 2179 00fe 1A46     		mov	r2, r3
 2180 0100 1949     		ldr	r1, .L157+28
 2181 0102 F868     		ldr	r0, [r7, #12]
 2182 0104 FFF7FEFF 		bl	chprintf
 2183              	.L152:
 2184 0108 7B6D     		ldr	r3, [r7, #84]
 2185 010a 9B68     		ldr	r3, [r3, #8]
 2186 010c 7B65     		str	r3, [r7, #84]
 2187              	.L141:
 2188 010e 7B6D     		ldr	r3, [r7, #84]
 2189 0110 002B     		cmp	r3, #0
 2190 0112 8AD1     		bne	.L153
 2191 0114 BB68     		ldr	r3, [r7, #8]
 2192 0116 DB68     		ldr	r3, [r3, #12]
 2193 0118 002B     		cmp	r3, #0
 2194 011a 07D0     		beq	.L154
 2195 011c BB68     		ldr	r3, [r7, #8]
 2196 011e D968     		ldr	r1, [r3, #12]
 2197 0120 7B68     		ldr	r3, [r7, #4]
 2198 0122 0133     		adds	r3, r3, #1
 2199 0124 1A46     		mov	r2, r3
 2200 0126 F868     		ldr	r0, [r7, #12]
 2201 0128 FFF76AFF 		bl	show_config_tree
 2202              	.L154:
 2203 012c BB68     		ldr	r3, [r7, #8]
 2204 012e 1B69     		ldr	r3, [r3, #16]
 2205 0130 002B     		cmp	r3, #0
 2206 0132 06D0     		beq	.L156
 2207 0134 BB68     		ldr	r3, [r7, #8]
 2208 0136 1B69     		ldr	r3, [r3, #16]
 2209 0138 7A68     		ldr	r2, [r7, #4]
 2210 013a 1946     		mov	r1, r3
 2211 013c F868     		ldr	r0, [r7, #12]
 2212 013e FFF75FFF 		bl	show_config_tree
 2213              	.L156:
 2214 0142 00BF     		nop
 2215 0144 5837     		adds	r7, r7, #88
 2216 0146 BD46     		mov	sp, r7
 2217              		@ sp needed
 2218 0148 B0BD     		pop	{r4, r5, r7, pc}
 2219              	.L158:
 2220 014a 00BF     		.align	2
 2221              	.L157:
 2222 014c 7C070000 		.word	.LC73
 2223 0150 84070000 		.word	.LC74
 2224 0154 90070000 		.word	.LC75
 2225 0158 9C070000 		.word	.LC76
 2226 015c A4070000 		.word	.LC77
 2227 0160 AC070000 		.word	.LC78
 2228 0164 B8070000 		.word	.LC79
ARM GAS  /var/folders/d2/nstgp4h54kz7g1l847x_b8wc0000gn/T//cc3fOn4s.s 			page 45


 2229 0168 D0070000 		.word	.LC80
 2230              		.size	show_config_tree, .-show_config_tree
 2231              		.section	.rodata
 2232              		.align	2
 2233              	.LC81:
 2234 07e0 43616E6E 		.ascii	"Cannot find subtree.\015\012\000"
 2234      6F742066 
 2234      696E6420 
 2234      73756274 
 2234      7265652E 
 2235              		.section	.text.cmd_config_tree,"ax",%progbits
 2236              		.align	1
 2237              		.syntax unified
 2238              		.thumb
 2239              		.thumb_func
 2240              		.fpu fpv4-sp-d16
 2241              		.type	cmd_config_tree, %function
 2242              	cmd_config_tree:
 2243              		@ args = 0, pretend = 0, frame = 24
 2244              		@ frame_needed = 1, uses_anonymous_args = 0
 2245 0000 80B5     		push	{r7, lr}
 2246 0002 86B0     		sub	sp, sp, #24
 2247 0004 00AF     		add	r7, sp, #0
 2248 0006 F860     		str	r0, [r7, #12]
 2249 0008 B960     		str	r1, [r7, #8]
 2250 000a 7A60     		str	r2, [r7, #4]
 2251 000c BB68     		ldr	r3, [r7, #8]
 2252 000e 012B     		cmp	r3, #1
 2253 0010 02D0     		beq	.L160
 2254 0012 0D4B     		ldr	r3, .L163
 2255 0014 7B61     		str	r3, [r7, #20]
 2256 0016 0EE0     		b	.L161
 2257              	.L160:
 2258 0018 7B68     		ldr	r3, [r7, #4]
 2259 001a 1B68     		ldr	r3, [r3]
 2260 001c 1946     		mov	r1, r3
 2261 001e 0A48     		ldr	r0, .L163
 2262 0020 FFF7FEFF 		bl	parameter_namespace_find
 2263 0024 7861     		str	r0, [r7, #20]
 2264 0026 7B69     		ldr	r3, [r7, #20]
 2265 0028 002B     		cmp	r3, #0
 2266 002a 04D1     		bne	.L161
 2267 002c 0749     		ldr	r1, .L163+4
 2268 002e F868     		ldr	r0, [r7, #12]
 2269 0030 FFF7FEFF 		bl	chprintf
 2270 0034 04E0     		b	.L159
 2271              	.L161:
 2272 0036 0022     		movs	r2, #0
 2273 0038 7969     		ldr	r1, [r7, #20]
 2274 003a F868     		ldr	r0, [r7, #12]
 2275 003c FFF7FEFF 		bl	show_config_tree
 2276              	.L159:
 2277 0040 1837     		adds	r7, r7, #24
 2278 0042 BD46     		mov	sp, r7
 2279              		@ sp needed
 2280 0044 80BD     		pop	{r7, pc}
 2281              	.L164:
ARM GAS  /var/folders/d2/nstgp4h54kz7g1l847x_b8wc0000gn/T//cc3fOn4s.s 			page 46


 2282 0046 00BF     		.align	2
 2283              	.L163:
 2284 0048 00000000 		.word	parameter_root
 2285 004c E0070000 		.word	.LC81
 2286              		.size	cmd_config_tree, .-cmd_config_tree
 2287              		.section	.rodata
 2288 07f7 00       		.align	2
 2289              	.LC82:
 2290 07f8 55736167 		.ascii	"Usage: config_set /parameter/url value.\015\012\000"
 2290      653A2063 
 2290      6F6E6669 
 2290      675F7365 
 2290      74202F70 
 2291 0822 0000     		.align	2
 2292              	.LC83:
 2293 0824 436F756C 		.ascii	"Could not find parameter \"%s\"\015\012\000"
 2293      64206E6F 
 2293      74206669 
 2293      6E642070 
 2293      6172616D 
 2294              		.align	2
 2295              	.LC84:
 2296 0844 256400   		.ascii	"%d\000"
 2297 0847 00       		.align	2
 2298              	.LC85:
 2299 0848 496E7661 		.ascii	"Invalid value for integer parameter.\015\012\000"
 2299      6C696420 
 2299      76616C75 
 2299      6520666F 
 2299      7220696E 
 2300 086f 00       		.align	2
 2301              	.LC86:
 2302 0870 496E7661 		.ascii	"Invalid value for boolean parameter, must be true o"
 2302      6C696420 
 2302      76616C75 
 2302      6520666F 
 2302      7220626F 
 2303 08a3 72206661 		.ascii	"r false.\015\012\000"
 2303      6C73652E 
 2303      0D0A00
 2304 08ae 0000     		.align	2
 2305              	.LC87:
 2306 08b0 496E7661 		.ascii	"Invalid value for string parameter, must not use sp"
 2306      6C696420 
 2306      76616C75 
 2306      6520666F 
 2306      72207374 
 2307 08e3 61636573 		.ascii	"aces.\015\012\000"
 2307      2E0D0A00 
 2308              		.section	.text.cmd_config_set,"ax",%progbits
 2309              		.align	1
 2310              		.syntax unified
 2311              		.thumb
 2312              		.thumb_func
 2313              		.fpu fpv4-sp-d16
 2314              		.type	cmd_config_set, %function
 2315              	cmd_config_set:
ARM GAS  /var/folders/d2/nstgp4h54kz7g1l847x_b8wc0000gn/T//cc3fOn4s.s 			page 47


 2316              		@ args = 0, pretend = 0, frame = 24
 2317              		@ frame_needed = 1, uses_anonymous_args = 0
 2318 0000 80B5     		push	{r7, lr}
 2319 0002 86B0     		sub	sp, sp, #24
 2320 0004 00AF     		add	r7, sp, #0
 2321 0006 F860     		str	r0, [r7, #12]
 2322 0008 B960     		str	r1, [r7, #8]
 2323 000a 7A60     		str	r2, [r7, #4]
 2324 000c BB68     		ldr	r3, [r7, #8]
 2325 000e 022B     		cmp	r3, #2
 2326 0010 04D0     		beq	.L166
 2327 0012 3B49     		ldr	r1, .L183
 2328 0014 F868     		ldr	r0, [r7, #12]
 2329 0016 FFF7FEFF 		bl	chprintf
 2330 001a 6DE0     		b	.L165
 2331              	.L166:
 2332 001c 7B68     		ldr	r3, [r7, #4]
 2333 001e 1B68     		ldr	r3, [r3]
 2334 0020 1946     		mov	r1, r3
 2335 0022 3848     		ldr	r0, .L183+4
 2336 0024 FFF7FEFF 		bl	parameter_find
 2337 0028 7861     		str	r0, [r7, #20]
 2338 002a 7B69     		ldr	r3, [r7, #20]
 2339 002c 002B     		cmp	r3, #0
 2340 002e 07D1     		bne	.L168
 2341 0030 7B68     		ldr	r3, [r7, #4]
 2342 0032 1B68     		ldr	r3, [r3]
 2343 0034 1A46     		mov	r2, r3
 2344 0036 3449     		ldr	r1, .L183+8
 2345 0038 F868     		ldr	r0, [r7, #12]
 2346 003a FFF7FEFF 		bl	chprintf
 2347 003e 5BE0     		b	.L165
 2348              	.L168:
 2349 0040 7B69     		ldr	r3, [r7, #20]
 2350 0042 9B7B     		ldrb	r3, [r3, #14]	@ zero_extendqisi2
 2351 0044 032B     		cmp	r3, #3
 2352 0046 04D0     		beq	.L170
 2353 0048 042B     		cmp	r3, #4
 2354 004a 3CD0     		beq	.L171
 2355 004c 022B     		cmp	r3, #2
 2356 004e 17D0     		beq	.L172
 2357 0050 49E0     		b	.L182
 2358              	.L170:
 2359 0052 7B68     		ldr	r3, [r7, #4]
 2360 0054 0433     		adds	r3, r3, #4
 2361 0056 1B68     		ldr	r3, [r3]
 2362 0058 07F11002 		add	r2, r7, #16
 2363 005c 2B49     		ldr	r1, .L183+12
 2364 005e 1846     		mov	r0, r3
 2365 0060 FFF7FEFF 		bl	sscanf
 2366 0064 0346     		mov	r3, r0
 2367 0066 012B     		cmp	r3, #1
 2368 0068 05D1     		bne	.L173
 2369 006a 3B69     		ldr	r3, [r7, #16]
 2370 006c 1946     		mov	r1, r3
 2371 006e 7869     		ldr	r0, [r7, #20]
 2372 0070 FFF7FEFF 		bl	parameter_integer_set
ARM GAS  /var/folders/d2/nstgp4h54kz7g1l847x_b8wc0000gn/T//cc3fOn4s.s 			page 48


 2373 0074 40E0     		b	.L165
 2374              	.L173:
 2375 0076 2649     		ldr	r1, .L183+16
 2376 0078 F868     		ldr	r0, [r7, #12]
 2377 007a FFF7FEFF 		bl	chprintf
 2378 007e 3BE0     		b	.L165
 2379              	.L172:
 2380 0080 7B68     		ldr	r3, [r7, #4]
 2381 0082 0433     		adds	r3, r3, #4
 2382 0084 1B68     		ldr	r3, [r3]
 2383 0086 2349     		ldr	r1, .L183+20
 2384 0088 1846     		mov	r0, r3
 2385 008a FFF7FEFF 		bl	strcmp
 2386 008e 0346     		mov	r3, r0
 2387 0090 002B     		cmp	r3, #0
 2388 0092 04D1     		bne	.L176
 2389 0094 0121     		movs	r1, #1
 2390 0096 7869     		ldr	r0, [r7, #20]
 2391 0098 FFF7FEFF 		bl	parameter_boolean_set
 2392 009c 2CE0     		b	.L165
 2393              	.L176:
 2394 009e 7B68     		ldr	r3, [r7, #4]
 2395 00a0 0433     		adds	r3, r3, #4
 2396 00a2 1B68     		ldr	r3, [r3]
 2397 00a4 1C49     		ldr	r1, .L183+24
 2398 00a6 1846     		mov	r0, r3
 2399 00a8 FFF7FEFF 		bl	strcmp
 2400 00ac 0346     		mov	r3, r0
 2401 00ae 002B     		cmp	r3, #0
 2402 00b0 04D1     		bne	.L178
 2403 00b2 0021     		movs	r1, #0
 2404 00b4 7869     		ldr	r0, [r7, #20]
 2405 00b6 FFF7FEFF 		bl	parameter_boolean_set
 2406 00ba 1DE0     		b	.L165
 2407              	.L178:
 2408 00bc 1749     		ldr	r1, .L183+28
 2409 00be F868     		ldr	r0, [r7, #12]
 2410 00c0 FFF7FEFF 		bl	chprintf
 2411 00c4 18E0     		b	.L165
 2412              	.L171:
 2413 00c6 BB68     		ldr	r3, [r7, #8]
 2414 00c8 022B     		cmp	r3, #2
 2415 00ca 07D1     		bne	.L179
 2416 00cc 7B68     		ldr	r3, [r7, #4]
 2417 00ce 0433     		adds	r3, r3, #4
 2418 00d0 1B68     		ldr	r3, [r3]
 2419 00d2 1946     		mov	r1, r3
 2420 00d4 7869     		ldr	r0, [r7, #20]
 2421 00d6 FFF7FEFF 		bl	parameter_string_set
 2422 00da 0DE0     		b	.L165
 2423              	.L179:
 2424 00dc 1049     		ldr	r1, .L183+32
 2425 00de F868     		ldr	r0, [r7, #12]
 2426 00e0 FFF7FEFF 		bl	chprintf
 2427 00e4 08E0     		b	.L165
 2428              	.L182:
 2429 00e6 7B69     		ldr	r3, [r7, #20]
ARM GAS  /var/folders/d2/nstgp4h54kz7g1l847x_b8wc0000gn/T//cc3fOn4s.s 			page 49


 2430 00e8 1A68     		ldr	r2, [r3]
 2431 00ea 7B69     		ldr	r3, [r7, #20]
 2432 00ec 9B7B     		ldrb	r3, [r3, #14]	@ zero_extendqisi2
 2433 00ee 0D49     		ldr	r1, .L183+36
 2434 00f0 F868     		ldr	r0, [r7, #12]
 2435 00f2 FFF7FEFF 		bl	chprintf
 2436 00f6 00BF     		nop
 2437              	.L165:
 2438 00f8 1837     		adds	r7, r7, #24
 2439 00fa BD46     		mov	sp, r7
 2440              		@ sp needed
 2441 00fc 80BD     		pop	{r7, pc}
 2442              	.L184:
 2443 00fe 00BF     		.align	2
 2444              	.L183:
 2445 0100 F8070000 		.word	.LC82
 2446 0104 00000000 		.word	parameter_root
 2447 0108 24080000 		.word	.LC83
 2448 010c 44080000 		.word	.LC84
 2449 0110 48080000 		.word	.LC85
 2450 0114 9C070000 		.word	.LC76
 2451 0118 A4070000 		.word	.LC77
 2452 011c 70080000 		.word	.LC86
 2453 0120 B0080000 		.word	.LC87
 2454 0124 B8070000 		.word	.LC79
 2455              		.size	cmd_config_set, .-cmd_config_set
 2456              		.section	.text.cmd_config_erase,"ax",%progbits
 2457              		.align	1
 2458              		.syntax unified
 2459              		.thumb
 2460              		.thumb_func
 2461              		.fpu fpv4-sp-d16
 2462              		.type	cmd_config_erase, %function
 2463              	cmd_config_erase:
 2464              		@ args = 0, pretend = 0, frame = 16
 2465              		@ frame_needed = 1, uses_anonymous_args = 0
 2466 0000 80B5     		push	{r7, lr}
 2467 0002 84B0     		sub	sp, sp, #16
 2468 0004 00AF     		add	r7, sp, #0
 2469 0006 F860     		str	r0, [r7, #12]
 2470 0008 B960     		str	r1, [r7, #8]
 2471 000a 7A60     		str	r2, [r7, #4]
 2472 000c 0348     		ldr	r0, .L186
 2473 000e FFF7FEFF 		bl	config_erase
 2474 0012 00BF     		nop
 2475 0014 1037     		adds	r7, r7, #16
 2476 0016 BD46     		mov	sp, r7
 2477              		@ sp needed
 2478 0018 80BD     		pop	{r7, pc}
 2479              	.L187:
 2480 001a 00BF     		.align	2
 2481              	.L186:
 2482 001c 00000000 		.word	_config_start
 2483              		.size	cmd_config_erase, .-cmd_config_erase
 2484              		.section	.rodata
 2485 08eb 00       		.align	2
 2486              	.LC88:
ARM GAS  /var/folders/d2/nstgp4h54kz7g1l847x_b8wc0000gn/T//cc3fOn4s.s 			page 50


 2487 08ec 4F4B2E0D 		.ascii	"OK.\015\012\000"
 2487      0A00
 2488 08f2 0000     		.align	2
 2489              	.LC89:
 2490 08f4 53617665 		.ascii	"Save failed.\015\012\000"
 2490      20666169 
 2490      6C65642E 
 2490      0D0A00
 2491              		.section	.text.cmd_config_save,"ax",%progbits
 2492              		.align	1
 2493              		.syntax unified
 2494              		.thumb
 2495              		.thumb_func
 2496              		.fpu fpv4-sp-d16
 2497              		.type	cmd_config_save, %function
 2498              	cmd_config_save:
 2499              		@ args = 0, pretend = 0, frame = 24
 2500              		@ frame_needed = 1, uses_anonymous_args = 0
 2501 0000 80B5     		push	{r7, lr}
 2502 0002 86B0     		sub	sp, sp, #24
 2503 0004 00AF     		add	r7, sp, #0
 2504 0006 F860     		str	r0, [r7, #12]
 2505 0008 B960     		str	r1, [r7, #8]
 2506 000a 7A60     		str	r2, [r7, #4]
 2507 000c 0F4A     		ldr	r2, .L192
 2508 000e 104B     		ldr	r3, .L192+4
 2509 0010 D31A     		subs	r3, r2, r3
 2510 0012 7B61     		str	r3, [r7, #20]
 2511 0014 0F4A     		ldr	r2, .L192+8
 2512 0016 7969     		ldr	r1, [r7, #20]
 2513 0018 0D48     		ldr	r0, .L192+4
 2514 001a FFF7FEFF 		bl	config_save
 2515 001e 0C49     		ldr	r1, .L192+4
 2516 0020 0C48     		ldr	r0, .L192+8
 2517 0022 FFF7FEFF 		bl	config_load
 2518 0026 0346     		mov	r3, r0
 2519 0028 FB74     		strb	r3, [r7, #19]
 2520 002a FB7C     		ldrb	r3, [r7, #19]	@ zero_extendqisi2
 2521 002c 002B     		cmp	r3, #0
 2522 002e 04D0     		beq	.L189
 2523 0030 0949     		ldr	r1, .L192+12
 2524 0032 F868     		ldr	r0, [r7, #12]
 2525 0034 FFF7FEFF 		bl	chprintf
 2526 0038 03E0     		b	.L191
 2527              	.L189:
 2528 003a 0849     		ldr	r1, .L192+16
 2529 003c F868     		ldr	r0, [r7, #12]
 2530 003e FFF7FEFF 		bl	chprintf
 2531              	.L191:
 2532 0042 00BF     		nop
 2533 0044 1837     		adds	r7, r7, #24
 2534 0046 BD46     		mov	sp, r7
 2535              		@ sp needed
 2536 0048 80BD     		pop	{r7, pc}
 2537              	.L193:
 2538 004a 00BF     		.align	2
 2539              	.L192:
ARM GAS  /var/folders/d2/nstgp4h54kz7g1l847x_b8wc0000gn/T//cc3fOn4s.s 			page 51


 2540 004c 00000000 		.word	_config_end
 2541 0050 00000000 		.word	_config_start
 2542 0054 00000000 		.word	parameter_root
 2543 0058 EC080000 		.word	.LC88
 2544 005c F4080000 		.word	.LC89
 2545              		.size	cmd_config_save, .-cmd_config_save
 2546              		.section	.rodata
 2547 0903 00       		.align	2
 2548              	.LC90:
 2549 0904 4C6F6164 		.ascii	"Load failed.\015\012\000"
 2549      20666169 
 2549      6C65642E 
 2549      0D0A00
 2550              		.section	.text.cmd_config_load,"ax",%progbits
 2551              		.align	1
 2552              		.syntax unified
 2553              		.thumb
 2554              		.thumb_func
 2555              		.fpu fpv4-sp-d16
 2556              		.type	cmd_config_load, %function
 2557              	cmd_config_load:
 2558              		@ args = 0, pretend = 0, frame = 24
 2559              		@ frame_needed = 1, uses_anonymous_args = 0
 2560 0000 80B5     		push	{r7, lr}
 2561 0002 86B0     		sub	sp, sp, #24
 2562 0004 00AF     		add	r7, sp, #0
 2563 0006 F860     		str	r0, [r7, #12]
 2564 0008 B960     		str	r1, [r7, #8]
 2565 000a 7A60     		str	r2, [r7, #4]
 2566 000c 0A49     		ldr	r1, .L198
 2567 000e 0B48     		ldr	r0, .L198+4
 2568 0010 FFF7FEFF 		bl	config_load
 2569 0014 0346     		mov	r3, r0
 2570 0016 FB75     		strb	r3, [r7, #23]
 2571 0018 FB7D     		ldrb	r3, [r7, #23]	@ zero_extendqisi2
 2572 001a 002B     		cmp	r3, #0
 2573 001c 04D0     		beq	.L195
 2574 001e 0849     		ldr	r1, .L198+8
 2575 0020 F868     		ldr	r0, [r7, #12]
 2576 0022 FFF7FEFF 		bl	chprintf
 2577 0026 03E0     		b	.L197
 2578              	.L195:
 2579 0028 0649     		ldr	r1, .L198+12
 2580 002a F868     		ldr	r0, [r7, #12]
 2581 002c FFF7FEFF 		bl	chprintf
 2582              	.L197:
 2583 0030 00BF     		nop
 2584 0032 1837     		adds	r7, r7, #24
 2585 0034 BD46     		mov	sp, r7
 2586              		@ sp needed
 2587 0036 80BD     		pop	{r7, pc}
 2588              	.L199:
 2589              		.align	2
 2590              	.L198:
 2591 0038 00000000 		.word	_config_start
 2592 003c 00000000 		.word	parameter_root
 2593 0040 EC080000 		.word	.LC88
ARM GAS  /var/folders/d2/nstgp4h54kz7g1l847x_b8wc0000gn/T//cc3fOn4s.s 			page 52


 2594 0044 04090000 		.word	.LC90
 2595              		.size	cmd_config_load, .-cmd_config_load
 2596              		.section	.rodata
 2597 0913 00       		.align	2
 2598              	.LC91:
 2599 0914 55736167 		.ascii	"Usage: cam_brightness value.\015\012Default=0, max="
 2599      653A2063 
 2599      616D5F62 
 2599      72696768 
 2599      746E6573 
 2600 0941 3132372C 		.ascii	"127, min=-128.\015\012\000"
 2600      206D696E 
 2600      3D2D3132 
 2600      382E0D0A 
 2600      00
 2601 0952 0000     		.align	2
 2602              	.LC92:
 2603 0954 43616E6E 		.ascii	"Cannot write register (%d)\015\012\000"
 2603      6F742077 
 2603      72697465 
 2603      20726567 
 2603      69737465 
 2604 0971 000000   		.align	2
 2605              	.LC93:
 2606 0974 52656769 		.ascii	"Register written correctly\015\012\000"
 2606      73746572 
 2606      20777269 
 2606      7474656E 
 2606      20636F72 
 2607              		.section	.text.cmd_cam_set_brightness,"ax",%progbits
 2608              		.align	1
 2609              		.syntax unified
 2610              		.thumb
 2611              		.thumb_func
 2612              		.fpu fpv4-sp-d16
 2613              		.type	cmd_cam_set_brightness, %function
 2614              	cmd_cam_set_brightness:
 2615              		@ args = 0, pretend = 0, frame = 24
 2616              		@ frame_needed = 1, uses_anonymous_args = 0
 2617 0000 80B5     		push	{r7, lr}
 2618 0002 86B0     		sub	sp, sp, #24
 2619 0004 00AF     		add	r7, sp, #0
 2620 0006 F860     		str	r0, [r7, #12]
 2621 0008 B960     		str	r1, [r7, #8]
 2622 000a 7A60     		str	r2, [r7, #4]
 2623 000c BB68     		ldr	r3, [r7, #8]
 2624 000e 012B     		cmp	r3, #1
 2625 0010 04D0     		beq	.L201
 2626 0012 1349     		ldr	r1, .L205
 2627 0014 F868     		ldr	r0, [r7, #12]
 2628 0016 FFF7FEFF 		bl	chprintf
 2629 001a 1DE0     		b	.L204
 2630              	.L201:
 2631 001c 7B68     		ldr	r3, [r7, #4]
 2632 001e 1B68     		ldr	r3, [r3]
 2633 0020 1846     		mov	r0, r3
 2634 0022 FFF7FEFF 		bl	atoi
ARM GAS  /var/folders/d2/nstgp4h54kz7g1l847x_b8wc0000gn/T//cc3fOn4s.s 			page 53


 2635 0026 0346     		mov	r3, r0
 2636 0028 FB75     		strb	r3, [r7, #23]
 2637 002a 97F91730 		ldrsb	r3, [r7, #23]
 2638 002e 1846     		mov	r0, r3
 2639 0030 FFF7FEFF 		bl	cam_set_brightness
 2640 0034 0346     		mov	r3, r0
 2641 0036 BB75     		strb	r3, [r7, #22]
 2642 0038 97F91630 		ldrsb	r3, [r7, #22]
 2643 003c 002B     		cmp	r3, #0
 2644 003e 07D0     		beq	.L203
 2645 0040 97F91630 		ldrsb	r3, [r7, #22]
 2646 0044 1A46     		mov	r2, r3
 2647 0046 0749     		ldr	r1, .L205+4
 2648 0048 F868     		ldr	r0, [r7, #12]
 2649 004a FFF7FEFF 		bl	chprintf
 2650 004e 03E0     		b	.L204
 2651              	.L203:
 2652 0050 0549     		ldr	r1, .L205+8
 2653 0052 F868     		ldr	r0, [r7, #12]
 2654 0054 FFF7FEFF 		bl	chprintf
 2655              	.L204:
 2656 0058 00BF     		nop
 2657 005a 1837     		adds	r7, r7, #24
 2658 005c BD46     		mov	sp, r7
 2659              		@ sp needed
 2660 005e 80BD     		pop	{r7, pc}
 2661              	.L206:
 2662              		.align	2
 2663              	.L205:
 2664 0060 14090000 		.word	.LC91
 2665 0064 54090000 		.word	.LC92
 2666 0068 74090000 		.word	.LC93
 2667              		.size	cmd_cam_set_brightness, .-cmd_cam_set_brightness
 2668              		.section	.rodata
 2669 0991 000000   		.align	2
 2670              	.LC94:
 2671 0994 55736167 		.ascii	"Usage: cam_contrast value.\015\012Default=64, max=2"
 2671      653A2063 
 2671      616D5F63 
 2671      6F6E7472 
 2671      61737420 
 2672 09c1 35352C20 		.ascii	"55, min=0.\015\012\000"
 2672      6D696E3D 
 2672      302E0D0A 
 2672      00
 2673              		.section	.text.cmd_cam_set_contrast,"ax",%progbits
 2674              		.align	1
 2675              		.syntax unified
 2676              		.thumb
 2677              		.thumb_func
 2678              		.fpu fpv4-sp-d16
 2679              		.type	cmd_cam_set_contrast, %function
 2680              	cmd_cam_set_contrast:
 2681              		@ args = 0, pretend = 0, frame = 24
 2682              		@ frame_needed = 1, uses_anonymous_args = 0
 2683 0000 80B5     		push	{r7, lr}
 2684 0002 86B0     		sub	sp, sp, #24
ARM GAS  /var/folders/d2/nstgp4h54kz7g1l847x_b8wc0000gn/T//cc3fOn4s.s 			page 54


 2685 0004 00AF     		add	r7, sp, #0
 2686 0006 F860     		str	r0, [r7, #12]
 2687 0008 B960     		str	r1, [r7, #8]
 2688 000a 7A60     		str	r2, [r7, #4]
 2689 000c BB68     		ldr	r3, [r7, #8]
 2690 000e 012B     		cmp	r3, #1
 2691 0010 04D0     		beq	.L208
 2692 0012 1349     		ldr	r1, .L212
 2693 0014 F868     		ldr	r0, [r7, #12]
 2694 0016 FFF7FEFF 		bl	chprintf
 2695 001a 1CE0     		b	.L211
 2696              	.L208:
 2697 001c 7B68     		ldr	r3, [r7, #4]
 2698 001e 1B68     		ldr	r3, [r3]
 2699 0020 1846     		mov	r0, r3
 2700 0022 FFF7FEFF 		bl	atoi
 2701 0026 0346     		mov	r3, r0
 2702 0028 FB75     		strb	r3, [r7, #23]
 2703 002a FB7D     		ldrb	r3, [r7, #23]	@ zero_extendqisi2
 2704 002c 1846     		mov	r0, r3
 2705 002e FFF7FEFF 		bl	cam_set_contrast
 2706 0032 0346     		mov	r3, r0
 2707 0034 BB75     		strb	r3, [r7, #22]
 2708 0036 97F91630 		ldrsb	r3, [r7, #22]
 2709 003a 002B     		cmp	r3, #0
 2710 003c 07D0     		beq	.L210
 2711 003e 97F91630 		ldrsb	r3, [r7, #22]
 2712 0042 1A46     		mov	r2, r3
 2713 0044 0749     		ldr	r1, .L212+4
 2714 0046 F868     		ldr	r0, [r7, #12]
 2715 0048 FFF7FEFF 		bl	chprintf
 2716 004c 03E0     		b	.L211
 2717              	.L210:
 2718 004e 0649     		ldr	r1, .L212+8
 2719 0050 F868     		ldr	r0, [r7, #12]
 2720 0052 FFF7FEFF 		bl	chprintf
 2721              	.L211:
 2722 0056 00BF     		nop
 2723 0058 1837     		adds	r7, r7, #24
 2724 005a BD46     		mov	sp, r7
 2725              		@ sp needed
 2726 005c 80BD     		pop	{r7, pc}
 2727              	.L213:
 2728 005e 00BF     		.align	2
 2729              	.L212:
 2730 0060 94090000 		.word	.LC94
 2731 0064 54090000 		.word	.LC92
 2732 0068 74090000 		.word	.LC93
 2733              		.size	cmd_cam_set_contrast, .-cmd_cam_set_contrast
 2734              		.section	.rodata
 2735 09ce 0000     		.align	2
 2736              	.LC95:
 2737 09d0 55736167 		.ascii	"Usage: cam_conf1 format subsampling_x subsampling_y"
 2737      653A2063 
 2737      616D5F63 
 2737      6F6E6631 
 2737      20666F72 
ARM GAS  /var/folders/d2/nstgp4h54kz7g1l847x_b8wc0000gn/T//cc3fOn4s.s 			page 55


 2738 0a03 0D0A666F 		.ascii	"\015\012format: 0=color, 1=grey\015\012subsampling:"
 2738      726D6174 
 2738      3A20303D 
 2738      636F6C6F 
 2738      722C2031 
 2739 0a2a 20312C20 		.ascii	" 1, 2, 4\015\012\000"
 2739      322C2034 
 2739      0D0A00
 2740 0a35 000000   		.align	2
 2741              	.LC96:
 2742 0a38 52656769 		.ascii	"Registered color format\015\012\000"
 2742      73746572 
 2742      65642063 
 2742      6F6C6F72 
 2742      20666F72 
 2743 0a52 0000     		.align	2
 2744              	.LC97:
 2745 0a54 52656769 		.ascii	"Registered greyscale format\015\012\000"
 2745      73746572 
 2745      65642067 
 2745      72657973 
 2745      63616C65 
 2746 0a72 0000     		.align	2
 2747              	.LC98:
 2748 0a74 52656769 		.ascii	"Registered x subsampling x1\015\012\000"
 2748      73746572 
 2748      65642078 
 2748      20737562 
 2748      73616D70 
 2749 0a92 0000     		.align	2
 2750              	.LC99:
 2751 0a94 52656769 		.ascii	"Registered x subsampling x2\015\012\000"
 2751      73746572 
 2751      65642078 
 2751      20737562 
 2751      73616D70 
 2752 0ab2 0000     		.align	2
 2753              	.LC100:
 2754 0ab4 52656769 		.ascii	"Registered x subsampling x4\015\012\000"
 2754      73746572 
 2754      65642078 
 2754      20737562 
 2754      73616D70 
 2755 0ad2 0000     		.align	2
 2756              	.LC101:
 2757 0ad4 52656769 		.ascii	"Registered y subsampling x1\015\012\000"
 2757      73746572 
 2757      65642079 
 2757      20737562 
 2757      73616D70 
 2758 0af2 0000     		.align	2
 2759              	.LC102:
 2760 0af4 52656769 		.ascii	"Registered y subsampling x2\015\012\000"
 2760      73746572 
 2760      65642079 
 2760      20737562 
 2760      73616D70 
ARM GAS  /var/folders/d2/nstgp4h54kz7g1l847x_b8wc0000gn/T//cc3fOn4s.s 			page 56


 2761 0b12 0000     		.align	2
 2762              	.LC103:
 2763 0b14 52656769 		.ascii	"Registered y subsampling x4\015\012\000"
 2763      73746572 
 2763      65642079 
 2763      20737562 
 2763      73616D70 
 2764              		.section	.text.cmd_cam_set_conf1,"ax",%progbits
 2765              		.align	1
 2766              		.syntax unified
 2767              		.thumb
 2768              		.thumb_func
 2769              		.fpu fpv4-sp-d16
 2770              		.type	cmd_cam_set_conf1, %function
 2771              	cmd_cam_set_conf1:
 2772              		@ args = 0, pretend = 0, frame = 24
 2773              		@ frame_needed = 1, uses_anonymous_args = 0
 2774 0000 80B5     		push	{r7, lr}
 2775 0002 86B0     		sub	sp, sp, #24
 2776 0004 00AF     		add	r7, sp, #0
 2777 0006 F860     		str	r0, [r7, #12]
 2778 0008 B960     		str	r1, [r7, #8]
 2779 000a 7A60     		str	r2, [r7, #4]
 2780 000c BB68     		ldr	r3, [r7, #8]
 2781 000e 032B     		cmp	r3, #3
 2782 0010 04D0     		beq	.L215
 2783 0012 3649     		ldr	r1, .L225
 2784 0014 F868     		ldr	r0, [r7, #12]
 2785 0016 FFF7FEFF 		bl	chprintf
 2786 001a 63E0     		b	.L224
 2787              	.L215:
 2788 001c 7B68     		ldr	r3, [r7, #4]
 2789 001e 1B68     		ldr	r3, [r3]
 2790 0020 1846     		mov	r0, r3
 2791 0022 FFF7FEFF 		bl	atoi
 2792 0026 0346     		mov	r3, r0
 2793 0028 DBB2     		uxtb	r3, r3
 2794 002a FB82     		strh	r3, [r7, #22]	@ movhi
 2795 002c 7B68     		ldr	r3, [r7, #4]
 2796 002e 0433     		adds	r3, r3, #4
 2797 0030 1B68     		ldr	r3, [r3]
 2798 0032 1846     		mov	r0, r3
 2799 0034 FFF7FEFF 		bl	atoi
 2800 0038 0346     		mov	r3, r0
 2801 003a 7B75     		strb	r3, [r7, #21]
 2802 003c 7B68     		ldr	r3, [r7, #4]
 2803 003e 0833     		adds	r3, r3, #8
 2804 0040 1B68     		ldr	r3, [r3]
 2805 0042 1846     		mov	r0, r3
 2806 0044 FFF7FEFF 		bl	atoi
 2807 0048 0346     		mov	r3, r0
 2808 004a 3B75     		strb	r3, [r7, #20]
 2809 004c FB8A     		ldrh	r3, [r7, #22]
 2810 004e 002B     		cmp	r3, #0
 2811 0050 07D1     		bne	.L217
 2812 0052 274B     		ldr	r3, .L225+4
 2813 0054 0122     		movs	r2, #1
ARM GAS  /var/folders/d2/nstgp4h54kz7g1l847x_b8wc0000gn/T//cc3fOn4s.s 			page 57


 2814 0056 1A70     		strb	r2, [r3]
 2815 0058 2649     		ldr	r1, .L225+8
 2816 005a F868     		ldr	r0, [r7, #12]
 2817 005c FFF7FEFF 		bl	chprintf
 2818 0060 06E0     		b	.L218
 2819              	.L217:
 2820 0062 234B     		ldr	r3, .L225+4
 2821 0064 0022     		movs	r2, #0
 2822 0066 1A70     		strb	r2, [r3]
 2823 0068 2349     		ldr	r1, .L225+12
 2824 006a F868     		ldr	r0, [r7, #12]
 2825 006c FFF7FEFF 		bl	chprintf
 2826              	.L218:
 2827 0070 7B7D     		ldrb	r3, [r7, #21]	@ zero_extendqisi2
 2828 0072 012B     		cmp	r3, #1
 2829 0074 07D1     		bne	.L219
 2830 0076 214B     		ldr	r3, .L225+16
 2831 0078 2022     		movs	r2, #32
 2832 007a 1A70     		strb	r2, [r3]
 2833 007c 2049     		ldr	r1, .L225+20
 2834 007e F868     		ldr	r0, [r7, #12]
 2835 0080 FFF7FEFF 		bl	chprintf
 2836 0084 11E0     		b	.L220
 2837              	.L219:
 2838 0086 7B7D     		ldrb	r3, [r7, #21]	@ zero_extendqisi2
 2839 0088 022B     		cmp	r3, #2
 2840 008a 07D1     		bne	.L221
 2841 008c 1B4B     		ldr	r3, .L225+16
 2842 008e 4022     		movs	r2, #64
 2843 0090 1A70     		strb	r2, [r3]
 2844 0092 1C49     		ldr	r1, .L225+24
 2845 0094 F868     		ldr	r0, [r7, #12]
 2846 0096 FFF7FEFF 		bl	chprintf
 2847 009a 06E0     		b	.L220
 2848              	.L221:
 2849 009c 174B     		ldr	r3, .L225+16
 2850 009e 8022     		movs	r2, #128
 2851 00a0 1A70     		strb	r2, [r3]
 2852 00a2 1949     		ldr	r1, .L225+28
 2853 00a4 F868     		ldr	r0, [r7, #12]
 2854 00a6 FFF7FEFF 		bl	chprintf
 2855              	.L220:
 2856 00aa 3B7D     		ldrb	r3, [r7, #20]	@ zero_extendqisi2
 2857 00ac 012B     		cmp	r3, #1
 2858 00ae 07D1     		bne	.L222
 2859 00b0 164B     		ldr	r3, .L225+32
 2860 00b2 2022     		movs	r2, #32
 2861 00b4 1A70     		strb	r2, [r3]
 2862 00b6 1649     		ldr	r1, .L225+36
 2863 00b8 F868     		ldr	r0, [r7, #12]
 2864 00ba FFF7FEFF 		bl	chprintf
 2865 00be 11E0     		b	.L224
 2866              	.L222:
 2867 00c0 3B7D     		ldrb	r3, [r7, #20]	@ zero_extendqisi2
 2868 00c2 022B     		cmp	r3, #2
 2869 00c4 07D1     		bne	.L223
 2870 00c6 114B     		ldr	r3, .L225+32
ARM GAS  /var/folders/d2/nstgp4h54kz7g1l847x_b8wc0000gn/T//cc3fOn4s.s 			page 58


 2871 00c8 4022     		movs	r2, #64
 2872 00ca 1A70     		strb	r2, [r3]
 2873 00cc 1149     		ldr	r1, .L225+40
 2874 00ce F868     		ldr	r0, [r7, #12]
 2875 00d0 FFF7FEFF 		bl	chprintf
 2876 00d4 06E0     		b	.L224
 2877              	.L223:
 2878 00d6 0D4B     		ldr	r3, .L225+32
 2879 00d8 8022     		movs	r2, #128
 2880 00da 1A70     		strb	r2, [r3]
 2881 00dc 0E49     		ldr	r1, .L225+44
 2882 00de F868     		ldr	r0, [r7, #12]
 2883 00e0 FFF7FEFF 		bl	chprintf
 2884              	.L224:
 2885 00e4 00BF     		nop
 2886 00e6 1837     		adds	r7, r7, #24
 2887 00e8 BD46     		mov	sp, r7
 2888              		@ sp needed
 2889 00ea 80BD     		pop	{r7, pc}
 2890              	.L226:
 2891              		.align	2
 2892              	.L225:
 2893 00ec D0090000 		.word	.LC95
 2894 00f0 00000000 		.word	cmd_fmt
 2895 00f4 380A0000 		.word	.LC96
 2896 00f8 540A0000 		.word	.LC97
 2897 00fc 00000000 		.word	cmd_subx
 2898 0100 740A0000 		.word	.LC98
 2899 0104 940A0000 		.word	.LC99
 2900 0108 B40A0000 		.word	.LC100
 2901 010c 00000000 		.word	cmd_suby
 2902 0110 D40A0000 		.word	.LC101
 2903 0114 F40A0000 		.word	.LC102
 2904 0118 140B0000 		.word	.LC103
 2905              		.size	cmd_cam_set_conf1, .-cmd_cam_set_conf1
 2906              		.section	.rodata
 2907 0b32 0000     		.align	2
 2908              	.LC104:
 2909 0b34 55736167 		.ascii	"Usage: cam_conf2 x1 y1 width height\015\012\000"
 2909      653A2063 
 2909      616D5F63 
 2909      6F6E6632 
 2909      20783120 
 2910 0b5a 0000     		.align	2
 2911              	.LC105:
 2912 0b5c 43616E6E 		.ascii	"Cannot set configuration (%d)\015\012\000"
 2912      6F742073 
 2912      65742063 
 2912      6F6E6669 
 2912      67757261 
 2913              		.align	2
 2914              	.LC106:
 2915 0b7c 436F6E66 		.ascii	"Configuration set correctly\015\012\000"
 2915      69677572 
 2915      6174696F 
 2915      6E207365 
 2915      7420636F 
ARM GAS  /var/folders/d2/nstgp4h54kz7g1l847x_b8wc0000gn/T//cc3fOn4s.s 			page 59


 2916              		.section	.text.cmd_cam_set_conf2,"ax",%progbits
 2917              		.align	1
 2918              		.syntax unified
 2919              		.thumb
 2920              		.thumb_func
 2921              		.fpu fpv4-sp-d16
 2922              		.type	cmd_cam_set_conf2, %function
 2923              	cmd_cam_set_conf2:
 2924              		@ args = 0, pretend = 0, frame = 24
 2925              		@ frame_needed = 1, uses_anonymous_args = 0
 2926 0000 F0B5     		push	{r4, r5, r6, r7, lr}
 2927 0002 8BB0     		sub	sp, sp, #44
 2928 0004 04AF     		add	r7, sp, #16
 2929 0006 F860     		str	r0, [r7, #12]
 2930 0008 B960     		str	r1, [r7, #8]
 2931 000a 7A60     		str	r2, [r7, #4]
 2932 000c BB68     		ldr	r3, [r7, #8]
 2933 000e 042B     		cmp	r3, #4
 2934 0010 04D0     		beq	.L228
 2935 0012 2E49     		ldr	r1, .L232
 2936 0014 F868     		ldr	r0, [r7, #12]
 2937 0016 FFF7FEFF 		bl	chprintf
 2938 001a 52E0     		b	.L231
 2939              	.L228:
 2940 001c 7B68     		ldr	r3, [r7, #4]
 2941 001e 1B68     		ldr	r3, [r3]
 2942 0020 1846     		mov	r0, r3
 2943 0022 FFF7FEFF 		bl	atoi
 2944 0026 0346     		mov	r3, r0
 2945 0028 9AB2     		uxth	r2, r3
 2946 002a 294B     		ldr	r3, .L232+4
 2947 002c 1A80     		strh	r2, [r3]	@ movhi
 2948 002e 7B68     		ldr	r3, [r7, #4]
 2949 0030 0433     		adds	r3, r3, #4
 2950 0032 1B68     		ldr	r3, [r3]
 2951 0034 1846     		mov	r0, r3
 2952 0036 FFF7FEFF 		bl	atoi
 2953 003a 0346     		mov	r3, r0
 2954 003c 9AB2     		uxth	r2, r3
 2955 003e 254B     		ldr	r3, .L232+8
 2956 0040 1A80     		strh	r2, [r3]	@ movhi
 2957 0042 7B68     		ldr	r3, [r7, #4]
 2958 0044 0833     		adds	r3, r3, #8
 2959 0046 1B68     		ldr	r3, [r3]
 2960 0048 1846     		mov	r0, r3
 2961 004a FFF7FEFF 		bl	atoi
 2962 004e 0346     		mov	r3, r0
 2963 0050 9AB2     		uxth	r2, r3
 2964 0052 214B     		ldr	r3, .L232+12
 2965 0054 1A80     		strh	r2, [r3]	@ movhi
 2966 0056 7B68     		ldr	r3, [r7, #4]
 2967 0058 0C33     		adds	r3, r3, #12
 2968 005a 1B68     		ldr	r3, [r3]
 2969 005c 1846     		mov	r0, r3
 2970 005e FFF7FEFF 		bl	atoi
 2971 0062 0346     		mov	r3, r0
 2972 0064 9AB2     		uxth	r2, r3
ARM GAS  /var/folders/d2/nstgp4h54kz7g1l847x_b8wc0000gn/T//cc3fOn4s.s 			page 60


 2973 0066 1D4B     		ldr	r3, .L232+16
 2974 0068 1A80     		strh	r2, [r3]	@ movhi
 2975 006a 1D4B     		ldr	r3, .L232+20
 2976 006c 1878     		ldrb	r0, [r3]	@ zero_extendqisi2
 2977 006e 184B     		ldr	r3, .L232+4
 2978 0070 1B88     		ldrh	r3, [r3]
 2979 0072 1C46     		mov	r4, r3
 2980 0074 174B     		ldr	r3, .L232+8
 2981 0076 1B88     		ldrh	r3, [r3]
 2982 0078 1D46     		mov	r5, r3
 2983 007a 174B     		ldr	r3, .L232+12
 2984 007c 1B88     		ldrh	r3, [r3]
 2985 007e 1E46     		mov	r6, r3
 2986 0080 164B     		ldr	r3, .L232+16
 2987 0082 1B88     		ldrh	r3, [r3]
 2988 0084 1946     		mov	r1, r3
 2989 0086 174B     		ldr	r3, .L232+24
 2990 0088 1B78     		ldrb	r3, [r3]	@ zero_extendqisi2
 2991 008a 174A     		ldr	r2, .L232+28
 2992 008c 1278     		ldrb	r2, [r2]	@ zero_extendqisi2
 2993 008e 0292     		str	r2, [sp, #8]
 2994 0090 0193     		str	r3, [sp, #4]
 2995 0092 0091     		str	r1, [sp]
 2996 0094 3346     		mov	r3, r6
 2997 0096 2A46     		mov	r2, r5
 2998 0098 2146     		mov	r1, r4
 2999 009a FFF7FEFF 		bl	cam_advanced_config
 3000 009e 0346     		mov	r3, r0
 3001 00a0 FB75     		strb	r3, [r7, #23]
 3002 00a2 97F91730 		ldrsb	r3, [r7, #23]
 3003 00a6 002B     		cmp	r3, #0
 3004 00a8 07D0     		beq	.L230
 3005 00aa 97F91730 		ldrsb	r3, [r7, #23]
 3006 00ae 1A46     		mov	r2, r3
 3007 00b0 0E49     		ldr	r1, .L232+32
 3008 00b2 F868     		ldr	r0, [r7, #12]
 3009 00b4 FFF7FEFF 		bl	chprintf
 3010 00b8 03E0     		b	.L231
 3011              	.L230:
 3012 00ba 0D49     		ldr	r1, .L232+36
 3013 00bc F868     		ldr	r0, [r7, #12]
 3014 00be FFF7FEFF 		bl	chprintf
 3015              	.L231:
 3016 00c2 00BF     		nop
 3017 00c4 1C37     		adds	r7, r7, #28
 3018 00c6 BD46     		mov	sp, r7
 3019              		@ sp needed
 3020 00c8 F0BD     		pop	{r4, r5, r6, r7, pc}
 3021              	.L233:
 3022 00ca 00BF     		.align	2
 3023              	.L232:
 3024 00cc 340B0000 		.word	.LC104
 3025 00d0 00000000 		.word	cmd_x1
 3026 00d4 00000000 		.word	cmd_y1
 3027 00d8 00000000 		.word	cmd_width
 3028 00dc 00000000 		.word	cmd_height
 3029 00e0 00000000 		.word	cmd_fmt
ARM GAS  /var/folders/d2/nstgp4h54kz7g1l847x_b8wc0000gn/T//cc3fOn4s.s 			page 61


 3030 00e4 00000000 		.word	cmd_subx
 3031 00e8 00000000 		.word	cmd_suby
 3032 00ec 5C0B0000 		.word	.LC105
 3033 00f0 7C0B0000 		.word	.LC106
 3034              		.size	cmd_cam_set_conf2, .-cmd_cam_set_conf2
 3035              		.section	.rodata
 3036 0b9a 0000     		.align	2
 3037              	.LC107:
 3038 0b9c 55736167 		.ascii	"Usage: cam_mirror vertical_en horizontal_en\015\012"
 3038      653A2063 
 3038      616D5F6D 
 3038      6972726F 
 3038      72207665 
 3039 0bc9 313D656E 		.ascii	"1=enabled, 0=disabled\015\012\000"
 3039      61626C65 
 3039      642C2030 
 3039      3D646973 
 3039      61626C65 
 3040 0be1 000000   		.align	2
 3041              	.LC108:
 3042 0be4 43616E6E 		.ascii	"Cannot set mirroring (%d)\015\012\000"
 3042      6F742073 
 3042      6574206D 
 3042      6972726F 
 3042      72696E67 
 3043              		.align	2
 3044              	.LC109:
 3045 0c00 4D697272 		.ascii	"Mirroring set correctly\015\012\000"
 3045      6F72696E 
 3045      67207365 
 3045      7420636F 
 3045      72726563 
 3046              		.section	.text.cmd_cam_set_mirror,"ax",%progbits
 3047              		.align	1
 3048              		.syntax unified
 3049              		.thumb
 3050              		.thumb_func
 3051              		.fpu fpv4-sp-d16
 3052              		.type	cmd_cam_set_mirror, %function
 3053              	cmd_cam_set_mirror:
 3054              		@ args = 0, pretend = 0, frame = 24
 3055              		@ frame_needed = 1, uses_anonymous_args = 0
 3056 0000 80B5     		push	{r7, lr}
 3057 0002 86B0     		sub	sp, sp, #24
 3058 0004 00AF     		add	r7, sp, #0
 3059 0006 F860     		str	r0, [r7, #12]
 3060 0008 B960     		str	r1, [r7, #8]
 3061 000a 7A60     		str	r2, [r7, #4]
 3062 000c BB68     		ldr	r3, [r7, #8]
 3063 000e 022B     		cmp	r3, #2
 3064 0010 04D0     		beq	.L235
 3065 0012 1849     		ldr	r1, .L239
 3066 0014 F868     		ldr	r0, [r7, #12]
 3067 0016 FFF7FEFF 		bl	chprintf
 3068 001a 26E0     		b	.L238
 3069              	.L235:
 3070 001c 7B68     		ldr	r3, [r7, #4]
ARM GAS  /var/folders/d2/nstgp4h54kz7g1l847x_b8wc0000gn/T//cc3fOn4s.s 			page 62


 3071 001e 1B68     		ldr	r3, [r3]
 3072 0020 1846     		mov	r0, r3
 3073 0022 FFF7FEFF 		bl	atoi
 3074 0026 0346     		mov	r3, r0
 3075 0028 FB75     		strb	r3, [r7, #23]
 3076 002a 7B68     		ldr	r3, [r7, #4]
 3077 002c 0433     		adds	r3, r3, #4
 3078 002e 1B68     		ldr	r3, [r3]
 3079 0030 1846     		mov	r0, r3
 3080 0032 FFF7FEFF 		bl	atoi
 3081 0036 0346     		mov	r3, r0
 3082 0038 BB75     		strb	r3, [r7, #22]
 3083 003a BA7D     		ldrb	r2, [r7, #22]	@ zero_extendqisi2
 3084 003c FB7D     		ldrb	r3, [r7, #23]	@ zero_extendqisi2
 3085 003e 1146     		mov	r1, r2
 3086 0040 1846     		mov	r0, r3
 3087 0042 FFF7FEFF 		bl	cam_set_mirror
 3088 0046 0346     		mov	r3, r0
 3089 0048 7B75     		strb	r3, [r7, #21]
 3090 004a 97F91530 		ldrsb	r3, [r7, #21]
 3091 004e 002B     		cmp	r3, #0
 3092 0050 07D0     		beq	.L237
 3093 0052 97F91530 		ldrsb	r3, [r7, #21]
 3094 0056 1A46     		mov	r2, r3
 3095 0058 0749     		ldr	r1, .L239+4
 3096 005a F868     		ldr	r0, [r7, #12]
 3097 005c FFF7FEFF 		bl	chprintf
 3098 0060 03E0     		b	.L238
 3099              	.L237:
 3100 0062 0649     		ldr	r1, .L239+8
 3101 0064 F868     		ldr	r0, [r7, #12]
 3102 0066 FFF7FEFF 		bl	chprintf
 3103              	.L238:
 3104 006a 00BF     		nop
 3105 006c 1837     		adds	r7, r7, #24
 3106 006e BD46     		mov	sp, r7
 3107              		@ sp needed
 3108 0070 80BD     		pop	{r7, pc}
 3109              	.L240:
 3110 0072 00BF     		.align	2
 3111              	.L239:
 3112 0074 9C0B0000 		.word	.LC107
 3113 0078 E40B0000 		.word	.LC108
 3114 007c 000C0000 		.word	.LC109
 3115              		.size	cmd_cam_set_mirror, .-cmd_cam_set_mirror
 3116              		.section	.rodata
 3117 0c1a 0000     		.align	2
 3118              	.LC110:
 3119 0c1c 55736167 		.ascii	"Usage: cam_gain red_gain green_gain blue_gain\015\012"
 3119      653A2063 
 3119      616D5F67 
 3119      61696E20 
 3119      7265645F 
 3120 0c4b 54686973 		.ascii	"This command disable auto white balance.\015\012Def"
 3120      20636F6D 
 3120      6D616E64 
 3120      20646973 
ARM GAS  /var/folders/d2/nstgp4h54kz7g1l847x_b8wc0000gn/T//cc3fOn4s.s 			page 63


 3120      61626C65 
 3121 0c78 61756C74 		.ascii	"ault: r=94, g=64, b=93\015\012\000"
 3121      3A20723D 
 3121      39342C20 
 3121      673D3634 
 3121      2C20623D 
 3122 0c91 000000   		.align	2
 3123              	.LC111:
 3124 0c94 43616E6E 		.ascii	"Cannot set gain (%d)\015\012\000"
 3124      6F742073 
 3124      65742067 
 3124      61696E20 
 3124      28256429 
 3125 0cab 00       		.align	2
 3126              	.LC112:
 3127 0cac 4761696E 		.ascii	"Gain set correctly\015\012\000"
 3127      20736574 
 3127      20636F72 
 3127      72656374 
 3127      6C790D0A 
 3128              		.section	.text.cmd_cam_set_gain,"ax",%progbits
 3129              		.align	1
 3130              		.syntax unified
 3131              		.thumb
 3132              		.thumb_func
 3133              		.fpu fpv4-sp-d16
 3134              		.type	cmd_cam_set_gain, %function
 3135              	cmd_cam_set_gain:
 3136              		@ args = 0, pretend = 0, frame = 24
 3137              		@ frame_needed = 1, uses_anonymous_args = 0
 3138 0000 80B5     		push	{r7, lr}
 3139 0002 86B0     		sub	sp, sp, #24
 3140 0004 00AF     		add	r7, sp, #0
 3141 0006 F860     		str	r0, [r7, #12]
 3142 0008 B960     		str	r1, [r7, #8]
 3143 000a 7A60     		str	r2, [r7, #4]
 3144 000c BB68     		ldr	r3, [r7, #8]
 3145 000e 032B     		cmp	r3, #3
 3146 0010 04D0     		beq	.L242
 3147 0012 1C49     		ldr	r1, .L246
 3148 0014 F868     		ldr	r0, [r7, #12]
 3149 0016 FFF7FEFF 		bl	chprintf
 3150 001a 2EE0     		b	.L245
 3151              	.L242:
 3152 001c 7B68     		ldr	r3, [r7, #4]
 3153 001e 1B68     		ldr	r3, [r3]
 3154 0020 1846     		mov	r0, r3
 3155 0022 FFF7FEFF 		bl	atoi
 3156 0026 0346     		mov	r3, r0
 3157 0028 FB75     		strb	r3, [r7, #23]
 3158 002a 7B68     		ldr	r3, [r7, #4]
 3159 002c 0433     		adds	r3, r3, #4
 3160 002e 1B68     		ldr	r3, [r3]
 3161 0030 1846     		mov	r0, r3
 3162 0032 FFF7FEFF 		bl	atoi
 3163 0036 0346     		mov	r3, r0
 3164 0038 BB75     		strb	r3, [r7, #22]
ARM GAS  /var/folders/d2/nstgp4h54kz7g1l847x_b8wc0000gn/T//cc3fOn4s.s 			page 64


 3165 003a 7B68     		ldr	r3, [r7, #4]
 3166 003c 0833     		adds	r3, r3, #8
 3167 003e 1B68     		ldr	r3, [r3]
 3168 0040 1846     		mov	r0, r3
 3169 0042 FFF7FEFF 		bl	atoi
 3170 0046 0346     		mov	r3, r0
 3171 0048 7B75     		strb	r3, [r7, #21]
 3172 004a 7A7D     		ldrb	r2, [r7, #21]	@ zero_extendqisi2
 3173 004c B97D     		ldrb	r1, [r7, #22]	@ zero_extendqisi2
 3174 004e FB7D     		ldrb	r3, [r7, #23]	@ zero_extendqisi2
 3175 0050 1846     		mov	r0, r3
 3176 0052 FFF7FEFF 		bl	cam_set_rgb_gain
 3177 0056 0346     		mov	r3, r0
 3178 0058 3B75     		strb	r3, [r7, #20]
 3179 005a 97F91430 		ldrsb	r3, [r7, #20]
 3180 005e 002B     		cmp	r3, #0
 3181 0060 07D0     		beq	.L244
 3182 0062 97F91430 		ldrsb	r3, [r7, #20]
 3183 0066 1A46     		mov	r2, r3
 3184 0068 0749     		ldr	r1, .L246+4
 3185 006a F868     		ldr	r0, [r7, #12]
 3186 006c FFF7FEFF 		bl	chprintf
 3187 0070 03E0     		b	.L245
 3188              	.L244:
 3189 0072 0649     		ldr	r1, .L246+8
 3190 0074 F868     		ldr	r0, [r7, #12]
 3191 0076 FFF7FEFF 		bl	chprintf
 3192              	.L245:
 3193 007a 00BF     		nop
 3194 007c 1837     		adds	r7, r7, #24
 3195 007e BD46     		mov	sp, r7
 3196              		@ sp needed
 3197 0080 80BD     		pop	{r7, pc}
 3198              	.L247:
 3199 0082 00BF     		.align	2
 3200              	.L246:
 3201 0084 1C0C0000 		.word	.LC110
 3202 0088 940C0000 		.word	.LC111
 3203 008c AC0C0000 		.word	.LC112
 3204              		.size	cmd_cam_set_gain, .-cmd_cam_set_gain
 3205              		.section	.rodata
 3206 0cc1 000000   		.align	2
 3207              	.LC113:
 3208 0cc4 55736167 		.ascii	"Usage: cam_awb awb_en.\015\0121=enabled, 0=disabled"
 3208      653A2063 
 3208      616D5F61 
 3208      77622061 
 3208      77625F65 
 3209 0cf1 0D0A00   		.ascii	"\015\012\000"
 3210              		.align	2
 3211              	.LC114:
 3212 0cf4 43616E6E 		.ascii	"Cannot set white balance (%d)\015\012\000"
 3212      6F742073 
 3212      65742077 
 3212      68697465 
 3212      2062616C 
 3213              		.align	2
ARM GAS  /var/folders/d2/nstgp4h54kz7g1l847x_b8wc0000gn/T//cc3fOn4s.s 			page 65


 3214              	.LC115:
 3215 0d14 57686974 		.ascii	"White balance set correctly\015\012\000"
 3215      65206261 
 3215      6C616E63 
 3215      65207365 
 3215      7420636F 
 3216              		.section	.text.cmd_cam_set_awb,"ax",%progbits
 3217              		.align	1
 3218              		.syntax unified
 3219              		.thumb
 3220              		.thumb_func
 3221              		.fpu fpv4-sp-d16
 3222              		.type	cmd_cam_set_awb, %function
 3223              	cmd_cam_set_awb:
 3224              		@ args = 0, pretend = 0, frame = 24
 3225              		@ frame_needed = 1, uses_anonymous_args = 0
 3226 0000 80B5     		push	{r7, lr}
 3227 0002 86B0     		sub	sp, sp, #24
 3228 0004 00AF     		add	r7, sp, #0
 3229 0006 F860     		str	r0, [r7, #12]
 3230 0008 B960     		str	r1, [r7, #8]
 3231 000a 7A60     		str	r2, [r7, #4]
 3232 000c BB68     		ldr	r3, [r7, #8]
 3233 000e 012B     		cmp	r3, #1
 3234 0010 04D0     		beq	.L249
 3235 0012 1349     		ldr	r1, .L253
 3236 0014 F868     		ldr	r0, [r7, #12]
 3237 0016 FFF7FEFF 		bl	chprintf
 3238 001a 1CE0     		b	.L252
 3239              	.L249:
 3240 001c 7B68     		ldr	r3, [r7, #4]
 3241 001e 1B68     		ldr	r3, [r3]
 3242 0020 1846     		mov	r0, r3
 3243 0022 FFF7FEFF 		bl	atoi
 3244 0026 0346     		mov	r3, r0
 3245 0028 FB75     		strb	r3, [r7, #23]
 3246 002a FB7D     		ldrb	r3, [r7, #23]	@ zero_extendqisi2
 3247 002c 1846     		mov	r0, r3
 3248 002e FFF7FEFF 		bl	cam_set_awb
 3249 0032 0346     		mov	r3, r0
 3250 0034 BB75     		strb	r3, [r7, #22]
 3251 0036 97F91630 		ldrsb	r3, [r7, #22]
 3252 003a 002B     		cmp	r3, #0
 3253 003c 07D0     		beq	.L251
 3254 003e 97F91630 		ldrsb	r3, [r7, #22]
 3255 0042 1A46     		mov	r2, r3
 3256 0044 0749     		ldr	r1, .L253+4
 3257 0046 F868     		ldr	r0, [r7, #12]
 3258 0048 FFF7FEFF 		bl	chprintf
 3259 004c 03E0     		b	.L252
 3260              	.L251:
 3261 004e 0649     		ldr	r1, .L253+8
 3262 0050 F868     		ldr	r0, [r7, #12]
 3263 0052 FFF7FEFF 		bl	chprintf
 3264              	.L252:
 3265 0056 00BF     		nop
 3266 0058 1837     		adds	r7, r7, #24
ARM GAS  /var/folders/d2/nstgp4h54kz7g1l847x_b8wc0000gn/T//cc3fOn4s.s 			page 66


 3267 005a BD46     		mov	sp, r7
 3268              		@ sp needed
 3269 005c 80BD     		pop	{r7, pc}
 3270              	.L254:
 3271 005e 00BF     		.align	2
 3272              	.L253:
 3273 0060 C40C0000 		.word	.LC113
 3274 0064 F40C0000 		.word	.LC114
 3275 0068 140D0000 		.word	.LC115
 3276              		.size	cmd_cam_set_awb, .-cmd_cam_set_awb
 3277              		.section	.rodata
 3278 0d32 0000     		.align	2
 3279              	.LC116:
 3280 0d34 55736167 		.ascii	"Usage: cam_ae ae_en.\015\0121=enabled, 0=disabled\015"
 3280      653A2063 
 3280      616D5F61 
 3280      65206165 
 3280      5F656E2E 
 3281 0d60 0A00     		.ascii	"\012\000"
 3282 0d62 0000     		.align	2
 3283              	.LC117:
 3284 0d64 43616E6E 		.ascii	"Cannot set auto exposure (%d)\015\012\000"
 3284      6F742073 
 3284      65742061 
 3284      75746F20 
 3284      6578706F 
 3285              		.align	2
 3286              	.LC118:
 3287 0d84 4175746F 		.ascii	"Auto exposure set correctly\015\012\000"
 3287      20657870 
 3287      6F737572 
 3287      65207365 
 3287      7420636F 
 3288              		.section	.text.cmd_cam_set_ae,"ax",%progbits
 3289              		.align	1
 3290              		.syntax unified
 3291              		.thumb
 3292              		.thumb_func
 3293              		.fpu fpv4-sp-d16
 3294              		.type	cmd_cam_set_ae, %function
 3295              	cmd_cam_set_ae:
 3296              		@ args = 0, pretend = 0, frame = 24
 3297              		@ frame_needed = 1, uses_anonymous_args = 0
 3298 0000 80B5     		push	{r7, lr}
 3299 0002 86B0     		sub	sp, sp, #24
 3300 0004 00AF     		add	r7, sp, #0
 3301 0006 F860     		str	r0, [r7, #12]
 3302 0008 B960     		str	r1, [r7, #8]
 3303 000a 7A60     		str	r2, [r7, #4]
 3304 000c BB68     		ldr	r3, [r7, #8]
 3305 000e 012B     		cmp	r3, #1
 3306 0010 04D0     		beq	.L256
 3307 0012 1349     		ldr	r1, .L260
 3308 0014 F868     		ldr	r0, [r7, #12]
 3309 0016 FFF7FEFF 		bl	chprintf
 3310 001a 1CE0     		b	.L259
 3311              	.L256:
ARM GAS  /var/folders/d2/nstgp4h54kz7g1l847x_b8wc0000gn/T//cc3fOn4s.s 			page 67


 3312 001c 7B68     		ldr	r3, [r7, #4]
 3313 001e 1B68     		ldr	r3, [r3]
 3314 0020 1846     		mov	r0, r3
 3315 0022 FFF7FEFF 		bl	atoi
 3316 0026 0346     		mov	r3, r0
 3317 0028 FB75     		strb	r3, [r7, #23]
 3318 002a FB7D     		ldrb	r3, [r7, #23]	@ zero_extendqisi2
 3319 002c 1846     		mov	r0, r3
 3320 002e FFF7FEFF 		bl	cam_set_ae
 3321 0032 0346     		mov	r3, r0
 3322 0034 BB75     		strb	r3, [r7, #22]
 3323 0036 97F91630 		ldrsb	r3, [r7, #22]
 3324 003a 002B     		cmp	r3, #0
 3325 003c 07D0     		beq	.L258
 3326 003e 97F91630 		ldrsb	r3, [r7, #22]
 3327 0042 1A46     		mov	r2, r3
 3328 0044 0749     		ldr	r1, .L260+4
 3329 0046 F868     		ldr	r0, [r7, #12]
 3330 0048 FFF7FEFF 		bl	chprintf
 3331 004c 03E0     		b	.L259
 3332              	.L258:
 3333 004e 0649     		ldr	r1, .L260+8
 3334 0050 F868     		ldr	r0, [r7, #12]
 3335 0052 FFF7FEFF 		bl	chprintf
 3336              	.L259:
 3337 0056 00BF     		nop
 3338 0058 1837     		adds	r7, r7, #24
 3339 005a BD46     		mov	sp, r7
 3340              		@ sp needed
 3341 005c 80BD     		pop	{r7, pc}
 3342              	.L261:
 3343 005e 00BF     		.align	2
 3344              	.L260:
 3345 0060 340D0000 		.word	.LC116
 3346 0064 640D0000 		.word	.LC117
 3347 0068 840D0000 		.word	.LC118
 3348              		.size	cmd_cam_set_ae, .-cmd_cam_set_ae
 3349              		.section	.rodata
 3350 0da2 0000     		.align	2
 3351              	.LC119:
 3352 0da4 55736167 		.ascii	"Usage: cam_exposure integral fractional\015\012Unit"
 3352      653A2063 
 3352      616D5F65 
 3352      78706F73 
 3352      75726520 
 3353 0dd1 20697320 		.ascii	" is line time; total integration time = (integral +"
 3353      6C696E65 
 3353      2074696D 
 3353      653B2074 
 3353      6F74616C 
 3354 0e04 20667261 		.ascii	" fractional/256) line time.\015\012Default: integra"
 3354      6374696F 
 3354      6E616C2F 
 3354      32353629 
 3354      206C696E 
 3355 0e31 6C3D3132 		.ascii	"l=128, fractional=0\015\012\000"
 3355      382C2066 
ARM GAS  /var/folders/d2/nstgp4h54kz7g1l847x_b8wc0000gn/T//cc3fOn4s.s 			page 68


 3355      72616374 
 3355      696F6E61 
 3355      6C3D300D 
 3356 0e47 00       		.align	2
 3357              	.LC120:
 3358 0e48 43616E6E 		.ascii	"Cannot set exposure time (%d)\015\012\000"
 3358      6F742073 
 3358      65742065 
 3358      78706F73 
 3358      75726520 
 3359              		.align	2
 3360              	.LC121:
 3361 0e68 4578706F 		.ascii	"Exposure time set correctly\015\012\000"
 3361      73757265 
 3361      2074696D 
 3361      65207365 
 3361      7420636F 
 3362              		.section	.text.cmd_cam_set_exposure,"ax",%progbits
 3363              		.align	1
 3364              		.syntax unified
 3365              		.thumb
 3366              		.thumb_func
 3367              		.fpu fpv4-sp-d16
 3368              		.type	cmd_cam_set_exposure, %function
 3369              	cmd_cam_set_exposure:
 3370              		@ args = 0, pretend = 0, frame = 24
 3371              		@ frame_needed = 1, uses_anonymous_args = 0
 3372 0000 80B5     		push	{r7, lr}
 3373 0002 86B0     		sub	sp, sp, #24
 3374 0004 00AF     		add	r7, sp, #0
 3375 0006 F860     		str	r0, [r7, #12]
 3376 0008 B960     		str	r1, [r7, #8]
 3377 000a 7A60     		str	r2, [r7, #4]
 3378 000c BB68     		ldr	r3, [r7, #8]
 3379 000e 022B     		cmp	r3, #2
 3380 0010 04D0     		beq	.L263
 3381 0012 1849     		ldr	r1, .L267
 3382 0014 F868     		ldr	r0, [r7, #12]
 3383 0016 FFF7FEFF 		bl	chprintf
 3384 001a 26E0     		b	.L266
 3385              	.L263:
 3386 001c 7B68     		ldr	r3, [r7, #4]
 3387 001e 1B68     		ldr	r3, [r3]
 3388 0020 1846     		mov	r0, r3
 3389 0022 FFF7FEFF 		bl	atoi
 3390 0026 0346     		mov	r3, r0
 3391 0028 FB82     		strh	r3, [r7, #22]	@ movhi
 3392 002a 7B68     		ldr	r3, [r7, #4]
 3393 002c 0433     		adds	r3, r3, #4
 3394 002e 1B68     		ldr	r3, [r3]
 3395 0030 1846     		mov	r0, r3
 3396 0032 FFF7FEFF 		bl	atoi
 3397 0036 0346     		mov	r3, r0
 3398 0038 7B75     		strb	r3, [r7, #21]
 3399 003a 7A7D     		ldrb	r2, [r7, #21]	@ zero_extendqisi2
 3400 003c FB8A     		ldrh	r3, [r7, #22]
 3401 003e 1146     		mov	r1, r2
ARM GAS  /var/folders/d2/nstgp4h54kz7g1l847x_b8wc0000gn/T//cc3fOn4s.s 			page 69


 3402 0040 1846     		mov	r0, r3
 3403 0042 FFF7FEFF 		bl	cam_set_exposure
 3404 0046 0346     		mov	r3, r0
 3405 0048 3B75     		strb	r3, [r7, #20]
 3406 004a 97F91430 		ldrsb	r3, [r7, #20]
 3407 004e 002B     		cmp	r3, #0
 3408 0050 07D0     		beq	.L265
 3409 0052 97F91430 		ldrsb	r3, [r7, #20]
 3410 0056 1A46     		mov	r2, r3
 3411 0058 0749     		ldr	r1, .L267+4
 3412 005a F868     		ldr	r0, [r7, #12]
 3413 005c FFF7FEFF 		bl	chprintf
 3414 0060 03E0     		b	.L266
 3415              	.L265:
 3416 0062 0649     		ldr	r1, .L267+8
 3417 0064 F868     		ldr	r0, [r7, #12]
 3418 0066 FFF7FEFF 		bl	chprintf
 3419              	.L266:
 3420 006a 00BF     		nop
 3421 006c 1837     		adds	r7, r7, #24
 3422 006e BD46     		mov	sp, r7
 3423              		@ sp needed
 3424 0070 80BD     		pop	{r7, pc}
 3425              	.L268:
 3426 0072 00BF     		.align	2
 3427              	.L267:
 3428 0074 A40D0000 		.word	.LC119
 3429 0078 480E0000 		.word	.LC120
 3430 007c 680E0000 		.word	.LC121
 3431              		.size	cmd_cam_set_exposure, .-cmd_cam_set_exposure
 3432              		.section	.rodata
 3433 0e86 0000     		.align	2
 3434              	.LC122:
 3435 0e88 55736167 		.ascii	"Usage: cam_dcmi_prepare capture_mode\015\012capture"
 3435      653A2063 
 3435      616D5F64 
 3435      636D695F 
 3435      70726570 
 3436 0eb5 5F6D6F64 		.ascii	"_mode: 0=oneshot, 1=continuous\015\012\000"
 3436      653A2030 
 3436      3D6F6E65 
 3436      73686F74 
 3436      2C20313D 
 3437 0ed6 0000     		.align	2
 3438              	.LC123:
 3439 0ed8 44434D49 		.ascii	"DCMI prepared.\015\012\000"
 3439      20707265 
 3439      70617265 
 3439      642E0D0A 
 3439      00
 3440 0ee9 000000   		.align	2
 3441              	.LC124:
 3442 0eec 43616E6E 		.ascii	"Cannot prepare dcmi, image size too big.\015\012\000"
 3442      6F742070 
 3442      72657061 
 3442      72652064 
 3442      636D692C 
ARM GAS  /var/folders/d2/nstgp4h54kz7g1l847x_b8wc0000gn/T//cc3fOn4s.s 			page 70


 3443              		.section	.text.cmd_cam_dcmi_prepare,"ax",%progbits
 3444              		.align	1
 3445              		.syntax unified
 3446              		.thumb
 3447              		.thumb_func
 3448              		.fpu fpv4-sp-d16
 3449              		.type	cmd_cam_dcmi_prepare, %function
 3450              	cmd_cam_dcmi_prepare:
 3451              		@ args = 0, pretend = 0, frame = 24
 3452              		@ frame_needed = 1, uses_anonymous_args = 0
 3453 0000 80B5     		push	{r7, lr}
 3454 0002 86B0     		sub	sp, sp, #24
 3455 0004 00AF     		add	r7, sp, #0
 3456 0006 F860     		str	r0, [r7, #12]
 3457 0008 B960     		str	r1, [r7, #8]
 3458 000a 7A60     		str	r2, [r7, #4]
 3459 000c 0023     		movs	r3, #0
 3460 000e FB75     		strb	r3, [r7, #23]
 3461 0010 BB68     		ldr	r3, [r7, #8]
 3462 0012 012B     		cmp	r3, #1
 3463 0014 04D0     		beq	.L270
 3464 0016 1549     		ldr	r1, .L275
 3465 0018 F868     		ldr	r0, [r7, #12]
 3466 001a FFF7FEFF 		bl	chprintf
 3467 001e 21E0     		b	.L269
 3468              	.L270:
 3469 0020 7B68     		ldr	r3, [r7, #4]
 3470 0022 1B68     		ldr	r3, [r3]
 3471 0024 1846     		mov	r0, r3
 3472 0026 FFF7FEFF 		bl	atoi
 3473 002a 0346     		mov	r3, r0
 3474 002c FB75     		strb	r3, [r7, #23]
 3475 002e FB7D     		ldrb	r3, [r7, #23]	@ zero_extendqisi2
 3476 0030 1846     		mov	r0, r3
 3477 0032 FFF7FEFF 		bl	dcmi_set_capture_mode
 3478 0036 FB7D     		ldrb	r3, [r7, #23]	@ zero_extendqisi2
 3479 0038 002B     		cmp	r3, #0
 3480 003a 02D1     		bne	.L272
 3481 003c FFF7FEFF 		bl	dcmi_disable_double_buffering
 3482 0040 01E0     		b	.L273
 3483              	.L272:
 3484 0042 FFF7FEFF 		bl	dcmi_enable_double_buffering
 3485              	.L273:
 3486 0046 FFF7FEFF 		bl	dcmi_prepare
 3487 004a 0346     		mov	r3, r0
 3488 004c 002B     		cmp	r3, #0
 3489 004e 04D1     		bne	.L274
 3490 0050 0749     		ldr	r1, .L275+4
 3491 0052 F868     		ldr	r0, [r7, #12]
 3492 0054 FFF7FEFF 		bl	chprintf
 3493 0058 04E0     		b	.L269
 3494              	.L274:
 3495 005a 0649     		ldr	r1, .L275+8
 3496 005c F868     		ldr	r0, [r7, #12]
 3497 005e FFF7FEFF 		bl	chprintf
 3498 0062 00BF     		nop
 3499              	.L269:
ARM GAS  /var/folders/d2/nstgp4h54kz7g1l847x_b8wc0000gn/T//cc3fOn4s.s 			page 71


 3500 0064 1837     		adds	r7, r7, #24
 3501 0066 BD46     		mov	sp, r7
 3502              		@ sp needed
 3503 0068 80BD     		pop	{r7, pc}
 3504              	.L276:
 3505 006a 00BF     		.align	2
 3506              	.L275:
 3507 006c 880E0000 		.word	.LC122
 3508 0070 D80E0000 		.word	.LC123
 3509 0074 EC0E0000 		.word	.LC124
 3510              		.size	cmd_cam_dcmi_prepare, .-cmd_cam_dcmi_prepare
 3511              		.section	.rodata
 3512 0f17 00       		.align	2
 3513              	.LC125:
 3514 0f18 44434D49 		.ascii	"DCMI released correctly\015\012\000"
 3514      2072656C 
 3514      65617365 
 3514      6420636F 
 3514      72726563 
 3515              		.section	.text.cmd_cam_dcmi_unprepare,"ax",%progbits
 3516              		.align	1
 3517              		.syntax unified
 3518              		.thumb
 3519              		.thumb_func
 3520              		.fpu fpv4-sp-d16
 3521              		.type	cmd_cam_dcmi_unprepare, %function
 3522              	cmd_cam_dcmi_unprepare:
 3523              		@ args = 0, pretend = 0, frame = 16
 3524              		@ frame_needed = 1, uses_anonymous_args = 0
 3525 0000 80B5     		push	{r7, lr}
 3526 0002 84B0     		sub	sp, sp, #16
 3527 0004 00AF     		add	r7, sp, #0
 3528 0006 F860     		str	r0, [r7, #12]
 3529 0008 B960     		str	r1, [r7, #8]
 3530 000a 7A60     		str	r2, [r7, #4]
 3531 000c FFF7FEFF 		bl	dcmi_unprepare
 3532 0010 0349     		ldr	r1, .L278
 3533 0012 F868     		ldr	r0, [r7, #12]
 3534 0014 FFF7FEFF 		bl	chprintf
 3535 0018 00BF     		nop
 3536 001a 1037     		adds	r7, r7, #16
 3537 001c BD46     		mov	sp, r7
 3538              		@ sp needed
 3539 001e 80BD     		pop	{r7, pc}
 3540              	.L279:
 3541              		.align	2
 3542              	.L278:
 3543 0020 180F0000 		.word	.LC125
 3544              		.size	cmd_cam_dcmi_unprepare, .-cmd_cam_dcmi_unprepare
 3545              		.section	.text.cmd_cam_capture,"ax",%progbits
 3546              		.align	1
 3547              		.syntax unified
 3548              		.thumb
 3549              		.thumb_func
 3550              		.fpu fpv4-sp-d16
 3551              		.type	cmd_cam_capture, %function
 3552              	cmd_cam_capture:
ARM GAS  /var/folders/d2/nstgp4h54kz7g1l847x_b8wc0000gn/T//cc3fOn4s.s 			page 72


 3553              		@ args = 0, pretend = 0, frame = 16
 3554              		@ frame_needed = 1, uses_anonymous_args = 0
 3555 0000 80B5     		push	{r7, lr}
 3556 0002 84B0     		sub	sp, sp, #16
 3557 0004 00AF     		add	r7, sp, #0
 3558 0006 F860     		str	r0, [r7, #12]
 3559 0008 B960     		str	r1, [r7, #8]
 3560 000a 7A60     		str	r2, [r7, #4]
 3561 000c FFF7FEFF 		bl	spi_comm_suspend
 3562 0010 FFF7FEFF 		bl	dcmi_capture_start
 3563 0014 FFF7FEFF 		bl	wait_image_ready
 3564 0018 FFF7FEFF 		bl	spi_comm_resume
 3565 001c 00BF     		nop
 3566 001e 1037     		adds	r7, r7, #16
 3567 0020 BD46     		mov	sp, r7
 3568              		@ sp needed
 3569 0022 80BD     		pop	{r7, pc}
 3570              		.size	cmd_cam_capture, .-cmd_cam_capture
 3571              		.section	.rodata
 3572 0f32 0000     		.align	2
 3573              	.LC126:
 3574 0f34 44434D49 		.ascii	"DCMI stop stream error\015\012\000"
 3574      2073746F 
 3574      70207374 
 3574      7265616D 
 3574      20657272 
 3575 0f4d 000000   		.align	2
 3576              	.LC127:
 3577 0f50 54686520 		.ascii	"The 2 images will be sent within 5 seconds\015\012\000"
 3577      3220696D 
 3577      61676573 
 3577      2077696C 
 3577      6C206265 
 3578 0f7d 000000   		.align	2
 3579              	.LC128:
 3580 0f80 54686520 		.ascii	"The image will be sent within 5 seconds\015\012\000"
 3580      696D6167 
 3580      65207769 
 3580      6C6C2062 
 3580      65207365 
 3581              		.section	.text.cmd_cam_send,"ax",%progbits
 3582              		.align	1
 3583              		.syntax unified
 3584              		.thumb
 3585              		.thumb_func
 3586              		.fpu fpv4-sp-d16
 3587              		.type	cmd_cam_send, %function
 3588              	cmd_cam_send:
 3589              		@ args = 0, pretend = 0, frame = 24
 3590              		@ frame_needed = 1, uses_anonymous_args = 0
 3591 0000 90B5     		push	{r4, r7, lr}
 3592 0002 87B0     		sub	sp, sp, #28
 3593 0004 00AF     		add	r7, sp, #0
 3594 0006 F860     		str	r0, [r7, #12]
 3595 0008 B960     		str	r1, [r7, #8]
 3596 000a 7A60     		str	r2, [r7, #4]
 3597 000c FFF7FEFF 		bl	dcmi_capture_stop
ARM GAS  /var/folders/d2/nstgp4h54kz7g1l847x_b8wc0000gn/T//cc3fOn4s.s 			page 73


 3598 0010 0346     		mov	r3, r0
 3599 0012 002B     		cmp	r3, #0
 3600 0014 04D0     		beq	.L282
 3601 0016 2549     		ldr	r1, .L286
 3602 0018 F868     		ldr	r0, [r7, #12]
 3603 001a FFF7FEFF 		bl	chprintf
 3604 001e 40E0     		b	.L285
 3605              	.L282:
 3606 0020 FFF7FEFF 		bl	dcmi_double_buffering_enabled
 3607 0024 0346     		mov	r3, r0
 3608 0026 002B     		cmp	r3, #0
 3609 0028 26D0     		beq	.L284
 3610 002a 2149     		ldr	r1, .L286+4
 3611 002c F868     		ldr	r0, [r7, #12]
 3612 002e FFF7FEFF 		bl	chprintf
 3613 0032 41F28830 		movw	r0, #5000
 3614 0036 FFF7FEFF 		bl	chThdSleep
 3615 003a FFF7FEFF 		bl	dcmi_get_first_buffer_ptr
 3616 003e 7861     		str	r0, [r7, #20]
 3617 0040 1C4B     		ldr	r3, .L286+8
 3618 0042 1B68     		ldr	r3, [r3]
 3619 0044 1C68     		ldr	r4, [r3]
 3620 0046 FFF7FEFF 		bl	cam_get_image_size
 3621 004a 0346     		mov	r3, r0
 3622 004c 1A46     		mov	r2, r3
 3623 004e 7969     		ldr	r1, [r7, #20]
 3624 0050 1848     		ldr	r0, .L286+8
 3625 0052 A047     		blx	r4
 3626 0054 40F6B830 		movw	r0, #3000
 3627 0058 FFF7FEFF 		bl	chThdSleep
 3628 005c FFF7FEFF 		bl	dcmi_get_second_buffer_ptr
 3629 0060 7861     		str	r0, [r7, #20]
 3630 0062 144B     		ldr	r3, .L286+8
 3631 0064 1B68     		ldr	r3, [r3]
 3632 0066 1C68     		ldr	r4, [r3]
 3633 0068 FFF7FEFF 		bl	cam_get_image_size
 3634 006c 0346     		mov	r3, r0
 3635 006e 1A46     		mov	r2, r3
 3636 0070 7969     		ldr	r1, [r7, #20]
 3637 0072 1048     		ldr	r0, .L286+8
 3638 0074 A047     		blx	r4
 3639 0076 14E0     		b	.L285
 3640              	.L284:
 3641 0078 0F49     		ldr	r1, .L286+12
 3642 007a F868     		ldr	r0, [r7, #12]
 3643 007c FFF7FEFF 		bl	chprintf
 3644 0080 41F28830 		movw	r0, #5000
 3645 0084 FFF7FEFF 		bl	chThdSleep
 3646 0088 FFF7FEFF 		bl	cam_get_last_image_ptr
 3647 008c 7861     		str	r0, [r7, #20]
 3648 008e 094B     		ldr	r3, .L286+8
 3649 0090 1B68     		ldr	r3, [r3]
 3650 0092 1C68     		ldr	r4, [r3]
 3651 0094 FFF7FEFF 		bl	cam_get_image_size
 3652 0098 0346     		mov	r3, r0
 3653 009a 1A46     		mov	r2, r3
 3654 009c 7969     		ldr	r1, [r7, #20]
ARM GAS  /var/folders/d2/nstgp4h54kz7g1l847x_b8wc0000gn/T//cc3fOn4s.s 			page 74


 3655 009e 0548     		ldr	r0, .L286+8
 3656 00a0 A047     		blx	r4
 3657              	.L285:
 3658 00a2 00BF     		nop
 3659 00a4 1C37     		adds	r7, r7, #28
 3660 00a6 BD46     		mov	sp, r7
 3661              		@ sp needed
 3662 00a8 90BD     		pop	{r4, r7, pc}
 3663              	.L287:
 3664 00aa 00BF     		.align	2
 3665              	.L286:
 3666 00ac 340F0000 		.word	.LC126
 3667 00b0 500F0000 		.word	.LC127
 3668 00b4 00000000 		.word	SDU1
 3669 00b8 800F0000 		.word	.LC128
 3670              		.size	cmd_cam_send, .-cmd_cam_send
 3671              		.section	.rodata
 3672 0faa 0000     		.align	2
 3673              	.LC129:
 3674 0fac 55736167 		.ascii	"Usage: set_led led_num led_value\015\012led_num: 0-"
 3674      653A2073 
 3674      65745F6C 
 3674      6564206C 
 3674      65645F6E 
 3675 0fd9 333D736D 		.ascii	"3=small leds, 4=body led, 5=front led\015\012value:"
 3675      616C6C20 
 3675      6C656473 
 3675      2C20343D 
 3675      626F6479 
 3676 1006 20303D6F 		.ascii	" 0=off, 1=on, 2=toggle\015\012\000"
 3676      66662C20 
 3676      313D6F6E 
 3676      2C20323D 
 3676      746F6767 
 3677              		.section	.text.cmd_set_led,"ax",%progbits
 3678              		.align	1
 3679              		.syntax unified
 3680              		.thumb
 3681              		.thumb_func
 3682              		.fpu fpv4-sp-d16
 3683              		.type	cmd_set_led, %function
 3684              	cmd_set_led:
 3685              		@ args = 0, pretend = 0, frame = 24
 3686              		@ frame_needed = 1, uses_anonymous_args = 0
 3687 0000 80B5     		push	{r7, lr}
 3688 0002 86B0     		sub	sp, sp, #24
 3689 0004 00AF     		add	r7, sp, #0
 3690 0006 F860     		str	r0, [r7, #12]
 3691 0008 B960     		str	r1, [r7, #8]
 3692 000a 7A60     		str	r2, [r7, #4]
 3693 000c 0023     		movs	r3, #0
 3694 000e FB75     		strb	r3, [r7, #23]
 3695 0010 0023     		movs	r3, #0
 3696 0012 BB75     		strb	r3, [r7, #22]
 3697 0014 BB68     		ldr	r3, [r7, #8]
 3698 0016 022B     		cmp	r3, #2
 3699 0018 04D0     		beq	.L289
ARM GAS  /var/folders/d2/nstgp4h54kz7g1l847x_b8wc0000gn/T//cc3fOn4s.s 			page 75


 3700 001a 1849     		ldr	r1, .L294
 3701 001c F868     		ldr	r0, [r7, #12]
 3702 001e FFF7FEFF 		bl	chprintf
 3703 0022 27E0     		b	.L293
 3704              	.L289:
 3705 0024 7B68     		ldr	r3, [r7, #4]
 3706 0026 1B68     		ldr	r3, [r3]
 3707 0028 1846     		mov	r0, r3
 3708 002a FFF7FEFF 		bl	atoi
 3709 002e 0346     		mov	r3, r0
 3710 0030 FB75     		strb	r3, [r7, #23]
 3711 0032 7B68     		ldr	r3, [r7, #4]
 3712 0034 0433     		adds	r3, r3, #4
 3713 0036 1B68     		ldr	r3, [r3]
 3714 0038 1846     		mov	r0, r3
 3715 003a FFF7FEFF 		bl	atoi
 3716 003e 0346     		mov	r3, r0
 3717 0040 BB75     		strb	r3, [r7, #22]
 3718 0042 FB7D     		ldrb	r3, [r7, #23]	@ zero_extendqisi2
 3719 0044 032B     		cmp	r3, #3
 3720 0046 06D8     		bhi	.L291
 3721 0048 BA7D     		ldrb	r2, [r7, #22]	@ zero_extendqisi2
 3722 004a FB7D     		ldrb	r3, [r7, #23]	@ zero_extendqisi2
 3723 004c 1146     		mov	r1, r2
 3724 004e 1846     		mov	r0, r3
 3725 0050 FFF7FEFF 		bl	set_led
 3726 0054 0EE0     		b	.L293
 3727              	.L291:
 3728 0056 FB7D     		ldrb	r3, [r7, #23]	@ zero_extendqisi2
 3729 0058 042B     		cmp	r3, #4
 3730 005a 04D1     		bne	.L292
 3731 005c BB7D     		ldrb	r3, [r7, #22]	@ zero_extendqisi2
 3732 005e 1846     		mov	r0, r3
 3733 0060 FFF7FEFF 		bl	set_body_led
 3734 0064 06E0     		b	.L293
 3735              	.L292:
 3736 0066 FB7D     		ldrb	r3, [r7, #23]	@ zero_extendqisi2
 3737 0068 052B     		cmp	r3, #5
 3738 006a 03D1     		bne	.L293
 3739 006c BB7D     		ldrb	r3, [r7, #22]	@ zero_extendqisi2
 3740 006e 1846     		mov	r0, r3
 3741 0070 FFF7FEFF 		bl	set_front_led
 3742              	.L293:
 3743 0074 00BF     		nop
 3744 0076 1837     		adds	r7, r7, #24
 3745 0078 BD46     		mov	sp, r7
 3746              		@ sp needed
 3747 007a 80BD     		pop	{r7, pc}
 3748              	.L295:
 3749              		.align	2
 3750              	.L294:
 3751 007c AC0F0000 		.word	.LC129
 3752              		.size	cmd_set_led, .-cmd_set_led
 3753              		.section	.rodata
 3754 101f 00       		.align	2
 3755              	.LC130:
 3756 1020 55736167 		.ascii	"Usage: set_speed left right\015\012speed: %d..%d\015"
ARM GAS  /var/folders/d2/nstgp4h54kz7g1l847x_b8wc0000gn/T//cc3fOn4s.s 			page 76


 3756      653A2073 
 3756      65745F73 
 3756      70656564 
 3756      206C6566 
 3757 104b 0A00     		.ascii	"\012\000"
 3758 104d 000000   		.align	2
 3759              	.LC131:
 3760 1050 6C737065 		.ascii	"lspeed=%d, rspeed=%d\015\012\000"
 3760      65643D25 
 3760      642C2072 
 3760      73706565 
 3760      643D2564 
 3761              		.section	.text.cmd_set_speed,"ax",%progbits
 3762              		.align	1
 3763              		.syntax unified
 3764              		.thumb
 3765              		.thumb_func
 3766              		.fpu fpv4-sp-d16
 3767              		.type	cmd_set_speed, %function
 3768              	cmd_set_speed:
 3769              		@ args = 0, pretend = 0, frame = 24
 3770              		@ frame_needed = 1, uses_anonymous_args = 0
 3771 0000 80B5     		push	{r7, lr}
 3772 0002 86B0     		sub	sp, sp, #24
 3773 0004 00AF     		add	r7, sp, #0
 3774 0006 F860     		str	r0, [r7, #12]
 3775 0008 B960     		str	r1, [r7, #8]
 3776 000a 7A60     		str	r2, [r7, #4]
 3777 000c 0023     		movs	r3, #0
 3778 000e FB82     		strh	r3, [r7, #22]	@ movhi
 3779 0010 0023     		movs	r3, #0
 3780 0012 BB82     		strh	r3, [r7, #20]	@ movhi
 3781 0014 BB68     		ldr	r3, [r7, #8]
 3782 0016 022B     		cmp	r3, #2
 3783 0018 07D0     		beq	.L297
 3784 001a 40F24C43 		movw	r3, #1100
 3785 001e 154A     		ldr	r2, .L300
 3786 0020 1549     		ldr	r1, .L300+4
 3787 0022 F868     		ldr	r0, [r7, #12]
 3788 0024 FFF7FEFF 		bl	chprintf
 3789 0028 20E0     		b	.L299
 3790              	.L297:
 3791 002a 7B68     		ldr	r3, [r7, #4]
 3792 002c 1B68     		ldr	r3, [r3]
 3793 002e 1846     		mov	r0, r3
 3794 0030 FFF7FEFF 		bl	atoi
 3795 0034 0346     		mov	r3, r0
 3796 0036 FB82     		strh	r3, [r7, #22]	@ movhi
 3797 0038 7B68     		ldr	r3, [r7, #4]
 3798 003a 0433     		adds	r3, r3, #4
 3799 003c 1B68     		ldr	r3, [r3]
 3800 003e 1846     		mov	r0, r3
 3801 0040 FFF7FEFF 		bl	atoi
 3802 0044 0346     		mov	r3, r0
 3803 0046 BB82     		strh	r3, [r7, #20]	@ movhi
 3804 0048 B7F91620 		ldrsh	r2, [r7, #22]
 3805 004c B7F91430 		ldrsh	r3, [r7, #20]
ARM GAS  /var/folders/d2/nstgp4h54kz7g1l847x_b8wc0000gn/T//cc3fOn4s.s 			page 77


 3806 0050 0A49     		ldr	r1, .L300+8
 3807 0052 F868     		ldr	r0, [r7, #12]
 3808 0054 FFF7FEFF 		bl	chprintf
 3809 0058 B7F91430 		ldrsh	r3, [r7, #20]
 3810 005c 1846     		mov	r0, r3
 3811 005e FFF7FEFF 		bl	right_motor_set_speed
 3812 0062 B7F91630 		ldrsh	r3, [r7, #22]
 3813 0066 1846     		mov	r0, r3
 3814 0068 FFF7FEFF 		bl	left_motor_set_speed
 3815              	.L299:
 3816 006c 00BF     		nop
 3817 006e 1837     		adds	r7, r7, #24
 3818 0070 BD46     		mov	sp, r7
 3819              		@ sp needed
 3820 0072 80BD     		pop	{r7, pc}
 3821              	.L301:
 3822              		.align	2
 3823              	.L300:
 3824 0074 B4FBFFFF 		.word	-1100
 3825 0078 20100000 		.word	.LC130
 3826 007c 50100000 		.word	.LC131
 3827              		.size	cmd_set_speed, .-cmd_set_speed
 3828              		.section	.rodata
 3829 1067 00       		.align	2
 3830              	.LC132:
 3831 1068 42617474 		.ascii	"Battery raw value = %d\015\012\000"
 3831      65727920 
 3831      72617720 
 3831      76616C75 
 3831      65203D20 
 3832              		.section	.text.cmd_get_battery,"ax",%progbits
 3833              		.align	1
 3834              		.syntax unified
 3835              		.thumb
 3836              		.thumb_func
 3837              		.fpu fpv4-sp-d16
 3838              		.type	cmd_get_battery, %function
 3839              	cmd_get_battery:
 3840              		@ args = 0, pretend = 0, frame = 16
 3841              		@ frame_needed = 1, uses_anonymous_args = 0
 3842 0000 80B5     		push	{r7, lr}
 3843 0002 84B0     		sub	sp, sp, #16
 3844 0004 00AF     		add	r7, sp, #0
 3845 0006 F860     		str	r0, [r7, #12]
 3846 0008 B960     		str	r1, [r7, #8]
 3847 000a 7A60     		str	r2, [r7, #4]
 3848 000c FFF7FEFF 		bl	get_battery_raw
 3849 0010 0346     		mov	r3, r0
 3850 0012 1A46     		mov	r2, r3
 3851 0014 0349     		ldr	r1, .L303
 3852 0016 F868     		ldr	r0, [r7, #12]
 3853 0018 FFF7FEFF 		bl	chprintf
 3854 001c 00BF     		nop
 3855 001e 1037     		adds	r7, r7, #16
 3856 0020 BD46     		mov	sp, r7
 3857              		@ sp needed
 3858 0022 80BD     		pop	{r7, pc}
ARM GAS  /var/folders/d2/nstgp4h54kz7g1l847x_b8wc0000gn/T//cc3fOn4s.s 			page 78


 3859              	.L304:
 3860              		.align	2
 3861              	.L303:
 3862 0024 68100000 		.word	.LC132
 3863              		.size	cmd_get_battery, .-cmd_get_battery
 3864              		.section	.rodata
 3865 1081 000000   		.align	2
 3866              	.LC133:
 3867 1084 55736167 		.ascii	"Usage: audio_play freq\015\012freq=100..20000 Hz\015"
 3867      653A2061 
 3867      7564696F 
 3867      5F706C61 
 3867      79206672 
 3868 10af 0A00     		.ascii	"\012\000"
 3869              		.section	.text.cmd_audio_play,"ax",%progbits
 3870              		.align	1
 3871              		.syntax unified
 3872              		.thumb
 3873              		.thumb_func
 3874              		.fpu fpv4-sp-d16
 3875              		.type	cmd_audio_play, %function
 3876              	cmd_audio_play:
 3877              		@ args = 0, pretend = 0, frame = 24
 3878              		@ frame_needed = 1, uses_anonymous_args = 0
 3879 0000 80B5     		push	{r7, lr}
 3880 0002 86B0     		sub	sp, sp, #24
 3881 0004 00AF     		add	r7, sp, #0
 3882 0006 F860     		str	r0, [r7, #12]
 3883 0008 B960     		str	r1, [r7, #8]
 3884 000a 7A60     		str	r2, [r7, #4]
 3885 000c BB68     		ldr	r3, [r7, #8]
 3886 000e 012B     		cmp	r3, #1
 3887 0010 04D0     		beq	.L306
 3888 0012 0A49     		ldr	r1, .L309
 3889 0014 F868     		ldr	r0, [r7, #12]
 3890 0016 FFF7FEFF 		bl	chprintf
 3891 001a 0AE0     		b	.L308
 3892              	.L306:
 3893 001c 7B68     		ldr	r3, [r7, #4]
 3894 001e 1B68     		ldr	r3, [r3]
 3895 0020 1846     		mov	r0, r3
 3896 0022 FFF7FEFF 		bl	atoi
 3897 0026 0346     		mov	r3, r0
 3898 0028 FB82     		strh	r3, [r7, #22]	@ movhi
 3899 002a FB8A     		ldrh	r3, [r7, #22]
 3900 002c 1846     		mov	r0, r3
 3901 002e FFF7FEFF 		bl	dac_play
 3902              	.L308:
 3903 0032 00BF     		nop
 3904 0034 1837     		adds	r7, r7, #24
 3905 0036 BD46     		mov	sp, r7
 3906              		@ sp needed
 3907 0038 80BD     		pop	{r7, pc}
 3908              	.L310:
 3909 003a 00BF     		.align	2
 3910              	.L309:
 3911 003c 84100000 		.word	.LC133
ARM GAS  /var/folders/d2/nstgp4h54kz7g1l847x_b8wc0000gn/T//cc3fOn4s.s 			page 79


 3912              		.size	cmd_audio_play, .-cmd_audio_play
 3913              		.section	.text.cmd_audio_stop,"ax",%progbits
 3914              		.align	1
 3915              		.syntax unified
 3916              		.thumb
 3917              		.thumb_func
 3918              		.fpu fpv4-sp-d16
 3919              		.type	cmd_audio_stop, %function
 3920              	cmd_audio_stop:
 3921              		@ args = 0, pretend = 0, frame = 16
 3922              		@ frame_needed = 1, uses_anonymous_args = 0
 3923 0000 80B5     		push	{r7, lr}
 3924 0002 84B0     		sub	sp, sp, #16
 3925 0004 00AF     		add	r7, sp, #0
 3926 0006 F860     		str	r0, [r7, #12]
 3927 0008 B960     		str	r1, [r7, #8]
 3928 000a 7A60     		str	r2, [r7, #4]
 3929 000c FFF7FEFF 		bl	dac_stop
 3930 0010 00BF     		nop
 3931 0012 1037     		adds	r7, r7, #16
 3932 0014 BD46     		mov	sp, r7
 3933              		@ sp needed
 3934 0016 80BD     		pop	{r7, pc}
 3935              		.size	cmd_audio_stop, .-cmd_audio_stop
 3936              		.section	.rodata
 3937 10b1 000000   		.align	2
 3938              	.LC134:
 3939 10b4 55736167 		.ascii	"Usage: volume mic_num.\015\012mic_num=0..3\015\012\000"
 3939      653A2076 
 3939      6F6C756D 
 3939      65206D69 
 3939      635F6E75 
 3940 10db 00       		.align	2
 3941              	.LC135:
 3942 10dc 25640D0A 		.ascii	"%d\015\012\000"
 3942      00
 3943              		.section	.text.cmd_volume,"ax",%progbits
 3944              		.align	1
 3945              		.syntax unified
 3946              		.thumb
 3947              		.thumb_func
 3948              		.fpu fpv4-sp-d16
 3949              		.type	cmd_volume, %function
 3950              	cmd_volume:
 3951              		@ args = 0, pretend = 0, frame = 24
 3952              		@ frame_needed = 1, uses_anonymous_args = 0
 3953 0000 80B5     		push	{r7, lr}
 3954 0002 86B0     		sub	sp, sp, #24
 3955 0004 00AF     		add	r7, sp, #0
 3956 0006 F860     		str	r0, [r7, #12]
 3957 0008 B960     		str	r1, [r7, #8]
 3958 000a 7A60     		str	r2, [r7, #4]
 3959 000c BB68     		ldr	r3, [r7, #8]
 3960 000e 012B     		cmp	r3, #1
 3961 0010 04D0     		beq	.L313
 3962 0012 0D49     		ldr	r1, .L316
 3963 0014 F868     		ldr	r0, [r7, #12]
ARM GAS  /var/folders/d2/nstgp4h54kz7g1l847x_b8wc0000gn/T//cc3fOn4s.s 			page 80


 3964 0016 FFF7FEFF 		bl	chprintf
 3965 001a 10E0     		b	.L315
 3966              	.L313:
 3967 001c 7B68     		ldr	r3, [r7, #4]
 3968 001e 1B68     		ldr	r3, [r3]
 3969 0020 1846     		mov	r0, r3
 3970 0022 FFF7FEFF 		bl	atoi
 3971 0026 0346     		mov	r3, r0
 3972 0028 FB75     		strb	r3, [r7, #23]
 3973 002a FB7D     		ldrb	r3, [r7, #23]	@ zero_extendqisi2
 3974 002c 1846     		mov	r0, r3
 3975 002e FFF7FEFF 		bl	mic_get_volume
 3976 0032 0346     		mov	r3, r0
 3977 0034 1A46     		mov	r2, r3
 3978 0036 0549     		ldr	r1, .L316+4
 3979 0038 F868     		ldr	r0, [r7, #12]
 3980 003a FFF7FEFF 		bl	chprintf
 3981              	.L315:
 3982 003e 00BF     		nop
 3983 0040 1837     		adds	r7, r7, #24
 3984 0042 BD46     		mov	sp, r7
 3985              		@ sp needed
 3986 0044 80BD     		pop	{r7, pc}
 3987              	.L317:
 3988 0046 00BF     		.align	2
 3989              	.L316:
 3990 0048 B4100000 		.word	.LC134
 3991 004c DC100000 		.word	.LC135
 3992              		.size	cmd_volume, .-cmd_volume
 3993              		.section	.text.cmd_mic_data,"ax",%progbits
 3994              		.align	1
 3995              		.syntax unified
 3996              		.thumb
 3997              		.thumb_func
 3998              		.fpu fpv4-sp-d16
 3999              		.type	cmd_mic_data, %function
 4000              	cmd_mic_data:
 4001              		@ args = 0, pretend = 0, frame = 32
 4002              		@ frame_needed = 1, uses_anonymous_args = 0
 4003 0000 80B5     		push	{r7, lr}
 4004 0002 88B0     		sub	sp, sp, #32
 4005 0004 00AF     		add	r7, sp, #0
 4006 0006 F860     		str	r0, [r7, #12]
 4007 0008 B960     		str	r1, [r7, #8]
 4008 000a 7A60     		str	r2, [r7, #4]
 4009 000c FFF7FEFF 		bl	mic_buffer_get_size
 4010 0010 0346     		mov	r3, r0
 4011 0012 FB83     		strh	r3, [r7, #30]	@ movhi
 4012 0014 AA23     		movs	r3, #170
 4013 0016 3B75     		strb	r3, [r7, #20]
 4014 0018 5523     		movs	r3, #85
 4015 001a 7B75     		strb	r3, [r7, #21]
 4016 001c FB8B     		ldrh	r3, [r7, #30]
 4017 001e 1B0A     		lsrs	r3, r3, #8
 4018 0020 9BB2     		uxth	r3, r3
 4019 0022 DBB2     		uxtb	r3, r3
 4020 0024 BB75     		strb	r3, [r7, #22]
ARM GAS  /var/folders/d2/nstgp4h54kz7g1l847x_b8wc0000gn/T//cc3fOn4s.s 			page 81


 4021 0026 FB8B     		ldrh	r3, [r7, #30]	@ movhi
 4022 0028 DBB2     		uxtb	r3, r3
 4023 002a FB75     		strb	r3, [r7, #23]
 4024 002c 104B     		ldr	r3, .L320
 4025 002e 1B68     		ldr	r3, [r3]
 4026 0030 1B68     		ldr	r3, [r3]
 4027 0032 07F11401 		add	r1, r7, #20
 4028 0036 0422     		movs	r2, #4
 4029 0038 0D48     		ldr	r0, .L320
 4030 003a 9847     		blx	r3
 4031 003c FFF7FEFF 		bl	mic_buffer_ready_reset
 4032 0040 00BF     		nop
 4033              	.L319:
 4034 0042 FFF7FEFF 		bl	mic_buffer_is_ready
 4035 0046 0346     		mov	r3, r0
 4036 0048 83F00103 		eor	r3, r3, #1
 4037 004c DBB2     		uxtb	r3, r3
 4038 004e 002B     		cmp	r3, #0
 4039 0050 F7D1     		bne	.L319
 4040 0052 FFF7FEFF 		bl	mic_get_buffer_ptr
 4041 0056 B861     		str	r0, [r7, #24]
 4042 0058 054B     		ldr	r3, .L320
 4043 005a 1B68     		ldr	r3, [r3]
 4044 005c 1B68     		ldr	r3, [r3]
 4045 005e FA8B     		ldrh	r2, [r7, #30]
 4046 0060 B969     		ldr	r1, [r7, #24]
 4047 0062 0348     		ldr	r0, .L320
 4048 0064 9847     		blx	r3
 4049 0066 00BF     		nop
 4050 0068 2037     		adds	r7, r7, #32
 4051 006a BD46     		mov	sp, r7
 4052              		@ sp needed
 4053 006c 80BD     		pop	{r7, pc}
 4054              	.L321:
 4055 006e 00BF     		.align	2
 4056              	.L320:
 4057 0070 00000000 		.word	SDU1
 4058              		.size	cmd_mic_data, .-cmd_mic_data
 4059              		.section	.rodata
 4060 10e1 000000   		.align	2
 4061              	.LC136:
 4062 10e4 55736167 		.ascii	"Usage: sdc read|write|erase|all\015\012\000"
 4062      653A2073 
 4062      64632072 
 4062      6561647C 
 4062      77726974 
 4063 1106 0000     		.align	2
 4064              	.LC137:
 4065 1108 43617264 		.ascii	"Card not inserted, aborting.\015\012\000"
 4065      206E6F74 
 4065      20696E73 
 4065      65727465 
 4065      642C2061 
 4066 1127 00       		.align	2
 4067              	.LC138:
 4068 1128 436F6E6E 		.ascii	"Connecting... \000"
 4068      65637469 
ARM GAS  /var/folders/d2/nstgp4h54kz7g1l847x_b8wc0000gn/T//cc3fOn4s.s 			page 82


 4068      6E672E2E 
 4068      2E2000
 4069 1137 00       		.align	2
 4070              	.LC139:
 4071 1138 6661696C 		.ascii	"failed\015\012\000"
 4071      65640D0A 
 4071      00
 4072 1141 000000   		.align	2
 4073              	.LC140:
 4074 1144 4F4B0D0A 		.ascii	"OK\015\012\015\012Card Info\015\012\000"
 4074      0D0A4361 
 4074      72642049 
 4074      6E666F0D 
 4074      0A00
 4075 1156 0000     		.align	2
 4076              	.LC141:
 4077 1158 43534420 		.ascii	"CSD      : %08X %8X %08X %08X \015\012\000"
 4077      20202020 
 4077      203A2025 
 4077      30385820 
 4077      25385820 
 4078 1179 000000   		.align	2
 4079              	.LC142:
 4080 117c 43494420 		.ascii	"CID      : %08X %8X %08X %08X \015\012\000"
 4080      20202020 
 4080      203A2025 
 4080      30385820 
 4080      25385820 
 4081 119d 000000   		.align	2
 4082              	.LC143:
 4083 11a0 4D6F6465 		.ascii	"Mode     : %s\015\012\000"
 4083      20202020 
 4083      203A2025 
 4083      730D0A00 
 4084              		.align	2
 4085              	.LC144:
 4086 11b0 43617061 		.ascii	"Capacity : %DMB\015\012\000"
 4086      63697479 
 4086      203A2025 
 4086      444D420D 
 4086      0A00
 4087 11c2 0000     		.align	2
 4088              	.LC145:
 4089 11c4 72656164 		.ascii	"read\000"
 4089      00
 4090 11c9 000000   		.align	2
 4091              	.LC146:
 4092 11cc 616C6C00 		.ascii	"all\000"
 4093              		.align	2
 4094              	.LC147:
 4095 11d0 53696E67 		.ascii	"Single block aligned read performance:           \000"
 4095      6C652062 
 4095      6C6F636B 
 4095      20616C69 
 4095      676E6564 
 4096 1202 0000     		.align	2
 4097              	.LC148:
ARM GAS  /var/folders/d2/nstgp4h54kz7g1l847x_b8wc0000gn/T//cc3fOn4s.s 			page 83


 4098 1204 25442062 		.ascii	"%D blocks/S, %D bytes/S\015\012\000"
 4098      6C6F636B 
 4098      732F532C 
 4098      20254420 
 4098      62797465 
 4099 121e 0000     		.align	2
 4100              	.LC149:
 4101 1220 31362073 		.ascii	"16 sequential blocks aligned read performance:   \000"
 4101      65717565 
 4101      6E746961 
 4101      6C20626C 
 4101      6F636B73 
 4102 1252 0000     		.align	2
 4103              	.LC150:
 4104 1254 53696E67 		.ascii	"Single block unaligned read performance:         \000"
 4104      6C652062 
 4104      6C6F636B 
 4104      20756E61 
 4104      6C69676E 
 4105 1286 0000     		.align	2
 4106              	.LC151:
 4107 1288 31362073 		.ascii	"16 sequential blocks unaligned read performance: \000"
 4107      65717565 
 4107      6E746961 
 4107      6C20626C 
 4107      6F636B73 
 4108 12ba 0000     		.align	2
 4109              	.LC152:
 4110 12bc 77726974 		.ascii	"write\000"
 4110      6500
 4111 12c2 0000     		.align	2
 4112              	.LC153:
 4113 12c4 57726974 		.ascii	"Writing...\000"
 4113      696E672E 
 4113      2E2E00
 4114 12cf 00       		.align	2
 4115              	.LC154:
 4116 12d0 4F4B0D0A 		.ascii	"OK\015\012\000"
 4116      00
 4117 12d5 000000   		.align	2
 4118              	.LC155:
 4119 12d8 52656164 		.ascii	"Reading...\000"
 4119      696E672E 
 4119      2E2E00
 4120 12e3 00       		.align	2
 4121              	.LC156:
 4122 12e4 65726173 		.ascii	"erase\000"
 4122      6500
 4123 12ea 0000     		.align	2
 4124              	.LC157:
 4125 12ec 73646345 		.ascii	"sdcErase() test write failed\015\012\000"
 4125      72617365 
 4125      28292074 
 4125      65737420 
 4125      77726974 
 4126 130b 00       		.align	2
 4127              	.LC158:
ARM GAS  /var/folders/d2/nstgp4h54kz7g1l847x_b8wc0000gn/T//cc3fOn4s.s 			page 84


 4128 130c 73646345 		.ascii	"sdcErase() failed\015\012\000"
 4128      72617365 
 4128      28292066 
 4128      61696C65 
 4128      640D0A00 
 4129              		.align	2
 4130              	.LC159:
 4131 1320 73646345 		.ascii	"sdcErase() yielded error flags: %d\015\012\000"
 4131      72617365 
 4131      28292079 
 4131      69656C64 
 4131      65642065 
 4132 1345 000000   		.align	2
 4133              	.LC160:
 4134 1348 73696E67 		.ascii	"single-block sdcErase() failed\015\012\000"
 4134      6C652D62 
 4134      6C6F636B 
 4134      20736463 
 4134      45726173 
 4135 1369 000000   		.align	2
 4136              	.LC161:
 4137 136c 73646345 		.ascii	"sdcErase() non-erased block compare failed\015\012\000"
 4137      72617365 
 4137      2829206E 
 4137      6F6E2D65 
 4137      72617365 
 4138 1399 000000   		.align	2
 4139              	.LC162:
 4140 139c 73646345 		.ascii	"sdcErase() erased block compare failed\015\012\000"
 4140      72617365 
 4140      28292065 
 4140      72617365 
 4140      6420626C 
 4141 13c5 000000   		.align	2
 4142              	.LC163:
 4143 13c8 6D756C74 		.ascii	"multi-block sdcErase() failed\015\012\000"
 4143      692D626C 
 4143      6F636B20 
 4143      73646345 
 4143      72617365 
 4144              		.align	2
 4145              	.LC164:
 4146 13e8 6D756C74 		.ascii	"multi-block sdcErase() erased block compare failed\015"
 4146      692D626C 
 4146      6F636B20 
 4146      73646345 
 4146      72617365 
 4147 141b 0A00     		.ascii	"\012\000"
 4148              		.section	.text.cmd_sdc,"ax",%progbits
 4149              		.align	1
 4150              		.global	cmd_sdc
 4151              		.syntax unified
 4152              		.thumb
 4153              		.thumb_func
 4154              		.fpu fpv4-sp-d16
 4155              		.type	cmd_sdc, %function
 4156              	cmd_sdc:
ARM GAS  /var/folders/d2/nstgp4h54kz7g1l847x_b8wc0000gn/T//cc3fOn4s.s 			page 85


 4157              		@ args = 0, pretend = 0, frame = 48
 4158              		@ frame_needed = 1, uses_anonymous_args = 0
 4159 0000 90B5     		push	{r4, r7, lr}
 4160 0002 8FB0     		sub	sp, sp, #60
 4161 0004 02AF     		add	r7, sp, #8
 4162 0006 F860     		str	r0, [r7, #12]
 4163 0008 B960     		str	r1, [r7, #8]
 4164 000a 7A60     		str	r2, [r7, #4]
 4165 000c BB68     		ldr	r3, [r7, #8]
 4166 000e 012B     		cmp	r3, #1
 4167 0010 04D0     		beq	.L323
 4168 0012 8D49     		ldr	r1, .L359
 4169 0014 F868     		ldr	r0, [r7, #12]
 4170 0016 FFF7FEFF 		bl	chprintf
 4171 001a DCE2     		b	.L322
 4172              	.L323:
 4173 001c 8B4B     		ldr	r3, .L359+4
 4174 001e 1B68     		ldr	r3, [r3]
 4175 0020 1B68     		ldr	r3, [r3]
 4176 0022 8A48     		ldr	r0, .L359+4
 4177 0024 9847     		blx	r3
 4178 0026 0346     		mov	r3, r0
 4179 0028 83F00103 		eor	r3, r3, #1
 4180 002c DBB2     		uxtb	r3, r3
 4181 002e 002B     		cmp	r3, #0
 4182 0030 04D0     		beq	.L325
 4183 0032 8749     		ldr	r1, .L359+8
 4184 0034 F868     		ldr	r0, [r7, #12]
 4185 0036 FFF7FEFF 		bl	chprintf
 4186 003a CCE2     		b	.L322
 4187              	.L325:
 4188 003c 8549     		ldr	r1, .L359+12
 4189 003e F868     		ldr	r0, [r7, #12]
 4190 0040 FFF7FEFF 		bl	chprintf
 4191 0044 8148     		ldr	r0, .L359+4
 4192 0046 FFF7FEFF 		bl	sdcConnect
 4193 004a 0346     		mov	r3, r0
 4194 004c 002B     		cmp	r3, #0
 4195 004e 04D0     		beq	.L326
 4196 0050 8149     		ldr	r1, .L359+16
 4197 0052 F868     		ldr	r0, [r7, #12]
 4198 0054 FFF7FEFF 		bl	chprintf
 4199 0058 BDE2     		b	.L322
 4200              	.L326:
 4201 005a 8049     		ldr	r1, .L359+20
 4202 005c F868     		ldr	r0, [r7, #12]
 4203 005e FFF7FEFF 		bl	chprintf
 4204 0062 7A4B     		ldr	r3, .L359+4
 4205 0064 596A     		ldr	r1, [r3, #36]
 4206 0066 794B     		ldr	r3, .L359+4
 4207 0068 186A     		ldr	r0, [r3, #32]
 4208 006a 784B     		ldr	r3, .L359+4
 4209 006c DB69     		ldr	r3, [r3, #28]
 4210 006e 774A     		ldr	r2, .L359+4
 4211 0070 9269     		ldr	r2, [r2, #24]
 4212 0072 0192     		str	r2, [sp, #4]
 4213 0074 0093     		str	r3, [sp]
ARM GAS  /var/folders/d2/nstgp4h54kz7g1l847x_b8wc0000gn/T//cc3fOn4s.s 			page 86


 4214 0076 0346     		mov	r3, r0
 4215 0078 0A46     		mov	r2, r1
 4216 007a 7949     		ldr	r1, .L359+24
 4217 007c F868     		ldr	r0, [r7, #12]
 4218 007e FFF7FEFF 		bl	chprintf
 4219 0082 724B     		ldr	r3, .L359+4
 4220 0084 5969     		ldr	r1, [r3, #20]
 4221 0086 714B     		ldr	r3, .L359+4
 4222 0088 1869     		ldr	r0, [r3, #16]
 4223 008a 704B     		ldr	r3, .L359+4
 4224 008c DB68     		ldr	r3, [r3, #12]
 4225 008e 6F4A     		ldr	r2, .L359+4
 4226 0090 9268     		ldr	r2, [r2, #8]
 4227 0092 0192     		str	r2, [sp, #4]
 4228 0094 0093     		str	r3, [sp]
 4229 0096 0346     		mov	r3, r0
 4230 0098 0A46     		mov	r2, r1
 4231 009a 7249     		ldr	r1, .L359+28
 4232 009c F868     		ldr	r0, [r7, #12]
 4233 009e FFF7FEFF 		bl	chprintf
 4234 00a2 6A4B     		ldr	r3, .L359+4
 4235 00a4 1B6B     		ldr	r3, [r3, #48]
 4236 00a6 03F00303 		and	r3, r3, #3
 4237 00aa 6F4A     		ldr	r2, .L359+32
 4238 00ac 52F82330 		ldr	r3, [r2, r3, lsl #2]
 4239 00b0 1A46     		mov	r2, r3
 4240 00b2 6E49     		ldr	r1, .L359+36
 4241 00b4 F868     		ldr	r0, [r7, #12]
 4242 00b6 FFF7FEFF 		bl	chprintf
 4243 00ba 644B     		ldr	r3, .L359+4
 4244 00bc 9B6A     		ldr	r3, [r3, #40]
 4245 00be DB0A     		lsrs	r3, r3, #11
 4246 00c0 1A46     		mov	r2, r3
 4247 00c2 6B49     		ldr	r1, .L359+40
 4248 00c4 F868     		ldr	r0, [r7, #12]
 4249 00c6 FFF7FEFF 		bl	chprintf
 4250 00ca 604B     		ldr	r3, .L359+4
 4251 00cc 9B6A     		ldr	r3, [r3, #40]
 4252 00ce 9B0A     		lsrs	r3, r3, #10
 4253 00d0 3B62     		str	r3, [r7, #32]
 4254 00d2 7B68     		ldr	r3, [r7, #4]
 4255 00d4 1B68     		ldr	r3, [r3]
 4256 00d6 6749     		ldr	r1, .L359+44
 4257 00d8 1846     		mov	r0, r3
 4258 00da FFF7FEFF 		bl	strcmp
 4259 00de 0346     		mov	r3, r0
 4260 00e0 002B     		cmp	r3, #0
 4261 00e2 09D0     		beq	.L327
 4262 00e4 7B68     		ldr	r3, [r7, #4]
 4263 00e6 1B68     		ldr	r3, [r3]
 4264 00e8 6349     		ldr	r1, .L359+48
 4265 00ea 1846     		mov	r0, r3
 4266 00ec FFF7FEFF 		bl	strcmp
 4267 00f0 0346     		mov	r3, r0
 4268 00f2 002B     		cmp	r3, #0
 4269 00f4 40F0E180 		bne	.L328
 4270              	.L327:
ARM GAS  /var/folders/d2/nstgp4h54kz7g1l847x_b8wc0000gn/T//cc3fOn4s.s 			page 87


 4271 00f8 6049     		ldr	r1, .L359+52
 4272 00fa F868     		ldr	r0, [r7, #12]
 4273 00fc FFF7FEFF 		bl	chprintf
 4274 0100 FFF7FEFF 		bl	chVTGetSystemTime
 4275 0104 F861     		str	r0, [r7, #28]
 4276 0106 FB69     		ldr	r3, [r7, #28]
 4277 0108 03F57A73 		add	r3, r3, #1000
 4278 010c BB61     		str	r3, [r7, #24]
 4279 010e 0023     		movs	r3, #0
 4280 0110 FB62     		str	r3, [r7, #44]
 4281              	.L331:
 4282 0112 4E4B     		ldr	r3, .L359+4
 4283 0114 1B68     		ldr	r3, [r3]
 4284 0116 1C69     		ldr	r4, [r3, #16]
 4285 0118 0123     		movs	r3, #1
 4286 011a 594A     		ldr	r2, .L359+56
 4287 011c 396A     		ldr	r1, [r7, #32]
 4288 011e 4B48     		ldr	r0, .L359+4
 4289 0120 A047     		blx	r4
 4290 0122 0346     		mov	r3, r0
 4291 0124 002B     		cmp	r3, #0
 4292 0126 04D0     		beq	.L329
 4293 0128 4B49     		ldr	r1, .L359+16
 4294 012a F868     		ldr	r0, [r7, #12]
 4295 012c FFF7FEFF 		bl	chprintf
 4296 0130 4EE2     		b	.L330
 4297              	.L329:
 4298 0132 FB6A     		ldr	r3, [r7, #44]
 4299 0134 0133     		adds	r3, r3, #1
 4300 0136 FB62     		str	r3, [r7, #44]
 4301 0138 B969     		ldr	r1, [r7, #24]
 4302 013a F869     		ldr	r0, [r7, #28]
 4303 013c FFF7FEFF 		bl	chVTIsSystemTimeWithin
 4304 0140 0346     		mov	r3, r0
 4305 0142 002B     		cmp	r3, #0
 4306 0144 E5D1     		bne	.L331
 4307 0146 FB6A     		ldr	r3, [r7, #44]
 4308 0148 5B02     		lsls	r3, r3, #9
 4309 014a FA6A     		ldr	r2, [r7, #44]
 4310 014c 4D49     		ldr	r1, .L359+60
 4311 014e F868     		ldr	r0, [r7, #12]
 4312 0150 FFF7FEFF 		bl	chprintf
 4313 0154 4C49     		ldr	r1, .L359+64
 4314 0156 F868     		ldr	r0, [r7, #12]
 4315 0158 FFF7FEFF 		bl	chprintf
 4316 015c FFF7FEFF 		bl	chVTGetSystemTime
 4317 0160 F861     		str	r0, [r7, #28]
 4318 0162 FB69     		ldr	r3, [r7, #28]
 4319 0164 03F57A73 		add	r3, r3, #1000
 4320 0168 BB61     		str	r3, [r7, #24]
 4321 016a 0023     		movs	r3, #0
 4322 016c FB62     		str	r3, [r7, #44]
 4323              	.L333:
 4324 016e 374B     		ldr	r3, .L359+4
 4325 0170 1B68     		ldr	r3, [r3]
 4326 0172 1C69     		ldr	r4, [r3, #16]
 4327 0174 1023     		movs	r3, #16
ARM GAS  /var/folders/d2/nstgp4h54kz7g1l847x_b8wc0000gn/T//cc3fOn4s.s 			page 88


 4328 0176 424A     		ldr	r2, .L359+56
 4329 0178 396A     		ldr	r1, [r7, #32]
 4330 017a 3448     		ldr	r0, .L359+4
 4331 017c A047     		blx	r4
 4332 017e 0346     		mov	r3, r0
 4333 0180 002B     		cmp	r3, #0
 4334 0182 04D0     		beq	.L332
 4335 0184 3449     		ldr	r1, .L359+16
 4336 0186 F868     		ldr	r0, [r7, #12]
 4337 0188 FFF7FEFF 		bl	chprintf
 4338 018c 20E2     		b	.L330
 4339              	.L332:
 4340 018e FB6A     		ldr	r3, [r7, #44]
 4341 0190 1033     		adds	r3, r3, #16
 4342 0192 FB62     		str	r3, [r7, #44]
 4343 0194 B969     		ldr	r1, [r7, #24]
 4344 0196 F869     		ldr	r0, [r7, #28]
 4345 0198 FFF7FEFF 		bl	chVTIsSystemTimeWithin
 4346 019c 0346     		mov	r3, r0
 4347 019e 002B     		cmp	r3, #0
 4348 01a0 E5D1     		bne	.L333
 4349 01a2 FB6A     		ldr	r3, [r7, #44]
 4350 01a4 5B02     		lsls	r3, r3, #9
 4351 01a6 FA6A     		ldr	r2, [r7, #44]
 4352 01a8 3649     		ldr	r1, .L359+60
 4353 01aa F868     		ldr	r0, [r7, #12]
 4354 01ac FFF7FEFF 		bl	chprintf
 4355 01b0 3649     		ldr	r1, .L359+68
 4356 01b2 F868     		ldr	r0, [r7, #12]
 4357 01b4 FFF7FEFF 		bl	chprintf
 4358 01b8 FFF7FEFF 		bl	chVTGetSystemTime
 4359 01bc F861     		str	r0, [r7, #28]
 4360 01be FB69     		ldr	r3, [r7, #28]
 4361 01c0 03F57A73 		add	r3, r3, #1000
 4362 01c4 BB61     		str	r3, [r7, #24]
 4363 01c6 0023     		movs	r3, #0
 4364 01c8 FB62     		str	r3, [r7, #44]
 4365              	.L335:
 4366 01ca 204B     		ldr	r3, .L359+4
 4367 01cc 1B68     		ldr	r3, [r3]
 4368 01ce 1C69     		ldr	r4, [r3, #16]
 4369 01d0 2F4A     		ldr	r2, .L359+72
 4370 01d2 0123     		movs	r3, #1
 4371 01d4 396A     		ldr	r1, [r7, #32]
 4372 01d6 1D48     		ldr	r0, .L359+4
 4373 01d8 A047     		blx	r4
 4374 01da 0346     		mov	r3, r0
 4375 01dc 002B     		cmp	r3, #0
 4376 01de 04D0     		beq	.L334
 4377 01e0 1D49     		ldr	r1, .L359+16
 4378 01e2 F868     		ldr	r0, [r7, #12]
 4379 01e4 FFF7FEFF 		bl	chprintf
 4380 01e8 F2E1     		b	.L330
 4381              	.L334:
 4382 01ea FB6A     		ldr	r3, [r7, #44]
 4383 01ec 0133     		adds	r3, r3, #1
 4384 01ee FB62     		str	r3, [r7, #44]
ARM GAS  /var/folders/d2/nstgp4h54kz7g1l847x_b8wc0000gn/T//cc3fOn4s.s 			page 89


 4385 01f0 B969     		ldr	r1, [r7, #24]
 4386 01f2 F869     		ldr	r0, [r7, #28]
 4387 01f4 FFF7FEFF 		bl	chVTIsSystemTimeWithin
 4388 01f8 0346     		mov	r3, r0
 4389 01fa 002B     		cmp	r3, #0
 4390 01fc E5D1     		bne	.L335
 4391 01fe FB6A     		ldr	r3, [r7, #44]
 4392 0200 5B02     		lsls	r3, r3, #9
 4393 0202 FA6A     		ldr	r2, [r7, #44]
 4394 0204 1F49     		ldr	r1, .L359+60
 4395 0206 F868     		ldr	r0, [r7, #12]
 4396 0208 FFF7FEFF 		bl	chprintf
 4397 020c 2149     		ldr	r1, .L359+76
 4398 020e F868     		ldr	r0, [r7, #12]
 4399 0210 FFF7FEFF 		bl	chprintf
 4400 0214 FFF7FEFF 		bl	chVTGetSystemTime
 4401 0218 F861     		str	r0, [r7, #28]
 4402 021a FB69     		ldr	r3, [r7, #28]
 4403 021c 03F57A73 		add	r3, r3, #1000
 4404 0220 BB61     		str	r3, [r7, #24]
 4405 0222 0023     		movs	r3, #0
 4406 0224 FB62     		str	r3, [r7, #44]
 4407              	.L337:
 4408 0226 094B     		ldr	r3, .L359+4
 4409 0228 1B68     		ldr	r3, [r3]
 4410 022a 1C69     		ldr	r4, [r3, #16]
 4411 022c 184A     		ldr	r2, .L359+72
 4412 022e 1023     		movs	r3, #16
 4413 0230 396A     		ldr	r1, [r7, #32]
 4414 0232 0648     		ldr	r0, .L359+4
 4415 0234 A047     		blx	r4
 4416 0236 0346     		mov	r3, r0
 4417 0238 002B     		cmp	r3, #0
 4418 023a 2DD0     		beq	.L336
 4419 023c 0649     		ldr	r1, .L359+16
 4420 023e F868     		ldr	r0, [r7, #12]
 4421 0240 FFF7FEFF 		bl	chprintf
 4422 0244 C4E1     		b	.L330
 4423              	.L360:
 4424 0246 00BF     		.align	2
 4425              	.L359:
 4426 0248 E4100000 		.word	.LC136
 4427 024c 00000000 		.word	SDCD1
 4428 0250 08110000 		.word	.LC137
 4429 0254 28110000 		.word	.LC138
 4430 0258 38110000 		.word	.LC139
 4431 025c 44110000 		.word	.LC140
 4432 0260 58110000 		.word	.LC141
 4433 0264 7C110000 		.word	.LC142
 4434 0268 00000000 		.word	mode.13757
 4435 026c A0110000 		.word	.LC143
 4436 0270 B0110000 		.word	.LC144
 4437 0274 C4110000 		.word	.LC145
 4438 0278 CC110000 		.word	.LC146
 4439 027c D0110000 		.word	.LC147
 4440 0280 00000000 		.word	buf
 4441 0284 04120000 		.word	.LC148
ARM GAS  /var/folders/d2/nstgp4h54kz7g1l847x_b8wc0000gn/T//cc3fOn4s.s 			page 90


 4442 0288 20120000 		.word	.LC149
 4443 028c 54120000 		.word	.LC150
 4444 0290 01000000 		.word	buf+1
 4445 0294 88120000 		.word	.LC151
 4446              	.L336:
 4447 0298 FB6A     		ldr	r3, [r7, #44]
 4448 029a 1033     		adds	r3, r3, #16
 4449 029c FB62     		str	r3, [r7, #44]
 4450 029e B969     		ldr	r1, [r7, #24]
 4451 02a0 F869     		ldr	r0, [r7, #28]
 4452 02a2 FFF7FEFF 		bl	chVTIsSystemTimeWithin
 4453 02a6 0346     		mov	r3, r0
 4454 02a8 002B     		cmp	r3, #0
 4455 02aa BCD1     		bne	.L337
 4456 02ac FB6A     		ldr	r3, [r7, #44]
 4457 02ae 5B02     		lsls	r3, r3, #9
 4458 02b0 FA6A     		ldr	r2, [r7, #44]
 4459 02b2 A949     		ldr	r1, .L361
 4460 02b4 F868     		ldr	r0, [r7, #12]
 4461 02b6 FFF7FEFF 		bl	chprintf
 4462              	.L328:
 4463 02ba 7B68     		ldr	r3, [r7, #4]
 4464 02bc 1B68     		ldr	r3, [r3]
 4465 02be A749     		ldr	r1, .L361+4
 4466 02c0 1846     		mov	r0, r3
 4467 02c2 FFF7FEFF 		bl	strcmp
 4468 02c6 0346     		mov	r3, r0
 4469 02c8 002B     		cmp	r3, #0
 4470 02ca 09D0     		beq	.L338
 4471 02cc 7B68     		ldr	r3, [r7, #4]
 4472 02ce 1B68     		ldr	r3, [r3]
 4473 02d0 A349     		ldr	r1, .L361+8
 4474 02d2 1846     		mov	r0, r3
 4475 02d4 FFF7FEFF 		bl	strcmp
 4476 02d8 0346     		mov	r3, r0
 4477 02da 002B     		cmp	r3, #0
 4478 02dc 40F08180 		bne	.L339
 4479              	.L338:
 4480 02e0 4FF48062 		mov	r2, #1024
 4481 02e4 AA21     		movs	r1, #170
 4482 02e6 9F48     		ldr	r0, .L361+12
 4483 02e8 FFF7FEFF 		bl	memset
 4484 02ec 9E49     		ldr	r1, .L361+16
 4485 02ee F868     		ldr	r0, [r7, #12]
 4486 02f0 FFF7FEFF 		bl	chprintf
 4487 02f4 0223     		movs	r3, #2
 4488 02f6 9B4A     		ldr	r2, .L361+12
 4489 02f8 396A     		ldr	r1, [r7, #32]
 4490 02fa 9C48     		ldr	r0, .L361+20
 4491 02fc FFF7FEFF 		bl	sdcWrite
 4492 0300 0346     		mov	r3, r0
 4493 0302 002B     		cmp	r3, #0
 4494 0304 04D0     		beq	.L340
 4495 0306 9A49     		ldr	r1, .L361+24
 4496 0308 F868     		ldr	r0, [r7, #12]
 4497 030a FFF7FEFF 		bl	chprintf
 4498 030e 5FE1     		b	.L330
ARM GAS  /var/folders/d2/nstgp4h54kz7g1l847x_b8wc0000gn/T//cc3fOn4s.s 			page 91


 4499              	.L340:
 4500 0310 9849     		ldr	r1, .L361+28
 4501 0312 F868     		ldr	r0, [r7, #12]
 4502 0314 FFF7FEFF 		bl	chprintf
 4503 0318 4FF48062 		mov	r2, #1024
 4504 031c 5521     		movs	r1, #85
 4505 031e 9148     		ldr	r0, .L361+12
 4506 0320 FFF7FEFF 		bl	memset
 4507 0324 9449     		ldr	r1, .L361+32
 4508 0326 F868     		ldr	r0, [r7, #12]
 4509 0328 FFF7FEFF 		bl	chprintf
 4510 032c 8F4B     		ldr	r3, .L361+20
 4511 032e 1B68     		ldr	r3, [r3]
 4512 0330 1C69     		ldr	r4, [r3, #16]
 4513 0332 0123     		movs	r3, #1
 4514 0334 8B4A     		ldr	r2, .L361+12
 4515 0336 396A     		ldr	r1, [r7, #32]
 4516 0338 8C48     		ldr	r0, .L361+20
 4517 033a A047     		blx	r4
 4518 033c 0346     		mov	r3, r0
 4519 033e 002B     		cmp	r3, #0
 4520 0340 04D0     		beq	.L341
 4521 0342 8B49     		ldr	r1, .L361+24
 4522 0344 F868     		ldr	r0, [r7, #12]
 4523 0346 FFF7FEFF 		bl	chprintf
 4524 034a 41E1     		b	.L330
 4525              	.L341:
 4526 034c 8949     		ldr	r1, .L361+28
 4527 034e F868     		ldr	r0, [r7, #12]
 4528 0350 FFF7FEFF 		bl	chprintf
 4529 0354 0023     		movs	r3, #0
 4530 0356 BB62     		str	r3, [r7, #40]
 4531 0358 0BE0     		b	.L342
 4532              	.L343:
 4533 035a BB6A     		ldr	r3, [r7, #40]
 4534 035c DBB2     		uxtb	r3, r3
 4535 035e 0833     		adds	r3, r3, #8
 4536 0360 D9B2     		uxtb	r1, r3
 4537 0362 804A     		ldr	r2, .L361+12
 4538 0364 BB6A     		ldr	r3, [r7, #40]
 4539 0366 1344     		add	r3, r3, r2
 4540 0368 0A46     		mov	r2, r1
 4541 036a 1A70     		strb	r2, [r3]
 4542 036c BB6A     		ldr	r3, [r7, #40]
 4543 036e 0133     		adds	r3, r3, #1
 4544 0370 BB62     		str	r3, [r7, #40]
 4545              	.L342:
 4546 0372 BB6A     		ldr	r3, [r7, #40]
 4547 0374 B3F5007F 		cmp	r3, #512
 4548 0378 EFD3     		bcc	.L343
 4549 037a 7B49     		ldr	r1, .L361+16
 4550 037c F868     		ldr	r0, [r7, #12]
 4551 037e FFF7FEFF 		bl	chprintf
 4552 0382 0223     		movs	r3, #2
 4553 0384 774A     		ldr	r2, .L361+12
 4554 0386 396A     		ldr	r1, [r7, #32]
 4555 0388 7848     		ldr	r0, .L361+20
ARM GAS  /var/folders/d2/nstgp4h54kz7g1l847x_b8wc0000gn/T//cc3fOn4s.s 			page 92


 4556 038a FFF7FEFF 		bl	sdcWrite
 4557 038e 0346     		mov	r3, r0
 4558 0390 002B     		cmp	r3, #0
 4559 0392 04D0     		beq	.L344
 4560 0394 7649     		ldr	r1, .L361+24
 4561 0396 F868     		ldr	r0, [r7, #12]
 4562 0398 FFF7FEFF 		bl	chprintf
 4563 039c 18E1     		b	.L330
 4564              	.L344:
 4565 039e 7549     		ldr	r1, .L361+28
 4566 03a0 F868     		ldr	r0, [r7, #12]
 4567 03a2 FFF7FEFF 		bl	chprintf
 4568 03a6 4FF48062 		mov	r2, #1024
 4569 03aa 0021     		movs	r1, #0
 4570 03ac 6D48     		ldr	r0, .L361+12
 4571 03ae FFF7FEFF 		bl	memset
 4572 03b2 7149     		ldr	r1, .L361+32
 4573 03b4 F868     		ldr	r0, [r7, #12]
 4574 03b6 FFF7FEFF 		bl	chprintf
 4575 03ba 6C4B     		ldr	r3, .L361+20
 4576 03bc 1B68     		ldr	r3, [r3]
 4577 03be 1C69     		ldr	r4, [r3, #16]
 4578 03c0 0123     		movs	r3, #1
 4579 03c2 684A     		ldr	r2, .L361+12
 4580 03c4 396A     		ldr	r1, [r7, #32]
 4581 03c6 6948     		ldr	r0, .L361+20
 4582 03c8 A047     		blx	r4
 4583 03ca 0346     		mov	r3, r0
 4584 03cc 002B     		cmp	r3, #0
 4585 03ce 04D0     		beq	.L345
 4586 03d0 6749     		ldr	r1, .L361+24
 4587 03d2 F868     		ldr	r0, [r7, #12]
 4588 03d4 FFF7FEFF 		bl	chprintf
 4589 03d8 FAE0     		b	.L330
 4590              	.L345:
 4591 03da 6649     		ldr	r1, .L361+28
 4592 03dc F868     		ldr	r0, [r7, #12]
 4593 03de FFF7FEFF 		bl	chprintf
 4594              	.L339:
 4595 03e2 7B68     		ldr	r3, [r7, #4]
 4596 03e4 1B68     		ldr	r3, [r3]
 4597 03e6 6549     		ldr	r1, .L361+36
 4598 03e8 1846     		mov	r0, r3
 4599 03ea FFF7FEFF 		bl	strcmp
 4600 03ee 0346     		mov	r3, r0
 4601 03f0 002B     		cmp	r3, #0
 4602 03f2 09D0     		beq	.L346
 4603 03f4 7B68     		ldr	r3, [r7, #4]
 4604 03f6 1B68     		ldr	r3, [r3]
 4605 03f8 5949     		ldr	r1, .L361+8
 4606 03fa 1846     		mov	r0, r3
 4607 03fc FFF7FEFF 		bl	strcmp
 4608 0400 0346     		mov	r3, r0
 4609 0402 002B     		cmp	r3, #0
 4610 0404 40F0E380 		bne	.L358
 4611              	.L346:
 4612 0408 4FF48062 		mov	r2, #1024
ARM GAS  /var/folders/d2/nstgp4h54kz7g1l847x_b8wc0000gn/T//cc3fOn4s.s 			page 93


 4613 040c 0021     		movs	r1, #0
 4614 040e 5548     		ldr	r0, .L361+12
 4615 0410 FFF7FEFF 		bl	memset
 4616 0414 4FF48062 		mov	r2, #1024
 4617 0418 0021     		movs	r1, #0
 4618 041a 5948     		ldr	r0, .L361+40
 4619 041c FFF7FEFF 		bl	memset
 4620 0420 0023     		movs	r3, #0
 4621 0422 7B62     		str	r3, [r7, #36]
 4622 0424 13E0     		b	.L347
 4623              	.L348:
 4624 0426 7B6A     		ldr	r3, [r7, #36]
 4625 0428 DA1D     		adds	r2, r3, #7
 4626 042a 9308     		lsrs	r3, r2, #2
 4627 042c 5549     		ldr	r1, .L361+44
 4628 042e A1FB0313 		umull	r1, r3, r1, r3
 4629 0432 9B08     		lsrs	r3, r3, #2
 4630 0434 5421     		movs	r1, #84
 4631 0436 01FB03F3 		mul	r3, r1, r3
 4632 043a D31A     		subs	r3, r2, r3
 4633 043c D9B2     		uxtb	r1, r3
 4634 043e 494A     		ldr	r2, .L361+12
 4635 0440 7B6A     		ldr	r3, [r7, #36]
 4636 0442 1344     		add	r3, r3, r2
 4637 0444 0A46     		mov	r2, r1
 4638 0446 1A70     		strb	r2, [r3]
 4639 0448 7B6A     		ldr	r3, [r7, #36]
 4640 044a 0133     		adds	r3, r3, #1
 4641 044c 7B62     		str	r3, [r7, #36]
 4642              	.L347:
 4643 044e 7B6A     		ldr	r3, [r7, #36]
 4644 0450 B3F5806F 		cmp	r3, #1024
 4645 0454 E7D3     		bcc	.L348
 4646 0456 0223     		movs	r3, #2
 4647 0458 424A     		ldr	r2, .L361+12
 4648 045a 396A     		ldr	r1, [r7, #32]
 4649 045c 4348     		ldr	r0, .L361+20
 4650 045e FFF7FEFF 		bl	sdcWrite
 4651 0462 0346     		mov	r3, r0
 4652 0464 002B     		cmp	r3, #0
 4653 0466 04D0     		beq	.L349
 4654 0468 4749     		ldr	r1, .L361+48
 4655 046a F868     		ldr	r0, [r7, #12]
 4656 046c FFF7FEFF 		bl	chprintf
 4657 0470 AEE0     		b	.L330
 4658              	.L349:
 4659 0472 3B6A     		ldr	r3, [r7, #32]
 4660 0474 591C     		adds	r1, r3, #1
 4661 0476 3B6A     		ldr	r3, [r7, #32]
 4662 0478 0233     		adds	r3, r3, #2
 4663 047a 1A46     		mov	r2, r3
 4664 047c 3B48     		ldr	r0, .L361+20
 4665 047e FFF7FEFF 		bl	sdcErase
 4666 0482 0346     		mov	r3, r0
 4667 0484 002B     		cmp	r3, #0
 4668 0486 04D0     		beq	.L350
 4669 0488 4049     		ldr	r1, .L361+52
ARM GAS  /var/folders/d2/nstgp4h54kz7g1l847x_b8wc0000gn/T//cc3fOn4s.s 			page 94


 4670 048a F868     		ldr	r0, [r7, #12]
 4671 048c FFF7FEFF 		bl	chprintf
 4672 0490 9EE0     		b	.L330
 4673              	.L350:
 4674 0492 3648     		ldr	r0, .L361+20
 4675 0494 FFF7FEFF 		bl	sdcGetAndClearErrors
 4676 0498 7861     		str	r0, [r7, #20]
 4677 049a 7B69     		ldr	r3, [r7, #20]
 4678 049c 002B     		cmp	r3, #0
 4679 049e 05D0     		beq	.L351
 4680 04a0 7A69     		ldr	r2, [r7, #20]
 4681 04a2 3B49     		ldr	r1, .L361+56
 4682 04a4 F868     		ldr	r0, [r7, #12]
 4683 04a6 FFF7FEFF 		bl	chprintf
 4684 04aa 91E0     		b	.L330
 4685              	.L351:
 4686 04ac 0223     		movs	r3, #2
 4687 04ae 344A     		ldr	r2, .L361+40
 4688 04b0 396A     		ldr	r1, [r7, #32]
 4689 04b2 2E48     		ldr	r0, .L361+20
 4690 04b4 FFF7FEFF 		bl	sdcRead
 4691 04b8 0346     		mov	r3, r0
 4692 04ba 002B     		cmp	r3, #0
 4693 04bc 04D0     		beq	.L352
 4694 04be 3549     		ldr	r1, .L361+60
 4695 04c0 F868     		ldr	r0, [r7, #12]
 4696 04c2 FFF7FEFF 		bl	chprintf
 4697 04c6 83E0     		b	.L330
 4698              	.L352:
 4699 04c8 4FF40072 		mov	r2, #512
 4700 04cc 2C49     		ldr	r1, .L361+40
 4701 04ce 2548     		ldr	r0, .L361+12
 4702 04d0 FFF7FEFF 		bl	memcmp
 4703 04d4 0346     		mov	r3, r0
 4704 04d6 002B     		cmp	r3, #0
 4705 04d8 04D0     		beq	.L353
 4706 04da 2F49     		ldr	r1, .L361+64
 4707 04dc F868     		ldr	r0, [r7, #12]
 4708 04de FFF7FEFF 		bl	chprintf
 4709 04e2 75E0     		b	.L330
 4710              	.L353:
 4711 04e4 2D4B     		ldr	r3, .L361+68
 4712 04e6 2E49     		ldr	r1, .L361+72
 4713 04e8 4FF40072 		mov	r2, #512
 4714 04ec 1846     		mov	r0, r3
 4715 04ee FFF7FEFF 		bl	memcmp
 4716 04f2 0346     		mov	r3, r0
 4717 04f4 002B     		cmp	r3, #0
 4718 04f6 04D1     		bne	.L354
 4719 04f8 2A49     		ldr	r1, .L361+76
 4720 04fa F868     		ldr	r0, [r7, #12]
 4721 04fc FFF7FEFF 		bl	chprintf
 4722 0500 66E0     		b	.L330
 4723              	.L354:
 4724 0502 3B6A     		ldr	r3, [r7, #32]
 4725 0504 0233     		adds	r3, r3, #2
 4726 0506 1A46     		mov	r2, r3
ARM GAS  /var/folders/d2/nstgp4h54kz7g1l847x_b8wc0000gn/T//cc3fOn4s.s 			page 95


 4727 0508 396A     		ldr	r1, [r7, #32]
 4728 050a 1848     		ldr	r0, .L361+20
 4729 050c FFF7FEFF 		bl	sdcErase
 4730 0510 0346     		mov	r3, r0
 4731 0512 002B     		cmp	r3, #0
 4732 0514 04D0     		beq	.L355
 4733 0516 2449     		ldr	r1, .L361+80
 4734 0518 F868     		ldr	r0, [r7, #12]
 4735 051a FFF7FEFF 		bl	chprintf
 4736 051e 57E0     		b	.L330
 4737              	.L355:
 4738 0520 0223     		movs	r3, #2
 4739 0522 174A     		ldr	r2, .L361+40
 4740 0524 396A     		ldr	r1, [r7, #32]
 4741 0526 1148     		ldr	r0, .L361+20
 4742 0528 FFF7FEFF 		bl	sdcRead
 4743 052c 0346     		mov	r3, r0
 4744 052e 002B     		cmp	r3, #0
 4745 0530 04D0     		beq	.L356
 4746 0532 1849     		ldr	r1, .L361+60
 4747 0534 F868     		ldr	r0, [r7, #12]
 4748 0536 FFF7FEFF 		bl	chprintf
 4749 053a 49E0     		b	.L330
 4750              	.L356:
 4751 053c 4FF40072 		mov	r2, #512
 4752 0540 0F49     		ldr	r1, .L361+40
 4753 0542 0848     		ldr	r0, .L361+12
 4754 0544 FFF7FEFF 		bl	memcmp
 4755 0548 0346     		mov	r3, r0
 4756 054a 002B     		cmp	r3, #0
 4757 054c 30D1     		bne	.L357
 4758 054e 1749     		ldr	r1, .L361+84
 4759 0550 F868     		ldr	r0, [r7, #12]
 4760 0552 FFF7FEFF 		bl	chprintf
 4761 0556 3BE0     		b	.L330
 4762              	.L362:
 4763              		.align	2
 4764              	.L361:
 4765 0558 04120000 		.word	.LC148
 4766 055c BC120000 		.word	.LC152
 4767 0560 CC110000 		.word	.LC146
 4768 0564 00000000 		.word	buf
 4769 0568 C4120000 		.word	.LC153
 4770 056c 00000000 		.word	SDCD1
 4771 0570 38110000 		.word	.LC139
 4772 0574 D0120000 		.word	.LC154
 4773 0578 D8120000 		.word	.LC155
 4774 057c E4120000 		.word	.LC156
 4775 0580 00000000 		.word	buf2
 4776 0584 310CC330 		.word	818089009
 4777 0588 EC120000 		.word	.LC157
 4778 058c 0C130000 		.word	.LC158
 4779 0590 20130000 		.word	.LC159
 4780 0594 48130000 		.word	.LC160
 4781 0598 6C130000 		.word	.LC161
 4782 059c 00020000 		.word	buf+512
 4783 05a0 00020000 		.word	buf2+512
ARM GAS  /var/folders/d2/nstgp4h54kz7g1l847x_b8wc0000gn/T//cc3fOn4s.s 			page 96


 4784 05a4 9C130000 		.word	.LC162
 4785 05a8 C8130000 		.word	.LC163
 4786 05ac E8130000 		.word	.LC164
 4787              	.L357:
 4788 05b0 0A4B     		ldr	r3, .L363
 4789 05b2 0B49     		ldr	r1, .L363+4
 4790 05b4 4FF40072 		mov	r2, #512
 4791 05b8 1846     		mov	r0, r3
 4792 05ba FFF7FEFF 		bl	memcmp
 4793 05be 0346     		mov	r3, r0
 4794 05c0 002B     		cmp	r3, #0
 4795 05c2 04D1     		bne	.L358
 4796 05c4 0749     		ldr	r1, .L363+8
 4797 05c6 F868     		ldr	r0, [r7, #12]
 4798 05c8 FFF7FEFF 		bl	chprintf
 4799 05cc 00E0     		b	.L330
 4800              	.L358:
 4801 05ce 00BF     		nop
 4802              	.L330:
 4803 05d0 0548     		ldr	r0, .L363+12
 4804 05d2 FFF7FEFF 		bl	sdcDisconnect
 4805              	.L322:
 4806 05d6 3437     		adds	r7, r7, #52
 4807 05d8 BD46     		mov	sp, r7
 4808              		@ sp needed
 4809 05da 90BD     		pop	{r4, r7, pc}
 4810              	.L364:
 4811              		.align	2
 4812              	.L363:
 4813 05dc 00020000 		.word	buf+512
 4814 05e0 00020000 		.word	buf2+512
 4815 05e4 E8130000 		.word	.LC164
 4816 05e8 00000000 		.word	SDCD1
 4817              		.size	cmd_sdc, .-cmd_sdc
 4818              		.global	shell_commands
 4819              		.section	.rodata
 4820 141d 000000   		.align	2
 4821              	.LC165:
 4822 1420 6D6F756E 		.ascii	"mount\000"
 4822      7400
 4823 1426 0000     		.align	2
 4824              	.LC166:
 4825 1428 756E6D6F 		.ascii	"unmount\000"
 4825      756E7400 
 4826              		.align	2
 4827              	.LC167:
 4828 1430 6765746C 		.ascii	"getlabel\000"
 4828      6162656C 
 4828      00
 4829 1439 000000   		.align	2
 4830              	.LC168:
 4831 143c 7365746C 		.ascii	"setlabel\000"
 4831      6162656C 
 4831      00
 4832 1445 000000   		.align	2
 4833              	.LC169:
 4834 1448 74726565 		.ascii	"tree\000"
ARM GAS  /var/folders/d2/nstgp4h54kz7g1l847x_b8wc0000gn/T//cc3fOn4s.s 			page 97


 4834      00
 4835 144d 000000   		.align	2
 4836              	.LC170:
 4837 1450 66726565 		.ascii	"free\000"
 4837      00
 4838 1455 000000   		.align	2
 4839              	.LC171:
 4840 1458 6D6B6469 		.ascii	"mkdir\000"
 4840      7200
 4841 145e 0000     		.align	2
 4842              	.LC172:
 4843 1460 68656C6C 		.ascii	"hello\000"
 4843      6F00
 4844 1466 0000     		.align	2
 4845              	.LC173:
 4846 1468 63617400 		.ascii	"cat\000"
 4847              		.align	2
 4848              	.LC174:
 4849 146c 73665F70 		.ascii	"sf_play\000"
 4849      6C617900 
 4850              		.align	2
 4851              	.LC175:
 4852 1474 73665F73 		.ascii	"sf_stop\000"
 4852      746F7000 
 4853              		.align	2
 4854              	.LC176:
 4855 147c 73665F76 		.ascii	"sf_volume\000"
 4855      6F6C756D 
 4855      6500
 4856 1486 0000     		.align	2
 4857              	.LC177:
 4858 1488 6D6C5F70 		.ascii	"ml_play\000"
 4858      6C617900 
 4859              		.align	2
 4860              	.LC178:
 4861 1490 6D6C5F73 		.ascii	"ml_stop\000"
 4861      746F7000 
 4862              		.align	2
 4863              	.LC179:
 4864 1498 6D656D00 		.ascii	"mem\000"
 4865              		.align	2
 4866              	.LC180:
 4867 149c 74687265 		.ascii	"threads\000"
 4867      61647300 
 4868              		.align	2
 4869              	.LC181:
 4870 14a4 74657374 		.ascii	"test\000"
 4870      00
 4871 14a9 000000   		.align	2
 4872              	.LC182:
 4873 14ac 636C6F63 		.ascii	"clock\000"
 4873      6B00
 4874 14b2 0000     		.align	2
 4875              	.LC183:
 4876 14b4 73717274 		.ascii	"sqrt\000"
 4876      00
 4877 14b9 000000   		.align	2
ARM GAS  /var/folders/d2/nstgp4h54kz7g1l847x_b8wc0000gn/T//cc3fOn4s.s 			page 98


 4878              	.LC184:
 4879 14bc 6174616E 		.ascii	"atan2\000"
 4879      3200
 4880 14c2 0000     		.align	2
 4881              	.LC185:
 4882 14c4 636F6E66 		.ascii	"config_tree\000"
 4882      69675F74 
 4882      72656500 
 4883              		.align	2
 4884              	.LC186:
 4885 14d0 636F6E66 		.ascii	"config_set\000"
 4885      69675F73 
 4885      657400
 4886 14db 00       		.align	2
 4887              	.LC187:
 4888 14dc 636F6E66 		.ascii	"config_save\000"
 4888      69675F73 
 4888      61766500 
 4889              		.align	2
 4890              	.LC188:
 4891 14e8 636F6E66 		.ascii	"config_load\000"
 4891      69675F6C 
 4891      6F616400 
 4892              		.align	2
 4893              	.LC189:
 4894 14f4 636F6E66 		.ascii	"config_erase\000"
 4894      69675F65 
 4894      72617365 
 4894      00
 4895 1501 000000   		.align	2
 4896              	.LC190:
 4897 1504 63616D5F 		.ascii	"cam_brightness\000"
 4897      62726967 
 4897      68746E65 
 4897      737300
 4898 1513 00       		.align	2
 4899              	.LC191:
 4900 1514 63616D5F 		.ascii	"cam_contrast\000"
 4900      636F6E74 
 4900      72617374 
 4900      00
 4901 1521 000000   		.align	2
 4902              	.LC192:
 4903 1524 63616D5F 		.ascii	"cam_conf1\000"
 4903      636F6E66 
 4903      3100
 4904 152e 0000     		.align	2
 4905              	.LC193:
 4906 1530 63616D5F 		.ascii	"cam_conf2\000"
 4906      636F6E66 
 4906      3200
 4907 153a 0000     		.align	2
 4908              	.LC194:
 4909 153c 63616D5F 		.ascii	"cam_mirror\000"
 4909      6D697272 
 4909      6F7200
 4910 1547 00       		.align	2
ARM GAS  /var/folders/d2/nstgp4h54kz7g1l847x_b8wc0000gn/T//cc3fOn4s.s 			page 99


 4911              	.LC195:
 4912 1548 63616D5F 		.ascii	"cam_gain\000"
 4912      6761696E 
 4912      00
 4913 1551 000000   		.align	2
 4914              	.LC196:
 4915 1554 63616D5F 		.ascii	"cam_awb\000"
 4915      61776200 
 4916              		.align	2
 4917              	.LC197:
 4918 155c 63616D5F 		.ascii	"cam_ae\000"
 4918      616500
 4919 1563 00       		.align	2
 4920              	.LC198:
 4921 1564 63616D5F 		.ascii	"cam_exposure\000"
 4921      6578706F 
 4921      73757265 
 4921      00
 4922 1571 000000   		.align	2
 4923              	.LC199:
 4924 1574 63616D5F 		.ascii	"cam_dcmi_prepare\000"
 4924      64636D69 
 4924      5F707265 
 4924      70617265 
 4924      00
 4925 1585 000000   		.align	2
 4926              	.LC200:
 4927 1588 63616D5F 		.ascii	"cam_dcmi_unprepare\000"
 4927      64636D69 
 4927      5F756E70 
 4927      72657061 
 4927      726500
 4928 159b 00       		.align	2
 4929              	.LC201:
 4930 159c 63616D5F 		.ascii	"cam_capture\000"
 4930      63617074 
 4930      75726500 
 4931              		.align	2
 4932              	.LC202:
 4933 15a8 63616D5F 		.ascii	"cam_send\000"
 4933      73656E64 
 4933      00
 4934 15b1 000000   		.align	2
 4935              	.LC203:
 4936 15b4 7365745F 		.ascii	"set_led\000"
 4936      6C656400 
 4937              		.align	2
 4938              	.LC204:
 4939 15bc 7365745F 		.ascii	"set_speed\000"
 4939      73706565 
 4939      6400
 4940 15c6 0000     		.align	2
 4941              	.LC205:
 4942 15c8 62617474 		.ascii	"batt\000"
 4942      00
 4943 15cd 000000   		.align	2
 4944              	.LC206:
ARM GAS  /var/folders/d2/nstgp4h54kz7g1l847x_b8wc0000gn/T//cc3fOn4s.s 			page 100


 4945 15d0 61756469 		.ascii	"audio_play\000"
 4945      6F5F706C 
 4945      617900
 4946 15db 00       		.align	2
 4947              	.LC207:
 4948 15dc 61756469 		.ascii	"audio_stop\000"
 4948      6F5F7374 
 4948      6F7000
 4949 15e7 00       		.align	2
 4950              	.LC208:
 4951 15e8 766F6C75 		.ascii	"volume\000"
 4951      6D6500
 4952 15ef 00       		.align	2
 4953              	.LC209:
 4954 15f0 6D69635F 		.ascii	"mic_data\000"
 4954      64617461 
 4954      00
 4955 15f9 000000   		.align	2
 4956              	.LC210:
 4957 15fc 73646300 		.ascii	"sdc\000"
 4958              		.section	.rodata.shell_commands,"a",%progbits
 4959              		.align	2
 4960              		.type	shell_commands, %object
 4961              		.size	shell_commands, 392
 4962              	shell_commands:
 4963 0000 20140000 		.word	.LC165
 4964 0004 00000000 		.word	cmd_mount
 4965 0008 28140000 		.word	.LC166
 4966 000c 00000000 		.word	cmd_unmount
 4967 0010 30140000 		.word	.LC167
 4968 0014 00000000 		.word	cmd_getlabel
 4969 0018 3C140000 		.word	.LC168
 4970 001c 00000000 		.word	cmd_setlabel
 4971 0020 48140000 		.word	.LC169
 4972 0024 00000000 		.word	cmd_tree
 4973 0028 50140000 		.word	.LC170
 4974 002c 00000000 		.word	cmd_free
 4975 0030 58140000 		.word	.LC171
 4976 0034 00000000 		.word	cmd_mkdir
 4977 0038 60140000 		.word	.LC172
 4978 003c 00000000 		.word	cmd_hello
 4979 0040 68140000 		.word	.LC173
 4980 0044 00000000 		.word	cmd_cat
 4981 0048 6C140000 		.word	.LC174
 4982 004c 00000000 		.word	cmd_sound_file_play
 4983 0050 74140000 		.word	.LC175
 4984 0054 00000000 		.word	cmd_sound_file_stop
 4985 0058 7C140000 		.word	.LC176
 4986 005c 00000000 		.word	cmd_sound_file_volume
 4987 0060 88140000 		.word	.LC177
 4988 0064 00000000 		.word	cmd_melody_play
 4989 0068 90140000 		.word	.LC178
 4990 006c 00000000 		.word	cmd_melody_stop
 4991 0070 98140000 		.word	.LC179
 4992 0074 00000000 		.word	cmd_mem
 4993 0078 9C140000 		.word	.LC180
 4994 007c 00000000 		.word	cmd_threads
ARM GAS  /var/folders/d2/nstgp4h54kz7g1l847x_b8wc0000gn/T//cc3fOn4s.s 			page 101


 4995 0080 98140000 		.word	.LC179
 4996 0084 00000000 		.word	cmd_mem
 4997 0088 9C140000 		.word	.LC180
 4998 008c 00000000 		.word	cmd_threads
 4999 0090 A4140000 		.word	.LC181
 5000 0094 00000000 		.word	cmd_test
 5001 0098 AC140000 		.word	.LC182
 5002 009c 00000000 		.word	cmd_readclock
 5003 00a0 B4140000 		.word	.LC183
 5004 00a4 00000000 		.word	cmd_sqrt
 5005 00a8 BC140000 		.word	.LC184
 5006 00ac 00000000 		.word	cmd_atan2
 5007 00b0 C4140000 		.word	.LC185
 5008 00b4 00000000 		.word	cmd_config_tree
 5009 00b8 D0140000 		.word	.LC186
 5010 00bc 00000000 		.word	cmd_config_set
 5011 00c0 DC140000 		.word	.LC187
 5012 00c4 00000000 		.word	cmd_config_save
 5013 00c8 E8140000 		.word	.LC188
 5014 00cc 00000000 		.word	cmd_config_load
 5015 00d0 F4140000 		.word	.LC189
 5016 00d4 00000000 		.word	cmd_config_erase
 5017 00d8 04150000 		.word	.LC190
 5018 00dc 00000000 		.word	cmd_cam_set_brightness
 5019 00e0 14150000 		.word	.LC191
 5020 00e4 00000000 		.word	cmd_cam_set_contrast
 5021 00e8 24150000 		.word	.LC192
 5022 00ec 00000000 		.word	cmd_cam_set_conf1
 5023 00f0 30150000 		.word	.LC193
 5024 00f4 00000000 		.word	cmd_cam_set_conf2
 5025 00f8 3C150000 		.word	.LC194
 5026 00fc 00000000 		.word	cmd_cam_set_mirror
 5027 0100 48150000 		.word	.LC195
 5028 0104 00000000 		.word	cmd_cam_set_gain
 5029 0108 54150000 		.word	.LC196
 5030 010c 00000000 		.word	cmd_cam_set_awb
 5031 0110 5C150000 		.word	.LC197
 5032 0114 00000000 		.word	cmd_cam_set_ae
 5033 0118 64150000 		.word	.LC198
 5034 011c 00000000 		.word	cmd_cam_set_exposure
 5035 0120 74150000 		.word	.LC199
 5036 0124 00000000 		.word	cmd_cam_dcmi_prepare
 5037 0128 88150000 		.word	.LC200
 5038 012c 00000000 		.word	cmd_cam_dcmi_unprepare
 5039 0130 9C150000 		.word	.LC201
 5040 0134 00000000 		.word	cmd_cam_capture
 5041 0138 A8150000 		.word	.LC202
 5042 013c 00000000 		.word	cmd_cam_send
 5043 0140 B4150000 		.word	.LC203
 5044 0144 00000000 		.word	cmd_set_led
 5045 0148 BC150000 		.word	.LC204
 5046 014c 00000000 		.word	cmd_set_speed
 5047 0150 C8150000 		.word	.LC205
 5048 0154 00000000 		.word	cmd_get_battery
 5049 0158 D0150000 		.word	.LC206
 5050 015c 00000000 		.word	cmd_audio_play
 5051 0160 DC150000 		.word	.LC207
ARM GAS  /var/folders/d2/nstgp4h54kz7g1l847x_b8wc0000gn/T//cc3fOn4s.s 			page 102


 5052 0164 00000000 		.word	cmd_audio_stop
 5053 0168 E8150000 		.word	.LC208
 5054 016c 00000000 		.word	cmd_volume
 5055 0170 F0150000 		.word	.LC209
 5056 0174 00000000 		.word	cmd_mic_data
 5057 0178 FC150000 		.word	.LC210
 5058 017c 00000000 		.word	cmd_sdc
 5059 0180 00000000 		.word	0
 5060 0184 00000000 		.word	0
 5061              		.section	.text.shell_spawn_thd,"ax",%progbits
 5062              		.align	1
 5063              		.syntax unified
 5064              		.thumb
 5065              		.thumb_func
 5066              		.fpu fpv4-sp-d16
 5067              		.type	shell_spawn_thd, %function
 5068              	shell_spawn_thd:
 5069              		@ args = 0, pretend = 0, frame = 16
 5070              		@ frame_needed = 1, uses_anonymous_args = 0
 5071 0000 80B5     		push	{r7, lr}
 5072 0002 84B0     		sub	sp, sp, #16
 5073 0004 00AF     		add	r7, sp, #0
 5074 0006 7860     		str	r0, [r7, #4]
 5075 0008 0023     		movs	r3, #0
 5076 000a FB60     		str	r3, [r7, #12]
 5077 000c FFF7FEFF 		bl	shellInit
 5078              	.L369:
 5079 0010 FB68     		ldr	r3, [r7, #12]
 5080 0012 002B     		cmp	r3, #0
 5081 0014 0ED1     		bne	.L366
 5082 0016 0F4B     		ldr	r3, .L370
 5083 0018 D3F85432 		ldr	r3, [r3, #596]
 5084 001c 1B68     		ldr	r3, [r3]
 5085 001e 1B78     		ldrb	r3, [r3]	@ zero_extendqisi2
 5086 0020 042B     		cmp	r3, #4
 5087 0022 12D1     		bne	.L368
 5088 0024 4022     		movs	r2, #64
 5089 0026 40F67811 		movw	r1, #2424
 5090 002a 0B48     		ldr	r0, .L370+4
 5091 002c FFF7FEFF 		bl	shellCreate
 5092 0030 F860     		str	r0, [r7, #12]
 5093 0032 0AE0     		b	.L368
 5094              	.L366:
 5095 0034 F868     		ldr	r0, [r7, #12]
 5096 0036 FFF7FEFF 		bl	chThdTerminatedX
 5097 003a 0346     		mov	r3, r0
 5098 003c 002B     		cmp	r3, #0
 5099 003e 04D0     		beq	.L368
 5100 0040 F868     		ldr	r0, [r7, #12]
 5101 0042 FFF7FEFF 		bl	chThdRelease
 5102 0046 0023     		movs	r3, #0
 5103 0048 FB60     		str	r3, [r7, #12]
 5104              	.L368:
 5105 004a 4FF4FA70 		mov	r0, #500
 5106 004e FFF7FEFF 		bl	chThdSleep
 5107 0052 DDE7     		b	.L369
 5108              	.L371:
ARM GAS  /var/folders/d2/nstgp4h54kz7g1l847x_b8wc0000gn/T//cc3fOn4s.s 			page 103


 5109              		.align	2
 5110              	.L370:
 5111 0054 00000000 		.word	SDU1
 5112 0058 00000000 		.word	shell_cfg.13785
 5113              		.size	shell_spawn_thd, .-shell_spawn_thd
 5114              		.section	.text.shell_start,"ax",%progbits
 5115              		.align	1
 5116              		.global	shell_start
 5117              		.syntax unified
 5118              		.thumb
 5119              		.thumb_func
 5120              		.fpu fpv4-sp-d16
 5121              		.type	shell_start, %function
 5122              	shell_start:
 5123              		@ args = 0, pretend = 0, frame = 0
 5124              		@ frame_needed = 1, uses_anonymous_args = 0
 5125 0000 80B5     		push	{r7, lr}
 5126 0002 82B0     		sub	sp, sp, #8
 5127 0004 02AF     		add	r7, sp, #8
 5128 0006 0023     		movs	r3, #0
 5129 0008 0093     		str	r3, [sp]
 5130 000a 054B     		ldr	r3, .L373
 5131 000c 4022     		movs	r2, #64
 5132 000e 40F67811 		movw	r1, #2424
 5133 0012 0448     		ldr	r0, .L373+4
 5134 0014 FFF7FEFF 		bl	chThdCreateStatic
 5135 0018 00BF     		nop
 5136 001a BD46     		mov	sp, r7
 5137              		@ sp needed
 5138 001c 80BD     		pop	{r7, pc}
 5139              	.L374:
 5140 001e 00BF     		.align	2
 5141              	.L373:
 5142 0020 00000000 		.word	shell_spawn_thd
 5143 0024 00000000 		.word	wa.13790
 5144              		.size	shell_start, .-shell_start
 5145              		.section	.rodata
 5146              		.align	2
 5147              	.LC211:
 5148 1600 52454144 		.ascii	"READY\000"
 5148      5900
 5149 1606 0000     		.align	2
 5150              	.LC212:
 5151 1608 43555252 		.ascii	"CURRENT\000"
 5151      454E5400 
 5152              		.align	2
 5153              	.LC213:
 5154 1610 57545354 		.ascii	"WTSTART\000"
 5154      41525400 
 5155              		.align	2
 5156              	.LC214:
 5157 1618 53555350 		.ascii	"SUSPENDED\000"
 5157      454E4445 
 5157      4400
 5158 1622 0000     		.align	2
 5159              	.LC215:
 5160 1624 51554555 		.ascii	"QUEUED\000"
ARM GAS  /var/folders/d2/nstgp4h54kz7g1l847x_b8wc0000gn/T//cc3fOn4s.s 			page 104


 5160      454400
 5161 162b 00       		.align	2
 5162              	.LC216:
 5163 162c 57545345 		.ascii	"WTSEM\000"
 5163      4D00
 5164 1632 0000     		.align	2
 5165              	.LC217:
 5166 1634 57544D54 		.ascii	"WTMTX\000"
 5166      5800
 5167 163a 0000     		.align	2
 5168              	.LC218:
 5169 163c 5754434F 		.ascii	"WTCOND\000"
 5169      4E4400
 5170 1643 00       		.align	2
 5171              	.LC219:
 5172 1644 534C4545 		.ascii	"SLEEPING\000"
 5172      50494E47 
 5172      00
 5173 164d 000000   		.align	2
 5174              	.LC220:
 5175 1650 57544558 		.ascii	"WTEXIT\000"
 5175      495400
 5176 1657 00       		.align	2
 5177              	.LC221:
 5178 1658 57544F52 		.ascii	"WTOREVT\000"
 5178      45565400 
 5179              		.align	2
 5180              	.LC222:
 5181 1660 5754414E 		.ascii	"WTANDEVT\000"
 5181      44455654 
 5181      00
 5182 1669 000000   		.align	2
 5183              	.LC223:
 5184 166c 534E444D 		.ascii	"SNDMSGQ\000"
 5184      53475100 
 5185              		.align	2
 5186              	.LC224:
 5187 1674 534E444D 		.ascii	"SNDMSG\000"
 5187      534700
 5188 167b 00       		.align	2
 5189              	.LC225:
 5190 167c 57544D53 		.ascii	"WTMSG\000"
 5190      4700
 5191 1682 0000     		.align	2
 5192              	.LC226:
 5193 1684 46494E41 		.ascii	"FINAL\000"
 5193      4C00
 5194              		.section	.data.states.13510,"aw",%progbits
 5195              		.align	2
 5196              		.type	states.13510, %object
 5197              		.size	states.13510, 64
 5198              	states.13510:
 5199 0000 00160000 		.word	.LC211
 5200 0004 08160000 		.word	.LC212
 5201 0008 10160000 		.word	.LC213
 5202 000c 18160000 		.word	.LC214
 5203 0010 24160000 		.word	.LC215
ARM GAS  /var/folders/d2/nstgp4h54kz7g1l847x_b8wc0000gn/T//cc3fOn4s.s 			page 105


 5204 0014 2C160000 		.word	.LC216
 5205 0018 34160000 		.word	.LC217
 5206 001c 3C160000 		.word	.LC218
 5207 0020 44160000 		.word	.LC219
 5208 0024 50160000 		.word	.LC220
 5209 0028 58160000 		.word	.LC221
 5210 002c 60160000 		.word	.LC222
 5211 0030 6C160000 		.word	.LC223
 5212 0034 74160000 		.word	.LC224
 5213 0038 7C160000 		.word	.LC225
 5214 003c 84160000 		.word	.LC226
 5215              		.section	.rodata.__func__.8875,"a",%progbits
 5216              		.align	2
 5217              		.type	__func__.8875, %object
 5218              		.size	__func__.8875, 12
 5219              	__func__.8875:
 5220 0000 63685379 		.ascii	"chSysUnlock\000"
 5220      73556E6C 
 5220      6F636B00 
 5221              		.section	.rodata
 5222 168a 0000     		.align	2
 5223              	.LC227:
 5224 168c 53445631 		.ascii	"SDV11\000"
 5224      3100
 5225 1692 0000     		.align	2
 5226              	.LC228:
 5227 1694 53445632 		.ascii	"SDV20\000"
 5227      3000
 5228 169a 0000     		.align	2
 5229              	.LC229:
 5230 169c 4D4D4300 		.ascii	"MMC\000"
 5231              		.section	.data.mode.13757,"aw",%progbits
 5232              		.align	2
 5233              		.type	mode.13757, %object
 5234              		.size	mode.13757, 16
 5235              	mode.13757:
 5236 0000 8C160000 		.word	.LC227
 5237 0004 94160000 		.word	.LC228
 5238 0008 9C160000 		.word	.LC229
 5239 000c 00000000 		.word	0
 5240              		.section	.rodata.shell_cfg.13785,"a",%progbits
 5241              		.align	2
 5242              		.type	shell_cfg.13785, %object
 5243              		.size	shell_cfg.13785, 8
 5244              	shell_cfg.13785:
 5245 0000 00000000 		.word	SDU1
 5246 0004 00000000 		.word	shell_commands
 5247              		.section	.bss.wa.13790,"aw",%nobits
 5248              		.align	3
 5249              		.type	wa.13790, %object
 5250              		.size	wa.13790, 2424
 5251              	wa.13790:
 5252 0000 00000000 		.space	2424
 5252      00000000 
 5252      00000000 
 5252      00000000 
 5252      00000000 
ARM GAS  /var/folders/d2/nstgp4h54kz7g1l847x_b8wc0000gn/T//cc3fOn4s.s 			page 106


 5253              		.ident	"GCC: (GNU Tools for Arm Embedded Processors 7-2017-q4-major) 7.2.1 20170904 (release) [ARM
ARM GAS  /var/folders/d2/nstgp4h54kz7g1l847x_b8wc0000gn/T//cc3fOn4s.s 			page 107


DEFINED SYMBOLS
                            *ABS*:0000000000000000 cmd.c
/var/folders/d2/nstgp4h54kz7g1l847x_b8wc0000gn/T//cc3fOn4s.s:15     .text.port_lock:0000000000000000 $t
/var/folders/d2/nstgp4h54kz7g1l847x_b8wc0000gn/T//cc3fOn4s.s:21     .text.port_lock:0000000000000000 port_lock
/var/folders/d2/nstgp4h54kz7g1l847x_b8wc0000gn/T//cc3fOn4s.s:45     .text.port_unlock:0000000000000000 $t
/var/folders/d2/nstgp4h54kz7g1l847x_b8wc0000gn/T//cc3fOn4s.s:51     .text.port_unlock:0000000000000000 port_unlock
/var/folders/d2/nstgp4h54kz7g1l847x_b8wc0000gn/T//cc3fOn4s.s:75     .text.chSysLock:0000000000000000 $t
/var/folders/d2/nstgp4h54kz7g1l847x_b8wc0000gn/T//cc3fOn4s.s:81     .text.chSysLock:0000000000000000 chSysLock
/var/folders/d2/nstgp4h54kz7g1l847x_b8wc0000gn/T//cc3fOn4s.s:93     .text.chSysUnlock:0000000000000000 $t
/var/folders/d2/nstgp4h54kz7g1l847x_b8wc0000gn/T//cc3fOn4s.s:99     .text.chSysUnlock:0000000000000000 chSysUnlock
/var/folders/d2/nstgp4h54kz7g1l847x_b8wc0000gn/T//cc3fOn4s.s:128    .text.chSysUnlock:0000000000000034 $d
/var/folders/d2/nstgp4h54kz7g1l847x_b8wc0000gn/T//cc3fOn4s.s:5219   .rodata.__func__.8875:0000000000000000 __func__.8875
/var/folders/d2/nstgp4h54kz7g1l847x_b8wc0000gn/T//cc3fOn4s.s:132    .text.chVTGetSystemTimeX:0000000000000000 $t
/var/folders/d2/nstgp4h54kz7g1l847x_b8wc0000gn/T//cc3fOn4s.s:138    .text.chVTGetSystemTimeX:0000000000000000 chVTGetSystemTimeX
/var/folders/d2/nstgp4h54kz7g1l847x_b8wc0000gn/T//cc3fOn4s.s:154    .text.chVTGetSystemTimeX:0000000000000014 $d
/var/folders/d2/nstgp4h54kz7g1l847x_b8wc0000gn/T//cc3fOn4s.s:157    .text.chVTGetSystemTime:0000000000000000 $t
/var/folders/d2/nstgp4h54kz7g1l847x_b8wc0000gn/T//cc3fOn4s.s:163    .text.chVTGetSystemTime:0000000000000000 chVTGetSystemTime
/var/folders/d2/nstgp4h54kz7g1l847x_b8wc0000gn/T//cc3fOn4s.s:181    .text.chVTIsTimeWithinX:0000000000000000 $t
/var/folders/d2/nstgp4h54kz7g1l847x_b8wc0000gn/T//cc3fOn4s.s:187    .text.chVTIsTimeWithinX:0000000000000000 chVTIsTimeWithinX
/var/folders/d2/nstgp4h54kz7g1l847x_b8wc0000gn/T//cc3fOn4s.s:216    .text.chVTIsSystemTimeWithin:0000000000000000 $t
/var/folders/d2/nstgp4h54kz7g1l847x_b8wc0000gn/T//cc3fOn4s.s:222    .text.chVTIsSystemTimeWithin:0000000000000000 chVTIsSystemTimeWithin
/var/folders/d2/nstgp4h54kz7g1l847x_b8wc0000gn/T//cc3fOn4s.s:244    .text.chThdGetSelfX:0000000000000000 $t
/var/folders/d2/nstgp4h54kz7g1l847x_b8wc0000gn/T//cc3fOn4s.s:250    .text.chThdGetSelfX:0000000000000000 chThdGetSelfX
/var/folders/d2/nstgp4h54kz7g1l847x_b8wc0000gn/T//cc3fOn4s.s:266    .text.chThdGetSelfX:0000000000000014 $d
/var/folders/d2/nstgp4h54kz7g1l847x_b8wc0000gn/T//cc3fOn4s.s:269    .text.chThdGetPriorityX:0000000000000000 $t
/var/folders/d2/nstgp4h54kz7g1l847x_b8wc0000gn/T//cc3fOn4s.s:275    .text.chThdGetPriorityX:0000000000000000 chThdGetPriorityX
/var/folders/d2/nstgp4h54kz7g1l847x_b8wc0000gn/T//cc3fOn4s.s:287    .text.chThdTerminatedX:0000000000000000 $t
/var/folders/d2/nstgp4h54kz7g1l847x_b8wc0000gn/T//cc3fOn4s.s:293    .text.chThdTerminatedX:0000000000000000 chThdTerminatedX
/var/folders/d2/nstgp4h54kz7g1l847x_b8wc0000gn/T//cc3fOn4s.s:316    .text.chprintf:0000000000000000 $t
/var/folders/d2/nstgp4h54kz7g1l847x_b8wc0000gn/T//cc3fOn4s.s:322    .text.chprintf:0000000000000000 chprintf
/var/folders/d2/nstgp4h54kz7g1l847x_b8wc0000gn/T//cc3fOn4s.s:347    .bss.buf:0000000000000000 $d
/var/folders/d2/nstgp4h54kz7g1l847x_b8wc0000gn/T//cc3fOn4s.s:350    .bss.buf:0000000000000000 buf
/var/folders/d2/nstgp4h54kz7g1l847x_b8wc0000gn/T//cc3fOn4s.s:353    .bss.buf2:0000000000000000 $d
/var/folders/d2/nstgp4h54kz7g1l847x_b8wc0000gn/T//cc3fOn4s.s:356    .bss.buf2:0000000000000000 buf2
/var/folders/d2/nstgp4h54kz7g1l847x_b8wc0000gn/T//cc3fOn4s.s:361    .bss.cmd_fmt:0000000000000000 cmd_fmt
/var/folders/d2/nstgp4h54kz7g1l847x_b8wc0000gn/T//cc3fOn4s.s:362    .bss.cmd_fmt:0000000000000000 $d
/var/folders/d2/nstgp4h54kz7g1l847x_b8wc0000gn/T//cc3fOn4s.s:366    .bss.cmd_subx:0000000000000000 cmd_subx
/var/folders/d2/nstgp4h54kz7g1l847x_b8wc0000gn/T//cc3fOn4s.s:367    .bss.cmd_subx:0000000000000000 $d
/var/folders/d2/nstgp4h54kz7g1l847x_b8wc0000gn/T//cc3fOn4s.s:371    .bss.cmd_suby:0000000000000000 cmd_suby
/var/folders/d2/nstgp4h54kz7g1l847x_b8wc0000gn/T//cc3fOn4s.s:372    .bss.cmd_suby:0000000000000000 $d
/var/folders/d2/nstgp4h54kz7g1l847x_b8wc0000gn/T//cc3fOn4s.s:374    .bss.cmd_x1:0000000000000000 $d
/var/folders/d2/nstgp4h54kz7g1l847x_b8wc0000gn/T//cc3fOn4s.s:377    .bss.cmd_x1:0000000000000000 cmd_x1
/var/folders/d2/nstgp4h54kz7g1l847x_b8wc0000gn/T//cc3fOn4s.s:380    .bss.cmd_y1:0000000000000000 $d
/var/folders/d2/nstgp4h54kz7g1l847x_b8wc0000gn/T//cc3fOn4s.s:383    .bss.cmd_y1:0000000000000000 cmd_y1
/var/folders/d2/nstgp4h54kz7g1l847x_b8wc0000gn/T//cc3fOn4s.s:386    .bss.cmd_width:0000000000000000 $d
/var/folders/d2/nstgp4h54kz7g1l847x_b8wc0000gn/T//cc3fOn4s.s:389    .bss.cmd_width:0000000000000000 cmd_width
/var/folders/d2/nstgp4h54kz7g1l847x_b8wc0000gn/T//cc3fOn4s.s:392    .bss.cmd_height:0000000000000000 $d
/var/folders/d2/nstgp4h54kz7g1l847x_b8wc0000gn/T//cc3fOn4s.s:395    .bss.cmd_height:0000000000000000 cmd_height
/var/folders/d2/nstgp4h54kz7g1l847x_b8wc0000gn/T//cc3fOn4s.s:398    .bss.fbuff:0000000000000000 $d
/var/folders/d2/nstgp4h54kz7g1l847x_b8wc0000gn/T//cc3fOn4s.s:401    .bss.fbuff:0000000000000000 fbuff
/var/folders/d2/nstgp4h54kz7g1l847x_b8wc0000gn/T//cc3fOn4s.s:404    .rodata:0000000000000000 $d
/var/folders/d2/nstgp4h54kz7g1l847x_b8wc0000gn/T//cc3fOn4s.s:412    .text.cmd_mount:0000000000000000 $t
/var/folders/d2/nstgp4h54kz7g1l847x_b8wc0000gn/T//cc3fOn4s.s:419    .text.cmd_mount:0000000000000000 cmd_mount
/var/folders/d2/nstgp4h54kz7g1l847x_b8wc0000gn/T//cc3fOn4s.s:450    .text.cmd_mount:0000000000000034 $d
/var/folders/d2/nstgp4h54kz7g1l847x_b8wc0000gn/T//cc3fOn4s.s:458    .text.cmd_unmount:0000000000000000 $t
/var/folders/d2/nstgp4h54kz7g1l847x_b8wc0000gn/T//cc3fOn4s.s:465    .text.cmd_unmount:0000000000000000 cmd_unmount
/var/folders/d2/nstgp4h54kz7g1l847x_b8wc0000gn/T//cc3fOn4s.s:492    .text.cmd_unmount:000000000000002c $d
ARM GAS  /var/folders/d2/nstgp4h54kz7g1l847x_b8wc0000gn/T//cc3fOn4s.s 			page 108


/var/folders/d2/nstgp4h54kz7g1l847x_b8wc0000gn/T//cc3fOn4s.s:515    .text.cmd_free:0000000000000000 $t
/var/folders/d2/nstgp4h54kz7g1l847x_b8wc0000gn/T//cc3fOn4s.s:522    .text.cmd_free:0000000000000000 cmd_free
/var/folders/d2/nstgp4h54kz7g1l847x_b8wc0000gn/T//cc3fOn4s.s:588    .text.cmd_free:000000000000008c $d
/var/folders/d2/nstgp4h54kz7g1l847x_b8wc0000gn/T//cc3fOn4s.s:596    .text.cmd_tree:0000000000000000 $t
/var/folders/d2/nstgp4h54kz7g1l847x_b8wc0000gn/T//cc3fOn4s.s:603    .text.cmd_tree:0000000000000000 cmd_tree
/var/folders/d2/nstgp4h54kz7g1l847x_b8wc0000gn/T//cc3fOn4s.s:627    .text.cmd_tree:0000000000000028 $d
/var/folders/d2/nstgp4h54kz7g1l847x_b8wc0000gn/T//cc3fOn4s.s:658    .text.cmd_hello:0000000000000000 $t
/var/folders/d2/nstgp4h54kz7g1l847x_b8wc0000gn/T//cc3fOn4s.s:665    .text.cmd_hello:0000000000000000 cmd_hello
/var/folders/d2/nstgp4h54kz7g1l847x_b8wc0000gn/T//cc3fOn4s.s:746    .text.cmd_hello:00000000000000c8 $d
/var/folders/d2/nstgp4h54kz7g1l847x_b8wc0000gn/T//cc3fOn4s.s:770    .text.cmd_mkdir:0000000000000000 $t
/var/folders/d2/nstgp4h54kz7g1l847x_b8wc0000gn/T//cc3fOn4s.s:777    .text.cmd_mkdir:0000000000000000 cmd_mkdir
/var/folders/d2/nstgp4h54kz7g1l847x_b8wc0000gn/T//cc3fOn4s.s:833    .text.cmd_mkdir:0000000000000068 $d
/var/folders/d2/nstgp4h54kz7g1l847x_b8wc0000gn/T//cc3fOn4s.s:852    .text.cmd_setlabel:0000000000000000 $t
/var/folders/d2/nstgp4h54kz7g1l847x_b8wc0000gn/T//cc3fOn4s.s:859    .text.cmd_setlabel:0000000000000000 cmd_setlabel
/var/folders/d2/nstgp4h54kz7g1l847x_b8wc0000gn/T//cc3fOn4s.s:909    .text.cmd_setlabel:000000000000005c $d
/var/folders/d2/nstgp4h54kz7g1l847x_b8wc0000gn/T//cc3fOn4s.s:934    .text.cmd_getlabel:0000000000000000 $t
/var/folders/d2/nstgp4h54kz7g1l847x_b8wc0000gn/T//cc3fOn4s.s:941    .text.cmd_getlabel:0000000000000000 cmd_getlabel
/var/folders/d2/nstgp4h54kz7g1l847x_b8wc0000gn/T//cc3fOn4s.s:1004   .text.cmd_getlabel:0000000000000088 $d
/var/folders/d2/nstgp4h54kz7g1l847x_b8wc0000gn/T//cc3fOn4s.s:1031   .text.cmd_cat:0000000000000000 $t
/var/folders/d2/nstgp4h54kz7g1l847x_b8wc0000gn/T//cc3fOn4s.s:1038   .text.cmd_cat:0000000000000000 cmd_cat
/var/folders/d2/nstgp4h54kz7g1l847x_b8wc0000gn/T//cc3fOn4s.s:1147   .text.cmd_cat:000000000000011c $d
/var/folders/d2/nstgp4h54kz7g1l847x_b8wc0000gn/T//cc3fOn4s.s:1159   .text.cmd_sound_file_play:0000000000000000 $t
/var/folders/d2/nstgp4h54kz7g1l847x_b8wc0000gn/T//cc3fOn4s.s:1165   .text.cmd_sound_file_play:0000000000000000 cmd_sound_file_play
/var/folders/d2/nstgp4h54kz7g1l847x_b8wc0000gn/T//cc3fOn4s.s:1196   .text.cmd_sound_file_play:0000000000000034 $d
/var/folders/d2/nstgp4h54kz7g1l847x_b8wc0000gn/T//cc3fOn4s.s:1199   .text.cmd_sound_file_stop:0000000000000000 $t
/var/folders/d2/nstgp4h54kz7g1l847x_b8wc0000gn/T//cc3fOn4s.s:1205   .text.cmd_sound_file_stop:0000000000000000 cmd_sound_file_stop
/var/folders/d2/nstgp4h54kz7g1l847x_b8wc0000gn/T//cc3fOn4s.s:1226   .text.cmd_sound_file_volume:0000000000000000 $t
/var/folders/d2/nstgp4h54kz7g1l847x_b8wc0000gn/T//cc3fOn4s.s:1232   .text.cmd_sound_file_volume:0000000000000000 cmd_sound_file_volume
/var/folders/d2/nstgp4h54kz7g1l847x_b8wc0000gn/T//cc3fOn4s.s:1265   .text.cmd_sound_file_volume:0000000000000038 $d
/var/folders/d2/nstgp4h54kz7g1l847x_b8wc0000gn/T//cc3fOn4s.s:1317   .text.cmd_melody_play:0000000000000000 $t
/var/folders/d2/nstgp4h54kz7g1l847x_b8wc0000gn/T//cc3fOn4s.s:1323   .text.cmd_melody_play:0000000000000000 cmd_melody_play
/var/folders/d2/nstgp4h54kz7g1l847x_b8wc0000gn/T//cc3fOn4s.s:1405   .text.cmd_melody_play:00000000000000b8 $d
/var/folders/d2/nstgp4h54kz7g1l847x_b8wc0000gn/T//cc3fOn4s.s:1423   .text.cmd_melody_stop:0000000000000000 $t
/var/folders/d2/nstgp4h54kz7g1l847x_b8wc0000gn/T//cc3fOn4s.s:1429   .text.cmd_melody_stop:0000000000000000 cmd_melody_stop
/var/folders/d2/nstgp4h54kz7g1l847x_b8wc0000gn/T//cc3fOn4s.s:1459   .text.cmd_mem:0000000000000000 $t
/var/folders/d2/nstgp4h54kz7g1l847x_b8wc0000gn/T//cc3fOn4s.s:1465   .text.cmd_mem:0000000000000000 cmd_mem
/var/folders/d2/nstgp4h54kz7g1l847x_b8wc0000gn/T//cc3fOn4s.s:1510   .text.cmd_mem:0000000000000058 $d
/var/folders/d2/nstgp4h54kz7g1l847x_b8wc0000gn/T//cc3fOn4s.s:1527   .text.cmd_threads:0000000000000000 $t
/var/folders/d2/nstgp4h54kz7g1l847x_b8wc0000gn/T//cc3fOn4s.s:1533   .text.cmd_threads:0000000000000000 cmd_threads
/var/folders/d2/nstgp4h54kz7g1l847x_b8wc0000gn/T//cc3fOn4s.s:1593   .text.cmd_threads:0000000000000074 $d
/var/folders/d2/nstgp4h54kz7g1l847x_b8wc0000gn/T//cc3fOn4s.s:5198   .data.states.13510:0000000000000000 states.13510
/var/folders/d2/nstgp4h54kz7g1l847x_b8wc0000gn/T//cc3fOn4s.s:1606   .text.cmd_test:0000000000000000 $t
/var/folders/d2/nstgp4h54kz7g1l847x_b8wc0000gn/T//cc3fOn4s.s:1612   .text.cmd_test:0000000000000000 cmd_test
/var/folders/d2/nstgp4h54kz7g1l847x_b8wc0000gn/T//cc3fOn4s.s:1656   .text.cmd_test:0000000000000050 $d
/var/folders/d2/nstgp4h54kz7g1l847x_b8wc0000gn/T//cc3fOn4s.s:1666   .text.cmd_readclock:0000000000000000 $t
/var/folders/d2/nstgp4h54kz7g1l847x_b8wc0000gn/T//cc3fOn4s.s:1672   .text.cmd_readclock:0000000000000000 cmd_readclock
/var/folders/d2/nstgp4h54kz7g1l847x_b8wc0000gn/T//cc3fOn4s.s:1698   .text.cmd_readclock:0000000000000028 $d
/var/folders/d2/nstgp4h54kz7g1l847x_b8wc0000gn/T//cc3fOn4s.s:1721   .text.cmd_sqrt:0000000000000000 $t
/var/folders/d2/nstgp4h54kz7g1l847x_b8wc0000gn/T//cc3fOn4s.s:1727   .text.cmd_sqrt:0000000000000000 cmd_sqrt
/var/folders/d2/nstgp4h54kz7g1l847x_b8wc0000gn/T//cc3fOn4s.s:1849   .text.cmd_sqrt:000000000000012c $d
/var/folders/d2/nstgp4h54kz7g1l847x_b8wc0000gn/T//cc3fOn4s.s:1864   .text.cmd_atan2:0000000000000000 $t
/var/folders/d2/nstgp4h54kz7g1l847x_b8wc0000gn/T//cc3fOn4s.s:1870   .text.cmd_atan2:0000000000000000 cmd_atan2
/var/folders/d2/nstgp4h54kz7g1l847x_b8wc0000gn/T//cc3fOn4s.s:1977   .text.cmd_atan2:0000000000000114 $d
/var/folders/d2/nstgp4h54kz7g1l847x_b8wc0000gn/T//cc3fOn4s.s:1989   .text.tree_indent:0000000000000000 $t
/var/folders/d2/nstgp4h54kz7g1l847x_b8wc0000gn/T//cc3fOn4s.s:1995   .text.tree_indent:0000000000000000 tree_indent
/var/folders/d2/nstgp4h54kz7g1l847x_b8wc0000gn/T//cc3fOn4s.s:2026   .text.tree_indent:0000000000000030 $d
/var/folders/d2/nstgp4h54kz7g1l847x_b8wc0000gn/T//cc3fOn4s.s:2055   .text.show_config_tree:0000000000000000 $t
ARM GAS  /var/folders/d2/nstgp4h54kz7g1l847x_b8wc0000gn/T//cc3fOn4s.s 			page 109


/var/folders/d2/nstgp4h54kz7g1l847x_b8wc0000gn/T//cc3fOn4s.s:2061   .text.show_config_tree:0000000000000000 show_config_tree
/var/folders/d2/nstgp4h54kz7g1l847x_b8wc0000gn/T//cc3fOn4s.s:2103   .text.show_config_tree:0000000000000054 $d
/var/folders/d2/nstgp4h54kz7g1l847x_b8wc0000gn/T//cc3fOn4s.s:2107   .text.show_config_tree:0000000000000064 $t
/var/folders/d2/nstgp4h54kz7g1l847x_b8wc0000gn/T//cc3fOn4s.s:2222   .text.show_config_tree:000000000000014c $d
/var/folders/d2/nstgp4h54kz7g1l847x_b8wc0000gn/T//cc3fOn4s.s:2236   .text.cmd_config_tree:0000000000000000 $t
/var/folders/d2/nstgp4h54kz7g1l847x_b8wc0000gn/T//cc3fOn4s.s:2242   .text.cmd_config_tree:0000000000000000 cmd_config_tree
/var/folders/d2/nstgp4h54kz7g1l847x_b8wc0000gn/T//cc3fOn4s.s:2284   .text.cmd_config_tree:0000000000000048 $d
/var/folders/d2/nstgp4h54kz7g1l847x_b8wc0000gn/T//cc3fOn4s.s:2309   .text.cmd_config_set:0000000000000000 $t
/var/folders/d2/nstgp4h54kz7g1l847x_b8wc0000gn/T//cc3fOn4s.s:2315   .text.cmd_config_set:0000000000000000 cmd_config_set
/var/folders/d2/nstgp4h54kz7g1l847x_b8wc0000gn/T//cc3fOn4s.s:2445   .text.cmd_config_set:0000000000000100 $d
/var/folders/d2/nstgp4h54kz7g1l847x_b8wc0000gn/T//cc3fOn4s.s:2457   .text.cmd_config_erase:0000000000000000 $t
/var/folders/d2/nstgp4h54kz7g1l847x_b8wc0000gn/T//cc3fOn4s.s:2463   .text.cmd_config_erase:0000000000000000 cmd_config_erase
/var/folders/d2/nstgp4h54kz7g1l847x_b8wc0000gn/T//cc3fOn4s.s:2482   .text.cmd_config_erase:000000000000001c $d
/var/folders/d2/nstgp4h54kz7g1l847x_b8wc0000gn/T//cc3fOn4s.s:2492   .text.cmd_config_save:0000000000000000 $t
/var/folders/d2/nstgp4h54kz7g1l847x_b8wc0000gn/T//cc3fOn4s.s:2498   .text.cmd_config_save:0000000000000000 cmd_config_save
/var/folders/d2/nstgp4h54kz7g1l847x_b8wc0000gn/T//cc3fOn4s.s:2540   .text.cmd_config_save:000000000000004c $d
/var/folders/d2/nstgp4h54kz7g1l847x_b8wc0000gn/T//cc3fOn4s.s:2551   .text.cmd_config_load:0000000000000000 $t
/var/folders/d2/nstgp4h54kz7g1l847x_b8wc0000gn/T//cc3fOn4s.s:2557   .text.cmd_config_load:0000000000000000 cmd_config_load
/var/folders/d2/nstgp4h54kz7g1l847x_b8wc0000gn/T//cc3fOn4s.s:2591   .text.cmd_config_load:0000000000000038 $d
/var/folders/d2/nstgp4h54kz7g1l847x_b8wc0000gn/T//cc3fOn4s.s:2608   .text.cmd_cam_set_brightness:0000000000000000 $t
/var/folders/d2/nstgp4h54kz7g1l847x_b8wc0000gn/T//cc3fOn4s.s:2614   .text.cmd_cam_set_brightness:0000000000000000 cmd_cam_set_brightness
/var/folders/d2/nstgp4h54kz7g1l847x_b8wc0000gn/T//cc3fOn4s.s:2664   .text.cmd_cam_set_brightness:0000000000000060 $d
/var/folders/d2/nstgp4h54kz7g1l847x_b8wc0000gn/T//cc3fOn4s.s:2674   .text.cmd_cam_set_contrast:0000000000000000 $t
/var/folders/d2/nstgp4h54kz7g1l847x_b8wc0000gn/T//cc3fOn4s.s:2680   .text.cmd_cam_set_contrast:0000000000000000 cmd_cam_set_contrast
/var/folders/d2/nstgp4h54kz7g1l847x_b8wc0000gn/T//cc3fOn4s.s:2730   .text.cmd_cam_set_contrast:0000000000000060 $d
/var/folders/d2/nstgp4h54kz7g1l847x_b8wc0000gn/T//cc3fOn4s.s:2765   .text.cmd_cam_set_conf1:0000000000000000 $t
/var/folders/d2/nstgp4h54kz7g1l847x_b8wc0000gn/T//cc3fOn4s.s:2771   .text.cmd_cam_set_conf1:0000000000000000 cmd_cam_set_conf1
/var/folders/d2/nstgp4h54kz7g1l847x_b8wc0000gn/T//cc3fOn4s.s:2893   .text.cmd_cam_set_conf1:00000000000000ec $d
/var/folders/d2/nstgp4h54kz7g1l847x_b8wc0000gn/T//cc3fOn4s.s:2917   .text.cmd_cam_set_conf2:0000000000000000 $t
/var/folders/d2/nstgp4h54kz7g1l847x_b8wc0000gn/T//cc3fOn4s.s:2923   .text.cmd_cam_set_conf2:0000000000000000 cmd_cam_set_conf2
/var/folders/d2/nstgp4h54kz7g1l847x_b8wc0000gn/T//cc3fOn4s.s:3024   .text.cmd_cam_set_conf2:00000000000000cc $d
/var/folders/d2/nstgp4h54kz7g1l847x_b8wc0000gn/T//cc3fOn4s.s:3047   .text.cmd_cam_set_mirror:0000000000000000 $t
/var/folders/d2/nstgp4h54kz7g1l847x_b8wc0000gn/T//cc3fOn4s.s:3053   .text.cmd_cam_set_mirror:0000000000000000 cmd_cam_set_mirror
/var/folders/d2/nstgp4h54kz7g1l847x_b8wc0000gn/T//cc3fOn4s.s:3112   .text.cmd_cam_set_mirror:0000000000000074 $d
/var/folders/d2/nstgp4h54kz7g1l847x_b8wc0000gn/T//cc3fOn4s.s:3129   .text.cmd_cam_set_gain:0000000000000000 $t
/var/folders/d2/nstgp4h54kz7g1l847x_b8wc0000gn/T//cc3fOn4s.s:3135   .text.cmd_cam_set_gain:0000000000000000 cmd_cam_set_gain
/var/folders/d2/nstgp4h54kz7g1l847x_b8wc0000gn/T//cc3fOn4s.s:3201   .text.cmd_cam_set_gain:0000000000000084 $d
/var/folders/d2/nstgp4h54kz7g1l847x_b8wc0000gn/T//cc3fOn4s.s:3217   .text.cmd_cam_set_awb:0000000000000000 $t
/var/folders/d2/nstgp4h54kz7g1l847x_b8wc0000gn/T//cc3fOn4s.s:3223   .text.cmd_cam_set_awb:0000000000000000 cmd_cam_set_awb
/var/folders/d2/nstgp4h54kz7g1l847x_b8wc0000gn/T//cc3fOn4s.s:3273   .text.cmd_cam_set_awb:0000000000000060 $d
/var/folders/d2/nstgp4h54kz7g1l847x_b8wc0000gn/T//cc3fOn4s.s:3289   .text.cmd_cam_set_ae:0000000000000000 $t
/var/folders/d2/nstgp4h54kz7g1l847x_b8wc0000gn/T//cc3fOn4s.s:3295   .text.cmd_cam_set_ae:0000000000000000 cmd_cam_set_ae
/var/folders/d2/nstgp4h54kz7g1l847x_b8wc0000gn/T//cc3fOn4s.s:3345   .text.cmd_cam_set_ae:0000000000000060 $d
/var/folders/d2/nstgp4h54kz7g1l847x_b8wc0000gn/T//cc3fOn4s.s:3363   .text.cmd_cam_set_exposure:0000000000000000 $t
/var/folders/d2/nstgp4h54kz7g1l847x_b8wc0000gn/T//cc3fOn4s.s:3369   .text.cmd_cam_set_exposure:0000000000000000 cmd_cam_set_exposure
/var/folders/d2/nstgp4h54kz7g1l847x_b8wc0000gn/T//cc3fOn4s.s:3428   .text.cmd_cam_set_exposure:0000000000000074 $d
/var/folders/d2/nstgp4h54kz7g1l847x_b8wc0000gn/T//cc3fOn4s.s:3444   .text.cmd_cam_dcmi_prepare:0000000000000000 $t
/var/folders/d2/nstgp4h54kz7g1l847x_b8wc0000gn/T//cc3fOn4s.s:3450   .text.cmd_cam_dcmi_prepare:0000000000000000 cmd_cam_dcmi_prepare
/var/folders/d2/nstgp4h54kz7g1l847x_b8wc0000gn/T//cc3fOn4s.s:3507   .text.cmd_cam_dcmi_prepare:000000000000006c $d
/var/folders/d2/nstgp4h54kz7g1l847x_b8wc0000gn/T//cc3fOn4s.s:3516   .text.cmd_cam_dcmi_unprepare:0000000000000000 $t
/var/folders/d2/nstgp4h54kz7g1l847x_b8wc0000gn/T//cc3fOn4s.s:3522   .text.cmd_cam_dcmi_unprepare:0000000000000000 cmd_cam_dcmi_unprepare
/var/folders/d2/nstgp4h54kz7g1l847x_b8wc0000gn/T//cc3fOn4s.s:3543   .text.cmd_cam_dcmi_unprepare:0000000000000020 $d
/var/folders/d2/nstgp4h54kz7g1l847x_b8wc0000gn/T//cc3fOn4s.s:3546   .text.cmd_cam_capture:0000000000000000 $t
/var/folders/d2/nstgp4h54kz7g1l847x_b8wc0000gn/T//cc3fOn4s.s:3552   .text.cmd_cam_capture:0000000000000000 cmd_cam_capture
/var/folders/d2/nstgp4h54kz7g1l847x_b8wc0000gn/T//cc3fOn4s.s:3582   .text.cmd_cam_send:0000000000000000 $t
/var/folders/d2/nstgp4h54kz7g1l847x_b8wc0000gn/T//cc3fOn4s.s:3588   .text.cmd_cam_send:0000000000000000 cmd_cam_send
/var/folders/d2/nstgp4h54kz7g1l847x_b8wc0000gn/T//cc3fOn4s.s:3666   .text.cmd_cam_send:00000000000000ac $d
ARM GAS  /var/folders/d2/nstgp4h54kz7g1l847x_b8wc0000gn/T//cc3fOn4s.s 			page 110


/var/folders/d2/nstgp4h54kz7g1l847x_b8wc0000gn/T//cc3fOn4s.s:3678   .text.cmd_set_led:0000000000000000 $t
/var/folders/d2/nstgp4h54kz7g1l847x_b8wc0000gn/T//cc3fOn4s.s:3684   .text.cmd_set_led:0000000000000000 cmd_set_led
/var/folders/d2/nstgp4h54kz7g1l847x_b8wc0000gn/T//cc3fOn4s.s:3751   .text.cmd_set_led:000000000000007c $d
/var/folders/d2/nstgp4h54kz7g1l847x_b8wc0000gn/T//cc3fOn4s.s:3762   .text.cmd_set_speed:0000000000000000 $t
/var/folders/d2/nstgp4h54kz7g1l847x_b8wc0000gn/T//cc3fOn4s.s:3768   .text.cmd_set_speed:0000000000000000 cmd_set_speed
/var/folders/d2/nstgp4h54kz7g1l847x_b8wc0000gn/T//cc3fOn4s.s:3824   .text.cmd_set_speed:0000000000000074 $d
/var/folders/d2/nstgp4h54kz7g1l847x_b8wc0000gn/T//cc3fOn4s.s:3833   .text.cmd_get_battery:0000000000000000 $t
/var/folders/d2/nstgp4h54kz7g1l847x_b8wc0000gn/T//cc3fOn4s.s:3839   .text.cmd_get_battery:0000000000000000 cmd_get_battery
/var/folders/d2/nstgp4h54kz7g1l847x_b8wc0000gn/T//cc3fOn4s.s:3862   .text.cmd_get_battery:0000000000000024 $d
/var/folders/d2/nstgp4h54kz7g1l847x_b8wc0000gn/T//cc3fOn4s.s:3870   .text.cmd_audio_play:0000000000000000 $t
/var/folders/d2/nstgp4h54kz7g1l847x_b8wc0000gn/T//cc3fOn4s.s:3876   .text.cmd_audio_play:0000000000000000 cmd_audio_play
/var/folders/d2/nstgp4h54kz7g1l847x_b8wc0000gn/T//cc3fOn4s.s:3911   .text.cmd_audio_play:000000000000003c $d
/var/folders/d2/nstgp4h54kz7g1l847x_b8wc0000gn/T//cc3fOn4s.s:3914   .text.cmd_audio_stop:0000000000000000 $t
/var/folders/d2/nstgp4h54kz7g1l847x_b8wc0000gn/T//cc3fOn4s.s:3920   .text.cmd_audio_stop:0000000000000000 cmd_audio_stop
/var/folders/d2/nstgp4h54kz7g1l847x_b8wc0000gn/T//cc3fOn4s.s:3944   .text.cmd_volume:0000000000000000 $t
/var/folders/d2/nstgp4h54kz7g1l847x_b8wc0000gn/T//cc3fOn4s.s:3950   .text.cmd_volume:0000000000000000 cmd_volume
/var/folders/d2/nstgp4h54kz7g1l847x_b8wc0000gn/T//cc3fOn4s.s:3990   .text.cmd_volume:0000000000000048 $d
/var/folders/d2/nstgp4h54kz7g1l847x_b8wc0000gn/T//cc3fOn4s.s:3994   .text.cmd_mic_data:0000000000000000 $t
/var/folders/d2/nstgp4h54kz7g1l847x_b8wc0000gn/T//cc3fOn4s.s:4000   .text.cmd_mic_data:0000000000000000 cmd_mic_data
/var/folders/d2/nstgp4h54kz7g1l847x_b8wc0000gn/T//cc3fOn4s.s:4057   .text.cmd_mic_data:0000000000000070 $d
/var/folders/d2/nstgp4h54kz7g1l847x_b8wc0000gn/T//cc3fOn4s.s:4149   .text.cmd_sdc:0000000000000000 $t
/var/folders/d2/nstgp4h54kz7g1l847x_b8wc0000gn/T//cc3fOn4s.s:4156   .text.cmd_sdc:0000000000000000 cmd_sdc
/var/folders/d2/nstgp4h54kz7g1l847x_b8wc0000gn/T//cc3fOn4s.s:4426   .text.cmd_sdc:0000000000000248 $d
/var/folders/d2/nstgp4h54kz7g1l847x_b8wc0000gn/T//cc3fOn4s.s:5235   .data.mode.13757:0000000000000000 mode.13757
/var/folders/d2/nstgp4h54kz7g1l847x_b8wc0000gn/T//cc3fOn4s.s:4447   .text.cmd_sdc:0000000000000298 $t
/var/folders/d2/nstgp4h54kz7g1l847x_b8wc0000gn/T//cc3fOn4s.s:4765   .text.cmd_sdc:0000000000000558 $d
/var/folders/d2/nstgp4h54kz7g1l847x_b8wc0000gn/T//cc3fOn4s.s:4788   .text.cmd_sdc:00000000000005b0 $t
/var/folders/d2/nstgp4h54kz7g1l847x_b8wc0000gn/T//cc3fOn4s.s:4813   .text.cmd_sdc:00000000000005dc $d
/var/folders/d2/nstgp4h54kz7g1l847x_b8wc0000gn/T//cc3fOn4s.s:4962   .rodata.shell_commands:0000000000000000 shell_commands
/var/folders/d2/nstgp4h54kz7g1l847x_b8wc0000gn/T//cc3fOn4s.s:4959   .rodata.shell_commands:0000000000000000 $d
/var/folders/d2/nstgp4h54kz7g1l847x_b8wc0000gn/T//cc3fOn4s.s:5062   .text.shell_spawn_thd:0000000000000000 $t
/var/folders/d2/nstgp4h54kz7g1l847x_b8wc0000gn/T//cc3fOn4s.s:5068   .text.shell_spawn_thd:0000000000000000 shell_spawn_thd
/var/folders/d2/nstgp4h54kz7g1l847x_b8wc0000gn/T//cc3fOn4s.s:5111   .text.shell_spawn_thd:0000000000000054 $d
/var/folders/d2/nstgp4h54kz7g1l847x_b8wc0000gn/T//cc3fOn4s.s:5244   .rodata.shell_cfg.13785:0000000000000000 shell_cfg.13785
/var/folders/d2/nstgp4h54kz7g1l847x_b8wc0000gn/T//cc3fOn4s.s:5115   .text.shell_start:0000000000000000 $t
/var/folders/d2/nstgp4h54kz7g1l847x_b8wc0000gn/T//cc3fOn4s.s:5122   .text.shell_start:0000000000000000 shell_start
/var/folders/d2/nstgp4h54kz7g1l847x_b8wc0000gn/T//cc3fOn4s.s:5142   .text.shell_start:0000000000000020 $d
/var/folders/d2/nstgp4h54kz7g1l847x_b8wc0000gn/T//cc3fOn4s.s:5251   .bss.wa.13790:0000000000000000 wa.13790
/var/folders/d2/nstgp4h54kz7g1l847x_b8wc0000gn/T//cc3fOn4s.s:5195   .data.states.13510:0000000000000000 $d
/var/folders/d2/nstgp4h54kz7g1l847x_b8wc0000gn/T//cc3fOn4s.s:5216   .rodata.__func__.8875:0000000000000000 $d
/var/folders/d2/nstgp4h54kz7g1l847x_b8wc0000gn/T//cc3fOn4s.s:5232   .data.mode.13757:0000000000000000 $d
/var/folders/d2/nstgp4h54kz7g1l847x_b8wc0000gn/T//cc3fOn4s.s:5241   .rodata.shell_cfg.13785:0000000000000000 $d
/var/folders/d2/nstgp4h54kz7g1l847x_b8wc0000gn/T//cc3fOn4s.s:5248   .bss.wa.13790:0000000000000000 $d

UNDEFINED SYMBOLS
_stats_start_measure_crit_thd
_dbg_check_lock
_dbg_check_unlock
_stats_stop_measure_crit_thd
chSysHalt
ch
chvprintf
mountSDCard
unmountSDCard
f_getfree
getSDCardClusterSize
memset
ARM GAS  /var/folders/d2/nstgp4h54kz7g1l847x_b8wc0000gn/T//cc3fOn4s.s 			page 111


scan_files
f_open
fverbose_error
f_puts
f_close
f_mkdir
f_setlabel
f_getlabel
f_read
playSoundFile
stopCurrentSoundFile
atoi
setSoundFileVolume
playMelody
stopCurrentMelody
chHeapStatus
chCoreGetStatusX
chRegFirstThread
chRegNextThread
chThdCreateFromHeap
chThdWait
TestThread
chTMObjectInit
strcmp
chTMStartMeasurementX
aseba_sqrt
chTMStopMeasurementX
sqrtf
aseba_atan2
atan2f
__aeabi_f2d
parameter_defined
parameter_scalar_get
parameter_integer_get
parameter_boolean_get
parameter_string_get
parameter_namespace_find
parameter_root
parameter_find
sscanf
parameter_integer_set
parameter_boolean_set
parameter_string_set
config_erase
_config_start
config_save
config_load
_config_end
cam_set_brightness
cam_set_contrast
cam_advanced_config
cam_set_mirror
cam_set_rgb_gain
cam_set_awb
cam_set_ae
cam_set_exposure
dcmi_set_capture_mode
ARM GAS  /var/folders/d2/nstgp4h54kz7g1l847x_b8wc0000gn/T//cc3fOn4s.s 			page 112


dcmi_disable_double_buffering
dcmi_enable_double_buffering
dcmi_prepare
dcmi_unprepare
spi_comm_suspend
dcmi_capture_start
wait_image_ready
spi_comm_resume
dcmi_capture_stop
dcmi_double_buffering_enabled
chThdSleep
dcmi_get_first_buffer_ptr
cam_get_image_size
dcmi_get_second_buffer_ptr
cam_get_last_image_ptr
SDU1
set_led
set_body_led
set_front_led
right_motor_set_speed
left_motor_set_speed
get_battery_raw
dac_play
dac_stop
mic_get_volume
mic_buffer_get_size
mic_buffer_ready_reset
mic_buffer_is_ready
mic_get_buffer_ptr
sdcConnect
SDCD1
sdcWrite
sdcErase
sdcGetAndClearErrors
sdcRead
memcmp
sdcDisconnect
shellInit
shellCreate
chThdRelease
chThdCreateStatic
