ARM GAS  /var/folders/d2/nstgp4h54kz7g1l847x_b8wc0000gn/T//ccFI0sM2.s 			page 1


   1              		.cpu cortex-m4
   2              		.eabi_attribute 27, 1
   3              		.eabi_attribute 28, 1
   4              		.eabi_attribute 20, 1
   5              		.eabi_attribute 21, 1
   6              		.eabi_attribute 23, 3
   7              		.eabi_attribute 24, 1
   8              		.eabi_attribute 25, 1
   9              		.eabi_attribute 26, 1
  10              		.eabi_attribute 30, 6
  11              		.eabi_attribute 34, 1
  12              		.eabi_attribute 18, 4
  13              		.file	"cmp.c"
  14              		.section	.rodata.version,"a",%progbits
  15              		.align	2
  16              		.type	version, %object
  17              		.size	version, 4
  18              	version:
  19 0000 0A000000 		.word	10
  20              		.section	.rodata.mp_version,"a",%progbits
  21              		.align	2
  22              		.type	mp_version, %object
  23              		.size	mp_version, 4
  24              	mp_version:
  25 0000 05000000 		.word	5
  26              		.global	cmp_error_messages
  27              		.section	.rodata
  28              		.align	2
  29              	.LC0:
  30 0000 4E6F2045 		.ascii	"No Error\000"
  30      72726F72 
  30      00
  31 0009 000000   		.align	2
  32              	.LC1:
  33 000c 53706563 		.ascii	"Specified string data length is too long (> 0xFFFFF"
  33      69666965 
  33      64207374 
  33      72696E67 
  33      20646174 
  34 003f 46464629 		.ascii	"FFF)\000"
  34      00
  35              		.align	2
  36              	.LC2:
  37 0044 53706563 		.ascii	"Specified binary data length is too long (> 0xFFFFF"
  37      69666965 
  37      64206269 
  37      6E617279 
  37      20646174 
  38 0077 46464629 		.ascii	"FFF)\000"
  38      00
  39              		.align	2
  40              	.LC3:
  41 007c 53706563 		.ascii	"Specified array length is too long (> 0xFFFFFFFF)\000"
  41      69666965 
  41      64206172 
  41      72617920 
  41      6C656E67 
ARM GAS  /var/folders/d2/nstgp4h54kz7g1l847x_b8wc0000gn/T//ccFI0sM2.s 			page 2


  42 00ae 0000     		.align	2
  43              	.LC4:
  44 00b0 53706563 		.ascii	"Specified map length is too long (> 0xFFFFFFFF)\000"
  44      69666965 
  44      64206D61 
  44      70206C65 
  44      6E677468 
  45              		.align	2
  46              	.LC5:
  47 00e0 496E7075 		.ascii	"Input value is too large\000"
  47      74207661 
  47      6C756520 
  47      69732074 
  47      6F6F206C 
  48 00f9 000000   		.align	2
  49              	.LC6:
  50 00fc 4572726F 		.ascii	"Error writing fixed value\000"
  50      72207772 
  50      6974696E 
  50      67206669 
  50      78656420 
  51 0116 0000     		.align	2
  52              	.LC7:
  53 0118 4572726F 		.ascii	"Error reading type marker\000"
  53      72207265 
  53      6164696E 
  53      67207479 
  53      7065206D 
  54 0132 0000     		.align	2
  55              	.LC8:
  56 0134 4572726F 		.ascii	"Error writing type marker\000"
  56      72207772 
  56      6974696E 
  56      67207479 
  56      7065206D 
  57 014e 0000     		.align	2
  58              	.LC9:
  59 0150 4572726F 		.ascii	"Error reading packed data\000"
  59      72207265 
  59      6164696E 
  59      67207061 
  59      636B6564 
  60 016a 0000     		.align	2
  61              	.LC10:
  62 016c 4572726F 		.ascii	"Error writing packed data\000"
  62      72207772 
  62      6974696E 
  62      67207061 
  62      636B6564 
  63 0186 0000     		.align	2
  64              	.LC11:
  65 0188 4572726F 		.ascii	"Error reading ext type\000"
  65      72207265 
  65      6164696E 
  65      67206578 
  65      74207479 
  66 019f 00       		.align	2
ARM GAS  /var/folders/d2/nstgp4h54kz7g1l847x_b8wc0000gn/T//ccFI0sM2.s 			page 3


  67              	.LC12:
  68 01a0 4572726F 		.ascii	"Error writing ext type\000"
  68      72207772 
  68      6974696E 
  68      67206578 
  68      74207479 
  69 01b7 00       		.align	2
  70              	.LC13:
  71 01b8 496E7661 		.ascii	"Invalid type\000"
  71      6C696420 
  71      74797065 
  71      00
  72 01c5 000000   		.align	2
  73              	.LC14:
  74 01c8 4572726F 		.ascii	"Error reading size\000"
  74      72207265 
  74      6164696E 
  74      67207369 
  74      7A6500
  75 01db 00       		.align	2
  76              	.LC15:
  77 01dc 4572726F 		.ascii	"Error writing size\000"
  77      72207772 
  77      6974696E 
  77      67207369 
  77      7A6500
  78 01ef 00       		.align	2
  79              	.LC16:
  80 01f0 4D617820 		.ascii	"Max Error\000"
  80      4572726F 
  80      7200
  81              		.section	.data.cmp_error_messages,"aw",%progbits
  82              		.align	2
  83              		.type	cmp_error_messages, %object
  84              		.size	cmp_error_messages, 68
  85              	cmp_error_messages:
  86 0000 00000000 		.word	.LC0
  87 0004 0C000000 		.word	.LC1
  88 0008 44000000 		.word	.LC2
  89 000c 7C000000 		.word	.LC3
  90 0010 B0000000 		.word	.LC4
  91 0014 E0000000 		.word	.LC5
  92 0018 FC000000 		.word	.LC6
  93 001c 18010000 		.word	.LC7
  94 0020 34010000 		.word	.LC8
  95 0024 50010000 		.word	.LC9
  96 0028 6C010000 		.word	.LC10
  97 002c 88010000 		.word	.LC11
  98 0030 A0010000 		.word	.LC12
  99 0034 B8010000 		.word	.LC13
 100 0038 C8010000 		.word	.LC14
 101 003c DC010000 		.word	.LC15
 102 0040 F0010000 		.word	.LC16
 103              		.section	.rodata._i,"a",%progbits
 104              		.align	2
 105              		.type	_i, %object
 106              		.size	_i, 4
ARM GAS  /var/folders/d2/nstgp4h54kz7g1l847x_b8wc0000gn/T//ccFI0sM2.s 			page 4


 107              	_i:
 108 0000 01000000 		.word	1
 109              		.section	.text.be16,"ax",%progbits
 110              		.align	1
 111              		.syntax unified
 112              		.thumb
 113              		.thumb_func
 114              		.fpu fpv4-sp-d16
 115              		.type	be16, %function
 116              	be16:
 117              		@ args = 0, pretend = 0, frame = 16
 118              		@ frame_needed = 1, uses_anonymous_args = 0
 119              		@ link register save eliminated.
 120 0000 80B4     		push	{r7}
 121 0002 85B0     		sub	sp, sp, #20
 122 0004 00AF     		add	r7, sp, #0
 123 0006 0346     		mov	r3, r0
 124 0008 FB80     		strh	r3, [r7, #6]	@ movhi
 125 000a BB1D     		adds	r3, r7, #6
 126 000c FB60     		str	r3, [r7, #12]
 127 000e 0C4B     		ldr	r3, .L4
 128 0010 1B78     		ldrb	r3, [r3]	@ zero_extendqisi2
 129 0012 002B     		cmp	r3, #0
 130 0014 0CD0     		beq	.L2
 131 0016 0023     		movs	r3, #0
 132 0018 FB72     		strb	r3, [r7, #11]
 133 001a FB68     		ldr	r3, [r7, #12]
 134 001c 1B78     		ldrb	r3, [r3]
 135 001e FB72     		strb	r3, [r7, #11]
 136 0020 FB68     		ldr	r3, [r7, #12]
 137 0022 5A78     		ldrb	r2, [r3, #1]	@ zero_extendqisi2
 138 0024 FB68     		ldr	r3, [r7, #12]
 139 0026 1A70     		strb	r2, [r3]
 140 0028 FB68     		ldr	r3, [r7, #12]
 141 002a 0133     		adds	r3, r3, #1
 142 002c FA7A     		ldrb	r2, [r7, #11]
 143 002e 1A70     		strb	r2, [r3]
 144              	.L2:
 145 0030 FB88     		ldrh	r3, [r7, #6]
 146 0032 1846     		mov	r0, r3
 147 0034 1437     		adds	r7, r7, #20
 148 0036 BD46     		mov	sp, r7
 149              		@ sp needed
 150 0038 5DF8047B 		ldr	r7, [sp], #4
 151 003c 7047     		bx	lr
 152              	.L5:
 153 003e 00BF     		.align	2
 154              	.L4:
 155 0040 00000000 		.word	_i
 156              		.size	be16, .-be16
 157              		.section	.text.be32,"ax",%progbits
 158              		.align	1
 159              		.syntax unified
 160              		.thumb
 161              		.thumb_func
 162              		.fpu fpv4-sp-d16
 163              		.type	be32, %function
ARM GAS  /var/folders/d2/nstgp4h54kz7g1l847x_b8wc0000gn/T//ccFI0sM2.s 			page 5


 164              	be32:
 165              		@ args = 0, pretend = 0, frame = 16
 166              		@ frame_needed = 1, uses_anonymous_args = 0
 167              		@ link register save eliminated.
 168 0000 80B4     		push	{r7}
 169 0002 85B0     		sub	sp, sp, #20
 170 0004 00AF     		add	r7, sp, #0
 171 0006 7860     		str	r0, [r7, #4]
 172 0008 3B1D     		adds	r3, r7, #4
 173 000a FB60     		str	r3, [r7, #12]
 174 000c 114B     		ldr	r3, .L9
 175 000e 1B78     		ldrb	r3, [r3]	@ zero_extendqisi2
 176 0010 002B     		cmp	r3, #0
 177 0012 18D0     		beq	.L7
 178 0014 0023     		movs	r3, #0
 179 0016 FB72     		strb	r3, [r7, #11]
 180 0018 FB68     		ldr	r3, [r7, #12]
 181 001a 1B78     		ldrb	r3, [r3]
 182 001c FB72     		strb	r3, [r7, #11]
 183 001e FB68     		ldr	r3, [r7, #12]
 184 0020 DA78     		ldrb	r2, [r3, #3]	@ zero_extendqisi2
 185 0022 FB68     		ldr	r3, [r7, #12]
 186 0024 1A70     		strb	r2, [r3]
 187 0026 FB68     		ldr	r3, [r7, #12]
 188 0028 0333     		adds	r3, r3, #3
 189 002a FA7A     		ldrb	r2, [r7, #11]
 190 002c 1A70     		strb	r2, [r3]
 191 002e FB68     		ldr	r3, [r7, #12]
 192 0030 5B78     		ldrb	r3, [r3, #1]
 193 0032 FB72     		strb	r3, [r7, #11]
 194 0034 FB68     		ldr	r3, [r7, #12]
 195 0036 0133     		adds	r3, r3, #1
 196 0038 FA68     		ldr	r2, [r7, #12]
 197 003a 9278     		ldrb	r2, [r2, #2]	@ zero_extendqisi2
 198 003c 1A70     		strb	r2, [r3]
 199 003e FB68     		ldr	r3, [r7, #12]
 200 0040 0233     		adds	r3, r3, #2
 201 0042 FA7A     		ldrb	r2, [r7, #11]
 202 0044 1A70     		strb	r2, [r3]
 203              	.L7:
 204 0046 7B68     		ldr	r3, [r7, #4]
 205 0048 1846     		mov	r0, r3
 206 004a 1437     		adds	r7, r7, #20
 207 004c BD46     		mov	sp, r7
 208              		@ sp needed
 209 004e 5DF8047B 		ldr	r7, [sp], #4
 210 0052 7047     		bx	lr
 211              	.L10:
 212              		.align	2
 213              	.L9:
 214 0054 00000000 		.word	_i
 215              		.size	be32, .-be32
 216              		.section	.text.be64,"ax",%progbits
 217              		.align	1
 218              		.syntax unified
 219              		.thumb
 220              		.thumb_func
ARM GAS  /var/folders/d2/nstgp4h54kz7g1l847x_b8wc0000gn/T//ccFI0sM2.s 			page 6


 221              		.fpu fpv4-sp-d16
 222              		.type	be64, %function
 223              	be64:
 224              		@ args = 0, pretend = 0, frame = 16
 225              		@ frame_needed = 1, uses_anonymous_args = 0
 226              		@ link register save eliminated.
 227 0000 90B4     		push	{r4, r7}
 228 0002 84B0     		sub	sp, sp, #16
 229 0004 00AF     		add	r7, sp, #0
 230 0006 C7E90001 		strd	r0, [r7]
 231 000a 3B46     		mov	r3, r7
 232 000c FB60     		str	r3, [r7, #12]
 233 000e 1E4B     		ldr	r3, .L14
 234 0010 1B78     		ldrb	r3, [r3]	@ zero_extendqisi2
 235 0012 002B     		cmp	r3, #0
 236 0014 30D0     		beq	.L12
 237 0016 0023     		movs	r3, #0
 238 0018 FB72     		strb	r3, [r7, #11]
 239 001a FB68     		ldr	r3, [r7, #12]
 240 001c 1B78     		ldrb	r3, [r3]
 241 001e FB72     		strb	r3, [r7, #11]
 242 0020 FB68     		ldr	r3, [r7, #12]
 243 0022 DA79     		ldrb	r2, [r3, #7]	@ zero_extendqisi2
 244 0024 FB68     		ldr	r3, [r7, #12]
 245 0026 1A70     		strb	r2, [r3]
 246 0028 FB68     		ldr	r3, [r7, #12]
 247 002a 0733     		adds	r3, r3, #7
 248 002c FA7A     		ldrb	r2, [r7, #11]
 249 002e 1A70     		strb	r2, [r3]
 250 0030 FB68     		ldr	r3, [r7, #12]
 251 0032 5B78     		ldrb	r3, [r3, #1]
 252 0034 FB72     		strb	r3, [r7, #11]
 253 0036 FB68     		ldr	r3, [r7, #12]
 254 0038 0133     		adds	r3, r3, #1
 255 003a FA68     		ldr	r2, [r7, #12]
 256 003c 9279     		ldrb	r2, [r2, #6]	@ zero_extendqisi2
 257 003e 1A70     		strb	r2, [r3]
 258 0040 FB68     		ldr	r3, [r7, #12]
 259 0042 0633     		adds	r3, r3, #6
 260 0044 FA7A     		ldrb	r2, [r7, #11]
 261 0046 1A70     		strb	r2, [r3]
 262 0048 FB68     		ldr	r3, [r7, #12]
 263 004a 9B78     		ldrb	r3, [r3, #2]
 264 004c FB72     		strb	r3, [r7, #11]
 265 004e FB68     		ldr	r3, [r7, #12]
 266 0050 0233     		adds	r3, r3, #2
 267 0052 FA68     		ldr	r2, [r7, #12]
 268 0054 5279     		ldrb	r2, [r2, #5]	@ zero_extendqisi2
 269 0056 1A70     		strb	r2, [r3]
 270 0058 FB68     		ldr	r3, [r7, #12]
 271 005a 0533     		adds	r3, r3, #5
 272 005c FA7A     		ldrb	r2, [r7, #11]
 273 005e 1A70     		strb	r2, [r3]
 274 0060 FB68     		ldr	r3, [r7, #12]
 275 0062 DB78     		ldrb	r3, [r3, #3]
 276 0064 FB72     		strb	r3, [r7, #11]
 277 0066 FB68     		ldr	r3, [r7, #12]
ARM GAS  /var/folders/d2/nstgp4h54kz7g1l847x_b8wc0000gn/T//ccFI0sM2.s 			page 7


 278 0068 0333     		adds	r3, r3, #3
 279 006a FA68     		ldr	r2, [r7, #12]
 280 006c 1279     		ldrb	r2, [r2, #4]	@ zero_extendqisi2
 281 006e 1A70     		strb	r2, [r3]
 282 0070 FB68     		ldr	r3, [r7, #12]
 283 0072 0433     		adds	r3, r3, #4
 284 0074 FA7A     		ldrb	r2, [r7, #11]
 285 0076 1A70     		strb	r2, [r3]
 286              	.L12:
 287 0078 D7E90034 		ldrd	r3, [r7]
 288 007c 1846     		mov	r0, r3
 289 007e 2146     		mov	r1, r4
 290 0080 1037     		adds	r7, r7, #16
 291 0082 BD46     		mov	sp, r7
 292              		@ sp needed
 293 0084 90BC     		pop	{r4, r7}
 294 0086 7047     		bx	lr
 295              	.L15:
 296              		.align	2
 297              	.L14:
 298 0088 00000000 		.word	_i
 299              		.size	be64, .-be64
 300              		.section	.text.befloat,"ax",%progbits
 301              		.align	1
 302              		.syntax unified
 303              		.thumb
 304              		.thumb_func
 305              		.fpu fpv4-sp-d16
 306              		.type	befloat, %function
 307              	befloat:
 308              		@ args = 0, pretend = 0, frame = 16
 309              		@ frame_needed = 1, uses_anonymous_args = 0
 310              		@ link register save eliminated.
 311 0000 80B4     		push	{r7}
 312 0002 85B0     		sub	sp, sp, #20
 313 0004 00AF     		add	r7, sp, #0
 314 0006 87ED010A 		vstr.32	s0, [r7, #4]
 315 000a 3B1D     		adds	r3, r7, #4
 316 000c FB60     		str	r3, [r7, #12]
 317 000e 134B     		ldr	r3, .L19
 318 0010 1B78     		ldrb	r3, [r3]	@ zero_extendqisi2
 319 0012 002B     		cmp	r3, #0
 320 0014 18D0     		beq	.L17
 321 0016 0023     		movs	r3, #0
 322 0018 FB72     		strb	r3, [r7, #11]
 323 001a FB68     		ldr	r3, [r7, #12]
 324 001c 1B78     		ldrb	r3, [r3]
 325 001e FB72     		strb	r3, [r7, #11]
 326 0020 FB68     		ldr	r3, [r7, #12]
 327 0022 DA78     		ldrb	r2, [r3, #3]	@ zero_extendqisi2
 328 0024 FB68     		ldr	r3, [r7, #12]
 329 0026 1A70     		strb	r2, [r3]
 330 0028 FB68     		ldr	r3, [r7, #12]
 331 002a 0333     		adds	r3, r3, #3
 332 002c FA7A     		ldrb	r2, [r7, #11]
 333 002e 1A70     		strb	r2, [r3]
 334 0030 FB68     		ldr	r3, [r7, #12]
ARM GAS  /var/folders/d2/nstgp4h54kz7g1l847x_b8wc0000gn/T//ccFI0sM2.s 			page 8


 335 0032 5B78     		ldrb	r3, [r3, #1]
 336 0034 FB72     		strb	r3, [r7, #11]
 337 0036 FB68     		ldr	r3, [r7, #12]
 338 0038 0133     		adds	r3, r3, #1
 339 003a FA68     		ldr	r2, [r7, #12]
 340 003c 9278     		ldrb	r2, [r2, #2]	@ zero_extendqisi2
 341 003e 1A70     		strb	r2, [r3]
 342 0040 FB68     		ldr	r3, [r7, #12]
 343 0042 0233     		adds	r3, r3, #2
 344 0044 FA7A     		ldrb	r2, [r7, #11]
 345 0046 1A70     		strb	r2, [r3]
 346              	.L17:
 347 0048 7B68     		ldr	r3, [r7, #4]	@ float
 348 004a 07EE903A 		vmov	s15, r3
 349 004e B0EE670A 		vmov.f32	s0, s15
 350 0052 1437     		adds	r7, r7, #20
 351 0054 BD46     		mov	sp, r7
 352              		@ sp needed
 353 0056 5DF8047B 		ldr	r7, [sp], #4
 354 005a 7047     		bx	lr
 355              	.L20:
 356              		.align	2
 357              	.L19:
 358 005c 00000000 		.word	_i
 359              		.size	befloat, .-befloat
 360              		.section	.text.bedouble,"ax",%progbits
 361              		.align	1
 362              		.syntax unified
 363              		.thumb
 364              		.thumb_func
 365              		.fpu fpv4-sp-d16
 366              		.type	bedouble, %function
 367              	bedouble:
 368              		@ args = 0, pretend = 0, frame = 16
 369              		@ frame_needed = 1, uses_anonymous_args = 0
 370              		@ link register save eliminated.
 371 0000 90B4     		push	{r4, r7}
 372 0002 84B0     		sub	sp, sp, #16
 373 0004 00AF     		add	r7, sp, #0
 374 0006 87ED000B 		vstr.64	d0, [r7]
 375 000a 3B46     		mov	r3, r7
 376 000c FB60     		str	r3, [r7, #12]
 377 000e 204B     		ldr	r3, .L24
 378 0010 1B78     		ldrb	r3, [r3]	@ zero_extendqisi2
 379 0012 002B     		cmp	r3, #0
 380 0014 30D0     		beq	.L22
 381 0016 0023     		movs	r3, #0
 382 0018 FB72     		strb	r3, [r7, #11]
 383 001a FB68     		ldr	r3, [r7, #12]
 384 001c 1B78     		ldrb	r3, [r3]
 385 001e FB72     		strb	r3, [r7, #11]
 386 0020 FB68     		ldr	r3, [r7, #12]
 387 0022 DA79     		ldrb	r2, [r3, #7]	@ zero_extendqisi2
 388 0024 FB68     		ldr	r3, [r7, #12]
 389 0026 1A70     		strb	r2, [r3]
 390 0028 FB68     		ldr	r3, [r7, #12]
 391 002a 0733     		adds	r3, r3, #7
ARM GAS  /var/folders/d2/nstgp4h54kz7g1l847x_b8wc0000gn/T//ccFI0sM2.s 			page 9


 392 002c FA7A     		ldrb	r2, [r7, #11]
 393 002e 1A70     		strb	r2, [r3]
 394 0030 FB68     		ldr	r3, [r7, #12]
 395 0032 5B78     		ldrb	r3, [r3, #1]
 396 0034 FB72     		strb	r3, [r7, #11]
 397 0036 FB68     		ldr	r3, [r7, #12]
 398 0038 0133     		adds	r3, r3, #1
 399 003a FA68     		ldr	r2, [r7, #12]
 400 003c 9279     		ldrb	r2, [r2, #6]	@ zero_extendqisi2
 401 003e 1A70     		strb	r2, [r3]
 402 0040 FB68     		ldr	r3, [r7, #12]
 403 0042 0633     		adds	r3, r3, #6
 404 0044 FA7A     		ldrb	r2, [r7, #11]
 405 0046 1A70     		strb	r2, [r3]
 406 0048 FB68     		ldr	r3, [r7, #12]
 407 004a 9B78     		ldrb	r3, [r3, #2]
 408 004c FB72     		strb	r3, [r7, #11]
 409 004e FB68     		ldr	r3, [r7, #12]
 410 0050 0233     		adds	r3, r3, #2
 411 0052 FA68     		ldr	r2, [r7, #12]
 412 0054 5279     		ldrb	r2, [r2, #5]	@ zero_extendqisi2
 413 0056 1A70     		strb	r2, [r3]
 414 0058 FB68     		ldr	r3, [r7, #12]
 415 005a 0533     		adds	r3, r3, #5
 416 005c FA7A     		ldrb	r2, [r7, #11]
 417 005e 1A70     		strb	r2, [r3]
 418 0060 FB68     		ldr	r3, [r7, #12]
 419 0062 DB78     		ldrb	r3, [r3, #3]
 420 0064 FB72     		strb	r3, [r7, #11]
 421 0066 FB68     		ldr	r3, [r7, #12]
 422 0068 0333     		adds	r3, r3, #3
 423 006a FA68     		ldr	r2, [r7, #12]
 424 006c 1279     		ldrb	r2, [r2, #4]	@ zero_extendqisi2
 425 006e 1A70     		strb	r2, [r3]
 426 0070 FB68     		ldr	r3, [r7, #12]
 427 0072 0433     		adds	r3, r3, #4
 428 0074 FA7A     		ldrb	r2, [r7, #11]
 429 0076 1A70     		strb	r2, [r3]
 430              	.L22:
 431 0078 D7E90034 		ldrd	r3, [r7]
 432 007c 44EC173B 		vmov	d7, r3, r4
 433 0080 B0EE470A 		vmov.f32	s0, s14
 434 0084 F0EE670A 		vmov.f32	s1, s15
 435 0088 1037     		adds	r7, r7, #16
 436 008a BD46     		mov	sp, r7
 437              		@ sp needed
 438 008c 90BC     		pop	{r4, r7}
 439 008e 7047     		bx	lr
 440              	.L25:
 441              		.align	2
 442              	.L24:
 443 0090 00000000 		.word	_i
 444              		.size	bedouble, .-bedouble
 445              		.section	.text.read_byte,"ax",%progbits
 446              		.align	1
 447              		.syntax unified
 448              		.thumb
ARM GAS  /var/folders/d2/nstgp4h54kz7g1l847x_b8wc0000gn/T//ccFI0sM2.s 			page 10


 449              		.thumb_func
 450              		.fpu fpv4-sp-d16
 451              		.type	read_byte, %function
 452              	read_byte:
 453              		@ args = 0, pretend = 0, frame = 8
 454              		@ frame_needed = 1, uses_anonymous_args = 0
 455 0000 80B5     		push	{r7, lr}
 456 0002 82B0     		sub	sp, sp, #8
 457 0004 00AF     		add	r7, sp, #0
 458 0006 7860     		str	r0, [r7, #4]
 459 0008 3960     		str	r1, [r7]
 460 000a 7B68     		ldr	r3, [r7, #4]
 461 000c 9B68     		ldr	r3, [r3, #8]
 462 000e 0122     		movs	r2, #1
 463 0010 3968     		ldr	r1, [r7]
 464 0012 7868     		ldr	r0, [r7, #4]
 465 0014 9847     		blx	r3
 466 0016 0346     		mov	r3, r0
 467 0018 1846     		mov	r0, r3
 468 001a 0837     		adds	r7, r7, #8
 469 001c BD46     		mov	sp, r7
 470              		@ sp needed
 471 001e 80BD     		pop	{r7, pc}
 472              		.size	read_byte, .-read_byte
 473              		.section	.text.write_byte,"ax",%progbits
 474              		.align	1
 475              		.syntax unified
 476              		.thumb
 477              		.thumb_func
 478              		.fpu fpv4-sp-d16
 479              		.type	write_byte, %function
 480              	write_byte:
 481              		@ args = 0, pretend = 0, frame = 8
 482              		@ frame_needed = 1, uses_anonymous_args = 0
 483 0000 80B5     		push	{r7, lr}
 484 0002 82B0     		sub	sp, sp, #8
 485 0004 00AF     		add	r7, sp, #0
 486 0006 7860     		str	r0, [r7, #4]
 487 0008 0B46     		mov	r3, r1
 488 000a FB70     		strb	r3, [r7, #3]
 489 000c 7B68     		ldr	r3, [r7, #4]
 490 000e DB68     		ldr	r3, [r3, #12]
 491 0010 F91C     		adds	r1, r7, #3
 492 0012 0122     		movs	r2, #1
 493 0014 7868     		ldr	r0, [r7, #4]
 494 0016 9847     		blx	r3
 495 0018 0346     		mov	r3, r0
 496 001a 012B     		cmp	r3, #1
 497 001c 0CBF     		ite	eq
 498 001e 0123     		moveq	r3, #1
 499 0020 0023     		movne	r3, #0
 500 0022 DBB2     		uxtb	r3, r3
 501 0024 1846     		mov	r0, r3
 502 0026 0837     		adds	r7, r7, #8
 503 0028 BD46     		mov	sp, r7
 504              		@ sp needed
 505 002a 80BD     		pop	{r7, pc}
ARM GAS  /var/folders/d2/nstgp4h54kz7g1l847x_b8wc0000gn/T//ccFI0sM2.s 			page 11


 506              		.size	write_byte, .-write_byte
 507              		.section	.text.read_type_marker,"ax",%progbits
 508              		.align	1
 509              		.syntax unified
 510              		.thumb
 511              		.thumb_func
 512              		.fpu fpv4-sp-d16
 513              		.type	read_type_marker, %function
 514              	read_type_marker:
 515              		@ args = 0, pretend = 0, frame = 8
 516              		@ frame_needed = 1, uses_anonymous_args = 0
 517 0000 80B5     		push	{r7, lr}
 518 0002 82B0     		sub	sp, sp, #8
 519 0004 00AF     		add	r7, sp, #0
 520 0006 7860     		str	r0, [r7, #4]
 521 0008 3960     		str	r1, [r7]
 522 000a 3968     		ldr	r1, [r7]
 523 000c 7868     		ldr	r0, [r7, #4]
 524 000e FFF7FEFF 		bl	read_byte
 525 0012 0346     		mov	r3, r0
 526 0014 002B     		cmp	r3, #0
 527 0016 01D0     		beq	.L31
 528 0018 0123     		movs	r3, #1
 529 001a 03E0     		b	.L32
 530              	.L31:
 531 001c 7B68     		ldr	r3, [r7, #4]
 532 001e 0722     		movs	r2, #7
 533 0020 1A70     		strb	r2, [r3]
 534 0022 0023     		movs	r3, #0
 535              	.L32:
 536 0024 1846     		mov	r0, r3
 537 0026 0837     		adds	r7, r7, #8
 538 0028 BD46     		mov	sp, r7
 539              		@ sp needed
 540 002a 80BD     		pop	{r7, pc}
 541              		.size	read_type_marker, .-read_type_marker
 542              		.section	.text.write_type_marker,"ax",%progbits
 543              		.align	1
 544              		.syntax unified
 545              		.thumb
 546              		.thumb_func
 547              		.fpu fpv4-sp-d16
 548              		.type	write_type_marker, %function
 549              	write_type_marker:
 550              		@ args = 0, pretend = 0, frame = 8
 551              		@ frame_needed = 1, uses_anonymous_args = 0
 552 0000 80B5     		push	{r7, lr}
 553 0002 82B0     		sub	sp, sp, #8
 554 0004 00AF     		add	r7, sp, #0
 555 0006 7860     		str	r0, [r7, #4]
 556 0008 0B46     		mov	r3, r1
 557 000a FB70     		strb	r3, [r7, #3]
 558 000c FB78     		ldrb	r3, [r7, #3]	@ zero_extendqisi2
 559 000e 1946     		mov	r1, r3
 560 0010 7868     		ldr	r0, [r7, #4]
 561 0012 FFF7FEFF 		bl	write_byte
 562 0016 0346     		mov	r3, r0
ARM GAS  /var/folders/d2/nstgp4h54kz7g1l847x_b8wc0000gn/T//ccFI0sM2.s 			page 12


 563 0018 002B     		cmp	r3, #0
 564 001a 01D0     		beq	.L34
 565 001c 0123     		movs	r3, #1
 566 001e 03E0     		b	.L35
 567              	.L34:
 568 0020 7B68     		ldr	r3, [r7, #4]
 569 0022 0822     		movs	r2, #8
 570 0024 1A70     		strb	r2, [r3]
 571 0026 0023     		movs	r3, #0
 572              	.L35:
 573 0028 1846     		mov	r0, r3
 574 002a 0837     		adds	r7, r7, #8
 575 002c BD46     		mov	sp, r7
 576              		@ sp needed
 577 002e 80BD     		pop	{r7, pc}
 578              		.size	write_type_marker, .-write_type_marker
 579              		.section	.text.write_fixed_value,"ax",%progbits
 580              		.align	1
 581              		.syntax unified
 582              		.thumb
 583              		.thumb_func
 584              		.fpu fpv4-sp-d16
 585              		.type	write_fixed_value, %function
 586              	write_fixed_value:
 587              		@ args = 0, pretend = 0, frame = 8
 588              		@ frame_needed = 1, uses_anonymous_args = 0
 589 0000 80B5     		push	{r7, lr}
 590 0002 82B0     		sub	sp, sp, #8
 591 0004 00AF     		add	r7, sp, #0
 592 0006 7860     		str	r0, [r7, #4]
 593 0008 0B46     		mov	r3, r1
 594 000a FB70     		strb	r3, [r7, #3]
 595 000c FB78     		ldrb	r3, [r7, #3]	@ zero_extendqisi2
 596 000e 1946     		mov	r1, r3
 597 0010 7868     		ldr	r0, [r7, #4]
 598 0012 FFF7FEFF 		bl	write_byte
 599 0016 0346     		mov	r3, r0
 600 0018 002B     		cmp	r3, #0
 601 001a 01D0     		beq	.L37
 602 001c 0123     		movs	r3, #1
 603 001e 03E0     		b	.L38
 604              	.L37:
 605 0020 7B68     		ldr	r3, [r7, #4]
 606 0022 0622     		movs	r2, #6
 607 0024 1A70     		strb	r2, [r3]
 608 0026 0023     		movs	r3, #0
 609              	.L38:
 610 0028 1846     		mov	r0, r3
 611 002a 0837     		adds	r7, r7, #8
 612 002c BD46     		mov	sp, r7
 613              		@ sp needed
 614 002e 80BD     		pop	{r7, pc}
 615              		.size	write_fixed_value, .-write_fixed_value
 616              		.section	.text.cmp_init,"ax",%progbits
 617              		.align	1
 618              		.global	cmp_init
 619              		.syntax unified
ARM GAS  /var/folders/d2/nstgp4h54kz7g1l847x_b8wc0000gn/T//ccFI0sM2.s 			page 13


 620              		.thumb
 621              		.thumb_func
 622              		.fpu fpv4-sp-d16
 623              		.type	cmp_init, %function
 624              	cmp_init:
 625              		@ args = 0, pretend = 0, frame = 16
 626              		@ frame_needed = 1, uses_anonymous_args = 0
 627              		@ link register save eliminated.
 628 0000 80B4     		push	{r7}
 629 0002 85B0     		sub	sp, sp, #20
 630 0004 00AF     		add	r7, sp, #0
 631 0006 F860     		str	r0, [r7, #12]
 632 0008 B960     		str	r1, [r7, #8]
 633 000a 7A60     		str	r2, [r7, #4]
 634 000c 3B60     		str	r3, [r7]
 635 000e FB68     		ldr	r3, [r7, #12]
 636 0010 0022     		movs	r2, #0
 637 0012 1A70     		strb	r2, [r3]
 638 0014 FB68     		ldr	r3, [r7, #12]
 639 0016 BA68     		ldr	r2, [r7, #8]
 640 0018 5A60     		str	r2, [r3, #4]
 641 001a FB68     		ldr	r3, [r7, #12]
 642 001c 7A68     		ldr	r2, [r7, #4]
 643 001e 9A60     		str	r2, [r3, #8]
 644 0020 FB68     		ldr	r3, [r7, #12]
 645 0022 3A68     		ldr	r2, [r7]
 646 0024 DA60     		str	r2, [r3, #12]
 647 0026 00BF     		nop
 648 0028 1437     		adds	r7, r7, #20
 649 002a BD46     		mov	sp, r7
 650              		@ sp needed
 651 002c 5DF8047B 		ldr	r7, [sp], #4
 652 0030 7047     		bx	lr
 653              		.size	cmp_init, .-cmp_init
 654              		.section	.text.cmp_version,"ax",%progbits
 655              		.align	1
 656              		.global	cmp_version
 657              		.syntax unified
 658              		.thumb
 659              		.thumb_func
 660              		.fpu fpv4-sp-d16
 661              		.type	cmp_version, %function
 662              	cmp_version:
 663              		@ args = 0, pretend = 0, frame = 0
 664              		@ frame_needed = 1, uses_anonymous_args = 0
 665              		@ link register save eliminated.
 666 0000 80B4     		push	{r7}
 667 0002 00AF     		add	r7, sp, #0
 668 0004 0A23     		movs	r3, #10
 669 0006 1846     		mov	r0, r3
 670 0008 BD46     		mov	sp, r7
 671              		@ sp needed
 672 000a 5DF8047B 		ldr	r7, [sp], #4
 673 000e 7047     		bx	lr
 674              		.size	cmp_version, .-cmp_version
 675              		.section	.text.cmp_mp_version,"ax",%progbits
 676              		.align	1
ARM GAS  /var/folders/d2/nstgp4h54kz7g1l847x_b8wc0000gn/T//ccFI0sM2.s 			page 14


 677              		.global	cmp_mp_version
 678              		.syntax unified
 679              		.thumb
 680              		.thumb_func
 681              		.fpu fpv4-sp-d16
 682              		.type	cmp_mp_version, %function
 683              	cmp_mp_version:
 684              		@ args = 0, pretend = 0, frame = 0
 685              		@ frame_needed = 1, uses_anonymous_args = 0
 686              		@ link register save eliminated.
 687 0000 80B4     		push	{r7}
 688 0002 00AF     		add	r7, sp, #0
 689 0004 0523     		movs	r3, #5
 690 0006 1846     		mov	r0, r3
 691 0008 BD46     		mov	sp, r7
 692              		@ sp needed
 693 000a 5DF8047B 		ldr	r7, [sp], #4
 694 000e 7047     		bx	lr
 695              		.size	cmp_mp_version, .-cmp_mp_version
 696              		.section	.rodata
 697 01fa 0000     		.align	2
 698              	.LC17:
 699 01fc 00       		.ascii	"\000"
 700              		.section	.text.cmp_strerror,"ax",%progbits
 701              		.align	1
 702              		.global	cmp_strerror
 703              		.syntax unified
 704              		.thumb
 705              		.thumb_func
 706              		.fpu fpv4-sp-d16
 707              		.type	cmp_strerror, %function
 708              	cmp_strerror:
 709              		@ args = 0, pretend = 0, frame = 8
 710              		@ frame_needed = 1, uses_anonymous_args = 0
 711              		@ link register save eliminated.
 712 0000 80B4     		push	{r7}
 713 0002 83B0     		sub	sp, sp, #12
 714 0004 00AF     		add	r7, sp, #0
 715 0006 7860     		str	r0, [r7, #4]
 716 0008 7B68     		ldr	r3, [r7, #4]
 717 000a 1B78     		ldrb	r3, [r3]	@ zero_extendqisi2
 718 000c 002B     		cmp	r3, #0
 719 000e 0AD0     		beq	.L45
 720 0010 7B68     		ldr	r3, [r7, #4]
 721 0012 1B78     		ldrb	r3, [r3]	@ zero_extendqisi2
 722 0014 0F2B     		cmp	r3, #15
 723 0016 06D8     		bhi	.L45
 724 0018 7B68     		ldr	r3, [r7, #4]
 725 001a 1B78     		ldrb	r3, [r3]	@ zero_extendqisi2
 726 001c 1A46     		mov	r2, r3
 727 001e 054B     		ldr	r3, .L47
 728 0020 53F82230 		ldr	r3, [r3, r2, lsl #2]
 729 0024 00E0     		b	.L46
 730              	.L45:
 731 0026 044B     		ldr	r3, .L47+4
 732              	.L46:
 733 0028 1846     		mov	r0, r3
ARM GAS  /var/folders/d2/nstgp4h54kz7g1l847x_b8wc0000gn/T//ccFI0sM2.s 			page 15


 734 002a 0C37     		adds	r7, r7, #12
 735 002c BD46     		mov	sp, r7
 736              		@ sp needed
 737 002e 5DF8047B 		ldr	r7, [sp], #4
 738 0032 7047     		bx	lr
 739              	.L48:
 740              		.align	2
 741              	.L47:
 742 0034 00000000 		.word	cmp_error_messages
 743 0038 FC010000 		.word	.LC17
 744              		.size	cmp_strerror, .-cmp_strerror
 745              		.section	.text.cmp_write_pfix,"ax",%progbits
 746              		.align	1
 747              		.global	cmp_write_pfix
 748              		.syntax unified
 749              		.thumb
 750              		.thumb_func
 751              		.fpu fpv4-sp-d16
 752              		.type	cmp_write_pfix, %function
 753              	cmp_write_pfix:
 754              		@ args = 0, pretend = 0, frame = 8
 755              		@ frame_needed = 1, uses_anonymous_args = 0
 756 0000 80B5     		push	{r7, lr}
 757 0002 82B0     		sub	sp, sp, #8
 758 0004 00AF     		add	r7, sp, #0
 759 0006 7860     		str	r0, [r7, #4]
 760 0008 0B46     		mov	r3, r1
 761 000a FB70     		strb	r3, [r7, #3]
 762 000c 97F90330 		ldrsb	r3, [r7, #3]
 763 0010 002B     		cmp	r3, #0
 764 0012 06DB     		blt	.L50
 765 0014 FB78     		ldrb	r3, [r7, #3]	@ zero_extendqisi2
 766 0016 1946     		mov	r1, r3
 767 0018 7868     		ldr	r0, [r7, #4]
 768 001a FFF7FEFF 		bl	write_fixed_value
 769 001e 0346     		mov	r3, r0
 770 0020 03E0     		b	.L51
 771              	.L50:
 772 0022 7B68     		ldr	r3, [r7, #4]
 773 0024 0522     		movs	r2, #5
 774 0026 1A70     		strb	r2, [r3]
 775 0028 0023     		movs	r3, #0
 776              	.L51:
 777 002a 1846     		mov	r0, r3
 778 002c 0837     		adds	r7, r7, #8
 779 002e BD46     		mov	sp, r7
 780              		@ sp needed
 781 0030 80BD     		pop	{r7, pc}
 782              		.size	cmp_write_pfix, .-cmp_write_pfix
 783              		.section	.text.cmp_write_nfix,"ax",%progbits
 784              		.align	1
 785              		.global	cmp_write_nfix
 786              		.syntax unified
 787              		.thumb
 788              		.thumb_func
 789              		.fpu fpv4-sp-d16
 790              		.type	cmp_write_nfix, %function
ARM GAS  /var/folders/d2/nstgp4h54kz7g1l847x_b8wc0000gn/T//ccFI0sM2.s 			page 16


 791              	cmp_write_nfix:
 792              		@ args = 0, pretend = 0, frame = 8
 793              		@ frame_needed = 1, uses_anonymous_args = 0
 794 0000 80B5     		push	{r7, lr}
 795 0002 82B0     		sub	sp, sp, #8
 796 0004 00AF     		add	r7, sp, #0
 797 0006 7860     		str	r0, [r7, #4]
 798 0008 0B46     		mov	r3, r1
 799 000a FB70     		strb	r3, [r7, #3]
 800 000c 97F90330 		ldrsb	r3, [r7, #3]
 801 0010 13F1200F 		cmn	r3, #32
 802 0014 0ADB     		blt	.L53
 803 0016 97F90330 		ldrsb	r3, [r7, #3]
 804 001a 002B     		cmp	r3, #0
 805 001c 06DA     		bge	.L53
 806 001e FB78     		ldrb	r3, [r7, #3]	@ zero_extendqisi2
 807 0020 1946     		mov	r1, r3
 808 0022 7868     		ldr	r0, [r7, #4]
 809 0024 FFF7FEFF 		bl	write_fixed_value
 810 0028 0346     		mov	r3, r0
 811 002a 03E0     		b	.L54
 812              	.L53:
 813 002c 7B68     		ldr	r3, [r7, #4]
 814 002e 0522     		movs	r2, #5
 815 0030 1A70     		strb	r2, [r3]
 816 0032 0023     		movs	r3, #0
 817              	.L54:
 818 0034 1846     		mov	r0, r3
 819 0036 0837     		adds	r7, r7, #8
 820 0038 BD46     		mov	sp, r7
 821              		@ sp needed
 822 003a 80BD     		pop	{r7, pc}
 823              		.size	cmp_write_nfix, .-cmp_write_nfix
 824              		.section	.text.cmp_write_sfix,"ax",%progbits
 825              		.align	1
 826              		.global	cmp_write_sfix
 827              		.syntax unified
 828              		.thumb
 829              		.thumb_func
 830              		.fpu fpv4-sp-d16
 831              		.type	cmp_write_sfix, %function
 832              	cmp_write_sfix:
 833              		@ args = 0, pretend = 0, frame = 8
 834              		@ frame_needed = 1, uses_anonymous_args = 0
 835 0000 80B5     		push	{r7, lr}
 836 0002 82B0     		sub	sp, sp, #8
 837 0004 00AF     		add	r7, sp, #0
 838 0006 7860     		str	r0, [r7, #4]
 839 0008 0B46     		mov	r3, r1
 840 000a FB70     		strb	r3, [r7, #3]
 841 000c 97F90330 		ldrsb	r3, [r7, #3]
 842 0010 002B     		cmp	r3, #0
 843 0012 06DB     		blt	.L56
 844 0014 FB78     		ldrb	r3, [r7, #3]	@ zero_extendqisi2
 845 0016 1946     		mov	r1, r3
 846 0018 7868     		ldr	r0, [r7, #4]
 847 001a FFF7FEFF 		bl	cmp_write_pfix
ARM GAS  /var/folders/d2/nstgp4h54kz7g1l847x_b8wc0000gn/T//ccFI0sM2.s 			page 17


 848 001e 0346     		mov	r3, r0
 849 0020 14E0     		b	.L57
 850              	.L56:
 851 0022 97F90330 		ldrsb	r3, [r7, #3]
 852 0026 13F1200F 		cmn	r3, #32
 853 002a 0BDB     		blt	.L58
 854 002c 97F90330 		ldrsb	r3, [r7, #3]
 855 0030 002B     		cmp	r3, #0
 856 0032 07DA     		bge	.L58
 857 0034 97F90330 		ldrsb	r3, [r7, #3]
 858 0038 1946     		mov	r1, r3
 859 003a 7868     		ldr	r0, [r7, #4]
 860 003c FFF7FEFF 		bl	cmp_write_nfix
 861 0040 0346     		mov	r3, r0
 862 0042 03E0     		b	.L57
 863              	.L58:
 864 0044 7B68     		ldr	r3, [r7, #4]
 865 0046 0522     		movs	r2, #5
 866 0048 1A70     		strb	r2, [r3]
 867 004a 0023     		movs	r3, #0
 868              	.L57:
 869 004c 1846     		mov	r0, r3
 870 004e 0837     		adds	r7, r7, #8
 871 0050 BD46     		mov	sp, r7
 872              		@ sp needed
 873 0052 80BD     		pop	{r7, pc}
 874              		.size	cmp_write_sfix, .-cmp_write_sfix
 875              		.section	.text.cmp_write_s8,"ax",%progbits
 876              		.align	1
 877              		.global	cmp_write_s8
 878              		.syntax unified
 879              		.thumb
 880              		.thumb_func
 881              		.fpu fpv4-sp-d16
 882              		.type	cmp_write_s8, %function
 883              	cmp_write_s8:
 884              		@ args = 0, pretend = 0, frame = 8
 885              		@ frame_needed = 1, uses_anonymous_args = 0
 886 0000 80B5     		push	{r7, lr}
 887 0002 82B0     		sub	sp, sp, #8
 888 0004 00AF     		add	r7, sp, #0
 889 0006 7860     		str	r0, [r7, #4]
 890 0008 0B46     		mov	r3, r1
 891 000a FB70     		strb	r3, [r7, #3]
 892 000c D021     		movs	r1, #208
 893 000e 7868     		ldr	r0, [r7, #4]
 894 0010 FFF7FEFF 		bl	write_type_marker
 895 0014 0346     		mov	r3, r0
 896 0016 83F00103 		eor	r3, r3, #1
 897 001a DBB2     		uxtb	r3, r3
 898 001c 002B     		cmp	r3, #0
 899 001e 01D0     		beq	.L60
 900 0020 0023     		movs	r3, #0
 901 0022 0BE0     		b	.L61
 902              	.L60:
 903 0024 7B68     		ldr	r3, [r7, #4]
 904 0026 DB68     		ldr	r3, [r3, #12]
ARM GAS  /var/folders/d2/nstgp4h54kz7g1l847x_b8wc0000gn/T//ccFI0sM2.s 			page 18


 905 0028 F91C     		adds	r1, r7, #3
 906 002a 0122     		movs	r2, #1
 907 002c 7868     		ldr	r0, [r7, #4]
 908 002e 9847     		blx	r3
 909 0030 0346     		mov	r3, r0
 910 0032 002B     		cmp	r3, #0
 911 0034 14BF     		ite	ne
 912 0036 0123     		movne	r3, #1
 913 0038 0023     		moveq	r3, #0
 914 003a DBB2     		uxtb	r3, r3
 915              	.L61:
 916 003c 1846     		mov	r0, r3
 917 003e 0837     		adds	r7, r7, #8
 918 0040 BD46     		mov	sp, r7
 919              		@ sp needed
 920 0042 80BD     		pop	{r7, pc}
 921              		.size	cmp_write_s8, .-cmp_write_s8
 922              		.section	.text.cmp_write_s16,"ax",%progbits
 923              		.align	1
 924              		.global	cmp_write_s16
 925              		.syntax unified
 926              		.thumb
 927              		.thumb_func
 928              		.fpu fpv4-sp-d16
 929              		.type	cmp_write_s16, %function
 930              	cmp_write_s16:
 931              		@ args = 0, pretend = 0, frame = 8
 932              		@ frame_needed = 1, uses_anonymous_args = 0
 933 0000 80B5     		push	{r7, lr}
 934 0002 82B0     		sub	sp, sp, #8
 935 0004 00AF     		add	r7, sp, #0
 936 0006 7860     		str	r0, [r7, #4]
 937 0008 0B46     		mov	r3, r1
 938 000a 7B80     		strh	r3, [r7, #2]	@ movhi
 939 000c D121     		movs	r1, #209
 940 000e 7868     		ldr	r0, [r7, #4]
 941 0010 FFF7FEFF 		bl	write_type_marker
 942 0014 0346     		mov	r3, r0
 943 0016 83F00103 		eor	r3, r3, #1
 944 001a DBB2     		uxtb	r3, r3
 945 001c 002B     		cmp	r3, #0
 946 001e 01D0     		beq	.L63
 947 0020 0023     		movs	r3, #0
 948 0022 14E0     		b	.L64
 949              	.L63:
 950 0024 B7F90230 		ldrsh	r3, [r7, #2]
 951 0028 9BB2     		uxth	r3, r3
 952 002a 1846     		mov	r0, r3
 953 002c FFF7FEFF 		bl	be16
 954 0030 0346     		mov	r3, r0
 955 0032 1BB2     		sxth	r3, r3
 956 0034 7B80     		strh	r3, [r7, #2]	@ movhi
 957 0036 7B68     		ldr	r3, [r7, #4]
 958 0038 DB68     		ldr	r3, [r3, #12]
 959 003a B91C     		adds	r1, r7, #2
 960 003c 0222     		movs	r2, #2
 961 003e 7868     		ldr	r0, [r7, #4]
ARM GAS  /var/folders/d2/nstgp4h54kz7g1l847x_b8wc0000gn/T//ccFI0sM2.s 			page 19


 962 0040 9847     		blx	r3
 963 0042 0346     		mov	r3, r0
 964 0044 002B     		cmp	r3, #0
 965 0046 14BF     		ite	ne
 966 0048 0123     		movne	r3, #1
 967 004a 0023     		moveq	r3, #0
 968 004c DBB2     		uxtb	r3, r3
 969              	.L64:
 970 004e 1846     		mov	r0, r3
 971 0050 0837     		adds	r7, r7, #8
 972 0052 BD46     		mov	sp, r7
 973              		@ sp needed
 974 0054 80BD     		pop	{r7, pc}
 975              		.size	cmp_write_s16, .-cmp_write_s16
 976              		.section	.text.cmp_write_s32,"ax",%progbits
 977              		.align	1
 978              		.global	cmp_write_s32
 979              		.syntax unified
 980              		.thumb
 981              		.thumb_func
 982              		.fpu fpv4-sp-d16
 983              		.type	cmp_write_s32, %function
 984              	cmp_write_s32:
 985              		@ args = 0, pretend = 0, frame = 8
 986              		@ frame_needed = 1, uses_anonymous_args = 0
 987 0000 80B5     		push	{r7, lr}
 988 0002 82B0     		sub	sp, sp, #8
 989 0004 00AF     		add	r7, sp, #0
 990 0006 7860     		str	r0, [r7, #4]
 991 0008 3960     		str	r1, [r7]
 992 000a D221     		movs	r1, #210
 993 000c 7868     		ldr	r0, [r7, #4]
 994 000e FFF7FEFF 		bl	write_type_marker
 995 0012 0346     		mov	r3, r0
 996 0014 83F00103 		eor	r3, r3, #1
 997 0018 DBB2     		uxtb	r3, r3
 998 001a 002B     		cmp	r3, #0
 999 001c 01D0     		beq	.L66
 1000 001e 0023     		movs	r3, #0
 1001 0020 11E0     		b	.L67
 1002              	.L66:
 1003 0022 3B68     		ldr	r3, [r7]
 1004 0024 1846     		mov	r0, r3
 1005 0026 FFF7FEFF 		bl	be32
 1006 002a 0346     		mov	r3, r0
 1007 002c 3B60     		str	r3, [r7]
 1008 002e 7B68     		ldr	r3, [r7, #4]
 1009 0030 DB68     		ldr	r3, [r3, #12]
 1010 0032 3946     		mov	r1, r7
 1011 0034 0422     		movs	r2, #4
 1012 0036 7868     		ldr	r0, [r7, #4]
 1013 0038 9847     		blx	r3
 1014 003a 0346     		mov	r3, r0
 1015 003c 002B     		cmp	r3, #0
 1016 003e 14BF     		ite	ne
 1017 0040 0123     		movne	r3, #1
 1018 0042 0023     		moveq	r3, #0
ARM GAS  /var/folders/d2/nstgp4h54kz7g1l847x_b8wc0000gn/T//ccFI0sM2.s 			page 20


 1019 0044 DBB2     		uxtb	r3, r3
 1020              	.L67:
 1021 0046 1846     		mov	r0, r3
 1022 0048 0837     		adds	r7, r7, #8
 1023 004a BD46     		mov	sp, r7
 1024              		@ sp needed
 1025 004c 80BD     		pop	{r7, pc}
 1026              		.size	cmp_write_s32, .-cmp_write_s32
 1027              		.section	.text.cmp_write_s64,"ax",%progbits
 1028              		.align	1
 1029              		.global	cmp_write_s64
 1030              		.syntax unified
 1031              		.thumb
 1032              		.thumb_func
 1033              		.fpu fpv4-sp-d16
 1034              		.type	cmp_write_s64, %function
 1035              	cmp_write_s64:
 1036              		@ args = 0, pretend = 0, frame = 16
 1037              		@ frame_needed = 1, uses_anonymous_args = 0
 1038 0000 90B5     		push	{r4, r7, lr}
 1039 0002 85B0     		sub	sp, sp, #20
 1040 0004 00AF     		add	r7, sp, #0
 1041 0006 F860     		str	r0, [r7, #12]
 1042 0008 C7E90023 		strd	r2, [r7]
 1043 000c D321     		movs	r1, #211
 1044 000e F868     		ldr	r0, [r7, #12]
 1045 0010 FFF7FEFF 		bl	write_type_marker
 1046 0014 0346     		mov	r3, r0
 1047 0016 83F00103 		eor	r3, r3, #1
 1048 001a DBB2     		uxtb	r3, r3
 1049 001c 002B     		cmp	r3, #0
 1050 001e 01D0     		beq	.L69
 1051 0020 0023     		movs	r3, #0
 1052 0022 15E0     		b	.L70
 1053              	.L69:
 1054 0024 D7E90034 		ldrd	r3, [r7]
 1055 0028 1846     		mov	r0, r3
 1056 002a 2146     		mov	r1, r4
 1057 002c FFF7FEFF 		bl	be64
 1058 0030 0346     		mov	r3, r0
 1059 0032 0C46     		mov	r4, r1
 1060 0034 C7E90034 		strd	r3, [r7]
 1061 0038 FB68     		ldr	r3, [r7, #12]
 1062 003a DB68     		ldr	r3, [r3, #12]
 1063 003c 3946     		mov	r1, r7
 1064 003e 0822     		movs	r2, #8
 1065 0040 F868     		ldr	r0, [r7, #12]
 1066 0042 9847     		blx	r3
 1067 0044 0346     		mov	r3, r0
 1068 0046 002B     		cmp	r3, #0
 1069 0048 14BF     		ite	ne
 1070 004a 0123     		movne	r3, #1
 1071 004c 0023     		moveq	r3, #0
 1072 004e DBB2     		uxtb	r3, r3
 1073              	.L70:
 1074 0050 1846     		mov	r0, r3
 1075 0052 1437     		adds	r7, r7, #20
ARM GAS  /var/folders/d2/nstgp4h54kz7g1l847x_b8wc0000gn/T//ccFI0sM2.s 			page 21


 1076 0054 BD46     		mov	sp, r7
 1077              		@ sp needed
 1078 0056 90BD     		pop	{r4, r7, pc}
 1079              		.size	cmp_write_s64, .-cmp_write_s64
 1080              		.section	.text.cmp_write_sint,"ax",%progbits
 1081              		.align	1
 1082              		.global	cmp_write_sint
 1083              		.syntax unified
 1084              		.thumb
 1085              		.thumb_func
 1086              		.fpu fpv4-sp-d16
 1087              		.type	cmp_write_sint, %function
 1088              	cmp_write_sint:
 1089              		@ args = 0, pretend = 0, frame = 16
 1090              		@ frame_needed = 1, uses_anonymous_args = 0
 1091 0000 90B5     		push	{r4, r7, lr}
 1092 0002 85B0     		sub	sp, sp, #20
 1093 0004 00AF     		add	r7, sp, #0
 1094 0006 F860     		str	r0, [r7, #12]
 1095 0008 C7E90023 		strd	r2, [r7]
 1096 000c D7E90034 		ldrd	r3, [r7]
 1097 0010 002B     		cmp	r3, #0
 1098 0012 74F10003 		sbcs	r3, r4, #0
 1099 0016 08DB     		blt	.L72
 1100 0018 D7E90034 		ldrd	r3, [r7]
 1101 001c 1A46     		mov	r2, r3
 1102 001e 2346     		mov	r3, r4
 1103 0020 F868     		ldr	r0, [r7, #12]
 1104 0022 FFF7FEFF 		bl	cmp_write_uint
 1105 0026 0346     		mov	r3, r0
 1106 0028 48E0     		b	.L73
 1107              	.L72:
 1108 002a D7E90034 		ldrd	r3, [r7]
 1109 002e 6FF01F01 		mvn	r1, #31
 1110 0032 4FF0FF32 		mov	r2, #-1
 1111 0036 8B42     		cmp	r3, r1
 1112 0038 74EB0203 		sbcs	r3, r4, r2
 1113 003c 07DB     		blt	.L74
 1114 003e 97F90030 		ldrsb	r3, [r7]
 1115 0042 1946     		mov	r1, r3
 1116 0044 F868     		ldr	r0, [r7, #12]
 1117 0046 FFF7FEFF 		bl	cmp_write_nfix
 1118 004a 0346     		mov	r3, r0
 1119 004c 36E0     		b	.L73
 1120              	.L74:
 1121 004e D7E90034 		ldrd	r3, [r7]
 1122 0052 6FF07F01 		mvn	r1, #127
 1123 0056 4FF0FF32 		mov	r2, #-1
 1124 005a 8B42     		cmp	r3, r1
 1125 005c 74EB0203 		sbcs	r3, r4, r2
 1126 0060 07DB     		blt	.L75
 1127 0062 97F90030 		ldrsb	r3, [r7]
 1128 0066 1946     		mov	r1, r3
 1129 0068 F868     		ldr	r0, [r7, #12]
 1130 006a FFF7FEFF 		bl	cmp_write_s8
 1131 006e 0346     		mov	r3, r0
 1132 0070 24E0     		b	.L73
ARM GAS  /var/folders/d2/nstgp4h54kz7g1l847x_b8wc0000gn/T//ccFI0sM2.s 			page 22


 1133              	.L75:
 1134 0072 D7E90034 		ldrd	r3, [r7]
 1135 0076 1349     		ldr	r1, .L78
 1136 0078 4FF0FF32 		mov	r2, #-1
 1137 007c 8B42     		cmp	r3, r1
 1138 007e 74EB0203 		sbcs	r3, r4, r2
 1139 0082 07DB     		blt	.L76
 1140 0084 B7F90030 		ldrsh	r3, [r7]
 1141 0088 1946     		mov	r1, r3
 1142 008a F868     		ldr	r0, [r7, #12]
 1143 008c FFF7FEFF 		bl	cmp_write_s16
 1144 0090 0346     		mov	r3, r0
 1145 0092 13E0     		b	.L73
 1146              	.L76:
 1147 0094 D7E90034 		ldrd	r3, [r7]
 1148 0098 B3F1004F 		cmp	r3, #-2147483648
 1149 009c 74F1FF33 		sbcs	r3, r4, #-1
 1150 00a0 06DB     		blt	.L77
 1151 00a2 3B68     		ldr	r3, [r7]
 1152 00a4 1946     		mov	r1, r3
 1153 00a6 F868     		ldr	r0, [r7, #12]
 1154 00a8 FFF7FEFF 		bl	cmp_write_s32
 1155 00ac 0346     		mov	r3, r0
 1156 00ae 05E0     		b	.L73
 1157              	.L77:
 1158 00b0 D7E90023 		ldrd	r2, [r7]
 1159 00b4 F868     		ldr	r0, [r7, #12]
 1160 00b6 FFF7FEFF 		bl	cmp_write_s64
 1161 00ba 0346     		mov	r3, r0
 1162              	.L73:
 1163 00bc 1846     		mov	r0, r3
 1164 00be 1437     		adds	r7, r7, #20
 1165 00c0 BD46     		mov	sp, r7
 1166              		@ sp needed
 1167 00c2 90BD     		pop	{r4, r7, pc}
 1168              	.L79:
 1169              		.align	2
 1170              	.L78:
 1171 00c4 0080FFFF 		.word	-32768
 1172              		.size	cmp_write_sint, .-cmp_write_sint
 1173              		.section	.text.cmp_write_ufix,"ax",%progbits
 1174              		.align	1
 1175              		.global	cmp_write_ufix
 1176              		.syntax unified
 1177              		.thumb
 1178              		.thumb_func
 1179              		.fpu fpv4-sp-d16
 1180              		.type	cmp_write_ufix, %function
 1181              	cmp_write_ufix:
 1182              		@ args = 0, pretend = 0, frame = 8
 1183              		@ frame_needed = 1, uses_anonymous_args = 0
 1184 0000 80B5     		push	{r7, lr}
 1185 0002 82B0     		sub	sp, sp, #8
 1186 0004 00AF     		add	r7, sp, #0
 1187 0006 7860     		str	r0, [r7, #4]
 1188 0008 0B46     		mov	r3, r1
 1189 000a FB70     		strb	r3, [r7, #3]
ARM GAS  /var/folders/d2/nstgp4h54kz7g1l847x_b8wc0000gn/T//ccFI0sM2.s 			page 23


 1190 000c FB78     		ldrb	r3, [r7, #3]	@ zero_extendqisi2
 1191 000e 1946     		mov	r1, r3
 1192 0010 7868     		ldr	r0, [r7, #4]
 1193 0012 FFF7FEFF 		bl	cmp_write_pfix
 1194 0016 0346     		mov	r3, r0
 1195 0018 1846     		mov	r0, r3
 1196 001a 0837     		adds	r7, r7, #8
 1197 001c BD46     		mov	sp, r7
 1198              		@ sp needed
 1199 001e 80BD     		pop	{r7, pc}
 1200              		.size	cmp_write_ufix, .-cmp_write_ufix
 1201              		.section	.text.cmp_write_u8,"ax",%progbits
 1202              		.align	1
 1203              		.global	cmp_write_u8
 1204              		.syntax unified
 1205              		.thumb
 1206              		.thumb_func
 1207              		.fpu fpv4-sp-d16
 1208              		.type	cmp_write_u8, %function
 1209              	cmp_write_u8:
 1210              		@ args = 0, pretend = 0, frame = 8
 1211              		@ frame_needed = 1, uses_anonymous_args = 0
 1212 0000 80B5     		push	{r7, lr}
 1213 0002 82B0     		sub	sp, sp, #8
 1214 0004 00AF     		add	r7, sp, #0
 1215 0006 7860     		str	r0, [r7, #4]
 1216 0008 0B46     		mov	r3, r1
 1217 000a FB70     		strb	r3, [r7, #3]
 1218 000c CC21     		movs	r1, #204
 1219 000e 7868     		ldr	r0, [r7, #4]
 1220 0010 FFF7FEFF 		bl	write_type_marker
 1221 0014 0346     		mov	r3, r0
 1222 0016 83F00103 		eor	r3, r3, #1
 1223 001a DBB2     		uxtb	r3, r3
 1224 001c 002B     		cmp	r3, #0
 1225 001e 01D0     		beq	.L83
 1226 0020 0023     		movs	r3, #0
 1227 0022 0BE0     		b	.L84
 1228              	.L83:
 1229 0024 7B68     		ldr	r3, [r7, #4]
 1230 0026 DB68     		ldr	r3, [r3, #12]
 1231 0028 F91C     		adds	r1, r7, #3
 1232 002a 0122     		movs	r2, #1
 1233 002c 7868     		ldr	r0, [r7, #4]
 1234 002e 9847     		blx	r3
 1235 0030 0346     		mov	r3, r0
 1236 0032 002B     		cmp	r3, #0
 1237 0034 14BF     		ite	ne
 1238 0036 0123     		movne	r3, #1
 1239 0038 0023     		moveq	r3, #0
 1240 003a DBB2     		uxtb	r3, r3
 1241              	.L84:
 1242 003c 1846     		mov	r0, r3
 1243 003e 0837     		adds	r7, r7, #8
 1244 0040 BD46     		mov	sp, r7
 1245              		@ sp needed
 1246 0042 80BD     		pop	{r7, pc}
ARM GAS  /var/folders/d2/nstgp4h54kz7g1l847x_b8wc0000gn/T//ccFI0sM2.s 			page 24


 1247              		.size	cmp_write_u8, .-cmp_write_u8
 1248              		.section	.text.cmp_write_u16,"ax",%progbits
 1249              		.align	1
 1250              		.global	cmp_write_u16
 1251              		.syntax unified
 1252              		.thumb
 1253              		.thumb_func
 1254              		.fpu fpv4-sp-d16
 1255              		.type	cmp_write_u16, %function
 1256              	cmp_write_u16:
 1257              		@ args = 0, pretend = 0, frame = 8
 1258              		@ frame_needed = 1, uses_anonymous_args = 0
 1259 0000 80B5     		push	{r7, lr}
 1260 0002 82B0     		sub	sp, sp, #8
 1261 0004 00AF     		add	r7, sp, #0
 1262 0006 7860     		str	r0, [r7, #4]
 1263 0008 0B46     		mov	r3, r1
 1264 000a 7B80     		strh	r3, [r7, #2]	@ movhi
 1265 000c CD21     		movs	r1, #205
 1266 000e 7868     		ldr	r0, [r7, #4]
 1267 0010 FFF7FEFF 		bl	write_type_marker
 1268 0014 0346     		mov	r3, r0
 1269 0016 83F00103 		eor	r3, r3, #1
 1270 001a DBB2     		uxtb	r3, r3
 1271 001c 002B     		cmp	r3, #0
 1272 001e 01D0     		beq	.L86
 1273 0020 0023     		movs	r3, #0
 1274 0022 11E0     		b	.L87
 1275              	.L86:
 1276 0024 7B88     		ldrh	r3, [r7, #2]
 1277 0026 1846     		mov	r0, r3
 1278 0028 FFF7FEFF 		bl	be16
 1279 002c 0346     		mov	r3, r0
 1280 002e 7B80     		strh	r3, [r7, #2]	@ movhi
 1281 0030 7B68     		ldr	r3, [r7, #4]
 1282 0032 DB68     		ldr	r3, [r3, #12]
 1283 0034 B91C     		adds	r1, r7, #2
 1284 0036 0222     		movs	r2, #2
 1285 0038 7868     		ldr	r0, [r7, #4]
 1286 003a 9847     		blx	r3
 1287 003c 0346     		mov	r3, r0
 1288 003e 002B     		cmp	r3, #0
 1289 0040 14BF     		ite	ne
 1290 0042 0123     		movne	r3, #1
 1291 0044 0023     		moveq	r3, #0
 1292 0046 DBB2     		uxtb	r3, r3
 1293              	.L87:
 1294 0048 1846     		mov	r0, r3
 1295 004a 0837     		adds	r7, r7, #8
 1296 004c BD46     		mov	sp, r7
 1297              		@ sp needed
 1298 004e 80BD     		pop	{r7, pc}
 1299              		.size	cmp_write_u16, .-cmp_write_u16
 1300              		.section	.text.cmp_write_u32,"ax",%progbits
 1301              		.align	1
 1302              		.global	cmp_write_u32
 1303              		.syntax unified
ARM GAS  /var/folders/d2/nstgp4h54kz7g1l847x_b8wc0000gn/T//ccFI0sM2.s 			page 25


 1304              		.thumb
 1305              		.thumb_func
 1306              		.fpu fpv4-sp-d16
 1307              		.type	cmp_write_u32, %function
 1308              	cmp_write_u32:
 1309              		@ args = 0, pretend = 0, frame = 8
 1310              		@ frame_needed = 1, uses_anonymous_args = 0
 1311 0000 80B5     		push	{r7, lr}
 1312 0002 82B0     		sub	sp, sp, #8
 1313 0004 00AF     		add	r7, sp, #0
 1314 0006 7860     		str	r0, [r7, #4]
 1315 0008 3960     		str	r1, [r7]
 1316 000a CE21     		movs	r1, #206
 1317 000c 7868     		ldr	r0, [r7, #4]
 1318 000e FFF7FEFF 		bl	write_type_marker
 1319 0012 0346     		mov	r3, r0
 1320 0014 83F00103 		eor	r3, r3, #1
 1321 0018 DBB2     		uxtb	r3, r3
 1322 001a 002B     		cmp	r3, #0
 1323 001c 01D0     		beq	.L89
 1324 001e 0023     		movs	r3, #0
 1325 0020 11E0     		b	.L90
 1326              	.L89:
 1327 0022 3B68     		ldr	r3, [r7]
 1328 0024 1846     		mov	r0, r3
 1329 0026 FFF7FEFF 		bl	be32
 1330 002a 0346     		mov	r3, r0
 1331 002c 3B60     		str	r3, [r7]
 1332 002e 7B68     		ldr	r3, [r7, #4]
 1333 0030 DB68     		ldr	r3, [r3, #12]
 1334 0032 3946     		mov	r1, r7
 1335 0034 0422     		movs	r2, #4
 1336 0036 7868     		ldr	r0, [r7, #4]
 1337 0038 9847     		blx	r3
 1338 003a 0346     		mov	r3, r0
 1339 003c 002B     		cmp	r3, #0
 1340 003e 14BF     		ite	ne
 1341 0040 0123     		movne	r3, #1
 1342 0042 0023     		moveq	r3, #0
 1343 0044 DBB2     		uxtb	r3, r3
 1344              	.L90:
 1345 0046 1846     		mov	r0, r3
 1346 0048 0837     		adds	r7, r7, #8
 1347 004a BD46     		mov	sp, r7
 1348              		@ sp needed
 1349 004c 80BD     		pop	{r7, pc}
 1350              		.size	cmp_write_u32, .-cmp_write_u32
 1351              		.section	.text.cmp_write_u64,"ax",%progbits
 1352              		.align	1
 1353              		.global	cmp_write_u64
 1354              		.syntax unified
 1355              		.thumb
 1356              		.thumb_func
 1357              		.fpu fpv4-sp-d16
 1358              		.type	cmp_write_u64, %function
 1359              	cmp_write_u64:
 1360              		@ args = 0, pretend = 0, frame = 16
ARM GAS  /var/folders/d2/nstgp4h54kz7g1l847x_b8wc0000gn/T//ccFI0sM2.s 			page 26


 1361              		@ frame_needed = 1, uses_anonymous_args = 0
 1362 0000 90B5     		push	{r4, r7, lr}
 1363 0002 85B0     		sub	sp, sp, #20
 1364 0004 00AF     		add	r7, sp, #0
 1365 0006 F860     		str	r0, [r7, #12]
 1366 0008 C7E90023 		strd	r2, [r7]
 1367 000c CF21     		movs	r1, #207
 1368 000e F868     		ldr	r0, [r7, #12]
 1369 0010 FFF7FEFF 		bl	write_type_marker
 1370 0014 0346     		mov	r3, r0
 1371 0016 83F00103 		eor	r3, r3, #1
 1372 001a DBB2     		uxtb	r3, r3
 1373 001c 002B     		cmp	r3, #0
 1374 001e 01D0     		beq	.L92
 1375 0020 0023     		movs	r3, #0
 1376 0022 15E0     		b	.L93
 1377              	.L92:
 1378 0024 D7E90034 		ldrd	r3, [r7]
 1379 0028 1846     		mov	r0, r3
 1380 002a 2146     		mov	r1, r4
 1381 002c FFF7FEFF 		bl	be64
 1382 0030 0346     		mov	r3, r0
 1383 0032 0C46     		mov	r4, r1
 1384 0034 C7E90034 		strd	r3, [r7]
 1385 0038 FB68     		ldr	r3, [r7, #12]
 1386 003a DB68     		ldr	r3, [r3, #12]
 1387 003c 3946     		mov	r1, r7
 1388 003e 0822     		movs	r2, #8
 1389 0040 F868     		ldr	r0, [r7, #12]
 1390 0042 9847     		blx	r3
 1391 0044 0346     		mov	r3, r0
 1392 0046 002B     		cmp	r3, #0
 1393 0048 14BF     		ite	ne
 1394 004a 0123     		movne	r3, #1
 1395 004c 0023     		moveq	r3, #0
 1396 004e DBB2     		uxtb	r3, r3
 1397              	.L93:
 1398 0050 1846     		mov	r0, r3
 1399 0052 1437     		adds	r7, r7, #20
 1400 0054 BD46     		mov	sp, r7
 1401              		@ sp needed
 1402 0056 90BD     		pop	{r4, r7, pc}
 1403              		.size	cmp_write_u64, .-cmp_write_u64
 1404              		.section	.text.cmp_write_uint,"ax",%progbits
 1405              		.align	1
 1406              		.global	cmp_write_uint
 1407              		.syntax unified
 1408              		.thumb
 1409              		.thumb_func
 1410              		.fpu fpv4-sp-d16
 1411              		.type	cmp_write_uint, %function
 1412              	cmp_write_uint:
 1413              		@ args = 0, pretend = 0, frame = 16
 1414              		@ frame_needed = 1, uses_anonymous_args = 0
 1415 0000 90B5     		push	{r4, r7, lr}
 1416 0002 85B0     		sub	sp, sp, #20
 1417 0004 00AF     		add	r7, sp, #0
ARM GAS  /var/folders/d2/nstgp4h54kz7g1l847x_b8wc0000gn/T//ccFI0sM2.s 			page 27


 1418 0006 F860     		str	r0, [r7, #12]
 1419 0008 C7E90023 		strd	r2, [r7]
 1420 000c D7E90034 		ldrd	r3, [r7]
 1421 0010 002C     		cmp	r4, #0
 1422 0012 08BF     		it	eq
 1423 0014 802B     		cmpeq	r3, #128
 1424 0016 06D2     		bcs	.L95
 1425 0018 3B78     		ldrb	r3, [r7]	@ zero_extendqisi2
 1426 001a 1946     		mov	r1, r3
 1427 001c F868     		ldr	r0, [r7, #12]
 1428 001e FFF7FEFF 		bl	cmp_write_pfix
 1429 0022 0346     		mov	r3, r0
 1430 0024 31E0     		b	.L96
 1431              	.L95:
 1432 0026 D7E90034 		ldrd	r3, [r7]
 1433 002a 002C     		cmp	r4, #0
 1434 002c 08BF     		it	eq
 1435 002e B3F5807F 		cmpeq	r3, #256
 1436 0032 06D2     		bcs	.L97
 1437 0034 3B78     		ldrb	r3, [r7]	@ zero_extendqisi2
 1438 0036 1946     		mov	r1, r3
 1439 0038 F868     		ldr	r0, [r7, #12]
 1440 003a FFF7FEFF 		bl	cmp_write_u8
 1441 003e 0346     		mov	r3, r0
 1442 0040 23E0     		b	.L96
 1443              	.L97:
 1444 0042 D7E90034 		ldrd	r3, [r7]
 1445 0046 4FF6FF71 		movw	r1, #65535
 1446 004a 4FF00002 		mov	r2, #0
 1447 004e A242     		cmp	r2, r4
 1448 0050 08BF     		it	eq
 1449 0052 9942     		cmpeq	r1, r3
 1450 0054 06D3     		bcc	.L98
 1451 0056 3B88     		ldrh	r3, [r7]
 1452 0058 1946     		mov	r1, r3
 1453 005a F868     		ldr	r0, [r7, #12]
 1454 005c FFF7FEFF 		bl	cmp_write_u16
 1455 0060 0346     		mov	r3, r0
 1456 0062 12E0     		b	.L96
 1457              	.L98:
 1458 0064 D7E90034 		ldrd	r3, [r7]
 1459 0068 012C     		cmp	r4, #1
 1460 006a 08BF     		it	eq
 1461 006c 002B     		cmpeq	r3, #0
 1462 006e 06D2     		bcs	.L99
 1463 0070 3B68     		ldr	r3, [r7]
 1464 0072 1946     		mov	r1, r3
 1465 0074 F868     		ldr	r0, [r7, #12]
 1466 0076 FFF7FEFF 		bl	cmp_write_u32
 1467 007a 0346     		mov	r3, r0
 1468 007c 05E0     		b	.L96
 1469              	.L99:
 1470 007e D7E90023 		ldrd	r2, [r7]
 1471 0082 F868     		ldr	r0, [r7, #12]
 1472 0084 FFF7FEFF 		bl	cmp_write_u64
 1473 0088 0346     		mov	r3, r0
 1474              	.L96:
ARM GAS  /var/folders/d2/nstgp4h54kz7g1l847x_b8wc0000gn/T//ccFI0sM2.s 			page 28


 1475 008a 1846     		mov	r0, r3
 1476 008c 1437     		adds	r7, r7, #20
 1477 008e BD46     		mov	sp, r7
 1478              		@ sp needed
 1479 0090 90BD     		pop	{r4, r7, pc}
 1480              		.size	cmp_write_uint, .-cmp_write_uint
 1481              		.section	.text.cmp_write_float,"ax",%progbits
 1482              		.align	1
 1483              		.global	cmp_write_float
 1484              		.syntax unified
 1485              		.thumb
 1486              		.thumb_func
 1487              		.fpu fpv4-sp-d16
 1488              		.type	cmp_write_float, %function
 1489              	cmp_write_float:
 1490              		@ args = 0, pretend = 0, frame = 8
 1491              		@ frame_needed = 1, uses_anonymous_args = 0
 1492 0000 80B5     		push	{r7, lr}
 1493 0002 82B0     		sub	sp, sp, #8
 1494 0004 00AF     		add	r7, sp, #0
 1495 0006 7860     		str	r0, [r7, #4]
 1496 0008 87ED000A 		vstr.32	s0, [r7]
 1497 000c CA21     		movs	r1, #202
 1498 000e 7868     		ldr	r0, [r7, #4]
 1499 0010 FFF7FEFF 		bl	write_type_marker
 1500 0014 0346     		mov	r3, r0
 1501 0016 83F00103 		eor	r3, r3, #1
 1502 001a DBB2     		uxtb	r3, r3
 1503 001c 002B     		cmp	r3, #0
 1504 001e 01D0     		beq	.L101
 1505 0020 0023     		movs	r3, #0
 1506 0022 15E0     		b	.L102
 1507              	.L101:
 1508 0024 D7ED007A 		vldr.32	s15, [r7]
 1509 0028 B0EE670A 		vmov.f32	s0, s15
 1510 002c FFF7FEFF 		bl	befloat
 1511 0030 F0EE407A 		vmov.f32	s15, s0
 1512 0034 C7ED007A 		vstr.32	s15, [r7]
 1513 0038 7B68     		ldr	r3, [r7, #4]
 1514 003a DB68     		ldr	r3, [r3, #12]
 1515 003c 3946     		mov	r1, r7
 1516 003e 0422     		movs	r2, #4
 1517 0040 7868     		ldr	r0, [r7, #4]
 1518 0042 9847     		blx	r3
 1519 0044 0346     		mov	r3, r0
 1520 0046 002B     		cmp	r3, #0
 1521 0048 14BF     		ite	ne
 1522 004a 0123     		movne	r3, #1
 1523 004c 0023     		moveq	r3, #0
 1524 004e DBB2     		uxtb	r3, r3
 1525              	.L102:
 1526 0050 1846     		mov	r0, r3
 1527 0052 0837     		adds	r7, r7, #8
 1528 0054 BD46     		mov	sp, r7
 1529              		@ sp needed
 1530 0056 80BD     		pop	{r7, pc}
 1531              		.size	cmp_write_float, .-cmp_write_float
ARM GAS  /var/folders/d2/nstgp4h54kz7g1l847x_b8wc0000gn/T//ccFI0sM2.s 			page 29


 1532              		.section	.text.cmp_write_double,"ax",%progbits
 1533              		.align	1
 1534              		.global	cmp_write_double
 1535              		.syntax unified
 1536              		.thumb
 1537              		.thumb_func
 1538              		.fpu fpv4-sp-d16
 1539              		.type	cmp_write_double, %function
 1540              	cmp_write_double:
 1541              		@ args = 0, pretend = 0, frame = 16
 1542              		@ frame_needed = 1, uses_anonymous_args = 0
 1543 0000 80B5     		push	{r7, lr}
 1544 0002 84B0     		sub	sp, sp, #16
 1545 0004 00AF     		add	r7, sp, #0
 1546 0006 F860     		str	r0, [r7, #12]
 1547 0008 87ED000B 		vstr.64	d0, [r7]
 1548 000c CB21     		movs	r1, #203
 1549 000e F868     		ldr	r0, [r7, #12]
 1550 0010 FFF7FEFF 		bl	write_type_marker
 1551 0014 0346     		mov	r3, r0
 1552 0016 83F00103 		eor	r3, r3, #1
 1553 001a DBB2     		uxtb	r3, r3
 1554 001c 002B     		cmp	r3, #0
 1555 001e 01D0     		beq	.L104
 1556 0020 0023     		movs	r3, #0
 1557 0022 19E0     		b	.L105
 1558              	.L104:
 1559 0024 97ED007B 		vldr.64	d7, [r7]
 1560 0028 B0EE470A 		vmov.f32	s0, s14
 1561 002c F0EE670A 		vmov.f32	s1, s15
 1562 0030 FFF7FEFF 		bl	bedouble
 1563 0034 B0EE407A 		vmov.f32	s14, s0
 1564 0038 F0EE607A 		vmov.f32	s15, s1
 1565 003c 87ED007B 		vstr.64	d7, [r7]
 1566 0040 FB68     		ldr	r3, [r7, #12]
 1567 0042 DB68     		ldr	r3, [r3, #12]
 1568 0044 3946     		mov	r1, r7
 1569 0046 0822     		movs	r2, #8
 1570 0048 F868     		ldr	r0, [r7, #12]
 1571 004a 9847     		blx	r3
 1572 004c 0346     		mov	r3, r0
 1573 004e 002B     		cmp	r3, #0
 1574 0050 14BF     		ite	ne
 1575 0052 0123     		movne	r3, #1
 1576 0054 0023     		moveq	r3, #0
 1577 0056 DBB2     		uxtb	r3, r3
 1578              	.L105:
 1579 0058 1846     		mov	r0, r3
 1580 005a 1037     		adds	r7, r7, #16
 1581 005c BD46     		mov	sp, r7
 1582              		@ sp needed
 1583 005e 80BD     		pop	{r7, pc}
 1584              		.size	cmp_write_double, .-cmp_write_double
 1585              		.section	.text.cmp_write_nil,"ax",%progbits
 1586              		.align	1
 1587              		.global	cmp_write_nil
 1588              		.syntax unified
ARM GAS  /var/folders/d2/nstgp4h54kz7g1l847x_b8wc0000gn/T//ccFI0sM2.s 			page 30


 1589              		.thumb
 1590              		.thumb_func
 1591              		.fpu fpv4-sp-d16
 1592              		.type	cmp_write_nil, %function
 1593              	cmp_write_nil:
 1594              		@ args = 0, pretend = 0, frame = 8
 1595              		@ frame_needed = 1, uses_anonymous_args = 0
 1596 0000 80B5     		push	{r7, lr}
 1597 0002 82B0     		sub	sp, sp, #8
 1598 0004 00AF     		add	r7, sp, #0
 1599 0006 7860     		str	r0, [r7, #4]
 1600 0008 C021     		movs	r1, #192
 1601 000a 7868     		ldr	r0, [r7, #4]
 1602 000c FFF7FEFF 		bl	write_type_marker
 1603 0010 0346     		mov	r3, r0
 1604 0012 1846     		mov	r0, r3
 1605 0014 0837     		adds	r7, r7, #8
 1606 0016 BD46     		mov	sp, r7
 1607              		@ sp needed
 1608 0018 80BD     		pop	{r7, pc}
 1609              		.size	cmp_write_nil, .-cmp_write_nil
 1610              		.section	.text.cmp_write_true,"ax",%progbits
 1611              		.align	1
 1612              		.global	cmp_write_true
 1613              		.syntax unified
 1614              		.thumb
 1615              		.thumb_func
 1616              		.fpu fpv4-sp-d16
 1617              		.type	cmp_write_true, %function
 1618              	cmp_write_true:
 1619              		@ args = 0, pretend = 0, frame = 8
 1620              		@ frame_needed = 1, uses_anonymous_args = 0
 1621 0000 80B5     		push	{r7, lr}
 1622 0002 82B0     		sub	sp, sp, #8
 1623 0004 00AF     		add	r7, sp, #0
 1624 0006 7860     		str	r0, [r7, #4]
 1625 0008 C321     		movs	r1, #195
 1626 000a 7868     		ldr	r0, [r7, #4]
 1627 000c FFF7FEFF 		bl	write_type_marker
 1628 0010 0346     		mov	r3, r0
 1629 0012 1846     		mov	r0, r3
 1630 0014 0837     		adds	r7, r7, #8
 1631 0016 BD46     		mov	sp, r7
 1632              		@ sp needed
 1633 0018 80BD     		pop	{r7, pc}
 1634              		.size	cmp_write_true, .-cmp_write_true
 1635              		.section	.text.cmp_write_false,"ax",%progbits
 1636              		.align	1
 1637              		.global	cmp_write_false
 1638              		.syntax unified
 1639              		.thumb
 1640              		.thumb_func
 1641              		.fpu fpv4-sp-d16
 1642              		.type	cmp_write_false, %function
 1643              	cmp_write_false:
 1644              		@ args = 0, pretend = 0, frame = 8
 1645              		@ frame_needed = 1, uses_anonymous_args = 0
ARM GAS  /var/folders/d2/nstgp4h54kz7g1l847x_b8wc0000gn/T//ccFI0sM2.s 			page 31


 1646 0000 80B5     		push	{r7, lr}
 1647 0002 82B0     		sub	sp, sp, #8
 1648 0004 00AF     		add	r7, sp, #0
 1649 0006 7860     		str	r0, [r7, #4]
 1650 0008 C221     		movs	r1, #194
 1651 000a 7868     		ldr	r0, [r7, #4]
 1652 000c FFF7FEFF 		bl	write_type_marker
 1653 0010 0346     		mov	r3, r0
 1654 0012 1846     		mov	r0, r3
 1655 0014 0837     		adds	r7, r7, #8
 1656 0016 BD46     		mov	sp, r7
 1657              		@ sp needed
 1658 0018 80BD     		pop	{r7, pc}
 1659              		.size	cmp_write_false, .-cmp_write_false
 1660              		.section	.text.cmp_write_bool,"ax",%progbits
 1661              		.align	1
 1662              		.global	cmp_write_bool
 1663              		.syntax unified
 1664              		.thumb
 1665              		.thumb_func
 1666              		.fpu fpv4-sp-d16
 1667              		.type	cmp_write_bool, %function
 1668              	cmp_write_bool:
 1669              		@ args = 0, pretend = 0, frame = 8
 1670              		@ frame_needed = 1, uses_anonymous_args = 0
 1671 0000 80B5     		push	{r7, lr}
 1672 0002 82B0     		sub	sp, sp, #8
 1673 0004 00AF     		add	r7, sp, #0
 1674 0006 7860     		str	r0, [r7, #4]
 1675 0008 0B46     		mov	r3, r1
 1676 000a FB70     		strb	r3, [r7, #3]
 1677 000c FB78     		ldrb	r3, [r7, #3]	@ zero_extendqisi2
 1678 000e 002B     		cmp	r3, #0
 1679 0010 04D0     		beq	.L113
 1680 0012 7868     		ldr	r0, [r7, #4]
 1681 0014 FFF7FEFF 		bl	cmp_write_true
 1682 0018 0346     		mov	r3, r0
 1683 001a 03E0     		b	.L114
 1684              	.L113:
 1685 001c 7868     		ldr	r0, [r7, #4]
 1686 001e FFF7FEFF 		bl	cmp_write_false
 1687 0022 0346     		mov	r3, r0
 1688              	.L114:
 1689 0024 1846     		mov	r0, r3
 1690 0026 0837     		adds	r7, r7, #8
 1691 0028 BD46     		mov	sp, r7
 1692              		@ sp needed
 1693 002a 80BD     		pop	{r7, pc}
 1694              		.size	cmp_write_bool, .-cmp_write_bool
 1695              		.section	.text.cmp_write_u8_as_bool,"ax",%progbits
 1696              		.align	1
 1697              		.global	cmp_write_u8_as_bool
 1698              		.syntax unified
 1699              		.thumb
 1700              		.thumb_func
 1701              		.fpu fpv4-sp-d16
 1702              		.type	cmp_write_u8_as_bool, %function
ARM GAS  /var/folders/d2/nstgp4h54kz7g1l847x_b8wc0000gn/T//ccFI0sM2.s 			page 32


 1703              	cmp_write_u8_as_bool:
 1704              		@ args = 0, pretend = 0, frame = 8
 1705              		@ frame_needed = 1, uses_anonymous_args = 0
 1706 0000 80B5     		push	{r7, lr}
 1707 0002 82B0     		sub	sp, sp, #8
 1708 0004 00AF     		add	r7, sp, #0
 1709 0006 7860     		str	r0, [r7, #4]
 1710 0008 0B46     		mov	r3, r1
 1711 000a FB70     		strb	r3, [r7, #3]
 1712 000c FB78     		ldrb	r3, [r7, #3]	@ zero_extendqisi2
 1713 000e 002B     		cmp	r3, #0
 1714 0010 04D0     		beq	.L116
 1715 0012 7868     		ldr	r0, [r7, #4]
 1716 0014 FFF7FEFF 		bl	cmp_write_true
 1717 0018 0346     		mov	r3, r0
 1718 001a 03E0     		b	.L117
 1719              	.L116:
 1720 001c 7868     		ldr	r0, [r7, #4]
 1721 001e FFF7FEFF 		bl	cmp_write_false
 1722 0022 0346     		mov	r3, r0
 1723              	.L117:
 1724 0024 1846     		mov	r0, r3
 1725 0026 0837     		adds	r7, r7, #8
 1726 0028 BD46     		mov	sp, r7
 1727              		@ sp needed
 1728 002a 80BD     		pop	{r7, pc}
 1729              		.size	cmp_write_u8_as_bool, .-cmp_write_u8_as_bool
 1730              		.section	.text.cmp_write_fixstr_marker,"ax",%progbits
 1731              		.align	1
 1732              		.global	cmp_write_fixstr_marker
 1733              		.syntax unified
 1734              		.thumb
 1735              		.thumb_func
 1736              		.fpu fpv4-sp-d16
 1737              		.type	cmp_write_fixstr_marker, %function
 1738              	cmp_write_fixstr_marker:
 1739              		@ args = 0, pretend = 0, frame = 8
 1740              		@ frame_needed = 1, uses_anonymous_args = 0
 1741 0000 80B5     		push	{r7, lr}
 1742 0002 82B0     		sub	sp, sp, #8
 1743 0004 00AF     		add	r7, sp, #0
 1744 0006 7860     		str	r0, [r7, #4]
 1745 0008 0B46     		mov	r3, r1
 1746 000a FB70     		strb	r3, [r7, #3]
 1747 000c FB78     		ldrb	r3, [r7, #3]	@ zero_extendqisi2
 1748 000e 1F2B     		cmp	r3, #31
 1749 0010 09D8     		bhi	.L119
 1750 0012 FB78     		ldrb	r3, [r7, #3]
 1751 0014 63F05F03 		orn	r3, r3, #95
 1752 0018 DBB2     		uxtb	r3, r3
 1753 001a 1946     		mov	r1, r3
 1754 001c 7868     		ldr	r0, [r7, #4]
 1755 001e FFF7FEFF 		bl	write_fixed_value
 1756 0022 0346     		mov	r3, r0
 1757 0024 03E0     		b	.L120
 1758              	.L119:
 1759 0026 7B68     		ldr	r3, [r7, #4]
ARM GAS  /var/folders/d2/nstgp4h54kz7g1l847x_b8wc0000gn/T//ccFI0sM2.s 			page 33


 1760 0028 0522     		movs	r2, #5
 1761 002a 1A70     		strb	r2, [r3]
 1762 002c 0023     		movs	r3, #0
 1763              	.L120:
 1764 002e 1846     		mov	r0, r3
 1765 0030 0837     		adds	r7, r7, #8
 1766 0032 BD46     		mov	sp, r7
 1767              		@ sp needed
 1768 0034 80BD     		pop	{r7, pc}
 1769              		.size	cmp_write_fixstr_marker, .-cmp_write_fixstr_marker
 1770              		.section	.text.cmp_write_fixstr,"ax",%progbits
 1771              		.align	1
 1772              		.global	cmp_write_fixstr
 1773              		.syntax unified
 1774              		.thumb
 1775              		.thumb_func
 1776              		.fpu fpv4-sp-d16
 1777              		.type	cmp_write_fixstr, %function
 1778              	cmp_write_fixstr:
 1779              		@ args = 0, pretend = 0, frame = 16
 1780              		@ frame_needed = 1, uses_anonymous_args = 0
 1781 0000 80B5     		push	{r7, lr}
 1782 0002 84B0     		sub	sp, sp, #16
 1783 0004 00AF     		add	r7, sp, #0
 1784 0006 F860     		str	r0, [r7, #12]
 1785 0008 B960     		str	r1, [r7, #8]
 1786 000a 1346     		mov	r3, r2
 1787 000c FB71     		strb	r3, [r7, #7]
 1788 000e FB79     		ldrb	r3, [r7, #7]	@ zero_extendqisi2
 1789 0010 1946     		mov	r1, r3
 1790 0012 F868     		ldr	r0, [r7, #12]
 1791 0014 FFF7FEFF 		bl	cmp_write_fixstr_marker
 1792 0018 0346     		mov	r3, r0
 1793 001a 83F00103 		eor	r3, r3, #1
 1794 001e DBB2     		uxtb	r3, r3
 1795 0020 002B     		cmp	r3, #0
 1796 0022 01D0     		beq	.L122
 1797 0024 0023     		movs	r3, #0
 1798 0026 13E0     		b	.L123
 1799              	.L122:
 1800 0028 FB79     		ldrb	r3, [r7, #7]	@ zero_extendqisi2
 1801 002a 002B     		cmp	r3, #0
 1802 002c 01D1     		bne	.L124
 1803 002e 0123     		movs	r3, #1
 1804 0030 0EE0     		b	.L123
 1805              	.L124:
 1806 0032 FB68     		ldr	r3, [r7, #12]
 1807 0034 DB68     		ldr	r3, [r3, #12]
 1808 0036 FA79     		ldrb	r2, [r7, #7]	@ zero_extendqisi2
 1809 0038 B968     		ldr	r1, [r7, #8]
 1810 003a F868     		ldr	r0, [r7, #12]
 1811 003c 9847     		blx	r3
 1812 003e 0346     		mov	r3, r0
 1813 0040 002B     		cmp	r3, #0
 1814 0042 01D0     		beq	.L125
 1815 0044 0123     		movs	r3, #1
 1816 0046 03E0     		b	.L123
ARM GAS  /var/folders/d2/nstgp4h54kz7g1l847x_b8wc0000gn/T//ccFI0sM2.s 			page 34


 1817              	.L125:
 1818 0048 FB68     		ldr	r3, [r7, #12]
 1819 004a 0A22     		movs	r2, #10
 1820 004c 1A70     		strb	r2, [r3]
 1821 004e 0023     		movs	r3, #0
 1822              	.L123:
 1823 0050 1846     		mov	r0, r3
 1824 0052 1037     		adds	r7, r7, #16
 1825 0054 BD46     		mov	sp, r7
 1826              		@ sp needed
 1827 0056 80BD     		pop	{r7, pc}
 1828              		.size	cmp_write_fixstr, .-cmp_write_fixstr
 1829              		.section	.text.cmp_write_str8_marker,"ax",%progbits
 1830              		.align	1
 1831              		.global	cmp_write_str8_marker
 1832              		.syntax unified
 1833              		.thumb
 1834              		.thumb_func
 1835              		.fpu fpv4-sp-d16
 1836              		.type	cmp_write_str8_marker, %function
 1837              	cmp_write_str8_marker:
 1838              		@ args = 0, pretend = 0, frame = 8
 1839              		@ frame_needed = 1, uses_anonymous_args = 0
 1840 0000 80B5     		push	{r7, lr}
 1841 0002 82B0     		sub	sp, sp, #8
 1842 0004 00AF     		add	r7, sp, #0
 1843 0006 7860     		str	r0, [r7, #4]
 1844 0008 0B46     		mov	r3, r1
 1845 000a FB70     		strb	r3, [r7, #3]
 1846 000c D921     		movs	r1, #217
 1847 000e 7868     		ldr	r0, [r7, #4]
 1848 0010 FFF7FEFF 		bl	write_type_marker
 1849 0014 0346     		mov	r3, r0
 1850 0016 83F00103 		eor	r3, r3, #1
 1851 001a DBB2     		uxtb	r3, r3
 1852 001c 002B     		cmp	r3, #0
 1853 001e 01D0     		beq	.L127
 1854 0020 0023     		movs	r3, #0
 1855 0022 0EE0     		b	.L128
 1856              	.L127:
 1857 0024 7B68     		ldr	r3, [r7, #4]
 1858 0026 DB68     		ldr	r3, [r3, #12]
 1859 0028 F91C     		adds	r1, r7, #3
 1860 002a 0122     		movs	r2, #1
 1861 002c 7868     		ldr	r0, [r7, #4]
 1862 002e 9847     		blx	r3
 1863 0030 0346     		mov	r3, r0
 1864 0032 002B     		cmp	r3, #0
 1865 0034 01D0     		beq	.L129
 1866 0036 0123     		movs	r3, #1
 1867 0038 03E0     		b	.L128
 1868              	.L129:
 1869 003a 7B68     		ldr	r3, [r7, #4]
 1870 003c 0F22     		movs	r2, #15
 1871 003e 1A70     		strb	r2, [r3]
 1872 0040 0023     		movs	r3, #0
 1873              	.L128:
ARM GAS  /var/folders/d2/nstgp4h54kz7g1l847x_b8wc0000gn/T//ccFI0sM2.s 			page 35


 1874 0042 1846     		mov	r0, r3
 1875 0044 0837     		adds	r7, r7, #8
 1876 0046 BD46     		mov	sp, r7
 1877              		@ sp needed
 1878 0048 80BD     		pop	{r7, pc}
 1879              		.size	cmp_write_str8_marker, .-cmp_write_str8_marker
 1880              		.section	.text.cmp_write_str8,"ax",%progbits
 1881              		.align	1
 1882              		.global	cmp_write_str8
 1883              		.syntax unified
 1884              		.thumb
 1885              		.thumb_func
 1886              		.fpu fpv4-sp-d16
 1887              		.type	cmp_write_str8, %function
 1888              	cmp_write_str8:
 1889              		@ args = 0, pretend = 0, frame = 16
 1890              		@ frame_needed = 1, uses_anonymous_args = 0
 1891 0000 80B5     		push	{r7, lr}
 1892 0002 84B0     		sub	sp, sp, #16
 1893 0004 00AF     		add	r7, sp, #0
 1894 0006 F860     		str	r0, [r7, #12]
 1895 0008 B960     		str	r1, [r7, #8]
 1896 000a 1346     		mov	r3, r2
 1897 000c FB71     		strb	r3, [r7, #7]
 1898 000e FB79     		ldrb	r3, [r7, #7]	@ zero_extendqisi2
 1899 0010 1946     		mov	r1, r3
 1900 0012 F868     		ldr	r0, [r7, #12]
 1901 0014 FFF7FEFF 		bl	cmp_write_str8_marker
 1902 0018 0346     		mov	r3, r0
 1903 001a 83F00103 		eor	r3, r3, #1
 1904 001e DBB2     		uxtb	r3, r3
 1905 0020 002B     		cmp	r3, #0
 1906 0022 01D0     		beq	.L131
 1907 0024 0023     		movs	r3, #0
 1908 0026 13E0     		b	.L132
 1909              	.L131:
 1910 0028 FB79     		ldrb	r3, [r7, #7]	@ zero_extendqisi2
 1911 002a 002B     		cmp	r3, #0
 1912 002c 01D1     		bne	.L133
 1913 002e 0123     		movs	r3, #1
 1914 0030 0EE0     		b	.L132
 1915              	.L133:
 1916 0032 FB68     		ldr	r3, [r7, #12]
 1917 0034 DB68     		ldr	r3, [r3, #12]
 1918 0036 FA79     		ldrb	r2, [r7, #7]	@ zero_extendqisi2
 1919 0038 B968     		ldr	r1, [r7, #8]
 1920 003a F868     		ldr	r0, [r7, #12]
 1921 003c 9847     		blx	r3
 1922 003e 0346     		mov	r3, r0
 1923 0040 002B     		cmp	r3, #0
 1924 0042 01D0     		beq	.L134
 1925 0044 0123     		movs	r3, #1
 1926 0046 03E0     		b	.L132
 1927              	.L134:
 1928 0048 FB68     		ldr	r3, [r7, #12]
 1929 004a 0A22     		movs	r2, #10
 1930 004c 1A70     		strb	r2, [r3]
ARM GAS  /var/folders/d2/nstgp4h54kz7g1l847x_b8wc0000gn/T//ccFI0sM2.s 			page 36


 1931 004e 0023     		movs	r3, #0
 1932              	.L132:
 1933 0050 1846     		mov	r0, r3
 1934 0052 1037     		adds	r7, r7, #16
 1935 0054 BD46     		mov	sp, r7
 1936              		@ sp needed
 1937 0056 80BD     		pop	{r7, pc}
 1938              		.size	cmp_write_str8, .-cmp_write_str8
 1939              		.section	.text.cmp_write_str16_marker,"ax",%progbits
 1940              		.align	1
 1941              		.global	cmp_write_str16_marker
 1942              		.syntax unified
 1943              		.thumb
 1944              		.thumb_func
 1945              		.fpu fpv4-sp-d16
 1946              		.type	cmp_write_str16_marker, %function
 1947              	cmp_write_str16_marker:
 1948              		@ args = 0, pretend = 0, frame = 8
 1949              		@ frame_needed = 1, uses_anonymous_args = 0
 1950 0000 80B5     		push	{r7, lr}
 1951 0002 82B0     		sub	sp, sp, #8
 1952 0004 00AF     		add	r7, sp, #0
 1953 0006 7860     		str	r0, [r7, #4]
 1954 0008 0B46     		mov	r3, r1
 1955 000a 7B80     		strh	r3, [r7, #2]	@ movhi
 1956 000c DA21     		movs	r1, #218
 1957 000e 7868     		ldr	r0, [r7, #4]
 1958 0010 FFF7FEFF 		bl	write_type_marker
 1959 0014 0346     		mov	r3, r0
 1960 0016 83F00103 		eor	r3, r3, #1
 1961 001a DBB2     		uxtb	r3, r3
 1962 001c 002B     		cmp	r3, #0
 1963 001e 01D0     		beq	.L136
 1964 0020 0023     		movs	r3, #0
 1965 0022 14E0     		b	.L137
 1966              	.L136:
 1967 0024 7B88     		ldrh	r3, [r7, #2]
 1968 0026 1846     		mov	r0, r3
 1969 0028 FFF7FEFF 		bl	be16
 1970 002c 0346     		mov	r3, r0
 1971 002e 7B80     		strh	r3, [r7, #2]	@ movhi
 1972 0030 7B68     		ldr	r3, [r7, #4]
 1973 0032 DB68     		ldr	r3, [r3, #12]
 1974 0034 B91C     		adds	r1, r7, #2
 1975 0036 0222     		movs	r2, #2
 1976 0038 7868     		ldr	r0, [r7, #4]
 1977 003a 9847     		blx	r3
 1978 003c 0346     		mov	r3, r0
 1979 003e 002B     		cmp	r3, #0
 1980 0040 01D0     		beq	.L138
 1981 0042 0123     		movs	r3, #1
 1982 0044 03E0     		b	.L137
 1983              	.L138:
 1984 0046 7B68     		ldr	r3, [r7, #4]
 1985 0048 0F22     		movs	r2, #15
 1986 004a 1A70     		strb	r2, [r3]
 1987 004c 0023     		movs	r3, #0
ARM GAS  /var/folders/d2/nstgp4h54kz7g1l847x_b8wc0000gn/T//ccFI0sM2.s 			page 37


 1988              	.L137:
 1989 004e 1846     		mov	r0, r3
 1990 0050 0837     		adds	r7, r7, #8
 1991 0052 BD46     		mov	sp, r7
 1992              		@ sp needed
 1993 0054 80BD     		pop	{r7, pc}
 1994              		.size	cmp_write_str16_marker, .-cmp_write_str16_marker
 1995              		.section	.text.cmp_write_str16,"ax",%progbits
 1996              		.align	1
 1997              		.global	cmp_write_str16
 1998              		.syntax unified
 1999              		.thumb
 2000              		.thumb_func
 2001              		.fpu fpv4-sp-d16
 2002              		.type	cmp_write_str16, %function
 2003              	cmp_write_str16:
 2004              		@ args = 0, pretend = 0, frame = 16
 2005              		@ frame_needed = 1, uses_anonymous_args = 0
 2006 0000 80B5     		push	{r7, lr}
 2007 0002 84B0     		sub	sp, sp, #16
 2008 0004 00AF     		add	r7, sp, #0
 2009 0006 F860     		str	r0, [r7, #12]
 2010 0008 B960     		str	r1, [r7, #8]
 2011 000a 1346     		mov	r3, r2
 2012 000c FB80     		strh	r3, [r7, #6]	@ movhi
 2013 000e FB88     		ldrh	r3, [r7, #6]
 2014 0010 1946     		mov	r1, r3
 2015 0012 F868     		ldr	r0, [r7, #12]
 2016 0014 FFF7FEFF 		bl	cmp_write_str16_marker
 2017 0018 0346     		mov	r3, r0
 2018 001a 83F00103 		eor	r3, r3, #1
 2019 001e DBB2     		uxtb	r3, r3
 2020 0020 002B     		cmp	r3, #0
 2021 0022 01D0     		beq	.L140
 2022 0024 0023     		movs	r3, #0
 2023 0026 13E0     		b	.L141
 2024              	.L140:
 2025 0028 FB88     		ldrh	r3, [r7, #6]
 2026 002a 002B     		cmp	r3, #0
 2027 002c 01D1     		bne	.L142
 2028 002e 0123     		movs	r3, #1
 2029 0030 0EE0     		b	.L141
 2030              	.L142:
 2031 0032 FB68     		ldr	r3, [r7, #12]
 2032 0034 DB68     		ldr	r3, [r3, #12]
 2033 0036 FA88     		ldrh	r2, [r7, #6]
 2034 0038 B968     		ldr	r1, [r7, #8]
 2035 003a F868     		ldr	r0, [r7, #12]
 2036 003c 9847     		blx	r3
 2037 003e 0346     		mov	r3, r0
 2038 0040 002B     		cmp	r3, #0
 2039 0042 01D0     		beq	.L143
 2040 0044 0123     		movs	r3, #1
 2041 0046 03E0     		b	.L141
 2042              	.L143:
 2043 0048 FB68     		ldr	r3, [r7, #12]
 2044 004a 0A22     		movs	r2, #10
ARM GAS  /var/folders/d2/nstgp4h54kz7g1l847x_b8wc0000gn/T//ccFI0sM2.s 			page 38


 2045 004c 1A70     		strb	r2, [r3]
 2046 004e 0023     		movs	r3, #0
 2047              	.L141:
 2048 0050 1846     		mov	r0, r3
 2049 0052 1037     		adds	r7, r7, #16
 2050 0054 BD46     		mov	sp, r7
 2051              		@ sp needed
 2052 0056 80BD     		pop	{r7, pc}
 2053              		.size	cmp_write_str16, .-cmp_write_str16
 2054              		.section	.text.cmp_write_str32_marker,"ax",%progbits
 2055              		.align	1
 2056              		.global	cmp_write_str32_marker
 2057              		.syntax unified
 2058              		.thumb
 2059              		.thumb_func
 2060              		.fpu fpv4-sp-d16
 2061              		.type	cmp_write_str32_marker, %function
 2062              	cmp_write_str32_marker:
 2063              		@ args = 0, pretend = 0, frame = 8
 2064              		@ frame_needed = 1, uses_anonymous_args = 0
 2065 0000 80B5     		push	{r7, lr}
 2066 0002 82B0     		sub	sp, sp, #8
 2067 0004 00AF     		add	r7, sp, #0
 2068 0006 7860     		str	r0, [r7, #4]
 2069 0008 3960     		str	r1, [r7]
 2070 000a DB21     		movs	r1, #219
 2071 000c 7868     		ldr	r0, [r7, #4]
 2072 000e FFF7FEFF 		bl	write_type_marker
 2073 0012 0346     		mov	r3, r0
 2074 0014 83F00103 		eor	r3, r3, #1
 2075 0018 DBB2     		uxtb	r3, r3
 2076 001a 002B     		cmp	r3, #0
 2077 001c 01D0     		beq	.L145
 2078 001e 0023     		movs	r3, #0
 2079 0020 14E0     		b	.L146
 2080              	.L145:
 2081 0022 3B68     		ldr	r3, [r7]
 2082 0024 1846     		mov	r0, r3
 2083 0026 FFF7FEFF 		bl	be32
 2084 002a 0346     		mov	r3, r0
 2085 002c 3B60     		str	r3, [r7]
 2086 002e 7B68     		ldr	r3, [r7, #4]
 2087 0030 DB68     		ldr	r3, [r3, #12]
 2088 0032 3946     		mov	r1, r7
 2089 0034 0422     		movs	r2, #4
 2090 0036 7868     		ldr	r0, [r7, #4]
 2091 0038 9847     		blx	r3
 2092 003a 0346     		mov	r3, r0
 2093 003c 002B     		cmp	r3, #0
 2094 003e 01D0     		beq	.L147
 2095 0040 0123     		movs	r3, #1
 2096 0042 03E0     		b	.L146
 2097              	.L147:
 2098 0044 7B68     		ldr	r3, [r7, #4]
 2099 0046 0F22     		movs	r2, #15
 2100 0048 1A70     		strb	r2, [r3]
 2101 004a 0023     		movs	r3, #0
ARM GAS  /var/folders/d2/nstgp4h54kz7g1l847x_b8wc0000gn/T//ccFI0sM2.s 			page 39


 2102              	.L146:
 2103 004c 1846     		mov	r0, r3
 2104 004e 0837     		adds	r7, r7, #8
 2105 0050 BD46     		mov	sp, r7
 2106              		@ sp needed
 2107 0052 80BD     		pop	{r7, pc}
 2108              		.size	cmp_write_str32_marker, .-cmp_write_str32_marker
 2109              		.section	.text.cmp_write_str32,"ax",%progbits
 2110              		.align	1
 2111              		.global	cmp_write_str32
 2112              		.syntax unified
 2113              		.thumb
 2114              		.thumb_func
 2115              		.fpu fpv4-sp-d16
 2116              		.type	cmp_write_str32, %function
 2117              	cmp_write_str32:
 2118              		@ args = 0, pretend = 0, frame = 16
 2119              		@ frame_needed = 1, uses_anonymous_args = 0
 2120 0000 80B5     		push	{r7, lr}
 2121 0002 84B0     		sub	sp, sp, #16
 2122 0004 00AF     		add	r7, sp, #0
 2123 0006 F860     		str	r0, [r7, #12]
 2124 0008 B960     		str	r1, [r7, #8]
 2125 000a 7A60     		str	r2, [r7, #4]
 2126 000c 7968     		ldr	r1, [r7, #4]
 2127 000e F868     		ldr	r0, [r7, #12]
 2128 0010 FFF7FEFF 		bl	cmp_write_str32_marker
 2129 0014 0346     		mov	r3, r0
 2130 0016 83F00103 		eor	r3, r3, #1
 2131 001a DBB2     		uxtb	r3, r3
 2132 001c 002B     		cmp	r3, #0
 2133 001e 01D0     		beq	.L149
 2134 0020 0023     		movs	r3, #0
 2135 0022 13E0     		b	.L150
 2136              	.L149:
 2137 0024 7B68     		ldr	r3, [r7, #4]
 2138 0026 002B     		cmp	r3, #0
 2139 0028 01D1     		bne	.L151
 2140 002a 0123     		movs	r3, #1
 2141 002c 0EE0     		b	.L150
 2142              	.L151:
 2143 002e FB68     		ldr	r3, [r7, #12]
 2144 0030 DB68     		ldr	r3, [r3, #12]
 2145 0032 7A68     		ldr	r2, [r7, #4]
 2146 0034 B968     		ldr	r1, [r7, #8]
 2147 0036 F868     		ldr	r0, [r7, #12]
 2148 0038 9847     		blx	r3
 2149 003a 0346     		mov	r3, r0
 2150 003c 002B     		cmp	r3, #0
 2151 003e 01D0     		beq	.L152
 2152 0040 0123     		movs	r3, #1
 2153 0042 03E0     		b	.L150
 2154              	.L152:
 2155 0044 FB68     		ldr	r3, [r7, #12]
 2156 0046 0A22     		movs	r2, #10
 2157 0048 1A70     		strb	r2, [r3]
 2158 004a 0023     		movs	r3, #0
ARM GAS  /var/folders/d2/nstgp4h54kz7g1l847x_b8wc0000gn/T//ccFI0sM2.s 			page 40


 2159              	.L150:
 2160 004c 1846     		mov	r0, r3
 2161 004e 1037     		adds	r7, r7, #16
 2162 0050 BD46     		mov	sp, r7
 2163              		@ sp needed
 2164 0052 80BD     		pop	{r7, pc}
 2165              		.size	cmp_write_str32, .-cmp_write_str32
 2166              		.section	.text.cmp_write_str_marker,"ax",%progbits
 2167              		.align	1
 2168              		.global	cmp_write_str_marker
 2169              		.syntax unified
 2170              		.thumb
 2171              		.thumb_func
 2172              		.fpu fpv4-sp-d16
 2173              		.type	cmp_write_str_marker, %function
 2174              	cmp_write_str_marker:
 2175              		@ args = 0, pretend = 0, frame = 8
 2176              		@ frame_needed = 1, uses_anonymous_args = 0
 2177 0000 80B5     		push	{r7, lr}
 2178 0002 82B0     		sub	sp, sp, #8
 2179 0004 00AF     		add	r7, sp, #0
 2180 0006 7860     		str	r0, [r7, #4]
 2181 0008 3960     		str	r1, [r7]
 2182 000a 3B68     		ldr	r3, [r7]
 2183 000c 1F2B     		cmp	r3, #31
 2184 000e 07D8     		bhi	.L154
 2185 0010 3B68     		ldr	r3, [r7]
 2186 0012 DBB2     		uxtb	r3, r3
 2187 0014 1946     		mov	r1, r3
 2188 0016 7868     		ldr	r0, [r7, #4]
 2189 0018 FFF7FEFF 		bl	cmp_write_fixstr_marker
 2190 001c 0346     		mov	r3, r0
 2191 001e 1BE0     		b	.L155
 2192              	.L154:
 2193 0020 3B68     		ldr	r3, [r7]
 2194 0022 FF2B     		cmp	r3, #255
 2195 0024 07D8     		bhi	.L156
 2196 0026 3B68     		ldr	r3, [r7]
 2197 0028 DBB2     		uxtb	r3, r3
 2198 002a 1946     		mov	r1, r3
 2199 002c 7868     		ldr	r0, [r7, #4]
 2200 002e FFF7FEFF 		bl	cmp_write_str8_marker
 2201 0032 0346     		mov	r3, r0
 2202 0034 10E0     		b	.L155
 2203              	.L156:
 2204 0036 3B68     		ldr	r3, [r7]
 2205 0038 B3F5803F 		cmp	r3, #65536
 2206 003c 07D2     		bcs	.L157
 2207 003e 3B68     		ldr	r3, [r7]
 2208 0040 9BB2     		uxth	r3, r3
 2209 0042 1946     		mov	r1, r3
 2210 0044 7868     		ldr	r0, [r7, #4]
 2211 0046 FFF7FEFF 		bl	cmp_write_str16_marker
 2212 004a 0346     		mov	r3, r0
 2213 004c 04E0     		b	.L155
 2214              	.L157:
 2215 004e 3968     		ldr	r1, [r7]
ARM GAS  /var/folders/d2/nstgp4h54kz7g1l847x_b8wc0000gn/T//ccFI0sM2.s 			page 41


 2216 0050 7868     		ldr	r0, [r7, #4]
 2217 0052 FFF7FEFF 		bl	cmp_write_str32_marker
 2218 0056 0346     		mov	r3, r0
 2219              	.L155:
 2220 0058 1846     		mov	r0, r3
 2221 005a 0837     		adds	r7, r7, #8
 2222 005c BD46     		mov	sp, r7
 2223              		@ sp needed
 2224 005e 80BD     		pop	{r7, pc}
 2225              		.size	cmp_write_str_marker, .-cmp_write_str_marker
 2226              		.section	.text.cmp_write_str,"ax",%progbits
 2227              		.align	1
 2228              		.global	cmp_write_str
 2229              		.syntax unified
 2230              		.thumb
 2231              		.thumb_func
 2232              		.fpu fpv4-sp-d16
 2233              		.type	cmp_write_str, %function
 2234              	cmp_write_str:
 2235              		@ args = 0, pretend = 0, frame = 16
 2236              		@ frame_needed = 1, uses_anonymous_args = 0
 2237 0000 80B5     		push	{r7, lr}
 2238 0002 84B0     		sub	sp, sp, #16
 2239 0004 00AF     		add	r7, sp, #0
 2240 0006 F860     		str	r0, [r7, #12]
 2241 0008 B960     		str	r1, [r7, #8]
 2242 000a 7A60     		str	r2, [r7, #4]
 2243 000c 7B68     		ldr	r3, [r7, #4]
 2244 000e 1F2B     		cmp	r3, #31
 2245 0010 08D8     		bhi	.L159
 2246 0012 7B68     		ldr	r3, [r7, #4]
 2247 0014 DBB2     		uxtb	r3, r3
 2248 0016 1A46     		mov	r2, r3
 2249 0018 B968     		ldr	r1, [r7, #8]
 2250 001a F868     		ldr	r0, [r7, #12]
 2251 001c FFF7FEFF 		bl	cmp_write_fixstr
 2252 0020 0346     		mov	r3, r0
 2253 0022 1EE0     		b	.L160
 2254              	.L159:
 2255 0024 7B68     		ldr	r3, [r7, #4]
 2256 0026 FF2B     		cmp	r3, #255
 2257 0028 08D8     		bhi	.L161
 2258 002a 7B68     		ldr	r3, [r7, #4]
 2259 002c DBB2     		uxtb	r3, r3
 2260 002e 1A46     		mov	r2, r3
 2261 0030 B968     		ldr	r1, [r7, #8]
 2262 0032 F868     		ldr	r0, [r7, #12]
 2263 0034 FFF7FEFF 		bl	cmp_write_str8
 2264 0038 0346     		mov	r3, r0
 2265 003a 12E0     		b	.L160
 2266              	.L161:
 2267 003c 7B68     		ldr	r3, [r7, #4]
 2268 003e B3F5803F 		cmp	r3, #65536
 2269 0042 08D2     		bcs	.L162
 2270 0044 7B68     		ldr	r3, [r7, #4]
 2271 0046 9BB2     		uxth	r3, r3
 2272 0048 1A46     		mov	r2, r3
ARM GAS  /var/folders/d2/nstgp4h54kz7g1l847x_b8wc0000gn/T//ccFI0sM2.s 			page 42


 2273 004a B968     		ldr	r1, [r7, #8]
 2274 004c F868     		ldr	r0, [r7, #12]
 2275 004e FFF7FEFF 		bl	cmp_write_str16
 2276 0052 0346     		mov	r3, r0
 2277 0054 05E0     		b	.L160
 2278              	.L162:
 2279 0056 7A68     		ldr	r2, [r7, #4]
 2280 0058 B968     		ldr	r1, [r7, #8]
 2281 005a F868     		ldr	r0, [r7, #12]
 2282 005c FFF7FEFF 		bl	cmp_write_str32
 2283 0060 0346     		mov	r3, r0
 2284              	.L160:
 2285 0062 1846     		mov	r0, r3
 2286 0064 1037     		adds	r7, r7, #16
 2287 0066 BD46     		mov	sp, r7
 2288              		@ sp needed
 2289 0068 80BD     		pop	{r7, pc}
 2290              		.size	cmp_write_str, .-cmp_write_str
 2291              		.section	.text.cmp_write_bin8_marker,"ax",%progbits
 2292              		.align	1
 2293              		.global	cmp_write_bin8_marker
 2294              		.syntax unified
 2295              		.thumb
 2296              		.thumb_func
 2297              		.fpu fpv4-sp-d16
 2298              		.type	cmp_write_bin8_marker, %function
 2299              	cmp_write_bin8_marker:
 2300              		@ args = 0, pretend = 0, frame = 8
 2301              		@ frame_needed = 1, uses_anonymous_args = 0
 2302 0000 80B5     		push	{r7, lr}
 2303 0002 82B0     		sub	sp, sp, #8
 2304 0004 00AF     		add	r7, sp, #0
 2305 0006 7860     		str	r0, [r7, #4]
 2306 0008 0B46     		mov	r3, r1
 2307 000a FB70     		strb	r3, [r7, #3]
 2308 000c C421     		movs	r1, #196
 2309 000e 7868     		ldr	r0, [r7, #4]
 2310 0010 FFF7FEFF 		bl	write_type_marker
 2311 0014 0346     		mov	r3, r0
 2312 0016 83F00103 		eor	r3, r3, #1
 2313 001a DBB2     		uxtb	r3, r3
 2314 001c 002B     		cmp	r3, #0
 2315 001e 01D0     		beq	.L164
 2316 0020 0023     		movs	r3, #0
 2317 0022 0EE0     		b	.L165
 2318              	.L164:
 2319 0024 7B68     		ldr	r3, [r7, #4]
 2320 0026 DB68     		ldr	r3, [r3, #12]
 2321 0028 F91C     		adds	r1, r7, #3
 2322 002a 0122     		movs	r2, #1
 2323 002c 7868     		ldr	r0, [r7, #4]
 2324 002e 9847     		blx	r3
 2325 0030 0346     		mov	r3, r0
 2326 0032 002B     		cmp	r3, #0
 2327 0034 01D0     		beq	.L166
 2328 0036 0123     		movs	r3, #1
 2329 0038 03E0     		b	.L165
ARM GAS  /var/folders/d2/nstgp4h54kz7g1l847x_b8wc0000gn/T//ccFI0sM2.s 			page 43


 2330              	.L166:
 2331 003a 7B68     		ldr	r3, [r7, #4]
 2332 003c 0F22     		movs	r2, #15
 2333 003e 1A70     		strb	r2, [r3]
 2334 0040 0023     		movs	r3, #0
 2335              	.L165:
 2336 0042 1846     		mov	r0, r3
 2337 0044 0837     		adds	r7, r7, #8
 2338 0046 BD46     		mov	sp, r7
 2339              		@ sp needed
 2340 0048 80BD     		pop	{r7, pc}
 2341              		.size	cmp_write_bin8_marker, .-cmp_write_bin8_marker
 2342              		.section	.text.cmp_write_bin8,"ax",%progbits
 2343              		.align	1
 2344              		.global	cmp_write_bin8
 2345              		.syntax unified
 2346              		.thumb
 2347              		.thumb_func
 2348              		.fpu fpv4-sp-d16
 2349              		.type	cmp_write_bin8, %function
 2350              	cmp_write_bin8:
 2351              		@ args = 0, pretend = 0, frame = 16
 2352              		@ frame_needed = 1, uses_anonymous_args = 0
 2353 0000 80B5     		push	{r7, lr}
 2354 0002 84B0     		sub	sp, sp, #16
 2355 0004 00AF     		add	r7, sp, #0
 2356 0006 F860     		str	r0, [r7, #12]
 2357 0008 B960     		str	r1, [r7, #8]
 2358 000a 1346     		mov	r3, r2
 2359 000c FB71     		strb	r3, [r7, #7]
 2360 000e FB79     		ldrb	r3, [r7, #7]	@ zero_extendqisi2
 2361 0010 1946     		mov	r1, r3
 2362 0012 F868     		ldr	r0, [r7, #12]
 2363 0014 FFF7FEFF 		bl	cmp_write_bin8_marker
 2364 0018 0346     		mov	r3, r0
 2365 001a 83F00103 		eor	r3, r3, #1
 2366 001e DBB2     		uxtb	r3, r3
 2367 0020 002B     		cmp	r3, #0
 2368 0022 01D0     		beq	.L168
 2369 0024 0023     		movs	r3, #0
 2370 0026 13E0     		b	.L169
 2371              	.L168:
 2372 0028 FB79     		ldrb	r3, [r7, #7]	@ zero_extendqisi2
 2373 002a 002B     		cmp	r3, #0
 2374 002c 01D1     		bne	.L170
 2375 002e 0123     		movs	r3, #1
 2376 0030 0EE0     		b	.L169
 2377              	.L170:
 2378 0032 FB68     		ldr	r3, [r7, #12]
 2379 0034 DB68     		ldr	r3, [r3, #12]
 2380 0036 FA79     		ldrb	r2, [r7, #7]	@ zero_extendqisi2
 2381 0038 B968     		ldr	r1, [r7, #8]
 2382 003a F868     		ldr	r0, [r7, #12]
 2383 003c 9847     		blx	r3
 2384 003e 0346     		mov	r3, r0
 2385 0040 002B     		cmp	r3, #0
 2386 0042 01D0     		beq	.L171
ARM GAS  /var/folders/d2/nstgp4h54kz7g1l847x_b8wc0000gn/T//ccFI0sM2.s 			page 44


 2387 0044 0123     		movs	r3, #1
 2388 0046 03E0     		b	.L169
 2389              	.L171:
 2390 0048 FB68     		ldr	r3, [r7, #12]
 2391 004a 0A22     		movs	r2, #10
 2392 004c 1A70     		strb	r2, [r3]
 2393 004e 0023     		movs	r3, #0
 2394              	.L169:
 2395 0050 1846     		mov	r0, r3
 2396 0052 1037     		adds	r7, r7, #16
 2397 0054 BD46     		mov	sp, r7
 2398              		@ sp needed
 2399 0056 80BD     		pop	{r7, pc}
 2400              		.size	cmp_write_bin8, .-cmp_write_bin8
 2401              		.section	.text.cmp_write_bin16_marker,"ax",%progbits
 2402              		.align	1
 2403              		.global	cmp_write_bin16_marker
 2404              		.syntax unified
 2405              		.thumb
 2406              		.thumb_func
 2407              		.fpu fpv4-sp-d16
 2408              		.type	cmp_write_bin16_marker, %function
 2409              	cmp_write_bin16_marker:
 2410              		@ args = 0, pretend = 0, frame = 8
 2411              		@ frame_needed = 1, uses_anonymous_args = 0
 2412 0000 80B5     		push	{r7, lr}
 2413 0002 82B0     		sub	sp, sp, #8
 2414 0004 00AF     		add	r7, sp, #0
 2415 0006 7860     		str	r0, [r7, #4]
 2416 0008 0B46     		mov	r3, r1
 2417 000a 7B80     		strh	r3, [r7, #2]	@ movhi
 2418 000c C521     		movs	r1, #197
 2419 000e 7868     		ldr	r0, [r7, #4]
 2420 0010 FFF7FEFF 		bl	write_type_marker
 2421 0014 0346     		mov	r3, r0
 2422 0016 83F00103 		eor	r3, r3, #1
 2423 001a DBB2     		uxtb	r3, r3
 2424 001c 002B     		cmp	r3, #0
 2425 001e 01D0     		beq	.L173
 2426 0020 0023     		movs	r3, #0
 2427 0022 14E0     		b	.L174
 2428              	.L173:
 2429 0024 7B88     		ldrh	r3, [r7, #2]
 2430 0026 1846     		mov	r0, r3
 2431 0028 FFF7FEFF 		bl	be16
 2432 002c 0346     		mov	r3, r0
 2433 002e 7B80     		strh	r3, [r7, #2]	@ movhi
 2434 0030 7B68     		ldr	r3, [r7, #4]
 2435 0032 DB68     		ldr	r3, [r3, #12]
 2436 0034 B91C     		adds	r1, r7, #2
 2437 0036 0222     		movs	r2, #2
 2438 0038 7868     		ldr	r0, [r7, #4]
 2439 003a 9847     		blx	r3
 2440 003c 0346     		mov	r3, r0
 2441 003e 002B     		cmp	r3, #0
 2442 0040 01D0     		beq	.L175
 2443 0042 0123     		movs	r3, #1
ARM GAS  /var/folders/d2/nstgp4h54kz7g1l847x_b8wc0000gn/T//ccFI0sM2.s 			page 45


 2444 0044 03E0     		b	.L174
 2445              	.L175:
 2446 0046 7B68     		ldr	r3, [r7, #4]
 2447 0048 0F22     		movs	r2, #15
 2448 004a 1A70     		strb	r2, [r3]
 2449 004c 0023     		movs	r3, #0
 2450              	.L174:
 2451 004e 1846     		mov	r0, r3
 2452 0050 0837     		adds	r7, r7, #8
 2453 0052 BD46     		mov	sp, r7
 2454              		@ sp needed
 2455 0054 80BD     		pop	{r7, pc}
 2456              		.size	cmp_write_bin16_marker, .-cmp_write_bin16_marker
 2457              		.section	.text.cmp_write_bin16,"ax",%progbits
 2458              		.align	1
 2459              		.global	cmp_write_bin16
 2460              		.syntax unified
 2461              		.thumb
 2462              		.thumb_func
 2463              		.fpu fpv4-sp-d16
 2464              		.type	cmp_write_bin16, %function
 2465              	cmp_write_bin16:
 2466              		@ args = 0, pretend = 0, frame = 16
 2467              		@ frame_needed = 1, uses_anonymous_args = 0
 2468 0000 80B5     		push	{r7, lr}
 2469 0002 84B0     		sub	sp, sp, #16
 2470 0004 00AF     		add	r7, sp, #0
 2471 0006 F860     		str	r0, [r7, #12]
 2472 0008 B960     		str	r1, [r7, #8]
 2473 000a 1346     		mov	r3, r2
 2474 000c FB80     		strh	r3, [r7, #6]	@ movhi
 2475 000e FB88     		ldrh	r3, [r7, #6]
 2476 0010 1946     		mov	r1, r3
 2477 0012 F868     		ldr	r0, [r7, #12]
 2478 0014 FFF7FEFF 		bl	cmp_write_bin16_marker
 2479 0018 0346     		mov	r3, r0
 2480 001a 83F00103 		eor	r3, r3, #1
 2481 001e DBB2     		uxtb	r3, r3
 2482 0020 002B     		cmp	r3, #0
 2483 0022 01D0     		beq	.L177
 2484 0024 0023     		movs	r3, #0
 2485 0026 13E0     		b	.L178
 2486              	.L177:
 2487 0028 FB88     		ldrh	r3, [r7, #6]
 2488 002a 002B     		cmp	r3, #0
 2489 002c 01D1     		bne	.L179
 2490 002e 0123     		movs	r3, #1
 2491 0030 0EE0     		b	.L178
 2492              	.L179:
 2493 0032 FB68     		ldr	r3, [r7, #12]
 2494 0034 DB68     		ldr	r3, [r3, #12]
 2495 0036 FA88     		ldrh	r2, [r7, #6]
 2496 0038 B968     		ldr	r1, [r7, #8]
 2497 003a F868     		ldr	r0, [r7, #12]
 2498 003c 9847     		blx	r3
 2499 003e 0346     		mov	r3, r0
 2500 0040 002B     		cmp	r3, #0
ARM GAS  /var/folders/d2/nstgp4h54kz7g1l847x_b8wc0000gn/T//ccFI0sM2.s 			page 46


 2501 0042 01D0     		beq	.L180
 2502 0044 0123     		movs	r3, #1
 2503 0046 03E0     		b	.L178
 2504              	.L180:
 2505 0048 FB68     		ldr	r3, [r7, #12]
 2506 004a 0A22     		movs	r2, #10
 2507 004c 1A70     		strb	r2, [r3]
 2508 004e 0023     		movs	r3, #0
 2509              	.L178:
 2510 0050 1846     		mov	r0, r3
 2511 0052 1037     		adds	r7, r7, #16
 2512 0054 BD46     		mov	sp, r7
 2513              		@ sp needed
 2514 0056 80BD     		pop	{r7, pc}
 2515              		.size	cmp_write_bin16, .-cmp_write_bin16
 2516              		.section	.text.cmp_write_bin32_marker,"ax",%progbits
 2517              		.align	1
 2518              		.global	cmp_write_bin32_marker
 2519              		.syntax unified
 2520              		.thumb
 2521              		.thumb_func
 2522              		.fpu fpv4-sp-d16
 2523              		.type	cmp_write_bin32_marker, %function
 2524              	cmp_write_bin32_marker:
 2525              		@ args = 0, pretend = 0, frame = 8
 2526              		@ frame_needed = 1, uses_anonymous_args = 0
 2527 0000 80B5     		push	{r7, lr}
 2528 0002 82B0     		sub	sp, sp, #8
 2529 0004 00AF     		add	r7, sp, #0
 2530 0006 7860     		str	r0, [r7, #4]
 2531 0008 3960     		str	r1, [r7]
 2532 000a C621     		movs	r1, #198
 2533 000c 7868     		ldr	r0, [r7, #4]
 2534 000e FFF7FEFF 		bl	write_type_marker
 2535 0012 0346     		mov	r3, r0
 2536 0014 83F00103 		eor	r3, r3, #1
 2537 0018 DBB2     		uxtb	r3, r3
 2538 001a 002B     		cmp	r3, #0
 2539 001c 01D0     		beq	.L182
 2540 001e 0023     		movs	r3, #0
 2541 0020 14E0     		b	.L183
 2542              	.L182:
 2543 0022 3B68     		ldr	r3, [r7]
 2544 0024 1846     		mov	r0, r3
 2545 0026 FFF7FEFF 		bl	be32
 2546 002a 0346     		mov	r3, r0
 2547 002c 3B60     		str	r3, [r7]
 2548 002e 7B68     		ldr	r3, [r7, #4]
 2549 0030 DB68     		ldr	r3, [r3, #12]
 2550 0032 3946     		mov	r1, r7
 2551 0034 0422     		movs	r2, #4
 2552 0036 7868     		ldr	r0, [r7, #4]
 2553 0038 9847     		blx	r3
 2554 003a 0346     		mov	r3, r0
 2555 003c 002B     		cmp	r3, #0
 2556 003e 01D0     		beq	.L184
 2557 0040 0123     		movs	r3, #1
ARM GAS  /var/folders/d2/nstgp4h54kz7g1l847x_b8wc0000gn/T//ccFI0sM2.s 			page 47


 2558 0042 03E0     		b	.L183
 2559              	.L184:
 2560 0044 7B68     		ldr	r3, [r7, #4]
 2561 0046 0F22     		movs	r2, #15
 2562 0048 1A70     		strb	r2, [r3]
 2563 004a 0023     		movs	r3, #0
 2564              	.L183:
 2565 004c 1846     		mov	r0, r3
 2566 004e 0837     		adds	r7, r7, #8
 2567 0050 BD46     		mov	sp, r7
 2568              		@ sp needed
 2569 0052 80BD     		pop	{r7, pc}
 2570              		.size	cmp_write_bin32_marker, .-cmp_write_bin32_marker
 2571              		.section	.text.cmp_write_bin32,"ax",%progbits
 2572              		.align	1
 2573              		.global	cmp_write_bin32
 2574              		.syntax unified
 2575              		.thumb
 2576              		.thumb_func
 2577              		.fpu fpv4-sp-d16
 2578              		.type	cmp_write_bin32, %function
 2579              	cmp_write_bin32:
 2580              		@ args = 0, pretend = 0, frame = 16
 2581              		@ frame_needed = 1, uses_anonymous_args = 0
 2582 0000 80B5     		push	{r7, lr}
 2583 0002 84B0     		sub	sp, sp, #16
 2584 0004 00AF     		add	r7, sp, #0
 2585 0006 F860     		str	r0, [r7, #12]
 2586 0008 B960     		str	r1, [r7, #8]
 2587 000a 7A60     		str	r2, [r7, #4]
 2588 000c 7968     		ldr	r1, [r7, #4]
 2589 000e F868     		ldr	r0, [r7, #12]
 2590 0010 FFF7FEFF 		bl	cmp_write_bin32_marker
 2591 0014 0346     		mov	r3, r0
 2592 0016 83F00103 		eor	r3, r3, #1
 2593 001a DBB2     		uxtb	r3, r3
 2594 001c 002B     		cmp	r3, #0
 2595 001e 01D0     		beq	.L186
 2596 0020 0023     		movs	r3, #0
 2597 0022 13E0     		b	.L187
 2598              	.L186:
 2599 0024 7B68     		ldr	r3, [r7, #4]
 2600 0026 002B     		cmp	r3, #0
 2601 0028 01D1     		bne	.L188
 2602 002a 0123     		movs	r3, #1
 2603 002c 0EE0     		b	.L187
 2604              	.L188:
 2605 002e FB68     		ldr	r3, [r7, #12]
 2606 0030 DB68     		ldr	r3, [r3, #12]
 2607 0032 7A68     		ldr	r2, [r7, #4]
 2608 0034 B968     		ldr	r1, [r7, #8]
 2609 0036 F868     		ldr	r0, [r7, #12]
 2610 0038 9847     		blx	r3
 2611 003a 0346     		mov	r3, r0
 2612 003c 002B     		cmp	r3, #0
 2613 003e 01D0     		beq	.L189
 2614 0040 0123     		movs	r3, #1
ARM GAS  /var/folders/d2/nstgp4h54kz7g1l847x_b8wc0000gn/T//ccFI0sM2.s 			page 48


 2615 0042 03E0     		b	.L187
 2616              	.L189:
 2617 0044 FB68     		ldr	r3, [r7, #12]
 2618 0046 0A22     		movs	r2, #10
 2619 0048 1A70     		strb	r2, [r3]
 2620 004a 0023     		movs	r3, #0
 2621              	.L187:
 2622 004c 1846     		mov	r0, r3
 2623 004e 1037     		adds	r7, r7, #16
 2624 0050 BD46     		mov	sp, r7
 2625              		@ sp needed
 2626 0052 80BD     		pop	{r7, pc}
 2627              		.size	cmp_write_bin32, .-cmp_write_bin32
 2628              		.section	.text.cmp_write_bin_marker,"ax",%progbits
 2629              		.align	1
 2630              		.global	cmp_write_bin_marker
 2631              		.syntax unified
 2632              		.thumb
 2633              		.thumb_func
 2634              		.fpu fpv4-sp-d16
 2635              		.type	cmp_write_bin_marker, %function
 2636              	cmp_write_bin_marker:
 2637              		@ args = 0, pretend = 0, frame = 8
 2638              		@ frame_needed = 1, uses_anonymous_args = 0
 2639 0000 80B5     		push	{r7, lr}
 2640 0002 82B0     		sub	sp, sp, #8
 2641 0004 00AF     		add	r7, sp, #0
 2642 0006 7860     		str	r0, [r7, #4]
 2643 0008 3960     		str	r1, [r7]
 2644 000a 3B68     		ldr	r3, [r7]
 2645 000c FF2B     		cmp	r3, #255
 2646 000e 07D8     		bhi	.L191
 2647 0010 3B68     		ldr	r3, [r7]
 2648 0012 DBB2     		uxtb	r3, r3
 2649 0014 1946     		mov	r1, r3
 2650 0016 7868     		ldr	r0, [r7, #4]
 2651 0018 FFF7FEFF 		bl	cmp_write_bin8_marker
 2652 001c 0346     		mov	r3, r0
 2653 001e 10E0     		b	.L192
 2654              	.L191:
 2655 0020 3B68     		ldr	r3, [r7]
 2656 0022 B3F5803F 		cmp	r3, #65536
 2657 0026 07D2     		bcs	.L193
 2658 0028 3B68     		ldr	r3, [r7]
 2659 002a 9BB2     		uxth	r3, r3
 2660 002c 1946     		mov	r1, r3
 2661 002e 7868     		ldr	r0, [r7, #4]
 2662 0030 FFF7FEFF 		bl	cmp_write_bin16_marker
 2663 0034 0346     		mov	r3, r0
 2664 0036 04E0     		b	.L192
 2665              	.L193:
 2666 0038 3968     		ldr	r1, [r7]
 2667 003a 7868     		ldr	r0, [r7, #4]
 2668 003c FFF7FEFF 		bl	cmp_write_bin32_marker
 2669 0040 0346     		mov	r3, r0
 2670              	.L192:
 2671 0042 1846     		mov	r0, r3
ARM GAS  /var/folders/d2/nstgp4h54kz7g1l847x_b8wc0000gn/T//ccFI0sM2.s 			page 49


 2672 0044 0837     		adds	r7, r7, #8
 2673 0046 BD46     		mov	sp, r7
 2674              		@ sp needed
 2675 0048 80BD     		pop	{r7, pc}
 2676              		.size	cmp_write_bin_marker, .-cmp_write_bin_marker
 2677              		.section	.text.cmp_write_bin,"ax",%progbits
 2678              		.align	1
 2679              		.global	cmp_write_bin
 2680              		.syntax unified
 2681              		.thumb
 2682              		.thumb_func
 2683              		.fpu fpv4-sp-d16
 2684              		.type	cmp_write_bin, %function
 2685              	cmp_write_bin:
 2686              		@ args = 0, pretend = 0, frame = 16
 2687              		@ frame_needed = 1, uses_anonymous_args = 0
 2688 0000 80B5     		push	{r7, lr}
 2689 0002 84B0     		sub	sp, sp, #16
 2690 0004 00AF     		add	r7, sp, #0
 2691 0006 F860     		str	r0, [r7, #12]
 2692 0008 B960     		str	r1, [r7, #8]
 2693 000a 7A60     		str	r2, [r7, #4]
 2694 000c 7B68     		ldr	r3, [r7, #4]
 2695 000e FF2B     		cmp	r3, #255
 2696 0010 08D8     		bhi	.L195
 2697 0012 7B68     		ldr	r3, [r7, #4]
 2698 0014 DBB2     		uxtb	r3, r3
 2699 0016 1A46     		mov	r2, r3
 2700 0018 B968     		ldr	r1, [r7, #8]
 2701 001a F868     		ldr	r0, [r7, #12]
 2702 001c FFF7FEFF 		bl	cmp_write_bin8
 2703 0020 0346     		mov	r3, r0
 2704 0022 12E0     		b	.L196
 2705              	.L195:
 2706 0024 7B68     		ldr	r3, [r7, #4]
 2707 0026 B3F5803F 		cmp	r3, #65536
 2708 002a 08D2     		bcs	.L197
 2709 002c 7B68     		ldr	r3, [r7, #4]
 2710 002e 9BB2     		uxth	r3, r3
 2711 0030 1A46     		mov	r2, r3
 2712 0032 B968     		ldr	r1, [r7, #8]
 2713 0034 F868     		ldr	r0, [r7, #12]
 2714 0036 FFF7FEFF 		bl	cmp_write_bin16
 2715 003a 0346     		mov	r3, r0
 2716 003c 05E0     		b	.L196
 2717              	.L197:
 2718 003e 7A68     		ldr	r2, [r7, #4]
 2719 0040 B968     		ldr	r1, [r7, #8]
 2720 0042 F868     		ldr	r0, [r7, #12]
 2721 0044 FFF7FEFF 		bl	cmp_write_bin32
 2722 0048 0346     		mov	r3, r0
 2723              	.L196:
 2724 004a 1846     		mov	r0, r3
 2725 004c 1037     		adds	r7, r7, #16
 2726 004e BD46     		mov	sp, r7
 2727              		@ sp needed
 2728 0050 80BD     		pop	{r7, pc}
ARM GAS  /var/folders/d2/nstgp4h54kz7g1l847x_b8wc0000gn/T//ccFI0sM2.s 			page 50


 2729              		.size	cmp_write_bin, .-cmp_write_bin
 2730              		.section	.text.cmp_write_fixarray,"ax",%progbits
 2731              		.align	1
 2732              		.global	cmp_write_fixarray
 2733              		.syntax unified
 2734              		.thumb
 2735              		.thumb_func
 2736              		.fpu fpv4-sp-d16
 2737              		.type	cmp_write_fixarray, %function
 2738              	cmp_write_fixarray:
 2739              		@ args = 0, pretend = 0, frame = 8
 2740              		@ frame_needed = 1, uses_anonymous_args = 0
 2741 0000 80B5     		push	{r7, lr}
 2742 0002 82B0     		sub	sp, sp, #8
 2743 0004 00AF     		add	r7, sp, #0
 2744 0006 7860     		str	r0, [r7, #4]
 2745 0008 0B46     		mov	r3, r1
 2746 000a FB70     		strb	r3, [r7, #3]
 2747 000c FB78     		ldrb	r3, [r7, #3]	@ zero_extendqisi2
 2748 000e 0F2B     		cmp	r3, #15
 2749 0010 09D8     		bhi	.L199
 2750 0012 FB78     		ldrb	r3, [r7, #3]
 2751 0014 63F06F03 		orn	r3, r3, #111
 2752 0018 DBB2     		uxtb	r3, r3
 2753 001a 1946     		mov	r1, r3
 2754 001c 7868     		ldr	r0, [r7, #4]
 2755 001e FFF7FEFF 		bl	write_fixed_value
 2756 0022 0346     		mov	r3, r0
 2757 0024 03E0     		b	.L200
 2758              	.L199:
 2759 0026 7B68     		ldr	r3, [r7, #4]
 2760 0028 0522     		movs	r2, #5
 2761 002a 1A70     		strb	r2, [r3]
 2762 002c 0023     		movs	r3, #0
 2763              	.L200:
 2764 002e 1846     		mov	r0, r3
 2765 0030 0837     		adds	r7, r7, #8
 2766 0032 BD46     		mov	sp, r7
 2767              		@ sp needed
 2768 0034 80BD     		pop	{r7, pc}
 2769              		.size	cmp_write_fixarray, .-cmp_write_fixarray
 2770              		.section	.text.cmp_write_array16,"ax",%progbits
 2771              		.align	1
 2772              		.global	cmp_write_array16
 2773              		.syntax unified
 2774              		.thumb
 2775              		.thumb_func
 2776              		.fpu fpv4-sp-d16
 2777              		.type	cmp_write_array16, %function
 2778              	cmp_write_array16:
 2779              		@ args = 0, pretend = 0, frame = 8
 2780              		@ frame_needed = 1, uses_anonymous_args = 0
 2781 0000 80B5     		push	{r7, lr}
 2782 0002 82B0     		sub	sp, sp, #8
 2783 0004 00AF     		add	r7, sp, #0
 2784 0006 7860     		str	r0, [r7, #4]
 2785 0008 0B46     		mov	r3, r1
ARM GAS  /var/folders/d2/nstgp4h54kz7g1l847x_b8wc0000gn/T//ccFI0sM2.s 			page 51


 2786 000a 7B80     		strh	r3, [r7, #2]	@ movhi
 2787 000c DC21     		movs	r1, #220
 2788 000e 7868     		ldr	r0, [r7, #4]
 2789 0010 FFF7FEFF 		bl	write_type_marker
 2790 0014 0346     		mov	r3, r0
 2791 0016 83F00103 		eor	r3, r3, #1
 2792 001a DBB2     		uxtb	r3, r3
 2793 001c 002B     		cmp	r3, #0
 2794 001e 01D0     		beq	.L202
 2795 0020 0023     		movs	r3, #0
 2796 0022 14E0     		b	.L203
 2797              	.L202:
 2798 0024 7B88     		ldrh	r3, [r7, #2]
 2799 0026 1846     		mov	r0, r3
 2800 0028 FFF7FEFF 		bl	be16
 2801 002c 0346     		mov	r3, r0
 2802 002e 7B80     		strh	r3, [r7, #2]	@ movhi
 2803 0030 7B68     		ldr	r3, [r7, #4]
 2804 0032 DB68     		ldr	r3, [r3, #12]
 2805 0034 B91C     		adds	r1, r7, #2
 2806 0036 0222     		movs	r2, #2
 2807 0038 7868     		ldr	r0, [r7, #4]
 2808 003a 9847     		blx	r3
 2809 003c 0346     		mov	r3, r0
 2810 003e 002B     		cmp	r3, #0
 2811 0040 01D0     		beq	.L204
 2812 0042 0123     		movs	r3, #1
 2813 0044 03E0     		b	.L203
 2814              	.L204:
 2815 0046 7B68     		ldr	r3, [r7, #4]
 2816 0048 0F22     		movs	r2, #15
 2817 004a 1A70     		strb	r2, [r3]
 2818 004c 0023     		movs	r3, #0
 2819              	.L203:
 2820 004e 1846     		mov	r0, r3
 2821 0050 0837     		adds	r7, r7, #8
 2822 0052 BD46     		mov	sp, r7
 2823              		@ sp needed
 2824 0054 80BD     		pop	{r7, pc}
 2825              		.size	cmp_write_array16, .-cmp_write_array16
 2826              		.section	.text.cmp_write_array32,"ax",%progbits
 2827              		.align	1
 2828              		.global	cmp_write_array32
 2829              		.syntax unified
 2830              		.thumb
 2831              		.thumb_func
 2832              		.fpu fpv4-sp-d16
 2833              		.type	cmp_write_array32, %function
 2834              	cmp_write_array32:
 2835              		@ args = 0, pretend = 0, frame = 8
 2836              		@ frame_needed = 1, uses_anonymous_args = 0
 2837 0000 80B5     		push	{r7, lr}
 2838 0002 82B0     		sub	sp, sp, #8
 2839 0004 00AF     		add	r7, sp, #0
 2840 0006 7860     		str	r0, [r7, #4]
 2841 0008 3960     		str	r1, [r7]
 2842 000a DD21     		movs	r1, #221
ARM GAS  /var/folders/d2/nstgp4h54kz7g1l847x_b8wc0000gn/T//ccFI0sM2.s 			page 52


 2843 000c 7868     		ldr	r0, [r7, #4]
 2844 000e FFF7FEFF 		bl	write_type_marker
 2845 0012 0346     		mov	r3, r0
 2846 0014 83F00103 		eor	r3, r3, #1
 2847 0018 DBB2     		uxtb	r3, r3
 2848 001a 002B     		cmp	r3, #0
 2849 001c 01D0     		beq	.L206
 2850 001e 0023     		movs	r3, #0
 2851 0020 14E0     		b	.L207
 2852              	.L206:
 2853 0022 3B68     		ldr	r3, [r7]
 2854 0024 1846     		mov	r0, r3
 2855 0026 FFF7FEFF 		bl	be32
 2856 002a 0346     		mov	r3, r0
 2857 002c 3B60     		str	r3, [r7]
 2858 002e 7B68     		ldr	r3, [r7, #4]
 2859 0030 DB68     		ldr	r3, [r3, #12]
 2860 0032 3946     		mov	r1, r7
 2861 0034 0422     		movs	r2, #4
 2862 0036 7868     		ldr	r0, [r7, #4]
 2863 0038 9847     		blx	r3
 2864 003a 0346     		mov	r3, r0
 2865 003c 002B     		cmp	r3, #0
 2866 003e 01D0     		beq	.L208
 2867 0040 0123     		movs	r3, #1
 2868 0042 03E0     		b	.L207
 2869              	.L208:
 2870 0044 7B68     		ldr	r3, [r7, #4]
 2871 0046 0F22     		movs	r2, #15
 2872 0048 1A70     		strb	r2, [r3]
 2873 004a 0023     		movs	r3, #0
 2874              	.L207:
 2875 004c 1846     		mov	r0, r3
 2876 004e 0837     		adds	r7, r7, #8
 2877 0050 BD46     		mov	sp, r7
 2878              		@ sp needed
 2879 0052 80BD     		pop	{r7, pc}
 2880              		.size	cmp_write_array32, .-cmp_write_array32
 2881              		.section	.text.cmp_write_array,"ax",%progbits
 2882              		.align	1
 2883              		.global	cmp_write_array
 2884              		.syntax unified
 2885              		.thumb
 2886              		.thumb_func
 2887              		.fpu fpv4-sp-d16
 2888              		.type	cmp_write_array, %function
 2889              	cmp_write_array:
 2890              		@ args = 0, pretend = 0, frame = 8
 2891              		@ frame_needed = 1, uses_anonymous_args = 0
 2892 0000 80B5     		push	{r7, lr}
 2893 0002 82B0     		sub	sp, sp, #8
 2894 0004 00AF     		add	r7, sp, #0
 2895 0006 7860     		str	r0, [r7, #4]
 2896 0008 3960     		str	r1, [r7]
 2897 000a 3B68     		ldr	r3, [r7]
 2898 000c 0F2B     		cmp	r3, #15
 2899 000e 07D8     		bhi	.L210
ARM GAS  /var/folders/d2/nstgp4h54kz7g1l847x_b8wc0000gn/T//ccFI0sM2.s 			page 53


 2900 0010 3B68     		ldr	r3, [r7]
 2901 0012 DBB2     		uxtb	r3, r3
 2902 0014 1946     		mov	r1, r3
 2903 0016 7868     		ldr	r0, [r7, #4]
 2904 0018 FFF7FEFF 		bl	cmp_write_fixarray
 2905 001c 0346     		mov	r3, r0
 2906 001e 10E0     		b	.L211
 2907              	.L210:
 2908 0020 3B68     		ldr	r3, [r7]
 2909 0022 B3F5803F 		cmp	r3, #65536
 2910 0026 07D2     		bcs	.L212
 2911 0028 3B68     		ldr	r3, [r7]
 2912 002a 9BB2     		uxth	r3, r3
 2913 002c 1946     		mov	r1, r3
 2914 002e 7868     		ldr	r0, [r7, #4]
 2915 0030 FFF7FEFF 		bl	cmp_write_array16
 2916 0034 0346     		mov	r3, r0
 2917 0036 04E0     		b	.L211
 2918              	.L212:
 2919 0038 3968     		ldr	r1, [r7]
 2920 003a 7868     		ldr	r0, [r7, #4]
 2921 003c FFF7FEFF 		bl	cmp_write_array32
 2922 0040 0346     		mov	r3, r0
 2923              	.L211:
 2924 0042 1846     		mov	r0, r3
 2925 0044 0837     		adds	r7, r7, #8
 2926 0046 BD46     		mov	sp, r7
 2927              		@ sp needed
 2928 0048 80BD     		pop	{r7, pc}
 2929              		.size	cmp_write_array, .-cmp_write_array
 2930              		.section	.text.cmp_write_fixmap,"ax",%progbits
 2931              		.align	1
 2932              		.global	cmp_write_fixmap
 2933              		.syntax unified
 2934              		.thumb
 2935              		.thumb_func
 2936              		.fpu fpv4-sp-d16
 2937              		.type	cmp_write_fixmap, %function
 2938              	cmp_write_fixmap:
 2939              		@ args = 0, pretend = 0, frame = 8
 2940              		@ frame_needed = 1, uses_anonymous_args = 0
 2941 0000 80B5     		push	{r7, lr}
 2942 0002 82B0     		sub	sp, sp, #8
 2943 0004 00AF     		add	r7, sp, #0
 2944 0006 7860     		str	r0, [r7, #4]
 2945 0008 0B46     		mov	r3, r1
 2946 000a FB70     		strb	r3, [r7, #3]
 2947 000c FB78     		ldrb	r3, [r7, #3]	@ zero_extendqisi2
 2948 000e 0F2B     		cmp	r3, #15
 2949 0010 09D8     		bhi	.L214
 2950 0012 FB78     		ldrb	r3, [r7, #3]
 2951 0014 63F07F03 		orn	r3, r3, #127
 2952 0018 DBB2     		uxtb	r3, r3
 2953 001a 1946     		mov	r1, r3
 2954 001c 7868     		ldr	r0, [r7, #4]
 2955 001e FFF7FEFF 		bl	write_fixed_value
 2956 0022 0346     		mov	r3, r0
ARM GAS  /var/folders/d2/nstgp4h54kz7g1l847x_b8wc0000gn/T//ccFI0sM2.s 			page 54


 2957 0024 03E0     		b	.L215
 2958              	.L214:
 2959 0026 7B68     		ldr	r3, [r7, #4]
 2960 0028 0522     		movs	r2, #5
 2961 002a 1A70     		strb	r2, [r3]
 2962 002c 0023     		movs	r3, #0
 2963              	.L215:
 2964 002e 1846     		mov	r0, r3
 2965 0030 0837     		adds	r7, r7, #8
 2966 0032 BD46     		mov	sp, r7
 2967              		@ sp needed
 2968 0034 80BD     		pop	{r7, pc}
 2969              		.size	cmp_write_fixmap, .-cmp_write_fixmap
 2970              		.section	.text.cmp_write_map16,"ax",%progbits
 2971              		.align	1
 2972              		.global	cmp_write_map16
 2973              		.syntax unified
 2974              		.thumb
 2975              		.thumb_func
 2976              		.fpu fpv4-sp-d16
 2977              		.type	cmp_write_map16, %function
 2978              	cmp_write_map16:
 2979              		@ args = 0, pretend = 0, frame = 8
 2980              		@ frame_needed = 1, uses_anonymous_args = 0
 2981 0000 80B5     		push	{r7, lr}
 2982 0002 82B0     		sub	sp, sp, #8
 2983 0004 00AF     		add	r7, sp, #0
 2984 0006 7860     		str	r0, [r7, #4]
 2985 0008 0B46     		mov	r3, r1
 2986 000a 7B80     		strh	r3, [r7, #2]	@ movhi
 2987 000c DE21     		movs	r1, #222
 2988 000e 7868     		ldr	r0, [r7, #4]
 2989 0010 FFF7FEFF 		bl	write_type_marker
 2990 0014 0346     		mov	r3, r0
 2991 0016 83F00103 		eor	r3, r3, #1
 2992 001a DBB2     		uxtb	r3, r3
 2993 001c 002B     		cmp	r3, #0
 2994 001e 01D0     		beq	.L217
 2995 0020 0023     		movs	r3, #0
 2996 0022 14E0     		b	.L218
 2997              	.L217:
 2998 0024 7B88     		ldrh	r3, [r7, #2]
 2999 0026 1846     		mov	r0, r3
 3000 0028 FFF7FEFF 		bl	be16
 3001 002c 0346     		mov	r3, r0
 3002 002e 7B80     		strh	r3, [r7, #2]	@ movhi
 3003 0030 7B68     		ldr	r3, [r7, #4]
 3004 0032 DB68     		ldr	r3, [r3, #12]
 3005 0034 B91C     		adds	r1, r7, #2
 3006 0036 0222     		movs	r2, #2
 3007 0038 7868     		ldr	r0, [r7, #4]
 3008 003a 9847     		blx	r3
 3009 003c 0346     		mov	r3, r0
 3010 003e 002B     		cmp	r3, #0
 3011 0040 01D0     		beq	.L219
 3012 0042 0123     		movs	r3, #1
 3013 0044 03E0     		b	.L218
ARM GAS  /var/folders/d2/nstgp4h54kz7g1l847x_b8wc0000gn/T//ccFI0sM2.s 			page 55


 3014              	.L219:
 3015 0046 7B68     		ldr	r3, [r7, #4]
 3016 0048 0F22     		movs	r2, #15
 3017 004a 1A70     		strb	r2, [r3]
 3018 004c 0023     		movs	r3, #0
 3019              	.L218:
 3020 004e 1846     		mov	r0, r3
 3021 0050 0837     		adds	r7, r7, #8
 3022 0052 BD46     		mov	sp, r7
 3023              		@ sp needed
 3024 0054 80BD     		pop	{r7, pc}
 3025              		.size	cmp_write_map16, .-cmp_write_map16
 3026              		.section	.text.cmp_write_map32,"ax",%progbits
 3027              		.align	1
 3028              		.global	cmp_write_map32
 3029              		.syntax unified
 3030              		.thumb
 3031              		.thumb_func
 3032              		.fpu fpv4-sp-d16
 3033              		.type	cmp_write_map32, %function
 3034              	cmp_write_map32:
 3035              		@ args = 0, pretend = 0, frame = 8
 3036              		@ frame_needed = 1, uses_anonymous_args = 0
 3037 0000 80B5     		push	{r7, lr}
 3038 0002 82B0     		sub	sp, sp, #8
 3039 0004 00AF     		add	r7, sp, #0
 3040 0006 7860     		str	r0, [r7, #4]
 3041 0008 3960     		str	r1, [r7]
 3042 000a DF21     		movs	r1, #223
 3043 000c 7868     		ldr	r0, [r7, #4]
 3044 000e FFF7FEFF 		bl	write_type_marker
 3045 0012 0346     		mov	r3, r0
 3046 0014 83F00103 		eor	r3, r3, #1
 3047 0018 DBB2     		uxtb	r3, r3
 3048 001a 002B     		cmp	r3, #0
 3049 001c 01D0     		beq	.L221
 3050 001e 0023     		movs	r3, #0
 3051 0020 14E0     		b	.L222
 3052              	.L221:
 3053 0022 3B68     		ldr	r3, [r7]
 3054 0024 1846     		mov	r0, r3
 3055 0026 FFF7FEFF 		bl	be32
 3056 002a 0346     		mov	r3, r0
 3057 002c 3B60     		str	r3, [r7]
 3058 002e 7B68     		ldr	r3, [r7, #4]
 3059 0030 DB68     		ldr	r3, [r3, #12]
 3060 0032 3946     		mov	r1, r7
 3061 0034 0422     		movs	r2, #4
 3062 0036 7868     		ldr	r0, [r7, #4]
 3063 0038 9847     		blx	r3
 3064 003a 0346     		mov	r3, r0
 3065 003c 002B     		cmp	r3, #0
 3066 003e 01D0     		beq	.L223
 3067 0040 0123     		movs	r3, #1
 3068 0042 03E0     		b	.L222
 3069              	.L223:
 3070 0044 7B68     		ldr	r3, [r7, #4]
ARM GAS  /var/folders/d2/nstgp4h54kz7g1l847x_b8wc0000gn/T//ccFI0sM2.s 			page 56


 3071 0046 0F22     		movs	r2, #15
 3072 0048 1A70     		strb	r2, [r3]
 3073 004a 0023     		movs	r3, #0
 3074              	.L222:
 3075 004c 1846     		mov	r0, r3
 3076 004e 0837     		adds	r7, r7, #8
 3077 0050 BD46     		mov	sp, r7
 3078              		@ sp needed
 3079 0052 80BD     		pop	{r7, pc}
 3080              		.size	cmp_write_map32, .-cmp_write_map32
 3081              		.section	.text.cmp_write_map,"ax",%progbits
 3082              		.align	1
 3083              		.global	cmp_write_map
 3084              		.syntax unified
 3085              		.thumb
 3086              		.thumb_func
 3087              		.fpu fpv4-sp-d16
 3088              		.type	cmp_write_map, %function
 3089              	cmp_write_map:
 3090              		@ args = 0, pretend = 0, frame = 8
 3091              		@ frame_needed = 1, uses_anonymous_args = 0
 3092 0000 80B5     		push	{r7, lr}
 3093 0002 82B0     		sub	sp, sp, #8
 3094 0004 00AF     		add	r7, sp, #0
 3095 0006 7860     		str	r0, [r7, #4]
 3096 0008 3960     		str	r1, [r7]
 3097 000a 3B68     		ldr	r3, [r7]
 3098 000c 0F2B     		cmp	r3, #15
 3099 000e 07D8     		bhi	.L225
 3100 0010 3B68     		ldr	r3, [r7]
 3101 0012 DBB2     		uxtb	r3, r3
 3102 0014 1946     		mov	r1, r3
 3103 0016 7868     		ldr	r0, [r7, #4]
 3104 0018 FFF7FEFF 		bl	cmp_write_fixmap
 3105 001c 0346     		mov	r3, r0
 3106 001e 10E0     		b	.L226
 3107              	.L225:
 3108 0020 3B68     		ldr	r3, [r7]
 3109 0022 B3F5803F 		cmp	r3, #65536
 3110 0026 07D2     		bcs	.L227
 3111 0028 3B68     		ldr	r3, [r7]
 3112 002a 9BB2     		uxth	r3, r3
 3113 002c 1946     		mov	r1, r3
 3114 002e 7868     		ldr	r0, [r7, #4]
 3115 0030 FFF7FEFF 		bl	cmp_write_map16
 3116 0034 0346     		mov	r3, r0
 3117 0036 04E0     		b	.L226
 3118              	.L227:
 3119 0038 3968     		ldr	r1, [r7]
 3120 003a 7868     		ldr	r0, [r7, #4]
 3121 003c FFF7FEFF 		bl	cmp_write_map32
 3122 0040 0346     		mov	r3, r0
 3123              	.L226:
 3124 0042 1846     		mov	r0, r3
 3125 0044 0837     		adds	r7, r7, #8
 3126 0046 BD46     		mov	sp, r7
 3127              		@ sp needed
ARM GAS  /var/folders/d2/nstgp4h54kz7g1l847x_b8wc0000gn/T//ccFI0sM2.s 			page 57


 3128 0048 80BD     		pop	{r7, pc}
 3129              		.size	cmp_write_map, .-cmp_write_map
 3130              		.section	.text.cmp_write_fixext1_marker,"ax",%progbits
 3131              		.align	1
 3132              		.global	cmp_write_fixext1_marker
 3133              		.syntax unified
 3134              		.thumb
 3135              		.thumb_func
 3136              		.fpu fpv4-sp-d16
 3137              		.type	cmp_write_fixext1_marker, %function
 3138              	cmp_write_fixext1_marker:
 3139              		@ args = 0, pretend = 0, frame = 8
 3140              		@ frame_needed = 1, uses_anonymous_args = 0
 3141 0000 80B5     		push	{r7, lr}
 3142 0002 82B0     		sub	sp, sp, #8
 3143 0004 00AF     		add	r7, sp, #0
 3144 0006 7860     		str	r0, [r7, #4]
 3145 0008 0B46     		mov	r3, r1
 3146 000a FB70     		strb	r3, [r7, #3]
 3147 000c D421     		movs	r1, #212
 3148 000e 7868     		ldr	r0, [r7, #4]
 3149 0010 FFF7FEFF 		bl	write_type_marker
 3150 0014 0346     		mov	r3, r0
 3151 0016 83F00103 		eor	r3, r3, #1
 3152 001a DBB2     		uxtb	r3, r3
 3153 001c 002B     		cmp	r3, #0
 3154 001e 01D0     		beq	.L229
 3155 0020 0023     		movs	r3, #0
 3156 0022 0EE0     		b	.L230
 3157              	.L229:
 3158 0024 7B68     		ldr	r3, [r7, #4]
 3159 0026 DB68     		ldr	r3, [r3, #12]
 3160 0028 F91C     		adds	r1, r7, #3
 3161 002a 0122     		movs	r2, #1
 3162 002c 7868     		ldr	r0, [r7, #4]
 3163 002e 9847     		blx	r3
 3164 0030 0346     		mov	r3, r0
 3165 0032 002B     		cmp	r3, #0
 3166 0034 01D0     		beq	.L231
 3167 0036 0123     		movs	r3, #1
 3168 0038 03E0     		b	.L230
 3169              	.L231:
 3170 003a 7B68     		ldr	r3, [r7, #4]
 3171 003c 0C22     		movs	r2, #12
 3172 003e 1A70     		strb	r2, [r3]
 3173 0040 0023     		movs	r3, #0
 3174              	.L230:
 3175 0042 1846     		mov	r0, r3
 3176 0044 0837     		adds	r7, r7, #8
 3177 0046 BD46     		mov	sp, r7
 3178              		@ sp needed
 3179 0048 80BD     		pop	{r7, pc}
 3180              		.size	cmp_write_fixext1_marker, .-cmp_write_fixext1_marker
 3181              		.section	.text.cmp_write_fixext1,"ax",%progbits
 3182              		.align	1
 3183              		.global	cmp_write_fixext1
 3184              		.syntax unified
ARM GAS  /var/folders/d2/nstgp4h54kz7g1l847x_b8wc0000gn/T//ccFI0sM2.s 			page 58


 3185              		.thumb
 3186              		.thumb_func
 3187              		.fpu fpv4-sp-d16
 3188              		.type	cmp_write_fixext1, %function
 3189              	cmp_write_fixext1:
 3190              		@ args = 0, pretend = 0, frame = 16
 3191              		@ frame_needed = 1, uses_anonymous_args = 0
 3192 0000 80B5     		push	{r7, lr}
 3193 0002 84B0     		sub	sp, sp, #16
 3194 0004 00AF     		add	r7, sp, #0
 3195 0006 F860     		str	r0, [r7, #12]
 3196 0008 0B46     		mov	r3, r1
 3197 000a 7A60     		str	r2, [r7, #4]
 3198 000c FB72     		strb	r3, [r7, #11]
 3199 000e 97F90B30 		ldrsb	r3, [r7, #11]
 3200 0012 1946     		mov	r1, r3
 3201 0014 F868     		ldr	r0, [r7, #12]
 3202 0016 FFF7FEFF 		bl	cmp_write_fixext1_marker
 3203 001a 0346     		mov	r3, r0
 3204 001c 83F00103 		eor	r3, r3, #1
 3205 0020 DBB2     		uxtb	r3, r3
 3206 0022 002B     		cmp	r3, #0
 3207 0024 01D0     		beq	.L233
 3208 0026 0023     		movs	r3, #0
 3209 0028 0EE0     		b	.L234
 3210              	.L233:
 3211 002a FB68     		ldr	r3, [r7, #12]
 3212 002c DB68     		ldr	r3, [r3, #12]
 3213 002e 0122     		movs	r2, #1
 3214 0030 7968     		ldr	r1, [r7, #4]
 3215 0032 F868     		ldr	r0, [r7, #12]
 3216 0034 9847     		blx	r3
 3217 0036 0346     		mov	r3, r0
 3218 0038 002B     		cmp	r3, #0
 3219 003a 01D0     		beq	.L235
 3220 003c 0123     		movs	r3, #1
 3221 003e 03E0     		b	.L234
 3222              	.L235:
 3223 0040 FB68     		ldr	r3, [r7, #12]
 3224 0042 0A22     		movs	r2, #10
 3225 0044 1A70     		strb	r2, [r3]
 3226 0046 0023     		movs	r3, #0
 3227              	.L234:
 3228 0048 1846     		mov	r0, r3
 3229 004a 1037     		adds	r7, r7, #16
 3230 004c BD46     		mov	sp, r7
 3231              		@ sp needed
 3232 004e 80BD     		pop	{r7, pc}
 3233              		.size	cmp_write_fixext1, .-cmp_write_fixext1
 3234              		.section	.text.cmp_write_fixext2_marker,"ax",%progbits
 3235              		.align	1
 3236              		.global	cmp_write_fixext2_marker
 3237              		.syntax unified
 3238              		.thumb
 3239              		.thumb_func
 3240              		.fpu fpv4-sp-d16
 3241              		.type	cmp_write_fixext2_marker, %function
ARM GAS  /var/folders/d2/nstgp4h54kz7g1l847x_b8wc0000gn/T//ccFI0sM2.s 			page 59


 3242              	cmp_write_fixext2_marker:
 3243              		@ args = 0, pretend = 0, frame = 8
 3244              		@ frame_needed = 1, uses_anonymous_args = 0
 3245 0000 80B5     		push	{r7, lr}
 3246 0002 82B0     		sub	sp, sp, #8
 3247 0004 00AF     		add	r7, sp, #0
 3248 0006 7860     		str	r0, [r7, #4]
 3249 0008 0B46     		mov	r3, r1
 3250 000a FB70     		strb	r3, [r7, #3]
 3251 000c D521     		movs	r1, #213
 3252 000e 7868     		ldr	r0, [r7, #4]
 3253 0010 FFF7FEFF 		bl	write_type_marker
 3254 0014 0346     		mov	r3, r0
 3255 0016 83F00103 		eor	r3, r3, #1
 3256 001a DBB2     		uxtb	r3, r3
 3257 001c 002B     		cmp	r3, #0
 3258 001e 01D0     		beq	.L237
 3259 0020 0023     		movs	r3, #0
 3260 0022 0EE0     		b	.L238
 3261              	.L237:
 3262 0024 7B68     		ldr	r3, [r7, #4]
 3263 0026 DB68     		ldr	r3, [r3, #12]
 3264 0028 F91C     		adds	r1, r7, #3
 3265 002a 0122     		movs	r2, #1
 3266 002c 7868     		ldr	r0, [r7, #4]
 3267 002e 9847     		blx	r3
 3268 0030 0346     		mov	r3, r0
 3269 0032 002B     		cmp	r3, #0
 3270 0034 01D0     		beq	.L239
 3271 0036 0123     		movs	r3, #1
 3272 0038 03E0     		b	.L238
 3273              	.L239:
 3274 003a 7B68     		ldr	r3, [r7, #4]
 3275 003c 0C22     		movs	r2, #12
 3276 003e 1A70     		strb	r2, [r3]
 3277 0040 0023     		movs	r3, #0
 3278              	.L238:
 3279 0042 1846     		mov	r0, r3
 3280 0044 0837     		adds	r7, r7, #8
 3281 0046 BD46     		mov	sp, r7
 3282              		@ sp needed
 3283 0048 80BD     		pop	{r7, pc}
 3284              		.size	cmp_write_fixext2_marker, .-cmp_write_fixext2_marker
 3285              		.section	.text.cmp_write_fixext2,"ax",%progbits
 3286              		.align	1
 3287              		.global	cmp_write_fixext2
 3288              		.syntax unified
 3289              		.thumb
 3290              		.thumb_func
 3291              		.fpu fpv4-sp-d16
 3292              		.type	cmp_write_fixext2, %function
 3293              	cmp_write_fixext2:
 3294              		@ args = 0, pretend = 0, frame = 16
 3295              		@ frame_needed = 1, uses_anonymous_args = 0
 3296 0000 80B5     		push	{r7, lr}
 3297 0002 84B0     		sub	sp, sp, #16
 3298 0004 00AF     		add	r7, sp, #0
ARM GAS  /var/folders/d2/nstgp4h54kz7g1l847x_b8wc0000gn/T//ccFI0sM2.s 			page 60


 3299 0006 F860     		str	r0, [r7, #12]
 3300 0008 0B46     		mov	r3, r1
 3301 000a 7A60     		str	r2, [r7, #4]
 3302 000c FB72     		strb	r3, [r7, #11]
 3303 000e 97F90B30 		ldrsb	r3, [r7, #11]
 3304 0012 1946     		mov	r1, r3
 3305 0014 F868     		ldr	r0, [r7, #12]
 3306 0016 FFF7FEFF 		bl	cmp_write_fixext2_marker
 3307 001a 0346     		mov	r3, r0
 3308 001c 83F00103 		eor	r3, r3, #1
 3309 0020 DBB2     		uxtb	r3, r3
 3310 0022 002B     		cmp	r3, #0
 3311 0024 01D0     		beq	.L241
 3312 0026 0023     		movs	r3, #0
 3313 0028 0EE0     		b	.L242
 3314              	.L241:
 3315 002a FB68     		ldr	r3, [r7, #12]
 3316 002c DB68     		ldr	r3, [r3, #12]
 3317 002e 0222     		movs	r2, #2
 3318 0030 7968     		ldr	r1, [r7, #4]
 3319 0032 F868     		ldr	r0, [r7, #12]
 3320 0034 9847     		blx	r3
 3321 0036 0346     		mov	r3, r0
 3322 0038 002B     		cmp	r3, #0
 3323 003a 01D0     		beq	.L243
 3324 003c 0123     		movs	r3, #1
 3325 003e 03E0     		b	.L242
 3326              	.L243:
 3327 0040 FB68     		ldr	r3, [r7, #12]
 3328 0042 0A22     		movs	r2, #10
 3329 0044 1A70     		strb	r2, [r3]
 3330 0046 0023     		movs	r3, #0
 3331              	.L242:
 3332 0048 1846     		mov	r0, r3
 3333 004a 1037     		adds	r7, r7, #16
 3334 004c BD46     		mov	sp, r7
 3335              		@ sp needed
 3336 004e 80BD     		pop	{r7, pc}
 3337              		.size	cmp_write_fixext2, .-cmp_write_fixext2
 3338              		.section	.text.cmp_write_fixext4_marker,"ax",%progbits
 3339              		.align	1
 3340              		.global	cmp_write_fixext4_marker
 3341              		.syntax unified
 3342              		.thumb
 3343              		.thumb_func
 3344              		.fpu fpv4-sp-d16
 3345              		.type	cmp_write_fixext4_marker, %function
 3346              	cmp_write_fixext4_marker:
 3347              		@ args = 0, pretend = 0, frame = 8
 3348              		@ frame_needed = 1, uses_anonymous_args = 0
 3349 0000 80B5     		push	{r7, lr}
 3350 0002 82B0     		sub	sp, sp, #8
 3351 0004 00AF     		add	r7, sp, #0
 3352 0006 7860     		str	r0, [r7, #4]
 3353 0008 0B46     		mov	r3, r1
 3354 000a FB70     		strb	r3, [r7, #3]
 3355 000c D621     		movs	r1, #214
ARM GAS  /var/folders/d2/nstgp4h54kz7g1l847x_b8wc0000gn/T//ccFI0sM2.s 			page 61


 3356 000e 7868     		ldr	r0, [r7, #4]
 3357 0010 FFF7FEFF 		bl	write_type_marker
 3358 0014 0346     		mov	r3, r0
 3359 0016 83F00103 		eor	r3, r3, #1
 3360 001a DBB2     		uxtb	r3, r3
 3361 001c 002B     		cmp	r3, #0
 3362 001e 01D0     		beq	.L245
 3363 0020 0023     		movs	r3, #0
 3364 0022 0EE0     		b	.L246
 3365              	.L245:
 3366 0024 7B68     		ldr	r3, [r7, #4]
 3367 0026 DB68     		ldr	r3, [r3, #12]
 3368 0028 F91C     		adds	r1, r7, #3
 3369 002a 0122     		movs	r2, #1
 3370 002c 7868     		ldr	r0, [r7, #4]
 3371 002e 9847     		blx	r3
 3372 0030 0346     		mov	r3, r0
 3373 0032 002B     		cmp	r3, #0
 3374 0034 01D0     		beq	.L247
 3375 0036 0123     		movs	r3, #1
 3376 0038 03E0     		b	.L246
 3377              	.L247:
 3378 003a 7B68     		ldr	r3, [r7, #4]
 3379 003c 0C22     		movs	r2, #12
 3380 003e 1A70     		strb	r2, [r3]
 3381 0040 0023     		movs	r3, #0
 3382              	.L246:
 3383 0042 1846     		mov	r0, r3
 3384 0044 0837     		adds	r7, r7, #8
 3385 0046 BD46     		mov	sp, r7
 3386              		@ sp needed
 3387 0048 80BD     		pop	{r7, pc}
 3388              		.size	cmp_write_fixext4_marker, .-cmp_write_fixext4_marker
 3389              		.section	.text.cmp_write_fixext4,"ax",%progbits
 3390              		.align	1
 3391              		.global	cmp_write_fixext4
 3392              		.syntax unified
 3393              		.thumb
 3394              		.thumb_func
 3395              		.fpu fpv4-sp-d16
 3396              		.type	cmp_write_fixext4, %function
 3397              	cmp_write_fixext4:
 3398              		@ args = 0, pretend = 0, frame = 16
 3399              		@ frame_needed = 1, uses_anonymous_args = 0
 3400 0000 80B5     		push	{r7, lr}
 3401 0002 84B0     		sub	sp, sp, #16
 3402 0004 00AF     		add	r7, sp, #0
 3403 0006 F860     		str	r0, [r7, #12]
 3404 0008 0B46     		mov	r3, r1
 3405 000a 7A60     		str	r2, [r7, #4]
 3406 000c FB72     		strb	r3, [r7, #11]
 3407 000e 97F90B30 		ldrsb	r3, [r7, #11]
 3408 0012 1946     		mov	r1, r3
 3409 0014 F868     		ldr	r0, [r7, #12]
 3410 0016 FFF7FEFF 		bl	cmp_write_fixext4_marker
 3411 001a 0346     		mov	r3, r0
 3412 001c 83F00103 		eor	r3, r3, #1
ARM GAS  /var/folders/d2/nstgp4h54kz7g1l847x_b8wc0000gn/T//ccFI0sM2.s 			page 62


 3413 0020 DBB2     		uxtb	r3, r3
 3414 0022 002B     		cmp	r3, #0
 3415 0024 01D0     		beq	.L249
 3416 0026 0023     		movs	r3, #0
 3417 0028 0EE0     		b	.L250
 3418              	.L249:
 3419 002a FB68     		ldr	r3, [r7, #12]
 3420 002c DB68     		ldr	r3, [r3, #12]
 3421 002e 0422     		movs	r2, #4
 3422 0030 7968     		ldr	r1, [r7, #4]
 3423 0032 F868     		ldr	r0, [r7, #12]
 3424 0034 9847     		blx	r3
 3425 0036 0346     		mov	r3, r0
 3426 0038 002B     		cmp	r3, #0
 3427 003a 01D0     		beq	.L251
 3428 003c 0123     		movs	r3, #1
 3429 003e 03E0     		b	.L250
 3430              	.L251:
 3431 0040 FB68     		ldr	r3, [r7, #12]
 3432 0042 0A22     		movs	r2, #10
 3433 0044 1A70     		strb	r2, [r3]
 3434 0046 0023     		movs	r3, #0
 3435              	.L250:
 3436 0048 1846     		mov	r0, r3
 3437 004a 1037     		adds	r7, r7, #16
 3438 004c BD46     		mov	sp, r7
 3439              		@ sp needed
 3440 004e 80BD     		pop	{r7, pc}
 3441              		.size	cmp_write_fixext4, .-cmp_write_fixext4
 3442              		.section	.text.cmp_write_fixext8_marker,"ax",%progbits
 3443              		.align	1
 3444              		.global	cmp_write_fixext8_marker
 3445              		.syntax unified
 3446              		.thumb
 3447              		.thumb_func
 3448              		.fpu fpv4-sp-d16
 3449              		.type	cmp_write_fixext8_marker, %function
 3450              	cmp_write_fixext8_marker:
 3451              		@ args = 0, pretend = 0, frame = 8
 3452              		@ frame_needed = 1, uses_anonymous_args = 0
 3453 0000 80B5     		push	{r7, lr}
 3454 0002 82B0     		sub	sp, sp, #8
 3455 0004 00AF     		add	r7, sp, #0
 3456 0006 7860     		str	r0, [r7, #4]
 3457 0008 0B46     		mov	r3, r1
 3458 000a FB70     		strb	r3, [r7, #3]
 3459 000c D721     		movs	r1, #215
 3460 000e 7868     		ldr	r0, [r7, #4]
 3461 0010 FFF7FEFF 		bl	write_type_marker
 3462 0014 0346     		mov	r3, r0
 3463 0016 83F00103 		eor	r3, r3, #1
 3464 001a DBB2     		uxtb	r3, r3
 3465 001c 002B     		cmp	r3, #0
 3466 001e 01D0     		beq	.L253
 3467 0020 0023     		movs	r3, #0
 3468 0022 0EE0     		b	.L254
 3469              	.L253:
ARM GAS  /var/folders/d2/nstgp4h54kz7g1l847x_b8wc0000gn/T//ccFI0sM2.s 			page 63


 3470 0024 7B68     		ldr	r3, [r7, #4]
 3471 0026 DB68     		ldr	r3, [r3, #12]
 3472 0028 F91C     		adds	r1, r7, #3
 3473 002a 0122     		movs	r2, #1
 3474 002c 7868     		ldr	r0, [r7, #4]
 3475 002e 9847     		blx	r3
 3476 0030 0346     		mov	r3, r0
 3477 0032 002B     		cmp	r3, #0
 3478 0034 01D0     		beq	.L255
 3479 0036 0123     		movs	r3, #1
 3480 0038 03E0     		b	.L254
 3481              	.L255:
 3482 003a 7B68     		ldr	r3, [r7, #4]
 3483 003c 0C22     		movs	r2, #12
 3484 003e 1A70     		strb	r2, [r3]
 3485 0040 0023     		movs	r3, #0
 3486              	.L254:
 3487 0042 1846     		mov	r0, r3
 3488 0044 0837     		adds	r7, r7, #8
 3489 0046 BD46     		mov	sp, r7
 3490              		@ sp needed
 3491 0048 80BD     		pop	{r7, pc}
 3492              		.size	cmp_write_fixext8_marker, .-cmp_write_fixext8_marker
 3493              		.section	.text.cmp_write_fixext8,"ax",%progbits
 3494              		.align	1
 3495              		.global	cmp_write_fixext8
 3496              		.syntax unified
 3497              		.thumb
 3498              		.thumb_func
 3499              		.fpu fpv4-sp-d16
 3500              		.type	cmp_write_fixext8, %function
 3501              	cmp_write_fixext8:
 3502              		@ args = 0, pretend = 0, frame = 16
 3503              		@ frame_needed = 1, uses_anonymous_args = 0
 3504 0000 80B5     		push	{r7, lr}
 3505 0002 84B0     		sub	sp, sp, #16
 3506 0004 00AF     		add	r7, sp, #0
 3507 0006 F860     		str	r0, [r7, #12]
 3508 0008 0B46     		mov	r3, r1
 3509 000a 7A60     		str	r2, [r7, #4]
 3510 000c FB72     		strb	r3, [r7, #11]
 3511 000e 97F90B30 		ldrsb	r3, [r7, #11]
 3512 0012 1946     		mov	r1, r3
 3513 0014 F868     		ldr	r0, [r7, #12]
 3514 0016 FFF7FEFF 		bl	cmp_write_fixext8_marker
 3515 001a 0346     		mov	r3, r0
 3516 001c 83F00103 		eor	r3, r3, #1
 3517 0020 DBB2     		uxtb	r3, r3
 3518 0022 002B     		cmp	r3, #0
 3519 0024 01D0     		beq	.L257
 3520 0026 0023     		movs	r3, #0
 3521 0028 0EE0     		b	.L258
 3522              	.L257:
 3523 002a FB68     		ldr	r3, [r7, #12]
 3524 002c DB68     		ldr	r3, [r3, #12]
 3525 002e 0822     		movs	r2, #8
 3526 0030 7968     		ldr	r1, [r7, #4]
ARM GAS  /var/folders/d2/nstgp4h54kz7g1l847x_b8wc0000gn/T//ccFI0sM2.s 			page 64


 3527 0032 F868     		ldr	r0, [r7, #12]
 3528 0034 9847     		blx	r3
 3529 0036 0346     		mov	r3, r0
 3530 0038 002B     		cmp	r3, #0
 3531 003a 01D0     		beq	.L259
 3532 003c 0123     		movs	r3, #1
 3533 003e 03E0     		b	.L258
 3534              	.L259:
 3535 0040 FB68     		ldr	r3, [r7, #12]
 3536 0042 0A22     		movs	r2, #10
 3537 0044 1A70     		strb	r2, [r3]
 3538 0046 0023     		movs	r3, #0
 3539              	.L258:
 3540 0048 1846     		mov	r0, r3
 3541 004a 1037     		adds	r7, r7, #16
 3542 004c BD46     		mov	sp, r7
 3543              		@ sp needed
 3544 004e 80BD     		pop	{r7, pc}
 3545              		.size	cmp_write_fixext8, .-cmp_write_fixext8
 3546              		.section	.text.cmp_write_fixext16_marker,"ax",%progbits
 3547              		.align	1
 3548              		.global	cmp_write_fixext16_marker
 3549              		.syntax unified
 3550              		.thumb
 3551              		.thumb_func
 3552              		.fpu fpv4-sp-d16
 3553              		.type	cmp_write_fixext16_marker, %function
 3554              	cmp_write_fixext16_marker:
 3555              		@ args = 0, pretend = 0, frame = 8
 3556              		@ frame_needed = 1, uses_anonymous_args = 0
 3557 0000 80B5     		push	{r7, lr}
 3558 0002 82B0     		sub	sp, sp, #8
 3559 0004 00AF     		add	r7, sp, #0
 3560 0006 7860     		str	r0, [r7, #4]
 3561 0008 0B46     		mov	r3, r1
 3562 000a FB70     		strb	r3, [r7, #3]
 3563 000c D821     		movs	r1, #216
 3564 000e 7868     		ldr	r0, [r7, #4]
 3565 0010 FFF7FEFF 		bl	write_type_marker
 3566 0014 0346     		mov	r3, r0
 3567 0016 83F00103 		eor	r3, r3, #1
 3568 001a DBB2     		uxtb	r3, r3
 3569 001c 002B     		cmp	r3, #0
 3570 001e 01D0     		beq	.L261
 3571 0020 0023     		movs	r3, #0
 3572 0022 0EE0     		b	.L262
 3573              	.L261:
 3574 0024 7B68     		ldr	r3, [r7, #4]
 3575 0026 DB68     		ldr	r3, [r3, #12]
 3576 0028 F91C     		adds	r1, r7, #3
 3577 002a 0122     		movs	r2, #1
 3578 002c 7868     		ldr	r0, [r7, #4]
 3579 002e 9847     		blx	r3
 3580 0030 0346     		mov	r3, r0
 3581 0032 002B     		cmp	r3, #0
 3582 0034 01D0     		beq	.L263
 3583 0036 0123     		movs	r3, #1
ARM GAS  /var/folders/d2/nstgp4h54kz7g1l847x_b8wc0000gn/T//ccFI0sM2.s 			page 65


 3584 0038 03E0     		b	.L262
 3585              	.L263:
 3586 003a 7B68     		ldr	r3, [r7, #4]
 3587 003c 0C22     		movs	r2, #12
 3588 003e 1A70     		strb	r2, [r3]
 3589 0040 0023     		movs	r3, #0
 3590              	.L262:
 3591 0042 1846     		mov	r0, r3
 3592 0044 0837     		adds	r7, r7, #8
 3593 0046 BD46     		mov	sp, r7
 3594              		@ sp needed
 3595 0048 80BD     		pop	{r7, pc}
 3596              		.size	cmp_write_fixext16_marker, .-cmp_write_fixext16_marker
 3597              		.section	.text.cmp_write_fixext16,"ax",%progbits
 3598              		.align	1
 3599              		.global	cmp_write_fixext16
 3600              		.syntax unified
 3601              		.thumb
 3602              		.thumb_func
 3603              		.fpu fpv4-sp-d16
 3604              		.type	cmp_write_fixext16, %function
 3605              	cmp_write_fixext16:
 3606              		@ args = 0, pretend = 0, frame = 16
 3607              		@ frame_needed = 1, uses_anonymous_args = 0
 3608 0000 80B5     		push	{r7, lr}
 3609 0002 84B0     		sub	sp, sp, #16
 3610 0004 00AF     		add	r7, sp, #0
 3611 0006 F860     		str	r0, [r7, #12]
 3612 0008 0B46     		mov	r3, r1
 3613 000a 7A60     		str	r2, [r7, #4]
 3614 000c FB72     		strb	r3, [r7, #11]
 3615 000e 97F90B30 		ldrsb	r3, [r7, #11]
 3616 0012 1946     		mov	r1, r3
 3617 0014 F868     		ldr	r0, [r7, #12]
 3618 0016 FFF7FEFF 		bl	cmp_write_fixext16_marker
 3619 001a 0346     		mov	r3, r0
 3620 001c 83F00103 		eor	r3, r3, #1
 3621 0020 DBB2     		uxtb	r3, r3
 3622 0022 002B     		cmp	r3, #0
 3623 0024 01D0     		beq	.L265
 3624 0026 0023     		movs	r3, #0
 3625 0028 0EE0     		b	.L266
 3626              	.L265:
 3627 002a FB68     		ldr	r3, [r7, #12]
 3628 002c DB68     		ldr	r3, [r3, #12]
 3629 002e 1022     		movs	r2, #16
 3630 0030 7968     		ldr	r1, [r7, #4]
 3631 0032 F868     		ldr	r0, [r7, #12]
 3632 0034 9847     		blx	r3
 3633 0036 0346     		mov	r3, r0
 3634 0038 002B     		cmp	r3, #0
 3635 003a 01D0     		beq	.L267
 3636 003c 0123     		movs	r3, #1
 3637 003e 03E0     		b	.L266
 3638              	.L267:
 3639 0040 FB68     		ldr	r3, [r7, #12]
 3640 0042 0A22     		movs	r2, #10
ARM GAS  /var/folders/d2/nstgp4h54kz7g1l847x_b8wc0000gn/T//ccFI0sM2.s 			page 66


 3641 0044 1A70     		strb	r2, [r3]
 3642 0046 0023     		movs	r3, #0
 3643              	.L266:
 3644 0048 1846     		mov	r0, r3
 3645 004a 1037     		adds	r7, r7, #16
 3646 004c BD46     		mov	sp, r7
 3647              		@ sp needed
 3648 004e 80BD     		pop	{r7, pc}
 3649              		.size	cmp_write_fixext16, .-cmp_write_fixext16
 3650              		.section	.text.cmp_write_ext8_marker,"ax",%progbits
 3651              		.align	1
 3652              		.global	cmp_write_ext8_marker
 3653              		.syntax unified
 3654              		.thumb
 3655              		.thumb_func
 3656              		.fpu fpv4-sp-d16
 3657              		.type	cmp_write_ext8_marker, %function
 3658              	cmp_write_ext8_marker:
 3659              		@ args = 0, pretend = 0, frame = 8
 3660              		@ frame_needed = 1, uses_anonymous_args = 0
 3661 0000 80B5     		push	{r7, lr}
 3662 0002 82B0     		sub	sp, sp, #8
 3663 0004 00AF     		add	r7, sp, #0
 3664 0006 7860     		str	r0, [r7, #4]
 3665 0008 0B46     		mov	r3, r1
 3666 000a FB70     		strb	r3, [r7, #3]
 3667 000c 1346     		mov	r3, r2
 3668 000e BB70     		strb	r3, [r7, #2]
 3669 0010 C721     		movs	r1, #199
 3670 0012 7868     		ldr	r0, [r7, #4]
 3671 0014 FFF7FEFF 		bl	write_type_marker
 3672 0018 0346     		mov	r3, r0
 3673 001a 83F00103 		eor	r3, r3, #1
 3674 001e DBB2     		uxtb	r3, r3
 3675 0020 002B     		cmp	r3, #0
 3676 0022 01D0     		beq	.L269
 3677 0024 0023     		movs	r3, #0
 3678 0026 1CE0     		b	.L270
 3679              	.L269:
 3680 0028 7B68     		ldr	r3, [r7, #4]
 3681 002a DB68     		ldr	r3, [r3, #12]
 3682 002c B91C     		adds	r1, r7, #2
 3683 002e 0122     		movs	r2, #1
 3684 0030 7868     		ldr	r0, [r7, #4]
 3685 0032 9847     		blx	r3
 3686 0034 0346     		mov	r3, r0
 3687 0036 002B     		cmp	r3, #0
 3688 0038 04D1     		bne	.L271
 3689 003a 7B68     		ldr	r3, [r7, #4]
 3690 003c 0F22     		movs	r2, #15
 3691 003e 1A70     		strb	r2, [r3]
 3692 0040 0023     		movs	r3, #0
 3693 0042 0EE0     		b	.L270
 3694              	.L271:
 3695 0044 7B68     		ldr	r3, [r7, #4]
 3696 0046 DB68     		ldr	r3, [r3, #12]
 3697 0048 F91C     		adds	r1, r7, #3
ARM GAS  /var/folders/d2/nstgp4h54kz7g1l847x_b8wc0000gn/T//ccFI0sM2.s 			page 67


 3698 004a 0122     		movs	r2, #1
 3699 004c 7868     		ldr	r0, [r7, #4]
 3700 004e 9847     		blx	r3
 3701 0050 0346     		mov	r3, r0
 3702 0052 002B     		cmp	r3, #0
 3703 0054 01D0     		beq	.L272
 3704 0056 0123     		movs	r3, #1
 3705 0058 03E0     		b	.L270
 3706              	.L272:
 3707 005a 7B68     		ldr	r3, [r7, #4]
 3708 005c 0C22     		movs	r2, #12
 3709 005e 1A70     		strb	r2, [r3]
 3710 0060 0023     		movs	r3, #0
 3711              	.L270:
 3712 0062 1846     		mov	r0, r3
 3713 0064 0837     		adds	r7, r7, #8
 3714 0066 BD46     		mov	sp, r7
 3715              		@ sp needed
 3716 0068 80BD     		pop	{r7, pc}
 3717              		.size	cmp_write_ext8_marker, .-cmp_write_ext8_marker
 3718              		.section	.text.cmp_write_ext8,"ax",%progbits
 3719              		.align	1
 3720              		.global	cmp_write_ext8
 3721              		.syntax unified
 3722              		.thumb
 3723              		.thumb_func
 3724              		.fpu fpv4-sp-d16
 3725              		.type	cmp_write_ext8, %function
 3726              	cmp_write_ext8:
 3727              		@ args = 0, pretend = 0, frame = 16
 3728              		@ frame_needed = 1, uses_anonymous_args = 0
 3729 0000 80B5     		push	{r7, lr}
 3730 0002 84B0     		sub	sp, sp, #16
 3731 0004 00AF     		add	r7, sp, #0
 3732 0006 F860     		str	r0, [r7, #12]
 3733 0008 7B60     		str	r3, [r7, #4]
 3734 000a 0B46     		mov	r3, r1
 3735 000c FB72     		strb	r3, [r7, #11]
 3736 000e 1346     		mov	r3, r2
 3737 0010 BB72     		strb	r3, [r7, #10]
 3738 0012 BA7A     		ldrb	r2, [r7, #10]	@ zero_extendqisi2
 3739 0014 97F90B30 		ldrsb	r3, [r7, #11]
 3740 0018 1946     		mov	r1, r3
 3741 001a F868     		ldr	r0, [r7, #12]
 3742 001c FFF7FEFF 		bl	cmp_write_ext8_marker
 3743 0020 0346     		mov	r3, r0
 3744 0022 83F00103 		eor	r3, r3, #1
 3745 0026 DBB2     		uxtb	r3, r3
 3746 0028 002B     		cmp	r3, #0
 3747 002a 01D0     		beq	.L274
 3748 002c 0023     		movs	r3, #0
 3749 002e 0EE0     		b	.L275
 3750              	.L274:
 3751 0030 FB68     		ldr	r3, [r7, #12]
 3752 0032 DB68     		ldr	r3, [r3, #12]
 3753 0034 BA7A     		ldrb	r2, [r7, #10]	@ zero_extendqisi2
 3754 0036 7968     		ldr	r1, [r7, #4]
ARM GAS  /var/folders/d2/nstgp4h54kz7g1l847x_b8wc0000gn/T//ccFI0sM2.s 			page 68


 3755 0038 F868     		ldr	r0, [r7, #12]
 3756 003a 9847     		blx	r3
 3757 003c 0346     		mov	r3, r0
 3758 003e 002B     		cmp	r3, #0
 3759 0040 01D0     		beq	.L276
 3760 0042 0123     		movs	r3, #1
 3761 0044 03E0     		b	.L275
 3762              	.L276:
 3763 0046 FB68     		ldr	r3, [r7, #12]
 3764 0048 0A22     		movs	r2, #10
 3765 004a 1A70     		strb	r2, [r3]
 3766 004c 0023     		movs	r3, #0
 3767              	.L275:
 3768 004e 1846     		mov	r0, r3
 3769 0050 1037     		adds	r7, r7, #16
 3770 0052 BD46     		mov	sp, r7
 3771              		@ sp needed
 3772 0054 80BD     		pop	{r7, pc}
 3773              		.size	cmp_write_ext8, .-cmp_write_ext8
 3774              		.section	.text.cmp_write_ext16_marker,"ax",%progbits
 3775              		.align	1
 3776              		.global	cmp_write_ext16_marker
 3777              		.syntax unified
 3778              		.thumb
 3779              		.thumb_func
 3780              		.fpu fpv4-sp-d16
 3781              		.type	cmp_write_ext16_marker, %function
 3782              	cmp_write_ext16_marker:
 3783              		@ args = 0, pretend = 0, frame = 8
 3784              		@ frame_needed = 1, uses_anonymous_args = 0
 3785 0000 80B5     		push	{r7, lr}
 3786 0002 82B0     		sub	sp, sp, #8
 3787 0004 00AF     		add	r7, sp, #0
 3788 0006 7860     		str	r0, [r7, #4]
 3789 0008 0B46     		mov	r3, r1
 3790 000a FB70     		strb	r3, [r7, #3]
 3791 000c 1346     		mov	r3, r2	@ movhi
 3792 000e 3B80     		strh	r3, [r7]	@ movhi
 3793 0010 C821     		movs	r1, #200
 3794 0012 7868     		ldr	r0, [r7, #4]
 3795 0014 FFF7FEFF 		bl	write_type_marker
 3796 0018 0346     		mov	r3, r0
 3797 001a 83F00103 		eor	r3, r3, #1
 3798 001e DBB2     		uxtb	r3, r3
 3799 0020 002B     		cmp	r3, #0
 3800 0022 01D0     		beq	.L278
 3801 0024 0023     		movs	r3, #0
 3802 0026 22E0     		b	.L279
 3803              	.L278:
 3804 0028 3B88     		ldrh	r3, [r7]
 3805 002a 1846     		mov	r0, r3
 3806 002c FFF7FEFF 		bl	be16
 3807 0030 0346     		mov	r3, r0
 3808 0032 3B80     		strh	r3, [r7]	@ movhi
 3809 0034 7B68     		ldr	r3, [r7, #4]
 3810 0036 DB68     		ldr	r3, [r3, #12]
 3811 0038 3946     		mov	r1, r7
ARM GAS  /var/folders/d2/nstgp4h54kz7g1l847x_b8wc0000gn/T//ccFI0sM2.s 			page 69


 3812 003a 0222     		movs	r2, #2
 3813 003c 7868     		ldr	r0, [r7, #4]
 3814 003e 9847     		blx	r3
 3815 0040 0346     		mov	r3, r0
 3816 0042 002B     		cmp	r3, #0
 3817 0044 04D1     		bne	.L280
 3818 0046 7B68     		ldr	r3, [r7, #4]
 3819 0048 0F22     		movs	r2, #15
 3820 004a 1A70     		strb	r2, [r3]
 3821 004c 0023     		movs	r3, #0
 3822 004e 0EE0     		b	.L279
 3823              	.L280:
 3824 0050 7B68     		ldr	r3, [r7, #4]
 3825 0052 DB68     		ldr	r3, [r3, #12]
 3826 0054 F91C     		adds	r1, r7, #3
 3827 0056 0122     		movs	r2, #1
 3828 0058 7868     		ldr	r0, [r7, #4]
 3829 005a 9847     		blx	r3
 3830 005c 0346     		mov	r3, r0
 3831 005e 002B     		cmp	r3, #0
 3832 0060 01D0     		beq	.L281
 3833 0062 0123     		movs	r3, #1
 3834 0064 03E0     		b	.L279
 3835              	.L281:
 3836 0066 7B68     		ldr	r3, [r7, #4]
 3837 0068 0C22     		movs	r2, #12
 3838 006a 1A70     		strb	r2, [r3]
 3839 006c 0023     		movs	r3, #0
 3840              	.L279:
 3841 006e 1846     		mov	r0, r3
 3842 0070 0837     		adds	r7, r7, #8
 3843 0072 BD46     		mov	sp, r7
 3844              		@ sp needed
 3845 0074 80BD     		pop	{r7, pc}
 3846              		.size	cmp_write_ext16_marker, .-cmp_write_ext16_marker
 3847              		.section	.text.cmp_write_ext16,"ax",%progbits
 3848              		.align	1
 3849              		.global	cmp_write_ext16
 3850              		.syntax unified
 3851              		.thumb
 3852              		.thumb_func
 3853              		.fpu fpv4-sp-d16
 3854              		.type	cmp_write_ext16, %function
 3855              	cmp_write_ext16:
 3856              		@ args = 0, pretend = 0, frame = 16
 3857              		@ frame_needed = 1, uses_anonymous_args = 0
 3858 0000 80B5     		push	{r7, lr}
 3859 0002 84B0     		sub	sp, sp, #16
 3860 0004 00AF     		add	r7, sp, #0
 3861 0006 F860     		str	r0, [r7, #12]
 3862 0008 7B60     		str	r3, [r7, #4]
 3863 000a 0B46     		mov	r3, r1
 3864 000c FB72     		strb	r3, [r7, #11]
 3865 000e 1346     		mov	r3, r2	@ movhi
 3866 0010 3B81     		strh	r3, [r7, #8]	@ movhi
 3867 0012 3A89     		ldrh	r2, [r7, #8]
 3868 0014 97F90B30 		ldrsb	r3, [r7, #11]
ARM GAS  /var/folders/d2/nstgp4h54kz7g1l847x_b8wc0000gn/T//ccFI0sM2.s 			page 70


 3869 0018 1946     		mov	r1, r3
 3870 001a F868     		ldr	r0, [r7, #12]
 3871 001c FFF7FEFF 		bl	cmp_write_ext16_marker
 3872 0020 0346     		mov	r3, r0
 3873 0022 83F00103 		eor	r3, r3, #1
 3874 0026 DBB2     		uxtb	r3, r3
 3875 0028 002B     		cmp	r3, #0
 3876 002a 01D0     		beq	.L283
 3877 002c 0023     		movs	r3, #0
 3878 002e 0EE0     		b	.L284
 3879              	.L283:
 3880 0030 FB68     		ldr	r3, [r7, #12]
 3881 0032 DB68     		ldr	r3, [r3, #12]
 3882 0034 3A89     		ldrh	r2, [r7, #8]
 3883 0036 7968     		ldr	r1, [r7, #4]
 3884 0038 F868     		ldr	r0, [r7, #12]
 3885 003a 9847     		blx	r3
 3886 003c 0346     		mov	r3, r0
 3887 003e 002B     		cmp	r3, #0
 3888 0040 01D0     		beq	.L285
 3889 0042 0123     		movs	r3, #1
 3890 0044 03E0     		b	.L284
 3891              	.L285:
 3892 0046 FB68     		ldr	r3, [r7, #12]
 3893 0048 0A22     		movs	r2, #10
 3894 004a 1A70     		strb	r2, [r3]
 3895 004c 0023     		movs	r3, #0
 3896              	.L284:
 3897 004e 1846     		mov	r0, r3
 3898 0050 1037     		adds	r7, r7, #16
 3899 0052 BD46     		mov	sp, r7
 3900              		@ sp needed
 3901 0054 80BD     		pop	{r7, pc}
 3902              		.size	cmp_write_ext16, .-cmp_write_ext16
 3903              		.section	.text.cmp_write_ext32_marker,"ax",%progbits
 3904              		.align	1
 3905              		.global	cmp_write_ext32_marker
 3906              		.syntax unified
 3907              		.thumb
 3908              		.thumb_func
 3909              		.fpu fpv4-sp-d16
 3910              		.type	cmp_write_ext32_marker, %function
 3911              	cmp_write_ext32_marker:
 3912              		@ args = 0, pretend = 0, frame = 16
 3913              		@ frame_needed = 1, uses_anonymous_args = 0
 3914 0000 80B5     		push	{r7, lr}
 3915 0002 84B0     		sub	sp, sp, #16
 3916 0004 00AF     		add	r7, sp, #0
 3917 0006 F860     		str	r0, [r7, #12]
 3918 0008 0B46     		mov	r3, r1
 3919 000a 7A60     		str	r2, [r7, #4]
 3920 000c FB72     		strb	r3, [r7, #11]
 3921 000e C921     		movs	r1, #201
 3922 0010 F868     		ldr	r0, [r7, #12]
 3923 0012 FFF7FEFF 		bl	write_type_marker
 3924 0016 0346     		mov	r3, r0
 3925 0018 83F00103 		eor	r3, r3, #1
ARM GAS  /var/folders/d2/nstgp4h54kz7g1l847x_b8wc0000gn/T//ccFI0sM2.s 			page 71


 3926 001c DBB2     		uxtb	r3, r3
 3927 001e 002B     		cmp	r3, #0
 3928 0020 01D0     		beq	.L287
 3929 0022 0023     		movs	r3, #0
 3930 0024 23E0     		b	.L288
 3931              	.L287:
 3932 0026 7B68     		ldr	r3, [r7, #4]
 3933 0028 1846     		mov	r0, r3
 3934 002a FFF7FEFF 		bl	be32
 3935 002e 0346     		mov	r3, r0
 3936 0030 7B60     		str	r3, [r7, #4]
 3937 0032 FB68     		ldr	r3, [r7, #12]
 3938 0034 DB68     		ldr	r3, [r3, #12]
 3939 0036 391D     		adds	r1, r7, #4
 3940 0038 0422     		movs	r2, #4
 3941 003a F868     		ldr	r0, [r7, #12]
 3942 003c 9847     		blx	r3
 3943 003e 0346     		mov	r3, r0
 3944 0040 002B     		cmp	r3, #0
 3945 0042 04D1     		bne	.L289
 3946 0044 FB68     		ldr	r3, [r7, #12]
 3947 0046 0F22     		movs	r2, #15
 3948 0048 1A70     		strb	r2, [r3]
 3949 004a 0023     		movs	r3, #0
 3950 004c 0FE0     		b	.L288
 3951              	.L289:
 3952 004e FB68     		ldr	r3, [r7, #12]
 3953 0050 DB68     		ldr	r3, [r3, #12]
 3954 0052 07F10B01 		add	r1, r7, #11
 3955 0056 0122     		movs	r2, #1
 3956 0058 F868     		ldr	r0, [r7, #12]
 3957 005a 9847     		blx	r3
 3958 005c 0346     		mov	r3, r0
 3959 005e 002B     		cmp	r3, #0
 3960 0060 01D0     		beq	.L290
 3961 0062 0123     		movs	r3, #1
 3962 0064 03E0     		b	.L288
 3963              	.L290:
 3964 0066 FB68     		ldr	r3, [r7, #12]
 3965 0068 0C22     		movs	r2, #12
 3966 006a 1A70     		strb	r2, [r3]
 3967 006c 0023     		movs	r3, #0
 3968              	.L288:
 3969 006e 1846     		mov	r0, r3
 3970 0070 1037     		adds	r7, r7, #16
 3971 0072 BD46     		mov	sp, r7
 3972              		@ sp needed
 3973 0074 80BD     		pop	{r7, pc}
 3974              		.size	cmp_write_ext32_marker, .-cmp_write_ext32_marker
 3975              		.section	.text.cmp_write_ext32,"ax",%progbits
 3976              		.align	1
 3977              		.global	cmp_write_ext32
 3978              		.syntax unified
 3979              		.thumb
 3980              		.thumb_func
 3981              		.fpu fpv4-sp-d16
 3982              		.type	cmp_write_ext32, %function
ARM GAS  /var/folders/d2/nstgp4h54kz7g1l847x_b8wc0000gn/T//ccFI0sM2.s 			page 72


 3983              	cmp_write_ext32:
 3984              		@ args = 0, pretend = 0, frame = 16
 3985              		@ frame_needed = 1, uses_anonymous_args = 0
 3986 0000 80B5     		push	{r7, lr}
 3987 0002 84B0     		sub	sp, sp, #16
 3988 0004 00AF     		add	r7, sp, #0
 3989 0006 F860     		str	r0, [r7, #12]
 3990 0008 7A60     		str	r2, [r7, #4]
 3991 000a 3B60     		str	r3, [r7]
 3992 000c 0B46     		mov	r3, r1
 3993 000e FB72     		strb	r3, [r7, #11]
 3994 0010 97F90B30 		ldrsb	r3, [r7, #11]
 3995 0014 7A68     		ldr	r2, [r7, #4]
 3996 0016 1946     		mov	r1, r3
 3997 0018 F868     		ldr	r0, [r7, #12]
 3998 001a FFF7FEFF 		bl	cmp_write_ext32_marker
 3999 001e 0346     		mov	r3, r0
 4000 0020 83F00103 		eor	r3, r3, #1
 4001 0024 DBB2     		uxtb	r3, r3
 4002 0026 002B     		cmp	r3, #0
 4003 0028 01D0     		beq	.L292
 4004 002a 0023     		movs	r3, #0
 4005 002c 0EE0     		b	.L293
 4006              	.L292:
 4007 002e FB68     		ldr	r3, [r7, #12]
 4008 0030 DB68     		ldr	r3, [r3, #12]
 4009 0032 7A68     		ldr	r2, [r7, #4]
 4010 0034 3968     		ldr	r1, [r7]
 4011 0036 F868     		ldr	r0, [r7, #12]
 4012 0038 9847     		blx	r3
 4013 003a 0346     		mov	r3, r0
 4014 003c 002B     		cmp	r3, #0
 4015 003e 01D0     		beq	.L294
 4016 0040 0123     		movs	r3, #1
 4017 0042 03E0     		b	.L293
 4018              	.L294:
 4019 0044 FB68     		ldr	r3, [r7, #12]
 4020 0046 0A22     		movs	r2, #10
 4021 0048 1A70     		strb	r2, [r3]
 4022 004a 0023     		movs	r3, #0
 4023              	.L293:
 4024 004c 1846     		mov	r0, r3
 4025 004e 1037     		adds	r7, r7, #16
 4026 0050 BD46     		mov	sp, r7
 4027              		@ sp needed
 4028 0052 80BD     		pop	{r7, pc}
 4029              		.size	cmp_write_ext32, .-cmp_write_ext32
 4030              		.section	.text.cmp_write_ext_marker,"ax",%progbits
 4031              		.align	1
 4032              		.global	cmp_write_ext_marker
 4033              		.syntax unified
 4034              		.thumb
 4035              		.thumb_func
 4036              		.fpu fpv4-sp-d16
 4037              		.type	cmp_write_ext_marker, %function
 4038              	cmp_write_ext_marker:
 4039              		@ args = 0, pretend = 0, frame = 16
ARM GAS  /var/folders/d2/nstgp4h54kz7g1l847x_b8wc0000gn/T//ccFI0sM2.s 			page 73


 4040              		@ frame_needed = 1, uses_anonymous_args = 0
 4041 0000 80B5     		push	{r7, lr}
 4042 0002 84B0     		sub	sp, sp, #16
 4043 0004 00AF     		add	r7, sp, #0
 4044 0006 F860     		str	r0, [r7, #12]
 4045 0008 0B46     		mov	r3, r1
 4046 000a 7A60     		str	r2, [r7, #4]
 4047 000c FB72     		strb	r3, [r7, #11]
 4048 000e 7B68     		ldr	r3, [r7, #4]
 4049 0010 012B     		cmp	r3, #1
 4050 0012 07D1     		bne	.L296
 4051 0014 97F90B30 		ldrsb	r3, [r7, #11]
 4052 0018 1946     		mov	r1, r3
 4053 001a F868     		ldr	r0, [r7, #12]
 4054 001c FFF7FEFF 		bl	cmp_write_fixext1_marker
 4055 0020 0346     		mov	r3, r0
 4056 0022 4EE0     		b	.L297
 4057              	.L296:
 4058 0024 7B68     		ldr	r3, [r7, #4]
 4059 0026 022B     		cmp	r3, #2
 4060 0028 07D1     		bne	.L298
 4061 002a 97F90B30 		ldrsb	r3, [r7, #11]
 4062 002e 1946     		mov	r1, r3
 4063 0030 F868     		ldr	r0, [r7, #12]
 4064 0032 FFF7FEFF 		bl	cmp_write_fixext2_marker
 4065 0036 0346     		mov	r3, r0
 4066 0038 43E0     		b	.L297
 4067              	.L298:
 4068 003a 7B68     		ldr	r3, [r7, #4]
 4069 003c 042B     		cmp	r3, #4
 4070 003e 07D1     		bne	.L299
 4071 0040 97F90B30 		ldrsb	r3, [r7, #11]
 4072 0044 1946     		mov	r1, r3
 4073 0046 F868     		ldr	r0, [r7, #12]
 4074 0048 FFF7FEFF 		bl	cmp_write_fixext4_marker
 4075 004c 0346     		mov	r3, r0
 4076 004e 38E0     		b	.L297
 4077              	.L299:
 4078 0050 7B68     		ldr	r3, [r7, #4]
 4079 0052 082B     		cmp	r3, #8
 4080 0054 07D1     		bne	.L300
 4081 0056 97F90B30 		ldrsb	r3, [r7, #11]
 4082 005a 1946     		mov	r1, r3
 4083 005c F868     		ldr	r0, [r7, #12]
 4084 005e FFF7FEFF 		bl	cmp_write_fixext8_marker
 4085 0062 0346     		mov	r3, r0
 4086 0064 2DE0     		b	.L297
 4087              	.L300:
 4088 0066 7B68     		ldr	r3, [r7, #4]
 4089 0068 102B     		cmp	r3, #16
 4090 006a 07D1     		bne	.L301
 4091 006c 97F90B30 		ldrsb	r3, [r7, #11]
 4092 0070 1946     		mov	r1, r3
 4093 0072 F868     		ldr	r0, [r7, #12]
 4094 0074 FFF7FEFF 		bl	cmp_write_fixext16_marker
 4095 0078 0346     		mov	r3, r0
 4096 007a 22E0     		b	.L297
ARM GAS  /var/folders/d2/nstgp4h54kz7g1l847x_b8wc0000gn/T//ccFI0sM2.s 			page 74


 4097              	.L301:
 4098 007c 7B68     		ldr	r3, [r7, #4]
 4099 007e FF2B     		cmp	r3, #255
 4100 0080 09D8     		bhi	.L302
 4101 0082 7B68     		ldr	r3, [r7, #4]
 4102 0084 DAB2     		uxtb	r2, r3
 4103 0086 97F90B30 		ldrsb	r3, [r7, #11]
 4104 008a 1946     		mov	r1, r3
 4105 008c F868     		ldr	r0, [r7, #12]
 4106 008e FFF7FEFF 		bl	cmp_write_ext8_marker
 4107 0092 0346     		mov	r3, r0
 4108 0094 15E0     		b	.L297
 4109              	.L302:
 4110 0096 7B68     		ldr	r3, [r7, #4]
 4111 0098 B3F5803F 		cmp	r3, #65536
 4112 009c 09D2     		bcs	.L303
 4113 009e 7B68     		ldr	r3, [r7, #4]
 4114 00a0 9AB2     		uxth	r2, r3
 4115 00a2 97F90B30 		ldrsb	r3, [r7, #11]
 4116 00a6 1946     		mov	r1, r3
 4117 00a8 F868     		ldr	r0, [r7, #12]
 4118 00aa FFF7FEFF 		bl	cmp_write_ext16_marker
 4119 00ae 0346     		mov	r3, r0
 4120 00b0 07E0     		b	.L297
 4121              	.L303:
 4122 00b2 97F90B30 		ldrsb	r3, [r7, #11]
 4123 00b6 7A68     		ldr	r2, [r7, #4]
 4124 00b8 1946     		mov	r1, r3
 4125 00ba F868     		ldr	r0, [r7, #12]
 4126 00bc FFF7FEFF 		bl	cmp_write_ext32_marker
 4127 00c0 0346     		mov	r3, r0
 4128              	.L297:
 4129 00c2 1846     		mov	r0, r3
 4130 00c4 1037     		adds	r7, r7, #16
 4131 00c6 BD46     		mov	sp, r7
 4132              		@ sp needed
 4133 00c8 80BD     		pop	{r7, pc}
 4134              		.size	cmp_write_ext_marker, .-cmp_write_ext_marker
 4135              		.section	.text.cmp_write_ext,"ax",%progbits
 4136              		.align	1
 4137              		.global	cmp_write_ext
 4138              		.syntax unified
 4139              		.thumb
 4140              		.thumb_func
 4141              		.fpu fpv4-sp-d16
 4142              		.type	cmp_write_ext, %function
 4143              	cmp_write_ext:
 4144              		@ args = 0, pretend = 0, frame = 16
 4145              		@ frame_needed = 1, uses_anonymous_args = 0
 4146 0000 80B5     		push	{r7, lr}
 4147 0002 84B0     		sub	sp, sp, #16
 4148 0004 00AF     		add	r7, sp, #0
 4149 0006 F860     		str	r0, [r7, #12]
 4150 0008 7A60     		str	r2, [r7, #4]
 4151 000a 3B60     		str	r3, [r7]
 4152 000c 0B46     		mov	r3, r1
 4153 000e FB72     		strb	r3, [r7, #11]
ARM GAS  /var/folders/d2/nstgp4h54kz7g1l847x_b8wc0000gn/T//ccFI0sM2.s 			page 75


 4154 0010 7B68     		ldr	r3, [r7, #4]
 4155 0012 012B     		cmp	r3, #1
 4156 0014 08D1     		bne	.L305
 4157 0016 97F90B30 		ldrsb	r3, [r7, #11]
 4158 001a 3A68     		ldr	r2, [r7]
 4159 001c 1946     		mov	r1, r3
 4160 001e F868     		ldr	r0, [r7, #12]
 4161 0020 FFF7FEFF 		bl	cmp_write_fixext1
 4162 0024 0346     		mov	r3, r0
 4163 0026 52E0     		b	.L306
 4164              	.L305:
 4165 0028 7B68     		ldr	r3, [r7, #4]
 4166 002a 022B     		cmp	r3, #2
 4167 002c 08D1     		bne	.L307
 4168 002e 97F90B30 		ldrsb	r3, [r7, #11]
 4169 0032 3A68     		ldr	r2, [r7]
 4170 0034 1946     		mov	r1, r3
 4171 0036 F868     		ldr	r0, [r7, #12]
 4172 0038 FFF7FEFF 		bl	cmp_write_fixext2
 4173 003c 0346     		mov	r3, r0
 4174 003e 46E0     		b	.L306
 4175              	.L307:
 4176 0040 7B68     		ldr	r3, [r7, #4]
 4177 0042 042B     		cmp	r3, #4
 4178 0044 08D1     		bne	.L308
 4179 0046 97F90B30 		ldrsb	r3, [r7, #11]
 4180 004a 3A68     		ldr	r2, [r7]
 4181 004c 1946     		mov	r1, r3
 4182 004e F868     		ldr	r0, [r7, #12]
 4183 0050 FFF7FEFF 		bl	cmp_write_fixext4
 4184 0054 0346     		mov	r3, r0
 4185 0056 3AE0     		b	.L306
 4186              	.L308:
 4187 0058 7B68     		ldr	r3, [r7, #4]
 4188 005a 082B     		cmp	r3, #8
 4189 005c 08D1     		bne	.L309
 4190 005e 97F90B30 		ldrsb	r3, [r7, #11]
 4191 0062 3A68     		ldr	r2, [r7]
 4192 0064 1946     		mov	r1, r3
 4193 0066 F868     		ldr	r0, [r7, #12]
 4194 0068 FFF7FEFF 		bl	cmp_write_fixext8
 4195 006c 0346     		mov	r3, r0
 4196 006e 2EE0     		b	.L306
 4197              	.L309:
 4198 0070 7B68     		ldr	r3, [r7, #4]
 4199 0072 102B     		cmp	r3, #16
 4200 0074 08D1     		bne	.L310
 4201 0076 97F90B30 		ldrsb	r3, [r7, #11]
 4202 007a 3A68     		ldr	r2, [r7]
 4203 007c 1946     		mov	r1, r3
 4204 007e F868     		ldr	r0, [r7, #12]
 4205 0080 FFF7FEFF 		bl	cmp_write_fixext16
 4206 0084 0346     		mov	r3, r0
 4207 0086 22E0     		b	.L306
 4208              	.L310:
 4209 0088 7B68     		ldr	r3, [r7, #4]
 4210 008a FF2B     		cmp	r3, #255
ARM GAS  /var/folders/d2/nstgp4h54kz7g1l847x_b8wc0000gn/T//ccFI0sM2.s 			page 76


 4211 008c 09D8     		bhi	.L311
 4212 008e 7B68     		ldr	r3, [r7, #4]
 4213 0090 DAB2     		uxtb	r2, r3
 4214 0092 97F90B10 		ldrsb	r1, [r7, #11]
 4215 0096 3B68     		ldr	r3, [r7]
 4216 0098 F868     		ldr	r0, [r7, #12]
 4217 009a FFF7FEFF 		bl	cmp_write_ext8
 4218 009e 0346     		mov	r3, r0
 4219 00a0 15E0     		b	.L306
 4220              	.L311:
 4221 00a2 7B68     		ldr	r3, [r7, #4]
 4222 00a4 B3F5803F 		cmp	r3, #65536
 4223 00a8 09D2     		bcs	.L312
 4224 00aa 7B68     		ldr	r3, [r7, #4]
 4225 00ac 9AB2     		uxth	r2, r3
 4226 00ae 97F90B10 		ldrsb	r1, [r7, #11]
 4227 00b2 3B68     		ldr	r3, [r7]
 4228 00b4 F868     		ldr	r0, [r7, #12]
 4229 00b6 FFF7FEFF 		bl	cmp_write_ext16
 4230 00ba 0346     		mov	r3, r0
 4231 00bc 07E0     		b	.L306
 4232              	.L312:
 4233 00be 97F90B10 		ldrsb	r1, [r7, #11]
 4234 00c2 3B68     		ldr	r3, [r7]
 4235 00c4 7A68     		ldr	r2, [r7, #4]
 4236 00c6 F868     		ldr	r0, [r7, #12]
 4237 00c8 FFF7FEFF 		bl	cmp_write_ext32
 4238 00cc 0346     		mov	r3, r0
 4239              	.L306:
 4240 00ce 1846     		mov	r0, r3
 4241 00d0 1037     		adds	r7, r7, #16
 4242 00d2 BD46     		mov	sp, r7
 4243              		@ sp needed
 4244 00d4 80BD     		pop	{r7, pc}
 4245              		.size	cmp_write_ext, .-cmp_write_ext
 4246              		.section	.text.cmp_write_object,"ax",%progbits
 4247              		.align	1
 4248              		.global	cmp_write_object
 4249              		.syntax unified
 4250              		.thumb
 4251              		.thumb_func
 4252              		.fpu fpv4-sp-d16
 4253              		.type	cmp_write_object, %function
 4254              	cmp_write_object:
 4255              		@ args = 0, pretend = 0, frame = 8
 4256              		@ frame_needed = 1, uses_anonymous_args = 0
 4257 0000 90B5     		push	{r4, r7, lr}
 4258 0002 83B0     		sub	sp, sp, #12
 4259 0004 00AF     		add	r7, sp, #0
 4260 0006 7860     		str	r0, [r7, #4]
 4261 0008 3960     		str	r1, [r7]
 4262 000a 3B68     		ldr	r3, [r7]
 4263 000c 1B78     		ldrb	r3, [r3]	@ zero_extendqisi2
 4264 000e 222B     		cmp	r3, #34
 4265 0010 00F28B81 		bhi	.L314
 4266 0014 01A2     		adr	r2, .L316
 4267 0016 52F823F0 		ldr	pc, [r2, r3, lsl #2]
ARM GAS  /var/folders/d2/nstgp4h54kz7g1l847x_b8wc0000gn/T//ccFI0sM2.s 			page 77


 4268 001a 00BF     		.p2align 2
 4269              	.L316:
 4270 001c A9000000 		.word	.L315+1
 4271 0020 B9000000 		.word	.L317+1
 4272 0024 CB000000 		.word	.L318+1
 4273 0028 DD000000 		.word	.L319+1
 4274 002c EF000000 		.word	.L320+1
 4275 0030 F9000000 		.word	.L321+1
 4276 0034 15010000 		.word	.L322+1
 4277 0038 27010000 		.word	.L323+1
 4278 003c 39010000 		.word	.L324+1
 4279 0040 49010000 		.word	.L325+1
 4280 0044 61010000 		.word	.L326+1
 4281 0048 79010000 		.word	.L327+1
 4282 004c 8F010000 		.word	.L328+1
 4283 0050 A3010000 		.word	.L329+1
 4284 0054 BB010000 		.word	.L330+1
 4285 0058 CB010000 		.word	.L331+1
 4286 005c DB010000 		.word	.L332+1
 4287 0060 EB010000 		.word	.L333+1
 4288 0064 FF010000 		.word	.L334+1
 4289 0068 11020000 		.word	.L335+1
 4290 006c 23020000 		.word	.L336+1
 4291 0070 33020000 		.word	.L337+1
 4292 0074 47020000 		.word	.L338+1
 4293 0078 59020000 		.word	.L339+1
 4294 007c 6B020000 		.word	.L340+1
 4295 0080 7D020000 		.word	.L341+1
 4296 0084 8F020000 		.word	.L342+1
 4297 0088 A1020000 		.word	.L343+1
 4298 008c B3020000 		.word	.L344+1
 4299 0090 C5020000 		.word	.L345+1
 4300 0094 D5020000 		.word	.L346+1
 4301 0098 E7020000 		.word	.L347+1
 4302 009c F7020000 		.word	.L348+1
 4303 00a0 09030000 		.word	.L349+1
 4304 00a4 19030000 		.word	.L350+1
 4305              		.p2align 1
 4306              	.L315:
 4307 00a8 3B68     		ldr	r3, [r7]
 4308 00aa 1B7A     		ldrb	r3, [r3, #8]	@ zero_extendqisi2
 4309 00ac 1946     		mov	r1, r3
 4310 00ae 7868     		ldr	r0, [r7, #4]
 4311 00b0 FFF7FEFF 		bl	cmp_write_pfix
 4312 00b4 0346     		mov	r3, r0
 4313 00b6 3CE1     		b	.L351
 4314              	.L317:
 4315 00b8 3B68     		ldr	r3, [r7]
 4316 00ba 9B68     		ldr	r3, [r3, #8]
 4317 00bc DBB2     		uxtb	r3, r3
 4318 00be 1946     		mov	r1, r3
 4319 00c0 7868     		ldr	r0, [r7, #4]
 4320 00c2 FFF7FEFF 		bl	cmp_write_fixmap
 4321 00c6 0346     		mov	r3, r0
 4322 00c8 33E1     		b	.L351
 4323              	.L318:
 4324 00ca 3B68     		ldr	r3, [r7]
ARM GAS  /var/folders/d2/nstgp4h54kz7g1l847x_b8wc0000gn/T//ccFI0sM2.s 			page 78


 4325 00cc 9B68     		ldr	r3, [r3, #8]
 4326 00ce DBB2     		uxtb	r3, r3
 4327 00d0 1946     		mov	r1, r3
 4328 00d2 7868     		ldr	r0, [r7, #4]
 4329 00d4 FFF7FEFF 		bl	cmp_write_fixarray
 4330 00d8 0346     		mov	r3, r0
 4331 00da 2AE1     		b	.L351
 4332              	.L319:
 4333 00dc 3B68     		ldr	r3, [r7]
 4334 00de 9B68     		ldr	r3, [r3, #8]
 4335 00e0 DBB2     		uxtb	r3, r3
 4336 00e2 1946     		mov	r1, r3
 4337 00e4 7868     		ldr	r0, [r7, #4]
 4338 00e6 FFF7FEFF 		bl	cmp_write_fixstr_marker
 4339 00ea 0346     		mov	r3, r0
 4340 00ec 21E1     		b	.L351
 4341              	.L320:
 4342 00ee 7868     		ldr	r0, [r7, #4]
 4343 00f0 FFF7FEFF 		bl	cmp_write_nil
 4344 00f4 0346     		mov	r3, r0
 4345 00f6 1CE1     		b	.L351
 4346              	.L321:
 4347 00f8 3B68     		ldr	r3, [r7]
 4348 00fa 1B7A     		ldrb	r3, [r3, #8]	@ zero_extendqisi2
 4349 00fc 002B     		cmp	r3, #0
 4350 00fe 04D0     		beq	.L352
 4351 0100 7868     		ldr	r0, [r7, #4]
 4352 0102 FFF7FEFF 		bl	cmp_write_true
 4353 0106 0346     		mov	r3, r0
 4354 0108 13E1     		b	.L351
 4355              	.L352:
 4356 010a 7868     		ldr	r0, [r7, #4]
 4357 010c FFF7FEFF 		bl	cmp_write_false
 4358 0110 0346     		mov	r3, r0
 4359 0112 0EE1     		b	.L351
 4360              	.L322:
 4361 0114 3B68     		ldr	r3, [r7]
 4362 0116 9B68     		ldr	r3, [r3, #8]
 4363 0118 DBB2     		uxtb	r3, r3
 4364 011a 1946     		mov	r1, r3
 4365 011c 7868     		ldr	r0, [r7, #4]
 4366 011e FFF7FEFF 		bl	cmp_write_bin8_marker
 4367 0122 0346     		mov	r3, r0
 4368 0124 05E1     		b	.L351
 4369              	.L323:
 4370 0126 3B68     		ldr	r3, [r7]
 4371 0128 9B68     		ldr	r3, [r3, #8]
 4372 012a 9BB2     		uxth	r3, r3
 4373 012c 1946     		mov	r1, r3
 4374 012e 7868     		ldr	r0, [r7, #4]
 4375 0130 FFF7FEFF 		bl	cmp_write_bin16_marker
 4376 0134 0346     		mov	r3, r0
 4377 0136 FCE0     		b	.L351
 4378              	.L324:
 4379 0138 3B68     		ldr	r3, [r7]
 4380 013a 9B68     		ldr	r3, [r3, #8]
 4381 013c 1946     		mov	r1, r3
ARM GAS  /var/folders/d2/nstgp4h54kz7g1l847x_b8wc0000gn/T//ccFI0sM2.s 			page 79


 4382 013e 7868     		ldr	r0, [r7, #4]
 4383 0140 FFF7FEFF 		bl	cmp_write_bin32_marker
 4384 0144 0346     		mov	r3, r0
 4385 0146 F4E0     		b	.L351
 4386              	.L325:
 4387 0148 3B68     		ldr	r3, [r7]
 4388 014a 93F90810 		ldrsb	r1, [r3, #8]
 4389 014e 3B68     		ldr	r3, [r7]
 4390 0150 DB68     		ldr	r3, [r3, #12]
 4391 0152 DBB2     		uxtb	r3, r3
 4392 0154 1A46     		mov	r2, r3
 4393 0156 7868     		ldr	r0, [r7, #4]
 4394 0158 FFF7FEFF 		bl	cmp_write_ext8_marker
 4395 015c 0346     		mov	r3, r0
 4396 015e E8E0     		b	.L351
 4397              	.L326:
 4398 0160 3B68     		ldr	r3, [r7]
 4399 0162 93F90810 		ldrsb	r1, [r3, #8]
 4400 0166 3B68     		ldr	r3, [r7]
 4401 0168 DB68     		ldr	r3, [r3, #12]
 4402 016a 9BB2     		uxth	r3, r3
 4403 016c 1A46     		mov	r2, r3
 4404 016e 7868     		ldr	r0, [r7, #4]
 4405 0170 FFF7FEFF 		bl	cmp_write_ext16_marker
 4406 0174 0346     		mov	r3, r0
 4407 0176 DCE0     		b	.L351
 4408              	.L327:
 4409 0178 3B68     		ldr	r3, [r7]
 4410 017a 93F90810 		ldrsb	r1, [r3, #8]
 4411 017e 3B68     		ldr	r3, [r7]
 4412 0180 DB68     		ldr	r3, [r3, #12]
 4413 0182 1A46     		mov	r2, r3
 4414 0184 7868     		ldr	r0, [r7, #4]
 4415 0186 FFF7FEFF 		bl	cmp_write_ext32_marker
 4416 018a 0346     		mov	r3, r0
 4417 018c D1E0     		b	.L351
 4418              	.L328:
 4419 018e 3B68     		ldr	r3, [r7]
 4420 0190 D3ED027A 		vldr.32	s15, [r3, #8]
 4421 0194 B0EE670A 		vmov.f32	s0, s15
 4422 0198 7868     		ldr	r0, [r7, #4]
 4423 019a FFF7FEFF 		bl	cmp_write_float
 4424 019e 0346     		mov	r3, r0
 4425 01a0 C7E0     		b	.L351
 4426              	.L329:
 4427 01a2 3B68     		ldr	r3, [r7]
 4428 01a4 93ED027B 		vldr.64	d7, [r3, #8]
 4429 01a8 B0EE470A 		vmov.f32	s0, s14
 4430 01ac F0EE670A 		vmov.f32	s1, s15
 4431 01b0 7868     		ldr	r0, [r7, #4]
 4432 01b2 FFF7FEFF 		bl	cmp_write_double
 4433 01b6 0346     		mov	r3, r0
 4434 01b8 BBE0     		b	.L351
 4435              	.L330:
 4436 01ba 3B68     		ldr	r3, [r7]
 4437 01bc 1B7A     		ldrb	r3, [r3, #8]	@ zero_extendqisi2
 4438 01be 1946     		mov	r1, r3
ARM GAS  /var/folders/d2/nstgp4h54kz7g1l847x_b8wc0000gn/T//ccFI0sM2.s 			page 80


 4439 01c0 7868     		ldr	r0, [r7, #4]
 4440 01c2 FFF7FEFF 		bl	cmp_write_u8
 4441 01c6 0346     		mov	r3, r0
 4442 01c8 B3E0     		b	.L351
 4443              	.L331:
 4444 01ca 3B68     		ldr	r3, [r7]
 4445 01cc 1B89     		ldrh	r3, [r3, #8]
 4446 01ce 1946     		mov	r1, r3
 4447 01d0 7868     		ldr	r0, [r7, #4]
 4448 01d2 FFF7FEFF 		bl	cmp_write_u16
 4449 01d6 0346     		mov	r3, r0
 4450 01d8 ABE0     		b	.L351
 4451              	.L332:
 4452 01da 3B68     		ldr	r3, [r7]
 4453 01dc 9B68     		ldr	r3, [r3, #8]
 4454 01de 1946     		mov	r1, r3
 4455 01e0 7868     		ldr	r0, [r7, #4]
 4456 01e2 FFF7FEFF 		bl	cmp_write_u32
 4457 01e6 0346     		mov	r3, r0
 4458 01e8 A3E0     		b	.L351
 4459              	.L333:
 4460 01ea 3B68     		ldr	r3, [r7]
 4461 01ec D3E90234 		ldrd	r3, [r3, #8]
 4462 01f0 1A46     		mov	r2, r3
 4463 01f2 2346     		mov	r3, r4
 4464 01f4 7868     		ldr	r0, [r7, #4]
 4465 01f6 FFF7FEFF 		bl	cmp_write_u64
 4466 01fa 0346     		mov	r3, r0
 4467 01fc 99E0     		b	.L351
 4468              	.L334:
 4469 01fe 3B68     		ldr	r3, [r7]
 4470 0200 93F90830 		ldrsb	r3, [r3, #8]
 4471 0204 1946     		mov	r1, r3
 4472 0206 7868     		ldr	r0, [r7, #4]
 4473 0208 FFF7FEFF 		bl	cmp_write_s8
 4474 020c 0346     		mov	r3, r0
 4475 020e 90E0     		b	.L351
 4476              	.L335:
 4477 0210 3B68     		ldr	r3, [r7]
 4478 0212 B3F90830 		ldrsh	r3, [r3, #8]
 4479 0216 1946     		mov	r1, r3
 4480 0218 7868     		ldr	r0, [r7, #4]
 4481 021a FFF7FEFF 		bl	cmp_write_s16
 4482 021e 0346     		mov	r3, r0
 4483 0220 87E0     		b	.L351
 4484              	.L336:
 4485 0222 3B68     		ldr	r3, [r7]
 4486 0224 9B68     		ldr	r3, [r3, #8]
 4487 0226 1946     		mov	r1, r3
 4488 0228 7868     		ldr	r0, [r7, #4]
 4489 022a FFF7FEFF 		bl	cmp_write_s32
 4490 022e 0346     		mov	r3, r0
 4491 0230 7FE0     		b	.L351
 4492              	.L337:
 4493 0232 3B68     		ldr	r3, [r7]
 4494 0234 D3E90234 		ldrd	r3, [r3, #8]
 4495 0238 1A46     		mov	r2, r3
ARM GAS  /var/folders/d2/nstgp4h54kz7g1l847x_b8wc0000gn/T//ccFI0sM2.s 			page 81


 4496 023a 2346     		mov	r3, r4
 4497 023c 7868     		ldr	r0, [r7, #4]
 4498 023e FFF7FEFF 		bl	cmp_write_s64
 4499 0242 0346     		mov	r3, r0
 4500 0244 75E0     		b	.L351
 4501              	.L338:
 4502 0246 3B68     		ldr	r3, [r7]
 4503 0248 93F90830 		ldrsb	r3, [r3, #8]
 4504 024c 1946     		mov	r1, r3
 4505 024e 7868     		ldr	r0, [r7, #4]
 4506 0250 FFF7FEFF 		bl	cmp_write_fixext1_marker
 4507 0254 0346     		mov	r3, r0
 4508 0256 6CE0     		b	.L351
 4509              	.L339:
 4510 0258 3B68     		ldr	r3, [r7]
 4511 025a 93F90830 		ldrsb	r3, [r3, #8]
 4512 025e 1946     		mov	r1, r3
 4513 0260 7868     		ldr	r0, [r7, #4]
 4514 0262 FFF7FEFF 		bl	cmp_write_fixext2_marker
 4515 0266 0346     		mov	r3, r0
 4516 0268 63E0     		b	.L351
 4517              	.L340:
 4518 026a 3B68     		ldr	r3, [r7]
 4519 026c 93F90830 		ldrsb	r3, [r3, #8]
 4520 0270 1946     		mov	r1, r3
 4521 0272 7868     		ldr	r0, [r7, #4]
 4522 0274 FFF7FEFF 		bl	cmp_write_fixext4_marker
 4523 0278 0346     		mov	r3, r0
 4524 027a 5AE0     		b	.L351
 4525              	.L341:
 4526 027c 3B68     		ldr	r3, [r7]
 4527 027e 93F90830 		ldrsb	r3, [r3, #8]
 4528 0282 1946     		mov	r1, r3
 4529 0284 7868     		ldr	r0, [r7, #4]
 4530 0286 FFF7FEFF 		bl	cmp_write_fixext8_marker
 4531 028a 0346     		mov	r3, r0
 4532 028c 51E0     		b	.L351
 4533              	.L342:
 4534 028e 3B68     		ldr	r3, [r7]
 4535 0290 93F90830 		ldrsb	r3, [r3, #8]
 4536 0294 1946     		mov	r1, r3
 4537 0296 7868     		ldr	r0, [r7, #4]
 4538 0298 FFF7FEFF 		bl	cmp_write_fixext16_marker
 4539 029c 0346     		mov	r3, r0
 4540 029e 48E0     		b	.L351
 4541              	.L343:
 4542 02a0 3B68     		ldr	r3, [r7]
 4543 02a2 9B68     		ldr	r3, [r3, #8]
 4544 02a4 DBB2     		uxtb	r3, r3
 4545 02a6 1946     		mov	r1, r3
 4546 02a8 7868     		ldr	r0, [r7, #4]
 4547 02aa FFF7FEFF 		bl	cmp_write_str8_marker
 4548 02ae 0346     		mov	r3, r0
 4549 02b0 3FE0     		b	.L351
 4550              	.L344:
 4551 02b2 3B68     		ldr	r3, [r7]
 4552 02b4 9B68     		ldr	r3, [r3, #8]
ARM GAS  /var/folders/d2/nstgp4h54kz7g1l847x_b8wc0000gn/T//ccFI0sM2.s 			page 82


 4553 02b6 9BB2     		uxth	r3, r3
 4554 02b8 1946     		mov	r1, r3
 4555 02ba 7868     		ldr	r0, [r7, #4]
 4556 02bc FFF7FEFF 		bl	cmp_write_str16_marker
 4557 02c0 0346     		mov	r3, r0
 4558 02c2 36E0     		b	.L351
 4559              	.L345:
 4560 02c4 3B68     		ldr	r3, [r7]
 4561 02c6 9B68     		ldr	r3, [r3, #8]
 4562 02c8 1946     		mov	r1, r3
 4563 02ca 7868     		ldr	r0, [r7, #4]
 4564 02cc FFF7FEFF 		bl	cmp_write_str32_marker
 4565 02d0 0346     		mov	r3, r0
 4566 02d2 2EE0     		b	.L351
 4567              	.L346:
 4568 02d4 3B68     		ldr	r3, [r7]
 4569 02d6 9B68     		ldr	r3, [r3, #8]
 4570 02d8 9BB2     		uxth	r3, r3
 4571 02da 1946     		mov	r1, r3
 4572 02dc 7868     		ldr	r0, [r7, #4]
 4573 02de FFF7FEFF 		bl	cmp_write_array16
 4574 02e2 0346     		mov	r3, r0
 4575 02e4 25E0     		b	.L351
 4576              	.L347:
 4577 02e6 3B68     		ldr	r3, [r7]
 4578 02e8 9B68     		ldr	r3, [r3, #8]
 4579 02ea 1946     		mov	r1, r3
 4580 02ec 7868     		ldr	r0, [r7, #4]
 4581 02ee FFF7FEFF 		bl	cmp_write_array32
 4582 02f2 0346     		mov	r3, r0
 4583 02f4 1DE0     		b	.L351
 4584              	.L348:
 4585 02f6 3B68     		ldr	r3, [r7]
 4586 02f8 9B68     		ldr	r3, [r3, #8]
 4587 02fa 9BB2     		uxth	r3, r3
 4588 02fc 1946     		mov	r1, r3
 4589 02fe 7868     		ldr	r0, [r7, #4]
 4590 0300 FFF7FEFF 		bl	cmp_write_map16
 4591 0304 0346     		mov	r3, r0
 4592 0306 14E0     		b	.L351
 4593              	.L349:
 4594 0308 3B68     		ldr	r3, [r7]
 4595 030a 9B68     		ldr	r3, [r3, #8]
 4596 030c 1946     		mov	r1, r3
 4597 030e 7868     		ldr	r0, [r7, #4]
 4598 0310 FFF7FEFF 		bl	cmp_write_map32
 4599 0314 0346     		mov	r3, r0
 4600 0316 0CE0     		b	.L351
 4601              	.L350:
 4602 0318 3B68     		ldr	r3, [r7]
 4603 031a 93F90830 		ldrsb	r3, [r3, #8]
 4604 031e 1946     		mov	r1, r3
 4605 0320 7868     		ldr	r0, [r7, #4]
 4606 0322 FFF7FEFF 		bl	cmp_write_nfix
 4607 0326 0346     		mov	r3, r0
 4608 0328 03E0     		b	.L351
 4609              	.L314:
ARM GAS  /var/folders/d2/nstgp4h54kz7g1l847x_b8wc0000gn/T//ccFI0sM2.s 			page 83


 4610 032a 7B68     		ldr	r3, [r7, #4]
 4611 032c 0D22     		movs	r2, #13
 4612 032e 1A70     		strb	r2, [r3]
 4613 0330 0023     		movs	r3, #0
 4614              	.L351:
 4615 0332 1846     		mov	r0, r3
 4616 0334 0C37     		adds	r7, r7, #12
 4617 0336 BD46     		mov	sp, r7
 4618              		@ sp needed
 4619 0338 90BD     		pop	{r4, r7, pc}
 4620              		.size	cmp_write_object, .-cmp_write_object
 4621 033a 00BF     		.section	.text.cmp_read_pfix,"ax",%progbits
 4622              		.align	1
 4623              		.global	cmp_read_pfix
 4624              		.syntax unified
 4625              		.thumb
 4626              		.thumb_func
 4627              		.fpu fpv4-sp-d16
 4628              		.type	cmp_read_pfix, %function
 4629              	cmp_read_pfix:
 4630              		@ args = 0, pretend = 0, frame = 24
 4631              		@ frame_needed = 1, uses_anonymous_args = 0
 4632 0000 80B5     		push	{r7, lr}
 4633 0002 86B0     		sub	sp, sp, #24
 4634 0004 00AF     		add	r7, sp, #0
 4635 0006 7860     		str	r0, [r7, #4]
 4636 0008 3960     		str	r1, [r7]
 4637 000a 07F10803 		add	r3, r7, #8
 4638 000e 1946     		mov	r1, r3
 4639 0010 7868     		ldr	r0, [r7, #4]
 4640 0012 FFF7FEFF 		bl	cmp_read_object
 4641 0016 0346     		mov	r3, r0
 4642 0018 83F00103 		eor	r3, r3, #1
 4643 001c DBB2     		uxtb	r3, r3
 4644 001e 002B     		cmp	r3, #0
 4645 0020 01D0     		beq	.L354
 4646 0022 0023     		movs	r3, #0
 4647 0024 0BE0     		b	.L357
 4648              	.L354:
 4649 0026 3B7A     		ldrb	r3, [r7, #8]	@ zero_extendqisi2
 4650 0028 002B     		cmp	r3, #0
 4651 002a 04D0     		beq	.L356
 4652 002c 7B68     		ldr	r3, [r7, #4]
 4653 002e 0D22     		movs	r2, #13
 4654 0030 1A70     		strb	r2, [r3]
 4655 0032 0023     		movs	r3, #0
 4656 0034 03E0     		b	.L357
 4657              	.L356:
 4658 0036 3A7C     		ldrb	r2, [r7, #16]	@ zero_extendqisi2
 4659 0038 3B68     		ldr	r3, [r7]
 4660 003a 1A70     		strb	r2, [r3]
 4661 003c 0123     		movs	r3, #1
 4662              	.L357:
 4663 003e 1846     		mov	r0, r3
 4664 0040 1837     		adds	r7, r7, #24
 4665 0042 BD46     		mov	sp, r7
 4666              		@ sp needed
ARM GAS  /var/folders/d2/nstgp4h54kz7g1l847x_b8wc0000gn/T//ccFI0sM2.s 			page 84


 4667 0044 80BD     		pop	{r7, pc}
 4668              		.size	cmp_read_pfix, .-cmp_read_pfix
 4669              		.section	.text.cmp_read_nfix,"ax",%progbits
 4670              		.align	1
 4671              		.global	cmp_read_nfix
 4672              		.syntax unified
 4673              		.thumb
 4674              		.thumb_func
 4675              		.fpu fpv4-sp-d16
 4676              		.type	cmp_read_nfix, %function
 4677              	cmp_read_nfix:
 4678              		@ args = 0, pretend = 0, frame = 24
 4679              		@ frame_needed = 1, uses_anonymous_args = 0
 4680 0000 80B5     		push	{r7, lr}
 4681 0002 86B0     		sub	sp, sp, #24
 4682 0004 00AF     		add	r7, sp, #0
 4683 0006 7860     		str	r0, [r7, #4]
 4684 0008 3960     		str	r1, [r7]
 4685 000a 07F10803 		add	r3, r7, #8
 4686 000e 1946     		mov	r1, r3
 4687 0010 7868     		ldr	r0, [r7, #4]
 4688 0012 FFF7FEFF 		bl	cmp_read_object
 4689 0016 0346     		mov	r3, r0
 4690 0018 83F00103 		eor	r3, r3, #1
 4691 001c DBB2     		uxtb	r3, r3
 4692 001e 002B     		cmp	r3, #0
 4693 0020 01D0     		beq	.L359
 4694 0022 0023     		movs	r3, #0
 4695 0024 0CE0     		b	.L362
 4696              	.L359:
 4697 0026 3B7A     		ldrb	r3, [r7, #8]	@ zero_extendqisi2
 4698 0028 222B     		cmp	r3, #34
 4699 002a 04D0     		beq	.L361
 4700 002c 7B68     		ldr	r3, [r7, #4]
 4701 002e 0D22     		movs	r2, #13
 4702 0030 1A70     		strb	r2, [r3]
 4703 0032 0023     		movs	r3, #0
 4704 0034 04E0     		b	.L362
 4705              	.L361:
 4706 0036 97F91020 		ldrsb	r2, [r7, #16]
 4707 003a 3B68     		ldr	r3, [r7]
 4708 003c 1A70     		strb	r2, [r3]
 4709 003e 0123     		movs	r3, #1
 4710              	.L362:
 4711 0040 1846     		mov	r0, r3
 4712 0042 1837     		adds	r7, r7, #24
 4713 0044 BD46     		mov	sp, r7
 4714              		@ sp needed
 4715 0046 80BD     		pop	{r7, pc}
 4716              		.size	cmp_read_nfix, .-cmp_read_nfix
 4717              		.section	.text.cmp_read_sfix,"ax",%progbits
 4718              		.align	1
 4719              		.global	cmp_read_sfix
 4720              		.syntax unified
 4721              		.thumb
 4722              		.thumb_func
 4723              		.fpu fpv4-sp-d16
ARM GAS  /var/folders/d2/nstgp4h54kz7g1l847x_b8wc0000gn/T//ccFI0sM2.s 			page 85


 4724              		.type	cmp_read_sfix, %function
 4725              	cmp_read_sfix:
 4726              		@ args = 0, pretend = 0, frame = 24
 4727              		@ frame_needed = 1, uses_anonymous_args = 0
 4728 0000 80B5     		push	{r7, lr}
 4729 0002 86B0     		sub	sp, sp, #24
 4730 0004 00AF     		add	r7, sp, #0
 4731 0006 7860     		str	r0, [r7, #4]
 4732 0008 3960     		str	r1, [r7]
 4733 000a 07F10803 		add	r3, r7, #8
 4734 000e 1946     		mov	r1, r3
 4735 0010 7868     		ldr	r0, [r7, #4]
 4736 0012 FFF7FEFF 		bl	cmp_read_object
 4737 0016 0346     		mov	r3, r0
 4738 0018 83F00103 		eor	r3, r3, #1
 4739 001c DBB2     		uxtb	r3, r3
 4740 001e 002B     		cmp	r3, #0
 4741 0020 01D0     		beq	.L364
 4742 0022 0023     		movs	r3, #0
 4743 0024 0EE0     		b	.L368
 4744              	.L364:
 4745 0026 3B7A     		ldrb	r3, [r7, #8]	@ zero_extendqisi2
 4746 0028 002B     		cmp	r3, #0
 4747 002a 01D0     		beq	.L367
 4748 002c 222B     		cmp	r3, #34
 4749 002e 05D1     		bne	.L369
 4750              	.L367:
 4751 0030 97F91020 		ldrsb	r2, [r7, #16]
 4752 0034 3B68     		ldr	r3, [r7]
 4753 0036 1A70     		strb	r2, [r3]
 4754 0038 0123     		movs	r3, #1
 4755 003a 03E0     		b	.L368
 4756              	.L369:
 4757 003c 7B68     		ldr	r3, [r7, #4]
 4758 003e 0D22     		movs	r2, #13
 4759 0040 1A70     		strb	r2, [r3]
 4760 0042 0023     		movs	r3, #0
 4761              	.L368:
 4762 0044 1846     		mov	r0, r3
 4763 0046 1837     		adds	r7, r7, #24
 4764 0048 BD46     		mov	sp, r7
 4765              		@ sp needed
 4766 004a 80BD     		pop	{r7, pc}
 4767              		.size	cmp_read_sfix, .-cmp_read_sfix
 4768              		.section	.text.cmp_read_s8,"ax",%progbits
 4769              		.align	1
 4770              		.global	cmp_read_s8
 4771              		.syntax unified
 4772              		.thumb
 4773              		.thumb_func
 4774              		.fpu fpv4-sp-d16
 4775              		.type	cmp_read_s8, %function
 4776              	cmp_read_s8:
 4777              		@ args = 0, pretend = 0, frame = 24
 4778              		@ frame_needed = 1, uses_anonymous_args = 0
 4779 0000 80B5     		push	{r7, lr}
 4780 0002 86B0     		sub	sp, sp, #24
ARM GAS  /var/folders/d2/nstgp4h54kz7g1l847x_b8wc0000gn/T//ccFI0sM2.s 			page 86


 4781 0004 00AF     		add	r7, sp, #0
 4782 0006 7860     		str	r0, [r7, #4]
 4783 0008 3960     		str	r1, [r7]
 4784 000a 07F10803 		add	r3, r7, #8
 4785 000e 1946     		mov	r1, r3
 4786 0010 7868     		ldr	r0, [r7, #4]
 4787 0012 FFF7FEFF 		bl	cmp_read_object
 4788 0016 0346     		mov	r3, r0
 4789 0018 83F00103 		eor	r3, r3, #1
 4790 001c DBB2     		uxtb	r3, r3
 4791 001e 002B     		cmp	r3, #0
 4792 0020 01D0     		beq	.L371
 4793 0022 0023     		movs	r3, #0
 4794 0024 0CE0     		b	.L374
 4795              	.L371:
 4796 0026 3B7A     		ldrb	r3, [r7, #8]	@ zero_extendqisi2
 4797 0028 122B     		cmp	r3, #18
 4798 002a 04D0     		beq	.L373
 4799 002c 7B68     		ldr	r3, [r7, #4]
 4800 002e 0D22     		movs	r2, #13
 4801 0030 1A70     		strb	r2, [r3]
 4802 0032 0023     		movs	r3, #0
 4803 0034 04E0     		b	.L374
 4804              	.L373:
 4805 0036 97F91020 		ldrsb	r2, [r7, #16]
 4806 003a 3B68     		ldr	r3, [r7]
 4807 003c 1A70     		strb	r2, [r3]
 4808 003e 0123     		movs	r3, #1
 4809              	.L374:
 4810 0040 1846     		mov	r0, r3
 4811 0042 1837     		adds	r7, r7, #24
 4812 0044 BD46     		mov	sp, r7
 4813              		@ sp needed
 4814 0046 80BD     		pop	{r7, pc}
 4815              		.size	cmp_read_s8, .-cmp_read_s8
 4816              		.section	.text.cmp_read_s16,"ax",%progbits
 4817              		.align	1
 4818              		.global	cmp_read_s16
 4819              		.syntax unified
 4820              		.thumb
 4821              		.thumb_func
 4822              		.fpu fpv4-sp-d16
 4823              		.type	cmp_read_s16, %function
 4824              	cmp_read_s16:
 4825              		@ args = 0, pretend = 0, frame = 24
 4826              		@ frame_needed = 1, uses_anonymous_args = 0
 4827 0000 80B5     		push	{r7, lr}
 4828 0002 86B0     		sub	sp, sp, #24
 4829 0004 00AF     		add	r7, sp, #0
 4830 0006 7860     		str	r0, [r7, #4]
 4831 0008 3960     		str	r1, [r7]
 4832 000a 07F10803 		add	r3, r7, #8
 4833 000e 1946     		mov	r1, r3
 4834 0010 7868     		ldr	r0, [r7, #4]
 4835 0012 FFF7FEFF 		bl	cmp_read_object
 4836 0016 0346     		mov	r3, r0
 4837 0018 83F00103 		eor	r3, r3, #1
ARM GAS  /var/folders/d2/nstgp4h54kz7g1l847x_b8wc0000gn/T//ccFI0sM2.s 			page 87


 4838 001c DBB2     		uxtb	r3, r3
 4839 001e 002B     		cmp	r3, #0
 4840 0020 01D0     		beq	.L376
 4841 0022 0023     		movs	r3, #0
 4842 0024 0CE0     		b	.L379
 4843              	.L376:
 4844 0026 3B7A     		ldrb	r3, [r7, #8]	@ zero_extendqisi2
 4845 0028 132B     		cmp	r3, #19
 4846 002a 04D0     		beq	.L378
 4847 002c 7B68     		ldr	r3, [r7, #4]
 4848 002e 0D22     		movs	r2, #13
 4849 0030 1A70     		strb	r2, [r3]
 4850 0032 0023     		movs	r3, #0
 4851 0034 04E0     		b	.L379
 4852              	.L378:
 4853 0036 B7F91020 		ldrsh	r2, [r7, #16]
 4854 003a 3B68     		ldr	r3, [r7]
 4855 003c 1A80     		strh	r2, [r3]	@ movhi
 4856 003e 0123     		movs	r3, #1
 4857              	.L379:
 4858 0040 1846     		mov	r0, r3
 4859 0042 1837     		adds	r7, r7, #24
 4860 0044 BD46     		mov	sp, r7
 4861              		@ sp needed
 4862 0046 80BD     		pop	{r7, pc}
 4863              		.size	cmp_read_s16, .-cmp_read_s16
 4864              		.section	.text.cmp_read_s32,"ax",%progbits
 4865              		.align	1
 4866              		.global	cmp_read_s32
 4867              		.syntax unified
 4868              		.thumb
 4869              		.thumb_func
 4870              		.fpu fpv4-sp-d16
 4871              		.type	cmp_read_s32, %function
 4872              	cmp_read_s32:
 4873              		@ args = 0, pretend = 0, frame = 24
 4874              		@ frame_needed = 1, uses_anonymous_args = 0
 4875 0000 80B5     		push	{r7, lr}
 4876 0002 86B0     		sub	sp, sp, #24
 4877 0004 00AF     		add	r7, sp, #0
 4878 0006 7860     		str	r0, [r7, #4]
 4879 0008 3960     		str	r1, [r7]
 4880 000a 07F10803 		add	r3, r7, #8
 4881 000e 1946     		mov	r1, r3
 4882 0010 7868     		ldr	r0, [r7, #4]
 4883 0012 FFF7FEFF 		bl	cmp_read_object
 4884 0016 0346     		mov	r3, r0
 4885 0018 83F00103 		eor	r3, r3, #1
 4886 001c DBB2     		uxtb	r3, r3
 4887 001e 002B     		cmp	r3, #0
 4888 0020 01D0     		beq	.L381
 4889 0022 0023     		movs	r3, #0
 4890 0024 0BE0     		b	.L384
 4891              	.L381:
 4892 0026 3B7A     		ldrb	r3, [r7, #8]	@ zero_extendqisi2
 4893 0028 142B     		cmp	r3, #20
 4894 002a 04D0     		beq	.L383
ARM GAS  /var/folders/d2/nstgp4h54kz7g1l847x_b8wc0000gn/T//ccFI0sM2.s 			page 88


 4895 002c 7B68     		ldr	r3, [r7, #4]
 4896 002e 0D22     		movs	r2, #13
 4897 0030 1A70     		strb	r2, [r3]
 4898 0032 0023     		movs	r3, #0
 4899 0034 03E0     		b	.L384
 4900              	.L383:
 4901 0036 3A69     		ldr	r2, [r7, #16]
 4902 0038 3B68     		ldr	r3, [r7]
 4903 003a 1A60     		str	r2, [r3]
 4904 003c 0123     		movs	r3, #1
 4905              	.L384:
 4906 003e 1846     		mov	r0, r3
 4907 0040 1837     		adds	r7, r7, #24
 4908 0042 BD46     		mov	sp, r7
 4909              		@ sp needed
 4910 0044 80BD     		pop	{r7, pc}
 4911              		.size	cmp_read_s32, .-cmp_read_s32
 4912              		.section	.text.cmp_read_s64,"ax",%progbits
 4913              		.align	1
 4914              		.global	cmp_read_s64
 4915              		.syntax unified
 4916              		.thumb
 4917              		.thumb_func
 4918              		.fpu fpv4-sp-d16
 4919              		.type	cmp_read_s64, %function
 4920              	cmp_read_s64:
 4921              		@ args = 0, pretend = 0, frame = 24
 4922              		@ frame_needed = 1, uses_anonymous_args = 0
 4923 0000 90B5     		push	{r4, r7, lr}
 4924 0002 87B0     		sub	sp, sp, #28
 4925 0004 00AF     		add	r7, sp, #0
 4926 0006 7860     		str	r0, [r7, #4]
 4927 0008 3960     		str	r1, [r7]
 4928 000a 07F10803 		add	r3, r7, #8
 4929 000e 1946     		mov	r1, r3
 4930 0010 7868     		ldr	r0, [r7, #4]
 4931 0012 FFF7FEFF 		bl	cmp_read_object
 4932 0016 0346     		mov	r3, r0
 4933 0018 83F00103 		eor	r3, r3, #1
 4934 001c DBB2     		uxtb	r3, r3
 4935 001e 002B     		cmp	r3, #0
 4936 0020 01D0     		beq	.L386
 4937 0022 0023     		movs	r3, #0
 4938 0024 0DE0     		b	.L389
 4939              	.L386:
 4940 0026 3B7A     		ldrb	r3, [r7, #8]	@ zero_extendqisi2
 4941 0028 152B     		cmp	r3, #21
 4942 002a 04D0     		beq	.L388
 4943 002c 7B68     		ldr	r3, [r7, #4]
 4944 002e 0D22     		movs	r2, #13
 4945 0030 1A70     		strb	r2, [r3]
 4946 0032 0023     		movs	r3, #0
 4947 0034 05E0     		b	.L389
 4948              	.L388:
 4949 0036 D7E90434 		ldrd	r3, [r7, #16]
 4950 003a 3A68     		ldr	r2, [r7]
 4951 003c C2E90034 		strd	r3, [r2]
ARM GAS  /var/folders/d2/nstgp4h54kz7g1l847x_b8wc0000gn/T//ccFI0sM2.s 			page 89


 4952 0040 0123     		movs	r3, #1
 4953              	.L389:
 4954 0042 1846     		mov	r0, r3
 4955 0044 1C37     		adds	r7, r7, #28
 4956 0046 BD46     		mov	sp, r7
 4957              		@ sp needed
 4958 0048 90BD     		pop	{r4, r7, pc}
 4959              		.size	cmp_read_s64, .-cmp_read_s64
 4960              		.section	.text.cmp_read_char,"ax",%progbits
 4961              		.align	1
 4962              		.global	cmp_read_char
 4963              		.syntax unified
 4964              		.thumb
 4965              		.thumb_func
 4966              		.fpu fpv4-sp-d16
 4967              		.type	cmp_read_char, %function
 4968              	cmp_read_char:
 4969              		@ args = 0, pretend = 0, frame = 24
 4970              		@ frame_needed = 1, uses_anonymous_args = 0
 4971 0000 80B5     		push	{r7, lr}
 4972 0002 86B0     		sub	sp, sp, #24
 4973 0004 00AF     		add	r7, sp, #0
 4974 0006 7860     		str	r0, [r7, #4]
 4975 0008 3960     		str	r1, [r7]
 4976 000a 07F10803 		add	r3, r7, #8
 4977 000e 1946     		mov	r1, r3
 4978 0010 7868     		ldr	r0, [r7, #4]
 4979 0012 FFF7FEFF 		bl	cmp_read_object
 4980 0016 0346     		mov	r3, r0
 4981 0018 83F00103 		eor	r3, r3, #1
 4982 001c DBB2     		uxtb	r3, r3
 4983 001e 002B     		cmp	r3, #0
 4984 0020 01D0     		beq	.L391
 4985 0022 0023     		movs	r3, #0
 4986 0024 60E0     		b	.L397
 4987              	.L391:
 4988 0026 3B7A     		ldrb	r3, [r7, #8]	@ zero_extendqisi2
 4989 0028 222B     		cmp	r3, #34
 4990 002a 59D8     		bhi	.L393
 4991 002c 01A2     		adr	r2, .L395
 4992 002e 52F823F0 		ldr	pc, [r2, r3, lsl #2]
 4993 0032 00BF     		.p2align 2
 4994              	.L395:
 4995 0034 C1000000 		.word	.L394+1
 4996 0038 E1000000 		.word	.L393+1
 4997 003c E1000000 		.word	.L393+1
 4998 0040 E1000000 		.word	.L393+1
 4999 0044 E1000000 		.word	.L393+1
 5000 0048 E1000000 		.word	.L393+1
 5001 004c E1000000 		.word	.L393+1
 5002 0050 E1000000 		.word	.L393+1
 5003 0054 E1000000 		.word	.L393+1
 5004 0058 E1000000 		.word	.L393+1
 5005 005c E1000000 		.word	.L393+1
 5006 0060 E1000000 		.word	.L393+1
 5007 0064 E1000000 		.word	.L393+1
 5008 0068 E1000000 		.word	.L393+1
ARM GAS  /var/folders/d2/nstgp4h54kz7g1l847x_b8wc0000gn/T//ccFI0sM2.s 			page 90


 5009 006c CD000000 		.word	.L396+1
 5010 0070 E1000000 		.word	.L393+1
 5011 0074 E1000000 		.word	.L393+1
 5012 0078 E1000000 		.word	.L393+1
 5013 007c C1000000 		.word	.L394+1
 5014 0080 E1000000 		.word	.L393+1
 5015 0084 E1000000 		.word	.L393+1
 5016 0088 E1000000 		.word	.L393+1
 5017 008c E1000000 		.word	.L393+1
 5018 0090 E1000000 		.word	.L393+1
 5019 0094 E1000000 		.word	.L393+1
 5020 0098 E1000000 		.word	.L393+1
 5021 009c E1000000 		.word	.L393+1
 5022 00a0 E1000000 		.word	.L393+1
 5023 00a4 E1000000 		.word	.L393+1
 5024 00a8 E1000000 		.word	.L393+1
 5025 00ac E1000000 		.word	.L393+1
 5026 00b0 E1000000 		.word	.L393+1
 5027 00b4 E1000000 		.word	.L393+1
 5028 00b8 E1000000 		.word	.L393+1
 5029 00bc C1000000 		.word	.L394+1
 5030              		.p2align 1
 5031              	.L394:
 5032 00c0 97F91020 		ldrsb	r2, [r7, #16]
 5033 00c4 3B68     		ldr	r3, [r7]
 5034 00c6 1A70     		strb	r2, [r3]
 5035 00c8 0123     		movs	r3, #1
 5036 00ca 0DE0     		b	.L397
 5037              	.L396:
 5038 00cc 3B7C     		ldrb	r3, [r7, #16]	@ zero_extendqisi2
 5039 00ce 5BB2     		sxtb	r3, r3
 5040 00d0 002B     		cmp	r3, #0
 5041 00d2 05DB     		blt	.L393
 5042 00d4 3B7C     		ldrb	r3, [r7, #16]	@ zero_extendqisi2
 5043 00d6 5AB2     		sxtb	r2, r3
 5044 00d8 3B68     		ldr	r3, [r7]
 5045 00da 1A70     		strb	r2, [r3]
 5046 00dc 0123     		movs	r3, #1
 5047 00de 03E0     		b	.L397
 5048              	.L393:
 5049 00e0 7B68     		ldr	r3, [r7, #4]
 5050 00e2 0D22     		movs	r2, #13
 5051 00e4 1A70     		strb	r2, [r3]
 5052 00e6 0023     		movs	r3, #0
 5053              	.L397:
 5054 00e8 1846     		mov	r0, r3
 5055 00ea 1837     		adds	r7, r7, #24
 5056 00ec BD46     		mov	sp, r7
 5057              		@ sp needed
 5058 00ee 80BD     		pop	{r7, pc}
 5059              		.size	cmp_read_char, .-cmp_read_char
 5060              		.section	.text.cmp_read_short,"ax",%progbits
 5061              		.align	1
 5062              		.global	cmp_read_short
 5063              		.syntax unified
 5064              		.thumb
 5065              		.thumb_func
ARM GAS  /var/folders/d2/nstgp4h54kz7g1l847x_b8wc0000gn/T//ccFI0sM2.s 			page 91


 5066              		.fpu fpv4-sp-d16
 5067              		.type	cmp_read_short, %function
 5068              	cmp_read_short:
 5069              		@ args = 0, pretend = 0, frame = 24
 5070              		@ frame_needed = 1, uses_anonymous_args = 0
 5071 0000 80B5     		push	{r7, lr}
 5072 0002 86B0     		sub	sp, sp, #24
 5073 0004 00AF     		add	r7, sp, #0
 5074 0006 7860     		str	r0, [r7, #4]
 5075 0008 3960     		str	r1, [r7]
 5076 000a 07F10803 		add	r3, r7, #8
 5077 000e 1946     		mov	r1, r3
 5078 0010 7868     		ldr	r0, [r7, #4]
 5079 0012 FFF7FEFF 		bl	cmp_read_object
 5080 0016 0346     		mov	r3, r0
 5081 0018 83F00103 		eor	r3, r3, #1
 5082 001c DBB2     		uxtb	r3, r3
 5083 001e 002B     		cmp	r3, #0
 5084 0020 01D0     		beq	.L399
 5085 0022 0023     		movs	r3, #0
 5086 0024 6DE0     		b	.L407
 5087              	.L399:
 5088 0026 3B7A     		ldrb	r3, [r7, #8]	@ zero_extendqisi2
 5089 0028 222B     		cmp	r3, #34
 5090 002a 66D8     		bhi	.L401
 5091 002c 01A2     		adr	r2, .L403
 5092 002e 52F823F0 		ldr	pc, [r2, r3, lsl #2]
 5093 0032 00BF     		.p2align 2
 5094              	.L403:
 5095 0034 C1000000 		.word	.L402+1
 5096 0038 FB000000 		.word	.L401+1
 5097 003c FB000000 		.word	.L401+1
 5098 0040 FB000000 		.word	.L401+1
 5099 0044 FB000000 		.word	.L401+1
 5100 0048 FB000000 		.word	.L401+1
 5101 004c FB000000 		.word	.L401+1
 5102 0050 FB000000 		.word	.L401+1
 5103 0054 FB000000 		.word	.L401+1
 5104 0058 FB000000 		.word	.L401+1
 5105 005c FB000000 		.word	.L401+1
 5106 0060 FB000000 		.word	.L401+1
 5107 0064 FB000000 		.word	.L401+1
 5108 0068 FB000000 		.word	.L401+1
 5109 006c CF000000 		.word	.L404+1
 5110 0070 E7000000 		.word	.L405+1
 5111 0074 FB000000 		.word	.L401+1
 5112 0078 FB000000 		.word	.L401+1
 5113 007c C1000000 		.word	.L402+1
 5114 0080 DB000000 		.word	.L406+1
 5115 0084 FB000000 		.word	.L401+1
 5116 0088 FB000000 		.word	.L401+1
 5117 008c FB000000 		.word	.L401+1
 5118 0090 FB000000 		.word	.L401+1
 5119 0094 FB000000 		.word	.L401+1
 5120 0098 FB000000 		.word	.L401+1
 5121 009c FB000000 		.word	.L401+1
 5122 00a0 FB000000 		.word	.L401+1
ARM GAS  /var/folders/d2/nstgp4h54kz7g1l847x_b8wc0000gn/T//ccFI0sM2.s 			page 92


 5123 00a4 FB000000 		.word	.L401+1
 5124 00a8 FB000000 		.word	.L401+1
 5125 00ac FB000000 		.word	.L401+1
 5126 00b0 FB000000 		.word	.L401+1
 5127 00b4 FB000000 		.word	.L401+1
 5128 00b8 FB000000 		.word	.L401+1
 5129 00bc C1000000 		.word	.L402+1
 5130              		.p2align 1
 5131              	.L402:
 5132 00c0 97F91030 		ldrsb	r3, [r7, #16]
 5133 00c4 1AB2     		sxth	r2, r3
 5134 00c6 3B68     		ldr	r3, [r7]
 5135 00c8 1A80     		strh	r2, [r3]	@ movhi
 5136 00ca 0123     		movs	r3, #1
 5137 00cc 19E0     		b	.L407
 5138              	.L404:
 5139 00ce 3B7C     		ldrb	r3, [r7, #16]	@ zero_extendqisi2
 5140 00d0 1AB2     		sxth	r2, r3
 5141 00d2 3B68     		ldr	r3, [r7]
 5142 00d4 1A80     		strh	r2, [r3]	@ movhi
 5143 00d6 0123     		movs	r3, #1
 5144 00d8 13E0     		b	.L407
 5145              	.L406:
 5146 00da B7F91020 		ldrsh	r2, [r7, #16]
 5147 00de 3B68     		ldr	r3, [r7]
 5148 00e0 1A80     		strh	r2, [r3]	@ movhi
 5149 00e2 0123     		movs	r3, #1
 5150 00e4 0DE0     		b	.L407
 5151              	.L405:
 5152 00e6 3B8A     		ldrh	r3, [r7, #16]
 5153 00e8 1BB2     		sxth	r3, r3
 5154 00ea 002B     		cmp	r3, #0
 5155 00ec 05DB     		blt	.L401
 5156 00ee 3B8A     		ldrh	r3, [r7, #16]
 5157 00f0 1AB2     		sxth	r2, r3
 5158 00f2 3B68     		ldr	r3, [r7]
 5159 00f4 1A80     		strh	r2, [r3]	@ movhi
 5160 00f6 0123     		movs	r3, #1
 5161 00f8 03E0     		b	.L407
 5162              	.L401:
 5163 00fa 7B68     		ldr	r3, [r7, #4]
 5164 00fc 0D22     		movs	r2, #13
 5165 00fe 1A70     		strb	r2, [r3]
 5166 0100 0023     		movs	r3, #0
 5167              	.L407:
 5168 0102 1846     		mov	r0, r3
 5169 0104 1837     		adds	r7, r7, #24
 5170 0106 BD46     		mov	sp, r7
 5171              		@ sp needed
 5172 0108 80BD     		pop	{r7, pc}
 5173              		.size	cmp_read_short, .-cmp_read_short
 5174 010a 00BF     		.section	.text.cmp_read_int,"ax",%progbits
 5175              		.align	1
 5176              		.global	cmp_read_int
 5177              		.syntax unified
 5178              		.thumb
 5179              		.thumb_func
ARM GAS  /var/folders/d2/nstgp4h54kz7g1l847x_b8wc0000gn/T//ccFI0sM2.s 			page 93


 5180              		.fpu fpv4-sp-d16
 5181              		.type	cmp_read_int, %function
 5182              	cmp_read_int:
 5183              		@ args = 0, pretend = 0, frame = 24
 5184              		@ frame_needed = 1, uses_anonymous_args = 0
 5185 0000 80B5     		push	{r7, lr}
 5186 0002 86B0     		sub	sp, sp, #24
 5187 0004 00AF     		add	r7, sp, #0
 5188 0006 7860     		str	r0, [r7, #4]
 5189 0008 3960     		str	r1, [r7]
 5190 000a 07F10803 		add	r3, r7, #8
 5191 000e 1946     		mov	r1, r3
 5192 0010 7868     		ldr	r0, [r7, #4]
 5193 0012 FFF7FEFF 		bl	cmp_read_object
 5194 0016 0346     		mov	r3, r0
 5195 0018 83F00103 		eor	r3, r3, #1
 5196 001c DBB2     		uxtb	r3, r3
 5197 001e 002B     		cmp	r3, #0
 5198 0020 01D0     		beq	.L409
 5199 0022 0023     		movs	r3, #0
 5200 0024 78E0     		b	.L419
 5201              	.L409:
 5202 0026 3B7A     		ldrb	r3, [r7, #8]	@ zero_extendqisi2
 5203 0028 222B     		cmp	r3, #34
 5204 002a 71D8     		bhi	.L411
 5205 002c 01A2     		adr	r2, .L413
 5206 002e 52F823F0 		ldr	pc, [r2, r3, lsl #2]
 5207 0032 00BF     		.p2align 2
 5208              	.L413:
 5209 0034 C1000000 		.word	.L412+1
 5210 0038 11010000 		.word	.L411+1
 5211 003c 11010000 		.word	.L411+1
 5212 0040 11010000 		.word	.L411+1
 5213 0044 11010000 		.word	.L411+1
 5214 0048 11010000 		.word	.L411+1
 5215 004c 11010000 		.word	.L411+1
 5216 0050 11010000 		.word	.L411+1
 5217 0054 11010000 		.word	.L411+1
 5218 0058 11010000 		.word	.L411+1
 5219 005c 11010000 		.word	.L411+1
 5220 0060 11010000 		.word	.L411+1
 5221 0064 11010000 		.word	.L411+1
 5222 0068 11010000 		.word	.L411+1
 5223 006c CF000000 		.word	.L414+1
 5224 0070 E9000000 		.word	.L415+1
 5225 0074 FF000000 		.word	.L416+1
 5226 0078 11010000 		.word	.L411+1
 5227 007c C1000000 		.word	.L412+1
 5228 0080 DB000000 		.word	.L417+1
 5229 0084 F5000000 		.word	.L418+1
 5230 0088 11010000 		.word	.L411+1
 5231 008c 11010000 		.word	.L411+1
 5232 0090 11010000 		.word	.L411+1
 5233 0094 11010000 		.word	.L411+1
 5234 0098 11010000 		.word	.L411+1
 5235 009c 11010000 		.word	.L411+1
 5236 00a0 11010000 		.word	.L411+1
ARM GAS  /var/folders/d2/nstgp4h54kz7g1l847x_b8wc0000gn/T//ccFI0sM2.s 			page 94


 5237 00a4 11010000 		.word	.L411+1
 5238 00a8 11010000 		.word	.L411+1
 5239 00ac 11010000 		.word	.L411+1
 5240 00b0 11010000 		.word	.L411+1
 5241 00b4 11010000 		.word	.L411+1
 5242 00b8 11010000 		.word	.L411+1
 5243 00bc C1000000 		.word	.L412+1
 5244              		.p2align 1
 5245              	.L412:
 5246 00c0 97F91030 		ldrsb	r3, [r7, #16]
 5247 00c4 1A46     		mov	r2, r3
 5248 00c6 3B68     		ldr	r3, [r7]
 5249 00c8 1A60     		str	r2, [r3]
 5250 00ca 0123     		movs	r3, #1
 5251 00cc 24E0     		b	.L419
 5252              	.L414:
 5253 00ce 3B7C     		ldrb	r3, [r7, #16]	@ zero_extendqisi2
 5254 00d0 1A46     		mov	r2, r3
 5255 00d2 3B68     		ldr	r3, [r7]
 5256 00d4 1A60     		str	r2, [r3]
 5257 00d6 0123     		movs	r3, #1
 5258 00d8 1EE0     		b	.L419
 5259              	.L417:
 5260 00da B7F91030 		ldrsh	r3, [r7, #16]
 5261 00de 1A46     		mov	r2, r3
 5262 00e0 3B68     		ldr	r3, [r7]
 5263 00e2 1A60     		str	r2, [r3]
 5264 00e4 0123     		movs	r3, #1
 5265 00e6 17E0     		b	.L419
 5266              	.L415:
 5267 00e8 3B8A     		ldrh	r3, [r7, #16]
 5268 00ea 1A46     		mov	r2, r3
 5269 00ec 3B68     		ldr	r3, [r7]
 5270 00ee 1A60     		str	r2, [r3]
 5271 00f0 0123     		movs	r3, #1
 5272 00f2 11E0     		b	.L419
 5273              	.L418:
 5274 00f4 3A69     		ldr	r2, [r7, #16]
 5275 00f6 3B68     		ldr	r3, [r7]
 5276 00f8 1A60     		str	r2, [r3]
 5277 00fa 0123     		movs	r3, #1
 5278 00fc 0CE0     		b	.L419
 5279              	.L416:
 5280 00fe 3B69     		ldr	r3, [r7, #16]
 5281 0100 002B     		cmp	r3, #0
 5282 0102 05DB     		blt	.L411
 5283 0104 3B69     		ldr	r3, [r7, #16]
 5284 0106 1A46     		mov	r2, r3
 5285 0108 3B68     		ldr	r3, [r7]
 5286 010a 1A60     		str	r2, [r3]
 5287 010c 0123     		movs	r3, #1
 5288 010e 03E0     		b	.L419
 5289              	.L411:
 5290 0110 7B68     		ldr	r3, [r7, #4]
 5291 0112 0D22     		movs	r2, #13
 5292 0114 1A70     		strb	r2, [r3]
 5293 0116 0023     		movs	r3, #0
ARM GAS  /var/folders/d2/nstgp4h54kz7g1l847x_b8wc0000gn/T//ccFI0sM2.s 			page 95


 5294              	.L419:
 5295 0118 1846     		mov	r0, r3
 5296 011a 1837     		adds	r7, r7, #24
 5297 011c BD46     		mov	sp, r7
 5298              		@ sp needed
 5299 011e 80BD     		pop	{r7, pc}
 5300              		.size	cmp_read_int, .-cmp_read_int
 5301              		.section	.text.cmp_read_long,"ax",%progbits
 5302              		.align	1
 5303              		.global	cmp_read_long
 5304              		.syntax unified
 5305              		.thumb
 5306              		.thumb_func
 5307              		.fpu fpv4-sp-d16
 5308              		.type	cmp_read_long, %function
 5309              	cmp_read_long:
 5310              		@ args = 0, pretend = 0, frame = 24
 5311              		@ frame_needed = 1, uses_anonymous_args = 0
 5312 0000 90B5     		push	{r4, r7, lr}
 5313 0002 87B0     		sub	sp, sp, #28
 5314 0004 00AF     		add	r7, sp, #0
 5315 0006 7860     		str	r0, [r7, #4]
 5316 0008 3960     		str	r1, [r7]
 5317 000a 07F10803 		add	r3, r7, #8
 5318 000e 1946     		mov	r1, r3
 5319 0010 7868     		ldr	r0, [r7, #4]
 5320 0012 FFF7FEFF 		bl	cmp_read_object
 5321 0016 0346     		mov	r3, r0
 5322 0018 83F00103 		eor	r3, r3, #1
 5323 001c DBB2     		uxtb	r3, r3
 5324 001e 002B     		cmp	r3, #0
 5325 0020 01D0     		beq	.L421
 5326 0022 0023     		movs	r3, #0
 5327 0024 9AE0     		b	.L433
 5328              	.L421:
 5329 0026 3B7A     		ldrb	r3, [r7, #8]	@ zero_extendqisi2
 5330 0028 222B     		cmp	r3, #34
 5331 002a 00F29380 		bhi	.L423
 5332 002e 01A2     		adr	r2, .L425
 5333 0030 52F823F0 		ldr	pc, [r2, r3, lsl #2]
 5334              		.p2align 2
 5335              	.L425:
 5336 0034 C1000000 		.word	.L424+1
 5337 0038 55010000 		.word	.L423+1
 5338 003c 55010000 		.word	.L423+1
 5339 0040 55010000 		.word	.L423+1
 5340 0044 55010000 		.word	.L423+1
 5341 0048 55010000 		.word	.L423+1
 5342 004c 55010000 		.word	.L423+1
 5343 0050 55010000 		.word	.L423+1
 5344 0054 55010000 		.word	.L423+1
 5345 0058 55010000 		.word	.L423+1
 5346 005c 55010000 		.word	.L423+1
 5347 0060 55010000 		.word	.L423+1
 5348 0064 55010000 		.word	.L423+1
 5349 0068 55010000 		.word	.L423+1
 5350 006c D5000000 		.word	.L426+1
ARM GAS  /var/folders/d2/nstgp4h54kz7g1l847x_b8wc0000gn/T//ccFI0sM2.s 			page 96


 5351 0070 FB000000 		.word	.L427+1
 5352 0074 1D010000 		.word	.L428+1
 5353 0078 3B010000 		.word	.L429+1
 5354 007c C1000000 		.word	.L424+1
 5355 0080 E7000000 		.word	.L430+1
 5356 0084 0D010000 		.word	.L431+1
 5357 0088 2D010000 		.word	.L432+1
 5358 008c 55010000 		.word	.L423+1
 5359 0090 55010000 		.word	.L423+1
 5360 0094 55010000 		.word	.L423+1
 5361 0098 55010000 		.word	.L423+1
 5362 009c 55010000 		.word	.L423+1
 5363 00a0 55010000 		.word	.L423+1
 5364 00a4 55010000 		.word	.L423+1
 5365 00a8 55010000 		.word	.L423+1
 5366 00ac 55010000 		.word	.L423+1
 5367 00b0 55010000 		.word	.L423+1
 5368 00b4 55010000 		.word	.L423+1
 5369 00b8 55010000 		.word	.L423+1
 5370 00bc C1000000 		.word	.L424+1
 5371              		.p2align 1
 5372              	.L424:
 5373 00c0 97F91030 		ldrsb	r3, [r7, #16]
 5374 00c4 5BB2     		sxtb	r3, r3
 5375 00c6 4FEAE374 		asr	r4, r3, #31
 5376 00ca 3A68     		ldr	r2, [r7]
 5377 00cc C2E90034 		strd	r3, [r2]
 5378 00d0 0123     		movs	r3, #1
 5379 00d2 43E0     		b	.L433
 5380              	.L426:
 5381 00d4 3B7C     		ldrb	r3, [r7, #16]	@ zero_extendqisi2
 5382 00d6 DBB2     		uxtb	r3, r3
 5383 00d8 4FF00004 		mov	r4, #0
 5384 00dc 3A68     		ldr	r2, [r7]
 5385 00de C2E90034 		strd	r3, [r2]
 5386 00e2 0123     		movs	r3, #1
 5387 00e4 3AE0     		b	.L433
 5388              	.L430:
 5389 00e6 B7F91030 		ldrsh	r3, [r7, #16]
 5390 00ea 1BB2     		sxth	r3, r3
 5391 00ec 4FEAE374 		asr	r4, r3, #31
 5392 00f0 3A68     		ldr	r2, [r7]
 5393 00f2 C2E90034 		strd	r3, [r2]
 5394 00f6 0123     		movs	r3, #1
 5395 00f8 30E0     		b	.L433
 5396              	.L427:
 5397 00fa 3B8A     		ldrh	r3, [r7, #16]
 5398 00fc 9BB2     		uxth	r3, r3
 5399 00fe 4FF00004 		mov	r4, #0
 5400 0102 3A68     		ldr	r2, [r7]
 5401 0104 C2E90034 		strd	r3, [r2]
 5402 0108 0123     		movs	r3, #1
 5403 010a 27E0     		b	.L433
 5404              	.L431:
 5405 010c 3B69     		ldr	r3, [r7, #16]
 5406 010e 4FEAE374 		asr	r4, r3, #31
 5407 0112 3A68     		ldr	r2, [r7]
ARM GAS  /var/folders/d2/nstgp4h54kz7g1l847x_b8wc0000gn/T//ccFI0sM2.s 			page 97


 5408 0114 C2E90034 		strd	r3, [r2]
 5409 0118 0123     		movs	r3, #1
 5410 011a 1FE0     		b	.L433
 5411              	.L428:
 5412 011c 3B69     		ldr	r3, [r7, #16]
 5413 011e 4FF00004 		mov	r4, #0
 5414 0122 3A68     		ldr	r2, [r7]
 5415 0124 C2E90034 		strd	r3, [r2]
 5416 0128 0123     		movs	r3, #1
 5417 012a 17E0     		b	.L433
 5418              	.L432:
 5419 012c D7E90434 		ldrd	r3, [r7, #16]
 5420 0130 3A68     		ldr	r2, [r7]
 5421 0132 C2E90034 		strd	r3, [r2]
 5422 0136 0123     		movs	r3, #1
 5423 0138 10E0     		b	.L433
 5424              	.L429:
 5425 013a D7E90434 		ldrd	r3, [r7, #16]
 5426 013e 002B     		cmp	r3, #0
 5427 0140 74F10003 		sbcs	r3, r4, #0
 5428 0144 06DB     		blt	.L423
 5429 0146 D7E90434 		ldrd	r3, [r7, #16]
 5430 014a 3A68     		ldr	r2, [r7]
 5431 014c C2E90034 		strd	r3, [r2]
 5432 0150 0123     		movs	r3, #1
 5433 0152 03E0     		b	.L433
 5434              	.L423:
 5435 0154 7B68     		ldr	r3, [r7, #4]
 5436 0156 0D22     		movs	r2, #13
 5437 0158 1A70     		strb	r2, [r3]
 5438 015a 0023     		movs	r3, #0
 5439              	.L433:
 5440 015c 1846     		mov	r0, r3
 5441 015e 1C37     		adds	r7, r7, #28
 5442 0160 BD46     		mov	sp, r7
 5443              		@ sp needed
 5444 0162 90BD     		pop	{r4, r7, pc}
 5445              		.size	cmp_read_long, .-cmp_read_long
 5446              		.section	.text.cmp_read_sinteger,"ax",%progbits
 5447              		.align	1
 5448              		.global	cmp_read_sinteger
 5449              		.syntax unified
 5450              		.thumb
 5451              		.thumb_func
 5452              		.fpu fpv4-sp-d16
 5453              		.type	cmp_read_sinteger, %function
 5454              	cmp_read_sinteger:
 5455              		@ args = 0, pretend = 0, frame = 8
 5456              		@ frame_needed = 1, uses_anonymous_args = 0
 5457 0000 80B5     		push	{r7, lr}
 5458 0002 82B0     		sub	sp, sp, #8
 5459 0004 00AF     		add	r7, sp, #0
 5460 0006 7860     		str	r0, [r7, #4]
 5461 0008 3960     		str	r1, [r7]
 5462 000a 3968     		ldr	r1, [r7]
 5463 000c 7868     		ldr	r0, [r7, #4]
 5464 000e FFF7FEFF 		bl	cmp_read_long
ARM GAS  /var/folders/d2/nstgp4h54kz7g1l847x_b8wc0000gn/T//ccFI0sM2.s 			page 98


 5465 0012 0346     		mov	r3, r0
 5466 0014 1846     		mov	r0, r3
 5467 0016 0837     		adds	r7, r7, #8
 5468 0018 BD46     		mov	sp, r7
 5469              		@ sp needed
 5470 001a 80BD     		pop	{r7, pc}
 5471              		.size	cmp_read_sinteger, .-cmp_read_sinteger
 5472              		.section	.text.cmp_read_ufix,"ax",%progbits
 5473              		.align	1
 5474              		.global	cmp_read_ufix
 5475              		.syntax unified
 5476              		.thumb
 5477              		.thumb_func
 5478              		.fpu fpv4-sp-d16
 5479              		.type	cmp_read_ufix, %function
 5480              	cmp_read_ufix:
 5481              		@ args = 0, pretend = 0, frame = 24
 5482              		@ frame_needed = 1, uses_anonymous_args = 0
 5483 0000 80B5     		push	{r7, lr}
 5484 0002 86B0     		sub	sp, sp, #24
 5485 0004 00AF     		add	r7, sp, #0
 5486 0006 7860     		str	r0, [r7, #4]
 5487 0008 3960     		str	r1, [r7]
 5488 000a 07F10803 		add	r3, r7, #8
 5489 000e 1946     		mov	r1, r3
 5490 0010 7868     		ldr	r0, [r7, #4]
 5491 0012 FFF7FEFF 		bl	cmp_read_object
 5492 0016 0346     		mov	r3, r0
 5493 0018 83F00103 		eor	r3, r3, #1
 5494 001c DBB2     		uxtb	r3, r3
 5495 001e 002B     		cmp	r3, #0
 5496 0020 01D0     		beq	.L437
 5497 0022 0023     		movs	r3, #0
 5498 0024 0BE0     		b	.L440
 5499              	.L437:
 5500 0026 3B7A     		ldrb	r3, [r7, #8]	@ zero_extendqisi2
 5501 0028 222B     		cmp	r3, #34
 5502 002a 04D0     		beq	.L439
 5503 002c 7B68     		ldr	r3, [r7, #4]
 5504 002e 0D22     		movs	r2, #13
 5505 0030 1A70     		strb	r2, [r3]
 5506 0032 0023     		movs	r3, #0
 5507 0034 03E0     		b	.L440
 5508              	.L439:
 5509 0036 3A7C     		ldrb	r2, [r7, #16]	@ zero_extendqisi2
 5510 0038 3B68     		ldr	r3, [r7]
 5511 003a 1A70     		strb	r2, [r3]
 5512 003c 0123     		movs	r3, #1
 5513              	.L440:
 5514 003e 1846     		mov	r0, r3
 5515 0040 1837     		adds	r7, r7, #24
 5516 0042 BD46     		mov	sp, r7
 5517              		@ sp needed
 5518 0044 80BD     		pop	{r7, pc}
 5519              		.size	cmp_read_ufix, .-cmp_read_ufix
 5520              		.section	.text.cmp_read_u8,"ax",%progbits
 5521              		.align	1
ARM GAS  /var/folders/d2/nstgp4h54kz7g1l847x_b8wc0000gn/T//ccFI0sM2.s 			page 99


 5522              		.global	cmp_read_u8
 5523              		.syntax unified
 5524              		.thumb
 5525              		.thumb_func
 5526              		.fpu fpv4-sp-d16
 5527              		.type	cmp_read_u8, %function
 5528              	cmp_read_u8:
 5529              		@ args = 0, pretend = 0, frame = 24
 5530              		@ frame_needed = 1, uses_anonymous_args = 0
 5531 0000 80B5     		push	{r7, lr}
 5532 0002 86B0     		sub	sp, sp, #24
 5533 0004 00AF     		add	r7, sp, #0
 5534 0006 7860     		str	r0, [r7, #4]
 5535 0008 3960     		str	r1, [r7]
 5536 000a 07F10803 		add	r3, r7, #8
 5537 000e 1946     		mov	r1, r3
 5538 0010 7868     		ldr	r0, [r7, #4]
 5539 0012 FFF7FEFF 		bl	cmp_read_object
 5540 0016 0346     		mov	r3, r0
 5541 0018 83F00103 		eor	r3, r3, #1
 5542 001c DBB2     		uxtb	r3, r3
 5543 001e 002B     		cmp	r3, #0
 5544 0020 01D0     		beq	.L442
 5545 0022 0023     		movs	r3, #0
 5546 0024 0BE0     		b	.L445
 5547              	.L442:
 5548 0026 3B7A     		ldrb	r3, [r7, #8]	@ zero_extendqisi2
 5549 0028 0E2B     		cmp	r3, #14
 5550 002a 04D0     		beq	.L444
 5551 002c 7B68     		ldr	r3, [r7, #4]
 5552 002e 0D22     		movs	r2, #13
 5553 0030 1A70     		strb	r2, [r3]
 5554 0032 0023     		movs	r3, #0
 5555 0034 03E0     		b	.L445
 5556              	.L444:
 5557 0036 3A7C     		ldrb	r2, [r7, #16]	@ zero_extendqisi2
 5558 0038 3B68     		ldr	r3, [r7]
 5559 003a 1A70     		strb	r2, [r3]
 5560 003c 0123     		movs	r3, #1
 5561              	.L445:
 5562 003e 1846     		mov	r0, r3
 5563 0040 1837     		adds	r7, r7, #24
 5564 0042 BD46     		mov	sp, r7
 5565              		@ sp needed
 5566 0044 80BD     		pop	{r7, pc}
 5567              		.size	cmp_read_u8, .-cmp_read_u8
 5568              		.section	.text.cmp_read_u16,"ax",%progbits
 5569              		.align	1
 5570              		.global	cmp_read_u16
 5571              		.syntax unified
 5572              		.thumb
 5573              		.thumb_func
 5574              		.fpu fpv4-sp-d16
 5575              		.type	cmp_read_u16, %function
 5576              	cmp_read_u16:
 5577              		@ args = 0, pretend = 0, frame = 24
 5578              		@ frame_needed = 1, uses_anonymous_args = 0
ARM GAS  /var/folders/d2/nstgp4h54kz7g1l847x_b8wc0000gn/T//ccFI0sM2.s 			page 100


 5579 0000 80B5     		push	{r7, lr}
 5580 0002 86B0     		sub	sp, sp, #24
 5581 0004 00AF     		add	r7, sp, #0
 5582 0006 7860     		str	r0, [r7, #4]
 5583 0008 3960     		str	r1, [r7]
 5584 000a 07F10803 		add	r3, r7, #8
 5585 000e 1946     		mov	r1, r3
 5586 0010 7868     		ldr	r0, [r7, #4]
 5587 0012 FFF7FEFF 		bl	cmp_read_object
 5588 0016 0346     		mov	r3, r0
 5589 0018 83F00103 		eor	r3, r3, #1
 5590 001c DBB2     		uxtb	r3, r3
 5591 001e 002B     		cmp	r3, #0
 5592 0020 01D0     		beq	.L447
 5593 0022 0023     		movs	r3, #0
 5594 0024 0BE0     		b	.L450
 5595              	.L447:
 5596 0026 3B7A     		ldrb	r3, [r7, #8]	@ zero_extendqisi2
 5597 0028 0F2B     		cmp	r3, #15
 5598 002a 04D0     		beq	.L449
 5599 002c 7B68     		ldr	r3, [r7, #4]
 5600 002e 0D22     		movs	r2, #13
 5601 0030 1A70     		strb	r2, [r3]
 5602 0032 0023     		movs	r3, #0
 5603 0034 03E0     		b	.L450
 5604              	.L449:
 5605 0036 3A8A     		ldrh	r2, [r7, #16]
 5606 0038 3B68     		ldr	r3, [r7]
 5607 003a 1A80     		strh	r2, [r3]	@ movhi
 5608 003c 0123     		movs	r3, #1
 5609              	.L450:
 5610 003e 1846     		mov	r0, r3
 5611 0040 1837     		adds	r7, r7, #24
 5612 0042 BD46     		mov	sp, r7
 5613              		@ sp needed
 5614 0044 80BD     		pop	{r7, pc}
 5615              		.size	cmp_read_u16, .-cmp_read_u16
 5616              		.section	.text.cmp_read_u32,"ax",%progbits
 5617              		.align	1
 5618              		.global	cmp_read_u32
 5619              		.syntax unified
 5620              		.thumb
 5621              		.thumb_func
 5622              		.fpu fpv4-sp-d16
 5623              		.type	cmp_read_u32, %function
 5624              	cmp_read_u32:
 5625              		@ args = 0, pretend = 0, frame = 24
 5626              		@ frame_needed = 1, uses_anonymous_args = 0
 5627 0000 80B5     		push	{r7, lr}
 5628 0002 86B0     		sub	sp, sp, #24
 5629 0004 00AF     		add	r7, sp, #0
 5630 0006 7860     		str	r0, [r7, #4]
 5631 0008 3960     		str	r1, [r7]
 5632 000a 07F10803 		add	r3, r7, #8
 5633 000e 1946     		mov	r1, r3
 5634 0010 7868     		ldr	r0, [r7, #4]
 5635 0012 FFF7FEFF 		bl	cmp_read_object
ARM GAS  /var/folders/d2/nstgp4h54kz7g1l847x_b8wc0000gn/T//ccFI0sM2.s 			page 101


 5636 0016 0346     		mov	r3, r0
 5637 0018 83F00103 		eor	r3, r3, #1
 5638 001c DBB2     		uxtb	r3, r3
 5639 001e 002B     		cmp	r3, #0
 5640 0020 01D0     		beq	.L452
 5641 0022 0023     		movs	r3, #0
 5642 0024 0BE0     		b	.L455
 5643              	.L452:
 5644 0026 3B7A     		ldrb	r3, [r7, #8]	@ zero_extendqisi2
 5645 0028 102B     		cmp	r3, #16
 5646 002a 04D0     		beq	.L454
 5647 002c 7B68     		ldr	r3, [r7, #4]
 5648 002e 0D22     		movs	r2, #13
 5649 0030 1A70     		strb	r2, [r3]
 5650 0032 0023     		movs	r3, #0
 5651 0034 03E0     		b	.L455
 5652              	.L454:
 5653 0036 3A69     		ldr	r2, [r7, #16]
 5654 0038 3B68     		ldr	r3, [r7]
 5655 003a 1A60     		str	r2, [r3]
 5656 003c 0123     		movs	r3, #1
 5657              	.L455:
 5658 003e 1846     		mov	r0, r3
 5659 0040 1837     		adds	r7, r7, #24
 5660 0042 BD46     		mov	sp, r7
 5661              		@ sp needed
 5662 0044 80BD     		pop	{r7, pc}
 5663              		.size	cmp_read_u32, .-cmp_read_u32
 5664              		.section	.text.cmp_read_u64,"ax",%progbits
 5665              		.align	1
 5666              		.global	cmp_read_u64
 5667              		.syntax unified
 5668              		.thumb
 5669              		.thumb_func
 5670              		.fpu fpv4-sp-d16
 5671              		.type	cmp_read_u64, %function
 5672              	cmp_read_u64:
 5673              		@ args = 0, pretend = 0, frame = 24
 5674              		@ frame_needed = 1, uses_anonymous_args = 0
 5675 0000 90B5     		push	{r4, r7, lr}
 5676 0002 87B0     		sub	sp, sp, #28
 5677 0004 00AF     		add	r7, sp, #0
 5678 0006 7860     		str	r0, [r7, #4]
 5679 0008 3960     		str	r1, [r7]
 5680 000a 07F10803 		add	r3, r7, #8
 5681 000e 1946     		mov	r1, r3
 5682 0010 7868     		ldr	r0, [r7, #4]
 5683 0012 FFF7FEFF 		bl	cmp_read_object
 5684 0016 0346     		mov	r3, r0
 5685 0018 83F00103 		eor	r3, r3, #1
 5686 001c DBB2     		uxtb	r3, r3
 5687 001e 002B     		cmp	r3, #0
 5688 0020 01D0     		beq	.L457
 5689 0022 0023     		movs	r3, #0
 5690 0024 0DE0     		b	.L460
 5691              	.L457:
 5692 0026 3B7A     		ldrb	r3, [r7, #8]	@ zero_extendqisi2
ARM GAS  /var/folders/d2/nstgp4h54kz7g1l847x_b8wc0000gn/T//ccFI0sM2.s 			page 102


 5693 0028 112B     		cmp	r3, #17
 5694 002a 04D0     		beq	.L459
 5695 002c 7B68     		ldr	r3, [r7, #4]
 5696 002e 0D22     		movs	r2, #13
 5697 0030 1A70     		strb	r2, [r3]
 5698 0032 0023     		movs	r3, #0
 5699 0034 05E0     		b	.L460
 5700              	.L459:
 5701 0036 D7E90434 		ldrd	r3, [r7, #16]
 5702 003a 3A68     		ldr	r2, [r7]
 5703 003c C2E90034 		strd	r3, [r2]
 5704 0040 0123     		movs	r3, #1
 5705              	.L460:
 5706 0042 1846     		mov	r0, r3
 5707 0044 1C37     		adds	r7, r7, #28
 5708 0046 BD46     		mov	sp, r7
 5709              		@ sp needed
 5710 0048 90BD     		pop	{r4, r7, pc}
 5711              		.size	cmp_read_u64, .-cmp_read_u64
 5712              		.section	.text.cmp_read_uchar,"ax",%progbits
 5713              		.align	1
 5714              		.global	cmp_read_uchar
 5715              		.syntax unified
 5716              		.thumb
 5717              		.thumb_func
 5718              		.fpu fpv4-sp-d16
 5719              		.type	cmp_read_uchar, %function
 5720              	cmp_read_uchar:
 5721              		@ args = 0, pretend = 0, frame = 24
 5722              		@ frame_needed = 1, uses_anonymous_args = 0
 5723 0000 80B5     		push	{r7, lr}
 5724 0002 86B0     		sub	sp, sp, #24
 5725 0004 00AF     		add	r7, sp, #0
 5726 0006 7860     		str	r0, [r7, #4]
 5727 0008 3960     		str	r1, [r7]
 5728 000a 07F10803 		add	r3, r7, #8
 5729 000e 1946     		mov	r1, r3
 5730 0010 7868     		ldr	r0, [r7, #4]
 5731 0012 FFF7FEFF 		bl	cmp_read_object
 5732 0016 0346     		mov	r3, r0
 5733 0018 83F00103 		eor	r3, r3, #1
 5734 001c DBB2     		uxtb	r3, r3
 5735 001e 002B     		cmp	r3, #0
 5736 0020 01D0     		beq	.L462
 5737 0022 0023     		movs	r3, #0
 5738 0024 0DE0     		b	.L466
 5739              	.L462:
 5740 0026 3B7A     		ldrb	r3, [r7, #8]	@ zero_extendqisi2
 5741 0028 002B     		cmp	r3, #0
 5742 002a 01D0     		beq	.L465
 5743 002c 0E2B     		cmp	r3, #14
 5744 002e 04D1     		bne	.L467
 5745              	.L465:
 5746 0030 3A7C     		ldrb	r2, [r7, #16]	@ zero_extendqisi2
 5747 0032 3B68     		ldr	r3, [r7]
 5748 0034 1A70     		strb	r2, [r3]
 5749 0036 0123     		movs	r3, #1
ARM GAS  /var/folders/d2/nstgp4h54kz7g1l847x_b8wc0000gn/T//ccFI0sM2.s 			page 103


 5750 0038 03E0     		b	.L466
 5751              	.L467:
 5752 003a 7B68     		ldr	r3, [r7, #4]
 5753 003c 0D22     		movs	r2, #13
 5754 003e 1A70     		strb	r2, [r3]
 5755 0040 0023     		movs	r3, #0
 5756              	.L466:
 5757 0042 1846     		mov	r0, r3
 5758 0044 1837     		adds	r7, r7, #24
 5759 0046 BD46     		mov	sp, r7
 5760              		@ sp needed
 5761 0048 80BD     		pop	{r7, pc}
 5762              		.size	cmp_read_uchar, .-cmp_read_uchar
 5763              		.section	.text.cmp_read_ushort,"ax",%progbits
 5764              		.align	1
 5765              		.global	cmp_read_ushort
 5766              		.syntax unified
 5767              		.thumb
 5768              		.thumb_func
 5769              		.fpu fpv4-sp-d16
 5770              		.type	cmp_read_ushort, %function
 5771              	cmp_read_ushort:
 5772              		@ args = 0, pretend = 0, frame = 24
 5773              		@ frame_needed = 1, uses_anonymous_args = 0
 5774 0000 80B5     		push	{r7, lr}
 5775 0002 86B0     		sub	sp, sp, #24
 5776 0004 00AF     		add	r7, sp, #0
 5777 0006 7860     		str	r0, [r7, #4]
 5778 0008 3960     		str	r1, [r7]
 5779 000a 07F10803 		add	r3, r7, #8
 5780 000e 1946     		mov	r1, r3
 5781 0010 7868     		ldr	r0, [r7, #4]
 5782 0012 FFF7FEFF 		bl	cmp_read_object
 5783 0016 0346     		mov	r3, r0
 5784 0018 83F00103 		eor	r3, r3, #1
 5785 001c DBB2     		uxtb	r3, r3
 5786 001e 002B     		cmp	r3, #0
 5787 0020 01D0     		beq	.L469
 5788 0022 0023     		movs	r3, #0
 5789 0024 15E0     		b	.L474
 5790              	.L469:
 5791 0026 3B7A     		ldrb	r3, [r7, #8]	@ zero_extendqisi2
 5792 0028 0E2B     		cmp	r3, #14
 5793 002a 03D0     		beq	.L472
 5794 002c 0F2B     		cmp	r3, #15
 5795 002e 07D0     		beq	.L473
 5796 0030 002B     		cmp	r3, #0
 5797 0032 0AD1     		bne	.L475
 5798              	.L472:
 5799 0034 3B7C     		ldrb	r3, [r7, #16]	@ zero_extendqisi2
 5800 0036 9AB2     		uxth	r2, r3
 5801 0038 3B68     		ldr	r3, [r7]
 5802 003a 1A80     		strh	r2, [r3]	@ movhi
 5803 003c 0123     		movs	r3, #1
 5804 003e 08E0     		b	.L474
 5805              	.L473:
 5806 0040 3A8A     		ldrh	r2, [r7, #16]
ARM GAS  /var/folders/d2/nstgp4h54kz7g1l847x_b8wc0000gn/T//ccFI0sM2.s 			page 104


 5807 0042 3B68     		ldr	r3, [r7]
 5808 0044 1A80     		strh	r2, [r3]	@ movhi
 5809 0046 0123     		movs	r3, #1
 5810 0048 03E0     		b	.L474
 5811              	.L475:
 5812 004a 7B68     		ldr	r3, [r7, #4]
 5813 004c 0D22     		movs	r2, #13
 5814 004e 1A70     		strb	r2, [r3]
 5815 0050 0023     		movs	r3, #0
 5816              	.L474:
 5817 0052 1846     		mov	r0, r3
 5818 0054 1837     		adds	r7, r7, #24
 5819 0056 BD46     		mov	sp, r7
 5820              		@ sp needed
 5821 0058 80BD     		pop	{r7, pc}
 5822              		.size	cmp_read_ushort, .-cmp_read_ushort
 5823              		.section	.text.cmp_read_uint,"ax",%progbits
 5824              		.align	1
 5825              		.global	cmp_read_uint
 5826              		.syntax unified
 5827              		.thumb
 5828              		.thumb_func
 5829              		.fpu fpv4-sp-d16
 5830              		.type	cmp_read_uint, %function
 5831              	cmp_read_uint:
 5832              		@ args = 0, pretend = 0, frame = 24
 5833              		@ frame_needed = 1, uses_anonymous_args = 0
 5834 0000 80B5     		push	{r7, lr}
 5835 0002 86B0     		sub	sp, sp, #24
 5836 0004 00AF     		add	r7, sp, #0
 5837 0006 7860     		str	r0, [r7, #4]
 5838 0008 3960     		str	r1, [r7]
 5839 000a 07F10803 		add	r3, r7, #8
 5840 000e 1946     		mov	r1, r3
 5841 0010 7868     		ldr	r0, [r7, #4]
 5842 0012 FFF7FEFF 		bl	cmp_read_object
 5843 0016 0346     		mov	r3, r0
 5844 0018 83F00103 		eor	r3, r3, #1
 5845 001c DBB2     		uxtb	r3, r3
 5846 001e 002B     		cmp	r3, #0
 5847 0020 01D0     		beq	.L477
 5848 0022 0023     		movs	r3, #0
 5849 0024 3DE0     		b	.L484
 5850              	.L477:
 5851 0026 3B7A     		ldrb	r3, [r7, #8]	@ zero_extendqisi2
 5852 0028 102B     		cmp	r3, #16
 5853 002a 36D8     		bhi	.L479
 5854 002c 01A2     		adr	r2, .L481
 5855 002e 52F823F0 		ldr	pc, [r2, r3, lsl #2]
 5856 0032 00BF     		.p2align 2
 5857              	.L481:
 5858 0034 79000000 		.word	.L480+1
 5859 0038 9B000000 		.word	.L479+1
 5860 003c 9B000000 		.word	.L479+1
 5861 0040 9B000000 		.word	.L479+1
 5862 0044 9B000000 		.word	.L479+1
 5863 0048 9B000000 		.word	.L479+1
ARM GAS  /var/folders/d2/nstgp4h54kz7g1l847x_b8wc0000gn/T//ccFI0sM2.s 			page 105


 5864 004c 9B000000 		.word	.L479+1
 5865 0050 9B000000 		.word	.L479+1
 5866 0054 9B000000 		.word	.L479+1
 5867 0058 9B000000 		.word	.L479+1
 5868 005c 9B000000 		.word	.L479+1
 5869 0060 9B000000 		.word	.L479+1
 5870 0064 9B000000 		.word	.L479+1
 5871 0068 9B000000 		.word	.L479+1
 5872 006c 79000000 		.word	.L480+1
 5873 0070 85000000 		.word	.L482+1
 5874 0074 91000000 		.word	.L483+1
 5875              		.p2align 1
 5876              	.L480:
 5877 0078 3B7C     		ldrb	r3, [r7, #16]	@ zero_extendqisi2
 5878 007a 1A46     		mov	r2, r3
 5879 007c 3B68     		ldr	r3, [r7]
 5880 007e 1A60     		str	r2, [r3]
 5881 0080 0123     		movs	r3, #1
 5882 0082 0EE0     		b	.L484
 5883              	.L482:
 5884 0084 3B8A     		ldrh	r3, [r7, #16]
 5885 0086 1A46     		mov	r2, r3
 5886 0088 3B68     		ldr	r3, [r7]
 5887 008a 1A60     		str	r2, [r3]
 5888 008c 0123     		movs	r3, #1
 5889 008e 08E0     		b	.L484
 5890              	.L483:
 5891 0090 3A69     		ldr	r2, [r7, #16]
 5892 0092 3B68     		ldr	r3, [r7]
 5893 0094 1A60     		str	r2, [r3]
 5894 0096 0123     		movs	r3, #1
 5895 0098 03E0     		b	.L484
 5896              	.L479:
 5897 009a 7B68     		ldr	r3, [r7, #4]
 5898 009c 0D22     		movs	r2, #13
 5899 009e 1A70     		strb	r2, [r3]
 5900 00a0 0023     		movs	r3, #0
 5901              	.L484:
 5902 00a2 1846     		mov	r0, r3
 5903 00a4 1837     		adds	r7, r7, #24
 5904 00a6 BD46     		mov	sp, r7
 5905              		@ sp needed
 5906 00a8 80BD     		pop	{r7, pc}
 5907              		.size	cmp_read_uint, .-cmp_read_uint
 5908 00aa 00BF     		.section	.text.cmp_read_ulong,"ax",%progbits
 5909              		.align	1
 5910              		.global	cmp_read_ulong
 5911              		.syntax unified
 5912              		.thumb
 5913              		.thumb_func
 5914              		.fpu fpv4-sp-d16
 5915              		.type	cmp_read_ulong, %function
 5916              	cmp_read_ulong:
 5917              		@ args = 0, pretend = 0, frame = 24
 5918              		@ frame_needed = 1, uses_anonymous_args = 0
 5919 0000 90B5     		push	{r4, r7, lr}
 5920 0002 87B0     		sub	sp, sp, #28
ARM GAS  /var/folders/d2/nstgp4h54kz7g1l847x_b8wc0000gn/T//ccFI0sM2.s 			page 106


 5921 0004 00AF     		add	r7, sp, #0
 5922 0006 7860     		str	r0, [r7, #4]
 5923 0008 3960     		str	r1, [r7]
 5924 000a 07F10803 		add	r3, r7, #8
 5925 000e 1946     		mov	r1, r3
 5926 0010 7868     		ldr	r0, [r7, #4]
 5927 0012 FFF7FEFF 		bl	cmp_read_object
 5928 0016 0346     		mov	r3, r0
 5929 0018 83F00103 		eor	r3, r3, #1
 5930 001c DBB2     		uxtb	r3, r3
 5931 001e 002B     		cmp	r3, #0
 5932 0020 01D0     		beq	.L486
 5933 0022 0023     		movs	r3, #0
 5934 0024 4FE0     		b	.L494
 5935              	.L486:
 5936 0026 3B7A     		ldrb	r3, [r7, #8]	@ zero_extendqisi2
 5937 0028 112B     		cmp	r3, #17
 5938 002a 48D8     		bhi	.L488
 5939 002c 01A2     		adr	r2, .L490
 5940 002e 52F823F0 		ldr	pc, [r2, r3, lsl #2]
 5941 0032 00BF     		.p2align 2
 5942              	.L490:
 5943 0034 7D000000 		.word	.L489+1
 5944 0038 BF000000 		.word	.L488+1
 5945 003c BF000000 		.word	.L488+1
 5946 0040 BF000000 		.word	.L488+1
 5947 0044 BF000000 		.word	.L488+1
 5948 0048 BF000000 		.word	.L488+1
 5949 004c BF000000 		.word	.L488+1
 5950 0050 BF000000 		.word	.L488+1
 5951 0054 BF000000 		.word	.L488+1
 5952 0058 BF000000 		.word	.L488+1
 5953 005c BF000000 		.word	.L488+1
 5954 0060 BF000000 		.word	.L488+1
 5955 0064 BF000000 		.word	.L488+1
 5956 0068 BF000000 		.word	.L488+1
 5957 006c 7D000000 		.word	.L489+1
 5958 0070 8F000000 		.word	.L491+1
 5959 0074 A1000000 		.word	.L492+1
 5960 0078 B1000000 		.word	.L493+1
 5961              		.p2align 1
 5962              	.L489:
 5963 007c 3B7C     		ldrb	r3, [r7, #16]	@ zero_extendqisi2
 5964 007e DBB2     		uxtb	r3, r3
 5965 0080 4FF00004 		mov	r4, #0
 5966 0084 3A68     		ldr	r2, [r7]
 5967 0086 C2E90034 		strd	r3, [r2]
 5968 008a 0123     		movs	r3, #1
 5969 008c 1BE0     		b	.L494
 5970              	.L491:
 5971 008e 3B8A     		ldrh	r3, [r7, #16]
 5972 0090 9BB2     		uxth	r3, r3
 5973 0092 4FF00004 		mov	r4, #0
 5974 0096 3A68     		ldr	r2, [r7]
 5975 0098 C2E90034 		strd	r3, [r2]
 5976 009c 0123     		movs	r3, #1
 5977 009e 12E0     		b	.L494
ARM GAS  /var/folders/d2/nstgp4h54kz7g1l847x_b8wc0000gn/T//ccFI0sM2.s 			page 107


 5978              	.L492:
 5979 00a0 3B69     		ldr	r3, [r7, #16]
 5980 00a2 4FF00004 		mov	r4, #0
 5981 00a6 3A68     		ldr	r2, [r7]
 5982 00a8 C2E90034 		strd	r3, [r2]
 5983 00ac 0123     		movs	r3, #1
 5984 00ae 0AE0     		b	.L494
 5985              	.L493:
 5986 00b0 D7E90434 		ldrd	r3, [r7, #16]
 5987 00b4 3A68     		ldr	r2, [r7]
 5988 00b6 C2E90034 		strd	r3, [r2]
 5989 00ba 0123     		movs	r3, #1
 5990 00bc 03E0     		b	.L494
 5991              	.L488:
 5992 00be 7B68     		ldr	r3, [r7, #4]
 5993 00c0 0D22     		movs	r2, #13
 5994 00c2 1A70     		strb	r2, [r3]
 5995 00c4 0023     		movs	r3, #0
 5996              	.L494:
 5997 00c6 1846     		mov	r0, r3
 5998 00c8 1C37     		adds	r7, r7, #28
 5999 00ca BD46     		mov	sp, r7
 6000              		@ sp needed
 6001 00cc 90BD     		pop	{r4, r7, pc}
 6002              		.size	cmp_read_ulong, .-cmp_read_ulong
 6003 00ce 00BF     		.section	.text.cmp_read_uinteger,"ax",%progbits
 6004              		.align	1
 6005              		.global	cmp_read_uinteger
 6006              		.syntax unified
 6007              		.thumb
 6008              		.thumb_func
 6009              		.fpu fpv4-sp-d16
 6010              		.type	cmp_read_uinteger, %function
 6011              	cmp_read_uinteger:
 6012              		@ args = 0, pretend = 0, frame = 8
 6013              		@ frame_needed = 1, uses_anonymous_args = 0
 6014 0000 80B5     		push	{r7, lr}
 6015 0002 82B0     		sub	sp, sp, #8
 6016 0004 00AF     		add	r7, sp, #0
 6017 0006 7860     		str	r0, [r7, #4]
 6018 0008 3960     		str	r1, [r7]
 6019 000a 3968     		ldr	r1, [r7]
 6020 000c 7868     		ldr	r0, [r7, #4]
 6021 000e FFF7FEFF 		bl	cmp_read_ulong
 6022 0012 0346     		mov	r3, r0
 6023 0014 1846     		mov	r0, r3
 6024 0016 0837     		adds	r7, r7, #8
 6025 0018 BD46     		mov	sp, r7
 6026              		@ sp needed
 6027 001a 80BD     		pop	{r7, pc}
 6028              		.size	cmp_read_uinteger, .-cmp_read_uinteger
 6029              		.global	__aeabi_d2f
 6030              		.section	.text.cmp_read_float,"ax",%progbits
 6031              		.align	1
 6032              		.global	cmp_read_float
 6033              		.syntax unified
 6034              		.thumb
ARM GAS  /var/folders/d2/nstgp4h54kz7g1l847x_b8wc0000gn/T//ccFI0sM2.s 			page 108


 6035              		.thumb_func
 6036              		.fpu fpv4-sp-d16
 6037              		.type	cmp_read_float, %function
 6038              	cmp_read_float:
 6039              		@ args = 0, pretend = 0, frame = 24
 6040              		@ frame_needed = 1, uses_anonymous_args = 0
 6041 0000 90B5     		push	{r4, r7, lr}
 6042 0002 87B0     		sub	sp, sp, #28
 6043 0004 00AF     		add	r7, sp, #0
 6044 0006 7860     		str	r0, [r7, #4]
 6045 0008 3960     		str	r1, [r7]
 6046 000a 07F10803 		add	r3, r7, #8
 6047 000e 1946     		mov	r1, r3
 6048 0010 7868     		ldr	r0, [r7, #4]
 6049 0012 FFF7FEFF 		bl	cmp_read_object
 6050 0016 0346     		mov	r3, r0
 6051 0018 83F00103 		eor	r3, r3, #1
 6052 001c DBB2     		uxtb	r3, r3
 6053 001e 002B     		cmp	r3, #0
 6054 0020 01D0     		beq	.L498
 6055 0022 0023     		movs	r3, #0
 6056 0024 19E0     		b	.L502
 6057              	.L498:
 6058 0026 3B7A     		ldrb	r3, [r7, #8]	@ zero_extendqisi2
 6059 0028 0C2B     		cmp	r3, #12
 6060 002a 04D1     		bne	.L500
 6061 002c 3A69     		ldr	r2, [r7, #16]	@ float
 6062 002e 3B68     		ldr	r3, [r7]
 6063 0030 1A60     		str	r2, [r3]	@ float
 6064 0032 0123     		movs	r3, #1
 6065 0034 11E0     		b	.L502
 6066              	.L500:
 6067 0036 3B7A     		ldrb	r3, [r7, #8]	@ zero_extendqisi2
 6068 0038 0D2B     		cmp	r3, #13
 6069 003a 0AD1     		bne	.L501
 6070 003c D7E90434 		ldrd	r3, [r7, #16]
 6071 0040 1846     		mov	r0, r3
 6072 0042 2146     		mov	r1, r4
 6073 0044 FFF7FEFF 		bl	__aeabi_d2f
 6074 0048 0246     		mov	r2, r0	@ float
 6075 004a 3B68     		ldr	r3, [r7]
 6076 004c 1A60     		str	r2, [r3]	@ float
 6077 004e 0123     		movs	r3, #1
 6078 0050 03E0     		b	.L502
 6079              	.L501:
 6080 0052 7B68     		ldr	r3, [r7, #4]
 6081 0054 0D22     		movs	r2, #13
 6082 0056 1A70     		strb	r2, [r3]
 6083 0058 0023     		movs	r3, #0
 6084              	.L502:
 6085 005a 1846     		mov	r0, r3
 6086 005c 1C37     		adds	r7, r7, #28
 6087 005e BD46     		mov	sp, r7
 6088              		@ sp needed
 6089 0060 90BD     		pop	{r4, r7, pc}
 6090              		.size	cmp_read_float, .-cmp_read_float
 6091              		.global	__aeabi_f2d
ARM GAS  /var/folders/d2/nstgp4h54kz7g1l847x_b8wc0000gn/T//ccFI0sM2.s 			page 109


 6092              		.section	.text.cmp_read_double,"ax",%progbits
 6093              		.align	1
 6094              		.global	cmp_read_double
 6095              		.syntax unified
 6096              		.thumb
 6097              		.thumb_func
 6098              		.fpu fpv4-sp-d16
 6099              		.type	cmp_read_double, %function
 6100              	cmp_read_double:
 6101              		@ args = 0, pretend = 0, frame = 24
 6102              		@ frame_needed = 1, uses_anonymous_args = 0
 6103 0000 90B5     		push	{r4, r7, lr}
 6104 0002 87B0     		sub	sp, sp, #28
 6105 0004 00AF     		add	r7, sp, #0
 6106 0006 7860     		str	r0, [r7, #4]
 6107 0008 3960     		str	r1, [r7]
 6108 000a 07F10803 		add	r3, r7, #8
 6109 000e 1946     		mov	r1, r3
 6110 0010 7868     		ldr	r0, [r7, #4]
 6111 0012 FFF7FEFF 		bl	cmp_read_object
 6112 0016 0346     		mov	r3, r0
 6113 0018 83F00103 		eor	r3, r3, #1
 6114 001c DBB2     		uxtb	r3, r3
 6115 001e 002B     		cmp	r3, #0
 6116 0020 01D0     		beq	.L504
 6117 0022 0023     		movs	r3, #0
 6118 0024 1BE0     		b	.L508
 6119              	.L504:
 6120 0026 3B7A     		ldrb	r3, [r7, #8]	@ zero_extendqisi2
 6121 0028 0C2B     		cmp	r3, #12
 6122 002a 0AD1     		bne	.L506
 6123 002c 3B69     		ldr	r3, [r7, #16]	@ float
 6124 002e 1846     		mov	r0, r3	@ float
 6125 0030 FFF7FEFF 		bl	__aeabi_f2d
 6126 0034 0346     		mov	r3, r0
 6127 0036 0C46     		mov	r4, r1
 6128 0038 3A68     		ldr	r2, [r7]
 6129 003a C2E90034 		strd	r3, [r2]
 6130 003e 0123     		movs	r3, #1
 6131 0040 0DE0     		b	.L508
 6132              	.L506:
 6133 0042 3B7A     		ldrb	r3, [r7, #8]	@ zero_extendqisi2
 6134 0044 0D2B     		cmp	r3, #13
 6135 0046 06D1     		bne	.L507
 6136 0048 D7E90434 		ldrd	r3, [r7, #16]
 6137 004c 3A68     		ldr	r2, [r7]
 6138 004e C2E90034 		strd	r3, [r2]
 6139 0052 0123     		movs	r3, #1
 6140 0054 03E0     		b	.L508
 6141              	.L507:
 6142 0056 7B68     		ldr	r3, [r7, #4]
 6143 0058 0D22     		movs	r2, #13
 6144 005a 1A70     		strb	r2, [r3]
 6145 005c 0023     		movs	r3, #0
 6146              	.L508:
 6147 005e 1846     		mov	r0, r3
 6148 0060 1C37     		adds	r7, r7, #28
ARM GAS  /var/folders/d2/nstgp4h54kz7g1l847x_b8wc0000gn/T//ccFI0sM2.s 			page 110


 6149 0062 BD46     		mov	sp, r7
 6150              		@ sp needed
 6151 0064 90BD     		pop	{r4, r7, pc}
 6152              		.size	cmp_read_double, .-cmp_read_double
 6153              		.section	.text.cmp_read_nil,"ax",%progbits
 6154              		.align	1
 6155              		.global	cmp_read_nil
 6156              		.syntax unified
 6157              		.thumb
 6158              		.thumb_func
 6159              		.fpu fpv4-sp-d16
 6160              		.type	cmp_read_nil, %function
 6161              	cmp_read_nil:
 6162              		@ args = 0, pretend = 0, frame = 24
 6163              		@ frame_needed = 1, uses_anonymous_args = 0
 6164 0000 80B5     		push	{r7, lr}
 6165 0002 86B0     		sub	sp, sp, #24
 6166 0004 00AF     		add	r7, sp, #0
 6167 0006 7860     		str	r0, [r7, #4]
 6168 0008 07F10803 		add	r3, r7, #8
 6169 000c 1946     		mov	r1, r3
 6170 000e 7868     		ldr	r0, [r7, #4]
 6171 0010 FFF7FEFF 		bl	cmp_read_object
 6172 0014 0346     		mov	r3, r0
 6173 0016 83F00103 		eor	r3, r3, #1
 6174 001a DBB2     		uxtb	r3, r3
 6175 001c 002B     		cmp	r3, #0
 6176 001e 01D0     		beq	.L510
 6177 0020 0023     		movs	r3, #0
 6178 0022 08E0     		b	.L513
 6179              	.L510:
 6180 0024 3B7A     		ldrb	r3, [r7, #8]	@ zero_extendqisi2
 6181 0026 042B     		cmp	r3, #4
 6182 0028 01D1     		bne	.L512
 6183 002a 0123     		movs	r3, #1
 6184 002c 03E0     		b	.L513
 6185              	.L512:
 6186 002e 7B68     		ldr	r3, [r7, #4]
 6187 0030 0D22     		movs	r2, #13
 6188 0032 1A70     		strb	r2, [r3]
 6189 0034 0023     		movs	r3, #0
 6190              	.L513:
 6191 0036 1846     		mov	r0, r3
 6192 0038 1837     		adds	r7, r7, #24
 6193 003a BD46     		mov	sp, r7
 6194              		@ sp needed
 6195 003c 80BD     		pop	{r7, pc}
 6196              		.size	cmp_read_nil, .-cmp_read_nil
 6197              		.section	.text.cmp_read_bool,"ax",%progbits
 6198              		.align	1
 6199              		.global	cmp_read_bool
 6200              		.syntax unified
 6201              		.thumb
 6202              		.thumb_func
 6203              		.fpu fpv4-sp-d16
 6204              		.type	cmp_read_bool, %function
 6205              	cmp_read_bool:
ARM GAS  /var/folders/d2/nstgp4h54kz7g1l847x_b8wc0000gn/T//ccFI0sM2.s 			page 111


 6206              		@ args = 0, pretend = 0, frame = 24
 6207              		@ frame_needed = 1, uses_anonymous_args = 0
 6208 0000 80B5     		push	{r7, lr}
 6209 0002 86B0     		sub	sp, sp, #24
 6210 0004 00AF     		add	r7, sp, #0
 6211 0006 7860     		str	r0, [r7, #4]
 6212 0008 3960     		str	r1, [r7]
 6213 000a 07F10803 		add	r3, r7, #8
 6214 000e 1946     		mov	r1, r3
 6215 0010 7868     		ldr	r0, [r7, #4]
 6216 0012 FFF7FEFF 		bl	cmp_read_object
 6217 0016 0346     		mov	r3, r0
 6218 0018 83F00103 		eor	r3, r3, #1
 6219 001c DBB2     		uxtb	r3, r3
 6220 001e 002B     		cmp	r3, #0
 6221 0020 01D0     		beq	.L515
 6222 0022 0023     		movs	r3, #0
 6223 0024 12E0     		b	.L520
 6224              	.L515:
 6225 0026 3B7A     		ldrb	r3, [r7, #8]	@ zero_extendqisi2
 6226 0028 052B     		cmp	r3, #5
 6227 002a 04D0     		beq	.L517
 6228 002c 7B68     		ldr	r3, [r7, #4]
 6229 002e 0D22     		movs	r2, #13
 6230 0030 1A70     		strb	r2, [r3]
 6231 0032 0023     		movs	r3, #0
 6232 0034 0AE0     		b	.L520
 6233              	.L517:
 6234 0036 3B7C     		ldrb	r3, [r7, #16]	@ zero_extendqisi2
 6235 0038 002B     		cmp	r3, #0
 6236 003a 03D0     		beq	.L518
 6237 003c 3B68     		ldr	r3, [r7]
 6238 003e 0122     		movs	r2, #1
 6239 0040 1A70     		strb	r2, [r3]
 6240 0042 02E0     		b	.L519
 6241              	.L518:
 6242 0044 3B68     		ldr	r3, [r7]
 6243 0046 0022     		movs	r2, #0
 6244 0048 1A70     		strb	r2, [r3]
 6245              	.L519:
 6246 004a 0123     		movs	r3, #1
 6247              	.L520:
 6248 004c 1846     		mov	r0, r3
 6249 004e 1837     		adds	r7, r7, #24
 6250 0050 BD46     		mov	sp, r7
 6251              		@ sp needed
 6252 0052 80BD     		pop	{r7, pc}
 6253              		.size	cmp_read_bool, .-cmp_read_bool
 6254              		.section	.text.cmp_read_bool_as_u8,"ax",%progbits
 6255              		.align	1
 6256              		.global	cmp_read_bool_as_u8
 6257              		.syntax unified
 6258              		.thumb
 6259              		.thumb_func
 6260              		.fpu fpv4-sp-d16
 6261              		.type	cmp_read_bool_as_u8, %function
 6262              	cmp_read_bool_as_u8:
ARM GAS  /var/folders/d2/nstgp4h54kz7g1l847x_b8wc0000gn/T//ccFI0sM2.s 			page 112


 6263              		@ args = 0, pretend = 0, frame = 24
 6264              		@ frame_needed = 1, uses_anonymous_args = 0
 6265 0000 80B5     		push	{r7, lr}
 6266 0002 86B0     		sub	sp, sp, #24
 6267 0004 00AF     		add	r7, sp, #0
 6268 0006 7860     		str	r0, [r7, #4]
 6269 0008 3960     		str	r1, [r7]
 6270 000a 07F10803 		add	r3, r7, #8
 6271 000e 1946     		mov	r1, r3
 6272 0010 7868     		ldr	r0, [r7, #4]
 6273 0012 FFF7FEFF 		bl	cmp_read_object
 6274 0016 0346     		mov	r3, r0
 6275 0018 83F00103 		eor	r3, r3, #1
 6276 001c DBB2     		uxtb	r3, r3
 6277 001e 002B     		cmp	r3, #0
 6278 0020 01D0     		beq	.L522
 6279 0022 0023     		movs	r3, #0
 6280 0024 12E0     		b	.L527
 6281              	.L522:
 6282 0026 3B7A     		ldrb	r3, [r7, #8]	@ zero_extendqisi2
 6283 0028 052B     		cmp	r3, #5
 6284 002a 04D0     		beq	.L524
 6285 002c 7B68     		ldr	r3, [r7, #4]
 6286 002e 0D22     		movs	r2, #13
 6287 0030 1A70     		strb	r2, [r3]
 6288 0032 0023     		movs	r3, #0
 6289 0034 0AE0     		b	.L527
 6290              	.L524:
 6291 0036 3B7C     		ldrb	r3, [r7, #16]	@ zero_extendqisi2
 6292 0038 002B     		cmp	r3, #0
 6293 003a 03D0     		beq	.L525
 6294 003c 3B68     		ldr	r3, [r7]
 6295 003e 0122     		movs	r2, #1
 6296 0040 1A70     		strb	r2, [r3]
 6297 0042 02E0     		b	.L526
 6298              	.L525:
 6299 0044 3B68     		ldr	r3, [r7]
 6300 0046 0022     		movs	r2, #0
 6301 0048 1A70     		strb	r2, [r3]
 6302              	.L526:
 6303 004a 0123     		movs	r3, #1
 6304              	.L527:
 6305 004c 1846     		mov	r0, r3
 6306 004e 1837     		adds	r7, r7, #24
 6307 0050 BD46     		mov	sp, r7
 6308              		@ sp needed
 6309 0052 80BD     		pop	{r7, pc}
 6310              		.size	cmp_read_bool_as_u8, .-cmp_read_bool_as_u8
 6311              		.section	.text.cmp_read_str_size,"ax",%progbits
 6312              		.align	1
 6313              		.global	cmp_read_str_size
 6314              		.syntax unified
 6315              		.thumb
 6316              		.thumb_func
 6317              		.fpu fpv4-sp-d16
 6318              		.type	cmp_read_str_size, %function
 6319              	cmp_read_str_size:
ARM GAS  /var/folders/d2/nstgp4h54kz7g1l847x_b8wc0000gn/T//ccFI0sM2.s 			page 113


 6320              		@ args = 0, pretend = 0, frame = 24
 6321              		@ frame_needed = 1, uses_anonymous_args = 0
 6322 0000 80B5     		push	{r7, lr}
 6323 0002 86B0     		sub	sp, sp, #24
 6324 0004 00AF     		add	r7, sp, #0
 6325 0006 7860     		str	r0, [r7, #4]
 6326 0008 3960     		str	r1, [r7]
 6327 000a 07F10803 		add	r3, r7, #8
 6328 000e 1946     		mov	r1, r3
 6329 0010 7868     		ldr	r0, [r7, #4]
 6330 0012 FFF7FEFF 		bl	cmp_read_object
 6331 0016 0346     		mov	r3, r0
 6332 0018 83F00103 		eor	r3, r3, #1
 6333 001c DBB2     		uxtb	r3, r3
 6334 001e 002B     		cmp	r3, #0
 6335 0020 01D0     		beq	.L529
 6336 0022 0023     		movs	r3, #0
 6337 0024 10E0     		b	.L533
 6338              	.L529:
 6339 0026 3B7A     		ldrb	r3, [r7, #8]	@ zero_extendqisi2
 6340 0028 032B     		cmp	r3, #3
 6341 002a 04D0     		beq	.L532
 6342 002c 032B     		cmp	r3, #3
 6343 002e 07DB     		blt	.L531
 6344 0030 1B3B     		subs	r3, r3, #27
 6345 0032 022B     		cmp	r3, #2
 6346 0034 04D8     		bhi	.L531
 6347              	.L532:
 6348 0036 3A69     		ldr	r2, [r7, #16]
 6349 0038 3B68     		ldr	r3, [r7]
 6350 003a 1A60     		str	r2, [r3]
 6351 003c 0123     		movs	r3, #1
 6352 003e 03E0     		b	.L533
 6353              	.L531:
 6354 0040 7B68     		ldr	r3, [r7, #4]
 6355 0042 0D22     		movs	r2, #13
 6356 0044 1A70     		strb	r2, [r3]
 6357 0046 0023     		movs	r3, #0
 6358              	.L533:
 6359 0048 1846     		mov	r0, r3
 6360 004a 1837     		adds	r7, r7, #24
 6361 004c BD46     		mov	sp, r7
 6362              		@ sp needed
 6363 004e 80BD     		pop	{r7, pc}
 6364              		.size	cmp_read_str_size, .-cmp_read_str_size
 6365              		.section	.text.cmp_read_str,"ax",%progbits
 6366              		.align	1
 6367              		.global	cmp_read_str
 6368              		.syntax unified
 6369              		.thumb
 6370              		.thumb_func
 6371              		.fpu fpv4-sp-d16
 6372              		.type	cmp_read_str, %function
 6373              	cmp_read_str:
 6374              		@ args = 0, pretend = 0, frame = 24
 6375              		@ frame_needed = 1, uses_anonymous_args = 0
 6376 0000 80B5     		push	{r7, lr}
ARM GAS  /var/folders/d2/nstgp4h54kz7g1l847x_b8wc0000gn/T//ccFI0sM2.s 			page 114


