ARM GAS  /var/folders/d2/nstgp4h54kz7g1l847x_b8wc0000gn/T//ccFI0sM2.s 			page 1


   1              		.cpu cortex-m4
   2              		.eabi_attribute 27, 1
   3              		.eabi_attribute 28, 1
   4              		.eabi_attribute 20, 1
   5              		.eabi_attribute 21, 1
   6              		.eabi_attribute 23, 3
   7              		.eabi_attribute 24, 1
   8              		.eabi_attribute 25, 1
   9              		.eabi_attribute 26, 1
  10              		.eabi_attribute 30, 6
  11              		.eabi_attribute 34, 1
  12              		.eabi_attribute 18, 4
  13              		.file	"cmp.c"
  14              		.section	.rodata.version,"a",%progbits
  15              		.align	2
  16              		.type	version, %object
  17              		.size	version, 4
  18              	version:
  19 0000 0A000000 		.word	10
  20              		.section	.rodata.mp_version,"a",%progbits
  21              		.align	2
  22              		.type	mp_version, %object
  23              		.size	mp_version, 4
  24              	mp_version:
  25 0000 05000000 		.word	5
  26              		.global	cmp_error_messages
  27              		.section	.rodata
  28              		.align	2
  29              	.LC0:
  30 0000 4E6F2045 		.ascii	"No Error\000"
  30      72726F72 
  30      00
  31 0009 000000   		.align	2
  32              	.LC1:
  33 000c 53706563 		.ascii	"Specified string data length is too long (> 0xFFFFF"
  33      69666965 
  33      64207374 
  33      72696E67 
  33      20646174 
  34 003f 46464629 		.ascii	"FFF)\000"
  34      00
  35              		.align	2
  36              	.LC2:
  37 0044 53706563 		.ascii	"Specified binary data length is too long (> 0xFFFFF"
  37      69666965 
  37      64206269 
  37      6E617279 
  37      20646174 
  38 0077 46464629 		.ascii	"FFF)\000"
  38      00
  39              		.align	2
  40              	.LC3:
  41 007c 53706563 		.ascii	"Specified array length is too long (> 0xFFFFFFFF)\000"
  41      69666965 
  41      64206172 
  41      72617920 
  41      6C656E67 
ARM GAS  /var/folders/d2/nstgp4h54kz7g1l847x_b8wc0000gn/T//ccFI0sM2.s 			page 2


  42 00ae 0000     		.align	2
  43              	.LC4:
  44 00b0 53706563 		.ascii	"Specified map length is too long (> 0xFFFFFFFF)\000"
  44      69666965 
  44      64206D61 
  44      70206C65 
  44      6E677468 
  45              		.align	2
  46              	.LC5:
  47 00e0 496E7075 		.ascii	"Input value is too large\000"
  47      74207661 
  47      6C756520 
  47      69732074 
  47      6F6F206C 
  48 00f9 000000   		.align	2
  49              	.LC6:
  50 00fc 4572726F 		.ascii	"Error writing fixed value\000"
  50      72207772 
  50      6974696E 
  50      67206669 
  50      78656420 
  51 0116 0000     		.align	2
  52              	.LC7:
  53 0118 4572726F 		.ascii	"Error reading type marker\000"
  53      72207265 
  53      6164696E 
  53      67207479 
  53      7065206D 
  54 0132 0000     		.align	2
  55              	.LC8:
  56 0134 4572726F 		.ascii	"Error writing type marker\000"
  56      72207772 
  56      6974696E 
  56      67207479 
  56      7065206D 
  57 014e 0000     		.align	2
  58              	.LC9:
  59 0150 4572726F 		.ascii	"Error reading packed data\000"
  59      72207265 
  59      6164696E 
  59      67207061 
  59      636B6564 
  60 016a 0000     		.align	2
  61              	.LC10:
  62 016c 4572726F 		.ascii	"Error writing packed data\000"
  62      72207772 
  62      6974696E 
  62      67207061 
  62      636B6564 
  63 0186 0000     		.align	2
  64              	.LC11:
  65 0188 4572726F 		.ascii	"Error reading ext type\000"
  65      72207265 
  65      6164696E 
  65      67206578 
  65      74207479 
  66 019f 00       		.align	2
ARM GAS  /var/folders/d2/nstgp4h54kz7g1l847x_b8wc0000gn/T//ccFI0sM2.s 			page 3


  67              	.LC12:
  68 01a0 4572726F 		.ascii	"Error writing ext type\000"
  68      72207772 
  68      6974696E 
  68      67206578 
  68      74207479 
  69 01b7 00       		.align	2
  70              	.LC13:
  71 01b8 496E7661 		.ascii	"Invalid type\000"
  71      6C696420 
  71      74797065 
  71      00
  72 01c5 000000   		.align	2
  73              	.LC14:
  74 01c8 4572726F 		.ascii	"Error reading size\000"
  74      72207265 
  74      6164696E 
  74      67207369 
  74      7A6500
  75 01db 00       		.align	2
  76              	.LC15:
  77 01dc 4572726F 		.ascii	"Error writing size\000"
  77      72207772 
  77      6974696E 
  77      67207369 
  77      7A6500
  78 01ef 00       		.align	2
  79              	.LC16:
  80 01f0 4D617820 		.ascii	"Max Error\000"
  80      4572726F 
  80      7200
  81              		.section	.data.cmp_error_messages,"aw",%progbits
  82              		.align	2
  83              		.type	cmp_error_messages, %object
  84              		.size	cmp_error_messages, 68
  85              	cmp_error_messages:
  86 0000 00000000 		.word	.LC0
  87 0004 0C000000 		.word	.LC1
  88 0008 44000000 		.word	.LC2
  89 000c 7C000000 		.word	.LC3
  90 0010 B0000000 		.word	.LC4
  91 0014 E0000000 		.word	.LC5
  92 0018 FC000000 		.word	.LC6
  93 001c 18010000 		.word	.LC7
  94 0020 34010000 		.word	.LC8
  95 0024 50010000 		.word	.LC9
  96 0028 6C010000 		.word	.LC10
  97 002c 88010000 		.word	.LC11
  98 0030 A0010000 		.word	.LC12
  99 0034 B8010000 		.word	.LC13
 100 0038 C8010000 		.word	.LC14
 101 003c DC010000 		.word	.LC15
 102 0040 F0010000 		.word	.LC16
 103              		.section	.rodata._i,"a",%progbits
 104              		.align	2
 105              		.type	_i, %object
 106              		.size	_i, 4
ARM GAS  /var/folders/d2/nstgp4h54kz7g1l847x_b8wc0000gn/T//ccFI0sM2.s 			page 4


 107              	_i:
 108 0000 01000000 		.word	1
 109              		.section	.text.be16,"ax",%progbits
 110              		.align	1
 111              		.syntax unified
 112              		.thumb
 113              		.thumb_func
 114              		.fpu fpv4-sp-d16
 115              		.type	be16, %function
 116              	be16:
 117              		@ args = 0, pretend = 0, frame = 16
 118              		@ frame_needed = 1, uses_anonymous_args = 0
 119              		@ link register save eliminated.
 120 0000 80B4     		push	{r7}
 121 0002 85B0     		sub	sp, sp, #20
 122 0004 00AF     		add	r7, sp, #0
 123 0006 0346     		mov	r3, r0
 124 0008 FB80     		strh	r3, [r7, #6]	@ movhi
 125 000a BB1D     		adds	r3, r7, #6
 126 000c FB60     		str	r3, [r7, #12]
 127 000e 0C4B     		ldr	r3, .L4
 128 0010 1B78     		ldrb	r3, [r3]	@ zero_extendqisi2
 129 0012 002B     		cmp	r3, #0
 130 0014 0CD0     		beq	.L2
 131 0016 0023     		movs	r3, #0
 132 0018 FB72     		strb	r3, [r7, #11]
 133 001a FB68     		ldr	r3, [r7, #12]
 134 001c 1B78     		ldrb	r3, [r3]
 135 001e FB72     		strb	r3, [r7, #11]
 136 0020 FB68     		ldr	r3, [r7, #12]
 137 0022 5A78     		ldrb	r2, [r3, #1]	@ zero_extendqisi2
 138 0024 FB68     		ldr	r3, [r7, #12]
 139 0026 1A70     		strb	r2, [r3]
 140 0028 FB68     		ldr	r3, [r7, #12]
 141 002a 0133     		adds	r3, r3, #1
 142 002c FA7A     		ldrb	r2, [r7, #11]
 143 002e 1A70     		strb	r2, [r3]
 144              	.L2:
 145 0030 FB88     		ldrh	r3, [r7, #6]
 146 0032 1846     		mov	r0, r3
 147 0034 1437     		adds	r7, r7, #20
 148 0036 BD46     		mov	sp, r7
 149              		@ sp needed
 150 0038 5DF8047B 		ldr	r7, [sp], #4
 151 003c 7047     		bx	lr
 152              	.L5:
 153 003e 00BF     		.align	2
 154              	.L4:
 155 0040 00000000 		.word	_i
 156              		.size	be16, .-be16
 157              		.section	.text.be32,"ax",%progbits
 158              		.align	1
 159              		.syntax unified
 160              		.thumb
 161              		.thumb_func
 162              		.fpu fpv4-sp-d16
 163              		.type	be32, %function
ARM GAS  /var/folders/d2/nstgp4h54kz7g1l847x_b8wc0000gn/T//ccFI0sM2.s 			page 5


 164              	be32:
 165              		@ args = 0, pretend = 0, frame = 16
 166              		@ frame_needed = 1, uses_anonymous_args = 0
 167              		@ link register save eliminated.
 168 0000 80B4     		push	{r7}
 169 0002 85B0     		sub	sp, sp, #20
 170 0004 00AF     		add	r7, sp, #0
 171 0006 7860     		str	r0, [r7, #4]
 172 0008 3B1D     		adds	r3, r7, #4
 173 000a FB60     		str	r3, [r7, #12]
 174 000c 114B     		ldr	r3, .L9
 175 000e 1B78     		ldrb	r3, [r3]	@ zero_extendqisi2
 176 0010 002B     		cmp	r3, #0
 177 0012 18D0     		beq	.L7
 178 0014 0023     		movs	r3, #0
 179 0016 FB72     		strb	r3, [r7, #11]
 180 0018 FB68     		ldr	r3, [r7, #12]
 181 001a 1B78     		ldrb	r3, [r3]
 182 001c FB72     		strb	r3, [r7, #11]
 183 001e FB68     		ldr	r3, [r7, #12]
 184 0020 DA78     		ldrb	r2, [r3, #3]	@ zero_extendqisi2
 185 0022 FB68     		ldr	r3, [r7, #12]
 186 0024 1A70     		strb	r2, [r3]
 187 0026 FB68     		ldr	r3, [r7, #12]
 188 0028 0333     		adds	r3, r3, #3
 189 002a FA7A     		ldrb	r2, [r7, #11]
 190 002c 1A70     		strb	r2, [r3]
 191 002e FB68     		ldr	r3, [r7, #12]
 192 0030 5B78     		ldrb	r3, [r3, #1]
 193 0032 FB72     		strb	r3, [r7, #11]
 194 0034 FB68     		ldr	r3, [r7, #12]
 195 0036 0133     		adds	r3, r3, #1
 196 0038 FA68     		ldr	r2, [r7, #12]
 197 003a 9278     		ldrb	r2, [r2, #2]	@ zero_extendqisi2
 198 003c 1A70     		strb	r2, [r3]
 199 003e FB68     		ldr	r3, [r7, #12]
 200 0040 0233     		adds	r3, r3, #2
 201 0042 FA7A     		ldrb	r2, [r7, #11]
 202 0044 1A70     		strb	r2, [r3]
 203              	.L7:
 204 0046 7B68     		ldr	r3, [r7, #4]
 205 0048 1846     		mov	r0, r3
 206 004a 1437     		adds	r7, r7, #20
 207 004c BD46     		mov	sp, r7
 208              		@ sp needed
 209 004e 5DF8047B 		ldr	r7, [sp], #4
 210 0052 7047     		bx	lr
 211              	.L10:
 212              		.align	2
 213              	.L9:
 214 0054 00000000 		.word	_i
 215              		.size	be32, .-be32
 216              		.section	.text.be64,"ax",%progbits
 217              		.align	1
 218              		.syntax unified
 219              		.thumb
 220              		.thumb_func
ARM GAS  /var/folders/d2/nstgp4h54kz7g1l847x_b8wc0000gn/T//ccFI0sM2.s 			page 6


 221              		.fpu fpv4-sp-d16
 222              		.type	be64, %function
 223              	be64:
 224              		@ args = 0, pretend = 0, frame = 16
 225              		@ frame_needed = 1, uses_anonymous_args = 0
 226              		@ link register save eliminated.
 227 0000 90B4     		push	{r4, r7}
 228 0002 84B0     		sub	sp, sp, #16
 229 0004 00AF     		add	r7, sp, #0
 230 0006 C7E90001 		strd	r0, [r7]
 231 000a 3B46     		mov	r3, r7
 232 000c FB60     		str	r3, [r7, #12]
 233 000e 1E4B     		ldr	r3, .L14
 234 0010 1B78     		ldrb	r3, [r3]	@ zero_extendqisi2
 235 0012 002B     		cmp	r3, #0
 236 0014 30D0     		beq	.L12
 237 0016 0023     		movs	r3, #0
 238 0018 FB72     		strb	r3, [r7, #11]
 239 001a FB68     		ldr	r3, [r7, #12]
 240 001c 1B78     		ldrb	r3, [r3]
 241 001e FB72     		strb	r3, [r7, #11]
 242 0020 FB68     		ldr	r3, [r7, #12]
 243 0022 DA79     		ldrb	r2, [r3, #7]	@ zero_extendqisi2
 244 0024 FB68     		ldr	r3, [r7, #12]
 245 0026 1A70     		strb	r2, [r3]
 246 0028 FB68     		ldr	r3, [r7, #12]
 247 002a 0733     		adds	r3, r3, #7
 248 002c FA7A     		ldrb	r2, [r7, #11]
 249 002e 1A70     		strb	r2, [r3]
 250 0030 FB68     		ldr	r3, [r7, #12]
 251 0032 5B78     		ldrb	r3, [r3, #1]
 252 0034 FB72     		strb	r3, [r7, #11]
 253 0036 FB68     		ldr	r3, [r7, #12]
 254 0038 0133     		adds	r3, r3, #1
 255 003a FA68     		ldr	r2, [r7, #12]
 256 003c 9279     		ldrb	r2, [r2, #6]	@ zero_extendqisi2
 257 003e 1A70     		strb	r2, [r3]
 258 0040 FB68     		ldr	r3, [r7, #12]
 259 0042 0633     		adds	r3, r3, #6
 260 0044 FA7A     		ldrb	r2, [r7, #11]
 261 0046 1A70     		strb	r2, [r3]
 262 0048 FB68     		ldr	r3, [r7, #12]
 263 004a 9B78     		ldrb	r3, [r3, #2]
 264 004c FB72     		strb	r3, [r7, #11]
 265 004e FB68     		ldr	r3, [r7, #12]
 266 0050 0233     		adds	r3, r3, #2
 267 0052 FA68     		ldr	r2, [r7, #12]
 268 0054 5279     		ldrb	r2, [r2, #5]	@ zero_extendqisi2
 269 0056 1A70     		strb	r2, [r3]
 270 0058 FB68     		ldr	r3, [r7, #12]
 271 005a 0533     		adds	r3, r3, #5
 272 005c FA7A     		ldrb	r2, [r7, #11]
 273 005e 1A70     		strb	r2, [r3]
 274 0060 FB68     		ldr	r3, [r7, #12]
 275 0062 DB78     		ldrb	r3, [r3, #3]
 276 0064 FB72     		strb	r3, [r7, #11]
 277 0066 FB68     		ldr	r3, [r7, #12]
ARM GAS  /var/folders/d2/nstgp4h54kz7g1l847x_b8wc0000gn/T//ccFI0sM2.s 			page 7


 278 0068 0333     		adds	r3, r3, #3
 279 006a FA68     		ldr	r2, [r7, #12]
 280 006c 1279     		ldrb	r2, [r2, #4]	@ zero_extendqisi2
 281 006e 1A70     		strb	r2, [r3]
 282 0070 FB68     		ldr	r3, [r7, #12]
 283 0072 0433     		adds	r3, r3, #4
 284 0074 FA7A     		ldrb	r2, [r7, #11]
 285 0076 1A70     		strb	r2, [r3]
 286              	.L12:
 287 0078 D7E90034 		ldrd	r3, [r7]
 288 007c 1846     		mov	r0, r3
 289 007e 2146     		mov	r1, r4
 290 0080 1037     		adds	r7, r7, #16
 291 0082 BD46     		mov	sp, r7
 292              		@ sp needed
 293 0084 90BC     		pop	{r4, r7}
 294 0086 7047     		bx	lr
 295              	.L15:
 296              		.align	2
 297              	.L14:
 298 0088 00000000 		.word	_i
 299              		.size	be64, .-be64
 300              		.section	.text.befloat,"ax",%progbits
 301              		.align	1
 302              		.syntax unified
 303              		.thumb
 304              		.thumb_func
 305              		.fpu fpv4-sp-d16
 306              		.type	befloat, %function
 307              	befloat:
 308              		@ args = 0, pretend = 0, frame = 16
 309              		@ frame_needed = 1, uses_anonymous_args = 0
 310              		@ link register save eliminated.
 311 0000 80B4     		push	{r7}
 312 0002 85B0     		sub	sp, sp, #20
 313 0004 00AF     		add	r7, sp, #0
 314 0006 87ED010A 		vstr.32	s0, [r7, #4]
 315 000a 3B1D     		adds	r3, r7, #4
 316 000c FB60     		str	r3, [r7, #12]
 317 000e 134B     		ldr	r3, .L19
 318 0010 1B78     		ldrb	r3, [r3]	@ zero_extendqisi2
 319 0012 002B     		cmp	r3, #0
 320 0014 18D0     		beq	.L17
 321 0016 0023     		movs	r3, #0
 322 0018 FB72     		strb	r3, [r7, #11]
 323 001a FB68     		ldr	r3, [r7, #12]
 324 001c 1B78     		ldrb	r3, [r3]
 325 001e FB72     		strb	r3, [r7, #11]
 326 0020 FB68     		ldr	r3, [r7, #12]
 327 0022 DA78     		ldrb	r2, [r3, #3]	@ zero_extendqisi2
 328 0024 FB68     		ldr	r3, [r7, #12]
 329 0026 1A70     		strb	r2, [r3]
 330 0028 FB68     		ldr	r3, [r7, #12]
 331 002a 0333     		adds	r3, r3, #3
 332 002c FA7A     		ldrb	r2, [r7, #11]
 333 002e 1A70     		strb	r2, [r3]
 334 0030 FB68     		ldr	r3, [r7, #12]
ARM GAS  /var/folders/d2/nstgp4h54kz7g1l847x_b8wc0000gn/T//ccFI0sM2.s 			page 8


 335 0032 5B78     		ldrb	r3, [r3, #1]
 336 0034 FB72     		strb	r3, [r7, #11]
 337 0036 FB68     		ldr	r3, [r7, #12]
 338 0038 0133     		adds	r3, r3, #1
 339 003a FA68     		ldr	r2, [r7, #12]
 340 003c 9278     		ldrb	r2, [r2, #2]	@ zero_extendqisi2
 341 003e 1A70     		strb	r2, [r3]
 342 0040 FB68     		ldr	r3, [r7, #12]
 343 0042 0233     		adds	r3, r3, #2
 344 0044 FA7A     		ldrb	r2, [r7, #11]
 345 0046 1A70     		strb	r2, [r3]
 346              	.L17:
 347 0048 7B68     		ldr	r3, [r7, #4]	@ float
 348 004a 07EE903A 		vmov	s15, r3
 349 004e B0EE670A 		vmov.f32	s0, s15
 350 0052 1437     		adds	r7, r7, #20
 351 0054 BD46     		mov	sp, r7
 352              		@ sp needed
 353 0056 5DF8047B 		ldr	r7, [sp], #4
 354 005a 7047     		bx	lr
 355              	.L20:
 356              		.align	2
 357              	.L19:
 358 005c 00000000 		.word	_i
 359              		.size	befloat, .-befloat
 360              		.section	.text.bedouble,"ax",%progbits
 361              		.align	1
 362              		.syntax unified
 363              		.thumb
 364              		.thumb_func
 365              		.fpu fpv4-sp-d16
 366              		.type	bedouble, %function
 367              	bedouble:
 368              		@ args = 0, pretend = 0, frame = 16
 369              		@ frame_needed = 1, uses_anonymous_args = 0
 370              		@ link register save eliminated.
 371 0000 90B4     		push	{r4, r7}
 372 0002 84B0     		sub	sp, sp, #16
 373 0004 00AF     		add	r7, sp, #0
 374 0006 87ED000B 		vstr.64	d0, [r7]
 375 000a 3B46     		mov	r3, r7
 376 000c FB60     		str	r3, [r7, #12]
 377 000e 204B     		ldr	r3, .L24
 378 0010 1B78     		ldrb	r3, [r3]	@ zero_extendqisi2
 379 0012 002B     		cmp	r3, #0
 380 0014 30D0     		beq	.L22
 381 0016 0023     		movs	r3, #0
 382 0018 FB72     		strb	r3, [r7, #11]
 383 001a FB68     		ldr	r3, [r7, #12]
 384 001c 1B78     		ldrb	r3, [r3]
 385 001e FB72     		strb	r3, [r7, #11]
 386 0020 FB68     		ldr	r3, [r7, #12]
 387 0022 DA79     		ldrb	r2, [r3, #7]	@ zero_extendqisi2
 388 0024 FB68     		ldr	r3, [r7, #12]
 389 0026 1A70     		strb	r2, [r3]
 390 0028 FB68     		ldr	r3, [r7, #12]
 391 002a 0733     		adds	r3, r3, #7
ARM GAS  /var/folders/d2/nstgp4h54kz7g1l847x_b8wc0000gn/T//ccFI0sM2.s 			page 9


 392 002c FA7A     		ldrb	r2, [r7, #11]
 393 002e 1A70     		strb	r2, [r3]
 394 0030 FB68     		ldr	r3, [r7, #12]
 395 0032 5B78     		ldrb	r3, [r3, #1]
 396 0034 FB72     		strb	r3, [r7, #11]
 397 0036 FB68     		ldr	r3, [r7, #12]
 398 0038 0133     		adds	r3, r3, #1
 399 003a FA68     		ldr	r2, [r7, #12]
 400 003c 9279     		ldrb	r2, [r2, #6]	@ zero_extendqisi2
 401 003e 1A70     		strb	r2, [r3]
 402 0040 FB68     		ldr	r3, [r7, #12]
 403 0042 0633     		adds	r3, r3, #6
 404 0044 FA7A     		ldrb	r2, [r7, #11]
 405 0046 1A70     		strb	r2, [r3]
 406 0048 FB68     		ldr	r3, [r7, #12]
 407 004a 9B78     		ldrb	r3, [r3, #2]
 408 004c FB72     		strb	r3, [r7, #11]
 409 004e FB68     		ldr	r3, [r7, #12]
 410 0050 0233     		adds	r3, r3, #2
 411 0052 FA68     		ldr	r2, [r7, #12]
 412 0054 5279     		ldrb	r2, [r2, #5]	@ zero_extendqisi2
 413 0056 1A70     		strb	r2, [r3]
 414 0058 FB68     		ldr	r3, [r7, #12]
 415 005a 0533     		adds	r3, r3, #5
 416 005c FA7A     		ldrb	r2, [r7, #11]
 417 005e 1A70     		strb	r2, [r3]
 418 0060 FB68     		ldr	r3, [r7, #12]
 419 0062 DB78     		ldrb	r3, [r3, #3]
 420 0064 FB72     		strb	r3, [r7, #11]
 421 0066 FB68     		ldr	r3, [r7, #12]
 422 0068 0333     		adds	r3, r3, #3
 423 006a FA68     		ldr	r2, [r7, #12]
 424 006c 1279     		ldrb	r2, [r2, #4]	@ zero_extendqisi2
 425 006e 1A70     		strb	r2, [r3]
 426 0070 FB68     		ldr	r3, [r7, #12]
 427 0072 0433     		adds	r3, r3, #4
 428 0074 FA7A     		ldrb	r2, [r7, #11]
 429 0076 1A70     		strb	r2, [r3]
 430              	.L22:
 431 0078 D7E90034 		ldrd	r3, [r7]
 432 007c 44EC173B 		vmov	d7, r3, r4
 433 0080 B0EE470A 		vmov.f32	s0, s14
 434 0084 F0EE670A 		vmov.f32	s1, s15
 435 0088 1037     		adds	r7, r7, #16
 436 008a BD46     		mov	sp, r7
 437              		@ sp needed
 438 008c 90BC     		pop	{r4, r7}
 439 008e 7047     		bx	lr
 440              	.L25:
 441              		.align	2
 442              	.L24:
 443 0090 00000000 		.word	_i
 444              		.size	bedouble, .-bedouble
 445              		.section	.text.read_byte,"ax",%progbits
 446              		.align	1
 447              		.syntax unified
 448              		.thumb
ARM GAS  /var/folders/d2/nstgp4h54kz7g1l847x_b8wc0000gn/T//ccFI0sM2.s 			page 10


 449              		.thumb_func
 450              		.fpu fpv4-sp-d16
 451              		.type	read_byte, %function
 452              	read_byte:
 453              		@ args = 0, pretend = 0, frame = 8
 454              		@ frame_needed = 1, uses_anonymous_args = 0
 455 0000 80B5     		push	{r7, lr}
 456 0002 82B0     		sub	sp, sp, #8
 457 0004 00AF     		add	r7, sp, #0
 458 0006 7860     		str	r0, [r7, #4]
 459 0008 3960     		str	r1, [r7]
 460 000a 7B68     		ldr	r3, [r7, #4]
 461 000c 9B68     		ldr	r3, [r3, #8]
 462 000e 0122     		movs	r2, #1
 463 0010 3968     		ldr	r1, [r7]
 464 0012 7868     		ldr	r0, [r7, #4]
 465 0014 9847     		blx	r3
 466 0016 0346     		mov	r3, r0
 467 0018 1846     		mov	r0, r3
 468 001a 0837     		adds	r7, r7, #8
 469 001c BD46     		mov	sp, r7
 470              		@ sp needed
 471 001e 80BD     		pop	{r7, pc}
 472              		.size	read_byte, .-read_byte
 473              		.section	.text.write_byte,"ax",%progbits
 474              		.align	1
 475              		.syntax unified
 476              		.thumb
 477              		.thumb_func
 478              		.fpu fpv4-sp-d16
 479              		.type	write_byte, %function
 480              	write_byte:
 481              		@ args = 0, pretend = 0, frame = 8
 482              		@ frame_needed = 1, uses_anonymous_args = 0
 483 0000 80B5     		push	{r7, lr}
 484 0002 82B0     		sub	sp, sp, #8
 485 0004 00AF     		add	r7, sp, #0
 486 0006 7860     		str	r0, [r7, #4]
 487 0008 0B46     		mov	r3, r1
 488 000a FB70     		strb	r3, [r7, #3]
 489 000c 7B68     		ldr	r3, [r7, #4]
 490 000e DB68     		ldr	r3, [r3, #12]
 491 0010 F91C     		adds	r1, r7, #3
 492 0012 0122     		movs	r2, #1
 493 0014 7868     		ldr	r0, [r7, #4]
 494 0016 9847     		blx	r3
 495 0018 0346     		mov	r3, r0
 496 001a 012B     		cmp	r3, #1
 497 001c 0CBF     		ite	eq
 498 001e 0123     		moveq	r3, #1
 499 0020 0023     		movne	r3, #0
 500 0022 DBB2     		uxtb	r3, r3
 501 0024 1846     		mov	r0, r3
 502 0026 0837     		adds	r7, r7, #8
 503 0028 BD46     		mov	sp, r7
 504              		@ sp needed
 505 002a 80BD     		pop	{r7, pc}
ARM GAS  /var/folders/d2/nstgp4h54kz7g1l847x_b8wc0000gn/T//ccFI0sM2.s 			page 11


 506              		.size	write_byte, .-write_byte
 507              		.section	.text.read_type_marker,"ax",%progbits
 508              		.align	1
 509              		.syntax unified
 510              		.thumb
 511              		.thumb_func
 512              		.fpu fpv4-sp-d16
 513              		.type	read_type_marker, %function
 514              	read_type_marker:
 515              		@ args = 0, pretend = 0, frame = 8
 516              		@ frame_needed = 1, uses_anonymous_args = 0
 517 0000 80B5     		push	{r7, lr}
 518 0002 82B0     		sub	sp, sp, #8
 519 0004 00AF     		add	r7, sp, #0
 520 0006 7860     		str	r0, [r7, #4]
 521 0008 3960     		str	r1, [r7]
 522 000a 3968     		ldr	r1, [r7]
 523 000c 7868     		ldr	r0, [r7, #4]
 524 000e FFF7FEFF 		bl	read_byte
 525 0012 0346     		mov	r3, r0
 526 0014 002B     		cmp	r3, #0
 527 0016 01D0     		beq	.L31
 528 0018 0123     		movs	r3, #1
 529 001a 03E0     		b	.L32
 530              	.L31:
 531 001c 7B68     		ldr	r3, [r7, #4]
 532 001e 0722     		movs	r2, #7
 533 0020 1A70     		strb	r2, [r3]
 534 0022 0023     		movs	r3, #0
 535              	.L32:
 536 0024 1846     		mov	r0, r3
 537 0026 0837     		adds	r7, r7, #8
 538 0028 BD46     		mov	sp, r7
 539              		@ sp needed
 540 002a 80BD     		pop	{r7, pc}
 541              		.size	read_type_marker, .-read_type_marker
 542              		.section	.text.write_type_marker,"ax",%progbits
 543              		.align	1
 544              		.syntax unified
 545              		.thumb
 546              		.thumb_func
 547              		.fpu fpv4-sp-d16
 548              		.type	write_type_marker, %function
 549              	write_type_marker:
 550              		@ args = 0, pretend = 0, frame = 8
 551              		@ frame_needed = 1, uses_anonymous_args = 0
 552 0000 80B5     		push	{r7, lr}
 553 0002 82B0     		sub	sp, sp, #8
 554 0004 00AF     		add	r7, sp, #0
 555 0006 7860     		str	r0, [r7, #4]
 556 0008 0B46     		mov	r3, r1
 557 000a FB70     		strb	r3, [r7, #3]
 558 000c FB78     		ldrb	r3, [r7, #3]	@ zero_extendqisi2
 559 000e 1946     		mov	r1, r3
 560 0010 7868     		ldr	r0, [r7, #4]
 561 0012 FFF7FEFF 		bl	write_byte
 562 0016 0346     		mov	r3, r0
ARM GAS  /var/folders/d2/nstgp4h54kz7g1l847x_b8wc0000gn/T//ccFI0sM2.s 			page 12


 563 0018 002B     		cmp	r3, #0
 564 001a 01D0     		beq	.L34
 565 001c 0123     		movs	r3, #1
 566 001e 03E0     		b	.L35
 567              	.L34:
 568 0020 7B68     		ldr	r3, [r7, #4]
 569 0022 0822     		movs	r2, #8
 570 0024 1A70     		strb	r2, [r3]
 571 0026 0023     		movs	r3, #0
 572              	.L35:
 573 0028 1846     		mov	r0, r3
 574 002a 0837     		adds	r7, r7, #8
 575 002c BD46     		mov	sp, r7
 576              		@ sp needed
 577 002e 80BD     		pop	{r7, pc}
 578              		.size	write_type_marker, .-write_type_marker
 579              		.section	.text.write_fixed_value,"ax",%progbits
 580              		.align	1
 581              		.syntax unified
 582              		.thumb
 583              		.thumb_func
 584              		.fpu fpv4-sp-d16
 585              		.type	write_fixed_value, %function
 586              	write_fixed_value:
 587              		@ args = 0, pretend = 0, frame = 8
 588              		@ frame_needed = 1, uses_anonymous_args = 0
 589 0000 80B5     		push	{r7, lr}
 590 0002 82B0     		sub	sp, sp, #8
 591 0004 00AF     		add	r7, sp, #0
 592 0006 7860     		str	r0, [r7, #4]
 593 0008 0B46     		mov	r3, r1
 594 000a FB70     		strb	r3, [r7, #3]
 595 000c FB78     		ldrb	r3, [r7, #3]	@ zero_extendqisi2
 596 000e 1946     		mov	r1, r3
 597 0010 7868     		ldr	r0, [r7, #4]
 598 0012 FFF7FEFF 		bl	write_byte
 599 0016 0346     		mov	r3, r0
 600 0018 002B     		cmp	r3, #0
 601 001a 01D0     		beq	.L37
 602 001c 0123     		movs	r3, #1
 603 001e 03E0     		b	.L38
 604              	.L37:
 605 0020 7B68     		ldr	r3, [r7, #4]
 606 0022 0622     		movs	r2, #6
 607 0024 1A70     		strb	r2, [r3]
 608 0026 0023     		movs	r3, #0
 609              	.L38:
 610 0028 1846     		mov	r0, r3
 611 002a 0837     		adds	r7, r7, #8
 612 002c BD46     		mov	sp, r7
 613              		@ sp needed
 614 002e 80BD     		pop	{r7, pc}
 615              		.size	write_fixed_value, .-write_fixed_value
 616              		.section	.text.cmp_init,"ax",%progbits
 617              		.align	1
 618              		.global	cmp_init
 619              		.syntax unified
ARM GAS  /var/folders/d2/nstgp4h54kz7g1l847x_b8wc0000gn/T//ccFI0sM2.s 			page 13


 620              		.thumb
 621              		.thumb_func
 622              		.fpu fpv4-sp-d16
 623              		.type	cmp_init, %function
 624              	cmp_init:
 625              		@ args = 0, pretend = 0, frame = 16
 626              		@ frame_needed = 1, uses_anonymous_args = 0
 627              		@ link register save eliminated.
 628 0000 80B4     		push	{r7}
 629 0002 85B0     		sub	sp, sp, #20
 630 0004 00AF     		add	r7, sp, #0
 631 0006 F860     		str	r0, [r7, #12]
 632 0008 B960     		str	r1, [r7, #8]
 633 000a 7A60     		str	r2, [r7, #4]
 634 000c 3B60     		str	r3, [r7]
 635 000e FB68     		ldr	r3, [r7, #12]
 636 0010 0022     		movs	r2, #0
 637 0012 1A70     		strb	r2, [r3]
 638 0014 FB68     		ldr	r3, [r7, #12]
 639 0016 BA68     		ldr	r2, [r7, #8]
 640 0018 5A60     		str	r2, [r3, #4]
 641 001a FB68     		ldr	r3, [r7, #12]
 642 001c 7A68     		ldr	r2, [r7, #4]
 643 001e 9A60     		str	r2, [r3, #8]
 644 0020 FB68     		ldr	r3, [r7, #12]
 645 0022 3A68     		ldr	r2, [r7]
 646 0024 DA60     		str	r2, [r3, #12]
 647 0026 00BF     		nop
 648 0028 1437     		adds	r7, r7, #20
 649 002a BD46     		mov	sp, r7
 650              		@ sp needed
 651 002c 5DF8047B 		ldr	r7, [sp], #4
 652 0030 7047     		bx	lr
 653              		.size	cmp_init, .-cmp_init
 654              		.section	.text.cmp_version,"ax",%progbits
 655              		.align	1
 656              		.global	cmp_version
 657              		.syntax unified
 658              		.thumb
 659              		.thumb_func
 660              		.fpu fpv4-sp-d16
 661              		.type	cmp_version, %function
 662              	cmp_version:
 663              		@ args = 0, pretend = 0, frame = 0
 664              		@ frame_needed = 1, uses_anonymous_args = 0
 665              		@ link register save eliminated.
 666 0000 80B4     		push	{r7}
 667 0002 00AF     		add	r7, sp, #0
 668 0004 0A23     		movs	r3, #10
 669 0006 1846     		mov	r0, r3
 670 0008 BD46     		mov	sp, r7
 671              		@ sp needed
 672 000a 5DF8047B 		ldr	r7, [sp], #4
 673 000e 7047     		bx	lr
 674              		.size	cmp_version, .-cmp_version
 675              		.section	.text.cmp_mp_version,"ax",%progbits
 676              		.align	1
ARM GAS  /var/folders/d2/nstgp4h54kz7g1l847x_b8wc0000gn/T//ccFI0sM2.s 			page 14


 677              		.global	cmp_mp_version
 678              		.syntax unified
 679              		.thumb
 680              		.thumb_func
 681              		.fpu fpv4-sp-d16
 682              		.type	cmp_mp_version, %function
 683              	cmp_mp_version:
 684              		@ args = 0, pretend = 0, frame = 0
 685              		@ frame_needed = 1, uses_anonymous_args = 0
 686              		@ link register save eliminated.
 687 0000 80B4     		push	{r7}
 688 0002 00AF     		add	r7, sp, #0
 689 0004 0523     		movs	r3, #5
 690 0006 1846     		mov	r0, r3
 691 0008 BD46     		mov	sp, r7
 692              		@ sp needed
 693 000a 5DF8047B 		ldr	r7, [sp], #4
 694 000e 7047     		bx	lr
 695              		.size	cmp_mp_version, .-cmp_mp_version
 696              		.section	.rodata
 697 01fa 0000     		.align	2
 698              	.LC17:
 699 01fc 00       		.ascii	"\000"
 700              		.section	.text.cmp_strerror,"ax",%progbits
 701              		.align	1
 702              		.global	cmp_strerror
 703              		.syntax unified
 704              		.thumb
 705              		.thumb_func
 706              		.fpu fpv4-sp-d16
 707              		.type	cmp_strerror, %function
 708              	cmp_strerror:
 709              		@ args = 0, pretend = 0, frame = 8
 710              		@ frame_needed = 1, uses_anonymous_args = 0
 711              		@ link register save eliminated.
 712 0000 80B4     		push	{r7}
 713 0002 83B0     		sub	sp, sp, #12
 714 0004 00AF     		add	r7, sp, #0
 715 0006 7860     		str	r0, [r7, #4]
 716 0008 7B68     		ldr	r3, [r7, #4]
 717 000a 1B78     		ldrb	r3, [r3]	@ zero_extendqisi2
 718 000c 002B     		cmp	r3, #0
 719 000e 0AD0     		beq	.L45
 720 0010 7B68     		ldr	r3, [r7, #4]
 721 0012 1B78     		ldrb	r3, [r3]	@ zero_extendqisi2
 722 0014 0F2B     		cmp	r3, #15
 723 0016 06D8     		bhi	.L45
 724 0018 7B68     		ldr	r3, [r7, #4]
 725 001a 1B78     		ldrb	r3, [r3]	@ zero_extendqisi2
 726 001c 1A46     		mov	r2, r3
 727 001e 054B     		ldr	r3, .L47
 728 0020 53F82230 		ldr	r3, [r3, r2, lsl #2]
 729 0024 00E0     		b	.L46
 730              	.L45:
 731 0026 044B     		ldr	r3, .L47+4
 732              	.L46:
 733 0028 1846     		mov	r0, r3
ARM GAS  /var/folders/d2/nstgp4h54kz7g1l847x_b8wc0000gn/T//ccFI0sM2.s 			page 15


 734 002a 0C37     		adds	r7, r7, #12
 735 002c BD46     		mov	sp, r7
 736              		@ sp needed
 737 002e 5DF8047B 		ldr	r7, [sp], #4
 738 0032 7047     		bx	lr
 739              	.L48:
 740              		.align	2
 741              	.L47:
 742 0034 00000000 		.word	cmp_error_messages
 743 0038 FC010000 		.word	.LC17
 744              		.size	cmp_strerror, .-cmp_strerror
 745              		.section	.text.cmp_write_pfix,"ax",%progbits
 746              		.align	1
 747              		.global	cmp_write_pfix
 748              		.syntax unified
 749              		.thumb
 750              		.thumb_func
 751              		.fpu fpv4-sp-d16
 752              		.type	cmp_write_pfix, %function
 753              	cmp_write_pfix:
 754              		@ args = 0, pretend = 0, frame = 8
 755              		@ frame_needed = 1, uses_anonymous_args = 0
 756 0000 80B5     		push	{r7, lr}
 757 0002 82B0     		sub	sp, sp, #8
 758 0004 00AF     		add	r7, sp, #0
 759 0006 7860     		str	r0, [r7, #4]
 760 0008 0B46     		mov	r3, r1
 761 000a FB70     		strb	r3, [r7, #3]
 762 000c 97F90330 		ldrsb	r3, [r7, #3]
 763 0010 002B     		cmp	r3, #0
 764 0012 06DB     		blt	.L50
 765 0014 FB78     		ldrb	r3, [r7, #3]	@ zero_extendqisi2
 766 0016 1946     		mov	r1, r3
 767 0018 7868     		ldr	r0, [r7, #4]
 768 001a FFF7FEFF 		bl	write_fixed_value
 769 001e 0346     		mov	r3, r0
 770 0020 03E0     		b	.L51
 771              	.L50:
 772 0022 7B68     		ldr	r3, [r7, #4]
 773 0024 0522     		movs	r2, #5
 774 0026 1A70     		strb	r2, [r3]
 775 0028 0023     		movs	r3, #0
 776              	.L51:
 777 002a 1846     		mov	r0, r3
 778 002c 0837     		adds	r7, r7, #8
 779 002e BD46     		mov	sp, r7
 780              		@ sp needed
 781 0030 80BD     		pop	{r7, pc}
 782              		.size	cmp_write_pfix, .-cmp_write_pfix
 783              		.section	.text.cmp_write_nfix,"ax",%progbits
 784              		.align	1
 785              		.global	cmp_write_nfix
 786              		.syntax unified
 787              		.thumb
 788              		.thumb_func
 789              		.fpu fpv4-sp-d16
 790              		.type	cmp_write_nfix, %function
ARM GAS  /var/folders/d2/nstgp4h54kz7g1l847x_b8wc0000gn/T//ccFI0sM2.s 			page 16


 791              	cmp_write_nfix:
 792              		@ args = 0, pretend = 0, frame = 8
 793              		@ frame_needed = 1, uses_anonymous_args = 0
 794 0000 80B5     		push	{r7, lr}
 795 0002 82B0     		sub	sp, sp, #8
 796 0004 00AF     		add	r7, sp, #0
 797 0006 7860     		str	r0, [r7, #4]
 798 0008 0B46     		mov	r3, r1
 799 000a FB70     		strb	r3, [r7, #3]
 800 000c 97F90330 		ldrsb	r3, [r7, #3]
 801 0010 13F1200F 		cmn	r3, #32
 802 0014 0ADB     		blt	.L53
 803 0016 97F90330 		ldrsb	r3, [r7, #3]
 804 001a 002B     		cmp	r3, #0
 805 001c 06DA     		bge	.L53
 806 001e FB78     		ldrb	r3, [r7, #3]	@ zero_extendqisi2
 807 0020 1946     		mov	r1, r3
 808 0022 7868     		ldr	r0, [r7, #4]
 809 0024 FFF7FEFF 		bl	write_fixed_value
 810 0028 0346     		mov	r3, r0
 811 002a 03E0     		b	.L54
 812              	.L53:
 813 002c 7B68     		ldr	r3, [r7, #4]
 814 002e 0522     		movs	r2, #5
 815 0030 1A70     		strb	r2, [r3]
 816 0032 0023     		movs	r3, #0
 817              	.L54:
 818 0034 1846     		mov	r0, r3
 819 0036 0837     		adds	r7, r7, #8
 820 0038 BD46     		mov	sp, r7
 821              		@ sp needed
 822 003a 80BD     		pop	{r7, pc}
 823              		.size	cmp_write_nfix, .-cmp_write_nfix
 824              		.section	.text.cmp_write_sfix,"ax",%progbits
 825              		.align	1
 826              		.global	cmp_write_sfix
 827              		.syntax unified
 828              		.thumb
 829              		.thumb_func
 830              		.fpu fpv4-sp-d16
 831              		.type	cmp_write_sfix, %function
 832              	cmp_write_sfix:
 833              		@ args = 0, pretend = 0, frame = 8
 834              		@ frame_needed = 1, uses_anonymous_args = 0
 835 0000 80B5     		push	{r7, lr}
 836 0002 82B0     		sub	sp, sp, #8
 837 0004 00AF     		add	r7, sp, #0
 838 0006 7860     		str	r0, [r7, #4]
 839 0008 0B46     		mov	r3, r1
 840 000a FB70     		strb	r3, [r7, #3]
 841 000c 97F90330 		ldrsb	r3, [r7, #3]
 842 0010 002B     		cmp	r3, #0
 843 0012 06DB     		blt	.L56
 844 0014 FB78     		ldrb	r3, [r7, #3]	@ zero_extendqisi2
 845 0016 1946     		mov	r1, r3
 846 0018 7868     		ldr	r0, [r7, #4]
 847 001a FFF7FEFF 		bl	cmp_write_pfix
ARM GAS  /var/folders/d2/nstgp4h54kz7g1l847x_b8wc0000gn/T//ccFI0sM2.s 			page 17


 848 001e 0346     		mov	r3, r0
 849 0020 14E0     		b	.L57
 850              	.L56:
 851 0022 97F90330 		ldrsb	r3, [r7, #3]
 852 0026 13F1200F 		cmn	r3, #32
 853 002a 0BDB     		blt	.L58
 854 002c 97F90330 		ldrsb	r3, [r7, #3]
 855 0030 002B     		cmp	r3, #0
 856 0032 07DA     		bge	.L58
 857 0034 97F90330 		ldrsb	r3, [r7, #3]
 858 0038 1946     		mov	r1, r3
 859 003a 7868     		ldr	r0, [r7, #4]
 860 003c FFF7FEFF 		bl	cmp_write_nfix
 861 0040 0346     		mov	r3, r0
 862 0042 03E0     		b	.L57
 863              	.L58:
 864 0044 7B68     		ldr	r3, [r7, #4]
 865 0046 0522     		movs	r2, #5
 866 0048 1A70     		strb	r2, [r3]
 867 004a 0023     		movs	r3, #0
 868              	.L57:
 869 004c 1846     		mov	r0, r3
 870 004e 0837     		adds	r7, r7, #8
 871 0050 BD46     		mov	sp, r7
 872              		@ sp needed
 873 0052 80BD     		pop	{r7, pc}
 874              		.size	cmp_write_sfix, .-cmp_write_sfix
 875              		.section	.text.cmp_write_s8,"ax",%progbits
 876              		.align	1
 877              		.global	cmp_write_s8
 878              		.syntax unified
 879              		.thumb
 880              		.thumb_func
 881              		.fpu fpv4-sp-d16
 882              		.type	cmp_write_s8, %function
 883              	cmp_write_s8:
 884              		@ args = 0, pretend = 0, frame = 8
 885              		@ frame_needed = 1, uses_anonymous_args = 0
 886 0000 80B5     		push	{r7, lr}
 887 0002 82B0     		sub	sp, sp, #8
 888 0004 00AF     		add	r7, sp, #0
 889 0006 7860     		str	r0, [r7, #4]
 890 0008 0B46     		mov	r3, r1
 891 000a FB70     		strb	r3, [r7, #3]
 892 000c D021     		movs	r1, #208
 893 000e 7868     		ldr	r0, [r7, #4]
 894 0010 FFF7FEFF 		bl	write_type_marker
 895 0014 0346     		mov	r3, r0
 896 0016 83F00103 		eor	r3, r3, #1
 897 001a DBB2     		uxtb	r3, r3
 898 001c 002B     		cmp	r3, #0
 899 001e 01D0     		beq	.L60
 900 0020 0023     		movs	r3, #0
 901 0022 0BE0     		b	.L61
 902              	.L60:
 903 0024 7B68     		ldr	r3, [r7, #4]
 904 0026 DB68     		ldr	r3, [r3, #12]
ARM GAS  /var/folders/d2/nstgp4h54kz7g1l847x_b8wc0000gn/T//ccFI0sM2.s 			page 18


 905 0028 F91C     		adds	r1, r7, #3
 906 002a 0122     		movs	r2, #1
 907 002c 7868     		ldr	r0, [r7, #4]
 908 002e 9847     		blx	r3
 909 0030 0346     		mov	r3, r0
 910 0032 002B     		cmp	r3, #0
 911 0034 14BF     		ite	ne
 912 0036 0123     		movne	r3, #1
 913 0038 0023     		moveq	r3, #0
 914 003a DBB2     		uxtb	r3, r3
 915              	.L61:
 916 003c 1846     		mov	r0, r3
 917 003e 0837     		adds	r7, r7, #8
 918 0040 BD46     		mov	sp, r7
 919              		@ sp needed
 920 0042 80BD     		pop	{r7, pc}
 921              		.size	cmp_write_s8, .-cmp_write_s8
 922              		.section	.text.cmp_write_s16,"ax",%progbits
 923              		.align	1
 924              		.global	cmp_write_s16
 925              		.syntax unified
 926              		.thumb
 927              		.thumb_func
 928              		.fpu fpv4-sp-d16
 929              		.type	cmp_write_s16, %function
 930              	cmp_write_s16:
 931              		@ args = 0, pretend = 0, frame = 8
 932              		@ frame_needed = 1, uses_anonymous_args = 0
 933 0000 80B5     		push	{r7, lr}
 934 0002 82B0     		sub	sp, sp, #8
 935 0004 00AF     		add	r7, sp, #0
 936 0006 7860     		str	r0, [r7, #4]
 937 0008 0B46     		mov	r3, r1
 938 000a 7B80     		strh	r3, [r7, #2]	@ movhi
 939 000c D121     		movs	r1, #209
 940 000e 7868     		ldr	r0, [r7, #4]
 941 0010 FFF7FEFF 		bl	write_type_marker
 942 0014 0346     		mov	r3, r0
 943 0016 83F00103 		eor	r3, r3, #1
 944 001a DBB2     		uxtb	r3, r3
 945 001c 002B     		cmp	r3, #0
 946 001e 01D0     		beq	.L63
 947 0020 0023     		movs	r3, #0
 948 0022 14E0     		b	.L64
 949              	.L63:
 950 0024 B7F90230 		ldrsh	r3, [r7, #2]
 951 0028 9BB2     		uxth	r3, r3
 952 002a 1846     		mov	r0, r3
 953 002c FFF7FEFF 		bl	be16
 954 0030 0346     		mov	r3, r0
 955 0032 1BB2     		sxth	r3, r3
 956 0034 7B80     		strh	r3, [r7, #2]	@ movhi
 957 0036 7B68     		ldr	r3, [r7, #4]
 958 0038 DB68     		ldr	r3, [r3, #12]
 959 003a B91C     		adds	r1, r7, #2
 960 003c 0222     		movs	r2, #2
 961 003e 7868     		ldr	r0, [r7, #4]
ARM GAS  /var/folders/d2/nstgp4h54kz7g1l847x_b8wc0000gn/T//ccFI0sM2.s 			page 19


 962 0040 9847     		blx	r3
 963 0042 0346     		mov	r3, r0
 964 0044 002B     		cmp	r3, #0
 965 0046 14BF     		ite	ne
 966 0048 0123     		movne	r3, #1
 967 004a 0023     		moveq	r3, #0
 968 004c DBB2     		uxtb	r3, r3
 969              	.L64:
 970 004e 1846     		mov	r0, r3
 971 0050 0837     		adds	r7, r7, #8
 972 0052 BD46     		mov	sp, r7
 973              		@ sp needed
 974 0054 80BD     		pop	{r7, pc}
 975              		.size	cmp_write_s16, .-cmp_write_s16
 976              		.section	.text.cmp_write_s32,"ax",%progbits
 977              		.align	1
 978              		.global	cmp_write_s32
 979              		.syntax unified
 980              		.thumb
 981              		.thumb_func
 982              		.fpu fpv4-sp-d16
 983              		.type	cmp_write_s32, %function
 984              	cmp_write_s32:
 985              		@ args = 0, pretend = 0, frame = 8
 986              		@ frame_needed = 1, uses_anonymous_args = 0
 987 0000 80B5     		push	{r7, lr}
 988 0002 82B0     		sub	sp, sp, #8
 989 0004 00AF     		add	r7, sp, #0
 990 0006 7860     		str	r0, [r7, #4]
 991 0008 3960     		str	r1, [r7]
 992 000a D221     		movs	r1, #210
 993 000c 7868     		ldr	r0, [r7, #4]
 994 000e FFF7FEFF 		bl	write_type_marker
 995 0012 0346     		mov	r3, r0
 996 0014 83F00103 		eor	r3, r3, #1
 997 0018 DBB2     		uxtb	r3, r3
 998 001a 002B     		cmp	r3, #0
 999 001c 01D0     		beq	.L66
 1000 001e 0023     		movs	r3, #0
 1001 0020 11E0     		b	.L67
 1002              	.L66:
 1003 0022 3B68     		ldr	r3, [r7]
 1004 0024 1846     		mov	r0, r3
 1005 0026 FFF7FEFF 		bl	be32
 1006 002a 0346     		mov	r3, r0
 1007 002c 3B60     		str	r3, [r7]
 1008 002e 7B68     		ldr	r3, [r7, #4]
 1009 0030 DB68     		ldr	r3, [r3, #12]
 1010 0032 3946     		mov	r1, r7
 1011 0034 0422     		movs	r2, #4
 1012 0036 7868     		ldr	r0, [r7, #4]
 1013 0038 9847     		blx	r3
 1014 003a 0346     		mov	r3, r0
 1015 003c 002B     		cmp	r3, #0
 1016 003e 14BF     		ite	ne
 1017 0040 0123     		movne	r3, #1
 1018 0042 0023     		moveq	r3, #0
ARM GAS  /var/folders/d2/nstgp4h54kz7g1l847x_b8wc0000gn/T//ccFI0sM2.s 			page 20


 1019 0044 DBB2     		uxtb	r3, r3
 1020              	.L67:
 1021 0046 1846     		mov	r0, r3
 1022 0048 0837     		adds	r7, r7, #8
 1023 004a BD46     		mov	sp, r7
 1024              		@ sp needed
 1025 004c 80BD     		pop	{r7, pc}
 1026              		.size	cmp_write_s32, .-cmp_write_s32
 1027              		.section	.text.cmp_write_s64,"ax",%progbits
 1028              		.align	1
 1029              		.global	cmp_write_s64
 1030              		.syntax unified
 1031              		.thumb
 1032              		.thumb_func
 1033              		.fpu fpv4-sp-d16
 1034              		.type	cmp_write_s64, %function
 1035              	cmp_write_s64:
 1036              		@ args = 0, pretend = 0, frame = 16
 1037              		@ frame_needed = 1, uses_anonymous_args = 0
 1038 0000 90B5     		push	{r4, r7, lr}
 1039 0002 85B0     		sub	sp, sp, #20
 1040 0004 00AF     		add	r7, sp, #0
 1041 0006 F860     		str	r0, [r7, #12]
 1042 0008 C7E90023 		strd	r2, [r7]
 1043 000c D321     		movs	r1, #211
 1044 000e F868     		ldr	r0, [r7, #12]
 1045 0010 FFF7FEFF 		bl	write_type_marker
 1046 0014 0346     		mov	r3, r0
 1047 0016 83F00103 		eor	r3, r3, #1
 1048 001a DBB2     		uxtb	r3, r3
 1049 001c 002B     		cmp	r3, #0
 1050 001e 01D0     		beq	.L69
 1051 0020 0023     		movs	r3, #0
 1052 0022 15E0     		b	.L70
 1053              	.L69:
 1054 0024 D7E90034 		ldrd	r3, [r7]
 1055 0028 1846     		mov	r0, r3
 1056 002a 2146     		mov	r1, r4
 1057 002c FFF7FEFF 		bl	be64
 1058 0030 0346     		mov	r3, r0
 1059 0032 0C46     		mov	r4, r1
 1060 0034 C7E90034 		strd	r3, [r7]
 1061 0038 FB68     		ldr	r3, [r7, #12]
 1062 003a DB68     		ldr	r3, [r3, #12]
 1063 003c 3946     		mov	r1, r7
 1064 003e 0822     		movs	r2, #8
 1065 0040 F868     		ldr	r0, [r7, #12]
 1066 0042 9847     		blx	r3
 1067 0044 0346     		mov	r3, r0
 1068 0046 002B     		cmp	r3, #0
 1069 0048 14BF     		ite	ne
 1070 004a 0123     		movne	r3, #1
 1071 004c 0023     		moveq	r3, #0
 1072 004e DBB2     		uxtb	r3, r3
 1073              	.L70:
 1074 0050 1846     		mov	r0, r3
 1075 0052 1437     		adds	r7, r7, #20
ARM GAS  /var/folders/d2/nstgp4h54kz7g1l847x_b8wc0000gn/T//ccFI0sM2.s 			page 21


 1076 0054 BD46     		mov	sp, r7
 1077              		@ sp needed
 1078 0056 90BD     		pop	{r4, r7, pc}
 1079              		.size	cmp_write_s64, .-cmp_write_s64
 1080              		.section	.text.cmp_write_sint,"ax",%progbits
 1081              		.align	1
 1082              		.global	cmp_write_sint
 1083              		.syntax unified
 1084              		.thumb
 1085              		.thumb_func
 1086              		.fpu fpv4-sp-d16
 1087              		.type	cmp_write_sint, %function
 1088              	cmp_write_sint:
 1089              		@ args = 0, pretend = 0, frame = 16
 1090              		@ frame_needed = 1, uses_anonymous_args = 0
 1091 0000 90B5     		push	{r4, r7, lr}
 1092 0002 85B0     		sub	sp, sp, #20
 1093 0004 00AF     		add	r7, sp, #0
 1094 0006 F860     		str	r0, [r7, #12]
 1095 0008 C7E90023 		strd	r2, [r7]
 1096 000c D7E90034 		ldrd	r3, [r7]
 1097 0010 002B     		cmp	r3, #0
 1098 0012 74F10003 		sbcs	r3, r4, #0
 1099 0016 08DB     		blt	.L72
 1100 0018 D7E90034 		ldrd	r3, [r7]
 1101 001c 1A46     		mov	r2, r3
 1102 001e 2346     		mov	r3, r4
 1103 0020 F868     		ldr	r0, [r7, #12]
 1104 0022 FFF7FEFF 		bl	cmp_write_uint
 1105 0026 0346     		mov	r3, r0
 1106 0028 48E0     		b	.L73
 1107              	.L72:
 1108 002a D7E90034 		ldrd	r3, [r7]
 1109 002e 6FF01F01 		mvn	r1, #31
 1110 0032 4FF0FF32 		mov	r2, #-1
 1111 0036 8B42     		cmp	r3, r1
 1112 0038 74EB0203 		sbcs	r3, r4, r2
 1113 003c 07DB     		blt	.L74
 1114 003e 97F90030 		ldrsb	r3, [r7]
 1115 0042 1946     		mov	r1, r3
 1116 0044 F868     		ldr	r0, [r7, #12]
 1117 0046 FFF7FEFF 		bl	cmp_write_nfix
 1118 004a 0346     		mov	r3, r0
 1119 004c 36E0     		b	.L73
 1120              	.L74:
 1121 004e D7E90034 		ldrd	r3, [r7]
 1122 0052 6FF07F01 		mvn	r1, #127
 1123 0056 4FF0FF32 		mov	r2, #-1
 1124 005a 8B42     		cmp	r3, r1
 1125 005c 74EB0203 		sbcs	r3, r4, r2
 1126 0060 07DB     		blt	.L75
 1127 0062 97F90030 		ldrsb	r3, [r7]
 1128 0066 1946     		mov	r1, r3
 1129 0068 F868     		ldr	r0, [r7, #12]
 1130 006a FFF7FEFF 		bl	cmp_write_s8
 1131 006e 0346     		mov	r3, r0
 1132 0070 24E0     		b	.L73
ARM GAS  /var/folders/d2/nstgp4h54kz7g1l847x_b8wc0000gn/T//ccFI0sM2.s 			page 22


 1133              	.L75:
 1134 0072 D7E90034 		ldrd	r3, [r7]
 1135 0076 1349     		ldr	r1, .L78
 1136 0078 4FF0FF32 		mov	r2, #-1
 1137 007c 8B42     		cmp	r3, r1
 1138 007e 74EB0203 		sbcs	r3, r4, r2
 1139 0082 07DB     		blt	.L76
 1140 0084 B7F90030 		ldrsh	r3, [r7]
 1141 0088 1946     		mov	r1, r3
 1142 008a F868     		ldr	r0, [r7, #12]
 1143 008c FFF7FEFF 		bl	cmp_write_s16
 1144 0090 0346     		mov	r3, r0
 1145 0092 13E0     		b	.L73
 1146              	.L76:
 1147 0094 D7E90034 		ldrd	r3, [r7]
 1148 0098 B3F1004F 		cmp	r3, #-2147483648
 1149 009c 74F1FF33 		sbcs	r3, r4, #-1
 1150 00a0 06DB     		blt	.L77
 1151 00a2 3B68     		ldr	r3, [r7]
 1152 00a4 1946     		mov	r1, r3
 1153 00a6 F868     		ldr	r0, [r7, #12]
 1154 00a8 FFF7FEFF 		bl	cmp_write_s32
 1155 00ac 0346     		mov	r3, r0
 1156 00ae 05E0     		b	.L73
 1157              	.L77:
 1158 00b0 D7E90023 		ldrd	r2, [r7]
 1159 00b4 F868     		ldr	r0, [r7, #12]
 1160 00b6 FFF7FEFF 		bl	cmp_write_s64
 1161 00ba 0346     		mov	r3, r0
 1162              	.L73:
 1163 00bc 1846     		mov	r0, r3
 1164 00be 1437     		adds	r7, r7, #20
 1165 00c0 BD46     		mov	sp, r7
 1166              		@ sp needed
 1167 00c2 90BD     		pop	{r4, r7, pc}
 1168              	.L79:
 1169              		.align	2
 1170              	.L78:
 1171 00c4 0080FFFF 		.word	-32768
 1172              		.size	cmp_write_sint, .-cmp_write_sint
 1173              		.section	.text.cmp_write_ufix,"ax",%progbits
 1174              		.align	1
 1175              		.global	cmp_write_ufix
 1176              		.syntax unified
 1177              		.thumb
 1178              		.thumb_func
 1179              		.fpu fpv4-sp-d16
 1180              		.type	cmp_write_ufix, %function
 1181              	cmp_write_ufix:
 1182              		@ args = 0, pretend = 0, frame = 8
 1183              		@ frame_needed = 1, uses_anonymous_args = 0
 1184 0000 80B5     		push	{r7, lr}
 1185 0002 82B0     		sub	sp, sp, #8
 1186 0004 00AF     		add	r7, sp, #0
 1187 0006 7860     		str	r0, [r7, #4]
 1188 0008 0B46     		mov	r3, r1
 1189 000a FB70     		strb	r3, [r7, #3]
ARM GAS  /var/folders/d2/nstgp4h54kz7g1l847x_b8wc0000gn/T//ccFI0sM2.s 			page 23


 1190 000c FB78     		ldrb	r3, [r7, #3]	@ zero_extendqisi2
 1191 000e 1946     		mov	r1, r3
 1192 0010 7868     		ldr	r0, [r7, #4]
 1193 0012 FFF7FEFF 		bl	cmp_write_pfix
 1194 0016 0346     		mov	r3, r0
 1195 0018 1846     		mov	r0, r3
 1196 001a 0837     		adds	r7, r7, #8
 1197 001c BD46     		mov	sp, r7
 1198              		@ sp needed
 1199 001e 80BD     		pop	{r7, pc}
 1200              		.size	cmp_write_ufix, .-cmp_write_ufix
 1201              		.section	.text.cmp_write_u8,"ax",%progbits
 1202              		.align	1
 1203              		.global	cmp_write_u8
 1204              		.syntax unified
 1205              		.thumb
 1206              		.thumb_func
 1207              		.fpu fpv4-sp-d16
 1208              		.type	cmp_write_u8, %function
 1209              	cmp_write_u8:
 1210              		@ args = 0, pretend = 0, frame = 8
 1211              		@ frame_needed = 1, uses_anonymous_args = 0
 1212 0000 80B5     		push	{r7, lr}
 1213 0002 82B0     		sub	sp, sp, #8
 1214 0004 00AF     		add	r7, sp, #0
 1215 0006 7860     		str	r0, [r7, #4]
 1216 0008 0B46     		mov	r3, r1
 1217 000a FB70     		strb	r3, [r7, #3]
 1218 000c CC21     		movs	r1, #204
 1219 000e 7868     		ldr	r0, [r7, #4]
 1220 0010 FFF7FEFF 		bl	write_type_marker
 1221 0014 0346     		mov	r3, r0
 1222 0016 83F00103 		eor	r3, r3, #1
 1223 001a DBB2     		uxtb	r3, r3
 1224 001c 002B     		cmp	r3, #0
 1225 001e 01D0     		beq	.L83
 1226 0020 0023     		movs	r3, #0
 1227 0022 0BE0     		b	.L84
 1228              	.L83:
 1229 0024 7B68     		ldr	r3, [r7, #4]
 1230 0026 DB68     		ldr	r3, [r3, #12]
 1231 0028 F91C     		adds	r1, r7, #3
 1232 002a 0122     		movs	r2, #1
 1233 002c 7868     		ldr	r0, [r7, #4]
 1234 002e 9847     		blx	r3
 1235 0030 0346     		mov	r3, r0
 1236 0032 002B     		cmp	r3, #0
 1237 0034 14BF     		ite	ne
 1238 0036 0123     		movne	r3, #1
 1239 0038 0023     		moveq	r3, #0
 1240 003a DBB2     		uxtb	r3, r3
 1241              	.L84:
 1242 003c 1846     		mov	r0, r3
 1243 003e 0837     		adds	r7, r7, #8
 1244 0040 BD46     		mov	sp, r7
 1245              		@ sp needed
 1246 0042 80BD     		pop	{r7, pc}
ARM GAS  /var/folders/d2/nstgp4h54kz7g1l847x_b8wc0000gn/T//ccFI0sM2.s 			page 24


 1247              		.size	cmp_write_u8, .-cmp_write_u8
 1248              		.section	.text.cmp_write_u16,"ax",%progbits
 1249              		.align	1
 1250              		.global	cmp_write_u16
 1251              		.syntax unified
 1252              		.thumb
 1253              		.thumb_func
 1254              		.fpu fpv4-sp-d16
 1255              		.type	cmp_write_u16, %function
 1256              	cmp_write_u16:
 1257              		@ args = 0, pretend = 0, frame = 8
 1258              		@ frame_needed = 1, uses_anonymous_args = 0
 1259 0000 80B5     		push	{r7, lr}
 1260 0002 82B0     		sub	sp, sp, #8
 1261 0004 00AF     		add	r7, sp, #0
 1262 0006 7860     		str	r0, [r7, #4]
 1263 0008 0B46     		mov	r3, r1
 1264 000a 7B80     		strh	r3, [r7, #2]	@ movhi
 1265 000c CD21     		movs	r1, #205
 1266 000e 7868     		ldr	r0, [r7, #4]
 1267 0010 FFF7FEFF 		bl	write_type_marker
 1268 0014 0346     		mov	r3, r0
 1269 0016 83F00103 		eor	r3, r3, #1
 1270 001a DBB2     		uxtb	r3, r3
 1271 001c 002B     		cmp	r3, #0
 1272 001e 01D0     		beq	.L86
 1273 0020 0023     		movs	r3, #0
 1274 0022 11E0     		b	.L87
 1275              	.L86:
 1276 0024 7B88     		ldrh	r3, [r7, #2]
 1277 0026 1846     		mov	r0, r3
 1278 0028 FFF7FEFF 		bl	be16
 1279 002c 0346     		mov	r3, r0
 1280 002e 7B80     		strh	r3, [r7, #2]	@ movhi
 1281 0030 7B68     		ldr	r3, [r7, #4]
 1282 0032 DB68     		ldr	r3, [r3, #12]
 1283 0034 B91C     		adds	r1, r7, #2
 1284 0036 0222     		movs	r2, #2
 1285 0038 7868     		ldr	r0, [r7, #4]
 1286 003a 9847     		blx	r3
 1287 003c 0346     		mov	r3, r0
 1288 003e 002B     		cmp	r3, #0
 1289 0040 14BF     		ite	ne
 1290 0042 0123     		movne	r3, #1
 1291 0044 0023     		moveq	r3, #0
 1292 0046 DBB2     		uxtb	r3, r3
 1293              	.L87:
 1294 0048 1846     		mov	r0, r3
 1295 004a 0837     		adds	r7, r7, #8
 1296 004c BD46     		mov	sp, r7
 1297              		@ sp needed
 1298 004e 80BD     		pop	{r7, pc}
 1299              		.size	cmp_write_u16, .-cmp_write_u16
 1300              		.section	.text.cmp_write_u32,"ax",%progbits
 1301              		.align	1
 1302              		.global	cmp_write_u32
 1303              		.syntax unified
ARM GAS  /var/folders/d2/nstgp4h54kz7g1l847x_b8wc0000gn/T//ccFI0sM2.s 			page 25


 1304              		.thumb
 1305              		.thumb_func
 1306              		.fpu fpv4-sp-d16
 1307              		.type	cmp_write_u32, %function
 1308              	cmp_write_u32:
 1309              		@ args = 0, pretend = 0, frame = 8
 1310              		@ frame_needed = 1, uses_anonymous_args = 0
 1311 0000 80B5     		push	{r7, lr}
 1312 0002 82B0     		sub	sp, sp, #8
 1313 0004 00AF     		add	r7, sp, #0
 1314 0006 7860     		str	r0, [r7, #4]
 1315 0008 3960     		str	r1, [r7]
 1316 000a CE21     		movs	r1, #206
 1317 000c 7868     		ldr	r0, [r7, #4]
 1318 000e FFF7FEFF 		bl	write_type_marker
 1319 0012 0346     		mov	r3, r0
 1320 0014 83F00103 		eor	r3, r3, #1
 1321 0018 DBB2     		uxtb	r3, r3
 1322 001a 002B     		cmp	r3, #0
 1323 001c 01D0     		beq	.L89
 1324 001e 0023     		movs	r3, #0
 1325 0020 11E0     		b	.L90
 1326              	.L89:
 1327 0022 3B68     		ldr	r3, [r7]
 1328 0024 1846     		mov	r0, r3
 1329 0026 FFF7FEFF 		bl	be32
 1330 002a 0346     		mov	r3, r0
 1331 002c 3B60     		str	r3, [r7]
 1332 002e 7B68     		ldr	r3, [r7, #4]
 1333 0030 DB68     		ldr	r3, [r3, #12]
 1334 0032 3946     		mov	r1, r7
 1335 0034 0422     		movs	r2, #4
 1336 0036 7868     		ldr	r0, [r7, #4]
 1337 0038 9847     		blx	r3
 1338 003a 0346     		mov	r3, r0
 1339 003c 002B     		cmp	r3, #0
 1340 003e 14BF     		ite	ne
 1341 0040 0123     		movne	r3, #1
 1342 0042 0023     		moveq	r3, #0
 1343 0044 DBB2     		uxtb	r3, r3
 1344              	.L90:
 1345 0046 1846     		mov	r0, r3
 1346 0048 0837     		adds	r7, r7, #8
 1347 004a BD46     		mov	sp, r7
 1348              		@ sp needed
 1349 004c 80BD     		pop	{r7, pc}
 1350              		.size	cmp_write_u32, .-cmp_write_u32
 1351              		.section	.text.cmp_write_u64,"ax",%progbits
 1352              		.align	1
 1353              		.global	cmp_write_u64
 1354              		.syntax unified
 1355              		.thumb
 1356              		.thumb_func
 1357              		.fpu fpv4-sp-d16
 1358              		.type	cmp_write_u64, %function
 1359              	cmp_write_u64:
 1360              		@ args = 0, pretend = 0, frame = 16
ARM GAS  /var/folders/d2/nstgp4h54kz7g1l847x_b8wc0000gn/T//ccFI0sM2.s 			page 26


 1361              		@ frame_needed = 1, uses_anonymous_args = 0
 1362 0000 90B5     		push	{r4, r7, lr}
 1363 0002 85B0     		sub	sp, sp, #20
 1364 0004 00AF     		add	r7, sp, #0
 1365 0006 F860     		str	r0, [r7, #12]
 1366 0008 C7E90023 		strd	r2, [r7]
 1367 000c CF21     		movs	r1, #207
 1368 000e F868     		ldr	r0, [r7, #12]
 1369 0010 FFF7FEFF 		bl	write_type_marker
 1370 0014 0346     		mov	r3, r0
 1371 0016 83F00103 		eor	r3, r3, #1
 1372 001a DBB2     		uxtb	r3, r3
 1373 001c 002B     		cmp	r3, #0
 1374 001e 01D0     		beq	.L92
 1375 0020 0023     		movs	r3, #0
 1376 0022 15E0     		b	.L93
 1377              	.L92:
 1378 0024 D7E90034 		ldrd	r3, [r7]
 1379 0028 1846     		mov	r0, r3
 1380 002a 2146     		mov	r1, r4
 1381 002c FFF7FEFF 		bl	be64
 1382 0030 0346     		mov	r3, r0
 1383 0032 0C46     		mov	r4, r1
 1384 0034 C7E90034 		strd	r3, [r7]
 1385 0038 FB68     		ldr	r3, [r7, #12]
 1386 003a DB68     		ldr	r3, [r3, #12]
 1387 003c 3946     		mov	r1, r7
 1388 003e 0822     		movs	r2, #8
 1389 0040 F868     		ldr	r0, [r7, #12]
 1390 0042 9847     		blx	r3
 1391 0044 0346     		mov	r3, r0
 1392 0046 002B     		cmp	r3, #0
 1393 0048 14BF     		ite	ne
 1394 004a 0123     		movne	r3, #1
 1395 004c 0023     		moveq	r3, #0
 1396 004e DBB2     		uxtb	r3, r3
 1397              	.L93:
 1398 0050 1846     		mov	r0, r3
 1399 0052 1437     		adds	r7, r7, #20
 1400 0054 BD46     		mov	sp, r7
 1401              		@ sp needed
 1402 0056 90BD     		pop	{r4, r7, pc}
 1403              		.size	cmp_write_u64, .-cmp_write_u64
 1404              		.section	.text.cmp_write_uint,"ax",%progbits
 1405              		.align	1
 1406              		.global	cmp_write_uint
 1407              		.syntax unified
 1408              		.thumb
 1409              		.thumb_func
 1410              		.fpu fpv4-sp-d16
 1411              		.type	cmp_write_uint, %function
 1412              	cmp_write_uint:
 1413              		@ args = 0, pretend = 0, frame = 16
 1414              		@ frame_needed = 1, uses_anonymous_args = 0
 1415 0000 90B5     		push	{r4, r7, lr}
 1416 0002 85B0     		sub	sp, sp, #20
 1417 0004 00AF     		add	r7, sp, #0
ARM GAS  /var/folders/d2/nstgp4h54kz7g1l847x_b8wc0000gn/T//ccFI0sM2.s 			page 27


 1418 0006 F860     		str	r0, [r7, #12]
 1419 0008 C7E90023 		strd	r2, [r7]
 1420 000c D7E90034 		ldrd	r3, [r7]
 1421 0010 002C     		cmp	r4, #0
 1422 0012 08BF     		it	eq
 1423 0014 802B     		cmpeq	r3, #128
 1424 0016 06D2     		bcs	.L95
 1425 0018 3B78     		ldrb	r3, [r7]	@ zero_extendqisi2
 1426 001a 1946     		mov	r1, r3
 1427 001c F868     		ldr	r0, [r7, #12]
 1428 001e FFF7FEFF 		bl	cmp_write_pfix
 1429 0022 0346     		mov	r3, r0
 1430 0024 31E0     		b	.L96
 1431              	.L95:
 1432 0026 D7E90034 		ldrd	r3, [r7]
 1433 002a 002C     		cmp	r4, #0
 1434 002c 08BF     		it	eq
 1435 002e B3F5807F 		cmpeq	r3, #256
 1436 0032 06D2     		bcs	.L97
 1437 0034 3B78     		ldrb	r3, [r7]	@ zero_extendqisi2
 1438 0036 1946     		mov	r1, r3
 1439 0038 F868     		ldr	r0, [r7, #12]
 1440 003a FFF7FEFF 		bl	cmp_write_u8
 1441 003e 0346     		mov	r3, r0
 1442 0040 23E0     		b	.L96
 1443              	.L97:
 1444 0042 D7E90034 		ldrd	r3, [r7]
 1445 0046 4FF6FF71 		movw	r1, #65535
 1446 004a 4FF00002 		mov	r2, #0
 1447 004e A242     		cmp	r2, r4
 1448 0050 08BF     		it	eq
 1449 0052 9942     		cmpeq	r1, r3
 1450 0054 06D3     		bcc	.L98
 1451 0056 3B88     		ldrh	r3, [r7]
 1452 0058 1946     		mov	r1, r3
 1453 005a F868     		ldr	r0, [r7, #12]
 1454 005c FFF7FEFF 		bl	cmp_write_u16
 1455 0060 0346     		mov	r3, r0
 1456 0062 12E0     		b	.L96
 1457              	.L98:
 1458 0064 D7E90034 		ldrd	r3, [r7]
 1459 0068 012C     		cmp	r4, #1
 1460 006a 08BF     		it	eq
 1461 006c 002B     		cmpeq	r3, #0
 1462 006e 06D2     		bcs	.L99
 1463 0070 3B68     		ldr	r3, [r7]
 1464 0072 1946     		mov	r1, r3
 1465 0074 F868     		ldr	r0, [r7, #12]
 1466 0076 FFF7FEFF 		bl	cmp_write_u32
 1467 007a 0346     		mov	r3, r0
 1468 007c 05E0     		b	.L96
 1469              	.L99:
 1470 007e D7E90023 		ldrd	r2, [r7]
 1471 0082 F868     		ldr	r0, [r7, #12]
 1472 0084 FFF7FEFF 		bl	cmp_write_u64
 1473 0088 0346     		mov	r3, r0
 1474              	.L96:
ARM GAS  /var/folders/d2/nstgp4h54kz7g1l847x_b8wc0000gn/T//ccFI0sM2.s 			page 28


 1475 008a 1846     		mov	r0, r3
 1476 008c 1437     		adds	r7, r7, #20
 1477 008e BD46     		mov	sp, r7
 1478              		@ sp needed
 1479 0090 90BD     		pop	{r4, r7, pc}
 1480              		.size	cmp_write_uint, .-cmp_write_uint
 1481              		.section	.text.cmp_write_float,"ax",%progbits
 1482              		.align	1
 1483              		.global	cmp_write_float
 1484              		.syntax unified
 1485              		.thumb
 1486              		.thumb_func
 1487              		.fpu fpv4-sp-d16
 1488              		.type	cmp_write_float, %function
 1489              	cmp_write_float:
 1490              		@ args = 0, pretend = 0, frame = 8
 1491              		@ frame_needed = 1, uses_anonymous_args = 0
 1492 0000 80B5     		push	{r7, lr}
 1493 0002 82B0     		sub	sp, sp, #8
 1494 0004 00AF     		add	r7, sp, #0
 1495 0006 7860     		str	r0, [r7, #4]
 1496 0008 87ED000A 		vstr.32	s0, [r7]
 1497 000c CA21     		movs	r1, #202
 1498 000e 7868     		ldr	r0, [r7, #4]
 1499 0010 FFF7FEFF 		bl	write_type_marker
 1500 0014 0346     		mov	r3, r0
 1501 0016 83F00103 		eor	r3, r3, #1
 1502 001a DBB2     		uxtb	r3, r3
 1503 001c 002B     		cmp	r3, #0
 1504 001e 01D0     		beq	.L101
 1505 0020 0023     		movs	r3, #0
 1506 0022 15E0     		b	.L102
 1507              	.L101:
 1508 0024 D7ED007A 		vldr.32	s15, [r7]
 1509 0028 B0EE670A 		vmov.f32	s0, s15
 1510 002c FFF7FEFF 		bl	befloat
 1511 0030 F0EE407A 		vmov.f32	s15, s0
 1512 0034 C7ED007A 		vstr.32	s15, [r7]
 1513 0038 7B68     		ldr	r3, [r7, #4]
 1514 003a DB68     		ldr	r3, [r3, #12]
 1515 003c 3946     		mov	r1, r7
 1516 003e 0422     		movs	r2, #4
 1517 0040 7868     		ldr	r0, [r7, #4]
 1518 0042 9847     		blx	r3
 1519 0044 0346     		mov	r3, r0
 1520 0046 002B     		cmp	r3, #0
 1521 0048 14BF     		ite	ne
 1522 004a 0123     		movne	r3, #1
 1523 004c 0023     		moveq	r3, #0
 1524 004e DBB2     		uxtb	r3, r3
 1525              	.L102:
 1526 0050 1846     		mov	r0, r3
 1527 0052 0837     		adds	r7, r7, #8
 1528 0054 BD46     		mov	sp, r7
 1529              		@ sp needed
 1530 0056 80BD     		pop	{r7, pc}
 1531              		.size	cmp_write_float, .-cmp_write_float
ARM GAS  /var/folders/d2/nstgp4h54kz7g1l847x_b8wc0000gn/T//ccFI0sM2.s 			page 29


 1532              		.section	.text.cmp_write_double,"ax",%progbits
 1533              		.align	1
 1534              		.global	cmp_write_double
 1535              		.syntax unified
 1536              		.thumb
 1537              		.thumb_func
 1538              		.fpu fpv4-sp-d16
 1539              		.type	cmp_write_double, %function
 1540              	cmp_write_double:
 1541              		@ args = 0, pretend = 0, frame = 16
 1542              		@ frame_needed = 1, uses_anonymous_args = 0
 1543 0000 80B5     		push	{r7, lr}
 1544 0002 84B0     		sub	sp, sp, #16
 1545 0004 00AF     		add	r7, sp, #0
 1546 0006 F860     		str	r0, [r7, #12]
 1547 0008 87ED000B 		vstr.64	d0, [r7]
 1548 000c CB21     		movs	r1, #203
 1549 000e F868     		ldr	r0, [r7, #12]
 1550 0010 FFF7FEFF 		bl	write_type_marker
 1551 0014 0346     		mov	r3, r0
 1552 0016 83F00103 		eor	r3, r3, #1
 1553 001a DBB2     		uxtb	r3, r3
 1554 001c 002B     		cmp	r3, #0
 1555 001e 01D0     		beq	.L104
 1556 0020 0023     		movs	r3, #0
 1557 0022 19E0     		b	.L105
 1558              	.L104:
 1559 0024 97ED007B 		vldr.64	d7, [r7]
 1560 0028 B0EE470A 		vmov.f32	s0, s14
 1561 002c F0EE670A 		vmov.f32	s1, s15
 1562 0030 FFF7FEFF 		bl	bedouble
 1563 0034 B0EE407A 		vmov.f32	s14, s0
 1564 0038 F0EE607A 		vmov.f32	s15, s1
 1565 003c 87ED007B 		vstr.64	d7, [r7]
 1566 0040 FB68     		ldr	r3, [r7, #12]
 1567 0042 DB68     		ldr	r3, [r3, #12]
 1568 0044 3946     		mov	r1, r7
 1569 0046 0822     		movs	r2, #8
 1570 0048 F868     		ldr	r0, [r7, #12]
 1571 004a 9847     		blx	r3
 1572 004c 0346     		mov	r3, r0
 1573 004e 002B     		cmp	r3, #0
 1574 0050 14BF     		ite	ne
 1575 0052 0123     		movne	r3, #1
 1576 0054 0023     		moveq	r3, #0
 1577 0056 DBB2     		uxtb	r3, r3
 1578              	.L105:
 1579 0058 1846     		mov	r0, r3
 1580 005a 1037     		adds	r7, r7, #16
 1581 005c BD46     		mov	sp, r7
 1582              		@ sp needed
 1583 005e 80BD     		pop	{r7, pc}
 1584              		.size	cmp_write_double, .-cmp_write_double
 1585              		.section	.text.cmp_write_nil,"ax",%progbits
 1586              		.align	1
 1587              		.global	cmp_write_nil
 1588              		.syntax unified
ARM GAS  /var/folders/d2/nstgp4h54kz7g1l847x_b8wc0000gn/T//ccFI0sM2.s 			page 30


 1589              		.thumb
 1590              		.thumb_func
 1591              		.fpu fpv4-sp-d16
 1592              		.type	cmp_write_nil, %function
 1593              	cmp_write_nil:
 1594              		@ args = 0, pretend = 0, frame = 8
 1595              		@ frame_needed = 1, uses_anonymous_args = 0
 1596 0000 80B5     		push	{r7, lr}
 1597 0002 82B0     		sub	sp, sp, #8
 1598 0004 00AF     		add	r7, sp, #0
 1599 0006 7860     		str	r0, [r7, #4]
 1600 0008 C021     		movs	r1, #192
 1601 000a 7868     		ldr	r0, [r7, #4]
 1602 000c FFF7FEFF 		bl	write_type_marker
 1603 0010 0346     		mov	r3, r0
 1604 0012 1846     		mov	r0, r3
 1605 0014 0837     		adds	r7, r7, #8
 1606 0016 BD46     		mov	sp, r7
 1607              		@ sp needed
 1608 0018 80BD     		pop	{r7, pc}
 1609              		.size	cmp_write_nil, .-cmp_write_nil
 1610              		.section	.text.cmp_write_true,"ax",%progbits
 1611              		.align	1
 1612              		.global	cmp_write_true
 1613              		.syntax unified
 1614              		.thumb
 1615              		.thumb_func
 1616              		.fpu fpv4-sp-d16
 1617              		.type	cmp_write_true, %function
 1618              	cmp_write_true:
 1619              		@ args = 0, pretend = 0, frame = 8
 1620              		@ frame_needed = 1, uses_anonymous_args = 0
 1621 0000 80B5     		push	{r7, lr}
 1622 0002 82B0     		sub	sp, sp, #8
 1623 0004 00AF     		add	r7, sp, #0
 1624 0006 7860     		str	r0, [r7, #4]
 1625 0008 C321     		movs	r1, #195
 1626 000a 7868     		ldr	r0, [r7, #4]
 1627 000c FFF7FEFF 		bl	write_type_marker
 1628 0010 0346     		mov	r3, r0
 1629 0012 1846     		mov	r0, r3
 1630 0014 0837     		adds	r7, r7, #8
 1631 0016 BD46     		mov	sp, r7
 1632              		@ sp needed
 1633 0018 80BD     		pop	{r7, pc}
 1634              		.size	cmp_write_true, .-cmp_write_true
 1635              		.section	.text.cmp_write_false,"ax",%progbits
 1636              		.align	1
 1637              		.global	cmp_write_false
 1638              		.syntax unified
 1639              		.thumb
 1640              		.thumb_func
 1641              		.fpu fpv4-sp-d16
 1642              		.type	cmp_write_false, %function
 1643              	cmp_write_false:
 1644              		@ args = 0, pretend = 0, frame = 8
 1645              		@ frame_needed = 1, uses_anonymous_args = 0
ARM GAS  /var/folders/d2/nstgp4h54kz7g1l847x_b8wc0000gn/T//ccFI0sM2.s 			page 31


 1646 0000 80B5     		push	{r7, lr}
 1647 0002 82B0     		sub	sp, sp, #8
 1648 0004 00AF     		add	r7, sp, #0
 1649 0006 7860     		str	r0, [r7, #4]
 1650 0008 C221     		movs	r1, #194
 1651 000a 7868     		ldr	r0, [r7, #4]
 1652 000c FFF7FEFF 		bl	write_type_marker
 1653 0010 0346     		mov	r3, r0
 1654 0012 1846     		mov	r0, r3
 1655 0014 0837     		adds	r7, r7, #8
 1656 0016 BD46     		mov	sp, r7
 1657              		@ sp needed
 1658 0018 80BD     		pop	{r7, pc}
 1659              		.size	cmp_write_false, .-cmp_write_false
 1660              		.section	.text.cmp_write_bool,"ax",%progbits
 1661              		.align	1
 1662              		.global	cmp_write_bool
 1663              		.syntax unified
 1664              		.thumb
 1665              		.thumb_func
 1666              		.fpu fpv4-sp-d16
 1667              		.type	cmp_write_bool, %function
 1668              	cmp_write_bool:
 1669              		@ args = 0, pretend = 0, frame = 8
 1670              		@ frame_needed = 1, uses_anonymous_args = 0
 1671 0000 80B5     		push	{r7, lr}
 1672 0002 82B0     		sub	sp, sp, #8
 1673 0004 00AF     		add	r7, sp, #0
 1674 0006 7860     		str	r0, [r7, #4]
 1675 0008 0B46     		mov	r3, r1
 1676 000a FB70     		strb	r3, [r7, #3]
 1677 000c FB78     		ldrb	r3, [r7, #3]	@ zero_extendqisi2
 1678 000e 002B     		cmp	r3, #0
 1679 0010 04D0     		beq	.L113
 1680 0012 7868     		ldr	r0, [r7, #4]
 1681 0014 FFF7FEFF 		bl	cmp_write_true
 1682 0018 0346     		mov	r3, r0
 1683 001a 03E0     		b	.L114
 1684              	.L113:
 1685 001c 7868     		ldr	r0, [r7, #4]
 1686 001e FFF7FEFF 		bl	cmp_write_false
 1687 0022 0346     		mov	r3, r0
 1688              	.L114:
 1689 0024 1846     		mov	r0, r3
 1690 0026 0837     		adds	r7, r7, #8
 1691 0028 BD46     		mov	sp, r7
 1692              		@ sp needed
 1693 002a 80BD     		pop	{r7, pc}
 1694              		.size	cmp_write_bool, .-cmp_write_bool
 1695              		.section	.text.cmp_write_u8_as_bool,"ax",%progbits
 1696              		.align	1
 1697              		.global	cmp_write_u8_as_bool
 1698              		.syntax unified
 1699              		.thumb
 1700              		.thumb_func
 1701              		.fpu fpv4-sp-d16
 1702              		.type	cmp_write_u8_as_bool, %function
ARM GAS  /var/folders/d2/nstgp4h54kz7g1l847x_b8wc0000gn/T//ccFI0sM2.s 			page 32


 1703              	cmp_write_u8_as_bool:
 1704              		@ args = 0, pretend = 0, frame = 8
 1705              		@ frame_needed = 1, uses_anonymous_args = 0
 1706 0000 80B5     		push	{r7, lr}
 1707 0002 82B0     		sub	sp, sp, #8
 1708 0004 00AF     		add	r7, sp, #0
 1709 0006 7860     		str	r0, [r7, #4]
 1710 0008 0B46     		mov	r3, r1
 1711 000a FB70     		strb	r3, [r7, #3]
 1712 000c FB78     		ldrb	r3, [r7, #3]	@ zero_extendqisi2
 1713 000e 002B     		cmp	r3, #0
 1714 0010 04D0     		beq	.L116
 1715 0012 7868     		ldr	r0, [r7, #4]
 1716 0014 FFF7FEFF 		bl	cmp_write_true
 1717 0018 0346     		mov	r3, r0
 1718 001a 03E0     		b	.L117
 1719              	.L116:
 1720 001c 7868     		ldr	r0, [r7, #4]
 1721 001e FFF7FEFF 		bl	cmp_write_false
 1722 0022 0346     		mov	r3, r0
 1723              	.L117:
 1724 0024 1846     		mov	r0, r3
 1725 0026 0837     		adds	r7, r7, #8
 1726 0028 BD46     		mov	sp, r7
 1727              		@ sp needed
 1728 002a 80BD     		pop	{r7, pc}
 1729              		.size	cmp_write_u8_as_bool, .-cmp_write_u8_as_bool
 1730              		.section	.text.cmp_write_fixstr_marker,"ax",%progbits
 1731              		.align	1
 1732              		.global	cmp_write_fixstr_marker
 1733              		.syntax unified
 1734              		.thumb
 1735              		.thumb_func
 1736              		.fpu fpv4-sp-d16
 1737              		.type	cmp_write_fixstr_marker, %function
 1738              	cmp_write_fixstr_marker:
 1739              		@ args = 0, pretend = 0, frame = 8
 1740              		@ frame_needed = 1, uses_anonymous_args = 0
 1741 0000 80B5     		push	{r7, lr}
 1742 0002 82B0     		sub	sp, sp, #8
 1743 0004 00AF     		add	r7, sp, #0
 1744 0006 7860     		str	r0, [r7, #4]
 1745 0008 0B46     		mov	r3, r1
 1746 000a FB70     		strb	r3, [r7, #3]
 1747 000c FB78     		ldrb	r3, [r7, #3]	@ zero_extendqisi2
 1748 000e 1F2B     		cmp	r3, #31
 1749 0010 09D8     		bhi	.L119
 1750 0012 FB78     		ldrb	r3, [r7, #3]
 1751 0014 63F05F03 		orn	r3, r3, #95
 1752 0018 DBB2     		uxtb	r3, r3
 1753 001a 1946     		mov	r1, r3
 1754 001c 7868     		ldr	r0, [r7, #4]
 1755 001e FFF7FEFF 		bl	write_fixed_value
 1756 0022 0346     		mov	r3, r0
 1757 0024 03E0     		b	.L120
 1758              	.L119:
 1759 0026 7B68     		ldr	r3, [r7, #4]
ARM GAS  /var/folders/d2/nstgp4h54kz7g1l847x_b8wc0000gn/T//ccFI0sM2.s 			page 33


 1760 0028 0522     		movs	r2, #5
 1761 002a 1A70     		strb	r2, [r3]
 1762 002c 0023     		movs	r3, #0
 1763              	.L120:
 1764 002e 1846     		mov	r0, r3
 1765 0030 0837     		adds	r7, r7, #8
 1766 0032 BD46     		mov	sp, r7
 1767              		@ sp needed
 1768 0034 80BD     		pop	{r7, pc}
 1769              		.size	cmp_write_fixstr_marker, .-cmp_write_fixstr_marker
 1770              		.section	.text.cmp_write_fixstr,"ax",%progbits
 1771              		.align	1
 1772              		.global	cmp_write_fixstr
 1773              		.syntax unified
 1774              		.thumb
 1775              		.thumb_func
 1776              		.fpu fpv4-sp-d16
 1777              		.type	cmp_write_fixstr, %function
 1778              	cmp_write_fixstr:
 1779              		@ args = 0, pretend = 0, frame = 16
 1780              		@ frame_needed = 1, uses_anonymous_args = 0
 1781 0000 80B5     		push	{r7, lr}
 1782 0002 84B0     		sub	sp, sp, #16
 1783 0004 00AF     		add	r7, sp, #0
 1784 0006 F860     		str	r0, [r7, #12]
 1785 0008 B960     		str	r1, [r7, #8]
 1786 000a 1346     		mov	r3, r2
 1787 000c FB71     		strb	r3, [r7, #7]
 1788 000e FB79     		ldrb	r3, [r7, #7]	@ zero_extendqisi2
 1789 0010 1946     		mov	r1, r3
 1790 0012 F868     		ldr	r0, [r7, #12]
 1791 0014 FFF7FEFF 		bl	cmp_write_fixstr_marker
 1792 0018 0346     		mov	r3, r0
 1793 001a 83F00103 		eor	r3, r3, #1
 1794 001e DBB2     		uxtb	r3, r3
 1795 0020 002B     		cmp	r3, #0
 1796 0022 01D0     		beq	.L122
 1797 0024 0023     		movs	r3, #0
 1798 0026 13E0     		b	.L123
 1799              	.L122:
 1800 0028 FB79     		ldrb	r3, [r7, #7]	@ zero_extendqisi2
 1801 002a 002B     		cmp	r3, #0
 1802 002c 01D1     		bne	.L124
 1803 002e 0123     		movs	r3, #1
 1804 0030 0EE0     		b	.L123
 1805              	.L124:
 1806 0032 FB68     		ldr	r3, [r7, #12]
 1807 0034 DB68     		ldr	r3, [r3, #12]
 1808 0036 FA79     		ldrb	r2, [r7, #7]	@ zero_extendqisi2
 1809 0038 B968     		ldr	r1, [r7, #8]
 1810 003a F868     		ldr	r0, [r7, #12]
 1811 003c 9847     		blx	r3
 1812 003e 0346     		mov	r3, r0
 1813 0040 002B     		cmp	r3, #0
 1814 0042 01D0     		beq	.L125
 1815 0044 0123     		movs	r3, #1
 1816 0046 03E0     		b	.L123
ARM GAS  /var/folders/d2/nstgp4h54kz7g1l847x_b8wc0000gn/T//ccFI0sM2.s 			page 34


 1817              	.L125:
 1818 0048 FB68     		ldr	r3, [r7, #12]
 1819 004a 0A22     		movs	r2, #10
 1820 004c 1A70     		strb	r2, [r3]
 1821 004e 0023     		movs	r3, #0
 1822              	.L123:
 1823 0050 1846     		mov	r0, r3
 1824 0052 1037     		adds	r7, r7, #16
 1825 0054 BD46     		mov	sp, r7
 1826              		@ sp needed
 1827 0056 80BD     		pop	{r7, pc}
 1828              		.size	cmp_write_fixstr, .-cmp_write_fixstr
 1829              		.section	.text.cmp_write_str8_marker,"ax",%progbits
 1830              		.align	1
 1831              		.global	cmp_write_str8_marker
 1832              		.syntax unified
 1833              		.thumb
 1834              		.thumb_func
 1835              		.fpu fpv4-sp-d16
 1836              		.type	cmp_write_str8_marker, %function
 1837              	cmp_write_str8_marker:
 1838              		@ args = 0, pretend = 0, frame = 8
 1839              		@ frame_needed = 1, uses_anonymous_args = 0
 1840 0000 80B5     		push	{r7, lr}
 1841 0002 82B0     		sub	sp, sp, #8
 1842 0004 00AF     		add	r7, sp, #0
 1843 0006 7860     		str	r0, [r7, #4]
 1844 0008 0B46     		mov	r3, r1
 1845 000a FB70     		strb	r3, [r7, #3]
 1846 000c D921     		movs	r1, #217
 1847 000e 7868     		ldr	r0, [r7, #4]
 1848 0010 FFF7FEFF 		bl	write_type_marker
 1849 0014 0346     		mov	r3, r0
 1850 0016 83F00103 		eor	r3, r3, #1
 1851 001a DBB2     		uxtb	r3, r3
 1852 001c 002B     		cmp	r3, #0
 1853 001e 01D0     		beq	.L127
 1854 0020 0023     		movs	r3, #0
 1855 0022 0EE0     		b	.L128
 1856              	.L127:
 1857 0024 7B68     		ldr	r3, [r7, #4]
 1858 0026 DB68     		ldr	r3, [r3, #12]
 1859 0028 F91C     		adds	r1, r7, #3
 1860 002a 0122     		movs	r2, #1
 1861 002c 7868     		ldr	r0, [r7, #4]
 1862 002e 9847     		blx	r3
 1863 0030 0346     		mov	r3, r0
 1864 0032 002B     		cmp	r3, #0
 1865 0034 01D0     		beq	.L129
 1866 0036 0123     		movs	r3, #1
 1867 0038 03E0     		b	.L128
 1868              	.L129:
 1869 003a 7B68     		ldr	r3, [r7, #4]
 1870 003c 0F22     		movs	r2, #15
 1871 003e 1A70     		strb	r2, [r3]
 1872 0040 0023     		movs	r3, #0
 1873              	.L128:
ARM GAS  /var/folders/d2/nstgp4h54kz7g1l847x_b8wc0000gn/T//ccFI0sM2.s 			page 35


 1874 0042 1846     		mov	r0, r3
 1875 0044 0837     		adds	r7, r7, #8
 1876 0046 BD46     		mov	sp, r7
 1877              		@ sp needed
 1878 0048 80BD     		pop	{r7, pc}
 1879              		.size	cmp_write_str8_marker, .-cmp_write_str8_marker
 1880              		.section	.text.cmp_write_str8,"ax",%progbits
 1881              		.align	1
 1882              		.global	cmp_write_str8
 1883              		.syntax unified
 1884              		.thumb
 1885              		.thumb_func
 1886              		.fpu fpv4-sp-d16
 1887              		.type	cmp_write_str8, %function
 1888              	cmp_write_str8:
 1889              		@ args = 0, pretend = 0, frame = 16
 1890              		@ frame_needed = 1, uses_anonymous_args = 0
 1891 0000 80B5     		push	{r7, lr}
 1892 0002 84B0     		sub	sp, sp, #16
 1893 0004 00AF     		add	r7, sp, #0
 1894 0006 F860     		str	r0, [r7, #12]
 1895 0008 B960     		str	r1, [r7, #8]
 1896 000a 1346     		mov	r3, r2
 1897 000c FB71     		strb	r3, [r7, #7]
 1898 000e FB79     		ldrb	r3, [r7, #7]	@ zero_extendqisi2
 1899 0010 1946     		mov	r1, r3
 1900 0012 F868     		ldr	r0, [r7, #12]
 1901 0014 FFF7FEFF 		bl	cmp_write_str8_marker
 1902 0018 0346     		mov	r3, r0
 1903 001a 83F00103 		eor	r3, r3, #1
 1904 001e DBB2     		uxtb	r3, r3
 1905 0020 002B     		cmp	r3, #0
 1906 0022 01D0     		beq	.L131
 1907 0024 0023     		movs	r3, #0
 1908 0026 13E0     		b	.L132
 1909              	.L131:
 1910 0028 FB79     		ldrb	r3, [r7, #7]	@ zero_extendqisi2
 1911 002a 002B     		cmp	r3, #0
 1912 002c 01D1     		bne	.L133
 1913 002e 0123     		movs	r3, #1
 1914 0030 0EE0     		b	.L132
 1915              	.L133:
 1916 0032 FB68     		ldr	r3, [r7, #12]
 1917 0034 DB68     		ldr	r3, [r3, #12]
 1918 0036 FA79     		ldrb	r2, [r7, #7]	@ zero_extendqisi2
 1919 0038 B968     		ldr	r1, [r7, #8]
 1920 003a F868     		ldr	r0, [r7, #12]
 1921 003c 9847     		blx	r3
 1922 003e 0346     		mov	r3, r0
 1923 0040 002B     		cmp	r3, #0
 1924 0042 01D0     		beq	.L134
 1925 0044 0123     		movs	r3, #1
 1926 0046 03E0     		b	.L132
 1927              	.L134:
 1928 0048 FB68     		ldr	r3, [r7, #12]
 1929 004a 0A22     		movs	r2, #10
 1930 004c 1A70     		strb	r2, [r3]
ARM GAS  /var/folders/d2/nstgp4h54kz7g1l847x_b8wc0000gn/T//ccFI0sM2.s 			page 36


 1931 004e 0023     		movs	r3, #0
 1932              	.L132:
 1933 0050 1846     		mov	r0, r3
 1934 0052 1037     		adds	r7, r7, #16
 1935 0054 BD46     		mov	sp, r7
 1936              		@ sp needed
 1937 0056 80BD     		pop	{r7, pc}
 1938              		.size	cmp_write_str8, .-cmp_write_str8
 1939              		.section	.text.cmp_write_str16_marker,"ax",%progbits
 1940              		.align	1
 1941              		.global	cmp_write_str16_marker
 1942              		.syntax unified
 1943              		.thumb
 1944              		.thumb_func
 1945              		.fpu fpv4-sp-d16
 1946              		.type	cmp_write_str16_marker, %function
 1947              	cmp_write_str16_marker:
 1948              		@ args = 0, pretend = 0, frame = 8
 1949              		@ frame_needed = 1, uses_anonymous_args = 0
 1950 0000 80B5     		push	{r7, lr}
 1951 0002 82B0     		sub	sp, sp, #8
 1952 0004 00AF     		add	r7, sp, #0
 1953 0006 7860     		str	r0, [r7, #4]
 1954 0008 0B46     		mov	r3, r1
 1955 000a 7B80     		strh	r3, [r7, #2]	@ movhi
 1956 000c DA21     		movs	r1, #218
 1957 000e 7868     		ldr	r0, [r7, #4]
 1958 0010 FFF7FEFF 		bl	write_type_marker
 1959 0014 0346     		mov	r3, r0
 1960 0016 83F00103 		eor	r3, r3, #1
 1961 001a DBB2     		uxtb	r3, r3
 1962 001c 002B     		cmp	r3, #0
 1963 001e 01D0     		beq	.L136
 1964 0020 0023     		movs	r3, #0
 1965 0022 14E0     		b	.L137
 1966              	.L136:
 1967 0024 7B88     		ldrh	r3, [r7, #2]
 1968 0026 1846     		mov	r0, r3
 1969 0028 FFF7FEFF 		bl	be16
 1970 002c 0346     		mov	r3, r0
 1971 002e 7B80     		strh	r3, [r7, #2]	@ movhi
 1972 0030 7B68     		ldr	r3, [r7, #4]
 1973 0032 DB68     		ldr	r3, [r3, #12]
 1974 0034 B91C     		adds	r1, r7, #2
 1975 0036 0222     		movs	r2, #2
 1976 0038 7868     		ldr	r0, [r7, #4]
 1977 003a 9847     		blx	r3
 1978 003c 0346     		mov	r3, r0
 1979 003e 002B     		cmp	r3, #0
 1980 0040 01D0     		beq	.L138
 1981 0042 0123     		movs	r3, #1
 1982 0044 03E0     		b	.L137
 1983              	.L138:
 1984 0046 7B68     		ldr	r3, [r7, #4]
 1985 0048 0F22     		movs	r2, #15
 1986 004a 1A70     		strb	r2, [r3]
 1987 004c 0023     		movs	r3, #0
ARM GAS  /var/folders/d2/nstgp4h54kz7g1l847x_b8wc0000gn/T//ccFI0sM2.s 			page 37


 1988              	.L137:
 1989 004e 1846     		mov	r0, r3
 1990 0050 0837     		adds	r7, r7, #8
 1991 0052 BD46     		mov	sp, r7
 1992              		@ sp needed
 1993 0054 80BD     		pop	{r7, pc}
 1994              		.size	cmp_write_str16_marker, .-cmp_write_str16_marker
 1995              		.section	.text.cmp_write_str16,"ax",%progbits
 1996              		.align	1
 1997              		.global	cmp_write_str16
 1998              		.syntax unified
 1999              		.thumb
 2000              		.thumb_func
 2001              		.fpu fpv4-sp-d16
 2002              		.type	cmp_write_str16, %function
 2003              	cmp_write_str16:
 2004              		@ args = 0, pretend = 0, frame = 16
 2005              		@ frame_needed = 1, uses_anonymous_args = 0
 2006 0000 80B5     		push	{r7, lr}
 2007 0002 84B0     		sub	sp, sp, #16
 2008 0004 00AF     		add	r7, sp, #0
 2009 0006 F860     		str	r0, [r7, #12]
 2010 0008 B960     		str	r1, [r7, #8]
 2011 000a 1346     		mov	r3, r2
 2012 000c FB80     		strh	r3, [r7, #6]	@ movhi
 2013 000e FB88     		ldrh	r3, [r7, #6]
 2014 0010 1946     		mov	r1, r3
 2015 0012 F868     		ldr	r0, [r7, #12]
 2016 0014 FFF7FEFF 		bl	cmp_write_str16_marker
 2017 0018 0346     		mov	r3, r0
 2018 001a 83F00103 		eor	r3, r3, #1
 2019 001e DBB2     		uxtb	r3, r3
 2020 0020 002B     		cmp	r3, #0
 2021 0022 01D0     		beq	.L140
 2022 0024 0023     		movs	r3, #0
 2023 0026 13E0     		b	.L141
 2024              	.L140:
 2025 0028 FB88     		ldrh	r3, [r7, #6]
 2026 002a 002B     		cmp	r3, #0
 2027 002c 01D1     		bne	.L142
 2028 002e 0123     		movs	r3, #1
 2029 0030 0EE0     		b	.L141
 2030              	.L142:
 2031 0032 FB68     		ldr	r3, [r7, #12]
 2032 0034 DB68     		ldr	r3, [r3, #12]
 2033 0036 FA88     		ldrh	r2, [r7, #6]
 2034 0038 B968     		ldr	r1, [r7, #8]
 2035 003a F868     		ldr	r0, [r7, #12]
 2036 003c 9847     		blx	r3
 2037 003e 0346     		mov	r3, r0
 2038 0040 002B     		cmp	r3, #0
 2039 0042 01D0     		beq	.L143
 2040 0044 0123     		movs	r3, #1
 2041 0046 03E0     		b	.L141
 2042              	.L143:
 2043 0048 FB68     		ldr	r3, [r7, #12]
 2044 004a 0A22     		movs	r2, #10
ARM GAS  /var/folders/d2/nstgp4h54kz7g1l847x_b8wc0000gn/T//ccFI0sM2.s 			page 38


 2045 004c 1A70     		strb	r2, [r3]
 2046 004e 0023     		movs	r3, #0
 2047              	.L141:
 2048 0050 1846     		mov	r0, r3
 2049 0052 1037     		adds	r7, r7, #16
 2050 0054 BD46     		mov	sp, r7
 2051              		@ sp needed
 2052 0056 80BD     		pop	{r7, pc}
 2053              		.size	cmp_write_str16, .-cmp_write_str16
 2054              		.section	.text.cmp_write_str32_marker,"ax",%progbits
 2055              		.align	1
 2056              		.global	cmp_write_str32_marker
 2057              		.syntax unified
 2058              		.thumb
 2059              		.thumb_func
 2060              		.fpu fpv4-sp-d16
 2061              		.type	cmp_write_str32_marker, %function
 2062              	cmp_write_str32_marker:
 2063              		@ args = 0, pretend = 0, frame = 8
 2064              		@ frame_needed = 1, uses_anonymous_args = 0
 2065 0000 80B5     		push	{r7, lr}
 2066 0002 82B0     		sub	sp, sp, #8
 2067 0004 00AF     		add	r7, sp, #0
 2068 0006 7860     		str	r0, [r7, #4]
 2069 0008 3960     		str	r1, [r7]
 2070 000a DB21     		movs	r1, #219
 2071 000c 7868     		ldr	r0, [r7, #4]
 2072 000e FFF7FEFF 		bl	write_type_marker
 2073 0012 0346     		mov	r3, r0
 2074 0014 83F00103 		eor	r3, r3, #1
 2075 0018 DBB2     		uxtb	r3, r3
 2076 001a 002B     		cmp	r3, #0
 2077 001c 01D0     		beq	.L145
 2078 001e 0023     		movs	r3, #0
 2079 0020 14E0     		b	.L146
 2080              	.L145:
 2081 0022 3B68     		ldr	r3, [r7]
 2082 0024 1846     		mov	r0, r3
 2083 0026 FFF7FEFF 		bl	be32
 2084 002a 0346     		mov	r3, r0
 2085 002c 3B60     		str	r3, [r7]
 2086 002e 7B68     		ldr	r3, [r7, #4]
 2087 0030 DB68     		ldr	r3, [r3, #12]
 2088 0032 3946     		mov	r1, r7
 2089 0034 0422     		movs	r2, #4
 2090 0036 7868     		ldr	r0, [r7, #4]
 2091 0038 9847     		blx	r3
 2092 003a 0346     		mov	r3, r0
 2093 003c 002B     		cmp	r3, #0
 2094 003e 01D0     		beq	.L147
 2095 0040 0123     		movs	r3, #1
 2096 0042 03E0     		b	.L146
 2097              	.L147:
 2098 0044 7B68     		ldr	r3, [r7, #4]
 2099 0046 0F22     		movs	r2, #15
 2100 0048 1A70     		strb	r2, [r3]
 2101 004a 0023     		movs	r3, #0
ARM GAS  /var/folders/d2/nstgp4h54kz7g1l847x_b8wc0000gn/T//ccFI0sM2.s 			page 39


 2102              	.L146:
 2103 004c 1846     		mov	r0, r3
 2104 004e 0837     		adds	r7, r7, #8
 2105 0050 BD46     		mov	sp, r7
 2106              		@ sp needed
 2107 0052 80BD     		pop	{r7, pc}
 2108              		.size	cmp_write_str32_marker, .-cmp_write_str32_marker
 2109              		.section	.text.cmp_write_str32,"ax",%progbits
 2110              		.align	1
 2111              		.global	cmp_write_str32
 2112              		.syntax unified
 2113              		.thumb
 2114              		.thumb_func
 2115              		.fpu fpv4-sp-d16
 2116              		.type	cmp_write_str32, %function
 2117              	cmp_write_str32:
 2118              		@ args = 0, pretend = 0, frame = 16
 2119              		@ frame_needed = 1, uses_anonymous_args = 0
 2120 0000 80B5     		push	{r7, lr}
 2121 0002 84B0     		sub	sp, sp, #16
 2122 0004 00AF     		add	r7, sp, #0
 2123 0006 F860     		str	r0, [r7, #12]
 2124 0008 B960     		str	r1, [r7, #8]
 2125 000a 7A60     		str	r2, [r7, #4]
 2126 000c 7968     		ldr	r1, [r7, #4]
 2127 000e F868     		ldr	r0, [r7, #12]
 2128 0010 FFF7FEFF 		bl	cmp_write_str32_marker
 2129 0014 0346     		mov	r3, r0
 2130 0016 83F00103 		eor	r3, r3, #1
 2131 001a DBB2     		uxtb	r3, r3
 2132 001c 002B     		cmp	r3, #0
 2133 001e 01D0     		beq	.L149
 2134 0020 0023     		movs	r3, #0
 2135 0022 13E0     		b	.L150
 2136              	.L149:
 2137 0024 7B68     		ldr	r3, [r7, #4]
 2138 0026 002B     		cmp	r3, #0
 2139 0028 01D1     		bne	.L151
 2140 002a 0123     		movs	r3, #1
 2141 002c 0EE0     		b	.L150
 2142              	.L151:
 2143 002e FB68     		ldr	r3, [r7, #12]
 2144 0030 DB68     		ldr	r3, [r3, #12]
 2145 0032 7A68     		ldr	r2, [r7, #4]
 2146 0034 B968     		ldr	r1, [r7, #8]
 2147 0036 F868     		ldr	r0, [r7, #12]
 2148 0038 9847     		blx	r3
 2149 003a 0346     		mov	r3, r0
 2150 003c 002B     		cmp	r3, #0
 2151 003e 01D0     		beq	.L152
 2152 0040 0123     		movs	r3, #1
 2153 0042 03E0     		b	.L150
 2154              	.L152:
 2155 0044 FB68     		ldr	r3, [r7, #12]
 2156 0046 0A22     		movs	r2, #10
 2157 0048 1A70     		strb	r2, [r3]
 2158 004a 0023     		movs	r3, #0
ARM GAS  /var/folders/d2/nstgp4h54kz7g1l847x_b8wc0000gn/T//ccFI0sM2.s 			page 40


 2159              	.L150:
 2160 004c 1846     		mov	r0, r3
 2161 004e 1037     		adds	r7, r7, #16
 2162 0050 BD46     		mov	sp, r7
 2163              		@ sp needed
 2164 0052 80BD     		pop	{r7, pc}
 2165              		.size	cmp_write_str32, .-cmp_write_str32
 2166              		.section	.text.cmp_write_str_marker,"ax",%progbits
 2167              		.align	1
 2168              		.global	cmp_write_str_marker
 2169              		.syntax unified
 2170              		.thumb
 2171              		.thumb_func
 2172              		.fpu fpv4-sp-d16
 2173              		.type	cmp_write_str_marker, %function
 2174              	cmp_write_str_marker:
 2175              		@ args = 0, pretend = 0, frame = 8
 2176              		@ frame_needed = 1, uses_anonymous_args = 0
 2177 0000 80B5     		push	{r7, lr}
 2178 0002 82B0     		sub	sp, sp, #8
 2179 0004 00AF     		add	r7, sp, #0
 2180 0006 7860     		str	r0, [r7, #4]
 2181 0008 3960     		str	r1, [r7]
 2182 000a 3B68     		ldr	r3, [r7]
 2183 000c 1F2B     		cmp	r3, #31
 2184 000e 07D8     		bhi	.L154
 2185 0010 3B68     		ldr	r3, [r7]
 2186 0012 DBB2     		uxtb	r3, r3
 2187 0014 1946     		mov	r1, r3
 2188 0016 7868     		ldr	r0, [r7, #4]
 2189 0018 FFF7FEFF 		bl	cmp_write_fixstr_marker
 2190 001c 0346     		mov	r3, r0
 2191 001e 1BE0     		b	.L155
 2192              	.L154:
 2193 0020 3B68     		ldr	r3, [r7]
 2194 0022 FF2B     		cmp	r3, #255
 2195 0024 07D8     		bhi	.L156
 2196 0026 3B68     		ldr	r3, [r7]
 2197 0028 DBB2     		uxtb	r3, r3
 2198 002a 1946     		mov	r1, r3
 2199 002c 7868     		ldr	r0, [r7, #4]
 2200 002e FFF7FEFF 		bl	cmp_write_str8_marker
 2201 0032 0346     		mov	r3, r0
 2202 0034 10E0     		b	.L155
 2203              	.L156:
 2204 0036 3B68     		ldr	r3, [r7]
 2205 0038 B3F5803F 		cmp	r3, #65536
 2206 003c 07D2     		bcs	.L157
 2207 003e 3B68     		ldr	r3, [r7]
 2208 0040 9BB2     		uxth	r3, r3
 2209 0042 1946     		mov	r1, r3
 2210 0044 7868     		ldr	r0, [r7, #4]
 2211 0046 FFF7FEFF 		bl	cmp_write_str16_marker
 2212 004a 0346     		mov	r3, r0
 2213 004c 04E0     		b	.L155
 2214              	.L157:
 2215 004e 3968     		ldr	r1, [r7]
ARM GAS  /var/folders/d2/nstgp4h54kz7g1l847x_b8wc0000gn/T//ccFI0sM2.s 			page 41


 2216 0050 7868     		ldr	r0, [r7, #4]
 2217 0052 FFF7FEFF 		bl	cmp_write_str32_marker
 2218 0056 0346     		mov	r3, r0
 2219              	.L155:
 2220 0058 1846     		mov	r0, r3
 2221 005a 0837     		adds	r7, r7, #8
 2222 005c BD46     		mov	sp, r7
 2223              		@ sp needed
 2224 005e 80BD     		pop	{r7, pc}
 2225              		.size	cmp_write_str_marker, .-cmp_write_str_marker
 2226              		.section	.text.cmp_write_str,"ax",%progbits
 2227              		.align	1
 2228              		.global	cmp_write_str
 2229              		.syntax unified
 2230              		.thumb
 2231              		.thumb_func
 2232              		.fpu fpv4-sp-d16
 2233              		.type	cmp_write_str, %function
 2234              	cmp_write_str:
 2235              		@ args = 0, pretend = 0, frame = 16
 2236              		@ frame_needed = 1, uses_anonymous_args = 0
 2237 0000 80B5     		push	{r7, lr}
 2238 0002 84B0     		sub	sp, sp, #16
 2239 0004 00AF     		add	r7, sp, #0
 2240 0006 F860     		str	r0, [r7, #12]
 2241 0008 B960     		str	r1, [r7, #8]
 2242 000a 7A60     		str	r2, [r7, #4]
 2243 000c 7B68     		ldr	r3, [r7, #4]
 2244 000e 1F2B     		cmp	r3, #31
 2245 0010 08D8     		bhi	.L159
 2246 0012 7B68     		ldr	r3, [r7, #4]
 2247 0014 DBB2     		uxtb	r3, r3
 2248 0016 1A46     		mov	r2, r3
 2249 0018 B968     		ldr	r1, [r7, #8]
 2250 001a F868     		ldr	r0, [r7, #12]
 2251 001c FFF7FEFF 		bl	cmp_write_fixstr
 2252 0020 0346     		mov	r3, r0
 2253 0022 1EE0     		b	.L160
 2254              	.L159:
 2255 0024 7B68     		ldr	r3, [r7, #4]
 2256 0026 FF2B     		cmp	r3, #255
 2257 0028 08D8     		bhi	.L161
 2258 002a 7B68     		ldr	r3, [r7, #4]
 2259 002c DBB2     		uxtb	r3, r3
 2260 002e 1A46     		mov	r2, r3
 2261 0030 B968     		ldr	r1, [r7, #8]
 2262 0032 F868     		ldr	r0, [r7, #12]
 2263 0034 FFF7FEFF 		bl	cmp_write_str8
 2264 0038 0346     		mov	r3, r0
 2265 003a 12E0     		b	.L160
 2266              	.L161:
 2267 003c 7B68     		ldr	r3, [r7, #4]
 2268 003e B3F5803F 		cmp	r3, #65536
 2269 0042 08D2     		bcs	.L162
 2270 0044 7B68     		ldr	r3, [r7, #4]
 2271 0046 9BB2     		uxth	r3, r3
 2272 0048 1A46     		mov	r2, r3
ARM GAS  /var/folders/d2/nstgp4h54kz7g1l847x_b8wc0000gn/T//ccFI0sM2.s 			page 42


 2273 004a B968     		ldr	r1, [r7, #8]
 2274 004c F868     		ldr	r0, [r7, #12]
 2275 004e FFF7FEFF 		bl	cmp_write_str16
 2276 0052 0346     		mov	r3, r0
 2277 0054 05E0     		b	.L160
 2278              	.L162:
 2279 0056 7A68     		ldr	r2, [r7, #4]
 2280 0058 B968     		ldr	r1, [r7, #8]
 2281 005a F868     		ldr	r0, [r7, #12]
 2282 005c FFF7FEFF 		bl	cmp_write_str32
 2283 0060 0346     		mov	r3, r0
 2284              	.L160:
 2285 0062 1846     		mov	r0, r3
 2286 0064 1037     		adds	r7, r7, #16
 2287 0066 BD46     		mov	sp, r7
 2288              		@ sp needed
 2289 0068 80BD     		pop	{r7, pc}
 2290              		.size	cmp_write_str, .-cmp_write_str
 2291              		.section	.text.cmp_write_bin8_marker,"ax",%progbits
 2292              		.align	1
 2293              		.global	cmp_write_bin8_marker
 2294              		.syntax unified
 2295              		.thumb
 2296              		.thumb_func
 2297              		.fpu fpv4-sp-d16
 2298              		.type	cmp_write_bin8_marker, %function
 2299              	cmp_write_bin8_marker:
 2300              		@ args = 0, pretend = 0, frame = 8
 2301              		@ frame_needed = 1, uses_anonymous_args = 0
 2302 0000 80B5     		push	{r7, lr}
 2303 0002 82B0     		sub	sp, sp, #8
 2304 0004 00AF     		add	r7, sp, #0
 2305 0006 7860     		str	r0, [r7, #4]
 2306 0008 0B46     		mov	r3, r1
 2307 000a FB70     		strb	r3, [r7, #3]
 2308 000c C421     		movs	r1, #196
 2309 000e 7868     		ldr	r0, [r7, #4]
 2310 0010 FFF7FEFF 		bl	write_type_marker
 2311 0014 0346     		mov	r3, r0
 2312 0016 83F00103 		eor	r3, r3, #1
 2313 001a DBB2     		uxtb	r3, r3
 2314 001c 002B     		cmp	r3, #0
 2315 001e 01D0     		beq	.L164
 2316 0020 0023     		movs	r3, #0
 2317 0022 0EE0     		b	.L165
 2318              	.L164:
 2319 0024 7B68     		ldr	r3, [r7, #4]
 2320 0026 DB68     		ldr	r3, [r3, #12]
 2321 0028 F91C     		adds	r1, r7, #3
 2322 002a 0122     		movs	r2, #1
 2323 002c 7868     		ldr	r0, [r7, #4]
 2324 002e 9847     		blx	r3
 2325 0030 0346     		mov	r3, r0
 2326 0032 002B     		cmp	r3, #0
 2327 0034 01D0     		beq	.L166
 2328 0036 0123     		movs	r3, #1
 2329 0038 03E0     		b	.L165
ARM GAS  /var/folders/d2/nstgp4h54kz7g1l847x_b8wc0000gn/T//ccFI0sM2.s 			page 43


 2330              	.L166:
 2331 003a 7B68     		ldr	r3, [r7, #4]
 2332 003c 0F22     		movs	r2, #15
 2333 003e 1A70     		strb	r2, [r3]
 2334 0040 0023     		movs	r3, #0
 2335              	.L165:
 2336 0042 1846     		mov	r0, r3
 2337 0044 0837     		adds	r7, r7, #8
 2338 0046 BD46     		mov	sp, r7
 2339              		@ sp needed
 2340 0048 80BD     		pop	{r7, pc}
 2341              		.size	cmp_write_bin8_marker, .-cmp_write_bin8_marker
 2342              		.section	.text.cmp_write_bin8,"ax",%progbits
 2343              		.align	1
 2344              		.global	cmp_write_bin8
 2345              		.syntax unified
 2346              		.thumb
 2347              		.thumb_func
 2348              		.fpu fpv4-sp-d16
 2349              		.type	cmp_write_bin8, %function
 2350              	cmp_write_bin8:
 2351              		@ args = 0, pretend = 0, frame = 16
 2352              		@ frame_needed = 1, uses_anonymous_args = 0
 2353 0000 80B5     		push	{r7, lr}
 2354 0002 84B0     		sub	sp, sp, #16
 2355 0004 00AF     		add	r7, sp, #0
 2356 0006 F860     		str	r0, [r7, #12]
 2357 0008 B960     		str	r1, [r7, #8]
 2358 000a 1346     		mov	r3, r2
 2359 000c FB71     		strb	r3, [r7, #7]
 2360 000e FB79     		ldrb	r3, [r7, #7]	@ zero_extendqisi2
 2361 0010 1946     		mov	r1, r3
 2362 0012 F868     		ldr	r0, [r7, #12]
 2363 0014 FFF7FEFF 		bl	cmp_write_bin8_marker
 2364 0018 0346     		mov	r3, r0
 2365 001a 83F00103 		eor	r3, r3, #1
 2366 001e DBB2     		uxtb	r3, r3
 2367 0020 002B     		cmp	r3, #0
 2368 0022 01D0     		beq	.L168
 2369 0024 0023     		movs	r3, #0
 2370 0026 13E0     		b	.L169
 2371              	.L168:
 2372 0028 FB79     		ldrb	r3, [r7, #7]	@ zero_extendqisi2
 2373 002a 002B     		cmp	r3, #0
 2374 002c 01D1     		bne	.L170
 2375 002e 0123     		movs	r3, #1
 2376 0030 0EE0     		b	.L169
 2377              	.L170:
 2378 0032 FB68     		ldr	r3, [r7, #12]
 2379 0034 DB68     		ldr	r3, [r3, #12]
 2380 0036 FA79     		ldrb	r2, [r7, #7]	@ zero_extendqisi2
 2381 0038 B968     		ldr	r1, [r7, #8]
 2382 003a F868     		ldr	r0, [r7, #12]
 2383 003c 9847     		blx	r3
 2384 003e 0346     		mov	r3, r0
 2385 0040 002B     		cmp	r3, #0
 2386 0042 01D0     		beq	.L171
ARM GAS  /var/folders/d2/nstgp4h54kz7g1l847x_b8wc0000gn/T//ccFI0sM2.s 			page 44


 2387 0044 0123     		movs	r3, #1
 2388 0046 03E0     		b	.L169
 2389              	.L171:
 2390 0048 FB68     		ldr	r3, [r7, #12]
 2391 004a 0A22     		movs	r2, #10
 2392 004c 1A70     		strb	r2, [r3]
 2393 004e 0023     		movs	r3, #0
 2394              	.L169:
 2395 0050 1846     		mov	r0, r3
 2396 0052 1037     		adds	r7, r7, #16
 2397 0054 BD46     		mov	sp, r7
 2398              		@ sp needed
 2399 0056 80BD     		pop	{r7, pc}
 2400              		.size	cmp_write_bin8, .-cmp_write_bin8
 2401              		.section	.text.cmp_write_bin16_marker,"ax",%progbits
 2402              		.align	1
 2403              		.global	cmp_write_bin16_marker
 2404              		.syntax unified
 2405              		.thumb
 2406              		.thumb_func
 2407              		.fpu fpv4-sp-d16
 2408              		.type	cmp_write_bin16_marker, %function
 2409              	cmp_write_bin16_marker:
 2410              		@ args = 0, pretend = 0, frame = 8
 2411              		@ frame_needed = 1, uses_anonymous_args = 0
 2412 0000 80B5     		push	{r7, lr}
 2413 0002 82B0     		sub	sp, sp, #8
 2414 0004 00AF     		add	r7, sp, #0
 2415 0006 7860     		str	r0, [r7, #4]
 2416 0008 0B46     		mov	r3, r1
 2417 000a 7B80     		strh	r3, [r7, #2]	@ movhi
 2418 000c C521     		movs	r1, #197
 2419 000e 7868     		ldr	r0, [r7, #4]
 2420 0010 FFF7FEFF 		bl	write_type_marker
 2421 0014 0346     		mov	r3, r0
 2422 0016 83F00103 		eor	r3, r3, #1
 2423 001a DBB2     		uxtb	r3, r3
 2424 001c 002B     		cmp	r3, #0
 2425 001e 01D0     		beq	.L173
 2426 0020 0023     		movs	r3, #0
 2427 0022 14E0     		b	.L174
 2428              	.L173:
 2429 0024 7B88     		ldrh	r3, [r7, #2]
 2430 0026 1846     		mov	r0, r3
 2431 0028 FFF7FEFF 		bl	be16
 2432 002c 0346     		mov	r3, r0
 2433 002e 7B80     		strh	r3, [r7, #2]	@ movhi
 2434 0030 7B68     		ldr	r3, [r7, #4]
 2435 0032 DB68     		ldr	r3, [r3, #12]
 2436 0034 B91C     		adds	r1, r7, #2
 2437 0036 0222     		movs	r2, #2
 2438 0038 7868     		ldr	r0, [r7, #4]
 2439 003a 9847     		blx	r3
 2440 003c 0346     		mov	r3, r0
 2441 003e 002B     		cmp	r3, #0
 2442 0040 01D0     		beq	.L175
 2443 0042 0123     		movs	r3, #1
ARM GAS  /var/folders/d2/nstgp4h54kz7g1l847x_b8wc0000gn/T//ccFI0sM2.s 			page 45


 2444 0044 03E0     		b	.L174
 2445              	.L175:
 2446 0046 7B68     		ldr	r3, [r7, #4]
 2447 0048 0F22     		movs	r2, #15
 2448 004a 1A70     		strb	r2, [r3]
 2449 004c 0023     		movs	r3, #0
 2450              	.L174:
 2451 004e 1846     		mov	r0, r3
 2452 0050 0837     		adds	r7, r7, #8
 2453 0052 BD46     		mov	sp, r7
 2454              		@ sp needed
 2455 0054 80BD     		pop	{r7, pc}
 2456              		.size	cmp_write_bin16_marker, .-cmp_write_bin16_marker
 2457              		.section	.text.cmp_write_bin16,"ax",%progbits
 2458              		.align	1
 2459              		.global	cmp_write_bin16
 2460              		.syntax unified
 2461              		.thumb
 2462              		.thumb_func
 2463              		.fpu fpv4-sp-d16
 2464              		.type	cmp_write_bin16, %function
 2465              	cmp_write_bin16:
 2466              		@ args = 0, pretend = 0, frame = 16
 2467              		@ frame_needed = 1, uses_anonymous_args = 0
 2468 0000 80B5     		push	{r7, lr}
 2469 0002 84B0     		sub	sp, sp, #16
 2470 0004 00AF     		add	r7, sp, #0
 2471 0006 F860     		str	r0, [r7, #12]
 2472 0008 B960     		str	r1, [r7, #8]
 2473 000a 1346     		mov	r3, r2
 2474 000c FB80     		strh	r3, [r7, #6]	@ movhi
 2475 000e FB88     		ldrh	r3, [r7, #6]
 2476 0010 1946     		mov	r1, r3
 2477 0012 F868     		ldr	r0, [r7, #12]
 2478 0014 FFF7FEFF 		bl	cmp_write_bin16_marker
 2479 0018 0346     		mov	r3, r0
 2480 001a 83F00103 		eor	r3, r3, #1
 2481 001e DBB2     		uxtb	r3, r3
 2482 0020 002B     		cmp	r3, #0
 2483 0022 01D0     		beq	.L177
 2484 0024 0023     		movs	r3, #0
 2485 0026 13E0     		b	.L178
 2486              	.L177:
 2487 0028 FB88     		ldrh	r3, [r7, #6]
 2488 002a 002B     		cmp	r3, #0
 2489 002c 01D1     		bne	.L179
 2490 002e 0123     		movs	r3, #1
 2491 0030 0EE0     		b	.L178
 2492              	.L179:
 2493 0032 FB68     		ldr	r3, [r7, #12]
 2494 0034 DB68     		ldr	r3, [r3, #12]
 2495 0036 FA88     		ldrh	r2, [r7, #6]
 2496 0038 B968     		ldr	r1, [r7, #8]
 2497 003a F868     		ldr	r0, [r7, #12]
 2498 003c 9847     		blx	r3
 2499 003e 0346     		mov	r3, r0
 2500 0040 002B     		cmp	r3, #0
ARM GAS  /var/folders/d2/nstgp4h54kz7g1l847x_b8wc0000gn/T//ccFI0sM2.s 			page 46


 2501 0042 01D0     		beq	.L180
 2502 0044 0123     		movs	r3, #1
 2503 0046 03E0     		b	.L178
 2504              	.L180:
 2505 0048 FB68     		ldr	r3, [r7, #12]
 2506 004a 0A22     		movs	r2, #10
 2507 004c 1A70     		strb	r2, [r3]
 2508 004e 0023     		movs	r3, #0
 2509              	.L178:
 2510 0050 1846     		mov	r0, r3
 2511 0052 1037     		adds	r7, r7, #16
 2512 0054 BD46     		mov	sp, r7
 2513              		@ sp needed
 2514 0056 80BD     		pop	{r7, pc}
 2515              		.size	cmp_write_bin16, .-cmp_write_bin16
 2516              		.section	.text.cmp_write_bin32_marker,"ax",%progbits
 2517              		.align	1
 2518              		.global	cmp_write_bin32_marker
 2519              		.syntax unified
 2520              		.thumb
 2521              		.thumb_func
 2522              		.fpu fpv4-sp-d16
 2523              		.type	cmp_write_bin32_marker, %function
 2524              	cmp_write_bin32_marker:
 2525              		@ args = 0, pretend = 0, frame = 8
 2526              		@ frame_needed = 1, uses_anonymous_args = 0
 2527 0000 80B5     		push	{r7, lr}
 2528 0002 82B0     		sub	sp, sp, #8
 2529 0004 00AF     		add	r7, sp, #0
 2530 0006 7860     		str	r0, [r7, #4]
 2531 0008 3960     		str	r1, [r7]
 2532 000a C621     		movs	r1, #198
 2533 000c 7868     		ldr	r0, [r7, #4]
 2534 000e FFF7FEFF 		bl	write_type_marker
 2535 0012 0346     		mov	r3, r0
 2536 0014 83F00103 		eor	r3, r3, #1
 2537 0018 DBB2     		uxtb	r3, r3
 2538 001a 002B     		cmp	r3, #0
 2539 001c 01D0     		beq	.L182
 2540 001e 0023     		movs	r3, #0
 2541 0020 14E0     		b	.L183
 2542              	.L182:
 2543 0022 3B68     		ldr	r3, [r7]
 2544 0024 1846     		mov	r0, r3
 2545 0026 FFF7FEFF 		bl	be32
 2546 002a 0346     		mov	r3, r0
 2547 002c 3B60     		str	r3, [r7]
 2548 002e 7B68     		ldr	r3, [r7, #4]
 2549 0030 DB68     		ldr	r3, [r3, #12]
 2550 0032 3946     		mov	r1, r7
 2551 0034 0422     		movs	r2, #4
 2552 0036 7868     		ldr	r0, [r7, #4]
 2553 0038 9847     		blx	r3
 2554 003a 0346     		mov	r3, r0
 2555 003c 002B     		cmp	r3, #0
 2556 003e 01D0     		beq	.L184
 2557 0040 0123     		movs	r3, #1
ARM GAS  /var/folders/d2/nstgp4h54kz7g1l847x_b8wc0000gn/T//ccFI0sM2.s 			page 47


 2558 0042 03E0     		b	.L183
 2559              	.L184:
 2560 0044 7B68     		ldr	r3, [r7, #4]
 2561 0046 0F22     		movs	r2, #15
 2562 0048 1A70     		strb	r2, [r3]
 2563 004a 0023     		movs	r3, #0
 2564              	.L183:
 2565 004c 1846     		mov	r0, r3
 2566 004e 0837     		adds	r7, r7, #8
 2567 0050 BD46     		mov	sp, r7
 2568              		@ sp needed
 2569 0052 80BD     		pop	{r7, pc}
 2570              		.size	cmp_write_bin32_marker, .-cmp_write_bin32_marker
 2571              		.section	.text.cmp_write_bin32,"ax",%progbits
 2572              		.align	1
 2573              		.global	cmp_write_bin32
 2574              		.syntax unified
 2575              		.thumb
 2576              		.thumb_func
 2577              		.fpu fpv4-sp-d16
 2578              		.type	cmp_write_bin32, %function
 2579              	cmp_write_bin32:
 2580              		@ args = 0, pretend = 0, frame = 16
 2581              		@ frame_needed = 1, uses_anonymous_args = 0
 2582 0000 80B5     		push	{r7, lr}
 2583 0002 84B0     		sub	sp, sp, #16
 2584 0004 00AF     		add	r7, sp, #0
 2585 0006 F860     		str	r0, [r7, #12]
 2586 0008 B960     		str	r1, [r7, #8]
 2587 000a 7A60     		str	r2, [r7, #4]
 2588 000c 7968     		ldr	r1, [r7, #4]
 2589 000e F868     		ldr	r0, [r7, #12]
 2590 0010 FFF7FEFF 		bl	cmp_write_bin32_marker
 2591 0014 0346     		mov	r3, r0
 2592 0016 83F00103 		eor	r3, r3, #1
 2593 001a DBB2     		uxtb	r3, r3
 2594 001c 002B     		cmp	r3, #0
 2595 001e 01D0     		beq	.L186
 2596 0020 0023     		movs	r3, #0
 2597 0022 13E0     		b	.L187
 2598              	.L186:
 2599 0024 7B68     		ldr	r3, [r7, #4]
 2600 0026 002B     		cmp	r3, #0
 2601 0028 01D1     		bne	.L188
 2602 002a 0123     		movs	r3, #1
 2603 002c 0EE0     		b	.L187
 2604              	.L188:
 2605 002e FB68     		ldr	r3, [r7, #12]
 2606 0030 DB68     		ldr	r3, [r3, #12]
 2607 0032 7A68     		ldr	r2, [r7, #4]
 2608 0034 B968     		ldr	r1, [r7, #8]
 2609 0036 F868     		ldr	r0, [r7, #12]
 2610 0038 9847     		blx	r3
 2611 003a 0346     		mov	r3, r0
 2612 003c 002B     		cmp	r3, #0
 2613 003e 01D0     		beq	.L189
 2614 0040 0123     		movs	r3, #1
ARM GAS  /var/folders/d2/nstgp4h54kz7g1l847x_b8wc0000gn/T//ccFI0sM2.s 			page 48


 2615 0042 03E0     		b	.L187
 2616              	.L189:
 2617 0044 FB68     		ldr	r3, [r7, #12]
 2618 0046 0A22     		movs	r2, #10
 2619 0048 1A70     		strb	r2, [r3]
 2620 004a 0023     		movs	r3, #0
 2621              	.L187:
 2622 004c 1846     		mov	r0, r3
 2623 004e 1037     		adds	r7, r7, #16
 2624 0050 BD46     		mov	sp, r7
 2625              		@ sp needed
 2626 0052 80BD     		pop	{r7, pc}
 2627              		.size	cmp_write_bin32, .-cmp_write_bin32
 2628              		.section	.text.cmp_write_bin_marker,"ax",%progbits
 2629              		.align	1
 2630              		.global	cmp_write_bin_marker
 2631              		.syntax unified
 2632              		.thumb
 2633              		.thumb_func
 2634              		.fpu fpv4-sp-d16
 2635              		.type	cmp_write_bin_marker, %function
 2636              	cmp_write_bin_marker:
 2637              		@ args = 0, pretend = 0, frame = 8
 2638              		@ frame_needed = 1, uses_anonymous_args = 0
 2639 0000 80B5     		push	{r7, lr}
 2640 0002 82B0     		sub	sp, sp, #8
 2641 0004 00AF     		add	r7, sp, #0
 2642 0006 7860     		str	r0, [r7, #4]
 2643 0008 3960     		str	r1, [r7]
 2644 000a 3B68     		ldr	r3, [r7]
 2645 000c FF2B     		cmp	r3, #255
 2646 000e 07D8     		bhi	.L191
 2647 0010 3B68     		ldr	r3, [r7]
 2648 0012 DBB2     		uxtb	r3, r3
 2649 0014 1946     		mov	r1, r3
 2650 0016 7868     		ldr	r0, [r7, #4]
 2651 0018 FFF7FEFF 		bl	cmp_write_bin8_marker
 2652 001c 0346     		mov	r3, r0
 2653 001e 10E0     		b	.L192
 2654              	.L191:
 2655 0020 3B68     		ldr	r3, [r7]
 2656 0022 B3F5803F 		cmp	r3, #65536
 2657 0026 07D2     		bcs	.L193
 2658 0028 3B68     		ldr	r3, [r7]
 2659 002a 9BB2     		uxth	r3, r3
 2660 002c 1946     		mov	r1, r3
 2661 002e 7868     		ldr	r0, [r7, #4]
 2662 0030 FFF7FEFF 		bl	cmp_write_bin16_marker
 2663 0034 0346     		mov	r3, r0
 2664 0036 04E0     		b	.L192
 2665              	.L193:
 2666 0038 3968     		ldr	r1, [r7]
 2667 003a 7868     		ldr	r0, [r7, #4]
 2668 003c FFF7FEFF 		bl	cmp_write_bin32_marker
 2669 0040 0346     		mov	r3, r0
 2670              	.L192:
 2671 0042 1846     		mov	r0, r3
ARM GAS  /var/folders/d2/nstgp4h54kz7g1l847x_b8wc0000gn/T//ccFI0sM2.s 			page 49


 2672 0044 0837     		adds	r7, r7, #8
 2673 0046 BD46     		mov	sp, r7
 2674              		@ sp needed
 2675 0048 80BD     		pop	{r7, pc}
 2676              		.size	cmp_write_bin_marker, .-cmp_write_bin_marker
 2677              		.section	.text.cmp_write_bin,"ax",%progbits
 2678              		.align	1
 2679              		.global	cmp_write_bin
 2680              		.syntax unified
 2681              		.thumb
 2682              		.thumb_func
 2683              		.fpu fpv4-sp-d16
 2684              		.type	cmp_write_bin, %function
 2685              	cmp_write_bin:
 2686              		@ args = 0, pretend = 0, frame = 16
 2687              		@ frame_needed = 1, uses_anonymous_args = 0
 2688 0000 80B5     		push	{r7, lr}
 2689 0002 84B0     		sub	sp, sp, #16
 2690 0004 00AF     		add	r7, sp, #0
 2691 0006 F860     		str	r0, [r7, #12]
 2692 0008 B960     		str	r1, [r7, #8]
 2693 000a 7A60     		str	r2, [r7, #4]
 2694 000c 7B68     		ldr	r3, [r7, #4]
 2695 000e FF2B     		cmp	r3, #255
 2696 0010 08D8     		bhi	.L195
 2697 0012 7B68     		ldr	r3, [r7, #4]
 2698 0014 DBB2     		uxtb	r3, r3
 2699 0016 1A46     		mov	r2, r3
 2700 0018 B968     		ldr	r1, [r7, #8]
 2701 001a F868     		ldr	r0, [r7, #12]
 2702 001c FFF7FEFF 		bl	cmp_write_bin8
 2703 0020 0346     		mov	r3, r0
 2704 0022 12E0     		b	.L196
 2705              	.L195:
 2706 0024 7B68     		ldr	r3, [r7, #4]
 2707 0026 B3F5803F 		cmp	r3, #65536
 2708 002a 08D2     		bcs	.L197
 2709 002c 7B68     		ldr	r3, [r7, #4]
 2710 002e 9BB2     		uxth	r3, r3
 2711 0030 1A46     		mov	r2, r3
 2712 0032 B968     		ldr	r1, [r7, #8]
 2713 0034 F868     		ldr	r0, [r7, #12]
 2714 0036 FFF7FEFF 		bl	cmp_write_bin16
 2715 003a 0346     		mov	r3, r0
 2716 003c 05E0     		b	.L196
 2717              	.L197:
 2718 003e 7A68     		ldr	r2, [r7, #4]
 2719 0040 B968     		ldr	r1, [r7, #8]
 2720 0042 F868     		ldr	r0, [r7, #12]
 2721 0044 FFF7FEFF 		bl	cmp_write_bin32
 2722 0048 0346     		mov	r3, r0
 2723              	.L196:
 2724 004a 1846     		mov	r0, r3
 2725 004c 1037     		adds	r7, r7, #16
 2726 004e BD46     		mov	sp, r7
 2727              		@ sp needed
 2728 0050 80BD     		pop	{r7, pc}
ARM GAS  /var/folders/d2/nstgp4h54kz7g1l847x_b8wc0000gn/T//ccFI0sM2.s 			page 50


 2729              		.size	cmp_write_bin, .-cmp_write_bin
 2730              		.section	.text.cmp_write_fixarray,"ax",%progbits
 2731              		.align	1
 2732              		.global	cmp_write_fixarray
 2733              		.syntax unified
 2734              		.thumb
 2735              		.thumb_func
 2736              		.fpu fpv4-sp-d16
 2737              		.type	cmp_write_fixarray, %function
 2738              	cmp_write_fixarray:
 2739              		@ args = 0, pretend = 0, frame = 8
 2740              		@ frame_needed = 1, uses_anonymous_args = 0
 2741 0000 80B5     		push	{r7, lr}
 2742 0002 82B0     		sub	sp, sp, #8
 2743 0004 00AF     		add	r7, sp, #0
 2744 0006 7860     		str	r0, [r7, #4]
 2745 0008 0B46     		mov	r3, r1
 2746 000a FB70     		strb	r3, [r7, #3]
 2747 000c FB78     		ldrb	r3, [r7, #3]	@ zero_extendqisi2
 2748 000e 0F2B     		cmp	r3, #15
 2749 0010 09D8     		bhi	.L199
 2750 0012 FB78     		ldrb	r3, [r7, #3]
 2751 0014 63F06F03 		orn	r3, r3, #111
 2752 0018 DBB2     		uxtb	r3, r3
 2753 001a 1946     		mov	r1, r3
 2754 001c 7868     		ldr	r0, [r7, #4]
 2755 001e FFF7FEFF 		bl	write_fixed_value
 2756 0022 0346     		mov	r3, r0
 2757 0024 03E0     		b	.L200
 2758              	.L199:
 2759 0026 7B68     		ldr	r3, [r7, #4]
 2760 0028 0522     		movs	r2, #5
 2761 002a 1A70     		strb	r2, [r3]
 2762 002c 0023     		movs	r3, #0
 2763              	.L200:
 2764 002e 1846     		mov	r0, r3
 2765 0030 0837     		adds	r7, r7, #8
 2766 0032 BD46     		mov	sp, r7
 2767              		@ sp needed
 2768 0034 80BD     		pop	{r7, pc}
 2769              		.size	cmp_write_fixarray, .-cmp_write_fixarray
 2770              		.section	.text.cmp_write_array16,"ax",%progbits
 2771              		.align	1
 2772              		.global	cmp_write_array16
 2773              		.syntax unified
 2774              		.thumb
 2775              		.thumb_func
 2776              		.fpu fpv4-sp-d16
 2777              		.type	cmp_write_array16, %function
 2778              	cmp_write_array16:
 2779              		@ args = 0, pretend = 0, frame = 8
 2780              		@ frame_needed = 1, uses_anonymous_args = 0
 2781 0000 80B5     		push	{r7, lr}
 2782 0002 82B0     		sub	sp, sp, #8
 2783 0004 00AF     		add	r7, sp, #0
 2784 0006 7860     		str	r0, [r7, #4]
 2785 0008 0B46     		mov	r3, r1
ARM GAS  /var/folders/d2/nstgp4h54kz7g1l847x_b8wc0000gn/T//ccFI0sM2.s 			page 51


 2786 000a 7B80     		strh	r3, [r7, #2]	@ movhi
 2787 000c DC21     		movs	r1, #220
 2788 000e 7868     		ldr	r0, [r7, #4]
 2789 0010 FFF7FEFF 		bl	write_type_marker
 2790 0014 0346     		mov	r3, r0
 2791 0016 83F00103 		eor	r3, r3, #1
 2792 001a DBB2     		uxtb	r3, r3
 2793 001c 002B     		cmp	r3, #0
 2794 001e 01D0     		beq	.L202
 2795 0020 0023     		movs	r3, #0
 2796 0022 14E0     		b	.L203
 2797              	.L202:
 2798 0024 7B88     		ldrh	r3, [r7, #2]
 2799 0026 1846     		mov	r0, r3
 2800 0028 FFF7FEFF 		bl	be16
 2801 002c 0346     		mov	r3, r0
 2802 002e 7B80     		strh	r3, [r7, #2]	@ movhi
 2803 0030 7B68     		ldr	r3, [r7, #4]
 2804 0032 DB68     		ldr	r3, [r3, #12]
 2805 0034 B91C     		adds	r1, r7, #2
 2806 0036 0222     		movs	r2, #2
 2807 0038 7868     		ldr	r0, [r7, #4]
 2808 003a 9847     		blx	r3
 2809 003c 0346     		mov	r3, r0
 2810 003e 002B     		cmp	r3, #0
 2811 0040 01D0     		beq	.L204
 2812 0042 0123     		movs	r3, #1
 2813 0044 03E0     		b	.L203
 2814              	.L204:
 2815 0046 7B68     		ldr	r3, [r7, #4]
 2816 0048 0F22     		movs	r2, #15
 2817 004a 1A70     		strb	r2, [r3]
 2818 004c 0023     		movs	r3, #0
 2819              	.L203:
 2820 004e 1846     		mov	r0, r3
 2821 0050 0837     		adds	r7, r7, #8
 2822 0052 BD46     		mov	sp, r7
 2823              		@ sp needed
 2824 0054 80BD     		pop	{r7, pc}
 2825              		.size	cmp_write_array16, .-cmp_write_array16
 2826              		.section	.text.cmp_write_array32,"ax",%progbits
 2827              		.align	1
 2828              		.global	cmp_write_array32
 2829              		.syntax unified
 2830              		.thumb
 2831              		.thumb_func
 2832              		.fpu fpv4-sp-d16
 2833              		.type	cmp_write_array32, %function
 2834              	cmp_write_array32:
 2835              		@ args = 0, pretend = 0, frame = 8
 2836              		@ frame_needed = 1, uses_anonymous_args = 0
 2837 0000 80B5     		push	{r7, lr}
 2838 0002 82B0     		sub	sp, sp, #8
 2839 0004 00AF     		add	r7, sp, #0
 2840 0006 7860     		str	r0, [r7, #4]
 2841 0008 3960     		str	r1, [r7]
 2842 000a DD21     		movs	r1, #221
ARM GAS  /var/folders/d2/nstgp4h54kz7g1l847x_b8wc0000gn/T//ccFI0sM2.s 			page 52


 2843 000c 7868     		ldr	r0, [r7, #4]
 2844 000e FFF7FEFF 		bl	write_type_marker
 2845 0012 0346     		mov	r3, r0
 2846 0014 83F00103 		eor	r3, r3, #1
 2847 0018 DBB2     		uxtb	r3, r3
 2848 001a 002B     		cmp	r3, #0
 2849 001c 01D0     		beq	.L206
 2850 001e 0023     		movs	r3, #0
 2851 0020 14E0     		b	.L207
 2852              	.L206:
 2853 0022 3B68     		ldr	r3, [r7]
 2854 0024 1846     		mov	r0, r3
 2855 0026 FFF7FEFF 		bl	be32
 2856 002a 0346     		mov	r3, r0
 2857 002c 3B60     		str	r3, [r7]
 2858 002e 7B68     		ldr	r3, [r7, #4]
 2859 0030 DB68     		ldr	r3, [r3, #12]
 2860 0032 3946     		mov	r1, r7
 2861 0034 0422     		movs	r2, #4
 2862 0036 7868     		ldr	r0, [r7, #4]
 2863 0038 9847     		blx	r3
 2864 003a 0346     		mov	r3, r0
 2865 003c 002B     		cmp	r3, #0
 2866 003e 01D0     		beq	.L208
 2867 0040 0123     		movs	r3, #1
 2868 0042 03E0     		b	.L207
 2869              	.L208:
 2870 0044 7B68     		ldr	r3, [r7, #4]
 2871 0046 0F22     		movs	r2, #15
 2872 0048 1A70     		strb	r2, [r3]
 2873 004a 0023     		movs	r3, #0
 2874              	.L207:
 2875 004c 1846     		mov	r0, r3
 2876 004e 0837     		adds	r7, r7, #8
 2877 0050 BD46     		mov	sp, r7
 2878              		@ sp needed
 2879 0052 80BD     		pop	{r7, pc}
 2880              		.size	cmp_write_array32, .-cmp_write_array32
 2881              		.section	.text.cmp_write_array,"ax",%progbits
 2882              		.align	1
 2883              		.global	cmp_write_array
 2884              		.syntax unified
 2885              		.thumb
 2886              		.thumb_func
 2887              		.fpu fpv4-sp-d16
 2888              		.type	cmp_write_array, %function
 2889              	cmp_write_array:
 2890              		@ args = 0, pretend = 0, frame = 8
 2891              		@ frame_needed = 1, uses_anonymous_args = 0
 2892 0000 80B5     		push	{r7, lr}
 2893 0002 82B0     		sub	sp, sp, #8
 2894 0004 00AF     		add	r7, sp, #0
 2895 0006 7860     		str	r0, [r7, #4]
 2896 0008 3960     		str	r1, [r7]
 2897 000a 3B68     		ldr	r3, [r7]
 2898 000c 0F2B     		cmp	r3, #15
 2899 000e 07D8     		bhi	.L210
ARM GAS  /var/folders/d2/nstgp4h54kz7g1l847x_b8wc0000gn/T//ccFI0sM2.s 			page 53


 2900 0010 3B68     		ldr	r3, [r7]
 2901 0012 DBB2     		uxtb	r3, r3
 2902 0014 1946     		mov	r1, r3
 2903 0016 7868     		ldr	r0, [r7, #4]
 2904 0018 FFF7FEFF 		bl	cmp_write_fixarray
 2905 001c 0346     		mov	r3, r0
 2906 001e 10E0     		b	.L211
 2907              	.L210:
 2908 0020 3B68     		ldr	r3, [r7]
 2909 0022 B3F5803F 		cmp	r3, #65536
 2910 0026 07D2     		bcs	.L212
 2911 0028 3B68     		ldr	r3, [r7]
 2912 002a 9BB2     		uxth	r3, r3
 2913 002c 1946     		mov	r1, r3
 2914 002e 7868     		ldr	r0, [r7, #4]
 2915 0030 FFF7FEFF 		bl	cmp_write_array16
 2916 0034 0346     		mov	r3, r0
 2917 0036 04E0     		b	.L211
 2918              	.L212:
 2919 0038 3968     		ldr	r1, [r7]
 2920 003a 7868     		ldr	r0, [r7, #4]
 2921 003c FFF7FEFF 		bl	cmp_write_array32
 2922 0040 0346     		mov	r3, r0
 2923              	.L211:
 2924 0042 1846     		mov	r0, r3
 2925 0044 0837     		adds	r7, r7, #8
 2926 0046 BD46     		mov	sp, r7
 2927              		@ sp needed
 2928 0048 80BD     		pop	{r7, pc}
 2929              		.size	cmp_write_array, .-cmp_write_array
 2930              		.section	.text.cmp_write_fixmap,"ax",%progbits
 2931              		.align	1
 2932              		.global	cmp_write_fixmap
 2933              		.syntax unified
 2934              		.thumb
 2935              		.thumb_func
 2936              		.fpu fpv4-sp-d16
 2937              		.type	cmp_write_fixmap, %function
 2938              	cmp_write_fixmap:
 2939              		@ args = 0, pretend = 0, frame = 8
 2940              		@ frame_needed = 1, uses_anonymous_args = 0
 2941 0000 80B5     		push	{r7, lr}
 2942 0002 82B0     		sub	sp, sp, #8
 2943 0004 00AF     		add	r7, sp, #0
 2944 0006 7860     		str	r0, [r7, #4]
 2945 0008 0B46     		mov	r3, r1
 2946 000a FB70     		strb	r3, [r7, #3]
 2947 000c FB78     		ldrb	r3, [r7, #3]	@ zero_extendqisi2
 2948 000e 0F2B     		cmp	r3, #15
 2949 0010 09D8     		bhi	.L214
 2950 0012 FB78     		ldrb	r3, [r7, #3]
 2951 0014 63F07F03 		orn	r3, r3, #127
 2952 0018 DBB2     		uxtb	r3, r3
 2953 001a 1946     		mov	r1, r3
 2954 001c 7868     		ldr	r0, [r7, #4]
 2955 001e FFF7FEFF 		bl	write_fixed_value
 2956 0022 0346     		mov	r3, r0
ARM GAS  /var/folders/d2/nstgp4h54kz7g1l847x_b8wc0000gn/T//ccFI0sM2.s 			page 54


 2957 0024 03E0     		b	.L215
 2958              	.L214:
 2959 0026 7B68     		ldr	r3, [r7, #4]
 2960 0028 0522     		movs	r2, #5
 2961 002a 1A70     		strb	r2, [r3]
 2962 002c 0023     		movs	r3, #0
 2963              	.L215:
 2964 002e 1846     		mov	r0, r3
 2965 0030 0837     		adds	r7, r7, #8
 2966 0032 BD46     		mov	sp, r7
 2967              		@ sp needed
 2968 0034 80BD     		pop	{r7, pc}
 2969              		.size	cmp_write_fixmap, .-cmp_write_fixmap
 2970              		.section	.text.cmp_write_map16,"ax",%progbits
 2971              		.align	1
 2972              		.global	cmp_write_map16
 2973              		.syntax unified
 2974              		.thumb
 2975              		.thumb_func
 2976              		.fpu fpv4-sp-d16
 2977              		.type	cmp_write_map16, %function
 2978              	cmp_write_map16:
 2979              		@ args = 0, pretend = 0, frame = 8
 2980              		@ frame_needed = 1, uses_anonymous_args = 0
 2981 0000 80B5     		push	{r7, lr}
 2982 0002 82B0     		sub	sp, sp, #8
 2983 0004 00AF     		add	r7, sp, #0
 2984 0006 7860     		str	r0, [r7, #4]
 2985 0008 0B46     		mov	r3, r1
 2986 000a 7B80     		strh	r3, [r7, #2]	@ movhi
 2987 000c DE21     		movs	r1, #222
 2988 000e 7868     		ldr	r0, [r7, #4]
 2989 0010 FFF7FEFF 		bl	write_type_marker
 2990 0014 0346     		mov	r3, r0
 2991 0016 83F00103 		eor	r3, r3, #1
 2992 001a DBB2     		uxtb	r3, r3
 2993 001c 002B     		cmp	r3, #0
 2994 001e 01D0     		beq	.L217
 2995 0020 0023     		movs	r3, #0
 2996 0022 14E0     		b	.L218
 2997              	.L217:
 2998 0024 7B88     		ldrh	r3, [r7, #2]
 2999 0026 1846     		mov	r0, r3
 3000 0028 FFF7FEFF 		bl	be16
 3001 002c 0346     		mov	r3, r0
 3002 002e 7B80     		strh	r3, [r7, #2]	@ movhi
 3003 0030 7B68     		ldr	r3, [r7, #4]
 3004 0032 DB68     		ldr	r3, [r3, #12]
 3005 0034 B91C     		adds	r1, r7, #2
 3006 0036 0222     		movs	r2, #2
 3007 0038 7868     		ldr	r0, [r7, #4]
 3008 003a 9847     		blx	r3
 3009 003c 0346     		mov	r3, r0
 3010 003e 002B     		cmp	r3, #0
 3011 0040 01D0     		beq	.L219
 3012 0042 0123     		movs	r3, #1
 3013 0044 03E0     		b	.L218
ARM GAS  /var/folders/d2/nstgp4h54kz7g1l847x_b8wc0000gn/T//ccFI0sM2.s 			page 55


 3014              	.L219:
 3015 0046 7B68     		ldr	r3, [r7, #4]
 3016 0048 0F22     		movs	r2, #15
 3017 004a 1A70     		strb	r2, [r3]
 3018 004c 0023     		movs	r3, #0
 3019              	.L218:
 3020 004e 1846     		mov	r0, r3
 3021 0050 0837     		adds	r7, r7, #8
 3022 0052 BD46     		mov	sp, r7
 3023              		@ sp needed
 3024 0054 80BD     		pop	{r7, pc}
 3025              		.size	cmp_write_map16, .-cmp_write_map16
 3026              		.section	.text.cmp_write_map32,"ax",%progbits
 3027              		.align	1
 3028              		.global	cmp_write_map32
 3029              		.syntax unified
 3030              		.thumb
 3031              		.thumb_func
 3032              		.fpu fpv4-sp-d16
 3033              		.type	cmp_write_map32, %function
 3034              	cmp_write_map32:
 3035              		@ args = 0, pretend = 0, frame = 8
 3036              		@ frame_needed = 1, uses_anonymous_args = 0
 3037 0000 80B5     		push	{r7, lr}
 3038 0002 82B0     		sub	sp, sp, #8
 3039 0004 00AF     		add	r7, sp, #0
 3040 0006 7860     		str	r0, [r7, #4]
 3041 0008 3960     		str	r1, [r7]
 3042 000a DF21     		movs	r1, #223
 3043 000c 7868     		ldr	r0, [r7, #4]
 3044 000e FFF7FEFF 		bl	write_type_marker
 3045 0012 0346     		mov	r3, r0
 3046 0014 83F00103 		eor	r3, r3, #1
 3047 0018 DBB2     		uxtb	r3, r3
 3048 001a 002B     		cmp	r3, #0
 3049 001c 01D0     		beq	.L221
 3050 001e 0023     		movs	r3, #0
 3051 0020 14E0     		b	.L222
 3052              	.L221:
 3053 0022 3B68     		ldr	r3, [r7]
 3054 0024 1846     		mov	r0, r3
 3055 0026 FFF7FEFF 		bl	be32
 3056 002a 0346     		mov	r3, r0
 3057 002c 3B60     		str	r3, [r7]
 3058 002e 7B68     		ldr	r3, [r7, #4]
 3059 0030 DB68     		ldr	r3, [r3, #12]
 3060 0032 3946     		mov	r1, r7
 3061 0034 0422     		movs	r2, #4
 3062 0036 7868     		ldr	r0, [r7, #4]
 3063 0038 9847     		blx	r3
 3064 003a 0346     		mov	r3, r0
 3065 003c 002B     		cmp	r3, #0
 3066 003e 01D0     		beq	.L223
 3067 0040 0123     		movs	r3, #1
 3068 0042 03E0     		b	.L222
 3069              	.L223:
 3070 0044 7B68     		ldr	r3, [r7, #4]
ARM GAS  /var/folders/d2/nstgp4h54kz7g1l847x_b8wc0000gn/T//ccFI0sM2.s 			page 56


 3071 0046 0F22     		movs	r2, #15
 3072 0048 1A70     		strb	r2, [r3]
 3073 004a 0023     		movs	r3, #0
 3074              	.L222:
 3075 004c 1846     		mov	r0, r3
 3076 004e 0837     		adds	r7, r7, #8
 3077 0050 BD46     		mov	sp, r7
 3078              		@ sp needed
 3079 0052 80BD     		pop	{r7, pc}
 3080              		.size	cmp_write_map32, .-cmp_write_map32
 3081              		.section	.text.cmp_write_map,"ax",%progbits
 3082              		.align	1
 3083              		.global	cmp_write_map
 3084              		.syntax unified
 3085              		.thumb
 3086              		.thumb_func
 3087              		.fpu fpv4-sp-d16
 3088              		.type	cmp_write_map, %function
 3089              	cmp_write_map:
 3090              		@ args = 0, pretend = 0, frame = 8
 3091              		@ frame_needed = 1, uses_anonymous_args = 0
 3092 0000 80B5     		push	{r7, lr}
 3093 0002 82B0     		sub	sp, sp, #8
 3094 0004 00AF     		add	r7, sp, #0
 3095 0006 7860     		str	r0, [r7, #4]
 3096 0008 3960     		str	r1, [r7]
 3097 000a 3B68     		ldr	r3, [r7]
 3098 000c 0F2B     		cmp	r3, #15
 3099 000e 07D8     		bhi	.L225
 3100 0010 3B68     		ldr	r3, [r7]
 3101 0012 DBB2     		uxtb	r3, r3
 3102 0014 1946     		mov	r1, r3
 3103 0016 7868     		ldr	r0, [r7, #4]
 3104 0018 FFF7FEFF 		bl	cmp_write_fixmap
 3105 001c 0346     		mov	r3, r0
 3106 001e 10E0     		b	.L226
 3107              	.L225:
 3108 0020 3B68     		ldr	r3, [r7]
 3109 0022 B3F5803F 		cmp	r3, #65536
 3110 0026 07D2     		bcs	.L227
 3111 0028 3B68     		ldr	r3, [r7]
 3112 002a 9BB2     		uxth	r3, r3
 3113 002c 1946     		mov	r1, r3
 3114 002e 7868     		ldr	r0, [r7, #4]
 3115 0030 FFF7FEFF 		bl	cmp_write_map16
 3116 0034 0346     		mov	r3, r0
 3117 0036 04E0     		b	.L226
 3118              	.L227:
 3119 0038 3968     		ldr	r1, [r7]
 3120 003a 7868     		ldr	r0, [r7, #4]
 3121 003c FFF7FEFF 		bl	cmp_write_map32
 3122 0040 0346     		mov	r3, r0
 3123              	.L226:
 3124 0042 1846     		mov	r0, r3
 3125 0044 0837     		adds	r7, r7, #8
 3126 0046 BD46     		mov	sp, r7
 3127              		@ sp needed
ARM GAS  /var/folders/d2/nstgp4h54kz7g1l847x_b8wc0000gn/T//ccFI0sM2.s 			page 57


 3128 0048 80BD     		pop	{r7, pc}
 3129              		.size	cmp_write_map, .-cmp_write_map
 3130              		.section	.text.cmp_write_fixext1_marker,"ax",%progbits
 3131              		.align	1
 3132              		.global	cmp_write_fixext1_marker
 3133              		.syntax unified
 3134              		.thumb
 3135              		.thumb_func
 3136              		.fpu fpv4-sp-d16
 3137              		.type	cmp_write_fixext1_marker, %function
 3138              	cmp_write_fixext1_marker:
 3139              		@ args = 0, pretend = 0, frame = 8
 3140              		@ frame_needed = 1, uses_anonymous_args = 0
 3141 0000 80B5     		push	{r7, lr}
 3142 0002 82B0     		sub	sp, sp, #8
 3143 0004 00AF     		add	r7, sp, #0
 3144 0006 7860     		str	r0, [r7, #4]
 3145 0008 0B46     		mov	r3, r1
 3146 000a FB70     		strb	r3, [r7, #3]
 3147 000c D421     		movs	r1, #212
 3148 000e 7868     		ldr	r0, [r7, #4]
 3149 0010 FFF7FEFF 		bl	write_type_marker
 3150 0014 0346     		mov	r3, r0
 3151 0016 83F00103 		eor	r3, r3, #1
 3152 001a DBB2     		uxtb	r3, r3
 3153 001c 002B     		cmp	r3, #0
 3154 001e 01D0     		beq	.L229
 3155 0020 0023     		movs	r3, #0
 3156 0022 0EE0     		b	.L230
 3157              	.L229:
 3158 0024 7B68     		ldr	r3, [r7, #4]
 3159 0026 DB68     		ldr	r3, [r3, #12]
 3160 0028 F91C     		adds	r1, r7, #3
 3161 002a 0122     		movs	r2, #1
 3162 002c 7868     		ldr	r0, [r7, #4]
 3163 002e 9847     		blx	r3
 3164 0030 0346     		mov	r3, r0
 3165 0032 002B     		cmp	r3, #0
 3166 0034 01D0     		beq	.L231
 3167 0036 0123     		movs	r3, #1
 3168 0038 03E0     		b	.L230
 3169              	.L231:
 3170 003a 7B68     		ldr	r3, [r7, #4]
 3171 003c 0C22     		movs	r2, #12
 3172 003e 1A70     		strb	r2, [r3]
 3173 0040 0023     		movs	r3, #0
 3174              	.L230:
 3175 0042 1846     		mov	r0, r3
 3176 0044 0837     		adds	r7, r7, #8
 3177 0046 BD46     		mov	sp, r7
 3178              		@ sp needed
 3179 0048 80BD     		pop	{r7, pc}
 3180              		.size	cmp_write_fixext1_marker, .-cmp_write_fixext1_marker
 3181              		.section	.text.cmp_write_fixext1,"ax",%progbits
 3182              		.align	1
 3183              		.global	cmp_write_fixext1
 3184              		.syntax unified
ARM GAS  /var/folders/d2/nstgp4h54kz7g1l847x_b8wc0000gn/T//ccFI0sM2.s 			page 58


 3185              		.thumb
 3186              		.thumb_func
 3187              		.fpu fpv4-sp-d16
 3188              		.type	cmp_write_fixext1, %function
 3189              	cmp_write_fixext1:
 3190              		@ args = 0, pretend = 0, frame = 16
 3191              		@ frame_needed = 1, uses_anonymous_args = 0
 3192 0000 80B5     		push	{r7, lr}
 3193 0002 84B0     		sub	sp, sp, #16
 3194 0004 00AF     		add	r7, sp, #0
 3195 0006 F860     		str	r0, [r7, #12]
 3196 0008 0B46     		mov	r3, r1
 3197 000a 7A60     		str	r2, [r7, #4]
 3198 000c FB72     		strb	r3, [r7, #11]
 3199 000e 97F90B30 		ldrsb	r3, [r7, #11]
 3200 0012 1946     		mov	r1, r3
 3201 0014 F868     		ldr	r0, [r7, #12]
 3202 0016 FFF7FEFF 		bl	cmp_write_fixext1_marker
 3203 001a 0346     		mov	r3, r0
 3204 001c 83F00103 		eor	r3, r3, #1
 3205 0020 DBB2     		uxtb	r3, r3
 3206 0022 002B     		cmp	r3, #0
 3207 0024 01D0     		beq	.L233
 3208 0026 0023     		movs	r3, #0
 3209 0028 0EE0     		b	.L234
 3210              	.L233:
 3211 002a FB68     		ldr	r3, [r7, #12]
 3212 002c DB68     		ldr	r3, [r3, #12]
 3213 002e 0122     		movs	r2, #1
 3214 0030 7968     		ldr	r1, [r7, #4]
 3215 0032 F868     		ldr	r0, [r7, #12]
 3216 0034 9847     		blx	r3
 3217 0036 0346     		mov	r3, r0
 3218 0038 002B     		cmp	r3, #0
 3219 003a 01D0     		beq	.L235
 3220 003c 0123     		movs	r3, #1
 3221 003e 03E0     		b	.L234
 3222              	.L235:
 3223 0040 FB68     		ldr	r3, [r7, #12]
 3224 0042 0A22     		movs	r2, #10
 3225 0044 1A70     		strb	r2, [r3]
 3226 0046 0023     		movs	r3, #0
 3227              	.L234:
 3228 0048 1846     		mov	r0, r3
 3229 004a 1037     		adds	r7, r7, #16
 3230 004c BD46     		mov	sp, r7
 3231              		@ sp needed
 3232 004e 80BD     		pop	{r7, pc}
 3233              		.size	cmp_write_fixext1, .-cmp_write_fixext1
 3234              		.section	.text.cmp_write_fixext2_marker,"ax",%progbits
 3235              		.align	1
 3236              		.global	cmp_write_fixext2_marker
 3237              		.syntax unified
 3238              		.thumb
 3239              		.thumb_func
 3240              		.fpu fpv4-sp-d16
 3241              		.type	cmp_write_fixext2_marker, %function
ARM GAS  /var/folders/d2/nstgp4h54kz7g1l847x_b8wc0000gn/T//ccFI0sM2.s 			page 59


 3242              	cmp_write_fixext2_marker:
 3243              		@ args = 0, pretend = 0, frame = 8
 3244              		@ frame_needed = 1, uses_anonymous_args = 0
 3245 0000 80B5     		push	{r7, lr}
 3246 0002 82B0     		sub	sp, sp, #8
 3247 0004 00AF     		add	r7, sp, #0
 3248 0006 7860     		str	r0, [r7, #4]
 3249 0008 0B46     		mov	r3, r1
 3250 000a FB70     		strb	r3, [r7, #3]
 3251 000c D521     		movs	r1, #213
 3252 000e 7868     		ldr	r0, [r7, #4]
 3253 0010 FFF7FEFF 		bl	write_type_marker
 3254 0014 0346     		mov	r3, r0
 3255 0016 83F00103 		eor	r3, r3, #1
 3256 001a DBB2     		uxtb	r3, r3
 3257 001c 002B     		cmp	r3, #0
 3258 001e 01D0     		beq	.L237
 3259 0020 0023     		movs	r3, #0
 3260 0022 0EE0     		b	.L238
 3261              	.L237:
 3262 0024 7B68     		ldr	r3, [r7, #4]
 3263 0026 DB68     		ldr	r3, [r3, #12]
 3264 0028 F91C     		adds	r1, r7, #3
 3265 002a 0122     		movs	r2, #1
 3266 002c 7868     		ldr	r0, [r7, #4]
 3267 002e 9847     		blx	r3
 3268 0030 0346     		mov	r3, r0
 3269 0032 002B     		cmp	r3, #0
 3270 0034 01D0     		beq	.L239
 3271 0036 0123     		movs	r3, #1
 3272 0038 03E0     		b	.L238
 3273              	.L239:
 3274 003a 7B68     		ldr	r3, [r7, #4]
 3275 003c 0C22     		movs	r2, #12
 3276 003e 1A70     		strb	r2, [r3]
 3277 0040 0023     		movs	r3, #0
 3278              	.L238:
 3279 0042 1846     		mov	r0, r3
 3280 0044 0837     		adds	r7, r7, #8
 3281 0046 BD46     		mov	sp, r7
 3282              		@ sp needed
 3283 0048 80BD     		pop	{r7, pc}
 3284              		.size	cmp_write_fixext2_marker, .-cmp_write_fixext2_marker
 3285              		.section	.text.cmp_write_fixext2,"ax",%progbits
 3286              		.align	1
 3287              		.global	cmp_write_fixext2
 3288              		.syntax unified
 3289              		.thumb
 3290              		.thumb_func
 3291              		.fpu fpv4-sp-d16
 3292              		.type	cmp_write_fixext2, %function
 3293              	cmp_write_fixext2:
 3294              		@ args = 0, pretend = 0, frame = 16
 3295              		@ frame_needed = 1, uses_anonymous_args = 0
 3296 0000 80B5     		push	{r7, lr}
 3297 0002 84B0     		sub	sp, sp, #16
 3298 0004 00AF     		add	r7, sp, #0
ARM GAS  /var/folders/d2/nstgp4h54kz7g1l847x_b8wc0000gn/T//ccFI0sM2.s 			page 60


 3299 0006 F860     		str	r0, [r7, #12]
 3300 0008 0B46     		mov	r3, r1
 3301 000a 7A60     		str	r2, [r7, #4]
 3302 000c FB72     		strb	r3, [r7, #11]
 3303 000e 97F90B30 		ldrsb	r3, [r7, #11]
 3304 0012 1946     		mov	r1, r3
 3305 0014 F868     		ldr	r0, [r7, #12]
 3306 0016 FFF7FEFF 		bl	cmp_write_fixext2_marker
 3307 001a 0346     		mov	r3, r0
 3308 001c 83F00103 		eor	r3, r3, #1
 3309 0020 DBB2     		uxtb	r3, r3
 3310 0022 002B     		cmp	r3, #0
 3311 0024 01D0     		beq	.L241
 3312 0026 0023     		movs	r3, #0
 3313 0028 0EE0     		b	.L242
 3314              	.L241:
 3315 002a FB68     		ldr	r3, [r7, #12]
 3316 002c DB68     		ldr	r3, [r3, #12]
 3317 002e 0222     		movs	r2, #2
 3318 0030 7968     		ldr	r1, [r7, #4]
 3319 0032 F868     		ldr	r0, [r7, #12]
 3320 0034 9847     		blx	r3
 3321 0036 0346     		mov	r3, r0
 3322 0038 002B     		cmp	r3, #0
 3323 003a 01D0     		beq	.L243
 3324 003c 0123     		movs	r3, #1
 3325 003e 03E0     		b	.L242
 3326              	.L243:
 3327 0040 FB68     		ldr	r3, [r7, #12]
 3328 0042 0A22     		movs	r2, #10
 3329 0044 1A70     		strb	r2, [r3]
 3330 0046 0023     		movs	r3, #0
 3331              	.L242:
 3332 0048 1846     		mov	r0, r3
 3333 004a 1037     		adds	r7, r7, #16
 3334 004c BD46     		mov	sp, r7
 3335              		@ sp needed
 3336 004e 80BD     		pop	{r7, pc}
 3337              		.size	cmp_write_fixext2, .-cmp_write_fixext2
 3338              		.section	.text.cmp_write_fixext4_marker,"ax",%progbits
 3339              		.align	1
 3340              		.global	cmp_write_fixext4_marker
 3341              		.syntax unified
 3342              		.thumb
 3343              		.thumb_func
 3344              		.fpu fpv4-sp-d16
 3345              		.type	cmp_write_fixext4_marker, %function
 3346              	cmp_write_fixext4_marker:
 3347              		@ args = 0, pretend = 0, frame = 8
 3348              		@ frame_needed = 1, uses_anonymous_args = 0
 3349 0000 80B5     		push	{r7, lr}
 3350 0002 82B0     		sub	sp, sp, #8
 3351 0004 00AF     		add	r7, sp, #0
 3352 0006 7860     		str	r0, [r7, #4]
 3353 0008 0B46     		mov	r3, r1
 3354 000a FB70     		strb	r3, [r7, #3]
 3355 000c D621     		movs	r1, #214
ARM GAS  /var/folders/d2/nstgp4h54kz7g1l847x_b8wc0000gn/T//ccFI0sM2.s 			page 61


 3356 000e 7868     		ldr	r0, [r7, #4]
 3357 0010 FFF7FEFF 		bl	write_type_marker
 3358 0014 0346     		mov	r3, r0
 3359 0016 83F00103 		eor	r3, r3, #1
 3360 001a DBB2     		uxtb	r3, r3
 3361 001c 002B     		cmp	r3, #0
 3362 001e 01D0     		beq	.L245
 3363 0020 0023     		movs	r3, #0
 3364 0022 0EE0     		b	.L246
 3365              	.L245:
 3366 0024 7B68     		ldr	r3, [r7, #4]
 3367 0026 DB68     		ldr	r3, [r3, #12]
 3368 0028 F91C     		adds	r1, r7, #3
 3369 002a 0122     		movs	r2, #1
 3370 002c 7868     		ldr	r0, [r7, #4]
 3371 002e 9847     		blx	r3
 3372 0030 0346     		mov	r3, r0
 3373 0032 002B     		cmp	r3, #0
 3374 0034 01D0     		beq	.L247
 3375 0036 0123     		movs	r3, #1
 3376 0038 03E0     		b	.L246
 3377              	.L247:
 3378 003a 7B68     		ldr	r3, [r7, #4]
 3379 003c 0C22     		movs	r2, #12
 3380 003e 1A70     		strb	r2, [r3]
 3381 0040 0023     		movs	r3, #0
 3382              	.L246:
 3383 0042 1846     		mov	r0, r3
 3384 0044 0837     		adds	r7, r7, #8
 3385 0046 BD46     		mov	sp, r7
 3386              		@ sp needed
 3387 0048 80BD     		pop	{r7, pc}
 3388              		.size	cmp_write_fixext4_marker, .-cmp_write_fixext4_marker
 3389              		.section	.text.cmp_write_fixext4,"ax",%progbits
 3390              		.align	1
 3391              		.global	cmp_write_fixext4
 3392              		.syntax unified
 3393              		.thumb
 3394              		.thumb_func
 3395              		.fpu fpv4-sp-d16
 3396              		.type	cmp_write_fixext4, %function
 3397              	cmp_write_fixext4:
 3398              		@ args = 0, pretend = 0, frame = 16
 3399              		@ frame_needed = 1, uses_anonymous_args = 0
 3400 0000 80B5     		push	{r7, lr}
 3401 0002 84B0     		sub	sp, sp, #16
 3402 0004 00AF     		add	r7, sp, #0
 3403 0006 F860     		str	r0, [r7, #12]
 3404 0008 0B46     		mov	r3, r1
 3405 000a 7A60     		str	r2, [r7, #4]
 3406 000c FB72     		strb	r3, [r7, #11]
 3407 000e 97F90B30 		ldrsb	r3, [r7, #11]
 3408 0012 1946     		mov	r1, r3
 3409 0014 F868     		ldr	r0, [r7, #12]
 3410 0016 FFF7FEFF 		bl	cmp_write_fixext4_marker
 3411 001a 0346     		mov	r3, r0
 3412 001c 83F00103 		eor	r3, r3, #1
ARM GAS  /var/folders/d2/nstgp4h54kz7g1l847x_b8wc0000gn/T//ccFI0sM2.s 			page 62


 3413 0020 DBB2     		uxtb	r3, r3
 3414 0022 002B     		cmp	r3, #0
 3415 0024 01D0     		beq	.L249
 3416 0026 0023     		movs	r3, #0
 3417 0028 0EE0     		b	.L250
 3418              	.L249:
 3419 002a FB68     		ldr	r3, [r7, #12]
 3420 002c DB68     		ldr	r3, [r3, #12]
 3421 002e 0422     		movs	r2, #4
 3422 0030 7968     		ldr	r1, [r7, #4]
 3423 0032 F868     		ldr	r0, [r7, #12]
 3424 0034 9847     		blx	r3
 3425 0036 0346     		mov	r3, r0
 3426 0038 002B     		cmp	r3, #0
 3427 003a 01D0     		beq	.L251
 3428 003c 0123     		movs	r3, #1
 3429 003e 03E0     		b	.L250
 3430              	.L251:
 3431 0040 FB68     		ldr	r3, [r7, #12]
 3432 0042 0A22     		movs	r2, #10
 3433 0044 1A70     		strb	r2, [r3]
 3434 0046 0023     		movs	r3, #0
 3435              	.L250:
 3436 0048 1846     		mov	r0, r3
 3437 004a 1037     		adds	r7, r7, #16
 3438 004c BD46     		mov	sp, r7
 3439              		@ sp needed
 3440 004e 80BD     		pop	{r7, pc}
 3441              		.size	cmp_write_fixext4, .-cmp_write_fixext4
 3442              		.section	.text.cmp_write_fixext8_marker,"ax",%progbits
 3443              		.align	1
 3444              		.global	cmp_write_fixext8_marker
 3445              		.syntax unified
 3446              		.thumb
 3447              		.thumb_func
 3448              		.fpu fpv4-sp-d16
 3449              		.type	cmp_write_fixext8_marker, %function
 3450              	cmp_write_fixext8_marker:
 3451              		@ args = 0, pretend = 0, frame = 8
 3452              		@ frame_needed = 1, uses_anonymous_args = 0
 3453 0000 80B5     		push	{r7, lr}
 3454 0002 82B0     		sub	sp, sp, #8
 3455 0004 00AF     		add	r7, sp, #0
 3456 0006 7860     		str	r0, [r7, #4]
 3457 0008 0B46     		mov	r3, r1
 3458 000a FB70     		strb	r3, [r7, #3]
 3459 000c D721     		movs	r1, #215
 3460 000e 7868     		ldr	r0, [r7, #4]
 3461 0010 FFF7FEFF 		bl	write_type_marker
 3462 0014 0346     		mov	r3, r0
 3463 0016 83F00103 		eor	r3, r3, #1
 3464 001a DBB2     		uxtb	r3, r3
 3465 001c 002B     		cmp	r3, #0
 3466 001e 01D0     		beq	.L253
 3467 0020 0023     		movs	r3, #0
 3468 0022 0EE0     		b	.L254
 3469              	.L253:
ARM GAS  /var/folders/d2/nstgp4h54kz7g1l847x_b8wc0000gn/T//ccFI0sM2.s 			page 63


 3470 0024 7B68     		ldr	r3, [r7, #4]
 3471 0026 DB68     		ldr	r3, [r3, #12]
 3472 0028 F91C     		adds	r1, r7, #3
 3473 002a 0122     		movs	r2, #1
 3474 002c 7868     		ldr	r0, [r7, #4]
 3475 002e 9847     		blx	r3
 3476 0030 0346     		mov	r3, r0
 3477 0032 002B     		cmp	r3, #0
 3478 0034 01D0     		beq	.L255
 3479 0036 0123     		movs	r3, #1
 3480 0038 03E0     		b	.L254
 3481              	.L255:
 3482 003a 7B68     		ldr	r3, [r7, #4]
 3483 003c 0C22     		movs	r2, #12
 3484 003e 1A70     		strb	r2, [r3]
 3485 0040 0023     		movs	r3, #0
 3486              	.L254:
 3487 0042 1846     		mov	r0, r3
 3488 0044 0837     		adds	r7, r7, #8
 3489 0046 BD46     		mov	sp, r7
 3490              		@ sp needed
 3491 0048 80BD     		pop	{r7, pc}
 3492              		.size	cmp_write_fixext8_marker, .-cmp_write_fixext8_marker
 3493              		.section	.text.cmp_write_fixext8,"ax",%progbits
 3494              		.align	1
 3495              		.global	cmp_write_fixext8
 3496              		.syntax unified
 3497              		.thumb
 3498              		.thumb_func
 3499              		.fpu fpv4-sp-d16
 3500              		.type	cmp_write_fixext8, %function
 3501              	cmp_write_fixext8:
 3502              		@ args = 0, pretend = 0, frame = 16
 3503              		@ frame_needed = 1, uses_anonymous_args = 0
 3504 0000 80B5     		push	{r7, lr}
 3505 0002 84B0     		sub	sp, sp, #16
 3506 0004 00AF     		add	r7, sp, #0
 3507 0006 F860     		str	r0, [r7, #12]
 3508 0008 0B46     		mov	r3, r1
 3509 000a 7A60     		str	r2, [r7, #4]
 3510 000c FB72     		strb	r3, [r7, #11]
 3511 000e 97F90B30 		ldrsb	r3, [r7, #11]
 3512 0012 1946     		mov	r1, r3
 3513 0014 F868     		ldr	r0, [r7, #12]
 3514 0016 FFF7FEFF 		bl	cmp_write_fixext8_marker
 3515 001a 0346     		mov	r3, r0
 3516 001c 83F00103 		eor	r3, r3, #1
 3517 0020 DBB2     		uxtb	r3, r3
 3518 0022 002B     		cmp	r3, #0
 3519 0024 01D0     		beq	.L257
 3520 0026 0023     		movs	r3, #0
 3521 0028 0EE0     		b	.L258
 3522              	.L257:
 3523 002a FB68     		ldr	r3, [r7, #12]
 3524 002c DB68     		ldr	r3, [r3, #12]
 3525 002e 0822     		movs	r2, #8
 3526 0030 7968     		ldr	r1, [r7, #4]
ARM GAS  /var/folders/d2/nstgp4h54kz7g1l847x_b8wc0000gn/T//ccFI0sM2.s 			page 64


 3527 0032 F868     		ldr	r0, [r7, #12]
 3528 0034 9847     		blx	r3
 3529 0036 0346     		mov	r3, r0
 3530 0038 002B     		cmp	r3, #0
 3531 003a 01D0     		beq	.L259
 3532 003c 0123     		movs	r3, #1
 3533 003e 03E0     		b	.L258
 3534              	.L259:
 3535 0040 FB68     		ldr	r3, [r7, #12]
 3536 0042 0A22     		movs	r2, #10
 3537 0044 1A70     		strb	r2, [r3]
 3538 0046 0023     		movs	r3, #0
 3539              	.L258:
 3540 0048 1846     		mov	r0, r3
 3541 004a 1037     		adds	r7, r7, #16
 3542 004c BD46     		mov	sp, r7
 3543              		@ sp needed
 3544 004e 80BD     		pop	{r7, pc}
 3545              		.size	cmp_write_fixext8, .-cmp_write_fixext8
 3546              		.section	.text.cmp_write_fixext16_marker,"ax",%progbits
 3547              		.align	1
 3548              		.global	cmp_write_fixext16_marker
 3549              		.syntax unified
 3550              		.thumb
 3551              		.thumb_func
 3552              		.fpu fpv4-sp-d16
 3553              		.type	cmp_write_fixext16_marker, %function
 3554              	cmp_write_fixext16_marker:
 3555              		@ args = 0, pretend = 0, frame = 8
 3556              		@ frame_needed = 1, uses_anonymous_args = 0
 3557 0000 80B5     		push	{r7, lr}
 3558 0002 82B0     		sub	sp, sp, #8
 3559 0004 00AF     		add	r7, sp, #0
 3560 0006 7860     		str	r0, [r7, #4]
 3561 0008 0B46     		mov	r3, r1
 3562 000a FB70     		strb	r3, [r7, #3]
 3563 000c D821     		movs	r1, #216
 3564 000e 7868     		ldr	r0, [r7, #4]
 3565 0010 FFF7FEFF 		bl	write_type_marker
 3566 0014 0346     		mov	r3, r0
 3567 0016 83F00103 		eor	r3, r3, #1
 3568 001a DBB2     		uxtb	r3, r3
 3569 001c 002B     		cmp	r3, #0
 3570 001e 01D0     		beq	.L261
 3571 0020 0023     		movs	r3, #0
 3572 0022 0EE0     		b	.L262
 3573              	.L261:
 3574 0024 7B68     		ldr	r3, [r7, #4]
 3575 0026 DB68     		ldr	r3, [r3, #12]
 3576 0028 F91C     		adds	r1, r7, #3
 3577 002a 0122     		movs	r2, #1
 3578 002c 7868     		ldr	r0, [r7, #4]
 3579 002e 9847     		blx	r3
 3580 0030 0346     		mov	r3, r0
 3581 0032 002B     		cmp	r3, #0
 3582 0034 01D0     		beq	.L263
 3583 0036 0123     		movs	r3, #1
ARM GAS  /var/folders/d2/nstgp4h54kz7g1l847x_b8wc0000gn/T//ccFI0sM2.s 			page 65


 3584 0038 03E0     		b	.L262
 3585              	.L263:
 3586 003a 7B68     		ldr	r3, [r7, #4]
 3587 003c 0C22     		movs	r2, #12
 3588 003e 1A70     		strb	r2, [r3]
 3589 0040 0023     		movs	r3, #0
 3590              	.L262:
 3591 0042 1846     		mov	r0, r3
 3592 0044 0837     		adds	r7, r7, #8
 3593 0046 BD46     		mov	sp, r7
 3594              		@ sp needed
 3595 0048 80BD     		pop	{r7, pc}
 3596              		.size	cmp_write_fixext16_marker, .-cmp_write_fixext16_marker
 3597              		.section	.text.cmp_write_fixext16,"ax",%progbits
 3598              		.align	1
 3599              		.global	cmp_write_fixext16
 3600              		.syntax unified
 3601              		.thumb
 3602              		.thumb_func
 3603              		.fpu fpv4-sp-d16
 3604              		.type	cmp_write_fixext16, %function
 3605              	cmp_write_fixext16:
 3606              		@ args = 0, pretend = 0, frame = 16
 3607              		@ frame_needed = 1, uses_anonymous_args = 0
 3608 0000 80B5     		push	{r7, lr}
 3609 0002 84B0     		sub	sp, sp, #16
 3610 0004 00AF     		add	r7, sp, #0
 3611 0006 F860     		str	r0, [r7, #12]
 3612 0008 0B46     		mov	r3, r1
 3613 000a 7A60     		str	r2, [r7, #4]
 3614 000c FB72     		strb	r3, [r7, #11]
 3615 000e 97F90B30 		ldrsb	r3, [r7, #11]
 3616 0012 1946     		mov	r1, r3
 3617 0014 F868     		ldr	r0, [r7, #12]
 3618 0016 FFF7FEFF 		bl	cmp_write_fixext16_marker
 3619 001a 0346     		mov	r3, r0
 3620 001c 83F00103 		eor	r3, r3, #1
 3621 0020 DBB2     		uxtb	r3, r3
 3622 0022 002B     		cmp	r3, #0
 3623 0024 01D0     		beq	.L265
 3624 0026 0023     		movs	r3, #0
 3625 0028 0EE0     		b	.L266
 3626              	.L265:
 3627 002a FB68     		ldr	r3, [r7, #12]
 3628 002c DB68     		ldr	r3, [r3, #12]
 3629 002e 1022     		movs	r2, #16
 3630 0030 7968     		ldr	r1, [r7, #4]
 3631 0032 F868     		ldr	r0, [r7, #12]
 3632 0034 9847     		blx	r3
 3633 0036 0346     		mov	r3, r0
 3634 0038 002B     		cmp	r3, #0
 3635 003a 01D0     		beq	.L267
 3636 003c 0123     		movs	r3, #1
 3637 003e 03E0     		b	.L266
 3638              	.L267:
 3639 0040 FB68     		ldr	r3, [r7, #12]
 3640 0042 0A22     		movs	r2, #10
ARM GAS  /var/folders/d2/nstgp4h54kz7g1l847x_b8wc0000gn/T//ccFI0sM2.s 			page 66


 3641 0044 1A70     		strb	r2, [r3]
 3642 0046 0023     		movs	r3, #0
 3643              	.L266:
 3644 0048 1846     		mov	r0, r3
 3645 004a 1037     		adds	r7, r7, #16
 3646 004c BD46     		mov	sp, r7
 3647              		@ sp needed
 3648 004e 80BD     		pop	{r7, pc}
 3649              		.size	cmp_write_fixext16, .-cmp_write_fixext16
 3650              		.section	.text.cmp_write_ext8_marker,"ax",%progbits
 3651              		.align	1
 3652              		.global	cmp_write_ext8_marker
 3653              		.syntax unified
 3654              		.thumb
 3655              		.thumb_func
 3656              		.fpu fpv4-sp-d16
 3657              		.type	cmp_write_ext8_marker, %function
 3658              	cmp_write_ext8_marker:
 3659              		@ args = 0, pretend = 0, frame = 8
 3660              		@ frame_needed = 1, uses_anonymous_args = 0
 3661 0000 80B5     		push	{r7, lr}
 3662 0002 82B0     		sub	sp, sp, #8
 3663 0004 00AF     		add	r7, sp, #0
 3664 0006 7860     		str	r0, [r7, #4]
 3665 0008 0B46     		mov	r3, r1
 3666 000a FB70     		strb	r3, [r7, #3]
 3667 000c 1346     		mov	r3, r2
 3668 000e BB70     		strb	r3, [r7, #2]
 3669 0010 C721     		movs	r1, #199
 3670 0012 7868     		ldr	r0, [r7, #4]
 3671 0014 FFF7FEFF 		bl	write_type_marker
 3672 0018 0346     		mov	r3, r0
 3673 001a 83F00103 		eor	r3, r3, #1
 3674 001e DBB2     		uxtb	r3, r3
 3675 0020 002B     		cmp	r3, #0
 3676 0022 01D0     		beq	.L269
 3677 0024 0023     		movs	r3, #0
 3678 0026 1CE0     		b	.L270
 3679              	.L269:
 3680 0028 7B68     		ldr	r3, [r7, #4]
 3681 002a DB68     		ldr	r3, [r3, #12]
 3682 002c B91C     		adds	r1, r7, #2
 3683 002e 0122     		movs	r2, #1
 3684 0030 7868     		ldr	r0, [r7, #4]
 3685 0032 9847     		blx	r3
 3686 0034 0346     		mov	r3, r0
 3687 0036 002B     		cmp	r3, #0
 3688 0038 04D1     		bne	.L271
 3689 003a 7B68     		ldr	r3, [r7, #4]
 3690 003c 0F22     		movs	r2, #15
 3691 003e 1A70     		strb	r2, [r3]
 3692 0040 0023     		movs	r3, #0
 3693 0042 0EE0     		b	.L270
 3694              	.L271:
 3695 0044 7B68     		ldr	r3, [r7, #4]
 3696 0046 DB68     		ldr	r3, [r3, #12]
 3697 0048 F91C     		adds	r1, r7, #3
ARM GAS  /var/folders/d2/nstgp4h54kz7g1l847x_b8wc0000gn/T//ccFI0sM2.s 			page 67


 3698 004a 0122     		movs	r2, #1
 3699 004c 7868     		ldr	r0, [r7, #4]
 3700 004e 9847     		blx	r3
 3701 0050 0346     		mov	r3, r0
 3702 0052 002B     		cmp	r3, #0
 3703 0054 01D0     		beq	.L272
 3704 0056 0123     		movs	r3, #1
 3705 0058 03E0     		b	.L270
 3706              	.L272:
 3707 005a 7B68     		ldr	r3, [r7, #4]
 3708 005c 0C22     		movs	r2, #12
 3709 005e 1A70     		strb	r2, [r3]
 3710 0060 0023     		movs	r3, #0
 3711              	.L270:
 3712 0062 1846     		mov	r0, r3
 3713 0064 0837     		adds	r7, r7, #8
 3714 0066 BD46     		mov	sp, r7
 3715              		@ sp needed
 3716 0068 80BD     		pop	{r7, pc}
 3717              		.size	cmp_write_ext8_marker, .-cmp_write_ext8_marker
 3718              		.section	.text.cmp_write_ext8,"ax",%progbits
 3719              		.align	1
 3720              		.global	cmp_write_ext8
 3721              		.syntax unified
 3722              		.thumb
 3723              		.thumb_func
 3724              		.fpu fpv4-sp-d16
 3725              		.type	cmp_write_ext8, %function
 3726              	cmp_write_ext8:
 3727              		@ args = 0, pretend = 0, frame = 16
 3728              		@ frame_needed = 1, uses_anonymous_args = 0
 3729 0000 80B5     		push	{r7, lr}
 3730 0002 84B0     		sub	sp, sp, #16
 3731 0004 00AF     		add	r7, sp, #0
 3732 0006 F860     		str	r0, [r7, #12]
 3733 0008 7B60     		str	r3, [r7, #4]
 3734 000a 0B46     		mov	r3, r1
 3735 000c FB72     		strb	r3, [r7, #11]
 3736 000e 1346     		mov	r3, r2
 3737 0010 BB72     		strb	r3, [r7, #10]
 3738 0012 BA7A     		ldrb	r2, [r7, #10]	@ zero_extendqisi2
 3739 0014 97F90B30 		ldrsb	r3, [r7, #11]
 3740 0018 1946     		mov	r1, r3
 3741 001a F868     		ldr	r0, [r7, #12]
 3742 001c FFF7FEFF 		bl	cmp_write_ext8_marker
 3743 0020 0346     		mov	r3, r0
 3744 0022 83F00103 		eor	r3, r3, #1
 3745 0026 DBB2     		uxtb	r3, r3
 3746 0028 002B     		cmp	r3, #0
 3747 002a 01D0     		beq	.L274
 3748 002c 0023     		movs	r3, #0
 3749 002e 0EE0     		b	.L275
 3750              	.L274:
 3751 0030 FB68     		ldr	r3, [r7, #12]
 3752 0032 DB68     		ldr	r3, [r3, #12]
 3753 0034 BA7A     		ldrb	r2, [r7, #10]	@ zero_extendqisi2
 3754 0036 7968     		ldr	r1, [r7, #4]
ARM GAS  /var/folders/d2/nstgp4h54kz7g1l847x_b8wc0000gn/T//ccFI0sM2.s 			page 68


 3755 0038 F868     		ldr	r0, [r7, #12]
 3756 003a 9847     		blx	r3
 3757 003c 0346     		mov	r3, r0
 3758 003e 002B     		cmp	r3, #0
 3759 0040 01D0     		beq	.L276
 3760 0042 0123     		movs	r3, #1
 3761 0044 03E0     		b	.L275
 3762              	.L276:
 3763 0046 FB68     		ldr	r3, [r7, #12]
 3764 0048 0A22     		movs	r2, #10
 3765 004a 1A70     		strb	r2, [r3]
 3766 004c 0023     		movs	r3, #0
 3767              	.L275:
 3768 004e 1846     		mov	r0, r3
 3769 0050 1037     		adds	r7, r7, #16
 3770 0052 BD46     		mov	sp, r7
 3771              		@ sp needed
 3772 0054 80BD     		pop	{r7, pc}
 3773              		.size	cmp_write_ext8, .-cmp_write_ext8
 3774              		.section	.text.cmp_write_ext16_marker,"ax",%progbits
 3775              		.align	1
 3776              		.global	cmp_write_ext16_marker
 3777              		.syntax unified
 3778              		.thumb
 3779              		.thumb_func
 3780              		.fpu fpv4-sp-d16
 3781              		.type	cmp_write_ext16_marker, %function
 3782              	cmp_write_ext16_marker:
 3783              		@ args = 0, pretend = 0, frame = 8
 3784              		@ frame_needed = 1, uses_anonymous_args = 0
 3785 0000 80B5     		push	{r7, lr}
 3786 0002 82B0     		sub	sp, sp, #8
 3787 0004 00AF     		add	r7, sp, #0
 3788 0006 7860     		str	r0, [r7, #4]
 3789 0008 0B46     		mov	r3, r1
 3790 000a FB70     		strb	r3, [r7, #3]
 3791 000c 1346     		mov	r3, r2	@ movhi
 3792 000e 3B80     		strh	r3, [r7]	@ movhi
 3793 0010 C821     		movs	r1, #200
 3794 0012 7868     		ldr	r0, [r7, #4]
 3795 0014 FFF7FEFF 		bl	write_type_marker
 3796 0018 0346     		mov	r3, r0
 3797 001a 83F00103 		eor	r3, r3, #1
 3798 001e DBB2     		uxtb	r3, r3
 3799 0020 002B     		cmp	r3, #0
 3800 0022 01D0     		beq	.L278
 3801 0024 0023     		movs	r3, #0
 3802 0026 22E0     		b	.L279
 3803              	.L278:
 3804 0028 3B88     		ldrh	r3, [r7]
 3805 002a 1846     		mov	r0, r3
 3806 002c FFF7FEFF 		bl	be16
 3807 0030 0346     		mov	r3, r0
 3808 0032 3B80     		strh	r3, [r7]	@ movhi
 3809 0034 7B68     		ldr	r3, [r7, #4]
 3810 0036 DB68     		ldr	r3, [r3, #12]
 3811 0038 3946     		mov	r1, r7
ARM GAS  /var/folders/d2/nstgp4h54kz7g1l847x_b8wc0000gn/T//ccFI0sM2.s 			page 69


 3812 003a 0222     		movs	r2, #2
 3813 003c 7868     		ldr	r0, [r7, #4]
 3814 003e 9847     		blx	r3
 3815 0040 0346     		mov	r3, r0
 3816 0042 002B     		cmp	r3, #0
 3817 0044 04D1     		bne	.L280
 3818 0046 7B68     		ldr	r3, [r7, #4]
 3819 0048 0F22     		movs	r2, #15
 3820 004a 1A70     		strb	r2, [r3]
 3821 004c 0023     		movs	r3, #0
 3822 004e 0EE0     		b	.L279
 3823              	.L280:
 3824 0050 7B68     		ldr	r3, [r7, #4]
 3825 0052 DB68     		ldr	r3, [r3, #12]
 3826 0054 F91C     		adds	r1, r7, #3
 3827 0056 0122     		movs	r2, #1
 3828 0058 7868     		ldr	r0, [r7, #4]
 3829 005a 9847     		blx	r3
 3830 005c 0346     		mov	r3, r0
 3831 005e 002B     		cmp	r3, #0
 3832 0060 01D0     		beq	.L281
 3833 0062 0123     		movs	r3, #1
 3834 0064 03E0     		b	.L279
 3835              	.L281:
 3836 0066 7B68     		ldr	r3, [r7, #4]
 3837 0068 0C22     		movs	r2, #12
 3838 006a 1A70     		strb	r2, [r3]
 3839 006c 0023     		movs	r3, #0
 3840              	.L279:
 3841 006e 1846     		mov	r0, r3
 3842 0070 0837     		adds	r7, r7, #8
 3843 0072 BD46     		mov	sp, r7
 3844              		@ sp needed
 3845 0074 80BD     		pop	{r7, pc}
 3846              		.size	cmp_write_ext16_marker, .-cmp_write_ext16_marker
 3847              		.section	.text.cmp_write_ext16,"ax",%progbits
 3848              		.align	1
 3849              		.global	cmp_write_ext16
 3850              		.syntax unified
 3851              		.thumb
 3852              		.thumb_func
 3853              		.fpu fpv4-sp-d16
 3854              		.type	cmp_write_ext16, %function
 3855              	cmp_write_ext16:
 3856              		@ args = 0, pretend = 0, frame = 16
 3857              		@ frame_needed = 1, uses_anonymous_args = 0
 3858 0000 80B5     		push	{r7, lr}
 3859 0002 84B0     		sub	sp, sp, #16
 3860 0004 00AF     		add	r7, sp, #0
 3861 0006 F860     		str	r0, [r7, #12]
 3862 0008 7B60     		str	r3, [r7, #4]
 3863 000a 0B46     		mov	r3, r1
 3864 000c FB72     		strb	r3, [r7, #11]
 3865 000e 1346     		mov	r3, r2	@ movhi
 3866 0010 3B81     		strh	r3, [r7, #8]	@ movhi
 3867 0012 3A89     		ldrh	r2, [r7, #8]
 3868 0014 97F90B30 		ldrsb	r3, [r7, #11]
ARM GAS  /var/folders/d2/nstgp4h54kz7g1l847x_b8wc0000gn/T//ccFI0sM2.s 			page 70


 3869 0018 1946     		mov	r1, r3
 3870 001a F868     		ldr	r0, [r7, #12]
 3871 001c FFF7FEFF 		bl	cmp_write_ext16_marker
 3872 0020 0346     		mov	r3, r0
 3873 0022 83F00103 		eor	r3, r3, #1
 3874 0026 DBB2     		uxtb	r3, r3
 3875 0028 002B     		cmp	r3, #0
 3876 002a 01D0     		beq	.L283
 3877 002c 0023     		movs	r3, #0
 3878 002e 0EE0     		b	.L284
 3879              	.L283:
 3880 0030 FB68     		ldr	r3, [r7, #12]
 3881 0032 DB68     		ldr	r3, [r3, #12]
 3882 0034 3A89     		ldrh	r2, [r7, #8]
 3883 0036 7968     		ldr	r1, [r7, #4]
 3884 0038 F868     		ldr	r0, [r7, #12]
 3885 003a 9847     		blx	r3
 3886 003c 0346     		mov	r3, r0
 3887 003e 002B     		cmp	r3, #0
 3888 0040 01D0     		beq	.L285
 3889 0042 0123     		movs	r3, #1
 3890 0044 03E0     		b	.L284
 3891              	.L285:
 3892 0046 FB68     		ldr	r3, [r7, #12]
 3893 0048 0A22     		movs	r2, #10
 3894 004a 1A70     		strb	r2, [r3]
 3895 004c 0023     		movs	r3, #0
 3896              	.L284:
 3897 004e 1846     		mov	r0, r3
 3898 0050 1037     		adds	r7, r7, #16
 3899 0052 BD46     		mov	sp, r7
 3900              		@ sp needed
 3901 0054 80BD     		pop	{r7, pc}
 3902              		.size	cmp_write_ext16, .-cmp_write_ext16
 3903              		.section	.text.cmp_write_ext32_marker,"ax",%progbits
 3904              		.align	1
 3905              		.global	cmp_write_ext32_marker
 3906              		.syntax unified
 3907              		.thumb
 3908              		.thumb_func
 3909              		.fpu fpv4-sp-d16
 3910              		.type	cmp_write_ext32_marker, %function
 3911              	cmp_write_ext32_marker:
 3912              		@ args = 0, pretend = 0, frame = 16
 3913              		@ frame_needed = 1, uses_anonymous_args = 0
 3914 0000 80B5     		push	{r7, lr}
 3915 0002 84B0     		sub	sp, sp, #16
 3916 0004 00AF     		add	r7, sp, #0
 3917 0006 F860     		str	r0, [r7, #12]
 3918 0008 0B46     		mov	r3, r1
 3919 000a 7A60     		str	r2, [r7, #4]
 3920 000c FB72     		strb	r3, [r7, #11]
 3921 000e C921     		movs	r1, #201
 3922 0010 F868     		ldr	r0, [r7, #12]
 3923 0012 FFF7FEFF 		bl	write_type_marker
 3924 0016 0346     		mov	r3, r0
 3925 0018 83F00103 		eor	r3, r3, #1
ARM GAS  /var/folders/d2/nstgp4h54kz7g1l847x_b8wc0000gn/T//ccFI0sM2.s 			page 71


 3926 001c DBB2     		uxtb	r3, r3
 3927 001e 002B     		cmp	r3, #0
 3928 0020 01D0     		beq	.L287
 3929 0022 0023     		movs	r3, #0
 3930 0024 23E0     		b	.L288
 3931              	.L287:
 3932 0026 7B68     		ldr	r3, [r7, #4]
 3933 0028 1846     		mov	r0, r3
 3934 002a FFF7FEFF 		bl	be32
 3935 002e 0346     		mov	r3, r0
 3936 0030 7B60     		str	r3, [r7, #4]
 3937 0032 FB68     		ldr	r3, [r7, #12]
 3938 0034 DB68     		ldr	r3, [r3, #12]
 3939 0036 391D     		adds	r1, r7, #4
 3940 0038 0422     		movs	r2, #4
 3941 003a F868     		ldr	r0, [r7, #12]
 3942 003c 9847     		blx	r3
 3943 003e 0346     		mov	r3, r0
 3944 0040 002B     		cmp	r3, #0
 3945 0042 04D1     		bne	.L289
 3946 0044 FB68     		ldr	r3, [r7, #12]
 3947 0046 0F22     		movs	r2, #15
 3948 0048 1A70     		strb	r2, [r3]
 3949 004a 0023     		movs	r3, #0
 3950 004c 0FE0     		b	.L288
 3951              	.L289:
 3952 004e FB68     		ldr	r3, [r7, #12]
 3953 0050 DB68     		ldr	r3, [r3, #12]
 3954 0052 07F10B01 		add	r1, r7, #11
 3955 0056 0122     		movs	r2, #1
 3956 0058 F868     		ldr	r0, [r7, #12]
 3957 005a 9847     		blx	r3
 3958 005c 0346     		mov	r3, r0
 3959 005e 002B     		cmp	r3, #0
 3960 0060 01D0     		beq	.L290
 3961 0062 0123     		movs	r3, #1
 3962 0064 03E0     		b	.L288
 3963              	.L290:
 3964 0066 FB68     		ldr	r3, [r7, #12]
 3965 0068 0C22     		movs	r2, #12
 3966 006a 1A70     		strb	r2, [r3]
 3967 006c 0023     		movs	r3, #0
 3968              	.L288:
 3969 006e 1846     		mov	r0, r3
 3970 0070 1037     		adds	r7, r7, #16
 3971 0072 BD46     		mov	sp, r7
 3972              		@ sp needed
 3973 0074 80BD     		pop	{r7, pc}
 3974              		.size	cmp_write_ext32_marker, .-cmp_write_ext32_marker
 3975              		.section	.text.cmp_write_ext32,"ax",%progbits
 3976              		.align	1
 3977              		.global	cmp_write_ext32
 3978              		.syntax unified
 3979              		.thumb
 3980              		.thumb_func
 3981              		.fpu fpv4-sp-d16
 3982              		.type	cmp_write_ext32, %function
ARM GAS  /var/folders/d2/nstgp4h54kz7g1l847x_b8wc0000gn/T//ccFI0sM2.s 			page 72


 3983              	cmp_write_ext32:
 3984              		@ args = 0, pretend = 0, frame = 16
 3985              		@ frame_needed = 1, uses_anonymous_args = 0
 3986 0000 80B5     		push	{r7, lr}
 3987 0002 84B0     		sub	sp, sp, #16
 3988 0004 00AF     		add	r7, sp, #0
 3989 0006 F860     		str	r0, [r7, #12]
 3990 0008 7A60     		str	r2, [r7, #4]
 3991 000a 3B60     		str	r3, [r7]
 3992 000c 0B46     		mov	r3, r1
 3993 000e FB72     		strb	r3, [r7, #11]
 3994 0010 97F90B30 		ldrsb	r3, [r7, #11]
 3995 0014 7A68     		ldr	r2, [r7, #4]
 3996 0016 1946     		mov	r1, r3
 3997 0018 F868     		ldr	r0, [r7, #12]
 3998 001a FFF7FEFF 		bl	cmp_write_ext32_marker
 3999 001e 0346     		mov	r3, r0
 4000 0020 83F00103 		eor	r3, r3, #1
 4001 0024 DBB2     		uxtb	r3, r3
 4002 0026 002B     		cmp	r3, #0
 4003 0028 01D0     		beq	.L292
 4004 002a 0023     		movs	r3, #0
 4005 002c 0EE0     		b	.L293
 4006              	.L292:
 4007 002e FB68     		ldr	r3, [r7, #12]
 4008 0030 DB68     		ldr	r3, [r3, #12]
 4009 0032 7A68     		ldr	r2, [r7, #4]
 4010 0034 3968     		ldr	r1, [r7]
 4011 0036 F868     		ldr	r0, [r7, #12]
 4012 0038 9847     		blx	r3
 4013 003a 0346     		mov	r3, r0
 4014 003c 002B     		cmp	r3, #0
 4015 003e 01D0     		beq	.L294
 4016 0040 0123     		movs	r3, #1
 4017 0042 03E0     		b	.L293
 4018              	.L294:
 4019 0044 FB68     		ldr	r3, [r7, #12]
 4020 0046 0A22     		movs	r2, #10
 4021 0048 1A70     		strb	r2, [r3]
 4022 004a 0023     		movs	r3, #0
 4023              	.L293:
 4024 004c 1846     		mov	r0, r3
 4025 004e 1037     		adds	r7, r7, #16
 4026 0050 BD46     		mov	sp, r7
 4027              		@ sp needed
 4028 0052 80BD     		pop	{r7, pc}
 4029              		.size	cmp_write_ext32, .-cmp_write_ext32
 4030              		.section	.text.cmp_write_ext_marker,"ax",%progbits
 4031              		.align	1
 4032              		.global	cmp_write_ext_marker
 4033              		.syntax unified
 4034              		.thumb
 4035              		.thumb_func
 4036              		.fpu fpv4-sp-d16
 4037              		.type	cmp_write_ext_marker, %function
 4038              	cmp_write_ext_marker:
 4039              		@ args = 0, pretend = 0, frame = 16
ARM GAS  /var/folders/d2/nstgp4h54kz7g1l847x_b8wc0000gn/T//ccFI0sM2.s 			page 73


 4040              		@ frame_needed = 1, uses_anonymous_args = 0
 4041 0000 80B5     		push	{r7, lr}
 4042 0002 84B0     		sub	sp, sp, #16
 4043 0004 00AF     		add	r7, sp, #0
 4044 0006 F860     		str	r0, [r7, #12]
 4045 0008 0B46     		mov	r3, r1
 4046 000a 7A60     		str	r2, [r7, #4]
 4047 000c FB72     		strb	r3, [r7, #11]
 4048 000e 7B68     		ldr	r3, [r7, #4]
 4049 0010 012B     		cmp	r3, #1
 4050 0012 07D1     		bne	.L296
 4051 0014 97F90B30 		ldrsb	r3, [r7, #11]
 4052 0018 1946     		mov	r1, r3
 4053 001a F868     		ldr	r0, [r7, #12]
 4054 001c FFF7FEFF 		bl	cmp_write_fixext1_marker
 4055 0020 0346     		mov	r3, r0
 4056 0022 4EE0     		b	.L297
 4057              	.L296:
 4058 0024 7B68     		ldr	r3, [r7, #4]
 4059 0026 022B     		cmp	r3, #2
 4060 0028 07D1     		bne	.L298
 4061 002a 97F90B30 		ldrsb	r3, [r7, #11]
 4062 002e 1946     		mov	r1, r3
 4063 0030 F868     		ldr	r0, [r7, #12]
 4064 0032 FFF7FEFF 		bl	cmp_write_fixext2_marker
 4065 0036 0346     		mov	r3, r0
 4066 0038 43E0     		b	.L297
 4067              	.L298:
 4068 003a 7B68     		ldr	r3, [r7, #4]
 4069 003c 042B     		cmp	r3, #4
 4070 003e 07D1     		bne	.L299
 4071 0040 97F90B30 		ldrsb	r3, [r7, #11]
 4072 0044 1946     		mov	r1, r3
 4073 0046 F868     		ldr	r0, [r7, #12]
 4074 0048 FFF7FEFF 		bl	cmp_write_fixext4_marker
 4075 004c 0346     		mov	r3, r0
 4076 004e 38E0     		b	.L297
 4077              	.L299:
 4078 0050 7B68     		ldr	r3, [r7, #4]
 4079 0052 082B     		cmp	r3, #8
 4080 0054 07D1     		bne	.L300
 4081 0056 97F90B30 		ldrsb	r3, [r7, #11]
 4082 005a 1946     		mov	r1, r3
 4083 005c F868     		ldr	r0, [r7, #12]
 4084 005e FFF7FEFF 		bl	cmp_write_fixext8_marker
 4085 0062 0346     		mov	r3, r0
 4086 0064 2DE0     		b	.L297
 4087              	.L300:
 4088 0066 7B68     		ldr	r3, [r7, #4]
 4089 0068 102B     		cmp	r3, #16
 4090 006a 07D1     		bne	.L301
 4091 006c 97F90B30 		ldrsb	r3, [r7, #11]
 4092 0070 1946     		mov	r1, r3
 4093 0072 F868     		ldr	r0, [r7, #12]
 4094 0074 FFF7FEFF 		bl	cmp_write_fixext16_marker
 4095 0078 0346     		mov	r3, r0
 4096 007a 22E0     		b	.L297
ARM GAS  /var/folders/d2/nstgp4h54kz7g1l847x_b8wc0000gn/T//ccFI0sM2.s 			page 74


 4097              	.L301:
 4098 007c 7B68     		ldr	r3, [r7, #4]
 4099 007e FF2B     		cmp	r3, #255
 4100 0080 09D8     		bhi	.L302
 4101 0082 7B68     		ldr	r3, [r7, #4]
 4102 0084 DAB2     		uxtb	r2, r3
 4103 0086 97F90B30 		ldrsb	r3, [r7, #11]
 4104 008a 1946     		mov	r1, r3
 4105 008c F868     		ldr	r0, [r7, #12]
 4106 008e FFF7FEFF 		bl	cmp_write_ext8_marker
 4107 0092 0346     		mov	r3, r0
 4108 0094 15E0     		b	.L297
 4109              	.L302:
 4110 0096 7B68     		ldr	r3, [r7, #4]
 4111 0098 B3F5803F 		cmp	r3, #65536
 4112 009c 09D2     		bcs	.L303
 4113 009e 7B68     		ldr	r3, [r7, #4]
 4114 00a0 9AB2     		uxth	r2, r3
 4115 00a2 97F90B30 		ldrsb	r3, [r7, #11]
 4116 00a6 1946     		mov	r1, r3
 4117 00a8 F868     		ldr	r0, [r7, #12]
 4118 00aa FFF7FEFF 		bl	cmp_write_ext16_marker
 4119 00ae 0346     		mov	r3, r0
 4120 00b0 07E0     		b	.L297
 4121              	.L303:
 4122 00b2 97F90B30 		ldrsb	r3, [r7, #11]
 4123 00b6 7A68     		ldr	r2, [r7, #4]
 4124 00b8 1946     		mov	r1, r3
 4125 00ba F868     		ldr	r0, [r7, #12]
 4126 00bc FFF7FEFF 		bl	cmp_write_ext32_marker
 4127 00c0 0346     		mov	r3, r0
 4128              	.L297:
 4129 00c2 1846     		mov	r0, r3
 4130 00c4 1037     		adds	r7, r7, #16
 4131 00c6 BD46     		mov	sp, r7
 4132              		@ sp needed
 4133 00c8 80BD     		pop	{r7, pc}
 4134              		.size	cmp_write_ext_marker, .-cmp_write_ext_marker
 4135              		.section	.text.cmp_write_ext,"ax",%progbits
 4136              		.align	1
 4137              		.global	cmp_write_ext
 4138              		.syntax unified
 4139              		.thumb
 4140              		.thumb_func
 4141              		.fpu fpv4-sp-d16
 4142              		.type	cmp_write_ext, %function
 4143              	cmp_write_ext:
 4144              		@ args = 0, pretend = 0, frame = 16
 4145              		@ frame_needed = 1, uses_anonymous_args = 0
 4146 0000 80B5     		push	{r7, lr}
 4147 0002 84B0     		sub	sp, sp, #16
 4148 0004 00AF     		add	r7, sp, #0
 4149 0006 F860     		str	r0, [r7, #12]
 4150 0008 7A60     		str	r2, [r7, #4]
 4151 000a 3B60     		str	r3, [r7]
 4152 000c 0B46     		mov	r3, r1
 4153 000e FB72     		strb	r3, [r7, #11]
ARM GAS  /var/folders/d2/nstgp4h54kz7g1l847x_b8wc0000gn/T//ccFI0sM2.s 			page 75


 4154 0010 7B68     		ldr	r3, [r7, #4]
 4155 0012 012B     		cmp	r3, #1
 4156 0014 08D1     		bne	.L305
 4157 0016 97F90B30 		ldrsb	r3, [r7, #11]
 4158 001a 3A68     		ldr	r2, [r7]
 4159 001c 1946     		mov	r1, r3
 4160 001e F868     		ldr	r0, [r7, #12]
 4161 0020 FFF7FEFF 		bl	cmp_write_fixext1
 4162 0024 0346     		mov	r3, r0
 4163 0026 52E0     		b	.L306
 4164              	.L305:
 4165 0028 7B68     		ldr	r3, [r7, #4]
 4166 002a 022B     		cmp	r3, #2
 4167 002c 08D1     		bne	.L307
 4168 002e 97F90B30 		ldrsb	r3, [r7, #11]
 4169 0032 3A68     		ldr	r2, [r7]
 4170 0034 1946     		mov	r1, r3
 4171 0036 F868     		ldr	r0, [r7, #12]
 4172 0038 FFF7FEFF 		bl	cmp_write_fixext2
 4173 003c 0346     		mov	r3, r0
 4174 003e 46E0     		b	.L306
 4175              	.L307:
 4176 0040 7B68     		ldr	r3, [r7, #4]
 4177 0042 042B     		cmp	r3, #4
 4178 0044 08D1     		bne	.L308
 4179 0046 97F90B30 		ldrsb	r3, [r7, #11]
 4180 004a 3A68     		ldr	r2, [r7]
 4181 004c 1946     		mov	r1, r3
 4182 004e F868     		ldr	r0, [r7, #12]
 4183 0050 FFF7FEFF 		bl	cmp_write_fixext4
 4184 0054 0346     		mov	r3, r0
 4185 0056 3AE0     		b	.L306
 4186              	.L308:
 4187 0058 7B68     		ldr	r3, [r7, #4]
 4188 005a 082B     		cmp	r3, #8
 4189 005c 08D1     		bne	.L309
 4190 005e 97F90B30 		ldrsb	r3, [r7, #11]
 4191 0062 3A68     		ldr	r2, [r7]
 4192 0064 1946     		mov	r1, r3
 4193 0066 F868     		ldr	r0, [r7, #12]
 4194 0068 FFF7FEFF 		bl	cmp_write_fixext8
 4195 006c 0346     		mov	r3, r0
 4196 006e 2EE0     		b	.L306
 4197              	.L309:
 4198 0070 7B68     		ldr	r3, [r7, #4]
 4199 0072 102B     		cmp	r3, #16
 4200 0074 08D1     		bne	.L310
 4201 0076 97F90B30 		ldrsb	r3, [r7, #11]
 4202 007a 3A68     		ldr	r2, [r7]
 4203 007c 1946     		mov	r1, r3
 4204 007e F868     		ldr	r0, [r7, #12]
 4205 0080 FFF7FEFF 		bl	cmp_write_fixext16
 4206 0084 0346     		mov	r3, r0
 4207 0086 22E0     		b	.L306
 4208              	.L310:
 4209 0088 7B68     		ldr	r3, [r7, #4]
 4210 008a FF2B     		cmp	r3, #255
ARM GAS  /var/folders/d2/nstgp4h54kz7g1l847x_b8wc0000gn/T//ccFI0sM2.s 			page 76


 4211 008c 09D8     		bhi	.L311
 4212 008e 7B68     		ldr	r3, [r7, #4]
 4213 0090 DAB2     		uxtb	r2, r3
 4214 0092 97F90B10 		ldrsb	r1, [r7, #11]
 4215 0096 3B68     		ldr	r3, [r7]
 4216 0098 F868     		ldr	r0, [r7, #12]
 4217 009a FFF7FEFF 		bl	cmp_write_ext8
 4218 009e 0346     		mov	r3, r0
 4219 00a0 15E0     		b	.L306
 4220              	.L311:
 4221 00a2 7B68     		ldr	r3, [r7, #4]
 4222 00a4 B3F5803F 		cmp	r3, #65536
 4223 00a8 09D2     		bcs	.L312
 4224 00aa 7B68     		ldr	r3, [r7, #4]
 4225 00ac 9AB2     		uxth	r2, r3
 4226 00ae 97F90B10 		ldrsb	r1, [r7, #11]
 4227 00b2 3B68     		ldr	r3, [r7]
 4228 00b4 F868     		ldr	r0, [r7, #12]
 4229 00b6 FFF7FEFF 		bl	cmp_write_ext16
 4230 00ba 0346     		mov	r3, r0
 4231 00bc 07E0     		b	.L306
 4232              	.L312:
 4233 00be 97F90B10 		ldrsb	r1, [r7, #11]
 4234 00c2 3B68     		ldr	r3, [r7]
 4235 00c4 7A68     		ldr	r2, [r7, #4]
 4236 00c6 F868     		ldr	r0, [r7, #12]
 4237 00c8 FFF7FEFF 		bl	cmp_write_ext32
 4238 00cc 0346     		mov	r3, r0
 4239              	.L306:
 4240 00ce 1846     		mov	r0, r3
 4241 00d0 1037     		adds	r7, r7, #16
 4242 00d2 BD46     		mov	sp, r7
 4243              		@ sp needed
 4244 00d4 80BD     		pop	{r7, pc}
 4245              		.size	cmp_write_ext, .-cmp_write_ext
 4246              		.section	.text.cmp_write_object,"ax",%progbits
 4247              		.align	1
 4248              		.global	cmp_write_object
 4249              		.syntax unified
 4250              		.thumb
 4251              		.thumb_func
 4252              		.fpu fpv4-sp-d16
 4253              		.type	cmp_write_object, %function
 4254              	cmp_write_object:
 4255              		@ args = 0, pretend = 0, frame = 8
 4256              		@ frame_needed = 1, uses_anonymous_args = 0
 4257 0000 90B5     		push	{r4, r7, lr}
 4258 0002 83B0     		sub	sp, sp, #12
 4259 0004 00AF     		add	r7, sp, #0
 4260 0006 7860     		str	r0, [r7, #4]
 4261 0008 3960     		str	r1, [r7]
 4262 000a 3B68     		ldr	r3, [r7]
 4263 000c 1B78     		ldrb	r3, [r3]	@ zero_extendqisi2
 4264 000e 222B     		cmp	r3, #34
 4265 0010 00F28B81 		bhi	.L314
 4266 0014 01A2     		adr	r2, .L316
 4267 0016 52F823F0 		ldr	pc, [r2, r3, lsl #2]
ARM GAS  /var/folders/d2/nstgp4h54kz7g1l847x_b8wc0000gn/T//ccFI0sM2.s 			page 77


 4268 001a 00BF     		.p2align 2
 4269              	.L316:
 4270 001c A9000000 		.word	.L315+1
 4271 0020 B9000000 		.word	.L317+1
 4272 0024 CB000000 		.word	.L318+1
 4273 0028 DD000000 		.word	.L319+1
 4274 002c EF000000 		.word	.L320+1
 4275 0030 F9000000 		.word	.L321+1
 4276 0034 15010000 		.word	.L322+1
 4277 0038 27010000 		.word	.L323+1
 4278 003c 39010000 		.word	.L324+1
 4279 0040 49010000 		.word	.L325+1
 4280 0044 61010000 		.word	.L326+1
 4281 0048 79010000 		.word	.L327+1
 4282 004c 8F010000 		.word	.L328+1
 4283 0050 A3010000 		.word	.L329+1
 4284 0054 BB010000 		.word	.L330+1
 4285 0058 CB010000 		.word	.L331+1
 4286 005c DB010000 		.word	.L332+1
 4287 0060 EB010000 		.word	.L333+1
 4288 0064 FF010000 		.word	.L334+1
 4289 0068 11020000 		.word	.L335+1
 4290 006c 23020000 		.word	.L336+1
 4291 0070 33020000 		.word	.L337+1
 4292 0074 47020000 		.word	.L338+1
 4293 0078 59020000 		.word	.L339+1
 4294 007c 6B020000 		.word	.L340+1
 4295 0080 7D020000 		.word	.L341+1
 4296 0084 8F020000 		.word	.L342+1
 4297 0088 A1020000 		.word	.L343+1
 4298 008c B3020000 		.word	.L344+1
 4299 0090 C5020000 		.word	.L345+1
 4300 0094 D5020000 		.word	.L346+1
 4301 0098 E7020000 		.word	.L347+1
 4302 009c F7020000 		.word	.L348+1
 4303 00a0 09030000 		.word	.L349+1
 4304 00a4 19030000 		.word	.L350+1
 4305              		.p2align 1
 4306              	.L315:
 4307 00a8 3B68     		ldr	r3, [r7]
 4308 00aa 1B7A     		ldrb	r3, [r3, #8]	@ zero_extendqisi2
 4309 00ac 1946     		mov	r1, r3
 4310 00ae 7868     		ldr	r0, [r7, #4]
 4311 00b0 FFF7FEFF 		bl	cmp_write_pfix
 4312 00b4 0346     		mov	r3, r0
 4313 00b6 3CE1     		b	.L351
 4314              	.L317:
 4315 00b8 3B68     		ldr	r3, [r7]
 4316 00ba 9B68     		ldr	r3, [r3, #8]
 4317 00bc DBB2     		uxtb	r3, r3
 4318 00be 1946     		mov	r1, r3
 4319 00c0 7868     		ldr	r0, [r7, #4]
 4320 00c2 FFF7FEFF 		bl	cmp_write_fixmap
 4321 00c6 0346     		mov	r3, r0
 4322 00c8 33E1     		b	.L351
 4323              	.L318:
 4324 00ca 3B68     		ldr	r3, [r7]
ARM GAS  /var/folders/d2/nstgp4h54kz7g1l847x_b8wc0000gn/T//ccFI0sM2.s 			page 78


 4325 00cc 9B68     		ldr	r3, [r3, #8]
 4326 00ce DBB2     		uxtb	r3, r3
 4327 00d0 1946     		mov	r1, r3
 4328 00d2 7868     		ldr	r0, [r7, #4]
 4329 00d4 FFF7FEFF 		bl	cmp_write_fixarray
 4330 00d8 0346     		mov	r3, r0
 4331 00da 2AE1     		b	.L351
 4332              	.L319:
 4333 00dc 3B68     		ldr	r3, [r7]
 4334 00de 9B68     		ldr	r3, [r3, #8]
 4335 00e0 DBB2     		uxtb	r3, r3
 4336 00e2 1946     		mov	r1, r3
 4337 00e4 7868     		ldr	r0, [r7, #4]
 4338 00e6 FFF7FEFF 		bl	cmp_write_fixstr_marker
 4339 00ea 0346     		mov	r3, r0
 4340 00ec 21E1     		b	.L351
 4341              	.L320:
 4342 00ee 7868     		ldr	r0, [r7, #4]
 4343 00f0 FFF7FEFF 		bl	cmp_write_nil
 4344 00f4 0346     		mov	r3, r0
 4345 00f6 1CE1     		b	.L351
 4346              	.L321:
 4347 00f8 3B68     		ldr	r3, [r7]
 4348 00fa 1B7A     		ldrb	r3, [r3, #8]	@ zero_extendqisi2
 4349 00fc 002B     		cmp	r3, #0
 4350 00fe 04D0     		beq	.L352
 4351 0100 7868     		ldr	r0, [r7, #4]
 4352 0102 FFF7FEFF 		bl	cmp_write_true
 4353 0106 0346     		mov	r3, r0
 4354 0108 13E1     		b	.L351
 4355              	.L352:
 4356 010a 7868     		ldr	r0, [r7, #4]
 4357 010c FFF7FEFF 		bl	cmp_write_false
 4358 0110 0346     		mov	r3, r0
 4359 0112 0EE1     		b	.L351
 4360              	.L322:
 4361 0114 3B68     		ldr	r3, [r7]
 4362 0116 9B68     		ldr	r3, [r3, #8]
 4363 0118 DBB2     		uxtb	r3, r3
 4364 011a 1946     		mov	r1, r3
 4365 011c 7868     		ldr	r0, [r7, #4]
 4366 011e FFF7FEFF 		bl	cmp_write_bin8_marker
 4367 0122 0346     		mov	r3, r0
 4368 0124 05E1     		b	.L351
 4369              	.L323:
 4370 0126 3B68     		ldr	r3, [r7]
 4371 0128 9B68     		ldr	r3, [r3, #8]
 4372 012a 9BB2     		uxth	r3, r3
 4373 012c 1946     		mov	r1, r3
 4374 012e 7868     		ldr	r0, [r7, #4]
 4375 0130 FFF7FEFF 		bl	cmp_write_bin16_marker
 4376 0134 0346     		mov	r3, r0
 4377 0136 FCE0     		b	.L351
 4378              	.L324:
 4379 0138 3B68     		ldr	r3, [r7]
 4380 013a 9B68     		ldr	r3, [r3, #8]
 4381 013c 1946     		mov	r1, r3
ARM GAS  /var/folders/d2/nstgp4h54kz7g1l847x_b8wc0000gn/T//ccFI0sM2.s 			page 79


 4382 013e 7868     		ldr	r0, [r7, #4]
 4383 0140 FFF7FEFF 		bl	cmp_write_bin32_marker
 4384 0144 0346     		mov	r3, r0
 4385 0146 F4E0     		b	.L351
 4386              	.L325:
 4387 0148 3B68     		ldr	r3, [r7]
 4388 014a 93F90810 		ldrsb	r1, [r3, #8]
 4389 014e 3B68     		ldr	r3, [r7]
 4390 0150 DB68     		ldr	r3, [r3, #12]
 4391 0152 DBB2     		uxtb	r3, r3
 4392 0154 1A46     		mov	r2, r3
 4393 0156 7868     		ldr	r0, [r7, #4]
 4394 0158 FFF7FEFF 		bl	cmp_write_ext8_marker
 4395 015c 0346     		mov	r3, r0
 4396 015e E8E0     		b	.L351
 4397              	.L326:
 4398 0160 3B68     		ldr	r3, [r7]
 4399 0162 93F90810 		ldrsb	r1, [r3, #8]
 4400 0166 3B68     		ldr	r3, [r7]
 4401 0168 DB68     		ldr	r3, [r3, #12]
 4402 016a 9BB2     		uxth	r3, r3
 4403 016c 1A46     		mov	r2, r3
 4404 016e 7868     		ldr	r0, [r7, #4]
 4405 0170 FFF7FEFF 		bl	cmp_write_ext16_marker
 4406 0174 0346     		mov	r3, r0
 4407 0176 DCE0     		b	.L351
 4408              	.L327:
 4409 0178 3B68     		ldr	r3, [r7]
 4410 017a 93F90810 		ldrsb	r1, [r3, #8]
 4411 017e 3B68     		ldr	r3, [r7]
 4412 0180 DB68     		ldr	r3, [r3, #12]
 4413 0182 1A46     		mov	r2, r3
 4414 0184 7868     		ldr	r0, [r7, #4]
 4415 0186 FFF7FEFF 		bl	cmp_write_ext32_marker
 4416 018a 0346     		mov	r3, r0
 4417 018c D1E0     		b	.L351
 4418              	.L328:
 4419 018e 3B68     		ldr	r3, [r7]
 4420 0190 D3ED027A 		vldr.32	s15, [r3, #8]
 4421 0194 B0EE670A 		vmov.f32	s0, s15
 4422 0198 7868     		ldr	r0, [r7, #4]
 4423 019a FFF7FEFF 		bl	cmp_write_float
 4424 019e 0346     		mov	r3, r0
 4425 01a0 C7E0     		b	.L351
 4426              	.L329:
 4427 01a2 3B68     		ldr	r3, [r7]
 4428 01a4 93ED027B 		vldr.64	d7, [r3, #8]
 4429 01a8 B0EE470A 		vmov.f32	s0, s14
 4430 01ac F0EE670A 		vmov.f32	s1, s15
 4431 01b0 7868     		ldr	r0, [r7, #4]
 4432 01b2 FFF7FEFF 		bl	cmp_write_double
 4433 01b6 0346     		mov	r3, r0
 4434 01b8 BBE0     		b	.L351
 4435              	.L330:
 4436 01ba 3B68     		ldr	r3, [r7]
 4437 01bc 1B7A     		ldrb	r3, [r3, #8]	@ zero_extendqisi2
 4438 01be 1946     		mov	r1, r3
ARM GAS  /var/folders/d2/nstgp4h54kz7g1l847x_b8wc0000gn/T//ccFI0sM2.s 			page 80


 4439 01c0 7868     		ldr	r0, [r7, #4]
 4440 01c2 FFF7FEFF 		bl	cmp_write_u8
 4441 01c6 0346     		mov	r3, r0
 4442 01c8 B3E0     		b	.L351
 4443              	.L331:
 4444 01ca 3B68     		ldr	r3, [r7]
 4445 01cc 1B89     		ldrh	r3, [r3, #8]
 4446 01ce 1946     		mov	r1, r3
 4447 01d0 7868     		ldr	r0, [r7, #4]
 4448 01d2 FFF7FEFF 		bl	cmp_write_u16
 4449 01d6 0346     		mov	r3, r0
 4450 01d8 ABE0     		b	.L351
 4451              	.L332:
 4452 01da 3B68     		ldr	r3, [r7]
 4453 01dc 9B68     		ldr	r3, [r3, #8]
 4454 01de 1946     		mov	r1, r3
 4455 01e0 7868     		ldr	r0, [r7, #4]
 4456 01e2 FFF7FEFF 		bl	cmp_write_u32
 4457 01e6 0346     		mov	r3, r0
 4458 01e8 A3E0     		b	.L351
 4459              	.L333:
 4460 01ea 3B68     		ldr	r3, [r7]
 4461 01ec D3E90234 		ldrd	r3, [r3, #8]
 4462 01f0 1A46     		mov	r2, r3
 4463 01f2 2346     		mov	r3, r4
 4464 01f4 7868     		ldr	r0, [r7, #4]
 4465 01f6 FFF7FEFF 		bl	cmp_write_u64
 4466 01fa 0346     		mov	r3, r0
 4467 01fc 99E0     		b	.L351
 4468              	.L334:
 4469 01fe 3B68     		ldr	r3, [r7]
 4470 0200 93F90830 		ldrsb	r3, [r3, #8]
 4471 0204 1946     		mov	r1, r3
 4472 0206 7868     		ldr	r0, [r7, #4]
 4473 0208 FFF7FEFF 		bl	cmp_write_s8
 4474 020c 0346     		mov	r3, r0
 4475 020e 90E0     		b	.L351
 4476              	.L335:
 4477 0210 3B68     		ldr	r3, [r7]
 4478 0212 B3F90830 		ldrsh	r3, [r3, #8]
 4479 0216 1946     		mov	r1, r3
 4480 0218 7868     		ldr	r0, [r7, #4]
 4481 021a FFF7FEFF 		bl	cmp_write_s16
 4482 021e 0346     		mov	r3, r0
 4483 0220 87E0     		b	.L351
 4484              	.L336:
 4485 0222 3B68     		ldr	r3, [r7]
 4486 0224 9B68     		ldr	r3, [r3, #8]
 4487 0226 1946     		mov	r1, r3
 4488 0228 7868     		ldr	r0, [r7, #4]
 4489 022a FFF7FEFF 		bl	cmp_write_s32
 4490 022e 0346     		mov	r3, r0
 4491 0230 7FE0     		b	.L351
 4492              	.L337:
 4493 0232 3B68     		ldr	r3, [r7]
 4494 0234 D3E90234 		ldrd	r3, [r3, #8]
 4495 0238 1A46     		mov	r2, r3
ARM GAS  /var/folders/d2/nstgp4h54kz7g1l847x_b8wc0000gn/T//ccFI0sM2.s 			page 81


 4496 023a 2346     		mov	r3, r4
 4497 023c 7868     		ldr	r0, [r7, #4]
 4498 023e FFF7FEFF 		bl	cmp_write_s64
 4499 0242 0346     		mov	r3, r0
 4500 0244 75E0     		b	.L351
 4501              	.L338:
 4502 0246 3B68     		ldr	r3, [r7]
 4503 0248 93F90830 		ldrsb	r3, [r3, #8]
 4504 024c 1946     		mov	r1, r3
 4505 024e 7868     		ldr	r0, [r7, #4]
 4506 0250 FFF7FEFF 		bl	cmp_write_fixext1_marker
 4507 0254 0346     		mov	r3, r0
 4508 0256 6CE0     		b	.L351
 4509              	.L339:
 4510 0258 3B68     		ldr	r3, [r7]
 4511 025a 93F90830 		ldrsb	r3, [r3, #8]
 4512 025e 1946     		mov	r1, r3
 4513 0260 7868     		ldr	r0, [r7, #4]
 4514 0262 FFF7FEFF 		bl	cmp_write_fixext2_marker
 4515 0266 0346     		mov	r3, r0
 4516 0268 63E0     		b	.L351
 4517              	.L340:
 4518 026a 3B68     		ldr	r3, [r7]
 4519 026c 93F90830 		ldrsb	r3, [r3, #8]
 4520 0270 1946     		mov	r1, r3
 4521 0272 7868     		ldr	r0, [r7, #4]
 4522 0274 FFF7FEFF 		bl	cmp_write_fixext4_marker
 4523 0278 0346     		mov	r3, r0
 4524 027a 5AE0     		b	.L351
 4525              	.L341:
 4526 027c 3B68     		ldr	r3, [r7]
 4527 027e 93F90830 		ldrsb	r3, [r3, #8]
 4528 0282 1946     		mov	r1, r3
 4529 0284 7868     		ldr	r0, [r7, #4]
 4530 0286 FFF7FEFF 		bl	cmp_write_fixext8_marker
 4531 028a 0346     		mov	r3, r0
 4532 028c 51E0     		b	.L351
 4533              	.L342:
 4534 028e 3B68     		ldr	r3, [r7]
 4535 0290 93F90830 		ldrsb	r3, [r3, #8]
 4536 0294 1946     		mov	r1, r3
 4537 0296 7868     		ldr	r0, [r7, #4]
 4538 0298 FFF7FEFF 		bl	cmp_write_fixext16_marker
 4539 029c 0346     		mov	r3, r0
 4540 029e 48E0     		b	.L351
 4541              	.L343:
 4542 02a0 3B68     		ldr	r3, [r7]
 4543 02a2 9B68     		ldr	r3, [r3, #8]
 4544 02a4 DBB2     		uxtb	r3, r3
 4545 02a6 1946     		mov	r1, r3
 4546 02a8 7868     		ldr	r0, [r7, #4]
 4547 02aa FFF7FEFF 		bl	cmp_write_str8_marker
 4548 02ae 0346     		mov	r3, r0
 4549 02b0 3FE0     		b	.L351
 4550              	.L344:
 4551 02b2 3B68     		ldr	r3, [r7]
 4552 02b4 9B68     		ldr	r3, [r3, #8]
ARM GAS  /var/folders/d2/nstgp4h54kz7g1l847x_b8wc0000gn/T//ccFI0sM2.s 			page 82


 4553 02b6 9BB2     		uxth	r3, r3
 4554 02b8 1946     		mov	r1, r3
 4555 02ba 7868     		ldr	r0, [r7, #4]
 4556 02bc FFF7FEFF 		bl	cmp_write_str16_marker
 4557 02c0 0346     		mov	r3, r0
 4558 02c2 36E0     		b	.L351
 4559              	.L345:
 4560 02c4 3B68     		ldr	r3, [r7]
 4561 02c6 9B68     		ldr	r3, [r3, #8]
 4562 02c8 1946     		mov	r1, r3
 4563 02ca 7868     		ldr	r0, [r7, #4]
 4564 02cc FFF7FEFF 		bl	cmp_write_str32_marker
 4565 02d0 0346     		mov	r3, r0
 4566 02d2 2EE0     		b	.L351
 4567              	.L346:
 4568 02d4 3B68     		ldr	r3, [r7]
 4569 02d6 9B68     		ldr	r3, [r3, #8]
 4570 02d8 9BB2     		uxth	r3, r3
 4571 02da 1946     		mov	r1, r3
 4572 02dc 7868     		ldr	r0, [r7, #4]
 4573 02de FFF7FEFF 		bl	cmp_write_array16
 4574 02e2 0346     		mov	r3, r0
 4575 02e4 25E0     		b	.L351
 4576              	.L347:
 4577 02e6 3B68     		ldr	r3, [r7]
 4578 02e8 9B68     		ldr	r3, [r3, #8]
 4579 02ea 1946     		mov	r1, r3
 4580 02ec 7868     		ldr	r0, [r7, #4]
 4581 02ee FFF7FEFF 		bl	cmp_write_array32
 4582 02f2 0346     		mov	r3, r0
 4583 02f4 1DE0     		b	.L351
 4584              	.L348:
 4585 02f6 3B68     		ldr	r3, [r7]
 4586 02f8 9B68     		ldr	r3, [r3, #8]
 4587 02fa 9BB2     		uxth	r3, r3
 4588 02fc 1946     		mov	r1, r3
 4589 02fe 7868     		ldr	r0, [r7, #4]
 4590 0300 FFF7FEFF 		bl	cmp_write_map16
 4591 0304 0346     		mov	r3, r0
 4592 0306 14E0     		b	.L351
 4593              	.L349:
 4594 0308 3B68     		ldr	r3, [r7]
 4595 030a 9B68     		ldr	r3, [r3, #8]
 4596 030c 1946     		mov	r1, r3
 4597 030e 7868     		ldr	r0, [r7, #4]
 4598 0310 FFF7FEFF 		bl	cmp_write_map32
 4599 0314 0346     		mov	r3, r0
 4600 0316 0CE0     		b	.L351
 4601              	.L350:
 4602 0318 3B68     		ldr	r3, [r7]
 4603 031a 93F90830 		ldrsb	r3, [r3, #8]
 4604 031e 1946     		mov	r1, r3
 4605 0320 7868     		ldr	r0, [r7, #4]
 4606 0322 FFF7FEFF 		bl	cmp_write_nfix
 4607 0326 0346     		mov	r3, r0
 4608 0328 03E0     		b	.L351
 4609              	.L314:
ARM GAS  /var/folders/d2/nstgp4h54kz7g1l847x_b8wc0000gn/T//ccFI0sM2.s 			page 83


 4610 032a 7B68     		ldr	r3, [r7, #4]
 4611 032c 0D22     		movs	r2, #13
 4612 032e 1A70     		strb	r2, [r3]
 4613 0330 0023     		movs	r3, #0
 4614              	.L351:
 4615 0332 1846     		mov	r0, r3
 4616 0334 0C37     		adds	r7, r7, #12
 4617 0336 BD46     		mov	sp, r7
 4618              		@ sp needed
 4619 0338 90BD     		pop	{r4, r7, pc}
 4620              		.size	cmp_write_object, .-cmp_write_object
 4621 033a 00BF     		.section	.text.cmp_read_pfix,"ax",%progbits
 4622              		.align	1
 4623              		.global	cmp_read_pfix
 4624              		.syntax unified
 4625              		.thumb
 4626              		.thumb_func
 4627              		.fpu fpv4-sp-d16
 4628              		.type	cmp_read_pfix, %function
 4629              	cmp_read_pfix:
 4630              		@ args = 0, pretend = 0, frame = 24
 4631              		@ frame_needed = 1, uses_anonymous_args = 0
 4632 0000 80B5     		push	{r7, lr}
 4633 0002 86B0     		sub	sp, sp, #24
 4634 0004 00AF     		add	r7, sp, #0
 4635 0006 7860     		str	r0, [r7, #4]
 4636 0008 3960     		str	r1, [r7]
 4637 000a 07F10803 		add	r3, r7, #8
 4638 000e 1946     		mov	r1, r3
 4639 0010 7868     		ldr	r0, [r7, #4]
 4640 0012 FFF7FEFF 		bl	cmp_read_object
 4641 0016 0346     		mov	r3, r0
 4642 0018 83F00103 		eor	r3, r3, #1
 4643 001c DBB2     		uxtb	r3, r3
 4644 001e 002B     		cmp	r3, #0
 4645 0020 01D0     		beq	.L354
 4646 0022 0023     		movs	r3, #0
 4647 0024 0BE0     		b	.L357
 4648              	.L354:
 4649 0026 3B7A     		ldrb	r3, [r7, #8]	@ zero_extendqisi2
 4650 0028 002B     		cmp	r3, #0
 4651 002a 04D0     		beq	.L356
 4652 002c 7B68     		ldr	r3, [r7, #4]
 4653 002e 0D22     		movs	r2, #13
 4654 0030 1A70     		strb	r2, [r3]
 4655 0032 0023     		movs	r3, #0
 4656 0034 03E0     		b	.L357
 4657              	.L356:
 4658 0036 3A7C     		ldrb	r2, [r7, #16]	@ zero_extendqisi2
 4659 0038 3B68     		ldr	r3, [r7]
 4660 003a 1A70     		strb	r2, [r3]
 4661 003c 0123     		movs	r3, #1
 4662              	.L357:
 4663 003e 1846     		mov	r0, r3
 4664 0040 1837     		adds	r7, r7, #24
 4665 0042 BD46     		mov	sp, r7
 4666              		@ sp needed
ARM GAS  /var/folders/d2/nstgp4h54kz7g1l847x_b8wc0000gn/T//ccFI0sM2.s 			page 84


 4667 0044 80BD     		pop	{r7, pc}
 4668              		.size	cmp_read_pfix, .-cmp_read_pfix
 4669              		.section	.text.cmp_read_nfix,"ax",%progbits
 4670              		.align	1
 4671              		.global	cmp_read_nfix
 4672              		.syntax unified
 4673              		.thumb
 4674              		.thumb_func
 4675              		.fpu fpv4-sp-d16
 4676              		.type	cmp_read_nfix, %function
 4677              	cmp_read_nfix:
 4678              		@ args = 0, pretend = 0, frame = 24
 4679              		@ frame_needed = 1, uses_anonymous_args = 0
 4680 0000 80B5     		push	{r7, lr}
 4681 0002 86B0     		sub	sp, sp, #24
 4682 0004 00AF     		add	r7, sp, #0
 4683 0006 7860     		str	r0, [r7, #4]
 4684 0008 3960     		str	r1, [r7]
 4685 000a 07F10803 		add	r3, r7, #8
 4686 000e 1946     		mov	r1, r3
 4687 0010 7868     		ldr	r0, [r7, #4]
 4688 0012 FFF7FEFF 		bl	cmp_read_object
 4689 0016 0346     		mov	r3, r0
 4690 0018 83F00103 		eor	r3, r3, #1
 4691 001c DBB2     		uxtb	r3, r3
 4692 001e 002B     		cmp	r3, #0
 4693 0020 01D0     		beq	.L359
 4694 0022 0023     		movs	r3, #0
 4695 0024 0CE0     		b	.L362
 4696              	.L359:
 4697 0026 3B7A     		ldrb	r3, [r7, #8]	@ zero_extendqisi2
 4698 0028 222B     		cmp	r3, #34
 4699 002a 04D0     		beq	.L361
 4700 002c 7B68     		ldr	r3, [r7, #4]
 4701 002e 0D22     		movs	r2, #13
 4702 0030 1A70     		strb	r2, [r3]
 4703 0032 0023     		movs	r3, #0
 4704 0034 04E0     		b	.L362
 4705              	.L361:
 4706 0036 97F91020 		ldrsb	r2, [r7, #16]
 4707 003a 3B68     		ldr	r3, [r7]
 4708 003c 1A70     		strb	r2, [r3]
 4709 003e 0123     		movs	r3, #1
 4710              	.L362:
 4711 0040 1846     		mov	r0, r3
 4712 0042 1837     		adds	r7, r7, #24
 4713 0044 BD46     		mov	sp, r7
 4714              		@ sp needed
 4715 0046 80BD     		pop	{r7, pc}
 4716              		.size	cmp_read_nfix, .-cmp_read_nfix
 4717              		.section	.text.cmp_read_sfix,"ax",%progbits
 4718              		.align	1
 4719              		.global	cmp_read_sfix
 4720              		.syntax unified
 4721              		.thumb
 4722              		.thumb_func
 4723              		.fpu fpv4-sp-d16
ARM GAS  /var/folders/d2/nstgp4h54kz7g1l847x_b8wc0000gn/T//ccFI0sM2.s 			page 85


 4724              		.type	cmp_read_sfix, %function
 4725              	cmp_read_sfix:
 4726              		@ args = 0, pretend = 0, frame = 24
 4727              		@ frame_needed = 1, uses_anonymous_args = 0
 4728 0000 80B5     		push	{r7, lr}
 4729 0002 86B0     		sub	sp, sp, #24
 4730 0004 00AF     		add	r7, sp, #0
 4731 0006 7860     		str	r0, [r7, #4]
 4732 0008 3960     		str	r1, [r7]
 4733 000a 07F10803 		add	r3, r7, #8
 4734 000e 1946     		mov	r1, r3
 4735 0010 7868     		ldr	r0, [r7, #4]
 4736 0012 FFF7FEFF 		bl	cmp_read_object
 4737 0016 0346     		mov	r3, r0
 4738 0018 83F00103 		eor	r3, r3, #1
 4739 001c DBB2     		uxtb	r3, r3
 4740 001e 002B     		cmp	r3, #0
 4741 0020 01D0     		beq	.L364
 4742 0022 0023     		movs	r3, #0
 4743 0024 0EE0     		b	.L368
 4744              	.L364:
 4745 0026 3B7A     		ldrb	r3, [r7, #8]	@ zero_extendqisi2
 4746 0028 002B     		cmp	r3, #0
 4747 002a 01D0     		beq	.L367
 4748 002c 222B     		cmp	r3, #34
 4749 002e 05D1     		bne	.L369
 4750              	.L367:
 4751 0030 97F91020 		ldrsb	r2, [r7, #16]
 4752 0034 3B68     		ldr	r3, [r7]
 4753 0036 1A70     		strb	r2, [r3]
 4754 0038 0123     		movs	r3, #1
 4755 003a 03E0     		b	.L368
 4756              	.L369:
 4757 003c 7B68     		ldr	r3, [r7, #4]
 4758 003e 0D22     		movs	r2, #13
 4759 0040 1A70     		strb	r2, [r3]
 4760 0042 0023     		movs	r3, #0
 4761              	.L368:
 4762 0044 1846     		mov	r0, r3
 4763 0046 1837     		adds	r7, r7, #24
 4764 0048 BD46     		mov	sp, r7
 4765              		@ sp needed
 4766 004a 80BD     		pop	{r7, pc}
 4767              		.size	cmp_read_sfix, .-cmp_read_sfix
 4768              		.section	.text.cmp_read_s8,"ax",%progbits
 4769              		.align	1
 4770              		.global	cmp_read_s8
 4771              		.syntax unified
 4772              		.thumb
 4773              		.thumb_func
 4774              		.fpu fpv4-sp-d16
 4775              		.type	cmp_read_s8, %function
 4776              	cmp_read_s8:
 4777              		@ args = 0, pretend = 0, frame = 24
 4778              		@ frame_needed = 1, uses_anonymous_args = 0
 4779 0000 80B5     		push	{r7, lr}
 4780 0002 86B0     		sub	sp, sp, #24
ARM GAS  /var/folders/d2/nstgp4h54kz7g1l847x_b8wc0000gn/T//ccFI0sM2.s 			page 86


 4781 0004 00AF     		add	r7, sp, #0
 4782 0006 7860     		str	r0, [r7, #4]
 4783 0008 3960     		str	r1, [r7]
 4784 000a 07F10803 		add	r3, r7, #8
 4785 000e 1946     		mov	r1, r3
 4786 0010 7868     		ldr	r0, [r7, #4]
 4787 0012 FFF7FEFF 		bl	cmp_read_object
 4788 0016 0346     		mov	r3, r0
 4789 0018 83F00103 		eor	r3, r3, #1
 4790 001c DBB2     		uxtb	r3, r3
 4791 001e 002B     		cmp	r3, #0
 4792 0020 01D0     		beq	.L371
 4793 0022 0023     		movs	r3, #0
 4794 0024 0CE0     		b	.L374
 4795              	.L371:
 4796 0026 3B7A     		ldrb	r3, [r7, #8]	@ zero_extendqisi2
 4797 0028 122B     		cmp	r3, #18
 4798 002a 04D0     		beq	.L373
 4799 002c 7B68     		ldr	r3, [r7, #4]
 4800 002e 0D22     		movs	r2, #13
 4801 0030 1A70     		strb	r2, [r3]
 4802 0032 0023     		movs	r3, #0
 4803 0034 04E0     		b	.L374
 4804              	.L373:
 4805 0036 97F91020 		ldrsb	r2, [r7, #16]
 4806 003a 3B68     		ldr	r3, [r7]
 4807 003c 1A70     		strb	r2, [r3]
 4808 003e 0123     		movs	r3, #1
 4809              	.L374:
 4810 0040 1846     		mov	r0, r3
 4811 0042 1837     		adds	r7, r7, #24
 4812 0044 BD46     		mov	sp, r7
 4813              		@ sp needed
 4814 0046 80BD     		pop	{r7, pc}
 4815              		.size	cmp_read_s8, .-cmp_read_s8
 4816              		.section	.text.cmp_read_s16,"ax",%progbits
 4817              		.align	1
 4818              		.global	cmp_read_s16
 4819              		.syntax unified
 4820              		.thumb
 4821              		.thumb_func
 4822              		.fpu fpv4-sp-d16
 4823              		.type	cmp_read_s16, %function
 4824              	cmp_read_s16:
 4825              		@ args = 0, pretend = 0, frame = 24
 4826              		@ frame_needed = 1, uses_anonymous_args = 0
 4827 0000 80B5     		push	{r7, lr}
 4828 0002 86B0     		sub	sp, sp, #24
 4829 0004 00AF     		add	r7, sp, #0
 4830 0006 7860     		str	r0, [r7, #4]
 4831 0008 3960     		str	r1, [r7]
 4832 000a 07F10803 		add	r3, r7, #8
 4833 000e 1946     		mov	r1, r3
 4834 0010 7868     		ldr	r0, [r7, #4]
 4835 0012 FFF7FEFF 		bl	cmp_read_object
 4836 0016 0346     		mov	r3, r0
 4837 0018 83F00103 		eor	r3, r3, #1
ARM GAS  /var/folders/d2/nstgp4h54kz7g1l847x_b8wc0000gn/T//ccFI0sM2.s 			page 87


 4838 001c DBB2     		uxtb	r3, r3
 4839 001e 002B     		cmp	r3, #0
 4840 0020 01D0     		beq	.L376
 4841 0022 0023     		movs	r3, #0
 4842 0024 0CE0     		b	.L379
 4843              	.L376:
 4844 0026 3B7A     		ldrb	r3, [r7, #8]	@ zero_extendqisi2
 4845 0028 132B     		cmp	r3, #19
 4846 002a 04D0     		beq	.L378
 4847 002c 7B68     		ldr	r3, [r7, #4]
 4848 002e 0D22     		movs	r2, #13
 4849 0030 1A70     		strb	r2, [r3]
 4850 0032 0023     		movs	r3, #0
 4851 0034 04E0     		b	.L379
 4852              	.L378:
 4853 0036 B7F91020 		ldrsh	r2, [r7, #16]
 4854 003a 3B68     		ldr	r3, [r7]
 4855 003c 1A80     		strh	r2, [r3]	@ movhi
 4856 003e 0123     		movs	r3, #1
 4857              	.L379:
 4858 0040 1846     		mov	r0, r3
 4859 0042 1837     		adds	r7, r7, #24
 4860 0044 BD46     		mov	sp, r7
 4861              		@ sp needed
 4862 0046 80BD     		pop	{r7, pc}
 4863              		.size	cmp_read_s16, .-cmp_read_s16
 4864              		.section	.text.cmp_read_s32,"ax",%progbits
 4865              		.align	1
 4866              		.global	cmp_read_s32
 4867              		.syntax unified
 4868              		.thumb
 4869              		.thumb_func
 4870              		.fpu fpv4-sp-d16
 4871              		.type	cmp_read_s32, %function
 4872              	cmp_read_s32:
 4873              		@ args = 0, pretend = 0, frame = 24
 4874              		@ frame_needed = 1, uses_anonymous_args = 0
 4875 0000 80B5     		push	{r7, lr}
 4876 0002 86B0     		sub	sp, sp, #24
 4877 0004 00AF     		add	r7, sp, #0
 4878 0006 7860     		str	r0, [r7, #4]
 4879 0008 3960     		str	r1, [r7]
 4880 000a 07F10803 		add	r3, r7, #8
 4881 000e 1946     		mov	r1, r3
 4882 0010 7868     		ldr	r0, [r7, #4]
 4883 0012 FFF7FEFF 		bl	cmp_read_object
 4884 0016 0346     		mov	r3, r0
 4885 0018 83F00103 		eor	r3, r3, #1
 4886 001c DBB2     		uxtb	r3, r3
 4887 001e 002B     		cmp	r3, #0
 4888 0020 01D0     		beq	.L381
 4889 0022 0023     		movs	r3, #0
 4890 0024 0BE0     		b	.L384
 4891              	.L381:
 4892 0026 3B7A     		ldrb	r3, [r7, #8]	@ zero_extendqisi2
 4893 0028 142B     		cmp	r3, #20
 4894 002a 04D0     		beq	.L383
ARM GAS  /var/folders/d2/nstgp4h54kz7g1l847x_b8wc0000gn/T//ccFI0sM2.s 			page 88


 4895 002c 7B68     		ldr	r3, [r7, #4]
 4896 002e 0D22     		movs	r2, #13
 4897 0030 1A70     		strb	r2, [r3]
 4898 0032 0023     		movs	r3, #0
 4899 0034 03E0     		b	.L384
 4900              	.L383:
 4901 0036 3A69     		ldr	r2, [r7, #16]
 4902 0038 3B68     		ldr	r3, [r7]
 4903 003a 1A60     		str	r2, [r3]
 4904 003c 0123     		movs	r3, #1
 4905              	.L384:
 4906 003e 1846     		mov	r0, r3
 4907 0040 1837     		adds	r7, r7, #24
 4908 0042 BD46     		mov	sp, r7
 4909              		@ sp needed
 4910 0044 80BD     		pop	{r7, pc}
 4911              		.size	cmp_read_s32, .-cmp_read_s32
 4912              		.section	.text.cmp_read_s64,"ax",%progbits
 4913              		.align	1
 4914              		.global	cmp_read_s64
 4915              		.syntax unified
 4916              		.thumb
 4917              		.thumb_func
 4918              		.fpu fpv4-sp-d16
 4919              		.type	cmp_read_s64, %function
 4920              	cmp_read_s64:
 4921              		@ args = 0, pretend = 0, frame = 24
 4922              		@ frame_needed = 1, uses_anonymous_args = 0
 4923 0000 90B5     		push	{r4, r7, lr}
 4924 0002 87B0     		sub	sp, sp, #28
 4925 0004 00AF     		add	r7, sp, #0
 4926 0006 7860     		str	r0, [r7, #4]
 4927 0008 3960     		str	r1, [r7]
 4928 000a 07F10803 		add	r3, r7, #8
 4929 000e 1946     		mov	r1, r3
 4930 0010 7868     		ldr	r0, [r7, #4]
 4931 0012 FFF7FEFF 		bl	cmp_read_object
 4932 0016 0346     		mov	r3, r0
 4933 0018 83F00103 		eor	r3, r3, #1
 4934 001c DBB2     		uxtb	r3, r3
 4935 001e 002B     		cmp	r3, #0
 4936 0020 01D0     		beq	.L386
 4937 0022 0023     		movs	r3, #0
 4938 0024 0DE0     		b	.L389
 4939              	.L386:
 4940 0026 3B7A     		ldrb	r3, [r7, #8]	@ zero_extendqisi2
 4941 0028 152B     		cmp	r3, #21
 4942 002a 04D0     		beq	.L388
 4943 002c 7B68     		ldr	r3, [r7, #4]
 4944 002e 0D22     		movs	r2, #13
 4945 0030 1A70     		strb	r2, [r3]
 4946 0032 0023     		movs	r3, #0
 4947 0034 05E0     		b	.L389
 4948              	.L388:
 4949 0036 D7E90434 		ldrd	r3, [r7, #16]
 4950 003a 3A68     		ldr	r2, [r7]
 4951 003c C2E90034 		strd	r3, [r2]
ARM GAS  /var/folders/d2/nstgp4h54kz7g1l847x_b8wc0000gn/T//ccFI0sM2.s 			page 89


 4952 0040 0123     		movs	r3, #1
 4953              	.L389:
 4954 0042 1846     		mov	r0, r3
 4955 0044 1C37     		adds	r7, r7, #28
 4956 0046 BD46     		mov	sp, r7
 4957              		@ sp needed
 4958 0048 90BD     		pop	{r4, r7, pc}
 4959              		.size	cmp_read_s64, .-cmp_read_s64
 4960              		.section	.text.cmp_read_char,"ax",%progbits
 4961              		.align	1
 4962              		.global	cmp_read_char
 4963              		.syntax unified
 4964              		.thumb
 4965              		.thumb_func
 4966              		.fpu fpv4-sp-d16
 4967              		.type	cmp_read_char, %function
 4968              	cmp_read_char:
 4969              		@ args = 0, pretend = 0, frame = 24
 4970              		@ frame_needed = 1, uses_anonymous_args = 0
 4971 0000 80B5     		push	{r7, lr}
 4972 0002 86B0     		sub	sp, sp, #24
 4973 0004 00AF     		add	r7, sp, #0
 4974 0006 7860     		str	r0, [r7, #4]
 4975 0008 3960     		str	r1, [r7]
 4976 000a 07F10803 		add	r3, r7, #8
 4977 000e 1946     		mov	r1, r3
 4978 0010 7868     		ldr	r0, [r7, #4]
 4979 0012 FFF7FEFF 		bl	cmp_read_object
 4980 0016 0346     		mov	r3, r0
 4981 0018 83F00103 		eor	r3, r3, #1
 4982 001c DBB2     		uxtb	r3, r3
 4983 001e 002B     		cmp	r3, #0
 4984 0020 01D0     		beq	.L391
 4985 0022 0023     		movs	r3, #0
 4986 0024 60E0     		b	.L397
 4987              	.L391:
 4988 0026 3B7A     		ldrb	r3, [r7, #8]	@ zero_extendqisi2
 4989 0028 222B     		cmp	r3, #34
 4990 002a 59D8     		bhi	.L393
 4991 002c 01A2     		adr	r2, .L395
 4992 002e 52F823F0 		ldr	pc, [r2, r3, lsl #2]
 4993 0032 00BF     		.p2align 2
 4994              	.L395:
 4995 0034 C1000000 		.word	.L394+1
 4996 0038 E1000000 		.word	.L393+1
 4997 003c E1000000 		.word	.L393+1
 4998 0040 E1000000 		.word	.L393+1
 4999 0044 E1000000 		.word	.L393+1
 5000 0048 E1000000 		.word	.L393+1
 5001 004c E1000000 		.word	.L393+1
 5002 0050 E1000000 		.word	.L393+1
 5003 0054 E1000000 		.word	.L393+1
 5004 0058 E1000000 		.word	.L393+1
 5005 005c E1000000 		.word	.L393+1
 5006 0060 E1000000 		.word	.L393+1
 5007 0064 E1000000 		.word	.L393+1
 5008 0068 E1000000 		.word	.L393+1
ARM GAS  /var/folders/d2/nstgp4h54kz7g1l847x_b8wc0000gn/T//ccFI0sM2.s 			page 90


 5009 006c CD000000 		.word	.L396+1
 5010 0070 E1000000 		.word	.L393+1
 5011 0074 E1000000 		.word	.L393+1
 5012 0078 E1000000 		.word	.L393+1
 5013 007c C1000000 		.word	.L394+1
 5014 0080 E1000000 		.word	.L393+1
 5015 0084 E1000000 		.word	.L393+1
 5016 0088 E1000000 		.word	.L393+1
 5017 008c E1000000 		.word	.L393+1
 5018 0090 E1000000 		.word	.L393+1
 5019 0094 E1000000 		.word	.L393+1
 5020 0098 E1000000 		.word	.L393+1
 5021 009c E1000000 		.word	.L393+1
 5022 00a0 E1000000 		.word	.L393+1
 5023 00a4 E1000000 		.word	.L393+1
 5024 00a8 E1000000 		.word	.L393+1
 5025 00ac E1000000 		.word	.L393+1
 5026 00b0 E1000000 		.word	.L393+1
 5027 00b4 E1000000 		.word	.L393+1
 5028 00b8 E1000000 		.word	.L393+1
 5029 00bc C1000000 		.word	.L394+1
 5030              		.p2align 1
 5031              	.L394:
 5032 00c0 97F91020 		ldrsb	r2, [r7, #16]
 5033 00c4 3B68     		ldr	r3, [r7]
 5034 00c6 1A70     		strb	r2, [r3]
 5035 00c8 0123     		movs	r3, #1
 5036 00ca 0DE0     		b	.L397
 5037              	.L396:
 5038 00cc 3B7C     		ldrb	r3, [r7, #16]	@ zero_extendqisi2
 5039 00ce 5BB2     		sxtb	r3, r3
 5040 00d0 002B     		cmp	r3, #0
 5041 00d2 05DB     		blt	.L393
 5042 00d4 3B7C     		ldrb	r3, [r7, #16]	@ zero_extendqisi2
 5043 00d6 5AB2     		sxtb	r2, r3
 5044 00d8 3B68     		ldr	r3, [r7]
 5045 00da 1A70     		strb	r2, [r3]
 5046 00dc 0123     		movs	r3, #1
 5047 00de 03E0     		b	.L397
 5048              	.L393:
 5049 00e0 7B68     		ldr	r3, [r7, #4]
 5050 00e2 0D22     		movs	r2, #13
 5051 00e4 1A70     		strb	r2, [r3]
 5052 00e6 0023     		movs	r3, #0
 5053              	.L397:
 5054 00e8 1846     		mov	r0, r3
 5055 00ea 1837     		adds	r7, r7, #24
 5056 00ec BD46     		mov	sp, r7
 5057              		@ sp needed
 5058 00ee 80BD     		pop	{r7, pc}
 5059              		.size	cmp_read_char, .-cmp_read_char
 5060              		.section	.text.cmp_read_short,"ax",%progbits
 5061              		.align	1
 5062              		.global	cmp_read_short
 5063              		.syntax unified
 5064              		.thumb
 5065              		.thumb_func
ARM GAS  /var/folders/d2/nstgp4h54kz7g1l847x_b8wc0000gn/T//ccFI0sM2.s 			page 91


 5066              		.fpu fpv4-sp-d16
 5067              		.type	cmp_read_short, %function
 5068              	cmp_read_short:
 5069              		@ args = 0, pretend = 0, frame = 24
 5070              		@ frame_needed = 1, uses_anonymous_args = 0
 5071 0000 80B5     		push	{r7, lr}
 5072 0002 86B0     		sub	sp, sp, #24
 5073 0004 00AF     		add	r7, sp, #0
 5074 0006 7860     		str	r0, [r7, #4]
 5075 0008 3960     		str	r1, [r7]
 5076 000a 07F10803 		add	r3, r7, #8
 5077 000e 1946     		mov	r1, r3
 5078 0010 7868     		ldr	r0, [r7, #4]
 5079 0012 FFF7FEFF 		bl	cmp_read_object
 5080 0016 0346     		mov	r3, r0
 5081 0018 83F00103 		eor	r3, r3, #1
 5082 001c DBB2     		uxtb	r3, r3
 5083 001e 002B     		cmp	r3, #0
 5084 0020 01D0     		beq	.L399
 5085 0022 0023     		movs	r3, #0
 5086 0024 6DE0     		b	.L407
 5087              	.L399:
 5088 0026 3B7A     		ldrb	r3, [r7, #8]	@ zero_extendqisi2
 5089 0028 222B     		cmp	r3, #34
 5090 002a 66D8     		bhi	.L401
 5091 002c 01A2     		adr	r2, .L403
 5092 002e 52F823F0 		ldr	pc, [r2, r3, lsl #2]
 5093 0032 00BF     		.p2align 2
 5094              	.L403:
 5095 0034 C1000000 		.word	.L402+1
 5096 0038 FB000000 		.word	.L401+1
 5097 003c FB000000 		.word	.L401+1
 5098 0040 FB000000 		.word	.L401+1
 5099 0044 FB000000 		.word	.L401+1
 5100 0048 FB000000 		.word	.L401+1
 5101 004c FB000000 		.word	.L401+1
 5102 0050 FB000000 		.word	.L401+1
 5103 0054 FB000000 		.word	.L401+1
 5104 0058 FB000000 		.word	.L401+1
 5105 005c FB000000 		.word	.L401+1
 5106 0060 FB000000 		.word	.L401+1
 5107 0064 FB000000 		.word	.L401+1
 5108 0068 FB000000 		.word	.L401+1
 5109 006c CF000000 		.word	.L404+1
 5110 0070 E7000000 		.word	.L405+1
 5111 0074 FB000000 		.word	.L401+1
 5112 0078 FB000000 		.word	.L401+1
 5113 007c C1000000 		.word	.L402+1
 5114 0080 DB000000 		.word	.L406+1
 5115 0084 FB000000 		.word	.L401+1
 5116 0088 FB000000 		.word	.L401+1
 5117 008c FB000000 		.word	.L401+1
 5118 0090 FB000000 		.word	.L401+1
 5119 0094 FB000000 		.word	.L401+1
 5120 0098 FB000000 		.word	.L401+1
 5121 009c FB000000 		.word	.L401+1
 5122 00a0 FB000000 		.word	.L401+1
ARM GAS  /var/folders/d2/nstgp4h54kz7g1l847x_b8wc0000gn/T//ccFI0sM2.s 			page 92


 5123 00a4 FB000000 		.word	.L401+1
 5124 00a8 FB000000 		.word	.L401+1
 5125 00ac FB000000 		.word	.L401+1
 5126 00b0 FB000000 		.word	.L401+1
 5127 00b4 FB000000 		.word	.L401+1
 5128 00b8 FB000000 		.word	.L401+1
 5129 00bc C1000000 		.word	.L402+1
 5130              		.p2align 1
 5131              	.L402:
 5132 00c0 97F91030 		ldrsb	r3, [r7, #16]
 5133 00c4 1AB2     		sxth	r2, r3
 5134 00c6 3B68     		ldr	r3, [r7]
 5135 00c8 1A80     		strh	r2, [r3]	@ movhi
 5136 00ca 0123     		movs	r3, #1
 5137 00cc 19E0     		b	.L407
 5138              	.L404:
 5139 00ce 3B7C     		ldrb	r3, [r7, #16]	@ zero_extendqisi2
 5140 00d0 1AB2     		sxth	r2, r3
 5141 00d2 3B68     		ldr	r3, [r7]
 5142 00d4 1A80     		strh	r2, [r3]	@ movhi
 5143 00d6 0123     		movs	r3, #1
 5144 00d8 13E0     		b	.L407
 5145              	.L406:
 5146 00da B7F91020 		ldrsh	r2, [r7, #16]
 5147 00de 3B68     		ldr	r3, [r7]
 5148 00e0 1A80     		strh	r2, [r3]	@ movhi
 5149 00e2 0123     		movs	r3, #1
 5150 00e4 0DE0     		b	.L407
 5151              	.L405:
 5152 00e6 3B8A     		ldrh	r3, [r7, #16]
 5153 00e8 1BB2     		sxth	r3, r3
 5154 00ea 002B     		cmp	r3, #0
 5155 00ec 05DB     		blt	.L401
 5156 00ee 3B8A     		ldrh	r3, [r7, #16]
 5157 00f0 1AB2     		sxth	r2, r3
 5158 00f2 3B68     		ldr	r3, [r7]
 5159 00f4 1A80     		strh	r2, [r3]	@ movhi
 5160 00f6 0123     		movs	r3, #1
 5161 00f8 03E0     		b	.L407
 5162              	.L401:
 5163 00fa 7B68     		ldr	r3, [r7, #4]
 5164 00fc 0D22     		movs	r2, #13
 5165 00fe 1A70     		strb	r2, [r3]
 5166 0100 0023     		movs	r3, #0
 5167              	.L407:
 5168 0102 1846     		mov	r0, r3
 5169 0104 1837     		adds	r7, r7, #24
 5170 0106 BD46     		mov	sp, r7
 5171              		@ sp needed
 5172 0108 80BD     		pop	{r7, pc}
 5173              		.size	cmp_read_short, .-cmp_read_short
 5174 010a 00BF     		.section	.text.cmp_read_int,"ax",%progbits
 5175              		.align	1
 5176              		.global	cmp_read_int
 5177              		.syntax unified
 5178              		.thumb
 5179              		.thumb_func
ARM GAS  /var/folders/d2/nstgp4h54kz7g1l847x_b8wc0000gn/T//ccFI0sM2.s 			page 93


 5180              		.fpu fpv4-sp-d16
 5181              		.type	cmp_read_int, %function
 5182              	cmp_read_int:
 5183              		@ args = 0, pretend = 0, frame = 24
 5184              		@ frame_needed = 1, uses_anonymous_args = 0
 5185 0000 80B5     		push	{r7, lr}
 5186 0002 86B0     		sub	sp, sp, #24
 5187 0004 00AF     		add	r7, sp, #0
 5188 0006 7860     		str	r0, [r7, #4]
 5189 0008 3960     		str	r1, [r7]
 5190 000a 07F10803 		add	r3, r7, #8
 5191 000e 1946     		mov	r1, r3
 5192 0010 7868     		ldr	r0, [r7, #4]
 5193 0012 FFF7FEFF 		bl	cmp_read_object
 5194 0016 0346     		mov	r3, r0
 5195 0018 83F00103 		eor	r3, r3, #1
 5196 001c DBB2     		uxtb	r3, r3
 5197 001e 002B     		cmp	r3, #0
 5198 0020 01D0     		beq	.L409
 5199 0022 0023     		movs	r3, #0
 5200 0024 78E0     		b	.L419
 5201              	.L409:
 5202 0026 3B7A     		ldrb	r3, [r7, #8]	@ zero_extendqisi2
 5203 0028 222B     		cmp	r3, #34
 5204 002a 71D8     		bhi	.L411
 5205 002c 01A2     		adr	r2, .L413
 5206 002e 52F823F0 		ldr	pc, [r2, r3, lsl #2]
 5207 0032 00BF     		.p2align 2
 5208              	.L413:
 5209 0034 C1000000 		.word	.L412+1
 5210 0038 11010000 		.word	.L411+1
 5211 003c 11010000 		.word	.L411+1
 5212 0040 11010000 		.word	.L411+1
 5213 0044 11010000 		.word	.L411+1
 5214 0048 11010000 		.word	.L411+1
 5215 004c 11010000 		.word	.L411+1
 5216 0050 11010000 		.word	.L411+1
 5217 0054 11010000 		.word	.L411+1
 5218 0058 11010000 		.word	.L411+1
 5219 005c 11010000 		.word	.L411+1
 5220 0060 11010000 		.word	.L411+1
 5221 0064 11010000 		.word	.L411+1
 5222 0068 11010000 		.word	.L411+1
 5223 006c CF000000 		.word	.L414+1
 5224 0070 E9000000 		.word	.L415+1
 5225 0074 FF000000 		.word	.L416+1
 5226 0078 11010000 		.word	.L411+1
 5227 007c C1000000 		.word	.L412+1
 5228 0080 DB000000 		.word	.L417+1
 5229 0084 F5000000 		.word	.L418+1
 5230 0088 11010000 		.word	.L411+1
 5231 008c 11010000 		.word	.L411+1
 5232 0090 11010000 		.word	.L411+1
 5233 0094 11010000 		.word	.L411+1
 5234 0098 11010000 		.word	.L411+1
 5235 009c 11010000 		.word	.L411+1
 5236 00a0 11010000 		.word	.L411+1
ARM GAS  /var/folders/d2/nstgp4h54kz7g1l847x_b8wc0000gn/T//ccFI0sM2.s 			page 94


 5237 00a4 11010000 		.word	.L411+1
 5238 00a8 11010000 		.word	.L411+1
 5239 00ac 11010000 		.word	.L411+1
 5240 00b0 11010000 		.word	.L411+1
 5241 00b4 11010000 		.word	.L411+1
 5242 00b8 11010000 		.word	.L411+1
 5243 00bc C1000000 		.word	.L412+1
 5244              		.p2align 1
 5245              	.L412:
 5246 00c0 97F91030 		ldrsb	r3, [r7, #16]
 5247 00c4 1A46     		mov	r2, r3
 5248 00c6 3B68     		ldr	r3, [r7]
 5249 00c8 1A60     		str	r2, [r3]
 5250 00ca 0123     		movs	r3, #1
 5251 00cc 24E0     		b	.L419
 5252              	.L414:
 5253 00ce 3B7C     		ldrb	r3, [r7, #16]	@ zero_extendqisi2
 5254 00d0 1A46     		mov	r2, r3
 5255 00d2 3B68     		ldr	r3, [r7]
 5256 00d4 1A60     		str	r2, [r3]
 5257 00d6 0123     		movs	r3, #1
 5258 00d8 1EE0     		b	.L419
 5259              	.L417:
 5260 00da B7F91030 		ldrsh	r3, [r7, #16]
 5261 00de 1A46     		mov	r2, r3
 5262 00e0 3B68     		ldr	r3, [r7]
 5263 00e2 1A60     		str	r2, [r3]
 5264 00e4 0123     		movs	r3, #1
 5265 00e6 17E0     		b	.L419
 5266              	.L415:
 5267 00e8 3B8A     		ldrh	r3, [r7, #16]
 5268 00ea 1A46     		mov	r2, r3
 5269 00ec 3B68     		ldr	r3, [r7]
 5270 00ee 1A60     		str	r2, [r3]
 5271 00f0 0123     		movs	r3, #1
 5272 00f2 11E0     		b	.L419
 5273              	.L418:
 5274 00f4 3A69     		ldr	r2, [r7, #16]
 5275 00f6 3B68     		ldr	r3, [r7]
 5276 00f8 1A60     		str	r2, [r3]
 5277 00fa 0123     		movs	r3, #1
 5278 00fc 0CE0     		b	.L419
 5279              	.L416:
 5280 00fe 3B69     		ldr	r3, [r7, #16]
 5281 0100 002B     		cmp	r3, #0
 5282 0102 05DB     		blt	.L411
 5283 0104 3B69     		ldr	r3, [r7, #16]
 5284 0106 1A46     		mov	r2, r3
 5285 0108 3B68     		ldr	r3, [r7]
 5286 010a 1A60     		str	r2, [r3]
 5287 010c 0123     		movs	r3, #1
 5288 010e 03E0     		b	.L419
 5289              	.L411:
 5290 0110 7B68     		ldr	r3, [r7, #4]
 5291 0112 0D22     		movs	r2, #13
 5292 0114 1A70     		strb	r2, [r3]
 5293 0116 0023     		movs	r3, #0
ARM GAS  /var/folders/d2/nstgp4h54kz7g1l847x_b8wc0000gn/T//ccFI0sM2.s 			page 95


 5294              	.L419:
 5295 0118 1846     		mov	r0, r3
 5296 011a 1837     		adds	r7, r7, #24
 5297 011c BD46     		mov	sp, r7
 5298              		@ sp needed
 5299 011e 80BD     		pop	{r7, pc}
 5300              		.size	cmp_read_int, .-cmp_read_int
 5301              		.section	.text.cmp_read_long,"ax",%progbits
 5302              		.align	1
 5303              		.global	cmp_read_long
 5304              		.syntax unified
 5305              		.thumb
 5306              		.thumb_func
 5307              		.fpu fpv4-sp-d16
 5308              		.type	cmp_read_long, %function
 5309              	cmp_read_long:
 5310              		@ args = 0, pretend = 0, frame = 24
 5311              		@ frame_needed = 1, uses_anonymous_args = 0
 5312 0000 90B5     		push	{r4, r7, lr}
 5313 0002 87B0     		sub	sp, sp, #28
 5314 0004 00AF     		add	r7, sp, #0
 5315 0006 7860     		str	r0, [r7, #4]
 5316 0008 3960     		str	r1, [r7]
 5317 000a 07F10803 		add	r3, r7, #8
 5318 000e 1946     		mov	r1, r3
 5319 0010 7868     		ldr	r0, [r7, #4]
 5320 0012 FFF7FEFF 		bl	cmp_read_object
 5321 0016 0346     		mov	r3, r0
 5322 0018 83F00103 		eor	r3, r3, #1
 5323 001c DBB2     		uxtb	r3, r3
 5324 001e 002B     		cmp	r3, #0
 5325 0020 01D0     		beq	.L421
 5326 0022 0023     		movs	r3, #0
 5327 0024 9AE0     		b	.L433
 5328              	.L421:
 5329 0026 3B7A     		ldrb	r3, [r7, #8]	@ zero_extendqisi2
 5330 0028 222B     		cmp	r3, #34
 5331 002a 00F29380 		bhi	.L423
 5332 002e 01A2     		adr	r2, .L425
 5333 0030 52F823F0 		ldr	pc, [r2, r3, lsl #2]
 5334              		.p2align 2
 5335              	.L425:
 5336 0034 C1000000 		.word	.L424+1
 5337 0038 55010000 		.word	.L423+1
 5338 003c 55010000 		.word	.L423+1
 5339 0040 55010000 		.word	.L423+1
 5340 0044 55010000 		.word	.L423+1
 5341 0048 55010000 		.word	.L423+1
 5342 004c 55010000 		.word	.L423+1
 5343 0050 55010000 		.word	.L423+1
 5344 0054 55010000 		.word	.L423+1
 5345 0058 55010000 		.word	.L423+1
 5346 005c 55010000 		.word	.L423+1
 5347 0060 55010000 		.word	.L423+1
 5348 0064 55010000 		.word	.L423+1
 5349 0068 55010000 		.word	.L423+1
 5350 006c D5000000 		.word	.L426+1
ARM GAS  /var/folders/d2/nstgp4h54kz7g1l847x_b8wc0000gn/T//ccFI0sM2.s 			page 96


 5351 0070 FB000000 		.word	.L427+1
 5352 0074 1D010000 		.word	.L428+1
 5353 0078 3B010000 		.word	.L429+1
 5354 007c C1000000 		.word	.L424+1
 5355 0080 E7000000 		.word	.L430+1
 5356 0084 0D010000 		.word	.L431+1
 5357 0088 2D010000 		.word	.L432+1
 5358 008c 55010000 		.word	.L423+1
 5359 0090 55010000 		.word	.L423+1
 5360 0094 55010000 		.word	.L423+1
 5361 0098 55010000 		.word	.L423+1
 5362 009c 55010000 		.word	.L423+1
 5363 00a0 55010000 		.word	.L423+1
 5364 00a4 55010000 		.word	.L423+1
 5365 00a8 55010000 		.word	.L423+1
 5366 00ac 55010000 		.word	.L423+1
 5367 00b0 55010000 		.word	.L423+1
 5368 00b4 55010000 		.word	.L423+1
 5369 00b8 55010000 		.word	.L423+1
 5370 00bc C1000000 		.word	.L424+1
 5371              		.p2align 1
 5372              	.L424:
 5373 00c0 97F91030 		ldrsb	r3, [r7, #16]
 5374 00c4 5BB2     		sxtb	r3, r3
 5375 00c6 4FEAE374 		asr	r4, r3, #31
 5376 00ca 3A68     		ldr	r2, [r7]
 5377 00cc C2E90034 		strd	r3, [r2]
 5378 00d0 0123     		movs	r3, #1
 5379 00d2 43E0     		b	.L433
 5380              	.L426:
 5381 00d4 3B7C     		ldrb	r3, [r7, #16]	@ zero_extendqisi2
 5382 00d6 DBB2     		uxtb	r3, r3
 5383 00d8 4FF00004 		mov	r4, #0
 5384 00dc 3A68     		ldr	r2, [r7]
 5385 00de C2E90034 		strd	r3, [r2]
 5386 00e2 0123     		movs	r3, #1
 5387 00e4 3AE0     		b	.L433
 5388              	.L430:
 5389 00e6 B7F91030 		ldrsh	r3, [r7, #16]
 5390 00ea 1BB2     		sxth	r3, r3
 5391 00ec 4FEAE374 		asr	r4, r3, #31
 5392 00f0 3A68     		ldr	r2, [r7]
 5393 00f2 C2E90034 		strd	r3, [r2]
 5394 00f6 0123     		movs	r3, #1
 5395 00f8 30E0     		b	.L433
 5396              	.L427:
 5397 00fa 3B8A     		ldrh	r3, [r7, #16]
 5398 00fc 9BB2     		uxth	r3, r3
 5399 00fe 4FF00004 		mov	r4, #0
 5400 0102 3A68     		ldr	r2, [r7]
 5401 0104 C2E90034 		strd	r3, [r2]
 5402 0108 0123     		movs	r3, #1
 5403 010a 27E0     		b	.L433
 5404              	.L431:
 5405 010c 3B69     		ldr	r3, [r7, #16]
 5406 010e 4FEAE374 		asr	r4, r3, #31
 5407 0112 3A68     		ldr	r2, [r7]
ARM GAS  /var/folders/d2/nstgp4h54kz7g1l847x_b8wc0000gn/T//ccFI0sM2.s 			page 97


 5408 0114 C2E90034 		strd	r3, [r2]
 5409 0118 0123     		movs	r3, #1
 5410 011a 1FE0     		b	.L433
 5411              	.L428:
 5412 011c 3B69     		ldr	r3, [r7, #16]
 5413 011e 4FF00004 		mov	r4, #0
 5414 0122 3A68     		ldr	r2, [r7]
 5415 0124 C2E90034 		strd	r3, [r2]
 5416 0128 0123     		movs	r3, #1
 5417 012a 17E0     		b	.L433
 5418              	.L432:
 5419 012c D7E90434 		ldrd	r3, [r7, #16]
 5420 0130 3A68     		ldr	r2, [r7]
 5421 0132 C2E90034 		strd	r3, [r2]
 5422 0136 0123     		movs	r3, #1
 5423 0138 10E0     		b	.L433
 5424              	.L429:
 5425 013a D7E90434 		ldrd	r3, [r7, #16]
 5426 013e 002B     		cmp	r3, #0
 5427 0140 74F10003 		sbcs	r3, r4, #0
 5428 0144 06DB     		blt	.L423
 5429 0146 D7E90434 		ldrd	r3, [r7, #16]
 5430 014a 3A68     		ldr	r2, [r7]
 5431 014c C2E90034 		strd	r3, [r2]
 5432 0150 0123     		movs	r3, #1
 5433 0152 03E0     		b	.L433
 5434              	.L423:
 5435 0154 7B68     		ldr	r3, [r7, #4]
 5436 0156 0D22     		movs	r2, #13
 5437 0158 1A70     		strb	r2, [r3]
 5438 015a 0023     		movs	r3, #0
 5439              	.L433:
 5440 015c 1846     		mov	r0, r3
 5441 015e 1C37     		adds	r7, r7, #28
 5442 0160 BD46     		mov	sp, r7
 5443              		@ sp needed
 5444 0162 90BD     		pop	{r4, r7, pc}
 5445              		.size	cmp_read_long, .-cmp_read_long
 5446              		.section	.text.cmp_read_sinteger,"ax",%progbits
 5447              		.align	1
 5448              		.global	cmp_read_sinteger
 5449              		.syntax unified
 5450              		.thumb
 5451              		.thumb_func
 5452              		.fpu fpv4-sp-d16
 5453              		.type	cmp_read_sinteger, %function
 5454              	cmp_read_sinteger:
 5455              		@ args = 0, pretend = 0, frame = 8
 5456              		@ frame_needed = 1, uses_anonymous_args = 0
 5457 0000 80B5     		push	{r7, lr}
 5458 0002 82B0     		sub	sp, sp, #8
 5459 0004 00AF     		add	r7, sp, #0
 5460 0006 7860     		str	r0, [r7, #4]
 5461 0008 3960     		str	r1, [r7]
 5462 000a 3968     		ldr	r1, [r7]
 5463 000c 7868     		ldr	r0, [r7, #4]
 5464 000e FFF7FEFF 		bl	cmp_read_long
ARM GAS  /var/folders/d2/nstgp4h54kz7g1l847x_b8wc0000gn/T//ccFI0sM2.s 			page 98


 5465 0012 0346     		mov	r3, r0
 5466 0014 1846     		mov	r0, r3
 5467 0016 0837     		adds	r7, r7, #8
 5468 0018 BD46     		mov	sp, r7
 5469              		@ sp needed
 5470 001a 80BD     		pop	{r7, pc}
 5471              		.size	cmp_read_sinteger, .-cmp_read_sinteger
 5472              		.section	.text.cmp_read_ufix,"ax",%progbits
 5473              		.align	1
 5474              		.global	cmp_read_ufix
 5475              		.syntax unified
 5476              		.thumb
 5477              		.thumb_func
 5478              		.fpu fpv4-sp-d16
 5479              		.type	cmp_read_ufix, %function
 5480              	cmp_read_ufix:
 5481              		@ args = 0, pretend = 0, frame = 24
 5482              		@ frame_needed = 1, uses_anonymous_args = 0
 5483 0000 80B5     		push	{r7, lr}
 5484 0002 86B0     		sub	sp, sp, #24
 5485 0004 00AF     		add	r7, sp, #0
 5486 0006 7860     		str	r0, [r7, #4]
 5487 0008 3960     		str	r1, [r7]
 5488 000a 07F10803 		add	r3, r7, #8
 5489 000e 1946     		mov	r1, r3
 5490 0010 7868     		ldr	r0, [r7, #4]
 5491 0012 FFF7FEFF 		bl	cmp_read_object
 5492 0016 0346     		mov	r3, r0
 5493 0018 83F00103 		eor	r3, r3, #1
 5494 001c DBB2     		uxtb	r3, r3
 5495 001e 002B     		cmp	r3, #0
 5496 0020 01D0     		beq	.L437
 5497 0022 0023     		movs	r3, #0
 5498 0024 0BE0     		b	.L440
 5499              	.L437:
 5500 0026 3B7A     		ldrb	r3, [r7, #8]	@ zero_extendqisi2
 5501 0028 222B     		cmp	r3, #34
 5502 002a 04D0     		beq	.L439
 5503 002c 7B68     		ldr	r3, [r7, #4]
 5504 002e 0D22     		movs	r2, #13
 5505 0030 1A70     		strb	r2, [r3]
 5506 0032 0023     		movs	r3, #0
 5507 0034 03E0     		b	.L440
 5508              	.L439:
 5509 0036 3A7C     		ldrb	r2, [r7, #16]	@ zero_extendqisi2
 5510 0038 3B68     		ldr	r3, [r7]
 5511 003a 1A70     		strb	r2, [r3]
 5512 003c 0123     		movs	r3, #1
 5513              	.L440:
 5514 003e 1846     		mov	r0, r3
 5515 0040 1837     		adds	r7, r7, #24
 5516 0042 BD46     		mov	sp, r7
 5517              		@ sp needed
 5518 0044 80BD     		pop	{r7, pc}
 5519              		.size	cmp_read_ufix, .-cmp_read_ufix
 5520              		.section	.text.cmp_read_u8,"ax",%progbits
 5521              		.align	1
ARM GAS  /var/folders/d2/nstgp4h54kz7g1l847x_b8wc0000gn/T//ccFI0sM2.s 			page 99


 5522              		.global	cmp_read_u8
 5523              		.syntax unified
 5524              		.thumb
 5525              		.thumb_func
 5526              		.fpu fpv4-sp-d16
 5527              		.type	cmp_read_u8, %function
 5528              	cmp_read_u8:
 5529              		@ args = 0, pretend = 0, frame = 24
 5530              		@ frame_needed = 1, uses_anonymous_args = 0
 5531 0000 80B5     		push	{r7, lr}
 5532 0002 86B0     		sub	sp, sp, #24
 5533 0004 00AF     		add	r7, sp, #0
 5534 0006 7860     		str	r0, [r7, #4]
 5535 0008 3960     		str	r1, [r7]
 5536 000a 07F10803 		add	r3, r7, #8
 5537 000e 1946     		mov	r1, r3
 5538 0010 7868     		ldr	r0, [r7, #4]
 5539 0012 FFF7FEFF 		bl	cmp_read_object
 5540 0016 0346     		mov	r3, r0
 5541 0018 83F00103 		eor	r3, r3, #1
 5542 001c DBB2     		uxtb	r3, r3
 5543 001e 002B     		cmp	r3, #0
 5544 0020 01D0     		beq	.L442
 5545 0022 0023     		movs	r3, #0
 5546 0024 0BE0     		b	.L445
 5547              	.L442:
 5548 0026 3B7A     		ldrb	r3, [r7, #8]	@ zero_extendqisi2
 5549 0028 0E2B     		cmp	r3, #14
 5550 002a 04D0     		beq	.L444
 5551 002c 7B68     		ldr	r3, [r7, #4]
 5552 002e 0D22     		movs	r2, #13
 5553 0030 1A70     		strb	r2, [r3]
 5554 0032 0023     		movs	r3, #0
 5555 0034 03E0     		b	.L445
 5556              	.L444:
 5557 0036 3A7C     		ldrb	r2, [r7, #16]	@ zero_extendqisi2
 5558 0038 3B68     		ldr	r3, [r7]
 5559 003a 1A70     		strb	r2, [r3]
 5560 003c 0123     		movs	r3, #1
 5561              	.L445:
 5562 003e 1846     		mov	r0, r3
 5563 0040 1837     		adds	r7, r7, #24
 5564 0042 BD46     		mov	sp, r7
 5565              		@ sp needed
 5566 0044 80BD     		pop	{r7, pc}
 5567              		.size	cmp_read_u8, .-cmp_read_u8
 5568              		.section	.text.cmp_read_u16,"ax",%progbits
 5569              		.align	1
 5570              		.global	cmp_read_u16
 5571              		.syntax unified
 5572              		.thumb
 5573              		.thumb_func
 5574              		.fpu fpv4-sp-d16
 5575              		.type	cmp_read_u16, %function
 5576              	cmp_read_u16:
 5577              		@ args = 0, pretend = 0, frame = 24
 5578              		@ frame_needed = 1, uses_anonymous_args = 0
ARM GAS  /var/folders/d2/nstgp4h54kz7g1l847x_b8wc0000gn/T//ccFI0sM2.s 			page 100


 5579 0000 80B5     		push	{r7, lr}
 5580 0002 86B0     		sub	sp, sp, #24
 5581 0004 00AF     		add	r7, sp, #0
 5582 0006 7860     		str	r0, [r7, #4]
 5583 0008 3960     		str	r1, [r7]
 5584 000a 07F10803 		add	r3, r7, #8
 5585 000e 1946     		mov	r1, r3
 5586 0010 7868     		ldr	r0, [r7, #4]
 5587 0012 FFF7FEFF 		bl	cmp_read_object
 5588 0016 0346     		mov	r3, r0
 5589 0018 83F00103 		eor	r3, r3, #1
 5590 001c DBB2     		uxtb	r3, r3
 5591 001e 002B     		cmp	r3, #0
 5592 0020 01D0     		beq	.L447
 5593 0022 0023     		movs	r3, #0
 5594 0024 0BE0     		b	.L450
 5595              	.L447:
 5596 0026 3B7A     		ldrb	r3, [r7, #8]	@ zero_extendqisi2
 5597 0028 0F2B     		cmp	r3, #15
 5598 002a 04D0     		beq	.L449
 5599 002c 7B68     		ldr	r3, [r7, #4]
 5600 002e 0D22     		movs	r2, #13
 5601 0030 1A70     		strb	r2, [r3]
 5602 0032 0023     		movs	r3, #0
 5603 0034 03E0     		b	.L450
 5604              	.L449:
 5605 0036 3A8A     		ldrh	r2, [r7, #16]
 5606 0038 3B68     		ldr	r3, [r7]
 5607 003a 1A80     		strh	r2, [r3]	@ movhi
 5608 003c 0123     		movs	r3, #1
 5609              	.L450:
 5610 003e 1846     		mov	r0, r3
 5611 0040 1837     		adds	r7, r7, #24
 5612 0042 BD46     		mov	sp, r7
 5613              		@ sp needed
 5614 0044 80BD     		pop	{r7, pc}
 5615              		.size	cmp_read_u16, .-cmp_read_u16
 5616              		.section	.text.cmp_read_u32,"ax",%progbits
 5617              		.align	1
 5618              		.global	cmp_read_u32
 5619              		.syntax unified
 5620              		.thumb
 5621              		.thumb_func
 5622              		.fpu fpv4-sp-d16
 5623              		.type	cmp_read_u32, %function
 5624              	cmp_read_u32:
 5625              		@ args = 0, pretend = 0, frame = 24
 5626              		@ frame_needed = 1, uses_anonymous_args = 0
 5627 0000 80B5     		push	{r7, lr}
 5628 0002 86B0     		sub	sp, sp, #24
 5629 0004 00AF     		add	r7, sp, #0
 5630 0006 7860     		str	r0, [r7, #4]
 5631 0008 3960     		str	r1, [r7]
 5632 000a 07F10803 		add	r3, r7, #8
 5633 000e 1946     		mov	r1, r3
 5634 0010 7868     		ldr	r0, [r7, #4]
 5635 0012 FFF7FEFF 		bl	cmp_read_object
ARM GAS  /var/folders/d2/nstgp4h54kz7g1l847x_b8wc0000gn/T//ccFI0sM2.s 			page 101


 5636 0016 0346     		mov	r3, r0
 5637 0018 83F00103 		eor	r3, r3, #1
 5638 001c DBB2     		uxtb	r3, r3
 5639 001e 002B     		cmp	r3, #0
 5640 0020 01D0     		beq	.L452
 5641 0022 0023     		movs	r3, #0
 5642 0024 0BE0     		b	.L455
 5643              	.L452:
 5644 0026 3B7A     		ldrb	r3, [r7, #8]	@ zero_extendqisi2
 5645 0028 102B     		cmp	r3, #16
 5646 002a 04D0     		beq	.L454
 5647 002c 7B68     		ldr	r3, [r7, #4]
 5648 002e 0D22     		movs	r2, #13
 5649 0030 1A70     		strb	r2, [r3]
 5650 0032 0023     		movs	r3, #0
 5651 0034 03E0     		b	.L455
 5652              	.L454:
 5653 0036 3A69     		ldr	r2, [r7, #16]
 5654 0038 3B68     		ldr	r3, [r7]
 5655 003a 1A60     		str	r2, [r3]
 5656 003c 0123     		movs	r3, #1
 5657              	.L455:
 5658 003e 1846     		mov	r0, r3
 5659 0040 1837     		adds	r7, r7, #24
 5660 0042 BD46     		mov	sp, r7
 5661              		@ sp needed
 5662 0044 80BD     		pop	{r7, pc}
 5663              		.size	cmp_read_u32, .-cmp_read_u32
 5664              		.section	.text.cmp_read_u64,"ax",%progbits
 5665              		.align	1
 5666              		.global	cmp_read_u64
 5667              		.syntax unified
 5668              		.thumb
 5669              		.thumb_func
 5670              		.fpu fpv4-sp-d16
 5671              		.type	cmp_read_u64, %function
 5672              	cmp_read_u64:
 5673              		@ args = 0, pretend = 0, frame = 24
 5674              		@ frame_needed = 1, uses_anonymous_args = 0
 5675 0000 90B5     		push	{r4, r7, lr}
 5676 0002 87B0     		sub	sp, sp, #28
 5677 0004 00AF     		add	r7, sp, #0
 5678 0006 7860     		str	r0, [r7, #4]
 5679 0008 3960     		str	r1, [r7]
 5680 000a 07F10803 		add	r3, r7, #8
 5681 000e 1946     		mov	r1, r3
 5682 0010 7868     		ldr	r0, [r7, #4]
 5683 0012 FFF7FEFF 		bl	cmp_read_object
 5684 0016 0346     		mov	r3, r0
 5685 0018 83F00103 		eor	r3, r3, #1
 5686 001c DBB2     		uxtb	r3, r3
 5687 001e 002B     		cmp	r3, #0
 5688 0020 01D0     		beq	.L457
 5689 0022 0023     		movs	r3, #0
 5690 0024 0DE0     		b	.L460
 5691              	.L457:
 5692 0026 3B7A     		ldrb	r3, [r7, #8]	@ zero_extendqisi2
ARM GAS  /var/folders/d2/nstgp4h54kz7g1l847x_b8wc0000gn/T//ccFI0sM2.s 			page 102


 5693 0028 112B     		cmp	r3, #17
 5694 002a 04D0     		beq	.L459
 5695 002c 7B68     		ldr	r3, [r7, #4]
 5696 002e 0D22     		movs	r2, #13
 5697 0030 1A70     		strb	r2, [r3]
 5698 0032 0023     		movs	r3, #0
 5699 0034 05E0     		b	.L460
 5700              	.L459:
 5701 0036 D7E90434 		ldrd	r3, [r7, #16]
 5702 003a 3A68     		ldr	r2, [r7]
 5703 003c C2E90034 		strd	r3, [r2]
 5704 0040 0123     		movs	r3, #1
 5705              	.L460:
 5706 0042 1846     		mov	r0, r3
 5707 0044 1C37     		adds	r7, r7, #28
 5708 0046 BD46     		mov	sp, r7
 5709              		@ sp needed
 5710 0048 90BD     		pop	{r4, r7, pc}
 5711              		.size	cmp_read_u64, .-cmp_read_u64
 5712              		.section	.text.cmp_read_uchar,"ax",%progbits
 5713              		.align	1
 5714              		.global	cmp_read_uchar
 5715              		.syntax unified
 5716              		.thumb
 5717              		.thumb_func
 5718              		.fpu fpv4-sp-d16
 5719              		.type	cmp_read_uchar, %function
 5720              	cmp_read_uchar:
 5721              		@ args = 0, pretend = 0, frame = 24
 5722              		@ frame_needed = 1, uses_anonymous_args = 0
 5723 0000 80B5     		push	{r7, lr}
 5724 0002 86B0     		sub	sp, sp, #24
 5725 0004 00AF     		add	r7, sp, #0
 5726 0006 7860     		str	r0, [r7, #4]
 5727 0008 3960     		str	r1, [r7]
 5728 000a 07F10803 		add	r3, r7, #8
 5729 000e 1946     		mov	r1, r3
 5730 0010 7868     		ldr	r0, [r7, #4]
 5731 0012 FFF7FEFF 		bl	cmp_read_object
 5732 0016 0346     		mov	r3, r0
 5733 0018 83F00103 		eor	r3, r3, #1
 5734 001c DBB2     		uxtb	r3, r3
 5735 001e 002B     		cmp	r3, #0
 5736 0020 01D0     		beq	.L462
 5737 0022 0023     		movs	r3, #0
 5738 0024 0DE0     		b	.L466
 5739              	.L462:
 5740 0026 3B7A     		ldrb	r3, [r7, #8]	@ zero_extendqisi2
 5741 0028 002B     		cmp	r3, #0
 5742 002a 01D0     		beq	.L465
 5743 002c 0E2B     		cmp	r3, #14
 5744 002e 04D1     		bne	.L467
 5745              	.L465:
 5746 0030 3A7C     		ldrb	r2, [r7, #16]	@ zero_extendqisi2
 5747 0032 3B68     		ldr	r3, [r7]
 5748 0034 1A70     		strb	r2, [r3]
 5749 0036 0123     		movs	r3, #1
ARM GAS  /var/folders/d2/nstgp4h54kz7g1l847x_b8wc0000gn/T//ccFI0sM2.s 			page 103


 5750 0038 03E0     		b	.L466
 5751              	.L467:
 5752 003a 7B68     		ldr	r3, [r7, #4]
 5753 003c 0D22     		movs	r2, #13
 5754 003e 1A70     		strb	r2, [r3]
 5755 0040 0023     		movs	r3, #0
 5756              	.L466:
 5757 0042 1846     		mov	r0, r3
 5758 0044 1837     		adds	r7, r7, #24
 5759 0046 BD46     		mov	sp, r7
 5760              		@ sp needed
 5761 0048 80BD     		pop	{r7, pc}
 5762              		.size	cmp_read_uchar, .-cmp_read_uchar
 5763              		.section	.text.cmp_read_ushort,"ax",%progbits
 5764              		.align	1
 5765              		.global	cmp_read_ushort
 5766              		.syntax unified
 5767              		.thumb
 5768              		.thumb_func
 5769              		.fpu fpv4-sp-d16
 5770              		.type	cmp_read_ushort, %function
 5771              	cmp_read_ushort:
 5772              		@ args = 0, pretend = 0, frame = 24
 5773              		@ frame_needed = 1, uses_anonymous_args = 0
 5774 0000 80B5     		push	{r7, lr}
 5775 0002 86B0     		sub	sp, sp, #24
 5776 0004 00AF     		add	r7, sp, #0
 5777 0006 7860     		str	r0, [r7, #4]
 5778 0008 3960     		str	r1, [r7]
 5779 000a 07F10803 		add	r3, r7, #8
 5780 000e 1946     		mov	r1, r3
 5781 0010 7868     		ldr	r0, [r7, #4]
 5782 0012 FFF7FEFF 		bl	cmp_read_object
 5783 0016 0346     		mov	r3, r0
 5784 0018 83F00103 		eor	r3, r3, #1
 5785 001c DBB2     		uxtb	r3, r3
 5786 001e 002B     		cmp	r3, #0
 5787 0020 01D0     		beq	.L469
 5788 0022 0023     		movs	r3, #0
 5789 0024 15E0     		b	.L474
 5790              	.L469:
 5791 0026 3B7A     		ldrb	r3, [r7, #8]	@ zero_extendqisi2
 5792 0028 0E2B     		cmp	r3, #14
 5793 002a 03D0     		beq	.L472
 5794 002c 0F2B     		cmp	r3, #15
 5795 002e 07D0     		beq	.L473
 5796 0030 002B     		cmp	r3, #0
 5797 0032 0AD1     		bne	.L475
 5798              	.L472:
 5799 0034 3B7C     		ldrb	r3, [r7, #16]	@ zero_extendqisi2
 5800 0036 9AB2     		uxth	r2, r3
 5801 0038 3B68     		ldr	r3, [r7]
 5802 003a 1A80     		strh	r2, [r3]	@ movhi
 5803 003c 0123     		movs	r3, #1
 5804 003e 08E0     		b	.L474
 5805              	.L473:
 5806 0040 3A8A     		ldrh	r2, [r7, #16]
ARM GAS  /var/folders/d2/nstgp4h54kz7g1l847x_b8wc0000gn/T//ccFI0sM2.s 			page 104


 5807 0042 3B68     		ldr	r3, [r7]
 5808 0044 1A80     		strh	r2, [r3]	@ movhi
 5809 0046 0123     		movs	r3, #1
 5810 0048 03E0     		b	.L474
 5811              	.L475:
 5812 004a 7B68     		ldr	r3, [r7, #4]
 5813 004c 0D22     		movs	r2, #13
 5814 004e 1A70     		strb	r2, [r3]
 5815 0050 0023     		movs	r3, #0
 5816              	.L474:
 5817 0052 1846     		mov	r0, r3
 5818 0054 1837     		adds	r7, r7, #24
 5819 0056 BD46     		mov	sp, r7
 5820              		@ sp needed
 5821 0058 80BD     		pop	{r7, pc}
 5822              		.size	cmp_read_ushort, .-cmp_read_ushort
 5823              		.section	.text.cmp_read_uint,"ax",%progbits
 5824              		.align	1
 5825              		.global	cmp_read_uint
 5826              		.syntax unified
 5827              		.thumb
 5828              		.thumb_func
 5829              		.fpu fpv4-sp-d16
 5830              		.type	cmp_read_uint, %function
 5831              	cmp_read_uint:
 5832              		@ args = 0, pretend = 0, frame = 24
 5833              		@ frame_needed = 1, uses_anonymous_args = 0
 5834 0000 80B5     		push	{r7, lr}
 5835 0002 86B0     		sub	sp, sp, #24
 5836 0004 00AF     		add	r7, sp, #0
 5837 0006 7860     		str	r0, [r7, #4]
 5838 0008 3960     		str	r1, [r7]
 5839 000a 07F10803 		add	r3, r7, #8
 5840 000e 1946     		mov	r1, r3
 5841 0010 7868     		ldr	r0, [r7, #4]
 5842 0012 FFF7FEFF 		bl	cmp_read_object
 5843 0016 0346     		mov	r3, r0
 5844 0018 83F00103 		eor	r3, r3, #1
 5845 001c DBB2     		uxtb	r3, r3
 5846 001e 002B     		cmp	r3, #0
 5847 0020 01D0     		beq	.L477
 5848 0022 0023     		movs	r3, #0
 5849 0024 3DE0     		b	.L484
 5850              	.L477:
 5851 0026 3B7A     		ldrb	r3, [r7, #8]	@ zero_extendqisi2
 5852 0028 102B     		cmp	r3, #16
 5853 002a 36D8     		bhi	.L479
 5854 002c 01A2     		adr	r2, .L481
 5855 002e 52F823F0 		ldr	pc, [r2, r3, lsl #2]
 5856 0032 00BF     		.p2align 2
 5857              	.L481:
 5858 0034 79000000 		.word	.L480+1
 5859 0038 9B000000 		.word	.L479+1
 5860 003c 9B000000 		.word	.L479+1
 5861 0040 9B000000 		.word	.L479+1
 5862 0044 9B000000 		.word	.L479+1
 5863 0048 9B000000 		.word	.L479+1
ARM GAS  /var/folders/d2/nstgp4h54kz7g1l847x_b8wc0000gn/T//ccFI0sM2.s 			page 105


 5864 004c 9B000000 		.word	.L479+1
 5865 0050 9B000000 		.word	.L479+1
 5866 0054 9B000000 		.word	.L479+1
 5867 0058 9B000000 		.word	.L479+1
 5868 005c 9B000000 		.word	.L479+1
 5869 0060 9B000000 		.word	.L479+1
 5870 0064 9B000000 		.word	.L479+1
 5871 0068 9B000000 		.word	.L479+1
 5872 006c 79000000 		.word	.L480+1
 5873 0070 85000000 		.word	.L482+1
 5874 0074 91000000 		.word	.L483+1
 5875              		.p2align 1
 5876              	.L480:
 5877 0078 3B7C     		ldrb	r3, [r7, #16]	@ zero_extendqisi2
 5878 007a 1A46     		mov	r2, r3
 5879 007c 3B68     		ldr	r3, [r7]
 5880 007e 1A60     		str	r2, [r3]
 5881 0080 0123     		movs	r3, #1
 5882 0082 0EE0     		b	.L484
 5883              	.L482:
 5884 0084 3B8A     		ldrh	r3, [r7, #16]
 5885 0086 1A46     		mov	r2, r3
 5886 0088 3B68     		ldr	r3, [r7]
 5887 008a 1A60     		str	r2, [r3]
 5888 008c 0123     		movs	r3, #1
 5889 008e 08E0     		b	.L484
 5890              	.L483:
 5891 0090 3A69     		ldr	r2, [r7, #16]
 5892 0092 3B68     		ldr	r3, [r7]
 5893 0094 1A60     		str	r2, [r3]
 5894 0096 0123     		movs	r3, #1
 5895 0098 03E0     		b	.L484
 5896              	.L479:
 5897 009a 7B68     		ldr	r3, [r7, #4]
 5898 009c 0D22     		movs	r2, #13
 5899 009e 1A70     		strb	r2, [r3]
 5900 00a0 0023     		movs	r3, #0
 5901              	.L484:
 5902 00a2 1846     		mov	r0, r3
 5903 00a4 1837     		adds	r7, r7, #24
 5904 00a6 BD46     		mov	sp, r7
 5905              		@ sp needed
 5906 00a8 80BD     		pop	{r7, pc}
 5907              		.size	cmp_read_uint, .-cmp_read_uint
 5908 00aa 00BF     		.section	.text.cmp_read_ulong,"ax",%progbits
 5909              		.align	1
 5910              		.global	cmp_read_ulong
 5911              		.syntax unified
 5912              		.thumb
 5913              		.thumb_func
 5914              		.fpu fpv4-sp-d16
 5915              		.type	cmp_read_ulong, %function
 5916              	cmp_read_ulong:
 5917              		@ args = 0, pretend = 0, frame = 24
 5918              		@ frame_needed = 1, uses_anonymous_args = 0
 5919 0000 90B5     		push	{r4, r7, lr}
 5920 0002 87B0     		sub	sp, sp, #28
ARM GAS  /var/folders/d2/nstgp4h54kz7g1l847x_b8wc0000gn/T//ccFI0sM2.s 			page 106


 5921 0004 00AF     		add	r7, sp, #0
 5922 0006 7860     		str	r0, [r7, #4]
 5923 0008 3960     		str	r1, [r7]
 5924 000a 07F10803 		add	r3, r7, #8
 5925 000e 1946     		mov	r1, r3
 5926 0010 7868     		ldr	r0, [r7, #4]
 5927 0012 FFF7FEFF 		bl	cmp_read_object
 5928 0016 0346     		mov	r3, r0
 5929 0018 83F00103 		eor	r3, r3, #1
 5930 001c DBB2     		uxtb	r3, r3
 5931 001e 002B     		cmp	r3, #0
 5932 0020 01D0     		beq	.L486
 5933 0022 0023     		movs	r3, #0
 5934 0024 4FE0     		b	.L494
 5935              	.L486:
 5936 0026 3B7A     		ldrb	r3, [r7, #8]	@ zero_extendqisi2
 5937 0028 112B     		cmp	r3, #17
 5938 002a 48D8     		bhi	.L488
 5939 002c 01A2     		adr	r2, .L490
 5940 002e 52F823F0 		ldr	pc, [r2, r3, lsl #2]
 5941 0032 00BF     		.p2align 2
 5942              	.L490:
 5943 0034 7D000000 		.word	.L489+1
 5944 0038 BF000000 		.word	.L488+1
 5945 003c BF000000 		.word	.L488+1
 5946 0040 BF000000 		.word	.L488+1
 5947 0044 BF000000 		.word	.L488+1
 5948 0048 BF000000 		.word	.L488+1
 5949 004c BF000000 		.word	.L488+1
 5950 0050 BF000000 		.word	.L488+1
 5951 0054 BF000000 		.word	.L488+1
 5952 0058 BF000000 		.word	.L488+1
 5953 005c BF000000 		.word	.L488+1
 5954 0060 BF000000 		.word	.L488+1
 5955 0064 BF000000 		.word	.L488+1
 5956 0068 BF000000 		.word	.L488+1
 5957 006c 7D000000 		.word	.L489+1
 5958 0070 8F000000 		.word	.L491+1
 5959 0074 A1000000 		.word	.L492+1
 5960 0078 B1000000 		.word	.L493+1
 5961              		.p2align 1
 5962              	.L489:
 5963 007c 3B7C     		ldrb	r3, [r7, #16]	@ zero_extendqisi2
 5964 007e DBB2     		uxtb	r3, r3
 5965 0080 4FF00004 		mov	r4, #0
 5966 0084 3A68     		ldr	r2, [r7]
 5967 0086 C2E90034 		strd	r3, [r2]
 5968 008a 0123     		movs	r3, #1
 5969 008c 1BE0     		b	.L494
 5970              	.L491:
 5971 008e 3B8A     		ldrh	r3, [r7, #16]
 5972 0090 9BB2     		uxth	r3, r3
 5973 0092 4FF00004 		mov	r4, #0
 5974 0096 3A68     		ldr	r2, [r7]
 5975 0098 C2E90034 		strd	r3, [r2]
 5976 009c 0123     		movs	r3, #1
 5977 009e 12E0     		b	.L494
ARM GAS  /var/folders/d2/nstgp4h54kz7g1l847x_b8wc0000gn/T//ccFI0sM2.s 			page 107


 5978              	.L492:
 5979 00a0 3B69     		ldr	r3, [r7, #16]
 5980 00a2 4FF00004 		mov	r4, #0
 5981 00a6 3A68     		ldr	r2, [r7]
 5982 00a8 C2E90034 		strd	r3, [r2]
 5983 00ac 0123     		movs	r3, #1
 5984 00ae 0AE0     		b	.L494
 5985              	.L493:
 5986 00b0 D7E90434 		ldrd	r3, [r7, #16]
 5987 00b4 3A68     		ldr	r2, [r7]
 5988 00b6 C2E90034 		strd	r3, [r2]
 5989 00ba 0123     		movs	r3, #1
 5990 00bc 03E0     		b	.L494
 5991              	.L488:
 5992 00be 7B68     		ldr	r3, [r7, #4]
 5993 00c0 0D22     		movs	r2, #13
 5994 00c2 1A70     		strb	r2, [r3]
 5995 00c4 0023     		movs	r3, #0
 5996              	.L494:
 5997 00c6 1846     		mov	r0, r3
 5998 00c8 1C37     		adds	r7, r7, #28
 5999 00ca BD46     		mov	sp, r7
 6000              		@ sp needed
 6001 00cc 90BD     		pop	{r4, r7, pc}
 6002              		.size	cmp_read_ulong, .-cmp_read_ulong
 6003 00ce 00BF     		.section	.text.cmp_read_uinteger,"ax",%progbits
 6004              		.align	1
 6005              		.global	cmp_read_uinteger
 6006              		.syntax unified
 6007              		.thumb
 6008              		.thumb_func
 6009              		.fpu fpv4-sp-d16
 6010              		.type	cmp_read_uinteger, %function
 6011              	cmp_read_uinteger:
 6012              		@ args = 0, pretend = 0, frame = 8
 6013              		@ frame_needed = 1, uses_anonymous_args = 0
 6014 0000 80B5     		push	{r7, lr}
 6015 0002 82B0     		sub	sp, sp, #8
 6016 0004 00AF     		add	r7, sp, #0
 6017 0006 7860     		str	r0, [r7, #4]
 6018 0008 3960     		str	r1, [r7]
 6019 000a 3968     		ldr	r1, [r7]
 6020 000c 7868     		ldr	r0, [r7, #4]
 6021 000e FFF7FEFF 		bl	cmp_read_ulong
 6022 0012 0346     		mov	r3, r0
 6023 0014 1846     		mov	r0, r3
 6024 0016 0837     		adds	r7, r7, #8
 6025 0018 BD46     		mov	sp, r7
 6026              		@ sp needed
 6027 001a 80BD     		pop	{r7, pc}
 6028              		.size	cmp_read_uinteger, .-cmp_read_uinteger
 6029              		.global	__aeabi_d2f
 6030              		.section	.text.cmp_read_float,"ax",%progbits
 6031              		.align	1
 6032              		.global	cmp_read_float
 6033              		.syntax unified
 6034              		.thumb
ARM GAS  /var/folders/d2/nstgp4h54kz7g1l847x_b8wc0000gn/T//ccFI0sM2.s 			page 108


 6035              		.thumb_func
 6036              		.fpu fpv4-sp-d16
 6037              		.type	cmp_read_float, %function
 6038              	cmp_read_float:
 6039              		@ args = 0, pretend = 0, frame = 24
 6040              		@ frame_needed = 1, uses_anonymous_args = 0
 6041 0000 90B5     		push	{r4, r7, lr}
 6042 0002 87B0     		sub	sp, sp, #28
 6043 0004 00AF     		add	r7, sp, #0
 6044 0006 7860     		str	r0, [r7, #4]
 6045 0008 3960     		str	r1, [r7]
 6046 000a 07F10803 		add	r3, r7, #8
 6047 000e 1946     		mov	r1, r3
 6048 0010 7868     		ldr	r0, [r7, #4]
 6049 0012 FFF7FEFF 		bl	cmp_read_object
 6050 0016 0346     		mov	r3, r0
 6051 0018 83F00103 		eor	r3, r3, #1
 6052 001c DBB2     		uxtb	r3, r3
 6053 001e 002B     		cmp	r3, #0
 6054 0020 01D0     		beq	.L498
 6055 0022 0023     		movs	r3, #0
 6056 0024 19E0     		b	.L502
 6057              	.L498:
 6058 0026 3B7A     		ldrb	r3, [r7, #8]	@ zero_extendqisi2
 6059 0028 0C2B     		cmp	r3, #12
 6060 002a 04D1     		bne	.L500
 6061 002c 3A69     		ldr	r2, [r7, #16]	@ float
 6062 002e 3B68     		ldr	r3, [r7]
 6063 0030 1A60     		str	r2, [r3]	@ float
 6064 0032 0123     		movs	r3, #1
 6065 0034 11E0     		b	.L502
 6066              	.L500:
 6067 0036 3B7A     		ldrb	r3, [r7, #8]	@ zero_extendqisi2
 6068 0038 0D2B     		cmp	r3, #13
 6069 003a 0AD1     		bne	.L501
 6070 003c D7E90434 		ldrd	r3, [r7, #16]
 6071 0040 1846     		mov	r0, r3
 6072 0042 2146     		mov	r1, r4
 6073 0044 FFF7FEFF 		bl	__aeabi_d2f
 6074 0048 0246     		mov	r2, r0	@ float
 6075 004a 3B68     		ldr	r3, [r7]
 6076 004c 1A60     		str	r2, [r3]	@ float
 6077 004e 0123     		movs	r3, #1
 6078 0050 03E0     		b	.L502
 6079              	.L501:
 6080 0052 7B68     		ldr	r3, [r7, #4]
 6081 0054 0D22     		movs	r2, #13
 6082 0056 1A70     		strb	r2, [r3]
 6083 0058 0023     		movs	r3, #0
 6084              	.L502:
 6085 005a 1846     		mov	r0, r3
 6086 005c 1C37     		adds	r7, r7, #28
 6087 005e BD46     		mov	sp, r7
 6088              		@ sp needed
 6089 0060 90BD     		pop	{r4, r7, pc}
 6090              		.size	cmp_read_float, .-cmp_read_float
 6091              		.global	__aeabi_f2d
ARM GAS  /var/folders/d2/nstgp4h54kz7g1l847x_b8wc0000gn/T//ccFI0sM2.s 			page 109


 6092              		.section	.text.cmp_read_double,"ax",%progbits
 6093              		.align	1
 6094              		.global	cmp_read_double
 6095              		.syntax unified
 6096              		.thumb
 6097              		.thumb_func
 6098              		.fpu fpv4-sp-d16
 6099              		.type	cmp_read_double, %function
 6100              	cmp_read_double:
 6101              		@ args = 0, pretend = 0, frame = 24
 6102              		@ frame_needed = 1, uses_anonymous_args = 0
 6103 0000 90B5     		push	{r4, r7, lr}
 6104 0002 87B0     		sub	sp, sp, #28
 6105 0004 00AF     		add	r7, sp, #0
 6106 0006 7860     		str	r0, [r7, #4]
 6107 0008 3960     		str	r1, [r7]
 6108 000a 07F10803 		add	r3, r7, #8
 6109 000e 1946     		mov	r1, r3
 6110 0010 7868     		ldr	r0, [r7, #4]
 6111 0012 FFF7FEFF 		bl	cmp_read_object
 6112 0016 0346     		mov	r3, r0
 6113 0018 83F00103 		eor	r3, r3, #1
 6114 001c DBB2     		uxtb	r3, r3
 6115 001e 002B     		cmp	r3, #0
 6116 0020 01D0     		beq	.L504
 6117 0022 0023     		movs	r3, #0
 6118 0024 1BE0     		b	.L508
 6119              	.L504:
 6120 0026 3B7A     		ldrb	r3, [r7, #8]	@ zero_extendqisi2
 6121 0028 0C2B     		cmp	r3, #12
 6122 002a 0AD1     		bne	.L506
 6123 002c 3B69     		ldr	r3, [r7, #16]	@ float
 6124 002e 1846     		mov	r0, r3	@ float
 6125 0030 FFF7FEFF 		bl	__aeabi_f2d
 6126 0034 0346     		mov	r3, r0
 6127 0036 0C46     		mov	r4, r1
 6128 0038 3A68     		ldr	r2, [r7]
 6129 003a C2E90034 		strd	r3, [r2]
 6130 003e 0123     		movs	r3, #1
 6131 0040 0DE0     		b	.L508
 6132              	.L506:
 6133 0042 3B7A     		ldrb	r3, [r7, #8]	@ zero_extendqisi2
 6134 0044 0D2B     		cmp	r3, #13
 6135 0046 06D1     		bne	.L507
 6136 0048 D7E90434 		ldrd	r3, [r7, #16]
 6137 004c 3A68     		ldr	r2, [r7]
 6138 004e C2E90034 		strd	r3, [r2]
 6139 0052 0123     		movs	r3, #1
 6140 0054 03E0     		b	.L508
 6141              	.L507:
 6142 0056 7B68     		ldr	r3, [r7, #4]
 6143 0058 0D22     		movs	r2, #13
 6144 005a 1A70     		strb	r2, [r3]
 6145 005c 0023     		movs	r3, #0
 6146              	.L508:
 6147 005e 1846     		mov	r0, r3
 6148 0060 1C37     		adds	r7, r7, #28
ARM GAS  /var/folders/d2/nstgp4h54kz7g1l847x_b8wc0000gn/T//ccFI0sM2.s 			page 110


 6149 0062 BD46     		mov	sp, r7
 6150              		@ sp needed
 6151 0064 90BD     		pop	{r4, r7, pc}
 6152              		.size	cmp_read_double, .-cmp_read_double
 6153              		.section	.text.cmp_read_nil,"ax",%progbits
 6154              		.align	1
 6155              		.global	cmp_read_nil
 6156              		.syntax unified
 6157              		.thumb
 6158              		.thumb_func
 6159              		.fpu fpv4-sp-d16
 6160              		.type	cmp_read_nil, %function
 6161              	cmp_read_nil:
 6162              		@ args = 0, pretend = 0, frame = 24
 6163              		@ frame_needed = 1, uses_anonymous_args = 0
 6164 0000 80B5     		push	{r7, lr}
 6165 0002 86B0     		sub	sp, sp, #24
 6166 0004 00AF     		add	r7, sp, #0
 6167 0006 7860     		str	r0, [r7, #4]
 6168 0008 07F10803 		add	r3, r7, #8
 6169 000c 1946     		mov	r1, r3
 6170 000e 7868     		ldr	r0, [r7, #4]
 6171 0010 FFF7FEFF 		bl	cmp_read_object
 6172 0014 0346     		mov	r3, r0
 6173 0016 83F00103 		eor	r3, r3, #1
 6174 001a DBB2     		uxtb	r3, r3
 6175 001c 002B     		cmp	r3, #0
 6176 001e 01D0     		beq	.L510
 6177 0020 0023     		movs	r3, #0
 6178 0022 08E0     		b	.L513
 6179              	.L510:
 6180 0024 3B7A     		ldrb	r3, [r7, #8]	@ zero_extendqisi2
 6181 0026 042B     		cmp	r3, #4
 6182 0028 01D1     		bne	.L512
 6183 002a 0123     		movs	r3, #1
 6184 002c 03E0     		b	.L513
 6185              	.L512:
 6186 002e 7B68     		ldr	r3, [r7, #4]
 6187 0030 0D22     		movs	r2, #13
 6188 0032 1A70     		strb	r2, [r3]
 6189 0034 0023     		movs	r3, #0
 6190              	.L513:
 6191 0036 1846     		mov	r0, r3
 6192 0038 1837     		adds	r7, r7, #24
 6193 003a BD46     		mov	sp, r7
 6194              		@ sp needed
 6195 003c 80BD     		pop	{r7, pc}
 6196              		.size	cmp_read_nil, .-cmp_read_nil
 6197              		.section	.text.cmp_read_bool,"ax",%progbits
 6198              		.align	1
 6199              		.global	cmp_read_bool
 6200              		.syntax unified
 6201              		.thumb
 6202              		.thumb_func
 6203              		.fpu fpv4-sp-d16
 6204              		.type	cmp_read_bool, %function
 6205              	cmp_read_bool:
ARM GAS  /var/folders/d2/nstgp4h54kz7g1l847x_b8wc0000gn/T//ccFI0sM2.s 			page 111


 6206              		@ args = 0, pretend = 0, frame = 24
 6207              		@ frame_needed = 1, uses_anonymous_args = 0
 6208 0000 80B5     		push	{r7, lr}
 6209 0002 86B0     		sub	sp, sp, #24
 6210 0004 00AF     		add	r7, sp, #0
 6211 0006 7860     		str	r0, [r7, #4]
 6212 0008 3960     		str	r1, [r7]
 6213 000a 07F10803 		add	r3, r7, #8
 6214 000e 1946     		mov	r1, r3
 6215 0010 7868     		ldr	r0, [r7, #4]
 6216 0012 FFF7FEFF 		bl	cmp_read_object
 6217 0016 0346     		mov	r3, r0
 6218 0018 83F00103 		eor	r3, r3, #1
 6219 001c DBB2     		uxtb	r3, r3
 6220 001e 002B     		cmp	r3, #0
 6221 0020 01D0     		beq	.L515
 6222 0022 0023     		movs	r3, #0
 6223 0024 12E0     		b	.L520
 6224              	.L515:
 6225 0026 3B7A     		ldrb	r3, [r7, #8]	@ zero_extendqisi2
 6226 0028 052B     		cmp	r3, #5
 6227 002a 04D0     		beq	.L517
 6228 002c 7B68     		ldr	r3, [r7, #4]
 6229 002e 0D22     		movs	r2, #13
 6230 0030 1A70     		strb	r2, [r3]
 6231 0032 0023     		movs	r3, #0
 6232 0034 0AE0     		b	.L520
 6233              	.L517:
 6234 0036 3B7C     		ldrb	r3, [r7, #16]	@ zero_extendqisi2
 6235 0038 002B     		cmp	r3, #0
 6236 003a 03D0     		beq	.L518
 6237 003c 3B68     		ldr	r3, [r7]
 6238 003e 0122     		movs	r2, #1
 6239 0040 1A70     		strb	r2, [r3]
 6240 0042 02E0     		b	.L519
 6241              	.L518:
 6242 0044 3B68     		ldr	r3, [r7]
 6243 0046 0022     		movs	r2, #0
 6244 0048 1A70     		strb	r2, [r3]
 6245              	.L519:
 6246 004a 0123     		movs	r3, #1
 6247              	.L520:
 6248 004c 1846     		mov	r0, r3
 6249 004e 1837     		adds	r7, r7, #24
 6250 0050 BD46     		mov	sp, r7
 6251              		@ sp needed
 6252 0052 80BD     		pop	{r7, pc}
 6253              		.size	cmp_read_bool, .-cmp_read_bool
 6254              		.section	.text.cmp_read_bool_as_u8,"ax",%progbits
 6255              		.align	1
 6256              		.global	cmp_read_bool_as_u8
 6257              		.syntax unified
 6258              		.thumb
 6259              		.thumb_func
 6260              		.fpu fpv4-sp-d16
 6261              		.type	cmp_read_bool_as_u8, %function
 6262              	cmp_read_bool_as_u8:
ARM GAS  /var/folders/d2/nstgp4h54kz7g1l847x_b8wc0000gn/T//ccFI0sM2.s 			page 112


 6263              		@ args = 0, pretend = 0, frame = 24
 6264              		@ frame_needed = 1, uses_anonymous_args = 0
 6265 0000 80B5     		push	{r7, lr}
 6266 0002 86B0     		sub	sp, sp, #24
 6267 0004 00AF     		add	r7, sp, #0
 6268 0006 7860     		str	r0, [r7, #4]
 6269 0008 3960     		str	r1, [r7]
 6270 000a 07F10803 		add	r3, r7, #8
 6271 000e 1946     		mov	r1, r3
 6272 0010 7868     		ldr	r0, [r7, #4]
 6273 0012 FFF7FEFF 		bl	cmp_read_object
 6274 0016 0346     		mov	r3, r0
 6275 0018 83F00103 		eor	r3, r3, #1
 6276 001c DBB2     		uxtb	r3, r3
 6277 001e 002B     		cmp	r3, #0
 6278 0020 01D0     		beq	.L522
 6279 0022 0023     		movs	r3, #0
 6280 0024 12E0     		b	.L527
 6281              	.L522:
 6282 0026 3B7A     		ldrb	r3, [r7, #8]	@ zero_extendqisi2
 6283 0028 052B     		cmp	r3, #5
 6284 002a 04D0     		beq	.L524
 6285 002c 7B68     		ldr	r3, [r7, #4]
 6286 002e 0D22     		movs	r2, #13
 6287 0030 1A70     		strb	r2, [r3]
 6288 0032 0023     		movs	r3, #0
 6289 0034 0AE0     		b	.L527
 6290              	.L524:
 6291 0036 3B7C     		ldrb	r3, [r7, #16]	@ zero_extendqisi2
 6292 0038 002B     		cmp	r3, #0
 6293 003a 03D0     		beq	.L525
 6294 003c 3B68     		ldr	r3, [r7]
 6295 003e 0122     		movs	r2, #1
 6296 0040 1A70     		strb	r2, [r3]
 6297 0042 02E0     		b	.L526
 6298              	.L525:
 6299 0044 3B68     		ldr	r3, [r7]
 6300 0046 0022     		movs	r2, #0
 6301 0048 1A70     		strb	r2, [r3]
 6302              	.L526:
 6303 004a 0123     		movs	r3, #1
 6304              	.L527:
 6305 004c 1846     		mov	r0, r3
 6306 004e 1837     		adds	r7, r7, #24
 6307 0050 BD46     		mov	sp, r7
 6308              		@ sp needed
 6309 0052 80BD     		pop	{r7, pc}
 6310              		.size	cmp_read_bool_as_u8, .-cmp_read_bool_as_u8
 6311              		.section	.text.cmp_read_str_size,"ax",%progbits
 6312              		.align	1
 6313              		.global	cmp_read_str_size
 6314              		.syntax unified
 6315              		.thumb
 6316              		.thumb_func
 6317              		.fpu fpv4-sp-d16
 6318              		.type	cmp_read_str_size, %function
 6319              	cmp_read_str_size:
ARM GAS  /var/folders/d2/nstgp4h54kz7g1l847x_b8wc0000gn/T//ccFI0sM2.s 			page 113


 6320              		@ args = 0, pretend = 0, frame = 24
 6321              		@ frame_needed = 1, uses_anonymous_args = 0
 6322 0000 80B5     		push	{r7, lr}
 6323 0002 86B0     		sub	sp, sp, #24
 6324 0004 00AF     		add	r7, sp, #0
 6325 0006 7860     		str	r0, [r7, #4]
 6326 0008 3960     		str	r1, [r7]
 6327 000a 07F10803 		add	r3, r7, #8
 6328 000e 1946     		mov	r1, r3
 6329 0010 7868     		ldr	r0, [r7, #4]
 6330 0012 FFF7FEFF 		bl	cmp_read_object
 6331 0016 0346     		mov	r3, r0
 6332 0018 83F00103 		eor	r3, r3, #1
 6333 001c DBB2     		uxtb	r3, r3
 6334 001e 002B     		cmp	r3, #0
 6335 0020 01D0     		beq	.L529
 6336 0022 0023     		movs	r3, #0
 6337 0024 10E0     		b	.L533
 6338              	.L529:
 6339 0026 3B7A     		ldrb	r3, [r7, #8]	@ zero_extendqisi2
 6340 0028 032B     		cmp	r3, #3
 6341 002a 04D0     		beq	.L532
 6342 002c 032B     		cmp	r3, #3
 6343 002e 07DB     		blt	.L531
 6344 0030 1B3B     		subs	r3, r3, #27
 6345 0032 022B     		cmp	r3, #2
 6346 0034 04D8     		bhi	.L531
 6347              	.L532:
 6348 0036 3A69     		ldr	r2, [r7, #16]
 6349 0038 3B68     		ldr	r3, [r7]
 6350 003a 1A60     		str	r2, [r3]
 6351 003c 0123     		movs	r3, #1
 6352 003e 03E0     		b	.L533
 6353              	.L531:
 6354 0040 7B68     		ldr	r3, [r7, #4]
 6355 0042 0D22     		movs	r2, #13
 6356 0044 1A70     		strb	r2, [r3]
 6357 0046 0023     		movs	r3, #0
 6358              	.L533:
 6359 0048 1846     		mov	r0, r3
 6360 004a 1837     		adds	r7, r7, #24
 6361 004c BD46     		mov	sp, r7
 6362              		@ sp needed
 6363 004e 80BD     		pop	{r7, pc}
 6364              		.size	cmp_read_str_size, .-cmp_read_str_size
 6365              		.section	.text.cmp_read_str,"ax",%progbits
 6366              		.align	1
 6367              		.global	cmp_read_str
 6368              		.syntax unified
 6369              		.thumb
 6370              		.thumb_func
 6371              		.fpu fpv4-sp-d16
 6372              		.type	cmp_read_str, %function
 6373              	cmp_read_str:
 6374              		@ args = 0, pretend = 0, frame = 24
 6375              		@ frame_needed = 1, uses_anonymous_args = 0
 6376 0000 80B5     		push	{r7, lr}
ARM GAS  /var/folders/d2/nstgp4h54kz7g1l847x_b8wc0000gn/T//ccFI0sM2.s 			page 114


 6377 0002 86B0     		sub	sp, sp, #24
 6378 0004 00AF     		add	r7, sp, #0
 6379 0006 F860     		str	r0, [r7, #12]
 6380 0008 B960     		str	r1, [r7, #8]
 6381 000a 7A60     		str	r2, [r7, #4]
 6382 000c 0023     		movs	r3, #0
 6383 000e 7B61     		str	r3, [r7, #20]
 6384 0010 07F11403 		add	r3, r7, #20
 6385 0014 1946     		mov	r1, r3
 6386 0016 F868     		ldr	r0, [r7, #12]
 6387 0018 FFF7FEFF 		bl	cmp_read_str_size
 6388 001c 0346     		mov	r3, r0
 6389 001e 83F00103 		eor	r3, r3, #1
 6390 0022 DBB2     		uxtb	r3, r3
 6391 0024 002B     		cmp	r3, #0
 6392 0026 01D0     		beq	.L535
 6393 0028 0023     		movs	r3, #0
 6394 002a 27E0     		b	.L539
 6395              	.L535:
 6396 002c 7B69     		ldr	r3, [r7, #20]
 6397 002e 5A1C     		adds	r2, r3, #1
 6398 0030 7B68     		ldr	r3, [r7, #4]
 6399 0032 1B68     		ldr	r3, [r3]
 6400 0034 9A42     		cmp	r2, r3
 6401 0036 07D9     		bls	.L537
 6402 0038 7A69     		ldr	r2, [r7, #20]
 6403 003a 7B68     		ldr	r3, [r7, #4]
 6404 003c 1A60     		str	r2, [r3]
 6405 003e FB68     		ldr	r3, [r7, #12]
 6406 0040 0122     		movs	r2, #1
 6407 0042 1A70     		strb	r2, [r3]
 6408 0044 0023     		movs	r3, #0
 6409 0046 19E0     		b	.L539
 6410              	.L537:
 6411 0048 FB68     		ldr	r3, [r7, #12]
 6412 004a 9B68     		ldr	r3, [r3, #8]
 6413 004c 7A69     		ldr	r2, [r7, #20]
 6414 004e B968     		ldr	r1, [r7, #8]
 6415 0050 F868     		ldr	r0, [r7, #12]
 6416 0052 9847     		blx	r3
 6417 0054 0346     		mov	r3, r0
 6418 0056 83F00103 		eor	r3, r3, #1
 6419 005a DBB2     		uxtb	r3, r3
 6420 005c 002B     		cmp	r3, #0
 6421 005e 04D0     		beq	.L538
 6422 0060 FB68     		ldr	r3, [r7, #12]
 6423 0062 0922     		movs	r2, #9
 6424 0064 1A70     		strb	r2, [r3]
 6425 0066 0023     		movs	r3, #0
 6426 0068 08E0     		b	.L539
 6427              	.L538:
 6428 006a 7B69     		ldr	r3, [r7, #20]
 6429 006c BA68     		ldr	r2, [r7, #8]
 6430 006e 1344     		add	r3, r3, r2
 6431 0070 0022     		movs	r2, #0
 6432 0072 1A70     		strb	r2, [r3]
 6433 0074 7A69     		ldr	r2, [r7, #20]
ARM GAS  /var/folders/d2/nstgp4h54kz7g1l847x_b8wc0000gn/T//ccFI0sM2.s 			page 115


 6434 0076 7B68     		ldr	r3, [r7, #4]
 6435 0078 1A60     		str	r2, [r3]
 6436 007a 0123     		movs	r3, #1
 6437              	.L539:
 6438 007c 1846     		mov	r0, r3
 6439 007e 1837     		adds	r7, r7, #24
 6440 0080 BD46     		mov	sp, r7
 6441              		@ sp needed
 6442 0082 80BD     		pop	{r7, pc}
 6443              		.size	cmp_read_str, .-cmp_read_str
 6444              		.section	.text.cmp_read_bin_size,"ax",%progbits
 6445              		.align	1
 6446              		.global	cmp_read_bin_size
 6447              		.syntax unified
 6448              		.thumb
 6449              		.thumb_func
 6450              		.fpu fpv4-sp-d16
 6451              		.type	cmp_read_bin_size, %function
 6452              	cmp_read_bin_size:
 6453              		@ args = 0, pretend = 0, frame = 24
 6454              		@ frame_needed = 1, uses_anonymous_args = 0
 6455 0000 80B5     		push	{r7, lr}
 6456 0002 86B0     		sub	sp, sp, #24
 6457 0004 00AF     		add	r7, sp, #0
 6458 0006 7860     		str	r0, [r7, #4]
 6459 0008 3960     		str	r1, [r7]
 6460 000a 07F10803 		add	r3, r7, #8
 6461 000e 1946     		mov	r1, r3
 6462 0010 7868     		ldr	r0, [r7, #4]
 6463 0012 FFF7FEFF 		bl	cmp_read_object
 6464 0016 0346     		mov	r3, r0
 6465 0018 83F00103 		eor	r3, r3, #1
 6466 001c DBB2     		uxtb	r3, r3
 6467 001e 002B     		cmp	r3, #0
 6468 0020 01D0     		beq	.L541
 6469 0022 0023     		movs	r3, #0
 6470 0024 0CE0     		b	.L545
 6471              	.L541:
 6472 0026 3B7A     		ldrb	r3, [r7, #8]	@ zero_extendqisi2
 6473 0028 063B     		subs	r3, r3, #6
 6474 002a 022B     		cmp	r3, #2
 6475 002c 04D8     		bhi	.L543
 6476 002e 3A69     		ldr	r2, [r7, #16]
 6477 0030 3B68     		ldr	r3, [r7]
 6478 0032 1A60     		str	r2, [r3]
 6479 0034 0123     		movs	r3, #1
 6480 0036 03E0     		b	.L545
 6481              	.L543:
 6482 0038 7B68     		ldr	r3, [r7, #4]
 6483 003a 0D22     		movs	r2, #13
 6484 003c 1A70     		strb	r2, [r3]
 6485 003e 0023     		movs	r3, #0
 6486              	.L545:
 6487 0040 1846     		mov	r0, r3
 6488 0042 1837     		adds	r7, r7, #24
 6489 0044 BD46     		mov	sp, r7
 6490              		@ sp needed
ARM GAS  /var/folders/d2/nstgp4h54kz7g1l847x_b8wc0000gn/T//ccFI0sM2.s 			page 116


 6491 0046 80BD     		pop	{r7, pc}
 6492              		.size	cmp_read_bin_size, .-cmp_read_bin_size
 6493              		.section	.text.cmp_read_bin,"ax",%progbits
 6494              		.align	1
 6495              		.global	cmp_read_bin
 6496              		.syntax unified
 6497              		.thumb
 6498              		.thumb_func
 6499              		.fpu fpv4-sp-d16
 6500              		.type	cmp_read_bin, %function
 6501              	cmp_read_bin:
 6502              		@ args = 0, pretend = 0, frame = 24
 6503              		@ frame_needed = 1, uses_anonymous_args = 0
 6504 0000 80B5     		push	{r7, lr}
 6505 0002 86B0     		sub	sp, sp, #24
 6506 0004 00AF     		add	r7, sp, #0
 6507 0006 F860     		str	r0, [r7, #12]
 6508 0008 B960     		str	r1, [r7, #8]
 6509 000a 7A60     		str	r2, [r7, #4]
 6510 000c 0023     		movs	r3, #0
 6511 000e 7B61     		str	r3, [r7, #20]
 6512 0010 07F11403 		add	r3, r7, #20
 6513 0014 1946     		mov	r1, r3
 6514 0016 F868     		ldr	r0, [r7, #12]
 6515 0018 FFF7FEFF 		bl	cmp_read_bin_size
 6516 001c 0346     		mov	r3, r0
 6517 001e 83F00103 		eor	r3, r3, #1
 6518 0022 DBB2     		uxtb	r3, r3
 6519 0024 002B     		cmp	r3, #0
 6520 0026 01D0     		beq	.L547
 6521 0028 0023     		movs	r3, #0
 6522 002a 1EE0     		b	.L551
 6523              	.L547:
 6524 002c 7B68     		ldr	r3, [r7, #4]
 6525 002e 1A68     		ldr	r2, [r3]
 6526 0030 7B69     		ldr	r3, [r7, #20]
 6527 0032 9A42     		cmp	r2, r3
 6528 0034 04D2     		bcs	.L549
 6529 0036 FB68     		ldr	r3, [r7, #12]
 6530 0038 0222     		movs	r2, #2
 6531 003a 1A70     		strb	r2, [r3]
 6532 003c 0023     		movs	r3, #0
 6533 003e 14E0     		b	.L551
 6534              	.L549:
 6535 0040 FB68     		ldr	r3, [r7, #12]
 6536 0042 9B68     		ldr	r3, [r3, #8]
 6537 0044 7A69     		ldr	r2, [r7, #20]
 6538 0046 B968     		ldr	r1, [r7, #8]
 6539 0048 F868     		ldr	r0, [r7, #12]
 6540 004a 9847     		blx	r3
 6541 004c 0346     		mov	r3, r0
 6542 004e 83F00103 		eor	r3, r3, #1
 6543 0052 DBB2     		uxtb	r3, r3
 6544 0054 002B     		cmp	r3, #0
 6545 0056 04D0     		beq	.L550
 6546 0058 FB68     		ldr	r3, [r7, #12]
 6547 005a 0922     		movs	r2, #9
ARM GAS  /var/folders/d2/nstgp4h54kz7g1l847x_b8wc0000gn/T//ccFI0sM2.s 			page 117


 6548 005c 1A70     		strb	r2, [r3]
 6549 005e 0023     		movs	r3, #0
 6550 0060 03E0     		b	.L551
 6551              	.L550:
 6552 0062 7A69     		ldr	r2, [r7, #20]
 6553 0064 7B68     		ldr	r3, [r7, #4]
 6554 0066 1A60     		str	r2, [r3]
 6555 0068 0123     		movs	r3, #1
 6556              	.L551:
 6557 006a 1846     		mov	r0, r3
 6558 006c 1837     		adds	r7, r7, #24
 6559 006e BD46     		mov	sp, r7
 6560              		@ sp needed
 6561 0070 80BD     		pop	{r7, pc}
 6562              		.size	cmp_read_bin, .-cmp_read_bin
 6563              		.section	.text.cmp_read_array,"ax",%progbits
 6564              		.align	1
 6565              		.global	cmp_read_array
 6566              		.syntax unified
 6567              		.thumb
 6568              		.thumb_func
 6569              		.fpu fpv4-sp-d16
 6570              		.type	cmp_read_array, %function
 6571              	cmp_read_array:
 6572              		@ args = 0, pretend = 0, frame = 24
 6573              		@ frame_needed = 1, uses_anonymous_args = 0
 6574 0000 80B5     		push	{r7, lr}
 6575 0002 86B0     		sub	sp, sp, #24
 6576 0004 00AF     		add	r7, sp, #0
 6577 0006 7860     		str	r0, [r7, #4]
 6578 0008 3960     		str	r1, [r7]
 6579 000a 07F10803 		add	r3, r7, #8
 6580 000e 1946     		mov	r1, r3
 6581 0010 7868     		ldr	r0, [r7, #4]
 6582 0012 FFF7FEFF 		bl	cmp_read_object
 6583 0016 0346     		mov	r3, r0
 6584 0018 83F00103 		eor	r3, r3, #1
 6585 001c DBB2     		uxtb	r3, r3
 6586 001e 002B     		cmp	r3, #0
 6587 0020 01D0     		beq	.L553
 6588 0022 0023     		movs	r3, #0
 6589 0024 10E0     		b	.L557
 6590              	.L553:
 6591 0026 3B7A     		ldrb	r3, [r7, #8]	@ zero_extendqisi2
 6592 0028 022B     		cmp	r3, #2
 6593 002a 04D0     		beq	.L556
 6594 002c 022B     		cmp	r3, #2
 6595 002e 07DB     		blt	.L555
 6596 0030 1E3B     		subs	r3, r3, #30
 6597 0032 012B     		cmp	r3, #1
 6598 0034 04D8     		bhi	.L555
 6599              	.L556:
 6600 0036 3A69     		ldr	r2, [r7, #16]
 6601 0038 3B68     		ldr	r3, [r7]
 6602 003a 1A60     		str	r2, [r3]
 6603 003c 0123     		movs	r3, #1
 6604 003e 03E0     		b	.L557
ARM GAS  /var/folders/d2/nstgp4h54kz7g1l847x_b8wc0000gn/T//ccFI0sM2.s 			page 118


 6605              	.L555:
 6606 0040 7B68     		ldr	r3, [r7, #4]
 6607 0042 0D22     		movs	r2, #13
 6608 0044 1A70     		strb	r2, [r3]
 6609 0046 0023     		movs	r3, #0
 6610              	.L557:
 6611 0048 1846     		mov	r0, r3
 6612 004a 1837     		adds	r7, r7, #24
 6613 004c BD46     		mov	sp, r7
 6614              		@ sp needed
 6615 004e 80BD     		pop	{r7, pc}
 6616              		.size	cmp_read_array, .-cmp_read_array
 6617              		.section	.text.cmp_read_map,"ax",%progbits
 6618              		.align	1
 6619              		.global	cmp_read_map
 6620              		.syntax unified
 6621              		.thumb
 6622              		.thumb_func
 6623              		.fpu fpv4-sp-d16
 6624              		.type	cmp_read_map, %function
 6625              	cmp_read_map:
 6626              		@ args = 0, pretend = 0, frame = 24
 6627              		@ frame_needed = 1, uses_anonymous_args = 0
 6628 0000 80B5     		push	{r7, lr}
 6629 0002 86B0     		sub	sp, sp, #24
 6630 0004 00AF     		add	r7, sp, #0
 6631 0006 7860     		str	r0, [r7, #4]
 6632 0008 3960     		str	r1, [r7]
 6633 000a 07F10803 		add	r3, r7, #8
 6634 000e 1946     		mov	r1, r3
 6635 0010 7868     		ldr	r0, [r7, #4]
 6636 0012 FFF7FEFF 		bl	cmp_read_object
 6637 0016 0346     		mov	r3, r0
 6638 0018 83F00103 		eor	r3, r3, #1
 6639 001c DBB2     		uxtb	r3, r3
 6640 001e 002B     		cmp	r3, #0
 6641 0020 01D0     		beq	.L559
 6642 0022 0023     		movs	r3, #0
 6643 0024 10E0     		b	.L563
 6644              	.L559:
 6645 0026 3B7A     		ldrb	r3, [r7, #8]	@ zero_extendqisi2
 6646 0028 012B     		cmp	r3, #1
 6647 002a 04D0     		beq	.L562
 6648 002c 012B     		cmp	r3, #1
 6649 002e 07DB     		blt	.L561
 6650 0030 203B     		subs	r3, r3, #32
 6651 0032 012B     		cmp	r3, #1
 6652 0034 04D8     		bhi	.L561
 6653              	.L562:
 6654 0036 3A69     		ldr	r2, [r7, #16]
 6655 0038 3B68     		ldr	r3, [r7]
 6656 003a 1A60     		str	r2, [r3]
 6657 003c 0123     		movs	r3, #1
 6658 003e 03E0     		b	.L563
 6659              	.L561:
 6660 0040 7B68     		ldr	r3, [r7, #4]
 6661 0042 0D22     		movs	r2, #13
ARM GAS  /var/folders/d2/nstgp4h54kz7g1l847x_b8wc0000gn/T//ccFI0sM2.s 			page 119


 6662 0044 1A70     		strb	r2, [r3]
 6663 0046 0023     		movs	r3, #0
 6664              	.L563:
 6665 0048 1846     		mov	r0, r3
 6666 004a 1837     		adds	r7, r7, #24
 6667 004c BD46     		mov	sp, r7
 6668              		@ sp needed
 6669 004e 80BD     		pop	{r7, pc}
 6670              		.size	cmp_read_map, .-cmp_read_map
 6671              		.section	.text.cmp_read_fixext1_marker,"ax",%progbits
 6672              		.align	1
 6673              		.global	cmp_read_fixext1_marker
 6674              		.syntax unified
 6675              		.thumb
 6676              		.thumb_func
 6677              		.fpu fpv4-sp-d16
 6678              		.type	cmp_read_fixext1_marker, %function
 6679              	cmp_read_fixext1_marker:
 6680              		@ args = 0, pretend = 0, frame = 24
 6681              		@ frame_needed = 1, uses_anonymous_args = 0
 6682 0000 80B5     		push	{r7, lr}
 6683 0002 86B0     		sub	sp, sp, #24
 6684 0004 00AF     		add	r7, sp, #0
 6685 0006 7860     		str	r0, [r7, #4]
 6686 0008 3960     		str	r1, [r7]
 6687 000a 07F10803 		add	r3, r7, #8
 6688 000e 1946     		mov	r1, r3
 6689 0010 7868     		ldr	r0, [r7, #4]
 6690 0012 FFF7FEFF 		bl	cmp_read_object
 6691 0016 0346     		mov	r3, r0
 6692 0018 83F00103 		eor	r3, r3, #1
 6693 001c DBB2     		uxtb	r3, r3
 6694 001e 002B     		cmp	r3, #0
 6695 0020 01D0     		beq	.L565
 6696 0022 0023     		movs	r3, #0
 6697 0024 0CE0     		b	.L568
 6698              	.L565:
 6699 0026 3B7A     		ldrb	r3, [r7, #8]	@ zero_extendqisi2
 6700 0028 162B     		cmp	r3, #22
 6701 002a 04D0     		beq	.L567
 6702 002c 7B68     		ldr	r3, [r7, #4]
 6703 002e 0D22     		movs	r2, #13
 6704 0030 1A70     		strb	r2, [r3]
 6705 0032 0023     		movs	r3, #0
 6706 0034 04E0     		b	.L568
 6707              	.L567:
 6708 0036 97F91020 		ldrsb	r2, [r7, #16]
 6709 003a 3B68     		ldr	r3, [r7]
 6710 003c 1A70     		strb	r2, [r3]
 6711 003e 0123     		movs	r3, #1
 6712              	.L568:
 6713 0040 1846     		mov	r0, r3
 6714 0042 1837     		adds	r7, r7, #24
 6715 0044 BD46     		mov	sp, r7
 6716              		@ sp needed
 6717 0046 80BD     		pop	{r7, pc}
 6718              		.size	cmp_read_fixext1_marker, .-cmp_read_fixext1_marker
ARM GAS  /var/folders/d2/nstgp4h54kz7g1l847x_b8wc0000gn/T//ccFI0sM2.s 			page 120


 6719              		.section	.text.cmp_read_fixext1,"ax",%progbits
 6720              		.align	1
 6721              		.global	cmp_read_fixext1
 6722              		.syntax unified
 6723              		.thumb
 6724              		.thumb_func
 6725              		.fpu fpv4-sp-d16
 6726              		.type	cmp_read_fixext1, %function
 6727              	cmp_read_fixext1:
 6728              		@ args = 0, pretend = 0, frame = 16
 6729              		@ frame_needed = 1, uses_anonymous_args = 0
 6730 0000 80B5     		push	{r7, lr}
 6731 0002 84B0     		sub	sp, sp, #16
 6732 0004 00AF     		add	r7, sp, #0
 6733 0006 F860     		str	r0, [r7, #12]
 6734 0008 B960     		str	r1, [r7, #8]
 6735 000a 7A60     		str	r2, [r7, #4]
 6736 000c B968     		ldr	r1, [r7, #8]
 6737 000e F868     		ldr	r0, [r7, #12]
 6738 0010 FFF7FEFF 		bl	cmp_read_fixext1_marker
 6739 0014 0346     		mov	r3, r0
 6740 0016 83F00103 		eor	r3, r3, #1
 6741 001a DBB2     		uxtb	r3, r3
 6742 001c 002B     		cmp	r3, #0
 6743 001e 01D0     		beq	.L570
 6744 0020 0023     		movs	r3, #0
 6745 0022 0EE0     		b	.L571
 6746              	.L570:
 6747 0024 FB68     		ldr	r3, [r7, #12]
 6748 0026 9B68     		ldr	r3, [r3, #8]
 6749 0028 0122     		movs	r2, #1
 6750 002a 7968     		ldr	r1, [r7, #4]
 6751 002c F868     		ldr	r0, [r7, #12]
 6752 002e 9847     		blx	r3
 6753 0030 0346     		mov	r3, r0
 6754 0032 002B     		cmp	r3, #0
 6755 0034 01D0     		beq	.L572
 6756 0036 0123     		movs	r3, #1
 6757 0038 03E0     		b	.L571
 6758              	.L572:
 6759 003a FB68     		ldr	r3, [r7, #12]
 6760 003c 0922     		movs	r2, #9
 6761 003e 1A70     		strb	r2, [r3]
 6762 0040 0023     		movs	r3, #0
 6763              	.L571:
 6764 0042 1846     		mov	r0, r3
 6765 0044 1037     		adds	r7, r7, #16
 6766 0046 BD46     		mov	sp, r7
 6767              		@ sp needed
 6768 0048 80BD     		pop	{r7, pc}
 6769              		.size	cmp_read_fixext1, .-cmp_read_fixext1
 6770              		.section	.text.cmp_read_fixext2_marker,"ax",%progbits
 6771              		.align	1
 6772              		.global	cmp_read_fixext2_marker
 6773              		.syntax unified
 6774              		.thumb
 6775              		.thumb_func
ARM GAS  /var/folders/d2/nstgp4h54kz7g1l847x_b8wc0000gn/T//ccFI0sM2.s 			page 121


 6776              		.fpu fpv4-sp-d16
 6777              		.type	cmp_read_fixext2_marker, %function
 6778              	cmp_read_fixext2_marker:
 6779              		@ args = 0, pretend = 0, frame = 24
 6780              		@ frame_needed = 1, uses_anonymous_args = 0
 6781 0000 80B5     		push	{r7, lr}
 6782 0002 86B0     		sub	sp, sp, #24
 6783 0004 00AF     		add	r7, sp, #0
 6784 0006 7860     		str	r0, [r7, #4]
 6785 0008 3960     		str	r1, [r7]
 6786 000a 07F10803 		add	r3, r7, #8
 6787 000e 1946     		mov	r1, r3
 6788 0010 7868     		ldr	r0, [r7, #4]
 6789 0012 FFF7FEFF 		bl	cmp_read_object
 6790 0016 0346     		mov	r3, r0
 6791 0018 83F00103 		eor	r3, r3, #1
 6792 001c DBB2     		uxtb	r3, r3
 6793 001e 002B     		cmp	r3, #0
 6794 0020 01D0     		beq	.L574
 6795 0022 0023     		movs	r3, #0
 6796 0024 0CE0     		b	.L577
 6797              	.L574:
 6798 0026 3B7A     		ldrb	r3, [r7, #8]	@ zero_extendqisi2
 6799 0028 172B     		cmp	r3, #23
 6800 002a 04D0     		beq	.L576
 6801 002c 7B68     		ldr	r3, [r7, #4]
 6802 002e 0D22     		movs	r2, #13
 6803 0030 1A70     		strb	r2, [r3]
 6804 0032 0023     		movs	r3, #0
 6805 0034 04E0     		b	.L577
 6806              	.L576:
 6807 0036 97F91020 		ldrsb	r2, [r7, #16]
 6808 003a 3B68     		ldr	r3, [r7]
 6809 003c 1A70     		strb	r2, [r3]
 6810 003e 0123     		movs	r3, #1
 6811              	.L577:
 6812 0040 1846     		mov	r0, r3
 6813 0042 1837     		adds	r7, r7, #24
 6814 0044 BD46     		mov	sp, r7
 6815              		@ sp needed
 6816 0046 80BD     		pop	{r7, pc}
 6817              		.size	cmp_read_fixext2_marker, .-cmp_read_fixext2_marker
 6818              		.section	.text.cmp_read_fixext2,"ax",%progbits
 6819              		.align	1
 6820              		.global	cmp_read_fixext2
 6821              		.syntax unified
 6822              		.thumb
 6823              		.thumb_func
 6824              		.fpu fpv4-sp-d16
 6825              		.type	cmp_read_fixext2, %function
 6826              	cmp_read_fixext2:
 6827              		@ args = 0, pretend = 0, frame = 16
 6828              		@ frame_needed = 1, uses_anonymous_args = 0
 6829 0000 80B5     		push	{r7, lr}
 6830 0002 84B0     		sub	sp, sp, #16
 6831 0004 00AF     		add	r7, sp, #0
 6832 0006 F860     		str	r0, [r7, #12]
ARM GAS  /var/folders/d2/nstgp4h54kz7g1l847x_b8wc0000gn/T//ccFI0sM2.s 			page 122


 6833 0008 B960     		str	r1, [r7, #8]
 6834 000a 7A60     		str	r2, [r7, #4]
 6835 000c B968     		ldr	r1, [r7, #8]
 6836 000e F868     		ldr	r0, [r7, #12]
 6837 0010 FFF7FEFF 		bl	cmp_read_fixext2_marker
 6838 0014 0346     		mov	r3, r0
 6839 0016 83F00103 		eor	r3, r3, #1
 6840 001a DBB2     		uxtb	r3, r3
 6841 001c 002B     		cmp	r3, #0
 6842 001e 01D0     		beq	.L579
 6843 0020 0023     		movs	r3, #0
 6844 0022 0EE0     		b	.L580
 6845              	.L579:
 6846 0024 FB68     		ldr	r3, [r7, #12]
 6847 0026 9B68     		ldr	r3, [r3, #8]
 6848 0028 0222     		movs	r2, #2
 6849 002a 7968     		ldr	r1, [r7, #4]
 6850 002c F868     		ldr	r0, [r7, #12]
 6851 002e 9847     		blx	r3
 6852 0030 0346     		mov	r3, r0
 6853 0032 002B     		cmp	r3, #0
 6854 0034 01D0     		beq	.L581
 6855 0036 0123     		movs	r3, #1
 6856 0038 03E0     		b	.L580
 6857              	.L581:
 6858 003a FB68     		ldr	r3, [r7, #12]
 6859 003c 0922     		movs	r2, #9
 6860 003e 1A70     		strb	r2, [r3]
 6861 0040 0023     		movs	r3, #0
 6862              	.L580:
 6863 0042 1846     		mov	r0, r3
 6864 0044 1037     		adds	r7, r7, #16
 6865 0046 BD46     		mov	sp, r7
 6866              		@ sp needed
 6867 0048 80BD     		pop	{r7, pc}
 6868              		.size	cmp_read_fixext2, .-cmp_read_fixext2
 6869              		.section	.text.cmp_read_fixext4_marker,"ax",%progbits
 6870              		.align	1
 6871              		.global	cmp_read_fixext4_marker
 6872              		.syntax unified
 6873              		.thumb
 6874              		.thumb_func
 6875              		.fpu fpv4-sp-d16
 6876              		.type	cmp_read_fixext4_marker, %function
 6877              	cmp_read_fixext4_marker:
 6878              		@ args = 0, pretend = 0, frame = 24
 6879              		@ frame_needed = 1, uses_anonymous_args = 0
 6880 0000 80B5     		push	{r7, lr}
 6881 0002 86B0     		sub	sp, sp, #24
 6882 0004 00AF     		add	r7, sp, #0
 6883 0006 7860     		str	r0, [r7, #4]
 6884 0008 3960     		str	r1, [r7]
 6885 000a 07F10803 		add	r3, r7, #8
 6886 000e 1946     		mov	r1, r3
 6887 0010 7868     		ldr	r0, [r7, #4]
 6888 0012 FFF7FEFF 		bl	cmp_read_object
 6889 0016 0346     		mov	r3, r0
ARM GAS  /var/folders/d2/nstgp4h54kz7g1l847x_b8wc0000gn/T//ccFI0sM2.s 			page 123


 6890 0018 83F00103 		eor	r3, r3, #1
 6891 001c DBB2     		uxtb	r3, r3
 6892 001e 002B     		cmp	r3, #0
 6893 0020 01D0     		beq	.L583
 6894 0022 0023     		movs	r3, #0
 6895 0024 0CE0     		b	.L586
 6896              	.L583:
 6897 0026 3B7A     		ldrb	r3, [r7, #8]	@ zero_extendqisi2
 6898 0028 182B     		cmp	r3, #24
 6899 002a 04D0     		beq	.L585
 6900 002c 7B68     		ldr	r3, [r7, #4]
 6901 002e 0D22     		movs	r2, #13
 6902 0030 1A70     		strb	r2, [r3]
 6903 0032 0023     		movs	r3, #0
 6904 0034 04E0     		b	.L586
 6905              	.L585:
 6906 0036 97F91020 		ldrsb	r2, [r7, #16]
 6907 003a 3B68     		ldr	r3, [r7]
 6908 003c 1A70     		strb	r2, [r3]
 6909 003e 0123     		movs	r3, #1
 6910              	.L586:
 6911 0040 1846     		mov	r0, r3
 6912 0042 1837     		adds	r7, r7, #24
 6913 0044 BD46     		mov	sp, r7
 6914              		@ sp needed
 6915 0046 80BD     		pop	{r7, pc}
 6916              		.size	cmp_read_fixext4_marker, .-cmp_read_fixext4_marker
 6917              		.section	.text.cmp_read_fixext4,"ax",%progbits
 6918              		.align	1
 6919              		.global	cmp_read_fixext4
 6920              		.syntax unified
 6921              		.thumb
 6922              		.thumb_func
 6923              		.fpu fpv4-sp-d16
 6924              		.type	cmp_read_fixext4, %function
 6925              	cmp_read_fixext4:
 6926              		@ args = 0, pretend = 0, frame = 16
 6927              		@ frame_needed = 1, uses_anonymous_args = 0
 6928 0000 80B5     		push	{r7, lr}
 6929 0002 84B0     		sub	sp, sp, #16
 6930 0004 00AF     		add	r7, sp, #0
 6931 0006 F860     		str	r0, [r7, #12]
 6932 0008 B960     		str	r1, [r7, #8]
 6933 000a 7A60     		str	r2, [r7, #4]
 6934 000c B968     		ldr	r1, [r7, #8]
 6935 000e F868     		ldr	r0, [r7, #12]
 6936 0010 FFF7FEFF 		bl	cmp_read_fixext4_marker
 6937 0014 0346     		mov	r3, r0
 6938 0016 83F00103 		eor	r3, r3, #1
 6939 001a DBB2     		uxtb	r3, r3
 6940 001c 002B     		cmp	r3, #0
 6941 001e 01D0     		beq	.L588
 6942 0020 0023     		movs	r3, #0
 6943 0022 0EE0     		b	.L589
 6944              	.L588:
 6945 0024 FB68     		ldr	r3, [r7, #12]
 6946 0026 9B68     		ldr	r3, [r3, #8]
ARM GAS  /var/folders/d2/nstgp4h54kz7g1l847x_b8wc0000gn/T//ccFI0sM2.s 			page 124


 6947 0028 0422     		movs	r2, #4
 6948 002a 7968     		ldr	r1, [r7, #4]
 6949 002c F868     		ldr	r0, [r7, #12]
 6950 002e 9847     		blx	r3
 6951 0030 0346     		mov	r3, r0
 6952 0032 002B     		cmp	r3, #0
 6953 0034 01D0     		beq	.L590
 6954 0036 0123     		movs	r3, #1
 6955 0038 03E0     		b	.L589
 6956              	.L590:
 6957 003a FB68     		ldr	r3, [r7, #12]
 6958 003c 0922     		movs	r2, #9
 6959 003e 1A70     		strb	r2, [r3]
 6960 0040 0023     		movs	r3, #0
 6961              	.L589:
 6962 0042 1846     		mov	r0, r3
 6963 0044 1037     		adds	r7, r7, #16
 6964 0046 BD46     		mov	sp, r7
 6965              		@ sp needed
 6966 0048 80BD     		pop	{r7, pc}
 6967              		.size	cmp_read_fixext4, .-cmp_read_fixext4
 6968              		.section	.text.cmp_read_fixext8_marker,"ax",%progbits
 6969              		.align	1
 6970              		.global	cmp_read_fixext8_marker
 6971              		.syntax unified
 6972              		.thumb
 6973              		.thumb_func
 6974              		.fpu fpv4-sp-d16
 6975              		.type	cmp_read_fixext8_marker, %function
 6976              	cmp_read_fixext8_marker:
 6977              		@ args = 0, pretend = 0, frame = 24
 6978              		@ frame_needed = 1, uses_anonymous_args = 0
 6979 0000 80B5     		push	{r7, lr}
 6980 0002 86B0     		sub	sp, sp, #24
 6981 0004 00AF     		add	r7, sp, #0
 6982 0006 7860     		str	r0, [r7, #4]
 6983 0008 3960     		str	r1, [r7]
 6984 000a 07F10803 		add	r3, r7, #8
 6985 000e 1946     		mov	r1, r3
 6986 0010 7868     		ldr	r0, [r7, #4]
 6987 0012 FFF7FEFF 		bl	cmp_read_object
 6988 0016 0346     		mov	r3, r0
 6989 0018 83F00103 		eor	r3, r3, #1
 6990 001c DBB2     		uxtb	r3, r3
 6991 001e 002B     		cmp	r3, #0
 6992 0020 01D0     		beq	.L592
 6993 0022 0023     		movs	r3, #0
 6994 0024 0CE0     		b	.L595
 6995              	.L592:
 6996 0026 3B7A     		ldrb	r3, [r7, #8]	@ zero_extendqisi2
 6997 0028 192B     		cmp	r3, #25
 6998 002a 04D0     		beq	.L594
 6999 002c 7B68     		ldr	r3, [r7, #4]
 7000 002e 0D22     		movs	r2, #13
 7001 0030 1A70     		strb	r2, [r3]
 7002 0032 0023     		movs	r3, #0
 7003 0034 04E0     		b	.L595
ARM GAS  /var/folders/d2/nstgp4h54kz7g1l847x_b8wc0000gn/T//ccFI0sM2.s 			page 125


 7004              	.L594:
 7005 0036 97F91020 		ldrsb	r2, [r7, #16]
 7006 003a 3B68     		ldr	r3, [r7]
 7007 003c 1A70     		strb	r2, [r3]
 7008 003e 0123     		movs	r3, #1
 7009              	.L595:
 7010 0040 1846     		mov	r0, r3
 7011 0042 1837     		adds	r7, r7, #24
 7012 0044 BD46     		mov	sp, r7
 7013              		@ sp needed
 7014 0046 80BD     		pop	{r7, pc}
 7015              		.size	cmp_read_fixext8_marker, .-cmp_read_fixext8_marker
 7016              		.section	.text.cmp_read_fixext8,"ax",%progbits
 7017              		.align	1
 7018              		.global	cmp_read_fixext8
 7019              		.syntax unified
 7020              		.thumb
 7021              		.thumb_func
 7022              		.fpu fpv4-sp-d16
 7023              		.type	cmp_read_fixext8, %function
 7024              	cmp_read_fixext8:
 7025              		@ args = 0, pretend = 0, frame = 16
 7026              		@ frame_needed = 1, uses_anonymous_args = 0
 7027 0000 80B5     		push	{r7, lr}
 7028 0002 84B0     		sub	sp, sp, #16
 7029 0004 00AF     		add	r7, sp, #0
 7030 0006 F860     		str	r0, [r7, #12]
 7031 0008 B960     		str	r1, [r7, #8]
 7032 000a 7A60     		str	r2, [r7, #4]
 7033 000c B968     		ldr	r1, [r7, #8]
 7034 000e F868     		ldr	r0, [r7, #12]
 7035 0010 FFF7FEFF 		bl	cmp_read_fixext8_marker
 7036 0014 0346     		mov	r3, r0
 7037 0016 83F00103 		eor	r3, r3, #1
 7038 001a DBB2     		uxtb	r3, r3
 7039 001c 002B     		cmp	r3, #0
 7040 001e 01D0     		beq	.L597
 7041 0020 0023     		movs	r3, #0
 7042 0022 0EE0     		b	.L598
 7043              	.L597:
 7044 0024 FB68     		ldr	r3, [r7, #12]
 7045 0026 9B68     		ldr	r3, [r3, #8]
 7046 0028 0822     		movs	r2, #8
 7047 002a 7968     		ldr	r1, [r7, #4]
 7048 002c F868     		ldr	r0, [r7, #12]
 7049 002e 9847     		blx	r3
 7050 0030 0346     		mov	r3, r0
 7051 0032 002B     		cmp	r3, #0
 7052 0034 01D0     		beq	.L599
 7053 0036 0123     		movs	r3, #1
 7054 0038 03E0     		b	.L598
 7055              	.L599:
 7056 003a FB68     		ldr	r3, [r7, #12]
 7057 003c 0922     		movs	r2, #9
 7058 003e 1A70     		strb	r2, [r3]
 7059 0040 0023     		movs	r3, #0
 7060              	.L598:
ARM GAS  /var/folders/d2/nstgp4h54kz7g1l847x_b8wc0000gn/T//ccFI0sM2.s 			page 126


 7061 0042 1846     		mov	r0, r3
 7062 0044 1037     		adds	r7, r7, #16
 7063 0046 BD46     		mov	sp, r7
 7064              		@ sp needed
 7065 0048 80BD     		pop	{r7, pc}
 7066              		.size	cmp_read_fixext8, .-cmp_read_fixext8
 7067              		.section	.text.cmp_read_fixext16_marker,"ax",%progbits
 7068              		.align	1
 7069              		.global	cmp_read_fixext16_marker
 7070              		.syntax unified
 7071              		.thumb
 7072              		.thumb_func
 7073              		.fpu fpv4-sp-d16
 7074              		.type	cmp_read_fixext16_marker, %function
 7075              	cmp_read_fixext16_marker:
 7076              		@ args = 0, pretend = 0, frame = 24
 7077              		@ frame_needed = 1, uses_anonymous_args = 0
 7078 0000 80B5     		push	{r7, lr}
 7079 0002 86B0     		sub	sp, sp, #24
 7080 0004 00AF     		add	r7, sp, #0
 7081 0006 7860     		str	r0, [r7, #4]
 7082 0008 3960     		str	r1, [r7]
 7083 000a 07F10803 		add	r3, r7, #8
 7084 000e 1946     		mov	r1, r3
 7085 0010 7868     		ldr	r0, [r7, #4]
 7086 0012 FFF7FEFF 		bl	cmp_read_object
 7087 0016 0346     		mov	r3, r0
 7088 0018 83F00103 		eor	r3, r3, #1
 7089 001c DBB2     		uxtb	r3, r3
 7090 001e 002B     		cmp	r3, #0
 7091 0020 01D0     		beq	.L601
 7092 0022 0023     		movs	r3, #0
 7093 0024 0CE0     		b	.L604
 7094              	.L601:
 7095 0026 3B7A     		ldrb	r3, [r7, #8]	@ zero_extendqisi2
 7096 0028 1A2B     		cmp	r3, #26
 7097 002a 04D0     		beq	.L603
 7098 002c 7B68     		ldr	r3, [r7, #4]
 7099 002e 0D22     		movs	r2, #13
 7100 0030 1A70     		strb	r2, [r3]
 7101 0032 0023     		movs	r3, #0
 7102 0034 04E0     		b	.L604
 7103              	.L603:
 7104 0036 97F91020 		ldrsb	r2, [r7, #16]
 7105 003a 3B68     		ldr	r3, [r7]
 7106 003c 1A70     		strb	r2, [r3]
 7107 003e 0123     		movs	r3, #1
 7108              	.L604:
 7109 0040 1846     		mov	r0, r3
 7110 0042 1837     		adds	r7, r7, #24
 7111 0044 BD46     		mov	sp, r7
 7112              		@ sp needed
 7113 0046 80BD     		pop	{r7, pc}
 7114              		.size	cmp_read_fixext16_marker, .-cmp_read_fixext16_marker
 7115              		.section	.text.cmp_read_fixext16,"ax",%progbits
 7116              		.align	1
 7117              		.global	cmp_read_fixext16
ARM GAS  /var/folders/d2/nstgp4h54kz7g1l847x_b8wc0000gn/T//ccFI0sM2.s 			page 127


 7118              		.syntax unified
 7119              		.thumb
 7120              		.thumb_func
 7121              		.fpu fpv4-sp-d16
 7122              		.type	cmp_read_fixext16, %function
 7123              	cmp_read_fixext16:
 7124              		@ args = 0, pretend = 0, frame = 16
 7125              		@ frame_needed = 1, uses_anonymous_args = 0
 7126 0000 80B5     		push	{r7, lr}
 7127 0002 84B0     		sub	sp, sp, #16
 7128 0004 00AF     		add	r7, sp, #0
 7129 0006 F860     		str	r0, [r7, #12]
 7130 0008 B960     		str	r1, [r7, #8]
 7131 000a 7A60     		str	r2, [r7, #4]
 7132 000c B968     		ldr	r1, [r7, #8]
 7133 000e F868     		ldr	r0, [r7, #12]
 7134 0010 FFF7FEFF 		bl	cmp_read_fixext16_marker
 7135 0014 0346     		mov	r3, r0
 7136 0016 83F00103 		eor	r3, r3, #1
 7137 001a DBB2     		uxtb	r3, r3
 7138 001c 002B     		cmp	r3, #0
 7139 001e 01D0     		beq	.L606
 7140 0020 0023     		movs	r3, #0
 7141 0022 0EE0     		b	.L607
 7142              	.L606:
 7143 0024 FB68     		ldr	r3, [r7, #12]
 7144 0026 9B68     		ldr	r3, [r3, #8]
 7145 0028 1022     		movs	r2, #16
 7146 002a 7968     		ldr	r1, [r7, #4]
 7147 002c F868     		ldr	r0, [r7, #12]
 7148 002e 9847     		blx	r3
 7149 0030 0346     		mov	r3, r0
 7150 0032 002B     		cmp	r3, #0
 7151 0034 01D0     		beq	.L608
 7152 0036 0123     		movs	r3, #1
 7153 0038 03E0     		b	.L607
 7154              	.L608:
 7155 003a FB68     		ldr	r3, [r7, #12]
 7156 003c 0922     		movs	r2, #9
 7157 003e 1A70     		strb	r2, [r3]
 7158 0040 0023     		movs	r3, #0
 7159              	.L607:
 7160 0042 1846     		mov	r0, r3
 7161 0044 1037     		adds	r7, r7, #16
 7162 0046 BD46     		mov	sp, r7
 7163              		@ sp needed
 7164 0048 80BD     		pop	{r7, pc}
 7165              		.size	cmp_read_fixext16, .-cmp_read_fixext16
 7166              		.section	.text.cmp_read_ext8_marker,"ax",%progbits
 7167              		.align	1
 7168              		.global	cmp_read_ext8_marker
 7169              		.syntax unified
 7170              		.thumb
 7171              		.thumb_func
 7172              		.fpu fpv4-sp-d16
 7173              		.type	cmp_read_ext8_marker, %function
 7174              	cmp_read_ext8_marker:
ARM GAS  /var/folders/d2/nstgp4h54kz7g1l847x_b8wc0000gn/T//ccFI0sM2.s 			page 128


 7175              		@ args = 0, pretend = 0, frame = 32
 7176              		@ frame_needed = 1, uses_anonymous_args = 0
 7177 0000 80B5     		push	{r7, lr}
 7178 0002 88B0     		sub	sp, sp, #32
 7179 0004 00AF     		add	r7, sp, #0
 7180 0006 F860     		str	r0, [r7, #12]
 7181 0008 B960     		str	r1, [r7, #8]
 7182 000a 7A60     		str	r2, [r7, #4]
 7183 000c 07F11003 		add	r3, r7, #16
 7184 0010 1946     		mov	r1, r3
 7185 0012 F868     		ldr	r0, [r7, #12]
 7186 0014 FFF7FEFF 		bl	cmp_read_object
 7187 0018 0346     		mov	r3, r0
 7188 001a 83F00103 		eor	r3, r3, #1
 7189 001e DBB2     		uxtb	r3, r3
 7190 0020 002B     		cmp	r3, #0
 7191 0022 01D0     		beq	.L610
 7192 0024 0023     		movs	r3, #0
 7193 0026 10E0     		b	.L613
 7194              	.L610:
 7195 0028 3B7C     		ldrb	r3, [r7, #16]	@ zero_extendqisi2
 7196 002a 092B     		cmp	r3, #9
 7197 002c 04D0     		beq	.L612
 7198 002e FB68     		ldr	r3, [r7, #12]
 7199 0030 0D22     		movs	r2, #13
 7200 0032 1A70     		strb	r2, [r3]
 7201 0034 0023     		movs	r3, #0
 7202 0036 08E0     		b	.L613
 7203              	.L612:
 7204 0038 97F91820 		ldrsb	r2, [r7, #24]
 7205 003c BB68     		ldr	r3, [r7, #8]
 7206 003e 1A70     		strb	r2, [r3]
 7207 0040 FB69     		ldr	r3, [r7, #28]
 7208 0042 DAB2     		uxtb	r2, r3
 7209 0044 7B68     		ldr	r3, [r7, #4]
 7210 0046 1A70     		strb	r2, [r3]
 7211 0048 0123     		movs	r3, #1
 7212              	.L613:
 7213 004a 1846     		mov	r0, r3
 7214 004c 2037     		adds	r7, r7, #32
 7215 004e BD46     		mov	sp, r7
 7216              		@ sp needed
 7217 0050 80BD     		pop	{r7, pc}
 7218              		.size	cmp_read_ext8_marker, .-cmp_read_ext8_marker
 7219              		.section	.text.cmp_read_ext8,"ax",%progbits
 7220              		.align	1
 7221              		.global	cmp_read_ext8
 7222              		.syntax unified
 7223              		.thumb
 7224              		.thumb_func
 7225              		.fpu fpv4-sp-d16
 7226              		.type	cmp_read_ext8, %function
 7227              	cmp_read_ext8:
 7228              		@ args = 0, pretend = 0, frame = 16
 7229              		@ frame_needed = 1, uses_anonymous_args = 0
 7230 0000 80B5     		push	{r7, lr}
 7231 0002 84B0     		sub	sp, sp, #16
ARM GAS  /var/folders/d2/nstgp4h54kz7g1l847x_b8wc0000gn/T//ccFI0sM2.s 			page 129


 7232 0004 00AF     		add	r7, sp, #0
 7233 0006 F860     		str	r0, [r7, #12]
 7234 0008 B960     		str	r1, [r7, #8]
 7235 000a 7A60     		str	r2, [r7, #4]
 7236 000c 3B60     		str	r3, [r7]
 7237 000e 7A68     		ldr	r2, [r7, #4]
 7238 0010 B968     		ldr	r1, [r7, #8]
 7239 0012 F868     		ldr	r0, [r7, #12]
 7240 0014 FFF7FEFF 		bl	cmp_read_ext8_marker
 7241 0018 0346     		mov	r3, r0
 7242 001a 83F00103 		eor	r3, r3, #1
 7243 001e DBB2     		uxtb	r3, r3
 7244 0020 002B     		cmp	r3, #0
 7245 0022 01D0     		beq	.L615
 7246 0024 0023     		movs	r3, #0
 7247 0026 0FE0     		b	.L616
 7248              	.L615:
 7249 0028 FB68     		ldr	r3, [r7, #12]
 7250 002a 9B68     		ldr	r3, [r3, #8]
 7251 002c 7A68     		ldr	r2, [r7, #4]
 7252 002e 1278     		ldrb	r2, [r2]	@ zero_extendqisi2
 7253 0030 3968     		ldr	r1, [r7]
 7254 0032 F868     		ldr	r0, [r7, #12]
 7255 0034 9847     		blx	r3
 7256 0036 0346     		mov	r3, r0
 7257 0038 002B     		cmp	r3, #0
 7258 003a 01D0     		beq	.L617
 7259 003c 0123     		movs	r3, #1
 7260 003e 03E0     		b	.L616
 7261              	.L617:
 7262 0040 FB68     		ldr	r3, [r7, #12]
 7263 0042 0922     		movs	r2, #9
 7264 0044 1A70     		strb	r2, [r3]
 7265 0046 0023     		movs	r3, #0
 7266              	.L616:
 7267 0048 1846     		mov	r0, r3
 7268 004a 1037     		adds	r7, r7, #16
 7269 004c BD46     		mov	sp, r7
 7270              		@ sp needed
 7271 004e 80BD     		pop	{r7, pc}
 7272              		.size	cmp_read_ext8, .-cmp_read_ext8
 7273              		.section	.text.cmp_read_ext16_marker,"ax",%progbits
 7274              		.align	1
 7275              		.global	cmp_read_ext16_marker
 7276              		.syntax unified
 7277              		.thumb
 7278              		.thumb_func
 7279              		.fpu fpv4-sp-d16
 7280              		.type	cmp_read_ext16_marker, %function
 7281              	cmp_read_ext16_marker:
 7282              		@ args = 0, pretend = 0, frame = 32
 7283              		@ frame_needed = 1, uses_anonymous_args = 0
 7284 0000 80B5     		push	{r7, lr}
 7285 0002 88B0     		sub	sp, sp, #32
 7286 0004 00AF     		add	r7, sp, #0
 7287 0006 F860     		str	r0, [r7, #12]
 7288 0008 B960     		str	r1, [r7, #8]
ARM GAS  /var/folders/d2/nstgp4h54kz7g1l847x_b8wc0000gn/T//ccFI0sM2.s 			page 130


 7289 000a 7A60     		str	r2, [r7, #4]
 7290 000c 07F11003 		add	r3, r7, #16
 7291 0010 1946     		mov	r1, r3
 7292 0012 F868     		ldr	r0, [r7, #12]
 7293 0014 FFF7FEFF 		bl	cmp_read_object
 7294 0018 0346     		mov	r3, r0
 7295 001a 83F00103 		eor	r3, r3, #1
 7296 001e DBB2     		uxtb	r3, r3
 7297 0020 002B     		cmp	r3, #0
 7298 0022 01D0     		beq	.L619
 7299 0024 0023     		movs	r3, #0
 7300 0026 10E0     		b	.L622
 7301              	.L619:
 7302 0028 3B7C     		ldrb	r3, [r7, #16]	@ zero_extendqisi2
 7303 002a 0A2B     		cmp	r3, #10
 7304 002c 04D0     		beq	.L621
 7305 002e FB68     		ldr	r3, [r7, #12]
 7306 0030 0D22     		movs	r2, #13
 7307 0032 1A70     		strb	r2, [r3]
 7308 0034 0023     		movs	r3, #0
 7309 0036 08E0     		b	.L622
 7310              	.L621:
 7311 0038 97F91820 		ldrsb	r2, [r7, #24]
 7312 003c BB68     		ldr	r3, [r7, #8]
 7313 003e 1A70     		strb	r2, [r3]
 7314 0040 FB69     		ldr	r3, [r7, #28]
 7315 0042 9AB2     		uxth	r2, r3
 7316 0044 7B68     		ldr	r3, [r7, #4]
 7317 0046 1A80     		strh	r2, [r3]	@ movhi
 7318 0048 0123     		movs	r3, #1
 7319              	.L622:
 7320 004a 1846     		mov	r0, r3
 7321 004c 2037     		adds	r7, r7, #32
 7322 004e BD46     		mov	sp, r7
 7323              		@ sp needed
 7324 0050 80BD     		pop	{r7, pc}
 7325              		.size	cmp_read_ext16_marker, .-cmp_read_ext16_marker
 7326              		.section	.text.cmp_read_ext16,"ax",%progbits
 7327              		.align	1
 7328              		.global	cmp_read_ext16
 7329              		.syntax unified
 7330              		.thumb
 7331              		.thumb_func
 7332              		.fpu fpv4-sp-d16
 7333              		.type	cmp_read_ext16, %function
 7334              	cmp_read_ext16:
 7335              		@ args = 0, pretend = 0, frame = 16
 7336              		@ frame_needed = 1, uses_anonymous_args = 0
 7337 0000 80B5     		push	{r7, lr}
 7338 0002 84B0     		sub	sp, sp, #16
 7339 0004 00AF     		add	r7, sp, #0
 7340 0006 F860     		str	r0, [r7, #12]
 7341 0008 B960     		str	r1, [r7, #8]
 7342 000a 7A60     		str	r2, [r7, #4]
 7343 000c 3B60     		str	r3, [r7]
 7344 000e 7A68     		ldr	r2, [r7, #4]
 7345 0010 B968     		ldr	r1, [r7, #8]
ARM GAS  /var/folders/d2/nstgp4h54kz7g1l847x_b8wc0000gn/T//ccFI0sM2.s 			page 131


 7346 0012 F868     		ldr	r0, [r7, #12]
 7347 0014 FFF7FEFF 		bl	cmp_read_ext16_marker
 7348 0018 0346     		mov	r3, r0
 7349 001a 83F00103 		eor	r3, r3, #1
 7350 001e DBB2     		uxtb	r3, r3
 7351 0020 002B     		cmp	r3, #0
 7352 0022 01D0     		beq	.L624
 7353 0024 0023     		movs	r3, #0
 7354 0026 0FE0     		b	.L625
 7355              	.L624:
 7356 0028 FB68     		ldr	r3, [r7, #12]
 7357 002a 9B68     		ldr	r3, [r3, #8]
 7358 002c 7A68     		ldr	r2, [r7, #4]
 7359 002e 1288     		ldrh	r2, [r2]
 7360 0030 3968     		ldr	r1, [r7]
 7361 0032 F868     		ldr	r0, [r7, #12]
 7362 0034 9847     		blx	r3
 7363 0036 0346     		mov	r3, r0
 7364 0038 002B     		cmp	r3, #0
 7365 003a 01D0     		beq	.L626
 7366 003c 0123     		movs	r3, #1
 7367 003e 03E0     		b	.L625
 7368              	.L626:
 7369 0040 FB68     		ldr	r3, [r7, #12]
 7370 0042 0922     		movs	r2, #9
 7371 0044 1A70     		strb	r2, [r3]
 7372 0046 0023     		movs	r3, #0
 7373              	.L625:
 7374 0048 1846     		mov	r0, r3
 7375 004a 1037     		adds	r7, r7, #16
 7376 004c BD46     		mov	sp, r7
 7377              		@ sp needed
 7378 004e 80BD     		pop	{r7, pc}
 7379              		.size	cmp_read_ext16, .-cmp_read_ext16
 7380              		.section	.text.cmp_read_ext32_marker,"ax",%progbits
 7381              		.align	1
 7382              		.global	cmp_read_ext32_marker
 7383              		.syntax unified
 7384              		.thumb
 7385              		.thumb_func
 7386              		.fpu fpv4-sp-d16
 7387              		.type	cmp_read_ext32_marker, %function
 7388              	cmp_read_ext32_marker:
 7389              		@ args = 0, pretend = 0, frame = 32
 7390              		@ frame_needed = 1, uses_anonymous_args = 0
 7391 0000 80B5     		push	{r7, lr}
 7392 0002 88B0     		sub	sp, sp, #32
 7393 0004 00AF     		add	r7, sp, #0
 7394 0006 F860     		str	r0, [r7, #12]
 7395 0008 B960     		str	r1, [r7, #8]
 7396 000a 7A60     		str	r2, [r7, #4]
 7397 000c 07F11003 		add	r3, r7, #16
 7398 0010 1946     		mov	r1, r3
 7399 0012 F868     		ldr	r0, [r7, #12]
 7400 0014 FFF7FEFF 		bl	cmp_read_object
 7401 0018 0346     		mov	r3, r0
 7402 001a 83F00103 		eor	r3, r3, #1
ARM GAS  /var/folders/d2/nstgp4h54kz7g1l847x_b8wc0000gn/T//ccFI0sM2.s 			page 132


 7403 001e DBB2     		uxtb	r3, r3
 7404 0020 002B     		cmp	r3, #0
 7405 0022 01D0     		beq	.L628
 7406 0024 0023     		movs	r3, #0
 7407 0026 0FE0     		b	.L631
 7408              	.L628:
 7409 0028 3B7C     		ldrb	r3, [r7, #16]	@ zero_extendqisi2
 7410 002a 0B2B     		cmp	r3, #11
 7411 002c 04D0     		beq	.L630
 7412 002e FB68     		ldr	r3, [r7, #12]
 7413 0030 0D22     		movs	r2, #13
 7414 0032 1A70     		strb	r2, [r3]
 7415 0034 0023     		movs	r3, #0
 7416 0036 07E0     		b	.L631
 7417              	.L630:
 7418 0038 97F91820 		ldrsb	r2, [r7, #24]
 7419 003c BB68     		ldr	r3, [r7, #8]
 7420 003e 1A70     		strb	r2, [r3]
 7421 0040 FA69     		ldr	r2, [r7, #28]
 7422 0042 7B68     		ldr	r3, [r7, #4]
 7423 0044 1A60     		str	r2, [r3]
 7424 0046 0123     		movs	r3, #1
 7425              	.L631:
 7426 0048 1846     		mov	r0, r3
 7427 004a 2037     		adds	r7, r7, #32
 7428 004c BD46     		mov	sp, r7
 7429              		@ sp needed
 7430 004e 80BD     		pop	{r7, pc}
 7431              		.size	cmp_read_ext32_marker, .-cmp_read_ext32_marker
 7432              		.section	.text.cmp_read_ext32,"ax",%progbits
 7433              		.align	1
 7434              		.global	cmp_read_ext32
 7435              		.syntax unified
 7436              		.thumb
 7437              		.thumb_func
 7438              		.fpu fpv4-sp-d16
 7439              		.type	cmp_read_ext32, %function
 7440              	cmp_read_ext32:
 7441              		@ args = 0, pretend = 0, frame = 16
 7442              		@ frame_needed = 1, uses_anonymous_args = 0
 7443 0000 80B5     		push	{r7, lr}
 7444 0002 84B0     		sub	sp, sp, #16
 7445 0004 00AF     		add	r7, sp, #0
 7446 0006 F860     		str	r0, [r7, #12]
 7447 0008 B960     		str	r1, [r7, #8]
 7448 000a 7A60     		str	r2, [r7, #4]
 7449 000c 3B60     		str	r3, [r7]
 7450 000e 7A68     		ldr	r2, [r7, #4]
 7451 0010 B968     		ldr	r1, [r7, #8]
 7452 0012 F868     		ldr	r0, [r7, #12]
 7453 0014 FFF7FEFF 		bl	cmp_read_ext32_marker
 7454 0018 0346     		mov	r3, r0
 7455 001a 83F00103 		eor	r3, r3, #1
 7456 001e DBB2     		uxtb	r3, r3
 7457 0020 002B     		cmp	r3, #0
 7458 0022 01D0     		beq	.L633
 7459 0024 0023     		movs	r3, #0
ARM GAS  /var/folders/d2/nstgp4h54kz7g1l847x_b8wc0000gn/T//ccFI0sM2.s 			page 133


 7460 0026 0FE0     		b	.L634
 7461              	.L633:
 7462 0028 FB68     		ldr	r3, [r7, #12]
 7463 002a 9B68     		ldr	r3, [r3, #8]
 7464 002c 7A68     		ldr	r2, [r7, #4]
 7465 002e 1268     		ldr	r2, [r2]
 7466 0030 3968     		ldr	r1, [r7]
 7467 0032 F868     		ldr	r0, [r7, #12]
 7468 0034 9847     		blx	r3
 7469 0036 0346     		mov	r3, r0
 7470 0038 002B     		cmp	r3, #0
 7471 003a 01D0     		beq	.L635
 7472 003c 0123     		movs	r3, #1
 7473 003e 03E0     		b	.L634
 7474              	.L635:
 7475 0040 FB68     		ldr	r3, [r7, #12]
 7476 0042 0922     		movs	r2, #9
 7477 0044 1A70     		strb	r2, [r3]
 7478 0046 0023     		movs	r3, #0
 7479              	.L634:
 7480 0048 1846     		mov	r0, r3
 7481 004a 1037     		adds	r7, r7, #16
 7482 004c BD46     		mov	sp, r7
 7483              		@ sp needed
 7484 004e 80BD     		pop	{r7, pc}
 7485              		.size	cmp_read_ext32, .-cmp_read_ext32
 7486              		.section	.text.cmp_read_ext_marker,"ax",%progbits
 7487              		.align	1
 7488              		.global	cmp_read_ext_marker
 7489              		.syntax unified
 7490              		.thumb
 7491              		.thumb_func
 7492              		.fpu fpv4-sp-d16
 7493              		.type	cmp_read_ext_marker, %function
 7494              	cmp_read_ext_marker:
 7495              		@ args = 0, pretend = 0, frame = 32
 7496              		@ frame_needed = 1, uses_anonymous_args = 0
 7497 0000 80B5     		push	{r7, lr}
 7498 0002 88B0     		sub	sp, sp, #32
 7499 0004 00AF     		add	r7, sp, #0
 7500 0006 F860     		str	r0, [r7, #12]
 7501 0008 B960     		str	r1, [r7, #8]
 7502 000a 7A60     		str	r2, [r7, #4]
 7503 000c 07F11003 		add	r3, r7, #16
 7504 0010 1946     		mov	r1, r3
 7505 0012 F868     		ldr	r0, [r7, #12]
 7506 0014 FFF7FEFF 		bl	cmp_read_object
 7507 0018 0346     		mov	r3, r0
 7508 001a 83F00103 		eor	r3, r3, #1
 7509 001e DBB2     		uxtb	r3, r3
 7510 0020 002B     		cmp	r3, #0
 7511 0022 01D0     		beq	.L637
 7512 0024 0023     		movs	r3, #0
 7513 0026 38E0     		b	.L642
 7514              	.L637:
 7515 0028 3B7C     		ldrb	r3, [r7, #16]	@ zero_extendqisi2
 7516 002a 093B     		subs	r3, r3, #9
ARM GAS  /var/folders/d2/nstgp4h54kz7g1l847x_b8wc0000gn/T//ccFI0sM2.s 			page 134


 7517 002c 112B     		cmp	r3, #17
 7518 002e 30D8     		bhi	.L639
 7519 0030 01A2     		adr	r2, .L641
 7520 0032 52F823F0 		ldr	pc, [r2, r3, lsl #2]
 7521 0036 00BF     		.p2align 2
 7522              	.L641:
 7523 0038 81000000 		.word	.L640+1
 7524 003c 81000000 		.word	.L640+1
 7525 0040 81000000 		.word	.L640+1
 7526 0044 93000000 		.word	.L639+1
 7527 0048 93000000 		.word	.L639+1
 7528 004c 93000000 		.word	.L639+1
 7529 0050 93000000 		.word	.L639+1
 7530 0054 93000000 		.word	.L639+1
 7531 0058 93000000 		.word	.L639+1
 7532 005c 93000000 		.word	.L639+1
 7533 0060 93000000 		.word	.L639+1
 7534 0064 93000000 		.word	.L639+1
 7535 0068 93000000 		.word	.L639+1
 7536 006c 81000000 		.word	.L640+1
 7537 0070 81000000 		.word	.L640+1
 7538 0074 81000000 		.word	.L640+1
 7539 0078 81000000 		.word	.L640+1
 7540 007c 81000000 		.word	.L640+1
 7541              		.p2align 1
 7542              	.L640:
 7543 0080 97F91820 		ldrsb	r2, [r7, #24]
 7544 0084 BB68     		ldr	r3, [r7, #8]
 7545 0086 1A70     		strb	r2, [r3]
 7546 0088 FA69     		ldr	r2, [r7, #28]
 7547 008a 7B68     		ldr	r3, [r7, #4]
 7548 008c 1A60     		str	r2, [r3]
 7549 008e 0123     		movs	r3, #1
 7550 0090 03E0     		b	.L642
 7551              	.L639:
 7552 0092 FB68     		ldr	r3, [r7, #12]
 7553 0094 0D22     		movs	r2, #13
 7554 0096 1A70     		strb	r2, [r3]
 7555 0098 0023     		movs	r3, #0
 7556              	.L642:
 7557 009a 1846     		mov	r0, r3
 7558 009c 2037     		adds	r7, r7, #32
 7559 009e BD46     		mov	sp, r7
 7560              		@ sp needed
 7561 00a0 80BD     		pop	{r7, pc}
 7562              		.size	cmp_read_ext_marker, .-cmp_read_ext_marker
 7563 00a2 00BF     		.section	.text.cmp_read_ext,"ax",%progbits
 7564              		.align	1
 7565              		.global	cmp_read_ext
 7566              		.syntax unified
 7567              		.thumb
 7568              		.thumb_func
 7569              		.fpu fpv4-sp-d16
 7570              		.type	cmp_read_ext, %function
 7571              	cmp_read_ext:
 7572              		@ args = 0, pretend = 0, frame = 16
 7573              		@ frame_needed = 1, uses_anonymous_args = 0
ARM GAS  /var/folders/d2/nstgp4h54kz7g1l847x_b8wc0000gn/T//ccFI0sM2.s 			page 135


 7574 0000 80B5     		push	{r7, lr}
 7575 0002 84B0     		sub	sp, sp, #16
 7576 0004 00AF     		add	r7, sp, #0
 7577 0006 F860     		str	r0, [r7, #12]
 7578 0008 B960     		str	r1, [r7, #8]
 7579 000a 7A60     		str	r2, [r7, #4]
 7580 000c 3B60     		str	r3, [r7]
 7581 000e 7A68     		ldr	r2, [r7, #4]
 7582 0010 B968     		ldr	r1, [r7, #8]
 7583 0012 F868     		ldr	r0, [r7, #12]
 7584 0014 FFF7FEFF 		bl	cmp_read_ext_marker
 7585 0018 0346     		mov	r3, r0
 7586 001a 83F00103 		eor	r3, r3, #1
 7587 001e DBB2     		uxtb	r3, r3
 7588 0020 002B     		cmp	r3, #0
 7589 0022 01D0     		beq	.L644
 7590 0024 0023     		movs	r3, #0
 7591 0026 0FE0     		b	.L645
 7592              	.L644:
 7593 0028 FB68     		ldr	r3, [r7, #12]
 7594 002a 9B68     		ldr	r3, [r3, #8]
 7595 002c 7A68     		ldr	r2, [r7, #4]
 7596 002e 1268     		ldr	r2, [r2]
 7597 0030 3968     		ldr	r1, [r7]
 7598 0032 F868     		ldr	r0, [r7, #12]
 7599 0034 9847     		blx	r3
 7600 0036 0346     		mov	r3, r0
 7601 0038 002B     		cmp	r3, #0
 7602 003a 01D0     		beq	.L646
 7603 003c 0123     		movs	r3, #1
 7604 003e 03E0     		b	.L645
 7605              	.L646:
 7606 0040 FB68     		ldr	r3, [r7, #12]
 7607 0042 0922     		movs	r2, #9
 7608 0044 1A70     		strb	r2, [r3]
 7609 0046 0023     		movs	r3, #0
 7610              	.L645:
 7611 0048 1846     		mov	r0, r3
 7612 004a 1037     		adds	r7, r7, #16
 7613 004c BD46     		mov	sp, r7
 7614              		@ sp needed
 7615 004e 80BD     		pop	{r7, pc}
 7616              		.size	cmp_read_ext, .-cmp_read_ext
 7617              		.section	.text.cmp_read_object,"ax",%progbits
 7618              		.align	1
 7619              		.global	cmp_read_object
 7620              		.syntax unified
 7621              		.thumb
 7622              		.thumb_func
 7623              		.fpu fpv4-sp-d16
 7624              		.type	cmp_read_object, %function
 7625              	cmp_read_object:
 7626              		@ args = 0, pretend = 0, frame = 24
 7627              		@ frame_needed = 1, uses_anonymous_args = 0
 7628 0000 90B5     		push	{r4, r7, lr}
 7629 0002 87B0     		sub	sp, sp, #28
 7630 0004 00AF     		add	r7, sp, #0
ARM GAS  /var/folders/d2/nstgp4h54kz7g1l847x_b8wc0000gn/T//ccFI0sM2.s 			page 136


 7631 0006 7860     		str	r0, [r7, #4]
 7632 0008 3960     		str	r1, [r7]
 7633 000a 0023     		movs	r3, #0
 7634 000c FB75     		strb	r3, [r7, #23]
 7635 000e 07F11703 		add	r3, r7, #23
 7636 0012 1946     		mov	r1, r3
 7637 0014 7868     		ldr	r0, [r7, #4]
 7638 0016 FFF7FEFF 		bl	read_type_marker
 7639 001a 0346     		mov	r3, r0
 7640 001c 83F00103 		eor	r3, r3, #1
 7641 0020 DBB2     		uxtb	r3, r3
 7642 0022 002B     		cmp	r3, #0
 7643 0024 02D0     		beq	.L648
 7644 0026 0023     		movs	r3, #0
 7645 0028 00F043BC 		b	.L719
 7646              	.L648:
 7647 002c FB7D     		ldrb	r3, [r7, #23]	@ zero_extendqisi2
 7648 002e 5BB2     		sxtb	r3, r3
 7649 0030 002B     		cmp	r3, #0
 7650 0032 07DB     		blt	.L650
 7651 0034 3B68     		ldr	r3, [r7]
 7652 0036 0022     		movs	r2, #0
 7653 0038 1A70     		strb	r2, [r3]
 7654 003a FA7D     		ldrb	r2, [r7, #23]	@ zero_extendqisi2
 7655 003c 3B68     		ldr	r3, [r7]
 7656 003e 1A72     		strb	r2, [r3, #8]
 7657 0040 00F036BC 		b	.L651
 7658              	.L650:
 7659 0044 FB7D     		ldrb	r3, [r7, #23]	@ zero_extendqisi2
 7660 0046 8F2B     		cmp	r3, #143
 7661 0048 09D8     		bhi	.L652
 7662 004a 3B68     		ldr	r3, [r7]
 7663 004c 0122     		movs	r2, #1
 7664 004e 1A70     		strb	r2, [r3]
 7665 0050 FB7D     		ldrb	r3, [r7, #23]	@ zero_extendqisi2
 7666 0052 03F00F02 		and	r2, r3, #15
 7667 0056 3B68     		ldr	r3, [r7]
 7668 0058 9A60     		str	r2, [r3, #8]
 7669 005a 00F029BC 		b	.L651
 7670              	.L652:
 7671 005e FB7D     		ldrb	r3, [r7, #23]	@ zero_extendqisi2
 7672 0060 9F2B     		cmp	r3, #159
 7673 0062 09D8     		bhi	.L653
 7674 0064 3B68     		ldr	r3, [r7]
 7675 0066 0222     		movs	r2, #2
 7676 0068 1A70     		strb	r2, [r3]
 7677 006a FB7D     		ldrb	r3, [r7, #23]	@ zero_extendqisi2
 7678 006c 03F00F02 		and	r2, r3, #15
 7679 0070 3B68     		ldr	r3, [r7]
 7680 0072 9A60     		str	r2, [r3, #8]
 7681 0074 00F01CBC 		b	.L651
 7682              	.L653:
 7683 0078 FB7D     		ldrb	r3, [r7, #23]	@ zero_extendqisi2
 7684 007a BF2B     		cmp	r3, #191
 7685 007c 09D8     		bhi	.L654
 7686 007e 3B68     		ldr	r3, [r7]
 7687 0080 0322     		movs	r2, #3
ARM GAS  /var/folders/d2/nstgp4h54kz7g1l847x_b8wc0000gn/T//ccFI0sM2.s 			page 137


 7688 0082 1A70     		strb	r2, [r3]
 7689 0084 FB7D     		ldrb	r3, [r7, #23]	@ zero_extendqisi2
 7690 0086 03F01F02 		and	r2, r3, #31
 7691 008a 3B68     		ldr	r3, [r7]
 7692 008c 9A60     		str	r2, [r3, #8]
 7693 008e 00F00FBC 		b	.L651
 7694              	.L654:
 7695 0092 FB7D     		ldrb	r3, [r7, #23]	@ zero_extendqisi2
 7696 0094 C02B     		cmp	r3, #192
 7697 0096 07D1     		bne	.L655
 7698 0098 3B68     		ldr	r3, [r7]
 7699 009a 0422     		movs	r2, #4
 7700 009c 1A70     		strb	r2, [r3]
 7701 009e 3B68     		ldr	r3, [r7]
 7702 00a0 0022     		movs	r2, #0
 7703 00a2 1A72     		strb	r2, [r3, #8]
 7704 00a4 00F004BC 		b	.L651
 7705              	.L655:
 7706 00a8 FB7D     		ldrb	r3, [r7, #23]	@ zero_extendqisi2
 7707 00aa C22B     		cmp	r3, #194
 7708 00ac 06D1     		bne	.L656
 7709 00ae 3B68     		ldr	r3, [r7]
 7710 00b0 0522     		movs	r2, #5
 7711 00b2 1A70     		strb	r2, [r3]
 7712 00b4 3B68     		ldr	r3, [r7]
 7713 00b6 0022     		movs	r2, #0
 7714 00b8 1A72     		strb	r2, [r3, #8]
 7715 00ba F9E3     		b	.L651
 7716              	.L656:
 7717 00bc FB7D     		ldrb	r3, [r7, #23]	@ zero_extendqisi2
 7718 00be C32B     		cmp	r3, #195
 7719 00c0 06D1     		bne	.L657
 7720 00c2 3B68     		ldr	r3, [r7]
 7721 00c4 0522     		movs	r2, #5
 7722 00c6 1A70     		strb	r2, [r3]
 7723 00c8 3B68     		ldr	r3, [r7]
 7724 00ca 0122     		movs	r2, #1
 7725 00cc 1A72     		strb	r2, [r3, #8]
 7726 00ce EFE3     		b	.L651
 7727              	.L657:
 7728 00d0 FB7D     		ldrb	r3, [r7, #23]	@ zero_extendqisi2
 7729 00d2 C42B     		cmp	r3, #196
 7730 00d4 1BD1     		bne	.L658
 7731 00d6 3B68     		ldr	r3, [r7]
 7732 00d8 0622     		movs	r2, #6
 7733 00da 1A70     		strb	r2, [r3]
 7734 00dc 7B68     		ldr	r3, [r7, #4]
 7735 00de 9B68     		ldr	r3, [r3, #8]
 7736 00e0 3A68     		ldr	r2, [r7]
 7737 00e2 02F10801 		add	r1, r2, #8
 7738 00e6 0122     		movs	r2, #1
 7739 00e8 7868     		ldr	r0, [r7, #4]
 7740 00ea 9847     		blx	r3
 7741 00ec 0346     		mov	r3, r0
 7742 00ee 83F00103 		eor	r3, r3, #1
 7743 00f2 DBB2     		uxtb	r3, r3
 7744 00f4 002B     		cmp	r3, #0
ARM GAS  /var/folders/d2/nstgp4h54kz7g1l847x_b8wc0000gn/T//ccFI0sM2.s 			page 138


 7745 00f6 04D0     		beq	.L659
 7746 00f8 7B68     		ldr	r3, [r7, #4]
 7747 00fa 0E22     		movs	r2, #14
 7748 00fc 1A70     		strb	r2, [r3]
 7749 00fe 0023     		movs	r3, #0
 7750 0100 D7E3     		b	.L719
 7751              	.L659:
 7752 0102 3B68     		ldr	r3, [r7]
 7753 0104 1B7A     		ldrb	r3, [r3, #8]	@ zero_extendqisi2
 7754 0106 1A46     		mov	r2, r3
 7755 0108 3B68     		ldr	r3, [r7]
 7756 010a 9A60     		str	r2, [r3, #8]
 7757 010c D0E3     		b	.L651
 7758              	.L658:
 7759 010e FB7D     		ldrb	r3, [r7, #23]	@ zero_extendqisi2
 7760 0110 C52B     		cmp	r3, #197
 7761 0112 1FD1     		bne	.L660
 7762 0114 3B68     		ldr	r3, [r7]
 7763 0116 0722     		movs	r2, #7
 7764 0118 1A70     		strb	r2, [r3]
 7765 011a 7B68     		ldr	r3, [r7, #4]
 7766 011c 9B68     		ldr	r3, [r3, #8]
 7767 011e 3A68     		ldr	r2, [r7]
 7768 0120 02F10801 		add	r1, r2, #8
 7769 0124 0222     		movs	r2, #2
 7770 0126 7868     		ldr	r0, [r7, #4]
 7771 0128 9847     		blx	r3
 7772 012a 0346     		mov	r3, r0
 7773 012c 83F00103 		eor	r3, r3, #1
 7774 0130 DBB2     		uxtb	r3, r3
 7775 0132 002B     		cmp	r3, #0
 7776 0134 04D0     		beq	.L661
 7777 0136 7B68     		ldr	r3, [r7, #4]
 7778 0138 0E22     		movs	r2, #14
 7779 013a 1A70     		strb	r2, [r3]
 7780 013c 0023     		movs	r3, #0
 7781 013e B8E3     		b	.L719
 7782              	.L661:
 7783 0140 3B68     		ldr	r3, [r7]
 7784 0142 1B89     		ldrh	r3, [r3, #8]
 7785 0144 1846     		mov	r0, r3
 7786 0146 FFF7FEFF 		bl	be16
 7787 014a 0346     		mov	r3, r0
 7788 014c 1A46     		mov	r2, r3
 7789 014e 3B68     		ldr	r3, [r7]
 7790 0150 9A60     		str	r2, [r3, #8]
 7791 0152 ADE3     		b	.L651
 7792              	.L660:
 7793 0154 FB7D     		ldrb	r3, [r7, #23]	@ zero_extendqisi2
 7794 0156 C62B     		cmp	r3, #198
 7795 0158 1ED1     		bne	.L662
 7796 015a 3B68     		ldr	r3, [r7]
 7797 015c 0822     		movs	r2, #8
 7798 015e 1A70     		strb	r2, [r3]
 7799 0160 7B68     		ldr	r3, [r7, #4]
 7800 0162 9B68     		ldr	r3, [r3, #8]
 7801 0164 3A68     		ldr	r2, [r7]
ARM GAS  /var/folders/d2/nstgp4h54kz7g1l847x_b8wc0000gn/T//ccFI0sM2.s 			page 139


 7802 0166 02F10801 		add	r1, r2, #8
 7803 016a 0422     		movs	r2, #4
 7804 016c 7868     		ldr	r0, [r7, #4]
 7805 016e 9847     		blx	r3
 7806 0170 0346     		mov	r3, r0
 7807 0172 83F00103 		eor	r3, r3, #1
 7808 0176 DBB2     		uxtb	r3, r3
 7809 0178 002B     		cmp	r3, #0
 7810 017a 04D0     		beq	.L663
 7811 017c 7B68     		ldr	r3, [r7, #4]
 7812 017e 0E22     		movs	r2, #14
 7813 0180 1A70     		strb	r2, [r3]
 7814 0182 0023     		movs	r3, #0
 7815 0184 95E3     		b	.L719
 7816              	.L663:
 7817 0186 3B68     		ldr	r3, [r7]
 7818 0188 9B68     		ldr	r3, [r3, #8]
 7819 018a 1846     		mov	r0, r3
 7820 018c FFF7FEFF 		bl	be32
 7821 0190 0246     		mov	r2, r0
 7822 0192 3B68     		ldr	r3, [r7]
 7823 0194 9A60     		str	r2, [r3, #8]
 7824 0196 8BE3     		b	.L651
 7825              	.L662:
 7826 0198 FB7D     		ldrb	r3, [r7, #23]	@ zero_extendqisi2
 7827 019a C72B     		cmp	r3, #199
 7828 019c 2FD1     		bne	.L664
 7829 019e 3B68     		ldr	r3, [r7]
 7830 01a0 0922     		movs	r2, #9
 7831 01a2 1A70     		strb	r2, [r3]
 7832 01a4 7B68     		ldr	r3, [r7, #4]
 7833 01a6 9B68     		ldr	r3, [r3, #8]
 7834 01a8 07F11601 		add	r1, r7, #22
 7835 01ac 0122     		movs	r2, #1
 7836 01ae 7868     		ldr	r0, [r7, #4]
 7837 01b0 9847     		blx	r3
 7838 01b2 0346     		mov	r3, r0
 7839 01b4 83F00103 		eor	r3, r3, #1
 7840 01b8 DBB2     		uxtb	r3, r3
 7841 01ba 002B     		cmp	r3, #0
 7842 01bc 04D0     		beq	.L665
 7843 01be 7B68     		ldr	r3, [r7, #4]
 7844 01c0 0E22     		movs	r2, #14
 7845 01c2 1A70     		strb	r2, [r3]
 7846 01c4 0023     		movs	r3, #0
 7847 01c6 74E3     		b	.L719
 7848              	.L665:
 7849 01c8 7B68     		ldr	r3, [r7, #4]
 7850 01ca 9B68     		ldr	r3, [r3, #8]
 7851 01cc 07F11501 		add	r1, r7, #21
 7852 01d0 0122     		movs	r2, #1
 7853 01d2 7868     		ldr	r0, [r7, #4]
 7854 01d4 9847     		blx	r3
 7855 01d6 0346     		mov	r3, r0
 7856 01d8 83F00103 		eor	r3, r3, #1
 7857 01dc DBB2     		uxtb	r3, r3
 7858 01de 002B     		cmp	r3, #0
ARM GAS  /var/folders/d2/nstgp4h54kz7g1l847x_b8wc0000gn/T//ccFI0sM2.s 			page 140


 7859 01e0 04D0     		beq	.L667
 7860 01e2 7B68     		ldr	r3, [r7, #4]
 7861 01e4 0B22     		movs	r2, #11
 7862 01e6 1A70     		strb	r2, [r3]
 7863 01e8 0023     		movs	r3, #0
 7864 01ea 62E3     		b	.L719
 7865              	.L667:
 7866 01ec BB7D     		ldrb	r3, [r7, #22]	@ zero_extendqisi2
 7867 01ee 1A46     		mov	r2, r3
 7868 01f0 3B68     		ldr	r3, [r7]
 7869 01f2 DA60     		str	r2, [r3, #12]
 7870 01f4 97F91520 		ldrsb	r2, [r7, #21]
 7871 01f8 3B68     		ldr	r3, [r7]
 7872 01fa 1A72     		strb	r2, [r3, #8]
 7873 01fc 58E3     		b	.L651
 7874              	.L664:
 7875 01fe FB7D     		ldrb	r3, [r7, #23]	@ zero_extendqisi2
 7876 0200 C82B     		cmp	r3, #200
 7877 0202 33D1     		bne	.L668
 7878 0204 3B68     		ldr	r3, [r7]
 7879 0206 0A22     		movs	r2, #10
 7880 0208 1A70     		strb	r2, [r3]
 7881 020a 7B68     		ldr	r3, [r7, #4]
 7882 020c 9B68     		ldr	r3, [r3, #8]
 7883 020e 07F11201 		add	r1, r7, #18
 7884 0212 0222     		movs	r2, #2
 7885 0214 7868     		ldr	r0, [r7, #4]
 7886 0216 9847     		blx	r3
 7887 0218 0346     		mov	r3, r0
 7888 021a 83F00103 		eor	r3, r3, #1
 7889 021e DBB2     		uxtb	r3, r3
 7890 0220 002B     		cmp	r3, #0
 7891 0222 04D0     		beq	.L669
 7892 0224 7B68     		ldr	r3, [r7, #4]
 7893 0226 0E22     		movs	r2, #14
 7894 0228 1A70     		strb	r2, [r3]
 7895 022a 0023     		movs	r3, #0
 7896 022c 41E3     		b	.L719
 7897              	.L669:
 7898 022e 7B68     		ldr	r3, [r7, #4]
 7899 0230 9B68     		ldr	r3, [r3, #8]
 7900 0232 07F11401 		add	r1, r7, #20
 7901 0236 0122     		movs	r2, #1
 7902 0238 7868     		ldr	r0, [r7, #4]
 7903 023a 9847     		blx	r3
 7904 023c 0346     		mov	r3, r0
 7905 023e 83F00103 		eor	r3, r3, #1
 7906 0242 DBB2     		uxtb	r3, r3
 7907 0244 002B     		cmp	r3, #0
 7908 0246 04D0     		beq	.L671
 7909 0248 7B68     		ldr	r3, [r7, #4]
 7910 024a 0B22     		movs	r2, #11
 7911 024c 1A70     		strb	r2, [r3]
 7912 024e 0023     		movs	r3, #0
 7913 0250 2FE3     		b	.L719
 7914              	.L671:
 7915 0252 7B8A     		ldrh	r3, [r7, #18]
ARM GAS  /var/folders/d2/nstgp4h54kz7g1l847x_b8wc0000gn/T//ccFI0sM2.s 			page 141


 7916 0254 1846     		mov	r0, r3
 7917 0256 FFF7FEFF 		bl	be16
 7918 025a 0346     		mov	r3, r0
 7919 025c 1A46     		mov	r2, r3
 7920 025e 3B68     		ldr	r3, [r7]
 7921 0260 DA60     		str	r2, [r3, #12]
 7922 0262 97F91420 		ldrsb	r2, [r7, #20]
 7923 0266 3B68     		ldr	r3, [r7]
 7924 0268 1A72     		strb	r2, [r3, #8]
 7925 026a 21E3     		b	.L651
 7926              	.L668:
 7927 026c FB7D     		ldrb	r3, [r7, #23]	@ zero_extendqisi2
 7928 026e C92B     		cmp	r3, #201
 7929 0270 32D1     		bne	.L672
 7930 0272 3B68     		ldr	r3, [r7]
 7931 0274 0B22     		movs	r2, #11
 7932 0276 1A70     		strb	r2, [r3]
 7933 0278 7B68     		ldr	r3, [r7, #4]
 7934 027a 9B68     		ldr	r3, [r3, #8]
 7935 027c 07F10C01 		add	r1, r7, #12
 7936 0280 0422     		movs	r2, #4
 7937 0282 7868     		ldr	r0, [r7, #4]
 7938 0284 9847     		blx	r3
 7939 0286 0346     		mov	r3, r0
 7940 0288 83F00103 		eor	r3, r3, #1
 7941 028c DBB2     		uxtb	r3, r3
 7942 028e 002B     		cmp	r3, #0
 7943 0290 04D0     		beq	.L673
 7944 0292 7B68     		ldr	r3, [r7, #4]
 7945 0294 0E22     		movs	r2, #14
 7946 0296 1A70     		strb	r2, [r3]
 7947 0298 0023     		movs	r3, #0
 7948 029a 0AE3     		b	.L719
 7949              	.L673:
 7950 029c 7B68     		ldr	r3, [r7, #4]
 7951 029e 9B68     		ldr	r3, [r3, #8]
 7952 02a0 07F11101 		add	r1, r7, #17
 7953 02a4 0122     		movs	r2, #1
 7954 02a6 7868     		ldr	r0, [r7, #4]
 7955 02a8 9847     		blx	r3
 7956 02aa 0346     		mov	r3, r0
 7957 02ac 83F00103 		eor	r3, r3, #1
 7958 02b0 DBB2     		uxtb	r3, r3
 7959 02b2 002B     		cmp	r3, #0
 7960 02b4 04D0     		beq	.L675
 7961 02b6 7B68     		ldr	r3, [r7, #4]
 7962 02b8 0B22     		movs	r2, #11
 7963 02ba 1A70     		strb	r2, [r3]
 7964 02bc 0023     		movs	r3, #0
 7965 02be F8E2     		b	.L719
 7966              	.L675:
 7967 02c0 FB68     		ldr	r3, [r7, #12]
 7968 02c2 1846     		mov	r0, r3
 7969 02c4 FFF7FEFF 		bl	be32
 7970 02c8 0246     		mov	r2, r0
 7971 02ca 3B68     		ldr	r3, [r7]
 7972 02cc DA60     		str	r2, [r3, #12]
ARM GAS  /var/folders/d2/nstgp4h54kz7g1l847x_b8wc0000gn/T//ccFI0sM2.s 			page 142


 7973 02ce 97F91120 		ldrsb	r2, [r7, #17]
 7974 02d2 3B68     		ldr	r3, [r7]
 7975 02d4 1A72     		strb	r2, [r3, #8]
 7976 02d6 EBE2     		b	.L651
 7977              	.L672:
 7978 02d8 FB7D     		ldrb	r3, [r7, #23]	@ zero_extendqisi2
 7979 02da CA2B     		cmp	r3, #202
 7980 02dc 22D1     		bne	.L676
 7981 02de 3B68     		ldr	r3, [r7]
 7982 02e0 0C22     		movs	r2, #12
 7983 02e2 1A70     		strb	r2, [r3]
 7984 02e4 7B68     		ldr	r3, [r7, #4]
 7985 02e6 9B68     		ldr	r3, [r3, #8]
 7986 02e8 3A68     		ldr	r2, [r7]
 7987 02ea 02F10801 		add	r1, r2, #8
 7988 02ee 0422     		movs	r2, #4
 7989 02f0 7868     		ldr	r0, [r7, #4]
 7990 02f2 9847     		blx	r3
 7991 02f4 0346     		mov	r3, r0
 7992 02f6 83F00103 		eor	r3, r3, #1
 7993 02fa DBB2     		uxtb	r3, r3
 7994 02fc 002B     		cmp	r3, #0
 7995 02fe 04D0     		beq	.L677
 7996 0300 7B68     		ldr	r3, [r7, #4]
 7997 0302 0922     		movs	r2, #9
 7998 0304 1A70     		strb	r2, [r3]
 7999 0306 0023     		movs	r3, #0
 8000 0308 D3E2     		b	.L719
 8001              	.L677:
 8002 030a 3B68     		ldr	r3, [r7]
 8003 030c D3ED027A 		vldr.32	s15, [r3, #8]
 8004 0310 B0EE670A 		vmov.f32	s0, s15
 8005 0314 FFF7FEFF 		bl	befloat
 8006 0318 F0EE407A 		vmov.f32	s15, s0
 8007 031c 3B68     		ldr	r3, [r7]
 8008 031e C3ED027A 		vstr.32	s15, [r3, #8]
 8009 0322 C5E2     		b	.L651
 8010              	.L676:
 8011 0324 FB7D     		ldrb	r3, [r7, #23]	@ zero_extendqisi2
 8012 0326 CB2B     		cmp	r3, #203
 8013 0328 26D1     		bne	.L678
 8014 032a 3B68     		ldr	r3, [r7]
 8015 032c 0D22     		movs	r2, #13
 8016 032e 1A70     		strb	r2, [r3]
 8017 0330 7B68     		ldr	r3, [r7, #4]
 8018 0332 9B68     		ldr	r3, [r3, #8]
 8019 0334 3A68     		ldr	r2, [r7]
 8020 0336 02F10801 		add	r1, r2, #8
 8021 033a 0822     		movs	r2, #8
 8022 033c 7868     		ldr	r0, [r7, #4]
 8023 033e 9847     		blx	r3
 8024 0340 0346     		mov	r3, r0
 8025 0342 83F00103 		eor	r3, r3, #1
 8026 0346 DBB2     		uxtb	r3, r3
 8027 0348 002B     		cmp	r3, #0
 8028 034a 04D0     		beq	.L679
 8029 034c 7B68     		ldr	r3, [r7, #4]
ARM GAS  /var/folders/d2/nstgp4h54kz7g1l847x_b8wc0000gn/T//ccFI0sM2.s 			page 143


 8030 034e 0922     		movs	r2, #9
 8031 0350 1A70     		strb	r2, [r3]
 8032 0352 0023     		movs	r3, #0
 8033 0354 ADE2     		b	.L719
 8034              	.L679:
 8035 0356 3B68     		ldr	r3, [r7]
 8036 0358 93ED027B 		vldr.64	d7, [r3, #8]
 8037 035c B0EE470A 		vmov.f32	s0, s14
 8038 0360 F0EE670A 		vmov.f32	s1, s15
 8039 0364 FFF7FEFF 		bl	bedouble
 8040 0368 B0EE407A 		vmov.f32	s14, s0
 8041 036c F0EE607A 		vmov.f32	s15, s1
 8042 0370 3B68     		ldr	r3, [r7]
 8043 0372 83ED027B 		vstr.64	d7, [r3, #8]
 8044 0376 9BE2     		b	.L651
 8045              	.L678:
 8046 0378 FB7D     		ldrb	r3, [r7, #23]	@ zero_extendqisi2
 8047 037a CC2B     		cmp	r3, #204
 8048 037c 16D1     		bne	.L680
 8049 037e 3B68     		ldr	r3, [r7]
 8050 0380 0E22     		movs	r2, #14
 8051 0382 1A70     		strb	r2, [r3]
 8052 0384 7B68     		ldr	r3, [r7, #4]
 8053 0386 9B68     		ldr	r3, [r3, #8]
 8054 0388 3A68     		ldr	r2, [r7]
 8055 038a 02F10801 		add	r1, r2, #8
 8056 038e 0122     		movs	r2, #1
 8057 0390 7868     		ldr	r0, [r7, #4]
 8058 0392 9847     		blx	r3
 8059 0394 0346     		mov	r3, r0
 8060 0396 83F00103 		eor	r3, r3, #1
 8061 039a DBB2     		uxtb	r3, r3
 8062 039c 002B     		cmp	r3, #0
 8063 039e 00F08782 		beq	.L651
 8064 03a2 7B68     		ldr	r3, [r7, #4]
 8065 03a4 0922     		movs	r2, #9
 8066 03a6 1A70     		strb	r2, [r3]
 8067 03a8 0023     		movs	r3, #0
 8068 03aa 82E2     		b	.L719
 8069              	.L680:
 8070 03ac FB7D     		ldrb	r3, [r7, #23]	@ zero_extendqisi2
 8071 03ae CD2B     		cmp	r3, #205
 8072 03b0 1FD1     		bne	.L681
 8073 03b2 3B68     		ldr	r3, [r7]
 8074 03b4 0F22     		movs	r2, #15
 8075 03b6 1A70     		strb	r2, [r3]
 8076 03b8 7B68     		ldr	r3, [r7, #4]
 8077 03ba 9B68     		ldr	r3, [r3, #8]
 8078 03bc 3A68     		ldr	r2, [r7]
 8079 03be 02F10801 		add	r1, r2, #8
 8080 03c2 0222     		movs	r2, #2
 8081 03c4 7868     		ldr	r0, [r7, #4]
 8082 03c6 9847     		blx	r3
 8083 03c8 0346     		mov	r3, r0
 8084 03ca 83F00103 		eor	r3, r3, #1
 8085 03ce DBB2     		uxtb	r3, r3
 8086 03d0 002B     		cmp	r3, #0
ARM GAS  /var/folders/d2/nstgp4h54kz7g1l847x_b8wc0000gn/T//ccFI0sM2.s 			page 144


 8087 03d2 04D0     		beq	.L682
 8088 03d4 7B68     		ldr	r3, [r7, #4]
 8089 03d6 0922     		movs	r2, #9
 8090 03d8 1A70     		strb	r2, [r3]
 8091 03da 0023     		movs	r3, #0
 8092 03dc 69E2     		b	.L719
 8093              	.L682:
 8094 03de 3B68     		ldr	r3, [r7]
 8095 03e0 1B89     		ldrh	r3, [r3, #8]
 8096 03e2 1846     		mov	r0, r3
 8097 03e4 FFF7FEFF 		bl	be16
 8098 03e8 0346     		mov	r3, r0
 8099 03ea 1A46     		mov	r2, r3
 8100 03ec 3B68     		ldr	r3, [r7]
 8101 03ee 1A81     		strh	r2, [r3, #8]	@ movhi
 8102 03f0 5EE2     		b	.L651
 8103              	.L681:
 8104 03f2 FB7D     		ldrb	r3, [r7, #23]	@ zero_extendqisi2
 8105 03f4 CE2B     		cmp	r3, #206
 8106 03f6 1ED1     		bne	.L683
 8107 03f8 3B68     		ldr	r3, [r7]
 8108 03fa 1022     		movs	r2, #16
 8109 03fc 1A70     		strb	r2, [r3]
 8110 03fe 7B68     		ldr	r3, [r7, #4]
 8111 0400 9B68     		ldr	r3, [r3, #8]
 8112 0402 3A68     		ldr	r2, [r7]
 8113 0404 02F10801 		add	r1, r2, #8
 8114 0408 0422     		movs	r2, #4
 8115 040a 7868     		ldr	r0, [r7, #4]
 8116 040c 9847     		blx	r3
 8117 040e 0346     		mov	r3, r0
 8118 0410 83F00103 		eor	r3, r3, #1
 8119 0414 DBB2     		uxtb	r3, r3
 8120 0416 002B     		cmp	r3, #0
 8121 0418 04D0     		beq	.L684
 8122 041a 7B68     		ldr	r3, [r7, #4]
 8123 041c 0922     		movs	r2, #9
 8124 041e 1A70     		strb	r2, [r3]
 8125 0420 0023     		movs	r3, #0
 8126 0422 46E2     		b	.L719
 8127              	.L684:
 8128 0424 3B68     		ldr	r3, [r7]
 8129 0426 9B68     		ldr	r3, [r3, #8]
 8130 0428 1846     		mov	r0, r3
 8131 042a FFF7FEFF 		bl	be32
 8132 042e 0246     		mov	r2, r0
 8133 0430 3B68     		ldr	r3, [r7]
 8134 0432 9A60     		str	r2, [r3, #8]
 8135 0434 3CE2     		b	.L651
 8136              	.L683:
 8137 0436 FB7D     		ldrb	r3, [r7, #23]	@ zero_extendqisi2
 8138 0438 CF2B     		cmp	r3, #207
 8139 043a 22D1     		bne	.L685
 8140 043c 3B68     		ldr	r3, [r7]
 8141 043e 1122     		movs	r2, #17
 8142 0440 1A70     		strb	r2, [r3]
 8143 0442 7B68     		ldr	r3, [r7, #4]
ARM GAS  /var/folders/d2/nstgp4h54kz7g1l847x_b8wc0000gn/T//ccFI0sM2.s 			page 145


 8144 0444 9B68     		ldr	r3, [r3, #8]
 8145 0446 3A68     		ldr	r2, [r7]
 8146 0448 02F10801 		add	r1, r2, #8
 8147 044c 0822     		movs	r2, #8
 8148 044e 7868     		ldr	r0, [r7, #4]
 8149 0450 9847     		blx	r3
 8150 0452 0346     		mov	r3, r0
 8151 0454 83F00103 		eor	r3, r3, #1
 8152 0458 DBB2     		uxtb	r3, r3
 8153 045a 002B     		cmp	r3, #0
 8154 045c 04D0     		beq	.L686
 8155 045e 7B68     		ldr	r3, [r7, #4]
 8156 0460 0922     		movs	r2, #9
 8157 0462 1A70     		strb	r2, [r3]
 8158 0464 0023     		movs	r3, #0
 8159 0466 24E2     		b	.L719
 8160              	.L686:
 8161 0468 3B68     		ldr	r3, [r7]
 8162 046a D3E90234 		ldrd	r3, [r3, #8]
 8163 046e 1846     		mov	r0, r3
 8164 0470 2146     		mov	r1, r4
 8165 0472 FFF7FEFF 		bl	be64
 8166 0476 0346     		mov	r3, r0
 8167 0478 0C46     		mov	r4, r1
 8168 047a 3A68     		ldr	r2, [r7]
 8169 047c C2E90234 		strd	r3, [r2, #8]
 8170 0480 16E2     		b	.L651
 8171              	.L685:
 8172 0482 FB7D     		ldrb	r3, [r7, #23]	@ zero_extendqisi2
 8173 0484 D02B     		cmp	r3, #208
 8174 0486 16D1     		bne	.L687
 8175 0488 3B68     		ldr	r3, [r7]
 8176 048a 1222     		movs	r2, #18
 8177 048c 1A70     		strb	r2, [r3]
 8178 048e 7B68     		ldr	r3, [r7, #4]
 8179 0490 9B68     		ldr	r3, [r3, #8]
 8180 0492 3A68     		ldr	r2, [r7]
 8181 0494 02F10801 		add	r1, r2, #8
 8182 0498 0122     		movs	r2, #1
 8183 049a 7868     		ldr	r0, [r7, #4]
 8184 049c 9847     		blx	r3
 8185 049e 0346     		mov	r3, r0
 8186 04a0 83F00103 		eor	r3, r3, #1
 8187 04a4 DBB2     		uxtb	r3, r3
 8188 04a6 002B     		cmp	r3, #0
 8189 04a8 00F00282 		beq	.L651
 8190 04ac 7B68     		ldr	r3, [r7, #4]
 8191 04ae 0922     		movs	r2, #9
 8192 04b0 1A70     		strb	r2, [r3]
 8193 04b2 0023     		movs	r3, #0
 8194 04b4 FDE1     		b	.L719
 8195              	.L687:
 8196 04b6 FB7D     		ldrb	r3, [r7, #23]	@ zero_extendqisi2
 8197 04b8 D12B     		cmp	r3, #209
 8198 04ba 21D1     		bne	.L688
 8199 04bc 3B68     		ldr	r3, [r7]
 8200 04be 1322     		movs	r2, #19
ARM GAS  /var/folders/d2/nstgp4h54kz7g1l847x_b8wc0000gn/T//ccFI0sM2.s 			page 146


 8201 04c0 1A70     		strb	r2, [r3]
 8202 04c2 7B68     		ldr	r3, [r7, #4]
 8203 04c4 9B68     		ldr	r3, [r3, #8]
 8204 04c6 3A68     		ldr	r2, [r7]
 8205 04c8 02F10801 		add	r1, r2, #8
 8206 04cc 0222     		movs	r2, #2
 8207 04ce 7868     		ldr	r0, [r7, #4]
 8208 04d0 9847     		blx	r3
 8209 04d2 0346     		mov	r3, r0
 8210 04d4 83F00103 		eor	r3, r3, #1
 8211 04d8 DBB2     		uxtb	r3, r3
 8212 04da 002B     		cmp	r3, #0
 8213 04dc 04D0     		beq	.L689
 8214 04de 7B68     		ldr	r3, [r7, #4]
 8215 04e0 0922     		movs	r2, #9
 8216 04e2 1A70     		strb	r2, [r3]
 8217 04e4 0023     		movs	r3, #0
 8218 04e6 E4E1     		b	.L719
 8219              	.L689:
 8220 04e8 3B68     		ldr	r3, [r7]
 8221 04ea B3F90830 		ldrsh	r3, [r3, #8]
 8222 04ee 9BB2     		uxth	r3, r3
 8223 04f0 1846     		mov	r0, r3
 8224 04f2 FFF7FEFF 		bl	be16
 8225 04f6 0346     		mov	r3, r0
 8226 04f8 1AB2     		sxth	r2, r3
 8227 04fa 3B68     		ldr	r3, [r7]
 8228 04fc 1A81     		strh	r2, [r3, #8]	@ movhi
 8229 04fe D7E1     		b	.L651
 8230              	.L688:
 8231 0500 FB7D     		ldrb	r3, [r7, #23]	@ zero_extendqisi2
 8232 0502 D22B     		cmp	r3, #210
 8233 0504 1FD1     		bne	.L690
 8234 0506 3B68     		ldr	r3, [r7]
 8235 0508 1422     		movs	r2, #20
 8236 050a 1A70     		strb	r2, [r3]
 8237 050c 7B68     		ldr	r3, [r7, #4]
 8238 050e 9B68     		ldr	r3, [r3, #8]
 8239 0510 3A68     		ldr	r2, [r7]
 8240 0512 02F10801 		add	r1, r2, #8
 8241 0516 0422     		movs	r2, #4
 8242 0518 7868     		ldr	r0, [r7, #4]
 8243 051a 9847     		blx	r3
 8244 051c 0346     		mov	r3, r0
 8245 051e 83F00103 		eor	r3, r3, #1
 8246 0522 DBB2     		uxtb	r3, r3
 8247 0524 002B     		cmp	r3, #0
 8248 0526 04D0     		beq	.L691
 8249 0528 7B68     		ldr	r3, [r7, #4]
 8250 052a 0922     		movs	r2, #9
 8251 052c 1A70     		strb	r2, [r3]
 8252 052e 0023     		movs	r3, #0
 8253 0530 BFE1     		b	.L719
 8254              	.L691:
 8255 0532 3B68     		ldr	r3, [r7]
 8256 0534 9B68     		ldr	r3, [r3, #8]
 8257 0536 1846     		mov	r0, r3
ARM GAS  /var/folders/d2/nstgp4h54kz7g1l847x_b8wc0000gn/T//ccFI0sM2.s 			page 147


 8258 0538 FFF7FEFF 		bl	be32
 8259 053c 0346     		mov	r3, r0
 8260 053e 1A46     		mov	r2, r3
 8261 0540 3B68     		ldr	r3, [r7]
 8262 0542 9A60     		str	r2, [r3, #8]
 8263 0544 B4E1     		b	.L651
 8264              	.L690:
 8265 0546 FB7D     		ldrb	r3, [r7, #23]	@ zero_extendqisi2
 8266 0548 D32B     		cmp	r3, #211
 8267 054a 22D1     		bne	.L692
 8268 054c 3B68     		ldr	r3, [r7]
 8269 054e 1522     		movs	r2, #21
 8270 0550 1A70     		strb	r2, [r3]
 8271 0552 7B68     		ldr	r3, [r7, #4]
 8272 0554 9B68     		ldr	r3, [r3, #8]
 8273 0556 3A68     		ldr	r2, [r7]
 8274 0558 02F10801 		add	r1, r2, #8
 8275 055c 0822     		movs	r2, #8
 8276 055e 7868     		ldr	r0, [r7, #4]
 8277 0560 9847     		blx	r3
 8278 0562 0346     		mov	r3, r0
 8279 0564 83F00103 		eor	r3, r3, #1
 8280 0568 DBB2     		uxtb	r3, r3
 8281 056a 002B     		cmp	r3, #0
 8282 056c 04D0     		beq	.L693
 8283 056e 7B68     		ldr	r3, [r7, #4]
 8284 0570 0922     		movs	r2, #9
 8285 0572 1A70     		strb	r2, [r3]
 8286 0574 0023     		movs	r3, #0
 8287 0576 9CE1     		b	.L719
 8288              	.L693:
 8289 0578 3B68     		ldr	r3, [r7]
 8290 057a D3E90234 		ldrd	r3, [r3, #8]
 8291 057e 1846     		mov	r0, r3
 8292 0580 2146     		mov	r1, r4
 8293 0582 FFF7FEFF 		bl	be64
 8294 0586 0346     		mov	r3, r0
 8295 0588 0C46     		mov	r4, r1
 8296 058a 3A68     		ldr	r2, [r7]
 8297 058c C2E90234 		strd	r3, [r2, #8]
 8298 0590 8EE1     		b	.L651
 8299              	.L692:
 8300 0592 FB7D     		ldrb	r3, [r7, #23]	@ zero_extendqisi2
 8301 0594 D42B     		cmp	r3, #212
 8302 0596 19D1     		bne	.L694
 8303 0598 3B68     		ldr	r3, [r7]
 8304 059a 1622     		movs	r2, #22
 8305 059c 1A70     		strb	r2, [r3]
 8306 059e 7B68     		ldr	r3, [r7, #4]
 8307 05a0 9B68     		ldr	r3, [r3, #8]
 8308 05a2 3A68     		ldr	r2, [r7]
 8309 05a4 02F10801 		add	r1, r2, #8
 8310 05a8 0122     		movs	r2, #1
 8311 05aa 7868     		ldr	r0, [r7, #4]
 8312 05ac 9847     		blx	r3
 8313 05ae 0346     		mov	r3, r0
 8314 05b0 83F00103 		eor	r3, r3, #1
ARM GAS  /var/folders/d2/nstgp4h54kz7g1l847x_b8wc0000gn/T//ccFI0sM2.s 			page 148


 8315 05b4 DBB2     		uxtb	r3, r3
 8316 05b6 002B     		cmp	r3, #0
 8317 05b8 04D0     		beq	.L695
 8318 05ba 7B68     		ldr	r3, [r7, #4]
 8319 05bc 0B22     		movs	r2, #11
 8320 05be 1A70     		strb	r2, [r3]
 8321 05c0 0023     		movs	r3, #0
 8322 05c2 76E1     		b	.L719
 8323              	.L695:
 8324 05c4 3B68     		ldr	r3, [r7]
 8325 05c6 0122     		movs	r2, #1
 8326 05c8 DA60     		str	r2, [r3, #12]
 8327 05ca 71E1     		b	.L651
 8328              	.L694:
 8329 05cc FB7D     		ldrb	r3, [r7, #23]	@ zero_extendqisi2
 8330 05ce D52B     		cmp	r3, #213
 8331 05d0 19D1     		bne	.L696
 8332 05d2 3B68     		ldr	r3, [r7]
 8333 05d4 1722     		movs	r2, #23
 8334 05d6 1A70     		strb	r2, [r3]
 8335 05d8 7B68     		ldr	r3, [r7, #4]
 8336 05da 9B68     		ldr	r3, [r3, #8]
 8337 05dc 3A68     		ldr	r2, [r7]
 8338 05de 02F10801 		add	r1, r2, #8
 8339 05e2 0122     		movs	r2, #1
 8340 05e4 7868     		ldr	r0, [r7, #4]
 8341 05e6 9847     		blx	r3
 8342 05e8 0346     		mov	r3, r0
 8343 05ea 83F00103 		eor	r3, r3, #1
 8344 05ee DBB2     		uxtb	r3, r3
 8345 05f0 002B     		cmp	r3, #0
 8346 05f2 04D0     		beq	.L697
 8347 05f4 7B68     		ldr	r3, [r7, #4]
 8348 05f6 0B22     		movs	r2, #11
 8349 05f8 1A70     		strb	r2, [r3]
 8350 05fa 0023     		movs	r3, #0
 8351 05fc 59E1     		b	.L719
 8352              	.L697:
 8353 05fe 3B68     		ldr	r3, [r7]
 8354 0600 0222     		movs	r2, #2
 8355 0602 DA60     		str	r2, [r3, #12]
 8356 0604 54E1     		b	.L651
 8357              	.L696:
 8358 0606 FB7D     		ldrb	r3, [r7, #23]	@ zero_extendqisi2
 8359 0608 D62B     		cmp	r3, #214
 8360 060a 19D1     		bne	.L698
 8361 060c 3B68     		ldr	r3, [r7]
 8362 060e 1822     		movs	r2, #24
 8363 0610 1A70     		strb	r2, [r3]
 8364 0612 7B68     		ldr	r3, [r7, #4]
 8365 0614 9B68     		ldr	r3, [r3, #8]
 8366 0616 3A68     		ldr	r2, [r7]
 8367 0618 02F10801 		add	r1, r2, #8
 8368 061c 0122     		movs	r2, #1
 8369 061e 7868     		ldr	r0, [r7, #4]
 8370 0620 9847     		blx	r3
 8371 0622 0346     		mov	r3, r0
ARM GAS  /var/folders/d2/nstgp4h54kz7g1l847x_b8wc0000gn/T//ccFI0sM2.s 			page 149


 8372 0624 83F00103 		eor	r3, r3, #1
 8373 0628 DBB2     		uxtb	r3, r3
 8374 062a 002B     		cmp	r3, #0
 8375 062c 04D0     		beq	.L699
 8376 062e 7B68     		ldr	r3, [r7, #4]
 8377 0630 0B22     		movs	r2, #11
 8378 0632 1A70     		strb	r2, [r3]
 8379 0634 0023     		movs	r3, #0
 8380 0636 3CE1     		b	.L719
 8381              	.L699:
 8382 0638 3B68     		ldr	r3, [r7]
 8383 063a 0422     		movs	r2, #4
 8384 063c DA60     		str	r2, [r3, #12]
 8385 063e 37E1     		b	.L651
 8386              	.L698:
 8387 0640 FB7D     		ldrb	r3, [r7, #23]	@ zero_extendqisi2
 8388 0642 D72B     		cmp	r3, #215
 8389 0644 19D1     		bne	.L700
 8390 0646 3B68     		ldr	r3, [r7]
 8391 0648 1922     		movs	r2, #25
 8392 064a 1A70     		strb	r2, [r3]
 8393 064c 7B68     		ldr	r3, [r7, #4]
 8394 064e 9B68     		ldr	r3, [r3, #8]
 8395 0650 3A68     		ldr	r2, [r7]
 8396 0652 02F10801 		add	r1, r2, #8
 8397 0656 0122     		movs	r2, #1
 8398 0658 7868     		ldr	r0, [r7, #4]
 8399 065a 9847     		blx	r3
 8400 065c 0346     		mov	r3, r0
 8401 065e 83F00103 		eor	r3, r3, #1
 8402 0662 DBB2     		uxtb	r3, r3
 8403 0664 002B     		cmp	r3, #0
 8404 0666 04D0     		beq	.L701
 8405 0668 7B68     		ldr	r3, [r7, #4]
 8406 066a 0B22     		movs	r2, #11
 8407 066c 1A70     		strb	r2, [r3]
 8408 066e 0023     		movs	r3, #0
 8409 0670 1FE1     		b	.L719
 8410              	.L701:
 8411 0672 3B68     		ldr	r3, [r7]
 8412 0674 0822     		movs	r2, #8
 8413 0676 DA60     		str	r2, [r3, #12]
 8414 0678 1AE1     		b	.L651
 8415              	.L700:
 8416 067a FB7D     		ldrb	r3, [r7, #23]	@ zero_extendqisi2
 8417 067c D82B     		cmp	r3, #216
 8418 067e 19D1     		bne	.L702
 8419 0680 3B68     		ldr	r3, [r7]
 8420 0682 1A22     		movs	r2, #26
 8421 0684 1A70     		strb	r2, [r3]
 8422 0686 7B68     		ldr	r3, [r7, #4]
 8423 0688 9B68     		ldr	r3, [r3, #8]
 8424 068a 3A68     		ldr	r2, [r7]
 8425 068c 02F10801 		add	r1, r2, #8
 8426 0690 0122     		movs	r2, #1
 8427 0692 7868     		ldr	r0, [r7, #4]
 8428 0694 9847     		blx	r3
ARM GAS  /var/folders/d2/nstgp4h54kz7g1l847x_b8wc0000gn/T//ccFI0sM2.s 			page 150


 8429 0696 0346     		mov	r3, r0
 8430 0698 83F00103 		eor	r3, r3, #1
 8431 069c DBB2     		uxtb	r3, r3
 8432 069e 002B     		cmp	r3, #0
 8433 06a0 04D0     		beq	.L703
 8434 06a2 7B68     		ldr	r3, [r7, #4]
 8435 06a4 0B22     		movs	r2, #11
 8436 06a6 1A70     		strb	r2, [r3]
 8437 06a8 0023     		movs	r3, #0
 8438 06aa 02E1     		b	.L719
 8439              	.L703:
 8440 06ac 3B68     		ldr	r3, [r7]
 8441 06ae 1022     		movs	r2, #16
 8442 06b0 DA60     		str	r2, [r3, #12]
 8443 06b2 FDE0     		b	.L651
 8444              	.L702:
 8445 06b4 FB7D     		ldrb	r3, [r7, #23]	@ zero_extendqisi2
 8446 06b6 D92B     		cmp	r3, #217
 8447 06b8 1BD1     		bne	.L704
 8448 06ba 3B68     		ldr	r3, [r7]
 8449 06bc 1B22     		movs	r2, #27
 8450 06be 1A70     		strb	r2, [r3]
 8451 06c0 7B68     		ldr	r3, [r7, #4]
 8452 06c2 9B68     		ldr	r3, [r3, #8]
 8453 06c4 3A68     		ldr	r2, [r7]
 8454 06c6 02F10801 		add	r1, r2, #8
 8455 06ca 0122     		movs	r2, #1
 8456 06cc 7868     		ldr	r0, [r7, #4]
 8457 06ce 9847     		blx	r3
 8458 06d0 0346     		mov	r3, r0
 8459 06d2 83F00103 		eor	r3, r3, #1
 8460 06d6 DBB2     		uxtb	r3, r3
 8461 06d8 002B     		cmp	r3, #0
 8462 06da 04D0     		beq	.L705
 8463 06dc 7B68     		ldr	r3, [r7, #4]
 8464 06de 0922     		movs	r2, #9
 8465 06e0 1A70     		strb	r2, [r3]
 8466 06e2 0023     		movs	r3, #0
 8467 06e4 E5E0     		b	.L719
 8468              	.L705:
 8469 06e6 3B68     		ldr	r3, [r7]
 8470 06e8 1B7A     		ldrb	r3, [r3, #8]	@ zero_extendqisi2
 8471 06ea 1A46     		mov	r2, r3
 8472 06ec 3B68     		ldr	r3, [r7]
 8473 06ee 9A60     		str	r2, [r3, #8]
 8474 06f0 DEE0     		b	.L651
 8475              	.L704:
 8476 06f2 FB7D     		ldrb	r3, [r7, #23]	@ zero_extendqisi2
 8477 06f4 DA2B     		cmp	r3, #218
 8478 06f6 1FD1     		bne	.L706
 8479 06f8 3B68     		ldr	r3, [r7]
 8480 06fa 1C22     		movs	r2, #28
 8481 06fc 1A70     		strb	r2, [r3]
 8482 06fe 7B68     		ldr	r3, [r7, #4]
 8483 0700 9B68     		ldr	r3, [r3, #8]
 8484 0702 3A68     		ldr	r2, [r7]
 8485 0704 02F10801 		add	r1, r2, #8
ARM GAS  /var/folders/d2/nstgp4h54kz7g1l847x_b8wc0000gn/T//ccFI0sM2.s 			page 151


 8486 0708 0222     		movs	r2, #2
 8487 070a 7868     		ldr	r0, [r7, #4]
 8488 070c 9847     		blx	r3
 8489 070e 0346     		mov	r3, r0
 8490 0710 83F00103 		eor	r3, r3, #1
 8491 0714 DBB2     		uxtb	r3, r3
 8492 0716 002B     		cmp	r3, #0
 8493 0718 04D0     		beq	.L707
 8494 071a 7B68     		ldr	r3, [r7, #4]
 8495 071c 0922     		movs	r2, #9
 8496 071e 1A70     		strb	r2, [r3]
 8497 0720 0023     		movs	r3, #0
 8498 0722 C6E0     		b	.L719
 8499              	.L707:
 8500 0724 3B68     		ldr	r3, [r7]
 8501 0726 1B89     		ldrh	r3, [r3, #8]
 8502 0728 1846     		mov	r0, r3
 8503 072a FFF7FEFF 		bl	be16
 8504 072e 0346     		mov	r3, r0
 8505 0730 1A46     		mov	r2, r3
 8506 0732 3B68     		ldr	r3, [r7]
 8507 0734 9A60     		str	r2, [r3, #8]
 8508 0736 BBE0     		b	.L651
 8509              	.L706:
 8510 0738 FB7D     		ldrb	r3, [r7, #23]	@ zero_extendqisi2
 8511 073a DB2B     		cmp	r3, #219
 8512 073c 1ED1     		bne	.L708
 8513 073e 3B68     		ldr	r3, [r7]
 8514 0740 1D22     		movs	r2, #29
 8515 0742 1A70     		strb	r2, [r3]
 8516 0744 7B68     		ldr	r3, [r7, #4]
 8517 0746 9B68     		ldr	r3, [r3, #8]
 8518 0748 3A68     		ldr	r2, [r7]
 8519 074a 02F10801 		add	r1, r2, #8
 8520 074e 0422     		movs	r2, #4
 8521 0750 7868     		ldr	r0, [r7, #4]
 8522 0752 9847     		blx	r3
 8523 0754 0346     		mov	r3, r0
 8524 0756 83F00103 		eor	r3, r3, #1
 8525 075a DBB2     		uxtb	r3, r3
 8526 075c 002B     		cmp	r3, #0
 8527 075e 04D0     		beq	.L709
 8528 0760 7B68     		ldr	r3, [r7, #4]
 8529 0762 0922     		movs	r2, #9
 8530 0764 1A70     		strb	r2, [r3]
 8531 0766 0023     		movs	r3, #0
 8532 0768 A3E0     		b	.L719
 8533              	.L709:
 8534 076a 3B68     		ldr	r3, [r7]
 8535 076c 9B68     		ldr	r3, [r3, #8]
 8536 076e 1846     		mov	r0, r3
 8537 0770 FFF7FEFF 		bl	be32
 8538 0774 0246     		mov	r2, r0
 8539 0776 3B68     		ldr	r3, [r7]
 8540 0778 9A60     		str	r2, [r3, #8]
 8541 077a 99E0     		b	.L651
 8542              	.L708:
ARM GAS  /var/folders/d2/nstgp4h54kz7g1l847x_b8wc0000gn/T//ccFI0sM2.s 			page 152


 8543 077c FB7D     		ldrb	r3, [r7, #23]	@ zero_extendqisi2
 8544 077e DC2B     		cmp	r3, #220
 8545 0780 1FD1     		bne	.L710
 8546 0782 3B68     		ldr	r3, [r7]
 8547 0784 1E22     		movs	r2, #30
 8548 0786 1A70     		strb	r2, [r3]
 8549 0788 7B68     		ldr	r3, [r7, #4]
 8550 078a 9B68     		ldr	r3, [r3, #8]
 8551 078c 3A68     		ldr	r2, [r7]
 8552 078e 02F10801 		add	r1, r2, #8
 8553 0792 0222     		movs	r2, #2
 8554 0794 7868     		ldr	r0, [r7, #4]
 8555 0796 9847     		blx	r3
 8556 0798 0346     		mov	r3, r0
 8557 079a 83F00103 		eor	r3, r3, #1
 8558 079e DBB2     		uxtb	r3, r3
 8559 07a0 002B     		cmp	r3, #0
 8560 07a2 04D0     		beq	.L711
 8561 07a4 7B68     		ldr	r3, [r7, #4]
 8562 07a6 0922     		movs	r2, #9
 8563 07a8 1A70     		strb	r2, [r3]
 8564 07aa 0023     		movs	r3, #0
 8565 07ac 81E0     		b	.L719
 8566              	.L711:
 8567 07ae 3B68     		ldr	r3, [r7]
 8568 07b0 1B89     		ldrh	r3, [r3, #8]
 8569 07b2 1846     		mov	r0, r3
 8570 07b4 FFF7FEFF 		bl	be16
 8571 07b8 0346     		mov	r3, r0
 8572 07ba 1A46     		mov	r2, r3
 8573 07bc 3B68     		ldr	r3, [r7]
 8574 07be 9A60     		str	r2, [r3, #8]
 8575 07c0 76E0     		b	.L651
 8576              	.L710:
 8577 07c2 FB7D     		ldrb	r3, [r7, #23]	@ zero_extendqisi2
 8578 07c4 DD2B     		cmp	r3, #221
 8579 07c6 1ED1     		bne	.L712
 8580 07c8 3B68     		ldr	r3, [r7]
 8581 07ca 1F22     		movs	r2, #31
 8582 07cc 1A70     		strb	r2, [r3]
 8583 07ce 7B68     		ldr	r3, [r7, #4]
 8584 07d0 9B68     		ldr	r3, [r3, #8]
 8585 07d2 3A68     		ldr	r2, [r7]
 8586 07d4 02F10801 		add	r1, r2, #8
 8587 07d8 0422     		movs	r2, #4
 8588 07da 7868     		ldr	r0, [r7, #4]
 8589 07dc 9847     		blx	r3
 8590 07de 0346     		mov	r3, r0
 8591 07e0 83F00103 		eor	r3, r3, #1
 8592 07e4 DBB2     		uxtb	r3, r3
 8593 07e6 002B     		cmp	r3, #0
 8594 07e8 04D0     		beq	.L713
 8595 07ea 7B68     		ldr	r3, [r7, #4]
 8596 07ec 0922     		movs	r2, #9
 8597 07ee 1A70     		strb	r2, [r3]
 8598 07f0 0023     		movs	r3, #0
 8599 07f2 5EE0     		b	.L719
ARM GAS  /var/folders/d2/nstgp4h54kz7g1l847x_b8wc0000gn/T//ccFI0sM2.s 			page 153


 8600              	.L713:
 8601 07f4 3B68     		ldr	r3, [r7]
 8602 07f6 9B68     		ldr	r3, [r3, #8]
 8603 07f8 1846     		mov	r0, r3
 8604 07fa FFF7FEFF 		bl	be32
 8605 07fe 0246     		mov	r2, r0
 8606 0800 3B68     		ldr	r3, [r7]
 8607 0802 9A60     		str	r2, [r3, #8]
 8608 0804 54E0     		b	.L651
 8609              	.L712:
 8610 0806 FB7D     		ldrb	r3, [r7, #23]	@ zero_extendqisi2
 8611 0808 DE2B     		cmp	r3, #222
 8612 080a 1FD1     		bne	.L714
 8613 080c 3B68     		ldr	r3, [r7]
 8614 080e 2022     		movs	r2, #32
 8615 0810 1A70     		strb	r2, [r3]
 8616 0812 7B68     		ldr	r3, [r7, #4]
 8617 0814 9B68     		ldr	r3, [r3, #8]
 8618 0816 3A68     		ldr	r2, [r7]
 8619 0818 02F10801 		add	r1, r2, #8
 8620 081c 0222     		movs	r2, #2
 8621 081e 7868     		ldr	r0, [r7, #4]
 8622 0820 9847     		blx	r3
 8623 0822 0346     		mov	r3, r0
 8624 0824 83F00103 		eor	r3, r3, #1
 8625 0828 DBB2     		uxtb	r3, r3
 8626 082a 002B     		cmp	r3, #0
 8627 082c 04D0     		beq	.L715
 8628 082e 7B68     		ldr	r3, [r7, #4]
 8629 0830 0922     		movs	r2, #9
 8630 0832 1A70     		strb	r2, [r3]
 8631 0834 0023     		movs	r3, #0
 8632 0836 3CE0     		b	.L719
 8633              	.L715:
 8634 0838 3B68     		ldr	r3, [r7]
 8635 083a 1B89     		ldrh	r3, [r3, #8]
 8636 083c 1846     		mov	r0, r3
 8637 083e FFF7FEFF 		bl	be16
 8638 0842 0346     		mov	r3, r0
 8639 0844 1A46     		mov	r2, r3
 8640 0846 3B68     		ldr	r3, [r7]
 8641 0848 9A60     		str	r2, [r3, #8]
 8642 084a 31E0     		b	.L651
 8643              	.L714:
 8644 084c FB7D     		ldrb	r3, [r7, #23]	@ zero_extendqisi2
 8645 084e DF2B     		cmp	r3, #223
 8646 0850 1ED1     		bne	.L716
 8647 0852 3B68     		ldr	r3, [r7]
 8648 0854 2122     		movs	r2, #33
 8649 0856 1A70     		strb	r2, [r3]
 8650 0858 7B68     		ldr	r3, [r7, #4]
 8651 085a 9B68     		ldr	r3, [r3, #8]
 8652 085c 3A68     		ldr	r2, [r7]
 8653 085e 02F10801 		add	r1, r2, #8
 8654 0862 0422     		movs	r2, #4
 8655 0864 7868     		ldr	r0, [r7, #4]
 8656 0866 9847     		blx	r3
ARM GAS  /var/folders/d2/nstgp4h54kz7g1l847x_b8wc0000gn/T//ccFI0sM2.s 			page 154


 8657 0868 0346     		mov	r3, r0
 8658 086a 83F00103 		eor	r3, r3, #1
 8659 086e DBB2     		uxtb	r3, r3
 8660 0870 002B     		cmp	r3, #0
 8661 0872 04D0     		beq	.L717
 8662 0874 7B68     		ldr	r3, [r7, #4]
 8663 0876 0922     		movs	r2, #9
 8664 0878 1A70     		strb	r2, [r3]
 8665 087a 0023     		movs	r3, #0
 8666 087c 19E0     		b	.L719
 8667              	.L717:
 8668 087e 3B68     		ldr	r3, [r7]
 8669 0880 9B68     		ldr	r3, [r3, #8]
 8670 0882 1846     		mov	r0, r3
 8671 0884 FFF7FEFF 		bl	be32
 8672 0888 0246     		mov	r2, r0
 8673 088a 3B68     		ldr	r3, [r7]
 8674 088c 9A60     		str	r2, [r3, #8]
 8675 088e 0FE0     		b	.L651
 8676              	.L716:
 8677 0890 FB7D     		ldrb	r3, [r7, #23]	@ zero_extendqisi2
 8678 0892 DF2B     		cmp	r3, #223
 8679 0894 07D9     		bls	.L718
 8680 0896 3B68     		ldr	r3, [r7]
 8681 0898 2222     		movs	r2, #34
 8682 089a 1A70     		strb	r2, [r3]
 8683 089c FB7D     		ldrb	r3, [r7, #23]	@ zero_extendqisi2
 8684 089e 5AB2     		sxtb	r2, r3
 8685 08a0 3B68     		ldr	r3, [r7]
 8686 08a2 1A72     		strb	r2, [r3, #8]
 8687 08a4 04E0     		b	.L651
 8688              	.L718:
 8689 08a6 7B68     		ldr	r3, [r7, #4]
 8690 08a8 0D22     		movs	r2, #13
 8691 08aa 1A70     		strb	r2, [r3]
 8692 08ac 0023     		movs	r3, #0
 8693 08ae 00E0     		b	.L719
 8694              	.L651:
 8695 08b0 0123     		movs	r3, #1
 8696              	.L719:
 8697 08b2 1846     		mov	r0, r3
 8698 08b4 1C37     		adds	r7, r7, #28
 8699 08b6 BD46     		mov	sp, r7
 8700              		@ sp needed
 8701 08b8 90BD     		pop	{r4, r7, pc}
 8702              		.size	cmp_read_object, .-cmp_read_object
 8703              		.section	.text.cmp_object_is_char,"ax",%progbits
 8704              		.align	1
 8705              		.global	cmp_object_is_char
 8706              		.syntax unified
 8707              		.thumb
 8708              		.thumb_func
 8709              		.fpu fpv4-sp-d16
 8710              		.type	cmp_object_is_char, %function
 8711              	cmp_object_is_char:
 8712              		@ args = 0, pretend = 0, frame = 8
 8713              		@ frame_needed = 1, uses_anonymous_args = 0
ARM GAS  /var/folders/d2/nstgp4h54kz7g1l847x_b8wc0000gn/T//ccFI0sM2.s 			page 155


 8714              		@ link register save eliminated.
 8715 0000 80B4     		push	{r7}
 8716 0002 83B0     		sub	sp, sp, #12
 8717 0004 00AF     		add	r7, sp, #0
 8718 0006 7860     		str	r0, [r7, #4]
 8719 0008 7B68     		ldr	r3, [r7, #4]
 8720 000a 1B78     		ldrb	r3, [r3]	@ zero_extendqisi2
 8721 000c 122B     		cmp	r3, #18
 8722 000e 01D0     		beq	.L722
 8723 0010 222B     		cmp	r3, #34
 8724 0012 01D1     		bne	.L724
 8725              	.L722:
 8726 0014 0123     		movs	r3, #1
 8727 0016 00E0     		b	.L723
 8728              	.L724:
 8729 0018 0023     		movs	r3, #0
 8730              	.L723:
 8731 001a 1846     		mov	r0, r3
 8732 001c 0C37     		adds	r7, r7, #12
 8733 001e BD46     		mov	sp, r7
 8734              		@ sp needed
 8735 0020 5DF8047B 		ldr	r7, [sp], #4
 8736 0024 7047     		bx	lr
 8737              		.size	cmp_object_is_char, .-cmp_object_is_char
 8738              		.section	.text.cmp_object_is_short,"ax",%progbits
 8739              		.align	1
 8740              		.global	cmp_object_is_short
 8741              		.syntax unified
 8742              		.thumb
 8743              		.thumb_func
 8744              		.fpu fpv4-sp-d16
 8745              		.type	cmp_object_is_short, %function
 8746              	cmp_object_is_short:
 8747              		@ args = 0, pretend = 0, frame = 8
 8748              		@ frame_needed = 1, uses_anonymous_args = 0
 8749              		@ link register save eliminated.
 8750 0000 80B4     		push	{r7}
 8751 0002 83B0     		sub	sp, sp, #12
 8752 0004 00AF     		add	r7, sp, #0
 8753 0006 7860     		str	r0, [r7, #4]
 8754 0008 7B68     		ldr	r3, [r7, #4]
 8755 000a 1B78     		ldrb	r3, [r3]	@ zero_extendqisi2
 8756 000c 122B     		cmp	r3, #18
 8757 000e 05DB     		blt	.L726
 8758 0010 132B     		cmp	r3, #19
 8759 0012 01DD     		ble	.L727
 8760 0014 222B     		cmp	r3, #34
 8761 0016 01D1     		bne	.L726
 8762              	.L727:
 8763 0018 0123     		movs	r3, #1
 8764 001a 00E0     		b	.L728
 8765              	.L726:
 8766 001c 0023     		movs	r3, #0
 8767              	.L728:
 8768 001e 1846     		mov	r0, r3
 8769 0020 0C37     		adds	r7, r7, #12
 8770 0022 BD46     		mov	sp, r7
ARM GAS  /var/folders/d2/nstgp4h54kz7g1l847x_b8wc0000gn/T//ccFI0sM2.s 			page 156


 8771              		@ sp needed
 8772 0024 5DF8047B 		ldr	r7, [sp], #4
 8773 0028 7047     		bx	lr
 8774              		.size	cmp_object_is_short, .-cmp_object_is_short
 8775              		.section	.text.cmp_object_is_int,"ax",%progbits
 8776              		.align	1
 8777              		.global	cmp_object_is_int
 8778              		.syntax unified
 8779              		.thumb
 8780              		.thumb_func
 8781              		.fpu fpv4-sp-d16
 8782              		.type	cmp_object_is_int, %function
 8783              	cmp_object_is_int:
 8784              		@ args = 0, pretend = 0, frame = 8
 8785              		@ frame_needed = 1, uses_anonymous_args = 0
 8786              		@ link register save eliminated.
 8787 0000 80B4     		push	{r7}
 8788 0002 83B0     		sub	sp, sp, #12
 8789 0004 00AF     		add	r7, sp, #0
 8790 0006 7860     		str	r0, [r7, #4]
 8791 0008 7B68     		ldr	r3, [r7, #4]
 8792 000a 1B78     		ldrb	r3, [r3]	@ zero_extendqisi2
 8793 000c 122B     		cmp	r3, #18
 8794 000e 05DB     		blt	.L730
 8795 0010 142B     		cmp	r3, #20
 8796 0012 01DD     		ble	.L731
 8797 0014 222B     		cmp	r3, #34
 8798 0016 01D1     		bne	.L730
 8799              	.L731:
 8800 0018 0123     		movs	r3, #1
 8801 001a 00E0     		b	.L732
 8802              	.L730:
 8803 001c 0023     		movs	r3, #0
 8804              	.L732:
 8805 001e 1846     		mov	r0, r3
 8806 0020 0C37     		adds	r7, r7, #12
 8807 0022 BD46     		mov	sp, r7
 8808              		@ sp needed
 8809 0024 5DF8047B 		ldr	r7, [sp], #4
 8810 0028 7047     		bx	lr
 8811              		.size	cmp_object_is_int, .-cmp_object_is_int
 8812              		.section	.text.cmp_object_is_long,"ax",%progbits
 8813              		.align	1
 8814              		.global	cmp_object_is_long
 8815              		.syntax unified
 8816              		.thumb
 8817              		.thumb_func
 8818              		.fpu fpv4-sp-d16
 8819              		.type	cmp_object_is_long, %function
 8820              	cmp_object_is_long:
 8821              		@ args = 0, pretend = 0, frame = 8
 8822              		@ frame_needed = 1, uses_anonymous_args = 0
 8823              		@ link register save eliminated.
 8824 0000 80B4     		push	{r7}
 8825 0002 83B0     		sub	sp, sp, #12
 8826 0004 00AF     		add	r7, sp, #0
 8827 0006 7860     		str	r0, [r7, #4]
ARM GAS  /var/folders/d2/nstgp4h54kz7g1l847x_b8wc0000gn/T//ccFI0sM2.s 			page 157


 8828 0008 7B68     		ldr	r3, [r7, #4]
 8829 000a 1B78     		ldrb	r3, [r3]	@ zero_extendqisi2
 8830 000c 122B     		cmp	r3, #18
 8831 000e 05DB     		blt	.L734
 8832 0010 152B     		cmp	r3, #21
 8833 0012 01DD     		ble	.L735
 8834 0014 222B     		cmp	r3, #34
 8835 0016 01D1     		bne	.L734
 8836              	.L735:
 8837 0018 0123     		movs	r3, #1
 8838 001a 00E0     		b	.L736
 8839              	.L734:
 8840 001c 0023     		movs	r3, #0
 8841              	.L736:
 8842 001e 1846     		mov	r0, r3
 8843 0020 0C37     		adds	r7, r7, #12
 8844 0022 BD46     		mov	sp, r7
 8845              		@ sp needed
 8846 0024 5DF8047B 		ldr	r7, [sp], #4
 8847 0028 7047     		bx	lr
 8848              		.size	cmp_object_is_long, .-cmp_object_is_long
 8849              		.section	.text.cmp_object_is_sinteger,"ax",%progbits
 8850              		.align	1
 8851              		.global	cmp_object_is_sinteger
 8852              		.syntax unified
 8853              		.thumb
 8854              		.thumb_func
 8855              		.fpu fpv4-sp-d16
 8856              		.type	cmp_object_is_sinteger, %function
 8857              	cmp_object_is_sinteger:
 8858              		@ args = 0, pretend = 0, frame = 8
 8859              		@ frame_needed = 1, uses_anonymous_args = 0
 8860 0000 80B5     		push	{r7, lr}
 8861 0002 82B0     		sub	sp, sp, #8
 8862 0004 00AF     		add	r7, sp, #0
 8863 0006 7860     		str	r0, [r7, #4]
 8864 0008 7868     		ldr	r0, [r7, #4]
 8865 000a FFF7FEFF 		bl	cmp_object_is_long
 8866 000e 0346     		mov	r3, r0
 8867 0010 1846     		mov	r0, r3
 8868 0012 0837     		adds	r7, r7, #8
 8869 0014 BD46     		mov	sp, r7
 8870              		@ sp needed
 8871 0016 80BD     		pop	{r7, pc}
 8872              		.size	cmp_object_is_sinteger, .-cmp_object_is_sinteger
 8873              		.section	.text.cmp_object_is_uchar,"ax",%progbits
 8874              		.align	1
 8875              		.global	cmp_object_is_uchar
 8876              		.syntax unified
 8877              		.thumb
 8878              		.thumb_func
 8879              		.fpu fpv4-sp-d16
 8880              		.type	cmp_object_is_uchar, %function
 8881              	cmp_object_is_uchar:
 8882              		@ args = 0, pretend = 0, frame = 8
 8883              		@ frame_needed = 1, uses_anonymous_args = 0
 8884              		@ link register save eliminated.
ARM GAS  /var/folders/d2/nstgp4h54kz7g1l847x_b8wc0000gn/T//ccFI0sM2.s 			page 158


 8885 0000 80B4     		push	{r7}
 8886 0002 83B0     		sub	sp, sp, #12
 8887 0004 00AF     		add	r7, sp, #0
 8888 0006 7860     		str	r0, [r7, #4]
 8889 0008 7B68     		ldr	r3, [r7, #4]
 8890 000a 1B78     		ldrb	r3, [r3]	@ zero_extendqisi2
 8891 000c 002B     		cmp	r3, #0
 8892 000e 01D0     		beq	.L741
 8893 0010 0E2B     		cmp	r3, #14
 8894 0012 01D1     		bne	.L743
 8895              	.L741:
 8896 0014 0123     		movs	r3, #1
 8897 0016 00E0     		b	.L742
 8898              	.L743:
 8899 0018 0023     		movs	r3, #0
 8900              	.L742:
 8901 001a 1846     		mov	r0, r3
 8902 001c 0C37     		adds	r7, r7, #12
 8903 001e BD46     		mov	sp, r7
 8904              		@ sp needed
 8905 0020 5DF8047B 		ldr	r7, [sp], #4
 8906 0024 7047     		bx	lr
 8907              		.size	cmp_object_is_uchar, .-cmp_object_is_uchar
 8908              		.section	.text.cmp_object_is_ushort,"ax",%progbits
 8909              		.align	1
 8910              		.global	cmp_object_is_ushort
 8911              		.syntax unified
 8912              		.thumb
 8913              		.thumb_func
 8914              		.fpu fpv4-sp-d16
 8915              		.type	cmp_object_is_ushort, %function
 8916              	cmp_object_is_ushort:
 8917              		@ args = 0, pretend = 0, frame = 8
 8918              		@ frame_needed = 1, uses_anonymous_args = 0
 8919              		@ link register save eliminated.
 8920 0000 80B4     		push	{r7}
 8921 0002 83B0     		sub	sp, sp, #12
 8922 0004 00AF     		add	r7, sp, #0
 8923 0006 7860     		str	r0, [r7, #4]
 8924 0008 7B68     		ldr	r3, [r7, #4]
 8925 000a 1B78     		ldrb	r3, [r3]	@ zero_extendqisi2
 8926 000c 0E2B     		cmp	r3, #14
 8927 000e 03D0     		beq	.L746
 8928 0010 0F2B     		cmp	r3, #15
 8929 0012 03D0     		beq	.L747
 8930 0014 002B     		cmp	r3, #0
 8931 0016 03D1     		bne	.L749
 8932              	.L746:
 8933 0018 0123     		movs	r3, #1
 8934 001a 02E0     		b	.L748
 8935              	.L747:
 8936 001c 0123     		movs	r3, #1
 8937 001e 00E0     		b	.L748
 8938              	.L749:
 8939 0020 0023     		movs	r3, #0
 8940              	.L748:
 8941 0022 1846     		mov	r0, r3
ARM GAS  /var/folders/d2/nstgp4h54kz7g1l847x_b8wc0000gn/T//ccFI0sM2.s 			page 159


 8942 0024 0C37     		adds	r7, r7, #12
 8943 0026 BD46     		mov	sp, r7
 8944              		@ sp needed
 8945 0028 5DF8047B 		ldr	r7, [sp], #4
 8946 002c 7047     		bx	lr
 8947              		.size	cmp_object_is_ushort, .-cmp_object_is_ushort
 8948              		.section	.text.cmp_object_is_uint,"ax",%progbits
 8949              		.align	1
 8950              		.global	cmp_object_is_uint
 8951              		.syntax unified
 8952              		.thumb
 8953              		.thumb_func
 8954              		.fpu fpv4-sp-d16
 8955              		.type	cmp_object_is_uint, %function
 8956              	cmp_object_is_uint:
 8957              		@ args = 0, pretend = 0, frame = 8
 8958              		@ frame_needed = 1, uses_anonymous_args = 0
 8959              		@ link register save eliminated.
 8960 0000 80B4     		push	{r7}
 8961 0002 83B0     		sub	sp, sp, #12
 8962 0004 00AF     		add	r7, sp, #0
 8963 0006 7860     		str	r0, [r7, #4]
 8964 0008 7B68     		ldr	r3, [r7, #4]
 8965 000a 1B78     		ldrb	r3, [r3]	@ zero_extendqisi2
 8966 000c 002B     		cmp	r3, #0
 8967 000e 04D0     		beq	.L752
 8968 0010 002B     		cmp	r3, #0
 8969 0012 04DB     		blt	.L751
 8970 0014 0E3B     		subs	r3, r3, #14
 8971 0016 022B     		cmp	r3, #2
 8972 0018 01D8     		bhi	.L751
 8973              	.L752:
 8974 001a 0123     		movs	r3, #1
 8975 001c 00E0     		b	.L753
 8976              	.L751:
 8977 001e 0023     		movs	r3, #0
 8978              	.L753:
 8979 0020 1846     		mov	r0, r3
 8980 0022 0C37     		adds	r7, r7, #12
 8981 0024 BD46     		mov	sp, r7
 8982              		@ sp needed
 8983 0026 5DF8047B 		ldr	r7, [sp], #4
 8984 002a 7047     		bx	lr
 8985              		.size	cmp_object_is_uint, .-cmp_object_is_uint
 8986              		.section	.text.cmp_object_is_ulong,"ax",%progbits
 8987              		.align	1
 8988              		.global	cmp_object_is_ulong
 8989              		.syntax unified
 8990              		.thumb
 8991              		.thumb_func
 8992              		.fpu fpv4-sp-d16
 8993              		.type	cmp_object_is_ulong, %function
 8994              	cmp_object_is_ulong:
 8995              		@ args = 0, pretend = 0, frame = 8
 8996              		@ frame_needed = 1, uses_anonymous_args = 0
 8997              		@ link register save eliminated.
 8998 0000 80B4     		push	{r7}
ARM GAS  /var/folders/d2/nstgp4h54kz7g1l847x_b8wc0000gn/T//ccFI0sM2.s 			page 160


 8999 0002 83B0     		sub	sp, sp, #12
 9000 0004 00AF     		add	r7, sp, #0
 9001 0006 7860     		str	r0, [r7, #4]
 9002 0008 7B68     		ldr	r3, [r7, #4]
 9003 000a 1B78     		ldrb	r3, [r3]	@ zero_extendqisi2
 9004 000c 002B     		cmp	r3, #0
 9005 000e 04D0     		beq	.L756
 9006 0010 002B     		cmp	r3, #0
 9007 0012 04DB     		blt	.L755
 9008 0014 0E3B     		subs	r3, r3, #14
 9009 0016 032B     		cmp	r3, #3
 9010 0018 01D8     		bhi	.L755
 9011              	.L756:
 9012 001a 0123     		movs	r3, #1
 9013 001c 00E0     		b	.L757
 9014              	.L755:
 9015 001e 0023     		movs	r3, #0
 9016              	.L757:
 9017 0020 1846     		mov	r0, r3
 9018 0022 0C37     		adds	r7, r7, #12
 9019 0024 BD46     		mov	sp, r7
 9020              		@ sp needed
 9021 0026 5DF8047B 		ldr	r7, [sp], #4
 9022 002a 7047     		bx	lr
 9023              		.size	cmp_object_is_ulong, .-cmp_object_is_ulong
 9024              		.section	.text.cmp_object_is_uinteger,"ax",%progbits
 9025              		.align	1
 9026              		.global	cmp_object_is_uinteger
 9027              		.syntax unified
 9028              		.thumb
 9029              		.thumb_func
 9030              		.fpu fpv4-sp-d16
 9031              		.type	cmp_object_is_uinteger, %function
 9032              	cmp_object_is_uinteger:
 9033              		@ args = 0, pretend = 0, frame = 8
 9034              		@ frame_needed = 1, uses_anonymous_args = 0
 9035 0000 80B5     		push	{r7, lr}
 9036 0002 82B0     		sub	sp, sp, #8
 9037 0004 00AF     		add	r7, sp, #0
 9038 0006 7860     		str	r0, [r7, #4]
 9039 0008 7868     		ldr	r0, [r7, #4]
 9040 000a FFF7FEFF 		bl	cmp_object_is_ulong
 9041 000e 0346     		mov	r3, r0
 9042 0010 1846     		mov	r0, r3
 9043 0012 0837     		adds	r7, r7, #8
 9044 0014 BD46     		mov	sp, r7
 9045              		@ sp needed
 9046 0016 80BD     		pop	{r7, pc}
 9047              		.size	cmp_object_is_uinteger, .-cmp_object_is_uinteger
 9048              		.section	.text.cmp_object_is_float,"ax",%progbits
 9049              		.align	1
 9050              		.global	cmp_object_is_float
 9051              		.syntax unified
 9052              		.thumb
 9053              		.thumb_func
 9054              		.fpu fpv4-sp-d16
 9055              		.type	cmp_object_is_float, %function
ARM GAS  /var/folders/d2/nstgp4h54kz7g1l847x_b8wc0000gn/T//ccFI0sM2.s 			page 161


 9056              	cmp_object_is_float:
 9057              		@ args = 0, pretend = 0, frame = 8
 9058              		@ frame_needed = 1, uses_anonymous_args = 0
 9059              		@ link register save eliminated.
 9060 0000 80B4     		push	{r7}
 9061 0002 83B0     		sub	sp, sp, #12
 9062 0004 00AF     		add	r7, sp, #0
 9063 0006 7860     		str	r0, [r7, #4]
 9064 0008 7B68     		ldr	r3, [r7, #4]
 9065 000a 1B78     		ldrb	r3, [r3]	@ zero_extendqisi2
 9066 000c 0C2B     		cmp	r3, #12
 9067 000e 01D1     		bne	.L761
 9068 0010 0123     		movs	r3, #1
 9069 0012 00E0     		b	.L762
 9070              	.L761:
 9071 0014 0023     		movs	r3, #0
 9072              	.L762:
 9073 0016 1846     		mov	r0, r3
 9074 0018 0C37     		adds	r7, r7, #12
 9075 001a BD46     		mov	sp, r7
 9076              		@ sp needed
 9077 001c 5DF8047B 		ldr	r7, [sp], #4
 9078 0020 7047     		bx	lr
 9079              		.size	cmp_object_is_float, .-cmp_object_is_float
 9080              		.section	.text.cmp_object_is_double,"ax",%progbits
 9081              		.align	1
 9082              		.global	cmp_object_is_double
 9083              		.syntax unified
 9084              		.thumb
 9085              		.thumb_func
 9086              		.fpu fpv4-sp-d16
 9087              		.type	cmp_object_is_double, %function
 9088              	cmp_object_is_double:
 9089              		@ args = 0, pretend = 0, frame = 8
 9090              		@ frame_needed = 1, uses_anonymous_args = 0
 9091              		@ link register save eliminated.
 9092 0000 80B4     		push	{r7}
 9093 0002 83B0     		sub	sp, sp, #12
 9094 0004 00AF     		add	r7, sp, #0
 9095 0006 7860     		str	r0, [r7, #4]
 9096 0008 7B68     		ldr	r3, [r7, #4]
 9097 000a 1B78     		ldrb	r3, [r3]	@ zero_extendqisi2
 9098 000c 0D2B     		cmp	r3, #13
 9099 000e 01D1     		bne	.L764
 9100 0010 0123     		movs	r3, #1
 9101 0012 00E0     		b	.L765
 9102              	.L764:
 9103 0014 0023     		movs	r3, #0
 9104              	.L765:
 9105 0016 1846     		mov	r0, r3
 9106 0018 0C37     		adds	r7, r7, #12
 9107 001a BD46     		mov	sp, r7
 9108              		@ sp needed
 9109 001c 5DF8047B 		ldr	r7, [sp], #4
 9110 0020 7047     		bx	lr
 9111              		.size	cmp_object_is_double, .-cmp_object_is_double
 9112              		.section	.text.cmp_object_is_nil,"ax",%progbits
ARM GAS  /var/folders/d2/nstgp4h54kz7g1l847x_b8wc0000gn/T//ccFI0sM2.s 			page 162


 9113              		.align	1
 9114              		.global	cmp_object_is_nil
 9115              		.syntax unified
 9116              		.thumb
 9117              		.thumb_func
 9118              		.fpu fpv4-sp-d16
 9119              		.type	cmp_object_is_nil, %function
 9120              	cmp_object_is_nil:
 9121              		@ args = 0, pretend = 0, frame = 8
 9122              		@ frame_needed = 1, uses_anonymous_args = 0
 9123              		@ link register save eliminated.
 9124 0000 80B4     		push	{r7}
 9125 0002 83B0     		sub	sp, sp, #12
 9126 0004 00AF     		add	r7, sp, #0
 9127 0006 7860     		str	r0, [r7, #4]
 9128 0008 7B68     		ldr	r3, [r7, #4]
 9129 000a 1B78     		ldrb	r3, [r3]	@ zero_extendqisi2
 9130 000c 042B     		cmp	r3, #4
 9131 000e 01D1     		bne	.L767
 9132 0010 0123     		movs	r3, #1
 9133 0012 00E0     		b	.L768
 9134              	.L767:
 9135 0014 0023     		movs	r3, #0
 9136              	.L768:
 9137 0016 1846     		mov	r0, r3
 9138 0018 0C37     		adds	r7, r7, #12
 9139 001a BD46     		mov	sp, r7
 9140              		@ sp needed
 9141 001c 5DF8047B 		ldr	r7, [sp], #4
 9142 0020 7047     		bx	lr
 9143              		.size	cmp_object_is_nil, .-cmp_object_is_nil
 9144              		.section	.text.cmp_object_is_bool,"ax",%progbits
 9145              		.align	1
 9146              		.global	cmp_object_is_bool
 9147              		.syntax unified
 9148              		.thumb
 9149              		.thumb_func
 9150              		.fpu fpv4-sp-d16
 9151              		.type	cmp_object_is_bool, %function
 9152              	cmp_object_is_bool:
 9153              		@ args = 0, pretend = 0, frame = 8
 9154              		@ frame_needed = 1, uses_anonymous_args = 0
 9155              		@ link register save eliminated.
 9156 0000 80B4     		push	{r7}
 9157 0002 83B0     		sub	sp, sp, #12
 9158 0004 00AF     		add	r7, sp, #0
 9159 0006 7860     		str	r0, [r7, #4]
 9160 0008 7B68     		ldr	r3, [r7, #4]
 9161 000a 1B78     		ldrb	r3, [r3]	@ zero_extendqisi2
 9162 000c 052B     		cmp	r3, #5
 9163 000e 01D1     		bne	.L770
 9164 0010 0123     		movs	r3, #1
 9165 0012 00E0     		b	.L771
 9166              	.L770:
 9167 0014 0023     		movs	r3, #0
 9168              	.L771:
 9169 0016 1846     		mov	r0, r3
ARM GAS  /var/folders/d2/nstgp4h54kz7g1l847x_b8wc0000gn/T//ccFI0sM2.s 			page 163


 9170 0018 0C37     		adds	r7, r7, #12
 9171 001a BD46     		mov	sp, r7
 9172              		@ sp needed
 9173 001c 5DF8047B 		ldr	r7, [sp], #4
 9174 0020 7047     		bx	lr
 9175              		.size	cmp_object_is_bool, .-cmp_object_is_bool
 9176              		.section	.text.cmp_object_is_str,"ax",%progbits
 9177              		.align	1
 9178              		.global	cmp_object_is_str
 9179              		.syntax unified
 9180              		.thumb
 9181              		.thumb_func
 9182              		.fpu fpv4-sp-d16
 9183              		.type	cmp_object_is_str, %function
 9184              	cmp_object_is_str:
 9185              		@ args = 0, pretend = 0, frame = 8
 9186              		@ frame_needed = 1, uses_anonymous_args = 0
 9187              		@ link register save eliminated.
 9188 0000 80B4     		push	{r7}
 9189 0002 83B0     		sub	sp, sp, #12
 9190 0004 00AF     		add	r7, sp, #0
 9191 0006 7860     		str	r0, [r7, #4]
 9192 0008 7B68     		ldr	r3, [r7, #4]
 9193 000a 1B78     		ldrb	r3, [r3]	@ zero_extendqisi2
 9194 000c 032B     		cmp	r3, #3
 9195 000e 04D0     		beq	.L774
 9196 0010 032B     		cmp	r3, #3
 9197 0012 04DB     		blt	.L773
 9198 0014 1B3B     		subs	r3, r3, #27
 9199 0016 022B     		cmp	r3, #2
 9200 0018 01D8     		bhi	.L773
 9201              	.L774:
 9202 001a 0123     		movs	r3, #1
 9203 001c 00E0     		b	.L775
 9204              	.L773:
 9205 001e 0023     		movs	r3, #0
 9206              	.L775:
 9207 0020 1846     		mov	r0, r3
 9208 0022 0C37     		adds	r7, r7, #12
 9209 0024 BD46     		mov	sp, r7
 9210              		@ sp needed
 9211 0026 5DF8047B 		ldr	r7, [sp], #4
 9212 002a 7047     		bx	lr
 9213              		.size	cmp_object_is_str, .-cmp_object_is_str
 9214              		.section	.text.cmp_object_is_bin,"ax",%progbits
 9215              		.align	1
 9216              		.global	cmp_object_is_bin
 9217              		.syntax unified
 9218              		.thumb
 9219              		.thumb_func
 9220              		.fpu fpv4-sp-d16
 9221              		.type	cmp_object_is_bin, %function
 9222              	cmp_object_is_bin:
 9223              		@ args = 0, pretend = 0, frame = 8
 9224              		@ frame_needed = 1, uses_anonymous_args = 0
 9225              		@ link register save eliminated.
 9226 0000 80B4     		push	{r7}
ARM GAS  /var/folders/d2/nstgp4h54kz7g1l847x_b8wc0000gn/T//ccFI0sM2.s 			page 164


 9227 0002 83B0     		sub	sp, sp, #12
 9228 0004 00AF     		add	r7, sp, #0
 9229 0006 7860     		str	r0, [r7, #4]
 9230 0008 7B68     		ldr	r3, [r7, #4]
 9231 000a 1B78     		ldrb	r3, [r3]	@ zero_extendqisi2
 9232 000c 063B     		subs	r3, r3, #6
 9233 000e 022B     		cmp	r3, #2
 9234 0010 01D8     		bhi	.L777
 9235 0012 0123     		movs	r3, #1
 9236 0014 00E0     		b	.L779
 9237              	.L777:
 9238 0016 0023     		movs	r3, #0
 9239              	.L779:
 9240 0018 1846     		mov	r0, r3
 9241 001a 0C37     		adds	r7, r7, #12
 9242 001c BD46     		mov	sp, r7
 9243              		@ sp needed
 9244 001e 5DF8047B 		ldr	r7, [sp], #4
 9245 0022 7047     		bx	lr
 9246              		.size	cmp_object_is_bin, .-cmp_object_is_bin
 9247              		.section	.text.cmp_object_is_array,"ax",%progbits
 9248              		.align	1
 9249              		.global	cmp_object_is_array
 9250              		.syntax unified
 9251              		.thumb
 9252              		.thumb_func
 9253              		.fpu fpv4-sp-d16
 9254              		.type	cmp_object_is_array, %function
 9255              	cmp_object_is_array:
 9256              		@ args = 0, pretend = 0, frame = 8
 9257              		@ frame_needed = 1, uses_anonymous_args = 0
 9258              		@ link register save eliminated.
 9259 0000 80B4     		push	{r7}
 9260 0002 83B0     		sub	sp, sp, #12
 9261 0004 00AF     		add	r7, sp, #0
 9262 0006 7860     		str	r0, [r7, #4]
 9263 0008 7B68     		ldr	r3, [r7, #4]
 9264 000a 1B78     		ldrb	r3, [r3]	@ zero_extendqisi2
 9265 000c 022B     		cmp	r3, #2
 9266 000e 04D0     		beq	.L782
 9267 0010 022B     		cmp	r3, #2
 9268 0012 04DB     		blt	.L781
 9269 0014 1E3B     		subs	r3, r3, #30
 9270 0016 012B     		cmp	r3, #1
 9271 0018 01D8     		bhi	.L781
 9272              	.L782:
 9273 001a 0123     		movs	r3, #1
 9274 001c 00E0     		b	.L783
 9275              	.L781:
 9276 001e 0023     		movs	r3, #0
 9277              	.L783:
 9278 0020 1846     		mov	r0, r3
 9279 0022 0C37     		adds	r7, r7, #12
 9280 0024 BD46     		mov	sp, r7
 9281              		@ sp needed
 9282 0026 5DF8047B 		ldr	r7, [sp], #4
 9283 002a 7047     		bx	lr
ARM GAS  /var/folders/d2/nstgp4h54kz7g1l847x_b8wc0000gn/T//ccFI0sM2.s 			page 165


 9284              		.size	cmp_object_is_array, .-cmp_object_is_array
 9285              		.section	.text.cmp_object_is_map,"ax",%progbits
 9286              		.align	1
 9287              		.global	cmp_object_is_map
 9288              		.syntax unified
 9289              		.thumb
 9290              		.thumb_func
 9291              		.fpu fpv4-sp-d16
 9292              		.type	cmp_object_is_map, %function
 9293              	cmp_object_is_map:
 9294              		@ args = 0, pretend = 0, frame = 8
 9295              		@ frame_needed = 1, uses_anonymous_args = 0
 9296              		@ link register save eliminated.
 9297 0000 80B4     		push	{r7}
 9298 0002 83B0     		sub	sp, sp, #12
 9299 0004 00AF     		add	r7, sp, #0
 9300 0006 7860     		str	r0, [r7, #4]
 9301 0008 7B68     		ldr	r3, [r7, #4]
 9302 000a 1B78     		ldrb	r3, [r3]	@ zero_extendqisi2
 9303 000c 012B     		cmp	r3, #1
 9304 000e 04D0     		beq	.L786
 9305 0010 012B     		cmp	r3, #1
 9306 0012 04DB     		blt	.L785
 9307 0014 203B     		subs	r3, r3, #32
 9308 0016 012B     		cmp	r3, #1
 9309 0018 01D8     		bhi	.L785
 9310              	.L786:
 9311 001a 0123     		movs	r3, #1
 9312 001c 00E0     		b	.L787
 9313              	.L785:
 9314 001e 0023     		movs	r3, #0
 9315              	.L787:
 9316 0020 1846     		mov	r0, r3
 9317 0022 0C37     		adds	r7, r7, #12
 9318 0024 BD46     		mov	sp, r7
 9319              		@ sp needed
 9320 0026 5DF8047B 		ldr	r7, [sp], #4
 9321 002a 7047     		bx	lr
 9322              		.size	cmp_object_is_map, .-cmp_object_is_map
 9323              		.section	.text.cmp_object_is_ext,"ax",%progbits
 9324              		.align	1
 9325              		.global	cmp_object_is_ext
 9326              		.syntax unified
 9327              		.thumb
 9328              		.thumb_func
 9329              		.fpu fpv4-sp-d16
 9330              		.type	cmp_object_is_ext, %function
 9331              	cmp_object_is_ext:
 9332              		@ args = 0, pretend = 0, frame = 8
 9333              		@ frame_needed = 1, uses_anonymous_args = 0
 9334              		@ link register save eliminated.
 9335 0000 80B4     		push	{r7}
 9336 0002 83B0     		sub	sp, sp, #12
 9337 0004 00AF     		add	r7, sp, #0
 9338 0006 7860     		str	r0, [r7, #4]
 9339 0008 7B68     		ldr	r3, [r7, #4]
 9340 000a 1B78     		ldrb	r3, [r3]	@ zero_extendqisi2
ARM GAS  /var/folders/d2/nstgp4h54kz7g1l847x_b8wc0000gn/T//ccFI0sM2.s 			page 166


 9341 000c 093B     		subs	r3, r3, #9
 9342 000e 112B     		cmp	r3, #17
 9343 0010 28D8     		bhi	.L789
 9344 0012 01A2     		adr	r2, .L791
 9345 0014 52F823F0 		ldr	pc, [r2, r3, lsl #2]
 9346              		.p2align 2
 9347              	.L791:
 9348 0018 61000000 		.word	.L790+1
 9349 001c 61000000 		.word	.L790+1
 9350 0020 61000000 		.word	.L790+1
 9351 0024 65000000 		.word	.L789+1
 9352 0028 65000000 		.word	.L789+1
 9353 002c 65000000 		.word	.L789+1
 9354 0030 65000000 		.word	.L789+1
 9355 0034 65000000 		.word	.L789+1
 9356 0038 65000000 		.word	.L789+1
 9357 003c 65000000 		.word	.L789+1
 9358 0040 65000000 		.word	.L789+1
 9359 0044 65000000 		.word	.L789+1
 9360 0048 65000000 		.word	.L789+1
 9361 004c 61000000 		.word	.L790+1
 9362 0050 61000000 		.word	.L790+1
 9363 0054 61000000 		.word	.L790+1
 9364 0058 61000000 		.word	.L790+1
 9365 005c 61000000 		.word	.L790+1
 9366              		.p2align 1
 9367              	.L790:
 9368 0060 0123     		movs	r3, #1
 9369 0062 00E0     		b	.L792
 9370              	.L789:
 9371 0064 0023     		movs	r3, #0
 9372              	.L792:
 9373 0066 1846     		mov	r0, r3
 9374 0068 0C37     		adds	r7, r7, #12
 9375 006a BD46     		mov	sp, r7
 9376              		@ sp needed
 9377 006c 5DF8047B 		ldr	r7, [sp], #4
 9378 0070 7047     		bx	lr
 9379              		.size	cmp_object_is_ext, .-cmp_object_is_ext
 9380 0072 00BF     		.section	.text.cmp_object_as_char,"ax",%progbits
 9381              		.align	1
 9382              		.global	cmp_object_as_char
 9383              		.syntax unified
 9384              		.thumb
 9385              		.thumb_func
 9386              		.fpu fpv4-sp-d16
 9387              		.type	cmp_object_as_char, %function
 9388              	cmp_object_as_char:
 9389              		@ args = 0, pretend = 0, frame = 8
 9390              		@ frame_needed = 1, uses_anonymous_args = 0
 9391              		@ link register save eliminated.
 9392 0000 80B4     		push	{r7}
 9393 0002 83B0     		sub	sp, sp, #12
 9394 0004 00AF     		add	r7, sp, #0
 9395 0006 7860     		str	r0, [r7, #4]
 9396 0008 3960     		str	r1, [r7]
 9397 000a 7B68     		ldr	r3, [r7, #4]
ARM GAS  /var/folders/d2/nstgp4h54kz7g1l847x_b8wc0000gn/T//ccFI0sM2.s 			page 167


 9398 000c 1B78     		ldrb	r3, [r3]	@ zero_extendqisi2
 9399 000e 222B     		cmp	r3, #34
 9400 0010 5BD8     		bhi	.L794
 9401 0012 01A2     		adr	r2, .L796
 9402 0014 52F823F0 		ldr	pc, [r2, r3, lsl #2]
 9403              		.p2align 2
 9404              	.L796:
 9405 0018 A5000000 		.word	.L795+1
 9406 001c CB000000 		.word	.L794+1
 9407 0020 CB000000 		.word	.L794+1
 9408 0024 CB000000 		.word	.L794+1
 9409 0028 CB000000 		.word	.L794+1
 9410 002c CB000000 		.word	.L794+1
 9411 0030 CB000000 		.word	.L794+1
 9412 0034 CB000000 		.word	.L794+1
 9413 0038 CB000000 		.word	.L794+1
 9414 003c CB000000 		.word	.L794+1
 9415 0040 CB000000 		.word	.L794+1
 9416 0044 CB000000 		.word	.L794+1
 9417 0048 CB000000 		.word	.L794+1
 9418 004c CB000000 		.word	.L794+1
 9419 0050 B3000000 		.word	.L797+1
 9420 0054 CB000000 		.word	.L794+1
 9421 0058 CB000000 		.word	.L794+1
 9422 005c CB000000 		.word	.L794+1
 9423 0060 A5000000 		.word	.L795+1
 9424 0064 CB000000 		.word	.L794+1
 9425 0068 CB000000 		.word	.L794+1
 9426 006c CB000000 		.word	.L794+1
 9427 0070 CB000000 		.word	.L794+1
 9428 0074 CB000000 		.word	.L794+1
 9429 0078 CB000000 		.word	.L794+1
 9430 007c CB000000 		.word	.L794+1
 9431 0080 CB000000 		.word	.L794+1
 9432 0084 CB000000 		.word	.L794+1
 9433 0088 CB000000 		.word	.L794+1
 9434 008c CB000000 		.word	.L794+1
 9435 0090 CB000000 		.word	.L794+1
 9436 0094 CB000000 		.word	.L794+1
 9437 0098 CB000000 		.word	.L794+1
 9438 009c CB000000 		.word	.L794+1
 9439 00a0 A5000000 		.word	.L795+1
 9440              		.p2align 1
 9441              	.L795:
 9442 00a4 7B68     		ldr	r3, [r7, #4]
 9443 00a6 93F90820 		ldrsb	r2, [r3, #8]
 9444 00aa 3B68     		ldr	r3, [r7]
 9445 00ac 1A70     		strb	r2, [r3]
 9446 00ae 0123     		movs	r3, #1
 9447 00b0 0CE0     		b	.L798
 9448              	.L797:
 9449 00b2 7B68     		ldr	r3, [r7, #4]
 9450 00b4 1B7A     		ldrb	r3, [r3, #8]	@ zero_extendqisi2
 9451 00b6 5BB2     		sxtb	r3, r3
 9452 00b8 002B     		cmp	r3, #0
 9453 00ba 06DB     		blt	.L794
 9454 00bc 7B68     		ldr	r3, [r7, #4]
ARM GAS  /var/folders/d2/nstgp4h54kz7g1l847x_b8wc0000gn/T//ccFI0sM2.s 			page 168


 9455 00be 93F90820 		ldrsb	r2, [r3, #8]
 9456 00c2 3B68     		ldr	r3, [r7]
 9457 00c4 1A70     		strb	r2, [r3]
 9458 00c6 0123     		movs	r3, #1
 9459 00c8 00E0     		b	.L798
 9460              	.L794:
 9461 00ca 0023     		movs	r3, #0
 9462              	.L798:
 9463 00cc 1846     		mov	r0, r3
 9464 00ce 0C37     		adds	r7, r7, #12
 9465 00d0 BD46     		mov	sp, r7
 9466              		@ sp needed
 9467 00d2 5DF8047B 		ldr	r7, [sp], #4
 9468 00d6 7047     		bx	lr
 9469              		.size	cmp_object_as_char, .-cmp_object_as_char
 9470              		.section	.text.cmp_object_as_short,"ax",%progbits
 9471              		.align	1
 9472              		.global	cmp_object_as_short
 9473              		.syntax unified
 9474              		.thumb
 9475              		.thumb_func
 9476              		.fpu fpv4-sp-d16
 9477              		.type	cmp_object_as_short, %function
 9478              	cmp_object_as_short:
 9479              		@ args = 0, pretend = 0, frame = 8
 9480              		@ frame_needed = 1, uses_anonymous_args = 0
 9481              		@ link register save eliminated.
 9482 0000 80B4     		push	{r7}
 9483 0002 83B0     		sub	sp, sp, #12
 9484 0004 00AF     		add	r7, sp, #0
 9485 0006 7860     		str	r0, [r7, #4]
 9486 0008 3960     		str	r1, [r7]
 9487 000a 7B68     		ldr	r3, [r7, #4]
 9488 000c 1B78     		ldrb	r3, [r3]	@ zero_extendqisi2
 9489 000e 222B     		cmp	r3, #34
 9490 0010 6AD8     		bhi	.L800
 9491 0012 01A2     		adr	r2, .L802
 9492 0014 52F823F0 		ldr	pc, [r2, r3, lsl #2]
 9493              		.p2align 2
 9494              	.L802:
 9495 0018 A5000000 		.word	.L801+1
 9496 001c E9000000 		.word	.L800+1
 9497 0020 E9000000 		.word	.L800+1
 9498 0024 E9000000 		.word	.L800+1
 9499 0028 E9000000 		.word	.L800+1
 9500 002c E9000000 		.word	.L800+1
 9501 0030 E9000000 		.word	.L800+1
 9502 0034 E9000000 		.word	.L800+1
 9503 0038 E9000000 		.word	.L800+1
 9504 003c E9000000 		.word	.L800+1
 9505 0040 E9000000 		.word	.L800+1
 9506 0044 E9000000 		.word	.L800+1
 9507 0048 E9000000 		.word	.L800+1
 9508 004c E9000000 		.word	.L800+1
 9509 0050 B5000000 		.word	.L803+1
 9510 0054 D1000000 		.word	.L804+1
 9511 0058 E9000000 		.word	.L800+1
ARM GAS  /var/folders/d2/nstgp4h54kz7g1l847x_b8wc0000gn/T//ccFI0sM2.s 			page 169


 9512 005c E9000000 		.word	.L800+1
 9513 0060 A5000000 		.word	.L801+1
 9514 0064 C3000000 		.word	.L805+1
 9515 0068 E9000000 		.word	.L800+1
 9516 006c E9000000 		.word	.L800+1
 9517 0070 E9000000 		.word	.L800+1
 9518 0074 E9000000 		.word	.L800+1
 9519 0078 E9000000 		.word	.L800+1
 9520 007c E9000000 		.word	.L800+1
 9521 0080 E9000000 		.word	.L800+1
 9522 0084 E9000000 		.word	.L800+1
 9523 0088 E9000000 		.word	.L800+1
 9524 008c E9000000 		.word	.L800+1
 9525 0090 E9000000 		.word	.L800+1
 9526 0094 E9000000 		.word	.L800+1
 9527 0098 E9000000 		.word	.L800+1
 9528 009c E9000000 		.word	.L800+1
 9529 00a0 A5000000 		.word	.L801+1
 9530              		.p2align 1
 9531              	.L801:
 9532 00a4 7B68     		ldr	r3, [r7, #4]
 9533 00a6 93F90830 		ldrsb	r3, [r3, #8]
 9534 00aa 1AB2     		sxth	r2, r3
 9535 00ac 3B68     		ldr	r3, [r7]
 9536 00ae 1A80     		strh	r2, [r3]	@ movhi
 9537 00b0 0123     		movs	r3, #1
 9538 00b2 1AE0     		b	.L806
 9539              	.L803:
 9540 00b4 7B68     		ldr	r3, [r7, #4]
 9541 00b6 1B7A     		ldrb	r3, [r3, #8]	@ zero_extendqisi2
 9542 00b8 1AB2     		sxth	r2, r3
 9543 00ba 3B68     		ldr	r3, [r7]
 9544 00bc 1A80     		strh	r2, [r3]	@ movhi
 9545 00be 0123     		movs	r3, #1
 9546 00c0 13E0     		b	.L806
 9547              	.L805:
 9548 00c2 7B68     		ldr	r3, [r7, #4]
 9549 00c4 B3F90820 		ldrsh	r2, [r3, #8]
 9550 00c8 3B68     		ldr	r3, [r7]
 9551 00ca 1A80     		strh	r2, [r3]	@ movhi
 9552 00cc 0123     		movs	r3, #1
 9553 00ce 0CE0     		b	.L806
 9554              	.L804:
 9555 00d0 7B68     		ldr	r3, [r7, #4]
 9556 00d2 1B89     		ldrh	r3, [r3, #8]
 9557 00d4 1BB2     		sxth	r3, r3
 9558 00d6 002B     		cmp	r3, #0
 9559 00d8 06DB     		blt	.L800
 9560 00da 7B68     		ldr	r3, [r7, #4]
 9561 00dc 1B89     		ldrh	r3, [r3, #8]
 9562 00de 1AB2     		sxth	r2, r3
 9563 00e0 3B68     		ldr	r3, [r7]
 9564 00e2 1A80     		strh	r2, [r3]	@ movhi
 9565 00e4 0123     		movs	r3, #1
 9566 00e6 00E0     		b	.L806
 9567              	.L800:
 9568 00e8 0023     		movs	r3, #0
ARM GAS  /var/folders/d2/nstgp4h54kz7g1l847x_b8wc0000gn/T//ccFI0sM2.s 			page 170


 9569              	.L806:
 9570 00ea 1846     		mov	r0, r3
 9571 00ec 0C37     		adds	r7, r7, #12
 9572 00ee BD46     		mov	sp, r7
 9573              		@ sp needed
 9574 00f0 5DF8047B 		ldr	r7, [sp], #4
 9575 00f4 7047     		bx	lr
 9576              		.size	cmp_object_as_short, .-cmp_object_as_short
 9577 00f6 00BF     		.section	.text.cmp_object_as_int,"ax",%progbits
 9578              		.align	1
 9579              		.global	cmp_object_as_int
 9580              		.syntax unified
 9581              		.thumb
 9582              		.thumb_func
 9583              		.fpu fpv4-sp-d16
 9584              		.type	cmp_object_as_int, %function
 9585              	cmp_object_as_int:
 9586              		@ args = 0, pretend = 0, frame = 8
 9587              		@ frame_needed = 1, uses_anonymous_args = 0
 9588              		@ link register save eliminated.
 9589 0000 80B4     		push	{r7}
 9590 0002 83B0     		sub	sp, sp, #12
 9591 0004 00AF     		add	r7, sp, #0
 9592 0006 7860     		str	r0, [r7, #4]
 9593 0008 3960     		str	r1, [r7]
 9594 000a 7B68     		ldr	r3, [r7, #4]
 9595 000c 1B78     		ldrb	r3, [r3]	@ zero_extendqisi2
 9596 000e 222B     		cmp	r3, #34
 9597 0010 77D8     		bhi	.L808
 9598 0012 01A2     		adr	r2, .L810
 9599 0014 52F823F0 		ldr	pc, [r2, r3, lsl #2]
 9600              		.p2align 2
 9601              	.L810:
 9602 0018 A5000000 		.word	.L809+1
 9603 001c 03010000 		.word	.L808+1
 9604 0020 03010000 		.word	.L808+1
 9605 0024 03010000 		.word	.L808+1
 9606 0028 03010000 		.word	.L808+1
 9607 002c 03010000 		.word	.L808+1
 9608 0030 03010000 		.word	.L808+1
 9609 0034 03010000 		.word	.L808+1
 9610 0038 03010000 		.word	.L808+1
 9611 003c 03010000 		.word	.L808+1
 9612 0040 03010000 		.word	.L808+1
 9613 0044 03010000 		.word	.L808+1
 9614 0048 03010000 		.word	.L808+1
 9615 004c 03010000 		.word	.L808+1
 9616 0050 B5000000 		.word	.L811+1
 9617 0054 D3000000 		.word	.L812+1
 9618 0058 ED000000 		.word	.L813+1
 9619 005c 03010000 		.word	.L808+1
 9620 0060 A5000000 		.word	.L809+1
 9621 0064 C3000000 		.word	.L814+1
 9622 0068 E1000000 		.word	.L815+1
 9623 006c 03010000 		.word	.L808+1
 9624 0070 03010000 		.word	.L808+1
 9625 0074 03010000 		.word	.L808+1
ARM GAS  /var/folders/d2/nstgp4h54kz7g1l847x_b8wc0000gn/T//ccFI0sM2.s 			page 171


 9626 0078 03010000 		.word	.L808+1
 9627 007c 03010000 		.word	.L808+1
 9628 0080 03010000 		.word	.L808+1
 9629 0084 03010000 		.word	.L808+1
 9630 0088 03010000 		.word	.L808+1
 9631 008c 03010000 		.word	.L808+1
 9632 0090 03010000 		.word	.L808+1
 9633 0094 03010000 		.word	.L808+1
 9634 0098 03010000 		.word	.L808+1
 9635 009c 03010000 		.word	.L808+1
 9636 00a0 A5000000 		.word	.L809+1
 9637              		.p2align 1
 9638              	.L809:
 9639 00a4 7B68     		ldr	r3, [r7, #4]
 9640 00a6 93F90830 		ldrsb	r3, [r3, #8]
 9641 00aa 1A46     		mov	r2, r3
 9642 00ac 3B68     		ldr	r3, [r7]
 9643 00ae 1A60     		str	r2, [r3]
 9644 00b0 0123     		movs	r3, #1
 9645 00b2 27E0     		b	.L816
 9646              	.L811:
 9647 00b4 7B68     		ldr	r3, [r7, #4]
 9648 00b6 1B7A     		ldrb	r3, [r3, #8]	@ zero_extendqisi2
 9649 00b8 1A46     		mov	r2, r3
 9650 00ba 3B68     		ldr	r3, [r7]
 9651 00bc 1A60     		str	r2, [r3]
 9652 00be 0123     		movs	r3, #1
 9653 00c0 20E0     		b	.L816
 9654              	.L814:
 9655 00c2 7B68     		ldr	r3, [r7, #4]
 9656 00c4 B3F90830 		ldrsh	r3, [r3, #8]
 9657 00c8 1A46     		mov	r2, r3
 9658 00ca 3B68     		ldr	r3, [r7]
 9659 00cc 1A60     		str	r2, [r3]
 9660 00ce 0123     		movs	r3, #1
 9661 00d0 18E0     		b	.L816
 9662              	.L812:
 9663 00d2 7B68     		ldr	r3, [r7, #4]
 9664 00d4 1B89     		ldrh	r3, [r3, #8]
 9665 00d6 1A46     		mov	r2, r3
 9666 00d8 3B68     		ldr	r3, [r7]
 9667 00da 1A60     		str	r2, [r3]
 9668 00dc 0123     		movs	r3, #1
 9669 00de 11E0     		b	.L816
 9670              	.L815:
 9671 00e0 7B68     		ldr	r3, [r7, #4]
 9672 00e2 9A68     		ldr	r2, [r3, #8]
 9673 00e4 3B68     		ldr	r3, [r7]
 9674 00e6 1A60     		str	r2, [r3]
 9675 00e8 0123     		movs	r3, #1
 9676 00ea 0BE0     		b	.L816
 9677              	.L813:
 9678 00ec 7B68     		ldr	r3, [r7, #4]
 9679 00ee 9B68     		ldr	r3, [r3, #8]
 9680 00f0 002B     		cmp	r3, #0
 9681 00f2 06DB     		blt	.L808
 9682 00f4 7B68     		ldr	r3, [r7, #4]
ARM GAS  /var/folders/d2/nstgp4h54kz7g1l847x_b8wc0000gn/T//ccFI0sM2.s 			page 172


 9683 00f6 9B68     		ldr	r3, [r3, #8]
 9684 00f8 1A46     		mov	r2, r3
 9685 00fa 3B68     		ldr	r3, [r7]
 9686 00fc 1A60     		str	r2, [r3]
 9687 00fe 0123     		movs	r3, #1
 9688 0100 00E0     		b	.L816
 9689              	.L808:
 9690 0102 0023     		movs	r3, #0
 9691              	.L816:
 9692 0104 1846     		mov	r0, r3
 9693 0106 0C37     		adds	r7, r7, #12
 9694 0108 BD46     		mov	sp, r7
 9695              		@ sp needed
 9696 010a 5DF8047B 		ldr	r7, [sp], #4
 9697 010e 7047     		bx	lr
 9698              		.size	cmp_object_as_int, .-cmp_object_as_int
 9699              		.section	.text.cmp_object_as_long,"ax",%progbits
 9700              		.align	1
 9701              		.global	cmp_object_as_long
 9702              		.syntax unified
 9703              		.thumb
 9704              		.thumb_func
 9705              		.fpu fpv4-sp-d16
 9706              		.type	cmp_object_as_long, %function
 9707              	cmp_object_as_long:
 9708              		@ args = 0, pretend = 0, frame = 8
 9709              		@ frame_needed = 1, uses_anonymous_args = 0
 9710              		@ link register save eliminated.
 9711 0000 90B4     		push	{r4, r7}
 9712 0002 82B0     		sub	sp, sp, #8
 9713 0004 00AF     		add	r7, sp, #0
 9714 0006 7860     		str	r0, [r7, #4]
 9715 0008 3960     		str	r1, [r7]
 9716 000a 7B68     		ldr	r3, [r7, #4]
 9717 000c 1B78     		ldrb	r3, [r3]	@ zero_extendqisi2
 9718 000e 222B     		cmp	r3, #34
 9719 0010 00F29D80 		bhi	.L818
 9720 0014 01A2     		adr	r2, .L820
 9721 0016 52F823F0 		ldr	pc, [r2, r3, lsl #2]
 9722 001a 00BF     		.p2align 2
 9723              	.L820:
 9724 001c A9000000 		.word	.L819+1
 9725 0020 4F010000 		.word	.L818+1
 9726 0024 4F010000 		.word	.L818+1
 9727 0028 4F010000 		.word	.L818+1
 9728 002c 4F010000 		.word	.L818+1
 9729 0030 4F010000 		.word	.L818+1
 9730 0034 4F010000 		.word	.L818+1
 9731 0038 4F010000 		.word	.L818+1
 9732 003c 4F010000 		.word	.L818+1
 9733 0040 4F010000 		.word	.L818+1
 9734 0044 4F010000 		.word	.L818+1
 9735 0048 4F010000 		.word	.L818+1
 9736 004c 4F010000 		.word	.L818+1
 9737 0050 4F010000 		.word	.L818+1
 9738 0054 BF000000 		.word	.L821+1
 9739 0058 E9000000 		.word	.L822+1
ARM GAS  /var/folders/d2/nstgp4h54kz7g1l847x_b8wc0000gn/T//ccFI0sM2.s 			page 173


 9740 005c 0F010000 		.word	.L823+1
 9741 0060 31010000 		.word	.L824+1
 9742 0064 A9000000 		.word	.L819+1
 9743 0068 D3000000 		.word	.L825+1
 9744 006c FD000000 		.word	.L826+1
 9745 0070 21010000 		.word	.L827+1
 9746 0074 4F010000 		.word	.L818+1
 9747 0078 4F010000 		.word	.L818+1
 9748 007c 4F010000 		.word	.L818+1
 9749 0080 4F010000 		.word	.L818+1
 9750 0084 4F010000 		.word	.L818+1
 9751 0088 4F010000 		.word	.L818+1
 9752 008c 4F010000 		.word	.L818+1
 9753 0090 4F010000 		.word	.L818+1
 9754 0094 4F010000 		.word	.L818+1
 9755 0098 4F010000 		.word	.L818+1
 9756 009c 4F010000 		.word	.L818+1
 9757 00a0 4F010000 		.word	.L818+1
 9758 00a4 A9000000 		.word	.L819+1
 9759              		.p2align 1
 9760              	.L819:
 9761 00a8 7B68     		ldr	r3, [r7, #4]
 9762 00aa 93F90830 		ldrsb	r3, [r3, #8]
 9763 00ae 5BB2     		sxtb	r3, r3
 9764 00b0 4FEAE374 		asr	r4, r3, #31
 9765 00b4 3A68     		ldr	r2, [r7]
 9766 00b6 C2E90034 		strd	r3, [r2]
 9767 00ba 0123     		movs	r3, #1
 9768 00bc 48E0     		b	.L828
 9769              	.L821:
 9770 00be 7B68     		ldr	r3, [r7, #4]
 9771 00c0 1B7A     		ldrb	r3, [r3, #8]	@ zero_extendqisi2
 9772 00c2 DBB2     		uxtb	r3, r3
 9773 00c4 4FF00004 		mov	r4, #0
 9774 00c8 3A68     		ldr	r2, [r7]
 9775 00ca C2E90034 		strd	r3, [r2]
 9776 00ce 0123     		movs	r3, #1
 9777 00d0 3EE0     		b	.L828
 9778              	.L825:
 9779 00d2 7B68     		ldr	r3, [r7, #4]
 9780 00d4 B3F90830 		ldrsh	r3, [r3, #8]
 9781 00d8 1BB2     		sxth	r3, r3
 9782 00da 4FEAE374 		asr	r4, r3, #31
 9783 00de 3A68     		ldr	r2, [r7]
 9784 00e0 C2E90034 		strd	r3, [r2]
 9785 00e4 0123     		movs	r3, #1
 9786 00e6 33E0     		b	.L828
 9787              	.L822:
 9788 00e8 7B68     		ldr	r3, [r7, #4]
 9789 00ea 1B89     		ldrh	r3, [r3, #8]
 9790 00ec 9BB2     		uxth	r3, r3
 9791 00ee 4FF00004 		mov	r4, #0
 9792 00f2 3A68     		ldr	r2, [r7]
 9793 00f4 C2E90034 		strd	r3, [r2]
 9794 00f8 0123     		movs	r3, #1
 9795 00fa 29E0     		b	.L828
 9796              	.L826:
ARM GAS  /var/folders/d2/nstgp4h54kz7g1l847x_b8wc0000gn/T//ccFI0sM2.s 			page 174


 9797 00fc 7B68     		ldr	r3, [r7, #4]
 9798 00fe 9B68     		ldr	r3, [r3, #8]
 9799 0100 4FEAE374 		asr	r4, r3, #31
 9800 0104 3A68     		ldr	r2, [r7]
 9801 0106 C2E90034 		strd	r3, [r2]
 9802 010a 0123     		movs	r3, #1
 9803 010c 20E0     		b	.L828
 9804              	.L823:
 9805 010e 7B68     		ldr	r3, [r7, #4]
 9806 0110 9B68     		ldr	r3, [r3, #8]
 9807 0112 4FF00004 		mov	r4, #0
 9808 0116 3A68     		ldr	r2, [r7]
 9809 0118 C2E90034 		strd	r3, [r2]
 9810 011c 0123     		movs	r3, #1
 9811 011e 17E0     		b	.L828
 9812              	.L827:
 9813 0120 7B68     		ldr	r3, [r7, #4]
 9814 0122 D3E90234 		ldrd	r3, [r3, #8]
 9815 0126 3A68     		ldr	r2, [r7]
 9816 0128 C2E90034 		strd	r3, [r2]
 9817 012c 0123     		movs	r3, #1
 9818 012e 0FE0     		b	.L828
 9819              	.L824:
 9820 0130 7B68     		ldr	r3, [r7, #4]
 9821 0132 D3E90234 		ldrd	r3, [r3, #8]
 9822 0136 002B     		cmp	r3, #0
 9823 0138 74F10003 		sbcs	r3, r4, #0
 9824 013c 07DB     		blt	.L818
 9825 013e 7B68     		ldr	r3, [r7, #4]
 9826 0140 D3E90234 		ldrd	r3, [r3, #8]
 9827 0144 3A68     		ldr	r2, [r7]
 9828 0146 C2E90034 		strd	r3, [r2]
 9829 014a 0123     		movs	r3, #1
 9830 014c 00E0     		b	.L828
 9831              	.L818:
 9832 014e 0023     		movs	r3, #0
 9833              	.L828:
 9834 0150 1846     		mov	r0, r3
 9835 0152 0837     		adds	r7, r7, #8
 9836 0154 BD46     		mov	sp, r7
 9837              		@ sp needed
 9838 0156 90BC     		pop	{r4, r7}
 9839 0158 7047     		bx	lr
 9840              		.size	cmp_object_as_long, .-cmp_object_as_long
 9841 015a 00BF     		.section	.text.cmp_object_as_sinteger,"ax",%progbits
 9842              		.align	1
 9843              		.global	cmp_object_as_sinteger
 9844              		.syntax unified
 9845              		.thumb
 9846              		.thumb_func
 9847              		.fpu fpv4-sp-d16
 9848              		.type	cmp_object_as_sinteger, %function
 9849              	cmp_object_as_sinteger:
 9850              		@ args = 0, pretend = 0, frame = 8
 9851              		@ frame_needed = 1, uses_anonymous_args = 0
 9852 0000 80B5     		push	{r7, lr}
 9853 0002 82B0     		sub	sp, sp, #8
ARM GAS  /var/folders/d2/nstgp4h54kz7g1l847x_b8wc0000gn/T//ccFI0sM2.s 			page 175


 9854 0004 00AF     		add	r7, sp, #0
 9855 0006 7860     		str	r0, [r7, #4]
 9856 0008 3960     		str	r1, [r7]
 9857 000a 3968     		ldr	r1, [r7]
 9858 000c 7868     		ldr	r0, [r7, #4]
 9859 000e FFF7FEFF 		bl	cmp_object_as_long
 9860 0012 0346     		mov	r3, r0
 9861 0014 1846     		mov	r0, r3
 9862 0016 0837     		adds	r7, r7, #8
 9863 0018 BD46     		mov	sp, r7
 9864              		@ sp needed
 9865 001a 80BD     		pop	{r7, pc}
 9866              		.size	cmp_object_as_sinteger, .-cmp_object_as_sinteger
 9867              		.section	.text.cmp_object_as_uchar,"ax",%progbits
 9868              		.align	1
 9869              		.global	cmp_object_as_uchar
 9870              		.syntax unified
 9871              		.thumb
 9872              		.thumb_func
 9873              		.fpu fpv4-sp-d16
 9874              		.type	cmp_object_as_uchar, %function
 9875              	cmp_object_as_uchar:
 9876              		@ args = 0, pretend = 0, frame = 8
 9877              		@ frame_needed = 1, uses_anonymous_args = 0
 9878              		@ link register save eliminated.
 9879 0000 80B4     		push	{r7}
 9880 0002 83B0     		sub	sp, sp, #12
 9881 0004 00AF     		add	r7, sp, #0
 9882 0006 7860     		str	r0, [r7, #4]
 9883 0008 3960     		str	r1, [r7]
 9884 000a 7B68     		ldr	r3, [r7, #4]
 9885 000c 1B78     		ldrb	r3, [r3]	@ zero_extendqisi2
 9886 000e 002B     		cmp	r3, #0
 9887 0010 01D0     		beq	.L833
 9888 0012 0E2B     		cmp	r3, #14
 9889 0014 05D1     		bne	.L835
 9890              	.L833:
 9891 0016 7B68     		ldr	r3, [r7, #4]
 9892 0018 1A7A     		ldrb	r2, [r3, #8]	@ zero_extendqisi2
 9893 001a 3B68     		ldr	r3, [r7]
 9894 001c 1A70     		strb	r2, [r3]
 9895 001e 0123     		movs	r3, #1
 9896 0020 00E0     		b	.L834
 9897              	.L835:
 9898 0022 0023     		movs	r3, #0
 9899              	.L834:
 9900 0024 1846     		mov	r0, r3
 9901 0026 0C37     		adds	r7, r7, #12
 9902 0028 BD46     		mov	sp, r7
 9903              		@ sp needed
 9904 002a 5DF8047B 		ldr	r7, [sp], #4
 9905 002e 7047     		bx	lr
 9906              		.size	cmp_object_as_uchar, .-cmp_object_as_uchar
 9907              		.section	.text.cmp_object_as_ushort,"ax",%progbits
 9908              		.align	1
 9909              		.global	cmp_object_as_ushort
 9910              		.syntax unified
ARM GAS  /var/folders/d2/nstgp4h54kz7g1l847x_b8wc0000gn/T//ccFI0sM2.s 			page 176


 9911              		.thumb
 9912              		.thumb_func
 9913              		.fpu fpv4-sp-d16
 9914              		.type	cmp_object_as_ushort, %function
 9915              	cmp_object_as_ushort:
 9916              		@ args = 0, pretend = 0, frame = 8
 9917              		@ frame_needed = 1, uses_anonymous_args = 0
 9918              		@ link register save eliminated.
 9919 0000 80B4     		push	{r7}
 9920 0002 83B0     		sub	sp, sp, #12
 9921 0004 00AF     		add	r7, sp, #0
 9922 0006 7860     		str	r0, [r7, #4]
 9923 0008 3960     		str	r1, [r7]
 9924 000a 7B68     		ldr	r3, [r7, #4]
 9925 000c 1B78     		ldrb	r3, [r3]	@ zero_extendqisi2
 9926 000e 0E2B     		cmp	r3, #14
 9927 0010 03D0     		beq	.L838
 9928 0012 0F2B     		cmp	r3, #15
 9929 0014 08D0     		beq	.L839
 9930 0016 002B     		cmp	r3, #0
 9931 0018 0CD1     		bne	.L841
 9932              	.L838:
 9933 001a 7B68     		ldr	r3, [r7, #4]
 9934 001c 1B7A     		ldrb	r3, [r3, #8]	@ zero_extendqisi2
 9935 001e 9AB2     		uxth	r2, r3
 9936 0020 3B68     		ldr	r3, [r7]
 9937 0022 1A80     		strh	r2, [r3]	@ movhi
 9938 0024 0123     		movs	r3, #1
 9939 0026 06E0     		b	.L840
 9940              	.L839:
 9941 0028 7B68     		ldr	r3, [r7, #4]
 9942 002a 1A89     		ldrh	r2, [r3, #8]
 9943 002c 3B68     		ldr	r3, [r7]
 9944 002e 1A80     		strh	r2, [r3]	@ movhi
 9945 0030 0123     		movs	r3, #1
 9946 0032 00E0     		b	.L840
 9947              	.L841:
 9948 0034 0023     		movs	r3, #0
 9949              	.L840:
 9950 0036 1846     		mov	r0, r3
 9951 0038 0C37     		adds	r7, r7, #12
 9952 003a BD46     		mov	sp, r7
 9953              		@ sp needed
 9954 003c 5DF8047B 		ldr	r7, [sp], #4
 9955 0040 7047     		bx	lr
 9956              		.size	cmp_object_as_ushort, .-cmp_object_as_ushort
 9957              		.section	.text.cmp_object_as_uint,"ax",%progbits
 9958              		.align	1
 9959              		.global	cmp_object_as_uint
 9960              		.syntax unified
 9961              		.thumb
 9962              		.thumb_func
 9963              		.fpu fpv4-sp-d16
 9964              		.type	cmp_object_as_uint, %function
 9965              	cmp_object_as_uint:
 9966              		@ args = 0, pretend = 0, frame = 8
 9967              		@ frame_needed = 1, uses_anonymous_args = 0
ARM GAS  /var/folders/d2/nstgp4h54kz7g1l847x_b8wc0000gn/T//ccFI0sM2.s 			page 177


 9968              		@ link register save eliminated.
 9969 0000 80B4     		push	{r7}
 9970 0002 83B0     		sub	sp, sp, #12
 9971 0004 00AF     		add	r7, sp, #0
 9972 0006 7860     		str	r0, [r7, #4]
 9973 0008 3960     		str	r1, [r7]
 9974 000a 7B68     		ldr	r3, [r7, #4]
 9975 000c 1B78     		ldrb	r3, [r3]	@ zero_extendqisi2
 9976 000e 102B     		cmp	r3, #16
 9977 0010 38D8     		bhi	.L843
 9978 0012 01A2     		adr	r2, .L845
 9979 0014 52F823F0 		ldr	pc, [r2, r3, lsl #2]
 9980              		.p2align 2
 9981              	.L845:
 9982 0018 5D000000 		.word	.L844+1
 9983 001c 85000000 		.word	.L843+1
 9984 0020 85000000 		.word	.L843+1
 9985 0024 85000000 		.word	.L843+1
 9986 0028 85000000 		.word	.L843+1
 9987 002c 85000000 		.word	.L843+1
 9988 0030 85000000 		.word	.L843+1
 9989 0034 85000000 		.word	.L843+1
 9990 0038 85000000 		.word	.L843+1
 9991 003c 85000000 		.word	.L843+1
 9992 0040 85000000 		.word	.L843+1
 9993 0044 85000000 		.word	.L843+1
 9994 0048 85000000 		.word	.L843+1
 9995 004c 85000000 		.word	.L843+1
 9996 0050 5D000000 		.word	.L844+1
 9997 0054 6B000000 		.word	.L846+1
 9998 0058 79000000 		.word	.L847+1
 9999              		.p2align 1
 10000              	.L844:
 10001 005c 7B68     		ldr	r3, [r7, #4]
 10002 005e 1B7A     		ldrb	r3, [r3, #8]	@ zero_extendqisi2
 10003 0060 1A46     		mov	r2, r3
 10004 0062 3B68     		ldr	r3, [r7]
 10005 0064 1A60     		str	r2, [r3]
 10006 0066 0123     		movs	r3, #1
 10007 0068 0DE0     		b	.L848
 10008              	.L846:
 10009 006a 7B68     		ldr	r3, [r7, #4]
 10010 006c 1B89     		ldrh	r3, [r3, #8]
 10011 006e 1A46     		mov	r2, r3
 10012 0070 3B68     		ldr	r3, [r7]
 10013 0072 1A60     		str	r2, [r3]
 10014 0074 0123     		movs	r3, #1
 10015 0076 06E0     		b	.L848
 10016              	.L847:
 10017 0078 7B68     		ldr	r3, [r7, #4]
 10018 007a 9A68     		ldr	r2, [r3, #8]
 10019 007c 3B68     		ldr	r3, [r7]
 10020 007e 1A60     		str	r2, [r3]
 10021 0080 0123     		movs	r3, #1
 10022 0082 00E0     		b	.L848
 10023              	.L843:
 10024 0084 0023     		movs	r3, #0
ARM GAS  /var/folders/d2/nstgp4h54kz7g1l847x_b8wc0000gn/T//ccFI0sM2.s 			page 178


 10025              	.L848:
 10026 0086 1846     		mov	r0, r3
 10027 0088 0C37     		adds	r7, r7, #12
 10028 008a BD46     		mov	sp, r7
 10029              		@ sp needed
 10030 008c 5DF8047B 		ldr	r7, [sp], #4
 10031 0090 7047     		bx	lr
 10032              		.size	cmp_object_as_uint, .-cmp_object_as_uint
 10033 0092 00BF     		.section	.text.cmp_object_as_ulong,"ax",%progbits
 10034              		.align	1
 10035              		.global	cmp_object_as_ulong
 10036              		.syntax unified
 10037              		.thumb
 10038              		.thumb_func
 10039              		.fpu fpv4-sp-d16
 10040              		.type	cmp_object_as_ulong, %function
 10041              	cmp_object_as_ulong:
 10042              		@ args = 0, pretend = 0, frame = 8
 10043              		@ frame_needed = 1, uses_anonymous_args = 0
 10044              		@ link register save eliminated.
 10045 0000 90B4     		push	{r4, r7}
 10046 0002 82B0     		sub	sp, sp, #8
 10047 0004 00AF     		add	r7, sp, #0
 10048 0006 7860     		str	r0, [r7, #4]
 10049 0008 3960     		str	r1, [r7]
 10050 000a 7B68     		ldr	r3, [r7, #4]
 10051 000c 1B78     		ldrb	r3, [r3]	@ zero_extendqisi2
 10052 000e 112B     		cmp	r3, #17
 10053 0010 4BD8     		bhi	.L850
 10054 0012 01A2     		adr	r2, .L852
 10055 0014 52F823F0 		ldr	pc, [r2, r3, lsl #2]
 10056              		.p2align 2
 10057              	.L852:
 10058 0018 61000000 		.word	.L851+1
 10059 001c AB000000 		.word	.L850+1
 10060 0020 AB000000 		.word	.L850+1
 10061 0024 AB000000 		.word	.L850+1
 10062 0028 AB000000 		.word	.L850+1
 10063 002c AB000000 		.word	.L850+1
 10064 0030 AB000000 		.word	.L850+1
 10065 0034 AB000000 		.word	.L850+1
 10066 0038 AB000000 		.word	.L850+1
 10067 003c AB000000 		.word	.L850+1
 10068 0040 AB000000 		.word	.L850+1
 10069 0044 AB000000 		.word	.L850+1
 10070 0048 AB000000 		.word	.L850+1
 10071 004c AB000000 		.word	.L850+1
 10072 0050 61000000 		.word	.L851+1
 10073 0054 75000000 		.word	.L853+1
 10074 0058 89000000 		.word	.L854+1
 10075 005c 9B000000 		.word	.L855+1
 10076              		.p2align 1
 10077              	.L851:
 10078 0060 7B68     		ldr	r3, [r7, #4]
 10079 0062 1B7A     		ldrb	r3, [r3, #8]	@ zero_extendqisi2
 10080 0064 DBB2     		uxtb	r3, r3
 10081 0066 4FF00004 		mov	r4, #0
ARM GAS  /var/folders/d2/nstgp4h54kz7g1l847x_b8wc0000gn/T//ccFI0sM2.s 			page 179


 10082 006a 3A68     		ldr	r2, [r7]
 10083 006c C2E90034 		strd	r3, [r2]
 10084 0070 0123     		movs	r3, #1
 10085 0072 1BE0     		b	.L856
 10086              	.L853:
 10087 0074 7B68     		ldr	r3, [r7, #4]
 10088 0076 1B89     		ldrh	r3, [r3, #8]
 10089 0078 9BB2     		uxth	r3, r3
 10090 007a 4FF00004 		mov	r4, #0
 10091 007e 3A68     		ldr	r2, [r7]
 10092 0080 C2E90034 		strd	r3, [r2]
 10093 0084 0123     		movs	r3, #1
 10094 0086 11E0     		b	.L856
 10095              	.L854:
 10096 0088 7B68     		ldr	r3, [r7, #4]
 10097 008a 9B68     		ldr	r3, [r3, #8]
 10098 008c 4FF00004 		mov	r4, #0
 10099 0090 3A68     		ldr	r2, [r7]
 10100 0092 C2E90034 		strd	r3, [r2]
 10101 0096 0123     		movs	r3, #1
 10102 0098 08E0     		b	.L856
 10103              	.L855:
 10104 009a 7B68     		ldr	r3, [r7, #4]
 10105 009c D3E90234 		ldrd	r3, [r3, #8]
 10106 00a0 3A68     		ldr	r2, [r7]
 10107 00a2 C2E90034 		strd	r3, [r2]
 10108 00a6 0123     		movs	r3, #1
 10109 00a8 00E0     		b	.L856
 10110              	.L850:
 10111 00aa 0023     		movs	r3, #0
 10112              	.L856:
 10113 00ac 1846     		mov	r0, r3
 10114 00ae 0837     		adds	r7, r7, #8
 10115 00b0 BD46     		mov	sp, r7
 10116              		@ sp needed
 10117 00b2 90BC     		pop	{r4, r7}
 10118 00b4 7047     		bx	lr
 10119              		.size	cmp_object_as_ulong, .-cmp_object_as_ulong
 10120 00b6 00BF     		.section	.text.cmp_object_as_uinteger,"ax",%progbits
 10121              		.align	1
 10122              		.global	cmp_object_as_uinteger
 10123              		.syntax unified
 10124              		.thumb
 10125              		.thumb_func
 10126              		.fpu fpv4-sp-d16
 10127              		.type	cmp_object_as_uinteger, %function
 10128              	cmp_object_as_uinteger:
 10129              		@ args = 0, pretend = 0, frame = 8
 10130              		@ frame_needed = 1, uses_anonymous_args = 0
 10131 0000 80B5     		push	{r7, lr}
 10132 0002 82B0     		sub	sp, sp, #8
 10133 0004 00AF     		add	r7, sp, #0
 10134 0006 7860     		str	r0, [r7, #4]
 10135 0008 3960     		str	r1, [r7]
 10136 000a 3968     		ldr	r1, [r7]
 10137 000c 7868     		ldr	r0, [r7, #4]
 10138 000e FFF7FEFF 		bl	cmp_object_as_ulong
ARM GAS  /var/folders/d2/nstgp4h54kz7g1l847x_b8wc0000gn/T//ccFI0sM2.s 			page 180


 10139 0012 0346     		mov	r3, r0
 10140 0014 1846     		mov	r0, r3
 10141 0016 0837     		adds	r7, r7, #8
 10142 0018 BD46     		mov	sp, r7
 10143              		@ sp needed
 10144 001a 80BD     		pop	{r7, pc}
 10145              		.size	cmp_object_as_uinteger, .-cmp_object_as_uinteger
 10146              		.section	.text.cmp_object_as_float,"ax",%progbits
 10147              		.align	1
 10148              		.global	cmp_object_as_float
 10149              		.syntax unified
 10150              		.thumb
 10151              		.thumb_func
 10152              		.fpu fpv4-sp-d16
 10153              		.type	cmp_object_as_float, %function
 10154              	cmp_object_as_float:
 10155              		@ args = 0, pretend = 0, frame = 8
 10156              		@ frame_needed = 1, uses_anonymous_args = 0
 10157              		@ link register save eliminated.
 10158 0000 80B4     		push	{r7}
 10159 0002 83B0     		sub	sp, sp, #12
 10160 0004 00AF     		add	r7, sp, #0
 10161 0006 7860     		str	r0, [r7, #4]
 10162 0008 3960     		str	r1, [r7]
 10163 000a 7B68     		ldr	r3, [r7, #4]
 10164 000c 1B78     		ldrb	r3, [r3]	@ zero_extendqisi2
 10165 000e 0C2B     		cmp	r3, #12
 10166 0010 05D1     		bne	.L860
 10167 0012 7B68     		ldr	r3, [r7, #4]
 10168 0014 9A68     		ldr	r2, [r3, #8]	@ float
 10169 0016 3B68     		ldr	r3, [r7]
 10170 0018 1A60     		str	r2, [r3]	@ float
 10171 001a 0123     		movs	r3, #1
 10172 001c 00E0     		b	.L861
 10173              	.L860:
 10174 001e 0023     		movs	r3, #0
 10175              	.L861:
 10176 0020 1846     		mov	r0, r3
 10177 0022 0C37     		adds	r7, r7, #12
 10178 0024 BD46     		mov	sp, r7
 10179              		@ sp needed
 10180 0026 5DF8047B 		ldr	r7, [sp], #4
 10181 002a 7047     		bx	lr
 10182              		.size	cmp_object_as_float, .-cmp_object_as_float
 10183              		.section	.text.cmp_object_as_double,"ax",%progbits
 10184              		.align	1
 10185              		.global	cmp_object_as_double
 10186              		.syntax unified
 10187              		.thumb
 10188              		.thumb_func
 10189              		.fpu fpv4-sp-d16
 10190              		.type	cmp_object_as_double, %function
 10191              	cmp_object_as_double:
 10192              		@ args = 0, pretend = 0, frame = 8
 10193              		@ frame_needed = 1, uses_anonymous_args = 0
 10194              		@ link register save eliminated.
 10195 0000 90B4     		push	{r4, r7}
ARM GAS  /var/folders/d2/nstgp4h54kz7g1l847x_b8wc0000gn/T//ccFI0sM2.s 			page 181


 10196 0002 82B0     		sub	sp, sp, #8
 10197 0004 00AF     		add	r7, sp, #0
 10198 0006 7860     		str	r0, [r7, #4]
 10199 0008 3960     		str	r1, [r7]
 10200 000a 7B68     		ldr	r3, [r7, #4]
 10201 000c 1B78     		ldrb	r3, [r3]	@ zero_extendqisi2
 10202 000e 0D2B     		cmp	r3, #13
 10203 0010 07D1     		bne	.L863
 10204 0012 7B68     		ldr	r3, [r7, #4]
 10205 0014 D3E90234 		ldrd	r3, [r3, #8]
 10206 0018 3A68     		ldr	r2, [r7]
 10207 001a C2E90034 		strd	r3, [r2]
 10208 001e 0123     		movs	r3, #1
 10209 0020 00E0     		b	.L864
 10210              	.L863:
 10211 0022 0023     		movs	r3, #0
 10212              	.L864:
 10213 0024 1846     		mov	r0, r3
 10214 0026 0837     		adds	r7, r7, #8
 10215 0028 BD46     		mov	sp, r7
 10216              		@ sp needed
 10217 002a 90BC     		pop	{r4, r7}
 10218 002c 7047     		bx	lr
 10219              		.size	cmp_object_as_double, .-cmp_object_as_double
 10220              		.section	.text.cmp_object_as_bool,"ax",%progbits
 10221              		.align	1
 10222              		.global	cmp_object_as_bool
 10223              		.syntax unified
 10224              		.thumb
 10225              		.thumb_func
 10226              		.fpu fpv4-sp-d16
 10227              		.type	cmp_object_as_bool, %function
 10228              	cmp_object_as_bool:
 10229              		@ args = 0, pretend = 0, frame = 8
 10230              		@ frame_needed = 1, uses_anonymous_args = 0
 10231              		@ link register save eliminated.
 10232 0000 80B4     		push	{r7}
 10233 0002 83B0     		sub	sp, sp, #12
 10234 0004 00AF     		add	r7, sp, #0
 10235 0006 7860     		str	r0, [r7, #4]
 10236 0008 3960     		str	r1, [r7]
 10237 000a 7B68     		ldr	r3, [r7, #4]
 10238 000c 1B78     		ldrb	r3, [r3]	@ zero_extendqisi2
 10239 000e 052B     		cmp	r3, #5
 10240 0010 0CD1     		bne	.L866
 10241 0012 7B68     		ldr	r3, [r7, #4]
 10242 0014 1B7A     		ldrb	r3, [r3, #8]	@ zero_extendqisi2
 10243 0016 002B     		cmp	r3, #0
 10244 0018 03D0     		beq	.L867
 10245 001a 3B68     		ldr	r3, [r7]
 10246 001c 0122     		movs	r2, #1
 10247 001e 1A70     		strb	r2, [r3]
 10248 0020 02E0     		b	.L868
 10249              	.L867:
 10250 0022 3B68     		ldr	r3, [r7]
 10251 0024 0022     		movs	r2, #0
 10252 0026 1A70     		strb	r2, [r3]
ARM GAS  /var/folders/d2/nstgp4h54kz7g1l847x_b8wc0000gn/T//ccFI0sM2.s 			page 182


 10253              	.L868:
 10254 0028 0123     		movs	r3, #1
 10255 002a 00E0     		b	.L869
 10256              	.L866:
 10257 002c 0023     		movs	r3, #0
 10258              	.L869:
 10259 002e 1846     		mov	r0, r3
 10260 0030 0C37     		adds	r7, r7, #12
 10261 0032 BD46     		mov	sp, r7
 10262              		@ sp needed
 10263 0034 5DF8047B 		ldr	r7, [sp], #4
 10264 0038 7047     		bx	lr
 10265              		.size	cmp_object_as_bool, .-cmp_object_as_bool
 10266              		.section	.text.cmp_object_as_str,"ax",%progbits
 10267              		.align	1
 10268              		.global	cmp_object_as_str
 10269              		.syntax unified
 10270              		.thumb
 10271              		.thumb_func
 10272              		.fpu fpv4-sp-d16
 10273              		.type	cmp_object_as_str, %function
 10274              	cmp_object_as_str:
 10275              		@ args = 0, pretend = 0, frame = 8
 10276              		@ frame_needed = 1, uses_anonymous_args = 0
 10277              		@ link register save eliminated.
 10278 0000 80B4     		push	{r7}
 10279 0002 83B0     		sub	sp, sp, #12
 10280 0004 00AF     		add	r7, sp, #0
 10281 0006 7860     		str	r0, [r7, #4]
 10282 0008 3960     		str	r1, [r7]
 10283 000a 7B68     		ldr	r3, [r7, #4]
 10284 000c 1B78     		ldrb	r3, [r3]	@ zero_extendqisi2
 10285 000e 032B     		cmp	r3, #3
 10286 0010 04D0     		beq	.L872
 10287 0012 032B     		cmp	r3, #3
 10288 0014 08DB     		blt	.L871
 10289 0016 1B3B     		subs	r3, r3, #27
 10290 0018 022B     		cmp	r3, #2
 10291 001a 05D8     		bhi	.L871
 10292              	.L872:
 10293 001c 7B68     		ldr	r3, [r7, #4]
 10294 001e 9A68     		ldr	r2, [r3, #8]
 10295 0020 3B68     		ldr	r3, [r7]
 10296 0022 1A60     		str	r2, [r3]
 10297 0024 0123     		movs	r3, #1
 10298 0026 00E0     		b	.L873
 10299              	.L871:
 10300 0028 0023     		movs	r3, #0
 10301              	.L873:
 10302 002a 1846     		mov	r0, r3
 10303 002c 0C37     		adds	r7, r7, #12
 10304 002e BD46     		mov	sp, r7
 10305              		@ sp needed
 10306 0030 5DF8047B 		ldr	r7, [sp], #4
 10307 0034 7047     		bx	lr
 10308              		.size	cmp_object_as_str, .-cmp_object_as_str
 10309              		.section	.text.cmp_object_as_bin,"ax",%progbits
ARM GAS  /var/folders/d2/nstgp4h54kz7g1l847x_b8wc0000gn/T//ccFI0sM2.s 			page 183


 10310              		.align	1
 10311              		.global	cmp_object_as_bin
 10312              		.syntax unified
 10313              		.thumb
 10314              		.thumb_func
 10315              		.fpu fpv4-sp-d16
 10316              		.type	cmp_object_as_bin, %function
 10317              	cmp_object_as_bin:
 10318              		@ args = 0, pretend = 0, frame = 8
 10319              		@ frame_needed = 1, uses_anonymous_args = 0
 10320              		@ link register save eliminated.
 10321 0000 80B4     		push	{r7}
 10322 0002 83B0     		sub	sp, sp, #12
 10323 0004 00AF     		add	r7, sp, #0
 10324 0006 7860     		str	r0, [r7, #4]
 10325 0008 3960     		str	r1, [r7]
 10326 000a 7B68     		ldr	r3, [r7, #4]
 10327 000c 1B78     		ldrb	r3, [r3]	@ zero_extendqisi2
 10328 000e 063B     		subs	r3, r3, #6
 10329 0010 022B     		cmp	r3, #2
 10330 0012 05D8     		bhi	.L875
 10331 0014 7B68     		ldr	r3, [r7, #4]
 10332 0016 9A68     		ldr	r2, [r3, #8]
 10333 0018 3B68     		ldr	r3, [r7]
 10334 001a 1A60     		str	r2, [r3]
 10335 001c 0123     		movs	r3, #1
 10336 001e 00E0     		b	.L877
 10337              	.L875:
 10338 0020 0023     		movs	r3, #0
 10339              	.L877:
 10340 0022 1846     		mov	r0, r3
 10341 0024 0C37     		adds	r7, r7, #12
 10342 0026 BD46     		mov	sp, r7
 10343              		@ sp needed
 10344 0028 5DF8047B 		ldr	r7, [sp], #4
 10345 002c 7047     		bx	lr
 10346              		.size	cmp_object_as_bin, .-cmp_object_as_bin
 10347              		.section	.text.cmp_object_as_array,"ax",%progbits
 10348              		.align	1
 10349              		.global	cmp_object_as_array
 10350              		.syntax unified
 10351              		.thumb
 10352              		.thumb_func
 10353              		.fpu fpv4-sp-d16
 10354              		.type	cmp_object_as_array, %function
 10355              	cmp_object_as_array:
 10356              		@ args = 0, pretend = 0, frame = 8
 10357              		@ frame_needed = 1, uses_anonymous_args = 0
 10358              		@ link register save eliminated.
 10359 0000 80B4     		push	{r7}
 10360 0002 83B0     		sub	sp, sp, #12
 10361 0004 00AF     		add	r7, sp, #0
 10362 0006 7860     		str	r0, [r7, #4]
 10363 0008 3960     		str	r1, [r7]
 10364 000a 7B68     		ldr	r3, [r7, #4]
 10365 000c 1B78     		ldrb	r3, [r3]	@ zero_extendqisi2
 10366 000e 022B     		cmp	r3, #2
ARM GAS  /var/folders/d2/nstgp4h54kz7g1l847x_b8wc0000gn/T//ccFI0sM2.s 			page 184


 10367 0010 04D0     		beq	.L880
 10368 0012 022B     		cmp	r3, #2
 10369 0014 08DB     		blt	.L879
 10370 0016 1E3B     		subs	r3, r3, #30
 10371 0018 012B     		cmp	r3, #1
 10372 001a 05D8     		bhi	.L879
 10373              	.L880:
 10374 001c 7B68     		ldr	r3, [r7, #4]
 10375 001e 9A68     		ldr	r2, [r3, #8]
 10376 0020 3B68     		ldr	r3, [r7]
 10377 0022 1A60     		str	r2, [r3]
 10378 0024 0123     		movs	r3, #1
 10379 0026 00E0     		b	.L881
 10380              	.L879:
 10381 0028 0023     		movs	r3, #0
 10382              	.L881:
 10383 002a 1846     		mov	r0, r3
 10384 002c 0C37     		adds	r7, r7, #12
 10385 002e BD46     		mov	sp, r7
 10386              		@ sp needed
 10387 0030 5DF8047B 		ldr	r7, [sp], #4
 10388 0034 7047     		bx	lr
 10389              		.size	cmp_object_as_array, .-cmp_object_as_array
 10390              		.section	.text.cmp_object_as_map,"ax",%progbits
 10391              		.align	1
 10392              		.global	cmp_object_as_map
 10393              		.syntax unified
 10394              		.thumb
 10395              		.thumb_func
 10396              		.fpu fpv4-sp-d16
 10397              		.type	cmp_object_as_map, %function
 10398              	cmp_object_as_map:
 10399              		@ args = 0, pretend = 0, frame = 8
 10400              		@ frame_needed = 1, uses_anonymous_args = 0
 10401              		@ link register save eliminated.
 10402 0000 80B4     		push	{r7}
 10403 0002 83B0     		sub	sp, sp, #12
 10404 0004 00AF     		add	r7, sp, #0
 10405 0006 7860     		str	r0, [r7, #4]
 10406 0008 3960     		str	r1, [r7]
 10407 000a 7B68     		ldr	r3, [r7, #4]
 10408 000c 1B78     		ldrb	r3, [r3]	@ zero_extendqisi2
 10409 000e 012B     		cmp	r3, #1
 10410 0010 04D0     		beq	.L884
 10411 0012 012B     		cmp	r3, #1
 10412 0014 08DB     		blt	.L883
 10413 0016 203B     		subs	r3, r3, #32
 10414 0018 012B     		cmp	r3, #1
 10415 001a 05D8     		bhi	.L883
 10416              	.L884:
 10417 001c 7B68     		ldr	r3, [r7, #4]
 10418 001e 9A68     		ldr	r2, [r3, #8]
 10419 0020 3B68     		ldr	r3, [r7]
 10420 0022 1A60     		str	r2, [r3]
 10421 0024 0123     		movs	r3, #1
 10422 0026 00E0     		b	.L885
 10423              	.L883:
ARM GAS  /var/folders/d2/nstgp4h54kz7g1l847x_b8wc0000gn/T//ccFI0sM2.s 			page 185


 10424 0028 0023     		movs	r3, #0
 10425              	.L885:
 10426 002a 1846     		mov	r0, r3
 10427 002c 0C37     		adds	r7, r7, #12
 10428 002e BD46     		mov	sp, r7
 10429              		@ sp needed
 10430 0030 5DF8047B 		ldr	r7, [sp], #4
 10431 0034 7047     		bx	lr
 10432              		.size	cmp_object_as_map, .-cmp_object_as_map
 10433              		.section	.text.cmp_object_as_ext,"ax",%progbits
 10434              		.align	1
 10435              		.global	cmp_object_as_ext
 10436              		.syntax unified
 10437              		.thumb
 10438              		.thumb_func
 10439              		.fpu fpv4-sp-d16
 10440              		.type	cmp_object_as_ext, %function
 10441              	cmp_object_as_ext:
 10442              		@ args = 0, pretend = 0, frame = 16
 10443              		@ frame_needed = 1, uses_anonymous_args = 0
 10444              		@ link register save eliminated.
 10445 0000 80B4     		push	{r7}
 10446 0002 85B0     		sub	sp, sp, #20
 10447 0004 00AF     		add	r7, sp, #0
 10448 0006 F860     		str	r0, [r7, #12]
 10449 0008 B960     		str	r1, [r7, #8]
 10450 000a 7A60     		str	r2, [r7, #4]
 10451 000c FB68     		ldr	r3, [r7, #12]
 10452 000e 1B78     		ldrb	r3, [r3]	@ zero_extendqisi2
 10453 0010 093B     		subs	r3, r3, #9
 10454 0012 112B     		cmp	r3, #17
 10455 0014 31D8     		bhi	.L887
 10456 0016 01A2     		adr	r2, .L889
 10457 0018 52F823F0 		ldr	pc, [r2, r3, lsl #2]
 10458              		.p2align 2
 10459              	.L889:
 10460 001c 65000000 		.word	.L888+1
 10461 0020 65000000 		.word	.L888+1
 10462 0024 65000000 		.word	.L888+1
 10463 0028 7B000000 		.word	.L887+1
 10464 002c 7B000000 		.word	.L887+1
 10465 0030 7B000000 		.word	.L887+1
 10466 0034 7B000000 		.word	.L887+1
 10467 0038 7B000000 		.word	.L887+1
 10468 003c 7B000000 		.word	.L887+1
 10469 0040 7B000000 		.word	.L887+1
 10470 0044 7B000000 		.word	.L887+1
 10471 0048 7B000000 		.word	.L887+1
 10472 004c 7B000000 		.word	.L887+1
 10473 0050 65000000 		.word	.L888+1
 10474 0054 65000000 		.word	.L888+1
 10475 0058 65000000 		.word	.L888+1
 10476 005c 65000000 		.word	.L888+1
 10477 0060 65000000 		.word	.L888+1
 10478              		.p2align 1
 10479              	.L888:
 10480 0064 FB68     		ldr	r3, [r7, #12]
ARM GAS  /var/folders/d2/nstgp4h54kz7g1l847x_b8wc0000gn/T//ccFI0sM2.s 			page 186


 10481 0066 93F90820 		ldrsb	r2, [r3, #8]
 10482 006a BB68     		ldr	r3, [r7, #8]
 10483 006c 1A70     		strb	r2, [r3]
 10484 006e FB68     		ldr	r3, [r7, #12]
 10485 0070 DA68     		ldr	r2, [r3, #12]
 10486 0072 7B68     		ldr	r3, [r7, #4]
 10487 0074 1A60     		str	r2, [r3]
 10488 0076 0123     		movs	r3, #1
 10489 0078 00E0     		b	.L890
 10490              	.L887:
 10491 007a 0023     		movs	r3, #0
 10492              	.L890:
 10493 007c 1846     		mov	r0, r3
 10494 007e 1437     		adds	r7, r7, #20
 10495 0080 BD46     		mov	sp, r7
 10496              		@ sp needed
 10497 0082 5DF8047B 		ldr	r7, [sp], #4
 10498 0086 7047     		bx	lr
 10499              		.size	cmp_object_as_ext, .-cmp_object_as_ext
 10500              		.ident	"GCC: (GNU Tools for Arm Embedded Processors 7-2017-q4-major) 7.2.1 20170904 (release) [ARM
ARM GAS  /var/folders/d2/nstgp4h54kz7g1l847x_b8wc0000gn/T//ccFI0sM2.s 			page 187


DEFINED SYMBOLS
                            *ABS*:0000000000000000 cmp.c
/var/folders/d2/nstgp4h54kz7g1l847x_b8wc0000gn/T//ccFI0sM2.s:15     .rodata.version:0000000000000000 $d
/var/folders/d2/nstgp4h54kz7g1l847x_b8wc0000gn/T//ccFI0sM2.s:18     .rodata.version:0000000000000000 version
/var/folders/d2/nstgp4h54kz7g1l847x_b8wc0000gn/T//ccFI0sM2.s:21     .rodata.mp_version:0000000000000000 $d
/var/folders/d2/nstgp4h54kz7g1l847x_b8wc0000gn/T//ccFI0sM2.s:24     .rodata.mp_version:0000000000000000 mp_version
/var/folders/d2/nstgp4h54kz7g1l847x_b8wc0000gn/T//ccFI0sM2.s:85     .data.cmp_error_messages:0000000000000000 cmp_error_messages
/var/folders/d2/nstgp4h54kz7g1l847x_b8wc0000gn/T//ccFI0sM2.s:28     .rodata:0000000000000000 $d
/var/folders/d2/nstgp4h54kz7g1l847x_b8wc0000gn/T//ccFI0sM2.s:82     .data.cmp_error_messages:0000000000000000 $d
/var/folders/d2/nstgp4h54kz7g1l847x_b8wc0000gn/T//ccFI0sM2.s:104    .rodata._i:0000000000000000 $d
/var/folders/d2/nstgp4h54kz7g1l847x_b8wc0000gn/T//ccFI0sM2.s:107    .rodata._i:0000000000000000 _i
/var/folders/d2/nstgp4h54kz7g1l847x_b8wc0000gn/T//ccFI0sM2.s:110    .text.be16:0000000000000000 $t
/var/folders/d2/nstgp4h54kz7g1l847x_b8wc0000gn/T//ccFI0sM2.s:116    .text.be16:0000000000000000 be16
/var/folders/d2/nstgp4h54kz7g1l847x_b8wc0000gn/T//ccFI0sM2.s:155    .text.be16:0000000000000040 $d
/var/folders/d2/nstgp4h54kz7g1l847x_b8wc0000gn/T//ccFI0sM2.s:158    .text.be32:0000000000000000 $t
/var/folders/d2/nstgp4h54kz7g1l847x_b8wc0000gn/T//ccFI0sM2.s:164    .text.be32:0000000000000000 be32
/var/folders/d2/nstgp4h54kz7g1l847x_b8wc0000gn/T//ccFI0sM2.s:214    .text.be32:0000000000000054 $d
/var/folders/d2/nstgp4h54kz7g1l847x_b8wc0000gn/T//ccFI0sM2.s:217    .text.be64:0000000000000000 $t
/var/folders/d2/nstgp4h54kz7g1l847x_b8wc0000gn/T//ccFI0sM2.s:223    .text.be64:0000000000000000 be64
/var/folders/d2/nstgp4h54kz7g1l847x_b8wc0000gn/T//ccFI0sM2.s:298    .text.be64:0000000000000088 $d
/var/folders/d2/nstgp4h54kz7g1l847x_b8wc0000gn/T//ccFI0sM2.s:301    .text.befloat:0000000000000000 $t
/var/folders/d2/nstgp4h54kz7g1l847x_b8wc0000gn/T//ccFI0sM2.s:307    .text.befloat:0000000000000000 befloat
/var/folders/d2/nstgp4h54kz7g1l847x_b8wc0000gn/T//ccFI0sM2.s:358    .text.befloat:000000000000005c $d
/var/folders/d2/nstgp4h54kz7g1l847x_b8wc0000gn/T//ccFI0sM2.s:361    .text.bedouble:0000000000000000 $t
/var/folders/d2/nstgp4h54kz7g1l847x_b8wc0000gn/T//ccFI0sM2.s:367    .text.bedouble:0000000000000000 bedouble
/var/folders/d2/nstgp4h54kz7g1l847x_b8wc0000gn/T//ccFI0sM2.s:443    .text.bedouble:0000000000000090 $d
/var/folders/d2/nstgp4h54kz7g1l847x_b8wc0000gn/T//ccFI0sM2.s:446    .text.read_byte:0000000000000000 $t
/var/folders/d2/nstgp4h54kz7g1l847x_b8wc0000gn/T//ccFI0sM2.s:452    .text.read_byte:0000000000000000 read_byte
/var/folders/d2/nstgp4h54kz7g1l847x_b8wc0000gn/T//ccFI0sM2.s:474    .text.write_byte:0000000000000000 $t
/var/folders/d2/nstgp4h54kz7g1l847x_b8wc0000gn/T//ccFI0sM2.s:480    .text.write_byte:0000000000000000 write_byte
/var/folders/d2/nstgp4h54kz7g1l847x_b8wc0000gn/T//ccFI0sM2.s:508    .text.read_type_marker:0000000000000000 $t
/var/folders/d2/nstgp4h54kz7g1l847x_b8wc0000gn/T//ccFI0sM2.s:514    .text.read_type_marker:0000000000000000 read_type_marker
/var/folders/d2/nstgp4h54kz7g1l847x_b8wc0000gn/T//ccFI0sM2.s:543    .text.write_type_marker:0000000000000000 $t
/var/folders/d2/nstgp4h54kz7g1l847x_b8wc0000gn/T//ccFI0sM2.s:549    .text.write_type_marker:0000000000000000 write_type_marker
/var/folders/d2/nstgp4h54kz7g1l847x_b8wc0000gn/T//ccFI0sM2.s:580    .text.write_fixed_value:0000000000000000 $t
/var/folders/d2/nstgp4h54kz7g1l847x_b8wc0000gn/T//ccFI0sM2.s:586    .text.write_fixed_value:0000000000000000 write_fixed_value
/var/folders/d2/nstgp4h54kz7g1l847x_b8wc0000gn/T//ccFI0sM2.s:617    .text.cmp_init:0000000000000000 $t
/var/folders/d2/nstgp4h54kz7g1l847x_b8wc0000gn/T//ccFI0sM2.s:624    .text.cmp_init:0000000000000000 cmp_init
/var/folders/d2/nstgp4h54kz7g1l847x_b8wc0000gn/T//ccFI0sM2.s:655    .text.cmp_version:0000000000000000 $t
/var/folders/d2/nstgp4h54kz7g1l847x_b8wc0000gn/T//ccFI0sM2.s:662    .text.cmp_version:0000000000000000 cmp_version
/var/folders/d2/nstgp4h54kz7g1l847x_b8wc0000gn/T//ccFI0sM2.s:676    .text.cmp_mp_version:0000000000000000 $t
/var/folders/d2/nstgp4h54kz7g1l847x_b8wc0000gn/T//ccFI0sM2.s:683    .text.cmp_mp_version:0000000000000000 cmp_mp_version
/var/folders/d2/nstgp4h54kz7g1l847x_b8wc0000gn/T//ccFI0sM2.s:701    .text.cmp_strerror:0000000000000000 $t
/var/folders/d2/nstgp4h54kz7g1l847x_b8wc0000gn/T//ccFI0sM2.s:708    .text.cmp_strerror:0000000000000000 cmp_strerror
/var/folders/d2/nstgp4h54kz7g1l847x_b8wc0000gn/T//ccFI0sM2.s:742    .text.cmp_strerror:0000000000000034 $d
/var/folders/d2/nstgp4h54kz7g1l847x_b8wc0000gn/T//ccFI0sM2.s:746    .text.cmp_write_pfix:0000000000000000 $t
/var/folders/d2/nstgp4h54kz7g1l847x_b8wc0000gn/T//ccFI0sM2.s:753    .text.cmp_write_pfix:0000000000000000 cmp_write_pfix
/var/folders/d2/nstgp4h54kz7g1l847x_b8wc0000gn/T//ccFI0sM2.s:784    .text.cmp_write_nfix:0000000000000000 $t
/var/folders/d2/nstgp4h54kz7g1l847x_b8wc0000gn/T//ccFI0sM2.s:791    .text.cmp_write_nfix:0000000000000000 cmp_write_nfix
/var/folders/d2/nstgp4h54kz7g1l847x_b8wc0000gn/T//ccFI0sM2.s:825    .text.cmp_write_sfix:0000000000000000 $t
/var/folders/d2/nstgp4h54kz7g1l847x_b8wc0000gn/T//ccFI0sM2.s:832    .text.cmp_write_sfix:0000000000000000 cmp_write_sfix
/var/folders/d2/nstgp4h54kz7g1l847x_b8wc0000gn/T//ccFI0sM2.s:876    .text.cmp_write_s8:0000000000000000 $t
/var/folders/d2/nstgp4h54kz7g1l847x_b8wc0000gn/T//ccFI0sM2.s:883    .text.cmp_write_s8:0000000000000000 cmp_write_s8
/var/folders/d2/nstgp4h54kz7g1l847x_b8wc0000gn/T//ccFI0sM2.s:923    .text.cmp_write_s16:0000000000000000 $t
/var/folders/d2/nstgp4h54kz7g1l847x_b8wc0000gn/T//ccFI0sM2.s:930    .text.cmp_write_s16:0000000000000000 cmp_write_s16
/var/folders/d2/nstgp4h54kz7g1l847x_b8wc0000gn/T//ccFI0sM2.s:977    .text.cmp_write_s32:0000000000000000 $t
/var/folders/d2/nstgp4h54kz7g1l847x_b8wc0000gn/T//ccFI0sM2.s:984    .text.cmp_write_s32:0000000000000000 cmp_write_s32
ARM GAS  /var/folders/d2/nstgp4h54kz7g1l847x_b8wc0000gn/T//ccFI0sM2.s 			page 188


/var/folders/d2/nstgp4h54kz7g1l847x_b8wc0000gn/T//ccFI0sM2.s:1028   .text.cmp_write_s64:0000000000000000 $t
/var/folders/d2/nstgp4h54kz7g1l847x_b8wc0000gn/T//ccFI0sM2.s:1035   .text.cmp_write_s64:0000000000000000 cmp_write_s64
/var/folders/d2/nstgp4h54kz7g1l847x_b8wc0000gn/T//ccFI0sM2.s:1081   .text.cmp_write_sint:0000000000000000 $t
/var/folders/d2/nstgp4h54kz7g1l847x_b8wc0000gn/T//ccFI0sM2.s:1088   .text.cmp_write_sint:0000000000000000 cmp_write_sint
/var/folders/d2/nstgp4h54kz7g1l847x_b8wc0000gn/T//ccFI0sM2.s:1412   .text.cmp_write_uint:0000000000000000 cmp_write_uint
/var/folders/d2/nstgp4h54kz7g1l847x_b8wc0000gn/T//ccFI0sM2.s:1171   .text.cmp_write_sint:00000000000000c4 $d
/var/folders/d2/nstgp4h54kz7g1l847x_b8wc0000gn/T//ccFI0sM2.s:1174   .text.cmp_write_ufix:0000000000000000 $t
/var/folders/d2/nstgp4h54kz7g1l847x_b8wc0000gn/T//ccFI0sM2.s:1181   .text.cmp_write_ufix:0000000000000000 cmp_write_ufix
/var/folders/d2/nstgp4h54kz7g1l847x_b8wc0000gn/T//ccFI0sM2.s:1202   .text.cmp_write_u8:0000000000000000 $t
/var/folders/d2/nstgp4h54kz7g1l847x_b8wc0000gn/T//ccFI0sM2.s:1209   .text.cmp_write_u8:0000000000000000 cmp_write_u8
/var/folders/d2/nstgp4h54kz7g1l847x_b8wc0000gn/T//ccFI0sM2.s:1249   .text.cmp_write_u16:0000000000000000 $t
/var/folders/d2/nstgp4h54kz7g1l847x_b8wc0000gn/T//ccFI0sM2.s:1256   .text.cmp_write_u16:0000000000000000 cmp_write_u16
/var/folders/d2/nstgp4h54kz7g1l847x_b8wc0000gn/T//ccFI0sM2.s:1301   .text.cmp_write_u32:0000000000000000 $t
/var/folders/d2/nstgp4h54kz7g1l847x_b8wc0000gn/T//ccFI0sM2.s:1308   .text.cmp_write_u32:0000000000000000 cmp_write_u32
/var/folders/d2/nstgp4h54kz7g1l847x_b8wc0000gn/T//ccFI0sM2.s:1352   .text.cmp_write_u64:0000000000000000 $t
/var/folders/d2/nstgp4h54kz7g1l847x_b8wc0000gn/T//ccFI0sM2.s:1359   .text.cmp_write_u64:0000000000000000 cmp_write_u64
/var/folders/d2/nstgp4h54kz7g1l847x_b8wc0000gn/T//ccFI0sM2.s:1405   .text.cmp_write_uint:0000000000000000 $t
/var/folders/d2/nstgp4h54kz7g1l847x_b8wc0000gn/T//ccFI0sM2.s:1482   .text.cmp_write_float:0000000000000000 $t
/var/folders/d2/nstgp4h54kz7g1l847x_b8wc0000gn/T//ccFI0sM2.s:1489   .text.cmp_write_float:0000000000000000 cmp_write_float
/var/folders/d2/nstgp4h54kz7g1l847x_b8wc0000gn/T//ccFI0sM2.s:1533   .text.cmp_write_double:0000000000000000 $t
/var/folders/d2/nstgp4h54kz7g1l847x_b8wc0000gn/T//ccFI0sM2.s:1540   .text.cmp_write_double:0000000000000000 cmp_write_double
/var/folders/d2/nstgp4h54kz7g1l847x_b8wc0000gn/T//ccFI0sM2.s:1586   .text.cmp_write_nil:0000000000000000 $t
/var/folders/d2/nstgp4h54kz7g1l847x_b8wc0000gn/T//ccFI0sM2.s:1593   .text.cmp_write_nil:0000000000000000 cmp_write_nil
/var/folders/d2/nstgp4h54kz7g1l847x_b8wc0000gn/T//ccFI0sM2.s:1611   .text.cmp_write_true:0000000000000000 $t
/var/folders/d2/nstgp4h54kz7g1l847x_b8wc0000gn/T//ccFI0sM2.s:1618   .text.cmp_write_true:0000000000000000 cmp_write_true
/var/folders/d2/nstgp4h54kz7g1l847x_b8wc0000gn/T//ccFI0sM2.s:1636   .text.cmp_write_false:0000000000000000 $t
/var/folders/d2/nstgp4h54kz7g1l847x_b8wc0000gn/T//ccFI0sM2.s:1643   .text.cmp_write_false:0000000000000000 cmp_write_false
/var/folders/d2/nstgp4h54kz7g1l847x_b8wc0000gn/T//ccFI0sM2.s:1661   .text.cmp_write_bool:0000000000000000 $t
/var/folders/d2/nstgp4h54kz7g1l847x_b8wc0000gn/T//ccFI0sM2.s:1668   .text.cmp_write_bool:0000000000000000 cmp_write_bool
/var/folders/d2/nstgp4h54kz7g1l847x_b8wc0000gn/T//ccFI0sM2.s:1696   .text.cmp_write_u8_as_bool:0000000000000000 $t
/var/folders/d2/nstgp4h54kz7g1l847x_b8wc0000gn/T//ccFI0sM2.s:1703   .text.cmp_write_u8_as_bool:0000000000000000 cmp_write_u8_as_bool
/var/folders/d2/nstgp4h54kz7g1l847x_b8wc0000gn/T//ccFI0sM2.s:1731   .text.cmp_write_fixstr_marker:0000000000000000 $t
/var/folders/d2/nstgp4h54kz7g1l847x_b8wc0000gn/T//ccFI0sM2.s:1738   .text.cmp_write_fixstr_marker:0000000000000000 cmp_write_fixstr_marker
/var/folders/d2/nstgp4h54kz7g1l847x_b8wc0000gn/T//ccFI0sM2.s:1771   .text.cmp_write_fixstr:0000000000000000 $t
/var/folders/d2/nstgp4h54kz7g1l847x_b8wc0000gn/T//ccFI0sM2.s:1778   .text.cmp_write_fixstr:0000000000000000 cmp_write_fixstr
/var/folders/d2/nstgp4h54kz7g1l847x_b8wc0000gn/T//ccFI0sM2.s:1830   .text.cmp_write_str8_marker:0000000000000000 $t
/var/folders/d2/nstgp4h54kz7g1l847x_b8wc0000gn/T//ccFI0sM2.s:1837   .text.cmp_write_str8_marker:0000000000000000 cmp_write_str8_marker
/var/folders/d2/nstgp4h54kz7g1l847x_b8wc0000gn/T//ccFI0sM2.s:1881   .text.cmp_write_str8:0000000000000000 $t
/var/folders/d2/nstgp4h54kz7g1l847x_b8wc0000gn/T//ccFI0sM2.s:1888   .text.cmp_write_str8:0000000000000000 cmp_write_str8
/var/folders/d2/nstgp4h54kz7g1l847x_b8wc0000gn/T//ccFI0sM2.s:1940   .text.cmp_write_str16_marker:0000000000000000 $t
/var/folders/d2/nstgp4h54kz7g1l847x_b8wc0000gn/T//ccFI0sM2.s:1947   .text.cmp_write_str16_marker:0000000000000000 cmp_write_str16_marker
/var/folders/d2/nstgp4h54kz7g1l847x_b8wc0000gn/T//ccFI0sM2.s:1996   .text.cmp_write_str16:0000000000000000 $t
/var/folders/d2/nstgp4h54kz7g1l847x_b8wc0000gn/T//ccFI0sM2.s:2003   .text.cmp_write_str16:0000000000000000 cmp_write_str16
/var/folders/d2/nstgp4h54kz7g1l847x_b8wc0000gn/T//ccFI0sM2.s:2055   .text.cmp_write_str32_marker:0000000000000000 $t
/var/folders/d2/nstgp4h54kz7g1l847x_b8wc0000gn/T//ccFI0sM2.s:2062   .text.cmp_write_str32_marker:0000000000000000 cmp_write_str32_marker
/var/folders/d2/nstgp4h54kz7g1l847x_b8wc0000gn/T//ccFI0sM2.s:2110   .text.cmp_write_str32:0000000000000000 $t
/var/folders/d2/nstgp4h54kz7g1l847x_b8wc0000gn/T//ccFI0sM2.s:2117   .text.cmp_write_str32:0000000000000000 cmp_write_str32
/var/folders/d2/nstgp4h54kz7g1l847x_b8wc0000gn/T//ccFI0sM2.s:2167   .text.cmp_write_str_marker:0000000000000000 $t
/var/folders/d2/nstgp4h54kz7g1l847x_b8wc0000gn/T//ccFI0sM2.s:2174   .text.cmp_write_str_marker:0000000000000000 cmp_write_str_marker
/var/folders/d2/nstgp4h54kz7g1l847x_b8wc0000gn/T//ccFI0sM2.s:2227   .text.cmp_write_str:0000000000000000 $t
/var/folders/d2/nstgp4h54kz7g1l847x_b8wc0000gn/T//ccFI0sM2.s:2234   .text.cmp_write_str:0000000000000000 cmp_write_str
/var/folders/d2/nstgp4h54kz7g1l847x_b8wc0000gn/T//ccFI0sM2.s:2292   .text.cmp_write_bin8_marker:0000000000000000 $t
/var/folders/d2/nstgp4h54kz7g1l847x_b8wc0000gn/T//ccFI0sM2.s:2299   .text.cmp_write_bin8_marker:0000000000000000 cmp_write_bin8_marker
/var/folders/d2/nstgp4h54kz7g1l847x_b8wc0000gn/T//ccFI0sM2.s:2343   .text.cmp_write_bin8:0000000000000000 $t
/var/folders/d2/nstgp4h54kz7g1l847x_b8wc0000gn/T//ccFI0sM2.s:2350   .text.cmp_write_bin8:0000000000000000 cmp_write_bin8
/var/folders/d2/nstgp4h54kz7g1l847x_b8wc0000gn/T//ccFI0sM2.s:2402   .text.cmp_write_bin16_marker:0000000000000000 $t
/var/folders/d2/nstgp4h54kz7g1l847x_b8wc0000gn/T//ccFI0sM2.s:2409   .text.cmp_write_bin16_marker:0000000000000000 cmp_write_bin16_marker
ARM GAS  /var/folders/d2/nstgp4h54kz7g1l847x_b8wc0000gn/T//ccFI0sM2.s 			page 189


/var/folders/d2/nstgp4h54kz7g1l847x_b8wc0000gn/T//ccFI0sM2.s:2458   .text.cmp_write_bin16:0000000000000000 $t
/var/folders/d2/nstgp4h54kz7g1l847x_b8wc0000gn/T//ccFI0sM2.s:2465   .text.cmp_write_bin16:0000000000000000 cmp_write_bin16
/var/folders/d2/nstgp4h54kz7g1l847x_b8wc0000gn/T//ccFI0sM2.s:2517   .text.cmp_write_bin32_marker:0000000000000000 $t
/var/folders/d2/nstgp4h54kz7g1l847x_b8wc0000gn/T//ccFI0sM2.s:2524   .text.cmp_write_bin32_marker:0000000000000000 cmp_write_bin32_marker
/var/folders/d2/nstgp4h54kz7g1l847x_b8wc0000gn/T//ccFI0sM2.s:2572   .text.cmp_write_bin32:0000000000000000 $t
/var/folders/d2/nstgp4h54kz7g1l847x_b8wc0000gn/T//ccFI0sM2.s:2579   .text.cmp_write_bin32:0000000000000000 cmp_write_bin32
/var/folders/d2/nstgp4h54kz7g1l847x_b8wc0000gn/T//ccFI0sM2.s:2629   .text.cmp_write_bin_marker:0000000000000000 $t
/var/folders/d2/nstgp4h54kz7g1l847x_b8wc0000gn/T//ccFI0sM2.s:2636   .text.cmp_write_bin_marker:0000000000000000 cmp_write_bin_marker
/var/folders/d2/nstgp4h54kz7g1l847x_b8wc0000gn/T//ccFI0sM2.s:2678   .text.cmp_write_bin:0000000000000000 $t
/var/folders/d2/nstgp4h54kz7g1l847x_b8wc0000gn/T//ccFI0sM2.s:2685   .text.cmp_write_bin:0000000000000000 cmp_write_bin
/var/folders/d2/nstgp4h54kz7g1l847x_b8wc0000gn/T//ccFI0sM2.s:2731   .text.cmp_write_fixarray:0000000000000000 $t
/var/folders/d2/nstgp4h54kz7g1l847x_b8wc0000gn/T//ccFI0sM2.s:2738   .text.cmp_write_fixarray:0000000000000000 cmp_write_fixarray
/var/folders/d2/nstgp4h54kz7g1l847x_b8wc0000gn/T//ccFI0sM2.s:2771   .text.cmp_write_array16:0000000000000000 $t
/var/folders/d2/nstgp4h54kz7g1l847x_b8wc0000gn/T//ccFI0sM2.s:2778   .text.cmp_write_array16:0000000000000000 cmp_write_array16
/var/folders/d2/nstgp4h54kz7g1l847x_b8wc0000gn/T//ccFI0sM2.s:2827   .text.cmp_write_array32:0000000000000000 $t
/var/folders/d2/nstgp4h54kz7g1l847x_b8wc0000gn/T//ccFI0sM2.s:2834   .text.cmp_write_array32:0000000000000000 cmp_write_array32
/var/folders/d2/nstgp4h54kz7g1l847x_b8wc0000gn/T//ccFI0sM2.s:2882   .text.cmp_write_array:0000000000000000 $t
/var/folders/d2/nstgp4h54kz7g1l847x_b8wc0000gn/T//ccFI0sM2.s:2889   .text.cmp_write_array:0000000000000000 cmp_write_array
/var/folders/d2/nstgp4h54kz7g1l847x_b8wc0000gn/T//ccFI0sM2.s:2931   .text.cmp_write_fixmap:0000000000000000 $t
/var/folders/d2/nstgp4h54kz7g1l847x_b8wc0000gn/T//ccFI0sM2.s:2938   .text.cmp_write_fixmap:0000000000000000 cmp_write_fixmap
/var/folders/d2/nstgp4h54kz7g1l847x_b8wc0000gn/T//ccFI0sM2.s:2971   .text.cmp_write_map16:0000000000000000 $t
/var/folders/d2/nstgp4h54kz7g1l847x_b8wc0000gn/T//ccFI0sM2.s:2978   .text.cmp_write_map16:0000000000000000 cmp_write_map16
/var/folders/d2/nstgp4h54kz7g1l847x_b8wc0000gn/T//ccFI0sM2.s:3027   .text.cmp_write_map32:0000000000000000 $t
/var/folders/d2/nstgp4h54kz7g1l847x_b8wc0000gn/T//ccFI0sM2.s:3034   .text.cmp_write_map32:0000000000000000 cmp_write_map32
/var/folders/d2/nstgp4h54kz7g1l847x_b8wc0000gn/T//ccFI0sM2.s:3082   .text.cmp_write_map:0000000000000000 $t
/var/folders/d2/nstgp4h54kz7g1l847x_b8wc0000gn/T//ccFI0sM2.s:3089   .text.cmp_write_map:0000000000000000 cmp_write_map
/var/folders/d2/nstgp4h54kz7g1l847x_b8wc0000gn/T//ccFI0sM2.s:3131   .text.cmp_write_fixext1_marker:0000000000000000 $t
/var/folders/d2/nstgp4h54kz7g1l847x_b8wc0000gn/T//ccFI0sM2.s:3138   .text.cmp_write_fixext1_marker:0000000000000000 cmp_write_fixext1_marker
/var/folders/d2/nstgp4h54kz7g1l847x_b8wc0000gn/T//ccFI0sM2.s:3182   .text.cmp_write_fixext1:0000000000000000 $t
/var/folders/d2/nstgp4h54kz7g1l847x_b8wc0000gn/T//ccFI0sM2.s:3189   .text.cmp_write_fixext1:0000000000000000 cmp_write_fixext1
/var/folders/d2/nstgp4h54kz7g1l847x_b8wc0000gn/T//ccFI0sM2.s:3235   .text.cmp_write_fixext2_marker:0000000000000000 $t
/var/folders/d2/nstgp4h54kz7g1l847x_b8wc0000gn/T//ccFI0sM2.s:3242   .text.cmp_write_fixext2_marker:0000000000000000 cmp_write_fixext2_marker
/var/folders/d2/nstgp4h54kz7g1l847x_b8wc0000gn/T//ccFI0sM2.s:3286   .text.cmp_write_fixext2:0000000000000000 $t
/var/folders/d2/nstgp4h54kz7g1l847x_b8wc0000gn/T//ccFI0sM2.s:3293   .text.cmp_write_fixext2:0000000000000000 cmp_write_fixext2
/var/folders/d2/nstgp4h54kz7g1l847x_b8wc0000gn/T//ccFI0sM2.s:3339   .text.cmp_write_fixext4_marker:0000000000000000 $t
/var/folders/d2/nstgp4h54kz7g1l847x_b8wc0000gn/T//ccFI0sM2.s:3346   .text.cmp_write_fixext4_marker:0000000000000000 cmp_write_fixext4_marker
/var/folders/d2/nstgp4h54kz7g1l847x_b8wc0000gn/T//ccFI0sM2.s:3390   .text.cmp_write_fixext4:0000000000000000 $t
/var/folders/d2/nstgp4h54kz7g1l847x_b8wc0000gn/T//ccFI0sM2.s:3397   .text.cmp_write_fixext4:0000000000000000 cmp_write_fixext4
/var/folders/d2/nstgp4h54kz7g1l847x_b8wc0000gn/T//ccFI0sM2.s:3443   .text.cmp_write_fixext8_marker:0000000000000000 $t
/var/folders/d2/nstgp4h54kz7g1l847x_b8wc0000gn/T//ccFI0sM2.s:3450   .text.cmp_write_fixext8_marker:0000000000000000 cmp_write_fixext8_marker
/var/folders/d2/nstgp4h54kz7g1l847x_b8wc0000gn/T//ccFI0sM2.s:3494   .text.cmp_write_fixext8:0000000000000000 $t
/var/folders/d2/nstgp4h54kz7g1l847x_b8wc0000gn/T//ccFI0sM2.s:3501   .text.cmp_write_fixext8:0000000000000000 cmp_write_fixext8
/var/folders/d2/nstgp4h54kz7g1l847x_b8wc0000gn/T//ccFI0sM2.s:3547   .text.cmp_write_fixext16_marker:0000000000000000 $t
/var/folders/d2/nstgp4h54kz7g1l847x_b8wc0000gn/T//ccFI0sM2.s:3554   .text.cmp_write_fixext16_marker:0000000000000000 cmp_write_fixext16_marker
/var/folders/d2/nstgp4h54kz7g1l847x_b8wc0000gn/T//ccFI0sM2.s:3598   .text.cmp_write_fixext16:0000000000000000 $t
/var/folders/d2/nstgp4h54kz7g1l847x_b8wc0000gn/T//ccFI0sM2.s:3605   .text.cmp_write_fixext16:0000000000000000 cmp_write_fixext16
/var/folders/d2/nstgp4h54kz7g1l847x_b8wc0000gn/T//ccFI0sM2.s:3651   .text.cmp_write_ext8_marker:0000000000000000 $t
/var/folders/d2/nstgp4h54kz7g1l847x_b8wc0000gn/T//ccFI0sM2.s:3658   .text.cmp_write_ext8_marker:0000000000000000 cmp_write_ext8_marker
/var/folders/d2/nstgp4h54kz7g1l847x_b8wc0000gn/T//ccFI0sM2.s:3719   .text.cmp_write_ext8:0000000000000000 $t
/var/folders/d2/nstgp4h54kz7g1l847x_b8wc0000gn/T//ccFI0sM2.s:3726   .text.cmp_write_ext8:0000000000000000 cmp_write_ext8
/var/folders/d2/nstgp4h54kz7g1l847x_b8wc0000gn/T//ccFI0sM2.s:3775   .text.cmp_write_ext16_marker:0000000000000000 $t
/var/folders/d2/nstgp4h54kz7g1l847x_b8wc0000gn/T//ccFI0sM2.s:3782   .text.cmp_write_ext16_marker:0000000000000000 cmp_write_ext16_marker
/var/folders/d2/nstgp4h54kz7g1l847x_b8wc0000gn/T//ccFI0sM2.s:3848   .text.cmp_write_ext16:0000000000000000 $t
/var/folders/d2/nstgp4h54kz7g1l847x_b8wc0000gn/T//ccFI0sM2.s:3855   .text.cmp_write_ext16:0000000000000000 cmp_write_ext16
/var/folders/d2/nstgp4h54kz7g1l847x_b8wc0000gn/T//ccFI0sM2.s:3904   .text.cmp_write_ext32_marker:0000000000000000 $t
/var/folders/d2/nstgp4h54kz7g1l847x_b8wc0000gn/T//ccFI0sM2.s:3911   .text.cmp_write_ext32_marker:0000000000000000 cmp_write_ext32_marker
/var/folders/d2/nstgp4h54kz7g1l847x_b8wc0000gn/T//ccFI0sM2.s:3976   .text.cmp_write_ext32:0000000000000000 $t
ARM GAS  /var/folders/d2/nstgp4h54kz7g1l847x_b8wc0000gn/T//ccFI0sM2.s 			page 190


/var/folders/d2/nstgp4h54kz7g1l847x_b8wc0000gn/T//ccFI0sM2.s:3983   .text.cmp_write_ext32:0000000000000000 cmp_write_ext32
/var/folders/d2/nstgp4h54kz7g1l847x_b8wc0000gn/T//ccFI0sM2.s:4031   .text.cmp_write_ext_marker:0000000000000000 $t
/var/folders/d2/nstgp4h54kz7g1l847x_b8wc0000gn/T//ccFI0sM2.s:4038   .text.cmp_write_ext_marker:0000000000000000 cmp_write_ext_marker
/var/folders/d2/nstgp4h54kz7g1l847x_b8wc0000gn/T//ccFI0sM2.s:4136   .text.cmp_write_ext:0000000000000000 $t
/var/folders/d2/nstgp4h54kz7g1l847x_b8wc0000gn/T//ccFI0sM2.s:4143   .text.cmp_write_ext:0000000000000000 cmp_write_ext
/var/folders/d2/nstgp4h54kz7g1l847x_b8wc0000gn/T//ccFI0sM2.s:4247   .text.cmp_write_object:0000000000000000 $t
/var/folders/d2/nstgp4h54kz7g1l847x_b8wc0000gn/T//ccFI0sM2.s:4254   .text.cmp_write_object:0000000000000000 cmp_write_object
/var/folders/d2/nstgp4h54kz7g1l847x_b8wc0000gn/T//ccFI0sM2.s:4270   .text.cmp_write_object:000000000000001c $d
/var/folders/d2/nstgp4h54kz7g1l847x_b8wc0000gn/T//ccFI0sM2.s:4305   .text.cmp_write_object:00000000000000a8 $t
/var/folders/d2/nstgp4h54kz7g1l847x_b8wc0000gn/T//ccFI0sM2.s:4622   .text.cmp_read_pfix:0000000000000000 $t
/var/folders/d2/nstgp4h54kz7g1l847x_b8wc0000gn/T//ccFI0sM2.s:4629   .text.cmp_read_pfix:0000000000000000 cmp_read_pfix
/var/folders/d2/nstgp4h54kz7g1l847x_b8wc0000gn/T//ccFI0sM2.s:7625   .text.cmp_read_object:0000000000000000 cmp_read_object
/var/folders/d2/nstgp4h54kz7g1l847x_b8wc0000gn/T//ccFI0sM2.s:4670   .text.cmp_read_nfix:0000000000000000 $t
/var/folders/d2/nstgp4h54kz7g1l847x_b8wc0000gn/T//ccFI0sM2.s:4677   .text.cmp_read_nfix:0000000000000000 cmp_read_nfix
/var/folders/d2/nstgp4h54kz7g1l847x_b8wc0000gn/T//ccFI0sM2.s:4718   .text.cmp_read_sfix:0000000000000000 $t
/var/folders/d2/nstgp4h54kz7g1l847x_b8wc0000gn/T//ccFI0sM2.s:4725   .text.cmp_read_sfix:0000000000000000 cmp_read_sfix
/var/folders/d2/nstgp4h54kz7g1l847x_b8wc0000gn/T//ccFI0sM2.s:4769   .text.cmp_read_s8:0000000000000000 $t
/var/folders/d2/nstgp4h54kz7g1l847x_b8wc0000gn/T//ccFI0sM2.s:4776   .text.cmp_read_s8:0000000000000000 cmp_read_s8
/var/folders/d2/nstgp4h54kz7g1l847x_b8wc0000gn/T//ccFI0sM2.s:4817   .text.cmp_read_s16:0000000000000000 $t
/var/folders/d2/nstgp4h54kz7g1l847x_b8wc0000gn/T//ccFI0sM2.s:4824   .text.cmp_read_s16:0000000000000000 cmp_read_s16
/var/folders/d2/nstgp4h54kz7g1l847x_b8wc0000gn/T//ccFI0sM2.s:4865   .text.cmp_read_s32:0000000000000000 $t
/var/folders/d2/nstgp4h54kz7g1l847x_b8wc0000gn/T//ccFI0sM2.s:4872   .text.cmp_read_s32:0000000000000000 cmp_read_s32
/var/folders/d2/nstgp4h54kz7g1l847x_b8wc0000gn/T//ccFI0sM2.s:4913   .text.cmp_read_s64:0000000000000000 $t
/var/folders/d2/nstgp4h54kz7g1l847x_b8wc0000gn/T//ccFI0sM2.s:4920   .text.cmp_read_s64:0000000000000000 cmp_read_s64
/var/folders/d2/nstgp4h54kz7g1l847x_b8wc0000gn/T//ccFI0sM2.s:4961   .text.cmp_read_char:0000000000000000 $t
/var/folders/d2/nstgp4h54kz7g1l847x_b8wc0000gn/T//ccFI0sM2.s:4968   .text.cmp_read_char:0000000000000000 cmp_read_char
/var/folders/d2/nstgp4h54kz7g1l847x_b8wc0000gn/T//ccFI0sM2.s:4995   .text.cmp_read_char:0000000000000034 $d
/var/folders/d2/nstgp4h54kz7g1l847x_b8wc0000gn/T//ccFI0sM2.s:5030   .text.cmp_read_char:00000000000000c0 $t
/var/folders/d2/nstgp4h54kz7g1l847x_b8wc0000gn/T//ccFI0sM2.s:5061   .text.cmp_read_short:0000000000000000 $t
/var/folders/d2/nstgp4h54kz7g1l847x_b8wc0000gn/T//ccFI0sM2.s:5068   .text.cmp_read_short:0000000000000000 cmp_read_short
/var/folders/d2/nstgp4h54kz7g1l847x_b8wc0000gn/T//ccFI0sM2.s:5095   .text.cmp_read_short:0000000000000034 $d
/var/folders/d2/nstgp4h54kz7g1l847x_b8wc0000gn/T//ccFI0sM2.s:5130   .text.cmp_read_short:00000000000000c0 $t
/var/folders/d2/nstgp4h54kz7g1l847x_b8wc0000gn/T//ccFI0sM2.s:5175   .text.cmp_read_int:0000000000000000 $t
/var/folders/d2/nstgp4h54kz7g1l847x_b8wc0000gn/T//ccFI0sM2.s:5182   .text.cmp_read_int:0000000000000000 cmp_read_int
/var/folders/d2/nstgp4h54kz7g1l847x_b8wc0000gn/T//ccFI0sM2.s:5209   .text.cmp_read_int:0000000000000034 $d
/var/folders/d2/nstgp4h54kz7g1l847x_b8wc0000gn/T//ccFI0sM2.s:5244   .text.cmp_read_int:00000000000000c0 $t
/var/folders/d2/nstgp4h54kz7g1l847x_b8wc0000gn/T//ccFI0sM2.s:5302   .text.cmp_read_long:0000000000000000 $t
/var/folders/d2/nstgp4h54kz7g1l847x_b8wc0000gn/T//ccFI0sM2.s:5309   .text.cmp_read_long:0000000000000000 cmp_read_long
/var/folders/d2/nstgp4h54kz7g1l847x_b8wc0000gn/T//ccFI0sM2.s:5336   .text.cmp_read_long:0000000000000034 $d
/var/folders/d2/nstgp4h54kz7g1l847x_b8wc0000gn/T//ccFI0sM2.s:5371   .text.cmp_read_long:00000000000000c0 $t
/var/folders/d2/nstgp4h54kz7g1l847x_b8wc0000gn/T//ccFI0sM2.s:5447   .text.cmp_read_sinteger:0000000000000000 $t
/var/folders/d2/nstgp4h54kz7g1l847x_b8wc0000gn/T//ccFI0sM2.s:5454   .text.cmp_read_sinteger:0000000000000000 cmp_read_sinteger
/var/folders/d2/nstgp4h54kz7g1l847x_b8wc0000gn/T//ccFI0sM2.s:5473   .text.cmp_read_ufix:0000000000000000 $t
/var/folders/d2/nstgp4h54kz7g1l847x_b8wc0000gn/T//ccFI0sM2.s:5480   .text.cmp_read_ufix:0000000000000000 cmp_read_ufix
/var/folders/d2/nstgp4h54kz7g1l847x_b8wc0000gn/T//ccFI0sM2.s:5521   .text.cmp_read_u8:0000000000000000 $t
/var/folders/d2/nstgp4h54kz7g1l847x_b8wc0000gn/T//ccFI0sM2.s:5528   .text.cmp_read_u8:0000000000000000 cmp_read_u8
/var/folders/d2/nstgp4h54kz7g1l847x_b8wc0000gn/T//ccFI0sM2.s:5569   .text.cmp_read_u16:0000000000000000 $t
/var/folders/d2/nstgp4h54kz7g1l847x_b8wc0000gn/T//ccFI0sM2.s:5576   .text.cmp_read_u16:0000000000000000 cmp_read_u16
/var/folders/d2/nstgp4h54kz7g1l847x_b8wc0000gn/T//ccFI0sM2.s:5617   .text.cmp_read_u32:0000000000000000 $t
/var/folders/d2/nstgp4h54kz7g1l847x_b8wc0000gn/T//ccFI0sM2.s:5624   .text.cmp_read_u32:0000000000000000 cmp_read_u32
/var/folders/d2/nstgp4h54kz7g1l847x_b8wc0000gn/T//ccFI0sM2.s:5665   .text.cmp_read_u64:0000000000000000 $t
/var/folders/d2/nstgp4h54kz7g1l847x_b8wc0000gn/T//ccFI0sM2.s:5672   .text.cmp_read_u64:0000000000000000 cmp_read_u64
/var/folders/d2/nstgp4h54kz7g1l847x_b8wc0000gn/T//ccFI0sM2.s:5713   .text.cmp_read_uchar:0000000000000000 $t
/var/folders/d2/nstgp4h54kz7g1l847x_b8wc0000gn/T//ccFI0sM2.s:5720   .text.cmp_read_uchar:0000000000000000 cmp_read_uchar
/var/folders/d2/nstgp4h54kz7g1l847x_b8wc0000gn/T//ccFI0sM2.s:5764   .text.cmp_read_ushort:0000000000000000 $t
/var/folders/d2/nstgp4h54kz7g1l847x_b8wc0000gn/T//ccFI0sM2.s:5771   .text.cmp_read_ushort:0000000000000000 cmp_read_ushort
/var/folders/d2/nstgp4h54kz7g1l847x_b8wc0000gn/T//ccFI0sM2.s:5824   .text.cmp_read_uint:0000000000000000 $t
ARM GAS  /var/folders/d2/nstgp4h54kz7g1l847x_b8wc0000gn/T//ccFI0sM2.s 			page 191


/var/folders/d2/nstgp4h54kz7g1l847x_b8wc0000gn/T//ccFI0sM2.s:5831   .text.cmp_read_uint:0000000000000000 cmp_read_uint
/var/folders/d2/nstgp4h54kz7g1l847x_b8wc0000gn/T//ccFI0sM2.s:5858   .text.cmp_read_uint:0000000000000034 $d
/var/folders/d2/nstgp4h54kz7g1l847x_b8wc0000gn/T//ccFI0sM2.s:5875   .text.cmp_read_uint:0000000000000078 $t
/var/folders/d2/nstgp4h54kz7g1l847x_b8wc0000gn/T//ccFI0sM2.s:5909   .text.cmp_read_ulong:0000000000000000 $t
/var/folders/d2/nstgp4h54kz7g1l847x_b8wc0000gn/T//ccFI0sM2.s:5916   .text.cmp_read_ulong:0000000000000000 cmp_read_ulong
/var/folders/d2/nstgp4h54kz7g1l847x_b8wc0000gn/T//ccFI0sM2.s:5943   .text.cmp_read_ulong:0000000000000034 $d
/var/folders/d2/nstgp4h54kz7g1l847x_b8wc0000gn/T//ccFI0sM2.s:5961   .text.cmp_read_ulong:000000000000007c $t
/var/folders/d2/nstgp4h54kz7g1l847x_b8wc0000gn/T//ccFI0sM2.s:6004   .text.cmp_read_uinteger:0000000000000000 $t
/var/folders/d2/nstgp4h54kz7g1l847x_b8wc0000gn/T//ccFI0sM2.s:6011   .text.cmp_read_uinteger:0000000000000000 cmp_read_uinteger
/var/folders/d2/nstgp4h54kz7g1l847x_b8wc0000gn/T//ccFI0sM2.s:6031   .text.cmp_read_float:0000000000000000 $t
/var/folders/d2/nstgp4h54kz7g1l847x_b8wc0000gn/T//ccFI0sM2.s:6038   .text.cmp_read_float:0000000000000000 cmp_read_float
/var/folders/d2/nstgp4h54kz7g1l847x_b8wc0000gn/T//ccFI0sM2.s:6093   .text.cmp_read_double:0000000000000000 $t
/var/folders/d2/nstgp4h54kz7g1l847x_b8wc0000gn/T//ccFI0sM2.s:6100   .text.cmp_read_double:0000000000000000 cmp_read_double
/var/folders/d2/nstgp4h54kz7g1l847x_b8wc0000gn/T//ccFI0sM2.s:6154   .text.cmp_read_nil:0000000000000000 $t
/var/folders/d2/nstgp4h54kz7g1l847x_b8wc0000gn/T//ccFI0sM2.s:6161   .text.cmp_read_nil:0000000000000000 cmp_read_nil
/var/folders/d2/nstgp4h54kz7g1l847x_b8wc0000gn/T//ccFI0sM2.s:6198   .text.cmp_read_bool:0000000000000000 $t
/var/folders/d2/nstgp4h54kz7g1l847x_b8wc0000gn/T//ccFI0sM2.s:6205   .text.cmp_read_bool:0000000000000000 cmp_read_bool
/var/folders/d2/nstgp4h54kz7g1l847x_b8wc0000gn/T//ccFI0sM2.s:6255   .text.cmp_read_bool_as_u8:0000000000000000 $t
/var/folders/d2/nstgp4h54kz7g1l847x_b8wc0000gn/T//ccFI0sM2.s:6262   .text.cmp_read_bool_as_u8:0000000000000000 cmp_read_bool_as_u8
/var/folders/d2/nstgp4h54kz7g1l847x_b8wc0000gn/T//ccFI0sM2.s:6312   .text.cmp_read_str_size:0000000000000000 $t
/var/folders/d2/nstgp4h54kz7g1l847x_b8wc0000gn/T//ccFI0sM2.s:6319   .text.cmp_read_str_size:0000000000000000 cmp_read_str_size
/var/folders/d2/nstgp4h54kz7g1l847x_b8wc0000gn/T//ccFI0sM2.s:6366   .text.cmp_read_str:0000000000000000 $t
/var/folders/d2/nstgp4h54kz7g1l847x_b8wc0000gn/T//ccFI0sM2.s:6373   .text.cmp_read_str:0000000000000000 cmp_read_str
/var/folders/d2/nstgp4h54kz7g1l847x_b8wc0000gn/T//ccFI0sM2.s:6445   .text.cmp_read_bin_size:0000000000000000 $t
/var/folders/d2/nstgp4h54kz7g1l847x_b8wc0000gn/T//ccFI0sM2.s:6452   .text.cmp_read_bin_size:0000000000000000 cmp_read_bin_size
/var/folders/d2/nstgp4h54kz7g1l847x_b8wc0000gn/T//ccFI0sM2.s:6494   .text.cmp_read_bin:0000000000000000 $t
/var/folders/d2/nstgp4h54kz7g1l847x_b8wc0000gn/T//ccFI0sM2.s:6501   .text.cmp_read_bin:0000000000000000 cmp_read_bin
/var/folders/d2/nstgp4h54kz7g1l847x_b8wc0000gn/T//ccFI0sM2.s:6564   .text.cmp_read_array:0000000000000000 $t
/var/folders/d2/nstgp4h54kz7g1l847x_b8wc0000gn/T//ccFI0sM2.s:6571   .text.cmp_read_array:0000000000000000 cmp_read_array
/var/folders/d2/nstgp4h54kz7g1l847x_b8wc0000gn/T//ccFI0sM2.s:6618   .text.cmp_read_map:0000000000000000 $t
/var/folders/d2/nstgp4h54kz7g1l847x_b8wc0000gn/T//ccFI0sM2.s:6625   .text.cmp_read_map:0000000000000000 cmp_read_map
/var/folders/d2/nstgp4h54kz7g1l847x_b8wc0000gn/T//ccFI0sM2.s:6672   .text.cmp_read_fixext1_marker:0000000000000000 $t
/var/folders/d2/nstgp4h54kz7g1l847x_b8wc0000gn/T//ccFI0sM2.s:6679   .text.cmp_read_fixext1_marker:0000000000000000 cmp_read_fixext1_marker
/var/folders/d2/nstgp4h54kz7g1l847x_b8wc0000gn/T//ccFI0sM2.s:6720   .text.cmp_read_fixext1:0000000000000000 $t
/var/folders/d2/nstgp4h54kz7g1l847x_b8wc0000gn/T//ccFI0sM2.s:6727   .text.cmp_read_fixext1:0000000000000000 cmp_read_fixext1
/var/folders/d2/nstgp4h54kz7g1l847x_b8wc0000gn/T//ccFI0sM2.s:6771   .text.cmp_read_fixext2_marker:0000000000000000 $t
/var/folders/d2/nstgp4h54kz7g1l847x_b8wc0000gn/T//ccFI0sM2.s:6778   .text.cmp_read_fixext2_marker:0000000000000000 cmp_read_fixext2_marker
/var/folders/d2/nstgp4h54kz7g1l847x_b8wc0000gn/T//ccFI0sM2.s:6819   .text.cmp_read_fixext2:0000000000000000 $t
/var/folders/d2/nstgp4h54kz7g1l847x_b8wc0000gn/T//ccFI0sM2.s:6826   .text.cmp_read_fixext2:0000000000000000 cmp_read_fixext2
/var/folders/d2/nstgp4h54kz7g1l847x_b8wc0000gn/T//ccFI0sM2.s:6870   .text.cmp_read_fixext4_marker:0000000000000000 $t
/var/folders/d2/nstgp4h54kz7g1l847x_b8wc0000gn/T//ccFI0sM2.s:6877   .text.cmp_read_fixext4_marker:0000000000000000 cmp_read_fixext4_marker
/var/folders/d2/nstgp4h54kz7g1l847x_b8wc0000gn/T//ccFI0sM2.s:6918   .text.cmp_read_fixext4:0000000000000000 $t
/var/folders/d2/nstgp4h54kz7g1l847x_b8wc0000gn/T//ccFI0sM2.s:6925   .text.cmp_read_fixext4:0000000000000000 cmp_read_fixext4
/var/folders/d2/nstgp4h54kz7g1l847x_b8wc0000gn/T//ccFI0sM2.s:6969   .text.cmp_read_fixext8_marker:0000000000000000 $t
/var/folders/d2/nstgp4h54kz7g1l847x_b8wc0000gn/T//ccFI0sM2.s:6976   .text.cmp_read_fixext8_marker:0000000000000000 cmp_read_fixext8_marker
/var/folders/d2/nstgp4h54kz7g1l847x_b8wc0000gn/T//ccFI0sM2.s:7017   .text.cmp_read_fixext8:0000000000000000 $t
/var/folders/d2/nstgp4h54kz7g1l847x_b8wc0000gn/T//ccFI0sM2.s:7024   .text.cmp_read_fixext8:0000000000000000 cmp_read_fixext8
/var/folders/d2/nstgp4h54kz7g1l847x_b8wc0000gn/T//ccFI0sM2.s:7068   .text.cmp_read_fixext16_marker:0000000000000000 $t
/var/folders/d2/nstgp4h54kz7g1l847x_b8wc0000gn/T//ccFI0sM2.s:7075   .text.cmp_read_fixext16_marker:0000000000000000 cmp_read_fixext16_marker
/var/folders/d2/nstgp4h54kz7g1l847x_b8wc0000gn/T//ccFI0sM2.s:7116   .text.cmp_read_fixext16:0000000000000000 $t
/var/folders/d2/nstgp4h54kz7g1l847x_b8wc0000gn/T//ccFI0sM2.s:7123   .text.cmp_read_fixext16:0000000000000000 cmp_read_fixext16
/var/folders/d2/nstgp4h54kz7g1l847x_b8wc0000gn/T//ccFI0sM2.s:7167   .text.cmp_read_ext8_marker:0000000000000000 $t
/var/folders/d2/nstgp4h54kz7g1l847x_b8wc0000gn/T//ccFI0sM2.s:7174   .text.cmp_read_ext8_marker:0000000000000000 cmp_read_ext8_marker
/var/folders/d2/nstgp4h54kz7g1l847x_b8wc0000gn/T//ccFI0sM2.s:7220   .text.cmp_read_ext8:0000000000000000 $t
/var/folders/d2/nstgp4h54kz7g1l847x_b8wc0000gn/T//ccFI0sM2.s:7227   .text.cmp_read_ext8:0000000000000000 cmp_read_ext8
/var/folders/d2/nstgp4h54kz7g1l847x_b8wc0000gn/T//ccFI0sM2.s:7274   .text.cmp_read_ext16_marker:0000000000000000 $t
/var/folders/d2/nstgp4h54kz7g1l847x_b8wc0000gn/T//ccFI0sM2.s:7281   .text.cmp_read_ext16_marker:0000000000000000 cmp_read_ext16_marker
ARM GAS  /var/folders/d2/nstgp4h54kz7g1l847x_b8wc0000gn/T//ccFI0sM2.s 			page 192


/var/folders/d2/nstgp4h54kz7g1l847x_b8wc0000gn/T//ccFI0sM2.s:7327   .text.cmp_read_ext16:0000000000000000 $t
/var/folders/d2/nstgp4h54kz7g1l847x_b8wc0000gn/T//ccFI0sM2.s:7334   .text.cmp_read_ext16:0000000000000000 cmp_read_ext16
/var/folders/d2/nstgp4h54kz7g1l847x_b8wc0000gn/T//ccFI0sM2.s:7381   .text.cmp_read_ext32_marker:0000000000000000 $t
/var/folders/d2/nstgp4h54kz7g1l847x_b8wc0000gn/T//ccFI0sM2.s:7388   .text.cmp_read_ext32_marker:0000000000000000 cmp_read_ext32_marker
/var/folders/d2/nstgp4h54kz7g1l847x_b8wc0000gn/T//ccFI0sM2.s:7433   .text.cmp_read_ext32:0000000000000000 $t
/var/folders/d2/nstgp4h54kz7g1l847x_b8wc0000gn/T//ccFI0sM2.s:7440   .text.cmp_read_ext32:0000000000000000 cmp_read_ext32
/var/folders/d2/nstgp4h54kz7g1l847x_b8wc0000gn/T//ccFI0sM2.s:7487   .text.cmp_read_ext_marker:0000000000000000 $t
/var/folders/d2/nstgp4h54kz7g1l847x_b8wc0000gn/T//ccFI0sM2.s:7494   .text.cmp_read_ext_marker:0000000000000000 cmp_read_ext_marker
/var/folders/d2/nstgp4h54kz7g1l847x_b8wc0000gn/T//ccFI0sM2.s:7523   .text.cmp_read_ext_marker:0000000000000038 $d
/var/folders/d2/nstgp4h54kz7g1l847x_b8wc0000gn/T//ccFI0sM2.s:7541   .text.cmp_read_ext_marker:0000000000000080 $t
/var/folders/d2/nstgp4h54kz7g1l847x_b8wc0000gn/T//ccFI0sM2.s:7564   .text.cmp_read_ext:0000000000000000 $t
/var/folders/d2/nstgp4h54kz7g1l847x_b8wc0000gn/T//ccFI0sM2.s:7571   .text.cmp_read_ext:0000000000000000 cmp_read_ext
/var/folders/d2/nstgp4h54kz7g1l847x_b8wc0000gn/T//ccFI0sM2.s:7618   .text.cmp_read_object:0000000000000000 $t
/var/folders/d2/nstgp4h54kz7g1l847x_b8wc0000gn/T//ccFI0sM2.s:8704   .text.cmp_object_is_char:0000000000000000 $t
/var/folders/d2/nstgp4h54kz7g1l847x_b8wc0000gn/T//ccFI0sM2.s:8711   .text.cmp_object_is_char:0000000000000000 cmp_object_is_char
/var/folders/d2/nstgp4h54kz7g1l847x_b8wc0000gn/T//ccFI0sM2.s:8739   .text.cmp_object_is_short:0000000000000000 $t
/var/folders/d2/nstgp4h54kz7g1l847x_b8wc0000gn/T//ccFI0sM2.s:8746   .text.cmp_object_is_short:0000000000000000 cmp_object_is_short
/var/folders/d2/nstgp4h54kz7g1l847x_b8wc0000gn/T//ccFI0sM2.s:8776   .text.cmp_object_is_int:0000000000000000 $t
/var/folders/d2/nstgp4h54kz7g1l847x_b8wc0000gn/T//ccFI0sM2.s:8783   .text.cmp_object_is_int:0000000000000000 cmp_object_is_int
/var/folders/d2/nstgp4h54kz7g1l847x_b8wc0000gn/T//ccFI0sM2.s:8813   .text.cmp_object_is_long:0000000000000000 $t
/var/folders/d2/nstgp4h54kz7g1l847x_b8wc0000gn/T//ccFI0sM2.s:8820   .text.cmp_object_is_long:0000000000000000 cmp_object_is_long
/var/folders/d2/nstgp4h54kz7g1l847x_b8wc0000gn/T//ccFI0sM2.s:8850   .text.cmp_object_is_sinteger:0000000000000000 $t
/var/folders/d2/nstgp4h54kz7g1l847x_b8wc0000gn/T//ccFI0sM2.s:8857   .text.cmp_object_is_sinteger:0000000000000000 cmp_object_is_sinteger
/var/folders/d2/nstgp4h54kz7g1l847x_b8wc0000gn/T//ccFI0sM2.s:8874   .text.cmp_object_is_uchar:0000000000000000 $t
/var/folders/d2/nstgp4h54kz7g1l847x_b8wc0000gn/T//ccFI0sM2.s:8881   .text.cmp_object_is_uchar:0000000000000000 cmp_object_is_uchar
/var/folders/d2/nstgp4h54kz7g1l847x_b8wc0000gn/T//ccFI0sM2.s:8909   .text.cmp_object_is_ushort:0000000000000000 $t
/var/folders/d2/nstgp4h54kz7g1l847x_b8wc0000gn/T//ccFI0sM2.s:8916   .text.cmp_object_is_ushort:0000000000000000 cmp_object_is_ushort
/var/folders/d2/nstgp4h54kz7g1l847x_b8wc0000gn/T//ccFI0sM2.s:8949   .text.cmp_object_is_uint:0000000000000000 $t
/var/folders/d2/nstgp4h54kz7g1l847x_b8wc0000gn/T//ccFI0sM2.s:8956   .text.cmp_object_is_uint:0000000000000000 cmp_object_is_uint
/var/folders/d2/nstgp4h54kz7g1l847x_b8wc0000gn/T//ccFI0sM2.s:8987   .text.cmp_object_is_ulong:0000000000000000 $t
/var/folders/d2/nstgp4h54kz7g1l847x_b8wc0000gn/T//ccFI0sM2.s:8994   .text.cmp_object_is_ulong:0000000000000000 cmp_object_is_ulong
/var/folders/d2/nstgp4h54kz7g1l847x_b8wc0000gn/T//ccFI0sM2.s:9025   .text.cmp_object_is_uinteger:0000000000000000 $t
/var/folders/d2/nstgp4h54kz7g1l847x_b8wc0000gn/T//ccFI0sM2.s:9032   .text.cmp_object_is_uinteger:0000000000000000 cmp_object_is_uinteger
/var/folders/d2/nstgp4h54kz7g1l847x_b8wc0000gn/T//ccFI0sM2.s:9049   .text.cmp_object_is_float:0000000000000000 $t
/var/folders/d2/nstgp4h54kz7g1l847x_b8wc0000gn/T//ccFI0sM2.s:9056   .text.cmp_object_is_float:0000000000000000 cmp_object_is_float
/var/folders/d2/nstgp4h54kz7g1l847x_b8wc0000gn/T//ccFI0sM2.s:9081   .text.cmp_object_is_double:0000000000000000 $t
/var/folders/d2/nstgp4h54kz7g1l847x_b8wc0000gn/T//ccFI0sM2.s:9088   .text.cmp_object_is_double:0000000000000000 cmp_object_is_double
/var/folders/d2/nstgp4h54kz7g1l847x_b8wc0000gn/T//ccFI0sM2.s:9113   .text.cmp_object_is_nil:0000000000000000 $t
/var/folders/d2/nstgp4h54kz7g1l847x_b8wc0000gn/T//ccFI0sM2.s:9120   .text.cmp_object_is_nil:0000000000000000 cmp_object_is_nil
/var/folders/d2/nstgp4h54kz7g1l847x_b8wc0000gn/T//ccFI0sM2.s:9145   .text.cmp_object_is_bool:0000000000000000 $t
/var/folders/d2/nstgp4h54kz7g1l847x_b8wc0000gn/T//ccFI0sM2.s:9152   .text.cmp_object_is_bool:0000000000000000 cmp_object_is_bool
/var/folders/d2/nstgp4h54kz7g1l847x_b8wc0000gn/T//ccFI0sM2.s:9177   .text.cmp_object_is_str:0000000000000000 $t
/var/folders/d2/nstgp4h54kz7g1l847x_b8wc0000gn/T//ccFI0sM2.s:9184   .text.cmp_object_is_str:0000000000000000 cmp_object_is_str
/var/folders/d2/nstgp4h54kz7g1l847x_b8wc0000gn/T//ccFI0sM2.s:9215   .text.cmp_object_is_bin:0000000000000000 $t
/var/folders/d2/nstgp4h54kz7g1l847x_b8wc0000gn/T//ccFI0sM2.s:9222   .text.cmp_object_is_bin:0000000000000000 cmp_object_is_bin
/var/folders/d2/nstgp4h54kz7g1l847x_b8wc0000gn/T//ccFI0sM2.s:9248   .text.cmp_object_is_array:0000000000000000 $t
/var/folders/d2/nstgp4h54kz7g1l847x_b8wc0000gn/T//ccFI0sM2.s:9255   .text.cmp_object_is_array:0000000000000000 cmp_object_is_array
/var/folders/d2/nstgp4h54kz7g1l847x_b8wc0000gn/T//ccFI0sM2.s:9286   .text.cmp_object_is_map:0000000000000000 $t
/var/folders/d2/nstgp4h54kz7g1l847x_b8wc0000gn/T//ccFI0sM2.s:9293   .text.cmp_object_is_map:0000000000000000 cmp_object_is_map
/var/folders/d2/nstgp4h54kz7g1l847x_b8wc0000gn/T//ccFI0sM2.s:9324   .text.cmp_object_is_ext:0000000000000000 $t
/var/folders/d2/nstgp4h54kz7g1l847x_b8wc0000gn/T//ccFI0sM2.s:9331   .text.cmp_object_is_ext:0000000000000000 cmp_object_is_ext
/var/folders/d2/nstgp4h54kz7g1l847x_b8wc0000gn/T//ccFI0sM2.s:9348   .text.cmp_object_is_ext:0000000000000018 $d
/var/folders/d2/nstgp4h54kz7g1l847x_b8wc0000gn/T//ccFI0sM2.s:9366   .text.cmp_object_is_ext:0000000000000060 $t
/var/folders/d2/nstgp4h54kz7g1l847x_b8wc0000gn/T//ccFI0sM2.s:9381   .text.cmp_object_as_char:0000000000000000 $t
/var/folders/d2/nstgp4h54kz7g1l847x_b8wc0000gn/T//ccFI0sM2.s:9388   .text.cmp_object_as_char:0000000000000000 cmp_object_as_char
/var/folders/d2/nstgp4h54kz7g1l847x_b8wc0000gn/T//ccFI0sM2.s:9405   .text.cmp_object_as_char:0000000000000018 $d
/var/folders/d2/nstgp4h54kz7g1l847x_b8wc0000gn/T//ccFI0sM2.s:9440   .text.cmp_object_as_char:00000000000000a4 $t
ARM GAS  /var/folders/d2/nstgp4h54kz7g1l847x_b8wc0000gn/T//ccFI0sM2.s 			page 193


/var/folders/d2/nstgp4h54kz7g1l847x_b8wc0000gn/T//ccFI0sM2.s:9471   .text.cmp_object_as_short:0000000000000000 $t
/var/folders/d2/nstgp4h54kz7g1l847x_b8wc0000gn/T//ccFI0sM2.s:9478   .text.cmp_object_as_short:0000000000000000 cmp_object_as_short
/var/folders/d2/nstgp4h54kz7g1l847x_b8wc0000gn/T//ccFI0sM2.s:9495   .text.cmp_object_as_short:0000000000000018 $d
/var/folders/d2/nstgp4h54kz7g1l847x_b8wc0000gn/T//ccFI0sM2.s:9530   .text.cmp_object_as_short:00000000000000a4 $t
/var/folders/d2/nstgp4h54kz7g1l847x_b8wc0000gn/T//ccFI0sM2.s:9578   .text.cmp_object_as_int:0000000000000000 $t
/var/folders/d2/nstgp4h54kz7g1l847x_b8wc0000gn/T//ccFI0sM2.s:9585   .text.cmp_object_as_int:0000000000000000 cmp_object_as_int
/var/folders/d2/nstgp4h54kz7g1l847x_b8wc0000gn/T//ccFI0sM2.s:9602   .text.cmp_object_as_int:0000000000000018 $d
/var/folders/d2/nstgp4h54kz7g1l847x_b8wc0000gn/T//ccFI0sM2.s:9637   .text.cmp_object_as_int:00000000000000a4 $t
/var/folders/d2/nstgp4h54kz7g1l847x_b8wc0000gn/T//ccFI0sM2.s:9700   .text.cmp_object_as_long:0000000000000000 $t
/var/folders/d2/nstgp4h54kz7g1l847x_b8wc0000gn/T//ccFI0sM2.s:9707   .text.cmp_object_as_long:0000000000000000 cmp_object_as_long
/var/folders/d2/nstgp4h54kz7g1l847x_b8wc0000gn/T//ccFI0sM2.s:9724   .text.cmp_object_as_long:000000000000001c $d
/var/folders/d2/nstgp4h54kz7g1l847x_b8wc0000gn/T//ccFI0sM2.s:9759   .text.cmp_object_as_long:00000000000000a8 $t
/var/folders/d2/nstgp4h54kz7g1l847x_b8wc0000gn/T//ccFI0sM2.s:9842   .text.cmp_object_as_sinteger:0000000000000000 $t
/var/folders/d2/nstgp4h54kz7g1l847x_b8wc0000gn/T//ccFI0sM2.s:9849   .text.cmp_object_as_sinteger:0000000000000000 cmp_object_as_sinteger
/var/folders/d2/nstgp4h54kz7g1l847x_b8wc0000gn/T//ccFI0sM2.s:9868   .text.cmp_object_as_uchar:0000000000000000 $t
/var/folders/d2/nstgp4h54kz7g1l847x_b8wc0000gn/T//ccFI0sM2.s:9875   .text.cmp_object_as_uchar:0000000000000000 cmp_object_as_uchar
/var/folders/d2/nstgp4h54kz7g1l847x_b8wc0000gn/T//ccFI0sM2.s:9908   .text.cmp_object_as_ushort:0000000000000000 $t
/var/folders/d2/nstgp4h54kz7g1l847x_b8wc0000gn/T//ccFI0sM2.s:9915   .text.cmp_object_as_ushort:0000000000000000 cmp_object_as_ushort
/var/folders/d2/nstgp4h54kz7g1l847x_b8wc0000gn/T//ccFI0sM2.s:9958   .text.cmp_object_as_uint:0000000000000000 $t
/var/folders/d2/nstgp4h54kz7g1l847x_b8wc0000gn/T//ccFI0sM2.s:9965   .text.cmp_object_as_uint:0000000000000000 cmp_object_as_uint
/var/folders/d2/nstgp4h54kz7g1l847x_b8wc0000gn/T//ccFI0sM2.s:9982   .text.cmp_object_as_uint:0000000000000018 $d
/var/folders/d2/nstgp4h54kz7g1l847x_b8wc0000gn/T//ccFI0sM2.s:9999   .text.cmp_object_as_uint:000000000000005c $t
/var/folders/d2/nstgp4h54kz7g1l847x_b8wc0000gn/T//ccFI0sM2.s:10034  .text.cmp_object_as_ulong:0000000000000000 $t
/var/folders/d2/nstgp4h54kz7g1l847x_b8wc0000gn/T//ccFI0sM2.s:10041  .text.cmp_object_as_ulong:0000000000000000 cmp_object_as_ulong
/var/folders/d2/nstgp4h54kz7g1l847x_b8wc0000gn/T//ccFI0sM2.s:10058  .text.cmp_object_as_ulong:0000000000000018 $d
/var/folders/d2/nstgp4h54kz7g1l847x_b8wc0000gn/T//ccFI0sM2.s:10076  .text.cmp_object_as_ulong:0000000000000060 $t
/var/folders/d2/nstgp4h54kz7g1l847x_b8wc0000gn/T//ccFI0sM2.s:10121  .text.cmp_object_as_uinteger:0000000000000000 $t
/var/folders/d2/nstgp4h54kz7g1l847x_b8wc0000gn/T//ccFI0sM2.s:10128  .text.cmp_object_as_uinteger:0000000000000000 cmp_object_as_uinteger
/var/folders/d2/nstgp4h54kz7g1l847x_b8wc0000gn/T//ccFI0sM2.s:10147  .text.cmp_object_as_float:0000000000000000 $t
/var/folders/d2/nstgp4h54kz7g1l847x_b8wc0000gn/T//ccFI0sM2.s:10154  .text.cmp_object_as_float:0000000000000000 cmp_object_as_float
/var/folders/d2/nstgp4h54kz7g1l847x_b8wc0000gn/T//ccFI0sM2.s:10184  .text.cmp_object_as_double:0000000000000000 $t
/var/folders/d2/nstgp4h54kz7g1l847x_b8wc0000gn/T//ccFI0sM2.s:10191  .text.cmp_object_as_double:0000000000000000 cmp_object_as_double
/var/folders/d2/nstgp4h54kz7g1l847x_b8wc0000gn/T//ccFI0sM2.s:10221  .text.cmp_object_as_bool:0000000000000000 $t
/var/folders/d2/nstgp4h54kz7g1l847x_b8wc0000gn/T//ccFI0sM2.s:10228  .text.cmp_object_as_bool:0000000000000000 cmp_object_as_bool
/var/folders/d2/nstgp4h54kz7g1l847x_b8wc0000gn/T//ccFI0sM2.s:10267  .text.cmp_object_as_str:0000000000000000 $t
/var/folders/d2/nstgp4h54kz7g1l847x_b8wc0000gn/T//ccFI0sM2.s:10274  .text.cmp_object_as_str:0000000000000000 cmp_object_as_str
/var/folders/d2/nstgp4h54kz7g1l847x_b8wc0000gn/T//ccFI0sM2.s:10310  .text.cmp_object_as_bin:0000000000000000 $t
/var/folders/d2/nstgp4h54kz7g1l847x_b8wc0000gn/T//ccFI0sM2.s:10317  .text.cmp_object_as_bin:0000000000000000 cmp_object_as_bin
/var/folders/d2/nstgp4h54kz7g1l847x_b8wc0000gn/T//ccFI0sM2.s:10348  .text.cmp_object_as_array:0000000000000000 $t
/var/folders/d2/nstgp4h54kz7g1l847x_b8wc0000gn/T//ccFI0sM2.s:10355  .text.cmp_object_as_array:0000000000000000 cmp_object_as_array
/var/folders/d2/nstgp4h54kz7g1l847x_b8wc0000gn/T//ccFI0sM2.s:10391  .text.cmp_object_as_map:0000000000000000 $t
/var/folders/d2/nstgp4h54kz7g1l847x_b8wc0000gn/T//ccFI0sM2.s:10398  .text.cmp_object_as_map:0000000000000000 cmp_object_as_map
/var/folders/d2/nstgp4h54kz7g1l847x_b8wc0000gn/T//ccFI0sM2.s:10434  .text.cmp_object_as_ext:0000000000000000 $t
/var/folders/d2/nstgp4h54kz7g1l847x_b8wc0000gn/T//ccFI0sM2.s:10441  .text.cmp_object_as_ext:0000000000000000 cmp_object_as_ext
/var/folders/d2/nstgp4h54kz7g1l847x_b8wc0000gn/T//ccFI0sM2.s:10460  .text.cmp_object_as_ext:000000000000001c $d
/var/folders/d2/nstgp4h54kz7g1l847x_b8wc0000gn/T//ccFI0sM2.s:10478  .text.cmp_object_as_ext:0000000000000064 $t

UNDEFINED SYMBOLS
__aeabi_d2f
__aeabi_f2d
