ARM GAS  /var/folders/d2/nstgp4h54kz7g1l847x_b8wc0000gn/T//ccmhzgVj.s 			page 1


   1              		.cpu cortex-m4
   2              		.eabi_attribute 27, 1
   3              		.eabi_attribute 28, 1
   4              		.eabi_attribute 20, 1
   5              		.eabi_attribute 21, 1
   6              		.eabi_attribute 23, 3
   7              		.eabi_attribute 24, 1
   8              		.eabi_attribute 25, 1
   9              		.eabi_attribute 26, 1
  10              		.eabi_attribute 30, 6
  11              		.eabi_attribute 34, 1
  12              		.eabi_attribute 18, 4
  13              		.file	"communication.c"
  14              		.section	.text.chVTGetSystemTimeX,"ax",%progbits
  15              		.align	1
  16              		.syntax unified
  17              		.thumb
  18              		.thumb_func
  19              		.fpu fpv4-sp-d16
  20              		.type	chVTGetSystemTimeX, %function
  21              	chVTGetSystemTimeX:
  22              		@ args = 0, pretend = 0, frame = 0
  23              		@ frame_needed = 1, uses_anonymous_args = 0
  24              		@ link register save eliminated.
  25 0000 80B4     		push	{r7}
  26 0002 00AF     		add	r7, sp, #0
  27 0004 034B     		ldr	r3, .L3
  28 0006 9B6A     		ldr	r3, [r3, #40]
  29 0008 1846     		mov	r0, r3
  30 000a BD46     		mov	sp, r7
  31              		@ sp needed
  32 000c 5DF8047B 		ldr	r7, [sp], #4
  33 0010 7047     		bx	lr
  34              	.L4:
  35 0012 00BF     		.align	2
  36              	.L3:
  37 0014 00000000 		.word	ch
  38              		.size	chVTGetSystemTimeX, .-chVTGetSystemTimeX
  39              		.section	.text.chRegSetThreadName,"ax",%progbits
  40              		.align	1
  41              		.syntax unified
  42              		.thumb
  43              		.thumb_func
  44              		.fpu fpv4-sp-d16
  45              		.type	chRegSetThreadName, %function
  46              	chRegSetThreadName:
  47              		@ args = 0, pretend = 0, frame = 8
  48              		@ frame_needed = 1, uses_anonymous_args = 0
  49              		@ link register save eliminated.
  50 0000 80B4     		push	{r7}
  51 0002 83B0     		sub	sp, sp, #12
  52 0004 00AF     		add	r7, sp, #0
  53 0006 7860     		str	r0, [r7, #4]
  54 0008 044B     		ldr	r3, .L6
  55 000a 9B69     		ldr	r3, [r3, #24]
  56 000c 7A68     		ldr	r2, [r7, #4]
  57 000e 9A61     		str	r2, [r3, #24]
ARM GAS  /var/folders/d2/nstgp4h54kz7g1l847x_b8wc0000gn/T//ccmhzgVj.s 			page 2


  58 0010 00BF     		nop
  59 0012 0C37     		adds	r7, r7, #12
  60 0014 BD46     		mov	sp, r7
  61              		@ sp needed
  62 0016 5DF8047B 		ldr	r7, [sp], #4
  63 001a 7047     		bx	lr
  64              	.L7:
  65              		.align	2
  66              	.L6:
  67 001c 00000000 		.word	ch
  68              		.size	chRegSetThreadName, .-chRegSetThreadName
  69              		.section	.bss.send_lock,"aw",%nobits
  70              		.align	2
  71              		.type	send_lock, %object
  72              		.size	send_lock, 20
  73              	send_lock:
  74 0000 00000000 		.space	20
  74      00000000 
  74      00000000 
  74      00000000 
  74      00000000 
  75              		.global	messagebus
  76              		.section	.bss.messagebus,"aw",%nobits
  77              		.align	2
  78              		.type	messagebus, %object
  79              		.size	messagebus, 12
  80              	messagebus:
  81 0000 00000000 		.space	12
  81      00000000 
  81      00000000 
  82              		.section	.text._stream_values_sndfn,"ax",%progbits
  83              		.align	1
  84              		.syntax unified
  85              		.thumb
  86              		.thumb_func
  87              		.fpu fpv4-sp-d16
  88              		.type	_stream_values_sndfn, %function
  89              	_stream_values_sndfn:
  90              		@ args = 0, pretend = 0, frame = 16
  91              		@ frame_needed = 1, uses_anonymous_args = 0
  92 0000 80B5     		push	{r7, lr}
  93 0002 84B0     		sub	sp, sp, #16
  94 0004 00AF     		add	r7, sp, #0
  95 0006 F860     		str	r0, [r7, #12]
  96 0008 B960     		str	r1, [r7, #8]
  97 000a 7A60     		str	r2, [r7, #4]
  98 000c 7B68     		ldr	r3, [r7, #4]
  99 000e 002B     		cmp	r3, #0
 100 0010 06D0     		beq	.L10
 101 0012 FB68     		ldr	r3, [r7, #12]
 102 0014 1B68     		ldr	r3, [r3]
 103 0016 1B68     		ldr	r3, [r3]
 104 0018 7A68     		ldr	r2, [r7, #4]
 105 001a B968     		ldr	r1, [r7, #8]
 106 001c F868     		ldr	r0, [r7, #12]
 107 001e 9847     		blx	r3
 108              	.L10:
ARM GAS  /var/folders/d2/nstgp4h54kz7g1l847x_b8wc0000gn/T//ccmhzgVj.s 			page 3


 109 0020 00BF     		nop
 110 0022 1037     		adds	r7, r7, #16
 111 0024 BD46     		mov	sp, r7
 112              		@ sp needed
 113 0026 80BD     		pop	{r7, pc}
 114              		.size	_stream_values_sndfn, .-_stream_values_sndfn
 115              		.section	.rodata
 116              		.align	2
 117              	.LC0:
 118 0000 64697374 		.ascii	"dist\000"
 118      00
 119              		.section	.text.send_distance_sensor,"ax",%progbits
 120              		.align	1
 121              		.syntax unified
 122              		.thumb
 123              		.thumb_func
 124              		.fpu fpv4-sp-d16
 125              		.type	send_distance_sensor, %function
 126              	send_distance_sensor:
 127              		@ args = 0, pretend = 0, frame = 16
 128              		@ frame_needed = 1, uses_anonymous_args = 0
 129 0000 80B5     		push	{r7, lr}
 130 0002 84B0     		sub	sp, sp, #16
 131 0004 00AF     		add	r7, sp, #0
 132 0006 7860     		str	r0, [r7, #4]
 133 0008 0023     		movs	r3, #0
 134 000a FB73     		strb	r3, [r7, #15]
 135 000c FB7B     		ldrb	r3, [r7, #15]	@ zero_extendqisi2
 136 000e 002B     		cmp	r3, #0
 137 0010 09D1     		bne	.L12
 138 0012 0121     		movs	r1, #1
 139 0014 7868     		ldr	r0, [r7, #4]
 140 0016 FFF7FEFF 		bl	cmp_write_map
 141 001a 0346     		mov	r3, r0
 142 001c 83F00103 		eor	r3, r3, #1
 143 0020 DBB2     		uxtb	r3, r3
 144 0022 002B     		cmp	r3, #0
 145 0024 01D0     		beq	.L13
 146              	.L12:
 147 0026 0123     		movs	r3, #1
 148 0028 00E0     		b	.L14
 149              	.L13:
 150 002a 0023     		movs	r3, #0
 151              	.L14:
 152 002c FB73     		strb	r3, [r7, #15]
 153 002e FB7B     		ldrb	r3, [r7, #15]
 154 0030 03F00103 		and	r3, r3, #1
 155 0034 FB73     		strb	r3, [r7, #15]
 156 0036 1C4B     		ldr	r3, .L22
 157 0038 BB60     		str	r3, [r7, #8]
 158 003a FB7B     		ldrb	r3, [r7, #15]	@ zero_extendqisi2
 159 003c 002B     		cmp	r3, #0
 160 003e 0ED1     		bne	.L15
 161 0040 B868     		ldr	r0, [r7, #8]
 162 0042 FFF7FEFF 		bl	strlen
 163 0046 0346     		mov	r3, r0
 164 0048 1A46     		mov	r2, r3
ARM GAS  /var/folders/d2/nstgp4h54kz7g1l847x_b8wc0000gn/T//ccmhzgVj.s 			page 4


 165 004a B968     		ldr	r1, [r7, #8]
 166 004c 7868     		ldr	r0, [r7, #4]
 167 004e FFF7FEFF 		bl	cmp_write_str
 168 0052 0346     		mov	r3, r0
 169 0054 83F00103 		eor	r3, r3, #1
 170 0058 DBB2     		uxtb	r3, r3
 171 005a 002B     		cmp	r3, #0
 172 005c 01D0     		beq	.L16
 173              	.L15:
 174 005e 0123     		movs	r3, #1
 175 0060 00E0     		b	.L17
 176              	.L16:
 177 0062 0023     		movs	r3, #0
 178              	.L17:
 179 0064 FB73     		strb	r3, [r7, #15]
 180 0066 FB7B     		ldrb	r3, [r7, #15]
 181 0068 03F00103 		and	r3, r3, #1
 182 006c FB73     		strb	r3, [r7, #15]
 183 006e FB7B     		ldrb	r3, [r7, #15]	@ zero_extendqisi2
 184 0070 002B     		cmp	r3, #0
 185 0072 0CD1     		bne	.L18
 186 0074 FFF7FEFF 		bl	VL53L0X_get_dist_mm
 187 0078 0346     		mov	r3, r0
 188 007a 1946     		mov	r1, r3
 189 007c 7868     		ldr	r0, [r7, #4]
 190 007e FFF7FEFF 		bl	cmp_write_u16
 191 0082 0346     		mov	r3, r0
 192 0084 83F00103 		eor	r3, r3, #1
 193 0088 DBB2     		uxtb	r3, r3
 194 008a 002B     		cmp	r3, #0
 195 008c 01D0     		beq	.L19
 196              	.L18:
 197 008e 0123     		movs	r3, #1
 198 0090 00E0     		b	.L20
 199              	.L19:
 200 0092 0023     		movs	r3, #0
 201              	.L20:
 202 0094 FB73     		strb	r3, [r7, #15]
 203 0096 FB7B     		ldrb	r3, [r7, #15]
 204 0098 03F00103 		and	r3, r3, #1
 205 009c FB73     		strb	r3, [r7, #15]
 206 009e FB7B     		ldrb	r3, [r7, #15]	@ zero_extendqisi2
 207 00a0 1846     		mov	r0, r3
 208 00a2 1037     		adds	r7, r7, #16
 209 00a4 BD46     		mov	sp, r7
 210              		@ sp needed
 211 00a6 80BD     		pop	{r7, pc}
 212              	.L23:
 213              		.align	2
 214              	.L22:
 215 00a8 00000000 		.word	.LC0
 216              		.size	send_distance_sensor, .-send_distance_sensor
 217              		.section	.rodata
 218 0005 000000   		.align	2
 219              	.LC1:
 220 0008 62617474 		.ascii	"batt\000"
 220      00
ARM GAS  /var/folders/d2/nstgp4h54kz7g1l847x_b8wc0000gn/T//ccmhzgVj.s 			page 5


 221              		.section	.text.send_battery_voltage,"ax",%progbits
 222              		.align	1
 223              		.syntax unified
 224              		.thumb
 225              		.thumb_func
 226              		.fpu fpv4-sp-d16
 227              		.type	send_battery_voltage, %function
 228              	send_battery_voltage:
 229              		@ args = 0, pretend = 0, frame = 16
 230              		@ frame_needed = 1, uses_anonymous_args = 0
 231 0000 80B5     		push	{r7, lr}
 232 0002 84B0     		sub	sp, sp, #16
 233 0004 00AF     		add	r7, sp, #0
 234 0006 7860     		str	r0, [r7, #4]
 235 0008 0023     		movs	r3, #0
 236 000a FB73     		strb	r3, [r7, #15]
 237 000c FB7B     		ldrb	r3, [r7, #15]	@ zero_extendqisi2
 238 000e 002B     		cmp	r3, #0
 239 0010 09D1     		bne	.L25
 240 0012 0121     		movs	r1, #1
 241 0014 7868     		ldr	r0, [r7, #4]
 242 0016 FFF7FEFF 		bl	cmp_write_map
 243 001a 0346     		mov	r3, r0
 244 001c 83F00103 		eor	r3, r3, #1
 245 0020 DBB2     		uxtb	r3, r3
 246 0022 002B     		cmp	r3, #0
 247 0024 01D0     		beq	.L26
 248              	.L25:
 249 0026 0123     		movs	r3, #1
 250 0028 00E0     		b	.L27
 251              	.L26:
 252 002a 0023     		movs	r3, #0
 253              	.L27:
 254 002c FB73     		strb	r3, [r7, #15]
 255 002e FB7B     		ldrb	r3, [r7, #15]
 256 0030 03F00103 		and	r3, r3, #1
 257 0034 FB73     		strb	r3, [r7, #15]
 258 0036 1D4B     		ldr	r3, .L35
 259 0038 BB60     		str	r3, [r7, #8]
 260 003a FB7B     		ldrb	r3, [r7, #15]	@ zero_extendqisi2
 261 003c 002B     		cmp	r3, #0
 262 003e 0ED1     		bne	.L28
 263 0040 B868     		ldr	r0, [r7, #8]
 264 0042 FFF7FEFF 		bl	strlen
 265 0046 0346     		mov	r3, r0
 266 0048 1A46     		mov	r2, r3
 267 004a B968     		ldr	r1, [r7, #8]
 268 004c 7868     		ldr	r0, [r7, #4]
 269 004e FFF7FEFF 		bl	cmp_write_str
 270 0052 0346     		mov	r3, r0
 271 0054 83F00103 		eor	r3, r3, #1
 272 0058 DBB2     		uxtb	r3, r3
 273 005a 002B     		cmp	r3, #0
 274 005c 01D0     		beq	.L29
 275              	.L28:
 276 005e 0123     		movs	r3, #1
 277 0060 00E0     		b	.L30
ARM GAS  /var/folders/d2/nstgp4h54kz7g1l847x_b8wc0000gn/T//ccmhzgVj.s 			page 6


 278              	.L29:
 279 0062 0023     		movs	r3, #0
 280              	.L30:
 281 0064 FB73     		strb	r3, [r7, #15]
 282 0066 FB7B     		ldrb	r3, [r7, #15]
 283 0068 03F00103 		and	r3, r3, #1
 284 006c FB73     		strb	r3, [r7, #15]
 285 006e FB7B     		ldrb	r3, [r7, #15]	@ zero_extendqisi2
 286 0070 002B     		cmp	r3, #0
 287 0072 0ED1     		bne	.L31
 288 0074 FFF7FEFF 		bl	get_battery_voltage
 289 0078 F0EE407A 		vmov.f32	s15, s0
 290 007c B0EE670A 		vmov.f32	s0, s15
 291 0080 7868     		ldr	r0, [r7, #4]
 292 0082 FFF7FEFF 		bl	cmp_write_float
 293 0086 0346     		mov	r3, r0
 294 0088 83F00103 		eor	r3, r3, #1
 295 008c DBB2     		uxtb	r3, r3
 296 008e 002B     		cmp	r3, #0
 297 0090 01D0     		beq	.L32
 298              	.L31:
 299 0092 0123     		movs	r3, #1
 300 0094 00E0     		b	.L33
 301              	.L32:
 302 0096 0023     		movs	r3, #0
 303              	.L33:
 304 0098 FB73     		strb	r3, [r7, #15]
 305 009a FB7B     		ldrb	r3, [r7, #15]
 306 009c 03F00103 		and	r3, r3, #1
 307 00a0 FB73     		strb	r3, [r7, #15]
 308 00a2 FB7B     		ldrb	r3, [r7, #15]	@ zero_extendqisi2
 309 00a4 1846     		mov	r0, r3
 310 00a6 1037     		adds	r7, r7, #16
 311 00a8 BD46     		mov	sp, r7
 312              		@ sp needed
 313 00aa 80BD     		pop	{r7, pc}
 314              	.L36:
 315              		.align	2
 316              	.L35:
 317 00ac 08000000 		.word	.LC1
 318              		.size	send_battery_voltage, .-send_battery_voltage
 319              		.section	.rodata
 320 000d 000000   		.align	2
 321              	.LC2:
 322 0010 6779726F 		.ascii	"gyro\000"
 322      00
 323 0015 000000   		.align	2
 324              	.LC3:
 325 0018 61636300 		.ascii	"acc\000"
 326              		.align	2
 327              	.LC4:
 328 001c 74696D65 		.ascii	"time\000"
 328      00
 329              		.section	.text.send_imu,"ax",%progbits
 330              		.align	1
 331              		.syntax unified
 332              		.thumb
ARM GAS  /var/folders/d2/nstgp4h54kz7g1l847x_b8wc0000gn/T//ccmhzgVj.s 			page 7


 333              		.thumb_func
 334              		.fpu fpv4-sp-d16
 335              		.type	send_imu, %function
 336              	send_imu:
 337              		@ args = 0, pretend = 0, frame = 32
 338              		@ frame_needed = 1, uses_anonymous_args = 0
 339 0000 80B5     		push	{r7, lr}
 340 0002 88B0     		sub	sp, sp, #32
 341 0004 00AF     		add	r7, sp, #0
 342 0006 7860     		str	r0, [r7, #4]
 343 0008 3960     		str	r1, [r7]
 344 000a FFF7FEFF 		bl	chVTGetSystemTimeX
 345 000e 07EE900A 		vmov	s15, r0	@ int
 346 0012 B8EE677A 		vcvt.f32.u32	s14, s15
 347 0016 DFEDA66A 		vldr.32	s13, .L78
 348 001a C7EE267A 		vdiv.f32	s15, s14, s13
 349 001e C7ED077A 		vstr.32	s15, [r7, #28]
 350 0022 0023     		movs	r3, #0
 351 0024 FB76     		strb	r3, [r7, #27]
 352 0026 FB7E     		ldrb	r3, [r7, #27]	@ zero_extendqisi2
 353 0028 002B     		cmp	r3, #0
 354 002a 09D1     		bne	.L38
 355 002c 0321     		movs	r1, #3
 356 002e 7868     		ldr	r0, [r7, #4]
 357 0030 FFF7FEFF 		bl	cmp_write_map
 358 0034 0346     		mov	r3, r0
 359 0036 83F00103 		eor	r3, r3, #1
 360 003a DBB2     		uxtb	r3, r3
 361 003c 002B     		cmp	r3, #0
 362 003e 01D0     		beq	.L39
 363              	.L38:
 364 0040 0123     		movs	r3, #1
 365 0042 00E0     		b	.L40
 366              	.L39:
 367 0044 0023     		movs	r3, #0
 368              	.L40:
 369 0046 FB76     		strb	r3, [r7, #27]
 370 0048 FB7E     		ldrb	r3, [r7, #27]
 371 004a 03F00103 		and	r3, r3, #1
 372 004e FB76     		strb	r3, [r7, #27]
 373 0050 984B     		ldr	r3, .L78+4
 374 0052 7B61     		str	r3, [r7, #20]
 375 0054 FB7E     		ldrb	r3, [r7, #27]	@ zero_extendqisi2
 376 0056 002B     		cmp	r3, #0
 377 0058 0ED1     		bne	.L41
 378 005a 7869     		ldr	r0, [r7, #20]
 379 005c FFF7FEFF 		bl	strlen
 380 0060 0346     		mov	r3, r0
 381 0062 1A46     		mov	r2, r3
 382 0064 7969     		ldr	r1, [r7, #20]
 383 0066 7868     		ldr	r0, [r7, #4]
 384 0068 FFF7FEFF 		bl	cmp_write_str
 385 006c 0346     		mov	r3, r0
 386 006e 83F00103 		eor	r3, r3, #1
 387 0072 DBB2     		uxtb	r3, r3
 388 0074 002B     		cmp	r3, #0
 389 0076 01D0     		beq	.L42
ARM GAS  /var/folders/d2/nstgp4h54kz7g1l847x_b8wc0000gn/T//ccmhzgVj.s 			page 8


 390              	.L41:
 391 0078 0123     		movs	r3, #1
 392 007a 00E0     		b	.L43
 393              	.L42:
 394 007c 0023     		movs	r3, #0
 395              	.L43:
 396 007e FB76     		strb	r3, [r7, #27]
 397 0080 FB7E     		ldrb	r3, [r7, #27]
 398 0082 03F00103 		and	r3, r3, #1
 399 0086 FB76     		strb	r3, [r7, #27]
 400 0088 FB7E     		ldrb	r3, [r7, #27]	@ zero_extendqisi2
 401 008a 002B     		cmp	r3, #0
 402 008c 09D1     		bne	.L44
 403 008e 0321     		movs	r1, #3
 404 0090 7868     		ldr	r0, [r7, #4]
 405 0092 FFF7FEFF 		bl	cmp_write_array
 406 0096 0346     		mov	r3, r0
 407 0098 83F00103 		eor	r3, r3, #1
 408 009c DBB2     		uxtb	r3, r3
 409 009e 002B     		cmp	r3, #0
 410 00a0 01D0     		beq	.L45
 411              	.L44:
 412 00a2 0123     		movs	r3, #1
 413 00a4 00E0     		b	.L46
 414              	.L45:
 415 00a6 0023     		movs	r3, #0
 416              	.L46:
 417 00a8 FB76     		strb	r3, [r7, #27]
 418 00aa FB7E     		ldrb	r3, [r7, #27]
 419 00ac 03F00103 		and	r3, r3, #1
 420 00b0 FB76     		strb	r3, [r7, #27]
 421 00b2 FB7E     		ldrb	r3, [r7, #27]	@ zero_extendqisi2
 422 00b4 002B     		cmp	r3, #0
 423 00b6 0DD1     		bne	.L47
 424 00b8 3B68     		ldr	r3, [r7]
 425 00ba D3ED037A 		vldr.32	s15, [r3, #12]
 426 00be B0EE670A 		vmov.f32	s0, s15
 427 00c2 7868     		ldr	r0, [r7, #4]
 428 00c4 FFF7FEFF 		bl	cmp_write_float
 429 00c8 0346     		mov	r3, r0
 430 00ca 83F00103 		eor	r3, r3, #1
 431 00ce DBB2     		uxtb	r3, r3
 432 00d0 002B     		cmp	r3, #0
 433 00d2 01D0     		beq	.L48
 434              	.L47:
 435 00d4 0123     		movs	r3, #1
 436 00d6 00E0     		b	.L49
 437              	.L48:
 438 00d8 0023     		movs	r3, #0
 439              	.L49:
 440 00da FB76     		strb	r3, [r7, #27]
 441 00dc FB7E     		ldrb	r3, [r7, #27]
 442 00de 03F00103 		and	r3, r3, #1
 443 00e2 FB76     		strb	r3, [r7, #27]
 444 00e4 FB7E     		ldrb	r3, [r7, #27]	@ zero_extendqisi2
 445 00e6 002B     		cmp	r3, #0
 446 00e8 0DD1     		bne	.L50
ARM GAS  /var/folders/d2/nstgp4h54kz7g1l847x_b8wc0000gn/T//ccmhzgVj.s 			page 9


 447 00ea 3B68     		ldr	r3, [r7]
 448 00ec D3ED047A 		vldr.32	s15, [r3, #16]
 449 00f0 B0EE670A 		vmov.f32	s0, s15
 450 00f4 7868     		ldr	r0, [r7, #4]
 451 00f6 FFF7FEFF 		bl	cmp_write_float
 452 00fa 0346     		mov	r3, r0
 453 00fc 83F00103 		eor	r3, r3, #1
 454 0100 DBB2     		uxtb	r3, r3
 455 0102 002B     		cmp	r3, #0
 456 0104 01D0     		beq	.L51
 457              	.L50:
 458 0106 0123     		movs	r3, #1
 459 0108 00E0     		b	.L52
 460              	.L51:
 461 010a 0023     		movs	r3, #0
 462              	.L52:
 463 010c FB76     		strb	r3, [r7, #27]
 464 010e FB7E     		ldrb	r3, [r7, #27]
 465 0110 03F00103 		and	r3, r3, #1
 466 0114 FB76     		strb	r3, [r7, #27]
 467 0116 FB7E     		ldrb	r3, [r7, #27]	@ zero_extendqisi2
 468 0118 002B     		cmp	r3, #0
 469 011a 0DD1     		bne	.L53
 470 011c 3B68     		ldr	r3, [r7]
 471 011e D3ED057A 		vldr.32	s15, [r3, #20]
 472 0122 B0EE670A 		vmov.f32	s0, s15
 473 0126 7868     		ldr	r0, [r7, #4]
 474 0128 FFF7FEFF 		bl	cmp_write_float
 475 012c 0346     		mov	r3, r0
 476 012e 83F00103 		eor	r3, r3, #1
 477 0132 DBB2     		uxtb	r3, r3
 478 0134 002B     		cmp	r3, #0
 479 0136 01D0     		beq	.L54
 480              	.L53:
 481 0138 0123     		movs	r3, #1
 482 013a 00E0     		b	.L55
 483              	.L54:
 484 013c 0023     		movs	r3, #0
 485              	.L55:
 486 013e FB76     		strb	r3, [r7, #27]
 487 0140 FB7E     		ldrb	r3, [r7, #27]
 488 0142 03F00103 		and	r3, r3, #1
 489 0146 FB76     		strb	r3, [r7, #27]
 490 0148 5B4B     		ldr	r3, .L78+8
 491 014a 3B61     		str	r3, [r7, #16]
 492 014c FB7E     		ldrb	r3, [r7, #27]	@ zero_extendqisi2
 493 014e 002B     		cmp	r3, #0
 494 0150 0ED1     		bne	.L56
 495 0152 3869     		ldr	r0, [r7, #16]
 496 0154 FFF7FEFF 		bl	strlen
 497 0158 0346     		mov	r3, r0
 498 015a 1A46     		mov	r2, r3
 499 015c 3969     		ldr	r1, [r7, #16]
 500 015e 7868     		ldr	r0, [r7, #4]
 501 0160 FFF7FEFF 		bl	cmp_write_str
 502 0164 0346     		mov	r3, r0
 503 0166 83F00103 		eor	r3, r3, #1
ARM GAS  /var/folders/d2/nstgp4h54kz7g1l847x_b8wc0000gn/T//ccmhzgVj.s 			page 10


 504 016a DBB2     		uxtb	r3, r3
 505 016c 002B     		cmp	r3, #0
 506 016e 01D0     		beq	.L57
 507              	.L56:
 508 0170 0123     		movs	r3, #1
 509 0172 00E0     		b	.L58
 510              	.L57:
 511 0174 0023     		movs	r3, #0
 512              	.L58:
 513 0176 FB76     		strb	r3, [r7, #27]
 514 0178 FB7E     		ldrb	r3, [r7, #27]
 515 017a 03F00103 		and	r3, r3, #1
 516 017e FB76     		strb	r3, [r7, #27]
 517 0180 FB7E     		ldrb	r3, [r7, #27]	@ zero_extendqisi2
 518 0182 002B     		cmp	r3, #0
 519 0184 09D1     		bne	.L59
 520 0186 0321     		movs	r1, #3
 521 0188 7868     		ldr	r0, [r7, #4]
 522 018a FFF7FEFF 		bl	cmp_write_array
 523 018e 0346     		mov	r3, r0
 524 0190 83F00103 		eor	r3, r3, #1
 525 0194 DBB2     		uxtb	r3, r3
 526 0196 002B     		cmp	r3, #0
 527 0198 01D0     		beq	.L60
 528              	.L59:
 529 019a 0123     		movs	r3, #1
 530 019c 00E0     		b	.L61
 531              	.L60:
 532 019e 0023     		movs	r3, #0
 533              	.L61:
 534 01a0 FB76     		strb	r3, [r7, #27]
 535 01a2 FB7E     		ldrb	r3, [r7, #27]
 536 01a4 03F00103 		and	r3, r3, #1
 537 01a8 FB76     		strb	r3, [r7, #27]
 538 01aa FB7E     		ldrb	r3, [r7, #27]	@ zero_extendqisi2
 539 01ac 002B     		cmp	r3, #0
 540 01ae 0DD1     		bne	.L62
 541 01b0 3B68     		ldr	r3, [r7]
 542 01b2 D3ED007A 		vldr.32	s15, [r3]
 543 01b6 B0EE670A 		vmov.f32	s0, s15
 544 01ba 7868     		ldr	r0, [r7, #4]
 545 01bc FFF7FEFF 		bl	cmp_write_float
 546 01c0 0346     		mov	r3, r0
 547 01c2 83F00103 		eor	r3, r3, #1
 548 01c6 DBB2     		uxtb	r3, r3
 549 01c8 002B     		cmp	r3, #0
 550 01ca 01D0     		beq	.L63
 551              	.L62:
 552 01cc 0123     		movs	r3, #1
 553 01ce 00E0     		b	.L64
 554              	.L63:
 555 01d0 0023     		movs	r3, #0
 556              	.L64:
 557 01d2 FB76     		strb	r3, [r7, #27]
 558 01d4 FB7E     		ldrb	r3, [r7, #27]
 559 01d6 03F00103 		and	r3, r3, #1
 560 01da FB76     		strb	r3, [r7, #27]
ARM GAS  /var/folders/d2/nstgp4h54kz7g1l847x_b8wc0000gn/T//ccmhzgVj.s 			page 11


 561 01dc FB7E     		ldrb	r3, [r7, #27]	@ zero_extendqisi2
 562 01de 002B     		cmp	r3, #0
 563 01e0 0DD1     		bne	.L65
 564 01e2 3B68     		ldr	r3, [r7]
 565 01e4 D3ED017A 		vldr.32	s15, [r3, #4]
 566 01e8 B0EE670A 		vmov.f32	s0, s15
 567 01ec 7868     		ldr	r0, [r7, #4]
 568 01ee FFF7FEFF 		bl	cmp_write_float
 569 01f2 0346     		mov	r3, r0
 570 01f4 83F00103 		eor	r3, r3, #1
 571 01f8 DBB2     		uxtb	r3, r3
 572 01fa 002B     		cmp	r3, #0
 573 01fc 01D0     		beq	.L66
 574              	.L65:
 575 01fe 0123     		movs	r3, #1
 576 0200 00E0     		b	.L67
 577              	.L66:
 578 0202 0023     		movs	r3, #0
 579              	.L67:
 580 0204 FB76     		strb	r3, [r7, #27]
 581 0206 FB7E     		ldrb	r3, [r7, #27]
 582 0208 03F00103 		and	r3, r3, #1
 583 020c FB76     		strb	r3, [r7, #27]
 584 020e FB7E     		ldrb	r3, [r7, #27]	@ zero_extendqisi2
 585 0210 002B     		cmp	r3, #0
 586 0212 0DD1     		bne	.L68
 587 0214 3B68     		ldr	r3, [r7]
 588 0216 D3ED027A 		vldr.32	s15, [r3, #8]
 589 021a B0EE670A 		vmov.f32	s0, s15
 590 021e 7868     		ldr	r0, [r7, #4]
 591 0220 FFF7FEFF 		bl	cmp_write_float
 592 0224 0346     		mov	r3, r0
 593 0226 83F00103 		eor	r3, r3, #1
 594 022a DBB2     		uxtb	r3, r3
 595 022c 002B     		cmp	r3, #0
 596 022e 01D0     		beq	.L69
 597              	.L68:
 598 0230 0123     		movs	r3, #1
 599 0232 00E0     		b	.L70
 600              	.L69:
 601 0234 0023     		movs	r3, #0
 602              	.L70:
 603 0236 FB76     		strb	r3, [r7, #27]
 604 0238 FB7E     		ldrb	r3, [r7, #27]
 605 023a 03F00103 		and	r3, r3, #1
 606 023e FB76     		strb	r3, [r7, #27]
 607 0240 1E4B     		ldr	r3, .L78+12
 608 0242 FB60     		str	r3, [r7, #12]
 609 0244 FB7E     		ldrb	r3, [r7, #27]	@ zero_extendqisi2
 610 0246 002B     		cmp	r3, #0
 611 0248 0ED1     		bne	.L71
 612 024a F868     		ldr	r0, [r7, #12]
 613 024c FFF7FEFF 		bl	strlen
 614 0250 0346     		mov	r3, r0
 615 0252 1A46     		mov	r2, r3
 616 0254 F968     		ldr	r1, [r7, #12]
 617 0256 7868     		ldr	r0, [r7, #4]
ARM GAS  /var/folders/d2/nstgp4h54kz7g1l847x_b8wc0000gn/T//ccmhzgVj.s 			page 12


 618 0258 FFF7FEFF 		bl	cmp_write_str
 619 025c 0346     		mov	r3, r0
 620 025e 83F00103 		eor	r3, r3, #1
 621 0262 DBB2     		uxtb	r3, r3
 622 0264 002B     		cmp	r3, #0
 623 0266 01D0     		beq	.L72
 624              	.L71:
 625 0268 0123     		movs	r3, #1
 626 026a 00E0     		b	.L73
 627              	.L72:
 628 026c 0023     		movs	r3, #0
 629              	.L73:
 630 026e FB76     		strb	r3, [r7, #27]
 631 0270 FB7E     		ldrb	r3, [r7, #27]
 632 0272 03F00103 		and	r3, r3, #1
 633 0276 FB76     		strb	r3, [r7, #27]
 634 0278 FB7E     		ldrb	r3, [r7, #27]	@ zero_extendqisi2
 635 027a 002B     		cmp	r3, #0
 636 027c 0AD1     		bne	.L74
 637 027e 97ED070A 		vldr.32	s0, [r7, #28]
 638 0282 7868     		ldr	r0, [r7, #4]
 639 0284 FFF7FEFF 		bl	cmp_write_float
 640 0288 0346     		mov	r3, r0
 641 028a 83F00103 		eor	r3, r3, #1
 642 028e DBB2     		uxtb	r3, r3
 643 0290 002B     		cmp	r3, #0
 644 0292 01D0     		beq	.L75
 645              	.L74:
 646 0294 0123     		movs	r3, #1
 647 0296 00E0     		b	.L76
 648              	.L75:
 649 0298 0023     		movs	r3, #0
 650              	.L76:
 651 029a FB76     		strb	r3, [r7, #27]
 652 029c FB7E     		ldrb	r3, [r7, #27]
 653 029e 03F00103 		and	r3, r3, #1
 654 02a2 FB76     		strb	r3, [r7, #27]
 655 02a4 FB7E     		ldrb	r3, [r7, #27]	@ zero_extendqisi2
 656 02a6 1846     		mov	r0, r3
 657 02a8 2037     		adds	r7, r7, #32
 658 02aa BD46     		mov	sp, r7
 659              		@ sp needed
 660 02ac 80BD     		pop	{r7, pc}
 661              	.L79:
 662 02ae 00BF     		.align	2
 663              	.L78:
 664 02b0 00007A44 		.word	1148846080
 665 02b4 10000000 		.word	.LC2
 666 02b8 18000000 		.word	.LC3
 667 02bc 1C000000 		.word	.LC4
 668              		.size	send_imu, .-send_imu
 669              		.section	.bss.comm_tx_stream_wa,"aw",%nobits
 670              		.align	3
 671              		.type	comm_tx_stream_wa, %object
 672              		.size	comm_tx_stream_wa, 1400
 673              	comm_tx_stream_wa:
 674 0000 00000000 		.space	1400
ARM GAS  /var/folders/d2/nstgp4h54kz7g1l847x_b8wc0000gn/T//ccmhzgVj.s 			page 13


 674      00000000 
 674      00000000 
 674      00000000 
 674      00000000 
 675              		.section	.rodata
 676 0021 000000   		.align	2
 677              	.LC5:
 678 0024 2F696D75 		.ascii	"/imu\000"
 678      00
 679              		.section	.text.comm_tx_stream,"ax",%progbits
 680              		.align	1
 681              		.syntax unified
 682              		.thumb
 683              		.thumb_func
 684              		.fpu fpv4-sp-d16
 685              		.type	comm_tx_stream, %function
 686              	comm_tx_stream:
 687              		@ args = 0, pretend = 0, frame = 136
 688              		@ frame_needed = 1, uses_anonymous_args = 0
 689 0000 80B5     		push	{r7, lr}
 690 0002 A2B0     		sub	sp, sp, #136
 691 0004 00AF     		add	r7, sp, #0
 692 0006 7860     		str	r0, [r7, #4]
 693 0008 7B68     		ldr	r3, [r7, #4]
 694 000a C7F88430 		str	r3, [r7, #132]
 695 000e 3549     		ldr	r1, .L85
 696 0010 3548     		ldr	r0, .L85+4
 697 0012 FFF7FEFF 		bl	messagebus_find_topic_blocking
 698 0016 C7F88000 		str	r0, [r7, #128]
 699              	.L84:
 700 001a 07F10C03 		add	r3, r7, #12
 701 001e 7422     		movs	r2, #116
 702 0020 1946     		mov	r1, r3
 703 0022 D7F88000 		ldr	r0, [r7, #128]
 704 0026 FFF7FEFF 		bl	messagebus_topic_wait
 705 002a 6423     		movs	r3, #100
 706 002c 2F4A     		ldr	r2, .L85+8
 707 002e 3049     		ldr	r1, .L85+12
 708 0030 3048     		ldr	r0, .L85+16
 709 0032 FFF7FEFF 		bl	cmp_mem_access_init
 710 0036 07F10C03 		add	r3, r7, #12
 711 003a 1946     		mov	r1, r3
 712 003c 2D48     		ldr	r0, .L85+16
 713 003e FFF7FEFF 		bl	send_imu
 714 0042 0346     		mov	r3, r0
 715 0044 002B     		cmp	r3, #0
 716 0046 0FD1     		bne	.L81
 717 0048 2B48     		ldr	r0, .L85+20
 718 004a FFF7FEFF 		bl	chMtxLock
 719 004e 2848     		ldr	r0, .L85+12
 720 0050 FFF7FEFF 		bl	cmp_mem_access_get_pos
 721 0054 0146     		mov	r1, r0
 722 0056 D7F88430 		ldr	r3, [r7, #132]
 723 005a 284A     		ldr	r2, .L85+24
 724 005c 2348     		ldr	r0, .L85+8
 725 005e FFF7FEFF 		bl	serial_datagram_send
 726 0062 2548     		ldr	r0, .L85+20
ARM GAS  /var/folders/d2/nstgp4h54kz7g1l847x_b8wc0000gn/T//ccmhzgVj.s 			page 14


 727 0064 FFF7FEFF 		bl	chMtxUnlock
 728              	.L81:
 729 0068 6423     		movs	r3, #100
 730 006a 204A     		ldr	r2, .L85+8
 731 006c 2049     		ldr	r1, .L85+12
 732 006e 2148     		ldr	r0, .L85+16
 733 0070 FFF7FEFF 		bl	cmp_mem_access_init
 734 0074 1F48     		ldr	r0, .L85+16
 735 0076 FFF7FEFF 		bl	send_battery_voltage
 736 007a 0346     		mov	r3, r0
 737 007c 002B     		cmp	r3, #0
 738 007e 0FD1     		bne	.L82
 739 0080 1D48     		ldr	r0, .L85+20
 740 0082 FFF7FEFF 		bl	chMtxLock
 741 0086 1A48     		ldr	r0, .L85+12
 742 0088 FFF7FEFF 		bl	cmp_mem_access_get_pos
 743 008c 0146     		mov	r1, r0
 744 008e D7F88430 		ldr	r3, [r7, #132]
 745 0092 1A4A     		ldr	r2, .L85+24
 746 0094 1548     		ldr	r0, .L85+8
 747 0096 FFF7FEFF 		bl	serial_datagram_send
 748 009a 1748     		ldr	r0, .L85+20
 749 009c FFF7FEFF 		bl	chMtxUnlock
 750              	.L82:
 751 00a0 6423     		movs	r3, #100
 752 00a2 124A     		ldr	r2, .L85+8
 753 00a4 1249     		ldr	r1, .L85+12
 754 00a6 1348     		ldr	r0, .L85+16
 755 00a8 FFF7FEFF 		bl	cmp_mem_access_init
 756 00ac 1148     		ldr	r0, .L85+16
 757 00ae FFF7FEFF 		bl	send_distance_sensor
 758 00b2 0346     		mov	r3, r0
 759 00b4 002B     		cmp	r3, #0
 760 00b6 0FD1     		bne	.L83
 761 00b8 0F48     		ldr	r0, .L85+20
 762 00ba FFF7FEFF 		bl	chMtxLock
 763 00be 0C48     		ldr	r0, .L85+12
 764 00c0 FFF7FEFF 		bl	cmp_mem_access_get_pos
 765 00c4 0146     		mov	r1, r0
 766 00c6 D7F88430 		ldr	r3, [r7, #132]
 767 00ca 0C4A     		ldr	r2, .L85+24
 768 00cc 0748     		ldr	r0, .L85+8
 769 00ce FFF7FEFF 		bl	serial_datagram_send
 770 00d2 0948     		ldr	r0, .L85+20
 771 00d4 FFF7FEFF 		bl	chMtxUnlock
 772              	.L83:
 773 00d8 4FF4FA70 		mov	r0, #500
 774 00dc FFF7FEFF 		bl	chThdSleep
 775 00e0 9BE7     		b	.L84
 776              	.L86:
 777 00e2 00BF     		.align	2
 778              	.L85:
 779 00e4 24000000 		.word	.LC5
 780 00e8 00000000 		.word	bus
 781 00ec 00000000 		.word	dtgrm.13627
 782 00f0 00000000 		.word	mem.13628
 783 00f4 00000000 		.word	cmp.13629
ARM GAS  /var/folders/d2/nstgp4h54kz7g1l847x_b8wc0000gn/T//ccmhzgVj.s 			page 15


 784 00f8 00000000 		.word	send_lock
 785 00fc 00000000 		.word	_stream_values_sndfn
 786              		.size	comm_tx_stream, .-comm_tx_stream
 787              		.section	.bss.reply_buf,"aw",%nobits
 788              		.align	2
 789              		.type	reply_buf, %object
 790              		.size	reply_buf, 100
 791              	reply_buf:
 792 0000 00000000 		.space	100
 792      00000000 
 792      00000000 
 792      00000000 
 792      00000000 
 793              		.section	.bss.reply_mem,"aw",%nobits
 794              		.align	2
 795              		.type	reply_mem, %object
 796              		.size	reply_mem, 12
 797              	reply_mem:
 798 0000 00000000 		.space	12
 798      00000000 
 798      00000000 
 799              		.section	.bss.reply_cmp,"aw",%nobits
 800              		.align	2
 801              		.type	reply_cmp, %object
 802              		.size	reply_cmp, 16
 803              	reply_cmp:
 804 0000 00000000 		.space	16
 804      00000000 
 804      00000000 
 804      00000000 
 805              		.section	.rodata
 806 0029 000000   		.align	2
 807              	.LC6:
 808 002c 70696E67 		.ascii	"ping\000"
 808      00
 809              		.section	.text.ping_cb,"ax",%progbits
 810              		.align	1
 811              		.global	ping_cb
 812              		.syntax unified
 813              		.thumb
 814              		.thumb_func
 815              		.fpu fpv4-sp-d16
 816              		.type	ping_cb, %function
 817              	ping_cb:
 818              		@ args = 0, pretend = 0, frame = 32
 819              		@ frame_needed = 1, uses_anonymous_args = 0
 820 0000 B0B5     		push	{r4, r5, r7, lr}
 821 0002 88B0     		sub	sp, sp, #32
 822 0004 00AF     		add	r7, sp, #0
 823 0006 7860     		str	r0, [r7, #4]
 824 0008 3960     		str	r1, [r7]
 825 000a 6B46     		mov	r3, sp
 826 000c 1D46     		mov	r5, r3
 827 000e 3B68     		ldr	r3, [r7]
 828 0010 FB61     		str	r3, [r7, #28]
 829 0012 6423     		movs	r3, #100
 830 0014 BB60     		str	r3, [r7, #8]
ARM GAS  /var/folders/d2/nstgp4h54kz7g1l847x_b8wc0000gn/T//ccmhzgVj.s 			page 16


 831 0016 0023     		movs	r3, #0
 832 0018 FB76     		strb	r3, [r7, #27]
 833 001a B868     		ldr	r0, [r7, #8]
 834 001c 0346     		mov	r3, r0
 835 001e 013B     		subs	r3, r3, #1
 836 0020 7B61     		str	r3, [r7, #20]
 837 0022 0146     		mov	r1, r0
 838 0024 4FF00002 		mov	r2, #0
 839 0028 4FF00003 		mov	r3, #0
 840 002c 4FF00004 		mov	r4, #0
 841 0030 D400     		lsls	r4, r2, #3
 842 0032 44EA5174 		orr	r4, r4, r1, lsr #29
 843 0036 CB00     		lsls	r3, r1, #3
 844 0038 0146     		mov	r1, r0
 845 003a 4FF00002 		mov	r2, #0
 846 003e 4FF00003 		mov	r3, #0
 847 0042 4FF00004 		mov	r4, #0
 848 0046 D400     		lsls	r4, r2, #3
 849 0048 44EA5174 		orr	r4, r4, r1, lsr #29
 850 004c CB00     		lsls	r3, r1, #3
 851 004e C31D     		adds	r3, r0, #7
 852 0050 DB08     		lsrs	r3, r3, #3
 853 0052 DB00     		lsls	r3, r3, #3
 854 0054 ADEB030D 		sub	sp, sp, r3
 855 0058 6B46     		mov	r3, sp
 856 005a 0033     		adds	r3, r3, #0
 857 005c 3B61     		str	r3, [r7, #16]
 858 005e 3B69     		ldr	r3, [r7, #16]
 859 0060 07F10802 		add	r2, r7, #8
 860 0064 1946     		mov	r1, r3
 861 0066 7868     		ldr	r0, [r7, #4]
 862 0068 FFF7FEFF 		bl	cmp_read_str
 863 006c 0346     		mov	r3, r0
 864 006e 002B     		cmp	r3, #0
 865 0070 67D0     		beq	.L88
 866 0072 6423     		movs	r3, #100
 867 0074 364A     		ldr	r2, .L99
 868 0076 3749     		ldr	r1, .L99+4
 869 0078 3748     		ldr	r0, .L99+8
 870 007a FFF7FEFF 		bl	cmp_mem_access_init
 871 007e 374B     		ldr	r3, .L99+12
 872 0080 FB60     		str	r3, [r7, #12]
 873 0082 FB7E     		ldrb	r3, [r7, #27]	@ zero_extendqisi2
 874 0084 002B     		cmp	r3, #0
 875 0086 09D1     		bne	.L89
 876 0088 0121     		movs	r1, #1
 877 008a 3348     		ldr	r0, .L99+8
 878 008c FFF7FEFF 		bl	cmp_write_map
 879 0090 0346     		mov	r3, r0
 880 0092 83F00103 		eor	r3, r3, #1
 881 0096 DBB2     		uxtb	r3, r3
 882 0098 002B     		cmp	r3, #0
 883 009a 01D0     		beq	.L90
 884              	.L89:
 885 009c 0123     		movs	r3, #1
 886 009e 00E0     		b	.L91
 887              	.L90:
ARM GAS  /var/folders/d2/nstgp4h54kz7g1l847x_b8wc0000gn/T//ccmhzgVj.s 			page 17


 888 00a0 0023     		movs	r3, #0
 889              	.L91:
 890 00a2 FB76     		strb	r3, [r7, #27]
 891 00a4 FB7E     		ldrb	r3, [r7, #27]
 892 00a6 03F00103 		and	r3, r3, #1
 893 00aa FB76     		strb	r3, [r7, #27]
 894 00ac FB7E     		ldrb	r3, [r7, #27]	@ zero_extendqisi2
 895 00ae 002B     		cmp	r3, #0
 896 00b0 0ED1     		bne	.L92
 897 00b2 F868     		ldr	r0, [r7, #12]
 898 00b4 FFF7FEFF 		bl	strlen
 899 00b8 0346     		mov	r3, r0
 900 00ba 1A46     		mov	r2, r3
 901 00bc F968     		ldr	r1, [r7, #12]
 902 00be 2648     		ldr	r0, .L99+8
 903 00c0 FFF7FEFF 		bl	cmp_write_str
 904 00c4 0346     		mov	r3, r0
 905 00c6 83F00103 		eor	r3, r3, #1
 906 00ca DBB2     		uxtb	r3, r3
 907 00cc 002B     		cmp	r3, #0
 908 00ce 01D0     		beq	.L93
 909              	.L92:
 910 00d0 0123     		movs	r3, #1
 911 00d2 00E0     		b	.L94
 912              	.L93:
 913 00d4 0023     		movs	r3, #0
 914              	.L94:
 915 00d6 FB76     		strb	r3, [r7, #27]
 916 00d8 FB7E     		ldrb	r3, [r7, #27]
 917 00da 03F00103 		and	r3, r3, #1
 918 00de FB76     		strb	r3, [r7, #27]
 919 00e0 FB7E     		ldrb	r3, [r7, #27]	@ zero_extendqisi2
 920 00e2 002B     		cmp	r3, #0
 921 00e4 10D1     		bne	.L95
 922 00e6 3C69     		ldr	r4, [r7, #16]
 923 00e8 3B69     		ldr	r3, [r7, #16]
 924 00ea 1846     		mov	r0, r3
 925 00ec FFF7FEFF 		bl	strlen
 926 00f0 0346     		mov	r3, r0
 927 00f2 1A46     		mov	r2, r3
 928 00f4 2146     		mov	r1, r4
 929 00f6 1848     		ldr	r0, .L99+8
 930 00f8 FFF7FEFF 		bl	cmp_write_str
 931 00fc 0346     		mov	r3, r0
 932 00fe 83F00103 		eor	r3, r3, #1
 933 0102 DBB2     		uxtb	r3, r3
 934 0104 002B     		cmp	r3, #0
 935 0106 01D0     		beq	.L96
 936              	.L95:
 937 0108 0123     		movs	r3, #1
 938 010a 00E0     		b	.L97
 939              	.L96:
 940 010c 0023     		movs	r3, #0
 941              	.L97:
 942 010e FB76     		strb	r3, [r7, #27]
 943 0110 FB7E     		ldrb	r3, [r7, #27]
 944 0112 03F00103 		and	r3, r3, #1
ARM GAS  /var/folders/d2/nstgp4h54kz7g1l847x_b8wc0000gn/T//ccmhzgVj.s 			page 18


 945 0116 FB76     		strb	r3, [r7, #27]
 946 0118 FB7E     		ldrb	r3, [r7, #27]
 947 011a 83F00103 		eor	r3, r3, #1
 948 011e DBB2     		uxtb	r3, r3
 949 0120 002B     		cmp	r3, #0
 950 0122 0ED0     		beq	.L88
 951 0124 0E48     		ldr	r0, .L99+16
 952 0126 FFF7FEFF 		bl	chMtxLock
 953 012a 0A48     		ldr	r0, .L99+4
 954 012c FFF7FEFF 		bl	cmp_mem_access_get_pos
 955 0130 0146     		mov	r1, r0
 956 0132 FB69     		ldr	r3, [r7, #28]
 957 0134 0B4A     		ldr	r2, .L99+20
 958 0136 0648     		ldr	r0, .L99
 959 0138 FFF7FEFF 		bl	serial_datagram_send
 960 013c 0848     		ldr	r0, .L99+16
 961 013e FFF7FEFF 		bl	chMtxUnlock
 962              	.L88:
 963 0142 0023     		movs	r3, #0
 964 0144 AD46     		mov	sp, r5
 965 0146 1846     		mov	r0, r3
 966 0148 2037     		adds	r7, r7, #32
 967 014a BD46     		mov	sp, r7
 968              		@ sp needed
 969 014c B0BD     		pop	{r4, r5, r7, pc}
 970              	.L100:
 971 014e 00BF     		.align	2
 972              	.L99:
 973 0150 00000000 		.word	reply_buf
 974 0154 00000000 		.word	reply_mem
 975 0158 00000000 		.word	reply_cmp
 976 015c 2C000000 		.word	.LC6
 977 0160 00000000 		.word	send_lock
 978 0164 00000000 		.word	_stream_values_sndfn
 979              		.size	ping_cb, .-ping_cb
 980              		.section	.text.set_led_cb,"ax",%progbits
 981              		.align	1
 982              		.global	set_led_cb
 983              		.syntax unified
 984              		.thumb
 985              		.thumb_func
 986              		.fpu fpv4-sp-d16
 987              		.type	set_led_cb, %function
 988              	set_led_cb:
 989              		@ args = 0, pretend = 0, frame = 16
 990              		@ frame_needed = 1, uses_anonymous_args = 0
 991 0000 80B5     		push	{r7, lr}
 992 0002 84B0     		sub	sp, sp, #16
 993 0004 00AF     		add	r7, sp, #0
 994 0006 7860     		str	r0, [r7, #4]
 995 0008 3960     		str	r1, [r7]
 996 000a 07F10C03 		add	r3, r7, #12
 997 000e 1946     		mov	r1, r3
 998 0010 7868     		ldr	r0, [r7, #4]
 999 0012 FFF7FEFF 		bl	cmp_read_array
 1000 0016 0346     		mov	r3, r0
 1001 0018 002B     		cmp	r3, #0
ARM GAS  /var/folders/d2/nstgp4h54kz7g1l847x_b8wc0000gn/T//ccmhzgVj.s 			page 19


 1002 001a 1AD0     		beq	.L102
 1003 001c FB68     		ldr	r3, [r7, #12]
 1004 001e 022B     		cmp	r3, #2
 1005 0020 17D1     		bne	.L102
 1006 0022 07F10B03 		add	r3, r7, #11
 1007 0026 1946     		mov	r1, r3
 1008 0028 7868     		ldr	r0, [r7, #4]
 1009 002a FFF7FEFF 		bl	cmp_read_uchar
 1010 002e 0346     		mov	r3, r0
 1011 0030 002B     		cmp	r3, #0
 1012 0032 0ED0     		beq	.L102
 1013 0034 07F10A03 		add	r3, r7, #10
 1014 0038 1946     		mov	r1, r3
 1015 003a 7868     		ldr	r0, [r7, #4]
 1016 003c FFF7FEFF 		bl	cmp_read_uchar
 1017 0040 0346     		mov	r3, r0
 1018 0042 002B     		cmp	r3, #0
 1019 0044 05D0     		beq	.L102
 1020 0046 FB7A     		ldrb	r3, [r7, #11]	@ zero_extendqisi2
 1021 0048 BA7A     		ldrb	r2, [r7, #10]	@ zero_extendqisi2
 1022 004a 1146     		mov	r1, r2
 1023 004c 1846     		mov	r0, r3
 1024 004e FFF7FEFF 		bl	set_led
 1025              	.L102:
 1026 0052 0023     		movs	r3, #0
 1027 0054 1846     		mov	r0, r3
 1028 0056 1037     		adds	r7, r7, #16
 1029 0058 BD46     		mov	sp, r7
 1030              		@ sp needed
 1031 005a 80BD     		pop	{r7, pc}
 1032              		.size	set_led_cb, .-set_led_cb
 1033              		.section	.text.set_rgb_led_cb,"ax",%progbits
 1034              		.align	1
 1035              		.global	set_rgb_led_cb
 1036              		.syntax unified
 1037              		.thumb
 1038              		.thumb_func
 1039              		.fpu fpv4-sp-d16
 1040              		.type	set_rgb_led_cb, %function
 1041              	set_rgb_led_cb:
 1042              		@ args = 0, pretend = 0, frame = 16
 1043              		@ frame_needed = 1, uses_anonymous_args = 0
 1044 0000 80B5     		push	{r7, lr}
 1045 0002 84B0     		sub	sp, sp, #16
 1046 0004 00AF     		add	r7, sp, #0
 1047 0006 7860     		str	r0, [r7, #4]
 1048 0008 3960     		str	r1, [r7]
 1049 000a 07F10C03 		add	r3, r7, #12
 1050 000e 1946     		mov	r1, r3
 1051 0010 7868     		ldr	r0, [r7, #4]
 1052 0012 FFF7FEFF 		bl	cmp_read_array
 1053 0016 0346     		mov	r3, r0
 1054 0018 002B     		cmp	r3, #0
 1055 001a 2CD0     		beq	.L105
 1056 001c FB68     		ldr	r3, [r7, #12]
 1057 001e 042B     		cmp	r3, #4
 1058 0020 29D1     		bne	.L105
ARM GAS  /var/folders/d2/nstgp4h54kz7g1l847x_b8wc0000gn/T//ccmhzgVj.s 			page 20


 1059 0022 07F10B03 		add	r3, r7, #11
 1060 0026 1946     		mov	r1, r3
 1061 0028 7868     		ldr	r0, [r7, #4]
 1062 002a FFF7FEFF 		bl	cmp_read_uchar
 1063 002e 0346     		mov	r3, r0
 1064 0030 002B     		cmp	r3, #0
 1065 0032 20D0     		beq	.L105
 1066 0034 07F10A03 		add	r3, r7, #10
 1067 0038 1946     		mov	r1, r3
 1068 003a 7868     		ldr	r0, [r7, #4]
 1069 003c FFF7FEFF 		bl	cmp_read_uchar
 1070 0040 0346     		mov	r3, r0
 1071 0042 002B     		cmp	r3, #0
 1072 0044 17D0     		beq	.L105
 1073 0046 07F10903 		add	r3, r7, #9
 1074 004a 1946     		mov	r1, r3
 1075 004c 7868     		ldr	r0, [r7, #4]
 1076 004e FFF7FEFF 		bl	cmp_read_uchar
 1077 0052 0346     		mov	r3, r0
 1078 0054 002B     		cmp	r3, #0
 1079 0056 0ED0     		beq	.L105
 1080 0058 07F10803 		add	r3, r7, #8
 1081 005c 1946     		mov	r1, r3
 1082 005e 7868     		ldr	r0, [r7, #4]
 1083 0060 FFF7FEFF 		bl	cmp_read_uchar
 1084 0064 0346     		mov	r3, r0
 1085 0066 002B     		cmp	r3, #0
 1086 0068 05D0     		beq	.L105
 1087 006a F87A     		ldrb	r0, [r7, #11]	@ zero_extendqisi2
 1088 006c B97A     		ldrb	r1, [r7, #10]	@ zero_extendqisi2
 1089 006e 7A7A     		ldrb	r2, [r7, #9]	@ zero_extendqisi2
 1090 0070 3B7A     		ldrb	r3, [r7, #8]	@ zero_extendqisi2
 1091 0072 FFF7FEFF 		bl	set_rgb_led
 1092              	.L105:
 1093 0076 0023     		movs	r3, #0
 1094 0078 1846     		mov	r0, r3
 1095 007a 1037     		adds	r7, r7, #16
 1096 007c BD46     		mov	sp, r7
 1097              		@ sp needed
 1098 007e 80BD     		pop	{r7, pc}
 1099              		.size	set_rgb_led_cb, .-set_rgb_led_cb
 1100              		.section	.text.datagram_dispatcher_cb,"ax",%progbits
 1101              		.align	1
 1102              		.global	datagram_dispatcher_cb
 1103              		.syntax unified
 1104              		.thumb
 1105              		.thumb_func
 1106              		.fpu fpv4-sp-d16
 1107              		.type	datagram_dispatcher_cb, %function
 1108              	datagram_dispatcher_cb:
 1109              		@ args = 0, pretend = 0, frame = 72
 1110              		@ frame_needed = 1, uses_anonymous_args = 0
 1111 0000 80B5     		push	{r7, lr}
 1112 0002 92B0     		sub	sp, sp, #72
 1113 0004 00AF     		add	r7, sp, #0
 1114 0006 F860     		str	r0, [r7, #12]
 1115 0008 B960     		str	r1, [r7, #8]
ARM GAS  /var/folders/d2/nstgp4h54kz7g1l847x_b8wc0000gn/T//ccmhzgVj.s 			page 21


 1116 000a 7A60     		str	r2, [r7, #4]
 1117 000c 7B68     		ldr	r3, [r7, #4]
 1118 000e 7B64     		str	r3, [r7, #68]
 1119 0010 07F11C01 		add	r1, r7, #28
 1120 0014 07F12800 		add	r0, r7, #40
 1121 0018 BB68     		ldr	r3, [r7, #8]
 1122 001a FA68     		ldr	r2, [r7, #12]
 1123 001c FFF7FEFF 		bl	cmp_mem_access_ro_init
 1124 0020 07F11802 		add	r2, r7, #24
 1125 0024 07F12803 		add	r3, r7, #40
 1126 0028 1146     		mov	r1, r2
 1127 002a 1846     		mov	r0, r3
 1128 002c FFF7FEFF 		bl	cmp_read_map
 1129 0030 0346     		mov	r3, r0
 1130 0032 83F00103 		eor	r3, r3, #1
 1131 0036 DBB2     		uxtb	r3, r3
 1132 0038 002B     		cmp	r3, #0
 1133 003a 4ED1     		bne	.L120
 1134 003c 0023     		movs	r3, #0
 1135 003e 3B64     		str	r3, [r7, #64]
 1136 0040 46E0     		b	.L110
 1137              	.L118:
 1138 0042 07F11402 		add	r2, r7, #20
 1139 0046 07F12803 		add	r3, r7, #40
 1140 004a 1146     		mov	r1, r2
 1141 004c 1846     		mov	r0, r3
 1142 004e FFF7FEFF 		bl	cmp_read_str_size
 1143 0052 0346     		mov	r3, r0
 1144 0054 83F00103 		eor	r3, r3, #1
 1145 0058 DBB2     		uxtb	r3, r3
 1146 005a 002B     		cmp	r3, #0
 1147 005c 3FD1     		bne	.L121
 1148 005e 07F11C03 		add	r3, r7, #28
 1149 0062 1846     		mov	r0, r3
 1150 0064 FFF7FEFF 		bl	cmp_mem_access_get_pos
 1151 0068 F863     		str	r0, [r7, #60]
 1152 006a 7A69     		ldr	r2, [r7, #20]
 1153 006c FB6B     		ldr	r3, [r7, #60]
 1154 006e 1A44     		add	r2, r2, r3
 1155 0070 07F11C03 		add	r3, r7, #28
 1156 0074 1146     		mov	r1, r2
 1157 0076 1846     		mov	r0, r3
 1158 0078 FFF7FEFF 		bl	cmp_mem_access_set_pos
 1159 007c 07F11C03 		add	r3, r7, #28
 1160 0080 F96B     		ldr	r1, [r7, #60]
 1161 0082 1846     		mov	r0, r3
 1162 0084 FFF7FEFF 		bl	cmp_mem_access_get_ptr_at_pos
 1163 0088 B863     		str	r0, [r7, #56]
 1164 008a 18E0     		b	.L113
 1165              	.L117:
 1166 008c 7B6C     		ldr	r3, [r7, #68]
 1167 008e 1B68     		ldr	r3, [r3]
 1168 0090 7A69     		ldr	r2, [r7, #20]
 1169 0092 B96B     		ldr	r1, [r7, #56]
 1170 0094 1846     		mov	r0, r3
 1171 0096 FFF7FEFF 		bl	strncmp
 1172 009a 0346     		mov	r3, r0
ARM GAS  /var/folders/d2/nstgp4h54kz7g1l847x_b8wc0000gn/T//ccmhzgVj.s 			page 22


 1173 009c 002B     		cmp	r3, #0
 1174 009e 0BD1     		bne	.L114
 1175 00a0 7B6C     		ldr	r3, [r7, #68]
 1176 00a2 5B68     		ldr	r3, [r3, #4]
 1177 00a4 7A6C     		ldr	r2, [r7, #68]
 1178 00a6 9168     		ldr	r1, [r2, #8]
 1179 00a8 07F12802 		add	r2, r7, #40
 1180 00ac 1046     		mov	r0, r2
 1181 00ae 9847     		blx	r3
 1182 00b0 0346     		mov	r3, r0
 1183 00b2 002B     		cmp	r3, #0
 1184 00b4 08D0     		beq	.L122
 1185 00b6 13E0     		b	.L107
 1186              	.L114:
 1187 00b8 7B6C     		ldr	r3, [r7, #68]
 1188 00ba 0C33     		adds	r3, r3, #12
 1189 00bc 7B64     		str	r3, [r7, #68]
 1190              	.L113:
 1191 00be 7B6C     		ldr	r3, [r7, #68]
 1192 00c0 1B68     		ldr	r3, [r3]
 1193 00c2 002B     		cmp	r3, #0
 1194 00c4 E2D1     		bne	.L117
 1195 00c6 00E0     		b	.L116
 1196              	.L122:
 1197 00c8 00BF     		nop
 1198              	.L116:
 1199 00ca 3B6C     		ldr	r3, [r7, #64]
 1200 00cc 0133     		adds	r3, r3, #1
 1201 00ce 3B64     		str	r3, [r7, #64]
 1202              	.L110:
 1203 00d0 BB69     		ldr	r3, [r7, #24]
 1204 00d2 3A6C     		ldr	r2, [r7, #64]
 1205 00d4 9A42     		cmp	r2, r3
 1206 00d6 B4D3     		bcc	.L118
 1207 00d8 02E0     		b	.L107
 1208              	.L120:
 1209 00da 00BF     		nop
 1210 00dc 00E0     		b	.L107
 1211              	.L121:
 1212 00de 00BF     		nop
 1213              	.L107:
 1214 00e0 4837     		adds	r7, r7, #72
 1215 00e2 BD46     		mov	sp, r7
 1216              		@ sp needed
 1217 00e4 80BD     		pop	{r7, pc}
 1218              		.size	datagram_dispatcher_cb, .-datagram_dispatcher_cb
 1219              		.section	.bss.comm_rx_wa,"aw",%nobits
 1220              		.align	3
 1221              		.type	comm_rx_wa, %object
 1222              		.size	comm_rx_wa, 1400
 1223              	comm_rx_wa:
 1224 0000 00000000 		.space	1400
 1224      00000000 
 1224      00000000 
 1224      00000000 
 1224      00000000 
 1225              		.section	.rodata
ARM GAS  /var/folders/d2/nstgp4h54kz7g1l847x_b8wc0000gn/T//ccmhzgVj.s 			page 23


 1226 0031 000000   		.align	2
 1227              	.LC7:
 1228 0034 7365745F 		.ascii	"set_led\000"
 1228      6C656400 
 1229              		.align	2
 1230              	.LC8:
 1231 003c 7365745F 		.ascii	"set_rgb_led\000"
 1231      7267625F 
 1231      6C656400 
 1232              		.align	2
 1233              	.LC9:
 1234 0048 636F6D6D 		.ascii	"comm rx\000"
 1234      20727800 
 1235              		.section	.text.comm_rx,"ax",%progbits
 1236              		.align	1
 1237              		.syntax unified
 1238              		.thumb
 1239              		.thumb_func
 1240              		.fpu fpv4-sp-d16
 1241              		.type	comm_rx, %function
 1242              	comm_rx:
 1243              		@ args = 0, pretend = 0, frame = 64
 1244              		@ frame_needed = 1, uses_anonymous_args = 0
 1245 0000 80B5     		push	{r7, lr}
 1246 0002 92B0     		sub	sp, sp, #72
 1247 0004 02AF     		add	r7, sp, #8
 1248 0006 7860     		str	r0, [r7, #4]
 1249 0008 1B4B     		ldr	r3, .L125
 1250 000a FB60     		str	r3, [r7, #12]
 1251 000c 1B4B     		ldr	r3, .L125+4
 1252 000e 3B61     		str	r3, [r7, #16]
 1253 0010 7B68     		ldr	r3, [r7, #4]
 1254 0012 7B61     		str	r3, [r7, #20]
 1255 0014 1A4B     		ldr	r3, .L125+8
 1256 0016 BB61     		str	r3, [r7, #24]
 1257 0018 1A4B     		ldr	r3, .L125+12
 1258 001a FB61     		str	r3, [r7, #28]
 1259 001c 7B68     		ldr	r3, [r7, #4]
 1260 001e 3B62     		str	r3, [r7, #32]
 1261 0020 194B     		ldr	r3, .L125+16
 1262 0022 7B62     		str	r3, [r7, #36]
 1263 0024 194B     		ldr	r3, .L125+20
 1264 0026 BB62     		str	r3, [r7, #40]
 1265 0028 7B68     		ldr	r3, [r7, #4]
 1266 002a FB62     		str	r3, [r7, #44]
 1267 002c 0023     		movs	r3, #0
 1268 002e 3B63     		str	r3, [r7, #48]
 1269 0030 0023     		movs	r3, #0
 1270 0032 7B63     		str	r3, [r7, #52]
 1271 0034 0023     		movs	r3, #0
 1272 0036 BB63     		str	r3, [r7, #56]
 1273 0038 1548     		ldr	r0, .L125+24
 1274 003a FFF7FEFF 		bl	chRegSetThreadName
 1275 003e 7B68     		ldr	r3, [r7, #4]
 1276 0040 FB63     		str	r3, [r7, #60]
 1277 0042 07F10C03 		add	r3, r7, #12
 1278 0046 0093     		str	r3, [sp]
ARM GAS  /var/folders/d2/nstgp4h54kz7g1l847x_b8wc0000gn/T//ccmhzgVj.s 			page 24


 1279 0048 124B     		ldr	r3, .L125+28
 1280 004a 4FF4FA62 		mov	r2, #2000
 1281 004e 1249     		ldr	r1, .L125+32
 1282 0050 1248     		ldr	r0, .L125+36
 1283 0052 FFF7FEFF 		bl	serial_datagram_rcv_handler_init
 1284              	.L124:
 1285 0056 FB6B     		ldr	r3, [r7, #60]
 1286 0058 1B68     		ldr	r3, [r3]
 1287 005a DB68     		ldr	r3, [r3, #12]
 1288 005c F86B     		ldr	r0, [r7, #60]
 1289 005e 9847     		blx	r3
 1290 0060 0346     		mov	r3, r0
 1291 0062 DBB2     		uxtb	r3, r3
 1292 0064 FB72     		strb	r3, [r7, #11]
 1293 0066 07F10B03 		add	r3, r7, #11
 1294 006a 0122     		movs	r2, #1
 1295 006c 1946     		mov	r1, r3
 1296 006e 0B48     		ldr	r0, .L125+36
 1297 0070 FFF7FEFF 		bl	serial_datagram_receive
 1298 0074 EFE7     		b	.L124
 1299              	.L126:
 1300 0076 00BF     		.align	2
 1301              	.L125:
 1302 0078 2C000000 		.word	.LC6
 1303 007c 00000000 		.word	ping_cb
 1304 0080 34000000 		.word	.LC7
 1305 0084 00000000 		.word	set_led_cb
 1306 0088 3C000000 		.word	.LC8
 1307 008c 00000000 		.word	set_rgb_led_cb
 1308 0090 48000000 		.word	.LC9
 1309 0094 00000000 		.word	datagram_dispatcher_cb
 1310 0098 00000000 		.word	rcv_buffer.13684
 1311 009c 00000000 		.word	rcv_handler.13683
 1312              		.size	comm_rx, .-comm_rx
 1313              		.section	.text.communication_start,"ax",%progbits
 1314              		.align	1
 1315              		.global	communication_start
 1316              		.syntax unified
 1317              		.thumb
 1318              		.thumb_func
 1319              		.fpu fpv4-sp-d16
 1320              		.type	communication_start, %function
 1321              	communication_start:
 1322              		@ args = 0, pretend = 0, frame = 8
 1323              		@ frame_needed = 1, uses_anonymous_args = 0
 1324 0000 80B5     		push	{r7, lr}
 1325 0002 84B0     		sub	sp, sp, #16
 1326 0004 02AF     		add	r7, sp, #8
 1327 0006 7860     		str	r0, [r7, #4]
 1328 0008 0C48     		ldr	r0, .L128
 1329 000a FFF7FEFF 		bl	chMtxObjectInit
 1330 000e 7B68     		ldr	r3, [r7, #4]
 1331 0010 0093     		str	r3, [sp]
 1332 0012 0B4B     		ldr	r3, .L128+4
 1333 0014 0222     		movs	r2, #2
 1334 0016 4FF4AF61 		mov	r1, #1400
 1335 001a 0A48     		ldr	r0, .L128+8
ARM GAS  /var/folders/d2/nstgp4h54kz7g1l847x_b8wc0000gn/T//ccmhzgVj.s 			page 25


 1336 001c FFF7FEFF 		bl	chThdCreateStatic
 1337 0020 7B68     		ldr	r3, [r7, #4]
 1338 0022 0093     		str	r3, [sp]
 1339 0024 084B     		ldr	r3, .L128+12
 1340 0026 0222     		movs	r2, #2
 1341 0028 4FF4AF61 		mov	r1, #1400
 1342 002c 0748     		ldr	r0, .L128+16
 1343 002e FFF7FEFF 		bl	chThdCreateStatic
 1344 0032 00BF     		nop
 1345 0034 0837     		adds	r7, r7, #8
 1346 0036 BD46     		mov	sp, r7
 1347              		@ sp needed
 1348 0038 80BD     		pop	{r7, pc}
 1349              	.L129:
 1350 003a 00BF     		.align	2
 1351              	.L128:
 1352 003c 00000000 		.word	send_lock
 1353 0040 00000000 		.word	comm_tx_stream
 1354 0044 00000000 		.word	comm_tx_stream_wa
 1355 0048 00000000 		.word	comm_rx
 1356 004c 00000000 		.word	comm_rx_wa
 1357              		.size	communication_start, .-communication_start
 1358              		.section	.bss.cmp.13629,"aw",%nobits
 1359              		.align	2
 1360              		.type	cmp.13629, %object
 1361              		.size	cmp.13629, 16
 1362              	cmp.13629:
 1363 0000 00000000 		.space	16
 1363      00000000 
 1363      00000000 
 1363      00000000 
 1364              		.section	.bss.mem.13628,"aw",%nobits
 1365              		.align	2
 1366              		.type	mem.13628, %object
 1367              		.size	mem.13628, 12
 1368              	mem.13628:
 1369 0000 00000000 		.space	12
 1369      00000000 
 1369      00000000 
 1370              		.section	.bss.dtgrm.13627,"aw",%nobits
 1371              		.align	2
 1372              		.type	dtgrm.13627, %object
 1373              		.size	dtgrm.13627, 100
 1374              	dtgrm.13627:
 1375 0000 00000000 		.space	100
 1375      00000000 
 1375      00000000 
 1375      00000000 
 1375      00000000 
 1376              		.section	.bss.rcv_handler.13683,"aw",%nobits
 1377              		.align	2
 1378              		.type	rcv_handler.13683, %object
 1379              		.size	rcv_handler.13683, 24
 1380              	rcv_handler.13683:
 1381 0000 00000000 		.space	24
 1381      00000000 
 1381      00000000 
ARM GAS  /var/folders/d2/nstgp4h54kz7g1l847x_b8wc0000gn/T//ccmhzgVj.s 			page 26


 1381      00000000 
 1381      00000000 
 1382              		.section	.bss.rcv_buffer.13684,"aw",%nobits
 1383              		.align	2
 1384              		.type	rcv_buffer.13684, %object
 1385              		.size	rcv_buffer.13684, 2000
 1386              	rcv_buffer.13684:
 1387 0000 00000000 		.space	2000
 1387      00000000 
 1387      00000000 
 1387      00000000 
 1387      00000000 
 1388              		.ident	"GCC: (GNU Tools for Arm Embedded Processors 7-2017-q4-major) 7.2.1 20170904 (release) [ARM
ARM GAS  /var/folders/d2/nstgp4h54kz7g1l847x_b8wc0000gn/T//ccmhzgVj.s 			page 27

