ARM GAS  /var/folders/d2/nstgp4h54kz7g1l847x_b8wc0000gn/T//ccj6NODu.s 			page 1


   1              		.cpu cortex-m4
   2              		.eabi_attribute 27, 1
   3              		.eabi_attribute 28, 1
   4              		.eabi_attribute 20, 1
   5              		.eabi_attribute 21, 1
   6              		.eabi_attribute 23, 3
   7              		.eabi_attribute 24, 1
   8              		.eabi_attribute 25, 1
   9              		.eabi_attribute 26, 1
  10              		.eabi_attribute 30, 6
  11              		.eabi_attribute 34, 1
  12              		.eabi_attribute 18, 4
  13              		.file	"config_flash_storage.c"
  14              		.section	.text.cmp_flash_writer,"ax",%progbits
  15              		.align	1
  16              		.syntax unified
  17              		.thumb
  18              		.thumb_func
  19              		.fpu fpv4-sp-d16
  20              		.type	cmp_flash_writer, %function
  21              	cmp_flash_writer:
  22              		@ args = 0, pretend = 0, frame = 24
  23              		@ frame_needed = 1, uses_anonymous_args = 0
  24 0000 80B5     		push	{r7, lr}
  25 0002 86B0     		sub	sp, sp, #24
  26 0004 00AF     		add	r7, sp, #0
  27 0006 F860     		str	r0, [r7, #12]
  28 0008 B960     		str	r1, [r7, #8]
  29 000a 7A60     		str	r2, [r7, #4]
  30 000c FB68     		ldr	r3, [r7, #12]
  31 000e 5B68     		ldr	r3, [r3, #4]
  32 0010 7B61     		str	r3, [r7, #20]
  33 0012 7B69     		ldr	r3, [r7, #20]
  34 0014 5A68     		ldr	r2, [r3, #4]
  35 0016 7B68     		ldr	r3, [r7, #4]
  36 0018 1A44     		add	r2, r2, r3
  37 001a 7B69     		ldr	r3, [r7, #20]
  38 001c 9B68     		ldr	r3, [r3, #8]
  39 001e 9A42     		cmp	r2, r3
  40 0020 11D8     		bhi	.L2
  41 0022 7B69     		ldr	r3, [r7, #20]
  42 0024 1A68     		ldr	r2, [r3]
  43 0026 7B69     		ldr	r3, [r7, #20]
  44 0028 5B68     		ldr	r3, [r3, #4]
  45 002a 1344     		add	r3, r3, r2
  46 002c 7A68     		ldr	r2, [r7, #4]
  47 002e B968     		ldr	r1, [r7, #8]
  48 0030 1846     		mov	r0, r3
  49 0032 FFF7FEFF 		bl	flash_write
  50 0036 7B69     		ldr	r3, [r7, #20]
  51 0038 5A68     		ldr	r2, [r3, #4]
  52 003a 7B68     		ldr	r3, [r7, #4]
  53 003c 1A44     		add	r2, r2, r3
  54 003e 7B69     		ldr	r3, [r7, #20]
  55 0040 5A60     		str	r2, [r3, #4]
  56 0042 7B68     		ldr	r3, [r7, #4]
  57 0044 00E0     		b	.L3
ARM GAS  /var/folders/d2/nstgp4h54kz7g1l847x_b8wc0000gn/T//ccj6NODu.s 			page 2


  58              	.L2:
  59 0046 0023     		movs	r3, #0
  60              	.L3:
  61 0048 1846     		mov	r0, r3
  62 004a 1837     		adds	r7, r7, #24
  63 004c BD46     		mov	sp, r7
  64              		@ sp needed
  65 004e 80BD     		pop	{r7, pc}
  66              		.size	cmp_flash_writer, .-cmp_flash_writer
  67              		.section	.text.config_erase,"ax",%progbits
  68              		.align	1
  69              		.global	config_erase
  70              		.syntax unified
  71              		.thumb
  72              		.thumb_func
  73              		.fpu fpv4-sp-d16
  74              		.type	config_erase, %function
  75              	config_erase:
  76              		@ args = 0, pretend = 0, frame = 8
  77              		@ frame_needed = 1, uses_anonymous_args = 0
  78 0000 80B5     		push	{r7, lr}
  79 0002 82B0     		sub	sp, sp, #8
  80 0004 00AF     		add	r7, sp, #0
  81 0006 7860     		str	r0, [r7, #4]
  82 0008 FFF7FEFF 		bl	flash_unlock
  83 000c 7868     		ldr	r0, [r7, #4]
  84 000e FFF7FEFF 		bl	flash_sector_erase
  85 0012 FFF7FEFF 		bl	flash_lock
  86 0016 00BF     		nop
  87 0018 0837     		adds	r7, r7, #8
  88 001a BD46     		mov	sp, r7
  89              		@ sp needed
  90 001c 80BD     		pop	{r7, pc}
  91              		.size	config_erase, .-config_erase
  92              		.section	.text.err_mark_false,"ax",%progbits
  93              		.align	1
  94              		.syntax unified
  95              		.thumb
  96              		.thumb_func
  97              		.fpu fpv4-sp-d16
  98              		.type	err_mark_false, %function
  99              	err_mark_false:
 100              		@ args = 0, pretend = 0, frame = 24
 101              		@ frame_needed = 1, uses_anonymous_args = 0
 102              		@ link register save eliminated.
 103 0000 80B4     		push	{r7}
 104 0002 87B0     		sub	sp, sp, #28
 105 0004 00AF     		add	r7, sp, #0
 106 0006 F860     		str	r0, [r7, #12]
 107 0008 B960     		str	r1, [r7, #8]
 108 000a 7A60     		str	r2, [r7, #4]
 109 000c FB68     		ldr	r3, [r7, #12]
 110 000e 7B61     		str	r3, [r7, #20]
 111 0010 7B69     		ldr	r3, [r7, #20]
 112 0012 0022     		movs	r2, #0
 113 0014 1A70     		strb	r2, [r3]
 114 0016 00BF     		nop
ARM GAS  /var/folders/d2/nstgp4h54kz7g1l847x_b8wc0000gn/T//ccj6NODu.s 			page 3


 115 0018 1C37     		adds	r7, r7, #28
 116 001a BD46     		mov	sp, r7
 117              		@ sp needed
 118 001c 5DF8047B 		ldr	r7, [sp], #4
 119 0020 7047     		bx	lr
 120              		.size	err_mark_false, .-err_mark_false
 121              		.section	.text.config_save,"ax",%progbits
 122              		.align	1
 123              		.global	config_save
 124              		.syntax unified
 125              		.thumb
 126              		.thumb_func
 127              		.fpu fpv4-sp-d16
 128              		.type	config_save, %function
 129              	config_save:
 130              		@ args = 0, pretend = 0, frame = 56
 131              		@ frame_needed = 1, uses_anonymous_args = 0
 132 0000 80B5     		push	{r7, lr}
 133 0002 8EB0     		sub	sp, sp, #56
 134 0004 00AF     		add	r7, sp, #0
 135 0006 F860     		str	r0, [r7, #12]
 136 0008 B960     		str	r1, [r7, #8]
 137 000a 7A60     		str	r2, [r7, #4]
 138 000c 0123     		movs	r3, #1
 139 000e FB74     		strb	r3, [r7, #19]
 140 0010 FB68     		ldr	r3, [r7, #12]
 141 0012 3B63     		str	r3, [r7, #48]
 142 0014 FFF7FEFF 		bl	flash_unlock
 143 0018 F868     		ldr	r0, [r7, #12]
 144 001a FFF7FEFF 		bl	config_block_find_last_used
 145 001e 0346     		mov	r3, r0
 146 0020 002B     		cmp	r3, #0
 147 0022 02D1     		bne	.L7
 148 0024 F868     		ldr	r0, [r7, #12]
 149 0026 FFF7FEFF 		bl	flash_sector_erase
 150              	.L7:
 151 002a F868     		ldr	r0, [r7, #12]
 152 002c FFF7FEFF 		bl	config_block_find_first_free
 153 0030 F860     		str	r0, [r7, #12]
 154 0032 FA68     		ldr	r2, [r7, #12]
 155 0034 3B6B     		ldr	r3, [r7, #48]
 156 0036 D31A     		subs	r3, r2, r3
 157 0038 1A46     		mov	r2, r3
 158 003a BB68     		ldr	r3, [r7, #8]
 159 003c 9B1A     		subs	r3, r3, r2
 160 003e 7B63     		str	r3, [r7, #52]
 161 0040 7B6B     		ldr	r3, [r7, #52]
 162 0042 0C2B     		cmp	r3, #12
 163 0044 06D8     		bhi	.L8
 164 0046 386B     		ldr	r0, [r7, #48]
 165 0048 FFF7FEFF 		bl	flash_sector_erase
 166 004c 3B6B     		ldr	r3, [r7, #48]
 167 004e FB60     		str	r3, [r7, #12]
 168 0050 BB68     		ldr	r3, [r7, #8]
 169 0052 7B63     		str	r3, [r7, #52]
 170              	.L8:
 171 0054 FB68     		ldr	r3, [r7, #12]
ARM GAS  /var/folders/d2/nstgp4h54kz7g1l847x_b8wc0000gn/T//ccj6NODu.s 			page 4


 172 0056 03F10C02 		add	r2, r3, #12
 173 005a 7B6B     		ldr	r3, [r7, #52]
 174 005c 0C3B     		subs	r3, r3, #12
 175 005e 07F11401 		add	r1, r7, #20
 176 0062 07F12000 		add	r0, r7, #32
 177 0066 FFF7FEFF 		bl	cmp_mem_access_init
 178 006a 154B     		ldr	r3, .L11
 179 006c FB62     		str	r3, [r7, #44]
 180 006e 07F11303 		add	r3, r7, #19
 181 0072 07F12001 		add	r1, r7, #32
 182 0076 134A     		ldr	r2, .L11+4
 183 0078 7868     		ldr	r0, [r7, #4]
 184 007a FFF7FEFF 		bl	parameter_msgpack_write_cmp
 185 007e FB7C     		ldrb	r3, [r7, #19]	@ zero_extendqisi2
 186 0080 83F00103 		eor	r3, r3, #1
 187 0084 DBB2     		uxtb	r3, r3
 188 0086 002B     		cmp	r3, #0
 189 0088 0AD0     		beq	.L9
 190 008a 386B     		ldr	r0, [r7, #48]
 191 008c FFF7FEFF 		bl	flash_sector_erase
 192 0090 FFF7FEFF 		bl	flash_lock
 193 0094 7A68     		ldr	r2, [r7, #4]
 194 0096 B968     		ldr	r1, [r7, #8]
 195 0098 386B     		ldr	r0, [r7, #48]
 196 009a FFF7FEFF 		bl	config_save
 197 009e 0BE0     		b	.L6
 198              	.L9:
 199 00a0 07F11403 		add	r3, r7, #20
 200 00a4 1846     		mov	r0, r3
 201 00a6 FFF7FEFF 		bl	cmp_mem_access_get_pos
 202 00aa 7863     		str	r0, [r7, #52]
 203 00ac 796B     		ldr	r1, [r7, #52]
 204 00ae F868     		ldr	r0, [r7, #12]
 205 00b0 FFF7FEFF 		bl	config_write_block_header
 206 00b4 FFF7FEFF 		bl	flash_lock
 207              	.L6:
 208 00b8 3837     		adds	r7, r7, #56
 209 00ba BD46     		mov	sp, r7
 210              		@ sp needed
 211 00bc 80BD     		pop	{r7, pc}
 212              	.L12:
 213 00be 00BF     		.align	2
 214              	.L11:
 215 00c0 00000000 		.word	cmp_flash_writer
 216 00c4 00000000 		.word	err_mark_false
 217              		.size	config_save, .-config_save
 218              		.section	.text.config_load,"ax",%progbits
 219              		.align	1
 220              		.global	config_load
 221              		.syntax unified
 222              		.thumb
 223              		.thumb_func
 224              		.fpu fpv4-sp-d16
 225              		.type	config_load, %function
 226              	config_load:
 227              		@ args = 0, pretend = 0, frame = 16
 228              		@ frame_needed = 1, uses_anonymous_args = 0
ARM GAS  /var/folders/d2/nstgp4h54kz7g1l847x_b8wc0000gn/T//ccj6NODu.s 			page 5


 229 0000 80B5     		push	{r7, lr}
 230 0002 86B0     		sub	sp, sp, #24
 231 0004 02AF     		add	r7, sp, #8
 232 0006 7860     		str	r0, [r7, #4]
 233 0008 3960     		str	r1, [r7]
 234 000a 3868     		ldr	r0, [r7]
 235 000c FFF7FEFF 		bl	config_block_find_last_used
 236 0010 3860     		str	r0, [r7]
 237 0012 3B68     		ldr	r3, [r7]
 238 0014 002B     		cmp	r3, #0
 239 0016 01D1     		bne	.L14
 240 0018 0023     		movs	r3, #0
 241 001a 14E0     		b	.L15
 242              	.L14:
 243 001c 3868     		ldr	r0, [r7]
 244 001e FFF7FEFF 		bl	config_block_get_length
 245 0022 F860     		str	r0, [r7, #12]
 246 0024 3B68     		ldr	r3, [r7]
 247 0026 03F10C01 		add	r1, r3, #12
 248 002a 0023     		movs	r3, #0
 249 002c 0093     		str	r3, [sp]
 250 002e 0023     		movs	r3, #0
 251 0030 FA68     		ldr	r2, [r7, #12]
 252 0032 7868     		ldr	r0, [r7, #4]
 253 0034 FFF7FEFF 		bl	parameter_msgpack_read
 254 0038 B860     		str	r0, [r7, #8]
 255 003a BB68     		ldr	r3, [r7, #8]
 256 003c 002B     		cmp	r3, #0
 257 003e 01D0     		beq	.L16
 258 0040 0023     		movs	r3, #0
 259 0042 00E0     		b	.L15
 260              	.L16:
 261 0044 0123     		movs	r3, #1
 262              	.L15:
 263 0046 1846     		mov	r0, r3
 264 0048 1037     		adds	r7, r7, #16
 265 004a BD46     		mov	sp, r7
 266              		@ sp needed
 267 004c 80BD     		pop	{r7, pc}
 268              		.size	config_load, .-config_load
 269              		.section	.text.config_block_is_valid,"ax",%progbits
 270              		.align	1
 271              		.global	config_block_is_valid
 272              		.syntax unified
 273              		.thumb
 274              		.thumb_func
 275              		.fpu fpv4-sp-d16
 276              		.type	config_block_is_valid, %function
 277              	config_block_is_valid:
 278              		@ args = 0, pretend = 0, frame = 24
 279              		@ frame_needed = 1, uses_anonymous_args = 0
 280 0000 80B5     		push	{r7, lr}
 281 0002 86B0     		sub	sp, sp, #24
 282 0004 00AF     		add	r7, sp, #0
 283 0006 7860     		str	r0, [r7, #4]
 284 0008 7B68     		ldr	r3, [r7, #4]
 285 000a 7B61     		str	r3, [r7, #20]
ARM GAS  /var/folders/d2/nstgp4h54kz7g1l847x_b8wc0000gn/T//ccj6NODu.s 			page 6


 286 000c 0023     		movs	r3, #0
 287 000e 3B61     		str	r3, [r7, #16]
 288 0010 7A69     		ldr	r2, [r7, #20]
 289 0012 3B69     		ldr	r3, [r7, #16]
 290 0014 1344     		add	r3, r3, r2
 291 0016 1B68     		ldr	r3, [r3]	@ unaligned
 292 0018 FB60     		str	r3, [r7, #12]
 293 001a 3B69     		ldr	r3, [r7, #16]
 294 001c 0433     		adds	r3, r3, #4
 295 001e 3B61     		str	r3, [r7, #16]
 296 0020 7A69     		ldr	r2, [r7, #20]
 297 0022 3B69     		ldr	r3, [r7, #16]
 298 0024 1344     		add	r3, r3, r2
 299 0026 1B68     		ldr	r3, [r3]	@ unaligned
 300 0028 BB60     		str	r3, [r7, #8]
 301 002a 3B69     		ldr	r3, [r7, #16]
 302 002c 0433     		adds	r3, r3, #4
 303 002e 3B61     		str	r3, [r7, #16]
 304 0030 07F10803 		add	r3, r7, #8
 305 0034 0422     		movs	r2, #4
 306 0036 1946     		mov	r1, r3
 307 0038 1148     		ldr	r0, .L22
 308 003a FFF7FEFF 		bl	crc32
 309 003e 0246     		mov	r2, r0
 310 0040 FB68     		ldr	r3, [r7, #12]
 311 0042 9A42     		cmp	r2, r3
 312 0044 01D0     		beq	.L18
 313 0046 0023     		movs	r3, #0
 314 0048 16E0     		b	.L21
 315              	.L18:
 316 004a 7A69     		ldr	r2, [r7, #20]
 317 004c 3B69     		ldr	r3, [r7, #16]
 318 004e 1344     		add	r3, r3, r2
 319 0050 1B68     		ldr	r3, [r3]	@ unaligned
 320 0052 FB60     		str	r3, [r7, #12]
 321 0054 3B69     		ldr	r3, [r7, #16]
 322 0056 0433     		adds	r3, r3, #4
 323 0058 3B61     		str	r3, [r7, #16]
 324 005a 7A69     		ldr	r2, [r7, #20]
 325 005c 3B69     		ldr	r3, [r7, #16]
 326 005e 1344     		add	r3, r3, r2
 327 0060 BA68     		ldr	r2, [r7, #8]
 328 0062 1946     		mov	r1, r3
 329 0064 0648     		ldr	r0, .L22
 330 0066 FFF7FEFF 		bl	crc32
 331 006a 0246     		mov	r2, r0
 332 006c FB68     		ldr	r3, [r7, #12]
 333 006e 9A42     		cmp	r2, r3
 334 0070 01D0     		beq	.L20
 335 0072 0023     		movs	r3, #0
 336 0074 00E0     		b	.L21
 337              	.L20:
 338 0076 0123     		movs	r3, #1
 339              	.L21:
 340 0078 1846     		mov	r0, r3
 341 007a 1837     		adds	r7, r7, #24
 342 007c BD46     		mov	sp, r7
ARM GAS  /var/folders/d2/nstgp4h54kz7g1l847x_b8wc0000gn/T//ccj6NODu.s 			page 7


 343              		@ sp needed
 344 007e 80BD     		pop	{r7, pc}
 345              	.L23:
 346              		.align	2
 347              	.L22:
 348 0080 EFBEADDE 		.word	-559038737
 349              		.size	config_block_is_valid, .-config_block_is_valid
 350              		.section	.text.config_write_block_header,"ax",%progbits
 351              		.align	1
 352              		.global	config_write_block_header
 353              		.syntax unified
 354              		.thumb
 355              		.thumb_func
 356              		.fpu fpv4-sp-d16
 357              		.type	config_write_block_header, %function
 358              	config_write_block_header:
 359              		@ args = 0, pretend = 0, frame = 16
 360              		@ frame_needed = 1, uses_anonymous_args = 0
 361 0000 80B5     		push	{r7, lr}
 362 0002 84B0     		sub	sp, sp, #16
 363 0004 00AF     		add	r7, sp, #0
 364 0006 7860     		str	r0, [r7, #4]
 365 0008 3960     		str	r1, [r7]
 366 000a 0023     		movs	r3, #0
 367 000c FB60     		str	r3, [r7, #12]
 368 000e 3B46     		mov	r3, r7
 369 0010 0422     		movs	r2, #4
 370 0012 1946     		mov	r1, r3
 371 0014 1848     		ldr	r0, .L25
 372 0016 FFF7FEFF 		bl	crc32
 373 001a 0346     		mov	r3, r0
 374 001c BB60     		str	r3, [r7, #8]
 375 001e 7A68     		ldr	r2, [r7, #4]
 376 0020 FB68     		ldr	r3, [r7, #12]
 377 0022 1344     		add	r3, r3, r2
 378 0024 07F10801 		add	r1, r7, #8
 379 0028 0422     		movs	r2, #4
 380 002a 1846     		mov	r0, r3
 381 002c FFF7FEFF 		bl	flash_write
 382 0030 FB68     		ldr	r3, [r7, #12]
 383 0032 0433     		adds	r3, r3, #4
 384 0034 FB60     		str	r3, [r7, #12]
 385 0036 7A68     		ldr	r2, [r7, #4]
 386 0038 FB68     		ldr	r3, [r7, #12]
 387 003a 1344     		add	r3, r3, r2
 388 003c 3946     		mov	r1, r7
 389 003e 0422     		movs	r2, #4
 390 0040 1846     		mov	r0, r3
 391 0042 FFF7FEFF 		bl	flash_write
 392 0046 FB68     		ldr	r3, [r7, #12]
 393 0048 0433     		adds	r3, r3, #4
 394 004a FB60     		str	r3, [r7, #12]
 395 004c 7B68     		ldr	r3, [r7, #4]
 396 004e 0C33     		adds	r3, r3, #12
 397 0050 3A68     		ldr	r2, [r7]
 398 0052 1946     		mov	r1, r3
 399 0054 0848     		ldr	r0, .L25
ARM GAS  /var/folders/d2/nstgp4h54kz7g1l847x_b8wc0000gn/T//ccj6NODu.s 			page 8


 400 0056 FFF7FEFF 		bl	crc32
 401 005a 0346     		mov	r3, r0
 402 005c BB60     		str	r3, [r7, #8]
 403 005e 7A68     		ldr	r2, [r7, #4]
 404 0060 FB68     		ldr	r3, [r7, #12]
 405 0062 1344     		add	r3, r3, r2
 406 0064 07F10801 		add	r1, r7, #8
 407 0068 0422     		movs	r2, #4
 408 006a 1846     		mov	r0, r3
 409 006c FFF7FEFF 		bl	flash_write
 410 0070 00BF     		nop
 411 0072 1037     		adds	r7, r7, #16
 412 0074 BD46     		mov	sp, r7
 413              		@ sp needed
 414 0076 80BD     		pop	{r7, pc}
 415              	.L26:
 416              		.align	2
 417              	.L25:
 418 0078 EFBEADDE 		.word	-559038737
 419              		.size	config_write_block_header, .-config_write_block_header
 420              		.section	.text.config_block_get_length,"ax",%progbits
 421              		.align	1
 422              		.global	config_block_get_length
 423              		.syntax unified
 424              		.thumb
 425              		.thumb_func
 426              		.fpu fpv4-sp-d16
 427              		.type	config_block_get_length, %function
 428              	config_block_get_length:
 429              		@ args = 0, pretend = 0, frame = 16
 430              		@ frame_needed = 1, uses_anonymous_args = 0
 431              		@ link register save eliminated.
 432 0000 80B4     		push	{r7}
 433 0002 85B0     		sub	sp, sp, #20
 434 0004 00AF     		add	r7, sp, #0
 435 0006 7860     		str	r0, [r7, #4]
 436 0008 7B68     		ldr	r3, [r7, #4]
 437 000a FB60     		str	r3, [r7, #12]
 438 000c FB68     		ldr	r3, [r7, #12]
 439 000e 5B68     		ldr	r3, [r3, #4]
 440 0010 1846     		mov	r0, r3
 441 0012 1437     		adds	r7, r7, #20
 442 0014 BD46     		mov	sp, r7
 443              		@ sp needed
 444 0016 5DF8047B 		ldr	r7, [sp], #4
 445 001a 7047     		bx	lr
 446              		.size	config_block_get_length, .-config_block_get_length
 447              		.section	.text.config_block_find_last_used,"ax",%progbits
 448              		.align	1
 449              		.global	config_block_find_last_used
 450              		.syntax unified
 451              		.thumb
 452              		.thumb_func
 453              		.fpu fpv4-sp-d16
 454              		.type	config_block_find_last_used, %function
 455              	config_block_find_last_used:
 456              		@ args = 0, pretend = 0, frame = 16
ARM GAS  /var/folders/d2/nstgp4h54kz7g1l847x_b8wc0000gn/T//ccj6NODu.s 			page 9


 457              		@ frame_needed = 1, uses_anonymous_args = 0
 458 0000 80B5     		push	{r7, lr}
 459 0002 84B0     		sub	sp, sp, #16
 460 0004 00AF     		add	r7, sp, #0
 461 0006 7860     		str	r0, [r7, #4]
 462 0008 7B68     		ldr	r3, [r7, #4]
 463 000a FB60     		str	r3, [r7, #12]
 464 000c 0023     		movs	r3, #0
 465 000e BB60     		str	r3, [r7, #8]
 466 0010 0BE0     		b	.L30
 467              	.L31:
 468 0012 FB68     		ldr	r3, [r7, #12]
 469 0014 BB60     		str	r3, [r7, #8]
 470 0016 F868     		ldr	r0, [r7, #12]
 471 0018 FFF7FEFF 		bl	config_block_get_length
 472 001c 0246     		mov	r2, r0
 473 001e FB68     		ldr	r3, [r7, #12]
 474 0020 1344     		add	r3, r3, r2
 475 0022 FB60     		str	r3, [r7, #12]
 476 0024 FB68     		ldr	r3, [r7, #12]
 477 0026 0C33     		adds	r3, r3, #12
 478 0028 FB60     		str	r3, [r7, #12]
 479              	.L30:
 480 002a F868     		ldr	r0, [r7, #12]
 481 002c FFF7FEFF 		bl	config_block_is_valid
 482 0030 0346     		mov	r3, r0
 483 0032 002B     		cmp	r3, #0
 484 0034 EDD1     		bne	.L31
 485 0036 BB68     		ldr	r3, [r7, #8]
 486 0038 1846     		mov	r0, r3
 487 003a 1037     		adds	r7, r7, #16
 488 003c BD46     		mov	sp, r7
 489              		@ sp needed
 490 003e 80BD     		pop	{r7, pc}
 491              		.size	config_block_find_last_used, .-config_block_find_last_used
 492              		.section	.text.config_block_find_first_free,"ax",%progbits
 493              		.align	1
 494              		.global	config_block_find_first_free
 495              		.syntax unified
 496              		.thumb
 497              		.thumb_func
 498              		.fpu fpv4-sp-d16
 499              		.type	config_block_find_first_free, %function
 500              	config_block_find_first_free:
 501              		@ args = 0, pretend = 0, frame = 16
 502              		@ frame_needed = 1, uses_anonymous_args = 0
 503 0000 80B5     		push	{r7, lr}
 504 0002 84B0     		sub	sp, sp, #16
 505 0004 00AF     		add	r7, sp, #0
 506 0006 7860     		str	r0, [r7, #4]
 507 0008 7B68     		ldr	r3, [r7, #4]
 508 000a FB60     		str	r3, [r7, #12]
 509 000c 09E0     		b	.L34
 510              	.L35:
 511 000e F868     		ldr	r0, [r7, #12]
 512 0010 FFF7FEFF 		bl	config_block_get_length
 513 0014 0246     		mov	r2, r0
ARM GAS  /var/folders/d2/nstgp4h54kz7g1l847x_b8wc0000gn/T//ccj6NODu.s 			page 10


 514 0016 FB68     		ldr	r3, [r7, #12]
 515 0018 1344     		add	r3, r3, r2
 516 001a FB60     		str	r3, [r7, #12]
 517 001c FB68     		ldr	r3, [r7, #12]
 518 001e 0C33     		adds	r3, r3, #12
 519 0020 FB60     		str	r3, [r7, #12]
 520              	.L34:
 521 0022 F868     		ldr	r0, [r7, #12]
 522 0024 FFF7FEFF 		bl	config_block_is_valid
 523 0028 0346     		mov	r3, r0
 524 002a 002B     		cmp	r3, #0
 525 002c EFD1     		bne	.L35
 526 002e FB68     		ldr	r3, [r7, #12]
 527 0030 1846     		mov	r0, r3
 528 0032 1037     		adds	r7, r7, #16
 529 0034 BD46     		mov	sp, r7
 530              		@ sp needed
 531 0036 80BD     		pop	{r7, pc}
 532              		.size	config_block_find_first_free, .-config_block_find_first_free
 533              		.ident	"GCC: (GNU Tools for Arm Embedded Processors 7-2017-q4-major) 7.2.1 20170904 (release) [ARM
ARM GAS  /var/folders/d2/nstgp4h54kz7g1l847x_b8wc0000gn/T//ccj6NODu.s 			page 11

