ARM GAS  /var/folders/d2/nstgp4h54kz7g1l847x_b8wc0000gn/T//cchv4K2w.s 			page 1


   1              		.cpu cortex-m4
   2              		.eabi_attribute 27, 1
   3              		.eabi_attribute 28, 1
   4              		.eabi_attribute 20, 1
   5              		.eabi_attribute 21, 1
   6              		.eabi_attribute 23, 3
   7              		.eabi_attribute 24, 1
   8              		.eabi_attribute 25, 1
   9              		.eabi_attribute 26, 1
  10              		.eabi_attribute 30, 2
  11              		.eabi_attribute 34, 1
  12              		.eabi_attribute 18, 4
  13              		.file	"config_flash_storage.c"
  14              		.text
  15              	.Ltext0:
  16              		.cfi_sections	.debug_frame
  17              		.section	.text.err_mark_false,"ax",%progbits
  18              		.align	1
  19              		.p2align 4,,15
  20              		.syntax unified
  21              		.thumb
  22              		.thumb_func
  23              		.fpu fpv4-sp-d16
  24              		.type	err_mark_false, %function
  25              	err_mark_false:
  26              	.LFB2:
  27              		.file 1 "../e-puck2_main-processor/src/config_flash_storage.c"
  28              		.loc 1 35 0
  29              		.cfi_startproc
  30              		@ args = 0, pretend = 0, frame = 8
  31              		@ frame_needed = 0, uses_anonymous_args = 0
  32              	.LVL0:
  33 0000 00B5     		push	{lr}
  34              		.cfi_def_cfa_offset 4
  35              		.cfi_offset 14, -4
  36 0002 074B     		ldr	r3, .L6
  37 0004 83B0     		sub	sp, sp, #12
  38              		.cfi_def_cfa_offset 16
  39              		.loc 1 35 0
  40 0006 1A68     		ldr	r2, [r3]
  41              	.LVL1:
  42 0008 0192     		str	r2, [sp, #4]
  43              	.LVL2:
  44              		.loc 1 40 0
  45 000a 0022     		movs	r2, #0
  46 000c 0270     		strb	r2, [r0]
  47              		.loc 1 41 0
  48 000e 019A     		ldr	r2, [sp, #4]
  49 0010 1B68     		ldr	r3, [r3]
  50 0012 9A42     		cmp	r2, r3
  51 0014 02D1     		bne	.L5
  52 0016 03B0     		add	sp, sp, #12
  53              		.cfi_remember_state
  54              		.cfi_def_cfa_offset 4
  55              		@ sp needed
  56 0018 5DF804FB 		ldr	pc, [sp], #4
  57              	.L5:
ARM GAS  /var/folders/d2/nstgp4h54kz7g1l847x_b8wc0000gn/T//cchv4K2w.s 			page 2


  58              		.cfi_restore_state
  59 001c FFF7FEFF 		bl	__stack_chk_fail
  60              	.LVL3:
  61              	.L7:
  62              		.align	2
  63              	.L6:
  64 0020 00000000 		.word	__stack_chk_guard
  65              		.cfi_endproc
  66              	.LFE2:
  67              		.size	err_mark_false, .-err_mark_false
  68              		.section	.text.cmp_flash_writer,"ax",%progbits
  69              		.align	1
  70              		.p2align 4,,15
  71              		.syntax unified
  72              		.thumb
  73              		.thumb_func
  74              		.fpu fpv4-sp-d16
  75              		.type	cmp_flash_writer, %function
  76              	cmp_flash_writer:
  77              	.LFB0:
  78              		.loc 1 16 0
  79              		.cfi_startproc
  80              		@ args = 0, pretend = 0, frame = 8
  81              		@ frame_needed = 0, uses_anonymous_args = 0
  82              	.LVL4:
  83 0000 F0B5     		push	{r4, r5, r6, r7, lr}
  84              		.cfi_def_cfa_offset 20
  85              		.cfi_offset 4, -20
  86              		.cfi_offset 5, -16
  87              		.cfi_offset 6, -12
  88              		.cfi_offset 7, -8
  89              		.cfi_offset 14, -4
  90              		.loc 1 17 0
  91 0002 4568     		ldr	r5, [r0, #4]
  92              	.LVL5:
  93              		.loc 1 16 0
  94 0004 0D4E     		ldr	r6, .L15
  95              		.loc 1 18 0
  96 0006 D5E90130 		ldrd	r3, r0, [r5, #4]
  97              	.LVL6:
  98              		.loc 1 16 0
  99 000a 83B0     		sub	sp, sp, #12
 100              		.cfi_def_cfa_offset 32
 101              		.loc 1 18 0
 102 000c 9F18     		adds	r7, r3, r2
 103              		.loc 1 16 0
 104 000e 3468     		ldr	r4, [r6]
 105 0010 0194     		str	r4, [sp, #4]
 106              		.loc 1 18 0
 107 0012 8742     		cmp	r7, r0
 108 0014 06D9     		bls	.L13
 109              		.loc 1 23 0
 110 0016 0020     		movs	r0, #0
 111              	.LVL7:
 112              	.L8:
 113              		.loc 1 25 0
 114 0018 019A     		ldr	r2, [sp, #4]
ARM GAS  /var/folders/d2/nstgp4h54kz7g1l847x_b8wc0000gn/T//cchv4K2w.s 			page 3


 115 001a 3368     		ldr	r3, [r6]
 116 001c 9A42     		cmp	r2, r3
 117 001e 0BD1     		bne	.L14
 118 0020 03B0     		add	sp, sp, #12
 119              		.cfi_remember_state
 120              		.cfi_def_cfa_offset 20
 121              		@ sp needed
 122 0022 F0BD     		pop	{r4, r5, r6, r7, pc}
 123              	.LVL8:
 124              	.L13:
 125              		.cfi_restore_state
 126              		.loc 1 19 0
 127 0024 2868     		ldr	r0, [r5]
 128 0026 1844     		add	r0, r0, r3
 129 0028 1446     		mov	r4, r2
 130 002a FFF7FEFF 		bl	flash_write
 131              	.LVL9:
 132              		.loc 1 20 0
 133 002e 6B68     		ldr	r3, [r5, #4]
 134 0030 2344     		add	r3, r3, r4
 135 0032 6B60     		str	r3, [r5, #4]
 136              		.loc 1 21 0
 137 0034 2046     		mov	r0, r4
 138 0036 EFE7     		b	.L8
 139              	.LVL10:
 140              	.L14:
 141              		.loc 1 25 0
 142 0038 FFF7FEFF 		bl	__stack_chk_fail
 143              	.LVL11:
 144              	.L16:
 145              		.align	2
 146              	.L15:
 147 003c 00000000 		.word	__stack_chk_guard
 148              		.cfi_endproc
 149              	.LFE0:
 150              		.size	cmp_flash_writer, .-cmp_flash_writer
 151              		.section	.text.config_erase,"ax",%progbits
 152              		.align	1
 153              		.p2align 4,,15
 154              		.global	config_erase
 155              		.syntax unified
 156              		.thumb
 157              		.thumb_func
 158              		.fpu fpv4-sp-d16
 159              		.type	config_erase, %function
 160              	config_erase:
 161              	.LFB1:
 162              		.loc 1 28 0
 163              		.cfi_startproc
 164              		@ args = 0, pretend = 0, frame = 8
 165              		@ frame_needed = 0, uses_anonymous_args = 0
 166              	.LVL12:
 167 0000 30B5     		push	{r4, r5, lr}
 168              		.cfi_def_cfa_offset 12
 169              		.cfi_offset 4, -12
 170              		.cfi_offset 5, -8
 171              		.cfi_offset 14, -4
ARM GAS  /var/folders/d2/nstgp4h54kz7g1l847x_b8wc0000gn/T//cchv4K2w.s 			page 4


 172 0002 0A4C     		ldr	r4, .L22
 173 0004 83B0     		sub	sp, sp, #12
 174              		.cfi_def_cfa_offset 24
 175              		.loc 1 28 0
 176 0006 2368     		ldr	r3, [r4]
 177 0008 0193     		str	r3, [sp, #4]
 178 000a 0546     		mov	r5, r0
 179              		.loc 1 29 0
 180 000c FFF7FEFF 		bl	flash_unlock
 181              	.LVL13:
 182              		.loc 1 30 0
 183 0010 2846     		mov	r0, r5
 184 0012 FFF7FEFF 		bl	flash_sector_erase
 185              	.LVL14:
 186              		.loc 1 31 0
 187 0016 019A     		ldr	r2, [sp, #4]
 188 0018 2368     		ldr	r3, [r4]
 189 001a 9A42     		cmp	r2, r3
 190 001c 04D1     		bne	.L21
 191              		.loc 1 32 0
 192 001e 03B0     		add	sp, sp, #12
 193              		.cfi_remember_state
 194              		.cfi_def_cfa_offset 12
 195              		@ sp needed
 196 0020 BDE83040 		pop	{r4, r5, lr}
 197              		.cfi_restore 14
 198              		.cfi_restore 5
 199              		.cfi_restore 4
 200              		.cfi_def_cfa_offset 0
 201              	.LVL15:
 202              		.loc 1 31 0
 203 0024 FFF7FEBF 		b	flash_lock
 204              	.LVL16:
 205              	.L21:
 206              		.cfi_restore_state
 207 0028 FFF7FEFF 		bl	__stack_chk_fail
 208              	.LVL17:
 209              	.L23:
 210              		.align	2
 211              	.L22:
 212 002c 00000000 		.word	__stack_chk_guard
 213              		.cfi_endproc
 214              	.LFE1:
 215              		.size	config_erase, .-config_erase
 216              		.section	.text.config_block_is_valid,"ax",%progbits
 217              		.align	1
 218              		.p2align 4,,15
 219              		.global	config_block_is_valid
 220              		.syntax unified
 221              		.thumb
 222              		.thumb_func
 223              		.fpu fpv4-sp-d16
 224              		.type	config_block_is_valid, %function
 225              	config_block_is_valid:
 226              	.LFB5:
 227              		.loc 1 120 0
 228              		.cfi_startproc
ARM GAS  /var/folders/d2/nstgp4h54kz7g1l847x_b8wc0000gn/T//cchv4K2w.s 			page 5


 229              		@ args = 0, pretend = 0, frame = 8
 230              		@ frame_needed = 0, uses_anonymous_args = 0
 231              	.LVL18:
 232 0000 70B5     		push	{r4, r5, r6, lr}
 233              		.cfi_def_cfa_offset 16
 234              		.cfi_offset 4, -16
 235              		.cfi_offset 5, -12
 236              		.cfi_offset 6, -8
 237              		.cfi_offset 14, -4
 238 0002 82B0     		sub	sp, sp, #8
 239              		.cfi_def_cfa_offset 24
 240              		.loc 1 130 0
 241 0004 02A9     		add	r1, sp, #8
 242              		.loc 1 120 0
 243 0006 114D     		ldr	r5, .L31
 244              		.loc 1 130 0
 245 0008 4368     		ldr	r3, [r0, #4]	@ unaligned
 246 000a 41F8083D 		str	r3, [r1, #-8]!
 247              		.loc 1 120 0
 248 000e 0446     		mov	r4, r0
 249 0010 2B68     		ldr	r3, [r5]
 250              		.loc 1 134 0
 251 0012 0F48     		ldr	r0, .L31+4
 252              	.LVL19:
 253              		.loc 1 126 0
 254 0014 2668     		ldr	r6, [r4]	@ unaligned
 255              		.loc 1 120 0
 256 0016 0193     		str	r3, [sp, #4]
 257              	.LVL20:
 258              		.loc 1 134 0
 259 0018 0422     		movs	r2, #4
 260 001a FFF7FEFF 		bl	crc32
 261              	.LVL21:
 262 001e B042     		cmp	r0, r6
 263 0020 06D0     		beq	.L29
 264              		.loc 1 135 0
 265 0022 0020     		movs	r0, #0
 266              	.LVL22:
 267              	.L25:
 268              		.loc 1 148 0
 269 0024 019A     		ldr	r2, [sp, #4]
 270 0026 2B68     		ldr	r3, [r5]
 271 0028 9A42     		cmp	r2, r3
 272 002a 0DD1     		bne	.L30
 273 002c 02B0     		add	sp, sp, #8
 274              		.cfi_remember_state
 275              		.cfi_def_cfa_offset 16
 276              		@ sp needed
 277 002e 70BD     		pop	{r4, r5, r6, pc}
 278              	.LVL23:
 279              	.L29:
 280              		.cfi_restore_state
 281              		.loc 1 143 0
 282 0030 009A     		ldr	r2, [sp]
 283 0032 0748     		ldr	r0, .L31+4
 284              		.loc 1 139 0
 285 0034 A668     		ldr	r6, [r4, #8]	@ unaligned
ARM GAS  /var/folders/d2/nstgp4h54kz7g1l847x_b8wc0000gn/T//cchv4K2w.s 			page 6


 286              	.LVL24:
 287              		.loc 1 143 0
 288 0036 04F10C01 		add	r1, r4, #12
 289 003a FFF7FEFF 		bl	crc32
 290              	.LVL25:
 291 003e 801B     		subs	r0, r0, r6
 292 0040 B0FA80F0 		clz	r0, r0
 293 0044 4009     		lsrs	r0, r0, #5
 294 0046 EDE7     		b	.L25
 295              	.LVL26:
 296              	.L30:
 297              		.loc 1 148 0
 298 0048 FFF7FEFF 		bl	__stack_chk_fail
 299              	.LVL27:
 300              	.L32:
 301              		.align	2
 302              	.L31:
 303 004c 00000000 		.word	__stack_chk_guard
 304 0050 EFBEADDE 		.word	-559038737
 305              		.cfi_endproc
 306              	.LFE5:
 307              		.size	config_block_is_valid, .-config_block_is_valid
 308              		.section	.text.config_load,"ax",%progbits
 309              		.align	1
 310              		.p2align 4,,15
 311              		.global	config_load
 312              		.syntax unified
 313              		.thumb
 314              		.thumb_func
 315              		.fpu fpv4-sp-d16
 316              		.type	config_load, %function
 317              	config_load:
 318              	.LFB4:
 319              		.loc 1 96 0
 320              		.cfi_startproc
 321              		@ args = 0, pretend = 0, frame = 8
 322              		@ frame_needed = 0, uses_anonymous_args = 0
 323              	.LVL28:
 324 0000 F0B5     		push	{r4, r5, r6, r7, lr}
 325              		.cfi_def_cfa_offset 20
 326              		.cfi_offset 4, -20
 327              		.cfi_offset 5, -16
 328              		.cfi_offset 6, -12
 329              		.cfi_offset 7, -8
 330              		.cfi_offset 14, -4
 331 0002 134E     		ldr	r6, .L43
 332 0004 85B0     		sub	sp, sp, #20
 333              		.cfi_def_cfa_offset 40
 334              		.loc 1 96 0
 335 0006 3368     		ldr	r3, [r6]
 336 0008 0393     		str	r3, [sp, #12]
 337 000a 0746     		mov	r7, r0
 338 000c 0C46     		mov	r4, r1
 339              	.LVL29:
 340              	.LBB20:
 341              	.LBB21:
 342              		.loc 1 179 0
ARM GAS  /var/folders/d2/nstgp4h54kz7g1l847x_b8wc0000gn/T//cchv4K2w.s 			page 7


 343 000e 0025     		movs	r5, #0
 344 0010 03E0     		b	.L34
 345              	.LVL30:
 346              	.L35:
 347 0012 6368     		ldr	r3, [r4, #4]
 348 0014 0C33     		adds	r3, r3, #12
 349              	.LVL31:
 350              		.loc 1 184 0
 351 0016 2546     		mov	r5, r4
 352 0018 1C44     		add	r4, r4, r3
 353              	.LVL32:
 354              	.L34:
 355              		.loc 1 181 0
 356 001a 2046     		mov	r0, r4
 357 001c FFF7FEFF 		bl	config_block_is_valid
 358              	.LVL33:
 359 0020 0346     		mov	r3, r0
 360 0022 0028     		cmp	r0, #0
 361 0024 F5D1     		bne	.L35
 362              	.LVL34:
 363              	.LBE21:
 364              	.LBE20:
 365              		.loc 1 103 0
 366 0026 4DB1     		cbz	r5, .L36
 367              	.LVL35:
 368              		.loc 1 109 0
 369 0028 6A68     		ldr	r2, [r5, #4]
 370 002a 0090     		str	r0, [sp]
 371 002c 05F10C01 		add	r1, r5, #12
 372 0030 3846     		mov	r0, r7
 373 0032 FFF7FEFF 		bl	parameter_msgpack_read
 374              	.LVL36:
 375              		.loc 1 112 0
 376 0036 B0FA80F3 		clz	r3, r0
 377 003a 5B09     		lsrs	r3, r3, #5
 378              	.LVL37:
 379              	.L36:
 380              		.loc 1 117 0
 381 003c 0399     		ldr	r1, [sp, #12]
 382 003e 3268     		ldr	r2, [r6]
 383 0040 9142     		cmp	r1, r2
 384 0042 1846     		mov	r0, r3
 385 0044 01D1     		bne	.L42
 386 0046 05B0     		add	sp, sp, #20
 387              		.cfi_remember_state
 388              		.cfi_def_cfa_offset 20
 389              		@ sp needed
 390 0048 F0BD     		pop	{r4, r5, r6, r7, pc}
 391              	.LVL38:
 392              	.L42:
 393              		.cfi_restore_state
 394 004a FFF7FEFF 		bl	__stack_chk_fail
 395              	.LVL39:
 396              	.L44:
 397 004e 00BF     		.align	2
 398              	.L43:
 399 0050 00000000 		.word	__stack_chk_guard
ARM GAS  /var/folders/d2/nstgp4h54kz7g1l847x_b8wc0000gn/T//cchv4K2w.s 			page 8


 400              		.cfi_endproc
 401              	.LFE4:
 402              		.size	config_load, .-config_load
 403              		.section	.text.config_write_block_header,"ax",%progbits
 404              		.align	1
 405              		.p2align 4,,15
 406              		.global	config_write_block_header
 407              		.syntax unified
 408              		.thumb
 409              		.thumb_func
 410              		.fpu fpv4-sp-d16
 411              		.type	config_write_block_header, %function
 412              	config_write_block_header:
 413              	.LFB6:
 414              		.loc 1 151 0
 415              		.cfi_startproc
 416              		@ args = 0, pretend = 0, frame = 16
 417              		@ frame_needed = 0, uses_anonymous_args = 0
 418              	.LVL40:
 419 0000 70B5     		push	{r4, r5, r6, lr}
 420              		.cfi_def_cfa_offset 16
 421              		.cfi_offset 4, -16
 422              		.cfi_offset 5, -12
 423              		.cfi_offset 6, -8
 424              		.cfi_offset 14, -4
 425 0002 164E     		ldr	r6, .L49
 426 0004 84B0     		sub	sp, sp, #16
 427              		.cfi_def_cfa_offset 32
 428              		.loc 1 151 0
 429 0006 3368     		ldr	r3, [r6]
 430 0008 0191     		str	r1, [sp, #4]
 431 000a 0446     		mov	r4, r0
 432              		.loc 1 156 0
 433 000c 01A9     		add	r1, sp, #4
 434              	.LVL41:
 435 000e 0422     		movs	r2, #4
 436 0010 1348     		ldr	r0, .L49+4
 437              	.LVL42:
 438              		.loc 1 151 0
 439 0012 0393     		str	r3, [sp, #12]
 440              	.LVL43:
 441              		.loc 1 156 0
 442 0014 FFF7FEFF 		bl	crc32
 443              	.LVL44:
 444 0018 04AD     		add	r5, sp, #16
 445              		.loc 1 157 0
 446 001a 0422     		movs	r2, #4
 447              		.loc 1 156 0
 448 001c 45F8080D 		str	r0, [r5, #-8]!
 449              		.loc 1 157 0
 450 0020 2046     		mov	r0, r4
 451 0022 2946     		mov	r1, r5
 452 0024 FFF7FEFF 		bl	flash_write
 453              	.LVL45:
 454              		.loc 1 161 0
 455 0028 01A9     		add	r1, sp, #4
 456 002a 201D     		adds	r0, r4, #4
ARM GAS  /var/folders/d2/nstgp4h54kz7g1l847x_b8wc0000gn/T//cchv4K2w.s 			page 9


 457 002c 0422     		movs	r2, #4
 458 002e FFF7FEFF 		bl	flash_write
 459              	.LVL46:
 460              		.loc 1 165 0
 461 0032 04F10C01 		add	r1, r4, #12
 462 0036 019A     		ldr	r2, [sp, #4]
 463 0038 0948     		ldr	r0, .L49+4
 464 003a FFF7FEFF 		bl	crc32
 465              	.LVL47:
 466              		.loc 1 166 0
 467 003e 0422     		movs	r2, #4
 468              		.loc 1 165 0
 469 0040 0290     		str	r0, [sp, #8]
 470              		.loc 1 166 0
 471 0042 2946     		mov	r1, r5
 472 0044 04F10800 		add	r0, r4, #8
 473 0048 FFF7FEFF 		bl	flash_write
 474              	.LVL48:
 475              		.loc 1 167 0
 476 004c 039A     		ldr	r2, [sp, #12]
 477 004e 3368     		ldr	r3, [r6]
 478 0050 9A42     		cmp	r2, r3
 479 0052 01D1     		bne	.L48
 480 0054 04B0     		add	sp, sp, #16
 481              		.cfi_remember_state
 482              		.cfi_def_cfa_offset 16
 483              		@ sp needed
 484 0056 70BD     		pop	{r4, r5, r6, pc}
 485              	.LVL49:
 486              	.L48:
 487              		.cfi_restore_state
 488 0058 FFF7FEFF 		bl	__stack_chk_fail
 489              	.LVL50:
 490              	.L50:
 491              		.align	2
 492              	.L49:
 493 005c 00000000 		.word	__stack_chk_guard
 494 0060 EFBEADDE 		.word	-559038737
 495              		.cfi_endproc
 496              	.LFE6:
 497              		.size	config_write_block_header, .-config_write_block_header
 498              		.section	.text.config_save,"ax",%progbits
 499              		.align	1
 500              		.p2align 4,,15
 501              		.global	config_save
 502              		.syntax unified
 503              		.thumb
 504              		.thumb_func
 505              		.fpu fpv4-sp-d16
 506              		.type	config_save, %function
 507              	config_save:
 508              	.LFB3:
 509              		.loc 1 44 0
 510              		.cfi_startproc
 511              		@ args = 0, pretend = 0, frame = 40
 512              		@ frame_needed = 0, uses_anonymous_args = 0
 513              	.LVL51:
ARM GAS  /var/folders/d2/nstgp4h54kz7g1l847x_b8wc0000gn/T//cchv4K2w.s 			page 10


 514 0000 2DE9F043 		push	{r4, r5, r6, r7, r8, r9, lr}
 515              		.cfi_def_cfa_offset 28
 516              		.cfi_offset 4, -28
 517              		.cfi_offset 5, -24
 518              		.cfi_offset 6, -20
 519              		.cfi_offset 7, -16
 520              		.cfi_offset 8, -12
 521              		.cfi_offset 9, -8
 522              		.cfi_offset 14, -4
 523 0004 314E     		ldr	r6, .L66
 524 0006 8BB0     		sub	sp, sp, #44
 525              		.cfi_def_cfa_offset 72
 526              		.loc 1 44 0
 527 0008 3368     		ldr	r3, [r6]
 528 000a 0993     		str	r3, [sp, #36]
 529              		.loc 1 48 0
 530 000c 0123     		movs	r3, #1
 531              		.loc 1 44 0
 532 000e 0546     		mov	r5, r0
 533 0010 0F46     		mov	r7, r1
 534 0012 9046     		mov	r8, r2
 535              		.loc 1 48 0
 536 0014 8DF80730 		strb	r3, [sp, #7]
 537              	.LVL52:
 538              	.LBB22:
 539              	.LBB23:
 540              		.loc 1 178 0
 541 0018 0446     		mov	r4, r0
 542              		.loc 1 179 0
 543 001a 4FF00009 		mov	r9, #0
 544              	.LBE23:
 545              	.LBE22:
 546              		.loc 1 52 0
 547 001e FFF7FEFF 		bl	flash_unlock
 548              	.LVL53:
 549 0022 03E0     		b	.L52
 550              	.LVL54:
 551              	.L53:
 552 0024 6368     		ldr	r3, [r4, #4]
 553 0026 0C33     		adds	r3, r3, #12
 554              	.LVL55:
 555              	.LBB26:
 556              	.LBB24:
 557              		.loc 1 184 0
 558 0028 A146     		mov	r9, r4
 559 002a 1C44     		add	r4, r4, r3
 560              	.LVL56:
 561              	.L52:
 562              		.loc 1 181 0
 563 002c 2046     		mov	r0, r4
 564 002e FFF7FEFF 		bl	config_block_is_valid
 565              	.LVL57:
 566 0032 0028     		cmp	r0, #0
 567 0034 F6D1     		bne	.L53
 568              	.LVL58:
 569              	.LBE24:
 570              	.LBE26:
ARM GAS  /var/folders/d2/nstgp4h54kz7g1l847x_b8wc0000gn/T//cchv4K2w.s 			page 11


 571              		.loc 1 56 0
 572 0036 B9F1000F 		cmp	r9, #0
 573 003a 41D0     		beq	.L62
 574              	.L54:
 575              	.LBB27:
 576              	.LBB25:
 577              		.loc 1 184 0
 578 003c 2C46     		mov	r4, r5
 579 003e 02E0     		b	.L55
 580              	.LVL59:
 581              	.L56:
 582 0040 6368     		ldr	r3, [r4, #4]
 583 0042 0C33     		adds	r3, r3, #12
 584              	.LBE25:
 585              	.LBE27:
 586              	.LBB28:
 587              	.LBB29:
 588              		.loc 1 196 0
 589 0044 1C44     		add	r4, r4, r3
 590              	.LVL60:
 591              	.L55:
 592              		.loc 1 194 0
 593 0046 2046     		mov	r0, r4
 594 0048 FFF7FEFF 		bl	config_block_is_valid
 595              	.LVL61:
 596 004c 0028     		cmp	r0, #0
 597 004e F7D1     		bne	.L56
 598              	.LVL62:
 599              	.LBE29:
 600              	.LBE28:
 601              		.loc 1 63 0
 602 0050 631B     		subs	r3, r4, r5
 603 0052 FB1A     		subs	r3, r7, r3
 604              	.LVL63:
 605              		.loc 1 66 0
 606 0054 0C2B     		cmp	r3, #12
 607 0056 22D9     		bls	.L63
 608              	.L57:
 609              	.LVL64:
 610              		.loc 1 72 0
 611 0058 0C3B     		subs	r3, r3, #12
 612              	.LVL65:
 613 005a 02A9     		add	r1, sp, #8
 614 005c 05A8     		add	r0, sp, #20
 615 005e 04F10C02 		add	r2, r4, #12
 616 0062 FFF7FEFF 		bl	cmp_mem_access_init
 617              	.LVL66:
 618              		.loc 1 76 0
 619 0066 1A4B     		ldr	r3, .L66+4
 620 0068 0893     		str	r3, [sp, #32]
 621              		.loc 1 80 0
 622 006a 05A9     		add	r1, sp, #20
 623 006c 0DF10703 		add	r3, sp, #7
 624 0070 184A     		ldr	r2, .L66+8
 625 0072 4046     		mov	r0, r8
 626 0074 FFF7FEFF 		bl	parameter_msgpack_write_cmp
 627              	.LVL67:
ARM GAS  /var/folders/d2/nstgp4h54kz7g1l847x_b8wc0000gn/T//cchv4K2w.s 			page 12


 628              		.loc 1 82 0
 629 0078 9DF80730 		ldrb	r3, [sp, #7]	@ zero_extendqisi2
 630 007c ABB1     		cbz	r3, .L64
 631              		.loc 1 88 0
 632 007e 02A8     		add	r0, sp, #8
 633 0080 FFF7FEFF 		bl	cmp_mem_access_get_pos
 634              	.LVL68:
 635              		.loc 1 90 0
 636 0084 0146     		mov	r1, r0
 637 0086 2046     		mov	r0, r4
 638              	.LVL69:
 639 0088 FFF7FEFF 		bl	config_write_block_header
 640              	.LVL70:
 641              		.loc 1 92 0
 642 008c FFF7FEFF 		bl	flash_lock
 643              	.LVL71:
 644              	.L51:
 645              		.loc 1 93 0
 646 0090 099A     		ldr	r2, [sp, #36]
 647 0092 3368     		ldr	r3, [r6]
 648 0094 9A42     		cmp	r2, r3
 649 0096 17D1     		bne	.L65
 650 0098 0BB0     		add	sp, sp, #44
 651              		.cfi_remember_state
 652              		.cfi_def_cfa_offset 28
 653              		@ sp needed
 654 009a BDE8F083 		pop	{r4, r5, r6, r7, r8, r9, pc}
 655              	.LVL72:
 656              	.L63:
 657              		.cfi_restore_state
 658              		.loc 1 67 0
 659 009e 2846     		mov	r0, r5
 660 00a0 FFF7FEFF 		bl	flash_sector_erase
 661              	.LVL73:
 662              		.loc 1 68 0
 663 00a4 2C46     		mov	r4, r5
 664              		.loc 1 69 0
 665 00a6 3B46     		mov	r3, r7
 666 00a8 D6E7     		b	.L57
 667              	.LVL74:
 668              	.L64:
 669              		.loc 1 83 0
 670 00aa 2846     		mov	r0, r5
 671 00ac FFF7FEFF 		bl	flash_sector_erase
 672              	.LVL75:
 673              		.loc 1 84 0
 674 00b0 FFF7FEFF 		bl	flash_lock
 675              	.LVL76:
 676              		.loc 1 85 0
 677 00b4 4246     		mov	r2, r8
 678 00b6 3946     		mov	r1, r7
 679 00b8 2846     		mov	r0, r5
 680 00ba FFF7FEFF 		bl	config_save
 681              	.LVL77:
 682 00be E7E7     		b	.L51
 683              	.LVL78:
 684              	.L62:
ARM GAS  /var/folders/d2/nstgp4h54kz7g1l847x_b8wc0000gn/T//cchv4K2w.s 			page 13


 685              		.loc 1 57 0
 686 00c0 2846     		mov	r0, r5
 687 00c2 FFF7FEFF 		bl	flash_sector_erase
 688              	.LVL79:
 689 00c6 B9E7     		b	.L54
 690              	.LVL80:
 691              	.L65:
 692              		.loc 1 93 0
 693 00c8 FFF7FEFF 		bl	__stack_chk_fail
 694              	.LVL81:
 695              	.L67:
 696              		.align	2
 697              	.L66:
 698 00cc 00000000 		.word	__stack_chk_guard
 699 00d0 00000000 		.word	cmp_flash_writer
 700 00d4 00000000 		.word	err_mark_false
 701              		.cfi_endproc
 702              	.LFE3:
 703              		.size	config_save, .-config_save
 704              		.section	.text.config_block_get_length,"ax",%progbits
 705              		.align	1
 706              		.p2align 4,,15
 707              		.global	config_block_get_length
 708              		.syntax unified
 709              		.thumb
 710              		.thumb_func
 711              		.fpu fpv4-sp-d16
 712              		.type	config_block_get_length, %function
 713              	config_block_get_length:
 714              	.LFB7:
 715              		.loc 1 170 0
 716              		.cfi_startproc
 717              		@ args = 0, pretend = 0, frame = 8
 718              		@ frame_needed = 0, uses_anonymous_args = 0
 719              	.LVL82:
 720 0000 00B5     		push	{lr}
 721              		.cfi_def_cfa_offset 4
 722              		.cfi_offset 14, -4
 723 0002 074B     		ldr	r3, .L72
 724              		.loc 1 174 0
 725 0004 4068     		ldr	r0, [r0, #4]
 726              	.LVL83:
 727              		.loc 1 170 0
 728 0006 1A68     		ldr	r2, [r3]
 729 0008 83B0     		sub	sp, sp, #12
 730              		.cfi_def_cfa_offset 16
 731              		.loc 1 170 0
 732 000a 0192     		str	r2, [sp, #4]
 733              		.loc 1 174 0
 734 000c 019A     		ldr	r2, [sp, #4]
 735 000e 1B68     		ldr	r3, [r3]
 736 0010 9A42     		cmp	r2, r3
 737 0012 02D1     		bne	.L71
 738 0014 03B0     		add	sp, sp, #12
 739              		.cfi_remember_state
 740              		.cfi_def_cfa_offset 4
 741              		@ sp needed
ARM GAS  /var/folders/d2/nstgp4h54kz7g1l847x_b8wc0000gn/T//cchv4K2w.s 			page 14


 742 0016 5DF804FB 		ldr	pc, [sp], #4
 743              	.L71:
 744              		.cfi_restore_state
 745 001a FFF7FEFF 		bl	__stack_chk_fail
 746              	.LVL84:
 747              	.L73:
 748 001e 00BF     		.align	2
 749              	.L72:
 750 0020 00000000 		.word	__stack_chk_guard
 751              		.cfi_endproc
 752              	.LFE7:
 753              		.size	config_block_get_length, .-config_block_get_length
 754              		.section	.text.config_block_find_last_used,"ax",%progbits
 755              		.align	1
 756              		.p2align 4,,15
 757              		.global	config_block_find_last_used
 758              		.syntax unified
 759              		.thumb
 760              		.thumb_func
 761              		.fpu fpv4-sp-d16
 762              		.type	config_block_find_last_used, %function
 763              	config_block_find_last_used:
 764              	.LFB8:
 765              		.loc 1 177 0
 766              		.cfi_startproc
 767              		@ args = 0, pretend = 0, frame = 8
 768              		@ frame_needed = 0, uses_anonymous_args = 0
 769              	.LVL85:
 770 0000 70B5     		push	{r4, r5, r6, lr}
 771              		.cfi_def_cfa_offset 16
 772              		.cfi_offset 4, -16
 773              		.cfi_offset 5, -12
 774              		.cfi_offset 6, -8
 775              		.cfi_offset 14, -4
 776 0002 0C4E     		ldr	r6, .L80
 777 0004 82B0     		sub	sp, sp, #8
 778              		.cfi_def_cfa_offset 24
 779              		.loc 1 177 0
 780 0006 3368     		ldr	r3, [r6]
 781 0008 0193     		str	r3, [sp, #4]
 782 000a 0446     		mov	r4, r0
 783              	.LVL86:
 784              		.loc 1 179 0
 785 000c 0025     		movs	r5, #0
 786              		.loc 1 181 0
 787 000e 03E0     		b	.L75
 788              	.LVL87:
 789              	.L76:
 790 0010 6368     		ldr	r3, [r4, #4]
 791 0012 0C33     		adds	r3, r3, #12
 792              	.LVL88:
 793              		.loc 1 184 0
 794 0014 2546     		mov	r5, r4
 795 0016 1C44     		add	r4, r4, r3
 796              	.LVL89:
 797              	.L75:
 798              		.loc 1 181 0
ARM GAS  /var/folders/d2/nstgp4h54kz7g1l847x_b8wc0000gn/T//cchv4K2w.s 			page 15


 799 0018 2046     		mov	r0, r4
 800 001a FFF7FEFF 		bl	config_block_is_valid
 801              	.LVL90:
 802 001e 0028     		cmp	r0, #0
 803 0020 F6D1     		bne	.L76
 804              		.loc 1 188 0
 805 0022 019A     		ldr	r2, [sp, #4]
 806 0024 3368     		ldr	r3, [r6]
 807 0026 9A42     		cmp	r2, r3
 808 0028 2846     		mov	r0, r5
 809 002a 01D1     		bne	.L79
 810 002c 02B0     		add	sp, sp, #8
 811              		.cfi_remember_state
 812              		.cfi_def_cfa_offset 16
 813              		@ sp needed
 814 002e 70BD     		pop	{r4, r5, r6, pc}
 815              	.LVL91:
 816              	.L79:
 817              		.cfi_restore_state
 818 0030 FFF7FEFF 		bl	__stack_chk_fail
 819              	.LVL92:
 820              	.L81:
 821              		.align	2
 822              	.L80:
 823 0034 00000000 		.word	__stack_chk_guard
 824              		.cfi_endproc
 825              	.LFE8:
 826              		.size	config_block_find_last_used, .-config_block_find_last_used
 827              		.section	.text.config_block_find_first_free,"ax",%progbits
 828              		.align	1
 829              		.p2align 4,,15
 830              		.global	config_block_find_first_free
 831              		.syntax unified
 832              		.thumb
 833              		.thumb_func
 834              		.fpu fpv4-sp-d16
 835              		.type	config_block_find_first_free, %function
 836              	config_block_find_first_free:
 837              	.LFB9:
 838              		.loc 1 191 0
 839              		.cfi_startproc
 840              		@ args = 0, pretend = 0, frame = 8
 841              		@ frame_needed = 0, uses_anonymous_args = 0
 842              	.LVL93:
 843 0000 30B5     		push	{r4, r5, lr}
 844              		.cfi_def_cfa_offset 12
 845              		.cfi_offset 4, -12
 846              		.cfi_offset 5, -8
 847              		.cfi_offset 14, -4
 848 0002 0B4D     		ldr	r5, .L88
 849 0004 83B0     		sub	sp, sp, #12
 850              		.cfi_def_cfa_offset 24
 851              		.loc 1 191 0
 852 0006 2B68     		ldr	r3, [r5]
 853 0008 0193     		str	r3, [sp, #4]
 854 000a 0446     		mov	r4, r0
 855              	.LVL94:
ARM GAS  /var/folders/d2/nstgp4h54kz7g1l847x_b8wc0000gn/T//cchv4K2w.s 			page 16


 856              		.loc 1 194 0
 857 000c 02E0     		b	.L83
 858              	.LVL95:
 859              	.L84:
 860 000e 6368     		ldr	r3, [r4, #4]
 861 0010 0C33     		adds	r3, r3, #12
 862              		.loc 1 196 0
 863 0012 1C44     		add	r4, r4, r3
 864              	.LVL96:
 865              	.L83:
 866              		.loc 1 194 0
 867 0014 2046     		mov	r0, r4
 868 0016 FFF7FEFF 		bl	config_block_is_valid
 869              	.LVL97:
 870 001a 0028     		cmp	r0, #0
 871 001c F7D1     		bne	.L84
 872              		.loc 1 200 0
 873 001e 019A     		ldr	r2, [sp, #4]
 874 0020 2B68     		ldr	r3, [r5]
 875 0022 9A42     		cmp	r2, r3
 876 0024 2046     		mov	r0, r4
 877 0026 01D1     		bne	.L87
 878 0028 03B0     		add	sp, sp, #12
 879              		.cfi_remember_state
 880              		.cfi_def_cfa_offset 12
 881              		@ sp needed
 882 002a 30BD     		pop	{r4, r5, pc}
 883              	.LVL98:
 884              	.L87:
 885              		.cfi_restore_state
 886 002c FFF7FEFF 		bl	__stack_chk_fail
 887              	.LVL99:
 888              	.L89:
 889              		.align	2
 890              	.L88:
 891 0030 00000000 		.word	__stack_chk_guard
 892              		.cfi_endproc
 893              	.LFE9:
 894              		.size	config_block_find_first_free, .-config_block_find_first_free
 895              		.text
 896              	.Letext0:
 897              		.file 2 "/Applications/Eclipse_e-puck2.app/Contents/Eclipse_e-puck2/Tools/gcc-arm-none-eabi-7-2017
 898              		.file 3 "/Applications/Eclipse_e-puck2.app/Contents/Eclipse_e-puck2/Tools/gcc-arm-none-eabi-7-2017
 899              		.file 4 "/Applications/Eclipse_e-puck2.app/Contents/Eclipse_e-puck2/Tools/gcc-arm-none-eabi-7-2017
 900              		.file 5 "/Applications/Eclipse_e-puck2.app/Contents/Eclipse_e-puck2/Tools/gcc-arm-none-eabi-7-2017
 901              		.file 6 "/Applications/Eclipse_e-puck2.app/Contents/Eclipse_e-puck2/Tools/gcc-arm-none-eabi-7-2017
 902              		.file 7 "/Applications/Eclipse_e-puck2.app/Contents/Eclipse_e-puck2/Tools/gcc-arm-none-eabi-7-2017
 903              		.file 8 "/Applications/Eclipse_e-puck2.app/Contents/Eclipse_e-puck2/Tools/gcc-arm-none-eabi-7-2017
 904              		.file 9 "../e-puck2_main-processor/src/parameter/parameter.h"
 905              		.file 10 "../e-puck2_main-processor/src/cmp/cmp.h"
 906              		.file 11 "../e-puck2_main-processor/src/cmp_mem_access/cmp_mem_access.h"
 907              		.file 12 "../e-puck2_main-processor/src/crc/crc32.h"
 908              		.file 13 "../e-puck2_main-processor/src/flash/flash.h"
 909              		.file 14 "../e-puck2_main-processor/src/parameter/parameter_msgpack.h"
 910              		.section	.debug_info,"",%progbits
 911              	.Ldebug_info0:
 912 0000 D8120000 		.4byte	0x12d8
ARM GAS  /var/folders/d2/nstgp4h54kz7g1l847x_b8wc0000gn/T//cchv4K2w.s 			page 17


 913 0004 0400     		.2byte	0x4
 914 0006 00000000 		.4byte	.Ldebug_abbrev0
 915 000a 04       		.byte	0x4
 916 000b 01       		.uleb128 0x1
 917 000c FF020000 		.4byte	.LASF190
 918 0010 0C       		.byte	0xc
 919 0011 DF050000 		.4byte	.LASF191
 920 0015 0D080000 		.4byte	.LASF192
 921 0019 20000000 		.4byte	.Ldebug_ranges0+0x20
 922 001d 00000000 		.4byte	0
 923 0021 00000000 		.4byte	.Ldebug_line0
 924 0025 02       		.uleb128 0x2
 925 0026 04       		.byte	0x4
 926 0027 05       		.byte	0x5
 927 0028 696E7400 		.ascii	"int\000"
 928 002c 03       		.uleb128 0x3
 929 002d 30000000 		.4byte	.LASF4
 930 0031 02       		.byte	0x2
 931 0032 D8       		.byte	0xd8
 932 0033 37000000 		.4byte	0x37
 933 0037 04       		.uleb128 0x4
 934 0038 04       		.byte	0x4
 935 0039 07       		.byte	0x7
 936 003a F2020000 		.4byte	.LASF0
 937 003e 04       		.uleb128 0x4
 938 003f 08       		.byte	0x8
 939 0040 05       		.byte	0x5
 940 0041 49010000 		.4byte	.LASF1
 941 0045 04       		.uleb128 0x4
 942 0046 08       		.byte	0x8
 943 0047 04       		.byte	0x4
 944 0048 65050000 		.4byte	.LASF2
 945 004c 04       		.uleb128 0x4
 946 004d 01       		.byte	0x1
 947 004e 06       		.byte	0x6
 948 004f 57010000 		.4byte	.LASF3
 949 0053 03       		.uleb128 0x3
 950 0054 73000000 		.4byte	.LASF5
 951 0058 03       		.byte	0x3
 952 0059 2B       		.byte	0x2b
 953 005a 5E000000 		.4byte	0x5e
 954 005e 04       		.uleb128 0x4
 955 005f 01       		.byte	0x1
 956 0060 08       		.byte	0x8
 957 0061 69060000 		.4byte	.LASF6
 958 0065 04       		.uleb128 0x4
 959 0066 02       		.byte	0x2
 960 0067 05       		.byte	0x5
 961 0068 A0060000 		.4byte	.LASF7
 962 006c 03       		.uleb128 0x3
 963 006d D3070000 		.4byte	.LASF8
 964 0071 03       		.byte	0x3
 965 0072 39       		.byte	0x39
 966 0073 77000000 		.4byte	0x77
 967 0077 04       		.uleb128 0x4
 968 0078 02       		.byte	0x2
 969 0079 07       		.byte	0x7
ARM GAS  /var/folders/d2/nstgp4h54kz7g1l847x_b8wc0000gn/T//cchv4K2w.s 			page 18


 970 007a 9B040000 		.4byte	.LASF9
 971 007e 03       		.uleb128 0x3
 972 007f E3070000 		.4byte	.LASF10
 973 0083 03       		.byte	0x3
 974 0084 4D       		.byte	0x4d
 975 0085 89000000 		.4byte	0x89
 976 0089 04       		.uleb128 0x4
 977 008a 04       		.byte	0x4
 978 008b 05       		.byte	0x5
 979 008c C4010000 		.4byte	.LASF11
 980 0090 03       		.uleb128 0x3
 981 0091 73020000 		.4byte	.LASF12
 982 0095 03       		.byte	0x3
 983 0096 4F       		.byte	0x4f
 984 0097 9B000000 		.4byte	0x9b
 985 009b 04       		.uleb128 0x4
 986 009c 04       		.byte	0x4
 987 009d 07       		.byte	0x7
 988 009e 5A040000 		.4byte	.LASF13
 989 00a2 04       		.uleb128 0x4
 990 00a3 08       		.byte	0x8
 991 00a4 07       		.byte	0x7
 992 00a5 ED000000 		.4byte	.LASF14
 993 00a9 03       		.uleb128 0x3
 994 00aa F0040000 		.4byte	.LASF15
 995 00ae 04       		.byte	0x4
 996 00af 22       		.byte	0x22
 997 00b0 B4000000 		.4byte	0xb4
 998 00b4 05       		.uleb128 0x5
 999 00b5 04       		.byte	0x4
 1000 00b6 BA000000 		.4byte	0xba
 1001 00ba 06       		.uleb128 0x6
 1002 00bb 8E070000 		.4byte	.LASF122
 1003 00bf 03       		.uleb128 0x3
 1004 00c0 D8050000 		.4byte	.LASF16
 1005 00c4 05       		.byte	0x5
 1006 00c5 2C       		.byte	0x2c
 1007 00c6 89000000 		.4byte	0x89
 1008 00ca 03       		.uleb128 0x3
 1009 00cb AF070000 		.4byte	.LASF17
 1010 00cf 05       		.byte	0x5
 1011 00d0 72       		.byte	0x72
 1012 00d1 89000000 		.4byte	0x89
 1013 00d5 07       		.uleb128 0x7
 1014 00d6 F8040000 		.4byte	.LASF18
 1015 00da 02       		.byte	0x2
 1016 00db 6501     		.2byte	0x165
 1017 00dd 37000000 		.4byte	0x37
 1018 00e1 08       		.uleb128 0x8
 1019 00e2 04       		.byte	0x4
 1020 00e3 05       		.byte	0x5
 1021 00e4 A6       		.byte	0xa6
 1022 00e5 00010000 		.4byte	0x100
 1023 00e9 09       		.uleb128 0x9
 1024 00ea EA040000 		.4byte	.LASF19
 1025 00ee 05       		.byte	0x5
 1026 00ef A8       		.byte	0xa8
ARM GAS  /var/folders/d2/nstgp4h54kz7g1l847x_b8wc0000gn/T//cchv4K2w.s 			page 19


 1027 00f0 D5000000 		.4byte	0xd5
 1028 00f4 09       		.uleb128 0x9
 1029 00f5 43040000 		.4byte	.LASF20
 1030 00f9 05       		.byte	0x5
 1031 00fa A9       		.byte	0xa9
 1032 00fb 00010000 		.4byte	0x100
 1033 00ff 00       		.byte	0
 1034 0100 0A       		.uleb128 0xa
 1035 0101 5E000000 		.4byte	0x5e
 1036 0105 10010000 		.4byte	0x110
 1037 0109 0B       		.uleb128 0xb
 1038 010a 37000000 		.4byte	0x37
 1039 010e 03       		.byte	0x3
 1040 010f 00       		.byte	0
 1041 0110 0C       		.uleb128 0xc
 1042 0111 08       		.byte	0x8
 1043 0112 05       		.byte	0x5
 1044 0113 A3       		.byte	0xa3
 1045 0114 31010000 		.4byte	0x131
 1046 0118 0D       		.uleb128 0xd
 1047 0119 86070000 		.4byte	.LASF21
 1048 011d 05       		.byte	0x5
 1049 011e A5       		.byte	0xa5
 1050 011f 25000000 		.4byte	0x25
 1051 0123 00       		.byte	0
 1052 0124 0D       		.uleb128 0xd
 1053 0125 95070000 		.4byte	.LASF22
 1054 0129 05       		.byte	0x5
 1055 012a AA       		.byte	0xaa
 1056 012b E1000000 		.4byte	0xe1
 1057 012f 04       		.byte	0x4
 1058 0130 00       		.byte	0
 1059 0131 03       		.uleb128 0x3
 1060 0132 DC060000 		.4byte	.LASF23
 1061 0136 05       		.byte	0x5
 1062 0137 AB       		.byte	0xab
 1063 0138 10010000 		.4byte	0x110
 1064 013c 03       		.uleb128 0x3
 1065 013d 9B020000 		.4byte	.LASF24
 1066 0141 05       		.byte	0x5
 1067 0142 AF       		.byte	0xaf
 1068 0143 A9000000 		.4byte	0xa9
 1069 0147 0E       		.uleb128 0xe
 1070 0148 04       		.byte	0x4
 1071 0149 05       		.uleb128 0x5
 1072 014a 04       		.byte	0x4
 1073 014b 4F010000 		.4byte	0x14f
 1074 014f 04       		.uleb128 0x4
 1075 0150 01       		.byte	0x1
 1076 0151 08       		.byte	0x8
 1077 0152 C5070000 		.4byte	.LASF25
 1078 0156 0F       		.uleb128 0xf
 1079 0157 4F010000 		.4byte	0x14f
 1080 015b 03       		.uleb128 0x3
 1081 015c 7F080000 		.4byte	.LASF26
 1082 0160 06       		.byte	0x6
 1083 0161 16       		.byte	0x16
ARM GAS  /var/folders/d2/nstgp4h54kz7g1l847x_b8wc0000gn/T//cchv4K2w.s 			page 20


 1084 0162 9B000000 		.4byte	0x9b
 1085 0166 10       		.uleb128 0x10
 1086 0167 AC020000 		.4byte	.LASF31
 1087 016b 18       		.byte	0x18
 1088 016c 06       		.byte	0x6
 1089 016d 2F       		.byte	0x2f
 1090 016e B9010000 		.4byte	0x1b9
 1091 0172 0D       		.uleb128 0xd
 1092 0173 F3070000 		.4byte	.LASF27
 1093 0177 06       		.byte	0x6
 1094 0178 31       		.byte	0x31
 1095 0179 B9010000 		.4byte	0x1b9
 1096 017d 00       		.byte	0
 1097 017e 11       		.uleb128 0x11
 1098 017f 5F6B00   		.ascii	"_k\000"
 1099 0182 06       		.byte	0x6
 1100 0183 32       		.byte	0x32
 1101 0184 25000000 		.4byte	0x25
 1102 0188 04       		.byte	0x4
 1103 0189 0D       		.uleb128 0xd
 1104 018a 60070000 		.4byte	.LASF28
 1105 018e 06       		.byte	0x6
 1106 018f 32       		.byte	0x32
 1107 0190 25000000 		.4byte	0x25
 1108 0194 08       		.byte	0x8
 1109 0195 0D       		.uleb128 0xd
 1110 0196 7E020000 		.4byte	.LASF29
 1111 019a 06       		.byte	0x6
 1112 019b 32       		.byte	0x32
 1113 019c 25000000 		.4byte	0x25
 1114 01a0 0C       		.byte	0xc
 1115 01a1 0D       		.uleb128 0xd
 1116 01a2 E0080000 		.4byte	.LASF30
 1117 01a6 06       		.byte	0x6
 1118 01a7 32       		.byte	0x32
 1119 01a8 25000000 		.4byte	0x25
 1120 01ac 10       		.byte	0x10
 1121 01ad 11       		.uleb128 0x11
 1122 01ae 5F7800   		.ascii	"_x\000"
 1123 01b1 06       		.byte	0x6
 1124 01b2 33       		.byte	0x33
 1125 01b3 BF010000 		.4byte	0x1bf
 1126 01b7 14       		.byte	0x14
 1127 01b8 00       		.byte	0
 1128 01b9 05       		.uleb128 0x5
 1129 01ba 04       		.byte	0x4
 1130 01bb 66010000 		.4byte	0x166
 1131 01bf 0A       		.uleb128 0xa
 1132 01c0 5B010000 		.4byte	0x15b
 1133 01c4 CF010000 		.4byte	0x1cf
 1134 01c8 0B       		.uleb128 0xb
 1135 01c9 37000000 		.4byte	0x37
 1136 01cd 00       		.byte	0
 1137 01ce 00       		.byte	0
 1138 01cf 10       		.uleb128 0x10
 1139 01d0 E7020000 		.4byte	.LASF32
 1140 01d4 24       		.byte	0x24
ARM GAS  /var/folders/d2/nstgp4h54kz7g1l847x_b8wc0000gn/T//cchv4K2w.s 			page 21


 1141 01d5 06       		.byte	0x6
 1142 01d6 37       		.byte	0x37
 1143 01d7 48020000 		.4byte	0x248
 1144 01db 0D       		.uleb128 0xd
 1145 01dc 40010000 		.4byte	.LASF33
 1146 01e0 06       		.byte	0x6
 1147 01e1 39       		.byte	0x39
 1148 01e2 25000000 		.4byte	0x25
 1149 01e6 00       		.byte	0
 1150 01e7 0D       		.uleb128 0xd
 1151 01e8 CA070000 		.4byte	.LASF34
 1152 01ec 06       		.byte	0x6
 1153 01ed 3A       		.byte	0x3a
 1154 01ee 25000000 		.4byte	0x25
 1155 01f2 04       		.byte	0x4
 1156 01f3 0D       		.uleb128 0xd
 1157 01f4 7F010000 		.4byte	.LASF35
 1158 01f8 06       		.byte	0x6
 1159 01f9 3B       		.byte	0x3b
 1160 01fa 25000000 		.4byte	0x25
 1161 01fe 08       		.byte	0x8
 1162 01ff 0D       		.uleb128 0xd
 1163 0200 81090000 		.4byte	.LASF36
 1164 0204 06       		.byte	0x6
 1165 0205 3C       		.byte	0x3c
 1166 0206 25000000 		.4byte	0x25
 1167 020a 0C       		.byte	0xc
 1168 020b 0D       		.uleb128 0xd
 1169 020c B2050000 		.4byte	.LASF37
 1170 0210 06       		.byte	0x6
 1171 0211 3D       		.byte	0x3d
 1172 0212 25000000 		.4byte	0x25
 1173 0216 10       		.byte	0x10
 1174 0217 0D       		.uleb128 0xd
 1175 0218 2D050000 		.4byte	.LASF38
 1176 021c 06       		.byte	0x6
 1177 021d 3E       		.byte	0x3e
 1178 021e 25000000 		.4byte	0x25
 1179 0222 14       		.byte	0x14
 1180 0223 0D       		.uleb128 0xd
 1181 0224 E5080000 		.4byte	.LASF39
 1182 0228 06       		.byte	0x6
 1183 0229 3F       		.byte	0x3f
 1184 022a 25000000 		.4byte	0x25
 1185 022e 18       		.byte	0x18
 1186 022f 0D       		.uleb128 0xd
 1187 0230 AA060000 		.4byte	.LASF40
 1188 0234 06       		.byte	0x6
 1189 0235 40       		.byte	0x40
 1190 0236 25000000 		.4byte	0x25
 1191 023a 1C       		.byte	0x1c
 1192 023b 0D       		.uleb128 0xd
 1193 023c 3A090000 		.4byte	.LASF41
 1194 0240 06       		.byte	0x6
 1195 0241 41       		.byte	0x41
 1196 0242 25000000 		.4byte	0x25
 1197 0246 20       		.byte	0x20
ARM GAS  /var/folders/d2/nstgp4h54kz7g1l847x_b8wc0000gn/T//cchv4K2w.s 			page 22


 1198 0247 00       		.byte	0
 1199 0248 12       		.uleb128 0x12
 1200 0249 8E010000 		.4byte	.LASF42
 1201 024d 0801     		.2byte	0x108
 1202 024f 06       		.byte	0x6
 1203 0250 4A       		.byte	0x4a
 1204 0251 88020000 		.4byte	0x288
 1205 0255 0D       		.uleb128 0xd
 1206 0256 4D020000 		.4byte	.LASF43
 1207 025a 06       		.byte	0x6
 1208 025b 4B       		.byte	0x4b
 1209 025c 88020000 		.4byte	0x288
 1210 0260 00       		.byte	0
 1211 0261 0D       		.uleb128 0xd
 1212 0262 00000000 		.4byte	.LASF44
 1213 0266 06       		.byte	0x6
 1214 0267 4C       		.byte	0x4c
 1215 0268 88020000 		.4byte	0x288
 1216 026c 80       		.byte	0x80
 1217 026d 13       		.uleb128 0x13
 1218 026e 65080000 		.4byte	.LASF45
 1219 0272 06       		.byte	0x6
 1220 0273 4E       		.byte	0x4e
 1221 0274 5B010000 		.4byte	0x15b
 1222 0278 0001     		.2byte	0x100
 1223 027a 13       		.uleb128 0x13
 1224 027b D4010000 		.4byte	.LASF46
 1225 027f 06       		.byte	0x6
 1226 0280 51       		.byte	0x51
 1227 0281 5B010000 		.4byte	0x15b
 1228 0285 0401     		.2byte	0x104
 1229 0287 00       		.byte	0
 1230 0288 0A       		.uleb128 0xa
 1231 0289 47010000 		.4byte	0x147
 1232 028d 98020000 		.4byte	0x298
 1233 0291 0B       		.uleb128 0xb
 1234 0292 37000000 		.4byte	0x37
 1235 0296 1F       		.byte	0x1f
 1236 0297 00       		.byte	0
 1237 0298 12       		.uleb128 0x12
 1238 0299 BB050000 		.4byte	.LASF47
 1239 029d 9001     		.2byte	0x190
 1240 029f 06       		.byte	0x6
 1241 02a0 5D       		.byte	0x5d
 1242 02a1 D6020000 		.4byte	0x2d6
 1243 02a5 0D       		.uleb128 0xd
 1244 02a6 F3070000 		.4byte	.LASF27
 1245 02aa 06       		.byte	0x6
 1246 02ab 5E       		.byte	0x5e
 1247 02ac D6020000 		.4byte	0x2d6
 1248 02b0 00       		.byte	0
 1249 02b1 0D       		.uleb128 0xd
 1250 02b2 1F070000 		.4byte	.LASF48
 1251 02b6 06       		.byte	0x6
 1252 02b7 5F       		.byte	0x5f
 1253 02b8 25000000 		.4byte	0x25
 1254 02bc 04       		.byte	0x4
ARM GAS  /var/folders/d2/nstgp4h54kz7g1l847x_b8wc0000gn/T//cchv4K2w.s 			page 23


 1255 02bd 0D       		.uleb128 0xd
 1256 02be 6E020000 		.4byte	.LASF49
 1257 02c2 06       		.byte	0x6
 1258 02c3 61       		.byte	0x61
 1259 02c4 DC020000 		.4byte	0x2dc
 1260 02c8 08       		.byte	0x8
 1261 02c9 0D       		.uleb128 0xd
 1262 02ca 8E010000 		.4byte	.LASF42
 1263 02ce 06       		.byte	0x6
 1264 02cf 62       		.byte	0x62
 1265 02d0 48020000 		.4byte	0x248
 1266 02d4 88       		.byte	0x88
 1267 02d5 00       		.byte	0
 1268 02d6 05       		.uleb128 0x5
 1269 02d7 04       		.byte	0x4
 1270 02d8 98020000 		.4byte	0x298
 1271 02dc 0A       		.uleb128 0xa
 1272 02dd EC020000 		.4byte	0x2ec
 1273 02e1 EC020000 		.4byte	0x2ec
 1274 02e5 0B       		.uleb128 0xb
 1275 02e6 37000000 		.4byte	0x37
 1276 02ea 1F       		.byte	0x1f
 1277 02eb 00       		.byte	0
 1278 02ec 05       		.uleb128 0x5
 1279 02ed 04       		.byte	0x4
 1280 02ee F2020000 		.4byte	0x2f2
 1281 02f2 14       		.uleb128 0x14
 1282 02f3 10       		.uleb128 0x10
 1283 02f4 B4060000 		.4byte	.LASF50
 1284 02f8 08       		.byte	0x8
 1285 02f9 06       		.byte	0x6
 1286 02fa 75       		.byte	0x75
 1287 02fb 18030000 		.4byte	0x318
 1288 02ff 0D       		.uleb128 0xd
 1289 0300 79010000 		.4byte	.LASF51
 1290 0304 06       		.byte	0x6
 1291 0305 76       		.byte	0x76
 1292 0306 18030000 		.4byte	0x318
 1293 030a 00       		.byte	0
 1294 030b 0D       		.uleb128 0xd
 1295 030c 12000000 		.4byte	.LASF52
 1296 0310 06       		.byte	0x6
 1297 0311 77       		.byte	0x77
 1298 0312 25000000 		.4byte	0x25
 1299 0316 04       		.byte	0x4
 1300 0317 00       		.byte	0
 1301 0318 05       		.uleb128 0x5
 1302 0319 04       		.byte	0x4
 1303 031a 5E000000 		.4byte	0x5e
 1304 031e 10       		.uleb128 0x10
 1305 031f E7060000 		.4byte	.LASF53
 1306 0323 68       		.byte	0x68
 1307 0324 06       		.byte	0x6
 1308 0325 B5       		.byte	0xb5
 1309 0326 48040000 		.4byte	0x448
 1310 032a 11       		.uleb128 0x11
 1311 032b 5F7000   		.ascii	"_p\000"
ARM GAS  /var/folders/d2/nstgp4h54kz7g1l847x_b8wc0000gn/T//cchv4K2w.s 			page 24


 1312 032e 06       		.byte	0x6
 1313 032f B6       		.byte	0xb6
 1314 0330 18030000 		.4byte	0x318
 1315 0334 00       		.byte	0
 1316 0335 11       		.uleb128 0x11
 1317 0336 5F7200   		.ascii	"_r\000"
 1318 0339 06       		.byte	0x6
 1319 033a B7       		.byte	0xb7
 1320 033b 25000000 		.4byte	0x25
 1321 033f 04       		.byte	0x4
 1322 0340 11       		.uleb128 0x11
 1323 0341 5F7700   		.ascii	"_w\000"
 1324 0344 06       		.byte	0x6
 1325 0345 B8       		.byte	0xb8
 1326 0346 25000000 		.4byte	0x25
 1327 034a 08       		.byte	0x8
 1328 034b 0D       		.uleb128 0xd
 1329 034c CD010000 		.4byte	.LASF54
 1330 0350 06       		.byte	0x6
 1331 0351 B9       		.byte	0xb9
 1332 0352 65000000 		.4byte	0x65
 1333 0356 0C       		.byte	0xc
 1334 0357 0D       		.uleb128 0xd
 1335 0358 6C040000 		.4byte	.LASF55
 1336 035c 06       		.byte	0x6
 1337 035d BA       		.byte	0xba
 1338 035e 65000000 		.4byte	0x65
 1339 0362 0E       		.byte	0xe
 1340 0363 11       		.uleb128 0x11
 1341 0364 5F626600 		.ascii	"_bf\000"
 1342 0368 06       		.byte	0x6
 1343 0369 BB       		.byte	0xbb
 1344 036a F3020000 		.4byte	0x2f3
 1345 036e 10       		.byte	0x10
 1346 036f 0D       		.uleb128 0xd
 1347 0370 04010000 		.4byte	.LASF56
 1348 0374 06       		.byte	0x6
 1349 0375 BC       		.byte	0xbc
 1350 0376 25000000 		.4byte	0x25
 1351 037a 18       		.byte	0x18
 1352 037b 0D       		.uleb128 0xd
 1353 037c AD010000 		.4byte	.LASF57
 1354 0380 06       		.byte	0x6
 1355 0381 C3       		.byte	0xc3
 1356 0382 47010000 		.4byte	0x147
 1357 0386 1C       		.byte	0x1c
 1358 0387 0D       		.uleb128 0xd
 1359 0388 D7020000 		.4byte	.LASF58
 1360 038c 06       		.byte	0x6
 1361 038d C5       		.byte	0xc5
 1362 038e A3050000 		.4byte	0x5a3
 1363 0392 20       		.byte	0x20
 1364 0393 0D       		.uleb128 0xd
 1365 0394 26050000 		.4byte	.LASF59
 1366 0398 06       		.byte	0x6
 1367 0399 C7       		.byte	0xc7
 1368 039a CD050000 		.4byte	0x5cd
ARM GAS  /var/folders/d2/nstgp4h54kz7g1l847x_b8wc0000gn/T//cchv4K2w.s 			page 25


 1369 039e 24       		.byte	0x24
 1370 039f 0D       		.uleb128 0xd
 1371 03a0 9D070000 		.4byte	.LASF60
 1372 03a4 06       		.byte	0x6
 1373 03a5 CA       		.byte	0xca
 1374 03a6 F1050000 		.4byte	0x5f1
 1375 03aa 28       		.byte	0x28
 1376 03ab 0D       		.uleb128 0xd
 1377 03ac 54090000 		.4byte	.LASF61
 1378 03b0 06       		.byte	0x6
 1379 03b1 CB       		.byte	0xcb
 1380 03b2 0B060000 		.4byte	0x60b
 1381 03b6 2C       		.byte	0x2c
 1382 03b7 11       		.uleb128 0x11
 1383 03b8 5F756200 		.ascii	"_ub\000"
 1384 03bc 06       		.byte	0x6
 1385 03bd CE       		.byte	0xce
 1386 03be F3020000 		.4byte	0x2f3
 1387 03c2 30       		.byte	0x30
 1388 03c3 11       		.uleb128 0x11
 1389 03c4 5F757000 		.ascii	"_up\000"
 1390 03c8 06       		.byte	0x6
 1391 03c9 CF       		.byte	0xcf
 1392 03ca 18030000 		.4byte	0x318
 1393 03ce 38       		.byte	0x38
 1394 03cf 11       		.uleb128 0x11
 1395 03d0 5F757200 		.ascii	"_ur\000"
 1396 03d4 06       		.byte	0x6
 1397 03d5 D0       		.byte	0xd0
 1398 03d6 25000000 		.4byte	0x25
 1399 03da 3C       		.byte	0x3c
 1400 03db 0D       		.uleb128 0xd
 1401 03dc 6B010000 		.4byte	.LASF62
 1402 03e0 06       		.byte	0x6
 1403 03e1 D3       		.byte	0xd3
 1404 03e2 11060000 		.4byte	0x611
 1405 03e6 40       		.byte	0x40
 1406 03e7 0D       		.uleb128 0xd
 1407 03e8 2C090000 		.4byte	.LASF63
 1408 03ec 06       		.byte	0x6
 1409 03ed D4       		.byte	0xd4
 1410 03ee 21060000 		.4byte	0x621
 1411 03f2 43       		.byte	0x43
 1412 03f3 11       		.uleb128 0x11
 1413 03f4 5F6C6200 		.ascii	"_lb\000"
 1414 03f8 06       		.byte	0x6
 1415 03f9 D7       		.byte	0xd7
 1416 03fa F3020000 		.4byte	0x2f3
 1417 03fe 44       		.byte	0x44
 1418 03ff 0D       		.uleb128 0xd
 1419 0400 E3010000 		.4byte	.LASF64
 1420 0404 06       		.byte	0x6
 1421 0405 DA       		.byte	0xda
 1422 0406 25000000 		.4byte	0x25
 1423 040a 4C       		.byte	0x4c
 1424 040b 0D       		.uleb128 0xd
 1425 040c 26020000 		.4byte	.LASF65
ARM GAS  /var/folders/d2/nstgp4h54kz7g1l847x_b8wc0000gn/T//cchv4K2w.s 			page 26


 1426 0410 06       		.byte	0x6
 1427 0411 DB       		.byte	0xdb
 1428 0412 BF000000 		.4byte	0xbf
 1429 0416 50       		.byte	0x50
 1430 0417 0D       		.uleb128 0xd
 1431 0418 8A000000 		.4byte	.LASF66
 1432 041c 06       		.byte	0x6
 1433 041d DE       		.byte	0xde
 1434 041e 66040000 		.4byte	0x466
 1435 0422 54       		.byte	0x54
 1436 0423 0D       		.uleb128 0xd
 1437 0424 07050000 		.4byte	.LASF67
 1438 0428 06       		.byte	0x6
 1439 0429 E2       		.byte	0xe2
 1440 042a 3C010000 		.4byte	0x13c
 1441 042e 58       		.byte	0x58
 1442 042f 0D       		.uleb128 0xd
 1443 0430 EF060000 		.4byte	.LASF68
 1444 0434 06       		.byte	0x6
 1445 0435 E4       		.byte	0xe4
 1446 0436 31010000 		.4byte	0x131
 1447 043a 5C       		.byte	0x5c
 1448 043b 0D       		.uleb128 0xd
 1449 043c 1E050000 		.4byte	.LASF69
 1450 0440 06       		.byte	0x6
 1451 0441 E5       		.byte	0xe5
 1452 0442 25000000 		.4byte	0x25
 1453 0446 64       		.byte	0x64
 1454 0447 00       		.byte	0
 1455 0448 15       		.uleb128 0x15
 1456 0449 25000000 		.4byte	0x25
 1457 044d 66040000 		.4byte	0x466
 1458 0451 16       		.uleb128 0x16
 1459 0452 66040000 		.4byte	0x466
 1460 0456 16       		.uleb128 0x16
 1461 0457 47010000 		.4byte	0x147
 1462 045b 16       		.uleb128 0x16
 1463 045c 49010000 		.4byte	0x149
 1464 0460 16       		.uleb128 0x16
 1465 0461 25000000 		.4byte	0x25
 1466 0465 00       		.byte	0
 1467 0466 05       		.uleb128 0x5
 1468 0467 04       		.byte	0x4
 1469 0468 71040000 		.4byte	0x471
 1470 046c 0F       		.uleb128 0xf
 1471 046d 66040000 		.4byte	0x466
 1472 0471 17       		.uleb128 0x17
 1473 0472 68070000 		.4byte	.LASF70
 1474 0476 2804     		.2byte	0x428
 1475 0478 06       		.byte	0x6
 1476 0479 3902     		.2byte	0x239
 1477 047b A3050000 		.4byte	0x5a3
 1478 047f 18       		.uleb128 0x18
 1479 0480 BE070000 		.4byte	.LASF71
 1480 0484 06       		.byte	0x6
 1481 0485 3B02     		.2byte	0x23b
 1482 0487 25000000 		.4byte	0x25
ARM GAS  /var/folders/d2/nstgp4h54kz7g1l847x_b8wc0000gn/T//cchv4K2w.s 			page 27


 1483 048b 00       		.byte	0
 1484 048c 18       		.uleb128 0x18
 1485 048d DC010000 		.4byte	.LASF72
 1486 0491 06       		.byte	0x6
 1487 0492 4002     		.2byte	0x240
 1488 0494 78060000 		.4byte	0x678
 1489 0498 04       		.byte	0x4
 1490 0499 18       		.uleb128 0x18
 1491 049a 4A040000 		.4byte	.LASF73
 1492 049e 06       		.byte	0x6
 1493 049f 4002     		.2byte	0x240
 1494 04a1 78060000 		.4byte	0x678
 1495 04a5 08       		.byte	0x8
 1496 04a6 18       		.uleb128 0x18
 1497 04a7 A4020000 		.4byte	.LASF74
 1498 04ab 06       		.byte	0x6
 1499 04ac 4002     		.2byte	0x240
 1500 04ae 78060000 		.4byte	0x678
 1501 04b2 0C       		.byte	0xc
 1502 04b3 18       		.uleb128 0x18
 1503 04b4 1A070000 		.4byte	.LASF75
 1504 04b8 06       		.byte	0x6
 1505 04b9 4202     		.2byte	0x242
 1506 04bb 25000000 		.4byte	0x25
 1507 04bf 10       		.byte	0x10
 1508 04c0 18       		.uleb128 0x18
 1509 04c1 62000000 		.4byte	.LASF76
 1510 04c5 06       		.byte	0x6
 1511 04c6 4302     		.2byte	0x243
 1512 04c8 5A080000 		.4byte	0x85a
 1513 04cc 14       		.byte	0x14
 1514 04cd 18       		.uleb128 0x18
 1515 04ce 36070000 		.4byte	.LASF77
 1516 04d2 06       		.byte	0x6
 1517 04d3 4602     		.2byte	0x246
 1518 04d5 25000000 		.4byte	0x25
 1519 04d9 30       		.byte	0x30
 1520 04da 18       		.uleb128 0x18
 1521 04db 24070000 		.4byte	.LASF78
 1522 04df 06       		.byte	0x6
 1523 04e0 4702     		.2byte	0x247
 1524 04e2 6F080000 		.4byte	0x86f
 1525 04e6 34       		.byte	0x34
 1526 04e7 18       		.uleb128 0x18
 1527 04e8 CD050000 		.4byte	.LASF79
 1528 04ec 06       		.byte	0x6
 1529 04ed 4902     		.2byte	0x249
 1530 04ef 25000000 		.4byte	0x25
 1531 04f3 38       		.byte	0x38
 1532 04f4 18       		.uleb128 0x18
 1533 04f5 2C070000 		.4byte	.LASF80
 1534 04f9 06       		.byte	0x6
 1535 04fa 4B02     		.2byte	0x24b
 1536 04fc 80080000 		.4byte	0x880
 1537 0500 3C       		.byte	0x3c
 1538 0501 18       		.uleb128 0x18
 1539 0502 E2040000 		.4byte	.LASF81
ARM GAS  /var/folders/d2/nstgp4h54kz7g1l847x_b8wc0000gn/T//cchv4K2w.s 			page 28


 1540 0506 06       		.byte	0x6
 1541 0507 4E02     		.2byte	0x24e
 1542 0509 B9010000 		.4byte	0x1b9
 1543 050d 40       		.byte	0x40
 1544 050e 18       		.uleb128 0x18
 1545 050f DD020000 		.4byte	.LASF82
 1546 0513 06       		.byte	0x6
 1547 0514 4F02     		.2byte	0x24f
 1548 0516 25000000 		.4byte	0x25
 1549 051a 44       		.byte	0x44
 1550 051b 18       		.uleb128 0x18
 1551 051c 6E090000 		.4byte	.LASF83
 1552 0520 06       		.byte	0x6
 1553 0521 5002     		.2byte	0x250
 1554 0523 B9010000 		.4byte	0x1b9
 1555 0527 48       		.byte	0x48
 1556 0528 18       		.uleb128 0x18
 1557 0529 27060000 		.4byte	.LASF84
 1558 052d 06       		.byte	0x6
 1559 052e 5102     		.2byte	0x251
 1560 0530 86080000 		.4byte	0x886
 1561 0534 4C       		.byte	0x4c
 1562 0535 18       		.uleb128 0x18
 1563 0536 52040000 		.4byte	.LASF85
 1564 053a 06       		.byte	0x6
 1565 053b 5402     		.2byte	0x254
 1566 053d 25000000 		.4byte	0x25
 1567 0541 50       		.byte	0x50
 1568 0542 18       		.uleb128 0x18
 1569 0543 1E020000 		.4byte	.LASF86
 1570 0547 06       		.byte	0x6
 1571 0548 5502     		.2byte	0x255
 1572 054a 49010000 		.4byte	0x149
 1573 054e 54       		.byte	0x54
 1574 054f 18       		.uleb128 0x18
 1575 0550 7F060000 		.4byte	.LASF87
 1576 0554 06       		.byte	0x6
 1577 0555 7802     		.2byte	0x278
 1578 0557 38080000 		.4byte	0x838
 1579 055b 58       		.byte	0x58
 1580 055c 19       		.uleb128 0x19
 1581 055d BB050000 		.4byte	.LASF47
 1582 0561 06       		.byte	0x6
 1583 0562 7C02     		.2byte	0x27c
 1584 0564 D6020000 		.4byte	0x2d6
 1585 0568 4801     		.2byte	0x148
 1586 056a 19       		.uleb128 0x19
 1587 056b BB040000 		.4byte	.LASF88
 1588 056f 06       		.byte	0x6
 1589 0570 7D02     		.2byte	0x27d
 1590 0572 98020000 		.4byte	0x298
 1591 0576 4C01     		.2byte	0x14c
 1592 0578 19       		.uleb128 0x19
 1593 0579 08090000 		.4byte	.LASF89
 1594 057d 06       		.byte	0x6
 1595 057e 8102     		.2byte	0x281
 1596 0580 97080000 		.4byte	0x897
ARM GAS  /var/folders/d2/nstgp4h54kz7g1l847x_b8wc0000gn/T//cchv4K2w.s 			page 29


 1597 0584 DC02     		.2byte	0x2dc
 1598 0586 19       		.uleb128 0x19
 1599 0587 BC010000 		.4byte	.LASF90
 1600 058b 06       		.byte	0x6
 1601 058c 8602     		.2byte	0x286
 1602 058e 3D060000 		.4byte	0x63d
 1603 0592 E002     		.2byte	0x2e0
 1604 0594 19       		.uleb128 0x19
 1605 0595 89010000 		.4byte	.LASF91
 1606 0599 06       		.byte	0x6
 1607 059a 8802     		.2byte	0x288
 1608 059c A3080000 		.4byte	0x8a3
 1609 05a0 EC02     		.2byte	0x2ec
 1610 05a2 00       		.byte	0
 1611 05a3 05       		.uleb128 0x5
 1612 05a4 04       		.byte	0x4
 1613 05a5 48040000 		.4byte	0x448
 1614 05a9 15       		.uleb128 0x15
 1615 05aa 25000000 		.4byte	0x25
 1616 05ae C7050000 		.4byte	0x5c7
 1617 05b2 16       		.uleb128 0x16
 1618 05b3 66040000 		.4byte	0x466
 1619 05b7 16       		.uleb128 0x16
 1620 05b8 47010000 		.4byte	0x147
 1621 05bc 16       		.uleb128 0x16
 1622 05bd C7050000 		.4byte	0x5c7
 1623 05c1 16       		.uleb128 0x16
 1624 05c2 25000000 		.4byte	0x25
 1625 05c6 00       		.byte	0
 1626 05c7 05       		.uleb128 0x5
 1627 05c8 04       		.byte	0x4
 1628 05c9 56010000 		.4byte	0x156
 1629 05cd 05       		.uleb128 0x5
 1630 05ce 04       		.byte	0x4
 1631 05cf A9050000 		.4byte	0x5a9
 1632 05d3 15       		.uleb128 0x15
 1633 05d4 CA000000 		.4byte	0xca
 1634 05d8 F1050000 		.4byte	0x5f1
 1635 05dc 16       		.uleb128 0x16
 1636 05dd 66040000 		.4byte	0x466
 1637 05e1 16       		.uleb128 0x16
 1638 05e2 47010000 		.4byte	0x147
 1639 05e6 16       		.uleb128 0x16
 1640 05e7 CA000000 		.4byte	0xca
 1641 05eb 16       		.uleb128 0x16
 1642 05ec 25000000 		.4byte	0x25
 1643 05f0 00       		.byte	0
 1644 05f1 05       		.uleb128 0x5
 1645 05f2 04       		.byte	0x4
 1646 05f3 D3050000 		.4byte	0x5d3
 1647 05f7 15       		.uleb128 0x15
 1648 05f8 25000000 		.4byte	0x25
 1649 05fc 0B060000 		.4byte	0x60b
 1650 0600 16       		.uleb128 0x16
 1651 0601 66040000 		.4byte	0x466
 1652 0605 16       		.uleb128 0x16
 1653 0606 47010000 		.4byte	0x147
ARM GAS  /var/folders/d2/nstgp4h54kz7g1l847x_b8wc0000gn/T//cchv4K2w.s 			page 30


 1654 060a 00       		.byte	0
 1655 060b 05       		.uleb128 0x5
 1656 060c 04       		.byte	0x4
 1657 060d F7050000 		.4byte	0x5f7
 1658 0611 0A       		.uleb128 0xa
 1659 0612 5E000000 		.4byte	0x5e
 1660 0616 21060000 		.4byte	0x621
 1661 061a 0B       		.uleb128 0xb
 1662 061b 37000000 		.4byte	0x37
 1663 061f 02       		.byte	0x2
 1664 0620 00       		.byte	0
 1665 0621 0A       		.uleb128 0xa
 1666 0622 5E000000 		.4byte	0x5e
 1667 0626 31060000 		.4byte	0x631
 1668 062a 0B       		.uleb128 0xb
 1669 062b 37000000 		.4byte	0x37
 1670 062f 00       		.byte	0
 1671 0630 00       		.byte	0
 1672 0631 07       		.uleb128 0x7
 1673 0632 D5060000 		.4byte	.LASF92
 1674 0636 06       		.byte	0x6
 1675 0637 1F01     		.2byte	0x11f
 1676 0639 1E030000 		.4byte	0x31e
 1677 063d 1A       		.uleb128 0x1a
 1678 063e EF080000 		.4byte	.LASF93
 1679 0642 0C       		.byte	0xc
 1680 0643 06       		.byte	0x6
 1681 0644 2301     		.2byte	0x123
 1682 0646 72060000 		.4byte	0x672
 1683 064a 18       		.uleb128 0x18
 1684 064b F3070000 		.4byte	.LASF27
 1685 064f 06       		.byte	0x6
 1686 0650 2501     		.2byte	0x125
 1687 0652 72060000 		.4byte	0x672
 1688 0656 00       		.byte	0
 1689 0657 18       		.uleb128 0x18
 1690 0658 7D040000 		.4byte	.LASF94
 1691 065c 06       		.byte	0x6
 1692 065d 2601     		.2byte	0x126
 1693 065f 25000000 		.4byte	0x25
 1694 0663 04       		.byte	0x4
 1695 0664 18       		.uleb128 0x18
 1696 0665 CF060000 		.4byte	.LASF95
 1697 0669 06       		.byte	0x6
 1698 066a 2701     		.2byte	0x127
 1699 066c 78060000 		.4byte	0x678
 1700 0670 08       		.byte	0x8
 1701 0671 00       		.byte	0
 1702 0672 05       		.uleb128 0x5
 1703 0673 04       		.byte	0x4
 1704 0674 3D060000 		.4byte	0x63d
 1705 0678 05       		.uleb128 0x5
 1706 0679 04       		.byte	0x4
 1707 067a 31060000 		.4byte	0x631
 1708 067e 1A       		.uleb128 0x1a
 1709 067f 3D000000 		.4byte	.LASF96
 1710 0683 0E       		.byte	0xe
ARM GAS  /var/folders/d2/nstgp4h54kz7g1l847x_b8wc0000gn/T//cchv4K2w.s 			page 31


 1711 0684 06       		.byte	0x6
 1712 0685 3F01     		.2byte	0x13f
 1713 0687 B3060000 		.4byte	0x6b3
 1714 068b 18       		.uleb128 0x18
 1715 068c 6F070000 		.4byte	.LASF97
 1716 0690 06       		.byte	0x6
 1717 0691 4001     		.2byte	0x140
 1718 0693 B3060000 		.4byte	0x6b3
 1719 0697 00       		.byte	0
 1720 0698 18       		.uleb128 0x18
 1721 0699 ED070000 		.4byte	.LASF98
 1722 069d 06       		.byte	0x6
 1723 069e 4101     		.2byte	0x141
 1724 06a0 B3060000 		.4byte	0x6b3
 1725 06a4 06       		.byte	0x6
 1726 06a5 18       		.uleb128 0x18
 1727 06a6 7A080000 		.4byte	.LASF99
 1728 06aa 06       		.byte	0x6
 1729 06ab 4201     		.2byte	0x142
 1730 06ad 77000000 		.4byte	0x77
 1731 06b1 0C       		.byte	0xc
 1732 06b2 00       		.byte	0
 1733 06b3 0A       		.uleb128 0xa
 1734 06b4 77000000 		.4byte	0x77
 1735 06b8 C3060000 		.4byte	0x6c3
 1736 06bc 0B       		.uleb128 0xb
 1737 06bd 37000000 		.4byte	0x37
 1738 06c1 02       		.byte	0x2
 1739 06c2 00       		.byte	0
 1740 06c3 1B       		.uleb128 0x1b
 1741 06c4 D0       		.byte	0xd0
 1742 06c5 06       		.byte	0x6
 1743 06c6 5902     		.2byte	0x259
 1744 06c8 C4070000 		.4byte	0x7c4
 1745 06cc 18       		.uleb128 0x18
 1746 06cd D3080000 		.4byte	.LASF100
 1747 06d1 06       		.byte	0x6
 1748 06d2 5B02     		.2byte	0x25b
 1749 06d4 37000000 		.4byte	0x37
 1750 06d8 00       		.byte	0
 1751 06d9 18       		.uleb128 0x18
 1752 06da F9070000 		.4byte	.LASF101
 1753 06de 06       		.byte	0x6
 1754 06df 5C02     		.2byte	0x25c
 1755 06e1 49010000 		.4byte	0x149
 1756 06e5 04       		.byte	0x4
 1757 06e6 18       		.uleb128 0x18
 1758 06e7 D0040000 		.4byte	.LASF102
 1759 06eb 06       		.byte	0x6
 1760 06ec 5D02     		.2byte	0x25d
 1761 06ee C4070000 		.4byte	0x7c4
 1762 06f2 08       		.byte	0x8
 1763 06f3 18       		.uleb128 0x18
 1764 06f4 45090000 		.4byte	.LASF103
 1765 06f8 06       		.byte	0x6
 1766 06f9 5E02     		.2byte	0x25e
 1767 06fb CF010000 		.4byte	0x1cf
ARM GAS  /var/folders/d2/nstgp4h54kz7g1l847x_b8wc0000gn/T//cchv4K2w.s 			page 32


 1768 06ff 24       		.byte	0x24
 1769 0700 18       		.uleb128 0x18
 1770 0701 B4020000 		.4byte	.LASF104
 1771 0705 06       		.byte	0x6
 1772 0706 5F02     		.2byte	0x25f
 1773 0708 25000000 		.4byte	0x25
 1774 070c 48       		.byte	0x48
 1775 070d 18       		.uleb128 0x18
 1776 070e F8060000 		.4byte	.LASF105
 1777 0712 06       		.byte	0x6
 1778 0713 6002     		.2byte	0x260
 1779 0715 A2000000 		.4byte	0xa2
 1780 0719 50       		.byte	0x50
 1781 071a 18       		.uleb128 0x18
 1782 071b 5B090000 		.4byte	.LASF106
 1783 071f 06       		.byte	0x6
 1784 0720 6102     		.2byte	0x261
 1785 0722 7E060000 		.4byte	0x67e
 1786 0726 58       		.byte	0x58
 1787 0727 18       		.uleb128 0x18
 1788 0728 0D070000 		.4byte	.LASF107
 1789 072c 06       		.byte	0x6
 1790 072d 6202     		.2byte	0x262
 1791 072f 31010000 		.4byte	0x131
 1792 0733 68       		.byte	0x68
 1793 0734 18       		.uleb128 0x18
 1794 0735 60090000 		.4byte	.LASF108
 1795 0739 06       		.byte	0x6
 1796 073a 6302     		.2byte	0x263
 1797 073c 31010000 		.4byte	0x131
 1798 0740 70       		.byte	0x70
 1799 0741 18       		.uleb128 0x18
 1800 0742 4D060000 		.4byte	.LASF109
 1801 0746 06       		.byte	0x6
 1802 0747 6402     		.2byte	0x264
 1803 0749 31010000 		.4byte	0x131
 1804 074d 78       		.byte	0x78
 1805 074e 18       		.uleb128 0x18
 1806 074f FE080000 		.4byte	.LASF110
 1807 0753 06       		.byte	0x6
 1808 0754 6502     		.2byte	0x265
 1809 0756 D4070000 		.4byte	0x7d4
 1810 075a 80       		.byte	0x80
 1811 075b 18       		.uleb128 0x18
 1812 075c C4040000 		.4byte	.LASF111
 1813 0760 06       		.byte	0x6
 1814 0761 6602     		.2byte	0x266
 1815 0763 E4070000 		.4byte	0x7e4
 1816 0767 88       		.byte	0x88
 1817 0768 18       		.uleb128 0x18
 1818 0769 7D000000 		.4byte	.LASF112
 1819 076d 06       		.byte	0x6
 1820 076e 6702     		.2byte	0x267
 1821 0770 25000000 		.4byte	0x25
 1822 0774 A0       		.byte	0xa0
 1823 0775 18       		.uleb128 0x18
 1824 0776 3F020000 		.4byte	.LASF113
ARM GAS  /var/folders/d2/nstgp4h54kz7g1l847x_b8wc0000gn/T//cchv4K2w.s 			page 33


 1825 077a 06       		.byte	0x6
 1826 077b 6802     		.2byte	0x268
 1827 077d 31010000 		.4byte	0x131
 1828 0781 A4       		.byte	0xa4
 1829 0782 18       		.uleb128 0x18
 1830 0783 2C010000 		.4byte	.LASF114
 1831 0787 06       		.byte	0x6
 1832 0788 6902     		.2byte	0x269
 1833 078a 31010000 		.4byte	0x131
 1834 078e AC       		.byte	0xac
 1835 078f 18       		.uleb128 0x18
 1836 0790 2E020000 		.4byte	.LASF115
 1837 0794 06       		.byte	0x6
 1838 0795 6A02     		.2byte	0x26a
 1839 0797 31010000 		.4byte	0x131
 1840 079b B4       		.byte	0xb4
 1841 079c 18       		.uleb128 0x18
 1842 079d C1000000 		.4byte	.LASF116
 1843 07a1 06       		.byte	0x6
 1844 07a2 6B02     		.2byte	0x26b
 1845 07a4 31010000 		.4byte	0x131
 1846 07a8 BC       		.byte	0xbc
 1847 07a9 18       		.uleb128 0x18
 1848 07aa DC000000 		.4byte	.LASF117
 1849 07ae 06       		.byte	0x6
 1850 07af 6C02     		.2byte	0x26c
 1851 07b1 31010000 		.4byte	0x131
 1852 07b5 C4       		.byte	0xc4
 1853 07b6 18       		.uleb128 0x18
 1854 07b7 97060000 		.4byte	.LASF118
 1855 07bb 06       		.byte	0x6
 1856 07bc 6D02     		.2byte	0x26d
 1857 07be 25000000 		.4byte	0x25
 1858 07c2 CC       		.byte	0xcc
 1859 07c3 00       		.byte	0
 1860 07c4 0A       		.uleb128 0xa
 1861 07c5 4F010000 		.4byte	0x14f
 1862 07c9 D4070000 		.4byte	0x7d4
 1863 07cd 0B       		.uleb128 0xb
 1864 07ce 37000000 		.4byte	0x37
 1865 07d2 19       		.byte	0x19
 1866 07d3 00       		.byte	0
 1867 07d4 0A       		.uleb128 0xa
 1868 07d5 4F010000 		.4byte	0x14f
 1869 07d9 E4070000 		.4byte	0x7e4
 1870 07dd 0B       		.uleb128 0xb
 1871 07de 37000000 		.4byte	0x37
 1872 07e2 07       		.byte	0x7
 1873 07e3 00       		.byte	0
 1874 07e4 0A       		.uleb128 0xa
 1875 07e5 4F010000 		.4byte	0x14f
 1876 07e9 F4070000 		.4byte	0x7f4
 1877 07ed 0B       		.uleb128 0xb
 1878 07ee 37000000 		.4byte	0x37
 1879 07f2 17       		.byte	0x17
 1880 07f3 00       		.byte	0
 1881 07f4 1B       		.uleb128 0x1b
ARM GAS  /var/folders/d2/nstgp4h54kz7g1l847x_b8wc0000gn/T//cchv4K2w.s 			page 34


 1882 07f5 F0       		.byte	0xf0
 1883 07f6 06       		.byte	0x6
 1884 07f7 7202     		.2byte	0x272
 1885 07f9 18080000 		.4byte	0x818
 1886 07fd 18       		.uleb128 0x18
 1887 07fe 86050000 		.4byte	.LASF119
 1888 0802 06       		.byte	0x6
 1889 0803 7502     		.2byte	0x275
 1890 0805 18080000 		.4byte	0x818
 1891 0809 00       		.byte	0
 1892 080a 18       		.uleb128 0x18
 1893 080b F5080000 		.4byte	.LASF120
 1894 080f 06       		.byte	0x6
 1895 0810 7602     		.2byte	0x276
 1896 0812 28080000 		.4byte	0x828
 1897 0816 78       		.byte	0x78
 1898 0817 00       		.byte	0
 1899 0818 0A       		.uleb128 0xa
 1900 0819 18030000 		.4byte	0x318
 1901 081d 28080000 		.4byte	0x828
 1902 0821 0B       		.uleb128 0xb
 1903 0822 37000000 		.4byte	0x37
 1904 0826 1D       		.byte	0x1d
 1905 0827 00       		.byte	0
 1906 0828 0A       		.uleb128 0xa
 1907 0829 37000000 		.4byte	0x37
 1908 082d 38080000 		.4byte	0x838
 1909 0831 0B       		.uleb128 0xb
 1910 0832 37000000 		.4byte	0x37
 1911 0836 1D       		.byte	0x1d
 1912 0837 00       		.byte	0
 1913 0838 1C       		.uleb128 0x1c
 1914 0839 F0       		.byte	0xf0
 1915 083a 06       		.byte	0x6
 1916 083b 5702     		.2byte	0x257
 1917 083d 5A080000 		.4byte	0x85a
 1918 0841 1D       		.uleb128 0x1d
 1919 0842 68070000 		.4byte	.LASF70
 1920 0846 06       		.byte	0x6
 1921 0847 6E02     		.2byte	0x26e
 1922 0849 C3060000 		.4byte	0x6c3
 1923 084d 1D       		.uleb128 0x1d
 1924 084e 32090000 		.4byte	.LASF121
 1925 0852 06       		.byte	0x6
 1926 0853 7702     		.2byte	0x277
 1927 0855 F4070000 		.4byte	0x7f4
 1928 0859 00       		.byte	0
 1929 085a 0A       		.uleb128 0xa
 1930 085b 4F010000 		.4byte	0x14f
 1931 085f 6A080000 		.4byte	0x86a
 1932 0863 0B       		.uleb128 0xb
 1933 0864 37000000 		.4byte	0x37
 1934 0868 18       		.byte	0x18
 1935 0869 00       		.byte	0
 1936 086a 06       		.uleb128 0x6
 1937 086b 0D010000 		.4byte	.LASF123
 1938 086f 05       		.uleb128 0x5
ARM GAS  /var/folders/d2/nstgp4h54kz7g1l847x_b8wc0000gn/T//cchv4K2w.s 			page 35


 1939 0870 04       		.byte	0x4
 1940 0871 6A080000 		.4byte	0x86a
 1941 0875 1E       		.uleb128 0x1e
 1942 0876 80080000 		.4byte	0x880
 1943 087a 16       		.uleb128 0x16
 1944 087b 66040000 		.4byte	0x466
 1945 087f 00       		.byte	0
 1946 0880 05       		.uleb128 0x5
 1947 0881 04       		.byte	0x4
 1948 0882 75080000 		.4byte	0x875
 1949 0886 05       		.uleb128 0x5
 1950 0887 04       		.byte	0x4
 1951 0888 B9010000 		.4byte	0x1b9
 1952 088c 1E       		.uleb128 0x1e
 1953 088d 97080000 		.4byte	0x897
 1954 0891 16       		.uleb128 0x16
 1955 0892 25000000 		.4byte	0x25
 1956 0896 00       		.byte	0
 1957 0897 05       		.uleb128 0x5
 1958 0898 04       		.byte	0x4
 1959 0899 9D080000 		.4byte	0x89d
 1960 089d 05       		.uleb128 0x5
 1961 089e 04       		.byte	0x4
 1962 089f 8C080000 		.4byte	0x88c
 1963 08a3 0A       		.uleb128 0xa
 1964 08a4 31060000 		.4byte	0x631
 1965 08a8 B3080000 		.4byte	0x8b3
 1966 08ac 0B       		.uleb128 0xb
 1967 08ad 37000000 		.4byte	0x37
 1968 08b1 02       		.byte	0x2
 1969 08b2 00       		.byte	0
 1970 08b3 1F       		.uleb128 0x1f
 1971 08b4 A3070000 		.4byte	.LASF124
 1972 08b8 06       		.byte	0x6
 1973 08b9 0703     		.2byte	0x307
 1974 08bb 66040000 		.4byte	0x466
 1975 08bf 1F       		.uleb128 0x1f
 1976 08c0 9B080000 		.4byte	.LASF125
 1977 08c4 06       		.byte	0x6
 1978 08c5 0803     		.2byte	0x308
 1979 08c7 6C040000 		.4byte	0x46c
 1980 08cb 03       		.uleb128 0x3
 1981 08cc 14060000 		.4byte	.LASF126
 1982 08d0 07       		.byte	0x7
 1983 08d1 18       		.byte	0x18
 1984 08d2 53000000 		.4byte	0x53
 1985 08d6 03       		.uleb128 0x3
 1986 08d7 FE010000 		.4byte	.LASF127
 1987 08db 07       		.byte	0x7
 1988 08dc 24       		.byte	0x24
 1989 08dd 6C000000 		.4byte	0x6c
 1990 08e1 03       		.uleb128 0x3
 1991 08e2 61060000 		.4byte	.LASF128
 1992 08e6 07       		.byte	0x7
 1993 08e7 2C       		.byte	0x2c
 1994 08e8 7E000000 		.4byte	0x7e
 1995 08ec 03       		.uleb128 0x3
ARM GAS  /var/folders/d2/nstgp4h54kz7g1l847x_b8wc0000gn/T//cchv4K2w.s 			page 36


 1996 08ed AE080000 		.4byte	.LASF129
 1997 08f1 07       		.byte	0x7
 1998 08f2 30       		.byte	0x30
 1999 08f3 90000000 		.4byte	0x90
 2000 08f7 05       		.uleb128 0x5
 2001 08f8 04       		.byte	0x4
 2002 08f9 FD080000 		.4byte	0x8fd
 2003 08fd 20       		.uleb128 0x20
 2004 08fe 21       		.uleb128 0x21
 2005 08ff C3050000 		.4byte	.LASF130
 2006 0903 08       		.byte	0x8
 2007 0904 63       		.byte	0x63
 2008 0905 49010000 		.4byte	0x149
 2009 0909 03       		.uleb128 0x3
 2010 090a AB000000 		.4byte	.LASF131
 2011 090e 09       		.byte	0x9
 2012 090f 08       		.byte	0x8
 2013 0910 14090000 		.4byte	0x914
 2014 0914 10       		.uleb128 0x10
 2015 0915 95000000 		.4byte	.LASF132
 2016 0919 18       		.byte	0x18
 2017 091a 09       		.byte	0x9
 2018 091b 0B       		.byte	0xb
 2019 091c 68090000 		.4byte	0x968
 2020 0920 11       		.uleb128 0x11
 2021 0921 696400   		.ascii	"id\000"
 2022 0924 09       		.byte	0x9
 2023 0925 0C       		.byte	0xc
 2024 0926 C7050000 		.4byte	0x5c7
 2025 092a 00       		.byte	0
 2026 092b 0D       		.uleb128 0xd
 2027 092c 6E080000 		.4byte	.LASF133
 2028 0930 09       		.byte	0x9
 2029 0931 0D       		.byte	0xd
 2030 0932 E1080000 		.4byte	0x8e1
 2031 0936 04       		.byte	0x4
 2032 0937 0D       		.uleb128 0xd
 2033 0938 B5010000 		.4byte	.LASF134
 2034 093c 09       		.byte	0x9
 2035 093d 0E       		.byte	0xe
 2036 093e D2090000 		.4byte	0x9d2
 2037 0942 08       		.byte	0x8
 2038 0943 0D       		.uleb128 0xd
 2039 0944 03070000 		.4byte	.LASF135
 2040 0948 09       		.byte	0x9
 2041 0949 0F       		.byte	0xf
 2042 094a D2090000 		.4byte	0x9d2
 2043 094e 0C       		.byte	0xc
 2044 094f 0D       		.uleb128 0xd
 2045 0950 3B010000 		.4byte	.LASF136
 2046 0954 09       		.byte	0x9
 2047 0955 10       		.byte	0x10
 2048 0956 D2090000 		.4byte	0x9d2
 2049 095a 10       		.byte	0x10
 2050 095b 0D       		.uleb128 0xd
 2051 095c 0F020000 		.4byte	.LASF137
 2052 0960 09       		.byte	0x9
ARM GAS  /var/folders/d2/nstgp4h54kz7g1l847x_b8wc0000gn/T//cchv4K2w.s 			page 37


 2053 0961 11       		.byte	0x11
 2054 0962 D8090000 		.4byte	0x9d8
 2055 0966 14       		.byte	0x14
 2056 0967 00       		.byte	0
 2057 0968 03       		.uleb128 0x3
 2058 0969 18010000 		.4byte	.LASF138
 2059 096d 09       		.byte	0x9
 2060 096e 09       		.byte	0x9
 2061 096f 73090000 		.4byte	0x973
 2062 0973 10       		.uleb128 0x10
 2063 0974 D0000000 		.4byte	.LASF139
 2064 0978 18       		.byte	0x18
 2065 0979 09       		.byte	0x9
 2066 097a 2E       		.byte	0x2e
 2067 097b D2090000 		.4byte	0x9d2
 2068 097f 11       		.uleb128 0x11
 2069 0980 696400   		.ascii	"id\000"
 2070 0983 09       		.byte	0x9
 2071 0984 2F       		.byte	0x2f
 2072 0985 C7050000 		.4byte	0x5c7
 2073 0989 00       		.byte	0
 2074 098a 11       		.uleb128 0x11
 2075 098b 6E7300   		.ascii	"ns\000"
 2076 098e 09       		.byte	0x9
 2077 098f 30       		.byte	0x30
 2078 0990 D2090000 		.4byte	0x9d2
 2079 0994 04       		.byte	0x4
 2080 0995 0D       		.uleb128 0xd
 2081 0996 3B010000 		.4byte	.LASF136
 2082 099a 09       		.byte	0x9
 2083 099b 31       		.byte	0x31
 2084 099c D8090000 		.4byte	0x9d8
 2085 09a0 08       		.byte	0x8
 2086 09a1 0D       		.uleb128 0xd
 2087 09a2 71010000 		.4byte	.LASF140
 2088 09a6 09       		.byte	0x9
 2089 09a7 32       		.byte	0x32
 2090 09a8 BF0A0000 		.4byte	0xabf
 2091 09ac 0C       		.byte	0xc
 2092 09ad 0D       		.uleb128 0xd
 2093 09ae 07020000 		.4byte	.LASF141
 2094 09b2 09       		.byte	0x9
 2095 09b3 33       		.byte	0x33
 2096 09b4 BF0A0000 		.4byte	0xabf
 2097 09b8 0D       		.byte	0xd
 2098 09b9 0D       		.uleb128 0xd
 2099 09ba 90000000 		.4byte	.LASF142
 2100 09be 09       		.byte	0x9
 2101 09bf 34       		.byte	0x34
 2102 09c0 CB080000 		.4byte	0x8cb
 2103 09c4 0E       		.byte	0xe
 2104 09c5 0D       		.uleb128 0xd
 2105 09c6 0C000000 		.4byte	.LASF143
 2106 09ca 09       		.byte	0x9
 2107 09cb 3C       		.byte	0x3c
 2108 09cc 7A0A0000 		.4byte	0xa7a
 2109 09d0 10       		.byte	0x10
ARM GAS  /var/folders/d2/nstgp4h54kz7g1l847x_b8wc0000gn/T//cchv4K2w.s 			page 38


 2110 09d1 00       		.byte	0
 2111 09d2 05       		.uleb128 0x5
 2112 09d3 04       		.byte	0x4
 2113 09d4 09090000 		.4byte	0x909
 2114 09d8 05       		.uleb128 0x5
 2115 09d9 04       		.byte	0x4
 2116 09da 68090000 		.4byte	0x968
 2117 09de 10       		.uleb128 0x10
 2118 09df 9C010000 		.4byte	.LASF144
 2119 09e3 08       		.byte	0x8
 2120 09e4 09       		.byte	0x9
 2121 09e5 14       		.byte	0x14
 2122 09e6 0F0A0000 		.4byte	0xa0f
 2123 09ea 11       		.uleb128 0x11
 2124 09eb 62756600 		.ascii	"buf\000"
 2125 09ef 09       		.byte	0x9
 2126 09f0 15       		.byte	0x15
 2127 09f1 49010000 		.4byte	0x149
 2128 09f5 00       		.byte	0
 2129 09f6 0D       		.uleb128 0xd
 2130 09f7 63010000 		.4byte	.LASF145
 2131 09fb 09       		.byte	0x9
 2132 09fc 16       		.byte	0x16
 2133 09fd D6080000 		.4byte	0x8d6
 2134 0a01 04       		.byte	0x4
 2135 0a02 11       		.uleb128 0x11
 2136 0a03 6C656E00 		.ascii	"len\000"
 2137 0a07 09       		.byte	0x9
 2138 0a08 17       		.byte	0x17
 2139 0a09 D6080000 		.4byte	0x8d6
 2140 0a0d 06       		.byte	0x6
 2141 0a0e 00       		.byte	0
 2142 0a0f 10       		.uleb128 0x10
 2143 0a10 BB060000 		.4byte	.LASF146
 2144 0a14 08       		.byte	0x8
 2145 0a15 09       		.byte	0x9
 2146 0a16 1A       		.byte	0x1a
 2147 0a17 400A0000 		.4byte	0xa40
 2148 0a1b 11       		.uleb128 0x11
 2149 0a1c 62756600 		.ascii	"buf\000"
 2150 0a20 09       		.byte	0x9
 2151 0a21 1B       		.byte	0x1b
 2152 0a22 400A0000 		.4byte	0xa40
 2153 0a26 00       		.byte	0
 2154 0a27 0D       		.uleb128 0xd
 2155 0a28 24010000 		.4byte	.LASF147
 2156 0a2c 09       		.byte	0x9
 2157 0a2d 1C       		.byte	0x1c
 2158 0a2e D6080000 		.4byte	0x8d6
 2159 0a32 04       		.byte	0x4
 2160 0a33 11       		.uleb128 0x11
 2161 0a34 64696D00 		.ascii	"dim\000"
 2162 0a38 09       		.byte	0x9
 2163 0a39 1D       		.byte	0x1d
 2164 0a3a D6080000 		.4byte	0x8d6
 2165 0a3e 06       		.byte	0x6
 2166 0a3f 00       		.byte	0
ARM GAS  /var/folders/d2/nstgp4h54kz7g1l847x_b8wc0000gn/T//cchv4K2w.s 			page 39


 2167 0a40 05       		.uleb128 0x5
 2168 0a41 04       		.byte	0x4
 2169 0a42 460A0000 		.4byte	0xa46
 2170 0a46 04       		.uleb128 0x4
 2171 0a47 04       		.byte	0x4
 2172 0a48 04       		.byte	0x4
 2173 0a49 21060000 		.4byte	.LASF148
 2174 0a4d 10       		.uleb128 0x10
 2175 0a4e C3020000 		.4byte	.LASF149
 2176 0a52 08       		.byte	0x8
 2177 0a53 09       		.byte	0x9
 2178 0a54 20       		.byte	0x20
 2179 0a55 7A0A0000 		.4byte	0xa7a
 2180 0a59 11       		.uleb128 0x11
 2181 0a5a 62756600 		.ascii	"buf\000"
 2182 0a5e 09       		.byte	0x9
 2183 0a5f 21       		.byte	0x21
 2184 0a60 400A0000 		.4byte	0xa40
 2185 0a64 00       		.byte	0
 2186 0a65 11       		.uleb128 0x11
 2187 0a66 6E00     		.ascii	"n\000"
 2188 0a68 09       		.byte	0x9
 2189 0a69 22       		.byte	0x22
 2190 0a6a D6080000 		.4byte	0x8d6
 2191 0a6e 04       		.byte	0x4
 2192 0a6f 11       		.uleb128 0x11
 2193 0a70 6D00     		.ascii	"m\000"
 2194 0a72 09       		.byte	0x9
 2195 0a73 23       		.byte	0x23
 2196 0a74 D6080000 		.4byte	0x8d6
 2197 0a78 06       		.byte	0x6
 2198 0a79 00       		.byte	0
 2199 0a7a 08       		.uleb128 0x8
 2200 0a7b 08       		.byte	0x8
 2201 0a7c 09       		.byte	0x9
 2202 0a7d 35       		.byte	0x35
 2203 0a7e BF0A0000 		.4byte	0xabf
 2204 0a82 22       		.uleb128 0x22
 2205 0a83 6200     		.ascii	"b\000"
 2206 0a85 09       		.byte	0x9
 2207 0a86 36       		.byte	0x36
 2208 0a87 BF0A0000 		.4byte	0xabf
 2209 0a8b 22       		.uleb128 0x22
 2210 0a8c 7300     		.ascii	"s\000"
 2211 0a8e 09       		.byte	0x9
 2212 0a8f 37       		.byte	0x37
 2213 0a90 460A0000 		.4byte	0xa46
 2214 0a94 22       		.uleb128 0x22
 2215 0a95 6900     		.ascii	"i\000"
 2216 0a97 09       		.byte	0x9
 2217 0a98 38       		.byte	0x38
 2218 0a99 E1080000 		.4byte	0x8e1
 2219 0a9d 22       		.uleb128 0x22
 2220 0a9e 73747200 		.ascii	"str\000"
 2221 0aa2 09       		.byte	0x9
 2222 0aa3 39       		.byte	0x39
 2223 0aa4 DE090000 		.4byte	0x9de
ARM GAS  /var/folders/d2/nstgp4h54kz7g1l847x_b8wc0000gn/T//cchv4K2w.s 			page 40


 2224 0aa8 09       		.uleb128 0x9
 2225 0aa9 DE070000 		.4byte	.LASF150
 2226 0aad 09       		.byte	0x9
 2227 0aae 3A       		.byte	0x3a
 2228 0aaf 0F0A0000 		.4byte	0xa0f
 2229 0ab3 22       		.uleb128 0x22
 2230 0ab4 6D617400 		.ascii	"mat\000"
 2231 0ab8 09       		.byte	0x9
 2232 0ab9 3B       		.byte	0x3b
 2233 0aba 4D0A0000 		.4byte	0xa4d
 2234 0abe 00       		.byte	0
 2235 0abf 04       		.uleb128 0x4
 2236 0ac0 01       		.byte	0x1
 2237 0ac1 02       		.byte	0x2
 2238 0ac2 5B060000 		.4byte	.LASF151
 2239 0ac6 03       		.uleb128 0x3
 2240 0ac7 4E050000 		.4byte	.LASF152
 2241 0acb 0A       		.byte	0xa
 2242 0acc 06       		.byte	0x6
 2243 0acd D10A0000 		.4byte	0xad1
 2244 0ad1 05       		.uleb128 0x5
 2245 0ad2 04       		.byte	0x4
 2246 0ad3 D70A0000 		.4byte	0xad7
 2247 0ad7 15       		.uleb128 0x15
 2248 0ad8 BF0A0000 		.4byte	0xabf
 2249 0adc F00A0000 		.4byte	0xaf0
 2250 0ae0 16       		.uleb128 0x16
 2251 0ae1 F00A0000 		.4byte	0xaf0
 2252 0ae5 16       		.uleb128 0x16
 2253 0ae6 47010000 		.4byte	0x147
 2254 0aea 16       		.uleb128 0x16
 2255 0aeb 2C000000 		.4byte	0x2c
 2256 0aef 00       		.byte	0
 2257 0af0 05       		.uleb128 0x5
 2258 0af1 04       		.byte	0x4
 2259 0af2 F60A0000 		.4byte	0xaf6
 2260 0af6 10       		.uleb128 0x10
 2261 0af7 7C050000 		.4byte	.LASF153
 2262 0afb 10       		.byte	0x10
 2263 0afc 0A       		.byte	0xa
 2264 0afd 48       		.byte	0x48
 2265 0afe 330B0000 		.4byte	0xb33
 2266 0b02 0D       		.uleb128 0xd
 2267 0b03 31060000 		.4byte	.LASF154
 2268 0b07 0A       		.byte	0xa
 2269 0b08 49       		.byte	0x49
 2270 0b09 CB080000 		.4byte	0x8cb
 2271 0b0d 00       		.byte	0
 2272 0b0e 11       		.uleb128 0x11
 2273 0b0f 62756600 		.ascii	"buf\000"
 2274 0b13 0A       		.byte	0xa
 2275 0b14 4A       		.byte	0x4a
 2276 0b15 47010000 		.4byte	0x147
 2277 0b19 04       		.byte	0x4
 2278 0b1a 0D       		.uleb128 0xd
 2279 0b1b 1C060000 		.4byte	.LASF155
 2280 0b1f 0A       		.byte	0xa
ARM GAS  /var/folders/d2/nstgp4h54kz7g1l847x_b8wc0000gn/T//cchv4K2w.s 			page 41


 2281 0b20 4B       		.byte	0x4b
 2282 0b21 C60A0000 		.4byte	0xac6
 2283 0b25 08       		.byte	0x8
 2284 0b26 0D       		.uleb128 0xd
 2285 0b27 6D000000 		.4byte	.LASF156
 2286 0b2b 0A       		.byte	0xa
 2287 0b2c 4C       		.byte	0x4c
 2288 0b2d 330B0000 		.4byte	0xb33
 2289 0b31 0C       		.byte	0xc
 2290 0b32 00       		.byte	0
 2291 0b33 03       		.uleb128 0x3
 2292 0b34 72040000 		.4byte	.LASF157
 2293 0b38 0A       		.byte	0xa
 2294 0b39 07       		.byte	0x7
 2295 0b3a 3E0B0000 		.4byte	0xb3e
 2296 0b3e 05       		.uleb128 0x5
 2297 0b3f 04       		.byte	0x4
 2298 0b40 440B0000 		.4byte	0xb44
 2299 0b44 15       		.uleb128 0x15
 2300 0b45 2C000000 		.4byte	0x2c
 2301 0b49 5D0B0000 		.4byte	0xb5d
 2302 0b4d 16       		.uleb128 0x16
 2303 0b4e F00A0000 		.4byte	0xaf0
 2304 0b52 16       		.uleb128 0x16
 2305 0b53 F7080000 		.4byte	0x8f7
 2306 0b57 16       		.uleb128 0x16
 2307 0b58 2C000000 		.4byte	0x2c
 2308 0b5c 00       		.byte	0
 2309 0b5d 04       		.uleb128 0x4
 2310 0b5e 08       		.byte	0x8
 2311 0b5f 04       		.byte	0x4
 2312 0b60 73090000 		.4byte	.LASF158
 2313 0b64 03       		.uleb128 0x3
 2314 0b65 55020000 		.4byte	.LASF159
 2315 0b69 0A       		.byte	0xa
 2316 0b6a 4D       		.byte	0x4d
 2317 0b6b F60A0000 		.4byte	0xaf6
 2318 0b6f 0C       		.uleb128 0xc
 2319 0b70 0C       		.byte	0xc
 2320 0b71 0B       		.byte	0xb
 2321 0b72 0D       		.byte	0xd
 2322 0b73 9C0B0000 		.4byte	0xb9c
 2323 0b77 11       		.uleb128 0x11
 2324 0b78 62756600 		.ascii	"buf\000"
 2325 0b7c 0B       		.byte	0xb
 2326 0b7d 0E       		.byte	0xe
 2327 0b7e 49010000 		.4byte	0x149
 2328 0b82 00       		.byte	0
 2329 0b83 0D       		.uleb128 0xd
 2330 0b84 EC010000 		.4byte	.LASF160
 2331 0b88 0B       		.byte	0xb
 2332 0b89 0F       		.byte	0xf
 2333 0b8a 2C000000 		.4byte	0x2c
 2334 0b8e 04       		.byte	0x4
 2335 0b8f 0D       		.uleb128 0xd
 2336 0b90 96040000 		.4byte	.LASF161
 2337 0b94 0B       		.byte	0xb
ARM GAS  /var/folders/d2/nstgp4h54kz7g1l847x_b8wc0000gn/T//cchv4K2w.s 			page 42


 2338 0b95 10       		.byte	0x10
 2339 0b96 2C000000 		.4byte	0x2c
 2340 0b9a 08       		.byte	0x8
 2341 0b9b 00       		.byte	0
 2342 0b9c 03       		.uleb128 0x3
 2343 0b9d 0D050000 		.4byte	.LASF162
 2344 0ba1 0B       		.byte	0xb
 2345 0ba2 11       		.byte	0x11
 2346 0ba3 6F0B0000 		.4byte	0xb6f
 2347 0ba7 23       		.uleb128 0x23
 2348 0ba8 45000000 		.4byte	.LASF163
 2349 0bac 01       		.byte	0x1
 2350 0bad BE       		.byte	0xbe
 2351 0bae 47010000 		.4byte	0x147
 2352 0bb2 01       		.byte	0x1
 2353 0bb3 CC0B0000 		.4byte	0xbcc
 2354 0bb7 24       		.uleb128 0x24
 2355 0bb8 7000     		.ascii	"p\000"
 2356 0bba 01       		.byte	0x1
 2357 0bbb BE       		.byte	0xbe
 2358 0bbc 47010000 		.4byte	0x147
 2359 0bc0 25       		.uleb128 0x25
 2360 0bc1 EC020000 		.4byte	.LASF165
 2361 0bc5 01       		.byte	0x1
 2362 0bc6 C0       		.byte	0xc0
 2363 0bc7 CC0B0000 		.4byte	0xbcc
 2364 0bcb 00       		.byte	0
 2365 0bcc 05       		.uleb128 0x5
 2366 0bcd 04       		.byte	0x4
 2367 0bce CB080000 		.4byte	0x8cb
 2368 0bd2 23       		.uleb128 0x23
 2369 0bd3 8D050000 		.4byte	.LASF164
 2370 0bd7 01       		.byte	0x1
 2371 0bd8 B0       		.byte	0xb0
 2372 0bd9 47010000 		.4byte	0x147
 2373 0bdd 01       		.byte	0x1
 2374 0bde 020C0000 		.4byte	0xc02
 2375 0be2 24       		.uleb128 0x24
 2376 0be3 7000     		.ascii	"p\000"
 2377 0be5 01       		.byte	0x1
 2378 0be6 B0       		.byte	0xb0
 2379 0be7 47010000 		.4byte	0x147
 2380 0beb 25       		.uleb128 0x25
 2381 0bec EC020000 		.4byte	.LASF165
 2382 0bf0 01       		.byte	0x1
 2383 0bf1 B2       		.byte	0xb2
 2384 0bf2 CC0B0000 		.4byte	0xbcc
 2385 0bf6 25       		.uleb128 0x25
 2386 0bf7 DD040000 		.4byte	.LASF166
 2387 0bfb 01       		.byte	0x1
 2388 0bfc B3       		.byte	0xb3
 2389 0bfd CC0B0000 		.4byte	0xbcc
 2390 0c01 00       		.byte	0
 2391 0c02 23       		.uleb128 0x23
 2392 0c03 18000000 		.4byte	.LASF167
 2393 0c07 01       		.byte	0x1
 2394 0c08 A9       		.byte	0xa9
ARM GAS  /var/folders/d2/nstgp4h54kz7g1l847x_b8wc0000gn/T//cchv4K2w.s 			page 43


 2395 0c09 EC080000 		.4byte	0x8ec
 2396 0c0d 01       		.byte	0x1
 2397 0c0e 290C0000 		.4byte	0xc29
 2398 0c12 26       		.uleb128 0x26
 2399 0c13 EC020000 		.4byte	.LASF165
 2400 0c17 01       		.byte	0x1
 2401 0c18 A9       		.byte	0xa9
 2402 0c19 47010000 		.4byte	0x147
 2403 0c1d 25       		.uleb128 0x25
 2404 0c1e 7A090000 		.4byte	.LASF168
 2405 0c22 01       		.byte	0x1
 2406 0c23 AB       		.byte	0xab
 2407 0c24 290C0000 		.4byte	0xc29
 2408 0c28 00       		.byte	0
 2409 0c29 05       		.uleb128 0x5
 2410 0c2a 04       		.byte	0x4
 2411 0c2b EC080000 		.4byte	0x8ec
 2412 0c2f 27       		.uleb128 0x27
 2413 0c30 12090000 		.4byte	.LASF174
 2414 0c34 01       		.byte	0x1
 2415 0c35 96       		.byte	0x96
 2416 0c36 00000000 		.4byte	.LFB6
 2417 0c3a 64000000 		.4byte	.LFE6-.LFB6
 2418 0c3e 01       		.uleb128 0x1
 2419 0c3f 9C       		.byte	0x9c
 2420 0c40 270D0000 		.4byte	0xd27
 2421 0c44 28       		.uleb128 0x28
 2422 0c45 64737400 		.ascii	"dst\000"
 2423 0c49 01       		.byte	0x1
 2424 0c4a 96       		.byte	0x96
 2425 0c4b 47010000 		.4byte	0x147
 2426 0c4f 00000000 		.4byte	.LLST17
 2427 0c53 28       		.uleb128 0x28
 2428 0c54 6C656E00 		.ascii	"len\000"
 2429 0c58 01       		.byte	0x1
 2430 0c59 96       		.byte	0x96
 2431 0c5a EC080000 		.4byte	0x8ec
 2432 0c5e 1E000000 		.4byte	.LLST18
 2433 0c62 29       		.uleb128 0x29
 2434 0c63 63726300 		.ascii	"crc\000"
 2435 0c67 01       		.byte	0x1
 2436 0c68 98       		.byte	0x98
 2437 0c69 EC080000 		.4byte	0x8ec
 2438 0c6d 02       		.uleb128 0x2
 2439 0c6e 91       		.byte	0x91
 2440 0c6f 68       		.sleb128 -24
 2441 0c70 2A       		.uleb128 0x2a
 2442 0c71 06080000 		.4byte	.LASF169
 2443 0c75 01       		.byte	0x1
 2444 0c76 99       		.byte	0x99
 2445 0c77 2C000000 		.4byte	0x2c
 2446 0c7b 3D000000 		.4byte	.LLST19
 2447 0c7f 2B       		.uleb128 0x2b
 2448 0c80 18000000 		.4byte	.LVL44
 2449 0c84 6F120000 		.4byte	0x126f
 2450 0c88 A20C0000 		.4byte	0xca2
 2451 0c8c 2C       		.uleb128 0x2c
ARM GAS  /var/folders/d2/nstgp4h54kz7g1l847x_b8wc0000gn/T//cchv4K2w.s 			page 44


 2452 0c8d 01       		.uleb128 0x1
 2453 0c8e 50       		.byte	0x50
 2454 0c8f 06       		.uleb128 0x6
 2455 0c90 11       		.byte	0x11
 2456 0c91 EFFDB6F5 		.sleb128 -559038737
 2456      7D
 2457 0c96 2C       		.uleb128 0x2c
 2458 0c97 01       		.uleb128 0x1
 2459 0c98 51       		.byte	0x51
 2460 0c99 02       		.uleb128 0x2
 2461 0c9a 91       		.byte	0x91
 2462 0c9b 64       		.sleb128 -28
 2463 0c9c 2C       		.uleb128 0x2c
 2464 0c9d 01       		.uleb128 0x1
 2465 0c9e 52       		.byte	0x52
 2466 0c9f 01       		.uleb128 0x1
 2467 0ca0 34       		.byte	0x34
 2468 0ca1 00       		.byte	0
 2469 0ca2 2B       		.uleb128 0x2b
 2470 0ca3 28000000 		.4byte	.LVL45
 2471 0ca7 7A120000 		.4byte	0x127a
 2472 0cab C10C0000 		.4byte	0xcc1
 2473 0caf 2C       		.uleb128 0x2c
 2474 0cb0 01       		.uleb128 0x1
 2475 0cb1 50       		.byte	0x50
 2476 0cb2 02       		.uleb128 0x2
 2477 0cb3 74       		.byte	0x74
 2478 0cb4 00       		.sleb128 0
 2479 0cb5 2C       		.uleb128 0x2c
 2480 0cb6 01       		.uleb128 0x1
 2481 0cb7 51       		.byte	0x51
 2482 0cb8 02       		.uleb128 0x2
 2483 0cb9 75       		.byte	0x75
 2484 0cba 00       		.sleb128 0
 2485 0cbb 2C       		.uleb128 0x2c
 2486 0cbc 01       		.uleb128 0x1
 2487 0cbd 52       		.byte	0x52
 2488 0cbe 01       		.uleb128 0x1
 2489 0cbf 34       		.byte	0x34
 2490 0cc0 00       		.byte	0
 2491 0cc1 2B       		.uleb128 0x2b
 2492 0cc2 32000000 		.4byte	.LVL46
 2493 0cc6 7A120000 		.4byte	0x127a
 2494 0cca E00C0000 		.4byte	0xce0
 2495 0cce 2C       		.uleb128 0x2c
 2496 0ccf 01       		.uleb128 0x1
 2497 0cd0 50       		.byte	0x50
 2498 0cd1 02       		.uleb128 0x2
 2499 0cd2 74       		.byte	0x74
 2500 0cd3 04       		.sleb128 4
 2501 0cd4 2C       		.uleb128 0x2c
 2502 0cd5 01       		.uleb128 0x1
 2503 0cd6 51       		.byte	0x51
 2504 0cd7 02       		.uleb128 0x2
 2505 0cd8 91       		.byte	0x91
 2506 0cd9 64       		.sleb128 -28
 2507 0cda 2C       		.uleb128 0x2c
ARM GAS  /var/folders/d2/nstgp4h54kz7g1l847x_b8wc0000gn/T//cchv4K2w.s 			page 45


 2508 0cdb 01       		.uleb128 0x1
 2509 0cdc 52       		.byte	0x52
 2510 0cdd 01       		.uleb128 0x1
 2511 0cde 34       		.byte	0x34
 2512 0cdf 00       		.byte	0
 2513 0ce0 2B       		.uleb128 0x2b
 2514 0ce1 3E000000 		.4byte	.LVL47
 2515 0ce5 6F120000 		.4byte	0x126f
 2516 0ce9 FE0C0000 		.4byte	0xcfe
 2517 0ced 2C       		.uleb128 0x2c
 2518 0cee 01       		.uleb128 0x1
 2519 0cef 50       		.byte	0x50
 2520 0cf0 06       		.uleb128 0x6
 2521 0cf1 11       		.byte	0x11
 2522 0cf2 EFFDB6F5 		.sleb128 -559038737
 2522      7D
 2523 0cf7 2C       		.uleb128 0x2c
 2524 0cf8 01       		.uleb128 0x1
 2525 0cf9 51       		.byte	0x51
 2526 0cfa 02       		.uleb128 0x2
 2527 0cfb 74       		.byte	0x74
 2528 0cfc 0C       		.sleb128 12
 2529 0cfd 00       		.byte	0
 2530 0cfe 2B       		.uleb128 0x2b
 2531 0cff 4C000000 		.4byte	.LVL48
 2532 0d03 7A120000 		.4byte	0x127a
 2533 0d07 1D0D0000 		.4byte	0xd1d
 2534 0d0b 2C       		.uleb128 0x2c
 2535 0d0c 01       		.uleb128 0x1
 2536 0d0d 50       		.byte	0x50
 2537 0d0e 02       		.uleb128 0x2
 2538 0d0f 74       		.byte	0x74
 2539 0d10 08       		.sleb128 8
 2540 0d11 2C       		.uleb128 0x2c
 2541 0d12 01       		.uleb128 0x1
 2542 0d13 51       		.byte	0x51
 2543 0d14 02       		.uleb128 0x2
 2544 0d15 75       		.byte	0x75
 2545 0d16 00       		.sleb128 0
 2546 0d17 2C       		.uleb128 0x2c
 2547 0d18 01       		.uleb128 0x1
 2548 0d19 52       		.byte	0x52
 2549 0d1a 01       		.uleb128 0x1
 2550 0d1b 34       		.byte	0x34
 2551 0d1c 00       		.byte	0
 2552 0d1d 2D       		.uleb128 0x2d
 2553 0d1e 5C000000 		.4byte	.LVL50
 2554 0d22 85120000 		.4byte	0x1285
 2555 0d26 00       		.byte	0
 2556 0d27 2E       		.uleb128 0x2e
 2557 0d28 37060000 		.4byte	.LASF171
 2558 0d2c 01       		.byte	0x1
 2559 0d2d 77       		.byte	0x77
 2560 0d2e BF0A0000 		.4byte	0xabf
 2561 0d32 00000000 		.4byte	.LFB5
 2562 0d36 54000000 		.4byte	.LFE5-.LFB5
 2563 0d3a 01       		.uleb128 0x1
ARM GAS  /var/folders/d2/nstgp4h54kz7g1l847x_b8wc0000gn/T//cchv4K2w.s 			page 46


 2564 0d3b 9C       		.byte	0x9c
 2565 0d3c D10D0000 		.4byte	0xdd1
 2566 0d40 28       		.uleb128 0x28
 2567 0d41 7000     		.ascii	"p\000"
 2568 0d43 01       		.byte	0x1
 2569 0d44 77       		.byte	0x77
 2570 0d45 47010000 		.4byte	0x147
 2571 0d49 69000000 		.4byte	.LLST8
 2572 0d4d 2F       		.uleb128 0x2f
 2573 0d4e EC020000 		.4byte	.LASF165
 2574 0d52 01       		.byte	0x1
 2575 0d53 79       		.byte	0x79
 2576 0d54 CC0B0000 		.4byte	0xbcc
 2577 0d58 01       		.uleb128 0x1
 2578 0d59 54       		.byte	0x54
 2579 0d5a 30       		.uleb128 0x30
 2580 0d5b 63726300 		.ascii	"crc\000"
 2581 0d5f 01       		.byte	0x1
 2582 0d60 7A       		.byte	0x7a
 2583 0d61 EC080000 		.4byte	0x8ec
 2584 0d65 87000000 		.4byte	.LLST9
 2585 0d69 2F       		.uleb128 0x2f
 2586 0d6a B7070000 		.4byte	.LASF170
 2587 0d6e 01       		.byte	0x1
 2588 0d6f 7A       		.byte	0x7a
 2589 0d70 EC080000 		.4byte	0x8ec
 2590 0d74 02       		.uleb128 0x2
 2591 0d75 91       		.byte	0x91
 2592 0d76 68       		.sleb128 -24
 2593 0d77 2A       		.uleb128 0x2a
 2594 0d78 06080000 		.4byte	.LASF169
 2595 0d7c 01       		.byte	0x1
 2596 0d7d 7B       		.byte	0x7b
 2597 0d7e 2C000000 		.4byte	0x2c
 2598 0d82 A5000000 		.4byte	.LLST10
 2599 0d86 2B       		.uleb128 0x2b
 2600 0d87 1E000000 		.4byte	.LVL21
 2601 0d8b 6F120000 		.4byte	0x126f
 2602 0d8f A90D0000 		.4byte	0xda9
 2603 0d93 2C       		.uleb128 0x2c
 2604 0d94 01       		.uleb128 0x1
 2605 0d95 50       		.byte	0x50
 2606 0d96 06       		.uleb128 0x6
 2607 0d97 11       		.byte	0x11
 2608 0d98 EFFDB6F5 		.sleb128 -559038737
 2608      7D
 2609 0d9d 2C       		.uleb128 0x2c
 2610 0d9e 01       		.uleb128 0x1
 2611 0d9f 51       		.byte	0x51
 2612 0da0 02       		.uleb128 0x2
 2613 0da1 91       		.byte	0x91
 2614 0da2 68       		.sleb128 -24
 2615 0da3 2C       		.uleb128 0x2c
 2616 0da4 01       		.uleb128 0x1
 2617 0da5 52       		.byte	0x52
 2618 0da6 01       		.uleb128 0x1
 2619 0da7 34       		.byte	0x34
ARM GAS  /var/folders/d2/nstgp4h54kz7g1l847x_b8wc0000gn/T//cchv4K2w.s 			page 47


 2620 0da8 00       		.byte	0
 2621 0da9 2B       		.uleb128 0x2b
 2622 0daa 3E000000 		.4byte	.LVL25
 2623 0dae 6F120000 		.4byte	0x126f
 2624 0db2 C70D0000 		.4byte	0xdc7
 2625 0db6 2C       		.uleb128 0x2c
 2626 0db7 01       		.uleb128 0x1
 2627 0db8 50       		.byte	0x50
 2628 0db9 06       		.uleb128 0x6
 2629 0dba 11       		.byte	0x11
 2630 0dbb EFFDB6F5 		.sleb128 -559038737
 2630      7D
 2631 0dc0 2C       		.uleb128 0x2c
 2632 0dc1 01       		.uleb128 0x1
 2633 0dc2 51       		.byte	0x51
 2634 0dc3 02       		.uleb128 0x2
 2635 0dc4 74       		.byte	0x74
 2636 0dc5 0C       		.sleb128 12
 2637 0dc6 00       		.byte	0
 2638 0dc7 2D       		.uleb128 0x2d
 2639 0dc8 4C000000 		.4byte	.LVL27
 2640 0dcc 85120000 		.4byte	0x1285
 2641 0dd0 00       		.byte	0
 2642 0dd1 2E       		.uleb128 0x2e
 2643 0dd2 59050000 		.4byte	.LASF172
 2644 0dd6 01       		.byte	0x1
 2645 0dd7 5F       		.byte	0x5f
 2646 0dd8 BF0A0000 		.4byte	0xabf
 2647 0ddc 00000000 		.4byte	.LFB4
 2648 0de0 54000000 		.4byte	.LFE4-.LFB4
 2649 0de4 01       		.uleb128 0x1
 2650 0de5 9C       		.byte	0x9c
 2651 0de6 8E0E0000 		.4byte	0xe8e
 2652 0dea 28       		.uleb128 0x28
 2653 0deb 6E7300   		.ascii	"ns\000"
 2654 0dee 01       		.byte	0x1
 2655 0def 5F       		.byte	0x5f
 2656 0df0 D2090000 		.4byte	0x9d2
 2657 0df4 D1000000 		.4byte	.LLST11
 2658 0df8 28       		.uleb128 0x28
 2659 0df9 73726300 		.ascii	"src\000"
 2660 0dfd 01       		.byte	0x1
 2661 0dfe 5F       		.byte	0x5f
 2662 0dff 47010000 		.4byte	0x147
 2663 0e03 EF000000 		.4byte	.LLST12
 2664 0e07 30       		.uleb128 0x30
 2665 0e08 72657300 		.ascii	"res\000"
 2666 0e0c 01       		.byte	0x1
 2667 0e0d 61       		.byte	0x61
 2668 0e0e 25000000 		.4byte	0x25
 2669 0e12 10010000 		.4byte	.LLST13
 2670 0e16 25       		.uleb128 0x25
 2671 0e17 77060000 		.4byte	.LASF173
 2672 0e1b 01       		.byte	0x1
 2673 0e1c 62       		.byte	0x62
 2674 0e1d EC080000 		.4byte	0x8ec
 2675 0e21 31       		.uleb128 0x31
ARM GAS  /var/folders/d2/nstgp4h54kz7g1l847x_b8wc0000gn/T//cchv4K2w.s 			page 48


 2676 0e22 D20B0000 		.4byte	0xbd2
 2677 0e26 0E000000 		.4byte	.LBB20
 2678 0e2a 18000000 		.4byte	.LBE20-.LBB20
 2679 0e2e 01       		.byte	0x1
 2680 0e2f 64       		.byte	0x64
 2681 0e30 6A0E0000 		.4byte	0xe6a
 2682 0e34 32       		.uleb128 0x32
 2683 0e35 E20B0000 		.4byte	0xbe2
 2684 0e39 23010000 		.4byte	.LLST14
 2685 0e3d 33       		.uleb128 0x33
 2686 0e3e 0E000000 		.4byte	.LBB21
 2687 0e42 18000000 		.4byte	.LBE21-.LBB21
 2688 0e46 34       		.uleb128 0x34
 2689 0e47 EB0B0000 		.4byte	0xbeb
 2690 0e4b 44010000 		.4byte	.LLST15
 2691 0e4f 34       		.uleb128 0x34
 2692 0e50 F60B0000 		.4byte	0xbf6
 2693 0e54 83010000 		.4byte	.LLST16
 2694 0e58 35       		.uleb128 0x35
 2695 0e59 20000000 		.4byte	.LVL33
 2696 0e5d 270D0000 		.4byte	0xd27
 2697 0e61 2C       		.uleb128 0x2c
 2698 0e62 01       		.uleb128 0x1
 2699 0e63 50       		.byte	0x50
 2700 0e64 02       		.uleb128 0x2
 2701 0e65 74       		.byte	0x74
 2702 0e66 00       		.sleb128 0
 2703 0e67 00       		.byte	0
 2704 0e68 00       		.byte	0
 2705 0e69 00       		.byte	0
 2706 0e6a 2B       		.uleb128 0x2b
 2707 0e6b 36000000 		.4byte	.LVL36
 2708 0e6f 8E120000 		.4byte	0x128e
 2709 0e73 840E0000 		.4byte	0xe84
 2710 0e77 2C       		.uleb128 0x2c
 2711 0e78 01       		.uleb128 0x1
 2712 0e79 50       		.byte	0x50
 2713 0e7a 02       		.uleb128 0x2
 2714 0e7b 77       		.byte	0x77
 2715 0e7c 00       		.sleb128 0
 2716 0e7d 2C       		.uleb128 0x2c
 2717 0e7e 01       		.uleb128 0x1
 2718 0e7f 51       		.byte	0x51
 2719 0e80 02       		.uleb128 0x2
 2720 0e81 75       		.byte	0x75
 2721 0e82 0C       		.sleb128 12
 2722 0e83 00       		.byte	0
 2723 0e84 2D       		.uleb128 0x2d
 2724 0e85 4E000000 		.4byte	.LVL39
 2725 0e89 85120000 		.4byte	0x1285
 2726 0e8d 00       		.byte	0
 2727 0e8e 27       		.uleb128 0x27
 2728 0e8f F2010000 		.4byte	.LASF175
 2729 0e93 01       		.byte	0x1
 2730 0e94 2B       		.byte	0x2b
 2731 0e95 00000000 		.4byte	.LFB3
 2732 0e99 D8000000 		.4byte	.LFE3-.LFB3
ARM GAS  /var/folders/d2/nstgp4h54kz7g1l847x_b8wc0000gn/T//cchv4K2w.s 			page 49


 2733 0e9d 01       		.uleb128 0x1
 2734 0e9e 9C       		.byte	0x9c
 2735 0e9f 8C100000 		.4byte	0x108c
 2736 0ea3 28       		.uleb128 0x28
 2737 0ea4 64737400 		.ascii	"dst\000"
 2738 0ea8 01       		.byte	0x1
 2739 0ea9 2B       		.byte	0x2b
 2740 0eaa 47010000 		.4byte	0x147
 2741 0eae A2010000 		.4byte	.LLST20
 2742 0eb2 36       		.uleb128 0x36
 2743 0eb3 FF040000 		.4byte	.LASF176
 2744 0eb7 01       		.byte	0x1
 2745 0eb8 2B       		.byte	0x2b
 2746 0eb9 2C000000 		.4byte	0x2c
 2747 0ebd 02020000 		.4byte	.LLST21
 2748 0ec1 28       		.uleb128 0x28
 2749 0ec2 6E7300   		.ascii	"ns\000"
 2750 0ec5 01       		.byte	0x1
 2751 0ec6 2B       		.byte	0x2b
 2752 0ec7 D2090000 		.4byte	0x9d2
 2753 0ecb 20020000 		.4byte	.LLST22
 2754 0ecf 29       		.uleb128 0x29
 2755 0ed0 636D7000 		.ascii	"cmp\000"
 2756 0ed4 01       		.byte	0x1
 2757 0ed5 2D       		.byte	0x2d
 2758 0ed6 640B0000 		.4byte	0xb64
 2759 0eda 02       		.uleb128 0x2
 2760 0edb 91       		.byte	0x91
 2761 0edc 4C       		.sleb128 -52
 2762 0edd 29       		.uleb128 0x29
 2763 0ede 6D656D00 		.ascii	"mem\000"
 2764 0ee2 01       		.byte	0x1
 2765 0ee3 2E       		.byte	0x2e
 2766 0ee4 9C0B0000 		.4byte	0xb9c
 2767 0ee8 02       		.uleb128 0x2
 2768 0ee9 91       		.byte	0x91
 2769 0eea 40       		.sleb128 -64
 2770 0eeb 30       		.uleb128 0x30
 2771 0eec 6C656E00 		.ascii	"len\000"
 2772 0ef0 01       		.byte	0x1
 2773 0ef1 2F       		.byte	0x2f
 2774 0ef2 EC080000 		.4byte	0x8ec
 2775 0ef6 3E020000 		.4byte	.LLST23
 2776 0efa 2F       		.uleb128 0x2f
 2777 0efb 97090000 		.4byte	.LASF177
 2778 0eff 01       		.byte	0x1
 2779 0f00 30       		.byte	0x30
 2780 0f01 BF0A0000 		.4byte	0xabf
 2781 0f05 03       		.uleb128 0x3
 2782 0f06 91       		.byte	0x91
 2783 0f07 BF7F     		.sleb128 -65
 2784 0f09 2A       		.uleb128 0x2a
 2785 0f0a A9050000 		.4byte	.LASF178
 2786 0f0e 01       		.byte	0x1
 2787 0f0f 32       		.byte	0x32
 2788 0f10 47010000 		.4byte	0x147
 2789 0f14 9D020000 		.4byte	.LLST24
ARM GAS  /var/folders/d2/nstgp4h54kz7g1l847x_b8wc0000gn/T//cchv4K2w.s 			page 50


 2790 0f18 37       		.uleb128 0x37
 2791 0f19 D20B0000 		.4byte	0xbd2
 2792 0f1d 18000000 		.4byte	.LBB22
 2793 0f21 00000000 		.4byte	.Ldebug_ranges0+0
 2794 0f25 01       		.byte	0x1
 2795 0f26 38       		.byte	0x38
 2796 0f27 5D0F0000 		.4byte	0xf5d
 2797 0f2b 32       		.uleb128 0x32
 2798 0f2c E20B0000 		.4byte	0xbe2
 2799 0f30 C6020000 		.4byte	.LLST25
 2800 0f34 38       		.uleb128 0x38
 2801 0f35 00000000 		.4byte	.Ldebug_ranges0+0
 2802 0f39 34       		.uleb128 0x34
 2803 0f3a EB0B0000 		.4byte	0xbeb
 2804 0f3e E4020000 		.4byte	.LLST26
 2805 0f42 34       		.uleb128 0x34
 2806 0f43 F60B0000 		.4byte	0xbf6
 2807 0f47 23030000 		.4byte	.LLST27
 2808 0f4b 35       		.uleb128 0x35
 2809 0f4c 32000000 		.4byte	.LVL57
 2810 0f50 270D0000 		.4byte	0xd27
 2811 0f54 2C       		.uleb128 0x2c
 2812 0f55 01       		.uleb128 0x1
 2813 0f56 50       		.byte	0x50
 2814 0f57 02       		.uleb128 0x2
 2815 0f58 74       		.byte	0x74
 2816 0f59 00       		.sleb128 0
 2817 0f5a 00       		.byte	0
 2818 0f5b 00       		.byte	0
 2819 0f5c 00       		.byte	0
 2820 0f5d 31       		.uleb128 0x31
 2821 0f5e A70B0000 		.4byte	0xba7
 2822 0f62 44000000 		.4byte	.LBB28
 2823 0f66 0C000000 		.4byte	.LBE28-.LBB28
 2824 0f6a 01       		.byte	0x1
 2825 0f6b 3D       		.byte	0x3d
 2826 0f6c 990F0000 		.4byte	0xf99
 2827 0f70 39       		.uleb128 0x39
 2828 0f71 B70B0000 		.4byte	0xbb7
 2829 0f75 33       		.uleb128 0x33
 2830 0f76 44000000 		.4byte	.LBB29
 2831 0f7a 0C000000 		.4byte	.LBE29-.LBB29
 2832 0f7e 34       		.uleb128 0x34
 2833 0f7f C00B0000 		.4byte	0xbc0
 2834 0f83 42030000 		.4byte	.LLST28
 2835 0f87 35       		.uleb128 0x35
 2836 0f88 4C000000 		.4byte	.LVL61
 2837 0f8c 270D0000 		.4byte	0xd27
 2838 0f90 2C       		.uleb128 0x2c
 2839 0f91 01       		.uleb128 0x1
 2840 0f92 50       		.byte	0x50
 2841 0f93 02       		.uleb128 0x2
 2842 0f94 74       		.byte	0x74
 2843 0f95 00       		.sleb128 0
 2844 0f96 00       		.byte	0
 2845 0f97 00       		.byte	0
 2846 0f98 00       		.byte	0
ARM GAS  /var/folders/d2/nstgp4h54kz7g1l847x_b8wc0000gn/T//cchv4K2w.s 			page 51


 2847 0f99 2D       		.uleb128 0x2d
 2848 0f9a 22000000 		.4byte	.LVL53
 2849 0f9e 99120000 		.4byte	0x1299
 2850 0fa2 2B       		.uleb128 0x2b
 2851 0fa3 66000000 		.4byte	.LVL66
 2852 0fa7 A4120000 		.4byte	0x12a4
 2853 0fab C20F0000 		.4byte	0xfc2
 2854 0faf 2C       		.uleb128 0x2c
 2855 0fb0 01       		.uleb128 0x1
 2856 0fb1 50       		.byte	0x50
 2857 0fb2 02       		.uleb128 0x2
 2858 0fb3 91       		.byte	0x91
 2859 0fb4 4C       		.sleb128 -52
 2860 0fb5 2C       		.uleb128 0x2c
 2861 0fb6 01       		.uleb128 0x1
 2862 0fb7 51       		.byte	0x51
 2863 0fb8 02       		.uleb128 0x2
 2864 0fb9 91       		.byte	0x91
 2865 0fba 40       		.sleb128 -64
 2866 0fbb 2C       		.uleb128 0x2c
 2867 0fbc 01       		.uleb128 0x1
 2868 0fbd 52       		.byte	0x52
 2869 0fbe 02       		.uleb128 0x2
 2870 0fbf 74       		.byte	0x74
 2871 0fc0 0C       		.sleb128 12
 2872 0fc1 00       		.byte	0
 2873 0fc2 2B       		.uleb128 0x2b
 2874 0fc3 78000000 		.4byte	.LVL67
 2875 0fc7 AF120000 		.4byte	0x12af
 2876 0fcb EC0F0000 		.4byte	0xfec
 2877 0fcf 2C       		.uleb128 0x2c
 2878 0fd0 01       		.uleb128 0x1
 2879 0fd1 50       		.byte	0x50
 2880 0fd2 02       		.uleb128 0x2
 2881 0fd3 78       		.byte	0x78
 2882 0fd4 00       		.sleb128 0
 2883 0fd5 2C       		.uleb128 0x2c
 2884 0fd6 01       		.uleb128 0x1
 2885 0fd7 51       		.byte	0x51
 2886 0fd8 02       		.uleb128 0x2
 2887 0fd9 91       		.byte	0x91
 2888 0fda 4C       		.sleb128 -52
 2889 0fdb 2C       		.uleb128 0x2c
 2890 0fdc 01       		.uleb128 0x1
 2891 0fdd 52       		.byte	0x52
 2892 0fde 05       		.uleb128 0x5
 2893 0fdf 03       		.byte	0x3
 2894 0fe0 00000000 		.4byte	err_mark_false
 2895 0fe4 2C       		.uleb128 0x2c
 2896 0fe5 01       		.uleb128 0x1
 2897 0fe6 53       		.byte	0x53
 2898 0fe7 03       		.uleb128 0x3
 2899 0fe8 91       		.byte	0x91
 2900 0fe9 BF7F     		.sleb128 -65
 2901 0feb 00       		.byte	0
 2902 0fec 2B       		.uleb128 0x2b
 2903 0fed 84000000 		.4byte	.LVL68
ARM GAS  /var/folders/d2/nstgp4h54kz7g1l847x_b8wc0000gn/T//cchv4K2w.s 			page 52


 2904 0ff1 BA120000 		.4byte	0x12ba
 2905 0ff5 00100000 		.4byte	0x1000
 2906 0ff9 2C       		.uleb128 0x2c
 2907 0ffa 01       		.uleb128 0x1
 2908 0ffb 50       		.byte	0x50
 2909 0ffc 02       		.uleb128 0x2
 2910 0ffd 91       		.byte	0x91
 2911 0ffe 40       		.sleb128 -64
 2912 0fff 00       		.byte	0
 2913 1000 2B       		.uleb128 0x2b
 2914 1001 8C000000 		.4byte	.LVL70
 2915 1005 2F0C0000 		.4byte	0xc2f
 2916 1009 14100000 		.4byte	0x1014
 2917 100d 2C       		.uleb128 0x2c
 2918 100e 01       		.uleb128 0x1
 2919 100f 50       		.byte	0x50
 2920 1010 02       		.uleb128 0x2
 2921 1011 74       		.byte	0x74
 2922 1012 00       		.sleb128 0
 2923 1013 00       		.byte	0
 2924 1014 2D       		.uleb128 0x2d
 2925 1015 90000000 		.4byte	.LVL71
 2926 1019 C5120000 		.4byte	0x12c5
 2927 101d 2B       		.uleb128 0x2b
 2928 101e A4000000 		.4byte	.LVL73
 2929 1022 D0120000 		.4byte	0x12d0
 2930 1026 31100000 		.4byte	0x1031
 2931 102a 2C       		.uleb128 0x2c
 2932 102b 01       		.uleb128 0x1
 2933 102c 50       		.byte	0x50
 2934 102d 02       		.uleb128 0x2
 2935 102e 75       		.byte	0x75
 2936 102f 00       		.sleb128 0
 2937 1030 00       		.byte	0
 2938 1031 2B       		.uleb128 0x2b
 2939 1032 B0000000 		.4byte	.LVL75
 2940 1036 D0120000 		.4byte	0x12d0
 2941 103a 45100000 		.4byte	0x1045
 2942 103e 2C       		.uleb128 0x2c
 2943 103f 01       		.uleb128 0x1
 2944 1040 50       		.byte	0x50
 2945 1041 02       		.uleb128 0x2
 2946 1042 75       		.byte	0x75
 2947 1043 00       		.sleb128 0
 2948 1044 00       		.byte	0
 2949 1045 2D       		.uleb128 0x2d
 2950 1046 B4000000 		.4byte	.LVL76
 2951 104a C5120000 		.4byte	0x12c5
 2952 104e 2B       		.uleb128 0x2b
 2953 104f BE000000 		.4byte	.LVL77
 2954 1053 8E0E0000 		.4byte	0xe8e
 2955 1057 6E100000 		.4byte	0x106e
 2956 105b 2C       		.uleb128 0x2c
 2957 105c 01       		.uleb128 0x1
 2958 105d 50       		.byte	0x50
 2959 105e 02       		.uleb128 0x2
 2960 105f 75       		.byte	0x75
ARM GAS  /var/folders/d2/nstgp4h54kz7g1l847x_b8wc0000gn/T//cchv4K2w.s 			page 53


 2961 1060 00       		.sleb128 0
 2962 1061 2C       		.uleb128 0x2c
 2963 1062 01       		.uleb128 0x1
 2964 1063 51       		.byte	0x51
 2965 1064 02       		.uleb128 0x2
 2966 1065 77       		.byte	0x77
 2967 1066 00       		.sleb128 0
 2968 1067 2C       		.uleb128 0x2c
 2969 1068 01       		.uleb128 0x1
 2970 1069 52       		.byte	0x52
 2971 106a 02       		.uleb128 0x2
 2972 106b 78       		.byte	0x78
 2973 106c 00       		.sleb128 0
 2974 106d 00       		.byte	0
 2975 106e 2B       		.uleb128 0x2b
 2976 106f C6000000 		.4byte	.LVL79
 2977 1073 D0120000 		.4byte	0x12d0
 2978 1077 82100000 		.4byte	0x1082
 2979 107b 2C       		.uleb128 0x2c
 2980 107c 01       		.uleb128 0x1
 2981 107d 50       		.byte	0x50
 2982 107e 02       		.uleb128 0x2
 2983 107f 75       		.byte	0x75
 2984 1080 00       		.sleb128 0
 2985 1081 00       		.byte	0
 2986 1082 2D       		.uleb128 0x2d
 2987 1083 CC000000 		.4byte	.LVL81
 2988 1087 85120000 		.4byte	0x1285
 2989 108b 00       		.byte	0
 2990 108c 3A       		.uleb128 0x3a
 2991 108d 5F020000 		.4byte	.LASF193
 2992 1091 01       		.byte	0x1
 2993 1092 22       		.byte	0x22
 2994 1093 00000000 		.4byte	.LFB2
 2995 1097 24000000 		.4byte	.LFE2-.LFB2
 2996 109b 01       		.uleb128 0x1
 2997 109c 9C       		.byte	0x9c
 2998 109d E4100000 		.4byte	0x10e4
 2999 10a1 28       		.uleb128 0x28
 3000 10a2 61726700 		.ascii	"arg\000"
 3001 10a6 01       		.byte	0x1
 3002 10a7 22       		.byte	0x22
 3003 10a8 47010000 		.4byte	0x147
 3004 10ac 66030000 		.4byte	.LLST0
 3005 10b0 28       		.uleb128 0x28
 3006 10b1 696400   		.ascii	"id\000"
 3007 10b4 01       		.byte	0x1
 3008 10b5 22       		.byte	0x22
 3009 10b6 C7050000 		.4byte	0x5c7
 3010 10ba 87030000 		.4byte	.LLST1
 3011 10be 28       		.uleb128 0x28
 3012 10bf 65727200 		.ascii	"err\000"
 3013 10c3 01       		.byte	0x1
 3014 10c4 22       		.byte	0x22
 3015 10c5 C7050000 		.4byte	0x5c7
 3016 10c9 A8030000 		.4byte	.LLST2
 3017 10cd 30       		.uleb128 0x30
ARM GAS  /var/folders/d2/nstgp4h54kz7g1l847x_b8wc0000gn/T//cchv4K2w.s 			page 54


 3018 10ce 6200     		.ascii	"b\000"
 3019 10d0 01       		.byte	0x1
 3020 10d1 27       		.byte	0x27
 3021 10d2 E4100000 		.4byte	0x10e4
 3022 10d6 C9030000 		.4byte	.LLST3
 3023 10da 2D       		.uleb128 0x2d
 3024 10db 20000000 		.4byte	.LVL3
 3025 10df 85120000 		.4byte	0x1285
 3026 10e3 00       		.byte	0
 3027 10e4 05       		.uleb128 0x5
 3028 10e5 04       		.byte	0x4
 3029 10e6 BF0A0000 		.4byte	0xabf
 3030 10ea 27       		.uleb128 0x27
 3031 10eb 84040000 		.4byte	.LASF179
 3032 10ef 01       		.byte	0x1
 3033 10f0 1B       		.byte	0x1b
 3034 10f1 00000000 		.4byte	.LFB1
 3035 10f5 30000000 		.4byte	.LFE1-.LFB1
 3036 10f9 01       		.uleb128 0x1
 3037 10fa 9C       		.byte	0x9c
 3038 10fb 3E110000 		.4byte	0x113e
 3039 10ff 28       		.uleb128 0x28
 3040 1100 64737400 		.ascii	"dst\000"
 3041 1104 01       		.byte	0x1
 3042 1105 1B       		.byte	0x1b
 3043 1106 47010000 		.4byte	0x147
 3044 110a EA030000 		.4byte	.LLST7
 3045 110e 2D       		.uleb128 0x2d
 3046 110f 10000000 		.4byte	.LVL13
 3047 1113 99120000 		.4byte	0x1299
 3048 1117 2B       		.uleb128 0x2b
 3049 1118 16000000 		.4byte	.LVL14
 3050 111c D0120000 		.4byte	0x12d0
 3051 1120 2B110000 		.4byte	0x112b
 3052 1124 2C       		.uleb128 0x2c
 3053 1125 01       		.uleb128 0x1
 3054 1126 50       		.byte	0x50
 3055 1127 02       		.uleb128 0x2
 3056 1128 75       		.byte	0x75
 3057 1129 00       		.sleb128 0
 3058 112a 00       		.byte	0
 3059 112b 3B       		.uleb128 0x3b
 3060 112c 28000000 		.4byte	.LVL16
 3061 1130 C5120000 		.4byte	0x12c5
 3062 1134 2D       		.uleb128 0x2d
 3063 1135 2C000000 		.4byte	.LVL17
 3064 1139 85120000 		.4byte	0x1285
 3065 113d 00       		.byte	0
 3066 113e 3C       		.uleb128 0x3c
 3067 113f 75070000 		.4byte	.LASF194
 3068 1143 01       		.byte	0x1
 3069 1144 0F       		.byte	0xf
 3070 1145 2C000000 		.4byte	0x2c
 3071 1149 00000000 		.4byte	.LFB0
 3072 114d 40000000 		.4byte	.LFE0-.LFB0
 3073 1151 01       		.uleb128 0x1
 3074 1152 9C       		.byte	0x9c
ARM GAS  /var/folders/d2/nstgp4h54kz7g1l847x_b8wc0000gn/T//cchv4K2w.s 			page 55


 3075 1153 AF110000 		.4byte	0x11af
 3076 1157 28       		.uleb128 0x28
 3077 1158 63747800 		.ascii	"ctx\000"
 3078 115c 01       		.byte	0x1
 3079 115d 0F       		.byte	0xf
 3080 115e F00A0000 		.4byte	0xaf0
 3081 1162 21040000 		.4byte	.LLST4
 3082 1166 36       		.uleb128 0x36
 3083 1167 91040000 		.4byte	.LASF180
 3084 116b 01       		.byte	0x1
 3085 116c 0F       		.byte	0xf
 3086 116d F7080000 		.4byte	0x8f7
 3087 1171 42040000 		.4byte	.LLST5
 3088 1175 28       		.uleb128 0x28
 3089 1176 6C656E00 		.ascii	"len\000"
 3090 117a 01       		.byte	0x1
 3091 117b 0F       		.byte	0xf
 3092 117c 2C000000 		.4byte	0x2c
 3093 1180 7C040000 		.4byte	.LLST6
 3094 1184 29       		.uleb128 0x29
 3095 1185 6D656D00 		.ascii	"mem\000"
 3096 1189 01       		.byte	0x1
 3097 118a 11       		.byte	0x11
 3098 118b AF110000 		.4byte	0x11af
 3099 118f 01       		.uleb128 0x1
 3100 1190 55       		.byte	0x55
 3101 1191 2B       		.uleb128 0x2b
 3102 1192 2E000000 		.4byte	.LVL9
 3103 1196 7A120000 		.4byte	0x127a
 3104 119a A5110000 		.4byte	0x11a5
 3105 119e 2C       		.uleb128 0x2c
 3106 119f 01       		.uleb128 0x1
 3107 11a0 52       		.byte	0x52
 3108 11a1 02       		.uleb128 0x2
 3109 11a2 74       		.byte	0x74
 3110 11a3 00       		.sleb128 0
 3111 11a4 00       		.byte	0
 3112 11a5 2D       		.uleb128 0x2d
 3113 11a6 3C000000 		.4byte	.LVL11
 3114 11aa 85120000 		.4byte	0x1285
 3115 11ae 00       		.byte	0
 3116 11af 05       		.uleb128 0x5
 3117 11b0 04       		.byte	0x4
 3118 11b1 9C0B0000 		.4byte	0xb9c
 3119 11b5 3D       		.uleb128 0x3d
 3120 11b6 020C0000 		.4byte	0xc02
 3121 11ba 00000000 		.4byte	.LFB7
 3122 11be 24000000 		.4byte	.LFE7-.LFB7
 3123 11c2 01       		.uleb128 0x1
 3124 11c3 9C       		.byte	0x9c
 3125 11c4 E0110000 		.4byte	0x11e0
 3126 11c8 32       		.uleb128 0x32
 3127 11c9 120C0000 		.4byte	0xc12
 3128 11cd C1040000 		.4byte	.LLST29
 3129 11d1 3E       		.uleb128 0x3e
 3130 11d2 1D0C0000 		.4byte	0xc1d
 3131 11d6 2D       		.uleb128 0x2d
ARM GAS  /var/folders/d2/nstgp4h54kz7g1l847x_b8wc0000gn/T//cchv4K2w.s 			page 56


 3132 11d7 1E000000 		.4byte	.LVL84
 3133 11db 85120000 		.4byte	0x1285
 3134 11df 00       		.byte	0
 3135 11e0 3D       		.uleb128 0x3d
 3136 11e1 D20B0000 		.4byte	0xbd2
 3137 11e5 00000000 		.4byte	.LFB8
 3138 11e9 38000000 		.4byte	.LFE8-.LFB8
 3139 11ed 01       		.uleb128 0x1
 3140 11ee 9C       		.byte	0x9c
 3141 11ef 2C120000 		.4byte	0x122c
 3142 11f3 32       		.uleb128 0x32
 3143 11f4 E20B0000 		.4byte	0xbe2
 3144 11f8 E2040000 		.4byte	.LLST30
 3145 11fc 34       		.uleb128 0x34
 3146 11fd EB0B0000 		.4byte	0xbeb
 3147 1201 03050000 		.4byte	.LLST31
 3148 1205 34       		.uleb128 0x34
 3149 1206 F60B0000 		.4byte	0xbf6
 3150 120a 42050000 		.4byte	.LLST32
 3151 120e 2B       		.uleb128 0x2b
 3152 120f 1E000000 		.4byte	.LVL90
 3153 1213 270D0000 		.4byte	0xd27
 3154 1217 22120000 		.4byte	0x1222
 3155 121b 2C       		.uleb128 0x2c
 3156 121c 01       		.uleb128 0x1
 3157 121d 50       		.byte	0x50
 3158 121e 02       		.uleb128 0x2
 3159 121f 74       		.byte	0x74
 3160 1220 00       		.sleb128 0
 3161 1221 00       		.byte	0
 3162 1222 2D       		.uleb128 0x2d
 3163 1223 34000000 		.4byte	.LVL92
 3164 1227 85120000 		.4byte	0x1285
 3165 122b 00       		.byte	0
 3166 122c 3D       		.uleb128 0x3d
 3167 122d A70B0000 		.4byte	0xba7
 3168 1231 00000000 		.4byte	.LFB9
 3169 1235 34000000 		.4byte	.LFE9-.LFB9
 3170 1239 01       		.uleb128 0x1
 3171 123a 9C       		.byte	0x9c
 3172 123b 6F120000 		.4byte	0x126f
 3173 123f 32       		.uleb128 0x32
 3174 1240 B70B0000 		.4byte	0xbb7
 3175 1244 61050000 		.4byte	.LLST33
 3176 1248 34       		.uleb128 0x34
 3177 1249 C00B0000 		.4byte	0xbc0
 3178 124d 82050000 		.4byte	.LLST34
 3179 1251 2B       		.uleb128 0x2b
 3180 1252 1A000000 		.4byte	.LVL97
 3181 1256 270D0000 		.4byte	0xd27
 3182 125a 65120000 		.4byte	0x1265
 3183 125e 2C       		.uleb128 0x2c
 3184 125f 01       		.uleb128 0x1
 3185 1260 50       		.byte	0x50
 3186 1261 02       		.uleb128 0x2
 3187 1262 74       		.byte	0x74
 3188 1263 00       		.sleb128 0
ARM GAS  /var/folders/d2/nstgp4h54kz7g1l847x_b8wc0000gn/T//cchv4K2w.s 			page 57


 3189 1264 00       		.byte	0
 3190 1265 2D       		.uleb128 0x2d
 3191 1266 30000000 		.4byte	.LVL99
 3192 126a 85120000 		.4byte	0x1285
 3193 126e 00       		.byte	0
 3194 126f 3F       		.uleb128 0x3f
 3195 1270 37000000 		.4byte	.LASF181
 3196 1274 37000000 		.4byte	.LASF181
 3197 1278 0C       		.byte	0xc
 3198 1279 0C       		.byte	0xc
 3199 127a 3F       		.uleb128 0x3f
 3200 127b 8B090000 		.4byte	.LASF182
 3201 127f 8B090000 		.4byte	.LASF182
 3202 1283 0D       		.byte	0xd
 3203 1284 0F       		.byte	0xf
 3204 1285 40       		.uleb128 0x40
 3205 1286 4F070000 		.4byte	.LASF195
 3206 128a 4F070000 		.4byte	.LASF195
 3207 128e 3F       		.uleb128 0x3f
 3208 128f 37050000 		.4byte	.LASF183
 3209 1293 37050000 		.4byte	.LASF183
 3210 1297 0E       		.byte	0xe
 3211 1298 13       		.byte	0x13
 3212 1299 3F       		.uleb128 0x3f
 3213 129a AE040000 		.4byte	.LASF184
 3214 129e AE040000 		.4byte	.LASF184
 3215 12a2 0D       		.byte	0xd
 3216 12a3 0B       		.byte	0xb
 3217 12a4 3F       		.uleb128 0x3f
 3218 12a5 87080000 		.4byte	.LASF185
 3219 12a9 87080000 		.4byte	.LASF185
 3220 12ad 0B       		.byte	0xb
 3221 12ae 18       		.byte	0x18
 3222 12af 3F       		.uleb128 0x3f
 3223 12b0 B7080000 		.4byte	.LASF186
 3224 12b4 B7080000 		.4byte	.LASF186
 3225 12b8 0E       		.byte	0xe
 3226 12b9 1A       		.byte	0x1a
 3227 12ba 3F       		.uleb128 0x3f
 3228 12bb 84020000 		.4byte	.LASF187
 3229 12bf 84020000 		.4byte	.LASF187
 3230 12c3 0B       		.byte	0xb
 3231 12c4 1F       		.byte	0x1f
 3232 12c5 3F       		.uleb128 0x3f
 3233 12c6 71050000 		.4byte	.LASF188
 3234 12ca 71050000 		.4byte	.LASF188
 3235 12ce 0D       		.byte	0xd
 3236 12cf 0A       		.byte	0xa
 3237 12d0 3F       		.uleb128 0x3f
 3238 12d1 84060000 		.4byte	.LASF189
 3239 12d5 84060000 		.4byte	.LASF189
 3240 12d9 0D       		.byte	0xd
 3241 12da 15       		.byte	0x15
 3242 12db 00       		.byte	0
 3243              		.section	.debug_abbrev,"",%progbits
 3244              	.Ldebug_abbrev0:
 3245 0000 01       		.uleb128 0x1
ARM GAS  /var/folders/d2/nstgp4h54kz7g1l847x_b8wc0000gn/T//cchv4K2w.s 			page 58


 3246 0001 11       		.uleb128 0x11
 3247 0002 01       		.byte	0x1
 3248 0003 25       		.uleb128 0x25
 3249 0004 0E       		.uleb128 0xe
 3250 0005 13       		.uleb128 0x13
 3251 0006 0B       		.uleb128 0xb
 3252 0007 03       		.uleb128 0x3
 3253 0008 0E       		.uleb128 0xe
 3254 0009 1B       		.uleb128 0x1b
 3255 000a 0E       		.uleb128 0xe
 3256 000b 55       		.uleb128 0x55
 3257 000c 17       		.uleb128 0x17
 3258 000d 11       		.uleb128 0x11
 3259 000e 01       		.uleb128 0x1
 3260 000f 10       		.uleb128 0x10
 3261 0010 17       		.uleb128 0x17
 3262 0011 00       		.byte	0
 3263 0012 00       		.byte	0
 3264 0013 02       		.uleb128 0x2
 3265 0014 24       		.uleb128 0x24
 3266 0015 00       		.byte	0
 3267 0016 0B       		.uleb128 0xb
 3268 0017 0B       		.uleb128 0xb
 3269 0018 3E       		.uleb128 0x3e
 3270 0019 0B       		.uleb128 0xb
 3271 001a 03       		.uleb128 0x3
 3272 001b 08       		.uleb128 0x8
 3273 001c 00       		.byte	0
 3274 001d 00       		.byte	0
 3275 001e 03       		.uleb128 0x3
 3276 001f 16       		.uleb128 0x16
 3277 0020 00       		.byte	0
 3278 0021 03       		.uleb128 0x3
 3279 0022 0E       		.uleb128 0xe
 3280 0023 3A       		.uleb128 0x3a
 3281 0024 0B       		.uleb128 0xb
 3282 0025 3B       		.uleb128 0x3b
 3283 0026 0B       		.uleb128 0xb
 3284 0027 49       		.uleb128 0x49
 3285 0028 13       		.uleb128 0x13
 3286 0029 00       		.byte	0
 3287 002a 00       		.byte	0
 3288 002b 04       		.uleb128 0x4
 3289 002c 24       		.uleb128 0x24
 3290 002d 00       		.byte	0
 3291 002e 0B       		.uleb128 0xb
 3292 002f 0B       		.uleb128 0xb
 3293 0030 3E       		.uleb128 0x3e
 3294 0031 0B       		.uleb128 0xb
 3295 0032 03       		.uleb128 0x3
 3296 0033 0E       		.uleb128 0xe
 3297 0034 00       		.byte	0
 3298 0035 00       		.byte	0
 3299 0036 05       		.uleb128 0x5
 3300 0037 0F       		.uleb128 0xf
 3301 0038 00       		.byte	0
 3302 0039 0B       		.uleb128 0xb
ARM GAS  /var/folders/d2/nstgp4h54kz7g1l847x_b8wc0000gn/T//cchv4K2w.s 			page 59


 3303 003a 0B       		.uleb128 0xb
 3304 003b 49       		.uleb128 0x49
 3305 003c 13       		.uleb128 0x13
 3306 003d 00       		.byte	0
 3307 003e 00       		.byte	0
 3308 003f 06       		.uleb128 0x6
 3309 0040 13       		.uleb128 0x13
 3310 0041 00       		.byte	0
 3311 0042 03       		.uleb128 0x3
 3312 0043 0E       		.uleb128 0xe
 3313 0044 3C       		.uleb128 0x3c
 3314 0045 19       		.uleb128 0x19
 3315 0046 00       		.byte	0
 3316 0047 00       		.byte	0
 3317 0048 07       		.uleb128 0x7
 3318 0049 16       		.uleb128 0x16
 3319 004a 00       		.byte	0
 3320 004b 03       		.uleb128 0x3
 3321 004c 0E       		.uleb128 0xe
 3322 004d 3A       		.uleb128 0x3a
 3323 004e 0B       		.uleb128 0xb
 3324 004f 3B       		.uleb128 0x3b
 3325 0050 05       		.uleb128 0x5
 3326 0051 49       		.uleb128 0x49
 3327 0052 13       		.uleb128 0x13
 3328 0053 00       		.byte	0
 3329 0054 00       		.byte	0
 3330 0055 08       		.uleb128 0x8
 3331 0056 17       		.uleb128 0x17
 3332 0057 01       		.byte	0x1
 3333 0058 0B       		.uleb128 0xb
 3334 0059 0B       		.uleb128 0xb
 3335 005a 3A       		.uleb128 0x3a
 3336 005b 0B       		.uleb128 0xb
 3337 005c 3B       		.uleb128 0x3b
 3338 005d 0B       		.uleb128 0xb
 3339 005e 01       		.uleb128 0x1
 3340 005f 13       		.uleb128 0x13
 3341 0060 00       		.byte	0
 3342 0061 00       		.byte	0
 3343 0062 09       		.uleb128 0x9
 3344 0063 0D       		.uleb128 0xd
 3345 0064 00       		.byte	0
 3346 0065 03       		.uleb128 0x3
 3347 0066 0E       		.uleb128 0xe
 3348 0067 3A       		.uleb128 0x3a
 3349 0068 0B       		.uleb128 0xb
 3350 0069 3B       		.uleb128 0x3b
 3351 006a 0B       		.uleb128 0xb
 3352 006b 49       		.uleb128 0x49
 3353 006c 13       		.uleb128 0x13
 3354 006d 00       		.byte	0
 3355 006e 00       		.byte	0
 3356 006f 0A       		.uleb128 0xa
 3357 0070 01       		.uleb128 0x1
 3358 0071 01       		.byte	0x1
 3359 0072 49       		.uleb128 0x49
ARM GAS  /var/folders/d2/nstgp4h54kz7g1l847x_b8wc0000gn/T//cchv4K2w.s 			page 60


 3360 0073 13       		.uleb128 0x13
 3361 0074 01       		.uleb128 0x1
 3362 0075 13       		.uleb128 0x13
 3363 0076 00       		.byte	0
 3364 0077 00       		.byte	0
 3365 0078 0B       		.uleb128 0xb
 3366 0079 21       		.uleb128 0x21
 3367 007a 00       		.byte	0
 3368 007b 49       		.uleb128 0x49
 3369 007c 13       		.uleb128 0x13
 3370 007d 2F       		.uleb128 0x2f
 3371 007e 0B       		.uleb128 0xb
 3372 007f 00       		.byte	0
 3373 0080 00       		.byte	0
 3374 0081 0C       		.uleb128 0xc
 3375 0082 13       		.uleb128 0x13
 3376 0083 01       		.byte	0x1
 3377 0084 0B       		.uleb128 0xb
 3378 0085 0B       		.uleb128 0xb
 3379 0086 3A       		.uleb128 0x3a
 3380 0087 0B       		.uleb128 0xb
 3381 0088 3B       		.uleb128 0x3b
 3382 0089 0B       		.uleb128 0xb
 3383 008a 01       		.uleb128 0x1
 3384 008b 13       		.uleb128 0x13
 3385 008c 00       		.byte	0
 3386 008d 00       		.byte	0
 3387 008e 0D       		.uleb128 0xd
 3388 008f 0D       		.uleb128 0xd
 3389 0090 00       		.byte	0
 3390 0091 03       		.uleb128 0x3
 3391 0092 0E       		.uleb128 0xe
 3392 0093 3A       		.uleb128 0x3a
 3393 0094 0B       		.uleb128 0xb
 3394 0095 3B       		.uleb128 0x3b
 3395 0096 0B       		.uleb128 0xb
 3396 0097 49       		.uleb128 0x49
 3397 0098 13       		.uleb128 0x13
 3398 0099 38       		.uleb128 0x38
 3399 009a 0B       		.uleb128 0xb
 3400 009b 00       		.byte	0
 3401 009c 00       		.byte	0
 3402 009d 0E       		.uleb128 0xe
 3403 009e 0F       		.uleb128 0xf
 3404 009f 00       		.byte	0
 3405 00a0 0B       		.uleb128 0xb
 3406 00a1 0B       		.uleb128 0xb
 3407 00a2 00       		.byte	0
 3408 00a3 00       		.byte	0
 3409 00a4 0F       		.uleb128 0xf
 3410 00a5 26       		.uleb128 0x26
 3411 00a6 00       		.byte	0
 3412 00a7 49       		.uleb128 0x49
 3413 00a8 13       		.uleb128 0x13
 3414 00a9 00       		.byte	0
 3415 00aa 00       		.byte	0
 3416 00ab 10       		.uleb128 0x10
ARM GAS  /var/folders/d2/nstgp4h54kz7g1l847x_b8wc0000gn/T//cchv4K2w.s 			page 61


 3417 00ac 13       		.uleb128 0x13
 3418 00ad 01       		.byte	0x1
 3419 00ae 03       		.uleb128 0x3
 3420 00af 0E       		.uleb128 0xe
 3421 00b0 0B       		.uleb128 0xb
 3422 00b1 0B       		.uleb128 0xb
 3423 00b2 3A       		.uleb128 0x3a
 3424 00b3 0B       		.uleb128 0xb
 3425 00b4 3B       		.uleb128 0x3b
 3426 00b5 0B       		.uleb128 0xb
 3427 00b6 01       		.uleb128 0x1
 3428 00b7 13       		.uleb128 0x13
 3429 00b8 00       		.byte	0
 3430 00b9 00       		.byte	0
 3431 00ba 11       		.uleb128 0x11
 3432 00bb 0D       		.uleb128 0xd
 3433 00bc 00       		.byte	0
 3434 00bd 03       		.uleb128 0x3
 3435 00be 08       		.uleb128 0x8
 3436 00bf 3A       		.uleb128 0x3a
 3437 00c0 0B       		.uleb128 0xb
 3438 00c1 3B       		.uleb128 0x3b
 3439 00c2 0B       		.uleb128 0xb
 3440 00c3 49       		.uleb128 0x49
 3441 00c4 13       		.uleb128 0x13
 3442 00c5 38       		.uleb128 0x38
 3443 00c6 0B       		.uleb128 0xb
 3444 00c7 00       		.byte	0
 3445 00c8 00       		.byte	0
 3446 00c9 12       		.uleb128 0x12
 3447 00ca 13       		.uleb128 0x13
 3448 00cb 01       		.byte	0x1
 3449 00cc 03       		.uleb128 0x3
 3450 00cd 0E       		.uleb128 0xe
 3451 00ce 0B       		.uleb128 0xb
 3452 00cf 05       		.uleb128 0x5
 3453 00d0 3A       		.uleb128 0x3a
 3454 00d1 0B       		.uleb128 0xb
 3455 00d2 3B       		.uleb128 0x3b
 3456 00d3 0B       		.uleb128 0xb
 3457 00d4 01       		.uleb128 0x1
 3458 00d5 13       		.uleb128 0x13
 3459 00d6 00       		.byte	0
 3460 00d7 00       		.byte	0
 3461 00d8 13       		.uleb128 0x13
 3462 00d9 0D       		.uleb128 0xd
 3463 00da 00       		.byte	0
 3464 00db 03       		.uleb128 0x3
 3465 00dc 0E       		.uleb128 0xe
 3466 00dd 3A       		.uleb128 0x3a
 3467 00de 0B       		.uleb128 0xb
 3468 00df 3B       		.uleb128 0x3b
 3469 00e0 0B       		.uleb128 0xb
 3470 00e1 49       		.uleb128 0x49
 3471 00e2 13       		.uleb128 0x13
 3472 00e3 38       		.uleb128 0x38
 3473 00e4 05       		.uleb128 0x5
ARM GAS  /var/folders/d2/nstgp4h54kz7g1l847x_b8wc0000gn/T//cchv4K2w.s 			page 62


 3474 00e5 00       		.byte	0
 3475 00e6 00       		.byte	0
 3476 00e7 14       		.uleb128 0x14
 3477 00e8 15       		.uleb128 0x15
 3478 00e9 00       		.byte	0
 3479 00ea 27       		.uleb128 0x27
 3480 00eb 19       		.uleb128 0x19
 3481 00ec 00       		.byte	0
 3482 00ed 00       		.byte	0
 3483 00ee 15       		.uleb128 0x15
 3484 00ef 15       		.uleb128 0x15
 3485 00f0 01       		.byte	0x1
 3486 00f1 27       		.uleb128 0x27
 3487 00f2 19       		.uleb128 0x19
 3488 00f3 49       		.uleb128 0x49
 3489 00f4 13       		.uleb128 0x13
 3490 00f5 01       		.uleb128 0x1
 3491 00f6 13       		.uleb128 0x13
 3492 00f7 00       		.byte	0
 3493 00f8 00       		.byte	0
 3494 00f9 16       		.uleb128 0x16
 3495 00fa 05       		.uleb128 0x5
 3496 00fb 00       		.byte	0
 3497 00fc 49       		.uleb128 0x49
 3498 00fd 13       		.uleb128 0x13
 3499 00fe 00       		.byte	0
 3500 00ff 00       		.byte	0
 3501 0100 17       		.uleb128 0x17
 3502 0101 13       		.uleb128 0x13
 3503 0102 01       		.byte	0x1
 3504 0103 03       		.uleb128 0x3
 3505 0104 0E       		.uleb128 0xe
 3506 0105 0B       		.uleb128 0xb
 3507 0106 05       		.uleb128 0x5
 3508 0107 3A       		.uleb128 0x3a
 3509 0108 0B       		.uleb128 0xb
 3510 0109 3B       		.uleb128 0x3b
 3511 010a 05       		.uleb128 0x5
 3512 010b 01       		.uleb128 0x1
 3513 010c 13       		.uleb128 0x13
 3514 010d 00       		.byte	0
 3515 010e 00       		.byte	0
 3516 010f 18       		.uleb128 0x18
 3517 0110 0D       		.uleb128 0xd
 3518 0111 00       		.byte	0
 3519 0112 03       		.uleb128 0x3
 3520 0113 0E       		.uleb128 0xe
 3521 0114 3A       		.uleb128 0x3a
 3522 0115 0B       		.uleb128 0xb
 3523 0116 3B       		.uleb128 0x3b
 3524 0117 05       		.uleb128 0x5
 3525 0118 49       		.uleb128 0x49
 3526 0119 13       		.uleb128 0x13
 3527 011a 38       		.uleb128 0x38
 3528 011b 0B       		.uleb128 0xb
 3529 011c 00       		.byte	0
 3530 011d 00       		.byte	0
ARM GAS  /var/folders/d2/nstgp4h54kz7g1l847x_b8wc0000gn/T//cchv4K2w.s 			page 63


 3531 011e 19       		.uleb128 0x19
 3532 011f 0D       		.uleb128 0xd
 3533 0120 00       		.byte	0
 3534 0121 03       		.uleb128 0x3
 3535 0122 0E       		.uleb128 0xe
 3536 0123 3A       		.uleb128 0x3a
 3537 0124 0B       		.uleb128 0xb
 3538 0125 3B       		.uleb128 0x3b
 3539 0126 05       		.uleb128 0x5
 3540 0127 49       		.uleb128 0x49
 3541 0128 13       		.uleb128 0x13
 3542 0129 38       		.uleb128 0x38
 3543 012a 05       		.uleb128 0x5
 3544 012b 00       		.byte	0
 3545 012c 00       		.byte	0
 3546 012d 1A       		.uleb128 0x1a
 3547 012e 13       		.uleb128 0x13
 3548 012f 01       		.byte	0x1
 3549 0130 03       		.uleb128 0x3
 3550 0131 0E       		.uleb128 0xe
 3551 0132 0B       		.uleb128 0xb
 3552 0133 0B       		.uleb128 0xb
 3553 0134 3A       		.uleb128 0x3a
 3554 0135 0B       		.uleb128 0xb
 3555 0136 3B       		.uleb128 0x3b
 3556 0137 05       		.uleb128 0x5
 3557 0138 01       		.uleb128 0x1
 3558 0139 13       		.uleb128 0x13
 3559 013a 00       		.byte	0
 3560 013b 00       		.byte	0
 3561 013c 1B       		.uleb128 0x1b
 3562 013d 13       		.uleb128 0x13
 3563 013e 01       		.byte	0x1
 3564 013f 0B       		.uleb128 0xb
 3565 0140 0B       		.uleb128 0xb
 3566 0141 3A       		.uleb128 0x3a
 3567 0142 0B       		.uleb128 0xb
 3568 0143 3B       		.uleb128 0x3b
 3569 0144 05       		.uleb128 0x5
 3570 0145 01       		.uleb128 0x1
 3571 0146 13       		.uleb128 0x13
 3572 0147 00       		.byte	0
 3573 0148 00       		.byte	0
 3574 0149 1C       		.uleb128 0x1c
 3575 014a 17       		.uleb128 0x17
 3576 014b 01       		.byte	0x1
 3577 014c 0B       		.uleb128 0xb
 3578 014d 0B       		.uleb128 0xb
 3579 014e 3A       		.uleb128 0x3a
 3580 014f 0B       		.uleb128 0xb
 3581 0150 3B       		.uleb128 0x3b
 3582 0151 05       		.uleb128 0x5
 3583 0152 01       		.uleb128 0x1
 3584 0153 13       		.uleb128 0x13
 3585 0154 00       		.byte	0
 3586 0155 00       		.byte	0
 3587 0156 1D       		.uleb128 0x1d
ARM GAS  /var/folders/d2/nstgp4h54kz7g1l847x_b8wc0000gn/T//cchv4K2w.s 			page 64


 3588 0157 0D       		.uleb128 0xd
 3589 0158 00       		.byte	0
 3590 0159 03       		.uleb128 0x3
 3591 015a 0E       		.uleb128 0xe
 3592 015b 3A       		.uleb128 0x3a
 3593 015c 0B       		.uleb128 0xb
 3594 015d 3B       		.uleb128 0x3b
 3595 015e 05       		.uleb128 0x5
 3596 015f 49       		.uleb128 0x49
 3597 0160 13       		.uleb128 0x13
 3598 0161 00       		.byte	0
 3599 0162 00       		.byte	0
 3600 0163 1E       		.uleb128 0x1e
 3601 0164 15       		.uleb128 0x15
 3602 0165 01       		.byte	0x1
 3603 0166 27       		.uleb128 0x27
 3604 0167 19       		.uleb128 0x19
 3605 0168 01       		.uleb128 0x1
 3606 0169 13       		.uleb128 0x13
 3607 016a 00       		.byte	0
 3608 016b 00       		.byte	0
 3609 016c 1F       		.uleb128 0x1f
 3610 016d 34       		.uleb128 0x34
 3611 016e 00       		.byte	0
 3612 016f 03       		.uleb128 0x3
 3613 0170 0E       		.uleb128 0xe
 3614 0171 3A       		.uleb128 0x3a
 3615 0172 0B       		.uleb128 0xb
 3616 0173 3B       		.uleb128 0x3b
 3617 0174 05       		.uleb128 0x5
 3618 0175 49       		.uleb128 0x49
 3619 0176 13       		.uleb128 0x13
 3620 0177 3F       		.uleb128 0x3f
 3621 0178 19       		.uleb128 0x19
 3622 0179 3C       		.uleb128 0x3c
 3623 017a 19       		.uleb128 0x19
 3624 017b 00       		.byte	0
 3625 017c 00       		.byte	0
 3626 017d 20       		.uleb128 0x20
 3627 017e 26       		.uleb128 0x26
 3628 017f 00       		.byte	0
 3629 0180 00       		.byte	0
 3630 0181 00       		.byte	0
 3631 0182 21       		.uleb128 0x21
 3632 0183 34       		.uleb128 0x34
 3633 0184 00       		.byte	0
 3634 0185 03       		.uleb128 0x3
 3635 0186 0E       		.uleb128 0xe
 3636 0187 3A       		.uleb128 0x3a
 3637 0188 0B       		.uleb128 0xb
 3638 0189 3B       		.uleb128 0x3b
 3639 018a 0B       		.uleb128 0xb
 3640 018b 49       		.uleb128 0x49
 3641 018c 13       		.uleb128 0x13
 3642 018d 3F       		.uleb128 0x3f
 3643 018e 19       		.uleb128 0x19
 3644 018f 3C       		.uleb128 0x3c
ARM GAS  /var/folders/d2/nstgp4h54kz7g1l847x_b8wc0000gn/T//cchv4K2w.s 			page 65


 3645 0190 19       		.uleb128 0x19
 3646 0191 00       		.byte	0
 3647 0192 00       		.byte	0
 3648 0193 22       		.uleb128 0x22
 3649 0194 0D       		.uleb128 0xd
 3650 0195 00       		.byte	0
 3651 0196 03       		.uleb128 0x3
 3652 0197 08       		.uleb128 0x8
 3653 0198 3A       		.uleb128 0x3a
 3654 0199 0B       		.uleb128 0xb
 3655 019a 3B       		.uleb128 0x3b
 3656 019b 0B       		.uleb128 0xb
 3657 019c 49       		.uleb128 0x49
 3658 019d 13       		.uleb128 0x13
 3659 019e 00       		.byte	0
 3660 019f 00       		.byte	0
 3661 01a0 23       		.uleb128 0x23
 3662 01a1 2E       		.uleb128 0x2e
 3663 01a2 01       		.byte	0x1
 3664 01a3 3F       		.uleb128 0x3f
 3665 01a4 19       		.uleb128 0x19
 3666 01a5 03       		.uleb128 0x3
 3667 01a6 0E       		.uleb128 0xe
 3668 01a7 3A       		.uleb128 0x3a
 3669 01a8 0B       		.uleb128 0xb
 3670 01a9 3B       		.uleb128 0x3b
 3671 01aa 0B       		.uleb128 0xb
 3672 01ab 27       		.uleb128 0x27
 3673 01ac 19       		.uleb128 0x19
 3674 01ad 49       		.uleb128 0x49
 3675 01ae 13       		.uleb128 0x13
 3676 01af 20       		.uleb128 0x20
 3677 01b0 0B       		.uleb128 0xb
 3678 01b1 01       		.uleb128 0x1
 3679 01b2 13       		.uleb128 0x13
 3680 01b3 00       		.byte	0
 3681 01b4 00       		.byte	0
 3682 01b5 24       		.uleb128 0x24
 3683 01b6 05       		.uleb128 0x5
 3684 01b7 00       		.byte	0
 3685 01b8 03       		.uleb128 0x3
 3686 01b9 08       		.uleb128 0x8
 3687 01ba 3A       		.uleb128 0x3a
 3688 01bb 0B       		.uleb128 0xb
 3689 01bc 3B       		.uleb128 0x3b
 3690 01bd 0B       		.uleb128 0xb
 3691 01be 49       		.uleb128 0x49
 3692 01bf 13       		.uleb128 0x13
 3693 01c0 00       		.byte	0
 3694 01c1 00       		.byte	0
 3695 01c2 25       		.uleb128 0x25
 3696 01c3 34       		.uleb128 0x34
 3697 01c4 00       		.byte	0
 3698 01c5 03       		.uleb128 0x3
 3699 01c6 0E       		.uleb128 0xe
 3700 01c7 3A       		.uleb128 0x3a
 3701 01c8 0B       		.uleb128 0xb
ARM GAS  /var/folders/d2/nstgp4h54kz7g1l847x_b8wc0000gn/T//cchv4K2w.s 			page 66


 3702 01c9 3B       		.uleb128 0x3b
 3703 01ca 0B       		.uleb128 0xb
 3704 01cb 49       		.uleb128 0x49
 3705 01cc 13       		.uleb128 0x13
 3706 01cd 00       		.byte	0
 3707 01ce 00       		.byte	0
 3708 01cf 26       		.uleb128 0x26
 3709 01d0 05       		.uleb128 0x5
 3710 01d1 00       		.byte	0
 3711 01d2 03       		.uleb128 0x3
 3712 01d3 0E       		.uleb128 0xe
 3713 01d4 3A       		.uleb128 0x3a
 3714 01d5 0B       		.uleb128 0xb
 3715 01d6 3B       		.uleb128 0x3b
 3716 01d7 0B       		.uleb128 0xb
 3717 01d8 49       		.uleb128 0x49
 3718 01d9 13       		.uleb128 0x13
 3719 01da 00       		.byte	0
 3720 01db 00       		.byte	0
 3721 01dc 27       		.uleb128 0x27
 3722 01dd 2E       		.uleb128 0x2e
 3723 01de 01       		.byte	0x1
 3724 01df 3F       		.uleb128 0x3f
 3725 01e0 19       		.uleb128 0x19
 3726 01e1 03       		.uleb128 0x3
 3727 01e2 0E       		.uleb128 0xe
 3728 01e3 3A       		.uleb128 0x3a
 3729 01e4 0B       		.uleb128 0xb
 3730 01e5 3B       		.uleb128 0x3b
 3731 01e6 0B       		.uleb128 0xb
 3732 01e7 27       		.uleb128 0x27
 3733 01e8 19       		.uleb128 0x19
 3734 01e9 11       		.uleb128 0x11
 3735 01ea 01       		.uleb128 0x1
 3736 01eb 12       		.uleb128 0x12
 3737 01ec 06       		.uleb128 0x6
 3738 01ed 40       		.uleb128 0x40
 3739 01ee 18       		.uleb128 0x18
 3740 01ef 9742     		.uleb128 0x2117
 3741 01f1 19       		.uleb128 0x19
 3742 01f2 01       		.uleb128 0x1
 3743 01f3 13       		.uleb128 0x13
 3744 01f4 00       		.byte	0
 3745 01f5 00       		.byte	0
 3746 01f6 28       		.uleb128 0x28
 3747 01f7 05       		.uleb128 0x5
 3748 01f8 00       		.byte	0
 3749 01f9 03       		.uleb128 0x3
 3750 01fa 08       		.uleb128 0x8
 3751 01fb 3A       		.uleb128 0x3a
 3752 01fc 0B       		.uleb128 0xb
 3753 01fd 3B       		.uleb128 0x3b
 3754 01fe 0B       		.uleb128 0xb
 3755 01ff 49       		.uleb128 0x49
 3756 0200 13       		.uleb128 0x13
 3757 0201 02       		.uleb128 0x2
 3758 0202 17       		.uleb128 0x17
ARM GAS  /var/folders/d2/nstgp4h54kz7g1l847x_b8wc0000gn/T//cchv4K2w.s 			page 67


 3759 0203 00       		.byte	0
 3760 0204 00       		.byte	0
 3761 0205 29       		.uleb128 0x29
 3762 0206 34       		.uleb128 0x34
 3763 0207 00       		.byte	0
 3764 0208 03       		.uleb128 0x3
 3765 0209 08       		.uleb128 0x8
 3766 020a 3A       		.uleb128 0x3a
 3767 020b 0B       		.uleb128 0xb
 3768 020c 3B       		.uleb128 0x3b
 3769 020d 0B       		.uleb128 0xb
 3770 020e 49       		.uleb128 0x49
 3771 020f 13       		.uleb128 0x13
 3772 0210 02       		.uleb128 0x2
 3773 0211 18       		.uleb128 0x18
 3774 0212 00       		.byte	0
 3775 0213 00       		.byte	0
 3776 0214 2A       		.uleb128 0x2a
 3777 0215 34       		.uleb128 0x34
 3778 0216 00       		.byte	0
 3779 0217 03       		.uleb128 0x3
 3780 0218 0E       		.uleb128 0xe
 3781 0219 3A       		.uleb128 0x3a
 3782 021a 0B       		.uleb128 0xb
 3783 021b 3B       		.uleb128 0x3b
 3784 021c 0B       		.uleb128 0xb
 3785 021d 49       		.uleb128 0x49
 3786 021e 13       		.uleb128 0x13
 3787 021f 02       		.uleb128 0x2
 3788 0220 17       		.uleb128 0x17
 3789 0221 00       		.byte	0
 3790 0222 00       		.byte	0
 3791 0223 2B       		.uleb128 0x2b
 3792 0224 898201   		.uleb128 0x4109
 3793 0227 01       		.byte	0x1
 3794 0228 11       		.uleb128 0x11
 3795 0229 01       		.uleb128 0x1
 3796 022a 31       		.uleb128 0x31
 3797 022b 13       		.uleb128 0x13
 3798 022c 01       		.uleb128 0x1
 3799 022d 13       		.uleb128 0x13
 3800 022e 00       		.byte	0
 3801 022f 00       		.byte	0
 3802 0230 2C       		.uleb128 0x2c
 3803 0231 8A8201   		.uleb128 0x410a
 3804 0234 00       		.byte	0
 3805 0235 02       		.uleb128 0x2
 3806 0236 18       		.uleb128 0x18
 3807 0237 9142     		.uleb128 0x2111
 3808 0239 18       		.uleb128 0x18
 3809 023a 00       		.byte	0
 3810 023b 00       		.byte	0
 3811 023c 2D       		.uleb128 0x2d
 3812 023d 898201   		.uleb128 0x4109
 3813 0240 00       		.byte	0
 3814 0241 11       		.uleb128 0x11
 3815 0242 01       		.uleb128 0x1
ARM GAS  /var/folders/d2/nstgp4h54kz7g1l847x_b8wc0000gn/T//cchv4K2w.s 			page 68


 3816 0243 31       		.uleb128 0x31
 3817 0244 13       		.uleb128 0x13
 3818 0245 00       		.byte	0
 3819 0246 00       		.byte	0
 3820 0247 2E       		.uleb128 0x2e
 3821 0248 2E       		.uleb128 0x2e
 3822 0249 01       		.byte	0x1
 3823 024a 3F       		.uleb128 0x3f
 3824 024b 19       		.uleb128 0x19
 3825 024c 03       		.uleb128 0x3
 3826 024d 0E       		.uleb128 0xe
 3827 024e 3A       		.uleb128 0x3a
 3828 024f 0B       		.uleb128 0xb
 3829 0250 3B       		.uleb128 0x3b
 3830 0251 0B       		.uleb128 0xb
 3831 0252 27       		.uleb128 0x27
 3832 0253 19       		.uleb128 0x19
 3833 0254 49       		.uleb128 0x49
 3834 0255 13       		.uleb128 0x13
 3835 0256 11       		.uleb128 0x11
 3836 0257 01       		.uleb128 0x1
 3837 0258 12       		.uleb128 0x12
 3838 0259 06       		.uleb128 0x6
 3839 025a 40       		.uleb128 0x40
 3840 025b 18       		.uleb128 0x18
 3841 025c 9742     		.uleb128 0x2117
 3842 025e 19       		.uleb128 0x19
 3843 025f 01       		.uleb128 0x1
 3844 0260 13       		.uleb128 0x13
 3845 0261 00       		.byte	0
 3846 0262 00       		.byte	0
 3847 0263 2F       		.uleb128 0x2f
 3848 0264 34       		.uleb128 0x34
 3849 0265 00       		.byte	0
 3850 0266 03       		.uleb128 0x3
 3851 0267 0E       		.uleb128 0xe
 3852 0268 3A       		.uleb128 0x3a
 3853 0269 0B       		.uleb128 0xb
 3854 026a 3B       		.uleb128 0x3b
 3855 026b 0B       		.uleb128 0xb
 3856 026c 49       		.uleb128 0x49
 3857 026d 13       		.uleb128 0x13
 3858 026e 02       		.uleb128 0x2
 3859 026f 18       		.uleb128 0x18
 3860 0270 00       		.byte	0
 3861 0271 00       		.byte	0
 3862 0272 30       		.uleb128 0x30
 3863 0273 34       		.uleb128 0x34
 3864 0274 00       		.byte	0
 3865 0275 03       		.uleb128 0x3
 3866 0276 08       		.uleb128 0x8
 3867 0277 3A       		.uleb128 0x3a
 3868 0278 0B       		.uleb128 0xb
 3869 0279 3B       		.uleb128 0x3b
 3870 027a 0B       		.uleb128 0xb
 3871 027b 49       		.uleb128 0x49
 3872 027c 13       		.uleb128 0x13
ARM GAS  /var/folders/d2/nstgp4h54kz7g1l847x_b8wc0000gn/T//cchv4K2w.s 			page 69


 3873 027d 02       		.uleb128 0x2
 3874 027e 17       		.uleb128 0x17
 3875 027f 00       		.byte	0
 3876 0280 00       		.byte	0
 3877 0281 31       		.uleb128 0x31
 3878 0282 1D       		.uleb128 0x1d
 3879 0283 01       		.byte	0x1
 3880 0284 31       		.uleb128 0x31
 3881 0285 13       		.uleb128 0x13
 3882 0286 11       		.uleb128 0x11
 3883 0287 01       		.uleb128 0x1
 3884 0288 12       		.uleb128 0x12
 3885 0289 06       		.uleb128 0x6
 3886 028a 58       		.uleb128 0x58
 3887 028b 0B       		.uleb128 0xb
 3888 028c 59       		.uleb128 0x59
 3889 028d 0B       		.uleb128 0xb
 3890 028e 01       		.uleb128 0x1
 3891 028f 13       		.uleb128 0x13
 3892 0290 00       		.byte	0
 3893 0291 00       		.byte	0
 3894 0292 32       		.uleb128 0x32
 3895 0293 05       		.uleb128 0x5
 3896 0294 00       		.byte	0
 3897 0295 31       		.uleb128 0x31
 3898 0296 13       		.uleb128 0x13
 3899 0297 02       		.uleb128 0x2
 3900 0298 17       		.uleb128 0x17
 3901 0299 00       		.byte	0
 3902 029a 00       		.byte	0
 3903 029b 33       		.uleb128 0x33
 3904 029c 0B       		.uleb128 0xb
 3905 029d 01       		.byte	0x1
 3906 029e 11       		.uleb128 0x11
 3907 029f 01       		.uleb128 0x1
 3908 02a0 12       		.uleb128 0x12
 3909 02a1 06       		.uleb128 0x6
 3910 02a2 00       		.byte	0
 3911 02a3 00       		.byte	0
 3912 02a4 34       		.uleb128 0x34
 3913 02a5 34       		.uleb128 0x34
 3914 02a6 00       		.byte	0
 3915 02a7 31       		.uleb128 0x31
 3916 02a8 13       		.uleb128 0x13
 3917 02a9 02       		.uleb128 0x2
 3918 02aa 17       		.uleb128 0x17
 3919 02ab 00       		.byte	0
 3920 02ac 00       		.byte	0
 3921 02ad 35       		.uleb128 0x35
 3922 02ae 898201   		.uleb128 0x4109
 3923 02b1 01       		.byte	0x1
 3924 02b2 11       		.uleb128 0x11
 3925 02b3 01       		.uleb128 0x1
 3926 02b4 31       		.uleb128 0x31
 3927 02b5 13       		.uleb128 0x13
 3928 02b6 00       		.byte	0
 3929 02b7 00       		.byte	0
ARM GAS  /var/folders/d2/nstgp4h54kz7g1l847x_b8wc0000gn/T//cchv4K2w.s 			page 70


 3930 02b8 36       		.uleb128 0x36
 3931 02b9 05       		.uleb128 0x5
 3932 02ba 00       		.byte	0
 3933 02bb 03       		.uleb128 0x3
 3934 02bc 0E       		.uleb128 0xe
 3935 02bd 3A       		.uleb128 0x3a
 3936 02be 0B       		.uleb128 0xb
 3937 02bf 3B       		.uleb128 0x3b
 3938 02c0 0B       		.uleb128 0xb
 3939 02c1 49       		.uleb128 0x49
 3940 02c2 13       		.uleb128 0x13
 3941 02c3 02       		.uleb128 0x2
 3942 02c4 17       		.uleb128 0x17
 3943 02c5 00       		.byte	0
 3944 02c6 00       		.byte	0
 3945 02c7 37       		.uleb128 0x37
 3946 02c8 1D       		.uleb128 0x1d
 3947 02c9 01       		.byte	0x1
 3948 02ca 31       		.uleb128 0x31
 3949 02cb 13       		.uleb128 0x13
 3950 02cc 52       		.uleb128 0x52
 3951 02cd 01       		.uleb128 0x1
 3952 02ce 55       		.uleb128 0x55
 3953 02cf 17       		.uleb128 0x17
 3954 02d0 58       		.uleb128 0x58
 3955 02d1 0B       		.uleb128 0xb
 3956 02d2 59       		.uleb128 0x59
 3957 02d3 0B       		.uleb128 0xb
 3958 02d4 01       		.uleb128 0x1
 3959 02d5 13       		.uleb128 0x13
 3960 02d6 00       		.byte	0
 3961 02d7 00       		.byte	0
 3962 02d8 38       		.uleb128 0x38
 3963 02d9 0B       		.uleb128 0xb
 3964 02da 01       		.byte	0x1
 3965 02db 55       		.uleb128 0x55
 3966 02dc 17       		.uleb128 0x17
 3967 02dd 00       		.byte	0
 3968 02de 00       		.byte	0
 3969 02df 39       		.uleb128 0x39
 3970 02e0 05       		.uleb128 0x5
 3971 02e1 00       		.byte	0
 3972 02e2 31       		.uleb128 0x31
 3973 02e3 13       		.uleb128 0x13
 3974 02e4 00       		.byte	0
 3975 02e5 00       		.byte	0
 3976 02e6 3A       		.uleb128 0x3a
 3977 02e7 2E       		.uleb128 0x2e
 3978 02e8 01       		.byte	0x1
 3979 02e9 03       		.uleb128 0x3
 3980 02ea 0E       		.uleb128 0xe
 3981 02eb 3A       		.uleb128 0x3a
 3982 02ec 0B       		.uleb128 0xb
 3983 02ed 3B       		.uleb128 0x3b
 3984 02ee 0B       		.uleb128 0xb
 3985 02ef 27       		.uleb128 0x27
 3986 02f0 19       		.uleb128 0x19
ARM GAS  /var/folders/d2/nstgp4h54kz7g1l847x_b8wc0000gn/T//cchv4K2w.s 			page 71


 3987 02f1 11       		.uleb128 0x11
 3988 02f2 01       		.uleb128 0x1
 3989 02f3 12       		.uleb128 0x12
 3990 02f4 06       		.uleb128 0x6
 3991 02f5 40       		.uleb128 0x40
 3992 02f6 18       		.uleb128 0x18
 3993 02f7 9742     		.uleb128 0x2117
 3994 02f9 19       		.uleb128 0x19
 3995 02fa 01       		.uleb128 0x1
 3996 02fb 13       		.uleb128 0x13
 3997 02fc 00       		.byte	0
 3998 02fd 00       		.byte	0
 3999 02fe 3B       		.uleb128 0x3b
 4000 02ff 898201   		.uleb128 0x4109
 4001 0302 00       		.byte	0
 4002 0303 11       		.uleb128 0x11
 4003 0304 01       		.uleb128 0x1
 4004 0305 9542     		.uleb128 0x2115
 4005 0307 19       		.uleb128 0x19
 4006 0308 31       		.uleb128 0x31
 4007 0309 13       		.uleb128 0x13
 4008 030a 00       		.byte	0
 4009 030b 00       		.byte	0
 4010 030c 3C       		.uleb128 0x3c
 4011 030d 2E       		.uleb128 0x2e
 4012 030e 01       		.byte	0x1
 4013 030f 03       		.uleb128 0x3
 4014 0310 0E       		.uleb128 0xe
 4015 0311 3A       		.uleb128 0x3a
 4016 0312 0B       		.uleb128 0xb
 4017 0313 3B       		.uleb128 0x3b
 4018 0314 0B       		.uleb128 0xb
 4019 0315 27       		.uleb128 0x27
 4020 0316 19       		.uleb128 0x19
 4021 0317 49       		.uleb128 0x49
 4022 0318 13       		.uleb128 0x13
 4023 0319 11       		.uleb128 0x11
 4024 031a 01       		.uleb128 0x1
 4025 031b 12       		.uleb128 0x12
 4026 031c 06       		.uleb128 0x6
 4027 031d 40       		.uleb128 0x40
 4028 031e 18       		.uleb128 0x18
 4029 031f 9742     		.uleb128 0x2117
 4030 0321 19       		.uleb128 0x19
 4031 0322 01       		.uleb128 0x1
 4032 0323 13       		.uleb128 0x13
 4033 0324 00       		.byte	0
 4034 0325 00       		.byte	0
 4035 0326 3D       		.uleb128 0x3d
 4036 0327 2E       		.uleb128 0x2e
 4037 0328 01       		.byte	0x1
 4038 0329 31       		.uleb128 0x31
 4039 032a 13       		.uleb128 0x13
 4040 032b 11       		.uleb128 0x11
 4041 032c 01       		.uleb128 0x1
 4042 032d 12       		.uleb128 0x12
 4043 032e 06       		.uleb128 0x6
ARM GAS  /var/folders/d2/nstgp4h54kz7g1l847x_b8wc0000gn/T//cchv4K2w.s 			page 72


 4044 032f 40       		.uleb128 0x40
 4045 0330 18       		.uleb128 0x18
 4046 0331 9742     		.uleb128 0x2117
 4047 0333 19       		.uleb128 0x19
 4048 0334 01       		.uleb128 0x1
 4049 0335 13       		.uleb128 0x13
 4050 0336 00       		.byte	0
 4051 0337 00       		.byte	0
 4052 0338 3E       		.uleb128 0x3e
 4053 0339 34       		.uleb128 0x34
 4054 033a 00       		.byte	0
 4055 033b 31       		.uleb128 0x31
 4056 033c 13       		.uleb128 0x13
 4057 033d 00       		.byte	0
 4058 033e 00       		.byte	0
 4059 033f 3F       		.uleb128 0x3f
 4060 0340 2E       		.uleb128 0x2e
 4061 0341 00       		.byte	0
 4062 0342 3F       		.uleb128 0x3f
 4063 0343 19       		.uleb128 0x19
 4064 0344 3C       		.uleb128 0x3c
 4065 0345 19       		.uleb128 0x19
 4066 0346 6E       		.uleb128 0x6e
 4067 0347 0E       		.uleb128 0xe
 4068 0348 03       		.uleb128 0x3
 4069 0349 0E       		.uleb128 0xe
 4070 034a 3A       		.uleb128 0x3a
 4071 034b 0B       		.uleb128 0xb
 4072 034c 3B       		.uleb128 0x3b
 4073 034d 0B       		.uleb128 0xb
 4074 034e 00       		.byte	0
 4075 034f 00       		.byte	0
 4076 0350 40       		.uleb128 0x40
 4077 0351 2E       		.uleb128 0x2e
 4078 0352 00       		.byte	0
 4079 0353 3F       		.uleb128 0x3f
 4080 0354 19       		.uleb128 0x19
 4081 0355 3C       		.uleb128 0x3c
 4082 0356 19       		.uleb128 0x19
 4083 0357 6E       		.uleb128 0x6e
 4084 0358 0E       		.uleb128 0xe
 4085 0359 03       		.uleb128 0x3
 4086 035a 0E       		.uleb128 0xe
 4087 035b 00       		.byte	0
 4088 035c 00       		.byte	0
 4089 035d 00       		.byte	0
 4090              		.section	.debug_loc,"",%progbits
 4091              	.Ldebug_loc0:
 4092              	.LLST17:
 4093 0000 00000000 		.4byte	.LVL40
 4094 0004 12000000 		.4byte	.LVL42
 4095 0008 0100     		.2byte	0x1
 4096 000a 50       		.byte	0x50
 4097 000b 12000000 		.4byte	.LVL42
 4098 000f 64000000 		.4byte	.LFE6
 4099 0013 0100     		.2byte	0x1
 4100 0015 54       		.byte	0x54
ARM GAS  /var/folders/d2/nstgp4h54kz7g1l847x_b8wc0000gn/T//cchv4K2w.s 			page 73


 4101 0016 00000000 		.4byte	0
 4102 001a 00000000 		.4byte	0
 4103              	.LLST18:
 4104 001e 00000000 		.4byte	.LVL40
 4105 0022 0E000000 		.4byte	.LVL41
 4106 0026 0100     		.2byte	0x1
 4107 0028 51       		.byte	0x51
 4108 0029 0E000000 		.4byte	.LVL41
 4109 002d 17000000 		.4byte	.LVL44-1
 4110 0031 0200     		.2byte	0x2
 4111 0033 71       		.byte	0x71
 4112 0034 00       		.sleb128 0
 4113 0035 00000000 		.4byte	0
 4114 0039 00000000 		.4byte	0
 4115              	.LLST19:
 4116 003d 14000000 		.4byte	.LVL43
 4117 0041 28000000 		.4byte	.LVL45
 4118 0045 0200     		.2byte	0x2
 4119 0047 30       		.byte	0x30
 4120 0048 9F       		.byte	0x9f
 4121 0049 28000000 		.4byte	.LVL45
 4122 004d 32000000 		.4byte	.LVL46
 4123 0051 0200     		.2byte	0x2
 4124 0053 34       		.byte	0x34
 4125 0054 9F       		.byte	0x9f
 4126 0055 32000000 		.4byte	.LVL46
 4127 0059 64000000 		.4byte	.LFE6
 4128 005d 0200     		.2byte	0x2
 4129 005f 38       		.byte	0x38
 4130 0060 9F       		.byte	0x9f
 4131 0061 00000000 		.4byte	0
 4132 0065 00000000 		.4byte	0
 4133              	.LLST8:
 4134 0069 00000000 		.4byte	.LVL18
 4135 006d 14000000 		.4byte	.LVL19
 4136 0071 0100     		.2byte	0x1
 4137 0073 50       		.byte	0x50
 4138 0074 14000000 		.4byte	.LVL19
 4139 0078 54000000 		.4byte	.LFE5
 4140 007c 0100     		.2byte	0x1
 4141 007e 54       		.byte	0x54
 4142 007f 00000000 		.4byte	0
 4143 0083 00000000 		.4byte	0
 4144              	.LLST9:
 4145 0087 18000000 		.4byte	.LVL20
 4146 008b 24000000 		.4byte	.LVL22
 4147 008f 0100     		.2byte	0x1
 4148 0091 56       		.byte	0x56
 4149 0092 30000000 		.4byte	.LVL23
 4150 0096 48000000 		.4byte	.LVL26
 4151 009a 0100     		.2byte	0x1
 4152 009c 56       		.byte	0x56
 4153 009d 00000000 		.4byte	0
 4154 00a1 00000000 		.4byte	0
 4155              	.LLST10:
 4156 00a5 18000000 		.4byte	.LVL20
 4157 00a9 24000000 		.4byte	.LVL22
ARM GAS  /var/folders/d2/nstgp4h54kz7g1l847x_b8wc0000gn/T//cchv4K2w.s 			page 74


 4158 00ad 0200     		.2byte	0x2
 4159 00af 38       		.byte	0x38
 4160 00b0 9F       		.byte	0x9f
 4161 00b1 30000000 		.4byte	.LVL23
 4162 00b5 36000000 		.4byte	.LVL24
 4163 00b9 0200     		.2byte	0x2
 4164 00bb 38       		.byte	0x38
 4165 00bc 9F       		.byte	0x9f
 4166 00bd 36000000 		.4byte	.LVL24
 4167 00c1 48000000 		.4byte	.LVL26
 4168 00c5 0200     		.2byte	0x2
 4169 00c7 3C       		.byte	0x3c
 4170 00c8 9F       		.byte	0x9f
 4171 00c9 00000000 		.4byte	0
 4172 00cd 00000000 		.4byte	0
 4173              	.LLST11:
 4174 00d1 00000000 		.4byte	.LVL28
 4175 00d5 12000000 		.4byte	.LVL30
 4176 00d9 0100     		.2byte	0x1
 4177 00db 50       		.byte	0x50
 4178 00dc 12000000 		.4byte	.LVL30
 4179 00e0 54000000 		.4byte	.LFE4
 4180 00e4 0100     		.2byte	0x1
 4181 00e6 57       		.byte	0x57
 4182 00e7 00000000 		.4byte	0
 4183 00eb 00000000 		.4byte	0
 4184              	.LLST12:
 4185 00ef 00000000 		.4byte	.LVL28
 4186 00f3 12000000 		.4byte	.LVL30
 4187 00f7 0100     		.2byte	0x1
 4188 00f9 51       		.byte	0x51
 4189 00fa 12000000 		.4byte	.LVL30
 4190 00fe 26000000 		.4byte	.LVL34
 4191 0102 0400     		.2byte	0x4
 4192 0104 F3       		.byte	0xf3
 4193 0105 01       		.uleb128 0x1
 4194 0106 51       		.byte	0x51
 4195 0107 9F       		.byte	0x9f
 4196 0108 00000000 		.4byte	0
 4197 010c 00000000 		.4byte	0
 4198              	.LLST13:
 4199 0110 36000000 		.4byte	.LVL36
 4200 0114 3C000000 		.4byte	.LVL37
 4201 0118 0100     		.2byte	0x1
 4202 011a 50       		.byte	0x50
 4203 011b 00000000 		.4byte	0
 4204 011f 00000000 		.4byte	0
 4205              	.LLST14:
 4206 0123 0E000000 		.4byte	.LVL29
 4207 0127 12000000 		.4byte	.LVL30
 4208 012b 0100     		.2byte	0x1
 4209 012d 51       		.byte	0x51
 4210 012e 12000000 		.4byte	.LVL30
 4211 0132 26000000 		.4byte	.LVL34
 4212 0136 0400     		.2byte	0x4
 4213 0138 F3       		.byte	0xf3
 4214 0139 01       		.uleb128 0x1
ARM GAS  /var/folders/d2/nstgp4h54kz7g1l847x_b8wc0000gn/T//cchv4K2w.s 			page 75


 4215 013a 51       		.byte	0x51
 4216 013b 9F       		.byte	0x9f
 4217 013c 00000000 		.4byte	0
 4218 0140 00000000 		.4byte	0
 4219              	.LLST15:
 4220 0144 0E000000 		.4byte	.LVL29
 4221 0148 12000000 		.4byte	.LVL30
 4222 014c 0100     		.2byte	0x1
 4223 014e 51       		.byte	0x51
 4224 014f 12000000 		.4byte	.LVL30
 4225 0153 16000000 		.4byte	.LVL31
 4226 0157 0700     		.2byte	0x7
 4227 0159 74       		.byte	0x74
 4228 015a 00       		.sleb128 0
 4229 015b 74       		.byte	0x74
 4230 015c 04       		.sleb128 4
 4231 015d 06       		.byte	0x6
 4232 015e 22       		.byte	0x22
 4233 015f 9F       		.byte	0x9f
 4234 0160 16000000 		.4byte	.LVL31
 4235 0164 1A000000 		.4byte	.LVL32
 4236 0168 0600     		.2byte	0x6
 4237 016a 74       		.byte	0x74
 4238 016b 00       		.sleb128 0
 4239 016c 73       		.byte	0x73
 4240 016d 00       		.sleb128 0
 4241 016e 22       		.byte	0x22
 4242 016f 9F       		.byte	0x9f
 4243 0170 1A000000 		.4byte	.LVL32
 4244 0174 26000000 		.4byte	.LVL34
 4245 0178 0100     		.2byte	0x1
 4246 017a 54       		.byte	0x54
 4247 017b 00000000 		.4byte	0
 4248 017f 00000000 		.4byte	0
 4249              	.LLST16:
 4250 0183 0E000000 		.4byte	.LVL29
 4251 0187 12000000 		.4byte	.LVL30
 4252 018b 0200     		.2byte	0x2
 4253 018d 30       		.byte	0x30
 4254 018e 9F       		.byte	0x9f
 4255 018f 12000000 		.4byte	.LVL30
 4256 0193 1A000000 		.4byte	.LVL32
 4257 0197 0100     		.2byte	0x1
 4258 0199 54       		.byte	0x54
 4259 019a 00000000 		.4byte	0
 4260 019e 00000000 		.4byte	0
 4261              	.LLST20:
 4262 01a2 00000000 		.4byte	.LVL51
 4263 01a6 21000000 		.4byte	.LVL53-1
 4264 01aa 0100     		.2byte	0x1
 4265 01ac 50       		.byte	0x50
 4266 01ad 21000000 		.4byte	.LVL53-1
 4267 01b1 24000000 		.4byte	.LVL54
 4268 01b5 0100     		.2byte	0x1
 4269 01b7 54       		.byte	0x54
 4270 01b8 24000000 		.4byte	.LVL54
 4271 01bc 50000000 		.4byte	.LVL62
ARM GAS  /var/folders/d2/nstgp4h54kz7g1l847x_b8wc0000gn/T//cchv4K2w.s 			page 76


 4272 01c0 0100     		.2byte	0x1
 4273 01c2 55       		.byte	0x55
 4274 01c3 58000000 		.4byte	.LVL64
 4275 01c7 9E000000 		.4byte	.LVL72
 4276 01cb 0100     		.2byte	0x1
 4277 01cd 54       		.byte	0x54
 4278 01ce A4000000 		.4byte	.LVL73
 4279 01d2 AA000000 		.4byte	.LVL74
 4280 01d6 0100     		.2byte	0x1
 4281 01d8 55       		.byte	0x55
 4282 01d9 AA000000 		.4byte	.LVL74
 4283 01dd C0000000 		.4byte	.LVL78
 4284 01e1 0100     		.2byte	0x1
 4285 01e3 54       		.byte	0x54
 4286 01e4 C0000000 		.4byte	.LVL78
 4287 01e8 C8000000 		.4byte	.LVL80
 4288 01ec 0100     		.2byte	0x1
 4289 01ee 55       		.byte	0x55
 4290 01ef C8000000 		.4byte	.LVL80
 4291 01f3 D8000000 		.4byte	.LFE3
 4292 01f7 0100     		.2byte	0x1
 4293 01f9 54       		.byte	0x54
 4294 01fa 00000000 		.4byte	0
 4295 01fe 00000000 		.4byte	0
 4296              	.LLST21:
 4297 0202 00000000 		.4byte	.LVL51
 4298 0206 21000000 		.4byte	.LVL53-1
 4299 020a 0100     		.2byte	0x1
 4300 020c 51       		.byte	0x51
 4301 020d 21000000 		.4byte	.LVL53-1
 4302 0211 D8000000 		.4byte	.LFE3
 4303 0215 0100     		.2byte	0x1
 4304 0217 57       		.byte	0x57
 4305 0218 00000000 		.4byte	0
 4306 021c 00000000 		.4byte	0
 4307              	.LLST22:
 4308 0220 00000000 		.4byte	.LVL51
 4309 0224 21000000 		.4byte	.LVL53-1
 4310 0228 0100     		.2byte	0x1
 4311 022a 52       		.byte	0x52
 4312 022b 21000000 		.4byte	.LVL53-1
 4313 022f D8000000 		.4byte	.LFE3
 4314 0233 0100     		.2byte	0x1
 4315 0235 58       		.byte	0x58
 4316 0236 00000000 		.4byte	0
 4317 023a 00000000 		.4byte	0
 4318              	.LLST23:
 4319 023e 54000000 		.4byte	.LVL63
 4320 0242 5A000000 		.4byte	.LVL65
 4321 0246 0100     		.2byte	0x1
 4322 0248 53       		.byte	0x53
 4323 0249 5A000000 		.4byte	.LVL65
 4324 024d 65000000 		.4byte	.LVL66-1
 4325 0251 0300     		.2byte	0x3
 4326 0253 73       		.byte	0x73
 4327 0254 0C       		.sleb128 12
 4328 0255 9F       		.byte	0x9f
ARM GAS  /var/folders/d2/nstgp4h54kz7g1l847x_b8wc0000gn/T//cchv4K2w.s 			page 77


 4329 0256 84000000 		.4byte	.LVL68
 4330 025a 88000000 		.4byte	.LVL69
 4331 025e 0100     		.2byte	0x1
 4332 0260 50       		.byte	0x50
 4333 0261 88000000 		.4byte	.LVL69
 4334 0265 8B000000 		.4byte	.LVL70-1
 4335 0269 0100     		.2byte	0x1
 4336 026b 51       		.byte	0x51
 4337 026c 9E000000 		.4byte	.LVL72
 4338 0270 A3000000 		.4byte	.LVL73-1
 4339 0274 0100     		.2byte	0x1
 4340 0276 53       		.byte	0x53
 4341 0277 A3000000 		.4byte	.LVL73-1
 4342 027b A4000000 		.4byte	.LVL73
 4343 027f 0900     		.2byte	0x9
 4344 0281 75       		.byte	0x75
 4345 0282 00       		.sleb128 0
 4346 0283 74       		.byte	0x74
 4347 0284 00       		.sleb128 0
 4348 0285 1C       		.byte	0x1c
 4349 0286 77       		.byte	0x77
 4350 0287 00       		.sleb128 0
 4351 0288 22       		.byte	0x22
 4352 0289 9F       		.byte	0x9f
 4353 028a A4000000 		.4byte	.LVL73
 4354 028e AA000000 		.4byte	.LVL74
 4355 0292 0100     		.2byte	0x1
 4356 0294 57       		.byte	0x57
 4357 0295 00000000 		.4byte	0
 4358 0299 00000000 		.4byte	0
 4359              	.LLST24:
 4360 029d 18000000 		.4byte	.LVL52
 4361 02a1 21000000 		.4byte	.LVL53-1
 4362 02a5 0100     		.2byte	0x1
 4363 02a7 50       		.byte	0x50
 4364 02a8 21000000 		.4byte	.LVL53-1
 4365 02ac 24000000 		.4byte	.LVL54
 4366 02b0 0100     		.2byte	0x1
 4367 02b2 54       		.byte	0x54
 4368 02b3 24000000 		.4byte	.LVL54
 4369 02b7 D8000000 		.4byte	.LFE3
 4370 02bb 0100     		.2byte	0x1
 4371 02bd 55       		.byte	0x55
 4372 02be 00000000 		.4byte	0
 4373 02c2 00000000 		.4byte	0
 4374              	.LLST25:
 4375 02c6 22000000 		.4byte	.LVL53
 4376 02ca 24000000 		.4byte	.LVL54
 4377 02ce 0100     		.2byte	0x1
 4378 02d0 54       		.byte	0x54
 4379 02d1 24000000 		.4byte	.LVL54
 4380 02d5 36000000 		.4byte	.LVL58
 4381 02d9 0100     		.2byte	0x1
 4382 02db 55       		.byte	0x55
 4383 02dc 00000000 		.4byte	0
 4384 02e0 00000000 		.4byte	0
 4385              	.LLST26:
ARM GAS  /var/folders/d2/nstgp4h54kz7g1l847x_b8wc0000gn/T//cchv4K2w.s 			page 78


 4386 02e4 22000000 		.4byte	.LVL53
 4387 02e8 24000000 		.4byte	.LVL54
 4388 02ec 0100     		.2byte	0x1
 4389 02ee 54       		.byte	0x54
 4390 02ef 24000000 		.4byte	.LVL54
 4391 02f3 28000000 		.4byte	.LVL55
 4392 02f7 0700     		.2byte	0x7
 4393 02f9 74       		.byte	0x74
 4394 02fa 00       		.sleb128 0
 4395 02fb 74       		.byte	0x74
 4396 02fc 04       		.sleb128 4
 4397 02fd 06       		.byte	0x6
 4398 02fe 22       		.byte	0x22
 4399 02ff 9F       		.byte	0x9f
 4400 0300 28000000 		.4byte	.LVL55
 4401 0304 2C000000 		.4byte	.LVL56
 4402 0308 0600     		.2byte	0x6
 4403 030a 74       		.byte	0x74
 4404 030b 00       		.sleb128 0
 4405 030c 73       		.byte	0x73
 4406 030d 00       		.sleb128 0
 4407 030e 22       		.byte	0x22
 4408 030f 9F       		.byte	0x9f
 4409 0310 2C000000 		.4byte	.LVL56
 4410 0314 36000000 		.4byte	.LVL58
 4411 0318 0100     		.2byte	0x1
 4412 031a 54       		.byte	0x54
 4413 031b 00000000 		.4byte	0
 4414 031f 00000000 		.4byte	0
 4415              	.LLST27:
 4416 0323 22000000 		.4byte	.LVL53
 4417 0327 24000000 		.4byte	.LVL54
 4418 032b 0200     		.2byte	0x2
 4419 032d 30       		.byte	0x30
 4420 032e 9F       		.byte	0x9f
 4421 032f 24000000 		.4byte	.LVL54
 4422 0333 2C000000 		.4byte	.LVL56
 4423 0337 0100     		.2byte	0x1
 4424 0339 54       		.byte	0x54
 4425 033a 00000000 		.4byte	0
 4426 033e 00000000 		.4byte	0
 4427              	.LLST28:
 4428 0342 40000000 		.4byte	.LVL59
 4429 0346 46000000 		.4byte	.LVL60
 4430 034a 0700     		.2byte	0x7
 4431 034c 74       		.byte	0x74
 4432 034d 00       		.sleb128 0
 4433 034e 74       		.byte	0x74
 4434 034f 04       		.sleb128 4
 4435 0350 06       		.byte	0x6
 4436 0351 22       		.byte	0x22
 4437 0352 9F       		.byte	0x9f
 4438 0353 46000000 		.4byte	.LVL60
 4439 0357 50000000 		.4byte	.LVL62
 4440 035b 0100     		.2byte	0x1
 4441 035d 54       		.byte	0x54
 4442 035e 00000000 		.4byte	0
ARM GAS  /var/folders/d2/nstgp4h54kz7g1l847x_b8wc0000gn/T//cchv4K2w.s 			page 79


 4443 0362 00000000 		.4byte	0
 4444              	.LLST0:
 4445 0366 00000000 		.4byte	.LVL0
 4446 036a 1F000000 		.4byte	.LVL3-1
 4447 036e 0100     		.2byte	0x1
 4448 0370 50       		.byte	0x50
 4449 0371 1F000000 		.4byte	.LVL3-1
 4450 0375 24000000 		.4byte	.LFE2
 4451 0379 0400     		.2byte	0x4
 4452 037b F3       		.byte	0xf3
 4453 037c 01       		.uleb128 0x1
 4454 037d 50       		.byte	0x50
 4455 037e 9F       		.byte	0x9f
 4456 037f 00000000 		.4byte	0
 4457 0383 00000000 		.4byte	0
 4458              	.LLST1:
 4459 0387 00000000 		.4byte	.LVL0
 4460 038b 1F000000 		.4byte	.LVL3-1
 4461 038f 0100     		.2byte	0x1
 4462 0391 51       		.byte	0x51
 4463 0392 1F000000 		.4byte	.LVL3-1
 4464 0396 24000000 		.4byte	.LFE2
 4465 039a 0400     		.2byte	0x4
 4466 039c F3       		.byte	0xf3
 4467 039d 01       		.uleb128 0x1
 4468 039e 51       		.byte	0x51
 4469 039f 9F       		.byte	0x9f
 4470 03a0 00000000 		.4byte	0
 4471 03a4 00000000 		.4byte	0
 4472              	.LLST2:
 4473 03a8 00000000 		.4byte	.LVL0
 4474 03ac 08000000 		.4byte	.LVL1
 4475 03b0 0100     		.2byte	0x1
 4476 03b2 52       		.byte	0x52
 4477 03b3 08000000 		.4byte	.LVL1
 4478 03b7 24000000 		.4byte	.LFE2
 4479 03bb 0400     		.2byte	0x4
 4480 03bd F3       		.byte	0xf3
 4481 03be 01       		.uleb128 0x1
 4482 03bf 52       		.byte	0x52
 4483 03c0 9F       		.byte	0x9f
 4484 03c1 00000000 		.4byte	0
 4485 03c5 00000000 		.4byte	0
 4486              	.LLST3:
 4487 03c9 0A000000 		.4byte	.LVL2
 4488 03cd 1F000000 		.4byte	.LVL3-1
 4489 03d1 0100     		.2byte	0x1
 4490 03d3 50       		.byte	0x50
 4491 03d4 1F000000 		.4byte	.LVL3-1
 4492 03d8 24000000 		.4byte	.LFE2
 4493 03dc 0400     		.2byte	0x4
 4494 03de F3       		.byte	0xf3
 4495 03df 01       		.uleb128 0x1
 4496 03e0 50       		.byte	0x50
 4497 03e1 9F       		.byte	0x9f
 4498 03e2 00000000 		.4byte	0
 4499 03e6 00000000 		.4byte	0
ARM GAS  /var/folders/d2/nstgp4h54kz7g1l847x_b8wc0000gn/T//cchv4K2w.s 			page 80


 4500              	.LLST7:
 4501 03ea 00000000 		.4byte	.LVL12
 4502 03ee 0F000000 		.4byte	.LVL13-1
 4503 03f2 0100     		.2byte	0x1
 4504 03f4 50       		.byte	0x50
 4505 03f5 0F000000 		.4byte	.LVL13-1
 4506 03f9 24000000 		.4byte	.LVL15
 4507 03fd 0100     		.2byte	0x1
 4508 03ff 55       		.byte	0x55
 4509 0400 24000000 		.4byte	.LVL15
 4510 0404 28000000 		.4byte	.LVL16
 4511 0408 0400     		.2byte	0x4
 4512 040a F3       		.byte	0xf3
 4513 040b 01       		.uleb128 0x1
 4514 040c 50       		.byte	0x50
 4515 040d 9F       		.byte	0x9f
 4516 040e 28000000 		.4byte	.LVL16
 4517 0412 30000000 		.4byte	.LFE1
 4518 0416 0100     		.2byte	0x1
 4519 0418 55       		.byte	0x55
 4520 0419 00000000 		.4byte	0
 4521 041d 00000000 		.4byte	0
 4522              	.LLST4:
 4523 0421 00000000 		.4byte	.LVL4
 4524 0425 0A000000 		.4byte	.LVL6
 4525 0429 0100     		.2byte	0x1
 4526 042b 50       		.byte	0x50
 4527 042c 0A000000 		.4byte	.LVL6
 4528 0430 40000000 		.4byte	.LFE0
 4529 0434 0400     		.2byte	0x4
 4530 0436 F3       		.byte	0xf3
 4531 0437 01       		.uleb128 0x1
 4532 0438 50       		.byte	0x50
 4533 0439 9F       		.byte	0x9f
 4534 043a 00000000 		.4byte	0
 4535 043e 00000000 		.4byte	0
 4536              	.LLST5:
 4537 0442 00000000 		.4byte	.LVL4
 4538 0446 18000000 		.4byte	.LVL7
 4539 044a 0100     		.2byte	0x1
 4540 044c 51       		.byte	0x51
 4541 044d 18000000 		.4byte	.LVL7
 4542 0451 24000000 		.4byte	.LVL8
 4543 0455 0400     		.2byte	0x4
 4544 0457 F3       		.byte	0xf3
 4545 0458 01       		.uleb128 0x1
 4546 0459 51       		.byte	0x51
 4547 045a 9F       		.byte	0x9f
 4548 045b 24000000 		.4byte	.LVL8
 4549 045f 2D000000 		.4byte	.LVL9-1
 4550 0463 0100     		.2byte	0x1
 4551 0465 51       		.byte	0x51
 4552 0466 2D000000 		.4byte	.LVL9-1
 4553 046a 40000000 		.4byte	.LFE0
 4554 046e 0400     		.2byte	0x4
 4555 0470 F3       		.byte	0xf3
 4556 0471 01       		.uleb128 0x1
ARM GAS  /var/folders/d2/nstgp4h54kz7g1l847x_b8wc0000gn/T//cchv4K2w.s 			page 81


 4557 0472 51       		.byte	0x51
 4558 0473 9F       		.byte	0x9f
 4559 0474 00000000 		.4byte	0
 4560 0478 00000000 		.4byte	0
 4561              	.LLST6:
 4562 047c 00000000 		.4byte	.LVL4
 4563 0480 18000000 		.4byte	.LVL7
 4564 0484 0100     		.2byte	0x1
 4565 0486 52       		.byte	0x52
 4566 0487 18000000 		.4byte	.LVL7
 4567 048b 24000000 		.4byte	.LVL8
 4568 048f 0400     		.2byte	0x4
 4569 0491 F3       		.byte	0xf3
 4570 0492 01       		.uleb128 0x1
 4571 0493 52       		.byte	0x52
 4572 0494 9F       		.byte	0x9f
 4573 0495 24000000 		.4byte	.LVL8
 4574 0499 2D000000 		.4byte	.LVL9-1
 4575 049d 0100     		.2byte	0x1
 4576 049f 52       		.byte	0x52
 4577 04a0 2D000000 		.4byte	.LVL9-1
 4578 04a4 38000000 		.4byte	.LVL10
 4579 04a8 0100     		.2byte	0x1
 4580 04aa 54       		.byte	0x54
 4581 04ab 38000000 		.4byte	.LVL10
 4582 04af 40000000 		.4byte	.LFE0
 4583 04b3 0400     		.2byte	0x4
 4584 04b5 F3       		.byte	0xf3
 4585 04b6 01       		.uleb128 0x1
 4586 04b7 52       		.byte	0x52
 4587 04b8 9F       		.byte	0x9f
 4588 04b9 00000000 		.4byte	0
 4589 04bd 00000000 		.4byte	0
 4590              	.LLST29:
 4591 04c1 00000000 		.4byte	.LVL82
 4592 04c5 06000000 		.4byte	.LVL83
 4593 04c9 0100     		.2byte	0x1
 4594 04cb 50       		.byte	0x50
 4595 04cc 06000000 		.4byte	.LVL83
 4596 04d0 24000000 		.4byte	.LFE7
 4597 04d4 0400     		.2byte	0x4
 4598 04d6 F3       		.byte	0xf3
 4599 04d7 01       		.uleb128 0x1
 4600 04d8 50       		.byte	0x50
 4601 04d9 9F       		.byte	0x9f
 4602 04da 00000000 		.4byte	0
 4603 04de 00000000 		.4byte	0
 4604              	.LLST30:
 4605 04e2 00000000 		.4byte	.LVL85
 4606 04e6 10000000 		.4byte	.LVL87
 4607 04ea 0100     		.2byte	0x1
 4608 04ec 50       		.byte	0x50
 4609 04ed 10000000 		.4byte	.LVL87
 4610 04f1 38000000 		.4byte	.LFE8
 4611 04f5 0400     		.2byte	0x4
 4612 04f7 F3       		.byte	0xf3
 4613 04f8 01       		.uleb128 0x1
ARM GAS  /var/folders/d2/nstgp4h54kz7g1l847x_b8wc0000gn/T//cchv4K2w.s 			page 82


 4614 04f9 50       		.byte	0x50
 4615 04fa 9F       		.byte	0x9f
 4616 04fb 00000000 		.4byte	0
 4617 04ff 00000000 		.4byte	0
 4618              	.LLST31:
 4619 0503 0C000000 		.4byte	.LVL86
 4620 0507 10000000 		.4byte	.LVL87
 4621 050b 0100     		.2byte	0x1
 4622 050d 50       		.byte	0x50
 4623 050e 10000000 		.4byte	.LVL87
 4624 0512 14000000 		.4byte	.LVL88
 4625 0516 0700     		.2byte	0x7
 4626 0518 74       		.byte	0x74
 4627 0519 00       		.sleb128 0
 4628 051a 74       		.byte	0x74
 4629 051b 04       		.sleb128 4
 4630 051c 06       		.byte	0x6
 4631 051d 22       		.byte	0x22
 4632 051e 9F       		.byte	0x9f
 4633 051f 14000000 		.4byte	.LVL88
 4634 0523 18000000 		.4byte	.LVL89
 4635 0527 0600     		.2byte	0x6
 4636 0529 74       		.byte	0x74
 4637 052a 00       		.sleb128 0
 4638 052b 73       		.byte	0x73
 4639 052c 00       		.sleb128 0
 4640 052d 22       		.byte	0x22
 4641 052e 9F       		.byte	0x9f
 4642 052f 18000000 		.4byte	.LVL89
 4643 0533 38000000 		.4byte	.LFE8
 4644 0537 0100     		.2byte	0x1
 4645 0539 54       		.byte	0x54
 4646 053a 00000000 		.4byte	0
 4647 053e 00000000 		.4byte	0
 4648              	.LLST32:
 4649 0542 0C000000 		.4byte	.LVL86
 4650 0546 10000000 		.4byte	.LVL87
 4651 054a 0200     		.2byte	0x2
 4652 054c 30       		.byte	0x30
 4653 054d 9F       		.byte	0x9f
 4654 054e 10000000 		.4byte	.LVL87
 4655 0552 18000000 		.4byte	.LVL89
 4656 0556 0100     		.2byte	0x1
 4657 0558 54       		.byte	0x54
 4658 0559 00000000 		.4byte	0
 4659 055d 00000000 		.4byte	0
 4660              	.LLST33:
 4661 0561 00000000 		.4byte	.LVL93
 4662 0565 0E000000 		.4byte	.LVL95
 4663 0569 0100     		.2byte	0x1
 4664 056b 50       		.byte	0x50
 4665 056c 0E000000 		.4byte	.LVL95
 4666 0570 34000000 		.4byte	.LFE9
 4667 0574 0400     		.2byte	0x4
 4668 0576 F3       		.byte	0xf3
 4669 0577 01       		.uleb128 0x1
 4670 0578 50       		.byte	0x50
ARM GAS  /var/folders/d2/nstgp4h54kz7g1l847x_b8wc0000gn/T//cchv4K2w.s 			page 83


 4671 0579 9F       		.byte	0x9f
 4672 057a 00000000 		.4byte	0
 4673 057e 00000000 		.4byte	0
 4674              	.LLST34:
 4675 0582 0C000000 		.4byte	.LVL94
 4676 0586 0E000000 		.4byte	.LVL95
 4677 058a 0100     		.2byte	0x1
 4678 058c 50       		.byte	0x50
 4679 058d 0E000000 		.4byte	.LVL95
 4680 0591 14000000 		.4byte	.LVL96
 4681 0595 0700     		.2byte	0x7
 4682 0597 74       		.byte	0x74
 4683 0598 00       		.sleb128 0
 4684 0599 74       		.byte	0x74
 4685 059a 04       		.sleb128 4
 4686 059b 06       		.byte	0x6
 4687 059c 22       		.byte	0x22
 4688 059d 9F       		.byte	0x9f
 4689 059e 14000000 		.4byte	.LVL96
 4690 05a2 2C000000 		.4byte	.LVL98
 4691 05a6 0100     		.2byte	0x1
 4692 05a8 54       		.byte	0x54
 4693 05a9 2C000000 		.4byte	.LVL98
 4694 05ad 2F000000 		.4byte	.LVL99-1
 4695 05b1 0100     		.2byte	0x1
 4696 05b3 50       		.byte	0x50
 4697 05b4 2F000000 		.4byte	.LVL99-1
 4698 05b8 34000000 		.4byte	.LFE9
 4699 05bc 0100     		.2byte	0x1
 4700 05be 54       		.byte	0x54
 4701 05bf 00000000 		.4byte	0
 4702 05c3 00000000 		.4byte	0
 4703              		.section	.debug_aranges,"",%progbits
 4704 0000 64000000 		.4byte	0x64
 4705 0004 0200     		.2byte	0x2
 4706 0006 00000000 		.4byte	.Ldebug_info0
 4707 000a 04       		.byte	0x4
 4708 000b 00       		.byte	0
 4709 000c 0000     		.2byte	0
 4710 000e 0000     		.2byte	0
 4711 0010 00000000 		.4byte	.LFB2
 4712 0014 24000000 		.4byte	.LFE2-.LFB2
 4713 0018 00000000 		.4byte	.LFB0
 4714 001c 40000000 		.4byte	.LFE0-.LFB0
 4715 0020 00000000 		.4byte	.LFB1
 4716 0024 30000000 		.4byte	.LFE1-.LFB1
 4717 0028 00000000 		.4byte	.LFB5
 4718 002c 54000000 		.4byte	.LFE5-.LFB5
 4719 0030 00000000 		.4byte	.LFB4
 4720 0034 54000000 		.4byte	.LFE4-.LFB4
 4721 0038 00000000 		.4byte	.LFB6
 4722 003c 64000000 		.4byte	.LFE6-.LFB6
 4723 0040 00000000 		.4byte	.LFB3
 4724 0044 D8000000 		.4byte	.LFE3-.LFB3
 4725 0048 00000000 		.4byte	.LFB7
 4726 004c 24000000 		.4byte	.LFE7-.LFB7
 4727 0050 00000000 		.4byte	.LFB8
ARM GAS  /var/folders/d2/nstgp4h54kz7g1l847x_b8wc0000gn/T//cchv4K2w.s 			page 84


 4728 0054 38000000 		.4byte	.LFE8-.LFB8
 4729 0058 00000000 		.4byte	.LFB9
 4730 005c 34000000 		.4byte	.LFE9-.LFB9
 4731 0060 00000000 		.4byte	0
 4732 0064 00000000 		.4byte	0
 4733              		.section	.debug_ranges,"",%progbits
 4734              	.Ldebug_ranges0:
 4735 0000 18000000 		.4byte	.LBB22
 4736 0004 1E000000 		.4byte	.LBE22
 4737 0008 28000000 		.4byte	.LBB26
 4738 000c 36000000 		.4byte	.LBE26
 4739 0010 3C000000 		.4byte	.LBB27
 4740 0014 44000000 		.4byte	.LBE27
 4741 0018 00000000 		.4byte	0
 4742 001c 00000000 		.4byte	0
 4743 0020 00000000 		.4byte	.LFB2
 4744 0024 24000000 		.4byte	.LFE2
 4745 0028 00000000 		.4byte	.LFB0
 4746 002c 40000000 		.4byte	.LFE0
 4747 0030 00000000 		.4byte	.LFB1
 4748 0034 30000000 		.4byte	.LFE1
 4749 0038 00000000 		.4byte	.LFB5
 4750 003c 54000000 		.4byte	.LFE5
 4751 0040 00000000 		.4byte	.LFB4
 4752 0044 54000000 		.4byte	.LFE4
 4753 0048 00000000 		.4byte	.LFB6
 4754 004c 64000000 		.4byte	.LFE6
 4755 0050 00000000 		.4byte	.LFB3
 4756 0054 D8000000 		.4byte	.LFE3
 4757 0058 00000000 		.4byte	.LFB7
 4758 005c 24000000 		.4byte	.LFE7
 4759 0060 00000000 		.4byte	.LFB8
 4760 0064 38000000 		.4byte	.LFE8
 4761 0068 00000000 		.4byte	.LFB9
 4762 006c 34000000 		.4byte	.LFE9
 4763 0070 00000000 		.4byte	0
 4764 0074 00000000 		.4byte	0
 4765              		.section	.debug_line,"",%progbits
 4766              	.Ldebug_line0:
 4767 0000 F8040000 		.section	.debug_str,"MS",%progbits,1
 4767      0200B903 
 4767      00000201 
 4767      FB0E0D00 
 4767      01010101 
 4768              	.LASF44:
 4769 0000 5F64736F 		.ascii	"_dso_handle\000"
 4769      5F68616E 
 4769      646C6500 
 4770              	.LASF143:
 4771 000c 76616C75 		.ascii	"value\000"
 4771      6500
 4772              	.LASF52:
 4773 0012 5F73697A 		.ascii	"_size\000"
 4773      6500
 4774              	.LASF167:
 4775 0018 636F6E66 		.ascii	"config_block_get_length\000"
 4775      69675F62 
ARM GAS  /var/folders/d2/nstgp4h54kz7g1l847x_b8wc0000gn/T//cchv4K2w.s 			page 85


 4775      6C6F636B 
 4775      5F676574 
 4775      5F6C656E 
 4776              	.LASF4:
 4777 0030 73697A65 		.ascii	"size_t\000"
 4777      5F7400
 4778              	.LASF181:
 4779 0037 63726333 		.ascii	"crc32\000"
 4779      3200
 4780              	.LASF96:
 4781 003d 5F72616E 		.ascii	"_rand48\000"
 4781      64343800 
 4782              	.LASF163:
 4783 0045 636F6E66 		.ascii	"config_block_find_first_free\000"
 4783      69675F62 
 4783      6C6F636B 
 4783      5F66696E 
 4783      645F6669 
 4784              	.LASF76:
 4785 0062 5F656D65 		.ascii	"_emergency\000"
 4785      7267656E 
 4785      637900
 4786              	.LASF156:
 4787 006d 77726974 		.ascii	"write\000"
 4787      6500
 4788              	.LASF5:
 4789 0073 5F5F7569 		.ascii	"__uint8_t\000"
 4789      6E74385F 
 4789      7400
 4790              	.LASF112:
 4791 007d 5F676574 		.ascii	"_getdate_err\000"
 4791      64617465 
 4791      5F657272 
 4791      00
 4792              	.LASF66:
 4793 008a 5F646174 		.ascii	"_data\000"
 4793      6100
 4794              	.LASF142:
 4795 0090 74797065 		.ascii	"type\000"
 4795      00
 4796              	.LASF132:
 4797 0095 70617261 		.ascii	"parameter_namespace_s\000"
 4797      6D657465 
 4797      725F6E61 
 4797      6D657370 
 4797      6163655F 
 4798              	.LASF131:
 4799 00ab 70617261 		.ascii	"parameter_namespace_t\000"
 4799      6D657465 
 4799      725F6E61 
 4799      6D657370 
 4799      6163655F 
 4800              	.LASF116:
 4801 00c1 5F776372 		.ascii	"_wcrtomb_state\000"
 4801      746F6D62 
 4801      5F737461 
 4801      746500
ARM GAS  /var/folders/d2/nstgp4h54kz7g1l847x_b8wc0000gn/T//cchv4K2w.s 			page 86


 4802              	.LASF139:
 4803 00d0 70617261 		.ascii	"parameter_s\000"
 4803      6D657465 
 4803      725F7300 
 4804              	.LASF117:
 4805 00dc 5F776373 		.ascii	"_wcsrtombs_state\000"
 4805      72746F6D 
 4805      62735F73 
 4805      74617465 
 4805      00
 4806              	.LASF14:
 4807 00ed 6C6F6E67 		.ascii	"long long unsigned int\000"
 4807      206C6F6E 
 4807      6720756E 
 4807      7369676E 
 4807      65642069 
 4808              	.LASF56:
 4809 0104 5F6C6266 		.ascii	"_lbfsize\000"
 4809      73697A65 
 4809      00
 4810              	.LASF123:
 4811 010d 5F5F6C6F 		.ascii	"__locale_t\000"
 4811      63616C65 
 4811      5F7400
 4812              	.LASF138:
 4813 0118 70617261 		.ascii	"parameter_t\000"
 4813      6D657465 
 4813      725F7400 
 4814              	.LASF147:
 4815 0124 6275665F 		.ascii	"buf_dim\000"
 4815      64696D00 
 4816              	.LASF114:
 4817 012c 5F6D6272 		.ascii	"_mbrtowc_state\000"
 4817      746F7763 
 4817      5F737461 
 4817      746500
 4818              	.LASF136:
 4819 013b 6E657874 		.ascii	"next\000"
 4819      00
 4820              	.LASF33:
 4821 0140 5F5F746D 		.ascii	"__tm_sec\000"
 4821      5F736563 
 4821      00
 4822              	.LASF1:
 4823 0149 6C6F6E67 		.ascii	"long long int\000"
 4823      206C6F6E 
 4823      6720696E 
 4823      7400
 4824              	.LASF3:
 4825 0157 7369676E 		.ascii	"signed char\000"
 4825      65642063 
 4825      68617200 
 4826              	.LASF145:
 4827 0163 6275665F 		.ascii	"buf_len\000"
 4827      6C656E00 
 4828              	.LASF62:
 4829 016b 5F756275 		.ascii	"_ubuf\000"
ARM GAS  /var/folders/d2/nstgp4h54kz7g1l847x_b8wc0000gn/T//cchv4K2w.s 			page 87


 4829      6600
 4830              	.LASF140:
 4831 0171 6368616E 		.ascii	"changed\000"
 4831      67656400 
 4832              	.LASF51:
 4833 0179 5F626173 		.ascii	"_base\000"
 4833      6500
 4834              	.LASF35:
 4835 017f 5F5F746D 		.ascii	"__tm_hour\000"
 4835      5F686F75 
 4835      7200
 4836              	.LASF91:
 4837 0189 5F5F7366 		.ascii	"__sf\000"
 4837      00
 4838              	.LASF42:
 4839 018e 5F6F6E5F 		.ascii	"_on_exit_args\000"
 4839      65786974 
 4839      5F617267 
 4839      7300
 4840              	.LASF144:
 4841 019c 5F706172 		.ascii	"_param_val_str_s\000"
 4841      616D5F76 
 4841      616C5F73 
 4841      74725F73 
 4841      00
 4842              	.LASF57:
 4843 01ad 5F636F6F 		.ascii	"_cookie\000"
 4843      6B696500 
 4844              	.LASF134:
 4845 01b5 70617265 		.ascii	"parent\000"
 4845      6E7400
 4846              	.LASF90:
 4847 01bc 5F5F7367 		.ascii	"__sglue\000"
 4847      6C756500 
 4848              	.LASF11:
 4849 01c4 6C6F6E67 		.ascii	"long int\000"
 4849      20696E74 
 4849      00
 4850              	.LASF54:
 4851 01cd 5F666C61 		.ascii	"_flags\000"
 4851      677300
 4852              	.LASF46:
 4853 01d4 5F69735F 		.ascii	"_is_cxa\000"
 4853      63786100 
 4854              	.LASF72:
 4855 01dc 5F737464 		.ascii	"_stdin\000"
 4855      696E00
 4856              	.LASF64:
 4857 01e3 5F626C6B 		.ascii	"_blksize\000"
 4857      73697A65 
 4857      00
 4858              	.LASF160:
 4859 01ec 696E6465 		.ascii	"index\000"
 4859      7800
 4860              	.LASF175:
 4861 01f2 636F6E66 		.ascii	"config_save\000"
 4861      69675F73 
ARM GAS  /var/folders/d2/nstgp4h54kz7g1l847x_b8wc0000gn/T//cchv4K2w.s 			page 88


 4861      61766500 
 4862              	.LASF127:
 4863 01fe 75696E74 		.ascii	"uint16_t\000"
 4863      31365F74 
 4863      00
 4864              	.LASF141:
 4865 0207 64656669 		.ascii	"defined\000"
 4865      6E656400 
 4866              	.LASF137:
 4867 020f 70617261 		.ascii	"parameter_list\000"
 4867      6D657465 
 4867      725F6C69 
 4867      737400
 4868              	.LASF86:
 4869 021e 5F637674 		.ascii	"_cvtbuf\000"
 4869      62756600 
 4870              	.LASF65:
 4871 0226 5F6F6666 		.ascii	"_offset\000"
 4871      73657400 
 4872              	.LASF115:
 4873 022e 5F6D6273 		.ascii	"_mbsrtowcs_state\000"
 4873      72746F77 
 4873      63735F73 
 4873      74617465 
 4873      00
 4874              	.LASF113:
 4875 023f 5F6D6272 		.ascii	"_mbrlen_state\000"
 4875      6C656E5F 
 4875      73746174 
 4875      6500
 4876              	.LASF43:
 4877 024d 5F666E61 		.ascii	"_fnargs\000"
 4877      72677300 
 4878              	.LASF159:
 4879 0255 636D705F 		.ascii	"cmp_ctx_t\000"
 4879      6374785F 
 4879      7400
 4880              	.LASF193:
 4881 025f 6572725F 		.ascii	"err_mark_false\000"
 4881      6D61726B 
 4881      5F66616C 
 4881      736500
 4882              	.LASF49:
 4883 026e 5F666E73 		.ascii	"_fns\000"
 4883      00
 4884              	.LASF12:
 4885 0273 5F5F7569 		.ascii	"__uint32_t\000"
 4885      6E743332 
 4885      5F7400
 4886              	.LASF29:
 4887 027e 5F736967 		.ascii	"_sign\000"
 4887      6E00
 4888              	.LASF187:
 4889 0284 636D705F 		.ascii	"cmp_mem_access_get_pos\000"
 4889      6D656D5F 
 4889      61636365 
 4889      73735F67 
ARM GAS  /var/folders/d2/nstgp4h54kz7g1l847x_b8wc0000gn/T//cchv4K2w.s 			page 89


 4889      65745F70 
 4890              	.LASF24:
 4891 029b 5F666C6F 		.ascii	"_flock_t\000"
 4891      636B5F74 
 4891      00
 4892              	.LASF74:
 4893 02a4 5F737464 		.ascii	"_stderr\000"
 4893      65727200 
 4894              	.LASF31:
 4895 02ac 5F426967 		.ascii	"_Bigint\000"
 4895      696E7400 
 4896              	.LASF104:
 4897 02b4 5F67616D 		.ascii	"_gamma_signgam\000"
 4897      6D615F73 
 4897      69676E67 
 4897      616D00
 4898              	.LASF149:
 4899 02c3 5F706172 		.ascii	"_param_val_matrix_s\000"
 4899      616D5F76 
 4899      616C5F6D 
 4899      61747269 
 4899      785F7300 
 4900              	.LASF58:
 4901 02d7 5F726561 		.ascii	"_read\000"
 4901      6400
 4902              	.LASF82:
 4903 02dd 5F726573 		.ascii	"_result_k\000"
 4903      756C745F 
 4903      6B00
 4904              	.LASF32:
 4905 02e7 5F5F746D 		.ascii	"__tm\000"
 4905      00
 4906              	.LASF165:
 4907 02ec 626C6F63 		.ascii	"block\000"
 4907      6B00
 4908              	.LASF0:
 4909 02f2 756E7369 		.ascii	"unsigned int\000"
 4909      676E6564 
 4909      20696E74 
 4909      00
 4910              	.LASF190:
 4911 02ff 474E5520 		.ascii	"GNU C11 7.2.1 20170904 (release) [ARM/embedded-7-br"
 4911      43313120 
 4911      372E322E 
 4911      31203230 
 4911      31373039 
 4912 0332 616E6368 		.ascii	"anch revision 255204] -mcpu=cortex-m4 -mfloat-abi=h"
 4912      20726576 
 4912      6973696F 
 4912      6E203235 
 4912      35323034 
 4913 0365 61726420 		.ascii	"ard -mfpu=fpv4-sp-d16 -mno-thumb-interwork -mthumb "
 4913      2D6D6670 
 4913      753D6670 
 4913      76342D73 
 4913      702D6431 
 4914 0398 2D676764 		.ascii	"-ggdb -O2 -fomit-frame-pointer -falign-functions=16"
ARM GAS  /var/folders/d2/nstgp4h54kz7g1l847x_b8wc0000gn/T//cchv4K2w.s 			page 90


 4914      62202D4F 
 4914      32202D66 
 4914      6F6D6974 
 4914      2D667261 
 4915 03cb 202D666E 		.ascii	" -fno-strict-aliasing -fstack-protector-all -ffunct"
 4915      6F2D7374 
 4915      72696374 
 4915      2D616C69 
 4915      6173696E 
 4916 03fe 696F6E2D 		.ascii	"ion-sections -fdata-sections -fno-common -fsingle-p"
 4916      73656374 
 4916      696F6E73 
 4916      202D6664 
 4916      6174612D 
 4917 0431 72656369 		.ascii	"recision-constant\000"
 4917      73696F6E 
 4917      2D636F6E 
 4917      7374616E 
 4917      7400
 4918              	.LASF20:
 4919 0443 5F5F7763 		.ascii	"__wchb\000"
 4919      686200
 4920              	.LASF73:
 4921 044a 5F737464 		.ascii	"_stdout\000"
 4921      6F757400 
 4922              	.LASF85:
 4923 0452 5F637674 		.ascii	"_cvtlen\000"
 4923      6C656E00 
 4924              	.LASF13:
 4925 045a 6C6F6E67 		.ascii	"long unsigned int\000"
 4925      20756E73 
 4925      69676E65 
 4925      6420696E 
 4925      7400
 4926              	.LASF55:
 4927 046c 5F66696C 		.ascii	"_file\000"
 4927      6500
 4928              	.LASF157:
 4929 0472 636D705F 		.ascii	"cmp_writer\000"
 4929      77726974 
 4929      657200
 4930              	.LASF94:
 4931 047d 5F6E696F 		.ascii	"_niobs\000"
 4931      627300
 4932              	.LASF179:
 4933 0484 636F6E66 		.ascii	"config_erase\000"
 4933      69675F65 
 4933      72617365 
 4933      00
 4934              	.LASF180:
 4935 0491 64617461 		.ascii	"data\000"
 4935      00
 4936              	.LASF161:
 4937 0496 73697A65 		.ascii	"size\000"
 4937      00
 4938              	.LASF9:
 4939 049b 73686F72 		.ascii	"short unsigned int\000"
ARM GAS  /var/folders/d2/nstgp4h54kz7g1l847x_b8wc0000gn/T//cchv4K2w.s 			page 91


 4939      7420756E 
 4939      7369676E 
 4939      65642069 
 4939      6E7400
 4940              	.LASF184:
 4941 04ae 666C6173 		.ascii	"flash_unlock\000"
 4941      685F756E 
 4941      6C6F636B 
 4941      00
 4942              	.LASF88:
 4943 04bb 5F617465 		.ascii	"_atexit0\000"
 4943      78697430 
 4943      00
 4944              	.LASF111:
 4945 04c4 5F736967 		.ascii	"_signal_buf\000"
 4945      6E616C5F 
 4945      62756600 
 4946              	.LASF102:
 4947 04d0 5F617363 		.ascii	"_asctime_buf\000"
 4947      74696D65 
 4947      5F627566 
 4947      00
 4948              	.LASF166:
 4949 04dd 6C617374 		.ascii	"last\000"
 4949      00
 4950              	.LASF81:
 4951 04e2 5F726573 		.ascii	"_result\000"
 4951      756C7400 
 4952              	.LASF19:
 4953 04ea 5F5F7763 		.ascii	"__wch\000"
 4953      6800
 4954              	.LASF15:
 4955 04f0 5F4C4F43 		.ascii	"_LOCK_T\000"
 4955      4B5F5400 
 4956              	.LASF18:
 4957 04f8 77696E74 		.ascii	"wint_t\000"
 4957      5F7400
 4958              	.LASF176:
 4959 04ff 6473745F 		.ascii	"dst_len\000"
 4959      6C656E00 
 4960              	.LASF67:
 4961 0507 5F6C6F63 		.ascii	"_lock\000"
 4961      6B00
 4962              	.LASF162:
 4963 050d 636D705F 		.ascii	"cmp_mem_access_t\000"
 4963      6D656D5F 
 4963      61636365 
 4963      73735F74 
 4963      00
 4964              	.LASF69:
 4965 051e 5F666C61 		.ascii	"_flags2\000"
 4965      67733200 
 4966              	.LASF59:
 4967 0526 5F777269 		.ascii	"_write\000"
 4967      746500
 4968              	.LASF38:
 4969 052d 5F5F746D 		.ascii	"__tm_year\000"
ARM GAS  /var/folders/d2/nstgp4h54kz7g1l847x_b8wc0000gn/T//cchv4K2w.s 			page 92


 4969      5F796561 
 4969      7200
 4970              	.LASF183:
 4971 0537 70617261 		.ascii	"parameter_msgpack_read\000"
 4971      6D657465 
 4971      725F6D73 
 4971      67706163 
 4971      6B5F7265 
 4972              	.LASF152:
 4973 054e 636D705F 		.ascii	"cmp_reader\000"
 4973      72656164 
 4973      657200
 4974              	.LASF172:
 4975 0559 636F6E66 		.ascii	"config_load\000"
 4975      69675F6C 
 4975      6F616400 
 4976              	.LASF2:
 4977 0565 6C6F6E67 		.ascii	"long double\000"
 4977      20646F75 
 4977      626C6500 
 4978              	.LASF188:
 4979 0571 666C6173 		.ascii	"flash_lock\000"
 4979      685F6C6F 
 4979      636B00
 4980              	.LASF153:
 4981 057c 636D705F 		.ascii	"cmp_ctx_s\000"
 4981      6374785F 
 4981      7300
 4982              	.LASF119:
 4983 0586 5F6E6578 		.ascii	"_nextf\000"
 4983      746600
 4984              	.LASF164:
 4985 058d 636F6E66 		.ascii	"config_block_find_last_used\000"
 4985      69675F62 
 4985      6C6F636B 
 4985      5F66696E 
 4985      645F6C61 
 4986              	.LASF178:
 4987 05a9 6F726967 		.ascii	"orig_dst\000"
 4987      5F647374 
 4987      00
 4988              	.LASF37:
 4989 05b2 5F5F746D 		.ascii	"__tm_mon\000"
 4989      5F6D6F6E 
 4989      00
 4990              	.LASF47:
 4991 05bb 5F617465 		.ascii	"_atexit\000"
 4991      78697400 
 4992              	.LASF130:
 4993 05c3 7375626F 		.ascii	"suboptarg\000"
 4993      70746172 
 4993      6700
 4994              	.LASF79:
 4995 05cd 5F5F7364 		.ascii	"__sdidinit\000"
 4995      6964696E 
 4995      697400
 4996              	.LASF16:
ARM GAS  /var/folders/d2/nstgp4h54kz7g1l847x_b8wc0000gn/T//cchv4K2w.s 			page 93


 4997 05d8 5F6F6666 		.ascii	"_off_t\000"
 4997      5F7400
 4998              	.LASF191:
 4999 05df 2E2E2F65 		.ascii	"../e-puck2_main-processor/src/config_flash_storage."
 4999      2D707563 
 4999      6B325F6D 
 4999      61696E2D 
 4999      70726F63 
 5000 0612 6300     		.ascii	"c\000"
 5001              	.LASF126:
 5002 0614 75696E74 		.ascii	"uint8_t\000"
 5002      385F7400 
 5003              	.LASF155:
 5004 061c 72656164 		.ascii	"read\000"
 5004      00
 5005              	.LASF148:
 5006 0621 666C6F61 		.ascii	"float\000"
 5006      7400
 5007              	.LASF84:
 5008 0627 5F667265 		.ascii	"_freelist\000"
 5008      656C6973 
 5008      7400
 5009              	.LASF154:
 5010 0631 6572726F 		.ascii	"error\000"
 5010      7200
 5011              	.LASF171:
 5012 0637 636F6E66 		.ascii	"config_block_is_valid\000"
 5012      69675F62 
 5012      6C6F636B 
 5012      5F69735F 
 5012      76616C69 
 5013              	.LASF109:
 5014 064d 5F776374 		.ascii	"_wctomb_state\000"
 5014      6F6D625F 
 5014      73746174 
 5014      6500
 5015              	.LASF151:
 5016 065b 5F426F6F 		.ascii	"_Bool\000"
 5016      6C00
 5017              	.LASF128:
 5018 0661 696E7433 		.ascii	"int32_t\000"
 5018      325F7400 
 5019              	.LASF6:
 5020 0669 756E7369 		.ascii	"unsigned char\000"
 5020      676E6564 
 5020      20636861 
 5020      7200
 5021              	.LASF173:
 5022 0677 7372635F 		.ascii	"src_len\000"
 5022      6C656E00 
 5023              	.LASF87:
 5024 067f 5F6E6577 		.ascii	"_new\000"
 5024      00
 5025              	.LASF189:
 5026 0684 666C6173 		.ascii	"flash_sector_erase\000"
 5026      685F7365 
 5026      63746F72 
ARM GAS  /var/folders/d2/nstgp4h54kz7g1l847x_b8wc0000gn/T//cchv4K2w.s 			page 94


 5026      5F657261 
 5026      736500
 5027              	.LASF118:
 5028 0697 5F685F65 		.ascii	"_h_errno\000"
 5028      72726E6F 
 5028      00
 5029              	.LASF7:
 5030 06a0 73686F72 		.ascii	"short int\000"
 5030      7420696E 
 5030      7400
 5031              	.LASF40:
 5032 06aa 5F5F746D 		.ascii	"__tm_yday\000"
 5032      5F796461 
 5032      7900
 5033              	.LASF50:
 5034 06b4 5F5F7362 		.ascii	"__sbuf\000"
 5034      756600
 5035              	.LASF146:
 5036 06bb 5F706172 		.ascii	"_param_val_vector_s\000"
 5036      616D5F76 
 5036      616C5F76 
 5036      6563746F 
 5036      725F7300 
 5037              	.LASF95:
 5038 06cf 5F696F62 		.ascii	"_iobs\000"
 5038      7300
 5039              	.LASF92:
 5040 06d5 5F5F4649 		.ascii	"__FILE\000"
 5040      4C4500
 5041              	.LASF23:
 5042 06dc 5F6D6273 		.ascii	"_mbstate_t\000"
 5042      74617465 
 5042      5F7400
 5043              	.LASF53:
 5044 06e7 5F5F7346 		.ascii	"__sFILE\000"
 5044      494C4500 
 5045              	.LASF68:
 5046 06ef 5F6D6273 		.ascii	"_mbstate\000"
 5046      74617465 
 5046      00
 5047              	.LASF105:
 5048 06f8 5F72616E 		.ascii	"_rand_next\000"
 5048      645F6E65 
 5048      787400
 5049              	.LASF135:
 5050 0703 73756273 		.ascii	"subspaces\000"
 5050      70616365 
 5050      7300
 5051              	.LASF107:
 5052 070d 5F6D626C 		.ascii	"_mblen_state\000"
 5052      656E5F73 
 5052      74617465 
 5052      00
 5053              	.LASF75:
 5054 071a 5F696E63 		.ascii	"_inc\000"
 5054      00
 5055              	.LASF48:
ARM GAS  /var/folders/d2/nstgp4h54kz7g1l847x_b8wc0000gn/T//cchv4K2w.s 			page 95


 5056 071f 5F696E64 		.ascii	"_ind\000"
 5056      00
 5057              	.LASF78:
 5058 0724 5F6C6F63 		.ascii	"_locale\000"
 5058      616C6500 
 5059              	.LASF80:
 5060 072c 5F5F636C 		.ascii	"__cleanup\000"
 5060      65616E75 
 5060      7000
 5061              	.LASF77:
 5062 0736 5F756E73 		.ascii	"_unspecified_locale_info\000"
 5062      70656369 
 5062      66696564 
 5062      5F6C6F63 
 5062      616C655F 
 5063              	.LASF195:
 5064 074f 5F5F7374 		.ascii	"__stack_chk_fail\000"
 5064      61636B5F 
 5064      63686B5F 
 5064      6661696C 
 5064      00
 5065              	.LASF28:
 5066 0760 5F6D6178 		.ascii	"_maxwds\000"
 5066      77647300 
 5067              	.LASF70:
 5068 0768 5F726565 		.ascii	"_reent\000"
 5068      6E7400
 5069              	.LASF97:
 5070 076f 5F736565 		.ascii	"_seed\000"
 5070      6400
 5071              	.LASF194:
 5072 0775 636D705F 		.ascii	"cmp_flash_writer\000"
 5072      666C6173 
 5072      685F7772 
 5072      69746572 
 5072      00
 5073              	.LASF21:
 5074 0786 5F5F636F 		.ascii	"__count\000"
 5074      756E7400 
 5075              	.LASF122:
 5076 078e 5F5F6C6F 		.ascii	"__lock\000"
 5076      636B00
 5077              	.LASF22:
 5078 0795 5F5F7661 		.ascii	"__value\000"
 5078      6C756500 
 5079              	.LASF60:
 5080 079d 5F736565 		.ascii	"_seek\000"
 5080      6B00
 5081              	.LASF124:
 5082 07a3 5F696D70 		.ascii	"_impure_ptr\000"
 5082      7572655F 
 5082      70747200 
 5083              	.LASF17:
 5084 07af 5F66706F 		.ascii	"_fpos_t\000"
 5084      735F7400 
 5085              	.LASF170:
 5086 07b7 6C656E67 		.ascii	"length\000"
ARM GAS  /var/folders/d2/nstgp4h54kz7g1l847x_b8wc0000gn/T//cchv4K2w.s 			page 96


 5086      746800
 5087              	.LASF71:
 5088 07be 5F657272 		.ascii	"_errno\000"
 5088      6E6F00
 5089              	.LASF25:
 5090 07c5 63686172 		.ascii	"char\000"
 5090      00
 5091              	.LASF34:
 5092 07ca 5F5F746D 		.ascii	"__tm_min\000"
 5092      5F6D696E 
 5092      00
 5093              	.LASF8:
 5094 07d3 5F5F7569 		.ascii	"__uint16_t\000"
 5094      6E743136 
 5094      5F7400
 5095              	.LASF150:
 5096 07de 76656374 		.ascii	"vect\000"
 5096      00
 5097              	.LASF10:
 5098 07e3 5F5F696E 		.ascii	"__int32_t\000"
 5098      7433325F 
 5098      7400
 5099              	.LASF98:
 5100 07ed 5F6D756C 		.ascii	"_mult\000"
 5100      7400
 5101              	.LASF27:
 5102 07f3 5F6E6578 		.ascii	"_next\000"
 5102      7400
 5103              	.LASF101:
 5104 07f9 5F737472 		.ascii	"_strtok_last\000"
 5104      746F6B5F 
 5104      6C617374 
 5104      00
 5105              	.LASF169:
 5106 0806 6F666673 		.ascii	"offset\000"
 5106      657400
 5107              	.LASF192:
 5108 080d 2F557365 		.ascii	"/Users/bharathkeshavamurthy/Workspaces/Talos/src/ma"
 5108      72732F62 
 5108      68617261 
 5108      74686B65 
 5108      73686176 
 5109 0840 696E2F63 		.ascii	"in/cpp/org/purdue/ece/talos/optimize\000"
 5109      70702F6F 
 5109      72672F70 
 5109      75726475 
 5109      652F6563 
 5110              	.LASF45:
 5111 0865 5F666E74 		.ascii	"_fntypes\000"
 5111      79706573 
 5111      00
 5112              	.LASF133:
 5113 086e 6368616E 		.ascii	"changed_cnt\000"
 5113      6765645F 
 5113      636E7400 
 5114              	.LASF99:
 5115 087a 5F616464 		.ascii	"_add\000"
ARM GAS  /var/folders/d2/nstgp4h54kz7g1l847x_b8wc0000gn/T//cchv4K2w.s 			page 97


 5115      00
 5116              	.LASF26:
 5117 087f 5F5F554C 		.ascii	"__ULong\000"
 5117      6F6E6700 
 5118              	.LASF185:
 5119 0887 636D705F 		.ascii	"cmp_mem_access_init\000"
 5119      6D656D5F 
 5119      61636365 
 5119      73735F69 
 5119      6E697400 
 5120              	.LASF125:
 5121 089b 5F676C6F 		.ascii	"_global_impure_ptr\000"
 5121      62616C5F 
 5121      696D7075 
 5121      72655F70 
 5121      747200
 5122              	.LASF129:
 5123 08ae 75696E74 		.ascii	"uint32_t\000"
 5123      33325F74 
 5123      00
 5124              	.LASF186:
 5125 08b7 70617261 		.ascii	"parameter_msgpack_write_cmp\000"
 5125      6D657465 
 5125      725F6D73 
 5125      67706163 
 5125      6B5F7772 
 5126              	.LASF100:
 5127 08d3 5F756E75 		.ascii	"_unused_rand\000"
 5127      7365645F 
 5127      72616E64 
 5127      00
 5128              	.LASF30:
 5129 08e0 5F776473 		.ascii	"_wds\000"
 5129      00
 5130              	.LASF39:
 5131 08e5 5F5F746D 		.ascii	"__tm_wday\000"
 5131      5F776461 
 5131      7900
 5132              	.LASF93:
 5133 08ef 5F676C75 		.ascii	"_glue\000"
 5133      6500
 5134              	.LASF120:
 5135 08f5 5F6E6D61 		.ascii	"_nmalloc\000"
 5135      6C6C6F63 
 5135      00
 5136              	.LASF110:
 5137 08fe 5F6C3634 		.ascii	"_l64a_buf\000"
 5137      615F6275 
 5137      6600
 5138              	.LASF89:
 5139 0908 5F736967 		.ascii	"_sig_func\000"
 5139      5F66756E 
 5139      6300
 5140              	.LASF174:
 5141 0912 636F6E66 		.ascii	"config_write_block_header\000"
 5141      69675F77 
 5141      72697465 
ARM GAS  /var/folders/d2/nstgp4h54kz7g1l847x_b8wc0000gn/T//cchv4K2w.s 			page 98


 5141      5F626C6F 
 5141      636B5F68 
 5142              	.LASF63:
 5143 092c 5F6E6275 		.ascii	"_nbuf\000"
 5143      6600
 5144              	.LASF121:
 5145 0932 5F756E75 		.ascii	"_unused\000"
 5145      73656400 
 5146              	.LASF41:
 5147 093a 5F5F746D 		.ascii	"__tm_isdst\000"
 5147      5F697364 
 5147      737400
 5148              	.LASF103:
 5149 0945 5F6C6F63 		.ascii	"_localtime_buf\000"
 5149      616C7469 
 5149      6D655F62 
 5149      756600
 5150              	.LASF61:
 5151 0954 5F636C6F 		.ascii	"_close\000"
 5151      736500
 5152              	.LASF106:
 5153 095b 5F723438 		.ascii	"_r48\000"
 5153      00
 5154              	.LASF108:
 5155 0960 5F6D6274 		.ascii	"_mbtowc_state\000"
 5155      6F77635F 
 5155      73746174 
 5155      6500
 5156              	.LASF83:
 5157 096e 5F703573 		.ascii	"_p5s\000"
 5157      00
 5158              	.LASF158:
 5159 0973 646F7562 		.ascii	"double\000"
 5159      6C6500
 5160              	.LASF168:
 5161 097a 68656164 		.ascii	"header\000"
 5161      657200
 5162              	.LASF36:
 5163 0981 5F5F746D 		.ascii	"__tm_mday\000"
 5163      5F6D6461 
 5163      7900
 5164              	.LASF182:
 5165 098b 666C6173 		.ascii	"flash_write\000"
 5165      685F7772 
 5165      69746500 
 5166              	.LASF177:
 5167 0997 73756363 		.ascii	"success\000"
 5167      65737300 
 5168              		.ident	"GCC: (GNU Tools for Arm Embedded Processors 7-2017-q4-major) 7.2.1 20170904 (release) [ARM
ARM GAS  /var/folders/d2/nstgp4h54kz7g1l847x_b8wc0000gn/T//cchv4K2w.s 			page 99


DEFINED SYMBOLS
                            *ABS*:0000000000000000 config_flash_storage.c
/var/folders/d2/nstgp4h54kz7g1l847x_b8wc0000gn/T//cchv4K2w.s:18     .text.err_mark_false:0000000000000000 $t
/var/folders/d2/nstgp4h54kz7g1l847x_b8wc0000gn/T//cchv4K2w.s:25     .text.err_mark_false:0000000000000000 err_mark_false
/var/folders/d2/nstgp4h54kz7g1l847x_b8wc0000gn/T//cchv4K2w.s:64     .text.err_mark_false:0000000000000020 $d
/var/folders/d2/nstgp4h54kz7g1l847x_b8wc0000gn/T//cchv4K2w.s:69     .text.cmp_flash_writer:0000000000000000 $t
/var/folders/d2/nstgp4h54kz7g1l847x_b8wc0000gn/T//cchv4K2w.s:76     .text.cmp_flash_writer:0000000000000000 cmp_flash_writer
/var/folders/d2/nstgp4h54kz7g1l847x_b8wc0000gn/T//cchv4K2w.s:147    .text.cmp_flash_writer:000000000000003c $d
/var/folders/d2/nstgp4h54kz7g1l847x_b8wc0000gn/T//cchv4K2w.s:152    .text.config_erase:0000000000000000 $t
/var/folders/d2/nstgp4h54kz7g1l847x_b8wc0000gn/T//cchv4K2w.s:160    .text.config_erase:0000000000000000 config_erase
/var/folders/d2/nstgp4h54kz7g1l847x_b8wc0000gn/T//cchv4K2w.s:212    .text.config_erase:000000000000002c $d
/var/folders/d2/nstgp4h54kz7g1l847x_b8wc0000gn/T//cchv4K2w.s:217    .text.config_block_is_valid:0000000000000000 $t
/var/folders/d2/nstgp4h54kz7g1l847x_b8wc0000gn/T//cchv4K2w.s:225    .text.config_block_is_valid:0000000000000000 config_block_is_valid
/var/folders/d2/nstgp4h54kz7g1l847x_b8wc0000gn/T//cchv4K2w.s:303    .text.config_block_is_valid:000000000000004c $d
/var/folders/d2/nstgp4h54kz7g1l847x_b8wc0000gn/T//cchv4K2w.s:309    .text.config_load:0000000000000000 $t
/var/folders/d2/nstgp4h54kz7g1l847x_b8wc0000gn/T//cchv4K2w.s:317    .text.config_load:0000000000000000 config_load
/var/folders/d2/nstgp4h54kz7g1l847x_b8wc0000gn/T//cchv4K2w.s:399    .text.config_load:0000000000000050 $d
/var/folders/d2/nstgp4h54kz7g1l847x_b8wc0000gn/T//cchv4K2w.s:404    .text.config_write_block_header:0000000000000000 $t
/var/folders/d2/nstgp4h54kz7g1l847x_b8wc0000gn/T//cchv4K2w.s:412    .text.config_write_block_header:0000000000000000 config_write_block_header
/var/folders/d2/nstgp4h54kz7g1l847x_b8wc0000gn/T//cchv4K2w.s:493    .text.config_write_block_header:000000000000005c $d
/var/folders/d2/nstgp4h54kz7g1l847x_b8wc0000gn/T//cchv4K2w.s:499    .text.config_save:0000000000000000 $t
/var/folders/d2/nstgp4h54kz7g1l847x_b8wc0000gn/T//cchv4K2w.s:507    .text.config_save:0000000000000000 config_save
/var/folders/d2/nstgp4h54kz7g1l847x_b8wc0000gn/T//cchv4K2w.s:698    .text.config_save:00000000000000cc $d
/var/folders/d2/nstgp4h54kz7g1l847x_b8wc0000gn/T//cchv4K2w.s:705    .text.config_block_get_length:0000000000000000 $t
/var/folders/d2/nstgp4h54kz7g1l847x_b8wc0000gn/T//cchv4K2w.s:713    .text.config_block_get_length:0000000000000000 config_block_get_length
/var/folders/d2/nstgp4h54kz7g1l847x_b8wc0000gn/T//cchv4K2w.s:750    .text.config_block_get_length:0000000000000020 $d
/var/folders/d2/nstgp4h54kz7g1l847x_b8wc0000gn/T//cchv4K2w.s:755    .text.config_block_find_last_used:0000000000000000 $t
/var/folders/d2/nstgp4h54kz7g1l847x_b8wc0000gn/T//cchv4K2w.s:763    .text.config_block_find_last_used:0000000000000000 config_block_find_last_used
/var/folders/d2/nstgp4h54kz7g1l847x_b8wc0000gn/T//cchv4K2w.s:823    .text.config_block_find_last_used:0000000000000034 $d
/var/folders/d2/nstgp4h54kz7g1l847x_b8wc0000gn/T//cchv4K2w.s:828    .text.config_block_find_first_free:0000000000000000 $t
/var/folders/d2/nstgp4h54kz7g1l847x_b8wc0000gn/T//cchv4K2w.s:836    .text.config_block_find_first_free:0000000000000000 config_block_find_first_free
/var/folders/d2/nstgp4h54kz7g1l847x_b8wc0000gn/T//cchv4K2w.s:891    .text.config_block_find_first_free:0000000000000030 $d

UNDEFINED SYMBOLS
__stack_chk_fail
__stack_chk_guard
flash_write
flash_unlock
flash_sector_erase
flash_lock
crc32
parameter_msgpack_read
cmp_mem_access_init
parameter_msgpack_write_cmp
cmp_mem_access_get_pos
