ARM GAS  /var/folders/d2/nstgp4h54kz7g1l847x_b8wc0000gn/T//ccGEmYto.s 			page 1


   1              		.cpu cortex-m4
   2              		.eabi_attribute 27, 1
   3              		.eabi_attribute 28, 1
   4              		.eabi_attribute 20, 1
   5              		.eabi_attribute 21, 1
   6              		.eabi_attribute 23, 3
   7              		.eabi_attribute 24, 1
   8              		.eabi_attribute 25, 1
   9              		.eabi_attribute 26, 1
  10              		.eabi_attribute 30, 2
  11              		.eabi_attribute 34, 1
  12              		.eabi_attribute 18, 4
  13              		.file	"crc16.c"
  14              		.text
  15              	.Ltext0:
  16              		.cfi_sections	.debug_frame
  17              		.section	.text.crc16,"ax",%progbits
  18              		.align	1
  19              		.p2align 4,,15
  20              		.global	crc16
  21              		.syntax unified
  22              		.thumb
  23              		.thumb_func
  24              		.fpu fpv4-sp-d16
  25              		.type	crc16, %function
  26              	crc16:
  27              	.LFB0:
  28              		.file 1 "../e-puck2_main-processor/src/crc/crc16.c"
  29              		.loc 1 8 0
  30              		.cfi_startproc
  31              		@ args = 0, pretend = 0, frame = 8
  32              		@ frame_needed = 0, uses_anonymous_args = 0
  33              	.LVL0:
  34 0000 70B5     		push	{r4, r5, r6, lr}
  35              		.cfi_def_cfa_offset 16
  36              		.cfi_offset 4, -16
  37              		.cfi_offset 5, -12
  38              		.cfi_offset 6, -8
  39              		.cfi_offset 14, -4
  40 0002 0F4E     		ldr	r6, .L15
  41 0004 82B0     		sub	sp, sp, #8
  42              		.cfi_def_cfa_offset 24
  43 0006 0A44     		add	r2, r2, r1
  44              	.LVL1:
  45              		.loc 1 8 0
  46 0008 3368     		ldr	r3, [r6]
  47 000a 0193     		str	r3, [sp, #4]
  48              	.LVL2:
  49              		.loc 1 11 0
  50 000c 9142     		cmp	r1, r2
  51              	.LBB2:
  52              		.loc 1 16 0
  53 000e 4AF20105 		movw	r5, #40961
  54              	.LVL3:
  55              	.LBE2:
  56              		.loc 1 11 0
  57 0012 0DD0     		beq	.L13
ARM GAS  /var/folders/d2/nstgp4h54kz7g1l847x_b8wc0000gn/T//ccGEmYto.s 			page 2


  58              	.LVL4:
  59              	.L5:
  60              	.LBB3:
  61              		.loc 1 13 0
  62 0014 11F8014B 		ldrb	r4, [r1], #1	@ zero_extendqisi2
  63              	.LVL5:
  64 0018 0823     		movs	r3, #8
  65 001a 6040     		eors	r0, r0, r4
  66              	.LVL6:
  67              	.L4:
  68 001c 00F00104 		and	r4, r0, #1
  69 0020 4008     		lsrs	r0, r0, #1
  70              	.LVL7:
  71              		.loc 1 15 0
  72 0022 0CB1     		cbz	r4, .L3
  73              		.loc 1 16 0
  74 0024 6840     		eors	r0, r0, r5
  75 0026 80B2     		uxth	r0, r0
  76              	.LVL8:
  77              	.L3:
  78              		.loc 1 14 0 discriminator 2
  79 0028 013B     		subs	r3, r3, #1
  80              	.LVL9:
  81 002a F7D1     		bne	.L4
  82              	.LVL10:
  83              	.LBE3:
  84              		.loc 1 11 0
  85 002c 9142     		cmp	r1, r2
  86 002e F1D1     		bne	.L5
  87              	.LVL11:
  88              	.L13:
  89              		.loc 1 23 0
  90 0030 019A     		ldr	r2, [sp, #4]
  91 0032 3368     		ldr	r3, [r6]
  92 0034 9A42     		cmp	r2, r3
  93 0036 01D1     		bne	.L14
  94 0038 02B0     		add	sp, sp, #8
  95              		.cfi_remember_state
  96              		.cfi_def_cfa_offset 16
  97              		@ sp needed
  98 003a 70BD     		pop	{r4, r5, r6, pc}
  99              	.L14:
 100              		.cfi_restore_state
 101 003c FFF7FEFF 		bl	__stack_chk_fail
 102              	.LVL12:
 103              	.L16:
 104              		.align	2
 105              	.L15:
 106 0040 00000000 		.word	__stack_chk_guard
 107              		.cfi_endproc
 108              	.LFE0:
 109              		.size	crc16, .-crc16
 110              		.text
 111              	.Letext0:
 112              		.file 2 "/Applications/Eclipse_e-puck2.app/Contents/Eclipse_e-puck2/Tools/gcc-arm-none-eabi-7-2017
 113              		.file 3 "/Applications/Eclipse_e-puck2.app/Contents/Eclipse_e-puck2/Tools/gcc-arm-none-eabi-7-2017
 114              		.file 4 "/Applications/Eclipse_e-puck2.app/Contents/Eclipse_e-puck2/Tools/gcc-arm-none-eabi-7-2017
ARM GAS  /var/folders/d2/nstgp4h54kz7g1l847x_b8wc0000gn/T//ccGEmYto.s 			page 3

