ARM GAS  /var/folders/d2/nstgp4h54kz7g1l847x_b8wc0000gn/T//ccQuHHAq.s 			page 1


   1              		.cpu cortex-m4
   2              		.eabi_attribute 27, 1
   3              		.eabi_attribute 28, 1
   4              		.eabi_attribute 20, 1
   5              		.eabi_attribute 21, 1
   6              		.eabi_attribute 23, 3
   7              		.eabi_attribute 24, 1
   8              		.eabi_attribute 25, 1
   9              		.eabi_attribute 26, 1
  10              		.eabi_attribute 30, 6
  11              		.eabi_attribute 34, 1
  12              		.eabi_attribute 18, 4
  13              		.file	"crc32.c"
  14              		.section	.text.crc32,"ax",%progbits
  15              		.align	1
  16              		.global	crc32
  17              		.syntax unified
  18              		.thumb
  19              		.thumb_func
  20              		.fpu fpv4-sp-d16
  21              		.type	crc32, %function
  22              	crc32:
  23              		@ args = 0, pretend = 0, frame = 32
  24              		@ frame_needed = 1, uses_anonymous_args = 0
  25              		@ link register save eliminated.
  26 0000 80B4     		push	{r7}
  27 0002 89B0     		sub	sp, sp, #36
  28 0004 00AF     		add	r7, sp, #0
  29 0006 F860     		str	r0, [r7, #12]
  30 0008 B960     		str	r1, [r7, #8]
  31 000a 7A60     		str	r2, [r7, #4]
  32 000c BB68     		ldr	r3, [r7, #8]
  33 000e 3B61     		str	r3, [r7, #16]
  34 0010 FB68     		ldr	r3, [r7, #12]
  35 0012 DB43     		mvns	r3, r3
  36 0014 FB61     		str	r3, [r7, #28]
  37 0016 0023     		movs	r3, #0
  38 0018 BB61     		str	r3, [r7, #24]
  39 001a 23E0     		b	.L2
  40              	.L7:
  41 001c 0023     		movs	r3, #0
  42 001e 7B61     		str	r3, [r7, #20]
  43 0020 1AE0     		b	.L3
  44              	.L6:
  45 0022 3A69     		ldr	r2, [r7, #16]
  46 0024 BB69     		ldr	r3, [r7, #24]
  47 0026 1344     		add	r3, r3, r2
  48 0028 1B78     		ldrb	r3, [r3]	@ zero_extendqisi2
  49 002a 1A46     		mov	r2, r3
  50 002c 7B69     		ldr	r3, [r7, #20]
  51 002e 42FA03F3 		asr	r3, r2, r3
  52 0032 1A46     		mov	r2, r3
  53 0034 FB69     		ldr	r3, [r7, #28]
  54 0036 5340     		eors	r3, r3, r2
  55 0038 03F00103 		and	r3, r3, #1
  56 003c 002B     		cmp	r3, #0
  57 003e 05D0     		beq	.L4
ARM GAS  /var/folders/d2/nstgp4h54kz7g1l847x_b8wc0000gn/T//ccQuHHAq.s 			page 2


  58 0040 FB69     		ldr	r3, [r7, #28]
  59 0042 5A08     		lsrs	r2, r3, #1
  60 0044 0D4B     		ldr	r3, .L9
  61 0046 5340     		eors	r3, r3, r2
  62 0048 FB61     		str	r3, [r7, #28]
  63 004a 02E0     		b	.L5
  64              	.L4:
  65 004c FB69     		ldr	r3, [r7, #28]
  66 004e 5B08     		lsrs	r3, r3, #1
  67 0050 FB61     		str	r3, [r7, #28]
  68              	.L5:
  69 0052 7B69     		ldr	r3, [r7, #20]
  70 0054 0133     		adds	r3, r3, #1
  71 0056 7B61     		str	r3, [r7, #20]
  72              	.L3:
  73 0058 7B69     		ldr	r3, [r7, #20]
  74 005a 072B     		cmp	r3, #7
  75 005c E1DD     		ble	.L6
  76 005e BB69     		ldr	r3, [r7, #24]
  77 0060 0133     		adds	r3, r3, #1
  78 0062 BB61     		str	r3, [r7, #24]
  79              	.L2:
  80 0064 BA69     		ldr	r2, [r7, #24]
  81 0066 7B68     		ldr	r3, [r7, #4]
  82 0068 9A42     		cmp	r2, r3
  83 006a D7D3     		bcc	.L7
  84 006c FB69     		ldr	r3, [r7, #28]
  85 006e DB43     		mvns	r3, r3
  86 0070 1846     		mov	r0, r3
  87 0072 2437     		adds	r7, r7, #36
  88 0074 BD46     		mov	sp, r7
  89              		@ sp needed
  90 0076 5DF8047B 		ldr	r7, [sp], #4
  91 007a 7047     		bx	lr
  92              	.L10:
  93              		.align	2
  94              	.L9:
  95 007c 2083B8ED 		.word	-306674912
  96              		.size	crc32, .-crc32
  97              		.ident	"GCC: (GNU Tools for Arm Embedded Processors 7-2017-q4-major) 7.2.1 20170904 (release) [ARM
ARM GAS  /var/folders/d2/nstgp4h54kz7g1l847x_b8wc0000gn/T//ccQuHHAq.s 			page 3


DEFINED SYMBOLS
                            *ABS*:0000000000000000 crc32.c
/var/folders/d2/nstgp4h54kz7g1l847x_b8wc0000gn/T//ccQuHHAq.s:15     .text.crc32:0000000000000000 $t
/var/folders/d2/nstgp4h54kz7g1l847x_b8wc0000gn/T//ccQuHHAq.s:22     .text.crc32:0000000000000000 crc32
/var/folders/d2/nstgp4h54kz7g1l847x_b8wc0000gn/T//ccQuHHAq.s:95     .text.crc32:000000000000007c $d

NO UNDEFINED SYMBOLS
