ARM GAS  /var/folders/d2/nstgp4h54kz7g1l847x_b8wc0000gn/T//ccq6LKyl.s 			page 1


   1              		.cpu cortex-m4
   2              		.eabi_attribute 27, 1
   3              		.eabi_attribute 28, 1
   4              		.eabi_attribute 20, 1
   5              		.eabi_attribute 21, 1
   6              		.eabi_attribute 23, 3
   7              		.eabi_attribute 24, 1
   8              		.eabi_attribute 25, 1
   9              		.eabi_attribute 26, 1
  10              		.eabi_attribute 30, 2
  11              		.eabi_attribute 34, 1
  12              		.eabi_attribute 18, 4
  13              		.file	"crt1.c"
  14              		.text
  15              	.Ltext0:
  16              		.cfi_sections	.debug_frame
  17              		.section	.text.__early_init,"ax",%progbits
  18              		.align	1
  19              		.p2align 4,,15
  20              		.weak	__early_init
  21              		.syntax unified
  22              		.thumb
  23              		.thumb_func
  24              		.fpu fpv4-sp-d16
  25              		.type	__early_init, %function
  26              	__early_init:
  27              	.LFB0:
  28              		.file 1 "../e-puck2_main-processor/ChibiOS//os/common/ports/ARMCMx/compilers/GCC/crt1.c"
  29              		.loc 1 41 0
  30              		.cfi_startproc
  31              		@ args = 0, pretend = 0, frame = 8
  32              		@ frame_needed = 0, uses_anonymous_args = 0
  33 0000 00B5     		push	{lr}
  34              		.cfi_def_cfa_offset 4
  35              		.cfi_offset 14, -4
  36 0002 064B     		ldr	r3, .L6
  37 0004 83B0     		sub	sp, sp, #12
  38              		.cfi_def_cfa_offset 16
  39              		.loc 1 41 0
  40 0006 1A68     		ldr	r2, [r3]
  41 0008 0192     		str	r2, [sp, #4]
  42 000a 019A     		ldr	r2, [sp, #4]
  43 000c 1B68     		ldr	r3, [r3]
  44 000e 9A42     		cmp	r2, r3
  45 0010 02D1     		bne	.L5
  46 0012 03B0     		add	sp, sp, #12
  47              		.cfi_remember_state
  48              		.cfi_def_cfa_offset 4
  49              		@ sp needed
  50 0014 5DF804FB 		ldr	pc, [sp], #4
  51              	.L5:
  52              		.cfi_restore_state
  53 0018 FFF7FEFF 		bl	__stack_chk_fail
  54              	.LVL0:
  55              	.L7:
  56              		.align	2
  57              	.L6:
ARM GAS  /var/folders/d2/nstgp4h54kz7g1l847x_b8wc0000gn/T//ccq6LKyl.s 			page 2


  58 001c 00000000 		.word	__stack_chk_guard
  59              		.cfi_endproc
  60              	.LFE0:
  61              		.size	__early_init, .-__early_init
  62              		.section	.text.__late_init,"ax",%progbits
  63              		.align	1
  64              		.p2align 4,,15
  65              		.weak	__late_init
  66              		.syntax unified
  67              		.thumb
  68              		.thumb_func
  69              		.fpu fpv4-sp-d16
  70              		.type	__late_init, %function
  71              	__late_init:
  72              	.LFB4:
  73              		.cfi_startproc
  74              		@ args = 0, pretend = 0, frame = 8
  75              		@ frame_needed = 0, uses_anonymous_args = 0
  76 0000 00B5     		push	{lr}
  77              		.cfi_def_cfa_offset 4
  78              		.cfi_offset 14, -4
  79 0002 064B     		ldr	r3, .L12
  80 0004 83B0     		sub	sp, sp, #12
  81              		.cfi_def_cfa_offset 16
  82 0006 1A68     		ldr	r2, [r3]
  83 0008 0192     		str	r2, [sp, #4]
  84 000a 019A     		ldr	r2, [sp, #4]
  85 000c 1B68     		ldr	r3, [r3]
  86 000e 9A42     		cmp	r2, r3
  87 0010 02D1     		bne	.L11
  88 0012 03B0     		add	sp, sp, #12
  89              		.cfi_remember_state
  90              		.cfi_def_cfa_offset 4
  91              		@ sp needed
  92 0014 5DF804FB 		ldr	pc, [sp], #4
  93              	.L11:
  94              		.cfi_restore_state
  95 0018 FFF7FEFF 		bl	__stack_chk_fail
  96              	.L13:
  97              		.align	2
  98              	.L12:
  99 001c 00000000 		.word	__stack_chk_guard
 100              		.cfi_endproc
 101              	.LFE4:
 102              		.size	__late_init, .-__late_init
 103              		.section	.text.__default_exit,"ax",%progbits
 104              		.align	1
 105              		.p2align 4,,15
 106              		.weak	__default_exit
 107              		.syntax unified
 108              		.thumb
 109              		.thumb_func
 110              		.fpu fpv4-sp-d16
 111              		.type	__default_exit, %function
 112              	__default_exit:
 113              	.LFB2:
 114              		.loc 1 68 0
ARM GAS  /var/folders/d2/nstgp4h54kz7g1l847x_b8wc0000gn/T//ccq6LKyl.s 			page 3


 115              		.cfi_startproc
 116              		@ Volatile: function does not return.
 117              		@ args = 0, pretend = 0, frame = 8
 118              		@ frame_needed = 0, uses_anonymous_args = 0
 119              		@ link register save eliminated.
 120              		.loc 1 68 0
 121 0000 024B     		ldr	r3, .L18
 122 0002 82B0     		sub	sp, sp, #8
 123              		.cfi_def_cfa_offset 8
 124              		.loc 1 68 0
 125 0004 1B68     		ldr	r3, [r3]
 126 0006 0193     		str	r3, [sp, #4]
 127              	.L15:
 128 0008 FEE7     		b	.L15
 129              	.L19:
 130 000a 00BF     		.align	2
 131              	.L18:
 132 000c 00000000 		.word	__stack_chk_guard
 133              		.cfi_endproc
 134              	.LFE2:
 135              		.size	__default_exit, .-__default_exit
 136              		.text
 137              	.Letext0:
 138              		.section	.debug_info,"",%progbits
 139              	.Ldebug_info0:
 140 0000 68000000 		.4byte	0x68
 141 0004 0400     		.2byte	0x4
 142 0006 00000000 		.4byte	.Ldebug_abbrev0
 143 000a 04       		.byte	0x4
 144 000b 01       		.uleb128 0x1
 145 000c D2000000 		.4byte	.LASF0
 146 0010 0C       		.byte	0xc
 147 0011 77000000 		.4byte	.LASF1
 148 0015 00000000 		.4byte	.LASF2
 149 0019 00000000 		.4byte	.Ldebug_ranges0+0
 150 001d 00000000 		.4byte	0
 151 0021 00000000 		.4byte	.Ldebug_line0
 152 0025 02       		.uleb128 0x2
 153 0026 16020000 		.4byte	.LASF3
 154 002a 01       		.byte	0x1
 155 002b 44       		.byte	0x44
 156 002c 00000000 		.4byte	.LFB2
 157 0030 10000000 		.4byte	.LFE2-.LFB2
 158 0034 01       		.uleb128 0x1
 159 0035 9C       		.byte	0x9c
 160 0036 03       		.uleb128 0x3
 161 0037 C6000000 		.4byte	.LASF4
 162 003b 01       		.byte	0x1
 163 003c 37       		.byte	0x37
 164 003d 04       		.uleb128 0x4
 165 003e 59000000 		.4byte	.LASF5
 166 0042 01       		.byte	0x1
 167 0043 29       		.byte	0x29
 168 0044 01       		.byte	0x1
 169 0045 05       		.uleb128 0x5
 170 0046 3D000000 		.4byte	0x3d
 171 004a 00000000 		.4byte	.LFB0
ARM GAS  /var/folders/d2/nstgp4h54kz7g1l847x_b8wc0000gn/T//ccq6LKyl.s 			page 4


 172 004e 20000000 		.4byte	.LFE0-.LFB0
 173 0052 01       		.uleb128 0x1
 174 0053 9C       		.byte	0x9c
 175 0054 62000000 		.4byte	0x62
 176 0058 06       		.uleb128 0x6
 177 0059 1C000000 		.4byte	.LVL0
 178 005d 62000000 		.4byte	0x62
 179 0061 00       		.byte	0
 180 0062 07       		.uleb128 0x7
 181 0063 66000000 		.4byte	.LASF6
 182 0067 66000000 		.4byte	.LASF6
 183 006b 00       		.byte	0
 184              		.section	.debug_abbrev,"",%progbits
 185              	.Ldebug_abbrev0:
 186 0000 01       		.uleb128 0x1
 187 0001 11       		.uleb128 0x11
 188 0002 01       		.byte	0x1
 189 0003 25       		.uleb128 0x25
 190 0004 0E       		.uleb128 0xe
 191 0005 13       		.uleb128 0x13
 192 0006 0B       		.uleb128 0xb
 193 0007 03       		.uleb128 0x3
 194 0008 0E       		.uleb128 0xe
 195 0009 1B       		.uleb128 0x1b
 196 000a 0E       		.uleb128 0xe
 197 000b 55       		.uleb128 0x55
 198 000c 17       		.uleb128 0x17
 199 000d 11       		.uleb128 0x11
 200 000e 01       		.uleb128 0x1
 201 000f 10       		.uleb128 0x10
 202 0010 17       		.uleb128 0x17
 203 0011 00       		.byte	0
 204 0012 00       		.byte	0
 205 0013 02       		.uleb128 0x2
 206 0014 2E       		.uleb128 0x2e
 207 0015 00       		.byte	0
 208 0016 3F       		.uleb128 0x3f
 209 0017 19       		.uleb128 0x19
 210 0018 03       		.uleb128 0x3
 211 0019 0E       		.uleb128 0xe
 212 001a 3A       		.uleb128 0x3a
 213 001b 0B       		.uleb128 0xb
 214 001c 3B       		.uleb128 0x3b
 215 001d 0B       		.uleb128 0xb
 216 001e 27       		.uleb128 0x27
 217 001f 19       		.uleb128 0x19
 218 0020 8701     		.uleb128 0x87
 219 0022 19       		.uleb128 0x19
 220 0023 11       		.uleb128 0x11
 221 0024 01       		.uleb128 0x1
 222 0025 12       		.uleb128 0x12
 223 0026 06       		.uleb128 0x6
 224 0027 40       		.uleb128 0x40
 225 0028 18       		.uleb128 0x18
 226 0029 9742     		.uleb128 0x2117
 227 002b 19       		.uleb128 0x19
 228 002c 00       		.byte	0
ARM GAS  /var/folders/d2/nstgp4h54kz7g1l847x_b8wc0000gn/T//ccq6LKyl.s 			page 5


 229 002d 00       		.byte	0
 230 002e 03       		.uleb128 0x3
 231 002f 2E       		.uleb128 0x2e
 232 0030 00       		.byte	0
 233 0031 3F       		.uleb128 0x3f
 234 0032 19       		.uleb128 0x19
 235 0033 03       		.uleb128 0x3
 236 0034 0E       		.uleb128 0xe
 237 0035 3A       		.uleb128 0x3a
 238 0036 0B       		.uleb128 0xb
 239 0037 3B       		.uleb128 0x3b
 240 0038 0B       		.uleb128 0xb
 241 0039 27       		.uleb128 0x27
 242 003a 19       		.uleb128 0x19
 243 003b 00       		.byte	0
 244 003c 00       		.byte	0
 245 003d 04       		.uleb128 0x4
 246 003e 2E       		.uleb128 0x2e
 247 003f 00       		.byte	0
 248 0040 3F       		.uleb128 0x3f
 249 0041 19       		.uleb128 0x19
 250 0042 03       		.uleb128 0x3
 251 0043 0E       		.uleb128 0xe
 252 0044 3A       		.uleb128 0x3a
 253 0045 0B       		.uleb128 0xb
 254 0046 3B       		.uleb128 0x3b
 255 0047 0B       		.uleb128 0xb
 256 0048 27       		.uleb128 0x27
 257 0049 19       		.uleb128 0x19
 258 004a 20       		.uleb128 0x20
 259 004b 0B       		.uleb128 0xb
 260 004c 00       		.byte	0
 261 004d 00       		.byte	0
 262 004e 05       		.uleb128 0x5
 263 004f 2E       		.uleb128 0x2e
 264 0050 01       		.byte	0x1
 265 0051 31       		.uleb128 0x31
 266 0052 13       		.uleb128 0x13
 267 0053 11       		.uleb128 0x11
 268 0054 01       		.uleb128 0x1
 269 0055 12       		.uleb128 0x12
 270 0056 06       		.uleb128 0x6
 271 0057 40       		.uleb128 0x40
 272 0058 18       		.uleb128 0x18
 273 0059 9742     		.uleb128 0x2117
 274 005b 19       		.uleb128 0x19
 275 005c 01       		.uleb128 0x1
 276 005d 13       		.uleb128 0x13
 277 005e 00       		.byte	0
 278 005f 00       		.byte	0
 279 0060 06       		.uleb128 0x6
 280 0061 898201   		.uleb128 0x4109
 281 0064 00       		.byte	0
 282 0065 11       		.uleb128 0x11
 283 0066 01       		.uleb128 0x1
 284 0067 31       		.uleb128 0x31
 285 0068 13       		.uleb128 0x13
ARM GAS  /var/folders/d2/nstgp4h54kz7g1l847x_b8wc0000gn/T//ccq6LKyl.s 			page 6


 286 0069 00       		.byte	0
 287 006a 00       		.byte	0
 288 006b 07       		.uleb128 0x7
 289 006c 2E       		.uleb128 0x2e
 290 006d 00       		.byte	0
 291 006e 3F       		.uleb128 0x3f
 292 006f 19       		.uleb128 0x19
 293 0070 3C       		.uleb128 0x3c
 294 0071 19       		.uleb128 0x19
 295 0072 6E       		.uleb128 0x6e
 296 0073 0E       		.uleb128 0xe
 297 0074 03       		.uleb128 0x3
 298 0075 0E       		.uleb128 0xe
 299 0076 00       		.byte	0
 300 0077 00       		.byte	0
 301 0078 00       		.byte	0
 302              		.section	.debug_aranges,"",%progbits
 303 0000 24000000 		.4byte	0x24
 304 0004 0200     		.2byte	0x2
 305 0006 00000000 		.4byte	.Ldebug_info0
 306 000a 04       		.byte	0x4
 307 000b 00       		.byte	0
 308 000c 0000     		.2byte	0
 309 000e 0000     		.2byte	0
 310 0010 00000000 		.4byte	.LFB0
 311 0014 20000000 		.4byte	.LFE0-.LFB0
 312 0018 00000000 		.4byte	.LFB2
 313 001c 10000000 		.4byte	.LFE2-.LFB2
 314 0020 00000000 		.4byte	0
 315 0024 00000000 		.4byte	0
 316              		.section	.debug_ranges,"",%progbits
 317              	.Ldebug_ranges0:
 318 0000 00000000 		.4byte	.LFB0
 319 0004 20000000 		.4byte	.LFE0
 320 0008 00000000 		.4byte	.LFB2
 321 000c 10000000 		.4byte	.LFE2
 322 0010 00000000 		.4byte	0
 323 0014 00000000 		.4byte	0
 324              		.section	.debug_line,"",%progbits
 325              	.Ldebug_line0:
 326 0000 8D000000 		.section	.debug_str,"MS",%progbits,1
 326      02006500 
 326      00000201 
 326      FB0E0D00 
 326      01010101 
 327              	.LASF2:
 328 0000 2F557365 		.ascii	"/Users/bharathkeshavamurthy/Workspaces/Talos/src/ma"
 328      72732F62 
 328      68617261 
 328      74686B65 
 328      73686176 
 329 0033 696E2F63 		.ascii	"in/cpp/org/purdue/ece/talos/optimize/\000"
 329      70702F6F 
 329      72672F70 
 329      75726475 
 329      652F6563 
 330              	.LASF5:
ARM GAS  /var/folders/d2/nstgp4h54kz7g1l847x_b8wc0000gn/T//ccq6LKyl.s 			page 7


 331 0059 5F5F6561 		.ascii	"__early_init\000"
 331      726C795F 
 331      696E6974 
 331      00
 332              	.LASF6:
 333 0066 5F5F7374 		.ascii	"__stack_chk_fail\000"
 333      61636B5F 
 333      63686B5F 
 333      6661696C 
 333      00
 334              	.LASF1:
 335 0077 2E2E2F65 		.ascii	"../e-puck2_main-processor/ChibiOS//os/common/ports/"
 335      2D707563 
 335      6B325F6D 
 335      61696E2D 
 335      70726F63 
 336 00aa 41524D43 		.ascii	"ARMCMx/compilers/GCC/crt1.c\000"
 336      4D782F63 
 336      6F6D7069 
 336      6C657273 
 336      2F474343 
 337              	.LASF4:
 338 00c6 5F5F6C61 		.ascii	"__late_init\000"
 338      74655F69 
 338      6E697400 
 339              	.LASF0:
 340 00d2 474E5520 		.ascii	"GNU C11 7.2.1 20170904 (release) [ARM/embedded-7-br"
 340      43313120 
 340      372E322E 
 340      31203230 
 340      31373039 
 341 0105 616E6368 		.ascii	"anch revision 255204] -mcpu=cortex-m4 -mfloat-abi=h"
 341      20726576 
 341      6973696F 
 341      6E203235 
 341      35323034 
 342 0138 61726420 		.ascii	"ard -mfpu=fpv4-sp-d16 -mno-thumb-interwork -mthumb "
 342      2D6D6670 
 342      753D6670 
 342      76342D73 
 342      702D6431 
 343 016b 2D676764 		.ascii	"-ggdb -O2 -fomit-frame-pointer -falign-functions=16"
 343      62202D4F 
 343      32202D66 
 343      6F6D6974 
 343      2D667261 
 344 019e 202D666E 		.ascii	" -fno-strict-aliasing -fstack-protector-all -ffunct"
 344      6F2D7374 
 344      72696374 
 344      2D616C69 
 344      6173696E 
 345 01d1 696F6E2D 		.ascii	"ion-sections -fdata-sections -fno-common -fsingle-p"
 345      73656374 
 345      696F6E73 
 345      202D6664 
 345      6174612D 
 346 0204 72656369 		.ascii	"recision-constant\000"
ARM GAS  /var/folders/d2/nstgp4h54kz7g1l847x_b8wc0000gn/T//ccq6LKyl.s 			page 8


 346      73696F6E 
 346      2D636F6E 
 346      7374616E 
 346      7400
 347              	.LASF3:
 348 0216 5F5F6465 		.ascii	"__default_exit\000"
 348      6661756C 
 348      745F6578 
 348      697400
 349              		.ident	"GCC: (GNU Tools for Arm Embedded Processors 7-2017-q4-major) 7.2.1 20170904 (release) [ARM
ARM GAS  /var/folders/d2/nstgp4h54kz7g1l847x_b8wc0000gn/T//ccq6LKyl.s 			page 9


DEFINED SYMBOLS
                            *ABS*:0000000000000000 crt1.c
/var/folders/d2/nstgp4h54kz7g1l847x_b8wc0000gn/T//ccq6LKyl.s:18     .text.__early_init:0000000000000000 $t
/var/folders/d2/nstgp4h54kz7g1l847x_b8wc0000gn/T//ccq6LKyl.s:26     .text.__early_init:0000000000000000 __early_init
/var/folders/d2/nstgp4h54kz7g1l847x_b8wc0000gn/T//ccq6LKyl.s:58     .text.__early_init:000000000000001c $d
/var/folders/d2/nstgp4h54kz7g1l847x_b8wc0000gn/T//ccq6LKyl.s:63     .text.__late_init:0000000000000000 $t
/var/folders/d2/nstgp4h54kz7g1l847x_b8wc0000gn/T//ccq6LKyl.s:71     .text.__late_init:0000000000000000 __late_init
/var/folders/d2/nstgp4h54kz7g1l847x_b8wc0000gn/T//ccq6LKyl.s:99     .text.__late_init:000000000000001c $d
/var/folders/d2/nstgp4h54kz7g1l847x_b8wc0000gn/T//ccq6LKyl.s:104    .text.__default_exit:0000000000000000 $t
/var/folders/d2/nstgp4h54kz7g1l847x_b8wc0000gn/T//ccq6LKyl.s:112    .text.__default_exit:0000000000000000 __default_exit
/var/folders/d2/nstgp4h54kz7g1l847x_b8wc0000gn/T//ccq6LKyl.s:132    .text.__default_exit:000000000000000c $d

UNDEFINED SYMBOLS
__stack_chk_fail
__stack_chk_guard
