ARM GAS  /var/folders/d2/nstgp4h54kz7g1l847x_b8wc0000gn/T//ccq6LKyl.s 			page 1


   1              		.cpu cortex-m4
   2              		.eabi_attribute 27, 1
   3              		.eabi_attribute 28, 1
   4              		.eabi_attribute 20, 1
   5              		.eabi_attribute 21, 1
   6              		.eabi_attribute 23, 3
   7              		.eabi_attribute 24, 1
   8              		.eabi_attribute 25, 1
   9              		.eabi_attribute 26, 1
  10              		.eabi_attribute 30, 2
  11              		.eabi_attribute 34, 1
  12              		.eabi_attribute 18, 4
  13              		.file	"crt1.c"
  14              		.text
  15              	.Ltext0:
  16              		.cfi_sections	.debug_frame
  17              		.section	.text.__early_init,"ax",%progbits
  18              		.align	1
  19              		.p2align 4,,15
  20              		.weak	__early_init
  21              		.syntax unified
  22              		.thumb
  23              		.thumb_func
  24              		.fpu fpv4-sp-d16
  25              		.type	__early_init, %function
  26              	__early_init:
  27              	.LFB0:
  28              		.file 1 "../e-puck2_main-processor/ChibiOS//os/common/ports/ARMCMx/compilers/GCC/crt1.c"
  29              		.loc 1 41 0
  30              		.cfi_startproc
  31              		@ args = 0, pretend = 0, frame = 8
  32              		@ frame_needed = 0, uses_anonymous_args = 0
  33 0000 00B5     		push	{lr}
  34              		.cfi_def_cfa_offset 4
  35              		.cfi_offset 14, -4
  36 0002 064B     		ldr	r3, .L6
  37 0004 83B0     		sub	sp, sp, #12
  38              		.cfi_def_cfa_offset 16
  39              		.loc 1 41 0
  40 0006 1A68     		ldr	r2, [r3]
  41 0008 0192     		str	r2, [sp, #4]
  42 000a 019A     		ldr	r2, [sp, #4]
  43 000c 1B68     		ldr	r3, [r3]
  44 000e 9A42     		cmp	r2, r3
  45 0010 02D1     		bne	.L5
  46 0012 03B0     		add	sp, sp, #12
  47              		.cfi_remember_state
  48              		.cfi_def_cfa_offset 4
  49              		@ sp needed
  50 0014 5DF804FB 		ldr	pc, [sp], #4
  51              	.L5:
  52              		.cfi_restore_state
  53 0018 FFF7FEFF 		bl	__stack_chk_fail
  54              	.LVL0:
  55              	.L7:
  56              		.align	2
  57              	.L6:
ARM GAS  /var/folders/d2/nstgp4h54kz7g1l847x_b8wc0000gn/T//ccq6LKyl.s 			page 2


  58 001c 00000000 		.word	__stack_chk_guard
  59              		.cfi_endproc
  60              	.LFE0:
  61              		.size	__early_init, .-__early_init
  62              		.section	.text.__late_init,"ax",%progbits
  63              		.align	1
  64              		.p2align 4,,15
  65              		.weak	__late_init
  66              		.syntax unified
  67              		.thumb
  68              		.thumb_func
  69              		.fpu fpv4-sp-d16
  70              		.type	__late_init, %function
  71              	__late_init:
  72              	.LFB4:
  73              		.cfi_startproc
  74              		@ args = 0, pretend = 0, frame = 8
  75              		@ frame_needed = 0, uses_anonymous_args = 0
  76 0000 00B5     		push	{lr}
  77              		.cfi_def_cfa_offset 4
  78              		.cfi_offset 14, -4
  79 0002 064B     		ldr	r3, .L12
  80 0004 83B0     		sub	sp, sp, #12
  81              		.cfi_def_cfa_offset 16
  82 0006 1A68     		ldr	r2, [r3]
  83 0008 0192     		str	r2, [sp, #4]
  84 000a 019A     		ldr	r2, [sp, #4]
  85 000c 1B68     		ldr	r3, [r3]
  86 000e 9A42     		cmp	r2, r3
  87 0010 02D1     		bne	.L11
  88 0012 03B0     		add	sp, sp, #12
  89              		.cfi_remember_state
  90              		.cfi_def_cfa_offset 4
  91              		@ sp needed
  92 0014 5DF804FB 		ldr	pc, [sp], #4
  93              	.L11:
  94              		.cfi_restore_state
  95 0018 FFF7FEFF 		bl	__stack_chk_fail
  96              	.L13:
  97              		.align	2
  98              	.L12:
  99 001c 00000000 		.word	__stack_chk_guard
 100              		.cfi_endproc
 101              	.LFE4:
 102              		.size	__late_init, .-__late_init
 103              		.section	.text.__default_exit,"ax",%progbits
 104              		.align	1
 105              		.p2align 4,,15
 106              		.weak	__default_exit
 107              		.syntax unified
 108              		.thumb
 109              		.thumb_func
 110              		.fpu fpv4-sp-d16
 111              		.type	__default_exit, %function
 112              	__default_exit:
 113              	.LFB2:
 114              		.loc 1 68 0
ARM GAS  /var/folders/d2/nstgp4h54kz7g1l847x_b8wc0000gn/T//ccq6LKyl.s 			page 3


 115              		.cfi_startproc
 116              		@ Volatile: function does not return.
 117              		@ args = 0, pretend = 0, frame = 8
 118              		@ frame_needed = 0, uses_anonymous_args = 0
 119              		@ link register save eliminated.
 120              		.loc 1 68 0
 121 0000 024B     		ldr	r3, .L18
 122 0002 82B0     		sub	sp, sp, #8
 123              		.cfi_def_cfa_offset 8
 124              		.loc 1 68 0
 125 0004 1B68     		ldr	r3, [r3]
 126 0006 0193     		str	r3, [sp, #4]
 127              	.L15:
 128 0008 FEE7     		b	.L15
 129              	.L19:
 130 000a 00BF     		.align	2
 131              	.L18:
 132 000c 00000000 		.word	__stack_chk_guard
 133              		.cfi_endproc
 134              	.LFE2:
 135              		.size	__default_exit, .-__default_exit
 136              		.text
 137              	.Letext0: