ARM GAS  /var/folders/d2/nstgp4h54kz7g1l847x_b8wc0000gn/T//ccDk1S5e.s 			page 1


   1              		.cpu cortex-m4
   2              		.eabi_attribute 27, 1
   3              		.eabi_attribute 28, 1
   4              		.eabi_attribute 20, 1
   5              		.eabi_attribute 21, 1
   6              		.eabi_attribute 23, 3
   7              		.eabi_attribute 24, 1
   8              		.eabi_attribute 25, 1
   9              		.eabi_attribute 26, 1
  10              		.eabi_attribute 30, 6
  11              		.eabi_attribute 34, 1
  12              		.eabi_attribute 18, 4
  13              		.file	"dac.c"
  14              		.section	.text.port_lock,"ax",%progbits
  15              		.align	1
  16              		.syntax unified
  17              		.thumb
  18              		.thumb_func
  19              		.fpu fpv4-sp-d16
  20              		.type	port_lock, %function
  21              	port_lock:
  22              		@ args = 0, pretend = 0, frame = 8
  23              		@ frame_needed = 1, uses_anonymous_args = 0
  24              		@ link register save eliminated.
  25 0000 80B4     		push	{r7}
  26 0002 83B0     		sub	sp, sp, #12
  27 0004 00AF     		add	r7, sp, #0
  28 0006 2023     		movs	r3, #32
  29 0008 7B60     		str	r3, [r7, #4]
  30 000a 7B68     		ldr	r3, [r7, #4]
  31              		.syntax unified
  32              	@ 546 "../e-puck2_main-processor/ChibiOS//os/ext/CMSIS/include/core_cmFunc.h" 1
  33 000c 83F31188 		MSR basepri, r3
  34              	@ 0 "" 2
  35              		.thumb
  36              		.syntax unified
  37 0010 00BF     		nop
  38 0012 0C37     		adds	r7, r7, #12
  39 0014 BD46     		mov	sp, r7
  40              		@ sp needed
  41 0016 5DF8047B 		ldr	r7, [sp], #4
  42 001a 7047     		bx	lr
  43              		.size	port_lock, .-port_lock
  44              		.section	.text.port_unlock,"ax",%progbits
  45              		.align	1
  46              		.syntax unified
  47              		.thumb
  48              		.thumb_func
  49              		.fpu fpv4-sp-d16
  50              		.type	port_unlock, %function
  51              	port_unlock:
  52              		@ args = 0, pretend = 0, frame = 8
  53              		@ frame_needed = 1, uses_anonymous_args = 0
  54              		@ link register save eliminated.
  55 0000 80B4     		push	{r7}
  56 0002 83B0     		sub	sp, sp, #12
  57 0004 00AF     		add	r7, sp, #0
ARM GAS  /var/folders/d2/nstgp4h54kz7g1l847x_b8wc0000gn/T//ccDk1S5e.s 			page 2


  58 0006 0023     		movs	r3, #0
  59 0008 7B60     		str	r3, [r7, #4]
  60 000a 7B68     		ldr	r3, [r7, #4]
  61              		.syntax unified
  62              	@ 546 "../e-puck2_main-processor/ChibiOS//os/ext/CMSIS/include/core_cmFunc.h" 1
  63 000c 83F31188 		MSR basepri, r3
  64              	@ 0 "" 2
  65              		.thumb
  66              		.syntax unified
  67 0010 00BF     		nop
  68 0012 0C37     		adds	r7, r7, #12
  69 0014 BD46     		mov	sp, r7
  70              		@ sp needed
  71 0016 5DF8047B 		ldr	r7, [sp], #4
  72 001a 7047     		bx	lr
  73              		.size	port_unlock, .-port_unlock
  74              		.section	.text.chSysLock,"ax",%progbits
  75              		.align	1
  76              		.syntax unified
  77              		.thumb
  78              		.thumb_func
  79              		.fpu fpv4-sp-d16
  80              		.type	chSysLock, %function
  81              	chSysLock:
  82              		@ args = 0, pretend = 0, frame = 0
  83              		@ frame_needed = 1, uses_anonymous_args = 0
  84 0000 80B5     		push	{r7, lr}
  85 0002 00AF     		add	r7, sp, #0
  86 0004 FFF7FEFF 		bl	port_lock
  87 0008 FFF7FEFF 		bl	_stats_start_measure_crit_thd
  88 000c FFF7FEFF 		bl	_dbg_check_lock
  89 0010 00BF     		nop
  90 0012 80BD     		pop	{r7, pc}
  91              		.size	chSysLock, .-chSysLock
  92              		.section	.text.chSysUnlock,"ax",%progbits
  93              		.align	1
  94              		.syntax unified
  95              		.thumb
  96              		.thumb_func
  97              		.fpu fpv4-sp-d16
  98              		.type	chSysUnlock, %function
  99              	chSysUnlock:
 100              		@ args = 0, pretend = 0, frame = 0
 101              		@ frame_needed = 1, uses_anonymous_args = 0
 102 0000 80B5     		push	{r7, lr}
 103 0002 00AF     		add	r7, sp, #0
 104 0004 FFF7FEFF 		bl	_dbg_check_unlock
 105 0008 FFF7FEFF 		bl	_stats_stop_measure_crit_thd
 106 000c 094B     		ldr	r3, .L6
 107 000e 1B68     		ldr	r3, [r3]
 108 0010 084A     		ldr	r2, .L6
 109 0012 9342     		cmp	r3, r2
 110 0014 0AD0     		beq	.L5
 111 0016 074B     		ldr	r3, .L6
 112 0018 9B69     		ldr	r3, [r3, #24]
 113 001a 9A68     		ldr	r2, [r3, #8]
 114 001c 054B     		ldr	r3, .L6
ARM GAS  /var/folders/d2/nstgp4h54kz7g1l847x_b8wc0000gn/T//ccDk1S5e.s 			page 3


 115 001e 1B68     		ldr	r3, [r3]
 116 0020 9B68     		ldr	r3, [r3, #8]
 117 0022 9A42     		cmp	r2, r3
 118 0024 02D2     		bcs	.L5
 119 0026 0448     		ldr	r0, .L6+4
 120 0028 FFF7FEFF 		bl	chSysHalt
 121              	.L5:
 122 002c FFF7FEFF 		bl	port_unlock
 123 0030 00BF     		nop
 124 0032 80BD     		pop	{r7, pc}
 125              	.L7:
 126              		.align	2
 127              	.L6:
 128 0034 00000000 		.word	ch
 129 0038 00000000 		.word	__func__.7153
 130              		.size	chSysUnlock, .-chSysUnlock
 131              		.section	.text.osalSysLock,"ax",%progbits
 132              		.align	1
 133              		.syntax unified
 134              		.thumb
 135              		.thumb_func
 136              		.fpu fpv4-sp-d16
 137              		.type	osalSysLock, %function
 138              	osalSysLock:
 139              		@ args = 0, pretend = 0, frame = 0
 140              		@ frame_needed = 1, uses_anonymous_args = 0
 141 0000 80B5     		push	{r7, lr}
 142 0002 00AF     		add	r7, sp, #0
 143 0004 FFF7FEFF 		bl	chSysLock
 144 0008 00BF     		nop
 145 000a 80BD     		pop	{r7, pc}
 146              		.size	osalSysLock, .-osalSysLock
 147              		.section	.text.osalSysUnlock,"ax",%progbits
 148              		.align	1
 149              		.syntax unified
 150              		.thumb
 151              		.thumb_func
 152              		.fpu fpv4-sp-d16
 153              		.type	osalSysUnlock, %function
 154              	osalSysUnlock:
 155              		@ args = 0, pretend = 0, frame = 0
 156              		@ frame_needed = 1, uses_anonymous_args = 0
 157 0000 80B5     		push	{r7, lr}
 158 0002 00AF     		add	r7, sp, #0
 159 0004 FFF7FEFF 		bl	chSysUnlock
 160 0008 00BF     		nop
 161 000a 80BD     		pop	{r7, pc}
 162              		.size	osalSysUnlock, .-osalSysUnlock
 163              		.section	.text.osalThreadSuspendS,"ax",%progbits
 164              		.align	1
 165              		.syntax unified
 166              		.thumb
 167              		.thumb_func
 168              		.fpu fpv4-sp-d16
 169              		.type	osalThreadSuspendS, %function
 170              	osalThreadSuspendS:
 171              		@ args = 0, pretend = 0, frame = 8
ARM GAS  /var/folders/d2/nstgp4h54kz7g1l847x_b8wc0000gn/T//ccDk1S5e.s 			page 4


 172              		@ frame_needed = 1, uses_anonymous_args = 0
 173 0000 80B5     		push	{r7, lr}
 174 0002 82B0     		sub	sp, sp, #8
 175 0004 00AF     		add	r7, sp, #0
 176 0006 7860     		str	r0, [r7, #4]
 177 0008 7868     		ldr	r0, [r7, #4]
 178 000a FFF7FEFF 		bl	chThdSuspendS
 179 000e 0346     		mov	r3, r0
 180 0010 1846     		mov	r0, r3
 181 0012 0837     		adds	r7, r7, #8
 182 0014 BD46     		mov	sp, r7
 183              		@ sp needed
 184 0016 80BD     		pop	{r7, pc}
 185              		.size	osalThreadSuspendS, .-osalThreadSuspendS
 186              		.section	.text.osalThreadResumeI,"ax",%progbits
 187              		.align	1
 188              		.syntax unified
 189              		.thumb
 190              		.thumb_func
 191              		.fpu fpv4-sp-d16
 192              		.type	osalThreadResumeI, %function
 193              	osalThreadResumeI:
 194              		@ args = 0, pretend = 0, frame = 8
 195              		@ frame_needed = 1, uses_anonymous_args = 0
 196 0000 80B5     		push	{r7, lr}
 197 0002 82B0     		sub	sp, sp, #8
 198 0004 00AF     		add	r7, sp, #0
 199 0006 7860     		str	r0, [r7, #4]
 200 0008 3960     		str	r1, [r7]
 201 000a 3968     		ldr	r1, [r7]
 202 000c 7868     		ldr	r0, [r7, #4]
 203 000e FFF7FEFF 		bl	chThdResumeI
 204 0012 00BF     		nop
 205 0014 0837     		adds	r7, r7, #8
 206 0016 BD46     		mov	sp, r7
 207              		@ sp needed
 208 0018 80BD     		pop	{r7, pc}
 209              		.size	osalThreadResumeI, .-osalThreadResumeI
 210              		.section	.text.osalThreadResumeS,"ax",%progbits
 211              		.align	1
 212              		.syntax unified
 213              		.thumb
 214              		.thumb_func
 215              		.fpu fpv4-sp-d16
 216              		.type	osalThreadResumeS, %function
 217              	osalThreadResumeS:
 218              		@ args = 0, pretend = 0, frame = 8
 219              		@ frame_needed = 1, uses_anonymous_args = 0
 220 0000 80B5     		push	{r7, lr}
 221 0002 82B0     		sub	sp, sp, #8
 222 0004 00AF     		add	r7, sp, #0
 223 0006 7860     		str	r0, [r7, #4]
 224 0008 3960     		str	r1, [r7]
 225 000a 3968     		ldr	r1, [r7]
 226 000c 7868     		ldr	r0, [r7, #4]
 227 000e FFF7FEFF 		bl	chThdResumeS
 228 0012 00BF     		nop
ARM GAS  /var/folders/d2/nstgp4h54kz7g1l847x_b8wc0000gn/T//ccDk1S5e.s 			page 5


 229 0014 0837     		adds	r7, r7, #8
 230 0016 BD46     		mov	sp, r7
 231              		@ sp needed
 232 0018 80BD     		pop	{r7, pc}
 233              		.size	osalThreadResumeS, .-osalThreadResumeS
 234              		.section	.text.osalMutexObjectInit,"ax",%progbits
 235              		.align	1
 236              		.syntax unified
 237              		.thumb
 238              		.thumb_func
 239              		.fpu fpv4-sp-d16
 240              		.type	osalMutexObjectInit, %function
 241              	osalMutexObjectInit:
 242              		@ args = 0, pretend = 0, frame = 8
 243              		@ frame_needed = 1, uses_anonymous_args = 0
 244 0000 80B5     		push	{r7, lr}
 245 0002 82B0     		sub	sp, sp, #8
 246 0004 00AF     		add	r7, sp, #0
 247 0006 7860     		str	r0, [r7, #4]
 248 0008 7868     		ldr	r0, [r7, #4]
 249 000a FFF7FEFF 		bl	chMtxObjectInit
 250 000e 00BF     		nop
 251 0010 0837     		adds	r7, r7, #8
 252 0012 BD46     		mov	sp, r7
 253              		@ sp needed
 254 0014 80BD     		pop	{r7, pc}
 255              		.size	osalMutexObjectInit, .-osalMutexObjectInit
 256              		.section	.text.osalMutexLock,"ax",%progbits
 257              		.align	1
 258              		.syntax unified
 259              		.thumb
 260              		.thumb_func
 261              		.fpu fpv4-sp-d16
 262              		.type	osalMutexLock, %function
 263              	osalMutexLock:
 264              		@ args = 0, pretend = 0, frame = 8
 265              		@ frame_needed = 1, uses_anonymous_args = 0
 266 0000 80B5     		push	{r7, lr}
 267 0002 82B0     		sub	sp, sp, #8
 268 0004 00AF     		add	r7, sp, #0
 269 0006 7860     		str	r0, [r7, #4]
 270 0008 7868     		ldr	r0, [r7, #4]
 271 000a FFF7FEFF 		bl	chMtxLock
 272 000e 00BF     		nop
 273 0010 0837     		adds	r7, r7, #8
 274 0012 BD46     		mov	sp, r7
 275              		@ sp needed
 276 0014 80BD     		pop	{r7, pc}
 277              		.size	osalMutexLock, .-osalMutexLock
 278              		.section	.text.osalMutexUnlock,"ax",%progbits
 279              		.align	1
 280              		.syntax unified
 281              		.thumb
 282              		.thumb_func
 283              		.fpu fpv4-sp-d16
 284              		.type	osalMutexUnlock, %function
 285              	osalMutexUnlock:
ARM GAS  /var/folders/d2/nstgp4h54kz7g1l847x_b8wc0000gn/T//ccDk1S5e.s 			page 6


 286              		@ args = 0, pretend = 0, frame = 8
 287              		@ frame_needed = 1, uses_anonymous_args = 0
 288 0000 80B5     		push	{r7, lr}
 289 0002 82B0     		sub	sp, sp, #8
 290 0004 00AF     		add	r7, sp, #0
 291 0006 7860     		str	r0, [r7, #4]
 292 0008 7868     		ldr	r0, [r7, #4]
 293 000a FFF7FEFF 		bl	chMtxUnlock
 294 000e 00BF     		nop
 295 0010 0837     		adds	r7, r7, #8
 296 0012 BD46     		mov	sp, r7
 297              		@ sp needed
 298 0014 80BD     		pop	{r7, pc}
 299              		.size	osalMutexUnlock, .-osalMutexUnlock
 300              		.section	.text.dacInit,"ax",%progbits
 301              		.align	1
 302              		.global	dacInit
 303              		.syntax unified
 304              		.thumb
 305              		.thumb_func
 306              		.fpu fpv4-sp-d16
 307              		.type	dacInit, %function
 308              	dacInit:
 309              		@ args = 0, pretend = 0, frame = 0
 310              		@ frame_needed = 1, uses_anonymous_args = 0
 311 0000 80B5     		push	{r7, lr}
 312 0002 00AF     		add	r7, sp, #0
 313 0004 FFF7FEFF 		bl	dac_lld_init
 314 0008 00BF     		nop
 315 000a 80BD     		pop	{r7, pc}
 316              		.size	dacInit, .-dacInit
 317              		.section	.text.dacObjectInit,"ax",%progbits
 318              		.align	1
 319              		.global	dacObjectInit
 320              		.syntax unified
 321              		.thumb
 322              		.thumb_func
 323              		.fpu fpv4-sp-d16
 324              		.type	dacObjectInit, %function
 325              	dacObjectInit:
 326              		@ args = 0, pretend = 0, frame = 8
 327              		@ frame_needed = 1, uses_anonymous_args = 0
 328 0000 80B5     		push	{r7, lr}
 329 0002 82B0     		sub	sp, sp, #8
 330 0004 00AF     		add	r7, sp, #0
 331 0006 7860     		str	r0, [r7, #4]
 332 0008 7B68     		ldr	r3, [r7, #4]
 333 000a 0122     		movs	r2, #1
 334 000c 1A70     		strb	r2, [r3]
 335 000e 7B68     		ldr	r3, [r7, #4]
 336 0010 0022     		movs	r2, #0
 337 0012 1A61     		str	r2, [r3, #16]
 338 0014 7B68     		ldr	r3, [r7, #4]
 339 0016 0022     		movs	r2, #0
 340 0018 5A61     		str	r2, [r3, #20]
 341 001a 7B68     		ldr	r3, [r7, #4]
 342 001c 1833     		adds	r3, r3, #24
ARM GAS  /var/folders/d2/nstgp4h54kz7g1l847x_b8wc0000gn/T//ccDk1S5e.s 			page 7


 343 001e 1846     		mov	r0, r3
 344 0020 FFF7FEFF 		bl	osalMutexObjectInit
 345 0024 00BF     		nop
 346 0026 0837     		adds	r7, r7, #8
 347 0028 BD46     		mov	sp, r7
 348              		@ sp needed
 349 002a 80BD     		pop	{r7, pc}
 350              		.size	dacObjectInit, .-dacObjectInit
 351              		.section	.text.dacStart,"ax",%progbits
 352              		.align	1
 353              		.global	dacStart
 354              		.syntax unified
 355              		.thumb
 356              		.thumb_func
 357              		.fpu fpv4-sp-d16
 358              		.type	dacStart, %function
 359              	dacStart:
 360              		@ args = 0, pretend = 0, frame = 8
 361              		@ frame_needed = 1, uses_anonymous_args = 0
 362 0000 80B5     		push	{r7, lr}
 363 0002 82B0     		sub	sp, sp, #8
 364 0004 00AF     		add	r7, sp, #0
 365 0006 7860     		str	r0, [r7, #4]
 366 0008 3960     		str	r1, [r7]
 367 000a 7B68     		ldr	r3, [r7, #4]
 368 000c 002B     		cmp	r3, #0
 369 000e 02D1     		bne	.L20
 370 0010 0F48     		ldr	r0, .L22
 371 0012 FFF7FEFF 		bl	chSysHalt
 372              	.L20:
 373 0016 FFF7FEFF 		bl	osalSysLock
 374 001a 7B68     		ldr	r3, [r7, #4]
 375 001c 1B78     		ldrb	r3, [r3]	@ zero_extendqisi2
 376 001e 012B     		cmp	r3, #1
 377 0020 06D0     		beq	.L21
 378 0022 7B68     		ldr	r3, [r7, #4]
 379 0024 1B78     		ldrb	r3, [r3]	@ zero_extendqisi2
 380 0026 022B     		cmp	r3, #2
 381 0028 02D0     		beq	.L21
 382 002a 0948     		ldr	r0, .L22
 383 002c FFF7FEFF 		bl	chSysHalt
 384              	.L21:
 385 0030 7B68     		ldr	r3, [r7, #4]
 386 0032 3A68     		ldr	r2, [r7]
 387 0034 1A61     		str	r2, [r3, #16]
 388 0036 7868     		ldr	r0, [r7, #4]
 389 0038 FFF7FEFF 		bl	dac_lld_start
 390 003c 7B68     		ldr	r3, [r7, #4]
 391 003e 0222     		movs	r2, #2
 392 0040 1A70     		strb	r2, [r3]
 393 0042 FFF7FEFF 		bl	osalSysUnlock
 394 0046 00BF     		nop
 395 0048 0837     		adds	r7, r7, #8
 396 004a BD46     		mov	sp, r7
 397              		@ sp needed
 398 004c 80BD     		pop	{r7, pc}
 399              	.L23:
ARM GAS  /var/folders/d2/nstgp4h54kz7g1l847x_b8wc0000gn/T//ccDk1S5e.s 			page 8


 400 004e 00BF     		.align	2
 401              	.L22:
 402 0050 00000000 		.word	__func__.9848
 403              		.size	dacStart, .-dacStart
 404              		.section	.text.dacStop,"ax",%progbits
 405              		.align	1
 406              		.global	dacStop
 407              		.syntax unified
 408              		.thumb
 409              		.thumb_func
 410              		.fpu fpv4-sp-d16
 411              		.type	dacStop, %function
 412              	dacStop:
 413              		@ args = 0, pretend = 0, frame = 8
 414              		@ frame_needed = 1, uses_anonymous_args = 0
 415 0000 80B5     		push	{r7, lr}
 416 0002 82B0     		sub	sp, sp, #8
 417 0004 00AF     		add	r7, sp, #0
 418 0006 7860     		str	r0, [r7, #4]
 419 0008 7B68     		ldr	r3, [r7, #4]
 420 000a 002B     		cmp	r3, #0
 421 000c 02D1     		bne	.L25
 422 000e 0E48     		ldr	r0, .L27
 423 0010 FFF7FEFF 		bl	chSysHalt
 424              	.L25:
 425 0014 FFF7FEFF 		bl	osalSysLock
 426 0018 7B68     		ldr	r3, [r7, #4]
 427 001a 1B78     		ldrb	r3, [r3]	@ zero_extendqisi2
 428 001c 012B     		cmp	r3, #1
 429 001e 06D0     		beq	.L26
 430 0020 7B68     		ldr	r3, [r7, #4]
 431 0022 1B78     		ldrb	r3, [r3]	@ zero_extendqisi2
 432 0024 022B     		cmp	r3, #2
 433 0026 02D0     		beq	.L26
 434 0028 0748     		ldr	r0, .L27
 435 002a FFF7FEFF 		bl	chSysHalt
 436              	.L26:
 437 002e 7868     		ldr	r0, [r7, #4]
 438 0030 FFF7FEFF 		bl	dac_lld_stop
 439 0034 7B68     		ldr	r3, [r7, #4]
 440 0036 0122     		movs	r2, #1
 441 0038 1A70     		strb	r2, [r3]
 442 003a FFF7FEFF 		bl	osalSysUnlock
 443 003e 00BF     		nop
 444 0040 0837     		adds	r7, r7, #8
 445 0042 BD46     		mov	sp, r7
 446              		@ sp needed
 447 0044 80BD     		pop	{r7, pc}
 448              	.L28:
 449 0046 00BF     		.align	2
 450              	.L27:
 451 0048 00000000 		.word	__func__.9852
 452              		.size	dacStop, .-dacStop
 453              		.section	.text.dacPutChannelX,"ax",%progbits
 454              		.align	1
 455              		.global	dacPutChannelX
 456              		.syntax unified
ARM GAS  /var/folders/d2/nstgp4h54kz7g1l847x_b8wc0000gn/T//ccDk1S5e.s 			page 9


 457              		.thumb
 458              		.thumb_func
 459              		.fpu fpv4-sp-d16
 460              		.type	dacPutChannelX, %function
 461              	dacPutChannelX:
 462              		@ args = 0, pretend = 0, frame = 16
 463              		@ frame_needed = 1, uses_anonymous_args = 0
 464 0000 80B5     		push	{r7, lr}
 465 0002 84B0     		sub	sp, sp, #16
 466 0004 00AF     		add	r7, sp, #0
 467 0006 F860     		str	r0, [r7, #12]
 468 0008 B960     		str	r1, [r7, #8]
 469 000a 1346     		mov	r3, r2
 470 000c FB80     		strh	r3, [r7, #6]	@ movhi
 471 000e BB68     		ldr	r3, [r7, #8]
 472 0010 002B     		cmp	r3, #0
 473 0012 02D0     		beq	.L32
 474 0014 0948     		ldr	r0, .L33
 475 0016 FFF7FEFF 		bl	chSysHalt
 476              	.L32:
 477 001a FB68     		ldr	r3, [r7, #12]
 478 001c 1B78     		ldrb	r3, [r3]	@ zero_extendqisi2
 479 001e 022B     		cmp	r3, #2
 480 0020 02D0     		beq	.L31
 481 0022 0648     		ldr	r0, .L33
 482 0024 FFF7FEFF 		bl	chSysHalt
 483              	.L31:
 484 0028 FB88     		ldrh	r3, [r7, #6]
 485 002a 1A46     		mov	r2, r3
 486 002c B968     		ldr	r1, [r7, #8]
 487 002e F868     		ldr	r0, [r7, #12]
 488 0030 FFF7FEFF 		bl	dac_lld_put_channel
 489 0034 00BF     		nop
 490 0036 1037     		adds	r7, r7, #16
 491 0038 BD46     		mov	sp, r7
 492              		@ sp needed
 493 003a 80BD     		pop	{r7, pc}
 494              	.L34:
 495              		.align	2
 496              	.L33:
 497 003c 00000000 		.word	__func__.9858
 498              		.size	dacPutChannelX, .-dacPutChannelX
 499              		.section	.text.dacStartConversion,"ax",%progbits
 500              		.align	1
 501              		.global	dacStartConversion
 502              		.syntax unified
 503              		.thumb
 504              		.thumb_func
 505              		.fpu fpv4-sp-d16
 506              		.type	dacStartConversion, %function
 507              	dacStartConversion:
 508              		@ args = 0, pretend = 0, frame = 16
 509              		@ frame_needed = 1, uses_anonymous_args = 0
 510 0000 80B5     		push	{r7, lr}
 511 0002 84B0     		sub	sp, sp, #16
 512 0004 00AF     		add	r7, sp, #0
 513 0006 F860     		str	r0, [r7, #12]
ARM GAS  /var/folders/d2/nstgp4h54kz7g1l847x_b8wc0000gn/T//ccDk1S5e.s 			page 10


 514 0008 B960     		str	r1, [r7, #8]
 515 000a 7A60     		str	r2, [r7, #4]
 516 000c 3B60     		str	r3, [r7]
 517 000e FFF7FEFF 		bl	osalSysLock
 518 0012 3B68     		ldr	r3, [r7]
 519 0014 7A68     		ldr	r2, [r7, #4]
 520 0016 B968     		ldr	r1, [r7, #8]
 521 0018 F868     		ldr	r0, [r7, #12]
 522 001a FFF7FEFF 		bl	dacStartConversionI
 523 001e FFF7FEFF 		bl	osalSysUnlock
 524 0022 00BF     		nop
 525 0024 1037     		adds	r7, r7, #16
 526 0026 BD46     		mov	sp, r7
 527              		@ sp needed
 528 0028 80BD     		pop	{r7, pc}
 529              		.size	dacStartConversion, .-dacStartConversion
 530              		.section	.text.dacStartConversionI,"ax",%progbits
 531              		.align	1
 532              		.global	dacStartConversionI
 533              		.syntax unified
 534              		.thumb
 535              		.thumb_func
 536              		.fpu fpv4-sp-d16
 537              		.type	dacStartConversionI, %function
 538              	dacStartConversionI:
 539              		@ args = 0, pretend = 0, frame = 16
 540              		@ frame_needed = 1, uses_anonymous_args = 0
 541 0000 80B5     		push	{r7, lr}
 542 0002 84B0     		sub	sp, sp, #16
 543 0004 00AF     		add	r7, sp, #0
 544 0006 F860     		str	r0, [r7, #12]
 545 0008 B960     		str	r1, [r7, #8]
 546 000a 7A60     		str	r2, [r7, #4]
 547 000c 3B60     		str	r3, [r7]
 548 000e FFF7FEFF 		bl	chDbgCheckClassI
 549 0012 FB68     		ldr	r3, [r7, #12]
 550 0014 002B     		cmp	r3, #0
 551 0016 0DD0     		beq	.L37
 552 0018 BB68     		ldr	r3, [r7, #8]
 553 001a 002B     		cmp	r3, #0
 554 001c 0AD0     		beq	.L37
 555 001e 7B68     		ldr	r3, [r7, #4]
 556 0020 002B     		cmp	r3, #0
 557 0022 07D0     		beq	.L37
 558 0024 3B68     		ldr	r3, [r7]
 559 0026 012B     		cmp	r3, #1
 560 0028 07D0     		beq	.L40
 561 002a 3B68     		ldr	r3, [r7]
 562 002c 03F00103 		and	r3, r3, #1
 563 0030 002B     		cmp	r3, #0
 564 0032 02D0     		beq	.L40
 565              	.L37:
 566 0034 1248     		ldr	r0, .L41
 567 0036 FFF7FEFF 		bl	chSysHalt
 568              	.L40:
 569 003a FB68     		ldr	r3, [r7, #12]
 570 003c 1B78     		ldrb	r3, [r3]	@ zero_extendqisi2
ARM GAS  /var/folders/d2/nstgp4h54kz7g1l847x_b8wc0000gn/T//ccDk1S5e.s 			page 11


 571 003e 022B     		cmp	r3, #2
 572 0040 0AD0     		beq	.L39
 573 0042 FB68     		ldr	r3, [r7, #12]
 574 0044 1B78     		ldrb	r3, [r3]	@ zero_extendqisi2
 575 0046 042B     		cmp	r3, #4
 576 0048 06D0     		beq	.L39
 577 004a FB68     		ldr	r3, [r7, #12]
 578 004c 1B78     		ldrb	r3, [r3]	@ zero_extendqisi2
 579 004e 052B     		cmp	r3, #5
 580 0050 02D0     		beq	.L39
 581 0052 0B48     		ldr	r0, .L41
 582 0054 FFF7FEFF 		bl	chSysHalt
 583              	.L39:
 584 0058 FB68     		ldr	r3, [r7, #12]
 585 005a 7A68     		ldr	r2, [r7, #4]
 586 005c 9A60     		str	r2, [r3, #8]
 587 005e 3B68     		ldr	r3, [r7]
 588 0060 9AB2     		uxth	r2, r3
 589 0062 FB68     		ldr	r3, [r7, #12]
 590 0064 9A81     		strh	r2, [r3, #12]	@ movhi
 591 0066 FB68     		ldr	r3, [r7, #12]
 592 0068 BA68     		ldr	r2, [r7, #8]
 593 006a 5A60     		str	r2, [r3, #4]
 594 006c FB68     		ldr	r3, [r7, #12]
 595 006e 0322     		movs	r2, #3
 596 0070 1A70     		strb	r2, [r3]
 597 0072 F868     		ldr	r0, [r7, #12]
 598 0074 FFF7FEFF 		bl	dac_lld_start_conversion
 599 0078 00BF     		nop
 600 007a 1037     		adds	r7, r7, #16
 601 007c BD46     		mov	sp, r7
 602              		@ sp needed
 603 007e 80BD     		pop	{r7, pc}
 604              	.L42:
 605              		.align	2
 606              	.L41:
 607 0080 00000000 		.word	__func__.9871
 608              		.size	dacStartConversionI, .-dacStartConversionI
 609              		.section	.text.dacStopConversion,"ax",%progbits
 610              		.align	1
 611              		.global	dacStopConversion
 612              		.syntax unified
 613              		.thumb
 614              		.thumb_func
 615              		.fpu fpv4-sp-d16
 616              		.type	dacStopConversion, %function
 617              	dacStopConversion:
 618              		@ args = 0, pretend = 0, frame = 8
 619              		@ frame_needed = 1, uses_anonymous_args = 0
 620 0000 80B5     		push	{r7, lr}
 621 0002 82B0     		sub	sp, sp, #8
 622 0004 00AF     		add	r7, sp, #0
 623 0006 7860     		str	r0, [r7, #4]
 624 0008 7B68     		ldr	r3, [r7, #4]
 625 000a 002B     		cmp	r3, #0
 626 000c 02D1     		bne	.L44
 627 000e 1548     		ldr	r0, .L47
ARM GAS  /var/folders/d2/nstgp4h54kz7g1l847x_b8wc0000gn/T//ccDk1S5e.s 			page 12


 628 0010 FFF7FEFF 		bl	chSysHalt
 629              	.L44:
 630 0014 FFF7FEFF 		bl	osalSysLock
 631 0018 7B68     		ldr	r3, [r7, #4]
 632 001a 1B78     		ldrb	r3, [r3]	@ zero_extendqisi2
 633 001c 022B     		cmp	r3, #2
 634 001e 06D0     		beq	.L45
 635 0020 7B68     		ldr	r3, [r7, #4]
 636 0022 1B78     		ldrb	r3, [r3]	@ zero_extendqisi2
 637 0024 032B     		cmp	r3, #3
 638 0026 02D0     		beq	.L45
 639 0028 0E48     		ldr	r0, .L47
 640 002a FFF7FEFF 		bl	chSysHalt
 641              	.L45:
 642 002e 7B68     		ldr	r3, [r7, #4]
 643 0030 1B78     		ldrb	r3, [r3]	@ zero_extendqisi2
 644 0032 022B     		cmp	r3, #2
 645 0034 0FD0     		beq	.L46
 646 0036 7868     		ldr	r0, [r7, #4]
 647 0038 FFF7FEFF 		bl	dac_lld_stop_conversion
 648 003c 7B68     		ldr	r3, [r7, #4]
 649 003e 0022     		movs	r2, #0
 650 0040 5A60     		str	r2, [r3, #4]
 651 0042 7B68     		ldr	r3, [r7, #4]
 652 0044 0222     		movs	r2, #2
 653 0046 1A70     		strb	r2, [r3]
 654 0048 7B68     		ldr	r3, [r7, #4]
 655 004a 1433     		adds	r3, r3, #20
 656 004c 6FF00101 		mvn	r1, #1
 657 0050 1846     		mov	r0, r3
 658 0052 FFF7FEFF 		bl	osalThreadResumeS
 659              	.L46:
 660 0056 FFF7FEFF 		bl	osalSysUnlock
 661 005a 00BF     		nop
 662 005c 0837     		adds	r7, r7, #8
 663 005e BD46     		mov	sp, r7
 664              		@ sp needed
 665 0060 80BD     		pop	{r7, pc}
 666              	.L48:
 667 0062 00BF     		.align	2
 668              	.L47:
 669 0064 00000000 		.word	__func__.9875
 670              		.size	dacStopConversion, .-dacStopConversion
 671              		.section	.text.dacStopConversionI,"ax",%progbits
 672              		.align	1
 673              		.global	dacStopConversionI
 674              		.syntax unified
 675              		.thumb
 676              		.thumb_func
 677              		.fpu fpv4-sp-d16
 678              		.type	dacStopConversionI, %function
 679              	dacStopConversionI:
 680              		@ args = 0, pretend = 0, frame = 8
 681              		@ frame_needed = 1, uses_anonymous_args = 0
 682 0000 80B5     		push	{r7, lr}
 683 0002 82B0     		sub	sp, sp, #8
 684 0004 00AF     		add	r7, sp, #0
ARM GAS  /var/folders/d2/nstgp4h54kz7g1l847x_b8wc0000gn/T//ccDk1S5e.s 			page 13


 685 0006 7860     		str	r0, [r7, #4]
 686 0008 FFF7FEFF 		bl	chDbgCheckClassI
 687 000c 7B68     		ldr	r3, [r7, #4]
 688 000e 002B     		cmp	r3, #0
 689 0010 02D1     		bne	.L53
 690 0012 1548     		ldr	r0, .L55
 691 0014 FFF7FEFF 		bl	chSysHalt
 692              	.L53:
 693 0018 7B68     		ldr	r3, [r7, #4]
 694 001a 1B78     		ldrb	r3, [r3]	@ zero_extendqisi2
 695 001c 022B     		cmp	r3, #2
 696 001e 0AD0     		beq	.L51
 697 0020 7B68     		ldr	r3, [r7, #4]
 698 0022 1B78     		ldrb	r3, [r3]	@ zero_extendqisi2
 699 0024 032B     		cmp	r3, #3
 700 0026 06D0     		beq	.L51
 701 0028 7B68     		ldr	r3, [r7, #4]
 702 002a 1B78     		ldrb	r3, [r3]	@ zero_extendqisi2
 703 002c 042B     		cmp	r3, #4
 704 002e 02D0     		beq	.L51
 705 0030 0D48     		ldr	r0, .L55
 706 0032 FFF7FEFF 		bl	chSysHalt
 707              	.L51:
 708 0036 7B68     		ldr	r3, [r7, #4]
 709 0038 1B78     		ldrb	r3, [r3]	@ zero_extendqisi2
 710 003a 022B     		cmp	r3, #2
 711 003c 0FD0     		beq	.L54
 712 003e 7868     		ldr	r0, [r7, #4]
 713 0040 FFF7FEFF 		bl	dac_lld_stop_conversion
 714 0044 7B68     		ldr	r3, [r7, #4]
 715 0046 0022     		movs	r2, #0
 716 0048 5A60     		str	r2, [r3, #4]
 717 004a 7B68     		ldr	r3, [r7, #4]
 718 004c 0222     		movs	r2, #2
 719 004e 1A70     		strb	r2, [r3]
 720 0050 7B68     		ldr	r3, [r7, #4]
 721 0052 1433     		adds	r3, r3, #20
 722 0054 6FF00101 		mvn	r1, #1
 723 0058 1846     		mov	r0, r3
 724 005a FFF7FEFF 		bl	osalThreadResumeI
 725              	.L54:
 726 005e 00BF     		nop
 727 0060 0837     		adds	r7, r7, #8
 728 0062 BD46     		mov	sp, r7
 729              		@ sp needed
 730 0064 80BD     		pop	{r7, pc}
 731              	.L56:
 732 0066 00BF     		.align	2
 733              	.L55:
 734 0068 00000000 		.word	__func__.9879
 735              		.size	dacStopConversionI, .-dacStopConversionI
 736              		.section	.text.dacConvert,"ax",%progbits
 737              		.align	1
 738              		.global	dacConvert
 739              		.syntax unified
 740              		.thumb
 741              		.thumb_func
ARM GAS  /var/folders/d2/nstgp4h54kz7g1l847x_b8wc0000gn/T//ccDk1S5e.s 			page 14


 742              		.fpu fpv4-sp-d16
 743              		.type	dacConvert, %function
 744              	dacConvert:
 745              		@ args = 0, pretend = 0, frame = 24
 746              		@ frame_needed = 1, uses_anonymous_args = 0
 747 0000 80B5     		push	{r7, lr}
 748 0002 86B0     		sub	sp, sp, #24
 749 0004 00AF     		add	r7, sp, #0
 750 0006 F860     		str	r0, [r7, #12]
 751 0008 B960     		str	r1, [r7, #8]
 752 000a 7A60     		str	r2, [r7, #4]
 753 000c 3B60     		str	r3, [r7]
 754 000e FFF7FEFF 		bl	osalSysLock
 755 0012 3B68     		ldr	r3, [r7]
 756 0014 7A68     		ldr	r2, [r7, #4]
 757 0016 B968     		ldr	r1, [r7, #8]
 758 0018 F868     		ldr	r0, [r7, #12]
 759 001a FFF7FEFF 		bl	dacStartConversionI
 760 001e FB68     		ldr	r3, [r7, #12]
 761 0020 1433     		adds	r3, r3, #20
 762 0022 1846     		mov	r0, r3
 763 0024 FFF7FEFF 		bl	osalThreadSuspendS
 764 0028 7861     		str	r0, [r7, #20]
 765 002a FFF7FEFF 		bl	osalSysUnlock
 766 002e 7B69     		ldr	r3, [r7, #20]
 767 0030 1846     		mov	r0, r3
 768 0032 1837     		adds	r7, r7, #24
 769 0034 BD46     		mov	sp, r7
 770              		@ sp needed
 771 0036 80BD     		pop	{r7, pc}
 772              		.size	dacConvert, .-dacConvert
 773              		.section	.text.dacAcquireBus,"ax",%progbits
 774              		.align	1
 775              		.global	dacAcquireBus
 776              		.syntax unified
 777              		.thumb
 778              		.thumb_func
 779              		.fpu fpv4-sp-d16
 780              		.type	dacAcquireBus, %function
 781              	dacAcquireBus:
 782              		@ args = 0, pretend = 0, frame = 8
 783              		@ frame_needed = 1, uses_anonymous_args = 0
 784 0000 80B5     		push	{r7, lr}
 785 0002 82B0     		sub	sp, sp, #8
 786 0004 00AF     		add	r7, sp, #0
 787 0006 7860     		str	r0, [r7, #4]
 788 0008 7B68     		ldr	r3, [r7, #4]
 789 000a 002B     		cmp	r3, #0
 790 000c 02D1     		bne	.L60
 791 000e 0648     		ldr	r0, .L61
 792 0010 FFF7FEFF 		bl	chSysHalt
 793              	.L60:
 794 0014 7B68     		ldr	r3, [r7, #4]
 795 0016 1833     		adds	r3, r3, #24
 796 0018 1846     		mov	r0, r3
 797 001a FFF7FEFF 		bl	osalMutexLock
 798 001e 00BF     		nop
ARM GAS  /var/folders/d2/nstgp4h54kz7g1l847x_b8wc0000gn/T//ccDk1S5e.s 			page 15


 799 0020 0837     		adds	r7, r7, #8
 800 0022 BD46     		mov	sp, r7
 801              		@ sp needed
 802 0024 80BD     		pop	{r7, pc}
 803              	.L62:
 804 0026 00BF     		.align	2
 805              	.L61:
 806 0028 00000000 		.word	__func__.9890
 807              		.size	dacAcquireBus, .-dacAcquireBus
 808              		.section	.text.dacReleaseBus,"ax",%progbits
 809              		.align	1
 810              		.global	dacReleaseBus
 811              		.syntax unified
 812              		.thumb
 813              		.thumb_func
 814              		.fpu fpv4-sp-d16
 815              		.type	dacReleaseBus, %function
 816              	dacReleaseBus:
 817              		@ args = 0, pretend = 0, frame = 8
 818              		@ frame_needed = 1, uses_anonymous_args = 0
 819 0000 80B5     		push	{r7, lr}
 820 0002 82B0     		sub	sp, sp, #8
 821 0004 00AF     		add	r7, sp, #0
 822 0006 7860     		str	r0, [r7, #4]
 823 0008 7B68     		ldr	r3, [r7, #4]
 824 000a 002B     		cmp	r3, #0
 825 000c 02D1     		bne	.L64
 826 000e 0648     		ldr	r0, .L65
 827 0010 FFF7FEFF 		bl	chSysHalt
 828              	.L64:
 829 0014 7B68     		ldr	r3, [r7, #4]
 830 0016 1833     		adds	r3, r3, #24
 831 0018 1846     		mov	r0, r3
 832 001a FFF7FEFF 		bl	osalMutexUnlock
 833 001e 00BF     		nop
 834 0020 0837     		adds	r7, r7, #8
 835 0022 BD46     		mov	sp, r7
 836              		@ sp needed
 837 0024 80BD     		pop	{r7, pc}
 838              	.L66:
 839 0026 00BF     		.align	2
 840              	.L65:
 841 0028 00000000 		.word	__func__.9894
 842              		.size	dacReleaseBus, .-dacReleaseBus
 843              		.section	.rodata.__func__.9848,"a",%progbits
 844              		.align	2
 845              		.type	__func__.9848, %object
 846              		.size	__func__.9848, 9
 847              	__func__.9848:
 848 0000 64616353 		.ascii	"dacStart\000"
 848      74617274 
 848      00
 849              		.section	.rodata.__func__.7153,"a",%progbits
 850              		.align	2
 851              		.type	__func__.7153, %object
 852              		.size	__func__.7153, 12
 853              	__func__.7153:
ARM GAS  /var/folders/d2/nstgp4h54kz7g1l847x_b8wc0000gn/T//ccDk1S5e.s 			page 16


 854 0000 63685379 		.ascii	"chSysUnlock\000"
 854      73556E6C 
 854      6F636B00 
 855              		.section	.rodata.__func__.9852,"a",%progbits
 856              		.align	2
 857              		.type	__func__.9852, %object
 858              		.size	__func__.9852, 8
 859              	__func__.9852:
 860 0000 64616353 		.ascii	"dacStop\000"
 860      746F7000 
 861              		.section	.rodata.__func__.9858,"a",%progbits
 862              		.align	2
 863              		.type	__func__.9858, %object
 864              		.size	__func__.9858, 15
 865              	__func__.9858:
 866 0000 64616350 		.ascii	"dacPutChannelX\000"
 866      75744368 
 866      616E6E65 
 866      6C5800
 867              		.section	.rodata.__func__.9871,"a",%progbits
 868              		.align	2
 869              		.type	__func__.9871, %object
 870              		.size	__func__.9871, 20
 871              	__func__.9871:
 872 0000 64616353 		.ascii	"dacStartConversionI\000"
 872      74617274 
 872      436F6E76 
 872      65727369 
 872      6F6E4900 
 873              		.section	.rodata.__func__.9875,"a",%progbits
 874              		.align	2
 875              		.type	__func__.9875, %object
 876              		.size	__func__.9875, 18
 877              	__func__.9875:
 878 0000 64616353 		.ascii	"dacStopConversion\000"
 878      746F7043 
 878      6F6E7665 
 878      7273696F 
 878      6E00
 879              		.section	.rodata.__func__.9879,"a",%progbits
 880              		.align	2
 881              		.type	__func__.9879, %object
 882              		.size	__func__.9879, 19
 883              	__func__.9879:
 884 0000 64616353 		.ascii	"dacStopConversionI\000"
 884      746F7043 
 884      6F6E7665 
 884      7273696F 
 884      6E4900
 885              		.section	.rodata.__func__.9890,"a",%progbits
 886              		.align	2
 887              		.type	__func__.9890, %object
 888              		.size	__func__.9890, 14
 889              	__func__.9890:
 890 0000 64616341 		.ascii	"dacAcquireBus\000"
 890      63717569 
 890      72654275 
ARM GAS  /var/folders/d2/nstgp4h54kz7g1l847x_b8wc0000gn/T//ccDk1S5e.s 			page 17


 890      7300
 891              		.section	.rodata.__func__.9894,"a",%progbits
 892              		.align	2
 893              		.type	__func__.9894, %object
 894              		.size	__func__.9894, 14
 895              	__func__.9894:
 896 0000 64616352 		.ascii	"dacReleaseBus\000"
 896      656C6561 
 896      73654275 
 896      7300
 897              		.ident	"GCC: (GNU Tools for Arm Embedded Processors 7-2017-q4-major) 7.2.1 20170904 (release) [ARM
ARM GAS  /var/folders/d2/nstgp4h54kz7g1l847x_b8wc0000gn/T//ccDk1S5e.s 			page 18

