ARM GAS  /var/folders/d2/nstgp4h54kz7g1l847x_b8wc0000gn/T//ccW5vS43.s 			page 1


   1              		.cpu cortex-m4
   2              		.eabi_attribute 27, 1
   3              		.eabi_attribute 28, 1
   4              		.eabi_attribute 20, 1
   5              		.eabi_attribute 21, 1
   6              		.eabi_attribute 23, 3
   7              		.eabi_attribute 24, 1
   8              		.eabi_attribute 25, 1
   9              		.eabi_attribute 26, 1
  10              		.eabi_attribute 30, 2
  11              		.eabi_attribute 34, 1
  12              		.eabi_attribute 18, 4
  13              		.file	"dcmi.c"
  14              		.text
  15              	.Ltext0:
  16              		.cfi_sections	.debug_frame
  17              		.section	.text.dcmiInit,"ax",%progbits
  18              		.align	1
  19              		.p2align 4,,15
  20              		.global	dcmiInit
  21              		.syntax unified
  22              		.thumb
  23              		.thumb_func
  24              		.fpu fpv4-sp-d16
  25              		.type	dcmiInit, %function
  26              	dcmiInit:
  27              	.LFB256:
  28              		.file 1 "../e-puck2_main-processor/ChibiOS_ext/os/hal/src/dcmi.c"
  29              		.loc 1 62 0
  30              		.cfi_startproc
  31              		@ args = 0, pretend = 0, frame = 8
  32              		@ frame_needed = 0, uses_anonymous_args = 0
  33 0000 00B5     		push	{lr}
  34              		.cfi_def_cfa_offset 4
  35              		.cfi_offset 14, -4
  36 0002 074B     		ldr	r3, .L7
  37 0004 83B0     		sub	sp, sp, #12
  38              		.cfi_def_cfa_offset 16
  39              		.loc 1 62 0
  40 0006 1A68     		ldr	r2, [r3]
  41 0008 0192     		str	r2, [sp, #4]
  42              		.loc 1 63 0
  43 000a 019A     		ldr	r2, [sp, #4]
  44 000c 1B68     		ldr	r3, [r3]
  45 000e 9A42     		cmp	r2, r3
  46 0010 04D1     		bne	.L6
  47              		.loc 1 64 0
  48 0012 03B0     		add	sp, sp, #12
  49              		.cfi_remember_state
  50              		.cfi_def_cfa_offset 4
  51              		@ sp needed
  52 0014 5DF804EB 		ldr	lr, [sp], #4
  53              		.cfi_restore 14
  54              		.cfi_def_cfa_offset 0
  55              		.loc 1 63 0
  56 0018 FFF7FEBF 		b	dcmi_lld_init
  57              	.LVL0:
ARM GAS  /var/folders/d2/nstgp4h54kz7g1l847x_b8wc0000gn/T//ccW5vS43.s 			page 2


  58              	.L6:
  59              		.cfi_restore_state
  60 001c FFF7FEFF 		bl	__stack_chk_fail
  61              	.LVL1:
  62              	.L8:
  63              		.align	2
  64              	.L7:
  65 0020 00000000 		.word	__stack_chk_guard
  66              		.cfi_endproc
  67              	.LFE256:
  68              		.size	dcmiInit, .-dcmiInit
  69              		.section	.text.dcmiObjectInit,"ax",%progbits
  70              		.align	1
  71              		.p2align 4,,15
  72              		.global	dcmiObjectInit
  73              		.syntax unified
  74              		.thumb
  75              		.thumb_func
  76              		.fpu fpv4-sp-d16
  77              		.type	dcmiObjectInit, %function
  78              	dcmiObjectInit:
  79              	.LFB257:
  80              		.loc 1 73 0
  81              		.cfi_startproc
  82              		@ args = 0, pretend = 0, frame = 8
  83              		@ frame_needed = 0, uses_anonymous_args = 0
  84              	.LVL2:
  85 0000 00B5     		push	{lr}
  86              		.cfi_def_cfa_offset 4
  87              		.cfi_offset 14, -4
  88 0002 084B     		ldr	r3, .L13
  89 0004 83B0     		sub	sp, sp, #12
  90              		.cfi_def_cfa_offset 16
  91              		.loc 1 73 0
  92 0006 1A68     		ldr	r2, [r3]
  93 0008 0192     		str	r2, [sp, #4]
  94              		.loc 1 74 0
  95 000a 0122     		movs	r2, #1
  96 000c 0270     		strb	r2, [r0]
  97              		.loc 1 79 0
  98 000e 019A     		ldr	r2, [sp, #4]
  99 0010 1B68     		ldr	r3, [r3]
 100              		.loc 1 75 0
 101 0012 0021     		movs	r1, #0
 102              		.loc 1 79 0
 103 0014 9A42     		cmp	r2, r3
 104              		.loc 1 75 0
 105 0016 4160     		str	r1, [r0, #4]
 106              		.loc 1 79 0
 107 0018 02D1     		bne	.L12
 108 001a 03B0     		add	sp, sp, #12
 109              		.cfi_remember_state
 110              		.cfi_def_cfa_offset 4
 111              		@ sp needed
 112 001c 5DF804FB 		ldr	pc, [sp], #4
 113              	.L12:
 114              		.cfi_restore_state
ARM GAS  /var/folders/d2/nstgp4h54kz7g1l847x_b8wc0000gn/T//ccW5vS43.s 			page 3


 115 0020 FFF7FEFF 		bl	__stack_chk_fail
 116              	.LVL3:
 117              	.L14:
 118              		.align	2
 119              	.L13:
 120 0024 00000000 		.word	__stack_chk_guard
 121              		.cfi_endproc
 122              	.LFE257:
 123              		.size	dcmiObjectInit, .-dcmiObjectInit
 124              		.section	.text.dcmiPrepare,"ax",%progbits
 125              		.align	1
 126              		.p2align 4,,15
 127              		.global	dcmiPrepare
 128              		.syntax unified
 129              		.thumb
 130              		.thumb_func
 131              		.fpu fpv4-sp-d16
 132              		.type	dcmiPrepare, %function
 133              	dcmiPrepare:
 134              	.LFB258:
 135              		.loc 1 99 0
 136              		.cfi_startproc
 137              		@ args = 4, pretend = 0, frame = 8
 138              		@ frame_needed = 0, uses_anonymous_args = 0
 139              	.LVL4:
 140 0000 2DE9F043 		push	{r4, r5, r6, r7, r8, r9, lr}
 141              		.cfi_def_cfa_offset 28
 142              		.cfi_offset 4, -28
 143              		.cfi_offset 5, -24
 144              		.cfi_offset 6, -20
 145              		.cfi_offset 7, -16
 146              		.cfi_offset 8, -12
 147              		.cfi_offset 9, -8
 148              		.cfi_offset 14, -4
 149 0004 254D     		ldr	r5, .L34
 150 0006 83B0     		sub	sp, sp, #12
 151              		.cfi_def_cfa_offset 40
 152              		.loc 1 99 0
 153 0008 2C68     		ldr	r4, [r5]
 154 000a 0194     		str	r4, [sp, #4]
 155 000c DDF82890 		ldr	r9, [sp, #40]
 156 0010 0F46     		mov	r7, r1
 157 0012 1646     		mov	r6, r2
 158 0014 9846     		mov	r8, r3
 159              		.loc 1 102 0
 160 0016 0446     		mov	r4, r0
 161 0018 18B1     		cbz	r0, .L16
 162              		.loc 1 102 0 is_stmt 0 discriminator 3
 163 001a 11B1     		cbz	r1, .L16
 164              		.loc 1 102 0 discriminator 5
 165 001c 204B     		ldr	r3, .L34+4
 166              	.LVL5:
 167 001e 9A42     		cmp	r2, r3
 168 0020 2FD9     		bls	.L31
 169              	.L16:
 170              		.loc 1 102 0 discriminator 10
 171 0022 2048     		ldr	r0, .L34+8
ARM GAS  /var/folders/d2/nstgp4h54kz7g1l847x_b8wc0000gn/T//ccW5vS43.s 			page 4


 172              	.LVL6:
 173 0024 FFF7FEFF 		bl	chSysHalt
 174              	.LVL7:
 175              	.L17:
 176              	.LBB86:
 177              	.LBB87:
 178              	.LBB88:
 179              	.LBB89:
 180              	.LBB90:
 181              	.LBB91:
 182              		.file 2 "../e-puck2_main-processor/ChibiOS//os/ext/CMSIS/include/core_cmFunc.h"
 183              		.loc 2 546 0 is_stmt 1
 184 0028 2023     		movs	r3, #32
 185              		.syntax unified
 186              	@ 546 "../e-puck2_main-processor/ChibiOS//os/ext/CMSIS/include/core_cmFunc.h" 1
 187 002a 83F31188 		MSR basepri, r3
 188              	@ 0 "" 2
 189              	.LVL8:
 190              		.thumb
 191              		.syntax unified
 192              	.LBE91:
 193              	.LBE90:
 194              	.LBE89:
 195              		.file 3 "../e-puck2_main-processor/ChibiOS//os/rt/include/chsys.h"
 196              		.loc 3 349 0
 197 002e FFF7FEFF 		bl	_stats_start_measure_crit_thd
 198              	.LVL9:
 199              		.loc 3 350 0
 200 0032 FFF7FEFF 		bl	_dbg_check_lock
 201              	.LVL10:
 202              	.LBE88:
 203              	.LBE87:
 204              	.LBE86:
 205              		.loc 1 104 0
 206 0036 2378     		ldrb	r3, [r4]	@ zero_extendqisi2
 207 0038 012B     		cmp	r3, #1
 208 003a 02D0     		beq	.L18
 209              		.loc 1 104 0 is_stmt 0 discriminator 2
 210 003c 1948     		ldr	r0, .L34+8
 211 003e FFF7FEFF 		bl	chSysHalt
 212              	.LVL11:
 213              	.L18:
 214              		.loc 1 106 0 is_stmt 1
 215 0042 4246     		mov	r2, r8
 216 0044 3146     		mov	r1, r6
 217 0046 2046     		mov	r0, r4
 218 0048 4B46     		mov	r3, r9
 219              		.loc 1 105 0
 220 004a 6760     		str	r7, [r4, #4]
 221              		.loc 1 106 0
 222 004c FFF7FEFF 		bl	dcmi_lld_prepare
 223              	.LVL12:
 224              		.loc 1 107 0
 225 0050 0223     		movs	r3, #2
 226 0052 2370     		strb	r3, [r4]
 227              	.LBB92:
 228              	.LBB93:
ARM GAS  /var/folders/d2/nstgp4h54kz7g1l847x_b8wc0000gn/T//ccW5vS43.s 			page 5


 229              	.LBB94:
 230              		.loc 3 360 0
 231 0054 FFF7FEFF 		bl	_dbg_check_unlock
 232              	.LVL13:
 233              		.loc 3 361 0
 234 0058 FFF7FEFF 		bl	_stats_stop_measure_crit_thd
 235              	.LVL14:
 236              		.loc 3 367 0
 237 005c 124B     		ldr	r3, .L34+12
 238 005e 1A68     		ldr	r2, [r3]
 239 0060 9A42     		cmp	r2, r3
 240 0062 04D0     		beq	.L19
 241 0064 9969     		ldr	r1, [r3, #24]
 242 0066 9368     		ldr	r3, [r2, #8]
 243 0068 8A68     		ldr	r2, [r1, #8]
 244 006a 9A42     		cmp	r2, r3
 245 006c 0FD3     		bcc	.L32
 246              	.L19:
 247              	.LVL15:
 248              	.LBB95:
 249              	.LBB96:
 250              	.LBB97:
 251              		.loc 2 546 0
 252 006e 0023     		movs	r3, #0
 253              		.syntax unified
 254              	@ 546 "../e-puck2_main-processor/ChibiOS//os/ext/CMSIS/include/core_cmFunc.h" 1
 255 0070 83F31188 		MSR basepri, r3
 256              	@ 0 "" 2
 257              	.LVL16:
 258              		.thumb
 259              		.syntax unified
 260              	.LBE97:
 261              	.LBE96:
 262              	.LBE95:
 263              	.LBE94:
 264              	.LBE93:
 265              	.LBE92:
 266              		.loc 1 109 0
 267 0074 019A     		ldr	r2, [sp, #4]
 268 0076 2B68     		ldr	r3, [r5]
 269 0078 9A42     		cmp	r2, r3
 270 007a 0CD1     		bne	.L33
 271 007c 03B0     		add	sp, sp, #12
 272              		.cfi_remember_state
 273              		.cfi_def_cfa_offset 28
 274              		@ sp needed
 275 007e BDE8F083 		pop	{r4, r5, r6, r7, r8, r9, pc}
 276              	.LVL17:
 277              	.L31:
 278              		.cfi_restore_state
 279              		.loc 1 102 0 discriminator 7
 280 0082 9307     		lsls	r3, r2, #30
 281 0084 CDD1     		bne	.L16
 282              		.loc 1 102 0 is_stmt 0 discriminator 9
 283 0086 B8F1000F 		cmp	r8, #0
 284 008a CDD1     		bne	.L17
 285 008c C9E7     		b	.L16
ARM GAS  /var/folders/d2/nstgp4h54kz7g1l847x_b8wc0000gn/T//ccW5vS43.s 			page 6


 286              	.LVL18:
 287              	.L32:
 288              	.LBB100:
 289              	.LBB99:
 290              	.LBB98:
 291              		.loc 3 367 0 is_stmt 1
 292 008e 0748     		ldr	r0, .L34+16
 293 0090 FFF7FEFF 		bl	chSysHalt
 294              	.LVL19:
 295 0094 EBE7     		b	.L19
 296              	.L33:
 297              	.LBE98:
 298              	.LBE99:
 299              	.LBE100:
 300              		.loc 1 109 0
 301 0096 FFF7FEFF 		bl	__stack_chk_fail
 302              	.LVL20:
 303              	.L35:
 304 009a 00BF     		.align	2
 305              	.L34:
 306 009c 00000000 		.word	__stack_chk_guard
 307 00a0 FCFF0300 		.word	262140
 308 00a4 00000000 		.word	.LANCHOR0
 309 00a8 00000000 		.word	ch
 310 00ac 00000000 		.word	.LANCHOR1
 311              		.cfi_endproc
 312              	.LFE258:
 313              		.size	dcmiPrepare, .-dcmiPrepare
 314              		.section	.text.dcmiUnprepare,"ax",%progbits
 315              		.align	1
 316              		.p2align 4,,15
 317              		.global	dcmiUnprepare
 318              		.syntax unified
 319              		.thumb
 320              		.thumb_func
 321              		.fpu fpv4-sp-d16
 322              		.type	dcmiUnprepare, %function
 323              	dcmiUnprepare:
 324              	.LFB259:
 325              		.loc 1 119 0
 326              		.cfi_startproc
 327              		@ args = 0, pretend = 0, frame = 8
 328              		@ frame_needed = 0, uses_anonymous_args = 0
 329              	.LVL21:
 330 0000 30B5     		push	{r4, r5, lr}
 331              		.cfi_def_cfa_offset 12
 332              		.cfi_offset 4, -12
 333              		.cfi_offset 5, -8
 334              		.cfi_offset 14, -4
 335 0002 1C4D     		ldr	r5, .L48
 336 0004 83B0     		sub	sp, sp, #12
 337              		.cfi_def_cfa_offset 24
 338              		.loc 1 119 0
 339 0006 2B68     		ldr	r3, [r5]
 340 0008 0193     		str	r3, [sp, #4]
 341              		.loc 1 120 0
 342 000a 0446     		mov	r4, r0
ARM GAS  /var/folders/d2/nstgp4h54kz7g1l847x_b8wc0000gn/T//ccW5vS43.s 			page 7


 343 000c 58B3     		cbz	r0, .L45
 344              	.LVL22:
 345              	.L37:
 346              	.LBB114:
 347              	.LBB115:
 348              	.LBB116:
 349              	.LBB117:
 350              	.LBB118:
 351              	.LBB119:
 352              		.loc 2 546 0
 353 000e 2023     		movs	r3, #32
 354              		.syntax unified
 355              	@ 546 "../e-puck2_main-processor/ChibiOS//os/ext/CMSIS/include/core_cmFunc.h" 1
 356 0010 83F31188 		MSR basepri, r3
 357              	@ 0 "" 2
 358              	.LVL23:
 359              		.thumb
 360              		.syntax unified
 361              	.LBE119:
 362              	.LBE118:
 363              	.LBE117:
 364              		.loc 3 349 0
 365 0014 FFF7FEFF 		bl	_stats_start_measure_crit_thd
 366              	.LVL24:
 367              		.loc 3 350 0
 368 0018 FFF7FEFF 		bl	_dbg_check_lock
 369              	.LVL25:
 370              	.LBE116:
 371              	.LBE115:
 372              	.LBE114:
 373              		.loc 1 122 0
 374 001c 2378     		ldrb	r3, [r4]	@ zero_extendqisi2
 375 001e 022B     		cmp	r3, #2
 376 0020 02D0     		beq	.L38
 377              		.loc 1 122 0 is_stmt 0 discriminator 2
 378 0022 1548     		ldr	r0, .L48+4
 379 0024 FFF7FEFF 		bl	chSysHalt
 380              	.LVL26:
 381              	.L38:
 382              		.loc 1 123 0 is_stmt 1
 383 0028 2046     		mov	r0, r4
 384 002a FFF7FEFF 		bl	dcmi_lld_unprepare
 385              	.LVL27:
 386              		.loc 1 124 0
 387 002e 0123     		movs	r3, #1
 388 0030 2370     		strb	r3, [r4]
 389              	.LBB120:
 390              	.LBB121:
 391              	.LBB122:
 392              		.loc 3 360 0
 393 0032 FFF7FEFF 		bl	_dbg_check_unlock
 394              	.LVL28:
 395              		.loc 3 361 0
 396 0036 FFF7FEFF 		bl	_stats_stop_measure_crit_thd
 397              	.LVL29:
 398              		.loc 3 367 0
 399 003a 104B     		ldr	r3, .L48+8
ARM GAS  /var/folders/d2/nstgp4h54kz7g1l847x_b8wc0000gn/T//ccW5vS43.s 			page 8


 400 003c 1A68     		ldr	r2, [r3]
 401 003e 9A42     		cmp	r2, r3
 402 0040 04D0     		beq	.L39
 403 0042 9969     		ldr	r1, [r3, #24]
 404 0044 9368     		ldr	r3, [r2, #8]
 405 0046 8A68     		ldr	r2, [r1, #8]
 406 0048 9A42     		cmp	r2, r3
 407 004a 08D3     		bcc	.L46
 408              	.L39:
 409              	.LVL30:
 410              	.LBB123:
 411              	.LBB124:
 412              	.LBB125:
 413              		.loc 2 546 0
 414 004c 0023     		movs	r3, #0
 415              		.syntax unified
 416              	@ 546 "../e-puck2_main-processor/ChibiOS//os/ext/CMSIS/include/core_cmFunc.h" 1
 417 004e 83F31188 		MSR basepri, r3
 418              	@ 0 "" 2
 419              	.LVL31:
 420              		.thumb
 421              		.syntax unified
 422              	.LBE125:
 423              	.LBE124:
 424              	.LBE123:
 425              	.LBE122:
 426              	.LBE121:
 427              	.LBE120:
 428              		.loc 1 126 0
 429 0052 019A     		ldr	r2, [sp, #4]
 430 0054 2B68     		ldr	r3, [r5]
 431 0056 9A42     		cmp	r2, r3
 432 0058 09D1     		bne	.L47
 433 005a 03B0     		add	sp, sp, #12
 434              		.cfi_remember_state
 435              		.cfi_def_cfa_offset 12
 436              		@ sp needed
 437 005c 30BD     		pop	{r4, r5, pc}
 438              	.LVL32:
 439              	.L46:
 440              		.cfi_restore_state
 441              	.LBB128:
 442              	.LBB127:
 443              	.LBB126:
 444              		.loc 3 367 0
 445 005e 0848     		ldr	r0, .L48+12
 446 0060 FFF7FEFF 		bl	chSysHalt
 447              	.LVL33:
 448 0064 F2E7     		b	.L39
 449              	.LVL34:
 450              	.L45:
 451              	.LBE126:
 452              	.LBE127:
 453              	.LBE128:
 454              		.loc 1 120 0 discriminator 2
 455 0066 0448     		ldr	r0, .L48+4
 456              	.LVL35:
ARM GAS  /var/folders/d2/nstgp4h54kz7g1l847x_b8wc0000gn/T//ccW5vS43.s 			page 9


 457 0068 FFF7FEFF 		bl	chSysHalt
 458              	.LVL36:
 459 006c CFE7     		b	.L37
 460              	.L47:
 461              		.loc 1 126 0
 462 006e FFF7FEFF 		bl	__stack_chk_fail
 463              	.LVL37:
 464              	.L49:
 465 0072 00BF     		.align	2
 466              	.L48:
 467 0074 00000000 		.word	__stack_chk_guard
 468 0078 00000000 		.word	.LANCHOR2
 469 007c 00000000 		.word	ch
 470 0080 00000000 		.word	.LANCHOR1
 471              		.cfi_endproc
 472              	.LFE259:
 473              		.size	dcmiUnprepare, .-dcmiUnprepare
 474              		.section	.text.dcmiStartOneShot,"ax",%progbits
 475              		.align	1
 476              		.p2align 4,,15
 477              		.global	dcmiStartOneShot
 478              		.syntax unified
 479              		.thumb
 480              		.thumb_func
 481              		.fpu fpv4-sp-d16
 482              		.type	dcmiStartOneShot, %function
 483              	dcmiStartOneShot:
 484              	.LFB260:
 485              		.loc 1 136 0
 486              		.cfi_startproc
 487              		@ args = 0, pretend = 0, frame = 8
 488              		@ frame_needed = 0, uses_anonymous_args = 0
 489              	.LVL38:
 490 0000 30B5     		push	{r4, r5, lr}
 491              		.cfi_def_cfa_offset 12
 492              		.cfi_offset 4, -12
 493              		.cfi_offset 5, -8
 494              		.cfi_offset 14, -4
 495 0002 1C4D     		ldr	r5, .L62
 496 0004 83B0     		sub	sp, sp, #12
 497              		.cfi_def_cfa_offset 24
 498              		.loc 1 136 0
 499 0006 2B68     		ldr	r3, [r5]
 500 0008 0193     		str	r3, [sp, #4]
 501              		.loc 1 137 0
 502 000a 0446     		mov	r4, r0
 503 000c 58B3     		cbz	r0, .L59
 504              	.LVL39:
 505              	.L51:
 506              	.LBB142:
 507              	.LBB143:
 508              	.LBB144:
 509              	.LBB145:
 510              	.LBB146:
 511              	.LBB147:
 512              		.loc 2 546 0
 513 000e 2023     		movs	r3, #32
ARM GAS  /var/folders/d2/nstgp4h54kz7g1l847x_b8wc0000gn/T//ccW5vS43.s 			page 10


 514              		.syntax unified
 515              	@ 546 "../e-puck2_main-processor/ChibiOS//os/ext/CMSIS/include/core_cmFunc.h" 1
 516 0010 83F31188 		MSR basepri, r3
 517              	@ 0 "" 2
 518              	.LVL40:
 519              		.thumb
 520              		.syntax unified
 521              	.LBE147:
 522              	.LBE146:
 523              	.LBE145:
 524              		.loc 3 349 0
 525 0014 FFF7FEFF 		bl	_stats_start_measure_crit_thd
 526              	.LVL41:
 527              		.loc 3 350 0
 528 0018 FFF7FEFF 		bl	_dbg_check_lock
 529              	.LVL42:
 530              	.LBE144:
 531              	.LBE143:
 532              	.LBE142:
 533              		.loc 1 139 0
 534 001c 2378     		ldrb	r3, [r4]	@ zero_extendqisi2
 535 001e 022B     		cmp	r3, #2
 536 0020 02D0     		beq	.L52
 537              		.loc 1 139 0 is_stmt 0 discriminator 2
 538 0022 1548     		ldr	r0, .L62+4
 539 0024 FFF7FEFF 		bl	chSysHalt
 540              	.LVL43:
 541              	.L52:
 542              		.loc 1 140 0 is_stmt 1
 543 0028 2046     		mov	r0, r4
 544 002a FFF7FEFF 		bl	dcmi_lld_start_oneshot
 545              	.LVL44:
 546 002e 0423     		movs	r3, #4
 547 0030 2370     		strb	r3, [r4]
 548              	.LBB148:
 549              	.LBB149:
 550              	.LBB150:
 551              		.loc 3 360 0
 552 0032 FFF7FEFF 		bl	_dbg_check_unlock
 553              	.LVL45:
 554              		.loc 3 361 0
 555 0036 FFF7FEFF 		bl	_stats_stop_measure_crit_thd
 556              	.LVL46:
 557              		.loc 3 367 0
 558 003a 104B     		ldr	r3, .L62+8
 559 003c 1A68     		ldr	r2, [r3]
 560 003e 9A42     		cmp	r2, r3
 561 0040 04D0     		beq	.L53
 562 0042 9969     		ldr	r1, [r3, #24]
 563 0044 9368     		ldr	r3, [r2, #8]
 564 0046 8A68     		ldr	r2, [r1, #8]
 565 0048 9A42     		cmp	r2, r3
 566 004a 08D3     		bcc	.L60
 567              	.L53:
 568              	.LVL47:
 569              	.LBB151:
 570              	.LBB152:
ARM GAS  /var/folders/d2/nstgp4h54kz7g1l847x_b8wc0000gn/T//ccW5vS43.s 			page 11


 571              	.LBB153:
 572              		.loc 2 546 0
 573 004c 0023     		movs	r3, #0
 574              		.syntax unified
 575              	@ 546 "../e-puck2_main-processor/ChibiOS//os/ext/CMSIS/include/core_cmFunc.h" 1
 576 004e 83F31188 		MSR basepri, r3
 577              	@ 0 "" 2
 578              	.LVL48:
 579              		.thumb
 580              		.syntax unified
 581              	.LBE153:
 582              	.LBE152:
 583              	.LBE151:
 584              	.LBE150:
 585              	.LBE149:
 586              	.LBE148:
 587              		.loc 1 142 0
 588 0052 019A     		ldr	r2, [sp, #4]
 589 0054 2B68     		ldr	r3, [r5]
 590 0056 9A42     		cmp	r2, r3
 591 0058 09D1     		bne	.L61
 592 005a 03B0     		add	sp, sp, #12
 593              		.cfi_remember_state
 594              		.cfi_def_cfa_offset 12
 595              		@ sp needed
 596 005c 30BD     		pop	{r4, r5, pc}
 597              	.LVL49:
 598              	.L60:
 599              		.cfi_restore_state
 600              	.LBB156:
 601              	.LBB155:
 602              	.LBB154:
 603              		.loc 3 367 0
 604 005e 0848     		ldr	r0, .L62+12
 605 0060 FFF7FEFF 		bl	chSysHalt
 606              	.LVL50:
 607 0064 F2E7     		b	.L53
 608              	.LVL51:
 609              	.L59:
 610              	.LBE154:
 611              	.LBE155:
 612              	.LBE156:
 613              		.loc 1 137 0 discriminator 2
 614 0066 0448     		ldr	r0, .L62+4
 615              	.LVL52:
 616 0068 FFF7FEFF 		bl	chSysHalt
 617              	.LVL53:
 618 006c CFE7     		b	.L51
 619              	.L61:
 620              		.loc 1 142 0
 621 006e FFF7FEFF 		bl	__stack_chk_fail
 622              	.LVL54:
 623              	.L63:
 624 0072 00BF     		.align	2
 625              	.L62:
 626 0074 00000000 		.word	__stack_chk_guard
 627 0078 00000000 		.word	.LANCHOR3
ARM GAS  /var/folders/d2/nstgp4h54kz7g1l847x_b8wc0000gn/T//ccW5vS43.s 			page 12


 628 007c 00000000 		.word	ch
 629 0080 00000000 		.word	.LANCHOR1
 630              		.cfi_endproc
 631              	.LFE260:
 632              		.size	dcmiStartOneShot, .-dcmiStartOneShot
 633              		.section	.text.dcmiStartStream,"ax",%progbits
 634              		.align	1
 635              		.p2align 4,,15
 636              		.global	dcmiStartStream
 637              		.syntax unified
 638              		.thumb
 639              		.thumb_func
 640              		.fpu fpv4-sp-d16
 641              		.type	dcmiStartStream, %function
 642              	dcmiStartStream:
 643              	.LFB261:
 644              		.loc 1 152 0
 645              		.cfi_startproc
 646              		@ args = 0, pretend = 0, frame = 8
 647              		@ frame_needed = 0, uses_anonymous_args = 0
 648              	.LVL55:
 649 0000 30B5     		push	{r4, r5, lr}
 650              		.cfi_def_cfa_offset 12
 651              		.cfi_offset 4, -12
 652              		.cfi_offset 5, -8
 653              		.cfi_offset 14, -4
 654 0002 1C4D     		ldr	r5, .L76
 655 0004 83B0     		sub	sp, sp, #12
 656              		.cfi_def_cfa_offset 24
 657              		.loc 1 152 0
 658 0006 2B68     		ldr	r3, [r5]
 659 0008 0193     		str	r3, [sp, #4]
 660              		.loc 1 153 0
 661 000a 0446     		mov	r4, r0
 662 000c 58B3     		cbz	r0, .L73
 663              	.LVL56:
 664              	.L65:
 665              	.LBB170:
 666              	.LBB171:
 667              	.LBB172:
 668              	.LBB173:
 669              	.LBB174:
 670              	.LBB175:
 671              		.loc 2 546 0
 672 000e 2023     		movs	r3, #32
 673              		.syntax unified
 674              	@ 546 "../e-puck2_main-processor/ChibiOS//os/ext/CMSIS/include/core_cmFunc.h" 1
 675 0010 83F31188 		MSR basepri, r3
 676              	@ 0 "" 2
 677              	.LVL57:
 678              		.thumb
 679              		.syntax unified
 680              	.LBE175:
 681              	.LBE174:
 682              	.LBE173:
 683              		.loc 3 349 0
 684 0014 FFF7FEFF 		bl	_stats_start_measure_crit_thd
ARM GAS  /var/folders/d2/nstgp4h54kz7g1l847x_b8wc0000gn/T//ccW5vS43.s 			page 13


 685              	.LVL58:
 686              		.loc 3 350 0
 687 0018 FFF7FEFF 		bl	_dbg_check_lock
 688              	.LVL59:
 689              	.LBE172:
 690              	.LBE171:
 691              	.LBE170:
 692              		.loc 1 155 0
 693 001c 2378     		ldrb	r3, [r4]	@ zero_extendqisi2
 694 001e 022B     		cmp	r3, #2
 695 0020 02D0     		beq	.L66
 696              		.loc 1 155 0 is_stmt 0 discriminator 2
 697 0022 1548     		ldr	r0, .L76+4
 698 0024 FFF7FEFF 		bl	chSysHalt
 699              	.LVL60:
 700              	.L66:
 701              		.loc 1 156 0 is_stmt 1
 702 0028 2046     		mov	r0, r4
 703 002a FFF7FEFF 		bl	dcmi_lld_start_stream
 704              	.LVL61:
 705 002e 0323     		movs	r3, #3
 706 0030 2370     		strb	r3, [r4]
 707              	.LBB176:
 708              	.LBB177:
 709              	.LBB178:
 710              		.loc 3 360 0
 711 0032 FFF7FEFF 		bl	_dbg_check_unlock
 712              	.LVL62:
 713              		.loc 3 361 0
 714 0036 FFF7FEFF 		bl	_stats_stop_measure_crit_thd
 715              	.LVL63:
 716              		.loc 3 367 0
 717 003a 104B     		ldr	r3, .L76+8
 718 003c 1A68     		ldr	r2, [r3]
 719 003e 9A42     		cmp	r2, r3
 720 0040 04D0     		beq	.L67
 721 0042 9969     		ldr	r1, [r3, #24]
 722 0044 9368     		ldr	r3, [r2, #8]
 723 0046 8A68     		ldr	r2, [r1, #8]
 724 0048 9A42     		cmp	r2, r3
 725 004a 08D3     		bcc	.L74
 726              	.L67:
 727              	.LVL64:
 728              	.LBB179:
 729              	.LBB180:
 730              	.LBB181:
 731              		.loc 2 546 0
 732 004c 0023     		movs	r3, #0
 733              		.syntax unified
 734              	@ 546 "../e-puck2_main-processor/ChibiOS//os/ext/CMSIS/include/core_cmFunc.h" 1
 735 004e 83F31188 		MSR basepri, r3
 736              	@ 0 "" 2
 737              	.LVL65:
 738              		.thumb
 739              		.syntax unified
 740              	.LBE181:
 741              	.LBE180:
ARM GAS  /var/folders/d2/nstgp4h54kz7g1l847x_b8wc0000gn/T//ccW5vS43.s 			page 14


 742              	.LBE179:
 743              	.LBE178:
 744              	.LBE177:
 745              	.LBE176:
 746              		.loc 1 158 0
 747 0052 019A     		ldr	r2, [sp, #4]
 748 0054 2B68     		ldr	r3, [r5]
 749 0056 9A42     		cmp	r2, r3
 750 0058 09D1     		bne	.L75
 751 005a 03B0     		add	sp, sp, #12
 752              		.cfi_remember_state
 753              		.cfi_def_cfa_offset 12
 754              		@ sp needed
 755 005c 30BD     		pop	{r4, r5, pc}
 756              	.LVL66:
 757              	.L74:
 758              		.cfi_restore_state
 759              	.LBB184:
 760              	.LBB183:
 761              	.LBB182:
 762              		.loc 3 367 0
 763 005e 0848     		ldr	r0, .L76+12
 764 0060 FFF7FEFF 		bl	chSysHalt
 765              	.LVL67:
 766 0064 F2E7     		b	.L67
 767              	.LVL68:
 768              	.L73:
 769              	.LBE182:
 770              	.LBE183:
 771              	.LBE184:
 772              		.loc 1 153 0 discriminator 2
 773 0066 0448     		ldr	r0, .L76+4
 774              	.LVL69:
 775 0068 FFF7FEFF 		bl	chSysHalt
 776              	.LVL70:
 777 006c CFE7     		b	.L65
 778              	.L75:
 779              		.loc 1 158 0
 780 006e FFF7FEFF 		bl	__stack_chk_fail
 781              	.LVL71:
 782              	.L77:
 783 0072 00BF     		.align	2
 784              	.L76:
 785 0074 00000000 		.word	__stack_chk_guard
 786 0078 00000000 		.word	.LANCHOR4
 787 007c 00000000 		.word	ch
 788 0080 00000000 		.word	.LANCHOR1
 789              		.cfi_endproc
 790              	.LFE261:
 791              		.size	dcmiStartStream, .-dcmiStartStream
 792              		.section	.text.dcmiStopStream,"ax",%progbits
 793              		.align	1
 794              		.p2align 4,,15
 795              		.global	dcmiStopStream
 796              		.syntax unified
 797              		.thumb
 798              		.thumb_func
ARM GAS  /var/folders/d2/nstgp4h54kz7g1l847x_b8wc0000gn/T//ccW5vS43.s 			page 15


 799              		.fpu fpv4-sp-d16
 800              		.type	dcmiStopStream, %function
 801              	dcmiStopStream:
 802              	.LFB262:
 803              		.loc 1 172 0
 804              		.cfi_startproc
 805              		@ args = 0, pretend = 0, frame = 8
 806              		@ frame_needed = 0, uses_anonymous_args = 0
 807              	.LVL72:
 808 0000 70B5     		push	{r4, r5, r6, lr}
 809              		.cfi_def_cfa_offset 16
 810              		.cfi_offset 4, -16
 811              		.cfi_offset 5, -12
 812              		.cfi_offset 6, -8
 813              		.cfi_offset 14, -4
 814 0002 1F4E     		ldr	r6, .L93
 815 0004 82B0     		sub	sp, sp, #8
 816              		.cfi_def_cfa_offset 24
 817              		.loc 1 172 0
 818 0006 3368     		ldr	r3, [r6]
 819 0008 0193     		str	r3, [sp, #4]
 820              		.loc 1 173 0
 821 000a 0446     		mov	r4, r0
 822 000c 88B3     		cbz	r0, .L89
 823              	.LVL73:
 824              	.L79:
 825              	.LBB198:
 826              	.LBB199:
 827              	.LBB200:
 828              	.LBB201:
 829              	.LBB202:
 830              	.LBB203:
 831              		.loc 2 546 0
 832 000e 2023     		movs	r3, #32
 833              		.syntax unified
 834              	@ 546 "../e-puck2_main-processor/ChibiOS//os/ext/CMSIS/include/core_cmFunc.h" 1
 835 0010 83F31188 		MSR basepri, r3
 836              	@ 0 "" 2
 837              	.LVL74:
 838              		.thumb
 839              		.syntax unified
 840              	.LBE203:
 841              	.LBE202:
 842              	.LBE201:
 843              		.loc 3 349 0
 844 0014 FFF7FEFF 		bl	_stats_start_measure_crit_thd
 845              	.LVL75:
 846              		.loc 3 350 0
 847 0018 FFF7FEFF 		bl	_dbg_check_lock
 848              	.LVL76:
 849              	.LBE200:
 850              	.LBE199:
 851              	.LBE198:
 852              		.loc 1 175 0
 853 001c 2378     		ldrb	r3, [r4]	@ zero_extendqisi2
 854 001e 032B     		cmp	r3, #3
 855 0020 02D0     		beq	.L80
ARM GAS  /var/folders/d2/nstgp4h54kz7g1l847x_b8wc0000gn/T//ccW5vS43.s 			page 16


 856              		.loc 1 175 0 is_stmt 0 discriminator 2
 857 0022 1848     		ldr	r0, .L93+4
 858 0024 FFF7FEFF 		bl	chSysHalt
 859              	.LVL77:
 860              	.L80:
 861              		.loc 1 176 0 is_stmt 1
 862 0028 2046     		mov	r0, r4
 863 002a FFF7FEFF 		bl	dcmi_lld_stop_stream
 864              	.LVL78:
 865              		.loc 1 177 0
 866 002e 0546     		mov	r5, r0
 867 0030 E0B1     		cbz	r0, .L90
 868              		.loc 1 180 0
 869 0032 0723     		movs	r3, #7
 870 0034 2370     		strb	r3, [r4]
 871              	.L82:
 872              	.LBB204:
 873              	.LBB205:
 874              	.LBB206:
 875              		.loc 3 360 0
 876 0036 FFF7FEFF 		bl	_dbg_check_unlock
 877              	.LVL79:
 878              		.loc 3 361 0
 879 003a FFF7FEFF 		bl	_stats_stop_measure_crit_thd
 880              	.LVL80:
 881              		.loc 3 367 0
 882 003e 124B     		ldr	r3, .L93+8
 883 0040 1A68     		ldr	r2, [r3]
 884 0042 9A42     		cmp	r2, r3
 885 0044 04D0     		beq	.L83
 886 0046 9969     		ldr	r1, [r3, #24]
 887 0048 9368     		ldr	r3, [r2, #8]
 888 004a 8A68     		ldr	r2, [r1, #8]
 889 004c 9A42     		cmp	r2, r3
 890 004e 09D3     		bcc	.L91
 891              	.L83:
 892              	.LVL81:
 893              	.LBB207:
 894              	.LBB208:
 895              	.LBB209:
 896              		.loc 2 546 0
 897 0050 0023     		movs	r3, #0
 898              		.syntax unified
 899              	@ 546 "../e-puck2_main-processor/ChibiOS//os/ext/CMSIS/include/core_cmFunc.h" 1
 900 0052 83F31188 		MSR basepri, r3
 901              	@ 0 "" 2
 902              	.LVL82:
 903              		.thumb
 904              		.syntax unified
 905              	.LBE209:
 906              	.LBE208:
 907              	.LBE207:
 908              	.LBE206:
 909              	.LBE205:
 910              	.LBE204:
 911              		.loc 1 184 0
 912 0056 019A     		ldr	r2, [sp, #4]
ARM GAS  /var/folders/d2/nstgp4h54kz7g1l847x_b8wc0000gn/T//ccW5vS43.s 			page 17


 913 0058 3368     		ldr	r3, [r6]
 914 005a 9A42     		cmp	r2, r3
 915 005c 2846     		mov	r0, r5
 916 005e 0CD1     		bne	.L92
 917              	.LVL83:
 918 0060 02B0     		add	sp, sp, #8
 919              		.cfi_remember_state
 920              		.cfi_def_cfa_offset 16
 921              		@ sp needed
 922 0062 70BD     		pop	{r4, r5, r6, pc}
 923              	.LVL84:
 924              	.L91:
 925              		.cfi_restore_state
 926              	.LBB212:
 927              	.LBB211:
 928              	.LBB210:
 929              		.loc 3 367 0
 930 0064 0948     		ldr	r0, .L93+12
 931 0066 FFF7FEFF 		bl	chSysHalt
 932              	.LVL85:
 933 006a F1E7     		b	.L83
 934              	.LVL86:
 935              	.L90:
 936              	.LBE210:
 937              	.LBE211:
 938              	.LBE212:
 939              		.loc 1 178 0
 940 006c 0223     		movs	r3, #2
 941 006e 2370     		strb	r3, [r4]
 942 0070 E1E7     		b	.L82
 943              	.LVL87:
 944              	.L89:
 945              		.loc 1 173 0 discriminator 2
 946 0072 0448     		ldr	r0, .L93+4
 947              	.LVL88:
 948 0074 FFF7FEFF 		bl	chSysHalt
 949              	.LVL89:
 950 0078 C9E7     		b	.L79
 951              	.LVL90:
 952              	.L92:
 953              		.loc 1 184 0
 954 007a FFF7FEFF 		bl	__stack_chk_fail
 955              	.LVL91:
 956              	.L94:
 957 007e 00BF     		.align	2
 958              	.L93:
 959 0080 00000000 		.word	__stack_chk_guard
 960 0084 00000000 		.word	.LANCHOR5
 961 0088 00000000 		.word	ch
 962 008c 00000000 		.word	.LANCHOR1
 963              		.cfi_endproc
 964              	.LFE262:
 965              		.size	dcmiStopStream, .-dcmiStopStream
 966              		.section	.text.dcmiRelease,"ax",%progbits
 967              		.align	1
 968              		.p2align 4,,15
 969              		.global	dcmiRelease
ARM GAS  /var/folders/d2/nstgp4h54kz7g1l847x_b8wc0000gn/T//ccW5vS43.s 			page 18


 970              		.syntax unified
 971              		.thumb
 972              		.thumb_func
 973              		.fpu fpv4-sp-d16
 974              		.type	dcmiRelease, %function
 975              	dcmiRelease:
 976              	.LFB263:
 977              		.loc 1 186 0
 978              		.cfi_startproc
 979              		@ args = 0, pretend = 0, frame = 8
 980              		@ frame_needed = 0, uses_anonymous_args = 0
 981              	.LVL92:
 982 0000 30B5     		push	{r4, r5, lr}
 983              		.cfi_def_cfa_offset 12
 984              		.cfi_offset 4, -12
 985              		.cfi_offset 5, -8
 986              		.cfi_offset 14, -4
 987 0002 1A4D     		ldr	r5, .L103
 988 0004 83B0     		sub	sp, sp, #12
 989              		.cfi_def_cfa_offset 24
 990              		.loc 1 186 0
 991 0006 2B68     		ldr	r3, [r5]
 992 0008 0193     		str	r3, [sp, #4]
 993              		.loc 1 187 0
 994 000a 0446     		mov	r4, r0
 995 000c 38B3     		cbz	r0, .L100
 996              	.LVL93:
 997              	.L96:
 998              	.LBB226:
 999              	.LBB227:
 1000              	.LBB228:
 1001              	.LBB229:
 1002              	.LBB230:
 1003              	.LBB231:
 1004              		.loc 2 546 0
 1005 000e 2023     		movs	r3, #32
 1006              		.syntax unified
 1007              	@ 546 "../e-puck2_main-processor/ChibiOS//os/ext/CMSIS/include/core_cmFunc.h" 1
 1008 0010 83F31188 		MSR basepri, r3
 1009              	@ 0 "" 2
 1010              	.LVL94:
 1011              		.thumb
 1012              		.syntax unified
 1013              	.LBE231:
 1014              	.LBE230:
 1015              	.LBE229:
 1016              		.loc 3 349 0
 1017 0014 FFF7FEFF 		bl	_stats_start_measure_crit_thd
 1018              	.LVL95:
 1019              		.loc 3 350 0
 1020 0018 FFF7FEFF 		bl	_dbg_check_lock
 1021              	.LVL96:
 1022              	.LBE228:
 1023              	.LBE227:
 1024              	.LBE226:
 1025              		.loc 1 189 0
 1026 001c 0223     		movs	r3, #2
ARM GAS  /var/folders/d2/nstgp4h54kz7g1l847x_b8wc0000gn/T//ccW5vS43.s 			page 19


 1027              		.loc 1 190 0
 1028 001e 2046     		mov	r0, r4
 1029              		.loc 1 189 0
 1030 0020 2370     		strb	r3, [r4]
 1031              		.loc 1 190 0
 1032 0022 FFF7FEFF 		bl	dcmi_lld_unprepare
 1033              	.LVL97:
 1034              		.loc 1 191 0
 1035 0026 0123     		movs	r3, #1
 1036 0028 2370     		strb	r3, [r4]
 1037              	.LBB232:
 1038              	.LBB233:
 1039              	.LBB234:
 1040              		.loc 3 360 0
 1041 002a FFF7FEFF 		bl	_dbg_check_unlock
 1042              	.LVL98:
 1043              		.loc 3 361 0
 1044 002e FFF7FEFF 		bl	_stats_stop_measure_crit_thd
 1045              	.LVL99:
 1046              		.loc 3 367 0
 1047 0032 0F4B     		ldr	r3, .L103+4
 1048 0034 1A68     		ldr	r2, [r3]
 1049 0036 9A42     		cmp	r2, r3
 1050 0038 04D0     		beq	.L97
 1051 003a 9969     		ldr	r1, [r3, #24]
 1052 003c 9368     		ldr	r3, [r2, #8]
 1053 003e 8A68     		ldr	r2, [r1, #8]
 1054 0040 9A42     		cmp	r2, r3
 1055 0042 08D3     		bcc	.L101
 1056              	.L97:
 1057              	.LVL100:
 1058              	.LBB235:
 1059              	.LBB236:
 1060              	.LBB237:
 1061              		.loc 2 546 0
 1062 0044 0023     		movs	r3, #0
 1063              		.syntax unified
 1064              	@ 546 "../e-puck2_main-processor/ChibiOS//os/ext/CMSIS/include/core_cmFunc.h" 1
 1065 0046 83F31188 		MSR basepri, r3
 1066              	@ 0 "" 2
 1067              	.LVL101:
 1068              		.thumb
 1069              		.syntax unified
 1070              	.LBE237:
 1071              	.LBE236:
 1072              	.LBE235:
 1073              	.LBE234:
 1074              	.LBE233:
 1075              	.LBE232:
 1076              		.loc 1 193 0
 1077 004a 019A     		ldr	r2, [sp, #4]
 1078 004c 2B68     		ldr	r3, [r5]
 1079 004e 9A42     		cmp	r2, r3
 1080 0050 09D1     		bne	.L102
 1081 0052 03B0     		add	sp, sp, #12
 1082              		.cfi_remember_state
 1083              		.cfi_def_cfa_offset 12
ARM GAS  /var/folders/d2/nstgp4h54kz7g1l847x_b8wc0000gn/T//ccW5vS43.s 			page 20


 1084              		@ sp needed
 1085 0054 30BD     		pop	{r4, r5, pc}
 1086              	.LVL102:
 1087              	.L101:
 1088              		.cfi_restore_state
 1089              	.LBB240:
 1090              	.LBB239:
 1091              	.LBB238:
 1092              		.loc 3 367 0
 1093 0056 0748     		ldr	r0, .L103+8
 1094 0058 FFF7FEFF 		bl	chSysHalt
 1095              	.LVL103:
 1096 005c F2E7     		b	.L97
 1097              	.LVL104:
 1098              	.L100:
 1099              	.LBE238:
 1100              	.LBE239:
 1101              	.LBE240:
 1102              		.loc 1 187 0 discriminator 2
 1103 005e 0648     		ldr	r0, .L103+12
 1104              	.LVL105:
 1105 0060 FFF7FEFF 		bl	chSysHalt
 1106              	.LVL106:
 1107 0064 D3E7     		b	.L96
 1108              	.L102:
 1109              		.loc 1 193 0
 1110 0066 FFF7FEFF 		bl	__stack_chk_fail
 1111              	.LVL107:
 1112              	.L104:
 1113 006a 00BF     		.align	2
 1114              	.L103:
 1115 006c 00000000 		.word	__stack_chk_guard
 1116 0070 00000000 		.word	ch
 1117 0074 00000000 		.word	.LANCHOR1
 1118 0078 00000000 		.word	.LANCHOR6
 1119              		.cfi_endproc
 1120              	.LFE263:
 1121              		.size	dcmiRelease, .-dcmiRelease
 1122              		.section	.rodata.__func__.7153,"a",%progbits
 1123              		.align	2
 1124              		.set	.LANCHOR1,. + 0
 1125              		.type	__func__.7153, %object
 1126              		.size	__func__.7153, 12
 1127              	__func__.7153:
 1128 0000 63685379 		.ascii	"chSysUnlock\000"
 1128      73556E6C 
 1128      6F636B00 
 1129              		.section	.rodata.__func__.9920,"a",%progbits
 1130              		.align	2
 1131              		.set	.LANCHOR0,. + 0
 1132              		.type	__func__.9920, %object
 1133              		.size	__func__.9920, 12
 1134              	__func__.9920:
 1135 0000 64636D69 		.ascii	"dcmiPrepare\000"
 1135      50726570 
 1135      61726500 
 1136              		.section	.rodata.__func__.9924,"a",%progbits
ARM GAS  /var/folders/d2/nstgp4h54kz7g1l847x_b8wc0000gn/T//ccW5vS43.s 			page 21


 1137              		.align	2
 1138              		.set	.LANCHOR2,. + 0
 1139              		.type	__func__.9924, %object
 1140              		.size	__func__.9924, 14
 1141              	__func__.9924:
 1142 0000 64636D69 		.ascii	"dcmiUnprepare\000"
 1142      556E7072 
 1142      65706172 
 1142      6500
 1143              		.section	.rodata.__func__.9928,"a",%progbits
 1144              		.align	2
 1145              		.set	.LANCHOR3,. + 0
 1146              		.type	__func__.9928, %object
 1147              		.size	__func__.9928, 17
 1148              	__func__.9928:
 1149 0000 64636D69 		.ascii	"dcmiStartOneShot\000"
 1149      53746172 
 1149      744F6E65 
 1149      53686F74 
 1149      00
 1150              		.section	.rodata.__func__.9932,"a",%progbits
 1151              		.align	2
 1152              		.set	.LANCHOR4,. + 0
 1153              		.type	__func__.9932, %object
 1154              		.size	__func__.9932, 16
 1155              	__func__.9932:
 1156 0000 64636D69 		.ascii	"dcmiStartStream\000"
 1156      53746172 
 1156      74537472 
 1156      65616D00 
 1157              		.section	.rodata.__func__.9936,"a",%progbits
 1158              		.align	2
 1159              		.set	.LANCHOR5,. + 0
 1160              		.type	__func__.9936, %object
 1161              		.size	__func__.9936, 15
 1162              	__func__.9936:
 1163 0000 64636D69 		.ascii	"dcmiStopStream\000"
 1163      53746F70 
 1163      53747265 
 1163      616D00
 1164              		.section	.rodata.__func__.9941,"a",%progbits
 1165              		.align	2
 1166              		.set	.LANCHOR6,. + 0
 1167              		.type	__func__.9941, %object
 1168              		.size	__func__.9941, 12
 1169              	__func__.9941:
 1170 0000 64636D69 		.ascii	"dcmiRelease\000"
 1170      52656C65 
 1170      61736500 
 1171              		.text
 1172              	.Letext0:
 1173              		.file 4 "/Applications/Eclipse_e-puck2.app/Contents/Eclipse_e-puck2/Tools/gcc-arm-none-eabi-7-2017
 1174              		.file 5 "/Applications/Eclipse_e-puck2.app/Contents/Eclipse_e-puck2/Tools/gcc-arm-none-eabi-7-2017
 1175              		.file 6 "/Applications/Eclipse_e-puck2.app/Contents/Eclipse_e-puck2/Tools/gcc-arm-none-eabi-7-2017
 1176              		.file 7 "../e-puck2_main-processor/ChibiOS//os/rt/ports/ARMCMx/compilers/GCC/chtypes.h"
 1177              		.file 8 "../e-puck2_main-processor/ChibiOS//os/rt/include/chsystypes.h"
 1178              		.file 9 "../e-puck2_main-processor/ChibiOS//os/rt/include/chschd.h"
ARM GAS  /var/folders/d2/nstgp4h54kz7g1l847x_b8wc0000gn/T//ccW5vS43.s 			page 22


 1179              		.file 10 "../e-puck2_main-processor/ChibiOS//os/ext/CMSIS/include/core_cm4.h"
 1180              		.file 11 "../e-puck2_main-processor/ChibiOS//os/ext/CMSIS/ST/system_stm32f4xx.h"
 1181              		.file 12 "../e-puck2_main-processor/ChibiOS//os/ext/CMSIS/ST/stm32f407xx.h"
 1182              		.file 13 "../e-puck2_main-processor/ChibiOS//os/rt/ports/ARMCMx/chcore.h"
 1183              		.file 14 "../e-puck2_main-processor/ChibiOS//os/rt/ports/ARMCMx/chcore_v7m.h"
 1184              		.file 15 "../e-puck2_main-processor/ChibiOS//os/rt/include/chdebug.h"
 1185              		.file 16 "../e-puck2_main-processor/ChibiOS//os/rt/include/chtm.h"
 1186              		.file 17 "../e-puck2_main-processor/ChibiOS//os/rt/include/chstats.h"
 1187              		.file 18 "../e-puck2_main-processor/ChibiOS//os/rt/include/chsem.h"
 1188              		.file 19 "../e-puck2_main-processor/ChibiOS//os/rt/include/chmtx.h"
 1189              		.file 20 "../e-puck2_main-processor/ChibiOS//os/rt/include/chregistry.h"
 1190              		.file 21 "../e-puck2_main-processor/ChibiOS//os/rt/include/chevents.h"
 1191              		.file 22 "../e-puck2_main-processor/ChibiOS//os/rt/include/chqueues.h"
 1192              		.file 23 "../e-puck2_main-processor/ChibiOS//os/hal/ports/STM32/STM32F4xx/stm32_dma.h"
 1193              		.file 24 "../e-puck2_main-processor/ChibiOS//os/hal/include/hal_ioblock.h"
 1194              		.file 25 "../e-puck2_main-processor/ChibiOS//os/hal/ports/STM32/LLD/GPIOv2/pal_lld.h"
 1195              		.file 26 "../e-puck2_main-processor/ChibiOS//os/hal/include/adc.h"
 1196              		.file 27 "../e-puck2_main-processor/ChibiOS//os/hal/ports/STM32/STM32F4xx/adc_lld.h"
 1197              		.file 28 "../e-puck2_main-processor/ChibiOS//os/hal/include/can.h"
 1198              		.file 29 "../e-puck2_main-processor/ChibiOS//os/hal/ports/STM32/LLD/can_lld.h"
 1199              		.file 30 "../e-puck2_main-processor/ChibiOS//os/hal/include/dac.h"
 1200              		.file 31 "../e-puck2_main-processor/ChibiOS//os/hal/ports/STM32/LLD/DACv1/dac_lld.h"
 1201              		.file 32 "../e-puck2_main-processor/ChibiOS//os/hal/include/ext.h"
 1202              		.file 33 "../e-puck2_main-processor/ChibiOS//os/hal/ports/STM32/LLD/ext_lld.h"
 1203              		.file 34 "../e-puck2_main-processor/ChibiOS//os/hal/include/gpt.h"
 1204              		.file 35 "../e-puck2_main-processor/ChibiOS//os/hal/ports/STM32/LLD/TIMv1/gpt_lld.h"
 1205              		.file 36 "../e-puck2_main-processor/ChibiOS//os/hal/ports/STM32/LLD/TIMv1/stm32_tim.h"
 1206              		.file 37 "../e-puck2_main-processor/ChibiOS//os/hal/include/i2c.h"
 1207              		.file 38 "../e-puck2_main-processor/ChibiOS//os/hal/ports/STM32/LLD/I2Cv1/i2c_lld.h"
 1208              		.file 39 "../e-puck2_main-processor/ChibiOS//os/hal/include/i2s.h"
 1209              		.file 40 "../e-puck2_main-processor/ChibiOS//os/hal/ports/STM32/LLD/SPIv1/i2s_lld.h"
 1210              		.file 41 "../e-puck2_main-processor/ChibiOS//os/hal/include/pwm.h"
 1211              		.file 42 "../e-puck2_main-processor/ChibiOS//os/hal/ports/STM32/LLD/TIMv1/pwm_lld.h"
 1212              		.file 43 "../e-puck2_main-processor/ChibiOS//os/hal/include/serial.h"
 1213              		.file 44 "../e-puck2_main-processor/ChibiOS//os/hal/ports/STM32/LLD/USARTv1/serial_lld.h"
 1214              		.file 45 "../e-puck2_main-processor/ChibiOS//os/hal/include/sdc.h"
 1215              		.file 46 "../e-puck2_main-processor/ChibiOS//os/hal/ports/STM32/LLD/sdc_lld.h"
 1216              		.file 47 "../e-puck2_main-processor/ChibiOS//os/hal/include/spi.h"
 1217              		.file 48 "../e-puck2_main-processor/ChibiOS//os/hal/ports/STM32/LLD/SPIv1/spi_lld.h"
 1218              		.file 49 "../e-puck2_main-processor/ChibiOS//os/hal/include/usb.h"
 1219              		.file 50 "../e-puck2_main-processor/ChibiOS//os/hal/ports/STM32/LLD/OTGv1/usb_lld.h"
 1220              		.file 51 "../e-puck2_main-processor/ChibiOS//os/hal/ports/STM32/LLD/OTGv1/stm32_otg.h"
 1221              		.file 52 "../e-puck2_main-processor/ChibiOS_ext/os/hal/include/../ports/STM32/STM32F4xx/dcmi_lld.h
 1222              		.file 53 "../e-puck2_main-processor/ChibiOS//os/hal/osal/rt/osal.h"