ARM GAS  /var/folders/d2/nstgp4h54kz7g1l847x_b8wc0000gn/T//ccMwxqTy.s 			page 1


   1              		.cpu cortex-m4
   2              		.eabi_attribute 27, 1
   3              		.eabi_attribute 28, 1
   4              		.eabi_attribute 20, 1
   5              		.eabi_attribute 21, 1
   6              		.eabi_attribute 23, 3
   7              		.eabi_attribute 24, 1
   8              		.eabi_attribute 25, 1
   9              		.eabi_attribute 26, 1
  10              		.eabi_attribute 30, 2
  11              		.eabi_attribute 34, 1
  12              		.eabi_attribute 18, 4
  13              		.file	"e_agenda.c"
  14              		.text
  15              	.Ltext0:
  16              		.cfi_sections	.debug_frame
  17              		.section	.text.e_start_agendas_processing,"ax",%progbits
  18              		.align	1
  19              		.p2align 4,,15
  20              		.global	e_start_agendas_processing
  21              		.syntax unified
  22              		.thumb
  23              		.thumb_func
  24              		.fpu fpv4-sp-d16
  25              		.type	e_start_agendas_processing, %function
  26              	e_start_agendas_processing:
  27              	.LFB0:
  28              		.file 1 "../e-puck2_main-processor/src/epuck1x/motor_led/advance_one_timer/e_agenda.c"
  29              		.loc 1 49 0
  30              		.cfi_startproc
  31              		@ args = 0, pretend = 0, frame = 8
  32              		@ frame_needed = 0, uses_anonymous_args = 0
  33 0000 00B5     		push	{lr}
  34              		.cfi_def_cfa_offset 4
  35              		.cfi_offset 14, -4
  36 0002 064B     		ldr	r3, .L6
  37 0004 83B0     		sub	sp, sp, #12
  38              		.cfi_def_cfa_offset 16
  39              		.loc 1 49 0
  40 0006 1A68     		ldr	r2, [r3]
  41 0008 0192     		str	r2, [sp, #4]
  42              		.loc 1 57 0
  43 000a 019A     		ldr	r2, [sp, #4]
  44 000c 1B68     		ldr	r3, [r3]
  45 000e 9A42     		cmp	r2, r3
  46 0010 02D1     		bne	.L5
  47 0012 03B0     		add	sp, sp, #12
  48              		.cfi_remember_state
  49              		.cfi_def_cfa_offset 4
  50              		@ sp needed
  51 0014 5DF804FB 		ldr	pc, [sp], #4
  52              	.L5:
  53              		.cfi_restore_state
  54 0018 FFF7FEFF 		bl	__stack_chk_fail
  55              	.LVL0:
  56              	.L7:
  57              		.align	2
ARM GAS  /var/folders/d2/nstgp4h54kz7g1l847x_b8wc0000gn/T//ccMwxqTy.s 			page 2


  58              	.L6:
  59 001c 00000000 		.word	__stack_chk_guard
  60              		.cfi_endproc
  61              	.LFE0:
  62              		.size	e_start_agendas_processing, .-e_start_agendas_processing
  63              		.section	.text.e_end_agendas_processing,"ax",%progbits
  64              		.align	1
  65              		.p2align 4,,15
  66              		.global	e_end_agendas_processing
  67              		.syntax unified
  68              		.thumb
  69              		.thumb_func
  70              		.fpu fpv4-sp-d16
  71              		.type	e_end_agendas_processing, %function
  72              	e_end_agendas_processing:
  73              	.LFB9:
  74              		.cfi_startproc
  75              		@ args = 0, pretend = 0, frame = 8
  76              		@ frame_needed = 0, uses_anonymous_args = 0
  77 0000 00B5     		push	{lr}
  78              		.cfi_def_cfa_offset 4
  79              		.cfi_offset 14, -4
  80 0002 064B     		ldr	r3, .L12
  81 0004 83B0     		sub	sp, sp, #12
  82              		.cfi_def_cfa_offset 16
  83 0006 1A68     		ldr	r2, [r3]
  84 0008 0192     		str	r2, [sp, #4]
  85 000a 019A     		ldr	r2, [sp, #4]
  86 000c 1B68     		ldr	r3, [r3]
  87 000e 9A42     		cmp	r2, r3
  88 0010 02D1     		bne	.L11
  89 0012 03B0     		add	sp, sp, #12
  90              		.cfi_remember_state
  91              		.cfi_def_cfa_offset 4
  92              		@ sp needed
  93 0014 5DF804FB 		ldr	pc, [sp], #4
  94              	.L11:
  95              		.cfi_restore_state
  96 0018 FFF7FEFF 		bl	__stack_chk_fail
  97              	.L13:
  98              		.align	2
  99              	.L12:
 100 001c 00000000 		.word	__stack_chk_guard
 101              		.cfi_endproc
 102              	.LFE9:
 103              		.size	e_end_agendas_processing, .-e_end_agendas_processing
 104              		.section	.text.e_activate_agenda,"ax",%progbits
 105              		.align	1
 106              		.p2align 4,,15
 107              		.global	e_activate_agenda
 108              		.syntax unified
 109              		.thumb
 110              		.thumb_func
 111              		.fpu fpv4-sp-d16
 112              		.type	e_activate_agenda, %function
 113              	e_activate_agenda:
 114              	.LFB2:
ARM GAS  /var/folders/d2/nstgp4h54kz7g1l847x_b8wc0000gn/T//ccMwxqTy.s 			page 3


 115              		.loc 1 84 0
 116              		.cfi_startproc
 117              		@ args = 0, pretend = 0, frame = 8
 118              		@ frame_needed = 0, uses_anonymous_args = 0
 119              	.LVL1:
 120              		.loc 1 84 0
 121 0000 00B5     		push	{lr}
 122              		.cfi_def_cfa_offset 4
 123              		.cfi_offset 14, -4
 124 0002 074B     		ldr	r3, .L18
 125 0004 83B0     		sub	sp, sp, #12
 126              		.cfi_def_cfa_offset 16
 127              		.loc 1 84 0
 128 0006 1A68     		ldr	r2, [r3]
 129 0008 0192     		str	r2, [sp, #4]
 130              		.loc 1 109 0
 131 000a 019A     		ldr	r2, [sp, #4]
 132 000c 1B68     		ldr	r3, [r3]
 133 000e 9A42     		cmp	r2, r3
 134 0010 03D1     		bne	.L17
 135 0012 0020     		movs	r0, #0
 136              	.LVL2:
 137 0014 03B0     		add	sp, sp, #12
 138              		.cfi_remember_state
 139              		.cfi_def_cfa_offset 4
 140              		@ sp needed
 141 0016 5DF804FB 		ldr	pc, [sp], #4
 142              	.LVL3:
 143              	.L17:
 144              		.cfi_restore_state
 145 001a FFF7FEFF 		bl	__stack_chk_fail
 146              	.LVL4:
 147              	.L19:
 148 001e 00BF     		.align	2
 149              	.L18:
 150 0020 00000000 		.word	__stack_chk_guard
 151              		.cfi_endproc
 152              	.LFE2:
 153              		.size	e_activate_agenda, .-e_activate_agenda
 154              		.section	.text.e_destroy_agenda,"ax",%progbits
 155              		.align	1
 156              		.p2align 4,,15
 157              		.global	e_destroy_agenda
 158              		.syntax unified
 159              		.thumb
 160              		.thumb_func
 161              		.fpu fpv4-sp-d16
 162              		.type	e_destroy_agenda, %function
 163              	e_destroy_agenda:
 164              	.LFB3:
 165              		.loc 1 119 0
 166              		.cfi_startproc
 167              		@ args = 0, pretend = 0, frame = 8
 168              		@ frame_needed = 0, uses_anonymous_args = 0
 169              	.LVL5:
 170 0000 00B5     		push	{lr}
 171              		.cfi_def_cfa_offset 4
ARM GAS  /var/folders/d2/nstgp4h54kz7g1l847x_b8wc0000gn/T//ccMwxqTy.s 			page 4


 172              		.cfi_offset 14, -4
 173 0002 074B     		ldr	r3, .L24
 174 0004 83B0     		sub	sp, sp, #12
 175              		.cfi_def_cfa_offset 16
 176              		.loc 1 119 0
 177 0006 1A68     		ldr	r2, [r3]
 178 0008 0192     		str	r2, [sp, #4]
 179              		.loc 1 145 0
 180 000a 019A     		ldr	r2, [sp, #4]
 181 000c 1B68     		ldr	r3, [r3]
 182 000e 9A42     		cmp	r2, r3
 183 0010 03D1     		bne	.L23
 184 0012 0020     		movs	r0, #0
 185              	.LVL6:
 186 0014 03B0     		add	sp, sp, #12
 187              		.cfi_remember_state
 188              		.cfi_def_cfa_offset 4
 189              		@ sp needed
 190 0016 5DF804FB 		ldr	pc, [sp], #4
 191              	.LVL7:
 192              	.L23:
 193              		.cfi_restore_state
 194 001a FFF7FEFF 		bl	__stack_chk_fail
 195              	.LVL8:
 196              	.L25:
 197 001e 00BF     		.align	2
 198              	.L24:
 199 0020 00000000 		.word	__stack_chk_guard
 200              		.cfi_endproc
 201              	.LFE3:
 202              		.size	e_destroy_agenda, .-e_destroy_agenda
 203              		.section	.text.e_set_agenda_cycle,"ax",%progbits
 204              		.align	1
 205              		.p2align 4,,15
 206              		.global	e_set_agenda_cycle
 207              		.syntax unified
 208              		.thumb
 209              		.thumb_func
 210              		.fpu fpv4-sp-d16
 211              		.type	e_set_agenda_cycle, %function
 212              	e_set_agenda_cycle:
 213              	.LFB11:
 214              		.cfi_startproc
 215              		@ args = 0, pretend = 0, frame = 8
 216              		@ frame_needed = 0, uses_anonymous_args = 0
 217 0000 00B5     		push	{lr}
 218              		.cfi_def_cfa_offset 4
 219              		.cfi_offset 14, -4
 220 0002 074B     		ldr	r3, .L30
 221 0004 83B0     		sub	sp, sp, #12
 222              		.cfi_def_cfa_offset 16
 223 0006 1A68     		ldr	r2, [r3]
 224 0008 0192     		str	r2, [sp, #4]
 225 000a 019A     		ldr	r2, [sp, #4]
 226 000c 1B68     		ldr	r3, [r3]
 227 000e 9A42     		cmp	r2, r3
 228 0010 03D1     		bne	.L29
ARM GAS  /var/folders/d2/nstgp4h54kz7g1l847x_b8wc0000gn/T//ccMwxqTy.s 			page 5


 229 0012 0020     		movs	r0, #0
 230 0014 03B0     		add	sp, sp, #12
 231              		.cfi_remember_state
 232              		.cfi_def_cfa_offset 4
 233              		@ sp needed
 234 0016 5DF804FB 		ldr	pc, [sp], #4
 235              	.L29:
 236              		.cfi_restore_state
 237 001a FFF7FEFF 		bl	__stack_chk_fail
 238              	.L31:
 239 001e 00BF     		.align	2
 240              	.L30:
 241 0020 00000000 		.word	__stack_chk_guard
 242              		.cfi_endproc
 243              	.LFE11:
 244              		.size	e_set_agenda_cycle, .-e_set_agenda_cycle
 245              		.section	.text.e_reset_agenda,"ax",%progbits
 246              		.align	1
 247              		.p2align 4,,15
 248              		.global	e_reset_agenda
 249              		.syntax unified
 250              		.thumb
 251              		.thumb_func
 252              		.fpu fpv4-sp-d16
 253              		.type	e_reset_agenda, %function
 254              	e_reset_agenda:
 255              	.LFB13:
 256              		.cfi_startproc
 257              		@ args = 0, pretend = 0, frame = 8
 258              		@ frame_needed = 0, uses_anonymous_args = 0
 259 0000 00B5     		push	{lr}
 260              		.cfi_def_cfa_offset 4
 261              		.cfi_offset 14, -4
 262 0002 074B     		ldr	r3, .L36
 263 0004 83B0     		sub	sp, sp, #12
 264              		.cfi_def_cfa_offset 16
 265 0006 1A68     		ldr	r2, [r3]
 266 0008 0192     		str	r2, [sp, #4]
 267 000a 019A     		ldr	r2, [sp, #4]
 268 000c 1B68     		ldr	r3, [r3]
 269 000e 9A42     		cmp	r2, r3
 270 0010 03D1     		bne	.L35
 271 0012 0020     		movs	r0, #0
 272 0014 03B0     		add	sp, sp, #12
 273              		.cfi_remember_state
 274              		.cfi_def_cfa_offset 4
 275              		@ sp needed
 276 0016 5DF804FB 		ldr	pc, [sp], #4
 277              	.L35:
 278              		.cfi_restore_state
 279 001a FFF7FEFF 		bl	__stack_chk_fail
 280              	.L37:
 281 001e 00BF     		.align	2
 282              	.L36:
 283 0020 00000000 		.word	__stack_chk_guard
 284              		.cfi_endproc
 285              	.LFE13:
ARM GAS  /var/folders/d2/nstgp4h54kz7g1l847x_b8wc0000gn/T//ccMwxqTy.s 			page 6


 286              		.size	e_reset_agenda, .-e_reset_agenda
 287              		.section	.text.e_pause_agenda,"ax",%progbits
 288              		.align	1
 289              		.p2align 4,,15
 290              		.global	e_pause_agenda
 291              		.syntax unified
 292              		.thumb
 293              		.thumb_func
 294              		.fpu fpv4-sp-d16
 295              		.type	e_pause_agenda, %function
 296              	e_pause_agenda:
 297              	.LFB15:
 298              		.cfi_startproc
 299              		@ args = 0, pretend = 0, frame = 8
 300              		@ frame_needed = 0, uses_anonymous_args = 0
 301 0000 00B5     		push	{lr}
 302              		.cfi_def_cfa_offset 4
 303              		.cfi_offset 14, -4
 304 0002 074B     		ldr	r3, .L42
 305 0004 83B0     		sub	sp, sp, #12
 306              		.cfi_def_cfa_offset 16
 307 0006 1A68     		ldr	r2, [r3]
 308 0008 0192     		str	r2, [sp, #4]
 309 000a 019A     		ldr	r2, [sp, #4]
 310 000c 1B68     		ldr	r3, [r3]
 311 000e 9A42     		cmp	r2, r3
 312 0010 03D1     		bne	.L41
 313 0012 0020     		movs	r0, #0
 314 0014 03B0     		add	sp, sp, #12
 315              		.cfi_remember_state
 316              		.cfi_def_cfa_offset 4
 317              		@ sp needed
 318 0016 5DF804FB 		ldr	pc, [sp], #4
 319              	.L41:
 320              		.cfi_restore_state
 321 001a FFF7FEFF 		bl	__stack_chk_fail
 322              	.L43:
 323 001e 00BF     		.align	2
 324              	.L42:
 325 0020 00000000 		.word	__stack_chk_guard
 326              		.cfi_endproc
 327              	.LFE15:
 328              		.size	e_pause_agenda, .-e_pause_agenda
 329              		.section	.text.e_restart_agenda,"ax",%progbits
 330              		.align	1
 331              		.p2align 4,,15
 332              		.global	e_restart_agenda
 333              		.syntax unified
 334              		.thumb
 335              		.thumb_func
 336              		.fpu fpv4-sp-d16
 337              		.type	e_restart_agenda, %function
 338              	e_restart_agenda:
 339              	.LFB17:
 340              		.cfi_startproc
 341              		@ args = 0, pretend = 0, frame = 8
 342              		@ frame_needed = 0, uses_anonymous_args = 0
ARM GAS  /var/folders/d2/nstgp4h54kz7g1l847x_b8wc0000gn/T//ccMwxqTy.s 			page 7


 343 0000 00B5     		push	{lr}
 344              		.cfi_def_cfa_offset 4
 345              		.cfi_offset 14, -4
 346 0002 074B     		ldr	r3, .L48
 347 0004 83B0     		sub	sp, sp, #12
 348              		.cfi_def_cfa_offset 16
 349 0006 1A68     		ldr	r2, [r3]
 350 0008 0192     		str	r2, [sp, #4]
 351 000a 019A     		ldr	r2, [sp, #4]
 352 000c 1B68     		ldr	r3, [r3]
 353 000e 9A42     		cmp	r2, r3
 354 0010 03D1     		bne	.L47
 355 0012 0020     		movs	r0, #0
 356 0014 03B0     		add	sp, sp, #12
 357              		.cfi_remember_state
 358              		.cfi_def_cfa_offset 4
 359              		@ sp needed
 360 0016 5DF804FB 		ldr	pc, [sp], #4
 361              	.L47:
 362              		.cfi_restore_state
 363 001a FFF7FEFF 		bl	__stack_chk_fail
 364              	.L49:
 365 001e 00BF     		.align	2
 366              	.L48:
 367 0020 00000000 		.word	__stack_chk_guard
 368              		.cfi_endproc
 369              	.LFE17:
 370              		.size	e_restart_agenda, .-e_restart_agenda
 371              		.text
 372              	.Letext0:
 373              		.file 2 "/Applications/Eclipse_e-puck2.app/Contents/Eclipse_e-puck2/Tools/gcc-arm-none-eabi-7-2017
 374              		.file 3 "/Applications/Eclipse_e-puck2.app/Contents/Eclipse_e-puck2/Tools/gcc-arm-none-eabi-7-2017
 375              		.file 4 "/Applications/Eclipse_e-puck2.app/Contents/Eclipse_e-puck2/Tools/gcc-arm-none-eabi-7-2017
 376              		.file 5 "/Applications/Eclipse_e-puck2.app/Contents/Eclipse_e-puck2/Tools/gcc-arm-none-eabi-7-2017
 377              		.file 6 "/Applications/Eclipse_e-puck2.app/Contents/Eclipse_e-puck2/Tools/gcc-arm-none-eabi-7-2017
 378              		.section	.debug_info,"",%progbits
 379              	.Ldebug_info0:
 380 0000 E0090000 		.4byte	0x9e0
 381 0004 0400     		.2byte	0x4
 382 0006 00000000 		.4byte	.Ldebug_abbrev0
 383 000a 04       		.byte	0x4
 384 000b 01       		.uleb128 0x1
 385 000c CA010000 		.4byte	.LASF130
 386 0010 0C       		.byte	0xc
 387 0011 9A040000 		.4byte	.LASF131
 388 0015 F3050000 		.4byte	.LASF132
 389 0019 00000000 		.4byte	.Ldebug_ranges0+0
 390 001d 00000000 		.4byte	0
 391 0021 00000000 		.4byte	.Ldebug_line0
 392 0025 02       		.uleb128 0x2
 393 0026 04       		.byte	0x4
 394 0027 07       		.byte	0x7
 395 0028 BD010000 		.4byte	.LASF0
 396 002c 03       		.uleb128 0x3
 397 002d 04       		.byte	0x4
 398 002e 05       		.byte	0x5
 399 002f 696E7400 		.ascii	"int\000"
ARM GAS  /var/folders/d2/nstgp4h54kz7g1l847x_b8wc0000gn/T//ccMwxqTy.s 			page 8


 400 0033 02       		.uleb128 0x2
 401 0034 01       		.byte	0x1
 402 0035 08       		.byte	0x8
 403 0036 C7050000 		.4byte	.LASF1
 404 003a 04       		.uleb128 0x4
 405 003b 33000000 		.4byte	0x33
 406 003f 05       		.uleb128 0x5
 407 0040 06       		.uleb128 0x6
 408 0041 04       		.byte	0x4
 409 0042 3F000000 		.4byte	0x3f
 410 0046 02       		.uleb128 0x2
 411 0047 08       		.byte	0x8
 412 0048 05       		.byte	0x5
 413 0049 B4000000 		.4byte	.LASF2
 414 004d 02       		.uleb128 0x2
 415 004e 08       		.byte	0x8
 416 004f 04       		.byte	0x4
 417 0050 D7030000 		.4byte	.LASF3
 418 0054 02       		.uleb128 0x2
 419 0055 01       		.byte	0x1
 420 0056 06       		.byte	0x6
 421 0057 C2000000 		.4byte	.LASF4
 422 005b 02       		.uleb128 0x2
 423 005c 01       		.byte	0x1
 424 005d 08       		.byte	0x8
 425 005e 5D040000 		.4byte	.LASF5
 426 0062 02       		.uleb128 0x2
 427 0063 02       		.byte	0x2
 428 0064 05       		.byte	0x5
 429 0065 79040000 		.4byte	.LASF6
 430 0069 02       		.uleb128 0x2
 431 006a 02       		.byte	0x2
 432 006b 07       		.byte	0x7
 433 006c 55030000 		.4byte	.LASF7
 434 0070 02       		.uleb128 0x2
 435 0071 04       		.byte	0x4
 436 0072 05       		.byte	0x5
 437 0073 07010000 		.4byte	.LASF8
 438 0077 02       		.uleb128 0x2
 439 0078 04       		.byte	0x4
 440 0079 07       		.byte	0x7
 441 007a 36030000 		.4byte	.LASF9
 442 007e 02       		.uleb128 0x2
 443 007f 08       		.byte	0x8
 444 0080 07       		.byte	0x7
 445 0081 71000000 		.4byte	.LASF10
 446 0085 07       		.uleb128 0x7
 447 0086 98030000 		.4byte	.LASF11
 448 008a 02       		.byte	0x2
 449 008b 22       		.byte	0x22
 450 008c 90000000 		.4byte	0x90
 451 0090 06       		.uleb128 0x6
 452 0091 04       		.byte	0x4
 453 0092 96000000 		.4byte	0x96
 454 0096 08       		.uleb128 0x8
 455 0097 97050000 		.4byte	.LASF117
 456 009b 07       		.uleb128 0x7
ARM GAS  /var/folders/d2/nstgp4h54kz7g1l847x_b8wc0000gn/T//ccMwxqTy.s 			page 9


 457 009c 23040000 		.4byte	.LASF12
 458 00a0 03       		.byte	0x3
 459 00a1 2C       		.byte	0x2c
 460 00a2 70000000 		.4byte	0x70
 461 00a6 07       		.uleb128 0x7
 462 00a7 B8050000 		.4byte	.LASF13
 463 00ab 03       		.byte	0x3
 464 00ac 72       		.byte	0x72
 465 00ad 70000000 		.4byte	0x70
 466 00b1 09       		.uleb128 0x9
 467 00b2 A0030000 		.4byte	.LASF14
 468 00b6 04       		.byte	0x4
 469 00b7 6501     		.2byte	0x165
 470 00b9 25000000 		.4byte	0x25
 471 00bd 0A       		.uleb128 0xa
 472 00be 04       		.byte	0x4
 473 00bf 03       		.byte	0x3
 474 00c0 A6       		.byte	0xa6
 475 00c1 DC000000 		.4byte	0xdc
 476 00c5 0B       		.uleb128 0xb
 477 00c6 92030000 		.4byte	.LASF15
 478 00ca 03       		.byte	0x3
 479 00cb A8       		.byte	0xa8
 480 00cc B1000000 		.4byte	0xb1
 481 00d0 0B       		.uleb128 0xb
 482 00d1 0E030000 		.4byte	.LASF16
 483 00d5 03       		.byte	0x3
 484 00d6 A9       		.byte	0xa9
 485 00d7 DC000000 		.4byte	0xdc
 486 00db 00       		.byte	0
 487 00dc 0C       		.uleb128 0xc
 488 00dd 5B000000 		.4byte	0x5b
 489 00e1 EC000000 		.4byte	0xec
 490 00e5 0D       		.uleb128 0xd
 491 00e6 25000000 		.4byte	0x25
 492 00ea 03       		.byte	0x3
 493 00eb 00       		.byte	0
 494 00ec 0E       		.uleb128 0xe
 495 00ed 08       		.byte	0x8
 496 00ee 03       		.byte	0x3
 497 00ef A3       		.byte	0xa3
 498 00f0 0D010000 		.4byte	0x10d
 499 00f4 0F       		.uleb128 0xf
 500 00f5 8F050000 		.4byte	.LASF17
 501 00f9 03       		.byte	0x3
 502 00fa A5       		.byte	0xa5
 503 00fb 2C000000 		.4byte	0x2c
 504 00ff 00       		.byte	0
 505 0100 0F       		.uleb128 0xf
 506 0101 9E050000 		.4byte	.LASF18
 507 0105 03       		.byte	0x3
 508 0106 AA       		.byte	0xaa
 509 0107 BD000000 		.4byte	0xbd
 510 010b 04       		.byte	0x4
 511 010c 00       		.byte	0
 512 010d 07       		.uleb128 0x7
 513 010e EE040000 		.4byte	.LASF19
ARM GAS  /var/folders/d2/nstgp4h54kz7g1l847x_b8wc0000gn/T//ccMwxqTy.s 			page 10


 514 0112 03       		.byte	0x3
 515 0113 AB       		.byte	0xab
 516 0114 EC000000 		.4byte	0xec
 517 0118 07       		.uleb128 0x7
 518 0119 80010000 		.4byte	.LASF20
 519 011d 03       		.byte	0x3
 520 011e AF       		.byte	0xaf
 521 011f 85000000 		.4byte	0x85
 522 0123 10       		.uleb128 0x10
 523 0124 04       		.byte	0x4
 524 0125 06       		.uleb128 0x6
 525 0126 04       		.byte	0x4
 526 0127 33000000 		.4byte	0x33
 527 012b 07       		.uleb128 0x7
 528 012c 68060000 		.4byte	.LASF21
 529 0130 05       		.byte	0x5
 530 0131 16       		.byte	0x16
 531 0132 77000000 		.4byte	0x77
 532 0136 11       		.uleb128 0x11
 533 0137 91010000 		.4byte	.LASF26
 534 013b 18       		.byte	0x18
 535 013c 05       		.byte	0x5
 536 013d 2F       		.byte	0x2f
 537 013e 89010000 		.4byte	0x189
 538 0142 0F       		.uleb128 0xf
 539 0143 E0050000 		.4byte	.LASF22
 540 0147 05       		.byte	0x5
 541 0148 31       		.byte	0x31
 542 0149 89010000 		.4byte	0x189
 543 014d 00       		.byte	0
 544 014e 12       		.uleb128 0x12
 545 014f 5F6B00   		.ascii	"_k\000"
 546 0152 05       		.byte	0x5
 547 0153 32       		.byte	0x32
 548 0154 2C000000 		.4byte	0x2c
 549 0158 04       		.byte	0x4
 550 0159 0F       		.uleb128 0xf
 551 015a 68050000 		.4byte	.LASF23
 552 015e 05       		.byte	0x5
 553 015f 32       		.byte	0x32
 554 0160 2C000000 		.4byte	0x2c
 555 0164 08       		.byte	0x8
 556 0165 0F       		.uleb128 0xf
 557 0166 7A010000 		.4byte	.LASF24
 558 016a 05       		.byte	0x5
 559 016b 32       		.byte	0x32
 560 016c 2C000000 		.4byte	0x2c
 561 0170 0C       		.byte	0xc
 562 0171 0F       		.uleb128 0xf
 563 0172 96060000 		.4byte	.LASF25
 564 0176 05       		.byte	0x5
 565 0177 32       		.byte	0x32
 566 0178 2C000000 		.4byte	0x2c
 567 017c 10       		.byte	0x10
 568 017d 12       		.uleb128 0x12
 569 017e 5F7800   		.ascii	"_x\000"
 570 0181 05       		.byte	0x5
ARM GAS  /var/folders/d2/nstgp4h54kz7g1l847x_b8wc0000gn/T//ccMwxqTy.s 			page 11


 571 0182 33       		.byte	0x33
 572 0183 8F010000 		.4byte	0x18f
 573 0187 14       		.byte	0x14
 574 0188 00       		.byte	0
 575 0189 06       		.uleb128 0x6
 576 018a 04       		.byte	0x4
 577 018b 36010000 		.4byte	0x136
 578 018f 0C       		.uleb128 0xc
 579 0190 2B010000 		.4byte	0x12b
 580 0194 9F010000 		.4byte	0x19f
 581 0198 0D       		.uleb128 0xd
 582 0199 25000000 		.4byte	0x25
 583 019d 00       		.byte	0
 584 019e 00       		.byte	0
 585 019f 11       		.uleb128 0x11
 586 01a0 B8010000 		.4byte	.LASF27
 587 01a4 24       		.byte	0x24
 588 01a5 05       		.byte	0x5
 589 01a6 37       		.byte	0x37
 590 01a7 18020000 		.4byte	0x218
 591 01ab 0F       		.uleb128 0xf
 592 01ac AB000000 		.4byte	.LASF28
 593 01b0 05       		.byte	0x5
 594 01b1 39       		.byte	0x39
 595 01b2 2C000000 		.4byte	0x2c
 596 01b6 00       		.byte	0
 597 01b7 0F       		.uleb128 0xf
 598 01b8 D1050000 		.4byte	.LASF29
 599 01bc 05       		.byte	0x5
 600 01bd 3A       		.byte	0x3a
 601 01be 2C000000 		.4byte	0x2c
 602 01c2 04       		.byte	0x4
 603 01c3 0F       		.uleb128 0xf
 604 01c4 DA000000 		.4byte	.LASF30
 605 01c8 05       		.byte	0x5
 606 01c9 3B       		.byte	0x3b
 607 01ca 2C000000 		.4byte	0x2c
 608 01ce 08       		.byte	0x8
 609 01cf 0F       		.uleb128 0xf
 610 01d0 0F070000 		.4byte	.LASF31
 611 01d4 05       		.byte	0x5
 612 01d5 3C       		.byte	0x3c
 613 01d6 2C000000 		.4byte	0x2c
 614 01da 0C       		.byte	0xc
 615 01db 0F       		.uleb128 0xf
 616 01dc FD030000 		.4byte	.LASF32
 617 01e0 05       		.byte	0x5
 618 01e1 3D       		.byte	0x3d
 619 01e2 2C000000 		.4byte	0x2c
 620 01e6 10       		.byte	0x10
 621 01e7 0F       		.uleb128 0xf
 622 01e8 BC030000 		.4byte	.LASF33
 623 01ec 05       		.byte	0x5
 624 01ed 3E       		.byte	0x3e
 625 01ee 2C000000 		.4byte	0x2c
 626 01f2 14       		.byte	0x14
 627 01f3 0F       		.uleb128 0xf
ARM GAS  /var/folders/d2/nstgp4h54kz7g1l847x_b8wc0000gn/T//ccMwxqTy.s 			page 12


 628 01f4 9B060000 		.4byte	.LASF34
 629 01f8 05       		.byte	0x5
 630 01f9 3F       		.byte	0x3f
 631 01fa 2C000000 		.4byte	0x2c
 632 01fe 18       		.byte	0x18
 633 01ff 0F       		.uleb128 0xf
 634 0200 83040000 		.4byte	.LASF35
 635 0204 05       		.byte	0x5
 636 0205 40       		.byte	0x40
 637 0206 2C000000 		.4byte	0x2c
 638 020a 1C       		.byte	0x1c
 639 020b 0F       		.uleb128 0xf
 640 020c D6060000 		.4byte	.LASF36
 641 0210 05       		.byte	0x5
 642 0211 41       		.byte	0x41
 643 0212 2C000000 		.4byte	0x2c
 644 0216 20       		.byte	0x20
 645 0217 00       		.byte	0
 646 0218 13       		.uleb128 0x13
 647 0219 E9000000 		.4byte	.LASF37
 648 021d 0801     		.2byte	0x108
 649 021f 05       		.byte	0x5
 650 0220 4A       		.byte	0x4a
 651 0221 58020000 		.4byte	0x258
 652 0225 0F       		.uleb128 0xf
 653 0226 5E010000 		.4byte	.LASF38
 654 022a 05       		.byte	0x5
 655 022b 4B       		.byte	0x4b
 656 022c 58020000 		.4byte	0x258
 657 0230 00       		.byte	0
 658 0231 0F       		.uleb128 0xf
 659 0232 00000000 		.4byte	.LASF39
 660 0236 05       		.byte	0x5
 661 0237 4C       		.byte	0x4c
 662 0238 58020000 		.4byte	0x258
 663 023c 80       		.byte	0x80
 664 023d 14       		.uleb128 0x14
 665 023e 4B060000 		.4byte	.LASF40
 666 0242 05       		.byte	0x5
 667 0243 4E       		.byte	0x4e
 668 0244 2B010000 		.4byte	0x12b
 669 0248 0001     		.2byte	0x100
 670 024a 14       		.uleb128 0x14
 671 024b 17010000 		.4byte	.LASF41
 672 024f 05       		.byte	0x5
 673 0250 51       		.byte	0x51
 674 0251 2B010000 		.4byte	0x12b
 675 0255 0401     		.2byte	0x104
 676 0257 00       		.byte	0
 677 0258 0C       		.uleb128 0xc
 678 0259 23010000 		.4byte	0x123
 679 025d 68020000 		.4byte	0x268
 680 0261 0D       		.uleb128 0xd
 681 0262 25000000 		.4byte	0x25
 682 0266 1F       		.byte	0x1f
 683 0267 00       		.byte	0
 684 0268 13       		.uleb128 0x13
ARM GAS  /var/folders/d2/nstgp4h54kz7g1l847x_b8wc0000gn/T//ccMwxqTy.s 			page 13


 685 0269 06040000 		.4byte	.LASF42
 686 026d 9001     		.2byte	0x190
 687 026f 05       		.byte	0x5
 688 0270 5D       		.byte	0x5d
 689 0271 A6020000 		.4byte	0x2a6
 690 0275 0F       		.uleb128 0xf
 691 0276 E0050000 		.4byte	.LASF22
 692 027a 05       		.byte	0x5
 693 027b 5E       		.byte	0x5e
 694 027c A6020000 		.4byte	0x2a6
 695 0280 00       		.byte	0
 696 0281 0F       		.uleb128 0xf
 697 0282 27050000 		.4byte	.LASF43
 698 0286 05       		.byte	0x5
 699 0287 5F       		.byte	0x5f
 700 0288 2C000000 		.4byte	0x2c
 701 028c 04       		.byte	0x4
 702 028d 0F       		.uleb128 0xf
 703 028e 75010000 		.4byte	.LASF44
 704 0292 05       		.byte	0x5
 705 0293 61       		.byte	0x61
 706 0294 AC020000 		.4byte	0x2ac
 707 0298 08       		.byte	0x8
 708 0299 0F       		.uleb128 0xf
 709 029a E9000000 		.4byte	.LASF37
 710 029e 05       		.byte	0x5
 711 029f 62       		.byte	0x62
 712 02a0 18020000 		.4byte	0x218
 713 02a4 88       		.byte	0x88
 714 02a5 00       		.byte	0
 715 02a6 06       		.uleb128 0x6
 716 02a7 04       		.byte	0x4
 717 02a8 68020000 		.4byte	0x268
 718 02ac 0C       		.uleb128 0xc
 719 02ad 40000000 		.4byte	0x40
 720 02b1 BC020000 		.4byte	0x2bc
 721 02b5 0D       		.uleb128 0xd
 722 02b6 25000000 		.4byte	0x25
 723 02ba 1F       		.byte	0x1f
 724 02bb 00       		.byte	0
 725 02bc 11       		.uleb128 0x11
 726 02bd 8D040000 		.4byte	.LASF45
 727 02c1 08       		.byte	0x8
 728 02c2 05       		.byte	0x5
 729 02c3 75       		.byte	0x75
 730 02c4 E1020000 		.4byte	0x2e1
 731 02c8 0F       		.uleb128 0xf
 732 02c9 D4000000 		.4byte	.LASF46
 733 02cd 05       		.byte	0x5
 734 02ce 76       		.byte	0x76
 735 02cf E1020000 		.4byte	0x2e1
 736 02d3 00       		.byte	0
 737 02d4 0F       		.uleb128 0xf
 738 02d5 0C000000 		.4byte	.LASF47
 739 02d9 05       		.byte	0x5
 740 02da 77       		.byte	0x77
 741 02db 2C000000 		.4byte	0x2c
ARM GAS  /var/folders/d2/nstgp4h54kz7g1l847x_b8wc0000gn/T//ccMwxqTy.s 			page 14


 742 02df 04       		.byte	0x4
 743 02e0 00       		.byte	0
 744 02e1 06       		.uleb128 0x6
 745 02e2 04       		.byte	0x4
 746 02e3 5B000000 		.4byte	0x5b
 747 02e7 11       		.uleb128 0x11
 748 02e8 F9040000 		.4byte	.LASF48
 749 02ec 68       		.byte	0x68
 750 02ed 05       		.byte	0x5
 751 02ee B5       		.byte	0xb5
 752 02ef 11040000 		.4byte	0x411
 753 02f3 12       		.uleb128 0x12
 754 02f4 5F7000   		.ascii	"_p\000"
 755 02f7 05       		.byte	0x5
 756 02f8 B6       		.byte	0xb6
 757 02f9 E1020000 		.4byte	0x2e1
 758 02fd 00       		.byte	0
 759 02fe 12       		.uleb128 0x12
 760 02ff 5F7200   		.ascii	"_r\000"
 761 0302 05       		.byte	0x5
 762 0303 B7       		.byte	0xb7
 763 0304 2C000000 		.4byte	0x2c
 764 0308 04       		.byte	0x4
 765 0309 12       		.uleb128 0x12
 766 030a 5F7700   		.ascii	"_w\000"
 767 030d 05       		.byte	0x5
 768 030e B8       		.byte	0xb8
 769 030f 2C000000 		.4byte	0x2c
 770 0313 08       		.byte	0x8
 771 0314 0F       		.uleb128 0xf
 772 0315 10010000 		.4byte	.LASF49
 773 0319 05       		.byte	0x5
 774 031a B9       		.byte	0xb9
 775 031b 62000000 		.4byte	0x62
 776 031f 0C       		.byte	0xc
 777 0320 0F       		.uleb128 0xf
 778 0321 48030000 		.4byte	.LASF50
 779 0325 05       		.byte	0x5
 780 0326 BA       		.byte	0xba
 781 0327 62000000 		.4byte	0x62
 782 032b 0E       		.byte	0xe
 783 032c 12       		.uleb128 0x12
 784 032d 5F626600 		.ascii	"_bf\000"
 785 0331 05       		.byte	0x5
 786 0332 BB       		.byte	0xbb
 787 0333 BC020000 		.4byte	0x2bc
 788 0337 10       		.byte	0x10
 789 0338 0F       		.uleb128 0xf
 790 0339 88000000 		.4byte	.LASF51
 791 033d 05       		.byte	0x5
 792 033e BC       		.byte	0xbc
 793 033f 2C000000 		.4byte	0x2c
 794 0343 18       		.byte	0x18
 795 0344 0F       		.uleb128 0xf
 796 0345 F7000000 		.4byte	.LASF52
 797 0349 05       		.byte	0x5
 798 034a C3       		.byte	0xc3
ARM GAS  /var/folders/d2/nstgp4h54kz7g1l847x_b8wc0000gn/T//ccMwxqTy.s 			page 15


 799 034b 23010000 		.4byte	0x123
 800 034f 1C       		.byte	0x1c
 801 0350 0F       		.uleb128 0xf
 802 0351 A8010000 		.4byte	.LASF53
 803 0355 05       		.byte	0x5
 804 0356 C5       		.byte	0xc5
 805 0357 6C050000 		.4byte	0x56c
 806 035b 20       		.byte	0x20
 807 035c 0F       		.uleb128 0xf
 808 035d B5030000 		.4byte	.LASF54
 809 0361 05       		.byte	0x5
 810 0362 C7       		.byte	0xc7
 811 0363 96050000 		.4byte	0x596
 812 0367 24       		.byte	0x24
 813 0368 0F       		.uleb128 0xf
 814 0369 A6050000 		.4byte	.LASF55
 815 036d 05       		.byte	0x5
 816 036e CA       		.byte	0xca
 817 036f BA050000 		.4byte	0x5ba
 818 0373 28       		.byte	0x28
 819 0374 0F       		.uleb128 0xf
 820 0375 F0060000 		.4byte	.LASF56
 821 0379 05       		.byte	0x5
 822 037a CB       		.byte	0xcb
 823 037b D4050000 		.4byte	0x5d4
 824 037f 2C       		.byte	0x2c
 825 0380 12       		.uleb128 0x12
 826 0381 5F756200 		.ascii	"_ub\000"
 827 0385 05       		.byte	0x5
 828 0386 CE       		.byte	0xce
 829 0387 BC020000 		.4byte	0x2bc
 830 038b 30       		.byte	0x30
 831 038c 12       		.uleb128 0x12
 832 038d 5F757000 		.ascii	"_up\000"
 833 0391 05       		.byte	0x5
 834 0392 CF       		.byte	0xcf
 835 0393 E1020000 		.4byte	0x2e1
 836 0397 38       		.byte	0x38
 837 0398 12       		.uleb128 0x12
 838 0399 5F757200 		.ascii	"_ur\000"
 839 039d 05       		.byte	0x5
 840 039e D0       		.byte	0xd0
 841 039f 2C000000 		.4byte	0x2c
 842 03a3 3C       		.byte	0x3c
 843 03a4 0F       		.uleb128 0xf
 844 03a5 CE000000 		.4byte	.LASF57
 845 03a9 05       		.byte	0x5
 846 03aa D3       		.byte	0xd3
 847 03ab DA050000 		.4byte	0x5da
 848 03af 40       		.byte	0x40
 849 03b0 0F       		.uleb128 0xf
 850 03b1 C8060000 		.4byte	.LASF58
 851 03b5 05       		.byte	0x5
 852 03b6 D4       		.byte	0xd4
 853 03b7 EA050000 		.4byte	0x5ea
 854 03bb 43       		.byte	0x43
 855 03bc 12       		.uleb128 0x12
ARM GAS  /var/folders/d2/nstgp4h54kz7g1l847x_b8wc0000gn/T//ccMwxqTy.s 			page 16


 856 03bd 5F6C6200 		.ascii	"_lb\000"
 857 03c1 05       		.byte	0x5
 858 03c2 D7       		.byte	0xd7
 859 03c3 BC020000 		.4byte	0x2bc
 860 03c7 44       		.byte	0x44
 861 03c8 0F       		.uleb128 0xf
 862 03c9 26010000 		.4byte	.LASF59
 863 03cd 05       		.byte	0x5
 864 03ce DA       		.byte	0xda
 865 03cf 2C000000 		.4byte	0x2c
 866 03d3 4C       		.byte	0x4c
 867 03d4 0F       		.uleb128 0xf
 868 03d5 37010000 		.4byte	.LASF60
 869 03d9 05       		.byte	0x5
 870 03da DB       		.byte	0xdb
 871 03db 9B000000 		.4byte	0x9b
 872 03df 50       		.byte	0x50
 873 03e0 0F       		.uleb128 0xf
 874 03e1 4B000000 		.4byte	.LASF61
 875 03e5 05       		.byte	0x5
 876 03e6 DE       		.byte	0xde
 877 03e7 2F040000 		.4byte	0x42f
 878 03eb 54       		.byte	0x54
 879 03ec 0F       		.uleb128 0xf
 880 03ed A7030000 		.4byte	.LASF62
 881 03f1 05       		.byte	0x5
 882 03f2 E2       		.byte	0xe2
 883 03f3 18010000 		.4byte	0x118
 884 03f7 58       		.byte	0x58
 885 03f8 0F       		.uleb128 0xf
 886 03f9 01050000 		.4byte	.LASF63
 887 03fd 05       		.byte	0x5
 888 03fe E4       		.byte	0xe4
 889 03ff 0D010000 		.4byte	0x10d
 890 0403 5C       		.byte	0x5c
 891 0404 0F       		.uleb128 0xf
 892 0405 AD030000 		.4byte	.LASF64
 893 0409 05       		.byte	0x5
 894 040a E5       		.byte	0xe5
 895 040b 2C000000 		.4byte	0x2c
 896 040f 64       		.byte	0x64
 897 0410 00       		.byte	0
 898 0411 15       		.uleb128 0x15
 899 0412 2C000000 		.4byte	0x2c
 900 0416 2F040000 		.4byte	0x42f
 901 041a 16       		.uleb128 0x16
 902 041b 2F040000 		.4byte	0x42f
 903 041f 16       		.uleb128 0x16
 904 0420 23010000 		.4byte	0x123
 905 0424 16       		.uleb128 0x16
 906 0425 25010000 		.4byte	0x125
 907 0429 16       		.uleb128 0x16
 908 042a 2C000000 		.4byte	0x2c
 909 042e 00       		.byte	0
 910 042f 06       		.uleb128 0x6
 911 0430 04       		.byte	0x4
 912 0431 3A040000 		.4byte	0x43a
ARM GAS  /var/folders/d2/nstgp4h54kz7g1l847x_b8wc0000gn/T//ccMwxqTy.s 			page 17


 913 0435 04       		.uleb128 0x4
 914 0436 2F040000 		.4byte	0x42f
 915 043a 17       		.uleb128 0x17
 916 043b 70050000 		.4byte	.LASF65
 917 043f 2804     		.2byte	0x428
 918 0441 05       		.byte	0x5
 919 0442 3902     		.2byte	0x239
 920 0444 6C050000 		.4byte	0x56c
 921 0448 18       		.uleb128 0x18
 922 0449 C0050000 		.4byte	.LASF66
 923 044d 05       		.byte	0x5
 924 044e 3B02     		.2byte	0x23b
 925 0450 2C000000 		.4byte	0x2c
 926 0454 00       		.byte	0
 927 0455 18       		.uleb128 0x18
 928 0456 1F010000 		.4byte	.LASF67
 929 045a 05       		.byte	0x5
 930 045b 4002     		.2byte	0x240
 931 045d 41060000 		.4byte	0x641
 932 0461 04       		.byte	0x4
 933 0462 18       		.uleb128 0x18
 934 0463 15030000 		.4byte	.LASF68
 935 0467 05       		.byte	0x5
 936 0468 4002     		.2byte	0x240
 937 046a 41060000 		.4byte	0x641
 938 046e 08       		.byte	0x8
 939 046f 18       		.uleb128 0x18
 940 0470 89010000 		.4byte	.LASF69
 941 0474 05       		.byte	0x5
 942 0475 4002     		.2byte	0x240
 943 0477 41060000 		.4byte	0x641
 944 047b 0C       		.byte	0xc
 945 047c 18       		.uleb128 0x18
 946 047d 22050000 		.4byte	.LASF70
 947 0481 05       		.byte	0x5
 948 0482 4202     		.2byte	0x242
 949 0484 2C000000 		.4byte	0x2c
 950 0488 10       		.byte	0x10
 951 0489 18       		.uleb128 0x18
 952 048a 1A000000 		.4byte	.LASF71
 953 048e 05       		.byte	0x5
 954 048f 4302     		.2byte	0x243
 955 0491 23080000 		.4byte	0x823
 956 0495 14       		.byte	0x14
 957 0496 18       		.uleb128 0x18
 958 0497 3E050000 		.4byte	.LASF72
 959 049b 05       		.byte	0x5
 960 049c 4602     		.2byte	0x246
 961 049e 2C000000 		.4byte	0x2c
 962 04a2 30       		.byte	0x30
 963 04a3 18       		.uleb128 0x18
 964 04a4 2C050000 		.4byte	.LASF73
 965 04a8 05       		.byte	0x5
 966 04a9 4702     		.2byte	0x247
 967 04ab 38080000 		.4byte	0x838
 968 04af 34       		.byte	0x34
 969 04b0 18       		.uleb128 0x18
ARM GAS  /var/folders/d2/nstgp4h54kz7g1l847x_b8wc0000gn/T//ccMwxqTy.s 			page 18


 970 04b1 18040000 		.4byte	.LASF74
 971 04b5 05       		.byte	0x5
 972 04b6 4902     		.2byte	0x249
 973 04b8 2C000000 		.4byte	0x2c
 974 04bc 38       		.byte	0x38
 975 04bd 18       		.uleb128 0x18
 976 04be 34050000 		.4byte	.LASF75
 977 04c2 05       		.byte	0x5
 978 04c3 4B02     		.2byte	0x24b
 979 04c5 49080000 		.4byte	0x849
 980 04c9 3C       		.byte	0x3c
 981 04ca 18       		.uleb128 0x18
 982 04cb 8A030000 		.4byte	.LASF76
 983 04cf 05       		.byte	0x5
 984 04d0 4E02     		.2byte	0x24e
 985 04d2 89010000 		.4byte	0x189
 986 04d6 40       		.byte	0x40
 987 04d7 18       		.uleb128 0x18
 988 04d8 AE010000 		.4byte	.LASF77
 989 04dc 05       		.byte	0x5
 990 04dd 4F02     		.2byte	0x24f
 991 04df 2C000000 		.4byte	0x2c
 992 04e3 44       		.byte	0x44
 993 04e4 18       		.uleb128 0x18
 994 04e5 0A070000 		.4byte	.LASF78
 995 04e9 05       		.byte	0x5
 996 04ea 5002     		.2byte	0x250
 997 04ec 89010000 		.4byte	0x189
 998 04f0 48       		.byte	0x48
 999 04f1 18       		.uleb128 0x18
 1000 04f2 2A040000 		.4byte	.LASF79
 1001 04f6 05       		.byte	0x5
 1002 04f7 5102     		.2byte	0x251
 1003 04f9 4F080000 		.4byte	0x84f
 1004 04fd 4C       		.byte	0x4c
 1005 04fe 18       		.uleb128 0x18
 1006 04ff 2E030000 		.4byte	.LASF80
 1007 0503 05       		.byte	0x5
 1008 0504 5402     		.2byte	0x254
 1009 0506 2C000000 		.4byte	0x2c
 1010 050a 50       		.byte	0x50
 1011 050b 18       		.uleb128 0x18
 1012 050c 2F010000 		.4byte	.LASF81
 1013 0510 05       		.byte	0x5
 1014 0511 5502     		.2byte	0x255
 1015 0513 25010000 		.4byte	0x125
 1016 0517 54       		.byte	0x54
 1017 0518 18       		.uleb128 0x18
 1018 0519 6B040000 		.4byte	.LASF82
 1019 051d 05       		.byte	0x5
 1020 051e 7802     		.2byte	0x278
 1021 0520 01080000 		.4byte	0x801
 1022 0524 58       		.byte	0x58
 1023 0525 19       		.uleb128 0x19
 1024 0526 06040000 		.4byte	.LASF42
 1025 052a 05       		.byte	0x5
 1026 052b 7C02     		.2byte	0x27c
ARM GAS  /var/folders/d2/nstgp4h54kz7g1l847x_b8wc0000gn/T//ccMwxqTy.s 			page 19


 1027 052d A6020000 		.4byte	0x2a6
 1028 0531 4801     		.2byte	0x148
 1029 0533 19       		.uleb128 0x19
 1030 0534 68030000 		.4byte	.LASF83
 1031 0538 05       		.byte	0x5
 1032 0539 7D02     		.2byte	0x27d
 1033 053b 68020000 		.4byte	0x268
 1034 053f 4C01     		.2byte	0x14c
 1035 0541 19       		.uleb128 0x19
 1036 0542 BE060000 		.4byte	.LASF84
 1037 0546 05       		.byte	0x5
 1038 0547 8102     		.2byte	0x281
 1039 0549 60080000 		.4byte	0x860
 1040 054d DC02     		.2byte	0x2dc
 1041 054f 19       		.uleb128 0x19
 1042 0550 FF000000 		.4byte	.LASF85
 1043 0554 05       		.byte	0x5
 1044 0555 8602     		.2byte	0x286
 1045 0557 06060000 		.4byte	0x606
 1046 055b E002     		.2byte	0x2e0
 1047 055d 19       		.uleb128 0x19
 1048 055e E4000000 		.4byte	.LASF86
 1049 0562 05       		.byte	0x5
 1050 0563 8802     		.2byte	0x288
 1051 0565 6C080000 		.4byte	0x86c
 1052 0569 EC02     		.2byte	0x2ec
 1053 056b 00       		.byte	0
 1054 056c 06       		.uleb128 0x6
 1055 056d 04       		.byte	0x4
 1056 056e 11040000 		.4byte	0x411
 1057 0572 15       		.uleb128 0x15
 1058 0573 2C000000 		.4byte	0x2c
 1059 0577 90050000 		.4byte	0x590
 1060 057b 16       		.uleb128 0x16
 1061 057c 2F040000 		.4byte	0x42f
 1062 0580 16       		.uleb128 0x16
 1063 0581 23010000 		.4byte	0x123
 1064 0585 16       		.uleb128 0x16
 1065 0586 90050000 		.4byte	0x590
 1066 058a 16       		.uleb128 0x16
 1067 058b 2C000000 		.4byte	0x2c
 1068 058f 00       		.byte	0
 1069 0590 06       		.uleb128 0x6
 1070 0591 04       		.byte	0x4
 1071 0592 3A000000 		.4byte	0x3a
 1072 0596 06       		.uleb128 0x6
 1073 0597 04       		.byte	0x4
 1074 0598 72050000 		.4byte	0x572
 1075 059c 15       		.uleb128 0x15
 1076 059d A6000000 		.4byte	0xa6
 1077 05a1 BA050000 		.4byte	0x5ba
 1078 05a5 16       		.uleb128 0x16
 1079 05a6 2F040000 		.4byte	0x42f
 1080 05aa 16       		.uleb128 0x16
 1081 05ab 23010000 		.4byte	0x123
 1082 05af 16       		.uleb128 0x16
 1083 05b0 A6000000 		.4byte	0xa6
ARM GAS  /var/folders/d2/nstgp4h54kz7g1l847x_b8wc0000gn/T//ccMwxqTy.s 			page 20


 1084 05b4 16       		.uleb128 0x16
 1085 05b5 2C000000 		.4byte	0x2c
 1086 05b9 00       		.byte	0
 1087 05ba 06       		.uleb128 0x6
 1088 05bb 04       		.byte	0x4
 1089 05bc 9C050000 		.4byte	0x59c
 1090 05c0 15       		.uleb128 0x15
 1091 05c1 2C000000 		.4byte	0x2c
 1092 05c5 D4050000 		.4byte	0x5d4
 1093 05c9 16       		.uleb128 0x16
 1094 05ca 2F040000 		.4byte	0x42f
 1095 05ce 16       		.uleb128 0x16
 1096 05cf 23010000 		.4byte	0x123
 1097 05d3 00       		.byte	0
 1098 05d4 06       		.uleb128 0x6
 1099 05d5 04       		.byte	0x4
 1100 05d6 C0050000 		.4byte	0x5c0
 1101 05da 0C       		.uleb128 0xc
 1102 05db 5B000000 		.4byte	0x5b
 1103 05df EA050000 		.4byte	0x5ea
 1104 05e3 0D       		.uleb128 0xd
 1105 05e4 25000000 		.4byte	0x25
 1106 05e8 02       		.byte	0x2
 1107 05e9 00       		.byte	0
 1108 05ea 0C       		.uleb128 0xc
 1109 05eb 5B000000 		.4byte	0x5b
 1110 05ef FA050000 		.4byte	0x5fa
 1111 05f3 0D       		.uleb128 0xd
 1112 05f4 25000000 		.4byte	0x25
 1113 05f8 00       		.byte	0
 1114 05f9 00       		.byte	0
 1115 05fa 09       		.uleb128 0x9
 1116 05fb E7040000 		.4byte	.LASF87
 1117 05ff 05       		.byte	0x5
 1118 0600 1F01     		.2byte	0x11f
 1119 0602 E7020000 		.4byte	0x2e7
 1120 0606 1A       		.uleb128 0x1a
 1121 0607 A5060000 		.4byte	.LASF88
 1122 060b 0C       		.byte	0xc
 1123 060c 05       		.byte	0x5
 1124 060d 2301     		.2byte	0x123
 1125 060f 3B060000 		.4byte	0x63b
 1126 0613 18       		.uleb128 0x18
 1127 0614 E0050000 		.4byte	.LASF22
 1128 0618 05       		.byte	0x5
 1129 0619 2501     		.2byte	0x125
 1130 061b 3B060000 		.4byte	0x63b
 1131 061f 00       		.byte	0
 1132 0620 18       		.uleb128 0x18
 1133 0621 4E030000 		.4byte	.LASF89
 1134 0625 05       		.byte	0x5
 1135 0626 2601     		.2byte	0x126
 1136 0628 2C000000 		.4byte	0x2c
 1137 062c 04       		.byte	0x4
 1138 062d 18       		.uleb128 0x18
 1139 062e 94040000 		.4byte	.LASF90
 1140 0632 05       		.byte	0x5
ARM GAS  /var/folders/d2/nstgp4h54kz7g1l847x_b8wc0000gn/T//ccMwxqTy.s 			page 21


 1141 0633 2701     		.2byte	0x127
 1142 0635 41060000 		.4byte	0x641
 1143 0639 08       		.byte	0x8
 1144 063a 00       		.byte	0
 1145 063b 06       		.uleb128 0x6
 1146 063c 04       		.byte	0x4
 1147 063d 06060000 		.4byte	0x606
 1148 0641 06       		.uleb128 0x6
 1149 0642 04       		.byte	0x4
 1150 0643 FA050000 		.4byte	0x5fa
 1151 0647 1A       		.uleb128 0x1a
 1152 0648 12000000 		.4byte	.LASF91
 1153 064c 0E       		.byte	0xe
 1154 064d 05       		.byte	0x5
 1155 064e 3F01     		.2byte	0x13f
 1156 0650 7C060000 		.4byte	0x67c
 1157 0654 18       		.uleb128 0x18
 1158 0655 77050000 		.4byte	.LASF92
 1159 0659 05       		.byte	0x5
 1160 065a 4001     		.2byte	0x140
 1161 065c 7C060000 		.4byte	0x67c
 1162 0660 00       		.byte	0
 1163 0661 18       		.uleb128 0x18
 1164 0662 DA050000 		.4byte	.LASF93
 1165 0666 05       		.byte	0x5
 1166 0667 4101     		.2byte	0x141
 1167 0669 7C060000 		.4byte	0x67c
 1168 066d 06       		.byte	0x6
 1169 066e 18       		.uleb128 0x18
 1170 066f 63060000 		.4byte	.LASF94
 1171 0673 05       		.byte	0x5
 1172 0674 4201     		.2byte	0x142
 1173 0676 69000000 		.4byte	0x69
 1174 067a 0C       		.byte	0xc
 1175 067b 00       		.byte	0
 1176 067c 0C       		.uleb128 0xc
 1177 067d 69000000 		.4byte	0x69
 1178 0681 8C060000 		.4byte	0x68c
 1179 0685 0D       		.uleb128 0xd
 1180 0686 25000000 		.4byte	0x25
 1181 068a 02       		.byte	0x2
 1182 068b 00       		.byte	0
 1183 068c 1B       		.uleb128 0x1b
 1184 068d D0       		.byte	0xd0
 1185 068e 05       		.byte	0x5
 1186 068f 5902     		.2byte	0x259
 1187 0691 8D070000 		.4byte	0x78d
 1188 0695 18       		.uleb128 0x18
 1189 0696 89060000 		.4byte	.LASF95
 1190 069a 05       		.byte	0x5
 1191 069b 5B02     		.2byte	0x25b
 1192 069d 25000000 		.4byte	0x25
 1193 06a1 00       		.byte	0
 1194 06a2 18       		.uleb128 0x18
 1195 06a3 E6050000 		.4byte	.LASF96
 1196 06a7 05       		.byte	0x5
 1197 06a8 5C02     		.2byte	0x25c
ARM GAS  /var/folders/d2/nstgp4h54kz7g1l847x_b8wc0000gn/T//ccMwxqTy.s 			page 22


 1198 06aa 25010000 		.4byte	0x125
 1199 06ae 04       		.byte	0x4
 1200 06af 18       		.uleb128 0x18
 1201 06b0 7D030000 		.4byte	.LASF97
 1202 06b4 05       		.byte	0x5
 1203 06b5 5D02     		.2byte	0x25d
 1204 06b7 8D070000 		.4byte	0x78d
 1205 06bb 08       		.byte	0x8
 1206 06bc 18       		.uleb128 0x18
 1207 06bd E1060000 		.4byte	.LASF98
 1208 06c1 05       		.byte	0x5
 1209 06c2 5E02     		.2byte	0x25e
 1210 06c4 9F010000 		.4byte	0x19f
 1211 06c8 24       		.byte	0x24
 1212 06c9 18       		.uleb128 0x18
 1213 06ca 99010000 		.4byte	.LASF99
 1214 06ce 05       		.byte	0x5
 1215 06cf 5F02     		.2byte	0x25f
 1216 06d1 2C000000 		.4byte	0x2c
 1217 06d5 48       		.byte	0x48
 1218 06d6 18       		.uleb128 0x18
 1219 06d7 0A050000 		.4byte	.LASF100
 1220 06db 05       		.byte	0x5
 1221 06dc 6002     		.2byte	0x260
 1222 06de 7E000000 		.4byte	0x7e
 1223 06e2 50       		.byte	0x50
 1224 06e3 18       		.uleb128 0x18
 1225 06e4 F7060000 		.4byte	.LASF101
 1226 06e8 05       		.byte	0x5
 1227 06e9 6102     		.2byte	0x261
 1228 06eb 47060000 		.4byte	0x647
 1229 06ef 58       		.byte	0x58
 1230 06f0 18       		.uleb128 0x18
 1231 06f1 15050000 		.4byte	.LASF102
 1232 06f5 05       		.byte	0x5
 1233 06f6 6202     		.2byte	0x262
 1234 06f8 0D010000 		.4byte	0x10d
 1235 06fc 68       		.byte	0x68
 1236 06fd 18       		.uleb128 0x18
 1237 06fe FC060000 		.4byte	.LASF103
 1238 0702 05       		.byte	0x5
 1239 0703 6302     		.2byte	0x263
 1240 0705 0D010000 		.4byte	0x10d
 1241 0709 70       		.byte	0x70
 1242 070a 18       		.uleb128 0x18
 1243 070b 34040000 		.4byte	.LASF104
 1244 070f 05       		.byte	0x5
 1245 0710 6402     		.2byte	0x264
 1246 0712 0D010000 		.4byte	0x10d
 1247 0716 78       		.byte	0x78
 1248 0717 18       		.uleb128 0x18
 1249 0718 B4060000 		.4byte	.LASF105
 1250 071c 05       		.byte	0x5
 1251 071d 6502     		.2byte	0x265
 1252 071f 9D070000 		.4byte	0x79d
 1253 0723 80       		.byte	0x80
 1254 0724 18       		.uleb128 0x18
ARM GAS  /var/folders/d2/nstgp4h54kz7g1l847x_b8wc0000gn/T//ccMwxqTy.s 			page 23


 1255 0725 71030000 		.4byte	.LASF106
 1256 0729 05       		.byte	0x5
 1257 072a 6602     		.2byte	0x266
 1258 072c AD070000 		.4byte	0x7ad
 1259 0730 88       		.byte	0x88
 1260 0731 18       		.uleb128 0x18
 1261 0732 3E000000 		.4byte	.LASF107
 1262 0736 05       		.byte	0x5
 1263 0737 6702     		.2byte	0x267
 1264 0739 2C000000 		.4byte	0x2c
 1265 073d A0       		.byte	0xa0
 1266 073e 18       		.uleb128 0x18
 1267 073f 50010000 		.4byte	.LASF108
 1268 0743 05       		.byte	0x5
 1269 0744 6802     		.2byte	0x268
 1270 0746 0D010000 		.4byte	0x10d
 1271 074a A4       		.byte	0xa4
 1272 074b 18       		.uleb128 0x18
 1273 074c 9C000000 		.4byte	.LASF109
 1274 0750 05       		.byte	0x5
 1275 0751 6902     		.2byte	0x269
 1276 0753 0D010000 		.4byte	0x10d
 1277 0757 AC       		.byte	0xac
 1278 0758 18       		.uleb128 0x18
 1279 0759 3F010000 		.4byte	.LASF110
 1280 075d 05       		.byte	0x5
 1281 075e 6A02     		.2byte	0x26a
 1282 0760 0D010000 		.4byte	0x10d
 1283 0764 B4       		.byte	0xb4
 1284 0765 18       		.uleb128 0x18
 1285 0766 51000000 		.4byte	.LASF111
 1286 076a 05       		.byte	0x5
 1287 076b 6B02     		.2byte	0x26b
 1288 076d 0D010000 		.4byte	0x10d
 1289 0771 BC       		.byte	0xbc
 1290 0772 18       		.uleb128 0x18
 1291 0773 60000000 		.4byte	.LASF112
 1292 0777 05       		.byte	0x5
 1293 0778 6C02     		.2byte	0x26c
 1294 077a 0D010000 		.4byte	0x10d
 1295 077e C4       		.byte	0xc4
 1296 077f 18       		.uleb128 0x18
 1297 0780 70040000 		.4byte	.LASF113
 1298 0784 05       		.byte	0x5
 1299 0785 6D02     		.2byte	0x26d
 1300 0787 2C000000 		.4byte	0x2c
 1301 078b CC       		.byte	0xcc
 1302 078c 00       		.byte	0
 1303 078d 0C       		.uleb128 0xc
 1304 078e 33000000 		.4byte	0x33
 1305 0792 9D070000 		.4byte	0x79d
 1306 0796 0D       		.uleb128 0xd
 1307 0797 25000000 		.4byte	0x25
 1308 079b 19       		.byte	0x19
 1309 079c 00       		.byte	0
 1310 079d 0C       		.uleb128 0xc
 1311 079e 33000000 		.4byte	0x33
ARM GAS  /var/folders/d2/nstgp4h54kz7g1l847x_b8wc0000gn/T//ccMwxqTy.s 			page 24


 1312 07a2 AD070000 		.4byte	0x7ad
 1313 07a6 0D       		.uleb128 0xd
 1314 07a7 25000000 		.4byte	0x25
 1315 07ab 07       		.byte	0x7
 1316 07ac 00       		.byte	0
 1317 07ad 0C       		.uleb128 0xc
 1318 07ae 33000000 		.4byte	0x33
 1319 07b2 BD070000 		.4byte	0x7bd
 1320 07b6 0D       		.uleb128 0xd
 1321 07b7 25000000 		.4byte	0x25
 1322 07bb 17       		.byte	0x17
 1323 07bc 00       		.byte	0
 1324 07bd 1B       		.uleb128 0x1b
 1325 07be F0       		.byte	0xf0
 1326 07bf 05       		.byte	0x5
 1327 07c0 7202     		.2byte	0x272
 1328 07c2 E1070000 		.4byte	0x7e1
 1329 07c6 18       		.uleb128 0x18
 1330 07c7 F6030000 		.4byte	.LASF114
 1331 07cb 05       		.byte	0x5
 1332 07cc 7502     		.2byte	0x275
 1333 07ce E1070000 		.4byte	0x7e1
 1334 07d2 00       		.byte	0
 1335 07d3 18       		.uleb128 0x18
 1336 07d4 AB060000 		.4byte	.LASF115
 1337 07d8 05       		.byte	0x5
 1338 07d9 7602     		.2byte	0x276
 1339 07db F1070000 		.4byte	0x7f1
 1340 07df 78       		.byte	0x78
 1341 07e0 00       		.byte	0
 1342 07e1 0C       		.uleb128 0xc
 1343 07e2 E1020000 		.4byte	0x2e1
 1344 07e6 F1070000 		.4byte	0x7f1
 1345 07ea 0D       		.uleb128 0xd
 1346 07eb 25000000 		.4byte	0x25
 1347 07ef 1D       		.byte	0x1d
 1348 07f0 00       		.byte	0
 1349 07f1 0C       		.uleb128 0xc
 1350 07f2 25000000 		.4byte	0x25
 1351 07f6 01080000 		.4byte	0x801
 1352 07fa 0D       		.uleb128 0xd
 1353 07fb 25000000 		.4byte	0x25
 1354 07ff 1D       		.byte	0x1d
 1355 0800 00       		.byte	0
 1356 0801 1C       		.uleb128 0x1c
 1357 0802 F0       		.byte	0xf0
 1358 0803 05       		.byte	0x5
 1359 0804 5702     		.2byte	0x257
 1360 0806 23080000 		.4byte	0x823
 1361 080a 1D       		.uleb128 0x1d
 1362 080b 70050000 		.4byte	.LASF65
 1363 080f 05       		.byte	0x5
 1364 0810 6E02     		.2byte	0x26e
 1365 0812 8C060000 		.4byte	0x68c
 1366 0816 1D       		.uleb128 0x1d
 1367 0817 CE060000 		.4byte	.LASF116
 1368 081b 05       		.byte	0x5
ARM GAS  /var/folders/d2/nstgp4h54kz7g1l847x_b8wc0000gn/T//ccMwxqTy.s 			page 25


 1369 081c 7702     		.2byte	0x277
 1370 081e BD070000 		.4byte	0x7bd
 1371 0822 00       		.byte	0
 1372 0823 0C       		.uleb128 0xc
 1373 0824 33000000 		.4byte	0x33
 1374 0828 33080000 		.4byte	0x833
 1375 082c 0D       		.uleb128 0xd
 1376 082d 25000000 		.4byte	0x25
 1377 0831 18       		.byte	0x18
 1378 0832 00       		.byte	0
 1379 0833 08       		.uleb128 0x8
 1380 0834 91000000 		.4byte	.LASF118
 1381 0838 06       		.uleb128 0x6
 1382 0839 04       		.byte	0x4
 1383 083a 33080000 		.4byte	0x833
 1384 083e 1E       		.uleb128 0x1e
 1385 083f 49080000 		.4byte	0x849
 1386 0843 16       		.uleb128 0x16
 1387 0844 2F040000 		.4byte	0x42f
 1388 0848 00       		.byte	0
 1389 0849 06       		.uleb128 0x6
 1390 084a 04       		.byte	0x4
 1391 084b 3E080000 		.4byte	0x83e
 1392 084f 06       		.uleb128 0x6
 1393 0850 04       		.byte	0x4
 1394 0851 89010000 		.4byte	0x189
 1395 0855 1E       		.uleb128 0x1e
 1396 0856 60080000 		.4byte	0x860
 1397 085a 16       		.uleb128 0x16
 1398 085b 2C000000 		.4byte	0x2c
 1399 085f 00       		.byte	0
 1400 0860 06       		.uleb128 0x6
 1401 0861 04       		.byte	0x4
 1402 0862 66080000 		.4byte	0x866
 1403 0866 06       		.uleb128 0x6
 1404 0867 04       		.byte	0x4
 1405 0868 55080000 		.4byte	0x855
 1406 086c 0C       		.uleb128 0xc
 1407 086d FA050000 		.4byte	0x5fa
 1408 0871 7C080000 		.4byte	0x87c
 1409 0875 0D       		.uleb128 0xd
 1410 0876 25000000 		.4byte	0x25
 1411 087a 02       		.byte	0x2
 1412 087b 00       		.byte	0
 1413 087c 1F       		.uleb128 0x1f
 1414 087d AC050000 		.4byte	.LASF119
 1415 0881 05       		.byte	0x5
 1416 0882 0703     		.2byte	0x307
 1417 0884 2F040000 		.4byte	0x42f
 1418 0888 1F       		.uleb128 0x1f
 1419 0889 70060000 		.4byte	.LASF120
 1420 088d 05       		.byte	0x5
 1421 088e 0803     		.2byte	0x308
 1422 0890 35040000 		.4byte	0x435
 1423 0894 20       		.uleb128 0x20
 1424 0895 0E040000 		.4byte	.LASF121
 1425 0899 06       		.byte	0x6
ARM GAS  /var/folders/d2/nstgp4h54kz7g1l847x_b8wc0000gn/T//ccMwxqTy.s 			page 26


 1426 089a 63       		.byte	0x63
 1427 089b 25010000 		.4byte	0x125
 1428 089f 21       		.uleb128 0x21
 1429 08a0 C6030000 		.4byte	.LASF122
 1430 08a4 01       		.byte	0x1
 1431 08a5 F3       		.byte	0xf3
 1432 08a6 2C000000 		.4byte	0x2c
 1433 08aa BA080000 		.4byte	0x8ba
 1434 08ae 22       		.uleb128 0x22
 1435 08af CC050000 		.4byte	.LASF124
 1436 08b3 01       		.byte	0x1
 1437 08b4 F3       		.byte	0xf3
 1438 08b5 40000000 		.4byte	0x40
 1439 08b9 00       		.byte	0
 1440 08ba 21       		.uleb128 0x21
 1441 08bb 66010000 		.4byte	.LASF123
 1442 08bf 01       		.byte	0x1
 1443 08c0 D7       		.byte	0xd7
 1444 08c1 2C000000 		.4byte	0x2c
 1445 08c5 D5080000 		.4byte	0x8d5
 1446 08c9 22       		.uleb128 0x22
 1447 08ca CC050000 		.4byte	.LASF124
 1448 08ce 01       		.byte	0x1
 1449 08cf D7       		.byte	0xd7
 1450 08d0 40000000 		.4byte	0x40
 1451 08d4 00       		.byte	0
 1452 08d5 21       		.uleb128 0x21
 1453 08d6 54060000 		.4byte	.LASF125
 1454 08da 01       		.byte	0x1
 1455 08db BC       		.byte	0xbc
 1456 08dc 2C000000 		.4byte	0x2c
 1457 08e0 F0080000 		.4byte	0x8f0
 1458 08e4 22       		.uleb128 0x22
 1459 08e5 CC050000 		.4byte	.LASF124
 1460 08e9 01       		.byte	0x1
 1461 08ea BC       		.byte	0xbc
 1462 08eb 40000000 		.4byte	0x40
 1463 08ef 00       		.byte	0
 1464 08f0 21       		.uleb128 0x21
 1465 08f1 E3030000 		.4byte	.LASF126
 1466 08f5 01       		.byte	0x1
 1467 08f6 9C       		.byte	0x9c
 1468 08f7 2C000000 		.4byte	0x2c
 1469 08fb 16090000 		.4byte	0x916
 1470 08ff 22       		.uleb128 0x22
 1471 0900 CC050000 		.4byte	.LASF124
 1472 0904 01       		.byte	0x1
 1473 0905 9C       		.byte	0x9c
 1474 0906 40000000 		.4byte	0x40
 1475 090a 22       		.uleb128 0x22
 1476 090b 83060000 		.4byte	.LASF127
 1477 090f 01       		.byte	0x1
 1478 0910 9C       		.byte	0x9c
 1479 0911 2C000000 		.4byte	0x2c
 1480 0915 00       		.byte	0
 1481 0916 23       		.uleb128 0x23
 1482 0917 1D030000 		.4byte	.LASF128
ARM GAS  /var/folders/d2/nstgp4h54kz7g1l847x_b8wc0000gn/T//ccMwxqTy.s 			page 27


 1483 091b 01       		.byte	0x1
 1484 091c 76       		.byte	0x76
 1485 091d 2C000000 		.4byte	0x2c
 1486 0921 01       		.byte	0x1
 1487 0922 32090000 		.4byte	0x932
 1488 0926 22       		.uleb128 0x22
 1489 0927 CC050000 		.4byte	.LASF124
 1490 092b 01       		.byte	0x1
 1491 092c 76       		.byte	0x76
 1492 092d 40000000 		.4byte	0x40
 1493 0931 00       		.byte	0
 1494 0932 23       		.uleb128 0x23
 1495 0933 7D050000 		.4byte	.LASF129
 1496 0937 01       		.byte	0x1
 1497 0938 53       		.byte	0x53
 1498 0939 2C000000 		.4byte	0x2c
 1499 093d 01       		.byte	0x1
 1500 093e 59090000 		.4byte	0x959
 1501 0942 22       		.uleb128 0x22
 1502 0943 CC050000 		.4byte	.LASF124
 1503 0947 01       		.byte	0x1
 1504 0948 53       		.byte	0x53
 1505 0949 40000000 		.4byte	0x40
 1506 094d 22       		.uleb128 0x22
 1507 094e 83060000 		.4byte	.LASF127
 1508 0952 01       		.byte	0x1
 1509 0953 53       		.byte	0x53
 1510 0954 2C000000 		.4byte	0x2c
 1511 0958 00       		.byte	0
 1512 0959 24       		.uleb128 0x24
 1513 095a 25000000 		.4byte	.LASF133
 1514 095e 01       		.byte	0x1
 1515 095f 43       		.byte	0x43
 1516 0960 25       		.uleb128 0x25
 1517 0961 42040000 		.4byte	.LASF134
 1518 0965 01       		.byte	0x1
 1519 0966 30       		.byte	0x30
 1520 0967 01       		.byte	0x1
 1521 0968 26       		.uleb128 0x26
 1522 0969 60090000 		.4byte	0x960
 1523 096d 00000000 		.4byte	.LFB0
 1524 0971 20000000 		.4byte	.LFE0-.LFB0
 1525 0975 01       		.uleb128 0x1
 1526 0976 9C       		.byte	0x9c
 1527 0977 85090000 		.4byte	0x985
 1528 097b 27       		.uleb128 0x27
 1529 097c 1C000000 		.4byte	.LVL0
 1530 0980 DA090000 		.4byte	0x9da
 1531 0984 00       		.byte	0
 1532 0985 26       		.uleb128 0x26
 1533 0986 32090000 		.4byte	0x932
 1534 098a 00000000 		.4byte	.LFB2
 1535 098e 24000000 		.4byte	.LFE2-.LFB2
 1536 0992 01       		.uleb128 0x1
 1537 0993 9C       		.byte	0x9c
 1538 0994 B4090000 		.4byte	0x9b4
 1539 0998 28       		.uleb128 0x28
ARM GAS  /var/folders/d2/nstgp4h54kz7g1l847x_b8wc0000gn/T//ccMwxqTy.s 			page 28


 1540 0999 42090000 		.4byte	0x942
 1541 099d 00000000 		.4byte	.LLST0
 1542 09a1 28       		.uleb128 0x28
 1543 09a2 4D090000 		.4byte	0x94d
 1544 09a6 3A000000 		.4byte	.LLST1
 1545 09aa 27       		.uleb128 0x27
 1546 09ab 1E000000 		.4byte	.LVL4
 1547 09af DA090000 		.4byte	0x9da
 1548 09b3 00       		.byte	0
 1549 09b4 26       		.uleb128 0x26
 1550 09b5 16090000 		.4byte	0x916
 1551 09b9 00000000 		.4byte	.LFB3
 1552 09bd 24000000 		.4byte	.LFE3-.LFB3
 1553 09c1 01       		.uleb128 0x1
 1554 09c2 9C       		.byte	0x9c
 1555 09c3 DA090000 		.4byte	0x9da
 1556 09c7 28       		.uleb128 0x28
 1557 09c8 26090000 		.4byte	0x926
 1558 09cc 5B000000 		.4byte	.LLST2
 1559 09d0 27       		.uleb128 0x27
 1560 09d1 1E000000 		.4byte	.LVL8
 1561 09d5 DA090000 		.4byte	0x9da
 1562 09d9 00       		.byte	0
 1563 09da 29       		.uleb128 0x29
 1564 09db 57050000 		.4byte	.LASF135
 1565 09df 57050000 		.4byte	.LASF135
 1566 09e3 00       		.byte	0
 1567              		.section	.debug_abbrev,"",%progbits
 1568              	.Ldebug_abbrev0:
 1569 0000 01       		.uleb128 0x1
 1570 0001 11       		.uleb128 0x11
 1571 0002 01       		.byte	0x1
 1572 0003 25       		.uleb128 0x25
 1573 0004 0E       		.uleb128 0xe
 1574 0005 13       		.uleb128 0x13
 1575 0006 0B       		.uleb128 0xb
 1576 0007 03       		.uleb128 0x3
 1577 0008 0E       		.uleb128 0xe
 1578 0009 1B       		.uleb128 0x1b
 1579 000a 0E       		.uleb128 0xe
 1580 000b 55       		.uleb128 0x55
 1581 000c 17       		.uleb128 0x17
 1582 000d 11       		.uleb128 0x11
 1583 000e 01       		.uleb128 0x1
 1584 000f 10       		.uleb128 0x10
 1585 0010 17       		.uleb128 0x17
 1586 0011 00       		.byte	0
 1587 0012 00       		.byte	0
 1588 0013 02       		.uleb128 0x2
 1589 0014 24       		.uleb128 0x24
 1590 0015 00       		.byte	0
 1591 0016 0B       		.uleb128 0xb
 1592 0017 0B       		.uleb128 0xb
 1593 0018 3E       		.uleb128 0x3e
 1594 0019 0B       		.uleb128 0xb
 1595 001a 03       		.uleb128 0x3
 1596 001b 0E       		.uleb128 0xe
ARM GAS  /var/folders/d2/nstgp4h54kz7g1l847x_b8wc0000gn/T//ccMwxqTy.s 			page 29


 1597 001c 00       		.byte	0
 1598 001d 00       		.byte	0
 1599 001e 03       		.uleb128 0x3
 1600 001f 24       		.uleb128 0x24
 1601 0020 00       		.byte	0
 1602 0021 0B       		.uleb128 0xb
 1603 0022 0B       		.uleb128 0xb
 1604 0023 3E       		.uleb128 0x3e
 1605 0024 0B       		.uleb128 0xb
 1606 0025 03       		.uleb128 0x3
 1607 0026 08       		.uleb128 0x8
 1608 0027 00       		.byte	0
 1609 0028 00       		.byte	0
 1610 0029 04       		.uleb128 0x4
 1611 002a 26       		.uleb128 0x26
 1612 002b 00       		.byte	0
 1613 002c 49       		.uleb128 0x49
 1614 002d 13       		.uleb128 0x13
 1615 002e 00       		.byte	0
 1616 002f 00       		.byte	0
 1617 0030 05       		.uleb128 0x5
 1618 0031 15       		.uleb128 0x15
 1619 0032 00       		.byte	0
 1620 0033 27       		.uleb128 0x27
 1621 0034 19       		.uleb128 0x19
 1622 0035 00       		.byte	0
 1623 0036 00       		.byte	0
 1624 0037 06       		.uleb128 0x6
 1625 0038 0F       		.uleb128 0xf
 1626 0039 00       		.byte	0
 1627 003a 0B       		.uleb128 0xb
 1628 003b 0B       		.uleb128 0xb
 1629 003c 49       		.uleb128 0x49
 1630 003d 13       		.uleb128 0x13
 1631 003e 00       		.byte	0
 1632 003f 00       		.byte	0
 1633 0040 07       		.uleb128 0x7
 1634 0041 16       		.uleb128 0x16
 1635 0042 00       		.byte	0
 1636 0043 03       		.uleb128 0x3
 1637 0044 0E       		.uleb128 0xe
 1638 0045 3A       		.uleb128 0x3a
 1639 0046 0B       		.uleb128 0xb
 1640 0047 3B       		.uleb128 0x3b
 1641 0048 0B       		.uleb128 0xb
 1642 0049 49       		.uleb128 0x49
 1643 004a 13       		.uleb128 0x13
 1644 004b 00       		.byte	0
 1645 004c 00       		.byte	0
 1646 004d 08       		.uleb128 0x8
 1647 004e 13       		.uleb128 0x13
 1648 004f 00       		.byte	0
 1649 0050 03       		.uleb128 0x3
 1650 0051 0E       		.uleb128 0xe
 1651 0052 3C       		.uleb128 0x3c
 1652 0053 19       		.uleb128 0x19
 1653 0054 00       		.byte	0
ARM GAS  /var/folders/d2/nstgp4h54kz7g1l847x_b8wc0000gn/T//ccMwxqTy.s 			page 30


 1654 0055 00       		.byte	0
 1655 0056 09       		.uleb128 0x9
 1656 0057 16       		.uleb128 0x16
 1657 0058 00       		.byte	0
 1658 0059 03       		.uleb128 0x3
 1659 005a 0E       		.uleb128 0xe
 1660 005b 3A       		.uleb128 0x3a
 1661 005c 0B       		.uleb128 0xb
 1662 005d 3B       		.uleb128 0x3b
 1663 005e 05       		.uleb128 0x5
 1664 005f 49       		.uleb128 0x49
 1665 0060 13       		.uleb128 0x13
 1666 0061 00       		.byte	0
 1667 0062 00       		.byte	0
 1668 0063 0A       		.uleb128 0xa
 1669 0064 17       		.uleb128 0x17
 1670 0065 01       		.byte	0x1
 1671 0066 0B       		.uleb128 0xb
 1672 0067 0B       		.uleb128 0xb
 1673 0068 3A       		.uleb128 0x3a
 1674 0069 0B       		.uleb128 0xb
 1675 006a 3B       		.uleb128 0x3b
 1676 006b 0B       		.uleb128 0xb
 1677 006c 01       		.uleb128 0x1
 1678 006d 13       		.uleb128 0x13
 1679 006e 00       		.byte	0
 1680 006f 00       		.byte	0
 1681 0070 0B       		.uleb128 0xb
 1682 0071 0D       		.uleb128 0xd
 1683 0072 00       		.byte	0
 1684 0073 03       		.uleb128 0x3
 1685 0074 0E       		.uleb128 0xe
 1686 0075 3A       		.uleb128 0x3a
 1687 0076 0B       		.uleb128 0xb
 1688 0077 3B       		.uleb128 0x3b
 1689 0078 0B       		.uleb128 0xb
 1690 0079 49       		.uleb128 0x49
 1691 007a 13       		.uleb128 0x13
 1692 007b 00       		.byte	0
 1693 007c 00       		.byte	0
 1694 007d 0C       		.uleb128 0xc
 1695 007e 01       		.uleb128 0x1
 1696 007f 01       		.byte	0x1
 1697 0080 49       		.uleb128 0x49
 1698 0081 13       		.uleb128 0x13
 1699 0082 01       		.uleb128 0x1
 1700 0083 13       		.uleb128 0x13
 1701 0084 00       		.byte	0
 1702 0085 00       		.byte	0
 1703 0086 0D       		.uleb128 0xd
 1704 0087 21       		.uleb128 0x21
 1705 0088 00       		.byte	0
 1706 0089 49       		.uleb128 0x49
 1707 008a 13       		.uleb128 0x13
 1708 008b 2F       		.uleb128 0x2f
 1709 008c 0B       		.uleb128 0xb
 1710 008d 00       		.byte	0
ARM GAS  /var/folders/d2/nstgp4h54kz7g1l847x_b8wc0000gn/T//ccMwxqTy.s 			page 31


 1711 008e 00       		.byte	0
 1712 008f 0E       		.uleb128 0xe
 1713 0090 13       		.uleb128 0x13
 1714 0091 01       		.byte	0x1
 1715 0092 0B       		.uleb128 0xb
 1716 0093 0B       		.uleb128 0xb
 1717 0094 3A       		.uleb128 0x3a
 1718 0095 0B       		.uleb128 0xb
 1719 0096 3B       		.uleb128 0x3b
 1720 0097 0B       		.uleb128 0xb
 1721 0098 01       		.uleb128 0x1
 1722 0099 13       		.uleb128 0x13
 1723 009a 00       		.byte	0
 1724 009b 00       		.byte	0
 1725 009c 0F       		.uleb128 0xf
 1726 009d 0D       		.uleb128 0xd
 1727 009e 00       		.byte	0
 1728 009f 03       		.uleb128 0x3
 1729 00a0 0E       		.uleb128 0xe
 1730 00a1 3A       		.uleb128 0x3a
 1731 00a2 0B       		.uleb128 0xb
 1732 00a3 3B       		.uleb128 0x3b
 1733 00a4 0B       		.uleb128 0xb
 1734 00a5 49       		.uleb128 0x49
 1735 00a6 13       		.uleb128 0x13
 1736 00a7 38       		.uleb128 0x38
 1737 00a8 0B       		.uleb128 0xb
 1738 00a9 00       		.byte	0
 1739 00aa 00       		.byte	0
 1740 00ab 10       		.uleb128 0x10
 1741 00ac 0F       		.uleb128 0xf
 1742 00ad 00       		.byte	0
 1743 00ae 0B       		.uleb128 0xb
 1744 00af 0B       		.uleb128 0xb
 1745 00b0 00       		.byte	0
 1746 00b1 00       		.byte	0
 1747 00b2 11       		.uleb128 0x11
 1748 00b3 13       		.uleb128 0x13
 1749 00b4 01       		.byte	0x1
 1750 00b5 03       		.uleb128 0x3
 1751 00b6 0E       		.uleb128 0xe
 1752 00b7 0B       		.uleb128 0xb
 1753 00b8 0B       		.uleb128 0xb
 1754 00b9 3A       		.uleb128 0x3a
 1755 00ba 0B       		.uleb128 0xb
 1756 00bb 3B       		.uleb128 0x3b
 1757 00bc 0B       		.uleb128 0xb
 1758 00bd 01       		.uleb128 0x1
 1759 00be 13       		.uleb128 0x13
 1760 00bf 00       		.byte	0
 1761 00c0 00       		.byte	0
 1762 00c1 12       		.uleb128 0x12
 1763 00c2 0D       		.uleb128 0xd
 1764 00c3 00       		.byte	0
 1765 00c4 03       		.uleb128 0x3
 1766 00c5 08       		.uleb128 0x8
 1767 00c6 3A       		.uleb128 0x3a
ARM GAS  /var/folders/d2/nstgp4h54kz7g1l847x_b8wc0000gn/T//ccMwxqTy.s 			page 32


 1768 00c7 0B       		.uleb128 0xb
 1769 00c8 3B       		.uleb128 0x3b
 1770 00c9 0B       		.uleb128 0xb
 1771 00ca 49       		.uleb128 0x49
 1772 00cb 13       		.uleb128 0x13
 1773 00cc 38       		.uleb128 0x38
 1774 00cd 0B       		.uleb128 0xb
 1775 00ce 00       		.byte	0
 1776 00cf 00       		.byte	0
 1777 00d0 13       		.uleb128 0x13
 1778 00d1 13       		.uleb128 0x13
 1779 00d2 01       		.byte	0x1
 1780 00d3 03       		.uleb128 0x3
 1781 00d4 0E       		.uleb128 0xe
 1782 00d5 0B       		.uleb128 0xb
 1783 00d6 05       		.uleb128 0x5
 1784 00d7 3A       		.uleb128 0x3a
 1785 00d8 0B       		.uleb128 0xb
 1786 00d9 3B       		.uleb128 0x3b
 1787 00da 0B       		.uleb128 0xb
 1788 00db 01       		.uleb128 0x1
 1789 00dc 13       		.uleb128 0x13
 1790 00dd 00       		.byte	0
 1791 00de 00       		.byte	0
 1792 00df 14       		.uleb128 0x14
 1793 00e0 0D       		.uleb128 0xd
 1794 00e1 00       		.byte	0
 1795 00e2 03       		.uleb128 0x3
 1796 00e3 0E       		.uleb128 0xe
 1797 00e4 3A       		.uleb128 0x3a
 1798 00e5 0B       		.uleb128 0xb
 1799 00e6 3B       		.uleb128 0x3b
 1800 00e7 0B       		.uleb128 0xb
 1801 00e8 49       		.uleb128 0x49
 1802 00e9 13       		.uleb128 0x13
 1803 00ea 38       		.uleb128 0x38
 1804 00eb 05       		.uleb128 0x5
 1805 00ec 00       		.byte	0
 1806 00ed 00       		.byte	0
 1807 00ee 15       		.uleb128 0x15
 1808 00ef 15       		.uleb128 0x15
 1809 00f0 01       		.byte	0x1
 1810 00f1 27       		.uleb128 0x27
 1811 00f2 19       		.uleb128 0x19
 1812 00f3 49       		.uleb128 0x49
 1813 00f4 13       		.uleb128 0x13
 1814 00f5 01       		.uleb128 0x1
 1815 00f6 13       		.uleb128 0x13
 1816 00f7 00       		.byte	0
 1817 00f8 00       		.byte	0
 1818 00f9 16       		.uleb128 0x16
 1819 00fa 05       		.uleb128 0x5
 1820 00fb 00       		.byte	0
 1821 00fc 49       		.uleb128 0x49
 1822 00fd 13       		.uleb128 0x13
 1823 00fe 00       		.byte	0
 1824 00ff 00       		.byte	0
ARM GAS  /var/folders/d2/nstgp4h54kz7g1l847x_b8wc0000gn/T//ccMwxqTy.s 			page 33


 1825 0100 17       		.uleb128 0x17
 1826 0101 13       		.uleb128 0x13
 1827 0102 01       		.byte	0x1
 1828 0103 03       		.uleb128 0x3
 1829 0104 0E       		.uleb128 0xe
 1830 0105 0B       		.uleb128 0xb
 1831 0106 05       		.uleb128 0x5
 1832 0107 3A       		.uleb128 0x3a
 1833 0108 0B       		.uleb128 0xb
 1834 0109 3B       		.uleb128 0x3b
 1835 010a 05       		.uleb128 0x5
 1836 010b 01       		.uleb128 0x1
 1837 010c 13       		.uleb128 0x13
 1838 010d 00       		.byte	0
 1839 010e 00       		.byte	0
 1840 010f 18       		.uleb128 0x18
 1841 0110 0D       		.uleb128 0xd
 1842 0111 00       		.byte	0
 1843 0112 03       		.uleb128 0x3
 1844 0113 0E       		.uleb128 0xe
 1845 0114 3A       		.uleb128 0x3a
 1846 0115 0B       		.uleb128 0xb
 1847 0116 3B       		.uleb128 0x3b
 1848 0117 05       		.uleb128 0x5
 1849 0118 49       		.uleb128 0x49
 1850 0119 13       		.uleb128 0x13
 1851 011a 38       		.uleb128 0x38
 1852 011b 0B       		.uleb128 0xb
 1853 011c 00       		.byte	0
 1854 011d 00       		.byte	0
 1855 011e 19       		.uleb128 0x19
 1856 011f 0D       		.uleb128 0xd
 1857 0120 00       		.byte	0
 1858 0121 03       		.uleb128 0x3
 1859 0122 0E       		.uleb128 0xe
 1860 0123 3A       		.uleb128 0x3a
 1861 0124 0B       		.uleb128 0xb
 1862 0125 3B       		.uleb128 0x3b
 1863 0126 05       		.uleb128 0x5
 1864 0127 49       		.uleb128 0x49
 1865 0128 13       		.uleb128 0x13
 1866 0129 38       		.uleb128 0x38
 1867 012a 05       		.uleb128 0x5
 1868 012b 00       		.byte	0
 1869 012c 00       		.byte	0
 1870 012d 1A       		.uleb128 0x1a
 1871 012e 13       		.uleb128 0x13
 1872 012f 01       		.byte	0x1
 1873 0130 03       		.uleb128 0x3
 1874 0131 0E       		.uleb128 0xe
 1875 0132 0B       		.uleb128 0xb
 1876 0133 0B       		.uleb128 0xb
 1877 0134 3A       		.uleb128 0x3a
 1878 0135 0B       		.uleb128 0xb
 1879 0136 3B       		.uleb128 0x3b
 1880 0137 05       		.uleb128 0x5
 1881 0138 01       		.uleb128 0x1
ARM GAS  /var/folders/d2/nstgp4h54kz7g1l847x_b8wc0000gn/T//ccMwxqTy.s 			page 34


 1882 0139 13       		.uleb128 0x13
 1883 013a 00       		.byte	0
 1884 013b 00       		.byte	0
 1885 013c 1B       		.uleb128 0x1b
 1886 013d 13       		.uleb128 0x13
 1887 013e 01       		.byte	0x1
 1888 013f 0B       		.uleb128 0xb
 1889 0140 0B       		.uleb128 0xb
 1890 0141 3A       		.uleb128 0x3a
 1891 0142 0B       		.uleb128 0xb
 1892 0143 3B       		.uleb128 0x3b
 1893 0144 05       		.uleb128 0x5
 1894 0145 01       		.uleb128 0x1
 1895 0146 13       		.uleb128 0x13
 1896 0147 00       		.byte	0
 1897 0148 00       		.byte	0
 1898 0149 1C       		.uleb128 0x1c
 1899 014a 17       		.uleb128 0x17
 1900 014b 01       		.byte	0x1
 1901 014c 0B       		.uleb128 0xb
 1902 014d 0B       		.uleb128 0xb
 1903 014e 3A       		.uleb128 0x3a
 1904 014f 0B       		.uleb128 0xb
 1905 0150 3B       		.uleb128 0x3b
 1906 0151 05       		.uleb128 0x5
 1907 0152 01       		.uleb128 0x1
 1908 0153 13       		.uleb128 0x13
 1909 0154 00       		.byte	0
 1910 0155 00       		.byte	0
 1911 0156 1D       		.uleb128 0x1d
 1912 0157 0D       		.uleb128 0xd
 1913 0158 00       		.byte	0
 1914 0159 03       		.uleb128 0x3
 1915 015a 0E       		.uleb128 0xe
 1916 015b 3A       		.uleb128 0x3a
 1917 015c 0B       		.uleb128 0xb
 1918 015d 3B       		.uleb128 0x3b
 1919 015e 05       		.uleb128 0x5
 1920 015f 49       		.uleb128 0x49
 1921 0160 13       		.uleb128 0x13
 1922 0161 00       		.byte	0
 1923 0162 00       		.byte	0
 1924 0163 1E       		.uleb128 0x1e
 1925 0164 15       		.uleb128 0x15
 1926 0165 01       		.byte	0x1
 1927 0166 27       		.uleb128 0x27
 1928 0167 19       		.uleb128 0x19
 1929 0168 01       		.uleb128 0x1
 1930 0169 13       		.uleb128 0x13
 1931 016a 00       		.byte	0
 1932 016b 00       		.byte	0
 1933 016c 1F       		.uleb128 0x1f
 1934 016d 34       		.uleb128 0x34
 1935 016e 00       		.byte	0
 1936 016f 03       		.uleb128 0x3
 1937 0170 0E       		.uleb128 0xe
 1938 0171 3A       		.uleb128 0x3a
ARM GAS  /var/folders/d2/nstgp4h54kz7g1l847x_b8wc0000gn/T//ccMwxqTy.s 			page 35


 1939 0172 0B       		.uleb128 0xb
 1940 0173 3B       		.uleb128 0x3b
 1941 0174 05       		.uleb128 0x5
 1942 0175 49       		.uleb128 0x49
 1943 0176 13       		.uleb128 0x13
 1944 0177 3F       		.uleb128 0x3f
 1945 0178 19       		.uleb128 0x19
 1946 0179 3C       		.uleb128 0x3c
 1947 017a 19       		.uleb128 0x19
 1948 017b 00       		.byte	0
 1949 017c 00       		.byte	0
 1950 017d 20       		.uleb128 0x20
 1951 017e 34       		.uleb128 0x34
 1952 017f 00       		.byte	0
 1953 0180 03       		.uleb128 0x3
 1954 0181 0E       		.uleb128 0xe
 1955 0182 3A       		.uleb128 0x3a
 1956 0183 0B       		.uleb128 0xb
 1957 0184 3B       		.uleb128 0x3b
 1958 0185 0B       		.uleb128 0xb
 1959 0186 49       		.uleb128 0x49
 1960 0187 13       		.uleb128 0x13
 1961 0188 3F       		.uleb128 0x3f
 1962 0189 19       		.uleb128 0x19
 1963 018a 3C       		.uleb128 0x3c
 1964 018b 19       		.uleb128 0x19
 1965 018c 00       		.byte	0
 1966 018d 00       		.byte	0
 1967 018e 21       		.uleb128 0x21
 1968 018f 2E       		.uleb128 0x2e
 1969 0190 01       		.byte	0x1
 1970 0191 3F       		.uleb128 0x3f
 1971 0192 19       		.uleb128 0x19
 1972 0193 03       		.uleb128 0x3
 1973 0194 0E       		.uleb128 0xe
 1974 0195 3A       		.uleb128 0x3a
 1975 0196 0B       		.uleb128 0xb
 1976 0197 3B       		.uleb128 0x3b
 1977 0198 0B       		.uleb128 0xb
 1978 0199 27       		.uleb128 0x27
 1979 019a 19       		.uleb128 0x19
 1980 019b 49       		.uleb128 0x49
 1981 019c 13       		.uleb128 0x13
 1982 019d 01       		.uleb128 0x1
 1983 019e 13       		.uleb128 0x13
 1984 019f 00       		.byte	0
 1985 01a0 00       		.byte	0
 1986 01a1 22       		.uleb128 0x22
 1987 01a2 05       		.uleb128 0x5
 1988 01a3 00       		.byte	0
 1989 01a4 03       		.uleb128 0x3
 1990 01a5 0E       		.uleb128 0xe
 1991 01a6 3A       		.uleb128 0x3a
 1992 01a7 0B       		.uleb128 0xb
 1993 01a8 3B       		.uleb128 0x3b
 1994 01a9 0B       		.uleb128 0xb
 1995 01aa 49       		.uleb128 0x49
ARM GAS  /var/folders/d2/nstgp4h54kz7g1l847x_b8wc0000gn/T//ccMwxqTy.s 			page 36


 1996 01ab 13       		.uleb128 0x13
 1997 01ac 00       		.byte	0
 1998 01ad 00       		.byte	0
 1999 01ae 23       		.uleb128 0x23
 2000 01af 2E       		.uleb128 0x2e
 2001 01b0 01       		.byte	0x1
 2002 01b1 3F       		.uleb128 0x3f
 2003 01b2 19       		.uleb128 0x19
 2004 01b3 03       		.uleb128 0x3
 2005 01b4 0E       		.uleb128 0xe
 2006 01b5 3A       		.uleb128 0x3a
 2007 01b6 0B       		.uleb128 0xb
 2008 01b7 3B       		.uleb128 0x3b
 2009 01b8 0B       		.uleb128 0xb
 2010 01b9 27       		.uleb128 0x27
 2011 01ba 19       		.uleb128 0x19
 2012 01bb 49       		.uleb128 0x49
 2013 01bc 13       		.uleb128 0x13
 2014 01bd 20       		.uleb128 0x20
 2015 01be 0B       		.uleb128 0xb
 2016 01bf 01       		.uleb128 0x1
 2017 01c0 13       		.uleb128 0x13
 2018 01c1 00       		.byte	0
 2019 01c2 00       		.byte	0
 2020 01c3 24       		.uleb128 0x24
 2021 01c4 2E       		.uleb128 0x2e
 2022 01c5 00       		.byte	0
 2023 01c6 3F       		.uleb128 0x3f
 2024 01c7 19       		.uleb128 0x19
 2025 01c8 03       		.uleb128 0x3
 2026 01c9 0E       		.uleb128 0xe
 2027 01ca 3A       		.uleb128 0x3a
 2028 01cb 0B       		.uleb128 0xb
 2029 01cc 3B       		.uleb128 0x3b
 2030 01cd 0B       		.uleb128 0xb
 2031 01ce 27       		.uleb128 0x27
 2032 01cf 19       		.uleb128 0x19
 2033 01d0 00       		.byte	0
 2034 01d1 00       		.byte	0
 2035 01d2 25       		.uleb128 0x25
 2036 01d3 2E       		.uleb128 0x2e
 2037 01d4 00       		.byte	0
 2038 01d5 3F       		.uleb128 0x3f
 2039 01d6 19       		.uleb128 0x19
 2040 01d7 03       		.uleb128 0x3
 2041 01d8 0E       		.uleb128 0xe
 2042 01d9 3A       		.uleb128 0x3a
 2043 01da 0B       		.uleb128 0xb
 2044 01db 3B       		.uleb128 0x3b
 2045 01dc 0B       		.uleb128 0xb
 2046 01dd 27       		.uleb128 0x27
 2047 01de 19       		.uleb128 0x19
 2048 01df 20       		.uleb128 0x20
 2049 01e0 0B       		.uleb128 0xb
 2050 01e1 00       		.byte	0
 2051 01e2 00       		.byte	0
 2052 01e3 26       		.uleb128 0x26
ARM GAS  /var/folders/d2/nstgp4h54kz7g1l847x_b8wc0000gn/T//ccMwxqTy.s 			page 37


 2053 01e4 2E       		.uleb128 0x2e
 2054 01e5 01       		.byte	0x1
 2055 01e6 31       		.uleb128 0x31
 2056 01e7 13       		.uleb128 0x13
 2057 01e8 11       		.uleb128 0x11
 2058 01e9 01       		.uleb128 0x1
 2059 01ea 12       		.uleb128 0x12
 2060 01eb 06       		.uleb128 0x6
 2061 01ec 40       		.uleb128 0x40
 2062 01ed 18       		.uleb128 0x18
 2063 01ee 9742     		.uleb128 0x2117
 2064 01f0 19       		.uleb128 0x19
 2065 01f1 01       		.uleb128 0x1
 2066 01f2 13       		.uleb128 0x13
 2067 01f3 00       		.byte	0
 2068 01f4 00       		.byte	0
 2069 01f5 27       		.uleb128 0x27
 2070 01f6 898201   		.uleb128 0x4109
 2071 01f9 00       		.byte	0
 2072 01fa 11       		.uleb128 0x11
 2073 01fb 01       		.uleb128 0x1
 2074 01fc 31       		.uleb128 0x31
 2075 01fd 13       		.uleb128 0x13
 2076 01fe 00       		.byte	0
 2077 01ff 00       		.byte	0
 2078 0200 28       		.uleb128 0x28
 2079 0201 05       		.uleb128 0x5
 2080 0202 00       		.byte	0
 2081 0203 31       		.uleb128 0x31
 2082 0204 13       		.uleb128 0x13
 2083 0205 02       		.uleb128 0x2
 2084 0206 17       		.uleb128 0x17
 2085 0207 00       		.byte	0
 2086 0208 00       		.byte	0
 2087 0209 29       		.uleb128 0x29
 2088 020a 2E       		.uleb128 0x2e
 2089 020b 00       		.byte	0
 2090 020c 3F       		.uleb128 0x3f
 2091 020d 19       		.uleb128 0x19
 2092 020e 3C       		.uleb128 0x3c
 2093 020f 19       		.uleb128 0x19
 2094 0210 6E       		.uleb128 0x6e
 2095 0211 0E       		.uleb128 0xe
 2096 0212 03       		.uleb128 0x3
 2097 0213 0E       		.uleb128 0xe
 2098 0214 00       		.byte	0
 2099 0215 00       		.byte	0
 2100 0216 00       		.byte	0
 2101              		.section	.debug_loc,"",%progbits
 2102              	.Ldebug_loc0:
 2103              	.LLST0:
 2104 0000 00000000 		.4byte	.LVL1
 2105 0004 14000000 		.4byte	.LVL2
 2106 0008 0100     		.2byte	0x1
 2107 000a 50       		.byte	0x50
 2108 000b 14000000 		.4byte	.LVL2
 2109 000f 1A000000 		.4byte	.LVL3
ARM GAS  /var/folders/d2/nstgp4h54kz7g1l847x_b8wc0000gn/T//ccMwxqTy.s 			page 38


 2110 0013 0400     		.2byte	0x4
 2111 0015 F3       		.byte	0xf3
 2112 0016 01       		.uleb128 0x1
 2113 0017 50       		.byte	0x50
 2114 0018 9F       		.byte	0x9f
 2115 0019 1A000000 		.4byte	.LVL3
 2116 001d 1D000000 		.4byte	.LVL4-1
 2117 0021 0100     		.2byte	0x1
 2118 0023 50       		.byte	0x50
 2119 0024 1D000000 		.4byte	.LVL4-1
 2120 0028 24000000 		.4byte	.LFE2
 2121 002c 0400     		.2byte	0x4
 2122 002e F3       		.byte	0xf3
 2123 002f 01       		.uleb128 0x1
 2124 0030 50       		.byte	0x50
 2125 0031 9F       		.byte	0x9f
 2126 0032 00000000 		.4byte	0
 2127 0036 00000000 		.4byte	0
 2128              	.LLST1:
 2129 003a 00000000 		.4byte	.LVL1
 2130 003e 1D000000 		.4byte	.LVL4-1
 2131 0042 0100     		.2byte	0x1
 2132 0044 51       		.byte	0x51
 2133 0045 1D000000 		.4byte	.LVL4-1
 2134 0049 24000000 		.4byte	.LFE2
 2135 004d 0400     		.2byte	0x4
 2136 004f F3       		.byte	0xf3
 2137 0050 01       		.uleb128 0x1
 2138 0051 51       		.byte	0x51
 2139 0052 9F       		.byte	0x9f
 2140 0053 00000000 		.4byte	0
 2141 0057 00000000 		.4byte	0
 2142              	.LLST2:
 2143 005b 00000000 		.4byte	.LVL5
 2144 005f 14000000 		.4byte	.LVL6
 2145 0063 0100     		.2byte	0x1
 2146 0065 50       		.byte	0x50
 2147 0066 14000000 		.4byte	.LVL6
 2148 006a 1A000000 		.4byte	.LVL7
 2149 006e 0400     		.2byte	0x4
 2150 0070 F3       		.byte	0xf3
 2151 0071 01       		.uleb128 0x1
 2152 0072 50       		.byte	0x50
 2153 0073 9F       		.byte	0x9f
 2154 0074 1A000000 		.4byte	.LVL7
 2155 0078 1D000000 		.4byte	.LVL8-1
 2156 007c 0100     		.2byte	0x1
 2157 007e 50       		.byte	0x50
 2158 007f 1D000000 		.4byte	.LVL8-1
 2159 0083 24000000 		.4byte	.LFE3
 2160 0087 0400     		.2byte	0x4
 2161 0089 F3       		.byte	0xf3
 2162 008a 01       		.uleb128 0x1
 2163 008b 50       		.byte	0x50
 2164 008c 9F       		.byte	0x9f
 2165 008d 00000000 		.4byte	0
 2166 0091 00000000 		.4byte	0
ARM GAS  /var/folders/d2/nstgp4h54kz7g1l847x_b8wc0000gn/T//ccMwxqTy.s 			page 39


 2167              		.section	.debug_aranges,"",%progbits
 2168 0000 2C000000 		.4byte	0x2c
 2169 0004 0200     		.2byte	0x2
 2170 0006 00000000 		.4byte	.Ldebug_info0
 2171 000a 04       		.byte	0x4
 2172 000b 00       		.byte	0
 2173 000c 0000     		.2byte	0
 2174 000e 0000     		.2byte	0
 2175 0010 00000000 		.4byte	.LFB0
 2176 0014 20000000 		.4byte	.LFE0-.LFB0
 2177 0018 00000000 		.4byte	.LFB2
 2178 001c 24000000 		.4byte	.LFE2-.LFB2
 2179 0020 00000000 		.4byte	.LFB3
 2180 0024 24000000 		.4byte	.LFE3-.LFB3
 2181 0028 00000000 		.4byte	0
 2182 002c 00000000 		.4byte	0
 2183              		.section	.debug_ranges,"",%progbits
 2184              	.Ldebug_ranges0:
 2185 0000 00000000 		.4byte	.LFB0
 2186 0004 20000000 		.4byte	.LFE0
 2187 0008 00000000 		.4byte	.LFB2
 2188 000c 24000000 		.4byte	.LFE2
 2189 0010 00000000 		.4byte	.LFB3
 2190 0014 24000000 		.4byte	.LFE3
 2191 0018 00000000 		.4byte	0
 2192 001c 00000000 		.4byte	0
 2193              		.section	.debug_line,"",%progbits
 2194              	.Ldebug_line0:
 2195 0000 59020000 		.section	.debug_str,"MS",%progbits,1
 2195      02001902 
 2195      00000201 
 2195      FB0E0D00 
 2195      01010101 
 2196              	.LASF39:
 2197 0000 5F64736F 		.ascii	"_dso_handle\000"
 2197      5F68616E 
 2197      646C6500 
 2198              	.LASF47:
 2199 000c 5F73697A 		.ascii	"_size\000"
 2199      6500
 2200              	.LASF91:
 2201 0012 5F72616E 		.ascii	"_rand48\000"
 2201      64343800 
 2202              	.LASF71:
 2203 001a 5F656D65 		.ascii	"_emergency\000"
 2203      7267656E 
 2203      637900
 2204              	.LASF133:
 2205 0025 655F656E 		.ascii	"e_end_agendas_processing\000"
 2205      645F6167 
 2205      656E6461 
 2205      735F7072 
 2205      6F636573 
 2206              	.LASF107:
 2207 003e 5F676574 		.ascii	"_getdate_err\000"
 2207      64617465 
 2207      5F657272 
ARM GAS  /var/folders/d2/nstgp4h54kz7g1l847x_b8wc0000gn/T//ccMwxqTy.s 			page 40


 2207      00
 2208              	.LASF61:
 2209 004b 5F646174 		.ascii	"_data\000"
 2209      6100
 2210              	.LASF111:
 2211 0051 5F776372 		.ascii	"_wcrtomb_state\000"
 2211      746F6D62 
 2211      5F737461 
 2211      746500
 2212              	.LASF112:
 2213 0060 5F776373 		.ascii	"_wcsrtombs_state\000"
 2213      72746F6D 
 2213      62735F73 
 2213      74617465 
 2213      00
 2214              	.LASF10:
 2215 0071 6C6F6E67 		.ascii	"long long unsigned int\000"
 2215      206C6F6E 
 2215      6720756E 
 2215      7369676E 
 2215      65642069 
 2216              	.LASF51:
 2217 0088 5F6C6266 		.ascii	"_lbfsize\000"
 2217      73697A65 
 2217      00
 2218              	.LASF118:
 2219 0091 5F5F6C6F 		.ascii	"__locale_t\000"
 2219      63616C65 
 2219      5F7400
 2220              	.LASF109:
 2221 009c 5F6D6272 		.ascii	"_mbrtowc_state\000"
 2221      746F7763 
 2221      5F737461 
 2221      746500
 2222              	.LASF28:
 2223 00ab 5F5F746D 		.ascii	"__tm_sec\000"
 2223      5F736563 
 2223      00
 2224              	.LASF2:
 2225 00b4 6C6F6E67 		.ascii	"long long int\000"
 2225      206C6F6E 
 2225      6720696E 
 2225      7400
 2226              	.LASF4:
 2227 00c2 7369676E 		.ascii	"signed char\000"
 2227      65642063 
 2227      68617200 
 2228              	.LASF57:
 2229 00ce 5F756275 		.ascii	"_ubuf\000"
 2229      6600
 2230              	.LASF46:
 2231 00d4 5F626173 		.ascii	"_base\000"
 2231      6500
 2232              	.LASF30:
 2233 00da 5F5F746D 		.ascii	"__tm_hour\000"
 2233      5F686F75 
 2233      7200
ARM GAS  /var/folders/d2/nstgp4h54kz7g1l847x_b8wc0000gn/T//ccMwxqTy.s 			page 41


 2234              	.LASF86:
 2235 00e4 5F5F7366 		.ascii	"__sf\000"
 2235      00
 2236              	.LASF37:
 2237 00e9 5F6F6E5F 		.ascii	"_on_exit_args\000"
 2237      65786974 
 2237      5F617267 
 2237      7300
 2238              	.LASF52:
 2239 00f7 5F636F6F 		.ascii	"_cookie\000"
 2239      6B696500 
 2240              	.LASF85:
 2241 00ff 5F5F7367 		.ascii	"__sglue\000"
 2241      6C756500 
 2242              	.LASF8:
 2243 0107 6C6F6E67 		.ascii	"long int\000"
 2243      20696E74 
 2243      00
 2244              	.LASF49:
 2245 0110 5F666C61 		.ascii	"_flags\000"
 2245      677300
 2246              	.LASF41:
 2247 0117 5F69735F 		.ascii	"_is_cxa\000"
 2247      63786100 
 2248              	.LASF67:
 2249 011f 5F737464 		.ascii	"_stdin\000"
 2249      696E00
 2250              	.LASF59:
 2251 0126 5F626C6B 		.ascii	"_blksize\000"
 2251      73697A65 
 2251      00
 2252              	.LASF81:
 2253 012f 5F637674 		.ascii	"_cvtbuf\000"
 2253      62756600 
 2254              	.LASF60:
 2255 0137 5F6F6666 		.ascii	"_offset\000"
 2255      73657400 
 2256              	.LASF110:
 2257 013f 5F6D6273 		.ascii	"_mbsrtowcs_state\000"
 2257      72746F77 
 2257      63735F73 
 2257      74617465 
 2257      00
 2258              	.LASF108:
 2259 0150 5F6D6272 		.ascii	"_mbrlen_state\000"
 2259      6C656E5F 
 2259      73746174 
 2259      6500
 2260              	.LASF38:
 2261 015e 5F666E61 		.ascii	"_fnargs\000"
 2261      72677300 
 2262              	.LASF123:
 2263 0166 655F7061 		.ascii	"e_pause_agenda\000"
 2263      7573655F 
 2263      6167656E 
 2263      646100
 2264              	.LASF44:
ARM GAS  /var/folders/d2/nstgp4h54kz7g1l847x_b8wc0000gn/T//ccMwxqTy.s 			page 42


 2265 0175 5F666E73 		.ascii	"_fns\000"
 2265      00
 2266              	.LASF24:
 2267 017a 5F736967 		.ascii	"_sign\000"
 2267      6E00
 2268              	.LASF20:
 2269 0180 5F666C6F 		.ascii	"_flock_t\000"
 2269      636B5F74 
 2269      00
 2270              	.LASF69:
 2271 0189 5F737464 		.ascii	"_stderr\000"
 2271      65727200 
 2272              	.LASF26:
 2273 0191 5F426967 		.ascii	"_Bigint\000"
 2273      696E7400 
 2274              	.LASF99:
 2275 0199 5F67616D 		.ascii	"_gamma_signgam\000"
 2275      6D615F73 
 2275      69676E67 
 2275      616D00
 2276              	.LASF53:
 2277 01a8 5F726561 		.ascii	"_read\000"
 2277      6400
 2278              	.LASF77:
 2279 01ae 5F726573 		.ascii	"_result_k\000"
 2279      756C745F 
 2279      6B00
 2280              	.LASF27:
 2281 01b8 5F5F746D 		.ascii	"__tm\000"
 2281      00
 2282              	.LASF0:
 2283 01bd 756E7369 		.ascii	"unsigned int\000"
 2283      676E6564 
 2283      20696E74 
 2283      00
 2284              	.LASF130:
 2285 01ca 474E5520 		.ascii	"GNU C11 7.2.1 20170904 (release) [ARM/embedded-7-br"
 2285      43313120 
 2285      372E322E 
 2285      31203230 
 2285      31373039 
 2286 01fd 616E6368 		.ascii	"anch revision 255204] -mcpu=cortex-m4 -mfloat-abi=h"
 2286      20726576 
 2286      6973696F 
 2286      6E203235 
 2286      35323034 
 2287 0230 61726420 		.ascii	"ard -mfpu=fpv4-sp-d16 -mno-thumb-interwork -mthumb "
 2287      2D6D6670 
 2287      753D6670 
 2287      76342D73 
 2287      702D6431 
 2288 0263 2D676764 		.ascii	"-ggdb -O2 -fomit-frame-pointer -falign-functions=16"
 2288      62202D4F 
 2288      32202D66 
 2288      6F6D6974 
 2288      2D667261 
 2289 0296 202D666E 		.ascii	" -fno-strict-aliasing -fstack-protector-all -ffunct"
ARM GAS  /var/folders/d2/nstgp4h54kz7g1l847x_b8wc0000gn/T//ccMwxqTy.s 			page 43


 2289      6F2D7374 
 2289      72696374 
 2289      2D616C69 
 2289      6173696E 
 2290 02c9 696F6E2D 		.ascii	"ion-sections -fdata-sections -fno-common -fsingle-p"
 2290      73656374 
 2290      696F6E73 
 2290      202D6664 
 2290      6174612D 
 2291 02fc 72656369 		.ascii	"recision-constant\000"
 2291      73696F6E 
 2291      2D636F6E 
 2291      7374616E 
 2291      7400
 2292              	.LASF16:
 2293 030e 5F5F7763 		.ascii	"__wchb\000"
 2293      686200
 2294              	.LASF68:
 2295 0315 5F737464 		.ascii	"_stdout\000"
 2295      6F757400 
 2296              	.LASF128:
 2297 031d 655F6465 		.ascii	"e_destroy_agenda\000"
 2297      7374726F 
 2297      795F6167 
 2297      656E6461 
 2297      00
 2298              	.LASF80:
 2299 032e 5F637674 		.ascii	"_cvtlen\000"
 2299      6C656E00 
 2300              	.LASF9:
 2301 0336 6C6F6E67 		.ascii	"long unsigned int\000"
 2301      20756E73 
 2301      69676E65 
 2301      6420696E 
 2301      7400
 2302              	.LASF50:
 2303 0348 5F66696C 		.ascii	"_file\000"
 2303      6500
 2304              	.LASF89:
 2305 034e 5F6E696F 		.ascii	"_niobs\000"
 2305      627300
 2306              	.LASF7:
 2307 0355 73686F72 		.ascii	"short unsigned int\000"
 2307      7420756E 
 2307      7369676E 
 2307      65642069 
 2307      6E7400
 2308              	.LASF83:
 2309 0368 5F617465 		.ascii	"_atexit0\000"
 2309      78697430 
 2309      00
 2310              	.LASF106:
 2311 0371 5F736967 		.ascii	"_signal_buf\000"
 2311      6E616C5F 
 2311      62756600 
 2312              	.LASF97:
 2313 037d 5F617363 		.ascii	"_asctime_buf\000"
ARM GAS  /var/folders/d2/nstgp4h54kz7g1l847x_b8wc0000gn/T//ccMwxqTy.s 			page 44


 2313      74696D65 
 2313      5F627566 
 2313      00
 2314              	.LASF76:
 2315 038a 5F726573 		.ascii	"_result\000"
 2315      756C7400 
 2316              	.LASF15:
 2317 0392 5F5F7763 		.ascii	"__wch\000"
 2317      6800
 2318              	.LASF11:
 2319 0398 5F4C4F43 		.ascii	"_LOCK_T\000"
 2319      4B5F5400 
 2320              	.LASF14:
 2321 03a0 77696E74 		.ascii	"wint_t\000"
 2321      5F7400
 2322              	.LASF62:
 2323 03a7 5F6C6F63 		.ascii	"_lock\000"
 2323      6B00
 2324              	.LASF64:
 2325 03ad 5F666C61 		.ascii	"_flags2\000"
 2325      67733200 
 2326              	.LASF54:
 2327 03b5 5F777269 		.ascii	"_write\000"
 2327      746500
 2328              	.LASF33:
 2329 03bc 5F5F746D 		.ascii	"__tm_year\000"
 2329      5F796561 
 2329      7200
 2330              	.LASF122:
 2331 03c6 655F7265 		.ascii	"e_restart_agenda\000"
 2331      73746172 
 2331      745F6167 
 2331      656E6461 
 2331      00
 2332              	.LASF3:
 2333 03d7 6C6F6E67 		.ascii	"long double\000"
 2333      20646F75 
 2333      626C6500 
 2334              	.LASF126:
 2335 03e3 655F7365 		.ascii	"e_set_agenda_cycle\000"
 2335      745F6167 
 2335      656E6461 
 2335      5F637963 
 2335      6C6500
 2336              	.LASF114:
 2337 03f6 5F6E6578 		.ascii	"_nextf\000"
 2337      746600
 2338              	.LASF32:
 2339 03fd 5F5F746D 		.ascii	"__tm_mon\000"
 2339      5F6D6F6E 
 2339      00
 2340              	.LASF42:
 2341 0406 5F617465 		.ascii	"_atexit\000"
 2341      78697400 
 2342              	.LASF121:
 2343 040e 7375626F 		.ascii	"suboptarg\000"
 2343      70746172 
ARM GAS  /var/folders/d2/nstgp4h54kz7g1l847x_b8wc0000gn/T//ccMwxqTy.s 			page 45


 2343      6700
 2344              	.LASF74:
 2345 0418 5F5F7364 		.ascii	"__sdidinit\000"
 2345      6964696E 
 2345      697400
 2346              	.LASF12:
 2347 0423 5F6F6666 		.ascii	"_off_t\000"
 2347      5F7400
 2348              	.LASF79:
 2349 042a 5F667265 		.ascii	"_freelist\000"
 2349      656C6973 
 2349      7400
 2350              	.LASF104:
 2351 0434 5F776374 		.ascii	"_wctomb_state\000"
 2351      6F6D625F 
 2351      73746174 
 2351      6500
 2352              	.LASF134:
 2353 0442 655F7374 		.ascii	"e_start_agendas_processing\000"
 2353      6172745F 
 2353      6167656E 
 2353      6461735F 
 2353      70726F63 
 2354              	.LASF5:
 2355 045d 756E7369 		.ascii	"unsigned char\000"
 2355      676E6564 
 2355      20636861 
 2355      7200
 2356              	.LASF82:
 2357 046b 5F6E6577 		.ascii	"_new\000"
 2357      00
 2358              	.LASF113:
 2359 0470 5F685F65 		.ascii	"_h_errno\000"
 2359      72726E6F 
 2359      00
 2360              	.LASF6:
 2361 0479 73686F72 		.ascii	"short int\000"
 2361      7420696E 
 2361      7400
 2362              	.LASF35:
 2363 0483 5F5F746D 		.ascii	"__tm_yday\000"
 2363      5F796461 
 2363      7900
 2364              	.LASF45:
 2365 048d 5F5F7362 		.ascii	"__sbuf\000"
 2365      756600
 2366              	.LASF90:
 2367 0494 5F696F62 		.ascii	"_iobs\000"
 2367      7300
 2368              	.LASF131:
 2369 049a 2E2E2F65 		.ascii	"../e-puck2_main-processor/src/epuck1x/motor_led/adv"
 2369      2D707563 
 2369      6B325F6D 
 2369      61696E2D 
 2369      70726F63 
 2370 04cd 616E6365 		.ascii	"ance_one_timer/e_agenda.c\000"
 2370      5F6F6E65 
ARM GAS  /var/folders/d2/nstgp4h54kz7g1l847x_b8wc0000gn/T//ccMwxqTy.s 			page 46


 2370      5F74696D 
 2370      65722F65 
 2370      5F616765 
 2371              	.LASF87:
 2372 04e7 5F5F4649 		.ascii	"__FILE\000"
 2372      4C4500
 2373              	.LASF19:
 2374 04ee 5F6D6273 		.ascii	"_mbstate_t\000"
 2374      74617465 
 2374      5F7400
 2375              	.LASF48:
 2376 04f9 5F5F7346 		.ascii	"__sFILE\000"
 2376      494C4500 
 2377              	.LASF63:
 2378 0501 5F6D6273 		.ascii	"_mbstate\000"
 2378      74617465 
 2378      00
 2379              	.LASF100:
 2380 050a 5F72616E 		.ascii	"_rand_next\000"
 2380      645F6E65 
 2380      787400
 2381              	.LASF102:
 2382 0515 5F6D626C 		.ascii	"_mblen_state\000"
 2382      656E5F73 
 2382      74617465 
 2382      00
 2383              	.LASF70:
 2384 0522 5F696E63 		.ascii	"_inc\000"
 2384      00
 2385              	.LASF43:
 2386 0527 5F696E64 		.ascii	"_ind\000"
 2386      00
 2387              	.LASF73:
 2388 052c 5F6C6F63 		.ascii	"_locale\000"
 2388      616C6500 
 2389              	.LASF75:
 2390 0534 5F5F636C 		.ascii	"__cleanup\000"
 2390      65616E75 
 2390      7000
 2391              	.LASF72:
 2392 053e 5F756E73 		.ascii	"_unspecified_locale_info\000"
 2392      70656369 
 2392      66696564 
 2392      5F6C6F63 
 2392      616C655F 
 2393              	.LASF135:
 2394 0557 5F5F7374 		.ascii	"__stack_chk_fail\000"
 2394      61636B5F 
 2394      63686B5F 
 2394      6661696C 
 2394      00
 2395              	.LASF23:
 2396 0568 5F6D6178 		.ascii	"_maxwds\000"
 2396      77647300 
 2397              	.LASF65:
 2398 0570 5F726565 		.ascii	"_reent\000"
 2398      6E7400
ARM GAS  /var/folders/d2/nstgp4h54kz7g1l847x_b8wc0000gn/T//ccMwxqTy.s 			page 47


 2399              	.LASF92:
 2400 0577 5F736565 		.ascii	"_seed\000"
 2400      6400
 2401              	.LASF129:
 2402 057d 655F6163 		.ascii	"e_activate_agenda\000"
 2402      74697661 
 2402      74655F61 
 2402      67656E64 
 2402      6100
 2403              	.LASF17:
 2404 058f 5F5F636F 		.ascii	"__count\000"
 2404      756E7400 
 2405              	.LASF117:
 2406 0597 5F5F6C6F 		.ascii	"__lock\000"
 2406      636B00
 2407              	.LASF18:
 2408 059e 5F5F7661 		.ascii	"__value\000"
 2408      6C756500 
 2409              	.LASF55:
 2410 05a6 5F736565 		.ascii	"_seek\000"
 2410      6B00
 2411              	.LASF119:
 2412 05ac 5F696D70 		.ascii	"_impure_ptr\000"
 2412      7572655F 
 2412      70747200 
 2413              	.LASF13:
 2414 05b8 5F66706F 		.ascii	"_fpos_t\000"
 2414      735F7400 
 2415              	.LASF66:
 2416 05c0 5F657272 		.ascii	"_errno\000"
 2416      6E6F00
 2417              	.LASF1:
 2418 05c7 63686172 		.ascii	"char\000"
 2418      00
 2419              	.LASF124:
 2420 05cc 66756E63 		.ascii	"func\000"
 2420      00
 2421              	.LASF29:
 2422 05d1 5F5F746D 		.ascii	"__tm_min\000"
 2422      5F6D696E 
 2422      00
 2423              	.LASF93:
 2424 05da 5F6D756C 		.ascii	"_mult\000"
 2424      7400
 2425              	.LASF22:
 2426 05e0 5F6E6578 		.ascii	"_next\000"
 2426      7400
 2427              	.LASF96:
 2428 05e6 5F737472 		.ascii	"_strtok_last\000"
 2428      746F6B5F 
 2428      6C617374 
 2428      00
 2429              	.LASF132:
 2430 05f3 2F557365 		.ascii	"/Users/bharathkeshavamurthy/Workspaces/Talos/src/ma"
 2430      72732F62 
 2430      68617261 
 2430      74686B65 
ARM GAS  /var/folders/d2/nstgp4h54kz7g1l847x_b8wc0000gn/T//ccMwxqTy.s 			page 48


 2430      73686176 
 2431 0626 696E2F63 		.ascii	"in/cpp/org/purdue/ece/talos/optimize\000"
 2431      70702F6F 
 2431      72672F70 
 2431      75726475 
 2431      652F6563 
 2432              	.LASF40:
 2433 064b 5F666E74 		.ascii	"_fntypes\000"
 2433      79706573 
 2433      00
 2434              	.LASF125:
 2435 0654 655F7265 		.ascii	"e_reset_agenda\000"
 2435      7365745F 
 2435      6167656E 
 2435      646100
 2436              	.LASF94:
 2437 0663 5F616464 		.ascii	"_add\000"
 2437      00
 2438              	.LASF21:
 2439 0668 5F5F554C 		.ascii	"__ULong\000"
 2439      6F6E6700 
 2440              	.LASF120:
 2441 0670 5F676C6F 		.ascii	"_global_impure_ptr\000"
 2441      62616C5F 
 2441      696D7075 
 2441      72655F70 
 2441      747200
 2442              	.LASF127:
 2443 0683 6379636C 		.ascii	"cycle\000"
 2443      6500
 2444              	.LASF95:
 2445 0689 5F756E75 		.ascii	"_unused_rand\000"
 2445      7365645F 
 2445      72616E64 
 2445      00
 2446              	.LASF25:
 2447 0696 5F776473 		.ascii	"_wds\000"
 2447      00
 2448              	.LASF34:
 2449 069b 5F5F746D 		.ascii	"__tm_wday\000"
 2449      5F776461 
 2449      7900
 2450              	.LASF88:
 2451 06a5 5F676C75 		.ascii	"_glue\000"
 2451      6500
 2452              	.LASF115:
 2453 06ab 5F6E6D61 		.ascii	"_nmalloc\000"
 2453      6C6C6F63 
 2453      00
 2454              	.LASF105:
 2455 06b4 5F6C3634 		.ascii	"_l64a_buf\000"
 2455      615F6275 
 2455      6600
 2456              	.LASF84:
 2457 06be 5F736967 		.ascii	"_sig_func\000"
 2457      5F66756E 
 2457      6300
ARM GAS  /var/folders/d2/nstgp4h54kz7g1l847x_b8wc0000gn/T//ccMwxqTy.s 			page 49


 2458              	.LASF58:
 2459 06c8 5F6E6275 		.ascii	"_nbuf\000"
 2459      6600
 2460              	.LASF116:
 2461 06ce 5F756E75 		.ascii	"_unused\000"
 2461      73656400 
 2462              	.LASF36:
 2463 06d6 5F5F746D 		.ascii	"__tm_isdst\000"
 2463      5F697364 
 2463      737400
 2464              	.LASF98:
 2465 06e1 5F6C6F63 		.ascii	"_localtime_buf\000"
 2465      616C7469 
 2465      6D655F62 
 2465      756600
 2466              	.LASF56:
 2467 06f0 5F636C6F 		.ascii	"_close\000"
 2467      736500
 2468              	.LASF101:
 2469 06f7 5F723438 		.ascii	"_r48\000"
 2469      00
 2470              	.LASF103:
 2471 06fc 5F6D6274 		.ascii	"_mbtowc_state\000"
 2471      6F77635F 
 2471      73746174 
 2471      6500
 2472              	.LASF78:
 2473 070a 5F703573 		.ascii	"_p5s\000"
 2473      00
 2474              	.LASF31:
 2475 070f 5F5F746D 		.ascii	"__tm_mday\000"
 2475      5F6D6461 
 2475      7900
 2476              		.ident	"GCC: (GNU Tools for Arm Embedded Processors 7-2017-q4-major) 7.2.1 20170904 (release) [ARM
ARM GAS  /var/folders/d2/nstgp4h54kz7g1l847x_b8wc0000gn/T//ccMwxqTy.s 			page 50


DEFINED SYMBOLS
                            *ABS*:0000000000000000 e_agenda.c
/var/folders/d2/nstgp4h54kz7g1l847x_b8wc0000gn/T//ccMwxqTy.s:18     .text.e_start_agendas_processing:0000000000000000 $t
/var/folders/d2/nstgp4h54kz7g1l847x_b8wc0000gn/T//ccMwxqTy.s:26     .text.e_start_agendas_processing:0000000000000000 e_start_agendas_processing
/var/folders/d2/nstgp4h54kz7g1l847x_b8wc0000gn/T//ccMwxqTy.s:59     .text.e_start_agendas_processing:000000000000001c $d
/var/folders/d2/nstgp4h54kz7g1l847x_b8wc0000gn/T//ccMwxqTy.s:64     .text.e_end_agendas_processing:0000000000000000 $t
/var/folders/d2/nstgp4h54kz7g1l847x_b8wc0000gn/T//ccMwxqTy.s:72     .text.e_end_agendas_processing:0000000000000000 e_end_agendas_processing
/var/folders/d2/nstgp4h54kz7g1l847x_b8wc0000gn/T//ccMwxqTy.s:100    .text.e_end_agendas_processing:000000000000001c $d
/var/folders/d2/nstgp4h54kz7g1l847x_b8wc0000gn/T//ccMwxqTy.s:105    .text.e_activate_agenda:0000000000000000 $t
/var/folders/d2/nstgp4h54kz7g1l847x_b8wc0000gn/T//ccMwxqTy.s:113    .text.e_activate_agenda:0000000000000000 e_activate_agenda
/var/folders/d2/nstgp4h54kz7g1l847x_b8wc0000gn/T//ccMwxqTy.s:150    .text.e_activate_agenda:0000000000000020 $d
/var/folders/d2/nstgp4h54kz7g1l847x_b8wc0000gn/T//ccMwxqTy.s:155    .text.e_destroy_agenda:0000000000000000 $t
/var/folders/d2/nstgp4h54kz7g1l847x_b8wc0000gn/T//ccMwxqTy.s:163    .text.e_destroy_agenda:0000000000000000 e_destroy_agenda
/var/folders/d2/nstgp4h54kz7g1l847x_b8wc0000gn/T//ccMwxqTy.s:199    .text.e_destroy_agenda:0000000000000020 $d
/var/folders/d2/nstgp4h54kz7g1l847x_b8wc0000gn/T//ccMwxqTy.s:204    .text.e_set_agenda_cycle:0000000000000000 $t
/var/folders/d2/nstgp4h54kz7g1l847x_b8wc0000gn/T//ccMwxqTy.s:212    .text.e_set_agenda_cycle:0000000000000000 e_set_agenda_cycle
/var/folders/d2/nstgp4h54kz7g1l847x_b8wc0000gn/T//ccMwxqTy.s:241    .text.e_set_agenda_cycle:0000000000000020 $d
/var/folders/d2/nstgp4h54kz7g1l847x_b8wc0000gn/T//ccMwxqTy.s:246    .text.e_reset_agenda:0000000000000000 $t
/var/folders/d2/nstgp4h54kz7g1l847x_b8wc0000gn/T//ccMwxqTy.s:254    .text.e_reset_agenda:0000000000000000 e_reset_agenda
/var/folders/d2/nstgp4h54kz7g1l847x_b8wc0000gn/T//ccMwxqTy.s:283    .text.e_reset_agenda:0000000000000020 $d
/var/folders/d2/nstgp4h54kz7g1l847x_b8wc0000gn/T//ccMwxqTy.s:288    .text.e_pause_agenda:0000000000000000 $t
/var/folders/d2/nstgp4h54kz7g1l847x_b8wc0000gn/T//ccMwxqTy.s:296    .text.e_pause_agenda:0000000000000000 e_pause_agenda
/var/folders/d2/nstgp4h54kz7g1l847x_b8wc0000gn/T//ccMwxqTy.s:325    .text.e_pause_agenda:0000000000000020 $d
/var/folders/d2/nstgp4h54kz7g1l847x_b8wc0000gn/T//ccMwxqTy.s:330    .text.e_restart_agenda:0000000000000000 $t
/var/folders/d2/nstgp4h54kz7g1l847x_b8wc0000gn/T//ccMwxqTy.s:338    .text.e_restart_agenda:0000000000000000 e_restart_agenda
/var/folders/d2/nstgp4h54kz7g1l847x_b8wc0000gn/T//ccMwxqTy.s:367    .text.e_restart_agenda:0000000000000020 $d

UNDEFINED SYMBOLS
__stack_chk_fail
__stack_chk_guard
