ARM GAS  /var/folders/d2/nstgp4h54kz7g1l847x_b8wc0000gn/T//ccMv7zho.s 			page 1


   1              		.cpu cortex-m4
   2              		.eabi_attribute 27, 1
   3              		.eabi_attribute 28, 1
   4              		.eabi_attribute 20, 1
   5              		.eabi_attribute 21, 1
   6              		.eabi_attribute 23, 3
   7              		.eabi_attribute 24, 1
   8              		.eabi_attribute 25, 1
   9              		.eabi_attribute 26, 1
  10              		.eabi_attribute 30, 6
  11              		.eabi_attribute 34, 1
  12              		.eabi_attribute 18, 4
  13              		.file	"e_led.c"
  14              		.section	.text.e_set_led,"ax",%progbits
  15              		.align	1
  16              		.global	e_set_led
  17              		.syntax unified
  18              		.thumb
  19              		.thumb_func
  20              		.fpu fpv4-sp-d16
  21              		.type	e_set_led, %function
  22              	e_set_led:
  23              		@ args = 0, pretend = 0, frame = 16
  24              		@ frame_needed = 1, uses_anonymous_args = 0
  25 0000 80B5     		push	{r7, lr}
  26 0002 84B0     		sub	sp, sp, #16
  27 0004 00AF     		add	r7, sp, #0
  28 0006 7860     		str	r0, [r7, #4]
  29 0008 3960     		str	r1, [r7]
  30 000a 7B68     		ldr	r3, [r7, #4]
  31 000c 072B     		cmp	r3, #7
  32 000e 7FD8     		bhi	.L2
  33 0010 01A2     		adr	r2, .L4
  34 0012 52F823F0 		ldr	pc, [r2, r3, lsl #2]
  35 0016 00BF     		.p2align 2
  36              	.L4:
  37 0018 39000000 		.word	.L3+1
  38 001c 43000000 		.word	.L5+1
  39 0020 6F000000 		.word	.L6+1
  40 0024 79000000 		.word	.L7+1
  41 0028 A5000000 		.word	.L8+1
  42 002c AF000000 		.word	.L9+1
  43 0030 DB000000 		.word	.L10+1
  44 0034 E5000000 		.word	.L11+1
  45              		.p2align 1
  46              	.L3:
  47 0038 3968     		ldr	r1, [r7]
  48 003a 0020     		movs	r0, #0
  49 003c FFF7FEFF 		bl	set_led
  50 0040 75E0     		b	.L12
  51              	.L5:
  52 0042 3B68     		ldr	r3, [r7]
  53 0044 012B     		cmp	r3, #1
  54 0046 05D9     		bls	.L13
  55 0048 0A22     		movs	r2, #10
  56 004a 0021     		movs	r1, #0
  57 004c 0020     		movs	r0, #0
ARM GAS  /var/folders/d2/nstgp4h54kz7g1l847x_b8wc0000gn/T//ccMv7zho.s 			page 2


  58 004e FFF7FEFF 		bl	toggle_rgb_led
  59 0052 6CE0     		b	.L12
  60              	.L13:
  61 0054 3B68     		ldr	r3, [r7]
  62 0056 DBB2     		uxtb	r3, r3
  63 0058 1A46     		mov	r2, r3
  64 005a 9200     		lsls	r2, r2, #2
  65 005c 1344     		add	r3, r3, r2
  66 005e 5B00     		lsls	r3, r3, #1
  67 0060 D9B2     		uxtb	r1, r3
  68 0062 0023     		movs	r3, #0
  69 0064 0022     		movs	r2, #0
  70 0066 0020     		movs	r0, #0
  71 0068 FFF7FEFF 		bl	set_rgb_led
  72 006c 5FE0     		b	.L12
  73              	.L6:
  74 006e 3968     		ldr	r1, [r7]
  75 0070 0120     		movs	r0, #1
  76 0072 FFF7FEFF 		bl	set_led
  77 0076 5AE0     		b	.L12
  78              	.L7:
  79 0078 3B68     		ldr	r3, [r7]
  80 007a 012B     		cmp	r3, #1
  81 007c 05D9     		bls	.L15
  82 007e 0A22     		movs	r2, #10
  83 0080 0021     		movs	r1, #0
  84 0082 0120     		movs	r0, #1
  85 0084 FFF7FEFF 		bl	toggle_rgb_led
  86 0088 51E0     		b	.L12
  87              	.L15:
  88 008a 3B68     		ldr	r3, [r7]
  89 008c DBB2     		uxtb	r3, r3
  90 008e 1A46     		mov	r2, r3
  91 0090 9200     		lsls	r2, r2, #2
  92 0092 1344     		add	r3, r3, r2
  93 0094 5B00     		lsls	r3, r3, #1
  94 0096 D9B2     		uxtb	r1, r3
  95 0098 0023     		movs	r3, #0
  96 009a 0022     		movs	r2, #0
  97 009c 0120     		movs	r0, #1
  98 009e FFF7FEFF 		bl	set_rgb_led
  99 00a2 44E0     		b	.L12
 100              	.L8:
 101 00a4 3968     		ldr	r1, [r7]
 102 00a6 0220     		movs	r0, #2
 103 00a8 FFF7FEFF 		bl	set_led
 104 00ac 3FE0     		b	.L12
 105              	.L9:
 106 00ae 3B68     		ldr	r3, [r7]
 107 00b0 012B     		cmp	r3, #1
 108 00b2 05D9     		bls	.L17
 109 00b4 0A22     		movs	r2, #10
 110 00b6 0021     		movs	r1, #0
 111 00b8 0220     		movs	r0, #2
 112 00ba FFF7FEFF 		bl	toggle_rgb_led
 113 00be 36E0     		b	.L12
 114              	.L17:
ARM GAS  /var/folders/d2/nstgp4h54kz7g1l847x_b8wc0000gn/T//ccMv7zho.s 			page 3


 115 00c0 3B68     		ldr	r3, [r7]
 116 00c2 DBB2     		uxtb	r3, r3
 117 00c4 1A46     		mov	r2, r3
 118 00c6 9200     		lsls	r2, r2, #2
 119 00c8 1344     		add	r3, r3, r2
 120 00ca 5B00     		lsls	r3, r3, #1
 121 00cc D9B2     		uxtb	r1, r3
 122 00ce 0023     		movs	r3, #0
 123 00d0 0022     		movs	r2, #0
 124 00d2 0220     		movs	r0, #2
 125 00d4 FFF7FEFF 		bl	set_rgb_led
 126 00d8 29E0     		b	.L12
 127              	.L10:
 128 00da 3968     		ldr	r1, [r7]
 129 00dc 0320     		movs	r0, #3
 130 00de FFF7FEFF 		bl	set_led
 131 00e2 24E0     		b	.L12
 132              	.L11:
 133 00e4 3B68     		ldr	r3, [r7]
 134 00e6 012B     		cmp	r3, #1
 135 00e8 05D9     		bls	.L19
 136 00ea 0A22     		movs	r2, #10
 137 00ec 0021     		movs	r1, #0
 138 00ee 0320     		movs	r0, #3
 139 00f0 FFF7FEFF 		bl	toggle_rgb_led
 140 00f4 1BE0     		b	.L12
 141              	.L19:
 142 00f6 3B68     		ldr	r3, [r7]
 143 00f8 DBB2     		uxtb	r3, r3
 144 00fa 1A46     		mov	r2, r3
 145 00fc 9200     		lsls	r2, r2, #2
 146 00fe 1344     		add	r3, r3, r2
 147 0100 5B00     		lsls	r3, r3, #1
 148 0102 D9B2     		uxtb	r1, r3
 149 0104 0023     		movs	r3, #0
 150 0106 0022     		movs	r2, #0
 151 0108 0320     		movs	r0, #3
 152 010a FFF7FEFF 		bl	set_rgb_led
 153 010e 0EE0     		b	.L12
 154              	.L2:
 155 0110 0023     		movs	r3, #0
 156 0112 FB60     		str	r3, [r7, #12]
 157 0114 07E0     		b	.L21
 158              	.L22:
 159 0116 FB68     		ldr	r3, [r7, #12]
 160 0118 3968     		ldr	r1, [r7]
 161 011a 1846     		mov	r0, r3
 162 011c FFF7FEFF 		bl	e_set_led
 163 0120 FB68     		ldr	r3, [r7, #12]
 164 0122 0133     		adds	r3, r3, #1
 165 0124 FB60     		str	r3, [r7, #12]
 166              	.L21:
 167 0126 FB68     		ldr	r3, [r7, #12]
 168 0128 072B     		cmp	r3, #7
 169 012a F4DD     		ble	.L22
 170 012c 00BF     		nop
 171              	.L12:
ARM GAS  /var/folders/d2/nstgp4h54kz7g1l847x_b8wc0000gn/T//ccMv7zho.s 			page 4


 172 012e 00BF     		nop
 173 0130 1037     		adds	r7, r7, #16
 174 0132 BD46     		mov	sp, r7
 175              		@ sp needed
 176 0134 80BD     		pop	{r7, pc}
 177              		.size	e_set_led, .-e_set_led
 178 0136 00BF     		.section	.text.e_led_clear,"ax",%progbits
 179              		.align	1
 180              		.global	e_led_clear
 181              		.syntax unified
 182              		.thumb
 183              		.thumb_func
 184              		.fpu fpv4-sp-d16
 185              		.type	e_led_clear, %function
 186              	e_led_clear:
 187              		@ args = 0, pretend = 0, frame = 0
 188              		@ frame_needed = 1, uses_anonymous_args = 0
 189 0000 80B5     		push	{r7, lr}
 190 0002 00AF     		add	r7, sp, #0
 191 0004 FFF7FEFF 		bl	clear_leds
 192 0008 00BF     		nop
 193 000a 80BD     		pop	{r7, pc}
 194              		.size	e_led_clear, .-e_led_clear
 195              		.section	.text.e_set_body_led,"ax",%progbits
 196              		.align	1
 197              		.global	e_set_body_led
 198              		.syntax unified
 199              		.thumb
 200              		.thumb_func
 201              		.fpu fpv4-sp-d16
 202              		.type	e_set_body_led, %function
 203              	e_set_body_led:
 204              		@ args = 0, pretend = 0, frame = 8
 205              		@ frame_needed = 1, uses_anonymous_args = 0
 206 0000 80B5     		push	{r7, lr}
 207 0002 82B0     		sub	sp, sp, #8
 208 0004 00AF     		add	r7, sp, #0
 209 0006 7860     		str	r0, [r7, #4]
 210 0008 7868     		ldr	r0, [r7, #4]
 211 000a FFF7FEFF 		bl	set_body_led
 212 000e 00BF     		nop
 213 0010 0837     		adds	r7, r7, #8
 214 0012 BD46     		mov	sp, r7
 215              		@ sp needed
 216 0014 80BD     		pop	{r7, pc}
 217              		.size	e_set_body_led, .-e_set_body_led
 218              		.section	.text.e_set_front_led,"ax",%progbits
 219              		.align	1
 220              		.global	e_set_front_led
 221              		.syntax unified
 222              		.thumb
 223              		.thumb_func
 224              		.fpu fpv4-sp-d16
 225              		.type	e_set_front_led, %function
 226              	e_set_front_led:
 227              		@ args = 0, pretend = 0, frame = 8
 228              		@ frame_needed = 1, uses_anonymous_args = 0
ARM GAS  /var/folders/d2/nstgp4h54kz7g1l847x_b8wc0000gn/T//ccMv7zho.s 			page 5


 229 0000 80B5     		push	{r7, lr}
 230 0002 82B0     		sub	sp, sp, #8
 231 0004 00AF     		add	r7, sp, #0
 232 0006 7860     		str	r0, [r7, #4]
 233 0008 7868     		ldr	r0, [r7, #4]
 234 000a FFF7FEFF 		bl	set_front_led
 235 000e 00BF     		nop
 236 0010 0837     		adds	r7, r7, #8
 237 0012 BD46     		mov	sp, r7
 238              		@ sp needed
 239 0014 80BD     		pop	{r7, pc}
 240              		.size	e_set_front_led, .-e_set_front_led
 241              		.section	.text.e_blink_led,"ax",%progbits
 242              		.align	1
 243              		.global	e_blink_led
 244              		.syntax unified
 245              		.thumb
 246              		.thumb_func
 247              		.fpu fpv4-sp-d16
 248              		.type	e_blink_led, %function
 249              	e_blink_led:
 250              		@ args = 0, pretend = 0, frame = 0
 251              		@ frame_needed = 1, uses_anonymous_args = 0
 252 0000 80B5     		push	{r7, lr}
 253 0002 00AF     		add	r7, sp, #0
 254 0004 0221     		movs	r1, #2
 255 0006 0420     		movs	r0, #4
 256 0008 FFF7FEFF 		bl	set_led
 257 000c 00BF     		nop
 258 000e 80BD     		pop	{r7, pc}
 259              		.size	e_blink_led, .-e_blink_led
 260              		.section	.text.e_blink_led0,"ax",%progbits
 261              		.align	1
 262              		.global	e_blink_led0
 263              		.syntax unified
 264              		.thumb
 265              		.thumb_func
 266              		.fpu fpv4-sp-d16
 267              		.type	e_blink_led0, %function
 268              	e_blink_led0:
 269              		@ args = 0, pretend = 0, frame = 0
 270              		@ frame_needed = 1, uses_anonymous_args = 0
 271 0000 80B5     		push	{r7, lr}
 272 0002 00AF     		add	r7, sp, #0
 273 0004 0221     		movs	r1, #2
 274 0006 0020     		movs	r0, #0
 275 0008 FFF7FEFF 		bl	set_led
 276 000c 00BF     		nop
 277 000e 80BD     		pop	{r7, pc}
 278              		.size	e_blink_led0, .-e_blink_led0
 279              		.section	.text.e_blink_led1,"ax",%progbits
 280              		.align	1
 281              		.global	e_blink_led1
 282              		.syntax unified
 283              		.thumb
 284              		.thumb_func
 285              		.fpu fpv4-sp-d16
ARM GAS  /var/folders/d2/nstgp4h54kz7g1l847x_b8wc0000gn/T//ccMv7zho.s 			page 6


 286              		.type	e_blink_led1, %function
 287              	e_blink_led1:
 288              		@ args = 0, pretend = 0, frame = 0
 289              		@ frame_needed = 1, uses_anonymous_args = 0
 290              		@ link register save eliminated.
 291 0000 80B4     		push	{r7}
 292 0002 00AF     		add	r7, sp, #0
 293 0004 00BF     		nop
 294 0006 BD46     		mov	sp, r7
 295              		@ sp needed
 296 0008 5DF8047B 		ldr	r7, [sp], #4
 297 000c 7047     		bx	lr
 298              		.size	e_blink_led1, .-e_blink_led1
 299              		.section	.text.e_blink_led2,"ax",%progbits
 300              		.align	1
 301              		.global	e_blink_led2
 302              		.syntax unified
 303              		.thumb
 304              		.thumb_func
 305              		.fpu fpv4-sp-d16
 306              		.type	e_blink_led2, %function
 307              	e_blink_led2:
 308              		@ args = 0, pretend = 0, frame = 0
 309              		@ frame_needed = 1, uses_anonymous_args = 0
 310 0000 80B5     		push	{r7, lr}
 311 0002 00AF     		add	r7, sp, #0
 312 0004 0221     		movs	r1, #2
 313 0006 0120     		movs	r0, #1
 314 0008 FFF7FEFF 		bl	set_led
 315 000c 00BF     		nop
 316 000e 80BD     		pop	{r7, pc}
 317              		.size	e_blink_led2, .-e_blink_led2
 318              		.section	.text.e_blink_led3,"ax",%progbits
 319              		.align	1
 320              		.global	e_blink_led3
 321              		.syntax unified
 322              		.thumb
 323              		.thumb_func
 324              		.fpu fpv4-sp-d16
 325              		.type	e_blink_led3, %function
 326              	e_blink_led3:
 327              		@ args = 0, pretend = 0, frame = 0
 328              		@ frame_needed = 1, uses_anonymous_args = 0
 329              		@ link register save eliminated.
 330 0000 80B4     		push	{r7}
 331 0002 00AF     		add	r7, sp, #0
 332 0004 00BF     		nop
 333 0006 BD46     		mov	sp, r7
 334              		@ sp needed
 335 0008 5DF8047B 		ldr	r7, [sp], #4
 336 000c 7047     		bx	lr
 337              		.size	e_blink_led3, .-e_blink_led3
 338              		.section	.text.e_blink_led4,"ax",%progbits
 339              		.align	1
 340              		.global	e_blink_led4
 341              		.syntax unified
 342              		.thumb
ARM GAS  /var/folders/d2/nstgp4h54kz7g1l847x_b8wc0000gn/T//ccMv7zho.s 			page 7


 343              		.thumb_func
 344              		.fpu fpv4-sp-d16
 345              		.type	e_blink_led4, %function
 346              	e_blink_led4:
 347              		@ args = 0, pretend = 0, frame = 0
 348              		@ frame_needed = 1, uses_anonymous_args = 0
 349 0000 80B5     		push	{r7, lr}
 350 0002 00AF     		add	r7, sp, #0
 351 0004 0221     		movs	r1, #2
 352 0006 0220     		movs	r0, #2
 353 0008 FFF7FEFF 		bl	set_led
 354 000c 00BF     		nop
 355 000e 80BD     		pop	{r7, pc}
 356              		.size	e_blink_led4, .-e_blink_led4
 357              		.section	.text.e_blink_led5,"ax",%progbits
 358              		.align	1
 359              		.global	e_blink_led5
 360              		.syntax unified
 361              		.thumb
 362              		.thumb_func
 363              		.fpu fpv4-sp-d16
 364              		.type	e_blink_led5, %function
 365              	e_blink_led5:
 366              		@ args = 0, pretend = 0, frame = 0
 367              		@ frame_needed = 1, uses_anonymous_args = 0
 368              		@ link register save eliminated.
 369 0000 80B4     		push	{r7}
 370 0002 00AF     		add	r7, sp, #0
 371 0004 00BF     		nop
 372 0006 BD46     		mov	sp, r7
 373              		@ sp needed
 374 0008 5DF8047B 		ldr	r7, [sp], #4
 375 000c 7047     		bx	lr
 376              		.size	e_blink_led5, .-e_blink_led5
 377              		.section	.text.e_blink_led6,"ax",%progbits
 378              		.align	1
 379              		.global	e_blink_led6
 380              		.syntax unified
 381              		.thumb
 382              		.thumb_func
 383              		.fpu fpv4-sp-d16
 384              		.type	e_blink_led6, %function
 385              	e_blink_led6:
 386              		@ args = 0, pretend = 0, frame = 0
 387              		@ frame_needed = 1, uses_anonymous_args = 0
 388 0000 80B5     		push	{r7, lr}
 389 0002 00AF     		add	r7, sp, #0
 390 0004 0221     		movs	r1, #2
 391 0006 0320     		movs	r0, #3
 392 0008 FFF7FEFF 		bl	set_led
 393 000c 00BF     		nop
 394 000e 80BD     		pop	{r7, pc}
 395              		.size	e_blink_led6, .-e_blink_led6
 396              		.section	.text.e_blink_led7,"ax",%progbits
 397              		.align	1
 398              		.global	e_blink_led7
 399              		.syntax unified
ARM GAS  /var/folders/d2/nstgp4h54kz7g1l847x_b8wc0000gn/T//ccMv7zho.s 			page 8


 400              		.thumb
 401              		.thumb_func
 402              		.fpu fpv4-sp-d16
 403              		.type	e_blink_led7, %function
 404              	e_blink_led7:
 405              		@ args = 0, pretend = 0, frame = 0
 406              		@ frame_needed = 1, uses_anonymous_args = 0
 407              		@ link register save eliminated.
 408 0000 80B4     		push	{r7}
 409 0002 00AF     		add	r7, sp, #0
 410 0004 00BF     		nop
 411 0006 BD46     		mov	sp, r7
 412              		@ sp needed
 413 0008 5DF8047B 		ldr	r7, [sp], #4
 414 000c 7047     		bx	lr
 415              		.size	e_blink_led7, .-e_blink_led7
 416              		.section	.text.e_start_led_blinking,"ax",%progbits
 417              		.align	1
 418              		.global	e_start_led_blinking
 419              		.syntax unified
 420              		.thumb
 421              		.thumb_func
 422              		.fpu fpv4-sp-d16
 423              		.type	e_start_led_blinking, %function
 424              	e_start_led_blinking:
 425              		@ args = 0, pretend = 0, frame = 8
 426              		@ frame_needed = 1, uses_anonymous_args = 0
 427              		@ link register save eliminated.
 428 0000 80B4     		push	{r7}
 429 0002 83B0     		sub	sp, sp, #12
 430 0004 00AF     		add	r7, sp, #0
 431 0006 7860     		str	r0, [r7, #4]
 432 0008 00BF     		nop
 433 000a 0C37     		adds	r7, r7, #12
 434 000c BD46     		mov	sp, r7
 435              		@ sp needed
 436 000e 5DF8047B 		ldr	r7, [sp], #4
 437 0012 7047     		bx	lr
 438              		.size	e_start_led_blinking, .-e_start_led_blinking
 439              		.section	.text.e_stop_led_blinking,"ax",%progbits
 440              		.align	1
 441              		.global	e_stop_led_blinking
 442              		.syntax unified
 443              		.thumb
 444              		.thumb_func
 445              		.fpu fpv4-sp-d16
 446              		.type	e_stop_led_blinking, %function
 447              	e_stop_led_blinking:
 448              		@ args = 0, pretend = 0, frame = 0
 449              		@ frame_needed = 1, uses_anonymous_args = 0
 450              		@ link register save eliminated.
 451 0000 80B4     		push	{r7}
 452 0002 00AF     		add	r7, sp, #0
 453 0004 00BF     		nop
 454 0006 BD46     		mov	sp, r7
 455              		@ sp needed
 456 0008 5DF8047B 		ldr	r7, [sp], #4
ARM GAS  /var/folders/d2/nstgp4h54kz7g1l847x_b8wc0000gn/T//ccMv7zho.s 			page 9


 457 000c 7047     		bx	lr
 458              		.size	e_stop_led_blinking, .-e_stop_led_blinking
 459              		.section	.text.e_set_blinking_cycle,"ax",%progbits
 460              		.align	1
 461              		.global	e_set_blinking_cycle
 462              		.syntax unified
 463              		.thumb
 464              		.thumb_func
 465              		.fpu fpv4-sp-d16
 466              		.type	e_set_blinking_cycle, %function
 467              	e_set_blinking_cycle:
 468              		@ args = 0, pretend = 0, frame = 8
 469              		@ frame_needed = 1, uses_anonymous_args = 0
 470              		@ link register save eliminated.
 471 0000 80B4     		push	{r7}
 472 0002 83B0     		sub	sp, sp, #12
 473 0004 00AF     		add	r7, sp, #0
 474 0006 7860     		str	r0, [r7, #4]
 475 0008 00BF     		nop
 476 000a 0C37     		adds	r7, r7, #12
 477 000c BD46     		mov	sp, r7
 478              		@ sp needed
 479 000e 5DF8047B 		ldr	r7, [sp], #4
 480 0012 7047     		bx	lr
 481              		.size	e_set_blinking_cycle, .-e_set_blinking_cycle
 482              		.section	.text.snake_led,"ax",%progbits
 483              		.align	1
 484              		.global	snake_led
 485              		.syntax unified
 486              		.thumb
 487              		.thumb_func
 488              		.fpu fpv4-sp-d16
 489              		.type	snake_led, %function
 490              	snake_led:
 491              		@ args = 0, pretend = 0, frame = 0
 492              		@ frame_needed = 1, uses_anonymous_args = 0
 493 0000 80B5     		push	{r7, lr}
 494 0002 00AF     		add	r7, sp, #0
 495 0004 1F4B     		ldr	r3, .L43
 496 0006 1B78     		ldrb	r3, [r3]	@ zero_extendqisi2
 497 0008 002B     		cmp	r3, #0
 498 000a 10D1     		bne	.L39
 499 000c 0021     		movs	r1, #0
 500 000e 0720     		movs	r0, #7
 501 0010 FFF7FEFF 		bl	e_set_led
 502 0014 1B4B     		ldr	r3, .L43
 503 0016 1B78     		ldrb	r3, [r3]	@ zero_extendqisi2
 504 0018 0121     		movs	r1, #1
 505 001a 1846     		mov	r0, r3
 506 001c FFF7FEFF 		bl	e_set_led
 507 0020 184B     		ldr	r3, .L43
 508 0022 1B78     		ldrb	r3, [r3]	@ zero_extendqisi2
 509 0024 0133     		adds	r3, r3, #1
 510 0026 DAB2     		uxtb	r2, r3
 511 0028 164B     		ldr	r3, .L43
 512 002a 1A70     		strb	r2, [r3]
 513 002c 27E0     		b	.L42
ARM GAS  /var/folders/d2/nstgp4h54kz7g1l847x_b8wc0000gn/T//ccMv7zho.s 			page 10


 514              	.L39:
 515 002e 154B     		ldr	r3, .L43
 516 0030 1B78     		ldrb	r3, [r3]	@ zero_extendqisi2
 517 0032 072B     		cmp	r3, #7
 518 0034 10D1     		bne	.L41
 519 0036 134B     		ldr	r3, .L43
 520 0038 1B78     		ldrb	r3, [r3]	@ zero_extendqisi2
 521 003a 013B     		subs	r3, r3, #1
 522 003c 0021     		movs	r1, #0
 523 003e 1846     		mov	r0, r3
 524 0040 FFF7FEFF 		bl	e_set_led
 525 0044 0F4B     		ldr	r3, .L43
 526 0046 1B78     		ldrb	r3, [r3]	@ zero_extendqisi2
 527 0048 0121     		movs	r1, #1
 528 004a 1846     		mov	r0, r3
 529 004c FFF7FEFF 		bl	e_set_led
 530 0050 0C4B     		ldr	r3, .L43
 531 0052 0022     		movs	r2, #0
 532 0054 1A70     		strb	r2, [r3]
 533 0056 12E0     		b	.L42
 534              	.L41:
 535 0058 0A4B     		ldr	r3, .L43
 536 005a 1B78     		ldrb	r3, [r3]	@ zero_extendqisi2
 537 005c 013B     		subs	r3, r3, #1
 538 005e 0021     		movs	r1, #0
 539 0060 1846     		mov	r0, r3
 540 0062 FFF7FEFF 		bl	e_set_led
 541 0066 074B     		ldr	r3, .L43
 542 0068 1B78     		ldrb	r3, [r3]	@ zero_extendqisi2
 543 006a 0121     		movs	r1, #1
 544 006c 1846     		mov	r0, r3
 545 006e FFF7FEFF 		bl	e_set_led
 546 0072 044B     		ldr	r3, .L43
 547 0074 1B78     		ldrb	r3, [r3]	@ zero_extendqisi2
 548 0076 0133     		adds	r3, r3, #1
 549 0078 DAB2     		uxtb	r2, r3
 550 007a 024B     		ldr	r3, .L43
 551 007c 1A70     		strb	r2, [r3]
 552              	.L42:
 553 007e 00BF     		nop
 554 0080 80BD     		pop	{r7, pc}
 555              	.L44:
 556 0082 00BF     		.align	2
 557              	.L43:
 558 0084 00000000 		.word	no_led.9985
 559              		.size	snake_led, .-snake_led
 560              		.section	.text.flow_led,"ax",%progbits
 561              		.align	1
 562              		.global	flow_led
 563              		.syntax unified
 564              		.thumb
 565              		.thumb_func
 566              		.fpu fpv4-sp-d16
 567              		.type	flow_led, %function
 568              	flow_led:
 569              		@ args = 0, pretend = 0, frame = 0
 570              		@ frame_needed = 1, uses_anonymous_args = 0
ARM GAS  /var/folders/d2/nstgp4h54kz7g1l847x_b8wc0000gn/T//ccMv7zho.s 			page 11


 571 0000 80B5     		push	{r7, lr}
 572 0002 00AF     		add	r7, sp, #0
 573 0004 234B     		ldr	r3, .L56
 574 0006 1B78     		ldrb	r3, [r3]	@ zero_extendqisi2
 575 0008 042B     		cmp	r3, #4
 576 000a 32D8     		bhi	.L46
 577 000c 01A2     		adr	r2, .L48
 578 000e 52F823F0 		ldr	pc, [r2, r3, lsl #2]
 579 0012 00BF     		.p2align 2
 580              	.L48:
 581 0014 29000000 		.word	.L47+1
 582 0018 33000000 		.word	.L49+1
 583 001c 45000000 		.word	.L50+1
 584 0020 57000000 		.word	.L51+1
 585 0024 69000000 		.word	.L52+1
 586              		.p2align 1
 587              	.L47:
 588 0028 0221     		movs	r1, #2
 589 002a 0020     		movs	r0, #0
 590 002c FFF7FEFF 		bl	e_set_led
 591 0030 1FE0     		b	.L46
 592              	.L49:
 593 0032 0221     		movs	r1, #2
 594 0034 0120     		movs	r0, #1
 595 0036 FFF7FEFF 		bl	e_set_led
 596 003a 0221     		movs	r1, #2
 597 003c 0720     		movs	r0, #7
 598 003e FFF7FEFF 		bl	e_set_led
 599 0042 16E0     		b	.L46
 600              	.L50:
 601 0044 0221     		movs	r1, #2
 602 0046 0220     		movs	r0, #2
 603 0048 FFF7FEFF 		bl	e_set_led
 604 004c 0221     		movs	r1, #2
 605 004e 0620     		movs	r0, #6
 606 0050 FFF7FEFF 		bl	e_set_led
 607 0054 0DE0     		b	.L46
 608              	.L51:
 609 0056 0221     		movs	r1, #2
 610 0058 0320     		movs	r0, #3
 611 005a FFF7FEFF 		bl	e_set_led
 612 005e 0221     		movs	r1, #2
 613 0060 0520     		movs	r0, #5
 614 0062 FFF7FEFF 		bl	e_set_led
 615 0066 04E0     		b	.L46
 616              	.L52:
 617 0068 0221     		movs	r1, #2
 618 006a 0420     		movs	r0, #4
 619 006c FFF7FEFF 		bl	e_set_led
 620 0070 00BF     		nop
 621              	.L46:
 622 0072 084B     		ldr	r3, .L56
 623 0074 1B78     		ldrb	r3, [r3]	@ zero_extendqisi2
 624 0076 032B     		cmp	r3, #3
 625 0078 06D8     		bhi	.L53
 626 007a 064B     		ldr	r3, .L56
 627 007c 1B78     		ldrb	r3, [r3]	@ zero_extendqisi2
ARM GAS  /var/folders/d2/nstgp4h54kz7g1l847x_b8wc0000gn/T//ccMv7zho.s 			page 12


 628 007e 0133     		adds	r3, r3, #1
 629 0080 DAB2     		uxtb	r2, r3
 630 0082 044B     		ldr	r3, .L56
 631 0084 1A70     		strb	r2, [r3]
 632 0086 02E0     		b	.L55
 633              	.L53:
 634 0088 024B     		ldr	r3, .L56
 635 008a 0022     		movs	r2, #0
 636 008c 1A70     		strb	r2, [r3]
 637              	.L55:
 638 008e 00BF     		nop
 639 0090 80BD     		pop	{r7, pc}
 640              	.L57:
 641 0092 00BF     		.align	2
 642              	.L56:
 643 0094 00000000 		.word	no_led.9989
 644              		.size	flow_led, .-flow_led
 645              		.section	.text.k2000_led,"ax",%progbits
 646              		.align	1
 647              		.global	k2000_led
 648              		.syntax unified
 649              		.thumb
 650              		.thumb_func
 651              		.fpu fpv4-sp-d16
 652              		.type	k2000_led, %function
 653              	k2000_led:
 654              		@ args = 0, pretend = 0, frame = 0
 655              		@ frame_needed = 1, uses_anonymous_args = 0
 656 0000 80B5     		push	{r7, lr}
 657 0002 00AF     		add	r7, sp, #0
 658 0004 2B4B     		ldr	r3, .L64
 659 0006 1B78     		ldrb	r3, [r3]	@ zero_extendqisi2
 660 0008 002B     		cmp	r3, #0
 661 000a 14D1     		bne	.L59
 662 000c 2A4B     		ldr	r3, .L64+4
 663 000e 1B78     		ldrb	r3, [r3]	@ zero_extendqisi2
 664 0010 002B     		cmp	r3, #0
 665 0012 10D0     		beq	.L59
 666 0014 274B     		ldr	r3, .L64
 667 0016 0122     		movs	r2, #1
 668 0018 1A70     		strb	r2, [r3]
 669 001a 0021     		movs	r1, #0
 670 001c 0020     		movs	r0, #0
 671 001e FFF7FEFF 		bl	e_set_led
 672 0022 244B     		ldr	r3, .L64
 673 0024 1B78     		ldrb	r3, [r3]	@ zero_extendqisi2
 674 0026 0121     		movs	r1, #1
 675 0028 1846     		mov	r0, r3
 676 002a FFF7FEFF 		bl	e_set_led
 677 002e 224B     		ldr	r3, .L64+4
 678 0030 0022     		movs	r2, #0
 679 0032 1A70     		strb	r2, [r3]
 680 0034 3CE0     		b	.L60
 681              	.L59:
 682 0036 1F4B     		ldr	r3, .L64
 683 0038 1B78     		ldrb	r3, [r3]	@ zero_extendqisi2
 684 003a 002B     		cmp	r3, #0
ARM GAS  /var/folders/d2/nstgp4h54kz7g1l847x_b8wc0000gn/T//ccMv7zho.s 			page 13


 685 003c 14D1     		bne	.L61
 686 003e 1E4B     		ldr	r3, .L64+4
 687 0040 1B78     		ldrb	r3, [r3]	@ zero_extendqisi2
 688 0042 002B     		cmp	r3, #0
 689 0044 10D1     		bne	.L61
 690 0046 1B4B     		ldr	r3, .L64
 691 0048 0722     		movs	r2, #7
 692 004a 1A70     		strb	r2, [r3]
 693 004c 0021     		movs	r1, #0
 694 004e 0020     		movs	r0, #0
 695 0050 FFF7FEFF 		bl	e_set_led
 696 0054 174B     		ldr	r3, .L64
 697 0056 1B78     		ldrb	r3, [r3]	@ zero_extendqisi2
 698 0058 0121     		movs	r1, #1
 699 005a 1846     		mov	r0, r3
 700 005c FFF7FEFF 		bl	e_set_led
 701 0060 154B     		ldr	r3, .L64+4
 702 0062 0122     		movs	r2, #1
 703 0064 1A70     		strb	r2, [r3]
 704 0066 23E0     		b	.L60
 705              	.L61:
 706 0068 124B     		ldr	r3, .L64
 707 006a 1B78     		ldrb	r3, [r3]	@ zero_extendqisi2
 708 006c 072B     		cmp	r3, #7
 709 006e 0DD1     		bne	.L62
 710 0070 104B     		ldr	r3, .L64
 711 0072 0022     		movs	r2, #0
 712 0074 1A70     		strb	r2, [r3]
 713 0076 0021     		movs	r1, #0
 714 0078 0720     		movs	r0, #7
 715 007a FFF7FEFF 		bl	e_set_led
 716 007e 0D4B     		ldr	r3, .L64
 717 0080 1B78     		ldrb	r3, [r3]	@ zero_extendqisi2
 718 0082 0121     		movs	r1, #1
 719 0084 1846     		mov	r0, r3
 720 0086 FFF7FEFF 		bl	e_set_led
 721 008a 11E0     		b	.L63
 722              	.L62:
 723 008c 094B     		ldr	r3, .L64
 724 008e 1B78     		ldrb	r3, [r3]	@ zero_extendqisi2
 725 0090 012B     		cmp	r3, #1
 726 0092 0DD1     		bne	.L63
 727 0094 074B     		ldr	r3, .L64
 728 0096 0022     		movs	r2, #0
 729 0098 1A70     		strb	r2, [r3]
 730 009a 0021     		movs	r1, #0
 731 009c 0120     		movs	r0, #1
 732 009e FFF7FEFF 		bl	e_set_led
 733 00a2 044B     		ldr	r3, .L64
 734 00a4 1B78     		ldrb	r3, [r3]	@ zero_extendqisi2
 735 00a6 0121     		movs	r1, #1
 736 00a8 1846     		mov	r0, r3
 737 00aa FFF7FEFF 		bl	e_set_led
 738 00ae FFE7     		b	.L63
 739              	.L60:
 740              	.L63:
 741 00b0 00BF     		nop
ARM GAS  /var/folders/d2/nstgp4h54kz7g1l847x_b8wc0000gn/T//ccMv7zho.s 			page 14


 742 00b2 80BD     		pop	{r7, pc}
 743              	.L65:
 744              		.align	2
 745              	.L64:
 746 00b4 00000000 		.word	no_led.9999
 747 00b8 00000000 		.word	right.10000
 748              		.size	k2000_led, .-k2000_led
 749              		.section	.text.right_led,"ax",%progbits
 750              		.align	1
 751              		.global	right_led
 752              		.syntax unified
 753              		.thumb
 754              		.thumb_func
 755              		.fpu fpv4-sp-d16
 756              		.type	right_led, %function
 757              	right_led:
 758              		@ args = 0, pretend = 0, frame = 0
 759              		@ frame_needed = 1, uses_anonymous_args = 0
 760 0000 80B5     		push	{r7, lr}
 761 0002 00AF     		add	r7, sp, #0
 762 0004 1C4B     		ldr	r3, .L76
 763 0006 1B78     		ldrb	r3, [r3]	@ zero_extendqisi2
 764 0008 032B     		cmp	r3, #3
 765 000a 24D8     		bhi	.L67
 766 000c 01A2     		adr	r2, .L69
 767 000e 52F823F0 		ldr	pc, [r2, r3, lsl #2]
 768 0012 00BF     		.p2align 2
 769              	.L69:
 770 0014 25000000 		.word	.L68+1
 771 0018 37000000 		.word	.L70+1
 772 001c 49000000 		.word	.L71+1
 773 0020 53000000 		.word	.L72+1
 774              		.p2align 1
 775              	.L68:
 776 0024 0221     		movs	r1, #2
 777 0026 0020     		movs	r0, #0
 778 0028 FFF7FEFF 		bl	e_set_led
 779 002c 0221     		movs	r1, #2
 780 002e 0420     		movs	r0, #4
 781 0030 FFF7FEFF 		bl	e_set_led
 782 0034 0FE0     		b	.L67
 783              	.L70:
 784 0036 0221     		movs	r1, #2
 785 0038 0120     		movs	r0, #1
 786 003a FFF7FEFF 		bl	e_set_led
 787 003e 0221     		movs	r1, #2
 788 0040 0320     		movs	r0, #3
 789 0042 FFF7FEFF 		bl	e_set_led
 790 0046 06E0     		b	.L67
 791              	.L71:
 792 0048 0221     		movs	r1, #2
 793 004a 0220     		movs	r0, #2
 794 004c FFF7FEFF 		bl	e_set_led
 795 0050 01E0     		b	.L67
 796              	.L72:
 797 0052 FFF7FEFF 		bl	e_led_clear
 798              	.L67:
ARM GAS  /var/folders/d2/nstgp4h54kz7g1l847x_b8wc0000gn/T//ccMv7zho.s 			page 15


 799 0056 084B     		ldr	r3, .L76
 800 0058 1B78     		ldrb	r3, [r3]	@ zero_extendqisi2
 801 005a 022B     		cmp	r3, #2
 802 005c 06D8     		bhi	.L73
 803 005e 064B     		ldr	r3, .L76
 804 0060 1B78     		ldrb	r3, [r3]	@ zero_extendqisi2
 805 0062 0133     		adds	r3, r3, #1
 806 0064 DAB2     		uxtb	r2, r3
 807 0066 044B     		ldr	r3, .L76
 808 0068 1A70     		strb	r2, [r3]
 809 006a 02E0     		b	.L75
 810              	.L73:
 811 006c 024B     		ldr	r3, .L76
 812 006e 0022     		movs	r2, #0
 813 0070 1A70     		strb	r2, [r3]
 814              	.L75:
 815 0072 00BF     		nop
 816 0074 80BD     		pop	{r7, pc}
 817              	.L77:
 818 0076 00BF     		.align	2
 819              	.L76:
 820 0078 00000000 		.word	no_led.10004
 821              		.size	right_led, .-right_led
 822              		.section	.text.left_led,"ax",%progbits
 823              		.align	1
 824              		.global	left_led
 825              		.syntax unified
 826              		.thumb
 827              		.thumb_func
 828              		.fpu fpv4-sp-d16
 829              		.type	left_led, %function
 830              	left_led:
 831              		@ args = 0, pretend = 0, frame = 0
 832              		@ frame_needed = 1, uses_anonymous_args = 0
 833 0000 80B5     		push	{r7, lr}
 834 0002 00AF     		add	r7, sp, #0
 835 0004 1C4B     		ldr	r3, .L88
 836 0006 1B78     		ldrb	r3, [r3]	@ zero_extendqisi2
 837 0008 032B     		cmp	r3, #3
 838 000a 24D8     		bhi	.L79
 839 000c 01A2     		adr	r2, .L81
 840 000e 52F823F0 		ldr	pc, [r2, r3, lsl #2]
 841 0012 00BF     		.p2align 2
 842              	.L81:
 843 0014 25000000 		.word	.L80+1
 844 0018 37000000 		.word	.L82+1
 845 001c 49000000 		.word	.L83+1
 846 0020 53000000 		.word	.L84+1
 847              		.p2align 1
 848              	.L80:
 849 0024 0221     		movs	r1, #2
 850 0026 0020     		movs	r0, #0
 851 0028 FFF7FEFF 		bl	e_set_led
 852 002c 0221     		movs	r1, #2
 853 002e 0420     		movs	r0, #4
 854 0030 FFF7FEFF 		bl	e_set_led
 855 0034 0FE0     		b	.L79
ARM GAS  /var/folders/d2/nstgp4h54kz7g1l847x_b8wc0000gn/T//ccMv7zho.s 			page 16


 856              	.L82:
 857 0036 0221     		movs	r1, #2
 858 0038 0720     		movs	r0, #7
 859 003a FFF7FEFF 		bl	e_set_led
 860 003e 0221     		movs	r1, #2
 861 0040 0520     		movs	r0, #5
 862 0042 FFF7FEFF 		bl	e_set_led
 863 0046 06E0     		b	.L79
 864              	.L83:
 865 0048 0221     		movs	r1, #2
 866 004a 0620     		movs	r0, #6
 867 004c FFF7FEFF 		bl	e_set_led
 868 0050 01E0     		b	.L79
 869              	.L84:
 870 0052 FFF7FEFF 		bl	e_led_clear
 871              	.L79:
 872 0056 084B     		ldr	r3, .L88
 873 0058 1B78     		ldrb	r3, [r3]	@ zero_extendqisi2
 874 005a 022B     		cmp	r3, #2
 875 005c 06D8     		bhi	.L85
 876 005e 064B     		ldr	r3, .L88
 877 0060 1B78     		ldrb	r3, [r3]	@ zero_extendqisi2
 878 0062 0133     		adds	r3, r3, #1
 879 0064 DAB2     		uxtb	r2, r3
 880 0066 044B     		ldr	r3, .L88
 881 0068 1A70     		strb	r2, [r3]
 882 006a 02E0     		b	.L87
 883              	.L85:
 884 006c 024B     		ldr	r3, .L88
 885 006e 0022     		movs	r2, #0
 886 0070 1A70     		strb	r2, [r3]
 887              	.L87:
 888 0072 00BF     		nop
 889 0074 80BD     		pop	{r7, pc}
 890              	.L89:
 891 0076 00BF     		.align	2
 892              	.L88:
 893 0078 00000000 		.word	no_led.10013
 894              		.size	left_led, .-left_led
 895              		.section	.bss.no_led.9985,"aw",%nobits
 896              		.type	no_led.9985, %object
 897              		.size	no_led.9985, 1
 898              	no_led.9985:
 899 0000 00       		.space	1
 900              		.section	.bss.no_led.9989,"aw",%nobits
 901              		.type	no_led.9989, %object
 902              		.size	no_led.9989, 1
 903              	no_led.9989:
 904 0000 00       		.space	1
 905              		.section	.bss.no_led.9999,"aw",%nobits
 906              		.type	no_led.9999, %object
 907              		.size	no_led.9999, 1
 908              	no_led.9999:
 909 0000 00       		.space	1
 910              		.section	.data.right.10000,"aw",%progbits
 911              		.type	right.10000, %object
 912              		.size	right.10000, 1
ARM GAS  /var/folders/d2/nstgp4h54kz7g1l847x_b8wc0000gn/T//ccMv7zho.s 			page 17


 913              	right.10000:
 914 0000 01       		.byte	1
 915              		.section	.bss.no_led.10004,"aw",%nobits
 916              		.type	no_led.10004, %object
 917              		.size	no_led.10004, 1
 918              	no_led.10004:
 919 0000 00       		.space	1
 920              		.section	.bss.no_led.10013,"aw",%nobits
 921              		.type	no_led.10013, %object
 922              		.size	no_led.10013, 1
 923              	no_led.10013:
 924 0000 00       		.space	1
 925              		.ident	"GCC: (GNU Tools for Arm Embedded Processors 7-2017-q4-major) 7.2.1 20170904 (release) [ARM
ARM GAS  /var/folders/d2/nstgp4h54kz7g1l847x_b8wc0000gn/T//ccMv7zho.s 			page 18


DEFINED SYMBOLS
                            *ABS*:0000000000000000 e_led.c
/var/folders/d2/nstgp4h54kz7g1l847x_b8wc0000gn/T//ccMv7zho.s:15     .text.e_set_led:0000000000000000 $t
/var/folders/d2/nstgp4h54kz7g1l847x_b8wc0000gn/T//ccMv7zho.s:22     .text.e_set_led:0000000000000000 e_set_led
/var/folders/d2/nstgp4h54kz7g1l847x_b8wc0000gn/T//ccMv7zho.s:37     .text.e_set_led:0000000000000018 $d
/var/folders/d2/nstgp4h54kz7g1l847x_b8wc0000gn/T//ccMv7zho.s:45     .text.e_set_led:0000000000000038 $t
/var/folders/d2/nstgp4h54kz7g1l847x_b8wc0000gn/T//ccMv7zho.s:179    .text.e_led_clear:0000000000000000 $t
/var/folders/d2/nstgp4h54kz7g1l847x_b8wc0000gn/T//ccMv7zho.s:186    .text.e_led_clear:0000000000000000 e_led_clear
/var/folders/d2/nstgp4h54kz7g1l847x_b8wc0000gn/T//ccMv7zho.s:196    .text.e_set_body_led:0000000000000000 $t
/var/folders/d2/nstgp4h54kz7g1l847x_b8wc0000gn/T//ccMv7zho.s:203    .text.e_set_body_led:0000000000000000 e_set_body_led
/var/folders/d2/nstgp4h54kz7g1l847x_b8wc0000gn/T//ccMv7zho.s:219    .text.e_set_front_led:0000000000000000 $t
/var/folders/d2/nstgp4h54kz7g1l847x_b8wc0000gn/T//ccMv7zho.s:226    .text.e_set_front_led:0000000000000000 e_set_front_led
/var/folders/d2/nstgp4h54kz7g1l847x_b8wc0000gn/T//ccMv7zho.s:242    .text.e_blink_led:0000000000000000 $t
/var/folders/d2/nstgp4h54kz7g1l847x_b8wc0000gn/T//ccMv7zho.s:249    .text.e_blink_led:0000000000000000 e_blink_led
/var/folders/d2/nstgp4h54kz7g1l847x_b8wc0000gn/T//ccMv7zho.s:261    .text.e_blink_led0:0000000000000000 $t
/var/folders/d2/nstgp4h54kz7g1l847x_b8wc0000gn/T//ccMv7zho.s:268    .text.e_blink_led0:0000000000000000 e_blink_led0
/var/folders/d2/nstgp4h54kz7g1l847x_b8wc0000gn/T//ccMv7zho.s:280    .text.e_blink_led1:0000000000000000 $t
/var/folders/d2/nstgp4h54kz7g1l847x_b8wc0000gn/T//ccMv7zho.s:287    .text.e_blink_led1:0000000000000000 e_blink_led1
/var/folders/d2/nstgp4h54kz7g1l847x_b8wc0000gn/T//ccMv7zho.s:300    .text.e_blink_led2:0000000000000000 $t
/var/folders/d2/nstgp4h54kz7g1l847x_b8wc0000gn/T//ccMv7zho.s:307    .text.e_blink_led2:0000000000000000 e_blink_led2
/var/folders/d2/nstgp4h54kz7g1l847x_b8wc0000gn/T//ccMv7zho.s:319    .text.e_blink_led3:0000000000000000 $t
/var/folders/d2/nstgp4h54kz7g1l847x_b8wc0000gn/T//ccMv7zho.s:326    .text.e_blink_led3:0000000000000000 e_blink_led3
/var/folders/d2/nstgp4h54kz7g1l847x_b8wc0000gn/T//ccMv7zho.s:339    .text.e_blink_led4:0000000000000000 $t
/var/folders/d2/nstgp4h54kz7g1l847x_b8wc0000gn/T//ccMv7zho.s:346    .text.e_blink_led4:0000000000000000 e_blink_led4
/var/folders/d2/nstgp4h54kz7g1l847x_b8wc0000gn/T//ccMv7zho.s:358    .text.e_blink_led5:0000000000000000 $t
/var/folders/d2/nstgp4h54kz7g1l847x_b8wc0000gn/T//ccMv7zho.s:365    .text.e_blink_led5:0000000000000000 e_blink_led5
/var/folders/d2/nstgp4h54kz7g1l847x_b8wc0000gn/T//ccMv7zho.s:378    .text.e_blink_led6:0000000000000000 $t
/var/folders/d2/nstgp4h54kz7g1l847x_b8wc0000gn/T//ccMv7zho.s:385    .text.e_blink_led6:0000000000000000 e_blink_led6
/var/folders/d2/nstgp4h54kz7g1l847x_b8wc0000gn/T//ccMv7zho.s:397    .text.e_blink_led7:0000000000000000 $t
/var/folders/d2/nstgp4h54kz7g1l847x_b8wc0000gn/T//ccMv7zho.s:404    .text.e_blink_led7:0000000000000000 e_blink_led7
/var/folders/d2/nstgp4h54kz7g1l847x_b8wc0000gn/T//ccMv7zho.s:417    .text.e_start_led_blinking:0000000000000000 $t
/var/folders/d2/nstgp4h54kz7g1l847x_b8wc0000gn/T//ccMv7zho.s:424    .text.e_start_led_blinking:0000000000000000 e_start_led_blinking
/var/folders/d2/nstgp4h54kz7g1l847x_b8wc0000gn/T//ccMv7zho.s:440    .text.e_stop_led_blinking:0000000000000000 $t
/var/folders/d2/nstgp4h54kz7g1l847x_b8wc0000gn/T//ccMv7zho.s:447    .text.e_stop_led_blinking:0000000000000000 e_stop_led_blinking
/var/folders/d2/nstgp4h54kz7g1l847x_b8wc0000gn/T//ccMv7zho.s:460    .text.e_set_blinking_cycle:0000000000000000 $t
/var/folders/d2/nstgp4h54kz7g1l847x_b8wc0000gn/T//ccMv7zho.s:467    .text.e_set_blinking_cycle:0000000000000000 e_set_blinking_cycle
/var/folders/d2/nstgp4h54kz7g1l847x_b8wc0000gn/T//ccMv7zho.s:483    .text.snake_led:0000000000000000 $t
/var/folders/d2/nstgp4h54kz7g1l847x_b8wc0000gn/T//ccMv7zho.s:490    .text.snake_led:0000000000000000 snake_led
/var/folders/d2/nstgp4h54kz7g1l847x_b8wc0000gn/T//ccMv7zho.s:558    .text.snake_led:0000000000000084 $d
/var/folders/d2/nstgp4h54kz7g1l847x_b8wc0000gn/T//ccMv7zho.s:898    .bss.no_led.9985:0000000000000000 no_led.9985
/var/folders/d2/nstgp4h54kz7g1l847x_b8wc0000gn/T//ccMv7zho.s:561    .text.flow_led:0000000000000000 $t
/var/folders/d2/nstgp4h54kz7g1l847x_b8wc0000gn/T//ccMv7zho.s:568    .text.flow_led:0000000000000000 flow_led
/var/folders/d2/nstgp4h54kz7g1l847x_b8wc0000gn/T//ccMv7zho.s:581    .text.flow_led:0000000000000014 $d
/var/folders/d2/nstgp4h54kz7g1l847x_b8wc0000gn/T//ccMv7zho.s:586    .text.flow_led:0000000000000028 $t
/var/folders/d2/nstgp4h54kz7g1l847x_b8wc0000gn/T//ccMv7zho.s:643    .text.flow_led:0000000000000094 $d
/var/folders/d2/nstgp4h54kz7g1l847x_b8wc0000gn/T//ccMv7zho.s:903    .bss.no_led.9989:0000000000000000 no_led.9989
/var/folders/d2/nstgp4h54kz7g1l847x_b8wc0000gn/T//ccMv7zho.s:646    .text.k2000_led:0000000000000000 $t
/var/folders/d2/nstgp4h54kz7g1l847x_b8wc0000gn/T//ccMv7zho.s:653    .text.k2000_led:0000000000000000 k2000_led
/var/folders/d2/nstgp4h54kz7g1l847x_b8wc0000gn/T//ccMv7zho.s:746    .text.k2000_led:00000000000000b4 $d
/var/folders/d2/nstgp4h54kz7g1l847x_b8wc0000gn/T//ccMv7zho.s:908    .bss.no_led.9999:0000000000000000 no_led.9999
/var/folders/d2/nstgp4h54kz7g1l847x_b8wc0000gn/T//ccMv7zho.s:913    .data.right.10000:0000000000000000 right.10000
/var/folders/d2/nstgp4h54kz7g1l847x_b8wc0000gn/T//ccMv7zho.s:750    .text.right_led:0000000000000000 $t
/var/folders/d2/nstgp4h54kz7g1l847x_b8wc0000gn/T//ccMv7zho.s:757    .text.right_led:0000000000000000 right_led
/var/folders/d2/nstgp4h54kz7g1l847x_b8wc0000gn/T//ccMv7zho.s:770    .text.right_led:0000000000000014 $d
/var/folders/d2/nstgp4h54kz7g1l847x_b8wc0000gn/T//ccMv7zho.s:774    .text.right_led:0000000000000024 $t
/var/folders/d2/nstgp4h54kz7g1l847x_b8wc0000gn/T//ccMv7zho.s:820    .text.right_led:0000000000000078 $d
/var/folders/d2/nstgp4h54kz7g1l847x_b8wc0000gn/T//ccMv7zho.s:918    .bss.no_led.10004:0000000000000000 no_led.10004
ARM GAS  /var/folders/d2/nstgp4h54kz7g1l847x_b8wc0000gn/T//ccMv7zho.s 			page 19


/var/folders/d2/nstgp4h54kz7g1l847x_b8wc0000gn/T//ccMv7zho.s:823    .text.left_led:0000000000000000 $t
/var/folders/d2/nstgp4h54kz7g1l847x_b8wc0000gn/T//ccMv7zho.s:830    .text.left_led:0000000000000000 left_led
/var/folders/d2/nstgp4h54kz7g1l847x_b8wc0000gn/T//ccMv7zho.s:843    .text.left_led:0000000000000014 $d
/var/folders/d2/nstgp4h54kz7g1l847x_b8wc0000gn/T//ccMv7zho.s:847    .text.left_led:0000000000000024 $t
/var/folders/d2/nstgp4h54kz7g1l847x_b8wc0000gn/T//ccMv7zho.s:893    .text.left_led:0000000000000078 $d
/var/folders/d2/nstgp4h54kz7g1l847x_b8wc0000gn/T//ccMv7zho.s:923    .bss.no_led.10013:0000000000000000 no_led.10013
/var/folders/d2/nstgp4h54kz7g1l847x_b8wc0000gn/T//ccMv7zho.s:899    .bss.no_led.9985:0000000000000000 $d
/var/folders/d2/nstgp4h54kz7g1l847x_b8wc0000gn/T//ccMv7zho.s:904    .bss.no_led.9989:0000000000000000 $d
/var/folders/d2/nstgp4h54kz7g1l847x_b8wc0000gn/T//ccMv7zho.s:909    .bss.no_led.9999:0000000000000000 $d
/var/folders/d2/nstgp4h54kz7g1l847x_b8wc0000gn/T//ccMv7zho.s:919    .bss.no_led.10004:0000000000000000 $d
/var/folders/d2/nstgp4h54kz7g1l847x_b8wc0000gn/T//ccMv7zho.s:924    .bss.no_led.10013:0000000000000000 $d

UNDEFINED SYMBOLS
set_led
toggle_rgb_led
set_rgb_led
clear_leds
set_body_led
set_front_led
