ARM GAS  /var/folders/d2/nstgp4h54kz7g1l847x_b8wc0000gn/T//ccTjtpkn.s 			page 1


   1              		.cpu cortex-m4
   2              		.eabi_attribute 27, 1
   3              		.eabi_attribute 28, 1
   4              		.eabi_attribute 20, 1
   5              		.eabi_attribute 21, 1
   6              		.eabi_attribute 23, 3
   7              		.eabi_attribute 24, 1
   8              		.eabi_attribute 25, 1
   9              		.eabi_attribute 26, 1
  10              		.eabi_attribute 30, 6
  11              		.eabi_attribute 34, 1
  12              		.eabi_attribute 18, 4
  13              		.file	"e_motors.c"
  14              		.section	.text.e_init_motors,"ax",%progbits
  15              		.align	1
  16              		.global	e_init_motors
  17              		.syntax unified
  18              		.thumb
  19              		.thumb_func
  20              		.fpu fpv4-sp-d16
  21              		.type	e_init_motors, %function
  22              	e_init_motors:
  23              		@ args = 0, pretend = 0, frame = 0
  24              		@ frame_needed = 1, uses_anonymous_args = 0
  25              		@ link register save eliminated.
  26 0000 80B4     		push	{r7}
  27 0002 00AF     		add	r7, sp, #0
  28 0004 00BF     		nop
  29 0006 BD46     		mov	sp, r7
  30              		@ sp needed
  31 0008 5DF8047B 		ldr	r7, [sp], #4
  32 000c 7047     		bx	lr
  33              		.size	e_init_motors, .-e_init_motors
  34              		.section	.text.e_set_speed_left,"ax",%progbits
  35              		.align	1
  36              		.global	e_set_speed_left
  37              		.syntax unified
  38              		.thumb
  39              		.thumb_func
  40              		.fpu fpv4-sp-d16
  41              		.type	e_set_speed_left, %function
  42              	e_set_speed_left:
  43              		@ args = 0, pretend = 0, frame = 8
  44              		@ frame_needed = 1, uses_anonymous_args = 0
  45 0000 80B5     		push	{r7, lr}
  46 0002 82B0     		sub	sp, sp, #8
  47 0004 00AF     		add	r7, sp, #0
  48 0006 7860     		str	r0, [r7, #4]
  49 0008 7B68     		ldr	r3, [r7, #4]
  50 000a 1BB2     		sxth	r3, r3
  51 000c 1846     		mov	r0, r3
  52 000e FFF7FEFF 		bl	left_motor_set_speed
  53 0012 00BF     		nop
  54 0014 0837     		adds	r7, r7, #8
  55 0016 BD46     		mov	sp, r7
  56              		@ sp needed
  57 0018 80BD     		pop	{r7, pc}
ARM GAS  /var/folders/d2/nstgp4h54kz7g1l847x_b8wc0000gn/T//ccTjtpkn.s 			page 2


  58              		.size	e_set_speed_left, .-e_set_speed_left
  59              		.section	.text.e_set_speed_right,"ax",%progbits
  60              		.align	1
  61              		.global	e_set_speed_right
  62              		.syntax unified
  63              		.thumb
  64              		.thumb_func
  65              		.fpu fpv4-sp-d16
  66              		.type	e_set_speed_right, %function
  67              	e_set_speed_right:
  68              		@ args = 0, pretend = 0, frame = 8
  69              		@ frame_needed = 1, uses_anonymous_args = 0
  70 0000 80B5     		push	{r7, lr}
  71 0002 82B0     		sub	sp, sp, #8
  72 0004 00AF     		add	r7, sp, #0
  73 0006 7860     		str	r0, [r7, #4]
  74 0008 7B68     		ldr	r3, [r7, #4]
  75 000a 1BB2     		sxth	r3, r3
  76 000c 1846     		mov	r0, r3
  77 000e FFF7FEFF 		bl	right_motor_set_speed
  78 0012 00BF     		nop
  79 0014 0837     		adds	r7, r7, #8
  80 0016 BD46     		mov	sp, r7
  81              		@ sp needed
  82 0018 80BD     		pop	{r7, pc}
  83              		.size	e_set_speed_right, .-e_set_speed_right
  84              		.section	.text.e_set_speed,"ax",%progbits
  85              		.align	1
  86              		.global	e_set_speed
  87              		.syntax unified
  88              		.thumb
  89              		.thumb_func
  90              		.fpu fpv4-sp-d16
  91              		.type	e_set_speed, %function
  92              	e_set_speed:
  93              		@ args = 0, pretend = 0, frame = 8
  94              		@ frame_needed = 1, uses_anonymous_args = 0
  95 0000 80B5     		push	{r7, lr}
  96 0002 82B0     		sub	sp, sp, #8
  97 0004 00AF     		add	r7, sp, #0
  98 0006 7860     		str	r0, [r7, #4]
  99 0008 3960     		str	r1, [r7]
 100 000a 7B68     		ldr	r3, [r7, #4]
 101 000c 83EAE372 		eor	r2, r3, r3, asr #31
 102 0010 A2EBE372 		sub	r2, r2, r3, asr #31
 103 0014 3B68     		ldr	r3, [r7]
 104 0016 002B     		cmp	r3, #0
 105 0018 B8BF     		it	lt
 106 001a 5B42     		rsblt	r3, r3, #0
 107 001c 1344     		add	r3, r3, r2
 108 001e 40F24C42 		movw	r2, #1100
 109 0022 9342     		cmp	r3, r2
 110 0024 0CDC     		bgt	.L8
 111 0026 7A68     		ldr	r2, [r7, #4]
 112 0028 3B68     		ldr	r3, [r7]
 113 002a D31A     		subs	r3, r2, r3
 114 002c 1846     		mov	r0, r3
ARM GAS  /var/folders/d2/nstgp4h54kz7g1l847x_b8wc0000gn/T//ccTjtpkn.s 			page 3


 115 002e FFF7FEFF 		bl	left_motor_set_speed
 116 0032 7A68     		ldr	r2, [r7, #4]
 117 0034 3B68     		ldr	r3, [r7]
 118 0036 1344     		add	r3, r3, r2
 119 0038 1846     		mov	r0, r3
 120 003a FFF7FEFF 		bl	right_motor_set_speed
 121 003e 00E0     		b	.L5
 122              	.L8:
 123 0040 00BF     		nop
 124              	.L5:
 125 0042 0837     		adds	r7, r7, #8
 126 0044 BD46     		mov	sp, r7
 127              		@ sp needed
 128 0046 80BD     		pop	{r7, pc}
 129              		.size	e_set_speed, .-e_set_speed
 130              		.section	.text.e_get_steps_left,"ax",%progbits
 131              		.align	1
 132              		.global	e_get_steps_left
 133              		.syntax unified
 134              		.thumb
 135              		.thumb_func
 136              		.fpu fpv4-sp-d16
 137              		.type	e_get_steps_left, %function
 138              	e_get_steps_left:
 139              		@ args = 0, pretend = 0, frame = 0
 140              		@ frame_needed = 1, uses_anonymous_args = 0
 141 0000 80B5     		push	{r7, lr}
 142 0002 00AF     		add	r7, sp, #0
 143 0004 FFF7FEFF 		bl	left_motor_get_pos
 144 0008 0346     		mov	r3, r0
 145 000a 1846     		mov	r0, r3
 146 000c 80BD     		pop	{r7, pc}
 147              		.size	e_get_steps_left, .-e_get_steps_left
 148              		.section	.text.e_set_steps_left,"ax",%progbits
 149              		.align	1
 150              		.global	e_set_steps_left
 151              		.syntax unified
 152              		.thumb
 153              		.thumb_func
 154              		.fpu fpv4-sp-d16
 155              		.type	e_set_steps_left, %function
 156              	e_set_steps_left:
 157              		@ args = 0, pretend = 0, frame = 8
 158              		@ frame_needed = 1, uses_anonymous_args = 0
 159 0000 80B5     		push	{r7, lr}
 160 0002 82B0     		sub	sp, sp, #8
 161 0004 00AF     		add	r7, sp, #0
 162 0006 7860     		str	r0, [r7, #4]
 163 0008 7868     		ldr	r0, [r7, #4]
 164 000a FFF7FEFF 		bl	left_motor_set_pos
 165 000e 00BF     		nop
 166 0010 0837     		adds	r7, r7, #8
 167 0012 BD46     		mov	sp, r7
 168              		@ sp needed
 169 0014 80BD     		pop	{r7, pc}
 170              		.size	e_set_steps_left, .-e_set_steps_left
 171              		.section	.text.e_get_steps_right,"ax",%progbits
ARM GAS  /var/folders/d2/nstgp4h54kz7g1l847x_b8wc0000gn/T//ccTjtpkn.s 			page 4


 172              		.align	1
 173              		.global	e_get_steps_right
 174              		.syntax unified
 175              		.thumb
 176              		.thumb_func
 177              		.fpu fpv4-sp-d16
 178              		.type	e_get_steps_right, %function
 179              	e_get_steps_right:
 180              		@ args = 0, pretend = 0, frame = 0
 181              		@ frame_needed = 1, uses_anonymous_args = 0
 182 0000 80B5     		push	{r7, lr}
 183 0002 00AF     		add	r7, sp, #0
 184 0004 FFF7FEFF 		bl	right_motor_get_pos
 185 0008 0346     		mov	r3, r0
 186 000a 1846     		mov	r0, r3
 187 000c 80BD     		pop	{r7, pc}
 188              		.size	e_get_steps_right, .-e_get_steps_right
 189              		.section	.text.e_set_steps_right,"ax",%progbits
 190              		.align	1
 191              		.global	e_set_steps_right
 192              		.syntax unified
 193              		.thumb
 194              		.thumb_func
 195              		.fpu fpv4-sp-d16
 196              		.type	e_set_steps_right, %function
 197              	e_set_steps_right:
 198              		@ args = 0, pretend = 0, frame = 8
 199              		@ frame_needed = 1, uses_anonymous_args = 0
 200 0000 80B5     		push	{r7, lr}
 201 0002 82B0     		sub	sp, sp, #8
 202 0004 00AF     		add	r7, sp, #0
 203 0006 7860     		str	r0, [r7, #4]
 204 0008 7868     		ldr	r0, [r7, #4]
 205 000a FFF7FEFF 		bl	right_motor_set_pos
 206 000e 00BF     		nop
 207 0010 0837     		adds	r7, r7, #8
 208 0012 BD46     		mov	sp, r7
 209              		@ sp needed
 210 0014 80BD     		pop	{r7, pc}
 211              		.size	e_set_steps_right, .-e_set_steps_right
 212              		.ident	"GCC: (GNU Tools for Arm Embedded Processors 7-2017-q4-major) 7.2.1 20170904 (release) [ARM
ARM GAS  /var/folders/d2/nstgp4h54kz7g1l847x_b8wc0000gn/T//ccTjtpkn.s 			page 5

