ARM GAS  /var/folders/d2/nstgp4h54kz7g1l847x_b8wc0000gn/T//ccZ3DrjU.s 			page 1


   1              		.cpu cortex-m4
   2              		.eabi_attribute 27, 1
   3              		.eabi_attribute 28, 1
   4              		.eabi_attribute 20, 1
   5              		.eabi_attribute 21, 1
   6              		.eabi_attribute 23, 3
   7              		.eabi_attribute 24, 1
   8              		.eabi_attribute 25, 1
   9              		.eabi_attribute 26, 1
  10              		.eabi_attribute 30, 6
  11              		.eabi_attribute 34, 1
  12              		.eabi_attribute 18, 4
  13              		.file	"e_remote_control.c"
  14              		.section	.text.e_init_remote_control,"ax",%progbits
  15              		.align	1
  16              		.global	e_init_remote_control
  17              		.syntax unified
  18              		.thumb
  19              		.thumb_func
  20              		.fpu fpv4-sp-d16
  21              		.type	e_init_remote_control, %function
  22              	e_init_remote_control:
  23              		@ args = 0, pretend = 0, frame = 0
  24              		@ frame_needed = 1, uses_anonymous_args = 0
  25              		@ link register save eliminated.
  26 0000 80B4     		push	{r7}
  27 0002 00AF     		add	r7, sp, #0
  28 0004 00BF     		nop
  29 0006 BD46     		mov	sp, r7
  30              		@ sp needed
  31 0008 5DF8047B 		ldr	r7, [sp], #4
  32 000c 7047     		bx	lr
  33              		.size	e_init_remote_control, .-e_init_remote_control
  34              		.section	.text.e_get_check,"ax",%progbits
  35              		.align	1
  36              		.global	e_get_check
  37              		.syntax unified
  38              		.thumb
  39              		.thumb_func
  40              		.fpu fpv4-sp-d16
  41              		.type	e_get_check, %function
  42              	e_get_check:
  43              		@ args = 0, pretend = 0, frame = 0
  44              		@ frame_needed = 1, uses_anonymous_args = 0
  45 0000 80B5     		push	{r7, lr}
  46 0002 00AF     		add	r7, sp, #0
  47 0004 FFF7FEFF 		bl	ir_remote_get_toggle
  48 0008 0346     		mov	r3, r0
  49 000a 1846     		mov	r0, r3
  50 000c 80BD     		pop	{r7, pc}
  51              		.size	e_get_check, .-e_get_check
  52              		.section	.text.e_get_address,"ax",%progbits
  53              		.align	1
  54              		.global	e_get_address
  55              		.syntax unified
  56              		.thumb
  57              		.thumb_func
ARM GAS  /var/folders/d2/nstgp4h54kz7g1l847x_b8wc0000gn/T//ccZ3DrjU.s 			page 2


  58              		.fpu fpv4-sp-d16
  59              		.type	e_get_address, %function
  60              	e_get_address:
  61              		@ args = 0, pretend = 0, frame = 0
  62              		@ frame_needed = 1, uses_anonymous_args = 0
  63 0000 80B5     		push	{r7, lr}
  64 0002 00AF     		add	r7, sp, #0
  65 0004 FFF7FEFF 		bl	ir_remote_get_address
  66 0008 0346     		mov	r3, r0
  67 000a 1846     		mov	r0, r3
  68 000c 80BD     		pop	{r7, pc}
  69              		.size	e_get_address, .-e_get_address
  70              		.section	.text.e_get_data,"ax",%progbits
  71              		.align	1
  72              		.global	e_get_data
  73              		.syntax unified
  74              		.thumb
  75              		.thumb_func
  76              		.fpu fpv4-sp-d16
  77              		.type	e_get_data, %function
  78              	e_get_data:
  79              		@ args = 0, pretend = 0, frame = 0
  80              		@ frame_needed = 1, uses_anonymous_args = 0
  81 0000 80B5     		push	{r7, lr}
  82 0002 00AF     		add	r7, sp, #0
  83 0004 FFF7FEFF 		bl	ir_remote_get_data
  84 0008 0346     		mov	r3, r0
  85 000a 1846     		mov	r0, r3
  86 000c 80BD     		pop	{r7, pc}
  87              		.size	e_get_data, .-e_get_data
  88              		.ident	"GCC: (GNU Tools for Arm Embedded Processors 7-2017-q4-major) 7.2.1 20170904 (release) [ARM
ARM GAS  /var/folders/d2/nstgp4h54kz7g1l847x_b8wc0000gn/T//ccZ3DrjU.s 			page 3

