ARM GAS  /var/folders/d2/nstgp4h54kz7g1l847x_b8wc0000gn/T//ccFY5Lde.s 			page 1


   1              		.cpu cortex-m4
   2              		.eabi_attribute 27, 1
   3              		.eabi_attribute 28, 1
   4              		.eabi_attribute 20, 1
   5              		.eabi_attribute 21, 1
   6              		.eabi_attribute 23, 3
   7              		.eabi_attribute 24, 1
   8              		.eabi_attribute 25, 1
   9              		.eabi_attribute 26, 1
  10              		.eabi_attribute 30, 6
  11              		.eabi_attribute 34, 1
  12              		.eabi_attribute 18, 4
  13              		.file	"e_sound.c"
  14              		.section	.text.e_init_sound,"ax",%progbits
  15              		.align	1
  16              		.global	e_init_sound
  17              		.syntax unified
  18              		.thumb
  19              		.thumb_func
  20              		.fpu fpv4-sp-d16
  21              		.type	e_init_sound, %function
  22              	e_init_sound:
  23              		@ args = 0, pretend = 0, frame = 0
  24              		@ frame_needed = 1, uses_anonymous_args = 0
  25              		@ link register save eliminated.
  26 0000 80B4     		push	{r7}
  27 0002 00AF     		add	r7, sp, #0
  28 0004 00BF     		nop
  29 0006 BD46     		mov	sp, r7
  30              		@ sp needed
  31 0008 5DF8047B 		ldr	r7, [sp], #4
  32 000c 7047     		bx	lr
  33              		.size	e_init_sound, .-e_init_sound
  34              		.section	.text.e_play_sound,"ax",%progbits
  35              		.align	1
  36              		.global	e_play_sound
  37              		.syntax unified
  38              		.thumb
  39              		.thumb_func
  40              		.fpu fpv4-sp-d16
  41              		.type	e_play_sound, %function
  42              	e_play_sound:
  43              		@ args = 0, pretend = 0, frame = 8
  44              		@ frame_needed = 1, uses_anonymous_args = 0
  45 0000 80B5     		push	{r7, lr}
  46 0002 82B0     		sub	sp, sp, #8
  47 0004 00AF     		add	r7, sp, #0
  48 0006 7860     		str	r0, [r7, #4]
  49 0008 3960     		str	r1, [r7]
  50 000a 7B68     		ldr	r3, [r7, #4]
  51 000c 40F62672 		movw	r2, #3878
  52 0010 9342     		cmp	r3, r2
  53 0012 1CD0     		beq	.L5
  54 0014 40F62672 		movw	r2, #3878
  55 0018 9342     		cmp	r3, r2
  56 001a 06DC     		bgt	.L6
  57 001c 002B     		cmp	r3, #0
ARM GAS  /var/folders/d2/nstgp4h54kz7g1l847x_b8wc0000gn/T//ccFY5Lde.s 			page 2


  58 001e 0DD0     		beq	.L7
  59 0020 40F64402 		movw	r2, #2116
  60 0024 9342     		cmp	r3, r2
  61 0026 0DD0     		beq	.L8
  62 0028 20E0     		b	.L11
  63              	.L6:
  64 002a 41F67E42 		movw	r2, #7294
  65 002e 9342     		cmp	r3, r2
  66 0030 12D0     		beq	.L9
  67 0032 42F61432 		movw	r2, #11028
  68 0036 9342     		cmp	r3, r2
  69 0038 13D0     		beq	.L10
  70 003a 17E0     		b	.L11
  71              	.L7:
  72 003c 6420     		movs	r0, #100
  73 003e FFF7FEFF 		bl	dac_play
  74 0042 13E0     		b	.L4
  75              	.L8:
  76 0044 4FF4FA70 		mov	r0, #500
  77 0048 FFF7FEFF 		bl	dac_play
  78 004c 0EE0     		b	.L4
  79              	.L5:
  80 004e 4FF4FA60 		mov	r0, #2000
  81 0052 FFF7FEFF 		bl	dac_play
  82 0056 09E0     		b	.L4
  83              	.L9:
  84 0058 4FF47A60 		mov	r0, #4000
  85 005c FFF7FEFF 		bl	dac_play
  86 0060 04E0     		b	.L4
  87              	.L10:
  88 0062 42F21070 		movw	r0, #10000
  89 0066 FFF7FEFF 		bl	dac_play
  90 006a 00BF     		nop
  91              	.L4:
  92              	.L11:
  93 006c 00BF     		nop
  94 006e 0837     		adds	r7, r7, #8
  95 0070 BD46     		mov	sp, r7
  96              		@ sp needed
  97 0072 80BD     		pop	{r7, pc}
  98              		.size	e_play_sound, .-e_play_sound
  99              		.section	.text.e_close_sound,"ax",%progbits
 100              		.align	1
 101              		.global	e_close_sound
 102              		.syntax unified
 103              		.thumb
 104              		.thumb_func
 105              		.fpu fpv4-sp-d16
 106              		.type	e_close_sound, %function
 107              	e_close_sound:
 108              		@ args = 0, pretend = 0, frame = 0
 109              		@ frame_needed = 1, uses_anonymous_args = 0
 110 0000 80B5     		push	{r7, lr}
 111 0002 00AF     		add	r7, sp, #0
 112 0004 FFF7FEFF 		bl	dac_stop
 113 0008 00BF     		nop
 114 000a 80BD     		pop	{r7, pc}
ARM GAS  /var/folders/d2/nstgp4h54kz7g1l847x_b8wc0000gn/T//ccFY5Lde.s 			page 3


 115              		.size	e_close_sound, .-e_close_sound
 116              		.ident	"GCC: (GNU Tools for Arm Embedded Processors 7-2017-q4-major) 7.2.1 20170904 (release) [ARM
ARM GAS  /var/folders/d2/nstgp4h54kz7g1l847x_b8wc0000gn/T//ccFY5Lde.s 			page 4

