ARM GAS  /var/folders/d2/nstgp4h54kz7g1l847x_b8wc0000gn/T//ccRuum9Z.s 			page 1


   1              		.cpu cortex-m4
   2              		.eabi_attribute 27, 1
   3              		.eabi_attribute 28, 1
   4              		.eabi_attribute 20, 1
   5              		.eabi_attribute 21, 1
   6              		.eabi_attribute 23, 3
   7              		.eabi_attribute 24, 1
   8              		.eabi_attribute 25, 1
   9              		.eabi_attribute 26, 1
  10              		.eabi_attribute 30, 6
  11              		.eabi_attribute 34, 1
  12              		.eabi_attribute 18, 4
  13              		.file	"e_uart_char.c"
  14              		.section	.text.e_init_uart1,"ax",%progbits
  15              		.align	1
  16              		.global	e_init_uart1
  17              		.syntax unified
  18              		.thumb
  19              		.thumb_func
  20              		.fpu fpv4-sp-d16
  21              		.type	e_init_uart1, %function
  22              	e_init_uart1:
  23              		@ args = 0, pretend = 0, frame = 0
  24              		@ frame_needed = 1, uses_anonymous_args = 0
  25              		@ link register save eliminated.
  26 0000 80B4     		push	{r7}
  27 0002 00AF     		add	r7, sp, #0
  28 0004 00BF     		nop
  29 0006 BD46     		mov	sp, r7
  30              		@ sp needed
  31 0008 5DF8047B 		ldr	r7, [sp], #4
  32 000c 7047     		bx	lr
  33              		.size	e_init_uart1, .-e_init_uart1
  34              		.section	.text.e_ischar_uart1,"ax",%progbits
  35              		.align	1
  36              		.global	e_ischar_uart1
  37              		.syntax unified
  38              		.thumb
  39              		.thumb_func
  40              		.fpu fpv4-sp-d16
  41              		.type	e_ischar_uart1, %function
  42              	e_ischar_uart1:
  43              		@ args = 0, pretend = 0, frame = 0
  44              		@ frame_needed = 1, uses_anonymous_args = 0
  45              		@ link register save eliminated.
  46 0000 80B4     		push	{r7}
  47 0002 00AF     		add	r7, sp, #0
  48 0004 0023     		movs	r3, #0
  49 0006 1846     		mov	r0, r3
  50 0008 BD46     		mov	sp, r7
  51              		@ sp needed
  52 000a 5DF8047B 		ldr	r7, [sp], #4
  53 000e 7047     		bx	lr
  54              		.size	e_ischar_uart1, .-e_ischar_uart1
  55              		.section	.text.e_getchar_uart1,"ax",%progbits
  56              		.align	1
  57              		.global	e_getchar_uart1
ARM GAS  /var/folders/d2/nstgp4h54kz7g1l847x_b8wc0000gn/T//ccRuum9Z.s 			page 2


  58              		.syntax unified
  59              		.thumb
  60              		.thumb_func
  61              		.fpu fpv4-sp-d16
  62              		.type	e_getchar_uart1, %function
  63              	e_getchar_uart1:
  64              		@ args = 0, pretend = 0, frame = 8
  65              		@ frame_needed = 1, uses_anonymous_args = 0
  66 0000 80B5     		push	{r7, lr}
  67 0002 82B0     		sub	sp, sp, #8
  68 0004 00AF     		add	r7, sp, #0
  69 0006 7860     		str	r0, [r7, #4]
  70 0008 054B     		ldr	r3, .L7
  71 000a 1B68     		ldr	r3, [r3]
  72 000c 5B68     		ldr	r3, [r3, #4]
  73 000e 0122     		movs	r2, #1
  74 0010 7968     		ldr	r1, [r7, #4]
  75 0012 0348     		ldr	r0, .L7
  76 0014 9847     		blx	r3
  77 0016 0346     		mov	r3, r0
  78 0018 1846     		mov	r0, r3
  79 001a 0837     		adds	r7, r7, #8
  80 001c BD46     		mov	sp, r7
  81              		@ sp needed
  82 001e 80BD     		pop	{r7, pc}
  83              	.L8:
  84              		.align	2
  85              	.L7:
  86 0020 00000000 		.word	SD3
  87              		.size	e_getchar_uart1, .-e_getchar_uart1
  88              		.section	.text.e_send_uart1_char,"ax",%progbits
  89              		.align	1
  90              		.global	e_send_uart1_char
  91              		.syntax unified
  92              		.thumb
  93              		.thumb_func
  94              		.fpu fpv4-sp-d16
  95              		.type	e_send_uart1_char, %function
  96              	e_send_uart1_char:
  97              		@ args = 0, pretend = 0, frame = 8
  98              		@ frame_needed = 1, uses_anonymous_args = 0
  99 0000 80B5     		push	{r7, lr}
 100 0002 82B0     		sub	sp, sp, #8
 101 0004 00AF     		add	r7, sp, #0
 102 0006 7860     		str	r0, [r7, #4]
 103 0008 3960     		str	r1, [r7]
 104 000a 054B     		ldr	r3, .L10
 105 000c 1B68     		ldr	r3, [r3]
 106 000e 1B68     		ldr	r3, [r3]
 107 0010 3A68     		ldr	r2, [r7]
 108 0012 7968     		ldr	r1, [r7, #4]
 109 0014 0248     		ldr	r0, .L10
 110 0016 9847     		blx	r3
 111 0018 00BF     		nop
 112 001a 0837     		adds	r7, r7, #8
 113 001c BD46     		mov	sp, r7
 114              		@ sp needed
ARM GAS  /var/folders/d2/nstgp4h54kz7g1l847x_b8wc0000gn/T//ccRuum9Z.s 			page 3


 115 001e 80BD     		pop	{r7, pc}
 116              	.L11:
 117              		.align	2
 118              	.L10:
 119 0020 00000000 		.word	SD3
 120              		.size	e_send_uart1_char, .-e_send_uart1_char
 121              		.section	.text.e_uart1_sending,"ax",%progbits
 122              		.align	1
 123              		.global	e_uart1_sending
 124              		.syntax unified
 125              		.thumb
 126              		.thumb_func
 127              		.fpu fpv4-sp-d16
 128              		.type	e_uart1_sending, %function
 129              	e_uart1_sending:
 130              		@ args = 0, pretend = 0, frame = 0
 131              		@ frame_needed = 1, uses_anonymous_args = 0
 132              		@ link register save eliminated.
 133 0000 80B4     		push	{r7}
 134 0002 00AF     		add	r7, sp, #0
 135 0004 0023     		movs	r3, #0
 136 0006 1846     		mov	r0, r3
 137 0008 BD46     		mov	sp, r7
 138              		@ sp needed
 139 000a 5DF8047B 		ldr	r7, [sp], #4
 140 000e 7047     		bx	lr
 141              		.size	e_uart1_sending, .-e_uart1_sending
 142              		.section	.text.e_init_uart2,"ax",%progbits
 143              		.align	1
 144              		.global	e_init_uart2
 145              		.syntax unified
 146              		.thumb
 147              		.thumb_func
 148              		.fpu fpv4-sp-d16
 149              		.type	e_init_uart2, %function
 150              	e_init_uart2:
 151              		@ args = 0, pretend = 0, frame = 8
 152              		@ frame_needed = 1, uses_anonymous_args = 0
 153              		@ link register save eliminated.
 154 0000 80B4     		push	{r7}
 155 0002 83B0     		sub	sp, sp, #12
 156 0004 00AF     		add	r7, sp, #0
 157 0006 7860     		str	r0, [r7, #4]
 158 0008 00BF     		nop
 159 000a 0C37     		adds	r7, r7, #12
 160 000c BD46     		mov	sp, r7
 161              		@ sp needed
 162 000e 5DF8047B 		ldr	r7, [sp], #4
 163 0012 7047     		bx	lr
 164              		.size	e_init_uart2, .-e_init_uart2
 165              		.section	.text.e_ischar_uart2,"ax",%progbits
 166              		.align	1
 167              		.global	e_ischar_uart2
 168              		.syntax unified
 169              		.thumb
 170              		.thumb_func
 171              		.fpu fpv4-sp-d16
ARM GAS  /var/folders/d2/nstgp4h54kz7g1l847x_b8wc0000gn/T//ccRuum9Z.s 			page 4


 172              		.type	e_ischar_uart2, %function
 173              	e_ischar_uart2:
 174              		@ args = 0, pretend = 0, frame = 0
 175              		@ frame_needed = 1, uses_anonymous_args = 0
 176              		@ link register save eliminated.
 177 0000 80B4     		push	{r7}
 178 0002 00AF     		add	r7, sp, #0
 179 0004 0023     		movs	r3, #0
 180 0006 1846     		mov	r0, r3
 181 0008 BD46     		mov	sp, r7
 182              		@ sp needed
 183 000a 5DF8047B 		ldr	r7, [sp], #4
 184 000e 7047     		bx	lr
 185              		.size	e_ischar_uart2, .-e_ischar_uart2
 186              		.section	.text.e_getchar_uart2,"ax",%progbits
 187              		.align	1
 188              		.global	e_getchar_uart2
 189              		.syntax unified
 190              		.thumb
 191              		.thumb_func
 192              		.fpu fpv4-sp-d16
 193              		.type	e_getchar_uart2, %function
 194              	e_getchar_uart2:
 195              		@ args = 0, pretend = 0, frame = 8
 196              		@ frame_needed = 1, uses_anonymous_args = 0
 197 0000 80B5     		push	{r7, lr}
 198 0002 82B0     		sub	sp, sp, #8
 199 0004 00AF     		add	r7, sp, #0
 200 0006 7860     		str	r0, [r7, #4]
 201 0008 0B4B     		ldr	r3, .L21
 202 000a D3F85432 		ldr	r3, [r3, #596]
 203 000e 1B68     		ldr	r3, [r3]
 204 0010 1B78     		ldrb	r3, [r3]	@ zero_extendqisi2
 205 0012 042B     		cmp	r3, #4
 206 0014 08D1     		bne	.L19
 207 0016 084B     		ldr	r3, .L21
 208 0018 1B68     		ldr	r3, [r3]
 209 001a 5B68     		ldr	r3, [r3, #4]
 210 001c 0122     		movs	r2, #1
 211 001e 7968     		ldr	r1, [r7, #4]
 212 0020 0548     		ldr	r0, .L21
 213 0022 9847     		blx	r3
 214 0024 0346     		mov	r3, r0
 215 0026 03E0     		b	.L20
 216              	.L19:
 217 0028 0A20     		movs	r0, #10
 218 002a FFF7FEFF 		bl	chThdSleep
 219 002e 0023     		movs	r3, #0
 220              	.L20:
 221 0030 1846     		mov	r0, r3
 222 0032 0837     		adds	r7, r7, #8
 223 0034 BD46     		mov	sp, r7
 224              		@ sp needed
 225 0036 80BD     		pop	{r7, pc}
 226              	.L22:
 227              		.align	2
 228              	.L21:
ARM GAS  /var/folders/d2/nstgp4h54kz7g1l847x_b8wc0000gn/T//ccRuum9Z.s 			page 5


 229 0038 00000000 		.word	SDU1
 230              		.size	e_getchar_uart2, .-e_getchar_uart2
 231              		.section	.text.e_send_uart2_char,"ax",%progbits
 232              		.align	1
 233              		.global	e_send_uart2_char
 234              		.syntax unified
 235              		.thumb
 236              		.thumb_func
 237              		.fpu fpv4-sp-d16
 238              		.type	e_send_uart2_char, %function
 239              	e_send_uart2_char:
 240              		@ args = 0, pretend = 0, frame = 8
 241              		@ frame_needed = 1, uses_anonymous_args = 0
 242 0000 80B5     		push	{r7, lr}
 243 0002 82B0     		sub	sp, sp, #8
 244 0004 00AF     		add	r7, sp, #0
 245 0006 7860     		str	r0, [r7, #4]
 246 0008 3960     		str	r1, [r7]
 247 000a 094B     		ldr	r3, .L26
 248 000c D3F85432 		ldr	r3, [r3, #596]
 249 0010 1B68     		ldr	r3, [r3]
 250 0012 1B78     		ldrb	r3, [r3]	@ zero_extendqisi2
 251 0014 042B     		cmp	r3, #4
 252 0016 06D1     		bne	.L25
 253 0018 054B     		ldr	r3, .L26
 254 001a 1B68     		ldr	r3, [r3]
 255 001c 1B68     		ldr	r3, [r3]
 256 001e 3A68     		ldr	r2, [r7]
 257 0020 7968     		ldr	r1, [r7, #4]
 258 0022 0348     		ldr	r0, .L26
 259 0024 9847     		blx	r3
 260              	.L25:
 261 0026 00BF     		nop
 262 0028 0837     		adds	r7, r7, #8
 263 002a BD46     		mov	sp, r7
 264              		@ sp needed
 265 002c 80BD     		pop	{r7, pc}
 266              	.L27:
 267 002e 00BF     		.align	2
 268              	.L26:
 269 0030 00000000 		.word	SDU1
 270              		.size	e_send_uart2_char, .-e_send_uart2_char
 271              		.section	.text.e_uart2_sending,"ax",%progbits
 272              		.align	1
 273              		.global	e_uart2_sending
 274              		.syntax unified
 275              		.thumb
 276              		.thumb_func
 277              		.fpu fpv4-sp-d16
 278              		.type	e_uart2_sending, %function
 279              	e_uart2_sending:
 280              		@ args = 0, pretend = 0, frame = 0
 281              		@ frame_needed = 1, uses_anonymous_args = 0
 282              		@ link register save eliminated.
 283 0000 80B4     		push	{r7}
 284 0002 00AF     		add	r7, sp, #0
 285 0004 0023     		movs	r3, #0
ARM GAS  /var/folders/d2/nstgp4h54kz7g1l847x_b8wc0000gn/T//ccRuum9Z.s 			page 6


 286 0006 1846     		mov	r0, r3
 287 0008 BD46     		mov	sp, r7
 288              		@ sp needed
 289 000a 5DF8047B 		ldr	r7, [sp], #4
 290 000e 7047     		bx	lr
 291              		.size	e_uart2_sending, .-e_uart2_sending
 292              		.ident	"GCC: (GNU Tools for Arm Embedded Processors 7-2017-q4-major) 7.2.1 20170904 (release) [ARM
ARM GAS  /var/folders/d2/nstgp4h54kz7g1l847x_b8wc0000gn/T//ccRuum9Z.s 			page 7

