ARM GAS  /var/folders/d2/nstgp4h54kz7g1l847x_b8wc0000gn/T//ccrFF4Mu.s 			page 1


   1              		.cpu cortex-m4
   2              		.eabi_attribute 27, 1
   3              		.eabi_attribute 28, 1
   4              		.eabi_attribute 20, 1
   5              		.eabi_attribute 21, 1
   6              		.eabi_attribute 23, 3
   7              		.eabi_attribute 24, 1
   8              		.eabi_attribute 25, 1
   9              		.eabi_attribute 26, 1
  10              		.eabi_attribute 30, 6
  11              		.eabi_attribute 34, 1
  12              		.eabi_attribute 18, 4
  13              		.file	"ext.c"
  14              		.section	.text.port_lock,"ax",%progbits
  15              		.align	1
  16              		.syntax unified
  17              		.thumb
  18              		.thumb_func
  19              		.fpu fpv4-sp-d16
  20              		.type	port_lock, %function
  21              	port_lock:
  22              		@ args = 0, pretend = 0, frame = 8
  23              		@ frame_needed = 1, uses_anonymous_args = 0
  24              		@ link register save eliminated.
  25 0000 80B4     		push	{r7}
  26 0002 83B0     		sub	sp, sp, #12
  27 0004 00AF     		add	r7, sp, #0
  28 0006 2023     		movs	r3, #32
  29 0008 7B60     		str	r3, [r7, #4]
  30 000a 7B68     		ldr	r3, [r7, #4]
  31              		.syntax unified
  32              	@ 546 "../e-puck2_main-processor/ChibiOS//os/ext/CMSIS/include/core_cmFunc.h" 1
  33 000c 83F31188 		MSR basepri, r3
  34              	@ 0 "" 2
  35              		.thumb
  36              		.syntax unified
  37 0010 00BF     		nop
  38 0012 0C37     		adds	r7, r7, #12
  39 0014 BD46     		mov	sp, r7
  40              		@ sp needed
  41 0016 5DF8047B 		ldr	r7, [sp], #4
  42 001a 7047     		bx	lr
  43              		.size	port_lock, .-port_lock
  44              		.section	.text.port_unlock,"ax",%progbits
  45              		.align	1
  46              		.syntax unified
  47              		.thumb
  48              		.thumb_func
  49              		.fpu fpv4-sp-d16
  50              		.type	port_unlock, %function
  51              	port_unlock:
  52              		@ args = 0, pretend = 0, frame = 8
  53              		@ frame_needed = 1, uses_anonymous_args = 0
  54              		@ link register save eliminated.
  55 0000 80B4     		push	{r7}
  56 0002 83B0     		sub	sp, sp, #12
  57 0004 00AF     		add	r7, sp, #0
ARM GAS  /var/folders/d2/nstgp4h54kz7g1l847x_b8wc0000gn/T//ccrFF4Mu.s 			page 2


  58 0006 0023     		movs	r3, #0
  59 0008 7B60     		str	r3, [r7, #4]
  60 000a 7B68     		ldr	r3, [r7, #4]
  61              		.syntax unified
  62              	@ 546 "../e-puck2_main-processor/ChibiOS//os/ext/CMSIS/include/core_cmFunc.h" 1
  63 000c 83F31188 		MSR basepri, r3
  64              	@ 0 "" 2
  65              		.thumb
  66              		.syntax unified
  67 0010 00BF     		nop
  68 0012 0C37     		adds	r7, r7, #12
  69 0014 BD46     		mov	sp, r7
  70              		@ sp needed
  71 0016 5DF8047B 		ldr	r7, [sp], #4
  72 001a 7047     		bx	lr
  73              		.size	port_unlock, .-port_unlock
  74              		.section	.text.chSysLock,"ax",%progbits
  75              		.align	1
  76              		.syntax unified
  77              		.thumb
  78              		.thumb_func
  79              		.fpu fpv4-sp-d16
  80              		.type	chSysLock, %function
  81              	chSysLock:
  82              		@ args = 0, pretend = 0, frame = 0
  83              		@ frame_needed = 1, uses_anonymous_args = 0
  84 0000 80B5     		push	{r7, lr}
  85 0002 00AF     		add	r7, sp, #0
  86 0004 FFF7FEFF 		bl	port_lock
  87 0008 FFF7FEFF 		bl	_stats_start_measure_crit_thd
  88 000c FFF7FEFF 		bl	_dbg_check_lock
  89 0010 00BF     		nop
  90 0012 80BD     		pop	{r7, pc}
  91              		.size	chSysLock, .-chSysLock
  92              		.section	.text.chSysUnlock,"ax",%progbits
  93              		.align	1
  94              		.syntax unified
  95              		.thumb
  96              		.thumb_func
  97              		.fpu fpv4-sp-d16
  98              		.type	chSysUnlock, %function
  99              	chSysUnlock:
 100              		@ args = 0, pretend = 0, frame = 0
 101              		@ frame_needed = 1, uses_anonymous_args = 0
 102 0000 80B5     		push	{r7, lr}
 103 0002 00AF     		add	r7, sp, #0
 104 0004 FFF7FEFF 		bl	_dbg_check_unlock
 105 0008 FFF7FEFF 		bl	_stats_stop_measure_crit_thd
 106 000c 094B     		ldr	r3, .L6
 107 000e 1B68     		ldr	r3, [r3]
 108 0010 084A     		ldr	r2, .L6
 109 0012 9342     		cmp	r3, r2
 110 0014 0AD0     		beq	.L5
 111 0016 074B     		ldr	r3, .L6
 112 0018 9B69     		ldr	r3, [r3, #24]
 113 001a 9A68     		ldr	r2, [r3, #8]
 114 001c 054B     		ldr	r3, .L6
ARM GAS  /var/folders/d2/nstgp4h54kz7g1l847x_b8wc0000gn/T//ccrFF4Mu.s 			page 3


 115 001e 1B68     		ldr	r3, [r3]
 116 0020 9B68     		ldr	r3, [r3, #8]
 117 0022 9A42     		cmp	r2, r3
 118 0024 02D2     		bcs	.L5
 119 0026 0448     		ldr	r0, .L6+4
 120 0028 FFF7FEFF 		bl	chSysHalt
 121              	.L5:
 122 002c FFF7FEFF 		bl	port_unlock
 123 0030 00BF     		nop
 124 0032 80BD     		pop	{r7, pc}
 125              	.L7:
 126              		.align	2
 127              	.L6:
 128 0034 00000000 		.word	ch
 129 0038 00000000 		.word	__func__.7153
 130              		.size	chSysUnlock, .-chSysUnlock
 131              		.section	.text.osalSysLock,"ax",%progbits
 132              		.align	1
 133              		.syntax unified
 134              		.thumb
 135              		.thumb_func
 136              		.fpu fpv4-sp-d16
 137              		.type	osalSysLock, %function
 138              	osalSysLock:
 139              		@ args = 0, pretend = 0, frame = 0
 140              		@ frame_needed = 1, uses_anonymous_args = 0
 141 0000 80B5     		push	{r7, lr}
 142 0002 00AF     		add	r7, sp, #0
 143 0004 FFF7FEFF 		bl	chSysLock
 144 0008 00BF     		nop
 145 000a 80BD     		pop	{r7, pc}
 146              		.size	osalSysLock, .-osalSysLock
 147              		.section	.text.osalSysUnlock,"ax",%progbits
 148              		.align	1
 149              		.syntax unified
 150              		.thumb
 151              		.thumb_func
 152              		.fpu fpv4-sp-d16
 153              		.type	osalSysUnlock, %function
 154              	osalSysUnlock:
 155              		@ args = 0, pretend = 0, frame = 0
 156              		@ frame_needed = 1, uses_anonymous_args = 0
 157 0000 80B5     		push	{r7, lr}
 158 0002 00AF     		add	r7, sp, #0
 159 0004 FFF7FEFF 		bl	chSysUnlock
 160 0008 00BF     		nop
 161 000a 80BD     		pop	{r7, pc}
 162              		.size	osalSysUnlock, .-osalSysUnlock
 163              		.section	.text.extInit,"ax",%progbits
 164              		.align	1
 165              		.global	extInit
 166              		.syntax unified
 167              		.thumb
 168              		.thumb_func
 169              		.fpu fpv4-sp-d16
 170              		.type	extInit, %function
 171              	extInit:
ARM GAS  /var/folders/d2/nstgp4h54kz7g1l847x_b8wc0000gn/T//ccrFF4Mu.s 			page 4


 172              		@ args = 0, pretend = 0, frame = 0
 173              		@ frame_needed = 1, uses_anonymous_args = 0
 174 0000 80B5     		push	{r7, lr}
 175 0002 00AF     		add	r7, sp, #0
 176 0004 FFF7FEFF 		bl	ext_lld_init
 177 0008 00BF     		nop
 178 000a 80BD     		pop	{r7, pc}
 179              		.size	extInit, .-extInit
 180              		.section	.text.extObjectInit,"ax",%progbits
 181              		.align	1
 182              		.global	extObjectInit
 183              		.syntax unified
 184              		.thumb
 185              		.thumb_func
 186              		.fpu fpv4-sp-d16
 187              		.type	extObjectInit, %function
 188              	extObjectInit:
 189              		@ args = 0, pretend = 0, frame = 8
 190              		@ frame_needed = 1, uses_anonymous_args = 0
 191              		@ link register save eliminated.
 192 0000 80B4     		push	{r7}
 193 0002 83B0     		sub	sp, sp, #12
 194 0004 00AF     		add	r7, sp, #0
 195 0006 7860     		str	r0, [r7, #4]
 196 0008 7B68     		ldr	r3, [r7, #4]
 197 000a 0122     		movs	r2, #1
 198 000c 1A70     		strb	r2, [r3]
 199 000e 7B68     		ldr	r3, [r7, #4]
 200 0010 0022     		movs	r2, #0
 201 0012 5A60     		str	r2, [r3, #4]
 202 0014 00BF     		nop
 203 0016 0C37     		adds	r7, r7, #12
 204 0018 BD46     		mov	sp, r7
 205              		@ sp needed
 206 001a 5DF8047B 		ldr	r7, [sp], #4
 207 001e 7047     		bx	lr
 208              		.size	extObjectInit, .-extObjectInit
 209              		.section	.text.extStart,"ax",%progbits
 210              		.align	1
 211              		.global	extStart
 212              		.syntax unified
 213              		.thumb
 214              		.thumb_func
 215              		.fpu fpv4-sp-d16
 216              		.type	extStart, %function
 217              	extStart:
 218              		@ args = 0, pretend = 0, frame = 8
 219              		@ frame_needed = 1, uses_anonymous_args = 0
 220 0000 80B5     		push	{r7, lr}
 221 0002 82B0     		sub	sp, sp, #8
 222 0004 00AF     		add	r7, sp, #0
 223 0006 7860     		str	r0, [r7, #4]
 224 0008 3960     		str	r1, [r7]
 225 000a 7B68     		ldr	r3, [r7, #4]
 226 000c 002B     		cmp	r3, #0
 227 000e 02D0     		beq	.L13
 228 0010 3B68     		ldr	r3, [r7]
ARM GAS  /var/folders/d2/nstgp4h54kz7g1l847x_b8wc0000gn/T//ccrFF4Mu.s 			page 5


 229 0012 002B     		cmp	r3, #0
 230 0014 02D1     		bne	.L14
 231              	.L13:
 232 0016 0F48     		ldr	r0, .L16
 233 0018 FFF7FEFF 		bl	chSysHalt
 234              	.L14:
 235 001c FFF7FEFF 		bl	osalSysLock
 236 0020 7B68     		ldr	r3, [r7, #4]
 237 0022 1B78     		ldrb	r3, [r3]	@ zero_extendqisi2
 238 0024 012B     		cmp	r3, #1
 239 0026 06D0     		beq	.L15
 240 0028 7B68     		ldr	r3, [r7, #4]
 241 002a 1B78     		ldrb	r3, [r3]	@ zero_extendqisi2
 242 002c 022B     		cmp	r3, #2
 243 002e 02D0     		beq	.L15
 244 0030 0848     		ldr	r0, .L16
 245 0032 FFF7FEFF 		bl	chSysHalt
 246              	.L15:
 247 0036 7B68     		ldr	r3, [r7, #4]
 248 0038 3A68     		ldr	r2, [r7]
 249 003a 5A60     		str	r2, [r3, #4]
 250 003c 7868     		ldr	r0, [r7, #4]
 251 003e FFF7FEFF 		bl	ext_lld_start
 252 0042 7B68     		ldr	r3, [r7, #4]
 253 0044 0222     		movs	r2, #2
 254 0046 1A70     		strb	r2, [r3]
 255 0048 FFF7FEFF 		bl	osalSysUnlock
 256 004c 00BF     		nop
 257 004e 0837     		adds	r7, r7, #8
 258 0050 BD46     		mov	sp, r7
 259              		@ sp needed
 260 0052 80BD     		pop	{r7, pc}
 261              	.L17:
 262              		.align	2
 263              	.L16:
 264 0054 00000000 		.word	__func__.9848
 265              		.size	extStart, .-extStart
 266              		.section	.text.extStop,"ax",%progbits
 267              		.align	1
 268              		.global	extStop
 269              		.syntax unified
 270              		.thumb
 271              		.thumb_func
 272              		.fpu fpv4-sp-d16
 273              		.type	extStop, %function
 274              	extStop:
 275              		@ args = 0, pretend = 0, frame = 8
 276              		@ frame_needed = 1, uses_anonymous_args = 0
 277 0000 80B5     		push	{r7, lr}
 278 0002 82B0     		sub	sp, sp, #8
 279 0004 00AF     		add	r7, sp, #0
 280 0006 7860     		str	r0, [r7, #4]
 281 0008 7B68     		ldr	r3, [r7, #4]
 282 000a 002B     		cmp	r3, #0
 283 000c 02D1     		bne	.L19
 284 000e 0E48     		ldr	r0, .L21
 285 0010 FFF7FEFF 		bl	chSysHalt
ARM GAS  /var/folders/d2/nstgp4h54kz7g1l847x_b8wc0000gn/T//ccrFF4Mu.s 			page 6


 286              	.L19:
 287 0014 FFF7FEFF 		bl	osalSysLock
 288 0018 7B68     		ldr	r3, [r7, #4]
 289 001a 1B78     		ldrb	r3, [r3]	@ zero_extendqisi2
 290 001c 012B     		cmp	r3, #1
 291 001e 06D0     		beq	.L20
 292 0020 7B68     		ldr	r3, [r7, #4]
 293 0022 1B78     		ldrb	r3, [r3]	@ zero_extendqisi2
 294 0024 022B     		cmp	r3, #2
 295 0026 02D0     		beq	.L20
 296 0028 0748     		ldr	r0, .L21
 297 002a FFF7FEFF 		bl	chSysHalt
 298              	.L20:
 299 002e 7868     		ldr	r0, [r7, #4]
 300 0030 FFF7FEFF 		bl	ext_lld_stop
 301 0034 7B68     		ldr	r3, [r7, #4]
 302 0036 0122     		movs	r2, #1
 303 0038 1A70     		strb	r2, [r3]
 304 003a FFF7FEFF 		bl	osalSysUnlock
 305 003e 00BF     		nop
 306 0040 0837     		adds	r7, r7, #8
 307 0042 BD46     		mov	sp, r7
 308              		@ sp needed
 309 0044 80BD     		pop	{r7, pc}
 310              	.L22:
 311 0046 00BF     		.align	2
 312              	.L21:
 313 0048 00000000 		.word	__func__.9852
 314              		.size	extStop, .-extStop
 315              		.section	.text.extChannelEnable,"ax",%progbits
 316              		.align	1
 317              		.global	extChannelEnable
 318              		.syntax unified
 319              		.thumb
 320              		.thumb_func
 321              		.fpu fpv4-sp-d16
 322              		.type	extChannelEnable, %function
 323              	extChannelEnable:
 324              		@ args = 0, pretend = 0, frame = 8
 325              		@ frame_needed = 1, uses_anonymous_args = 0
 326 0000 80B5     		push	{r7, lr}
 327 0002 82B0     		sub	sp, sp, #8
 328 0004 00AF     		add	r7, sp, #0
 329 0006 7860     		str	r0, [r7, #4]
 330 0008 3960     		str	r1, [r7]
 331 000a 7B68     		ldr	r3, [r7, #4]
 332 000c 002B     		cmp	r3, #0
 333 000e 02D0     		beq	.L24
 334 0010 3B68     		ldr	r3, [r7]
 335 0012 162B     		cmp	r3, #22
 336 0014 02D9     		bls	.L25
 337              	.L24:
 338 0016 0F48     		ldr	r0, .L28
 339 0018 FFF7FEFF 		bl	chSysHalt
 340              	.L25:
 341 001c FFF7FEFF 		bl	osalSysLock
 342 0020 7B68     		ldr	r3, [r7, #4]
ARM GAS  /var/folders/d2/nstgp4h54kz7g1l847x_b8wc0000gn/T//ccrFF4Mu.s 			page 7


 343 0022 1B78     		ldrb	r3, [r3]	@ zero_extendqisi2
 344 0024 022B     		cmp	r3, #2
 345 0026 08D1     		bne	.L26
 346 0028 7B68     		ldr	r3, [r7, #4]
 347 002a 5B68     		ldr	r3, [r3, #4]
 348 002c 3A68     		ldr	r2, [r7]
 349 002e 53F83230 		ldr	r3, [r3, r2, lsl #3]
 350 0032 03F00303 		and	r3, r3, #3
 351 0036 002B     		cmp	r3, #0
 352 0038 02D1     		bne	.L27
 353              	.L26:
 354 003a 0648     		ldr	r0, .L28
 355 003c FFF7FEFF 		bl	chSysHalt
 356              	.L27:
 357 0040 3968     		ldr	r1, [r7]
 358 0042 7868     		ldr	r0, [r7, #4]
 359 0044 FFF7FEFF 		bl	ext_lld_channel_enable
 360 0048 FFF7FEFF 		bl	osalSysUnlock
 361 004c 00BF     		nop
 362 004e 0837     		adds	r7, r7, #8
 363 0050 BD46     		mov	sp, r7
 364              		@ sp needed
 365 0052 80BD     		pop	{r7, pc}
 366              	.L29:
 367              		.align	2
 368              	.L28:
 369 0054 00000000 		.word	__func__.9857
 370              		.size	extChannelEnable, .-extChannelEnable
 371              		.section	.text.extChannelDisable,"ax",%progbits
 372              		.align	1
 373              		.global	extChannelDisable
 374              		.syntax unified
 375              		.thumb
 376              		.thumb_func
 377              		.fpu fpv4-sp-d16
 378              		.type	extChannelDisable, %function
 379              	extChannelDisable:
 380              		@ args = 0, pretend = 0, frame = 8
 381              		@ frame_needed = 1, uses_anonymous_args = 0
 382 0000 80B5     		push	{r7, lr}
 383 0002 82B0     		sub	sp, sp, #8
 384 0004 00AF     		add	r7, sp, #0
 385 0006 7860     		str	r0, [r7, #4]
 386 0008 3960     		str	r1, [r7]
 387 000a 7B68     		ldr	r3, [r7, #4]
 388 000c 002B     		cmp	r3, #0
 389 000e 02D0     		beq	.L31
 390 0010 3B68     		ldr	r3, [r7]
 391 0012 162B     		cmp	r3, #22
 392 0014 02D9     		bls	.L32
 393              	.L31:
 394 0016 0F48     		ldr	r0, .L35
 395 0018 FFF7FEFF 		bl	chSysHalt
 396              	.L32:
 397 001c FFF7FEFF 		bl	osalSysLock
 398 0020 7B68     		ldr	r3, [r7, #4]
 399 0022 1B78     		ldrb	r3, [r3]	@ zero_extendqisi2
ARM GAS  /var/folders/d2/nstgp4h54kz7g1l847x_b8wc0000gn/T//ccrFF4Mu.s 			page 8


 400 0024 022B     		cmp	r3, #2
 401 0026 08D1     		bne	.L33
 402 0028 7B68     		ldr	r3, [r7, #4]
 403 002a 5B68     		ldr	r3, [r3, #4]
 404 002c 3A68     		ldr	r2, [r7]
 405 002e 53F83230 		ldr	r3, [r3, r2, lsl #3]
 406 0032 03F00303 		and	r3, r3, #3
 407 0036 002B     		cmp	r3, #0
 408 0038 02D1     		bne	.L34
 409              	.L33:
 410 003a 0648     		ldr	r0, .L35
 411 003c FFF7FEFF 		bl	chSysHalt
 412              	.L34:
 413 0040 3968     		ldr	r1, [r7]
 414 0042 7868     		ldr	r0, [r7, #4]
 415 0044 FFF7FEFF 		bl	ext_lld_channel_disable
 416 0048 FFF7FEFF 		bl	osalSysUnlock
 417 004c 00BF     		nop
 418 004e 0837     		adds	r7, r7, #8
 419 0050 BD46     		mov	sp, r7
 420              		@ sp needed
 421 0052 80BD     		pop	{r7, pc}
 422              	.L36:
 423              		.align	2
 424              	.L35:
 425 0054 00000000 		.word	__func__.9862
 426              		.size	extChannelDisable, .-extChannelDisable
 427              		.section	.text.extSetChannelModeI,"ax",%progbits
 428              		.align	1
 429              		.global	extSetChannelModeI
 430              		.syntax unified
 431              		.thumb
 432              		.thumb_func
 433              		.fpu fpv4-sp-d16
 434              		.type	extSetChannelModeI, %function
 435              	extSetChannelModeI:
 436              		@ args = 0, pretend = 0, frame = 24
 437              		@ frame_needed = 1, uses_anonymous_args = 0
 438 0000 80B5     		push	{r7, lr}
 439 0002 86B0     		sub	sp, sp, #24
 440 0004 00AF     		add	r7, sp, #0
 441 0006 F860     		str	r0, [r7, #12]
 442 0008 B960     		str	r1, [r7, #8]
 443 000a 7A60     		str	r2, [r7, #4]
 444 000c FB68     		ldr	r3, [r7, #12]
 445 000e 002B     		cmp	r3, #0
 446 0010 05D0     		beq	.L38
 447 0012 BB68     		ldr	r3, [r7, #8]
 448 0014 162B     		cmp	r3, #22
 449 0016 02D8     		bhi	.L38
 450 0018 7B68     		ldr	r3, [r7, #4]
 451 001a 002B     		cmp	r3, #0
 452 001c 02D1     		bne	.L41
 453              	.L38:
 454 001e 0F48     		ldr	r0, .L42
 455 0020 FFF7FEFF 		bl	chSysHalt
 456              	.L41:
ARM GAS  /var/folders/d2/nstgp4h54kz7g1l847x_b8wc0000gn/T//ccrFF4Mu.s 			page 9


 457 0024 FB68     		ldr	r3, [r7, #12]
 458 0026 1B78     		ldrb	r3, [r3]	@ zero_extendqisi2
 459 0028 022B     		cmp	r3, #2
 460 002a 02D0     		beq	.L40
 461 002c 0B48     		ldr	r0, .L42
 462 002e FFF7FEFF 		bl	chSysHalt
 463              	.L40:
 464 0032 FB68     		ldr	r3, [r7, #12]
 465 0034 5A68     		ldr	r2, [r3, #4]
 466 0036 BB68     		ldr	r3, [r7, #8]
 467 0038 DB00     		lsls	r3, r3, #3
 468 003a 1344     		add	r3, r3, r2
 469 003c 7B61     		str	r3, [r7, #20]
 470 003e 7B69     		ldr	r3, [r7, #20]
 471 0040 7A68     		ldr	r2, [r7, #4]
 472 0042 92E80300 		ldm	r2, {r0, r1}
 473 0046 83E80300 		stm	r3, {r0, r1}
 474 004a B968     		ldr	r1, [r7, #8]
 475 004c F868     		ldr	r0, [r7, #12]
 476 004e FFF7FEFF 		bl	ext_lld_channel_enable
 477 0052 00BF     		nop
 478 0054 1837     		adds	r7, r7, #24
 479 0056 BD46     		mov	sp, r7
 480              		@ sp needed
 481 0058 80BD     		pop	{r7, pc}
 482              	.L43:
 483 005a 00BF     		.align	2
 484              	.L42:
 485 005c 00000000 		.word	__func__.9869
 486              		.size	extSetChannelModeI, .-extSetChannelModeI
 487              		.section	.rodata.__func__.9848,"a",%progbits
 488              		.align	2
 489              		.type	__func__.9848, %object
 490              		.size	__func__.9848, 9
 491              	__func__.9848:
 492 0000 65787453 		.ascii	"extStart\000"
 492      74617274 
 492      00
 493              		.section	.rodata.__func__.7153,"a",%progbits
 494              		.align	2
 495              		.type	__func__.7153, %object
 496              		.size	__func__.7153, 12
 497              	__func__.7153:
 498 0000 63685379 		.ascii	"chSysUnlock\000"
 498      73556E6C 
 498      6F636B00 
 499              		.section	.rodata.__func__.9852,"a",%progbits
 500              		.align	2
 501              		.type	__func__.9852, %object
 502              		.size	__func__.9852, 8
 503              	__func__.9852:
 504 0000 65787453 		.ascii	"extStop\000"
 504      746F7000 
 505              		.section	.rodata.__func__.9857,"a",%progbits
 506              		.align	2
 507              		.type	__func__.9857, %object
 508              		.size	__func__.9857, 17
ARM GAS  /var/folders/d2/nstgp4h54kz7g1l847x_b8wc0000gn/T//ccrFF4Mu.s 			page 10


 509              	__func__.9857:
 510 0000 65787443 		.ascii	"extChannelEnable\000"
 510      68616E6E 
 510      656C456E 
 510      61626C65 
 510      00
 511              		.section	.rodata.__func__.9862,"a",%progbits
 512              		.align	2
 513              		.type	__func__.9862, %object
 514              		.size	__func__.9862, 18
 515              	__func__.9862:
 516 0000 65787443 		.ascii	"extChannelDisable\000"
 516      68616E6E 
 516      656C4469 
 516      7361626C 
 516      6500
 517              		.section	.rodata.__func__.9869,"a",%progbits
 518              		.align	2
 519              		.type	__func__.9869, %object
 520              		.size	__func__.9869, 19
 521              	__func__.9869:
 522 0000 65787453 		.ascii	"extSetChannelModeI\000"
 522      65744368 
 522      616E6E65 
 522      6C4D6F64 
 522      654900
 523              		.ident	"GCC: (GNU Tools for Arm Embedded Processors 7-2017-q4-major) 7.2.1 20170904 (release) [ARM
ARM GAS  /var/folders/d2/nstgp4h54kz7g1l847x_b8wc0000gn/T//ccrFF4Mu.s 			page 11

