ARM GAS  /var/folders/d2/nstgp4h54kz7g1l847x_b8wc0000gn/T//ccGxhkCM.s 			page 1


   1              		.cpu cortex-m4
   2              		.eabi_attribute 27, 1
   3              		.eabi_attribute 28, 1
   4              		.eabi_attribute 20, 1
   5              		.eabi_attribute 21, 1
   6              		.eabi_attribute 23, 3
   7              		.eabi_attribute 24, 1
   8              		.eabi_attribute 25, 1
   9              		.eabi_attribute 26, 1
  10              		.eabi_attribute 30, 6
  11              		.eabi_attribute 34, 1
  12              		.eabi_attribute 18, 4
  13              		.file	"fat.c"
  14              		.section	.text.chprintf,"ax",%progbits
  15              		.align	1
  16              		.syntax unified
  17              		.thumb
  18              		.thumb_func
  19              		.fpu fpv4-sp-d16
  20              		.type	chprintf, %function
  21              	chprintf:
  22              		@ args = 4, pretend = 12, frame = 16
  23              		@ frame_needed = 1, uses_anonymous_args = 1
  24 0000 0EB4     		push	{r1, r2, r3}
  25 0002 80B5     		push	{r7, lr}
  26 0004 85B0     		sub	sp, sp, #20
  27 0006 00AF     		add	r7, sp, #0
  28 0008 7860     		str	r0, [r7, #4]
  29 000a 07F12003 		add	r3, r7, #32
  30 000e BB60     		str	r3, [r7, #8]
  31 0010 BA68     		ldr	r2, [r7, #8]
  32 0012 F969     		ldr	r1, [r7, #28]
  33 0014 7868     		ldr	r0, [r7, #4]
  34 0016 FFF7FEFF 		bl	chvprintf
  35 001a F860     		str	r0, [r7, #12]
  36 001c FB68     		ldr	r3, [r7, #12]
  37 001e 1846     		mov	r0, r3
  38 0020 1437     		adds	r7, r7, #20
  39 0022 BD46     		mov	sp, r7
  40              		@ sp needed
  41 0024 BDE88040 		pop	{r7, lr}
  42 0028 03B0     		add	sp, sp, #12
  43 002a 7047     		bx	lr
  44              		.size	chprintf, .-chprintf
  45              		.section	.bss.SDC_FS,"aw",%nobits
  46              		.align	2
  47              		.type	SDC_FS, %object
  48              		.size	SDC_FS, 560
  49              	SDC_FS:
  50 0000 00000000 		.space	560
  50      00000000 
  50      00000000 
  50      00000000 
  50      00000000 
  51              		.section	.bss.sd_card_mounted,"aw",%nobits
  52              		.type	sd_card_mounted, %object
  53              		.size	sd_card_mounted, 1
ARM GAS  /var/folders/d2/nstgp4h54kz7g1l847x_b8wc0000gn/T//ccGxhkCM.s 			page 2


  54              	sd_card_mounted:
  55 0000 00       		.space	1
  56              		.section	.rodata
  57              		.align	2
  58              	.LC0:
  59 0000 53756363 		.ascii	"Succeeded\000"
  59      65656465 
  59      6400
  60 000a 0000     		.align	2
  61              	.LC1:
  62 000c 41206861 		.ascii	"A hard error occurred in the low level disk I/O lay"
  62      72642065 
  62      72726F72 
  62      206F6363 
  62      75727265 
  63 003f 657200   		.ascii	"er\000"
  64 0042 0000     		.align	2
  65              	.LC2:
  66 0044 41737365 		.ascii	"Assertion failed\000"
  66      7274696F 
  66      6E206661 
  66      696C6564 
  66      00
  67 0055 000000   		.align	2
  68              	.LC3:
  69 0058 54686520 		.ascii	"The physical drive cannot work\000"
  69      70687973 
  69      6963616C 
  69      20647269 
  69      76652063 
  70 0077 00       		.align	2
  71              	.LC4:
  72 0078 436F756C 		.ascii	"Could not find the file\000"
  72      64206E6F 
  72      74206669 
  72      6E642074 
  72      68652066 
  73              		.align	2
  74              	.LC5:
  75 0090 436F756C 		.ascii	"Could not find the path\000"
  75      64206E6F 
  75      74206669 
  75      6E642074 
  75      68652070 
  76              		.align	2
  77              	.LC6:
  78 00a8 54686520 		.ascii	"The path name format is invalid\000"
  78      70617468 
  78      206E616D 
  78      6520666F 
  78      726D6174 
  79              		.align	2
  80              	.LC7:
  81 00c8 41636365 		.ascii	"Access denied due to prohibited access or directory"
  81      73732064 
  81      656E6965 
  81      64206475 
ARM GAS  /var/folders/d2/nstgp4h54kz7g1l847x_b8wc0000gn/T//ccGxhkCM.s 			page 3


  81      6520746F 
  82 00fb 2066756C 		.ascii	" full\000"
  82      6C00
  83 0101 000000   		.align	2
  84              	.LC8:
  85 0104 41636365 		.ascii	"Access denied due to prohibited access\000"
  85      73732064 
  85      656E6965 
  85      64206475 
  85      6520746F 
  86 012b 00       		.align	2
  87              	.LC9:
  88 012c 54686520 		.ascii	"The file/directory object is invalid\000"
  88      66696C65 
  88      2F646972 
  88      6563746F 
  88      7279206F 
  89 0151 000000   		.align	2
  90              	.LC10:
  91 0154 54686520 		.ascii	"The physical drive is write protected\000"
  91      70687973 
  91      6963616C 
  91      20647269 
  91      76652069 
  92 017a 0000     		.align	2
  93              	.LC11:
  94 017c 54686520 		.ascii	"The logical drive number is invalid\000"
  94      6C6F6769 
  94      63616C20 
  94      64726976 
  94      65206E75 
  95              		.align	2
  96              	.LC12:
  97 01a0 54686520 		.ascii	"The volume has no work area\000"
  97      766F6C75 
  97      6D652068 
  97      6173206E 
  97      6F20776F 
  98              		.align	2
  99              	.LC13:
 100 01bc 54686572 		.ascii	"There is no valid FAT volume\000"
 100      65206973 
 100      206E6F20 
 100      76616C69 
 100      64204641 
 101 01d9 000000   		.align	2
 102              	.LC14:
 103 01dc 54686520 		.ascii	"The f_mkfs() aborted due to any parameter error\000"
 103      665F6D6B 
 103      66732829 
 103      2061626F 
 103      72746564 
 104              		.align	2
 105              	.LC15:
 106 020c 436F756C 		.ascii	"Could not get a grant to access the volume within d"
 106      64206E6F 
 106      74206765 
ARM GAS  /var/folders/d2/nstgp4h54kz7g1l847x_b8wc0000gn/T//ccGxhkCM.s 			page 4


 106      74206120 
 106      6772616E 
 107 023f 6566696E 		.ascii	"efined period\000"
 107      65642070 
 107      6572696F 
 107      6400
 108 024d 000000   		.align	2
 109              	.LC16:
 110 0250 54686520 		.ascii	"The operation is rejected according to the file sha"
 110      6F706572 
 110      6174696F 
 110      6E206973 
 110      2072656A 
 111 0283 72696E67 		.ascii	"ring policy\000"
 111      20706F6C 
 111      69637900 
 112 028f 00       		.align	2
 113              	.LC17:
 114 0290 4C464E20 		.ascii	"LFN working buffer could not be allocated\000"
 114      776F726B 
 114      696E6720 
 114      62756666 
 114      65722063 
 115 02ba 0000     		.align	2
 116              	.LC18:
 117 02bc 4E756D62 		.ascii	"Number of open files > _FS_SHARE\000"
 117      6572206F 
 117      66206F70 
 117      656E2066 
 117      696C6573 
 118 02dd 000000   		.align	2
 119              	.LC19:
 120 02e0 47697665 		.ascii	"Given parameter is invalid\000"
 120      6E207061 
 120      72616D65 
 120      74657220 
 120      69732069 
 121 02fb 00       		.align	2
 122              	.LC20:
 123 02fc 556E6B6E 		.ascii	"Unknown\000"
 123      6F776E00 
 124              		.section	.text.fresult_str,"ax",%progbits
 125              		.align	1
 126              		.global	fresult_str
 127              		.syntax unified
 128              		.thumb
 129              		.thumb_func
 130              		.fpu fpv4-sp-d16
 131              		.type	fresult_str, %function
 132              	fresult_str:
 133              		@ args = 0, pretend = 0, frame = 8
 134              		@ frame_needed = 1, uses_anonymous_args = 0
 135              		@ link register save eliminated.
 136 0000 80B4     		push	{r7}
 137 0002 83B0     		sub	sp, sp, #12
 138 0004 00AF     		add	r7, sp, #0
 139 0006 0346     		mov	r3, r0
ARM GAS  /var/folders/d2/nstgp4h54kz7g1l847x_b8wc0000gn/T//ccGxhkCM.s 			page 5


 140 0008 FB71     		strb	r3, [r7, #7]
 141 000a FB79     		ldrb	r3, [r7, #7]	@ zero_extendqisi2
 142 000c 132B     		cmp	r3, #19
 143 000e 53D8     		bhi	.L4
 144 0010 01A2     		adr	r2, .L6
 145 0012 52F823F0 		ldr	pc, [r2, r3, lsl #2]
 146 0016 00BF     		.p2align 2
 147              	.L6:
 148 0018 69000000 		.word	.L5+1
 149 001c 6D000000 		.word	.L7+1
 150 0020 71000000 		.word	.L8+1
 151 0024 75000000 		.word	.L9+1
 152 0028 79000000 		.word	.L10+1
 153 002c 7D000000 		.word	.L11+1
 154 0030 81000000 		.word	.L12+1
 155 0034 85000000 		.word	.L13+1
 156 0038 89000000 		.word	.L14+1
 157 003c 8D000000 		.word	.L15+1
 158 0040 91000000 		.word	.L16+1
 159 0044 95000000 		.word	.L17+1
 160 0048 99000000 		.word	.L18+1
 161 004c 9D000000 		.word	.L19+1
 162 0050 A1000000 		.word	.L20+1
 163 0054 A5000000 		.word	.L21+1
 164 0058 A9000000 		.word	.L22+1
 165 005c AD000000 		.word	.L23+1
 166 0060 B1000000 		.word	.L24+1
 167 0064 B5000000 		.word	.L25+1
 168              		.p2align 1
 169              	.L5:
 170 0068 174B     		ldr	r3, .L27
 171 006a 26E0     		b	.L26
 172              	.L7:
 173 006c 174B     		ldr	r3, .L27+4
 174 006e 24E0     		b	.L26
 175              	.L8:
 176 0070 174B     		ldr	r3, .L27+8
 177 0072 22E0     		b	.L26
 178              	.L9:
 179 0074 174B     		ldr	r3, .L27+12
 180 0076 20E0     		b	.L26
 181              	.L10:
 182 0078 174B     		ldr	r3, .L27+16
 183 007a 1EE0     		b	.L26
 184              	.L11:
 185 007c 174B     		ldr	r3, .L27+20
 186 007e 1CE0     		b	.L26
 187              	.L12:
 188 0080 174B     		ldr	r3, .L27+24
 189 0082 1AE0     		b	.L26
 190              	.L13:
 191 0084 174B     		ldr	r3, .L27+28
 192 0086 18E0     		b	.L26
 193              	.L14:
 194 0088 174B     		ldr	r3, .L27+32
 195 008a 16E0     		b	.L26
 196              	.L15:
ARM GAS  /var/folders/d2/nstgp4h54kz7g1l847x_b8wc0000gn/T//ccGxhkCM.s 			page 6


 197 008c 174B     		ldr	r3, .L27+36
 198 008e 14E0     		b	.L26
 199              	.L16:
 200 0090 174B     		ldr	r3, .L27+40
 201 0092 12E0     		b	.L26
 202              	.L17:
 203 0094 174B     		ldr	r3, .L27+44
 204 0096 10E0     		b	.L26
 205              	.L18:
 206 0098 174B     		ldr	r3, .L27+48
 207 009a 0EE0     		b	.L26
 208              	.L19:
 209 009c 174B     		ldr	r3, .L27+52
 210 009e 0CE0     		b	.L26
 211              	.L20:
 212 00a0 174B     		ldr	r3, .L27+56
 213 00a2 0AE0     		b	.L26
 214              	.L21:
 215 00a4 174B     		ldr	r3, .L27+60
 216 00a6 08E0     		b	.L26
 217              	.L22:
 218 00a8 174B     		ldr	r3, .L27+64
 219 00aa 06E0     		b	.L26
 220              	.L23:
 221 00ac 174B     		ldr	r3, .L27+68
 222 00ae 04E0     		b	.L26
 223              	.L24:
 224 00b0 174B     		ldr	r3, .L27+72
 225 00b2 02E0     		b	.L26
 226              	.L25:
 227 00b4 174B     		ldr	r3, .L27+76
 228 00b6 00E0     		b	.L26
 229              	.L4:
 230 00b8 174B     		ldr	r3, .L27+80
 231              	.L26:
 232 00ba 1846     		mov	r0, r3
 233 00bc 0C37     		adds	r7, r7, #12
 234 00be BD46     		mov	sp, r7
 235              		@ sp needed
 236 00c0 5DF8047B 		ldr	r7, [sp], #4
 237 00c4 7047     		bx	lr
 238              	.L28:
 239 00c6 00BF     		.align	2
 240              	.L27:
 241 00c8 00000000 		.word	.LC0
 242 00cc 0C000000 		.word	.LC1
 243 00d0 44000000 		.word	.LC2
 244 00d4 58000000 		.word	.LC3
 245 00d8 78000000 		.word	.LC4
 246 00dc 90000000 		.word	.LC5
 247 00e0 A8000000 		.word	.LC6
 248 00e4 C8000000 		.word	.LC7
 249 00e8 04010000 		.word	.LC8
 250 00ec 2C010000 		.word	.LC9
 251 00f0 54010000 		.word	.LC10
 252 00f4 7C010000 		.word	.LC11
 253 00f8 A0010000 		.word	.LC12
ARM GAS  /var/folders/d2/nstgp4h54kz7g1l847x_b8wc0000gn/T//ccGxhkCM.s 			page 7


 254 00fc BC010000 		.word	.LC13
 255 0100 DC010000 		.word	.LC14
 256 0104 0C020000 		.word	.LC15
 257 0108 50020000 		.word	.LC16
 258 010c 90020000 		.word	.LC17
 259 0110 BC020000 		.word	.LC18
 260 0114 E0020000 		.word	.LC19
 261 0118 FC020000 		.word	.LC20
 262              		.size	fresult_str, .-fresult_str
 263              		.section	.rodata
 264              		.align	2
 265              	.LC21:
 266 0304 00       		.ascii	"\000"
 267              		.section	.text.mountSDCard,"ax",%progbits
 268              		.align	1
 269              		.global	mountSDCard
 270              		.syntax unified
 271              		.thumb
 272              		.thumb_func
 273              		.fpu fpv4-sp-d16
 274              		.type	mountSDCard, %function
 275              	mountSDCard:
 276              		@ args = 0, pretend = 0, frame = 0
 277              		@ frame_needed = 1, uses_anonymous_args = 0
 278 0000 80B5     		push	{r7, lr}
 279 0002 00AF     		add	r7, sp, #0
 280 0004 0E4B     		ldr	r3, .L34
 281 0006 1B78     		ldrb	r3, [r3]	@ zero_extendqisi2
 282 0008 83F00103 		eor	r3, r3, #1
 283 000c DBB2     		uxtb	r3, r3
 284 000e 002B     		cmp	r3, #0
 285 0010 13D0     		beq	.L30
 286 0012 FFF7FEFF 		bl	sdio_connect
 287 0016 0346     		mov	r3, r0
 288 0018 002B     		cmp	r3, #0
 289 001a 01D0     		beq	.L31
 290 001c 0023     		movs	r3, #0
 291 001e 0DE0     		b	.L32
 292              	.L31:
 293 0020 0022     		movs	r2, #0
 294 0022 0849     		ldr	r1, .L34+4
 295 0024 0848     		ldr	r0, .L34+8
 296 0026 FFF7FEFF 		bl	f_mount
 297 002a 0346     		mov	r3, r0
 298 002c 002B     		cmp	r3, #0
 299 002e 01D0     		beq	.L33
 300 0030 0023     		movs	r3, #0
 301 0032 03E0     		b	.L32
 302              	.L33:
 303 0034 024B     		ldr	r3, .L34
 304 0036 0122     		movs	r2, #1
 305 0038 1A70     		strb	r2, [r3]
 306              	.L30:
 307 003a 0123     		movs	r3, #1
 308              	.L32:
 309 003c 1846     		mov	r0, r3
 310 003e 80BD     		pop	{r7, pc}
ARM GAS  /var/folders/d2/nstgp4h54kz7g1l847x_b8wc0000gn/T//ccGxhkCM.s 			page 8


 311              	.L35:
 312              		.align	2
 313              	.L34:
 314 0040 00000000 		.word	sd_card_mounted
 315 0044 04030000 		.word	.LC21
 316 0048 00000000 		.word	SDC_FS
 317              		.size	mountSDCard, .-mountSDCard
 318              		.section	.text.unmountSDCard,"ax",%progbits
 319              		.align	1
 320              		.global	unmountSDCard
 321              		.syntax unified
 322              		.thumb
 323              		.thumb_func
 324              		.fpu fpv4-sp-d16
 325              		.type	unmountSDCard, %function
 326              	unmountSDCard:
 327              		@ args = 0, pretend = 0, frame = 0
 328              		@ frame_needed = 1, uses_anonymous_args = 0
 329 0000 80B5     		push	{r7, lr}
 330 0002 00AF     		add	r7, sp, #0
 331 0004 0D4B     		ldr	r3, .L41
 332 0006 1B78     		ldrb	r3, [r3]	@ zero_extendqisi2
 333 0008 002B     		cmp	r3, #0
 334 000a 13D0     		beq	.L37
 335 000c FFF7FEFF 		bl	sdio_disconnect
 336 0010 0346     		mov	r3, r0
 337 0012 002B     		cmp	r3, #0
 338 0014 01D0     		beq	.L38
 339 0016 0023     		movs	r3, #0
 340 0018 0DE0     		b	.L39
 341              	.L38:
 342 001a 0022     		movs	r2, #0
 343 001c 0849     		ldr	r1, .L41+4
 344 001e 0020     		movs	r0, #0
 345 0020 FFF7FEFF 		bl	f_mount
 346 0024 0346     		mov	r3, r0
 347 0026 002B     		cmp	r3, #0
 348 0028 01D0     		beq	.L40
 349 002a 0023     		movs	r3, #0
 350 002c 03E0     		b	.L39
 351              	.L40:
 352 002e 034B     		ldr	r3, .L41
 353 0030 0022     		movs	r2, #0
 354 0032 1A70     		strb	r2, [r3]
 355              	.L37:
 356 0034 0123     		movs	r3, #1
 357              	.L39:
 358 0036 1846     		mov	r0, r3
 359 0038 80BD     		pop	{r7, pc}
 360              	.L42:
 361 003a 00BF     		.align	2
 362              	.L41:
 363 003c 00000000 		.word	sd_card_mounted
 364 0040 04030000 		.word	.LC21
 365              		.size	unmountSDCard, .-unmountSDCard
 366              		.section	.text.isSDCardMounted,"ax",%progbits
 367              		.align	1
ARM GAS  /var/folders/d2/nstgp4h54kz7g1l847x_b8wc0000gn/T//ccGxhkCM.s 			page 9


 368              		.global	isSDCardMounted
 369              		.syntax unified
 370              		.thumb
 371              		.thumb_func
 372              		.fpu fpv4-sp-d16
 373              		.type	isSDCardMounted, %function
 374              	isSDCardMounted:
 375              		@ args = 0, pretend = 0, frame = 0
 376              		@ frame_needed = 1, uses_anonymous_args = 0
 377              		@ link register save eliminated.
 378 0000 80B4     		push	{r7}
 379 0002 00AF     		add	r7, sp, #0
 380 0004 034B     		ldr	r3, .L45
 381 0006 1B78     		ldrb	r3, [r3]	@ zero_extendqisi2
 382 0008 1846     		mov	r0, r3
 383 000a BD46     		mov	sp, r7
 384              		@ sp needed
 385 000c 5DF8047B 		ldr	r7, [sp], #4
 386 0010 7047     		bx	lr
 387              	.L46:
 388 0012 00BF     		.align	2
 389              	.L45:
 390 0014 00000000 		.word	sd_card_mounted
 391              		.size	isSDCardMounted, .-isSDCardMounted
 392              		.section	.rodata
 393 0305 000000   		.align	2
 394              	.LC22:
 395 0308 2534642D 		.ascii	"%4d-%02d-%02d %02d:%02d:%02d \000"
 395      25303264 
 395      2D253032 
 395      64202530 
 395      32643A25 
 396 0326 0000     		.align	2
 397              	.LC23:
 398 0328 3C444952 		.ascii	"<DIR> %s/\015\012\000"
 398      3E202573 
 398      2F0D0A00 
 399              		.align	2
 400              	.LC24:
 401 0334 20202020 		.ascii	"      %s/%s\015\012\000"
 401      20202573 
 401      2F25730D 
 401      0A00
 402 0342 0000     		.align	2
 403              	.LC25:
 404 0344 46533A20 		.ascii	"FS: f_opendir() failed\015\012\000"
 404      665F6F70 
 404      656E6469 
 404      72282920 
 404      6661696C 
 405              		.section	.text.scan_files,"ax",%progbits
 406              		.align	1
 407              		.global	scan_files
 408              		.syntax unified
 409              		.thumb
 410              		.thumb_func
 411              		.fpu fpv4-sp-d16
ARM GAS  /var/folders/d2/nstgp4h54kz7g1l847x_b8wc0000gn/T//ccGxhkCM.s 			page 10


 412              		.type	scan_files, %function
 413              	scan_files:
 414              		@ args = 0, pretend = 0, frame = 112
 415              		@ frame_needed = 1, uses_anonymous_args = 0
 416 0000 80B5     		push	{r7, lr}
 417 0002 A0B0     		sub	sp, sp, #128
 418 0004 04AF     		add	r7, sp, #16
 419 0006 7860     		str	r0, [r7, #4]
 420 0008 3960     		str	r1, [r7]
 421 000a 0023     		movs	r3, #0
 422 000c 7B64     		str	r3, [r7, #68]
 423 000e 0023     		movs	r3, #0
 424 0010 BB64     		str	r3, [r7, #72]
 425 0012 07F10803 		add	r3, r7, #8
 426 0016 3968     		ldr	r1, [r7]
 427 0018 1846     		mov	r0, r3
 428 001a FFF7FEFF 		bl	f_opendir
 429 001e 0346     		mov	r3, r0
 430 0020 87F86F30 		strb	r3, [r7, #111]
 431 0024 97F86F30 		ldrb	r3, [r7, #111]	@ zero_extendqisi2
 432 0028 002B     		cmp	r3, #0
 433 002a 40F08480 		bne	.L48
 434 002e 3868     		ldr	r0, [r7]
 435 0030 FFF7FEFF 		bl	strlen
 436 0034 0346     		mov	r3, r0
 437 0036 BB66     		str	r3, [r7, #104]
 438              	.L54:
 439 0038 07F12C02 		add	r2, r7, #44
 440 003c 07F10803 		add	r3, r7, #8
 441 0040 1146     		mov	r1, r2
 442 0042 1846     		mov	r0, r3
 443 0044 FFF7FEFF 		bl	f_readdir
 444 0048 0346     		mov	r3, r0
 445 004a 87F86F30 		strb	r3, [r7, #111]
 446 004e 97F86F30 		ldrb	r3, [r7, #111]	@ zero_extendqisi2
 447 0052 002B     		cmp	r3, #0
 448 0054 75D1     		bne	.L55
 449 0056 97F83530 		ldrb	r3, [r7, #53]	@ zero_extendqisi2
 450 005a 002B     		cmp	r3, #0
 451 005c 71D0     		beq	.L55
 452 005e 97F83530 		ldrb	r3, [r7, #53]	@ zero_extendqisi2
 453 0062 2E2B     		cmp	r3, #46
 454 0064 65D0     		beq	.L57
 455 0066 07F12C03 		add	r3, r7, #44
 456 006a 0933     		adds	r3, r3, #9
 457 006c 7B66     		str	r3, [r7, #100]
 458 006e 3B8E     		ldrh	r3, [r7, #48]
 459 0070 5B0A     		lsrs	r3, r3, #9
 460 0072 9BB2     		uxth	r3, r3
 461 0074 03F2BC73 		addw	r3, r3, #1980
 462 0078 3B66     		str	r3, [r7, #96]
 463 007a 3B8E     		ldrh	r3, [r7, #48]
 464 007c 5B09     		lsrs	r3, r3, #5
 465 007e 9BB2     		uxth	r3, r3
 466 0080 03F00F03 		and	r3, r3, #15
 467 0084 FB65     		str	r3, [r7, #92]
 468 0086 3B8E     		ldrh	r3, [r7, #48]
ARM GAS  /var/folders/d2/nstgp4h54kz7g1l847x_b8wc0000gn/T//ccGxhkCM.s 			page 11


 469 0088 03F01F03 		and	r3, r3, #31
 470 008c BB65     		str	r3, [r7, #88]
 471 008e 7B8E     		ldrh	r3, [r7, #50]
 472 0090 DB0A     		lsrs	r3, r3, #11
 473 0092 9BB2     		uxth	r3, r3
 474 0094 7B65     		str	r3, [r7, #84]
 475 0096 7B8E     		ldrh	r3, [r7, #50]
 476 0098 5B09     		lsrs	r3, r3, #5
 477 009a 9BB2     		uxth	r3, r3
 478 009c 03F03F03 		and	r3, r3, #63
 479 00a0 3B65     		str	r3, [r7, #80]
 480 00a2 7B8E     		ldrh	r3, [r7, #50]
 481 00a4 03F01F03 		and	r3, r3, #31
 482 00a8 5B00     		lsls	r3, r3, #1
 483 00aa FB64     		str	r3, [r7, #76]
 484 00ac FB6C     		ldr	r3, [r7, #76]
 485 00ae 0393     		str	r3, [sp, #12]
 486 00b0 3B6D     		ldr	r3, [r7, #80]
 487 00b2 0293     		str	r3, [sp, #8]
 488 00b4 7B6D     		ldr	r3, [r7, #84]
 489 00b6 0193     		str	r3, [sp, #4]
 490 00b8 BB6D     		ldr	r3, [r7, #88]
 491 00ba 0093     		str	r3, [sp]
 492 00bc FB6D     		ldr	r3, [r7, #92]
 493 00be 3A6E     		ldr	r2, [r7, #96]
 494 00c0 2349     		ldr	r1, .L59
 495 00c2 7868     		ldr	r0, [r7, #4]
 496 00c4 FFF7FEFF 		bl	chprintf
 497 00c8 97F83430 		ldrb	r3, [r7, #52]	@ zero_extendqisi2
 498 00cc 03F01003 		and	r3, r3, #16
 499 00d0 002B     		cmp	r3, #0
 500 00d2 27D0     		beq	.L52
 501 00d4 BB6E     		ldr	r3, [r7, #104]
 502 00d6 5A1C     		adds	r2, r3, #1
 503 00d8 BA66     		str	r2, [r7, #104]
 504 00da 1A46     		mov	r2, r3
 505 00dc 3B68     		ldr	r3, [r7]
 506 00de 1344     		add	r3, r3, r2
 507 00e0 2F22     		movs	r2, #47
 508 00e2 1A70     		strb	r2, [r3]
 509 00e4 BB6E     		ldr	r3, [r7, #104]
 510 00e6 3A68     		ldr	r2, [r7]
 511 00e8 1344     		add	r3, r3, r2
 512 00ea 796E     		ldr	r1, [r7, #100]
 513 00ec 1846     		mov	r0, r3
 514 00ee FFF7FEFF 		bl	strcpy
 515 00f2 3A68     		ldr	r2, [r7]
 516 00f4 1749     		ldr	r1, .L59+4
 517 00f6 7868     		ldr	r0, [r7, #4]
 518 00f8 FFF7FEFF 		bl	chprintf
 519 00fc 3968     		ldr	r1, [r7]
 520 00fe 7868     		ldr	r0, [r7, #4]
 521 0100 FFF7FEFF 		bl	scan_files
 522 0104 0346     		mov	r3, r0
 523 0106 87F86F30 		strb	r3, [r7, #111]
 524 010a 97F86F30 		ldrb	r3, [r7, #111]	@ zero_extendqisi2
 525 010e 002B     		cmp	r3, #0
ARM GAS  /var/folders/d2/nstgp4h54kz7g1l847x_b8wc0000gn/T//ccGxhkCM.s 			page 12


 526 0110 16D1     		bne	.L58
 527 0112 BB6E     		ldr	r3, [r7, #104]
 528 0114 013B     		subs	r3, r3, #1
 529 0116 BB66     		str	r3, [r7, #104]
 530 0118 BB6E     		ldr	r3, [r7, #104]
 531 011a 3A68     		ldr	r2, [r7]
 532 011c 1344     		add	r3, r3, r2
 533 011e 0022     		movs	r2, #0
 534 0120 1A70     		strb	r2, [r3]
 535 0122 89E7     		b	.L54
 536              	.L52:
 537 0124 7B6E     		ldr	r3, [r7, #100]
 538 0126 3A68     		ldr	r2, [r7]
 539 0128 0B49     		ldr	r1, .L59+8
 540 012a 7868     		ldr	r0, [r7, #4]
 541 012c FFF7FEFF 		bl	chprintf
 542 0130 82E7     		b	.L54
 543              	.L57:
 544 0132 00BF     		nop
 545 0134 80E7     		b	.L54
 546              	.L48:
 547 0136 0949     		ldr	r1, .L59+12
 548 0138 7868     		ldr	r0, [r7, #4]
 549 013a FFF7FEFF 		bl	chprintf
 550 013e 00E0     		b	.L55
 551              	.L58:
 552 0140 00BF     		nop
 553              	.L55:
 554 0142 97F86F30 		ldrb	r3, [r7, #111]	@ zero_extendqisi2
 555 0146 1846     		mov	r0, r3
 556 0148 7037     		adds	r7, r7, #112
 557 014a BD46     		mov	sp, r7
 558              		@ sp needed
 559 014c 80BD     		pop	{r7, pc}
 560              	.L60:
 561 014e 00BF     		.align	2
 562              	.L59:
 563 0150 08030000 		.word	.LC22
 564 0154 28030000 		.word	.LC23
 565 0158 34030000 		.word	.LC24
 566 015c 44030000 		.word	.LC25
 567              		.size	scan_files, .-scan_files
 568              		.section	.text.getSDCardClusterSize,"ax",%progbits
 569              		.align	1
 570              		.global	getSDCardClusterSize
 571              		.syntax unified
 572              		.thumb
 573              		.thumb_func
 574              		.fpu fpv4-sp-d16
 575              		.type	getSDCardClusterSize, %function
 576              	getSDCardClusterSize:
 577              		@ args = 0, pretend = 0, frame = 0
 578              		@ frame_needed = 1, uses_anonymous_args = 0
 579              		@ link register save eliminated.
 580 0000 80B4     		push	{r7}
 581 0002 00AF     		add	r7, sp, #0
 582 0004 034B     		ldr	r3, .L63
ARM GAS  /var/folders/d2/nstgp4h54kz7g1l847x_b8wc0000gn/T//ccGxhkCM.s 			page 13


 583 0006 9B78     		ldrb	r3, [r3, #2]	@ zero_extendqisi2
 584 0008 1846     		mov	r0, r3
 585 000a BD46     		mov	sp, r7
 586              		@ sp needed
 587 000c 5DF8047B 		ldr	r7, [sp], #4
 588 0010 7047     		bx	lr
 589              	.L64:
 590 0012 00BF     		.align	2
 591              	.L63:
 592 0014 00000000 		.word	SDC_FS
 593              		.size	getSDCardClusterSize, .-getSDCardClusterSize
 594              		.section	.rodata
 595 035d 000000   		.align	2
 596              	.LC26:
 597 0360 0925732E 		.ascii	"\011%s.\015\012\000"
 597      0D0A00
 598              		.section	.text.fverbose_error,"ax",%progbits
 599              		.align	1
 600              		.global	fverbose_error
 601              		.syntax unified
 602              		.thumb
 603              		.thumb_func
 604              		.fpu fpv4-sp-d16
 605              		.type	fverbose_error, %function
 606              	fverbose_error:
 607              		@ args = 0, pretend = 0, frame = 8
 608              		@ frame_needed = 1, uses_anonymous_args = 0
 609 0000 80B5     		push	{r7, lr}
 610 0002 82B0     		sub	sp, sp, #8
 611 0004 00AF     		add	r7, sp, #0
 612 0006 7860     		str	r0, [r7, #4]
 613 0008 0B46     		mov	r3, r1
 614 000a FB70     		strb	r3, [r7, #3]
 615 000c FB78     		ldrb	r3, [r7, #3]	@ zero_extendqisi2
 616 000e 1846     		mov	r0, r3
 617 0010 FFF7FEFF 		bl	fresult_str
 618 0014 0346     		mov	r3, r0
 619 0016 1A46     		mov	r2, r3
 620 0018 0349     		ldr	r1, .L66
 621 001a 7868     		ldr	r0, [r7, #4]
 622 001c FFF7FEFF 		bl	chprintf
 623 0020 00BF     		nop
 624 0022 0837     		adds	r7, r7, #8
 625 0024 BD46     		mov	sp, r7
 626              		@ sp needed
 627 0026 80BD     		pop	{r7, pc}
 628              	.L67:
 629              		.align	2
 630              	.L66:
 631 0028 60030000 		.word	.LC26
 632              		.size	fverbose_error, .-fverbose_error
 633              		.ident	"GCC: (GNU Tools for Arm Embedded Processors 7-2017-q4-major) 7.2.1 20170904 (release) [ARM
ARM GAS  /var/folders/d2/nstgp4h54kz7g1l847x_b8wc0000gn/T//ccGxhkCM.s 			page 14

