ARM GAS  /var/folders/d2/nstgp4h54kz7g1l847x_b8wc0000gn/T//ccrhfnpm.s 			page 1


   1              		.cpu cortex-m4
   2              		.eabi_attribute 27, 1
   3              		.eabi_attribute 28, 1
   4              		.eabi_attribute 20, 1
   5              		.eabi_attribute 21, 1
   6              		.eabi_attribute 23, 3
   7              		.eabi_attribute 24, 1
   8              		.eabi_attribute 25, 1
   9              		.eabi_attribute 26, 1
  10              		.eabi_attribute 30, 6
  11              		.eabi_attribute 34, 1
  12              		.eabi_attribute 18, 4
  13              		.file	"ff.c"
  14              		.section	.bss.FatFs,"aw",%nobits
  15              		.align	2
  16              		.type	FatFs, %object
  17              		.size	FatFs, 4
  18              	FatFs:
  19 0000 00000000 		.space	4
  20              		.section	.bss.Fsid,"aw",%nobits
  21              		.align	1
  22              		.type	Fsid, %object
  23              		.size	Fsid, 2
  24              	Fsid:
  25 0000 0000     		.space	2
  26              		.section	.rodata.ExCvt,"a",%progbits
  27              		.align	2
  28              		.type	ExCvt, %object
  29              		.size	ExCvt, 128
  30              	ExCvt:
  31 0000 80       		.byte	-128
  32 0001 81       		.byte	-127
  33 0002 82       		.byte	-126
  34 0003 83       		.byte	-125
  35 0004 84       		.byte	-124
  36 0005 85       		.byte	-123
  37 0006 86       		.byte	-122
  38 0007 87       		.byte	-121
  39 0008 88       		.byte	-120
  40 0009 89       		.byte	-119
  41 000a 8A       		.byte	-118
  42 000b 8B       		.byte	-117
  43 000c 8C       		.byte	-116
  44 000d 8D       		.byte	-115
  45 000e 8E       		.byte	-114
  46 000f 8F       		.byte	-113
  47 0010 90       		.byte	-112
  48 0011 91       		.byte	-111
  49 0012 92       		.byte	-110
  50 0013 93       		.byte	-109
  51 0014 94       		.byte	-108
  52 0015 95       		.byte	-107
  53 0016 96       		.byte	-106
  54 0017 97       		.byte	-105
  55 0018 98       		.byte	-104
  56 0019 99       		.byte	-103
  57 001a AD       		.byte	-83
ARM GAS  /var/folders/d2/nstgp4h54kz7g1l847x_b8wc0000gn/T//ccrhfnpm.s 			page 2


  58 001b 9B       		.byte	-101
  59 001c 8C       		.byte	-116
  60 001d 9D       		.byte	-99
  61 001e AE       		.byte	-82
  62 001f 9F       		.byte	-97
  63 0020 A0       		.byte	-96
  64 0021 21       		.byte	33
  65 0022 A2       		.byte	-94
  66 0023 A3       		.byte	-93
  67 0024 A4       		.byte	-92
  68 0025 A5       		.byte	-91
  69 0026 A6       		.byte	-90
  70 0027 A7       		.byte	-89
  71 0028 A8       		.byte	-88
  72 0029 A9       		.byte	-87
  73 002a AA       		.byte	-86
  74 002b AB       		.byte	-85
  75 002c AC       		.byte	-84
  76 002d AD       		.byte	-83
  77 002e AE       		.byte	-82
  78 002f AF       		.byte	-81
  79 0030 B0       		.byte	-80
  80 0031 B1       		.byte	-79
  81 0032 B2       		.byte	-78
  82 0033 B3       		.byte	-77
  83 0034 B4       		.byte	-76
  84 0035 B5       		.byte	-75
  85 0036 B6       		.byte	-74
  86 0037 B7       		.byte	-73
  87 0038 B8       		.byte	-72
  88 0039 B9       		.byte	-71
  89 003a BA       		.byte	-70
  90 003b BB       		.byte	-69
  91 003c BC       		.byte	-68
  92 003d BD       		.byte	-67
  93 003e BE       		.byte	-66
  94 003f BF       		.byte	-65
  95 0040 C0       		.byte	-64
  96 0041 C1       		.byte	-63
  97 0042 C2       		.byte	-62
  98 0043 C3       		.byte	-61
  99 0044 C4       		.byte	-60
 100 0045 C5       		.byte	-59
 101 0046 C6       		.byte	-58
 102 0047 C7       		.byte	-57
 103 0048 C8       		.byte	-56
 104 0049 C9       		.byte	-55
 105 004a CA       		.byte	-54
 106 004b CB       		.byte	-53
 107 004c CC       		.byte	-52
 108 004d CD       		.byte	-51
 109 004e CE       		.byte	-50
 110 004f CF       		.byte	-49
 111 0050 D0       		.byte	-48
 112 0051 D1       		.byte	-47
 113 0052 D2       		.byte	-46
 114 0053 D3       		.byte	-45
ARM GAS  /var/folders/d2/nstgp4h54kz7g1l847x_b8wc0000gn/T//ccrhfnpm.s 			page 3


 115 0054 D4       		.byte	-44
 116 0055 D5       		.byte	-43
 117 0056 D6       		.byte	-42
 118 0057 D7       		.byte	-41
 119 0058 D8       		.byte	-40
 120 0059 D9       		.byte	-39
 121 005a DA       		.byte	-38
 122 005b DB       		.byte	-37
 123 005c DC       		.byte	-36
 124 005d DD       		.byte	-35
 125 005e DE       		.byte	-34
 126 005f DF       		.byte	-33
 127 0060 C0       		.byte	-64
 128 0061 C1       		.byte	-63
 129 0062 C2       		.byte	-62
 130 0063 C3       		.byte	-61
 131 0064 C4       		.byte	-60
 132 0065 C5       		.byte	-59
 133 0066 C6       		.byte	-58
 134 0067 C7       		.byte	-57
 135 0068 C8       		.byte	-56
 136 0069 C9       		.byte	-55
 137 006a CA       		.byte	-54
 138 006b CB       		.byte	-53
 139 006c CC       		.byte	-52
 140 006d CD       		.byte	-51
 141 006e CE       		.byte	-50
 142 006f CF       		.byte	-49
 143 0070 D0       		.byte	-48
 144 0071 D1       		.byte	-47
 145 0072 D2       		.byte	-46
 146 0073 D3       		.byte	-45
 147 0074 D4       		.byte	-44
 148 0075 D5       		.byte	-43
 149 0076 D6       		.byte	-42
 150 0077 F7       		.byte	-9
 151 0078 D8       		.byte	-40
 152 0079 D9       		.byte	-39
 153 007a DA       		.byte	-38
 154 007b DB       		.byte	-37
 155 007c DC       		.byte	-36
 156 007d DD       		.byte	-35
 157 007e DE       		.byte	-34
 158 007f 9F       		.byte	-97
 159              		.section	.text.mem_cpy,"ax",%progbits
 160              		.align	1
 161              		.syntax unified
 162              		.thumb
 163              		.thumb_func
 164              		.fpu fpv4-sp-d16
 165              		.type	mem_cpy, %function
 166              	mem_cpy:
 167              		@ args = 0, pretend = 0, frame = 24
 168              		@ frame_needed = 1, uses_anonymous_args = 0
 169              		@ link register save eliminated.
 170 0000 80B4     		push	{r7}
 171 0002 87B0     		sub	sp, sp, #28
ARM GAS  /var/folders/d2/nstgp4h54kz7g1l847x_b8wc0000gn/T//ccrhfnpm.s 			page 4


 172 0004 00AF     		add	r7, sp, #0
 173 0006 F860     		str	r0, [r7, #12]
 174 0008 B960     		str	r1, [r7, #8]
 175 000a 7A60     		str	r2, [r7, #4]
 176 000c FB68     		ldr	r3, [r7, #12]
 177 000e 7B61     		str	r3, [r7, #20]
 178 0010 BB68     		ldr	r3, [r7, #8]
 179 0012 3B61     		str	r3, [r7, #16]
 180 0014 07E0     		b	.L2
 181              	.L3:
 182 0016 3A69     		ldr	r2, [r7, #16]
 183 0018 531C     		adds	r3, r2, #1
 184 001a 3B61     		str	r3, [r7, #16]
 185 001c 7B69     		ldr	r3, [r7, #20]
 186 001e 591C     		adds	r1, r3, #1
 187 0020 7961     		str	r1, [r7, #20]
 188 0022 1278     		ldrb	r2, [r2]	@ zero_extendqisi2
 189 0024 1A70     		strb	r2, [r3]
 190              	.L2:
 191 0026 7B68     		ldr	r3, [r7, #4]
 192 0028 5A1E     		subs	r2, r3, #1
 193 002a 7A60     		str	r2, [r7, #4]
 194 002c 002B     		cmp	r3, #0
 195 002e F2D1     		bne	.L3
 196 0030 00BF     		nop
 197 0032 1C37     		adds	r7, r7, #28
 198 0034 BD46     		mov	sp, r7
 199              		@ sp needed
 200 0036 5DF8047B 		ldr	r7, [sp], #4
 201 003a 7047     		bx	lr
 202              		.size	mem_cpy, .-mem_cpy
 203              		.section	.text.mem_set,"ax",%progbits
 204              		.align	1
 205              		.syntax unified
 206              		.thumb
 207              		.thumb_func
 208              		.fpu fpv4-sp-d16
 209              		.type	mem_set, %function
 210              	mem_set:
 211              		@ args = 0, pretend = 0, frame = 24
 212              		@ frame_needed = 1, uses_anonymous_args = 0
 213              		@ link register save eliminated.
 214 0000 80B4     		push	{r7}
 215 0002 87B0     		sub	sp, sp, #28
 216 0004 00AF     		add	r7, sp, #0
 217 0006 F860     		str	r0, [r7, #12]
 218 0008 B960     		str	r1, [r7, #8]
 219 000a 7A60     		str	r2, [r7, #4]
 220 000c FB68     		ldr	r3, [r7, #12]
 221 000e 7B61     		str	r3, [r7, #20]
 222 0010 05E0     		b	.L5
 223              	.L6:
 224 0012 7B69     		ldr	r3, [r7, #20]
 225 0014 5A1C     		adds	r2, r3, #1
 226 0016 7A61     		str	r2, [r7, #20]
 227 0018 BA68     		ldr	r2, [r7, #8]
 228 001a D2B2     		uxtb	r2, r2
ARM GAS  /var/folders/d2/nstgp4h54kz7g1l847x_b8wc0000gn/T//ccrhfnpm.s 			page 5


 229 001c 1A70     		strb	r2, [r3]
 230              	.L5:
 231 001e 7B68     		ldr	r3, [r7, #4]
 232 0020 5A1E     		subs	r2, r3, #1
 233 0022 7A60     		str	r2, [r7, #4]
 234 0024 002B     		cmp	r3, #0
 235 0026 F4D1     		bne	.L6
 236 0028 00BF     		nop
 237 002a 1C37     		adds	r7, r7, #28
 238 002c BD46     		mov	sp, r7
 239              		@ sp needed
 240 002e 5DF8047B 		ldr	r7, [sp], #4
 241 0032 7047     		bx	lr
 242              		.size	mem_set, .-mem_set
 243              		.section	.text.mem_cmp,"ax",%progbits
 244              		.align	1
 245              		.syntax unified
 246              		.thumb
 247              		.thumb_func
 248              		.fpu fpv4-sp-d16
 249              		.type	mem_cmp, %function
 250              	mem_cmp:
 251              		@ args = 0, pretend = 0, frame = 32
 252              		@ frame_needed = 1, uses_anonymous_args = 0
 253              		@ link register save eliminated.
 254 0000 80B4     		push	{r7}
 255 0002 89B0     		sub	sp, sp, #36
 256 0004 00AF     		add	r7, sp, #0
 257 0006 F860     		str	r0, [r7, #12]
 258 0008 B960     		str	r1, [r7, #8]
 259 000a 7A60     		str	r2, [r7, #4]
 260 000c FB68     		ldr	r3, [r7, #12]
 261 000e FB61     		str	r3, [r7, #28]
 262 0010 BB68     		ldr	r3, [r7, #8]
 263 0012 BB61     		str	r3, [r7, #24]
 264 0014 0023     		movs	r3, #0
 265 0016 7B61     		str	r3, [r7, #20]
 266 0018 00BF     		nop
 267              	.L9:
 268 001a 7B68     		ldr	r3, [r7, #4]
 269 001c 5A1E     		subs	r2, r3, #1
 270 001e 7A60     		str	r2, [r7, #4]
 271 0020 002B     		cmp	r3, #0
 272 0022 0DD0     		beq	.L8
 273 0024 FB69     		ldr	r3, [r7, #28]
 274 0026 5A1C     		adds	r2, r3, #1
 275 0028 FA61     		str	r2, [r7, #28]
 276 002a 1B78     		ldrb	r3, [r3]	@ zero_extendqisi2
 277 002c 1946     		mov	r1, r3
 278 002e BB69     		ldr	r3, [r7, #24]
 279 0030 5A1C     		adds	r2, r3, #1
 280 0032 BA61     		str	r2, [r7, #24]
 281 0034 1B78     		ldrb	r3, [r3]	@ zero_extendqisi2
 282 0036 CB1A     		subs	r3, r1, r3
 283 0038 7B61     		str	r3, [r7, #20]
 284 003a 7B69     		ldr	r3, [r7, #20]
 285 003c 002B     		cmp	r3, #0
ARM GAS  /var/folders/d2/nstgp4h54kz7g1l847x_b8wc0000gn/T//ccrhfnpm.s 			page 6


 286 003e ECD0     		beq	.L9
 287              	.L8:
 288 0040 7B69     		ldr	r3, [r7, #20]
 289 0042 1846     		mov	r0, r3
 290 0044 2437     		adds	r7, r7, #36
 291 0046 BD46     		mov	sp, r7
 292              		@ sp needed
 293 0048 5DF8047B 		ldr	r7, [sp], #4
 294 004c 7047     		bx	lr
 295              		.size	mem_cmp, .-mem_cmp
 296              		.section	.text.chk_chr,"ax",%progbits
 297              		.align	1
 298              		.syntax unified
 299              		.thumb
 300              		.thumb_func
 301              		.fpu fpv4-sp-d16
 302              		.type	chk_chr, %function
 303              	chk_chr:
 304              		@ args = 0, pretend = 0, frame = 8
 305              		@ frame_needed = 1, uses_anonymous_args = 0
 306              		@ link register save eliminated.
 307 0000 80B4     		push	{r7}
 308 0002 83B0     		sub	sp, sp, #12
 309 0004 00AF     		add	r7, sp, #0
 310 0006 7860     		str	r0, [r7, #4]
 311 0008 3960     		str	r1, [r7]
 312 000a 02E0     		b	.L12
 313              	.L14:
 314 000c 7B68     		ldr	r3, [r7, #4]
 315 000e 0133     		adds	r3, r3, #1
 316 0010 7B60     		str	r3, [r7, #4]
 317              	.L12:
 318 0012 7B68     		ldr	r3, [r7, #4]
 319 0014 1B78     		ldrb	r3, [r3]	@ zero_extendqisi2
 320 0016 002B     		cmp	r3, #0
 321 0018 05D0     		beq	.L13
 322 001a 7B68     		ldr	r3, [r7, #4]
 323 001c 1B78     		ldrb	r3, [r3]	@ zero_extendqisi2
 324 001e 1A46     		mov	r2, r3
 325 0020 3B68     		ldr	r3, [r7]
 326 0022 9342     		cmp	r3, r2
 327 0024 F2D1     		bne	.L14
 328              	.L13:
 329 0026 7B68     		ldr	r3, [r7, #4]
 330 0028 1B78     		ldrb	r3, [r3]	@ zero_extendqisi2
 331 002a 1846     		mov	r0, r3
 332 002c 0C37     		adds	r7, r7, #12
 333 002e BD46     		mov	sp, r7
 334              		@ sp needed
 335 0030 5DF8047B 		ldr	r7, [sp], #4
 336 0034 7047     		bx	lr
 337              		.size	chk_chr, .-chk_chr
 338              		.section	.text.sync_window,"ax",%progbits
 339              		.align	1
 340              		.syntax unified
 341              		.thumb
 342              		.thumb_func
ARM GAS  /var/folders/d2/nstgp4h54kz7g1l847x_b8wc0000gn/T//ccrhfnpm.s 			page 7


 343              		.fpu fpv4-sp-d16
 344              		.type	sync_window, %function
 345              	sync_window:
 346              		@ args = 0, pretend = 0, frame = 16
 347              		@ frame_needed = 1, uses_anonymous_args = 0
 348 0000 80B5     		push	{r7, lr}
 349 0002 84B0     		sub	sp, sp, #16
 350 0004 00AF     		add	r7, sp, #0
 351 0006 7860     		str	r0, [r7, #4]
 352 0008 7B68     		ldr	r3, [r7, #4]
 353 000a 1B79     		ldrb	r3, [r3, #4]	@ zero_extendqisi2
 354 000c 002B     		cmp	r3, #0
 355 000e 33D0     		beq	.L17
 356 0010 7B68     		ldr	r3, [r7, #4]
 357 0012 DB6A     		ldr	r3, [r3, #44]
 358 0014 FB60     		str	r3, [r7, #12]
 359 0016 7B68     		ldr	r3, [r7, #4]
 360 0018 5878     		ldrb	r0, [r3, #1]	@ zero_extendqisi2
 361 001a 7B68     		ldr	r3, [r7, #4]
 362 001c 03F13001 		add	r1, r3, #48
 363 0020 0123     		movs	r3, #1
 364 0022 FA68     		ldr	r2, [r7, #12]
 365 0024 FFF7FEFF 		bl	disk_write
 366 0028 0346     		mov	r3, r0
 367 002a 002B     		cmp	r3, #0
 368 002c 01D0     		beq	.L18
 369 002e 0123     		movs	r3, #1
 370 0030 23E0     		b	.L19
 371              	.L18:
 372 0032 7B68     		ldr	r3, [r7, #4]
 373 0034 0022     		movs	r2, #0
 374 0036 1A71     		strb	r2, [r3, #4]
 375 0038 7B68     		ldr	r3, [r7, #4]
 376 003a 1B6A     		ldr	r3, [r3, #32]
 377 003c FA68     		ldr	r2, [r7, #12]
 378 003e D21A     		subs	r2, r2, r3
 379 0040 7B68     		ldr	r3, [r7, #4]
 380 0042 9B69     		ldr	r3, [r3, #24]
 381 0044 9A42     		cmp	r2, r3
 382 0046 17D2     		bcs	.L17
 383 0048 7B68     		ldr	r3, [r7, #4]
 384 004a DB78     		ldrb	r3, [r3, #3]	@ zero_extendqisi2
 385 004c BB60     		str	r3, [r7, #8]
 386 004e 10E0     		b	.L20
 387              	.L21:
 388 0050 7B68     		ldr	r3, [r7, #4]
 389 0052 9B69     		ldr	r3, [r3, #24]
 390 0054 FA68     		ldr	r2, [r7, #12]
 391 0056 1344     		add	r3, r3, r2
 392 0058 FB60     		str	r3, [r7, #12]
 393 005a 7B68     		ldr	r3, [r7, #4]
 394 005c 5878     		ldrb	r0, [r3, #1]	@ zero_extendqisi2
 395 005e 7B68     		ldr	r3, [r7, #4]
 396 0060 03F13001 		add	r1, r3, #48
 397 0064 0123     		movs	r3, #1
 398 0066 FA68     		ldr	r2, [r7, #12]
 399 0068 FFF7FEFF 		bl	disk_write
ARM GAS  /var/folders/d2/nstgp4h54kz7g1l847x_b8wc0000gn/T//ccrhfnpm.s 			page 8


 400 006c BB68     		ldr	r3, [r7, #8]
 401 006e 013B     		subs	r3, r3, #1
 402 0070 BB60     		str	r3, [r7, #8]
 403              	.L20:
 404 0072 BB68     		ldr	r3, [r7, #8]
 405 0074 012B     		cmp	r3, #1
 406 0076 EBD8     		bhi	.L21
 407              	.L17:
 408 0078 0023     		movs	r3, #0
 409              	.L19:
 410 007a 1846     		mov	r0, r3
 411 007c 1037     		adds	r7, r7, #16
 412 007e BD46     		mov	sp, r7
 413              		@ sp needed
 414 0080 80BD     		pop	{r7, pc}
 415              		.size	sync_window, .-sync_window
 416              		.section	.text.move_window,"ax",%progbits
 417              		.align	1
 418              		.syntax unified
 419              		.thumb
 420              		.thumb_func
 421              		.fpu fpv4-sp-d16
 422              		.type	move_window, %function
 423              	move_window:
 424              		@ args = 0, pretend = 0, frame = 8
 425              		@ frame_needed = 1, uses_anonymous_args = 0
 426 0000 80B5     		push	{r7, lr}
 427 0002 82B0     		sub	sp, sp, #8
 428 0004 00AF     		add	r7, sp, #0
 429 0006 7860     		str	r0, [r7, #4]
 430 0008 3960     		str	r1, [r7]
 431 000a 7B68     		ldr	r3, [r7, #4]
 432 000c DB6A     		ldr	r3, [r3, #44]
 433 000e 3A68     		ldr	r2, [r7]
 434 0010 9A42     		cmp	r2, r3
 435 0012 18D0     		beq	.L23
 436 0014 7868     		ldr	r0, [r7, #4]
 437 0016 FFF7FEFF 		bl	sync_window
 438 001a 0346     		mov	r3, r0
 439 001c 002B     		cmp	r3, #0
 440 001e 01D0     		beq	.L24
 441 0020 0123     		movs	r3, #1
 442 0022 11E0     		b	.L25
 443              	.L24:
 444 0024 7B68     		ldr	r3, [r7, #4]
 445 0026 5878     		ldrb	r0, [r3, #1]	@ zero_extendqisi2
 446 0028 7B68     		ldr	r3, [r7, #4]
 447 002a 03F13001 		add	r1, r3, #48
 448 002e 0123     		movs	r3, #1
 449 0030 3A68     		ldr	r2, [r7]
 450 0032 FFF7FEFF 		bl	disk_read
 451 0036 0346     		mov	r3, r0
 452 0038 002B     		cmp	r3, #0
 453 003a 01D0     		beq	.L26
 454 003c 0123     		movs	r3, #1
 455 003e 03E0     		b	.L25
 456              	.L26:
ARM GAS  /var/folders/d2/nstgp4h54kz7g1l847x_b8wc0000gn/T//ccrhfnpm.s 			page 9


 457 0040 7B68     		ldr	r3, [r7, #4]
 458 0042 3A68     		ldr	r2, [r7]
 459 0044 DA62     		str	r2, [r3, #44]
 460              	.L23:
 461 0046 0023     		movs	r3, #0
 462              	.L25:
 463 0048 1846     		mov	r0, r3
 464 004a 0837     		adds	r7, r7, #8
 465 004c BD46     		mov	sp, r7
 466              		@ sp needed
 467 004e 80BD     		pop	{r7, pc}
 468              		.size	move_window, .-move_window
 469              		.section	.text.sync_fs,"ax",%progbits
 470              		.align	1
 471              		.syntax unified
 472              		.thumb
 473              		.thumb_func
 474              		.fpu fpv4-sp-d16
 475              		.type	sync_fs, %function
 476              	sync_fs:
 477              		@ args = 0, pretend = 0, frame = 16
 478              		@ frame_needed = 1, uses_anonymous_args = 0
 479 0000 80B5     		push	{r7, lr}
 480 0002 84B0     		sub	sp, sp, #16
 481 0004 00AF     		add	r7, sp, #0
 482 0006 7860     		str	r0, [r7, #4]
 483 0008 7868     		ldr	r0, [r7, #4]
 484 000a FFF7FEFF 		bl	sync_window
 485 000e 0346     		mov	r3, r0
 486 0010 FB73     		strb	r3, [r7, #15]
 487 0012 FB7B     		ldrb	r3, [r7, #15]	@ zero_extendqisi2
 488 0014 002B     		cmp	r3, #0
 489 0016 40F09080 		bne	.L28
 490 001a 7B68     		ldr	r3, [r7, #4]
 491 001c 1B78     		ldrb	r3, [r3]	@ zero_extendqisi2
 492 001e 032B     		cmp	r3, #3
 493 0020 7FD1     		bne	.L29
 494 0022 7B68     		ldr	r3, [r7, #4]
 495 0024 5B79     		ldrb	r3, [r3, #5]	@ zero_extendqisi2
 496 0026 012B     		cmp	r3, #1
 497 0028 7BD1     		bne	.L29
 498 002a 7B68     		ldr	r3, [r7, #4]
 499 002c 3033     		adds	r3, r3, #48
 500 002e 4FF40072 		mov	r2, #512
 501 0032 0021     		movs	r1, #0
 502 0034 1846     		mov	r0, r3
 503 0036 FFF7FEFF 		bl	mem_set
 504 003a 7B68     		ldr	r3, [r7, #4]
 505 003c 5522     		movs	r2, #85
 506 003e 83F82E22 		strb	r2, [r3, #558]
 507 0042 7B68     		ldr	r3, [r7, #4]
 508 0044 AA22     		movs	r2, #170
 509 0046 83F82F22 		strb	r2, [r3, #559]
 510 004a 7B68     		ldr	r3, [r7, #4]
 511 004c 5222     		movs	r2, #82
 512 004e 83F83020 		strb	r2, [r3, #48]
 513 0052 7B68     		ldr	r3, [r7, #4]
ARM GAS  /var/folders/d2/nstgp4h54kz7g1l847x_b8wc0000gn/T//ccrhfnpm.s 			page 10


 514 0054 5222     		movs	r2, #82
 515 0056 83F83120 		strb	r2, [r3, #49]
 516 005a 7B68     		ldr	r3, [r7, #4]
 517 005c 6122     		movs	r2, #97
 518 005e 83F83220 		strb	r2, [r3, #50]
 519 0062 7B68     		ldr	r3, [r7, #4]
 520 0064 4122     		movs	r2, #65
 521 0066 83F83320 		strb	r2, [r3, #51]
 522 006a 7B68     		ldr	r3, [r7, #4]
 523 006c 7222     		movs	r2, #114
 524 006e 83F81422 		strb	r2, [r3, #532]
 525 0072 7B68     		ldr	r3, [r7, #4]
 526 0074 7222     		movs	r2, #114
 527 0076 83F81522 		strb	r2, [r3, #533]
 528 007a 7B68     		ldr	r3, [r7, #4]
 529 007c 4122     		movs	r2, #65
 530 007e 83F81622 		strb	r2, [r3, #534]
 531 0082 7B68     		ldr	r3, [r7, #4]
 532 0084 6122     		movs	r2, #97
 533 0086 83F81722 		strb	r2, [r3, #535]
 534 008a 7B68     		ldr	r3, [r7, #4]
 535 008c 1B69     		ldr	r3, [r3, #16]
 536 008e DAB2     		uxtb	r2, r3
 537 0090 7B68     		ldr	r3, [r7, #4]
 538 0092 83F81822 		strb	r2, [r3, #536]
 539 0096 7B68     		ldr	r3, [r7, #4]
 540 0098 1B69     		ldr	r3, [r3, #16]
 541 009a 9BB2     		uxth	r3, r3
 542 009c 1B0A     		lsrs	r3, r3, #8
 543 009e 9BB2     		uxth	r3, r3
 544 00a0 DAB2     		uxtb	r2, r3
 545 00a2 7B68     		ldr	r3, [r7, #4]
 546 00a4 83F81922 		strb	r2, [r3, #537]
 547 00a8 7B68     		ldr	r3, [r7, #4]
 548 00aa 1B69     		ldr	r3, [r3, #16]
 549 00ac 1B0C     		lsrs	r3, r3, #16
 550 00ae DAB2     		uxtb	r2, r3
 551 00b0 7B68     		ldr	r3, [r7, #4]
 552 00b2 83F81A22 		strb	r2, [r3, #538]
 553 00b6 7B68     		ldr	r3, [r7, #4]
 554 00b8 1B69     		ldr	r3, [r3, #16]
 555 00ba 1B0E     		lsrs	r3, r3, #24
 556 00bc DAB2     		uxtb	r2, r3
 557 00be 7B68     		ldr	r3, [r7, #4]
 558 00c0 83F81B22 		strb	r2, [r3, #539]
 559 00c4 7B68     		ldr	r3, [r7, #4]
 560 00c6 DB68     		ldr	r3, [r3, #12]
 561 00c8 DAB2     		uxtb	r2, r3
 562 00ca 7B68     		ldr	r3, [r7, #4]
 563 00cc 83F81C22 		strb	r2, [r3, #540]
 564 00d0 7B68     		ldr	r3, [r7, #4]
 565 00d2 DB68     		ldr	r3, [r3, #12]
 566 00d4 9BB2     		uxth	r3, r3
 567 00d6 1B0A     		lsrs	r3, r3, #8
 568 00d8 9BB2     		uxth	r3, r3
 569 00da DAB2     		uxtb	r2, r3
 570 00dc 7B68     		ldr	r3, [r7, #4]
ARM GAS  /var/folders/d2/nstgp4h54kz7g1l847x_b8wc0000gn/T//ccrhfnpm.s 			page 11


 571 00de 83F81D22 		strb	r2, [r3, #541]
 572 00e2 7B68     		ldr	r3, [r7, #4]
 573 00e4 DB68     		ldr	r3, [r3, #12]
 574 00e6 1B0C     		lsrs	r3, r3, #16
 575 00e8 DAB2     		uxtb	r2, r3
 576 00ea 7B68     		ldr	r3, [r7, #4]
 577 00ec 83F81E22 		strb	r2, [r3, #542]
 578 00f0 7B68     		ldr	r3, [r7, #4]
 579 00f2 DB68     		ldr	r3, [r3, #12]
 580 00f4 1B0E     		lsrs	r3, r3, #24
 581 00f6 DAB2     		uxtb	r2, r3
 582 00f8 7B68     		ldr	r3, [r7, #4]
 583 00fa 83F81F22 		strb	r2, [r3, #543]
 584 00fe 7B68     		ldr	r3, [r7, #4]
 585 0100 DB69     		ldr	r3, [r3, #28]
 586 0102 5A1C     		adds	r2, r3, #1
 587 0104 7B68     		ldr	r3, [r7, #4]
 588 0106 DA62     		str	r2, [r3, #44]
 589 0108 7B68     		ldr	r3, [r7, #4]
 590 010a 5878     		ldrb	r0, [r3, #1]	@ zero_extendqisi2
 591 010c 7B68     		ldr	r3, [r7, #4]
 592 010e 03F13001 		add	r1, r3, #48
 593 0112 7B68     		ldr	r3, [r7, #4]
 594 0114 DA6A     		ldr	r2, [r3, #44]
 595 0116 0123     		movs	r3, #1
 596 0118 FFF7FEFF 		bl	disk_write
 597 011c 7B68     		ldr	r3, [r7, #4]
 598 011e 0022     		movs	r2, #0
 599 0120 5A71     		strb	r2, [r3, #5]
 600              	.L29:
 601 0122 7B68     		ldr	r3, [r7, #4]
 602 0124 5B78     		ldrb	r3, [r3, #1]	@ zero_extendqisi2
 603 0126 0022     		movs	r2, #0
 604 0128 0021     		movs	r1, #0
 605 012a 1846     		mov	r0, r3
 606 012c FFF7FEFF 		bl	disk_ioctl
 607 0130 0346     		mov	r3, r0
 608 0132 002B     		cmp	r3, #0
 609 0134 01D0     		beq	.L28
 610 0136 0123     		movs	r3, #1
 611 0138 FB73     		strb	r3, [r7, #15]
 612              	.L28:
 613 013a FB7B     		ldrb	r3, [r7, #15]	@ zero_extendqisi2
 614 013c 1846     		mov	r0, r3
 615 013e 1037     		adds	r7, r7, #16
 616 0140 BD46     		mov	sp, r7
 617              		@ sp needed
 618 0142 80BD     		pop	{r7, pc}
 619              		.size	sync_fs, .-sync_fs
 620              		.section	.text.clust2sect,"ax",%progbits
 621              		.align	1
 622              		.global	clust2sect
 623              		.syntax unified
 624              		.thumb
 625              		.thumb_func
 626              		.fpu fpv4-sp-d16
 627              		.type	clust2sect, %function
ARM GAS  /var/folders/d2/nstgp4h54kz7g1l847x_b8wc0000gn/T//ccrhfnpm.s 			page 12


 628              	clust2sect:
 629              		@ args = 0, pretend = 0, frame = 8
 630              		@ frame_needed = 1, uses_anonymous_args = 0
 631              		@ link register save eliminated.
 632 0000 80B4     		push	{r7}
 633 0002 83B0     		sub	sp, sp, #12
 634 0004 00AF     		add	r7, sp, #0
 635 0006 7860     		str	r0, [r7, #4]
 636 0008 3960     		str	r1, [r7]
 637 000a 3B68     		ldr	r3, [r7]
 638 000c 023B     		subs	r3, r3, #2
 639 000e 3B60     		str	r3, [r7]
 640 0010 7B68     		ldr	r3, [r7, #4]
 641 0012 5B69     		ldr	r3, [r3, #20]
 642 0014 023B     		subs	r3, r3, #2
 643 0016 3A68     		ldr	r2, [r7]
 644 0018 9A42     		cmp	r2, r3
 645 001a 01D3     		bcc	.L32
 646 001c 0023     		movs	r3, #0
 647 001e 08E0     		b	.L33
 648              	.L32:
 649 0020 7B68     		ldr	r3, [r7, #4]
 650 0022 9B78     		ldrb	r3, [r3, #2]	@ zero_extendqisi2
 651 0024 1A46     		mov	r2, r3
 652 0026 3B68     		ldr	r3, [r7]
 653 0028 03FB02F2 		mul	r2, r3, r2
 654 002c 7B68     		ldr	r3, [r7, #4]
 655 002e 9B6A     		ldr	r3, [r3, #40]
 656 0030 1344     		add	r3, r3, r2
 657              	.L33:
 658 0032 1846     		mov	r0, r3
 659 0034 0C37     		adds	r7, r7, #12
 660 0036 BD46     		mov	sp, r7
 661              		@ sp needed
 662 0038 5DF8047B 		ldr	r7, [sp], #4
 663 003c 7047     		bx	lr
 664              		.size	clust2sect, .-clust2sect
 665              		.section	.text.get_fat,"ax",%progbits
 666              		.align	1
 667              		.global	get_fat
 668              		.syntax unified
 669              		.thumb
 670              		.thumb_func
 671              		.fpu fpv4-sp-d16
 672              		.type	get_fat, %function
 673              	get_fat:
 674              		@ args = 0, pretend = 0, frame = 24
 675              		@ frame_needed = 1, uses_anonymous_args = 0
 676 0000 80B5     		push	{r7, lr}
 677 0002 86B0     		sub	sp, sp, #24
 678 0004 00AF     		add	r7, sp, #0
 679 0006 7860     		str	r0, [r7, #4]
 680 0008 3960     		str	r1, [r7]
 681 000a 3B68     		ldr	r3, [r7]
 682 000c 012B     		cmp	r3, #1
 683 000e 04D9     		bls	.L35
 684 0010 7B68     		ldr	r3, [r7, #4]
ARM GAS  /var/folders/d2/nstgp4h54kz7g1l847x_b8wc0000gn/T//ccrhfnpm.s 			page 13


 685 0012 5B69     		ldr	r3, [r3, #20]
 686 0014 3A68     		ldr	r2, [r7]
 687 0016 9A42     		cmp	r2, r3
 688 0018 01D3     		bcc	.L36
 689              	.L35:
 690 001a 0123     		movs	r3, #1
 691 001c 9DE0     		b	.L37
 692              	.L36:
 693 001e 7B68     		ldr	r3, [r7, #4]
 694 0020 1B78     		ldrb	r3, [r3]	@ zero_extendqisi2
 695 0022 022B     		cmp	r3, #2
 696 0024 46D0     		beq	.L39
 697 0026 032B     		cmp	r3, #3
 698 0028 64D0     		beq	.L40
 699 002a 012B     		cmp	r3, #1
 700 002c 40F08A80 		bne	.L49
 701 0030 3B68     		ldr	r3, [r7]
 702 0032 3B61     		str	r3, [r7, #16]
 703 0034 3B69     		ldr	r3, [r7, #16]
 704 0036 5B08     		lsrs	r3, r3, #1
 705 0038 3A69     		ldr	r2, [r7, #16]
 706 003a 1344     		add	r3, r3, r2
 707 003c 3B61     		str	r3, [r7, #16]
 708 003e 7B68     		ldr	r3, [r7, #4]
 709 0040 1A6A     		ldr	r2, [r3, #32]
 710 0042 3B69     		ldr	r3, [r7, #16]
 711 0044 5B0A     		lsrs	r3, r3, #9
 712 0046 1344     		add	r3, r3, r2
 713 0048 1946     		mov	r1, r3
 714 004a 7868     		ldr	r0, [r7, #4]
 715 004c FFF7FEFF 		bl	move_window
 716 0050 0346     		mov	r3, r0
 717 0052 002B     		cmp	r3, #0
 718 0054 78D1     		bne	.L50
 719 0056 3B69     		ldr	r3, [r7, #16]
 720 0058 C3F30803 		ubfx	r3, r3, #0, #9
 721 005c 7A68     		ldr	r2, [r7, #4]
 722 005e 1344     		add	r3, r3, r2
 723 0060 93F83030 		ldrb	r3, [r3, #48]	@ zero_extendqisi2
 724 0064 FB60     		str	r3, [r7, #12]
 725 0066 3B69     		ldr	r3, [r7, #16]
 726 0068 0133     		adds	r3, r3, #1
 727 006a 3B61     		str	r3, [r7, #16]
 728 006c 7B68     		ldr	r3, [r7, #4]
 729 006e 1A6A     		ldr	r2, [r3, #32]
 730 0070 3B69     		ldr	r3, [r7, #16]
 731 0072 5B0A     		lsrs	r3, r3, #9
 732 0074 1344     		add	r3, r3, r2
 733 0076 1946     		mov	r1, r3
 734 0078 7868     		ldr	r0, [r7, #4]
 735 007a FFF7FEFF 		bl	move_window
 736 007e 0346     		mov	r3, r0
 737 0080 002B     		cmp	r3, #0
 738 0082 63D1     		bne	.L51
 739 0084 3B69     		ldr	r3, [r7, #16]
 740 0086 C3F30803 		ubfx	r3, r3, #0, #9
 741 008a 7A68     		ldr	r2, [r7, #4]
ARM GAS  /var/folders/d2/nstgp4h54kz7g1l847x_b8wc0000gn/T//ccrhfnpm.s 			page 14


 742 008c 1344     		add	r3, r3, r2
 743 008e 93F83030 		ldrb	r3, [r3, #48]	@ zero_extendqisi2
 744 0092 1B02     		lsls	r3, r3, #8
 745 0094 1A46     		mov	r2, r3
 746 0096 FB68     		ldr	r3, [r7, #12]
 747 0098 1343     		orrs	r3, r3, r2
 748 009a FB60     		str	r3, [r7, #12]
 749 009c 3B68     		ldr	r3, [r7]
 750 009e 03F00103 		and	r3, r3, #1
 751 00a2 002B     		cmp	r3, #0
 752 00a4 02D0     		beq	.L45
 753 00a6 FB68     		ldr	r3, [r7, #12]
 754 00a8 1B09     		lsrs	r3, r3, #4
 755 00aa 56E0     		b	.L37
 756              	.L45:
 757 00ac FB68     		ldr	r3, [r7, #12]
 758 00ae C3F30B03 		ubfx	r3, r3, #0, #12
 759 00b2 52E0     		b	.L37
 760              	.L39:
 761 00b4 7B68     		ldr	r3, [r7, #4]
 762 00b6 1A6A     		ldr	r2, [r3, #32]
 763 00b8 3B68     		ldr	r3, [r7]
 764 00ba 1B0A     		lsrs	r3, r3, #8
 765 00bc 1344     		add	r3, r3, r2
 766 00be 1946     		mov	r1, r3
 767 00c0 7868     		ldr	r0, [r7, #4]
 768 00c2 FFF7FEFF 		bl	move_window
 769 00c6 0346     		mov	r3, r0
 770 00c8 002B     		cmp	r3, #0
 771 00ca 41D1     		bne	.L52
 772 00cc 3B68     		ldr	r3, [r7]
 773 00ce 5B00     		lsls	r3, r3, #1
 774 00d0 03F4FF73 		and	r3, r3, #510
 775 00d4 3033     		adds	r3, r3, #48
 776 00d6 7A68     		ldr	r2, [r7, #4]
 777 00d8 1344     		add	r3, r3, r2
 778 00da 7B61     		str	r3, [r7, #20]
 779 00dc 7B69     		ldr	r3, [r7, #20]
 780 00de 0133     		adds	r3, r3, #1
 781 00e0 1B78     		ldrb	r3, [r3]	@ zero_extendqisi2
 782 00e2 1B02     		lsls	r3, r3, #8
 783 00e4 1AB2     		sxth	r2, r3
 784 00e6 7B69     		ldr	r3, [r7, #20]
 785 00e8 1B78     		ldrb	r3, [r3]	@ zero_extendqisi2
 786 00ea 1BB2     		sxth	r3, r3
 787 00ec 1343     		orrs	r3, r3, r2
 788 00ee 1BB2     		sxth	r3, r3
 789 00f0 9BB2     		uxth	r3, r3
 790 00f2 32E0     		b	.L37
 791              	.L40:
 792 00f4 7B68     		ldr	r3, [r7, #4]
 793 00f6 1A6A     		ldr	r2, [r3, #32]
 794 00f8 3B68     		ldr	r3, [r7]
 795 00fa DB09     		lsrs	r3, r3, #7
 796 00fc 1344     		add	r3, r3, r2
 797 00fe 1946     		mov	r1, r3
 798 0100 7868     		ldr	r0, [r7, #4]
ARM GAS  /var/folders/d2/nstgp4h54kz7g1l847x_b8wc0000gn/T//ccrhfnpm.s 			page 15


 799 0102 FFF7FEFF 		bl	move_window
 800 0106 0346     		mov	r3, r0
 801 0108 002B     		cmp	r3, #0
 802 010a 23D1     		bne	.L53
 803 010c 3B68     		ldr	r3, [r7]
 804 010e 9B00     		lsls	r3, r3, #2
 805 0110 03F4FE73 		and	r3, r3, #508
 806 0114 3033     		adds	r3, r3, #48
 807 0116 7A68     		ldr	r2, [r7, #4]
 808 0118 1344     		add	r3, r3, r2
 809 011a 7B61     		str	r3, [r7, #20]
 810 011c 7B69     		ldr	r3, [r7, #20]
 811 011e 0333     		adds	r3, r3, #3
 812 0120 1B78     		ldrb	r3, [r3]	@ zero_extendqisi2
 813 0122 1A06     		lsls	r2, r3, #24
 814 0124 7B69     		ldr	r3, [r7, #20]
 815 0126 0233     		adds	r3, r3, #2
 816 0128 1B78     		ldrb	r3, [r3]	@ zero_extendqisi2
 817 012a 1B04     		lsls	r3, r3, #16
 818 012c 1343     		orrs	r3, r3, r2
 819 012e 7A69     		ldr	r2, [r7, #20]
 820 0130 0132     		adds	r2, r2, #1
 821 0132 1278     		ldrb	r2, [r2]	@ zero_extendqisi2
 822 0134 1202     		lsls	r2, r2, #8
 823 0136 1343     		orrs	r3, r3, r2
 824 0138 7A69     		ldr	r2, [r7, #20]
 825 013a 1278     		ldrb	r2, [r2]	@ zero_extendqisi2
 826 013c 1343     		orrs	r3, r3, r2
 827 013e 23F07043 		bic	r3, r3, #-268435456
 828 0142 0AE0     		b	.L37
 829              	.L49:
 830 0144 0123     		movs	r3, #1
 831 0146 08E0     		b	.L37
 832              	.L50:
 833 0148 00BF     		nop
 834 014a 04E0     		b	.L43
 835              	.L51:
 836 014c 00BF     		nop
 837 014e 02E0     		b	.L43
 838              	.L52:
 839 0150 00BF     		nop
 840 0152 00E0     		b	.L43
 841              	.L53:
 842 0154 00BF     		nop
 843              	.L43:
 844 0156 4FF0FF33 		mov	r3, #-1
 845              	.L37:
 846 015a 1846     		mov	r0, r3
 847 015c 1837     		adds	r7, r7, #24
 848 015e BD46     		mov	sp, r7
 849              		@ sp needed
 850 0160 80BD     		pop	{r7, pc}
 851              		.size	get_fat, .-get_fat
 852              		.section	.text.put_fat,"ax",%progbits
 853              		.align	1
 854              		.global	put_fat
 855              		.syntax unified
ARM GAS  /var/folders/d2/nstgp4h54kz7g1l847x_b8wc0000gn/T//ccrhfnpm.s 			page 16


 856              		.thumb
 857              		.thumb_func
 858              		.fpu fpv4-sp-d16
 859              		.type	put_fat, %function
 860              	put_fat:
 861              		@ args = 0, pretend = 0, frame = 32
 862              		@ frame_needed = 1, uses_anonymous_args = 0
 863 0000 80B5     		push	{r7, lr}
 864 0002 88B0     		sub	sp, sp, #32
 865 0004 00AF     		add	r7, sp, #0
 866 0006 F860     		str	r0, [r7, #12]
 867 0008 B960     		str	r1, [r7, #8]
 868 000a 7A60     		str	r2, [r7, #4]
 869 000c BB68     		ldr	r3, [r7, #8]
 870 000e 012B     		cmp	r3, #1
 871 0010 04D9     		bls	.L55
 872 0012 FB68     		ldr	r3, [r7, #12]
 873 0014 5B69     		ldr	r3, [r3, #20]
 874 0016 BA68     		ldr	r2, [r7, #8]
 875 0018 9A42     		cmp	r2, r3
 876 001a 02D3     		bcc	.L56
 877              	.L55:
 878 001c 0223     		movs	r3, #2
 879 001e FB77     		strb	r3, [r7, #31]
 880 0020 E9E0     		b	.L57
 881              	.L56:
 882 0022 FB68     		ldr	r3, [r7, #12]
 883 0024 1B78     		ldrb	r3, [r3]	@ zero_extendqisi2
 884 0026 022B     		cmp	r3, #2
 885 0028 70D0     		beq	.L59
 886 002a 032B     		cmp	r3, #3
 887 002c 00F09180 		beq	.L60
 888 0030 012B     		cmp	r3, #1
 889 0032 40F0D380 		bne	.L72
 890 0036 BB68     		ldr	r3, [r7, #8]
 891 0038 7B61     		str	r3, [r7, #20]
 892 003a 7B69     		ldr	r3, [r7, #20]
 893 003c 5B08     		lsrs	r3, r3, #1
 894 003e 7A69     		ldr	r2, [r7, #20]
 895 0040 1344     		add	r3, r3, r2
 896 0042 7B61     		str	r3, [r7, #20]
 897 0044 FB68     		ldr	r3, [r7, #12]
 898 0046 1A6A     		ldr	r2, [r3, #32]
 899 0048 7B69     		ldr	r3, [r7, #20]
 900 004a 5B0A     		lsrs	r3, r3, #9
 901 004c 1344     		add	r3, r3, r2
 902 004e 1946     		mov	r1, r3
 903 0050 F868     		ldr	r0, [r7, #12]
 904 0052 FFF7FEFF 		bl	move_window
 905 0056 0346     		mov	r3, r0
 906 0058 FB77     		strb	r3, [r7, #31]
 907 005a FB7F     		ldrb	r3, [r7, #31]	@ zero_extendqisi2
 908 005c 002B     		cmp	r3, #0
 909 005e 40F0C080 		bne	.L73
 910 0062 7B69     		ldr	r3, [r7, #20]
 911 0064 C3F30803 		ubfx	r3, r3, #0, #9
 912 0068 3033     		adds	r3, r3, #48
ARM GAS  /var/folders/d2/nstgp4h54kz7g1l847x_b8wc0000gn/T//ccrhfnpm.s 			page 17


 913 006a FA68     		ldr	r2, [r7, #12]
 914 006c 1344     		add	r3, r3, r2
 915 006e BB61     		str	r3, [r7, #24]
 916 0070 BB68     		ldr	r3, [r7, #8]
 917 0072 03F00103 		and	r3, r3, #1
 918 0076 002B     		cmp	r3, #0
 919 0078 0DD0     		beq	.L64
 920 007a BB69     		ldr	r3, [r7, #24]
 921 007c 1B78     		ldrb	r3, [r3]	@ zero_extendqisi2
 922 007e 5BB2     		sxtb	r3, r3
 923 0080 03F00F03 		and	r3, r3, #15
 924 0084 5AB2     		sxtb	r2, r3
 925 0086 7B68     		ldr	r3, [r7, #4]
 926 0088 DBB2     		uxtb	r3, r3
 927 008a 1B01     		lsls	r3, r3, #4
 928 008c 5BB2     		sxtb	r3, r3
 929 008e 1343     		orrs	r3, r3, r2
 930 0090 5BB2     		sxtb	r3, r3
 931 0092 DBB2     		uxtb	r3, r3
 932 0094 01E0     		b	.L65
 933              	.L64:
 934 0096 7B68     		ldr	r3, [r7, #4]
 935 0098 DBB2     		uxtb	r3, r3
 936              	.L65:
 937 009a BA69     		ldr	r2, [r7, #24]
 938 009c 1370     		strb	r3, [r2]
 939 009e 7B69     		ldr	r3, [r7, #20]
 940 00a0 0133     		adds	r3, r3, #1
 941 00a2 7B61     		str	r3, [r7, #20]
 942 00a4 FB68     		ldr	r3, [r7, #12]
 943 00a6 0122     		movs	r2, #1
 944 00a8 1A71     		strb	r2, [r3, #4]
 945 00aa FB68     		ldr	r3, [r7, #12]
 946 00ac 1A6A     		ldr	r2, [r3, #32]
 947 00ae 7B69     		ldr	r3, [r7, #20]
 948 00b0 5B0A     		lsrs	r3, r3, #9
 949 00b2 1344     		add	r3, r3, r2
 950 00b4 1946     		mov	r1, r3
 951 00b6 F868     		ldr	r0, [r7, #12]
 952 00b8 FFF7FEFF 		bl	move_window
 953 00bc 0346     		mov	r3, r0
 954 00be FB77     		strb	r3, [r7, #31]
 955 00c0 FB7F     		ldrb	r3, [r7, #31]	@ zero_extendqisi2
 956 00c2 002B     		cmp	r3, #0
 957 00c4 40F08F80 		bne	.L74
 958 00c8 7B69     		ldr	r3, [r7, #20]
 959 00ca C3F30803 		ubfx	r3, r3, #0, #9
 960 00ce 3033     		adds	r3, r3, #48
 961 00d0 FA68     		ldr	r2, [r7, #12]
 962 00d2 1344     		add	r3, r3, r2
 963 00d4 BB61     		str	r3, [r7, #24]
 964 00d6 BB68     		ldr	r3, [r7, #8]
 965 00d8 03F00103 		and	r3, r3, #1
 966 00dc 002B     		cmp	r3, #0
 967 00de 03D0     		beq	.L67
 968 00e0 7B68     		ldr	r3, [r7, #4]
 969 00e2 1B09     		lsrs	r3, r3, #4
ARM GAS  /var/folders/d2/nstgp4h54kz7g1l847x_b8wc0000gn/T//ccrhfnpm.s 			page 18


 970 00e4 DBB2     		uxtb	r3, r3
 971 00e6 0EE0     		b	.L68
 972              	.L67:
 973 00e8 BB69     		ldr	r3, [r7, #24]
 974 00ea 1B78     		ldrb	r3, [r3]	@ zero_extendqisi2
 975 00ec 5BB2     		sxtb	r3, r3
 976 00ee 23F00F03 		bic	r3, r3, #15
 977 00f2 5AB2     		sxtb	r2, r3
 978 00f4 7B68     		ldr	r3, [r7, #4]
 979 00f6 1B0A     		lsrs	r3, r3, #8
 980 00f8 5BB2     		sxtb	r3, r3
 981 00fa 03F00F03 		and	r3, r3, #15
 982 00fe 5BB2     		sxtb	r3, r3
 983 0100 1343     		orrs	r3, r3, r2
 984 0102 5BB2     		sxtb	r3, r3
 985 0104 DBB2     		uxtb	r3, r3
 986              	.L68:
 987 0106 BA69     		ldr	r2, [r7, #24]
 988 0108 1370     		strb	r3, [r2]
 989 010a 71E0     		b	.L63
 990              	.L59:
 991 010c FB68     		ldr	r3, [r7, #12]
 992 010e 1A6A     		ldr	r2, [r3, #32]
 993 0110 BB68     		ldr	r3, [r7, #8]
 994 0112 1B0A     		lsrs	r3, r3, #8
 995 0114 1344     		add	r3, r3, r2
 996 0116 1946     		mov	r1, r3
 997 0118 F868     		ldr	r0, [r7, #12]
 998 011a FFF7FEFF 		bl	move_window
 999 011e 0346     		mov	r3, r0
 1000 0120 FB77     		strb	r3, [r7, #31]
 1001 0122 FB7F     		ldrb	r3, [r7, #31]	@ zero_extendqisi2
 1002 0124 002B     		cmp	r3, #0
 1003 0126 60D1     		bne	.L75
 1004 0128 BB68     		ldr	r3, [r7, #8]
 1005 012a 5B00     		lsls	r3, r3, #1
 1006 012c 03F4FF73 		and	r3, r3, #510
 1007 0130 3033     		adds	r3, r3, #48
 1008 0132 FA68     		ldr	r2, [r7, #12]
 1009 0134 1344     		add	r3, r3, r2
 1010 0136 BB61     		str	r3, [r7, #24]
 1011 0138 7B68     		ldr	r3, [r7, #4]
 1012 013a DAB2     		uxtb	r2, r3
 1013 013c BB69     		ldr	r3, [r7, #24]
 1014 013e 1A70     		strb	r2, [r3]
 1015 0140 7B68     		ldr	r3, [r7, #4]
 1016 0142 9BB2     		uxth	r3, r3
 1017 0144 1B0A     		lsrs	r3, r3, #8
 1018 0146 9AB2     		uxth	r2, r3
 1019 0148 BB69     		ldr	r3, [r7, #24]
 1020 014a 0133     		adds	r3, r3, #1
 1021 014c D2B2     		uxtb	r2, r2
 1022 014e 1A70     		strb	r2, [r3]
 1023 0150 4EE0     		b	.L63
 1024              	.L60:
 1025 0152 FB68     		ldr	r3, [r7, #12]
 1026 0154 1A6A     		ldr	r2, [r3, #32]
ARM GAS  /var/folders/d2/nstgp4h54kz7g1l847x_b8wc0000gn/T//ccrhfnpm.s 			page 19


 1027 0156 BB68     		ldr	r3, [r7, #8]
 1028 0158 DB09     		lsrs	r3, r3, #7
 1029 015a 1344     		add	r3, r3, r2
 1030 015c 1946     		mov	r1, r3
 1031 015e F868     		ldr	r0, [r7, #12]
 1032 0160 FFF7FEFF 		bl	move_window
 1033 0164 0346     		mov	r3, r0
 1034 0166 FB77     		strb	r3, [r7, #31]
 1035 0168 FB7F     		ldrb	r3, [r7, #31]	@ zero_extendqisi2
 1036 016a 002B     		cmp	r3, #0
 1037 016c 3FD1     		bne	.L76
 1038 016e BB68     		ldr	r3, [r7, #8]
 1039 0170 9B00     		lsls	r3, r3, #2
 1040 0172 03F4FE73 		and	r3, r3, #508
 1041 0176 3033     		adds	r3, r3, #48
 1042 0178 FA68     		ldr	r2, [r7, #12]
 1043 017a 1344     		add	r3, r3, r2
 1044 017c BB61     		str	r3, [r7, #24]
 1045 017e BB69     		ldr	r3, [r7, #24]
 1046 0180 0333     		adds	r3, r3, #3
 1047 0182 1B78     		ldrb	r3, [r3]	@ zero_extendqisi2
 1048 0184 1A06     		lsls	r2, r3, #24
 1049 0186 BB69     		ldr	r3, [r7, #24]
 1050 0188 0233     		adds	r3, r3, #2
 1051 018a 1B78     		ldrb	r3, [r3]	@ zero_extendqisi2
 1052 018c 1B04     		lsls	r3, r3, #16
 1053 018e 1343     		orrs	r3, r3, r2
 1054 0190 BA69     		ldr	r2, [r7, #24]
 1055 0192 0132     		adds	r2, r2, #1
 1056 0194 1278     		ldrb	r2, [r2]	@ zero_extendqisi2
 1057 0196 1202     		lsls	r2, r2, #8
 1058 0198 1343     		orrs	r3, r3, r2
 1059 019a BA69     		ldr	r2, [r7, #24]
 1060 019c 1278     		ldrb	r2, [r2]	@ zero_extendqisi2
 1061 019e 1343     		orrs	r3, r3, r2
 1062 01a0 03F07043 		and	r3, r3, #-268435456
 1063 01a4 7A68     		ldr	r2, [r7, #4]
 1064 01a6 1343     		orrs	r3, r3, r2
 1065 01a8 7B60     		str	r3, [r7, #4]
 1066 01aa 7B68     		ldr	r3, [r7, #4]
 1067 01ac DAB2     		uxtb	r2, r3
 1068 01ae BB69     		ldr	r3, [r7, #24]
 1069 01b0 1A70     		strb	r2, [r3]
 1070 01b2 7B68     		ldr	r3, [r7, #4]
 1071 01b4 9BB2     		uxth	r3, r3
 1072 01b6 1B0A     		lsrs	r3, r3, #8
 1073 01b8 9AB2     		uxth	r2, r3
 1074 01ba BB69     		ldr	r3, [r7, #24]
 1075 01bc 0133     		adds	r3, r3, #1
 1076 01be D2B2     		uxtb	r2, r2
 1077 01c0 1A70     		strb	r2, [r3]
 1078 01c2 7B68     		ldr	r3, [r7, #4]
 1079 01c4 1A0C     		lsrs	r2, r3, #16
 1080 01c6 BB69     		ldr	r3, [r7, #24]
 1081 01c8 0233     		adds	r3, r3, #2
 1082 01ca D2B2     		uxtb	r2, r2
 1083 01cc 1A70     		strb	r2, [r3]
ARM GAS  /var/folders/d2/nstgp4h54kz7g1l847x_b8wc0000gn/T//ccrhfnpm.s 			page 20


 1084 01ce 7B68     		ldr	r3, [r7, #4]
 1085 01d0 1A0E     		lsrs	r2, r3, #24
 1086 01d2 BB69     		ldr	r3, [r7, #24]
 1087 01d4 0333     		adds	r3, r3, #3
 1088 01d6 D2B2     		uxtb	r2, r2
 1089 01d8 1A70     		strb	r2, [r3]
 1090 01da 09E0     		b	.L63
 1091              	.L72:
 1092 01dc 0223     		movs	r3, #2
 1093 01de FB77     		strb	r3, [r7, #31]
 1094 01e0 06E0     		b	.L63
 1095              	.L73:
 1096 01e2 00BF     		nop
 1097 01e4 04E0     		b	.L63
 1098              	.L74:
 1099 01e6 00BF     		nop
 1100 01e8 02E0     		b	.L63
 1101              	.L75:
 1102 01ea 00BF     		nop
 1103 01ec 00E0     		b	.L63
 1104              	.L76:
 1105 01ee 00BF     		nop
 1106              	.L63:
 1107 01f0 FB68     		ldr	r3, [r7, #12]
 1108 01f2 0122     		movs	r2, #1
 1109 01f4 1A71     		strb	r2, [r3, #4]
 1110              	.L57:
 1111 01f6 FB7F     		ldrb	r3, [r7, #31]	@ zero_extendqisi2
 1112 01f8 1846     		mov	r0, r3
 1113 01fa 2037     		adds	r7, r7, #32
 1114 01fc BD46     		mov	sp, r7
 1115              		@ sp needed
 1116 01fe 80BD     		pop	{r7, pc}
 1117              		.size	put_fat, .-put_fat
 1118              		.section	.text.remove_chain,"ax",%progbits
 1119              		.align	1
 1120              		.syntax unified
 1121              		.thumb
 1122              		.thumb_func
 1123              		.fpu fpv4-sp-d16
 1124              		.type	remove_chain, %function
 1125              	remove_chain:
 1126              		@ args = 0, pretend = 0, frame = 32
 1127              		@ frame_needed = 1, uses_anonymous_args = 0
 1128 0000 80B5     		push	{r7, lr}
 1129 0002 88B0     		sub	sp, sp, #32
 1130 0004 00AF     		add	r7, sp, #0
 1131 0006 7860     		str	r0, [r7, #4]
 1132 0008 3960     		str	r1, [r7]
 1133 000a 3B68     		ldr	r3, [r7]
 1134 000c BB61     		str	r3, [r7, #24]
 1135 000e 3B68     		ldr	r3, [r7]
 1136 0010 7B61     		str	r3, [r7, #20]
 1137 0012 3B68     		ldr	r3, [r7]
 1138 0014 012B     		cmp	r3, #1
 1139 0016 04D9     		bls	.L78
 1140 0018 7B68     		ldr	r3, [r7, #4]
ARM GAS  /var/folders/d2/nstgp4h54kz7g1l847x_b8wc0000gn/T//ccrhfnpm.s 			page 21


 1141 001a 5B69     		ldr	r3, [r3, #20]
 1142 001c 3A68     		ldr	r2, [r7]
 1143 001e 9A42     		cmp	r2, r3
 1144 0020 02D3     		bcc	.L79
 1145              	.L78:
 1146 0022 0223     		movs	r3, #2
 1147 0024 FB77     		strb	r3, [r7, #31]
 1148 0026 61E0     		b	.L80
 1149              	.L79:
 1150 0028 0023     		movs	r3, #0
 1151 002a FB77     		strb	r3, [r7, #31]
 1152 002c 55E0     		b	.L81
 1153              	.L89:
 1154 002e 3968     		ldr	r1, [r7]
 1155 0030 7868     		ldr	r0, [r7, #4]
 1156 0032 FFF7FEFF 		bl	get_fat
 1157 0036 3861     		str	r0, [r7, #16]
 1158 0038 3B69     		ldr	r3, [r7, #16]
 1159 003a 002B     		cmp	r3, #0
 1160 003c 53D0     		beq	.L91
 1161 003e 3B69     		ldr	r3, [r7, #16]
 1162 0040 012B     		cmp	r3, #1
 1163 0042 02D1     		bne	.L83
 1164 0044 0223     		movs	r3, #2
 1165 0046 FB77     		strb	r3, [r7, #31]
 1166 0048 50E0     		b	.L80
 1167              	.L83:
 1168 004a 3B69     		ldr	r3, [r7, #16]
 1169 004c B3F1FF3F 		cmp	r3, #-1
 1170 0050 02D1     		bne	.L84
 1171 0052 0123     		movs	r3, #1
 1172 0054 FB77     		strb	r3, [r7, #31]
 1173 0056 49E0     		b	.L80
 1174              	.L84:
 1175 0058 0022     		movs	r2, #0
 1176 005a 3968     		ldr	r1, [r7]
 1177 005c 7868     		ldr	r0, [r7, #4]
 1178 005e FFF7FEFF 		bl	put_fat
 1179 0062 0346     		mov	r3, r0
 1180 0064 FB77     		strb	r3, [r7, #31]
 1181 0066 FB7F     		ldrb	r3, [r7, #31]	@ zero_extendqisi2
 1182 0068 002B     		cmp	r3, #0
 1183 006a 3ED1     		bne	.L92
 1184 006c 7B68     		ldr	r3, [r7, #4]
 1185 006e 1B69     		ldr	r3, [r3, #16]
 1186 0070 B3F1FF3F 		cmp	r3, #-1
 1187 0074 0BD0     		beq	.L86
 1188 0076 7B68     		ldr	r3, [r7, #4]
 1189 0078 1B69     		ldr	r3, [r3, #16]
 1190 007a 5A1C     		adds	r2, r3, #1
 1191 007c 7B68     		ldr	r3, [r7, #4]
 1192 007e 1A61     		str	r2, [r3, #16]
 1193 0080 7B68     		ldr	r3, [r7, #4]
 1194 0082 5B79     		ldrb	r3, [r3, #5]	@ zero_extendqisi2
 1195 0084 43F00103 		orr	r3, r3, #1
 1196 0088 DAB2     		uxtb	r2, r3
 1197 008a 7B68     		ldr	r3, [r7, #4]
ARM GAS  /var/folders/d2/nstgp4h54kz7g1l847x_b8wc0000gn/T//ccrhfnpm.s 			page 22


 1198 008c 5A71     		strb	r2, [r3, #5]
 1199              	.L86:
 1200 008e 7B69     		ldr	r3, [r7, #20]
 1201 0090 0133     		adds	r3, r3, #1
 1202 0092 3A69     		ldr	r2, [r7, #16]
 1203 0094 9A42     		cmp	r2, r3
 1204 0096 02D1     		bne	.L87
 1205 0098 3B69     		ldr	r3, [r7, #16]
 1206 009a 7B61     		str	r3, [r7, #20]
 1207 009c 1BE0     		b	.L88
 1208              	.L87:
 1209 009e B969     		ldr	r1, [r7, #24]
 1210 00a0 7868     		ldr	r0, [r7, #4]
 1211 00a2 FFF7FEFF 		bl	clust2sect
 1212 00a6 0346     		mov	r3, r0
 1213 00a8 BB60     		str	r3, [r7, #8]
 1214 00aa 7969     		ldr	r1, [r7, #20]
 1215 00ac 7868     		ldr	r0, [r7, #4]
 1216 00ae FFF7FEFF 		bl	clust2sect
 1217 00b2 0246     		mov	r2, r0
 1218 00b4 7B68     		ldr	r3, [r7, #4]
 1219 00b6 9B78     		ldrb	r3, [r3, #2]	@ zero_extendqisi2
 1220 00b8 1344     		add	r3, r3, r2
 1221 00ba 013B     		subs	r3, r3, #1
 1222 00bc FB60     		str	r3, [r7, #12]
 1223 00be 7B68     		ldr	r3, [r7, #4]
 1224 00c0 5B78     		ldrb	r3, [r3, #1]	@ zero_extendqisi2
 1225 00c2 07F10802 		add	r2, r7, #8
 1226 00c6 0421     		movs	r1, #4
 1227 00c8 1846     		mov	r0, r3
 1228 00ca FFF7FEFF 		bl	disk_ioctl
 1229 00ce 3B69     		ldr	r3, [r7, #16]
 1230 00d0 7B61     		str	r3, [r7, #20]
 1231 00d2 7B69     		ldr	r3, [r7, #20]
 1232 00d4 BB61     		str	r3, [r7, #24]
 1233              	.L88:
 1234 00d6 3B69     		ldr	r3, [r7, #16]
 1235 00d8 3B60     		str	r3, [r7]
 1236              	.L81:
 1237 00da 7B68     		ldr	r3, [r7, #4]
 1238 00dc 5B69     		ldr	r3, [r3, #20]
 1239 00de 3A68     		ldr	r2, [r7]
 1240 00e0 9A42     		cmp	r2, r3
 1241 00e2 A4D3     		bcc	.L89
 1242 00e4 02E0     		b	.L80
 1243              	.L91:
 1244 00e6 00BF     		nop
 1245 00e8 00E0     		b	.L80
 1246              	.L92:
 1247 00ea 00BF     		nop
 1248              	.L80:
 1249 00ec FB7F     		ldrb	r3, [r7, #31]	@ zero_extendqisi2
 1250 00ee 1846     		mov	r0, r3
 1251 00f0 2037     		adds	r7, r7, #32
 1252 00f2 BD46     		mov	sp, r7
 1253              		@ sp needed
 1254 00f4 80BD     		pop	{r7, pc}
ARM GAS  /var/folders/d2/nstgp4h54kz7g1l847x_b8wc0000gn/T//ccrhfnpm.s 			page 23


 1255              		.size	remove_chain, .-remove_chain
 1256              		.section	.text.create_chain,"ax",%progbits
 1257              		.align	1
 1258              		.syntax unified
 1259              		.thumb
 1260              		.thumb_func
 1261              		.fpu fpv4-sp-d16
 1262              		.type	create_chain, %function
 1263              	create_chain:
 1264              		@ args = 0, pretend = 0, frame = 24
 1265              		@ frame_needed = 1, uses_anonymous_args = 0
 1266 0000 80B5     		push	{r7, lr}
 1267 0002 86B0     		sub	sp, sp, #24
 1268 0004 00AF     		add	r7, sp, #0
 1269 0006 7860     		str	r0, [r7, #4]
 1270 0008 3960     		str	r1, [r7]
 1271 000a 3B68     		ldr	r3, [r7]
 1272 000c 002B     		cmp	r3, #0
 1273 000e 0DD1     		bne	.L94
 1274 0010 7B68     		ldr	r3, [r7, #4]
 1275 0012 DB68     		ldr	r3, [r3, #12]
 1276 0014 3B61     		str	r3, [r7, #16]
 1277 0016 3B69     		ldr	r3, [r7, #16]
 1278 0018 002B     		cmp	r3, #0
 1279 001a 04D0     		beq	.L95
 1280 001c 7B68     		ldr	r3, [r7, #4]
 1281 001e 5B69     		ldr	r3, [r3, #20]
 1282 0020 3A69     		ldr	r2, [r7, #16]
 1283 0022 9A42     		cmp	r2, r3
 1284 0024 1BD3     		bcc	.L97
 1285              	.L95:
 1286 0026 0123     		movs	r3, #1
 1287 0028 3B61     		str	r3, [r7, #16]
 1288 002a 18E0     		b	.L97
 1289              	.L94:
 1290 002c 3968     		ldr	r1, [r7]
 1291 002e 7868     		ldr	r0, [r7, #4]
 1292 0030 FFF7FEFF 		bl	get_fat
 1293 0034 B860     		str	r0, [r7, #8]
 1294 0036 BB68     		ldr	r3, [r7, #8]
 1295 0038 012B     		cmp	r3, #1
 1296 003a 01D8     		bhi	.L98
 1297 003c 0123     		movs	r3, #1
 1298 003e 6EE0     		b	.L99
 1299              	.L98:
 1300 0040 BB68     		ldr	r3, [r7, #8]
 1301 0042 B3F1FF3F 		cmp	r3, #-1
 1302 0046 01D1     		bne	.L100
 1303 0048 BB68     		ldr	r3, [r7, #8]
 1304 004a 68E0     		b	.L99
 1305              	.L100:
 1306 004c 7B68     		ldr	r3, [r7, #4]
 1307 004e 5B69     		ldr	r3, [r3, #20]
 1308 0050 BA68     		ldr	r2, [r7, #8]
 1309 0052 9A42     		cmp	r2, r3
 1310 0054 01D2     		bcs	.L101
 1311 0056 BB68     		ldr	r3, [r7, #8]
ARM GAS  /var/folders/d2/nstgp4h54kz7g1l847x_b8wc0000gn/T//ccrhfnpm.s 			page 24


 1312 0058 61E0     		b	.L99
 1313              	.L101:
 1314 005a 3B68     		ldr	r3, [r7]
 1315 005c 3B61     		str	r3, [r7, #16]
 1316              	.L97:
 1317 005e 3B69     		ldr	r3, [r7, #16]
 1318 0060 7B61     		str	r3, [r7, #20]
 1319              	.L108:
 1320 0062 7B69     		ldr	r3, [r7, #20]
 1321 0064 0133     		adds	r3, r3, #1
 1322 0066 7B61     		str	r3, [r7, #20]
 1323 0068 7B68     		ldr	r3, [r7, #4]
 1324 006a 5B69     		ldr	r3, [r3, #20]
 1325 006c 7A69     		ldr	r2, [r7, #20]
 1326 006e 9A42     		cmp	r2, r3
 1327 0070 07D3     		bcc	.L102
 1328 0072 0223     		movs	r3, #2
 1329 0074 7B61     		str	r3, [r7, #20]
 1330 0076 7A69     		ldr	r2, [r7, #20]
 1331 0078 3B69     		ldr	r3, [r7, #16]
 1332 007a 9A42     		cmp	r2, r3
 1333 007c 01D9     		bls	.L102
 1334 007e 0023     		movs	r3, #0
 1335 0080 4DE0     		b	.L99
 1336              	.L102:
 1337 0082 7969     		ldr	r1, [r7, #20]
 1338 0084 7868     		ldr	r0, [r7, #4]
 1339 0086 FFF7FEFF 		bl	get_fat
 1340 008a B860     		str	r0, [r7, #8]
 1341 008c BB68     		ldr	r3, [r7, #8]
 1342 008e 002B     		cmp	r3, #0
 1343 0090 0ED0     		beq	.L116
 1344 0092 BB68     		ldr	r3, [r7, #8]
 1345 0094 B3F1FF3F 		cmp	r3, #-1
 1346 0098 02D0     		beq	.L105
 1347 009a BB68     		ldr	r3, [r7, #8]
 1348 009c 012B     		cmp	r3, #1
 1349 009e 01D1     		bne	.L106
 1350              	.L105:
 1351 00a0 BB68     		ldr	r3, [r7, #8]
 1352 00a2 3CE0     		b	.L99
 1353              	.L106:
 1354 00a4 7A69     		ldr	r2, [r7, #20]
 1355 00a6 3B69     		ldr	r3, [r7, #16]
 1356 00a8 9A42     		cmp	r2, r3
 1357 00aa DAD1     		bne	.L108
 1358 00ac 0023     		movs	r3, #0
 1359 00ae 36E0     		b	.L99
 1360              	.L116:
 1361 00b0 00BF     		nop
 1362 00b2 6FF07042 		mvn	r2, #-268435456
 1363 00b6 7969     		ldr	r1, [r7, #20]
 1364 00b8 7868     		ldr	r0, [r7, #4]
 1365 00ba FFF7FEFF 		bl	put_fat
 1366 00be 0346     		mov	r3, r0
 1367 00c0 FB73     		strb	r3, [r7, #15]
 1368 00c2 FB7B     		ldrb	r3, [r7, #15]	@ zero_extendqisi2
ARM GAS  /var/folders/d2/nstgp4h54kz7g1l847x_b8wc0000gn/T//ccrhfnpm.s 			page 25


 1369 00c4 002B     		cmp	r3, #0
 1370 00c6 09D1     		bne	.L109
 1371 00c8 3B68     		ldr	r3, [r7]
 1372 00ca 002B     		cmp	r3, #0
 1373 00cc 06D0     		beq	.L109
 1374 00ce 7A69     		ldr	r2, [r7, #20]
 1375 00d0 3968     		ldr	r1, [r7]
 1376 00d2 7868     		ldr	r0, [r7, #4]
 1377 00d4 FFF7FEFF 		bl	put_fat
 1378 00d8 0346     		mov	r3, r0
 1379 00da FB73     		strb	r3, [r7, #15]
 1380              	.L109:
 1381 00dc FB7B     		ldrb	r3, [r7, #15]	@ zero_extendqisi2
 1382 00de 002B     		cmp	r3, #0
 1383 00e0 14D1     		bne	.L110
 1384 00e2 7B68     		ldr	r3, [r7, #4]
 1385 00e4 7A69     		ldr	r2, [r7, #20]
 1386 00e6 DA60     		str	r2, [r3, #12]
 1387 00e8 7B68     		ldr	r3, [r7, #4]
 1388 00ea 1B69     		ldr	r3, [r3, #16]
 1389 00ec B3F1FF3F 		cmp	r3, #-1
 1390 00f0 14D0     		beq	.L112
 1391 00f2 7B68     		ldr	r3, [r7, #4]
 1392 00f4 1B69     		ldr	r3, [r3, #16]
 1393 00f6 5A1E     		subs	r2, r3, #1
 1394 00f8 7B68     		ldr	r3, [r7, #4]
 1395 00fa 1A61     		str	r2, [r3, #16]
 1396 00fc 7B68     		ldr	r3, [r7, #4]
 1397 00fe 5B79     		ldrb	r3, [r3, #5]	@ zero_extendqisi2
 1398 0100 43F00103 		orr	r3, r3, #1
 1399 0104 DAB2     		uxtb	r2, r3
 1400 0106 7B68     		ldr	r3, [r7, #4]
 1401 0108 5A71     		strb	r2, [r3, #5]
 1402 010a 07E0     		b	.L112
 1403              	.L110:
 1404 010c FB7B     		ldrb	r3, [r7, #15]	@ zero_extendqisi2
 1405 010e 012B     		cmp	r3, #1
 1406 0110 02D1     		bne	.L113
 1407 0112 4FF0FF33 		mov	r3, #-1
 1408 0116 00E0     		b	.L114
 1409              	.L113:
 1410 0118 0123     		movs	r3, #1
 1411              	.L114:
 1412 011a 7B61     		str	r3, [r7, #20]
 1413              	.L112:
 1414 011c 7B69     		ldr	r3, [r7, #20]
 1415              	.L99:
 1416 011e 1846     		mov	r0, r3
 1417 0120 1837     		adds	r7, r7, #24
 1418 0122 BD46     		mov	sp, r7
 1419              		@ sp needed
 1420 0124 80BD     		pop	{r7, pc}
 1421              		.size	create_chain, .-create_chain
 1422              		.section	.text.clmt_clust,"ax",%progbits
 1423              		.align	1
 1424              		.syntax unified
 1425              		.thumb
ARM GAS  /var/folders/d2/nstgp4h54kz7g1l847x_b8wc0000gn/T//ccrhfnpm.s 			page 26


 1426              		.thumb_func
 1427              		.fpu fpv4-sp-d16
 1428              		.type	clmt_clust, %function
 1429              	clmt_clust:
 1430              		@ args = 0, pretend = 0, frame = 24
 1431              		@ frame_needed = 1, uses_anonymous_args = 0
 1432              		@ link register save eliminated.
 1433 0000 80B4     		push	{r7}
 1434 0002 87B0     		sub	sp, sp, #28
 1435 0004 00AF     		add	r7, sp, #0
 1436 0006 7860     		str	r0, [r7, #4]
 1437 0008 3960     		str	r1, [r7]
 1438 000a 7B68     		ldr	r3, [r7, #4]
 1439 000c 5B6A     		ldr	r3, [r3, #36]
 1440 000e 0433     		adds	r3, r3, #4
 1441 0010 3B61     		str	r3, [r7, #16]
 1442 0012 3B68     		ldr	r3, [r7]
 1443 0014 5B0A     		lsrs	r3, r3, #9
 1444 0016 7A68     		ldr	r2, [r7, #4]
 1445 0018 1268     		ldr	r2, [r2]
 1446 001a 9278     		ldrb	r2, [r2, #2]	@ zero_extendqisi2
 1447 001c B3FBF2F3 		udiv	r3, r3, r2
 1448 0020 7B61     		str	r3, [r7, #20]
 1449              	.L122:
 1450 0022 3B69     		ldr	r3, [r7, #16]
 1451 0024 1A1D     		adds	r2, r3, #4
 1452 0026 3A61     		str	r2, [r7, #16]
 1453 0028 1B68     		ldr	r3, [r3]
 1454 002a FB60     		str	r3, [r7, #12]
 1455 002c FB68     		ldr	r3, [r7, #12]
 1456 002e 002B     		cmp	r3, #0
 1457 0030 01D1     		bne	.L118
 1458 0032 0023     		movs	r3, #0
 1459 0034 10E0     		b	.L119
 1460              	.L118:
 1461 0036 7A69     		ldr	r2, [r7, #20]
 1462 0038 FB68     		ldr	r3, [r7, #12]
 1463 003a 9A42     		cmp	r2, r3
 1464 003c 07D3     		bcc	.L124
 1465 003e 7A69     		ldr	r2, [r7, #20]
 1466 0040 FB68     		ldr	r3, [r7, #12]
 1467 0042 D31A     		subs	r3, r2, r3
 1468 0044 7B61     		str	r3, [r7, #20]
 1469 0046 3B69     		ldr	r3, [r7, #16]
 1470 0048 0433     		adds	r3, r3, #4
 1471 004a 3B61     		str	r3, [r7, #16]
 1472 004c E9E7     		b	.L122
 1473              	.L124:
 1474 004e 00BF     		nop
 1475 0050 3B69     		ldr	r3, [r7, #16]
 1476 0052 1A68     		ldr	r2, [r3]
 1477 0054 7B69     		ldr	r3, [r7, #20]
 1478 0056 1344     		add	r3, r3, r2
 1479              	.L119:
 1480 0058 1846     		mov	r0, r3
 1481 005a 1C37     		adds	r7, r7, #28
 1482 005c BD46     		mov	sp, r7
ARM GAS  /var/folders/d2/nstgp4h54kz7g1l847x_b8wc0000gn/T//ccrhfnpm.s 			page 27


 1483              		@ sp needed
 1484 005e 5DF8047B 		ldr	r7, [sp], #4
 1485 0062 7047     		bx	lr
 1486              		.size	clmt_clust, .-clmt_clust
 1487              		.section	.text.dir_sdi,"ax",%progbits
 1488              		.align	1
 1489              		.syntax unified
 1490              		.thumb
 1491              		.thumb_func
 1492              		.fpu fpv4-sp-d16
 1493              		.type	dir_sdi, %function
 1494              	dir_sdi:
 1495              		@ args = 0, pretend = 0, frame = 24
 1496              		@ frame_needed = 1, uses_anonymous_args = 0
 1497 0000 80B5     		push	{r7, lr}
 1498 0002 86B0     		sub	sp, sp, #24
 1499 0004 00AF     		add	r7, sp, #0
 1500 0006 7860     		str	r0, [r7, #4]
 1501 0008 3960     		str	r1, [r7]
 1502 000a 3B68     		ldr	r3, [r7]
 1503 000c 9AB2     		uxth	r2, r3
 1504 000e 7B68     		ldr	r3, [r7, #4]
 1505 0010 DA80     		strh	r2, [r3, #6]	@ movhi
 1506 0012 7B68     		ldr	r3, [r7, #4]
 1507 0014 9B68     		ldr	r3, [r3, #8]
 1508 0016 7B61     		str	r3, [r7, #20]
 1509 0018 7B69     		ldr	r3, [r7, #20]
 1510 001a 012B     		cmp	r3, #1
 1511 001c 05D0     		beq	.L126
 1512 001e 7B68     		ldr	r3, [r7, #4]
 1513 0020 1B68     		ldr	r3, [r3]
 1514 0022 5B69     		ldr	r3, [r3, #20]
 1515 0024 7A69     		ldr	r2, [r7, #20]
 1516 0026 9A42     		cmp	r2, r3
 1517 0028 01D3     		bcc	.L127
 1518              	.L126:
 1519 002a 0223     		movs	r3, #2
 1520 002c 63E0     		b	.L128
 1521              	.L127:
 1522 002e 7B69     		ldr	r3, [r7, #20]
 1523 0030 002B     		cmp	r3, #0
 1524 0032 08D1     		bne	.L129
 1525 0034 7B68     		ldr	r3, [r7, #4]
 1526 0036 1B68     		ldr	r3, [r3]
 1527 0038 1B78     		ldrb	r3, [r3]	@ zero_extendqisi2
 1528 003a 032B     		cmp	r3, #3
 1529 003c 03D1     		bne	.L129
 1530 003e 7B68     		ldr	r3, [r7, #4]
 1531 0040 1B68     		ldr	r3, [r3]
 1532 0042 5B6A     		ldr	r3, [r3, #36]
 1533 0044 7B61     		str	r3, [r7, #20]
 1534              	.L129:
 1535 0046 7B69     		ldr	r3, [r7, #20]
 1536 0048 002B     		cmp	r3, #0
 1537 004a 0DD1     		bne	.L130
 1538 004c 7B68     		ldr	r3, [r7, #4]
 1539 004e 1B68     		ldr	r3, [r3]
ARM GAS  /var/folders/d2/nstgp4h54kz7g1l847x_b8wc0000gn/T//ccrhfnpm.s 			page 28


 1540 0050 1B89     		ldrh	r3, [r3, #8]
 1541 0052 1A46     		mov	r2, r3
 1542 0054 3B68     		ldr	r3, [r7]
 1543 0056 9342     		cmp	r3, r2
 1544 0058 01D3     		bcc	.L131
 1545 005a 0223     		movs	r3, #2
 1546 005c 4BE0     		b	.L128
 1547              	.L131:
 1548 005e 7B68     		ldr	r3, [r7, #4]
 1549 0060 1B68     		ldr	r3, [r3]
 1550 0062 5B6A     		ldr	r3, [r3, #36]
 1551 0064 3B61     		str	r3, [r7, #16]
 1552 0066 2CE0     		b	.L132
 1553              	.L130:
 1554 0068 7B68     		ldr	r3, [r7, #4]
 1555 006a 1B68     		ldr	r3, [r3]
 1556 006c 9B78     		ldrb	r3, [r3, #2]	@ zero_extendqisi2
 1557 006e 1B01     		lsls	r3, r3, #4
 1558 0070 FB60     		str	r3, [r7, #12]
 1559 0072 1BE0     		b	.L133
 1560              	.L137:
 1561 0074 7B68     		ldr	r3, [r7, #4]
 1562 0076 1B68     		ldr	r3, [r3]
 1563 0078 7969     		ldr	r1, [r7, #20]
 1564 007a 1846     		mov	r0, r3
 1565 007c FFF7FEFF 		bl	get_fat
 1566 0080 7861     		str	r0, [r7, #20]
 1567 0082 7B69     		ldr	r3, [r7, #20]
 1568 0084 B3F1FF3F 		cmp	r3, #-1
 1569 0088 01D1     		bne	.L134
 1570 008a 0123     		movs	r3, #1
 1571 008c 33E0     		b	.L128
 1572              	.L134:
 1573 008e 7B69     		ldr	r3, [r7, #20]
 1574 0090 012B     		cmp	r3, #1
 1575 0092 05D9     		bls	.L135
 1576 0094 7B68     		ldr	r3, [r7, #4]
 1577 0096 1B68     		ldr	r3, [r3]
 1578 0098 5B69     		ldr	r3, [r3, #20]
 1579 009a 7A69     		ldr	r2, [r7, #20]
 1580 009c 9A42     		cmp	r2, r3
 1581 009e 01D3     		bcc	.L136
 1582              	.L135:
 1583 00a0 0223     		movs	r3, #2
 1584 00a2 28E0     		b	.L128
 1585              	.L136:
 1586 00a4 3A68     		ldr	r2, [r7]
 1587 00a6 FB68     		ldr	r3, [r7, #12]
 1588 00a8 D31A     		subs	r3, r2, r3
 1589 00aa 3B60     		str	r3, [r7]
 1590              	.L133:
 1591 00ac 3A68     		ldr	r2, [r7]
 1592 00ae FB68     		ldr	r3, [r7, #12]
 1593 00b0 9A42     		cmp	r2, r3
 1594 00b2 DFD2     		bcs	.L137
 1595 00b4 7B68     		ldr	r3, [r7, #4]
 1596 00b6 1B68     		ldr	r3, [r3]
ARM GAS  /var/folders/d2/nstgp4h54kz7g1l847x_b8wc0000gn/T//ccrhfnpm.s 			page 29


 1597 00b8 7969     		ldr	r1, [r7, #20]
 1598 00ba 1846     		mov	r0, r3
 1599 00bc FFF7FEFF 		bl	clust2sect
 1600 00c0 3861     		str	r0, [r7, #16]
 1601              	.L132:
 1602 00c2 7B68     		ldr	r3, [r7, #4]
 1603 00c4 7A69     		ldr	r2, [r7, #20]
 1604 00c6 DA60     		str	r2, [r3, #12]
 1605 00c8 3B69     		ldr	r3, [r7, #16]
 1606 00ca 002B     		cmp	r3, #0
 1607 00cc 01D1     		bne	.L138
 1608 00ce 0223     		movs	r3, #2
 1609 00d0 11E0     		b	.L128
 1610              	.L138:
 1611 00d2 3B68     		ldr	r3, [r7]
 1612 00d4 1A09     		lsrs	r2, r3, #4
 1613 00d6 3B69     		ldr	r3, [r7, #16]
 1614 00d8 1A44     		add	r2, r2, r3
 1615 00da 7B68     		ldr	r3, [r7, #4]
 1616 00dc 1A61     		str	r2, [r3, #16]
 1617 00de 7B68     		ldr	r3, [r7, #4]
 1618 00e0 1B68     		ldr	r3, [r3]
 1619 00e2 03F13002 		add	r2, r3, #48
 1620 00e6 3B68     		ldr	r3, [r7]
 1621 00e8 03F00F03 		and	r3, r3, #15
 1622 00ec 5B01     		lsls	r3, r3, #5
 1623 00ee 1A44     		add	r2, r2, r3
 1624 00f0 7B68     		ldr	r3, [r7, #4]
 1625 00f2 5A61     		str	r2, [r3, #20]
 1626 00f4 0023     		movs	r3, #0
 1627              	.L128:
 1628 00f6 1846     		mov	r0, r3
 1629 00f8 1837     		adds	r7, r7, #24
 1630 00fa BD46     		mov	sp, r7
 1631              		@ sp needed
 1632 00fc 80BD     		pop	{r7, pc}
 1633              		.size	dir_sdi, .-dir_sdi
 1634              		.section	.text.dir_next,"ax",%progbits
 1635              		.align	1
 1636              		.syntax unified
 1637              		.thumb
 1638              		.thumb_func
 1639              		.fpu fpv4-sp-d16
 1640              		.type	dir_next, %function
 1641              	dir_next:
 1642              		@ args = 0, pretend = 0, frame = 24
 1643              		@ frame_needed = 1, uses_anonymous_args = 0
 1644 0000 90B5     		push	{r4, r7, lr}
 1645 0002 87B0     		sub	sp, sp, #28
 1646 0004 00AF     		add	r7, sp, #0
 1647 0006 7860     		str	r0, [r7, #4]
 1648 0008 3960     		str	r1, [r7]
 1649 000a 7B68     		ldr	r3, [r7, #4]
 1650 000c DB88     		ldrh	r3, [r3, #6]
 1651 000e 0133     		adds	r3, r3, #1
 1652 0010 FB60     		str	r3, [r7, #12]
 1653 0012 FB68     		ldr	r3, [r7, #12]
ARM GAS  /var/folders/d2/nstgp4h54kz7g1l847x_b8wc0000gn/T//ccrhfnpm.s 			page 30


 1654 0014 9BB2     		uxth	r3, r3
 1655 0016 002B     		cmp	r3, #0
 1656 0018 03D0     		beq	.L140
 1657 001a 7B68     		ldr	r3, [r7, #4]
 1658 001c 1B69     		ldr	r3, [r3, #16]
 1659 001e 002B     		cmp	r3, #0
 1660 0020 01D1     		bne	.L141
 1661              	.L140:
 1662 0022 0423     		movs	r3, #4
 1663 0024 BBE0     		b	.L142
 1664              	.L141:
 1665 0026 FB68     		ldr	r3, [r7, #12]
 1666 0028 03F00F03 		and	r3, r3, #15
 1667 002c 002B     		cmp	r3, #0
 1668 002e 40F0A680 		bne	.L143
 1669 0032 7B68     		ldr	r3, [r7, #4]
 1670 0034 1B69     		ldr	r3, [r3, #16]
 1671 0036 5A1C     		adds	r2, r3, #1
 1672 0038 7B68     		ldr	r3, [r7, #4]
 1673 003a 1A61     		str	r2, [r3, #16]
 1674 003c 7B68     		ldr	r3, [r7, #4]
 1675 003e DB68     		ldr	r3, [r3, #12]
 1676 0040 002B     		cmp	r3, #0
 1677 0042 09D1     		bne	.L144
 1678 0044 7B68     		ldr	r3, [r7, #4]
 1679 0046 1B68     		ldr	r3, [r3]
 1680 0048 1B89     		ldrh	r3, [r3, #8]
 1681 004a 1A46     		mov	r2, r3
 1682 004c FB68     		ldr	r3, [r7, #12]
 1683 004e 9342     		cmp	r3, r2
 1684 0050 C0F09580 		bcc	.L143
 1685 0054 0423     		movs	r3, #4
 1686 0056 A2E0     		b	.L142
 1687              	.L144:
 1688 0058 FB68     		ldr	r3, [r7, #12]
 1689 005a 1B09     		lsrs	r3, r3, #4
 1690 005c 7A68     		ldr	r2, [r7, #4]
 1691 005e 1268     		ldr	r2, [r2]
 1692 0060 9278     		ldrb	r2, [r2, #2]	@ zero_extendqisi2
 1693 0062 013A     		subs	r2, r2, #1
 1694 0064 1340     		ands	r3, r3, r2
 1695 0066 002B     		cmp	r3, #0
 1696 0068 40F08980 		bne	.L143
 1697 006c 7B68     		ldr	r3, [r7, #4]
 1698 006e 1A68     		ldr	r2, [r3]
 1699 0070 7B68     		ldr	r3, [r7, #4]
 1700 0072 DB68     		ldr	r3, [r3, #12]
 1701 0074 1946     		mov	r1, r3
 1702 0076 1046     		mov	r0, r2
 1703 0078 FFF7FEFF 		bl	get_fat
 1704 007c 7861     		str	r0, [r7, #20]
 1705 007e 7B69     		ldr	r3, [r7, #20]
 1706 0080 012B     		cmp	r3, #1
 1707 0082 01D8     		bhi	.L145
 1708 0084 0223     		movs	r3, #2
 1709 0086 8AE0     		b	.L142
 1710              	.L145:
ARM GAS  /var/folders/d2/nstgp4h54kz7g1l847x_b8wc0000gn/T//ccrhfnpm.s 			page 31


 1711 0088 7B69     		ldr	r3, [r7, #20]
 1712 008a B3F1FF3F 		cmp	r3, #-1
 1713 008e 01D1     		bne	.L146
 1714 0090 0123     		movs	r3, #1
 1715 0092 84E0     		b	.L142
 1716              	.L146:
 1717 0094 7B68     		ldr	r3, [r7, #4]
 1718 0096 1B68     		ldr	r3, [r3]
 1719 0098 5B69     		ldr	r3, [r3, #20]
 1720 009a 7A69     		ldr	r2, [r7, #20]
 1721 009c 9A42     		cmp	r2, r3
 1722 009e 62D3     		bcc	.L147
 1723 00a0 3B68     		ldr	r3, [r7]
 1724 00a2 002B     		cmp	r3, #0
 1725 00a4 01D1     		bne	.L148
 1726 00a6 0423     		movs	r3, #4
 1727 00a8 79E0     		b	.L142
 1728              	.L148:
 1729 00aa 7B68     		ldr	r3, [r7, #4]
 1730 00ac 1A68     		ldr	r2, [r3]
 1731 00ae 7B68     		ldr	r3, [r7, #4]
 1732 00b0 DB68     		ldr	r3, [r3, #12]
 1733 00b2 1946     		mov	r1, r3
 1734 00b4 1046     		mov	r0, r2
 1735 00b6 FFF7FEFF 		bl	create_chain
 1736 00ba 7861     		str	r0, [r7, #20]
 1737 00bc 7B69     		ldr	r3, [r7, #20]
 1738 00be 002B     		cmp	r3, #0
 1739 00c0 01D1     		bne	.L149
 1740 00c2 0723     		movs	r3, #7
 1741 00c4 6BE0     		b	.L142
 1742              	.L149:
 1743 00c6 7B69     		ldr	r3, [r7, #20]
 1744 00c8 012B     		cmp	r3, #1
 1745 00ca 01D1     		bne	.L150
 1746 00cc 0223     		movs	r3, #2
 1747 00ce 66E0     		b	.L142
 1748              	.L150:
 1749 00d0 7B69     		ldr	r3, [r7, #20]
 1750 00d2 B3F1FF3F 		cmp	r3, #-1
 1751 00d6 01D1     		bne	.L151
 1752 00d8 0123     		movs	r3, #1
 1753 00da 60E0     		b	.L142
 1754              	.L151:
 1755 00dc 7B68     		ldr	r3, [r7, #4]
 1756 00de 1B68     		ldr	r3, [r3]
 1757 00e0 1846     		mov	r0, r3
 1758 00e2 FFF7FEFF 		bl	sync_window
 1759 00e6 0346     		mov	r3, r0
 1760 00e8 002B     		cmp	r3, #0
 1761 00ea 01D0     		beq	.L152
 1762 00ec 0123     		movs	r3, #1
 1763 00ee 56E0     		b	.L142
 1764              	.L152:
 1765 00f0 7B68     		ldr	r3, [r7, #4]
 1766 00f2 1B68     		ldr	r3, [r3]
 1767 00f4 3033     		adds	r3, r3, #48
ARM GAS  /var/folders/d2/nstgp4h54kz7g1l847x_b8wc0000gn/T//ccrhfnpm.s 			page 32


 1768 00f6 4FF40072 		mov	r2, #512
 1769 00fa 0021     		movs	r1, #0
 1770 00fc 1846     		mov	r0, r3
 1771 00fe FFF7FEFF 		bl	mem_set
 1772 0102 7B68     		ldr	r3, [r7, #4]
 1773 0104 1A68     		ldr	r2, [r3]
 1774 0106 7B68     		ldr	r3, [r7, #4]
 1775 0108 1C68     		ldr	r4, [r3]
 1776 010a 7969     		ldr	r1, [r7, #20]
 1777 010c 1046     		mov	r0, r2
 1778 010e FFF7FEFF 		bl	clust2sect
 1779 0112 0346     		mov	r3, r0
 1780 0114 E362     		str	r3, [r4, #44]
 1781 0116 0023     		movs	r3, #0
 1782 0118 3B61     		str	r3, [r7, #16]
 1783 011a 15E0     		b	.L153
 1784              	.L155:
 1785 011c 7B68     		ldr	r3, [r7, #4]
 1786 011e 1B68     		ldr	r3, [r3]
 1787 0120 0122     		movs	r2, #1
 1788 0122 1A71     		strb	r2, [r3, #4]
 1789 0124 7B68     		ldr	r3, [r7, #4]
 1790 0126 1B68     		ldr	r3, [r3]
 1791 0128 1846     		mov	r0, r3
 1792 012a FFF7FEFF 		bl	sync_window
 1793 012e 0346     		mov	r3, r0
 1794 0130 002B     		cmp	r3, #0
 1795 0132 01D0     		beq	.L154
 1796 0134 0123     		movs	r3, #1
 1797 0136 32E0     		b	.L142
 1798              	.L154:
 1799 0138 7B68     		ldr	r3, [r7, #4]
 1800 013a 1B68     		ldr	r3, [r3]
 1801 013c DA6A     		ldr	r2, [r3, #44]
 1802 013e 0132     		adds	r2, r2, #1
 1803 0140 DA62     		str	r2, [r3, #44]
 1804 0142 3B69     		ldr	r3, [r7, #16]
 1805 0144 0133     		adds	r3, r3, #1
 1806 0146 3B61     		str	r3, [r7, #16]
 1807              	.L153:
 1808 0148 7B68     		ldr	r3, [r7, #4]
 1809 014a 1B68     		ldr	r3, [r3]
 1810 014c 9B78     		ldrb	r3, [r3, #2]	@ zero_extendqisi2
 1811 014e 1A46     		mov	r2, r3
 1812 0150 3B69     		ldr	r3, [r7, #16]
 1813 0152 9342     		cmp	r3, r2
 1814 0154 E2D3     		bcc	.L155
 1815 0156 7B68     		ldr	r3, [r7, #4]
 1816 0158 1B68     		ldr	r3, [r3]
 1817 015a D96A     		ldr	r1, [r3, #44]
 1818 015c 7B68     		ldr	r3, [r7, #4]
 1819 015e 1B68     		ldr	r3, [r3]
 1820 0160 3A69     		ldr	r2, [r7, #16]
 1821 0162 8A1A     		subs	r2, r1, r2
 1822 0164 DA62     		str	r2, [r3, #44]
 1823              	.L147:
 1824 0166 7B68     		ldr	r3, [r7, #4]
ARM GAS  /var/folders/d2/nstgp4h54kz7g1l847x_b8wc0000gn/T//ccrhfnpm.s 			page 33


 1825 0168 7A69     		ldr	r2, [r7, #20]
 1826 016a DA60     		str	r2, [r3, #12]
 1827 016c 7B68     		ldr	r3, [r7, #4]
 1828 016e 1B68     		ldr	r3, [r3]
 1829 0170 7969     		ldr	r1, [r7, #20]
 1830 0172 1846     		mov	r0, r3
 1831 0174 FFF7FEFF 		bl	clust2sect
 1832 0178 0246     		mov	r2, r0
 1833 017a 7B68     		ldr	r3, [r7, #4]
 1834 017c 1A61     		str	r2, [r3, #16]
 1835              	.L143:
 1836 017e FB68     		ldr	r3, [r7, #12]
 1837 0180 9AB2     		uxth	r2, r3
 1838 0182 7B68     		ldr	r3, [r7, #4]
 1839 0184 DA80     		strh	r2, [r3, #6]	@ movhi
 1840 0186 7B68     		ldr	r3, [r7, #4]
 1841 0188 1B68     		ldr	r3, [r3]
 1842 018a 03F13002 		add	r2, r3, #48
 1843 018e FB68     		ldr	r3, [r7, #12]
 1844 0190 03F00F03 		and	r3, r3, #15
 1845 0194 5B01     		lsls	r3, r3, #5
 1846 0196 1A44     		add	r2, r2, r3
 1847 0198 7B68     		ldr	r3, [r7, #4]
 1848 019a 5A61     		str	r2, [r3, #20]
 1849 019c 0023     		movs	r3, #0
 1850              	.L142:
 1851 019e 1846     		mov	r0, r3
 1852 01a0 1C37     		adds	r7, r7, #28
 1853 01a2 BD46     		mov	sp, r7
 1854              		@ sp needed
 1855 01a4 90BD     		pop	{r4, r7, pc}
 1856              		.size	dir_next, .-dir_next
 1857              		.section	.text.dir_alloc,"ax",%progbits
 1858              		.align	1
 1859              		.syntax unified
 1860              		.thumb
 1861              		.thumb_func
 1862              		.fpu fpv4-sp-d16
 1863              		.type	dir_alloc, %function
 1864              	dir_alloc:
 1865              		@ args = 0, pretend = 0, frame = 16
 1866              		@ frame_needed = 1, uses_anonymous_args = 0
 1867 0000 80B5     		push	{r7, lr}
 1868 0002 84B0     		sub	sp, sp, #16
 1869 0004 00AF     		add	r7, sp, #0
 1870 0006 7860     		str	r0, [r7, #4]
 1871 0008 3960     		str	r1, [r7]
 1872 000a 0021     		movs	r1, #0
 1873 000c 7868     		ldr	r0, [r7, #4]
 1874 000e FFF7FEFF 		bl	dir_sdi
 1875 0012 0346     		mov	r3, r0
 1876 0014 FB73     		strb	r3, [r7, #15]
 1877 0016 FB7B     		ldrb	r3, [r7, #15]	@ zero_extendqisi2
 1878 0018 002B     		cmp	r3, #0
 1879 001a 2DD1     		bne	.L157
 1880 001c 0023     		movs	r3, #0
 1881 001e BB60     		str	r3, [r7, #8]
ARM GAS  /var/folders/d2/nstgp4h54kz7g1l847x_b8wc0000gn/T//ccrhfnpm.s 			page 34


 1882              	.L163:
 1883 0020 7B68     		ldr	r3, [r7, #4]
 1884 0022 1A68     		ldr	r2, [r3]
 1885 0024 7B68     		ldr	r3, [r7, #4]
 1886 0026 1B69     		ldr	r3, [r3, #16]
 1887 0028 1946     		mov	r1, r3
 1888 002a 1046     		mov	r0, r2
 1889 002c FFF7FEFF 		bl	move_window
 1890 0030 0346     		mov	r3, r0
 1891 0032 FB73     		strb	r3, [r7, #15]
 1892 0034 FB7B     		ldrb	r3, [r7, #15]	@ zero_extendqisi2
 1893 0036 002B     		cmp	r3, #0
 1894 0038 1DD1     		bne	.L166
 1895 003a 7B68     		ldr	r3, [r7, #4]
 1896 003c 5B69     		ldr	r3, [r3, #20]
 1897 003e 1B78     		ldrb	r3, [r3]	@ zero_extendqisi2
 1898 0040 E52B     		cmp	r3, #229
 1899 0042 04D0     		beq	.L159
 1900 0044 7B68     		ldr	r3, [r7, #4]
 1901 0046 5B69     		ldr	r3, [r3, #20]
 1902 0048 1B78     		ldrb	r3, [r3]	@ zero_extendqisi2
 1903 004a 002B     		cmp	r3, #0
 1904 004c 07D1     		bne	.L160
 1905              	.L159:
 1906 004e BB68     		ldr	r3, [r7, #8]
 1907 0050 0133     		adds	r3, r3, #1
 1908 0052 BB60     		str	r3, [r7, #8]
 1909 0054 BA68     		ldr	r2, [r7, #8]
 1910 0056 3B68     		ldr	r3, [r7]
 1911 0058 9A42     		cmp	r2, r3
 1912 005a 02D1     		bne	.L162
 1913 005c 0CE0     		b	.L157
 1914              	.L160:
 1915 005e 0023     		movs	r3, #0
 1916 0060 BB60     		str	r3, [r7, #8]
 1917              	.L162:
 1918 0062 0121     		movs	r1, #1
 1919 0064 7868     		ldr	r0, [r7, #4]
 1920 0066 FFF7FEFF 		bl	dir_next
 1921 006a 0346     		mov	r3, r0
 1922 006c FB73     		strb	r3, [r7, #15]
 1923 006e FB7B     		ldrb	r3, [r7, #15]	@ zero_extendqisi2
 1924 0070 002B     		cmp	r3, #0
 1925 0072 D5D0     		beq	.L163
 1926 0074 00E0     		b	.L157
 1927              	.L166:
 1928 0076 00BF     		nop
 1929              	.L157:
 1930 0078 FB7B     		ldrb	r3, [r7, #15]	@ zero_extendqisi2
 1931 007a 042B     		cmp	r3, #4
 1932 007c 01D1     		bne	.L164
 1933 007e 0723     		movs	r3, #7
 1934 0080 FB73     		strb	r3, [r7, #15]
 1935              	.L164:
 1936 0082 FB7B     		ldrb	r3, [r7, #15]	@ zero_extendqisi2
 1937 0084 1846     		mov	r0, r3
 1938 0086 1037     		adds	r7, r7, #16
ARM GAS  /var/folders/d2/nstgp4h54kz7g1l847x_b8wc0000gn/T//ccrhfnpm.s 			page 35


 1939 0088 BD46     		mov	sp, r7
 1940              		@ sp needed
 1941 008a 80BD     		pop	{r7, pc}
 1942              		.size	dir_alloc, .-dir_alloc
 1943              		.section	.text.ld_clust,"ax",%progbits
 1944              		.align	1
 1945              		.syntax unified
 1946              		.thumb
 1947              		.thumb_func
 1948              		.fpu fpv4-sp-d16
 1949              		.type	ld_clust, %function
 1950              	ld_clust:
 1951              		@ args = 0, pretend = 0, frame = 16
 1952              		@ frame_needed = 1, uses_anonymous_args = 0
 1953              		@ link register save eliminated.
 1954 0000 80B4     		push	{r7}
 1955 0002 85B0     		sub	sp, sp, #20
 1956 0004 00AF     		add	r7, sp, #0
 1957 0006 7860     		str	r0, [r7, #4]
 1958 0008 3960     		str	r1, [r7]
 1959 000a 3B68     		ldr	r3, [r7]
 1960 000c 1B33     		adds	r3, r3, #27
 1961 000e 1B78     		ldrb	r3, [r3]	@ zero_extendqisi2
 1962 0010 1B02     		lsls	r3, r3, #8
 1963 0012 1AB2     		sxth	r2, r3
 1964 0014 3B68     		ldr	r3, [r7]
 1965 0016 1A33     		adds	r3, r3, #26
 1966 0018 1B78     		ldrb	r3, [r3]	@ zero_extendqisi2
 1967 001a 1BB2     		sxth	r3, r3
 1968 001c 1343     		orrs	r3, r3, r2
 1969 001e 1BB2     		sxth	r3, r3
 1970 0020 9BB2     		uxth	r3, r3
 1971 0022 FB60     		str	r3, [r7, #12]
 1972 0024 7B68     		ldr	r3, [r7, #4]
 1973 0026 1B78     		ldrb	r3, [r3]	@ zero_extendqisi2
 1974 0028 032B     		cmp	r3, #3
 1975 002a 0FD1     		bne	.L168
 1976 002c 3B68     		ldr	r3, [r7]
 1977 002e 1533     		adds	r3, r3, #21
 1978 0030 1B78     		ldrb	r3, [r3]	@ zero_extendqisi2
 1979 0032 1B02     		lsls	r3, r3, #8
 1980 0034 1AB2     		sxth	r2, r3
 1981 0036 3B68     		ldr	r3, [r7]
 1982 0038 1433     		adds	r3, r3, #20
 1983 003a 1B78     		ldrb	r3, [r3]	@ zero_extendqisi2
 1984 003c 1BB2     		sxth	r3, r3
 1985 003e 1343     		orrs	r3, r3, r2
 1986 0040 1BB2     		sxth	r3, r3
 1987 0042 9BB2     		uxth	r3, r3
 1988 0044 1B04     		lsls	r3, r3, #16
 1989 0046 FA68     		ldr	r2, [r7, #12]
 1990 0048 1343     		orrs	r3, r3, r2
 1991 004a FB60     		str	r3, [r7, #12]
 1992              	.L168:
 1993 004c FB68     		ldr	r3, [r7, #12]
 1994 004e 1846     		mov	r0, r3
 1995 0050 1437     		adds	r7, r7, #20
ARM GAS  /var/folders/d2/nstgp4h54kz7g1l847x_b8wc0000gn/T//ccrhfnpm.s 			page 36


 1996 0052 BD46     		mov	sp, r7
 1997              		@ sp needed
 1998 0054 5DF8047B 		ldr	r7, [sp], #4
 1999 0058 7047     		bx	lr
 2000              		.size	ld_clust, .-ld_clust
 2001              		.section	.text.st_clust,"ax",%progbits
 2002              		.align	1
 2003              		.syntax unified
 2004              		.thumb
 2005              		.thumb_func
 2006              		.fpu fpv4-sp-d16
 2007              		.type	st_clust, %function
 2008              	st_clust:
 2009              		@ args = 0, pretend = 0, frame = 8
 2010              		@ frame_needed = 1, uses_anonymous_args = 0
 2011              		@ link register save eliminated.
 2012 0000 80B4     		push	{r7}
 2013 0002 83B0     		sub	sp, sp, #12
 2014 0004 00AF     		add	r7, sp, #0
 2015 0006 7860     		str	r0, [r7, #4]
 2016 0008 3960     		str	r1, [r7]
 2017 000a 7B68     		ldr	r3, [r7, #4]
 2018 000c 1A33     		adds	r3, r3, #26
 2019 000e 3A68     		ldr	r2, [r7]
 2020 0010 D2B2     		uxtb	r2, r2
 2021 0012 1A70     		strb	r2, [r3]
 2022 0014 3B68     		ldr	r3, [r7]
 2023 0016 9BB2     		uxth	r3, r3
 2024 0018 1B0A     		lsrs	r3, r3, #8
 2025 001a 9AB2     		uxth	r2, r3
 2026 001c 7B68     		ldr	r3, [r7, #4]
 2027 001e 1B33     		adds	r3, r3, #27
 2028 0020 D2B2     		uxtb	r2, r2
 2029 0022 1A70     		strb	r2, [r3]
 2030 0024 3B68     		ldr	r3, [r7]
 2031 0026 1A0C     		lsrs	r2, r3, #16
 2032 0028 7B68     		ldr	r3, [r7, #4]
 2033 002a 1433     		adds	r3, r3, #20
 2034 002c D2B2     		uxtb	r2, r2
 2035 002e 1A70     		strb	r2, [r3]
 2036 0030 3B68     		ldr	r3, [r7]
 2037 0032 1B0C     		lsrs	r3, r3, #16
 2038 0034 9BB2     		uxth	r3, r3
 2039 0036 1B0A     		lsrs	r3, r3, #8
 2040 0038 9AB2     		uxth	r2, r3
 2041 003a 7B68     		ldr	r3, [r7, #4]
 2042 003c 1533     		adds	r3, r3, #21
 2043 003e D2B2     		uxtb	r2, r2
 2044 0040 1A70     		strb	r2, [r3]
 2045 0042 00BF     		nop
 2046 0044 0C37     		adds	r7, r7, #12
 2047 0046 BD46     		mov	sp, r7
 2048              		@ sp needed
 2049 0048 5DF8047B 		ldr	r7, [sp], #4
 2050 004c 7047     		bx	lr
 2051              		.size	st_clust, .-st_clust
 2052              		.section	.rodata.LfnOfs,"a",%progbits
ARM GAS  /var/folders/d2/nstgp4h54kz7g1l847x_b8wc0000gn/T//ccrhfnpm.s 			page 37


 2053              		.align	2
 2054              		.type	LfnOfs, %object
 2055              		.size	LfnOfs, 13
 2056              	LfnOfs:
 2057 0000 01       		.byte	1
 2058 0001 03       		.byte	3
 2059 0002 05       		.byte	5
 2060 0003 07       		.byte	7
 2061 0004 09       		.byte	9
 2062 0005 0E       		.byte	14
 2063 0006 10       		.byte	16
 2064 0007 12       		.byte	18
 2065 0008 14       		.byte	20
 2066 0009 16       		.byte	22
 2067 000a 18       		.byte	24
 2068 000b 1C       		.byte	28
 2069 000c 1E       		.byte	30
 2070              		.section	.text.cmp_lfn,"ax",%progbits
 2071              		.align	1
 2072              		.syntax unified
 2073              		.thumb
 2074              		.thumb_func
 2075              		.fpu fpv4-sp-d16
 2076              		.type	cmp_lfn, %function
 2077              	cmp_lfn:
 2078              		@ args = 0, pretend = 0, frame = 24
 2079              		@ frame_needed = 1, uses_anonymous_args = 0
 2080 0000 80B5     		push	{r7, lr}
 2081 0002 86B0     		sub	sp, sp, #24
 2082 0004 00AF     		add	r7, sp, #0
 2083 0006 7860     		str	r0, [r7, #4]
 2084 0008 3960     		str	r1, [r7]
 2085 000a 3B68     		ldr	r3, [r7]
 2086 000c 1B78     		ldrb	r3, [r3]	@ zero_extendqisi2
 2087 000e 23F04003 		bic	r3, r3, #64
 2088 0012 5A1E     		subs	r2, r3, #1
 2089 0014 1346     		mov	r3, r2
 2090 0016 5B00     		lsls	r3, r3, #1
 2091 0018 1344     		add	r3, r3, r2
 2092 001a 9B00     		lsls	r3, r3, #2
 2093 001c 1344     		add	r3, r3, r2
 2094 001e 7B61     		str	r3, [r7, #20]
 2095 0020 0023     		movs	r3, #0
 2096 0022 3B61     		str	r3, [r7, #16]
 2097 0024 0123     		movs	r3, #1
 2098 0026 FB81     		strh	r3, [r7, #14]	@ movhi
 2099              	.L176:
 2100 0028 2B4A     		ldr	r2, .L178
 2101 002a 3B69     		ldr	r3, [r7, #16]
 2102 002c 1344     		add	r3, r3, r2
 2103 002e 1B78     		ldrb	r3, [r3]	@ zero_extendqisi2
 2104 0030 0133     		adds	r3, r3, #1
 2105 0032 3A68     		ldr	r2, [r7]
 2106 0034 1344     		add	r3, r3, r2
 2107 0036 1B78     		ldrb	r3, [r3]	@ zero_extendqisi2
 2108 0038 1B02     		lsls	r3, r3, #8
 2109 003a 1AB2     		sxth	r2, r3
ARM GAS  /var/folders/d2/nstgp4h54kz7g1l847x_b8wc0000gn/T//ccrhfnpm.s 			page 38


 2110 003c 2649     		ldr	r1, .L178
 2111 003e 3B69     		ldr	r3, [r7, #16]
 2112 0040 0B44     		add	r3, r3, r1
 2113 0042 1B78     		ldrb	r3, [r3]	@ zero_extendqisi2
 2114 0044 1946     		mov	r1, r3
 2115 0046 3B68     		ldr	r3, [r7]
 2116 0048 0B44     		add	r3, r3, r1
 2117 004a 1B78     		ldrb	r3, [r3]	@ zero_extendqisi2
 2118 004c 1BB2     		sxth	r3, r3
 2119 004e 1343     		orrs	r3, r3, r2
 2120 0050 1BB2     		sxth	r3, r3
 2121 0052 BB81     		strh	r3, [r7, #12]	@ movhi
 2122 0054 FB89     		ldrh	r3, [r7, #14]
 2123 0056 002B     		cmp	r3, #0
 2124 0058 19D0     		beq	.L172
 2125 005a BB89     		ldrh	r3, [r7, #12]
 2126 005c 1846     		mov	r0, r3
 2127 005e FFF7FEFF 		bl	ff_wtoupper
 2128 0062 0346     		mov	r3, r0
 2129 0064 FB81     		strh	r3, [r7, #14]	@ movhi
 2130 0066 7B69     		ldr	r3, [r7, #20]
 2131 0068 FE2B     		cmp	r3, #254
 2132 006a 0ED8     		bhi	.L173
 2133 006c 7B69     		ldr	r3, [r7, #20]
 2134 006e 5A1C     		adds	r2, r3, #1
 2135 0070 7A61     		str	r2, [r7, #20]
 2136 0072 5B00     		lsls	r3, r3, #1
 2137 0074 7A68     		ldr	r2, [r7, #4]
 2138 0076 1344     		add	r3, r3, r2
 2139 0078 1B88     		ldrh	r3, [r3]
 2140 007a 1846     		mov	r0, r3
 2141 007c FFF7FEFF 		bl	ff_wtoupper
 2142 0080 0346     		mov	r3, r0
 2143 0082 1A46     		mov	r2, r3
 2144 0084 FB89     		ldrh	r3, [r7, #14]
 2145 0086 9342     		cmp	r3, r2
 2146 0088 08D0     		beq	.L174
 2147              	.L173:
 2148 008a 0023     		movs	r3, #0
 2149 008c 1FE0     		b	.L175
 2150              	.L172:
 2151 008e BB89     		ldrh	r3, [r7, #12]
 2152 0090 4FF6FF72 		movw	r2, #65535
 2153 0094 9342     		cmp	r3, r2
 2154 0096 01D0     		beq	.L174
 2155 0098 0023     		movs	r3, #0
 2156 009a 18E0     		b	.L175
 2157              	.L174:
 2158 009c 3B69     		ldr	r3, [r7, #16]
 2159 009e 0133     		adds	r3, r3, #1
 2160 00a0 3B61     		str	r3, [r7, #16]
 2161 00a2 3B69     		ldr	r3, [r7, #16]
 2162 00a4 0C2B     		cmp	r3, #12
 2163 00a6 BFD9     		bls	.L176
 2164 00a8 3B68     		ldr	r3, [r7]
 2165 00aa 1B78     		ldrb	r3, [r3]	@ zero_extendqisi2
 2166 00ac 03F04003 		and	r3, r3, #64
ARM GAS  /var/folders/d2/nstgp4h54kz7g1l847x_b8wc0000gn/T//ccrhfnpm.s 			page 39


 2167 00b0 002B     		cmp	r3, #0
 2168 00b2 0BD0     		beq	.L177
 2169 00b4 FB89     		ldrh	r3, [r7, #14]
 2170 00b6 002B     		cmp	r3, #0
 2171 00b8 08D0     		beq	.L177
 2172 00ba 7B69     		ldr	r3, [r7, #20]
 2173 00bc 5B00     		lsls	r3, r3, #1
 2174 00be 7A68     		ldr	r2, [r7, #4]
 2175 00c0 1344     		add	r3, r3, r2
 2176 00c2 1B88     		ldrh	r3, [r3]
 2177 00c4 002B     		cmp	r3, #0
 2178 00c6 01D0     		beq	.L177
 2179 00c8 0023     		movs	r3, #0
 2180 00ca 00E0     		b	.L175
 2181              	.L177:
 2182 00cc 0123     		movs	r3, #1
 2183              	.L175:
 2184 00ce 1846     		mov	r0, r3
 2185 00d0 1837     		adds	r7, r7, #24
 2186 00d2 BD46     		mov	sp, r7
 2187              		@ sp needed
 2188 00d4 80BD     		pop	{r7, pc}
 2189              	.L179:
 2190 00d6 00BF     		.align	2
 2191              	.L178:
 2192 00d8 00000000 		.word	LfnOfs
 2193              		.size	cmp_lfn, .-cmp_lfn
 2194              		.section	.text.pick_lfn,"ax",%progbits
 2195              		.align	1
 2196              		.syntax unified
 2197              		.thumb
 2198              		.thumb_func
 2199              		.fpu fpv4-sp-d16
 2200              		.type	pick_lfn, %function
 2201              	pick_lfn:
 2202              		@ args = 0, pretend = 0, frame = 24
 2203              		@ frame_needed = 1, uses_anonymous_args = 0
 2204              		@ link register save eliminated.
 2205 0000 80B4     		push	{r7}
 2206 0002 87B0     		sub	sp, sp, #28
 2207 0004 00AF     		add	r7, sp, #0
 2208 0006 7860     		str	r0, [r7, #4]
 2209 0008 3960     		str	r1, [r7]
 2210 000a 3B68     		ldr	r3, [r7]
 2211 000c 1B78     		ldrb	r3, [r3]	@ zero_extendqisi2
 2212 000e 03F03F03 		and	r3, r3, #63
 2213 0012 5A1E     		subs	r2, r3, #1
 2214 0014 1346     		mov	r3, r2
 2215 0016 5B00     		lsls	r3, r3, #1
 2216 0018 1344     		add	r3, r3, r2
 2217 001a 9B00     		lsls	r3, r3, #2
 2218 001c 1344     		add	r3, r3, r2
 2219 001e 7B61     		str	r3, [r7, #20]
 2220 0020 0023     		movs	r3, #0
 2221 0022 3B61     		str	r3, [r7, #16]
 2222 0024 0123     		movs	r3, #1
 2223 0026 FB81     		strh	r3, [r7, #14]	@ movhi
ARM GAS  /var/folders/d2/nstgp4h54kz7g1l847x_b8wc0000gn/T//ccrhfnpm.s 			page 40


 2224              	.L185:
 2225 0028 264A     		ldr	r2, .L188
 2226 002a 3B69     		ldr	r3, [r7, #16]
 2227 002c 1344     		add	r3, r3, r2
 2228 002e 1B78     		ldrb	r3, [r3]	@ zero_extendqisi2
 2229 0030 0133     		adds	r3, r3, #1
 2230 0032 3A68     		ldr	r2, [r7]
 2231 0034 1344     		add	r3, r3, r2
 2232 0036 1B78     		ldrb	r3, [r3]	@ zero_extendqisi2
 2233 0038 1B02     		lsls	r3, r3, #8
 2234 003a 1AB2     		sxth	r2, r3
 2235 003c 2149     		ldr	r1, .L188
 2236 003e 3B69     		ldr	r3, [r7, #16]
 2237 0040 0B44     		add	r3, r3, r1
 2238 0042 1B78     		ldrb	r3, [r3]	@ zero_extendqisi2
 2239 0044 1946     		mov	r1, r3
 2240 0046 3B68     		ldr	r3, [r7]
 2241 0048 0B44     		add	r3, r3, r1
 2242 004a 1B78     		ldrb	r3, [r3]	@ zero_extendqisi2
 2243 004c 1BB2     		sxth	r3, r3
 2244 004e 1343     		orrs	r3, r3, r2
 2245 0050 1BB2     		sxth	r3, r3
 2246 0052 BB81     		strh	r3, [r7, #12]	@ movhi
 2247 0054 FB89     		ldrh	r3, [r7, #14]
 2248 0056 002B     		cmp	r3, #0
 2249 0058 0FD0     		beq	.L181
 2250 005a 7B69     		ldr	r3, [r7, #20]
 2251 005c FE2B     		cmp	r3, #254
 2252 005e 01D9     		bls	.L182
 2253 0060 0023     		movs	r3, #0
 2254 0062 29E0     		b	.L183
 2255              	.L182:
 2256 0064 BB89     		ldrh	r3, [r7, #12]	@ movhi
 2257 0066 FB81     		strh	r3, [r7, #14]	@ movhi
 2258 0068 7B69     		ldr	r3, [r7, #20]
 2259 006a 5A1C     		adds	r2, r3, #1
 2260 006c 7A61     		str	r2, [r7, #20]
 2261 006e 5B00     		lsls	r3, r3, #1
 2262 0070 7A68     		ldr	r2, [r7, #4]
 2263 0072 1344     		add	r3, r3, r2
 2264 0074 FA89     		ldrh	r2, [r7, #14]	@ movhi
 2265 0076 1A80     		strh	r2, [r3]	@ movhi
 2266 0078 06E0     		b	.L184
 2267              	.L181:
 2268 007a BB89     		ldrh	r3, [r7, #12]
 2269 007c 4FF6FF72 		movw	r2, #65535
 2270 0080 9342     		cmp	r3, r2
 2271 0082 01D0     		beq	.L184
 2272 0084 0023     		movs	r3, #0
 2273 0086 17E0     		b	.L183
 2274              	.L184:
 2275 0088 3B69     		ldr	r3, [r7, #16]
 2276 008a 0133     		adds	r3, r3, #1
 2277 008c 3B61     		str	r3, [r7, #16]
 2278 008e 3B69     		ldr	r3, [r7, #16]
 2279 0090 0C2B     		cmp	r3, #12
 2280 0092 C9D9     		bls	.L185
ARM GAS  /var/folders/d2/nstgp4h54kz7g1l847x_b8wc0000gn/T//ccrhfnpm.s 			page 41


 2281 0094 3B68     		ldr	r3, [r7]
 2282 0096 1B78     		ldrb	r3, [r3]	@ zero_extendqisi2
 2283 0098 03F04003 		and	r3, r3, #64
 2284 009c 002B     		cmp	r3, #0
 2285 009e 0AD0     		beq	.L186
 2286 00a0 7B69     		ldr	r3, [r7, #20]
 2287 00a2 FE2B     		cmp	r3, #254
 2288 00a4 01D9     		bls	.L187
 2289 00a6 0023     		movs	r3, #0
 2290 00a8 06E0     		b	.L183
 2291              	.L187:
 2292 00aa 7B69     		ldr	r3, [r7, #20]
 2293 00ac 5B00     		lsls	r3, r3, #1
 2294 00ae 7A68     		ldr	r2, [r7, #4]
 2295 00b0 1344     		add	r3, r3, r2
 2296 00b2 0022     		movs	r2, #0
 2297 00b4 1A80     		strh	r2, [r3]	@ movhi
 2298              	.L186:
 2299 00b6 0123     		movs	r3, #1
 2300              	.L183:
 2301 00b8 1846     		mov	r0, r3
 2302 00ba 1C37     		adds	r7, r7, #28
 2303 00bc BD46     		mov	sp, r7
 2304              		@ sp needed
 2305 00be 5DF8047B 		ldr	r7, [sp], #4
 2306 00c2 7047     		bx	lr
 2307              	.L189:
 2308              		.align	2
 2309              	.L188:
 2310 00c4 00000000 		.word	LfnOfs
 2311              		.size	pick_lfn, .-pick_lfn
 2312              		.section	.text.fit_lfn,"ax",%progbits
 2313              		.align	1
 2314              		.syntax unified
 2315              		.thumb
 2316              		.thumb_func
 2317              		.fpu fpv4-sp-d16
 2318              		.type	fit_lfn, %function
 2319              	fit_lfn:
 2320              		@ args = 0, pretend = 0, frame = 32
 2321              		@ frame_needed = 1, uses_anonymous_args = 0
 2322              		@ link register save eliminated.
 2323 0000 80B4     		push	{r7}
 2324 0002 89B0     		sub	sp, sp, #36
 2325 0004 00AF     		add	r7, sp, #0
 2326 0006 F860     		str	r0, [r7, #12]
 2327 0008 B960     		str	r1, [r7, #8]
 2328 000a 1146     		mov	r1, r2
 2329 000c 1A46     		mov	r2, r3
 2330 000e 0B46     		mov	r3, r1
 2331 0010 FB71     		strb	r3, [r7, #7]
 2332 0012 1346     		mov	r3, r2
 2333 0014 BB71     		strb	r3, [r7, #6]
 2334 0016 BB68     		ldr	r3, [r7, #8]
 2335 0018 0D33     		adds	r3, r3, #13
 2336 001a BA79     		ldrb	r2, [r7, #6]
 2337 001c 1A70     		strb	r2, [r3]
ARM GAS  /var/folders/d2/nstgp4h54kz7g1l847x_b8wc0000gn/T//ccrhfnpm.s 			page 42


 2338 001e BB68     		ldr	r3, [r7, #8]
 2339 0020 0B33     		adds	r3, r3, #11
 2340 0022 0F22     		movs	r2, #15
 2341 0024 1A70     		strb	r2, [r3]
 2342 0026 BB68     		ldr	r3, [r7, #8]
 2343 0028 0C33     		adds	r3, r3, #12
 2344 002a 0022     		movs	r2, #0
 2345 002c 1A70     		strb	r2, [r3]
 2346 002e BB68     		ldr	r3, [r7, #8]
 2347 0030 1A33     		adds	r3, r3, #26
 2348 0032 0022     		movs	r2, #0
 2349 0034 1A70     		strb	r2, [r3]
 2350 0036 BB68     		ldr	r3, [r7, #8]
 2351 0038 1B33     		adds	r3, r3, #27
 2352 003a 0022     		movs	r2, #0
 2353 003c 1A70     		strb	r2, [r3]
 2354 003e FB79     		ldrb	r3, [r7, #7]	@ zero_extendqisi2
 2355 0040 5A1E     		subs	r2, r3, #1
 2356 0042 1346     		mov	r3, r2
 2357 0044 5B00     		lsls	r3, r3, #1
 2358 0046 1344     		add	r3, r3, r2
 2359 0048 9B00     		lsls	r3, r3, #2
 2360 004a 1344     		add	r3, r3, r2
 2361 004c FB61     		str	r3, [r7, #28]
 2362 004e 0023     		movs	r3, #0
 2363 0050 FB82     		strh	r3, [r7, #22]	@ movhi
 2364 0052 0023     		movs	r3, #0
 2365 0054 BB61     		str	r3, [r7, #24]
 2366              	.L193:
 2367 0056 FB8A     		ldrh	r3, [r7, #22]
 2368 0058 4FF6FF72 		movw	r2, #65535
 2369 005c 9342     		cmp	r3, r2
 2370 005e 07D0     		beq	.L191
 2371 0060 FB69     		ldr	r3, [r7, #28]
 2372 0062 5A1C     		adds	r2, r3, #1
 2373 0064 FA61     		str	r2, [r7, #28]
 2374 0066 5B00     		lsls	r3, r3, #1
 2375 0068 FA68     		ldr	r2, [r7, #12]
 2376 006a 1344     		add	r3, r3, r2
 2377 006c 1B88     		ldrh	r3, [r3]	@ movhi
 2378 006e FB82     		strh	r3, [r7, #22]	@ movhi
 2379              	.L191:
 2380 0070 1D4A     		ldr	r2, .L196
 2381 0072 BB69     		ldr	r3, [r7, #24]
 2382 0074 1344     		add	r3, r3, r2
 2383 0076 1B78     		ldrb	r3, [r3]	@ zero_extendqisi2
 2384 0078 1A46     		mov	r2, r3
 2385 007a BB68     		ldr	r3, [r7, #8]
 2386 007c 1344     		add	r3, r3, r2
 2387 007e FA8A     		ldrh	r2, [r7, #22]	@ movhi
 2388 0080 D2B2     		uxtb	r2, r2
 2389 0082 1A70     		strb	r2, [r3]
 2390 0084 FB8A     		ldrh	r3, [r7, #22]
 2391 0086 1B0A     		lsrs	r3, r3, #8
 2392 0088 99B2     		uxth	r1, r3
 2393 008a 174A     		ldr	r2, .L196
 2394 008c BB69     		ldr	r3, [r7, #24]
ARM GAS  /var/folders/d2/nstgp4h54kz7g1l847x_b8wc0000gn/T//ccrhfnpm.s 			page 43


 2395 008e 1344     		add	r3, r3, r2
 2396 0090 1B78     		ldrb	r3, [r3]	@ zero_extendqisi2
 2397 0092 0133     		adds	r3, r3, #1
 2398 0094 BA68     		ldr	r2, [r7, #8]
 2399 0096 1344     		add	r3, r3, r2
 2400 0098 CAB2     		uxtb	r2, r1
 2401 009a 1A70     		strb	r2, [r3]
 2402 009c FB8A     		ldrh	r3, [r7, #22]
 2403 009e 002B     		cmp	r3, #0
 2404 00a0 02D1     		bne	.L192
 2405 00a2 4FF6FF73 		movw	r3, #65535
 2406 00a6 FB82     		strh	r3, [r7, #22]	@ movhi
 2407              	.L192:
 2408 00a8 BB69     		ldr	r3, [r7, #24]
 2409 00aa 0133     		adds	r3, r3, #1
 2410 00ac BB61     		str	r3, [r7, #24]
 2411 00ae BB69     		ldr	r3, [r7, #24]
 2412 00b0 0C2B     		cmp	r3, #12
 2413 00b2 D0D9     		bls	.L193
 2414 00b4 FB8A     		ldrh	r3, [r7, #22]
 2415 00b6 4FF6FF72 		movw	r2, #65535
 2416 00ba 9342     		cmp	r3, r2
 2417 00bc 06D0     		beq	.L194
 2418 00be FB69     		ldr	r3, [r7, #28]
 2419 00c0 5B00     		lsls	r3, r3, #1
 2420 00c2 FA68     		ldr	r2, [r7, #12]
 2421 00c4 1344     		add	r3, r3, r2
 2422 00c6 1B88     		ldrh	r3, [r3]
 2423 00c8 002B     		cmp	r3, #0
 2424 00ca 03D1     		bne	.L195
 2425              	.L194:
 2426 00cc FB79     		ldrb	r3, [r7, #7]
 2427 00ce 43F04003 		orr	r3, r3, #64
 2428 00d2 FB71     		strb	r3, [r7, #7]
 2429              	.L195:
 2430 00d4 BB68     		ldr	r3, [r7, #8]
 2431 00d6 FA79     		ldrb	r2, [r7, #7]
 2432 00d8 1A70     		strb	r2, [r3]
 2433 00da 00BF     		nop
 2434 00dc 2437     		adds	r7, r7, #36
 2435 00de BD46     		mov	sp, r7
 2436              		@ sp needed
 2437 00e0 5DF8047B 		ldr	r7, [sp], #4
 2438 00e4 7047     		bx	lr
 2439              	.L197:
 2440 00e6 00BF     		.align	2
 2441              	.L196:
 2442 00e8 00000000 		.word	LfnOfs
 2443              		.size	fit_lfn, .-fit_lfn
 2444              		.section	.text.gen_numname,"ax",%progbits
 2445              		.align	1
 2446              		.syntax unified
 2447              		.thumb
 2448              		.thumb_func
 2449              		.fpu fpv4-sp-d16
 2450              		.type	gen_numname, %function
 2451              	gen_numname:
ARM GAS  /var/folders/d2/nstgp4h54kz7g1l847x_b8wc0000gn/T//ccrhfnpm.s 			page 44


 2452              		@ args = 0, pretend = 0, frame = 48
 2453              		@ frame_needed = 1, uses_anonymous_args = 0
 2454 0000 80B5     		push	{r7, lr}
 2455 0002 8CB0     		sub	sp, sp, #48
 2456 0004 00AF     		add	r7, sp, #0
 2457 0006 F860     		str	r0, [r7, #12]
 2458 0008 B960     		str	r1, [r7, #8]
 2459 000a 7A60     		str	r2, [r7, #4]
 2460 000c 3B60     		str	r3, [r7]
 2461 000e 0B22     		movs	r2, #11
 2462 0010 B968     		ldr	r1, [r7, #8]
 2463 0012 F868     		ldr	r0, [r7, #12]
 2464 0014 FFF7FEFF 		bl	mem_cpy
 2465 0018 3B68     		ldr	r3, [r7]
 2466 001a 052B     		cmp	r3, #5
 2467 001c 2BD9     		bls	.L199
 2468 001e 3B68     		ldr	r3, [r7]
 2469 0020 FB61     		str	r3, [r7, #28]
 2470 0022 22E0     		b	.L200
 2471              	.L204:
 2472 0024 7B68     		ldr	r3, [r7, #4]
 2473 0026 9A1C     		adds	r2, r3, #2
 2474 0028 7A60     		str	r2, [r7, #4]
 2475 002a 1B88     		ldrh	r3, [r3]	@ movhi
 2476 002c 7B84     		strh	r3, [r7, #34]	@ movhi
 2477 002e 0023     		movs	r3, #0
 2478 0030 BB62     		str	r3, [r7, #40]
 2479 0032 17E0     		b	.L201
 2480              	.L203:
 2481 0034 FB69     		ldr	r3, [r7, #28]
 2482 0036 5A00     		lsls	r2, r3, #1
 2483 0038 7B8C     		ldrh	r3, [r7, #34]
 2484 003a 03F00103 		and	r3, r3, #1
 2485 003e 1344     		add	r3, r3, r2
 2486 0040 FB61     		str	r3, [r7, #28]
 2487 0042 7B8C     		ldrh	r3, [r7, #34]
 2488 0044 5B08     		lsrs	r3, r3, #1
 2489 0046 7B84     		strh	r3, [r7, #34]	@ movhi
 2490 0048 FB69     		ldr	r3, [r7, #28]
 2491 004a 03F48033 		and	r3, r3, #65536
 2492 004e 002B     		cmp	r3, #0
 2493 0050 05D0     		beq	.L202
 2494 0052 FB69     		ldr	r3, [r7, #28]
 2495 0054 83F48833 		eor	r3, r3, #69632
 2496 0058 83F02103 		eor	r3, r3, #33
 2497 005c FB61     		str	r3, [r7, #28]
 2498              	.L202:
 2499 005e BB6A     		ldr	r3, [r7, #40]
 2500 0060 0133     		adds	r3, r3, #1
 2501 0062 BB62     		str	r3, [r7, #40]
 2502              	.L201:
 2503 0064 BB6A     		ldr	r3, [r7, #40]
 2504 0066 0F2B     		cmp	r3, #15
 2505 0068 E4D9     		bls	.L203
 2506              	.L200:
 2507 006a 7B68     		ldr	r3, [r7, #4]
 2508 006c 1B88     		ldrh	r3, [r3]
ARM GAS  /var/folders/d2/nstgp4h54kz7g1l847x_b8wc0000gn/T//ccrhfnpm.s 			page 45


 2509 006e 002B     		cmp	r3, #0
 2510 0070 D8D1     		bne	.L204
 2511 0072 FB69     		ldr	r3, [r7, #28]
 2512 0074 3B60     		str	r3, [r7]
 2513              	.L199:
 2514 0076 0723     		movs	r3, #7
 2515 0078 BB62     		str	r3, [r7, #40]
 2516              	.L206:
 2517 007a 3B68     		ldr	r3, [r7]
 2518 007c DBB2     		uxtb	r3, r3
 2519 007e 03F00F03 		and	r3, r3, #15
 2520 0082 DBB2     		uxtb	r3, r3
 2521 0084 3033     		adds	r3, r3, #48
 2522 0086 87F82F30 		strb	r3, [r7, #47]
 2523 008a 97F82F30 		ldrb	r3, [r7, #47]	@ zero_extendqisi2
 2524 008e 392B     		cmp	r3, #57
 2525 0090 04D9     		bls	.L205
 2526 0092 97F82F30 		ldrb	r3, [r7, #47]
 2527 0096 0733     		adds	r3, r3, #7
 2528 0098 87F82F30 		strb	r3, [r7, #47]
 2529              	.L205:
 2530 009c BB6A     		ldr	r3, [r7, #40]
 2531 009e 5A1E     		subs	r2, r3, #1
 2532 00a0 BA62     		str	r2, [r7, #40]
 2533 00a2 07F13002 		add	r2, r7, #48
 2534 00a6 1344     		add	r3, r3, r2
 2535 00a8 97F82F20 		ldrb	r2, [r7, #47]
 2536 00ac 03F81C2C 		strb	r2, [r3, #-28]
 2537 00b0 3B68     		ldr	r3, [r7]
 2538 00b2 1B09     		lsrs	r3, r3, #4
 2539 00b4 3B60     		str	r3, [r7]
 2540 00b6 3B68     		ldr	r3, [r7]
 2541 00b8 002B     		cmp	r3, #0
 2542 00ba DED1     		bne	.L206
 2543 00bc 07F11402 		add	r2, r7, #20
 2544 00c0 BB6A     		ldr	r3, [r7, #40]
 2545 00c2 1344     		add	r3, r3, r2
 2546 00c4 7E22     		movs	r2, #126
 2547 00c6 1A70     		strb	r2, [r3]
 2548 00c8 0023     		movs	r3, #0
 2549 00ca 7B62     		str	r3, [r7, #36]
 2550 00cc 02E0     		b	.L207
 2551              	.L209:
 2552 00ce 7B6A     		ldr	r3, [r7, #36]
 2553 00d0 0133     		adds	r3, r3, #1
 2554 00d2 7B62     		str	r3, [r7, #36]
 2555              	.L207:
 2556 00d4 7A6A     		ldr	r2, [r7, #36]
 2557 00d6 BB6A     		ldr	r3, [r7, #40]
 2558 00d8 9A42     		cmp	r2, r3
 2559 00da 05D2     		bcs	.L212
 2560 00dc FA68     		ldr	r2, [r7, #12]
 2561 00de 7B6A     		ldr	r3, [r7, #36]
 2562 00e0 1344     		add	r3, r3, r2
 2563 00e2 1B78     		ldrb	r3, [r3]	@ zero_extendqisi2
 2564 00e4 202B     		cmp	r3, #32
 2565 00e6 F2D1     		bne	.L209
ARM GAS  /var/folders/d2/nstgp4h54kz7g1l847x_b8wc0000gn/T//ccrhfnpm.s 			page 46


 2566              	.L212:
 2567 00e8 BB6A     		ldr	r3, [r7, #40]
 2568 00ea 072B     		cmp	r3, #7
 2569 00ec 08D8     		bhi	.L210
 2570 00ee BB6A     		ldr	r3, [r7, #40]
 2571 00f0 5A1C     		adds	r2, r3, #1
 2572 00f2 BA62     		str	r2, [r7, #40]
 2573 00f4 07F13002 		add	r2, r7, #48
 2574 00f8 1344     		add	r3, r3, r2
 2575 00fa 13F81C1C 		ldrb	r1, [r3, #-28]	@ zero_extendqisi2
 2576 00fe 00E0     		b	.L211
 2577              	.L210:
 2578 0100 2021     		movs	r1, #32
 2579              	.L211:
 2580 0102 7B6A     		ldr	r3, [r7, #36]
 2581 0104 5A1C     		adds	r2, r3, #1
 2582 0106 7A62     		str	r2, [r7, #36]
 2583 0108 FA68     		ldr	r2, [r7, #12]
 2584 010a 1344     		add	r3, r3, r2
 2585 010c 0A46     		mov	r2, r1
 2586 010e 1A70     		strb	r2, [r3]
 2587 0110 7B6A     		ldr	r3, [r7, #36]
 2588 0112 072B     		cmp	r3, #7
 2589 0114 E8D9     		bls	.L212
 2590 0116 00BF     		nop
 2591 0118 3037     		adds	r7, r7, #48
 2592 011a BD46     		mov	sp, r7
 2593              		@ sp needed
 2594 011c 80BD     		pop	{r7, pc}
 2595              		.size	gen_numname, .-gen_numname
 2596              		.section	.text.sum_sfn,"ax",%progbits
 2597              		.align	1
 2598              		.syntax unified
 2599              		.thumb
 2600              		.thumb_func
 2601              		.fpu fpv4-sp-d16
 2602              		.type	sum_sfn, %function
 2603              	sum_sfn:
 2604              		@ args = 0, pretend = 0, frame = 16
 2605              		@ frame_needed = 1, uses_anonymous_args = 0
 2606              		@ link register save eliminated.
 2607 0000 80B4     		push	{r7}
 2608 0002 85B0     		sub	sp, sp, #20
 2609 0004 00AF     		add	r7, sp, #0
 2610 0006 7860     		str	r0, [r7, #4]
 2611 0008 0023     		movs	r3, #0
 2612 000a FB73     		strb	r3, [r7, #15]
 2613 000c 0B23     		movs	r3, #11
 2614 000e BB60     		str	r3, [r7, #8]
 2615              	.L214:
 2616 0010 FB7B     		ldrb	r3, [r7, #15]
 2617 0012 DAB2     		uxtb	r2, r3
 2618 0014 5208     		lsrs	r2, r2, #1
 2619 0016 DB01     		lsls	r3, r3, #7
 2620 0018 1343     		orrs	r3, r3, r2
 2621 001a DAB2     		uxtb	r2, r3
 2622 001c 7B68     		ldr	r3, [r7, #4]
ARM GAS  /var/folders/d2/nstgp4h54kz7g1l847x_b8wc0000gn/T//ccrhfnpm.s 			page 47


 2623 001e 591C     		adds	r1, r3, #1
 2624 0020 7960     		str	r1, [r7, #4]
 2625 0022 1B78     		ldrb	r3, [r3]	@ zero_extendqisi2
 2626 0024 1344     		add	r3, r3, r2
 2627 0026 FB73     		strb	r3, [r7, #15]
 2628 0028 BB68     		ldr	r3, [r7, #8]
 2629 002a 013B     		subs	r3, r3, #1
 2630 002c BB60     		str	r3, [r7, #8]
 2631 002e BB68     		ldr	r3, [r7, #8]
 2632 0030 002B     		cmp	r3, #0
 2633 0032 EDD1     		bne	.L214
 2634 0034 FB7B     		ldrb	r3, [r7, #15]	@ zero_extendqisi2
 2635 0036 1846     		mov	r0, r3
 2636 0038 1437     		adds	r7, r7, #20
 2637 003a BD46     		mov	sp, r7
 2638              		@ sp needed
 2639 003c 5DF8047B 		ldr	r7, [sp], #4
 2640 0040 7047     		bx	lr
 2641              		.size	sum_sfn, .-sum_sfn
 2642              		.section	.text.dir_find,"ax",%progbits
 2643              		.align	1
 2644              		.syntax unified
 2645              		.thumb
 2646              		.thumb_func
 2647              		.fpu fpv4-sp-d16
 2648              		.type	dir_find, %function
 2649              	dir_find:
 2650              		@ args = 0, pretend = 0, frame = 24
 2651              		@ frame_needed = 1, uses_anonymous_args = 0
 2652 0000 80B5     		push	{r7, lr}
 2653 0002 86B0     		sub	sp, sp, #24
 2654 0004 00AF     		add	r7, sp, #0
 2655 0006 7860     		str	r0, [r7, #4]
 2656 0008 0021     		movs	r1, #0
 2657 000a 7868     		ldr	r0, [r7, #4]
 2658 000c FFF7FEFF 		bl	dir_sdi
 2659 0010 0346     		mov	r3, r0
 2660 0012 FB75     		strb	r3, [r7, #23]
 2661 0014 FB7D     		ldrb	r3, [r7, #23]	@ zero_extendqisi2
 2662 0016 002B     		cmp	r3, #0
 2663 0018 01D0     		beq	.L217
 2664 001a FB7D     		ldrb	r3, [r7, #23]	@ zero_extendqisi2
 2665 001c A0E0     		b	.L218
 2666              	.L217:
 2667 001e FF23     		movs	r3, #255
 2668 0020 3B75     		strb	r3, [r7, #20]
 2669 0022 3B7D     		ldrb	r3, [r7, #20]
 2670 0024 7B75     		strb	r3, [r7, #21]
 2671 0026 7B68     		ldr	r3, [r7, #4]
 2672 0028 4FF6FF72 		movw	r2, #65535
 2673 002c 1A84     		strh	r2, [r3, #32]	@ movhi
 2674              	.L232:
 2675 002e 7B68     		ldr	r3, [r7, #4]
 2676 0030 1A68     		ldr	r2, [r3]
 2677 0032 7B68     		ldr	r3, [r7, #4]
 2678 0034 1B69     		ldr	r3, [r3, #16]
 2679 0036 1946     		mov	r1, r3
ARM GAS  /var/folders/d2/nstgp4h54kz7g1l847x_b8wc0000gn/T//ccrhfnpm.s 			page 48


 2680 0038 1046     		mov	r0, r2
 2681 003a FFF7FEFF 		bl	move_window
 2682 003e 0346     		mov	r3, r0
 2683 0040 FB75     		strb	r3, [r7, #23]
 2684 0042 FB7D     		ldrb	r3, [r7, #23]	@ zero_extendqisi2
 2685 0044 002B     		cmp	r3, #0
 2686 0046 40F08580 		bne	.L233
 2687 004a 7B68     		ldr	r3, [r7, #4]
 2688 004c 5B69     		ldr	r3, [r3, #20]
 2689 004e 3B61     		str	r3, [r7, #16]
 2690 0050 3B69     		ldr	r3, [r7, #16]
 2691 0052 1B78     		ldrb	r3, [r3]
 2692 0054 BB75     		strb	r3, [r7, #22]
 2693 0056 BB7D     		ldrb	r3, [r7, #22]	@ zero_extendqisi2
 2694 0058 002B     		cmp	r3, #0
 2695 005a 02D1     		bne	.L221
 2696 005c 0423     		movs	r3, #4
 2697 005e FB75     		strb	r3, [r7, #23]
 2698 0060 7DE0     		b	.L220
 2699              	.L221:
 2700 0062 3B69     		ldr	r3, [r7, #16]
 2701 0064 0B33     		adds	r3, r3, #11
 2702 0066 1B78     		ldrb	r3, [r3]	@ zero_extendqisi2
 2703 0068 03F03F03 		and	r3, r3, #63
 2704 006c FB73     		strb	r3, [r7, #15]
 2705 006e BB7D     		ldrb	r3, [r7, #22]	@ zero_extendqisi2
 2706 0070 E52B     		cmp	r3, #229
 2707 0072 07D0     		beq	.L222
 2708 0074 FB7B     		ldrb	r3, [r7, #15]	@ zero_extendqisi2
 2709 0076 03F00803 		and	r3, r3, #8
 2710 007a 002B     		cmp	r3, #0
 2711 007c 09D0     		beq	.L223
 2712 007e FB7B     		ldrb	r3, [r7, #15]	@ zero_extendqisi2
 2713 0080 0F2B     		cmp	r3, #15
 2714 0082 06D0     		beq	.L223
 2715              	.L222:
 2716 0084 FF23     		movs	r3, #255
 2717 0086 7B75     		strb	r3, [r7, #21]
 2718 0088 7B68     		ldr	r3, [r7, #4]
 2719 008a 4FF6FF72 		movw	r2, #65535
 2720 008e 1A84     		strh	r2, [r3, #32]	@ movhi
 2721 0090 55E0     		b	.L224
 2722              	.L223:
 2723 0092 FB7B     		ldrb	r3, [r7, #15]	@ zero_extendqisi2
 2724 0094 0F2B     		cmp	r3, #15
 2725 0096 2FD1     		bne	.L225
 2726 0098 7B68     		ldr	r3, [r7, #4]
 2727 009a DB69     		ldr	r3, [r3, #28]
 2728 009c 002B     		cmp	r3, #0
 2729 009e 4ED0     		beq	.L224
 2730 00a0 BB7D     		ldrb	r3, [r7, #22]	@ zero_extendqisi2
 2731 00a2 03F04003 		and	r3, r3, #64
 2732 00a6 002B     		cmp	r3, #0
 2733 00a8 0CD0     		beq	.L227
 2734 00aa 3B69     		ldr	r3, [r7, #16]
 2735 00ac 5B7B     		ldrb	r3, [r3, #13]
 2736 00ae 3B75     		strb	r3, [r7, #20]
ARM GAS  /var/folders/d2/nstgp4h54kz7g1l847x_b8wc0000gn/T//ccrhfnpm.s 			page 49


 2737 00b0 BB7D     		ldrb	r3, [r7, #22]
 2738 00b2 23F04003 		bic	r3, r3, #64
 2739 00b6 BB75     		strb	r3, [r7, #22]
 2740 00b8 BB7D     		ldrb	r3, [r7, #22]
 2741 00ba 7B75     		strb	r3, [r7, #21]
 2742 00bc 7B68     		ldr	r3, [r7, #4]
 2743 00be DA88     		ldrh	r2, [r3, #6]
 2744 00c0 7B68     		ldr	r3, [r7, #4]
 2745 00c2 1A84     		strh	r2, [r3, #32]	@ movhi
 2746              	.L227:
 2747 00c4 BA7D     		ldrb	r2, [r7, #22]	@ zero_extendqisi2
 2748 00c6 7B7D     		ldrb	r3, [r7, #21]	@ zero_extendqisi2
 2749 00c8 9A42     		cmp	r2, r3
 2750 00ca 12D1     		bne	.L228
 2751 00cc 3B69     		ldr	r3, [r7, #16]
 2752 00ce 0D33     		adds	r3, r3, #13
 2753 00d0 1B78     		ldrb	r3, [r3]	@ zero_extendqisi2
 2754 00d2 3A7D     		ldrb	r2, [r7, #20]	@ zero_extendqisi2
 2755 00d4 9A42     		cmp	r2, r3
 2756 00d6 0CD1     		bne	.L228
 2757 00d8 7B68     		ldr	r3, [r7, #4]
 2758 00da DB69     		ldr	r3, [r3, #28]
 2759 00dc 3969     		ldr	r1, [r7, #16]
 2760 00de 1846     		mov	r0, r3
 2761 00e0 FFF7FEFF 		bl	cmp_lfn
 2762 00e4 0346     		mov	r3, r0
 2763 00e6 002B     		cmp	r3, #0
 2764 00e8 03D0     		beq	.L228
 2765 00ea 7B7D     		ldrb	r3, [r7, #21]
 2766 00ec 013B     		subs	r3, r3, #1
 2767 00ee DBB2     		uxtb	r3, r3
 2768 00f0 00E0     		b	.L229
 2769              	.L228:
 2770 00f2 FF23     		movs	r3, #255
 2771              	.L229:
 2772 00f4 7B75     		strb	r3, [r7, #21]
 2773 00f6 22E0     		b	.L224
 2774              	.L225:
 2775 00f8 7B7D     		ldrb	r3, [r7, #21]	@ zero_extendqisi2
 2776 00fa 002B     		cmp	r3, #0
 2777 00fc 07D1     		bne	.L230
 2778 00fe 3869     		ldr	r0, [r7, #16]
 2779 0100 FFF7FEFF 		bl	sum_sfn
 2780 0104 0346     		mov	r3, r0
 2781 0106 1A46     		mov	r2, r3
 2782 0108 3B7D     		ldrb	r3, [r7, #20]	@ zero_extendqisi2
 2783 010a 9342     		cmp	r3, r2
 2784 010c 24D0     		beq	.L234
 2785              	.L230:
 2786 010e 7B68     		ldr	r3, [r7, #4]
 2787 0110 9B69     		ldr	r3, [r3, #24]
 2788 0112 0B33     		adds	r3, r3, #11
 2789 0114 1B78     		ldrb	r3, [r3]	@ zero_extendqisi2
 2790 0116 03F00103 		and	r3, r3, #1
 2791 011a 002B     		cmp	r3, #0
 2792 011c 09D1     		bne	.L231
 2793 011e 7B68     		ldr	r3, [r7, #4]
ARM GAS  /var/folders/d2/nstgp4h54kz7g1l847x_b8wc0000gn/T//ccrhfnpm.s 			page 50


 2794 0120 9B69     		ldr	r3, [r3, #24]
 2795 0122 0B22     		movs	r2, #11
 2796 0124 1946     		mov	r1, r3
 2797 0126 3869     		ldr	r0, [r7, #16]
 2798 0128 FFF7FEFF 		bl	mem_cmp
 2799 012c 0346     		mov	r3, r0
 2800 012e 002B     		cmp	r3, #0
 2801 0130 14D0     		beq	.L235
 2802              	.L231:
 2803 0132 FF23     		movs	r3, #255
 2804 0134 7B75     		strb	r3, [r7, #21]
 2805 0136 7B68     		ldr	r3, [r7, #4]
 2806 0138 4FF6FF72 		movw	r2, #65535
 2807 013c 1A84     		strh	r2, [r3, #32]	@ movhi
 2808              	.L224:
 2809 013e 0021     		movs	r1, #0
 2810 0140 7868     		ldr	r0, [r7, #4]
 2811 0142 FFF7FEFF 		bl	dir_next
 2812 0146 0346     		mov	r3, r0
 2813 0148 FB75     		strb	r3, [r7, #23]
 2814 014a FB7D     		ldrb	r3, [r7, #23]	@ zero_extendqisi2
 2815 014c 002B     		cmp	r3, #0
 2816 014e 3FF46EAF 		beq	.L232
 2817 0152 04E0     		b	.L220
 2818              	.L233:
 2819 0154 00BF     		nop
 2820 0156 02E0     		b	.L220
 2821              	.L234:
 2822 0158 00BF     		nop
 2823 015a 00E0     		b	.L220
 2824              	.L235:
 2825 015c 00BF     		nop
 2826              	.L220:
 2827 015e FB7D     		ldrb	r3, [r7, #23]	@ zero_extendqisi2
 2828              	.L218:
 2829 0160 1846     		mov	r0, r3
 2830 0162 1837     		adds	r7, r7, #24
 2831 0164 BD46     		mov	sp, r7
 2832              		@ sp needed
 2833 0166 80BD     		pop	{r7, pc}
 2834              		.size	dir_find, .-dir_find
 2835              		.section	.text.dir_read,"ax",%progbits
 2836              		.align	1
 2837              		.syntax unified
 2838              		.thumb
 2839              		.thumb_func
 2840              		.fpu fpv4-sp-d16
 2841              		.type	dir_read, %function
 2842              	dir_read:
 2843              		@ args = 0, pretend = 0, frame = 24
 2844              		@ frame_needed = 1, uses_anonymous_args = 0
 2845 0000 80B5     		push	{r7, lr}
 2846 0002 86B0     		sub	sp, sp, #24
 2847 0004 00AF     		add	r7, sp, #0
 2848 0006 7860     		str	r0, [r7, #4]
 2849 0008 3960     		str	r1, [r7]
 2850 000a FF23     		movs	r3, #255
ARM GAS  /var/folders/d2/nstgp4h54kz7g1l847x_b8wc0000gn/T//ccrhfnpm.s 			page 51


 2851 000c 7B75     		strb	r3, [r7, #21]
 2852 000e FF23     		movs	r3, #255
 2853 0010 3B75     		strb	r3, [r7, #20]
 2854 0012 0423     		movs	r3, #4
 2855 0014 FB75     		strb	r3, [r7, #23]
 2856 0016 79E0     		b	.L237
 2857              	.L250:
 2858 0018 7B68     		ldr	r3, [r7, #4]
 2859 001a 1A68     		ldr	r2, [r3]
 2860 001c 7B68     		ldr	r3, [r7, #4]
 2861 001e 1B69     		ldr	r3, [r3, #16]
 2862 0020 1946     		mov	r1, r3
 2863 0022 1046     		mov	r0, r2
 2864 0024 FFF7FEFF 		bl	move_window
 2865 0028 0346     		mov	r3, r0
 2866 002a FB75     		strb	r3, [r7, #23]
 2867 002c FB7D     		ldrb	r3, [r7, #23]	@ zero_extendqisi2
 2868 002e 002B     		cmp	r3, #0
 2869 0030 71D1     		bne	.L253
 2870 0032 7B68     		ldr	r3, [r7, #4]
 2871 0034 5B69     		ldr	r3, [r3, #20]
 2872 0036 3B61     		str	r3, [r7, #16]
 2873 0038 3B69     		ldr	r3, [r7, #16]
 2874 003a 1B78     		ldrb	r3, [r3]
 2875 003c BB75     		strb	r3, [r7, #22]
 2876 003e BB7D     		ldrb	r3, [r7, #22]	@ zero_extendqisi2
 2877 0040 002B     		cmp	r3, #0
 2878 0042 02D1     		bne	.L240
 2879 0044 0423     		movs	r3, #4
 2880 0046 FB75     		strb	r3, [r7, #23]
 2881 0048 6AE0     		b	.L239
 2882              	.L240:
 2883 004a 3B69     		ldr	r3, [r7, #16]
 2884 004c 0B33     		adds	r3, r3, #11
 2885 004e 1B78     		ldrb	r3, [r3]	@ zero_extendqisi2
 2886 0050 03F03F03 		and	r3, r3, #63
 2887 0054 FB73     		strb	r3, [r7, #15]
 2888 0056 BB7D     		ldrb	r3, [r7, #22]	@ zero_extendqisi2
 2889 0058 E52B     		cmp	r3, #229
 2890 005a 0CD0     		beq	.L241
 2891 005c BB7D     		ldrb	r3, [r7, #22]	@ zero_extendqisi2
 2892 005e 2E2B     		cmp	r3, #46
 2893 0060 09D0     		beq	.L241
 2894 0062 FB7B     		ldrb	r3, [r7, #15]	@ zero_extendqisi2
 2895 0064 082B     		cmp	r3, #8
 2896 0066 0CBF     		ite	eq
 2897 0068 0123     		moveq	r3, #1
 2898 006a 0023     		movne	r3, #0
 2899 006c DBB2     		uxtb	r3, r3
 2900 006e 1A46     		mov	r2, r3
 2901 0070 3B68     		ldr	r3, [r7]
 2902 0072 9342     		cmp	r3, r2
 2903 0074 02D0     		beq	.L242
 2904              	.L241:
 2905 0076 FF23     		movs	r3, #255
 2906 0078 7B75     		strb	r3, [r7, #21]
 2907 007a 3EE0     		b	.L243
ARM GAS  /var/folders/d2/nstgp4h54kz7g1l847x_b8wc0000gn/T//ccrhfnpm.s 			page 52


 2908              	.L242:
 2909 007c FB7B     		ldrb	r3, [r7, #15]	@ zero_extendqisi2
 2910 007e 0F2B     		cmp	r3, #15
 2911 0080 2BD1     		bne	.L244
 2912 0082 BB7D     		ldrb	r3, [r7, #22]	@ zero_extendqisi2
 2913 0084 03F04003 		and	r3, r3, #64
 2914 0088 002B     		cmp	r3, #0
 2915 008a 0CD0     		beq	.L245
 2916 008c 3B69     		ldr	r3, [r7, #16]
 2917 008e 5B7B     		ldrb	r3, [r3, #13]
 2918 0090 3B75     		strb	r3, [r7, #20]
 2919 0092 BB7D     		ldrb	r3, [r7, #22]
 2920 0094 23F04003 		bic	r3, r3, #64
 2921 0098 BB75     		strb	r3, [r7, #22]
 2922 009a BB7D     		ldrb	r3, [r7, #22]
 2923 009c 7B75     		strb	r3, [r7, #21]
 2924 009e 7B68     		ldr	r3, [r7, #4]
 2925 00a0 DA88     		ldrh	r2, [r3, #6]
 2926 00a2 7B68     		ldr	r3, [r7, #4]
 2927 00a4 1A84     		strh	r2, [r3, #32]	@ movhi
 2928              	.L245:
 2929 00a6 BA7D     		ldrb	r2, [r7, #22]	@ zero_extendqisi2
 2930 00a8 7B7D     		ldrb	r3, [r7, #21]	@ zero_extendqisi2
 2931 00aa 9A42     		cmp	r2, r3
 2932 00ac 12D1     		bne	.L246
 2933 00ae 3B69     		ldr	r3, [r7, #16]
 2934 00b0 0D33     		adds	r3, r3, #13
 2935 00b2 1B78     		ldrb	r3, [r3]	@ zero_extendqisi2
 2936 00b4 3A7D     		ldrb	r2, [r7, #20]	@ zero_extendqisi2
 2937 00b6 9A42     		cmp	r2, r3
 2938 00b8 0CD1     		bne	.L246
 2939 00ba 7B68     		ldr	r3, [r7, #4]
 2940 00bc DB69     		ldr	r3, [r3, #28]
 2941 00be 3969     		ldr	r1, [r7, #16]
 2942 00c0 1846     		mov	r0, r3
 2943 00c2 FFF7FEFF 		bl	pick_lfn
 2944 00c6 0346     		mov	r3, r0
 2945 00c8 002B     		cmp	r3, #0
 2946 00ca 03D0     		beq	.L246
 2947 00cc 7B7D     		ldrb	r3, [r7, #21]
 2948 00ce 013B     		subs	r3, r3, #1
 2949 00d0 DBB2     		uxtb	r3, r3
 2950 00d2 00E0     		b	.L247
 2951              	.L246:
 2952 00d4 FF23     		movs	r3, #255
 2953              	.L247:
 2954 00d6 7B75     		strb	r3, [r7, #21]
 2955 00d8 0FE0     		b	.L243
 2956              	.L244:
 2957 00da 7B7D     		ldrb	r3, [r7, #21]	@ zero_extendqisi2
 2958 00dc 002B     		cmp	r3, #0
 2959 00de 07D1     		bne	.L248
 2960 00e0 3869     		ldr	r0, [r7, #16]
 2961 00e2 FFF7FEFF 		bl	sum_sfn
 2962 00e6 0346     		mov	r3, r0
 2963 00e8 1A46     		mov	r2, r3
 2964 00ea 3B7D     		ldrb	r3, [r7, #20]	@ zero_extendqisi2
ARM GAS  /var/folders/d2/nstgp4h54kz7g1l847x_b8wc0000gn/T//ccrhfnpm.s 			page 53


 2965 00ec 9342     		cmp	r3, r2
 2966 00ee 14D0     		beq	.L254
 2967              	.L248:
 2968 00f0 7B68     		ldr	r3, [r7, #4]
 2969 00f2 4FF6FF72 		movw	r2, #65535
 2970 00f6 1A84     		strh	r2, [r3, #32]	@ movhi
 2971 00f8 0FE0     		b	.L254
 2972              	.L243:
 2973 00fa 0021     		movs	r1, #0
 2974 00fc 7868     		ldr	r0, [r7, #4]
 2975 00fe FFF7FEFF 		bl	dir_next
 2976 0102 0346     		mov	r3, r0
 2977 0104 FB75     		strb	r3, [r7, #23]
 2978 0106 FB7D     		ldrb	r3, [r7, #23]	@ zero_extendqisi2
 2979 0108 002B     		cmp	r3, #0
 2980 010a 08D1     		bne	.L255
 2981              	.L237:
 2982 010c 7B68     		ldr	r3, [r7, #4]
 2983 010e 1B69     		ldr	r3, [r3, #16]
 2984 0110 002B     		cmp	r3, #0
 2985 0112 81D1     		bne	.L250
 2986 0114 04E0     		b	.L239
 2987              	.L253:
 2988 0116 00BF     		nop
 2989 0118 02E0     		b	.L239
 2990              	.L254:
 2991 011a 00BF     		nop
 2992 011c 00E0     		b	.L239
 2993              	.L255:
 2994 011e 00BF     		nop
 2995              	.L239:
 2996 0120 FB7D     		ldrb	r3, [r7, #23]	@ zero_extendqisi2
 2997 0122 002B     		cmp	r3, #0
 2998 0124 02D0     		beq	.L251
 2999 0126 7B68     		ldr	r3, [r7, #4]
 3000 0128 0022     		movs	r2, #0
 3001 012a 1A61     		str	r2, [r3, #16]
 3002              	.L251:
 3003 012c FB7D     		ldrb	r3, [r7, #23]	@ zero_extendqisi2
 3004 012e 1846     		mov	r0, r3
 3005 0130 1837     		adds	r7, r7, #24
 3006 0132 BD46     		mov	sp, r7
 3007              		@ sp needed
 3008 0134 80BD     		pop	{r7, pc}
 3009              		.size	dir_read, .-dir_read
 3010              		.section	.text.dir_register,"ax",%progbits
 3011              		.align	1
 3012              		.syntax unified
 3013              		.thumb
 3014              		.thumb_func
 3015              		.fpu fpv4-sp-d16
 3016              		.type	dir_register, %function
 3017              	dir_register:
 3018              		@ args = 0, pretend = 0, frame = 48
 3019              		@ frame_needed = 1, uses_anonymous_args = 0
 3020 0000 80B5     		push	{r7, lr}
 3021 0002 8CB0     		sub	sp, sp, #48
ARM GAS  /var/folders/d2/nstgp4h54kz7g1l847x_b8wc0000gn/T//ccrhfnpm.s 			page 54


 3022 0004 00AF     		add	r7, sp, #0
 3023 0006 7860     		str	r0, [r7, #4]
 3024 0008 7B68     		ldr	r3, [r7, #4]
 3025 000a 9B69     		ldr	r3, [r3, #24]
 3026 000c 3B62     		str	r3, [r7, #32]
 3027 000e 7B68     		ldr	r3, [r7, #4]
 3028 0010 DB69     		ldr	r3, [r3, #28]
 3029 0012 FB61     		str	r3, [r7, #28]
 3030 0014 07F10C03 		add	r3, r7, #12
 3031 0018 0C22     		movs	r2, #12
 3032 001a 396A     		ldr	r1, [r7, #32]
 3033 001c 1846     		mov	r0, r3
 3034 001e FFF7FEFF 		bl	mem_cpy
 3035 0022 FB7D     		ldrb	r3, [r7, #23]	@ zero_extendqisi2
 3036 0024 03F00103 		and	r3, r3, #1
 3037 0028 002B     		cmp	r3, #0
 3038 002a 35D0     		beq	.L257
 3039 002c 3B6A     		ldr	r3, [r7, #32]
 3040 002e 0B33     		adds	r3, r3, #11
 3041 0030 0022     		movs	r2, #0
 3042 0032 1A70     		strb	r2, [r3]
 3043 0034 7B68     		ldr	r3, [r7, #4]
 3044 0036 0022     		movs	r2, #0
 3045 0038 DA61     		str	r2, [r3, #28]
 3046 003a 0123     		movs	r3, #1
 3047 003c BB62     		str	r3, [r7, #40]
 3048 003e 13E0     		b	.L258
 3049              	.L261:
 3050 0040 07F10C01 		add	r1, r7, #12
 3051 0044 BB6A     		ldr	r3, [r7, #40]
 3052 0046 FA69     		ldr	r2, [r7, #28]
 3053 0048 386A     		ldr	r0, [r7, #32]
 3054 004a FFF7FEFF 		bl	gen_numname
 3055 004e 7868     		ldr	r0, [r7, #4]
 3056 0050 FFF7FEFF 		bl	dir_find
 3057 0054 0346     		mov	r3, r0
 3058 0056 87F82F30 		strb	r3, [r7, #47]
 3059 005a 97F82F30 		ldrb	r3, [r7, #47]	@ zero_extendqisi2
 3060 005e 002B     		cmp	r3, #0
 3061 0060 06D1     		bne	.L274
 3062 0062 BB6A     		ldr	r3, [r7, #40]
 3063 0064 0133     		adds	r3, r3, #1
 3064 0066 BB62     		str	r3, [r7, #40]
 3065              	.L258:
 3066 0068 BB6A     		ldr	r3, [r7, #40]
 3067 006a 632B     		cmp	r3, #99
 3068 006c E8D9     		bls	.L261
 3069 006e 00E0     		b	.L260
 3070              	.L274:
 3071 0070 00BF     		nop
 3072              	.L260:
 3073 0072 BB6A     		ldr	r3, [r7, #40]
 3074 0074 642B     		cmp	r3, #100
 3075 0076 01D1     		bne	.L262
 3076 0078 0723     		movs	r3, #7
 3077 007a B3E0     		b	.L273
 3078              	.L262:
ARM GAS  /var/folders/d2/nstgp4h54kz7g1l847x_b8wc0000gn/T//ccrhfnpm.s 			page 55


 3079 007c 97F82F30 		ldrb	r3, [r7, #47]	@ zero_extendqisi2
 3080 0080 042B     		cmp	r3, #4
 3081 0082 02D0     		beq	.L264
 3082 0084 97F82F30 		ldrb	r3, [r7, #47]	@ zero_extendqisi2
 3083 0088 ACE0     		b	.L273
 3084              	.L264:
 3085 008a 3B6A     		ldr	r3, [r7, #32]
 3086 008c 0B33     		adds	r3, r3, #11
 3087 008e FA7D     		ldrb	r2, [r7, #23]	@ zero_extendqisi2
 3088 0090 1A70     		strb	r2, [r3]
 3089 0092 7B68     		ldr	r3, [r7, #4]
 3090 0094 FA69     		ldr	r2, [r7, #28]
 3091 0096 DA61     		str	r2, [r3, #28]
 3092              	.L257:
 3093 0098 FB7D     		ldrb	r3, [r7, #23]	@ zero_extendqisi2
 3094 009a 03F00203 		and	r3, r3, #2
 3095 009e 002B     		cmp	r3, #0
 3096 00a0 14D0     		beq	.L265
 3097 00a2 0023     		movs	r3, #0
 3098 00a4 BB62     		str	r3, [r7, #40]
 3099 00a6 02E0     		b	.L266
 3100              	.L267:
 3101 00a8 BB6A     		ldr	r3, [r7, #40]
 3102 00aa 0133     		adds	r3, r3, #1
 3103 00ac BB62     		str	r3, [r7, #40]
 3104              	.L266:
 3105 00ae BB6A     		ldr	r3, [r7, #40]
 3106 00b0 5B00     		lsls	r3, r3, #1
 3107 00b2 FA69     		ldr	r2, [r7, #28]
 3108 00b4 1344     		add	r3, r3, r2
 3109 00b6 1B88     		ldrh	r3, [r3]
 3110 00b8 002B     		cmp	r3, #0
 3111 00ba F5D1     		bne	.L267
 3112 00bc BB6A     		ldr	r3, [r7, #40]
 3113 00be 1933     		adds	r3, r3, #25
 3114 00c0 4A4A     		ldr	r2, .L276
 3115 00c2 A2FB0323 		umull	r2, r3, r2, r3
 3116 00c6 9B08     		lsrs	r3, r3, #2
 3117 00c8 7B62     		str	r3, [r7, #36]
 3118 00ca 01E0     		b	.L268
 3119              	.L265:
 3120 00cc 0123     		movs	r3, #1
 3121 00ce 7B62     		str	r3, [r7, #36]
 3122              	.L268:
 3123 00d0 796A     		ldr	r1, [r7, #36]
 3124 00d2 7868     		ldr	r0, [r7, #4]
 3125 00d4 FFF7FEFF 		bl	dir_alloc
 3126 00d8 0346     		mov	r3, r0
 3127 00da 87F82F30 		strb	r3, [r7, #47]
 3128 00de 97F82F30 		ldrb	r3, [r7, #47]	@ zero_extendqisi2
 3129 00e2 002B     		cmp	r3, #0
 3130 00e4 4BD1     		bne	.L269
 3131 00e6 7B6A     		ldr	r3, [r7, #36]
 3132 00e8 013B     		subs	r3, r3, #1
 3133 00ea 7B62     		str	r3, [r7, #36]
 3134 00ec 7B6A     		ldr	r3, [r7, #36]
 3135 00ee 002B     		cmp	r3, #0
ARM GAS  /var/folders/d2/nstgp4h54kz7g1l847x_b8wc0000gn/T//ccrhfnpm.s 			page 56


 3136 00f0 45D0     		beq	.L269
 3137 00f2 7B68     		ldr	r3, [r7, #4]
 3138 00f4 DB88     		ldrh	r3, [r3, #6]
 3139 00f6 1A46     		mov	r2, r3
 3140 00f8 7B6A     		ldr	r3, [r7, #36]
 3141 00fa D31A     		subs	r3, r2, r3
 3142 00fc 1946     		mov	r1, r3
 3143 00fe 7868     		ldr	r0, [r7, #4]
 3144 0100 FFF7FEFF 		bl	dir_sdi
 3145 0104 0346     		mov	r3, r0
 3146 0106 87F82F30 		strb	r3, [r7, #47]
 3147 010a 97F82F30 		ldrb	r3, [r7, #47]	@ zero_extendqisi2
 3148 010e 002B     		cmp	r3, #0
 3149 0110 35D1     		bne	.L269
 3150 0112 7B68     		ldr	r3, [r7, #4]
 3151 0114 9B69     		ldr	r3, [r3, #24]
 3152 0116 1846     		mov	r0, r3
 3153 0118 FFF7FEFF 		bl	sum_sfn
 3154 011c 0346     		mov	r3, r0
 3155 011e FB76     		strb	r3, [r7, #27]
 3156              	.L271:
 3157 0120 7B68     		ldr	r3, [r7, #4]
 3158 0122 1A68     		ldr	r2, [r3]
 3159 0124 7B68     		ldr	r3, [r7, #4]
 3160 0126 1B69     		ldr	r3, [r3, #16]
 3161 0128 1946     		mov	r1, r3
 3162 012a 1046     		mov	r0, r2
 3163 012c FFF7FEFF 		bl	move_window
 3164 0130 0346     		mov	r3, r0
 3165 0132 87F82F30 		strb	r3, [r7, #47]
 3166 0136 97F82F30 		ldrb	r3, [r7, #47]	@ zero_extendqisi2
 3167 013a 002B     		cmp	r3, #0
 3168 013c 1ED1     		bne	.L275
 3169 013e 7B68     		ldr	r3, [r7, #4]
 3170 0140 D869     		ldr	r0, [r3, #28]
 3171 0142 7B68     		ldr	r3, [r7, #4]
 3172 0144 5969     		ldr	r1, [r3, #20]
 3173 0146 7B6A     		ldr	r3, [r7, #36]
 3174 0148 DAB2     		uxtb	r2, r3
 3175 014a FB7E     		ldrb	r3, [r7, #27]	@ zero_extendqisi2
 3176 014c FFF7FEFF 		bl	fit_lfn
 3177 0150 7B68     		ldr	r3, [r7, #4]
 3178 0152 1B68     		ldr	r3, [r3]
 3179 0154 0122     		movs	r2, #1
 3180 0156 1A71     		strb	r2, [r3, #4]
 3181 0158 0021     		movs	r1, #0
 3182 015a 7868     		ldr	r0, [r7, #4]
 3183 015c FFF7FEFF 		bl	dir_next
 3184 0160 0346     		mov	r3, r0
 3185 0162 87F82F30 		strb	r3, [r7, #47]
 3186 0166 97F82F30 		ldrb	r3, [r7, #47]	@ zero_extendqisi2
 3187 016a 002B     		cmp	r3, #0
 3188 016c 07D1     		bne	.L269
 3189 016e 7B6A     		ldr	r3, [r7, #36]
 3190 0170 013B     		subs	r3, r3, #1
 3191 0172 7B62     		str	r3, [r7, #36]
 3192 0174 7B6A     		ldr	r3, [r7, #36]
ARM GAS  /var/folders/d2/nstgp4h54kz7g1l847x_b8wc0000gn/T//ccrhfnpm.s 			page 57


 3193 0176 002B     		cmp	r3, #0
 3194 0178 D2D1     		bne	.L271
 3195 017a 00E0     		b	.L269
 3196              	.L275:
 3197 017c 00BF     		nop
 3198              	.L269:
 3199 017e 97F82F30 		ldrb	r3, [r7, #47]	@ zero_extendqisi2
 3200 0182 002B     		cmp	r3, #0
 3201 0184 2CD1     		bne	.L272
 3202 0186 7B68     		ldr	r3, [r7, #4]
 3203 0188 1A68     		ldr	r2, [r3]
 3204 018a 7B68     		ldr	r3, [r7, #4]
 3205 018c 1B69     		ldr	r3, [r3, #16]
 3206 018e 1946     		mov	r1, r3
 3207 0190 1046     		mov	r0, r2
 3208 0192 FFF7FEFF 		bl	move_window
 3209 0196 0346     		mov	r3, r0
 3210 0198 87F82F30 		strb	r3, [r7, #47]
 3211 019c 97F82F30 		ldrb	r3, [r7, #47]	@ zero_extendqisi2
 3212 01a0 002B     		cmp	r3, #0
 3213 01a2 1DD1     		bne	.L272
 3214 01a4 7B68     		ldr	r3, [r7, #4]
 3215 01a6 5B69     		ldr	r3, [r3, #20]
 3216 01a8 2022     		movs	r2, #32
 3217 01aa 0021     		movs	r1, #0
 3218 01ac 1846     		mov	r0, r3
 3219 01ae FFF7FEFF 		bl	mem_set
 3220 01b2 7B68     		ldr	r3, [r7, #4]
 3221 01b4 5869     		ldr	r0, [r3, #20]
 3222 01b6 7B68     		ldr	r3, [r7, #4]
 3223 01b8 9B69     		ldr	r3, [r3, #24]
 3224 01ba 0B22     		movs	r2, #11
 3225 01bc 1946     		mov	r1, r3
 3226 01be FFF7FEFF 		bl	mem_cpy
 3227 01c2 7B68     		ldr	r3, [r7, #4]
 3228 01c4 9B69     		ldr	r3, [r3, #24]
 3229 01c6 0B33     		adds	r3, r3, #11
 3230 01c8 1A78     		ldrb	r2, [r3]	@ zero_extendqisi2
 3231 01ca 7B68     		ldr	r3, [r7, #4]
 3232 01cc 5B69     		ldr	r3, [r3, #20]
 3233 01ce 0C33     		adds	r3, r3, #12
 3234 01d0 02F01802 		and	r2, r2, #24
 3235 01d4 D2B2     		uxtb	r2, r2
 3236 01d6 1A70     		strb	r2, [r3]
 3237 01d8 7B68     		ldr	r3, [r7, #4]
 3238 01da 1B68     		ldr	r3, [r3]
 3239 01dc 0122     		movs	r2, #1
 3240 01de 1A71     		strb	r2, [r3, #4]
 3241              	.L272:
 3242 01e0 97F82F30 		ldrb	r3, [r7, #47]	@ zero_extendqisi2
 3243              	.L273:
 3244 01e4 1846     		mov	r0, r3
 3245 01e6 3037     		adds	r7, r7, #48
 3246 01e8 BD46     		mov	sp, r7
 3247              		@ sp needed
 3248 01ea 80BD     		pop	{r7, pc}
 3249              	.L277:
ARM GAS  /var/folders/d2/nstgp4h54kz7g1l847x_b8wc0000gn/T//ccrhfnpm.s 			page 58


 3250              		.align	2
 3251              	.L276:
 3252 01ec 4FECC44E 		.word	1321528399
 3253              		.size	dir_register, .-dir_register
 3254              		.section	.text.dir_remove,"ax",%progbits
 3255              		.align	1
 3256              		.syntax unified
 3257              		.thumb
 3258              		.thumb_func
 3259              		.fpu fpv4-sp-d16
 3260              		.type	dir_remove, %function
 3261              	dir_remove:
 3262              		@ args = 0, pretend = 0, frame = 16
 3263              		@ frame_needed = 1, uses_anonymous_args = 0
 3264 0000 80B5     		push	{r7, lr}
 3265 0002 84B0     		sub	sp, sp, #16
 3266 0004 00AF     		add	r7, sp, #0
 3267 0006 7860     		str	r0, [r7, #4]
 3268 0008 7B68     		ldr	r3, [r7, #4]
 3269 000a DB88     		ldrh	r3, [r3, #6]
 3270 000c BB60     		str	r3, [r7, #8]
 3271 000e 7B68     		ldr	r3, [r7, #4]
 3272 0010 1B8C     		ldrh	r3, [r3, #32]
 3273 0012 4FF6FF72 		movw	r2, #65535
 3274 0016 9342     		cmp	r3, r2
 3275 0018 02D0     		beq	.L279
 3276 001a 7B68     		ldr	r3, [r7, #4]
 3277 001c 1B8C     		ldrh	r3, [r3, #32]
 3278 001e 00E0     		b	.L280
 3279              	.L279:
 3280 0020 BB68     		ldr	r3, [r7, #8]
 3281              	.L280:
 3282 0022 1946     		mov	r1, r3
 3283 0024 7868     		ldr	r0, [r7, #4]
 3284 0026 FFF7FEFF 		bl	dir_sdi
 3285 002a 0346     		mov	r3, r0
 3286 002c FB73     		strb	r3, [r7, #15]
 3287 002e FB7B     		ldrb	r3, [r7, #15]	@ zero_extendqisi2
 3288 0030 002B     		cmp	r3, #0
 3289 0032 33D1     		bne	.L281
 3290              	.L285:
 3291 0034 7B68     		ldr	r3, [r7, #4]
 3292 0036 1A68     		ldr	r2, [r3]
 3293 0038 7B68     		ldr	r3, [r7, #4]
 3294 003a 1B69     		ldr	r3, [r3, #16]
 3295 003c 1946     		mov	r1, r3
 3296 003e 1046     		mov	r0, r2
 3297 0040 FFF7FEFF 		bl	move_window
 3298 0044 0346     		mov	r3, r0
 3299 0046 FB73     		strb	r3, [r7, #15]
 3300 0048 FB7B     		ldrb	r3, [r7, #15]	@ zero_extendqisi2
 3301 004a 002B     		cmp	r3, #0
 3302 004c 1ED1     		bne	.L287
 3303 004e 7B68     		ldr	r3, [r7, #4]
 3304 0050 5B69     		ldr	r3, [r3, #20]
 3305 0052 2022     		movs	r2, #32
 3306 0054 0021     		movs	r1, #0
ARM GAS  /var/folders/d2/nstgp4h54kz7g1l847x_b8wc0000gn/T//ccrhfnpm.s 			page 59


 3307 0056 1846     		mov	r0, r3
 3308 0058 FFF7FEFF 		bl	mem_set
 3309 005c 7B68     		ldr	r3, [r7, #4]
 3310 005e 5B69     		ldr	r3, [r3, #20]
 3311 0060 E522     		movs	r2, #229
 3312 0062 1A70     		strb	r2, [r3]
 3313 0064 7B68     		ldr	r3, [r7, #4]
 3314 0066 1B68     		ldr	r3, [r3]
 3315 0068 0122     		movs	r2, #1
 3316 006a 1A71     		strb	r2, [r3, #4]
 3317 006c 7B68     		ldr	r3, [r7, #4]
 3318 006e DB88     		ldrh	r3, [r3, #6]
 3319 0070 1A46     		mov	r2, r3
 3320 0072 BB68     		ldr	r3, [r7, #8]
 3321 0074 9342     		cmp	r3, r2
 3322 0076 0BD9     		bls	.L288
 3323 0078 0021     		movs	r1, #0
 3324 007a 7868     		ldr	r0, [r7, #4]
 3325 007c FFF7FEFF 		bl	dir_next
 3326 0080 0346     		mov	r3, r0
 3327 0082 FB73     		strb	r3, [r7, #15]
 3328 0084 FB7B     		ldrb	r3, [r7, #15]	@ zero_extendqisi2
 3329 0086 002B     		cmp	r3, #0
 3330 0088 D4D0     		beq	.L285
 3331 008a 02E0     		b	.L283
 3332              	.L287:
 3333 008c 00BF     		nop
 3334 008e 00E0     		b	.L283
 3335              	.L288:
 3336 0090 00BF     		nop
 3337              	.L283:
 3338 0092 FB7B     		ldrb	r3, [r7, #15]	@ zero_extendqisi2
 3339 0094 042B     		cmp	r3, #4
 3340 0096 01D1     		bne	.L281
 3341 0098 0223     		movs	r3, #2
 3342 009a FB73     		strb	r3, [r7, #15]
 3343              	.L281:
 3344 009c FB7B     		ldrb	r3, [r7, #15]	@ zero_extendqisi2
 3345 009e 1846     		mov	r0, r3
 3346 00a0 1037     		adds	r7, r7, #16
 3347 00a2 BD46     		mov	sp, r7
 3348              		@ sp needed
 3349 00a4 80BD     		pop	{r7, pc}
 3350              		.size	dir_remove, .-dir_remove
 3351              		.section	.text.get_fileinfo,"ax",%progbits
 3352              		.align	1
 3353              		.syntax unified
 3354              		.thumb
 3355              		.thumb_func
 3356              		.fpu fpv4-sp-d16
 3357              		.type	get_fileinfo, %function
 3358              	get_fileinfo:
 3359              		@ args = 0, pretend = 0, frame = 32
 3360              		@ frame_needed = 1, uses_anonymous_args = 0
 3361 0000 80B5     		push	{r7, lr}
 3362 0002 88B0     		sub	sp, sp, #32
 3363 0004 00AF     		add	r7, sp, #0
ARM GAS  /var/folders/d2/nstgp4h54kz7g1l847x_b8wc0000gn/T//ccrhfnpm.s 			page 60


 3364 0006 7860     		str	r0, [r7, #4]
 3365 0008 3960     		str	r1, [r7]
 3366 000a 3B68     		ldr	r3, [r7]
 3367 000c 0933     		adds	r3, r3, #9
 3368 000e BB61     		str	r3, [r7, #24]
 3369 0010 7B68     		ldr	r3, [r7, #4]
 3370 0012 1B69     		ldr	r3, [r3, #16]
 3371 0014 002B     		cmp	r3, #0
 3372 0016 6FD0     		beq	.L290
 3373 0018 7B68     		ldr	r3, [r7, #4]
 3374 001a 5B69     		ldr	r3, [r3, #20]
 3375 001c FB60     		str	r3, [r7, #12]
 3376 001e 0023     		movs	r3, #0
 3377 0020 FB61     		str	r3, [r7, #28]
 3378 0022 32E0     		b	.L291
 3379              	.L298:
 3380 0024 FB69     		ldr	r3, [r7, #28]
 3381 0026 5A1C     		adds	r2, r3, #1
 3382 0028 FA61     		str	r2, [r7, #28]
 3383 002a FA68     		ldr	r2, [r7, #12]
 3384 002c 1344     		add	r3, r3, r2
 3385 002e 1B78     		ldrb	r3, [r3]
 3386 0030 FB75     		strb	r3, [r7, #23]
 3387 0032 FB7D     		ldrb	r3, [r7, #23]	@ zero_extendqisi2
 3388 0034 202B     		cmp	r3, #32
 3389 0036 00D1     		bne	.L292
 3390 0038 27E0     		b	.L291
 3391              	.L292:
 3392 003a FB7D     		ldrb	r3, [r7, #23]	@ zero_extendqisi2
 3393 003c 052B     		cmp	r3, #5
 3394 003e 01D1     		bne	.L293
 3395 0040 E523     		movs	r3, #229
 3396 0042 FB75     		strb	r3, [r7, #23]
 3397              	.L293:
 3398 0044 FB69     		ldr	r3, [r7, #28]
 3399 0046 092B     		cmp	r3, #9
 3400 0048 04D1     		bne	.L294
 3401 004a BB69     		ldr	r3, [r7, #24]
 3402 004c 5A1C     		adds	r2, r3, #1
 3403 004e BA61     		str	r2, [r7, #24]
 3404 0050 2E22     		movs	r2, #46
 3405 0052 1A70     		strb	r2, [r3]
 3406              	.L294:
 3407 0054 FB7D     		ldrb	r3, [r7, #23]	@ zero_extendqisi2
 3408 0056 402B     		cmp	r3, #64
 3409 0058 12D9     		bls	.L295
 3410 005a FB7D     		ldrb	r3, [r7, #23]	@ zero_extendqisi2
 3411 005c 5A2B     		cmp	r3, #90
 3412 005e 0FD8     		bhi	.L295
 3413 0060 FB68     		ldr	r3, [r7, #12]
 3414 0062 0C33     		adds	r3, r3, #12
 3415 0064 1B78     		ldrb	r3, [r3]	@ zero_extendqisi2
 3416 0066 1A46     		mov	r2, r3
 3417 0068 FB69     		ldr	r3, [r7, #28]
 3418 006a 082B     		cmp	r3, #8
 3419 006c 01D9     		bls	.L296
 3420 006e 1023     		movs	r3, #16
ARM GAS  /var/folders/d2/nstgp4h54kz7g1l847x_b8wc0000gn/T//ccrhfnpm.s 			page 61


 3421 0070 00E0     		b	.L297
 3422              	.L296:
 3423 0072 0823     		movs	r3, #8
 3424              	.L297:
 3425 0074 1340     		ands	r3, r3, r2
 3426 0076 002B     		cmp	r3, #0
 3427 0078 02D0     		beq	.L295
 3428 007a FB7D     		ldrb	r3, [r7, #23]
 3429 007c 2033     		adds	r3, r3, #32
 3430 007e FB75     		strb	r3, [r7, #23]
 3431              	.L295:
 3432 0080 BB69     		ldr	r3, [r7, #24]
 3433 0082 5A1C     		adds	r2, r3, #1
 3434 0084 BA61     		str	r2, [r7, #24]
 3435 0086 FA7D     		ldrb	r2, [r7, #23]
 3436 0088 1A70     		strb	r2, [r3]
 3437              	.L291:
 3438 008a FB69     		ldr	r3, [r7, #28]
 3439 008c 0A2B     		cmp	r3, #10
 3440 008e C9D9     		bls	.L298
 3441 0090 FB68     		ldr	r3, [r7, #12]
 3442 0092 DA7A     		ldrb	r2, [r3, #11]	@ zero_extendqisi2
 3443 0094 3B68     		ldr	r3, [r7]
 3444 0096 1A72     		strb	r2, [r3, #8]
 3445 0098 FB68     		ldr	r3, [r7, #12]
 3446 009a 1F33     		adds	r3, r3, #31
 3447 009c 1B78     		ldrb	r3, [r3]	@ zero_extendqisi2
 3448 009e 1A06     		lsls	r2, r3, #24
 3449 00a0 FB68     		ldr	r3, [r7, #12]
 3450 00a2 1E33     		adds	r3, r3, #30
 3451 00a4 1B78     		ldrb	r3, [r3]	@ zero_extendqisi2
 3452 00a6 1B04     		lsls	r3, r3, #16
 3453 00a8 1343     		orrs	r3, r3, r2
 3454 00aa FA68     		ldr	r2, [r7, #12]
 3455 00ac 1D32     		adds	r2, r2, #29
 3456 00ae 1278     		ldrb	r2, [r2]	@ zero_extendqisi2
 3457 00b0 1202     		lsls	r2, r2, #8
 3458 00b2 1343     		orrs	r3, r3, r2
 3459 00b4 FA68     		ldr	r2, [r7, #12]
 3460 00b6 1C32     		adds	r2, r2, #28
 3461 00b8 1278     		ldrb	r2, [r2]	@ zero_extendqisi2
 3462 00ba 1A43     		orrs	r2, r2, r3
 3463 00bc 3B68     		ldr	r3, [r7]
 3464 00be 1A60     		str	r2, [r3]
 3465 00c0 FB68     		ldr	r3, [r7, #12]
 3466 00c2 1933     		adds	r3, r3, #25
 3467 00c4 1B78     		ldrb	r3, [r3]	@ zero_extendqisi2
 3468 00c6 1B02     		lsls	r3, r3, #8
 3469 00c8 1AB2     		sxth	r2, r3
 3470 00ca FB68     		ldr	r3, [r7, #12]
 3471 00cc 1833     		adds	r3, r3, #24
 3472 00ce 1B78     		ldrb	r3, [r3]	@ zero_extendqisi2
 3473 00d0 1BB2     		sxth	r3, r3
 3474 00d2 1343     		orrs	r3, r3, r2
 3475 00d4 1BB2     		sxth	r3, r3
 3476 00d6 9AB2     		uxth	r2, r3
 3477 00d8 3B68     		ldr	r3, [r7]
ARM GAS  /var/folders/d2/nstgp4h54kz7g1l847x_b8wc0000gn/T//ccrhfnpm.s 			page 62


 3478 00da 9A80     		strh	r2, [r3, #4]	@ movhi
 3479 00dc FB68     		ldr	r3, [r7, #12]
 3480 00de 1733     		adds	r3, r3, #23
 3481 00e0 1B78     		ldrb	r3, [r3]	@ zero_extendqisi2
 3482 00e2 1B02     		lsls	r3, r3, #8
 3483 00e4 1AB2     		sxth	r2, r3
 3484 00e6 FB68     		ldr	r3, [r7, #12]
 3485 00e8 1633     		adds	r3, r3, #22
 3486 00ea 1B78     		ldrb	r3, [r3]	@ zero_extendqisi2
 3487 00ec 1BB2     		sxth	r3, r3
 3488 00ee 1343     		orrs	r3, r3, r2
 3489 00f0 1BB2     		sxth	r3, r3
 3490 00f2 9AB2     		uxth	r2, r3
 3491 00f4 3B68     		ldr	r3, [r7]
 3492 00f6 DA80     		strh	r2, [r3, #6]	@ movhi
 3493              	.L290:
 3494 00f8 BB69     		ldr	r3, [r7, #24]
 3495 00fa 0022     		movs	r2, #0
 3496 00fc 1A70     		strb	r2, [r3]
 3497 00fe 3B68     		ldr	r3, [r7]
 3498 0100 9B69     		ldr	r3, [r3, #24]
 3499 0102 002B     		cmp	r3, #0
 3500 0104 41D0     		beq	.L305
 3501 0106 0023     		movs	r3, #0
 3502 0108 FB61     		str	r3, [r7, #28]
 3503 010a 3B68     		ldr	r3, [r7]
 3504 010c 9B69     		ldr	r3, [r3, #24]
 3505 010e BB61     		str	r3, [r7, #24]
 3506 0110 7B68     		ldr	r3, [r7, #4]
 3507 0112 1B69     		ldr	r3, [r3, #16]
 3508 0114 002B     		cmp	r3, #0
 3509 0116 33D0     		beq	.L300
 3510 0118 3B68     		ldr	r3, [r7]
 3511 011a DB69     		ldr	r3, [r3, #28]
 3512 011c 002B     		cmp	r3, #0
 3513 011e 2FD0     		beq	.L300
 3514 0120 7B68     		ldr	r3, [r7, #4]
 3515 0122 1B8C     		ldrh	r3, [r3, #32]
 3516 0124 4FF6FF72 		movw	r2, #65535
 3517 0128 9342     		cmp	r3, r2
 3518 012a 29D0     		beq	.L300
 3519 012c 7B68     		ldr	r3, [r7, #4]
 3520 012e DB69     		ldr	r3, [r3, #28]
 3521 0130 3B61     		str	r3, [r7, #16]
 3522 0132 1DE0     		b	.L301
 3523              	.L304:
 3524 0134 7B89     		ldrh	r3, [r7, #10]
 3525 0136 0021     		movs	r1, #0
 3526 0138 1846     		mov	r0, r3
 3527 013a FFF7FEFF 		bl	ff_convert
 3528 013e 0346     		mov	r3, r0
 3529 0140 7B81     		strh	r3, [r7, #10]	@ movhi
 3530 0142 7B89     		ldrh	r3, [r7, #10]
 3531 0144 002B     		cmp	r3, #0
 3532 0146 02D1     		bne	.L302
 3533 0148 0023     		movs	r3, #0
 3534 014a FB61     		str	r3, [r7, #28]
ARM GAS  /var/folders/d2/nstgp4h54kz7g1l847x_b8wc0000gn/T//ccrhfnpm.s 			page 63


 3535 014c 18E0     		b	.L300
 3536              	.L302:
 3537 014e 3B68     		ldr	r3, [r7]
 3538 0150 DB69     		ldr	r3, [r3, #28]
 3539 0152 013B     		subs	r3, r3, #1
 3540 0154 FA69     		ldr	r2, [r7, #28]
 3541 0156 9A42     		cmp	r2, r3
 3542 0158 02D3     		bcc	.L303
 3543 015a 0023     		movs	r3, #0
 3544 015c FB61     		str	r3, [r7, #28]
 3545 015e 0FE0     		b	.L300
 3546              	.L303:
 3547 0160 FB69     		ldr	r3, [r7, #28]
 3548 0162 5A1C     		adds	r2, r3, #1
 3549 0164 FA61     		str	r2, [r7, #28]
 3550 0166 BA69     		ldr	r2, [r7, #24]
 3551 0168 1344     		add	r3, r3, r2
 3552 016a 7A89     		ldrh	r2, [r7, #10]	@ movhi
 3553 016c D2B2     		uxtb	r2, r2
 3554 016e 1A70     		strb	r2, [r3]
 3555              	.L301:
 3556 0170 3B69     		ldr	r3, [r7, #16]
 3557 0172 9A1C     		adds	r2, r3, #2
 3558 0174 3A61     		str	r2, [r7, #16]
 3559 0176 1B88     		ldrh	r3, [r3]	@ movhi
 3560 0178 7B81     		strh	r3, [r7, #10]	@ movhi
 3561 017a 7B89     		ldrh	r3, [r7, #10]
 3562 017c 002B     		cmp	r3, #0
 3563 017e D9D1     		bne	.L304
 3564              	.L300:
 3565 0180 BA69     		ldr	r2, [r7, #24]
 3566 0182 FB69     		ldr	r3, [r7, #28]
 3567 0184 1344     		add	r3, r3, r2
 3568 0186 0022     		movs	r2, #0
 3569 0188 1A70     		strb	r2, [r3]
 3570              	.L305:
 3571 018a 00BF     		nop
 3572 018c 2037     		adds	r7, r7, #32
 3573 018e BD46     		mov	sp, r7
 3574              		@ sp needed
 3575 0190 80BD     		pop	{r7, pc}
 3576              		.size	get_fileinfo, .-get_fileinfo
 3577              		.section	.rodata
 3578              		.align	2
 3579              	.LC0:
 3580 0000 222A3A3C 		.ascii	"\"*:<>?|\177\000"
 3580      3E3F7C7F 
 3580      00
 3581 0009 000000   		.align	2
 3582              	.LC1:
 3583 000c 2B2C3B3D 		.ascii	"+,;=[]\000"
 3583      5B5D00
 3584              		.section	.text.create_name,"ax",%progbits
 3585              		.align	1
 3586              		.syntax unified
 3587              		.thumb
 3588              		.thumb_func
ARM GAS  /var/folders/d2/nstgp4h54kz7g1l847x_b8wc0000gn/T//ccrhfnpm.s 			page 64


 3589              		.fpu fpv4-sp-d16
 3590              		.type	create_name, %function
 3591              	create_name:
 3592              		@ args = 0, pretend = 0, frame = 40
 3593              		@ frame_needed = 1, uses_anonymous_args = 0
 3594 0000 80B5     		push	{r7, lr}
 3595 0002 8AB0     		sub	sp, sp, #40
 3596 0004 00AF     		add	r7, sp, #0
 3597 0006 7860     		str	r0, [r7, #4]
 3598 0008 3960     		str	r1, [r7]
 3599 000a 3B68     		ldr	r3, [r7]
 3600 000c 1B68     		ldr	r3, [r3]
 3601 000e 3B61     		str	r3, [r7, #16]
 3602 0010 02E0     		b	.L307
 3603              	.L308:
 3604 0012 3B69     		ldr	r3, [r7, #16]
 3605 0014 0133     		adds	r3, r3, #1
 3606 0016 3B61     		str	r3, [r7, #16]
 3607              	.L307:
 3608 0018 3B69     		ldr	r3, [r7, #16]
 3609 001a 1B78     		ldrb	r3, [r3]	@ zero_extendqisi2
 3610 001c 2F2B     		cmp	r3, #47
 3611 001e F8D0     		beq	.L308
 3612 0020 3B69     		ldr	r3, [r7, #16]
 3613 0022 1B78     		ldrb	r3, [r3]	@ zero_extendqisi2
 3614 0024 5C2B     		cmp	r3, #92
 3615 0026 F4D0     		beq	.L308
 3616 0028 7B68     		ldr	r3, [r7, #4]
 3617 002a DB69     		ldr	r3, [r3, #28]
 3618 002c FB60     		str	r3, [r7, #12]
 3619 002e 0023     		movs	r3, #0
 3620 0030 7B61     		str	r3, [r7, #20]
 3621 0032 7B69     		ldr	r3, [r7, #20]
 3622 0034 BB61     		str	r3, [r7, #24]
 3623              	.L314:
 3624 0036 BB69     		ldr	r3, [r7, #24]
 3625 0038 5A1C     		adds	r2, r3, #1
 3626 003a BA61     		str	r2, [r7, #24]
 3627 003c 3A69     		ldr	r2, [r7, #16]
 3628 003e 1344     		add	r3, r3, r2
 3629 0040 1B78     		ldrb	r3, [r3]	@ zero_extendqisi2
 3630 0042 BB84     		strh	r3, [r7, #36]	@ movhi
 3631 0044 BB8C     		ldrh	r3, [r7, #36]
 3632 0046 1F2B     		cmp	r3, #31
 3633 0048 2FD9     		bls	.L309
 3634 004a BB8C     		ldrh	r3, [r7, #36]
 3635 004c 2F2B     		cmp	r3, #47
 3636 004e 2CD0     		beq	.L309
 3637 0050 BB8C     		ldrh	r3, [r7, #36]
 3638 0052 5C2B     		cmp	r3, #92
 3639 0054 29D0     		beq	.L309
 3640 0056 7B69     		ldr	r3, [r7, #20]
 3641 0058 FE2B     		cmp	r3, #254
 3642 005a 01D9     		bls	.L310
 3643 005c 0623     		movs	r3, #6
 3644 005e 76E1     		b	.L311
 3645              	.L310:
ARM GAS  /var/folders/d2/nstgp4h54kz7g1l847x_b8wc0000gn/T//ccrhfnpm.s 			page 65


 3646 0060 BB8C     		ldrh	r3, [r7, #36]	@ movhi
 3647 0062 DBB2     		uxtb	r3, r3
 3648 0064 BB84     		strh	r3, [r7, #36]	@ movhi
 3649 0066 BB8C     		ldrh	r3, [r7, #36]
 3650 0068 0121     		movs	r1, #1
 3651 006a 1846     		mov	r0, r3
 3652 006c FFF7FEFF 		bl	ff_convert
 3653 0070 0346     		mov	r3, r0
 3654 0072 BB84     		strh	r3, [r7, #36]	@ movhi
 3655 0074 BB8C     		ldrh	r3, [r7, #36]
 3656 0076 002B     		cmp	r3, #0
 3657 0078 01D1     		bne	.L312
 3658 007a 0623     		movs	r3, #6
 3659 007c 67E1     		b	.L311
 3660              	.L312:
 3661 007e BB8C     		ldrh	r3, [r7, #36]
 3662 0080 7F2B     		cmp	r3, #127
 3663 0082 09D8     		bhi	.L313
 3664 0084 BB8C     		ldrh	r3, [r7, #36]
 3665 0086 1946     		mov	r1, r3
 3666 0088 B348     		ldr	r0, .L355
 3667 008a FFF7FEFF 		bl	chk_chr
 3668 008e 0346     		mov	r3, r0
 3669 0090 002B     		cmp	r3, #0
 3670 0092 01D0     		beq	.L313
 3671 0094 0623     		movs	r3, #6
 3672 0096 5AE1     		b	.L311
 3673              	.L313:
 3674 0098 7B69     		ldr	r3, [r7, #20]
 3675 009a 5A1C     		adds	r2, r3, #1
 3676 009c 7A61     		str	r2, [r7, #20]
 3677 009e 5B00     		lsls	r3, r3, #1
 3678 00a0 FA68     		ldr	r2, [r7, #12]
 3679 00a2 1344     		add	r3, r3, r2
 3680 00a4 BA8C     		ldrh	r2, [r7, #36]	@ movhi
 3681 00a6 1A80     		strh	r2, [r3]	@ movhi
 3682 00a8 C5E7     		b	.L314
 3683              	.L309:
 3684 00aa 3A69     		ldr	r2, [r7, #16]
 3685 00ac BB69     		ldr	r3, [r7, #24]
 3686 00ae 1A44     		add	r2, r2, r3
 3687 00b0 3B68     		ldr	r3, [r7]
 3688 00b2 1A60     		str	r2, [r3]
 3689 00b4 BB8C     		ldrh	r3, [r7, #36]
 3690 00b6 1F2B     		cmp	r3, #31
 3691 00b8 01D8     		bhi	.L315
 3692 00ba 0423     		movs	r3, #4
 3693 00bc 00E0     		b	.L316
 3694              	.L315:
 3695 00be 0023     		movs	r3, #0
 3696              	.L316:
 3697 00c0 87F82730 		strb	r3, [r7, #39]
 3698 00c4 11E0     		b	.L317
 3699              	.L320:
 3700 00c6 7B69     		ldr	r3, [r7, #20]
 3701 00c8 03F10043 		add	r3, r3, #-2147483648
 3702 00cc 013B     		subs	r3, r3, #1
ARM GAS  /var/folders/d2/nstgp4h54kz7g1l847x_b8wc0000gn/T//ccrhfnpm.s 			page 66


 3703 00ce 5B00     		lsls	r3, r3, #1
 3704 00d0 FA68     		ldr	r2, [r7, #12]
 3705 00d2 1344     		add	r3, r3, r2
 3706 00d4 1B88     		ldrh	r3, [r3]	@ movhi
 3707 00d6 BB84     		strh	r3, [r7, #36]	@ movhi
 3708 00d8 BB8C     		ldrh	r3, [r7, #36]
 3709 00da 202B     		cmp	r3, #32
 3710 00dc 02D0     		beq	.L318
 3711 00de BB8C     		ldrh	r3, [r7, #36]
 3712 00e0 2E2B     		cmp	r3, #46
 3713 00e2 06D1     		bne	.L352
 3714              	.L318:
 3715 00e4 7B69     		ldr	r3, [r7, #20]
 3716 00e6 013B     		subs	r3, r3, #1
 3717 00e8 7B61     		str	r3, [r7, #20]
 3718              	.L317:
 3719 00ea 7B69     		ldr	r3, [r7, #20]
 3720 00ec 002B     		cmp	r3, #0
 3721 00ee EAD1     		bne	.L320
 3722 00f0 00E0     		b	.L319
 3723              	.L352:
 3724 00f2 00BF     		nop
 3725              	.L319:
 3726 00f4 7B69     		ldr	r3, [r7, #20]
 3727 00f6 002B     		cmp	r3, #0
 3728 00f8 01D1     		bne	.L321
 3729 00fa 0623     		movs	r3, #6
 3730 00fc 27E1     		b	.L311
 3731              	.L321:
 3732 00fe 7B69     		ldr	r3, [r7, #20]
 3733 0100 5B00     		lsls	r3, r3, #1
 3734 0102 FA68     		ldr	r2, [r7, #12]
 3735 0104 1344     		add	r3, r3, r2
 3736 0106 0022     		movs	r2, #0
 3737 0108 1A80     		strh	r2, [r3]	@ movhi
 3738 010a 7B68     		ldr	r3, [r7, #4]
 3739 010c 9B69     		ldr	r3, [r3, #24]
 3740 010e 0B22     		movs	r2, #11
 3741 0110 2021     		movs	r1, #32
 3742 0112 1846     		mov	r0, r3
 3743 0114 FFF7FEFF 		bl	mem_set
 3744 0118 0023     		movs	r3, #0
 3745 011a BB61     		str	r3, [r7, #24]
 3746 011c 02E0     		b	.L322
 3747              	.L323:
 3748 011e BB69     		ldr	r3, [r7, #24]
 3749 0120 0133     		adds	r3, r3, #1
 3750 0122 BB61     		str	r3, [r7, #24]
 3751              	.L322:
 3752 0124 BB69     		ldr	r3, [r7, #24]
 3753 0126 5B00     		lsls	r3, r3, #1
 3754 0128 FA68     		ldr	r2, [r7, #12]
 3755 012a 1344     		add	r3, r3, r2
 3756 012c 1B88     		ldrh	r3, [r3]
 3757 012e 202B     		cmp	r3, #32
 3758 0130 F5D0     		beq	.L323
 3759 0132 BB69     		ldr	r3, [r7, #24]
ARM GAS  /var/folders/d2/nstgp4h54kz7g1l847x_b8wc0000gn/T//ccrhfnpm.s 			page 67


 3760 0134 5B00     		lsls	r3, r3, #1
 3761 0136 FA68     		ldr	r2, [r7, #12]
 3762 0138 1344     		add	r3, r3, r2
 3763 013a 1B88     		ldrh	r3, [r3]
 3764 013c 2E2B     		cmp	r3, #46
 3765 013e EED0     		beq	.L323
 3766 0140 BB69     		ldr	r3, [r7, #24]
 3767 0142 002B     		cmp	r3, #0
 3768 0144 09D0     		beq	.L325
 3769 0146 97F82730 		ldrb	r3, [r7, #39]
 3770 014a 43F00303 		orr	r3, r3, #3
 3771 014e 87F82730 		strb	r3, [r7, #39]
 3772 0152 02E0     		b	.L325
 3773              	.L327:
 3774 0154 7B69     		ldr	r3, [r7, #20]
 3775 0156 013B     		subs	r3, r3, #1
 3776 0158 7B61     		str	r3, [r7, #20]
 3777              	.L325:
 3778 015a 7B69     		ldr	r3, [r7, #20]
 3779 015c 002B     		cmp	r3, #0
 3780 015e 09D0     		beq	.L326
 3781 0160 7B69     		ldr	r3, [r7, #20]
 3782 0162 03F10043 		add	r3, r3, #-2147483648
 3783 0166 013B     		subs	r3, r3, #1
 3784 0168 5B00     		lsls	r3, r3, #1
 3785 016a FA68     		ldr	r2, [r7, #12]
 3786 016c 1344     		add	r3, r3, r2
 3787 016e 1B88     		ldrh	r3, [r3]
 3788 0170 2E2B     		cmp	r3, #46
 3789 0172 EFD1     		bne	.L327
 3790              	.L326:
 3791 0174 0023     		movs	r3, #0
 3792 0176 3B62     		str	r3, [r7, #32]
 3793 0178 0023     		movs	r3, #0
 3794 017a 87F82630 		strb	r3, [r7, #38]
 3795 017e 0823     		movs	r3, #8
 3796 0180 FB61     		str	r3, [r7, #28]
 3797              	.L344:
 3798 0182 BB69     		ldr	r3, [r7, #24]
 3799 0184 5A1C     		adds	r2, r3, #1
 3800 0186 BA61     		str	r2, [r7, #24]
 3801 0188 5B00     		lsls	r3, r3, #1
 3802 018a FA68     		ldr	r2, [r7, #12]
 3803 018c 1344     		add	r3, r3, r2
 3804 018e 1B88     		ldrh	r3, [r3]	@ movhi
 3805 0190 BB84     		strh	r3, [r7, #36]	@ movhi
 3806 0192 BB8C     		ldrh	r3, [r7, #36]
 3807 0194 002B     		cmp	r3, #0
 3808 0196 00F08F80 		beq	.L353
 3809 019a BB8C     		ldrh	r3, [r7, #36]
 3810 019c 202B     		cmp	r3, #32
 3811 019e 06D0     		beq	.L330
 3812 01a0 BB8C     		ldrh	r3, [r7, #36]
 3813 01a2 2E2B     		cmp	r3, #46
 3814 01a4 0AD1     		bne	.L331
 3815 01a6 BA69     		ldr	r2, [r7, #24]
 3816 01a8 7B69     		ldr	r3, [r7, #20]
ARM GAS  /var/folders/d2/nstgp4h54kz7g1l847x_b8wc0000gn/T//ccrhfnpm.s 			page 68


 3817 01aa 9A42     		cmp	r2, r3
 3818 01ac 06D0     		beq	.L331
 3819              	.L330:
 3820 01ae 97F82730 		ldrb	r3, [r7, #39]
 3821 01b2 43F00303 		orr	r3, r3, #3
 3822 01b6 87F82730 		strb	r3, [r7, #39]
 3823 01ba 7CE0     		b	.L332
 3824              	.L331:
 3825 01bc 3A6A     		ldr	r2, [r7, #32]
 3826 01be FB69     		ldr	r3, [r7, #28]
 3827 01c0 9A42     		cmp	r2, r3
 3828 01c2 03D2     		bcs	.L333
 3829 01c4 BA69     		ldr	r2, [r7, #24]
 3830 01c6 7B69     		ldr	r3, [r7, #20]
 3831 01c8 9A42     		cmp	r2, r3
 3832 01ca 23D1     		bne	.L334
 3833              	.L333:
 3834 01cc FB69     		ldr	r3, [r7, #28]
 3835 01ce 0B2B     		cmp	r3, #11
 3836 01d0 06D1     		bne	.L335
 3837 01d2 97F82730 		ldrb	r3, [r7, #39]
 3838 01d6 43F00303 		orr	r3, r3, #3
 3839 01da 87F82730 		strb	r3, [r7, #39]
 3840 01de 6EE0     		b	.L329
 3841              	.L335:
 3842 01e0 BA69     		ldr	r2, [r7, #24]
 3843 01e2 7B69     		ldr	r3, [r7, #20]
 3844 01e4 9A42     		cmp	r2, r3
 3845 01e6 05D0     		beq	.L336
 3846 01e8 97F82730 		ldrb	r3, [r7, #39]
 3847 01ec 43F00303 		orr	r3, r3, #3
 3848 01f0 87F82730 		strb	r3, [r7, #39]
 3849              	.L336:
 3850 01f4 BA69     		ldr	r2, [r7, #24]
 3851 01f6 7B69     		ldr	r3, [r7, #20]
 3852 01f8 9A42     		cmp	r2, r3
 3853 01fa 5FD8     		bhi	.L354
 3854 01fc 7B69     		ldr	r3, [r7, #20]
 3855 01fe BB61     		str	r3, [r7, #24]
 3856 0200 0823     		movs	r3, #8
 3857 0202 3B62     		str	r3, [r7, #32]
 3858 0204 0B23     		movs	r3, #11
 3859 0206 FB61     		str	r3, [r7, #28]
 3860 0208 97F82630 		ldrb	r3, [r7, #38]
 3861 020c 9B00     		lsls	r3, r3, #2
 3862 020e 87F82630 		strb	r3, [r7, #38]
 3863 0212 50E0     		b	.L332
 3864              	.L334:
 3865 0214 BB8C     		ldrh	r3, [r7, #36]
 3866 0216 7F2B     		cmp	r3, #127
 3867 0218 14D9     		bls	.L351
 3868 021a BB8C     		ldrh	r3, [r7, #36]
 3869 021c 0021     		movs	r1, #0
 3870 021e 1846     		mov	r0, r3
 3871 0220 FFF7FEFF 		bl	ff_convert
 3872 0224 0346     		mov	r3, r0
 3873 0226 BB84     		strh	r3, [r7, #36]	@ movhi
ARM GAS  /var/folders/d2/nstgp4h54kz7g1l847x_b8wc0000gn/T//ccrhfnpm.s 			page 69


 3874 0228 BB8C     		ldrh	r3, [r7, #36]
 3875 022a 002B     		cmp	r3, #0
 3876 022c 04D0     		beq	.L339
 3877 022e BB8C     		ldrh	r3, [r7, #36]
 3878 0230 803B     		subs	r3, r3, #128
 3879 0232 4A4A     		ldr	r2, .L355+4
 3880 0234 D35C     		ldrb	r3, [r2, r3]	@ zero_extendqisi2
 3881 0236 BB84     		strh	r3, [r7, #36]	@ movhi
 3882              	.L339:
 3883 0238 97F82730 		ldrb	r3, [r7, #39]
 3884 023c 43F00203 		orr	r3, r3, #2
 3885 0240 87F82730 		strb	r3, [r7, #39]
 3886              	.L351:
 3887 0244 BB8C     		ldrh	r3, [r7, #36]
 3888 0246 002B     		cmp	r3, #0
 3889 0248 07D0     		beq	.L340
 3890 024a BB8C     		ldrh	r3, [r7, #36]
 3891 024c 1946     		mov	r1, r3
 3892 024e 4448     		ldr	r0, .L355+8
 3893 0250 FFF7FEFF 		bl	chk_chr
 3894 0254 0346     		mov	r3, r0
 3895 0256 002B     		cmp	r3, #0
 3896 0258 08D0     		beq	.L341
 3897              	.L340:
 3898 025a 5F23     		movs	r3, #95
 3899 025c BB84     		strh	r3, [r7, #36]	@ movhi
 3900 025e 97F82730 		ldrb	r3, [r7, #39]
 3901 0262 43F00303 		orr	r3, r3, #3
 3902 0266 87F82730 		strb	r3, [r7, #39]
 3903 026a 1BE0     		b	.L342
 3904              	.L341:
 3905 026c BB8C     		ldrh	r3, [r7, #36]
 3906 026e 402B     		cmp	r3, #64
 3907 0270 09D9     		bls	.L343
 3908 0272 BB8C     		ldrh	r3, [r7, #36]
 3909 0274 5A2B     		cmp	r3, #90
 3910 0276 06D8     		bhi	.L343
 3911 0278 97F82630 		ldrb	r3, [r7, #38]
 3912 027c 43F00203 		orr	r3, r3, #2
 3913 0280 87F82630 		strb	r3, [r7, #38]
 3914 0284 0EE0     		b	.L342
 3915              	.L343:
 3916 0286 BB8C     		ldrh	r3, [r7, #36]
 3917 0288 602B     		cmp	r3, #96
 3918 028a 0BD9     		bls	.L342
 3919 028c BB8C     		ldrh	r3, [r7, #36]
 3920 028e 7A2B     		cmp	r3, #122
 3921 0290 08D8     		bhi	.L342
 3922 0292 97F82630 		ldrb	r3, [r7, #38]
 3923 0296 43F00103 		orr	r3, r3, #1
 3924 029a 87F82630 		strb	r3, [r7, #38]
 3925 029e BB8C     		ldrh	r3, [r7, #36]	@ movhi
 3926 02a0 203B     		subs	r3, r3, #32
 3927 02a2 BB84     		strh	r3, [r7, #36]	@ movhi
 3928              	.L342:
 3929 02a4 7B68     		ldr	r3, [r7, #4]
 3930 02a6 9A69     		ldr	r2, [r3, #24]
ARM GAS  /var/folders/d2/nstgp4h54kz7g1l847x_b8wc0000gn/T//ccrhfnpm.s 			page 70


 3931 02a8 3B6A     		ldr	r3, [r7, #32]
 3932 02aa 591C     		adds	r1, r3, #1
 3933 02ac 3962     		str	r1, [r7, #32]
 3934 02ae 1344     		add	r3, r3, r2
 3935 02b0 BA8C     		ldrh	r2, [r7, #36]	@ movhi
 3936 02b2 D2B2     		uxtb	r2, r2
 3937 02b4 1A70     		strb	r2, [r3]
 3938              	.L332:
 3939 02b6 64E7     		b	.L344
 3940              	.L353:
 3941 02b8 00BF     		nop
 3942 02ba 00E0     		b	.L329
 3943              	.L354:
 3944 02bc 00BF     		nop
 3945              	.L329:
 3946 02be 7B68     		ldr	r3, [r7, #4]
 3947 02c0 9B69     		ldr	r3, [r3, #24]
 3948 02c2 1B78     		ldrb	r3, [r3]	@ zero_extendqisi2
 3949 02c4 E52B     		cmp	r3, #229
 3950 02c6 03D1     		bne	.L345
 3951 02c8 7B68     		ldr	r3, [r7, #4]
 3952 02ca 9B69     		ldr	r3, [r3, #24]
 3953 02cc 0522     		movs	r2, #5
 3954 02ce 1A70     		strb	r2, [r3]
 3955              	.L345:
 3956 02d0 FB69     		ldr	r3, [r7, #28]
 3957 02d2 082B     		cmp	r3, #8
 3958 02d4 04D1     		bne	.L346
 3959 02d6 97F82630 		ldrb	r3, [r7, #38]
 3960 02da 9B00     		lsls	r3, r3, #2
 3961 02dc 87F82630 		strb	r3, [r7, #38]
 3962              	.L346:
 3963 02e0 97F82630 		ldrb	r3, [r7, #38]	@ zero_extendqisi2
 3964 02e4 03F00C03 		and	r3, r3, #12
 3965 02e8 0C2B     		cmp	r3, #12
 3966 02ea 05D0     		beq	.L347
 3967 02ec 97F82630 		ldrb	r3, [r7, #38]	@ zero_extendqisi2
 3968 02f0 03F00303 		and	r3, r3, #3
 3969 02f4 032B     		cmp	r3, #3
 3970 02f6 05D1     		bne	.L348
 3971              	.L347:
 3972 02f8 97F82730 		ldrb	r3, [r7, #39]
 3973 02fc 43F00203 		orr	r3, r3, #2
 3974 0300 87F82730 		strb	r3, [r7, #39]
 3975              	.L348:
 3976 0304 97F82730 		ldrb	r3, [r7, #39]	@ zero_extendqisi2
 3977 0308 03F00203 		and	r3, r3, #2
 3978 030c 002B     		cmp	r3, #0
 3979 030e 17D1     		bne	.L349
 3980 0310 97F82630 		ldrb	r3, [r7, #38]	@ zero_extendqisi2
 3981 0314 03F00303 		and	r3, r3, #3
 3982 0318 012B     		cmp	r3, #1
 3983 031a 05D1     		bne	.L350
 3984 031c 97F82730 		ldrb	r3, [r7, #39]
 3985 0320 43F01003 		orr	r3, r3, #16
 3986 0324 87F82730 		strb	r3, [r7, #39]
 3987              	.L350:
ARM GAS  /var/folders/d2/nstgp4h54kz7g1l847x_b8wc0000gn/T//ccrhfnpm.s 			page 71


 3988 0328 97F82630 		ldrb	r3, [r7, #38]	@ zero_extendqisi2
 3989 032c 03F00C03 		and	r3, r3, #12
 3990 0330 042B     		cmp	r3, #4
 3991 0332 05D1     		bne	.L349
 3992 0334 97F82730 		ldrb	r3, [r7, #39]
 3993 0338 43F00803 		orr	r3, r3, #8
 3994 033c 87F82730 		strb	r3, [r7, #39]
 3995              	.L349:
 3996 0340 7B68     		ldr	r3, [r7, #4]
 3997 0342 9B69     		ldr	r3, [r3, #24]
 3998 0344 0B33     		adds	r3, r3, #11
 3999 0346 97F82720 		ldrb	r2, [r7, #39]
 4000 034a 1A70     		strb	r2, [r3]
 4001 034c 0023     		movs	r3, #0
 4002              	.L311:
 4003 034e 1846     		mov	r0, r3
 4004 0350 2837     		adds	r7, r7, #40
 4005 0352 BD46     		mov	sp, r7
 4006              		@ sp needed
 4007 0354 80BD     		pop	{r7, pc}
 4008              	.L356:
 4009 0356 00BF     		.align	2
 4010              	.L355:
 4011 0358 00000000 		.word	.LC0
 4012 035c 00000000 		.word	ExCvt
 4013 0360 0C000000 		.word	.LC1
 4014              		.size	create_name, .-create_name
 4015              		.section	.text.follow_path,"ax",%progbits
 4016              		.align	1
 4017              		.syntax unified
 4018              		.thumb
 4019              		.thumb_func
 4020              		.fpu fpv4-sp-d16
 4021              		.type	follow_path, %function
 4022              	follow_path:
 4023              		@ args = 0, pretend = 0, frame = 16
 4024              		@ frame_needed = 1, uses_anonymous_args = 0
 4025 0000 80B5     		push	{r7, lr}
 4026 0002 84B0     		sub	sp, sp, #16
 4027 0004 00AF     		add	r7, sp, #0
 4028 0006 7860     		str	r0, [r7, #4]
 4029 0008 3960     		str	r1, [r7]
 4030 000a 3B68     		ldr	r3, [r7]
 4031 000c 1B78     		ldrb	r3, [r3]	@ zero_extendqisi2
 4032 000e 2F2B     		cmp	r3, #47
 4033 0010 03D0     		beq	.L358
 4034 0012 3B68     		ldr	r3, [r7]
 4035 0014 1B78     		ldrb	r3, [r3]	@ zero_extendqisi2
 4036 0016 5C2B     		cmp	r3, #92
 4037 0018 02D1     		bne	.L359
 4038              	.L358:
 4039 001a 3B68     		ldr	r3, [r7]
 4040 001c 0133     		adds	r3, r3, #1
 4041 001e 3B60     		str	r3, [r7]
 4042              	.L359:
 4043 0020 7B68     		ldr	r3, [r7, #4]
 4044 0022 0022     		movs	r2, #0
ARM GAS  /var/folders/d2/nstgp4h54kz7g1l847x_b8wc0000gn/T//ccrhfnpm.s 			page 72


 4045 0024 9A60     		str	r2, [r3, #8]
 4046 0026 3B68     		ldr	r3, [r7]
 4047 0028 1B78     		ldrb	r3, [r3]	@ zero_extendqisi2
 4048 002a 1F2B     		cmp	r3, #31
 4049 002c 09D8     		bhi	.L360
 4050 002e 0021     		movs	r1, #0
 4051 0030 7868     		ldr	r0, [r7, #4]
 4052 0032 FFF7FEFF 		bl	dir_sdi
 4053 0036 0346     		mov	r3, r0
 4054 0038 FB73     		strb	r3, [r7, #15]
 4055 003a 7B68     		ldr	r3, [r7, #4]
 4056 003c 0022     		movs	r2, #0
 4057 003e 5A61     		str	r2, [r3, #20]
 4058 0040 41E0     		b	.L361
 4059              	.L360:
 4060 0042 3B46     		mov	r3, r7
 4061 0044 1946     		mov	r1, r3
 4062 0046 7868     		ldr	r0, [r7, #4]
 4063 0048 FFF7FEFF 		bl	create_name
 4064 004c 0346     		mov	r3, r0
 4065 004e FB73     		strb	r3, [r7, #15]
 4066 0050 FB7B     		ldrb	r3, [r7, #15]	@ zero_extendqisi2
 4067 0052 002B     		cmp	r3, #0
 4068 0054 32D1     		bne	.L368
 4069 0056 7868     		ldr	r0, [r7, #4]
 4070 0058 FFF7FEFF 		bl	dir_find
 4071 005c 0346     		mov	r3, r0
 4072 005e FB73     		strb	r3, [r7, #15]
 4073 0060 7B68     		ldr	r3, [r7, #4]
 4074 0062 9B69     		ldr	r3, [r3, #24]
 4075 0064 DB7A     		ldrb	r3, [r3, #11]
 4076 0066 BB73     		strb	r3, [r7, #14]
 4077 0068 FB7B     		ldrb	r3, [r7, #15]	@ zero_extendqisi2
 4078 006a 002B     		cmp	r3, #0
 4079 006c 0AD0     		beq	.L363
 4080 006e FB7B     		ldrb	r3, [r7, #15]	@ zero_extendqisi2
 4081 0070 042B     		cmp	r3, #4
 4082 0072 25D1     		bne	.L369
 4083 0074 BB7B     		ldrb	r3, [r7, #14]	@ zero_extendqisi2
 4084 0076 03F00403 		and	r3, r3, #4
 4085 007a 002B     		cmp	r3, #0
 4086 007c 20D1     		bne	.L369
 4087 007e 0523     		movs	r3, #5
 4088 0080 FB73     		strb	r3, [r7, #15]
 4089 0082 1DE0     		b	.L369
 4090              	.L363:
 4091 0084 BB7B     		ldrb	r3, [r7, #14]	@ zero_extendqisi2
 4092 0086 03F00403 		and	r3, r3, #4
 4093 008a 002B     		cmp	r3, #0
 4094 008c 1AD1     		bne	.L370
 4095 008e 7B68     		ldr	r3, [r7, #4]
 4096 0090 5B69     		ldr	r3, [r3, #20]
 4097 0092 BB60     		str	r3, [r7, #8]
 4098 0094 BB68     		ldr	r3, [r7, #8]
 4099 0096 0B33     		adds	r3, r3, #11
 4100 0098 1B78     		ldrb	r3, [r3]	@ zero_extendqisi2
 4101 009a 03F01003 		and	r3, r3, #16
ARM GAS  /var/folders/d2/nstgp4h54kz7g1l847x_b8wc0000gn/T//ccrhfnpm.s 			page 73


 4102 009e 002B     		cmp	r3, #0
 4103 00a0 02D1     		bne	.L366
 4104 00a2 0523     		movs	r3, #5
 4105 00a4 FB73     		strb	r3, [r7, #15]
 4106 00a6 0EE0     		b	.L361
 4107              	.L366:
 4108 00a8 7B68     		ldr	r3, [r7, #4]
 4109 00aa 1B68     		ldr	r3, [r3]
 4110 00ac B968     		ldr	r1, [r7, #8]
 4111 00ae 1846     		mov	r0, r3
 4112 00b0 FFF7FEFF 		bl	ld_clust
 4113 00b4 0246     		mov	r2, r0
 4114 00b6 7B68     		ldr	r3, [r7, #4]
 4115 00b8 9A60     		str	r2, [r3, #8]
 4116 00ba C2E7     		b	.L360
 4117              	.L368:
 4118 00bc 00BF     		nop
 4119 00be 02E0     		b	.L361
 4120              	.L369:
 4121 00c0 00BF     		nop
 4122 00c2 00E0     		b	.L361
 4123              	.L370:
 4124 00c4 00BF     		nop
 4125              	.L361:
 4126 00c6 FB7B     		ldrb	r3, [r7, #15]	@ zero_extendqisi2
 4127 00c8 1846     		mov	r0, r3
 4128 00ca 1037     		adds	r7, r7, #16
 4129 00cc BD46     		mov	sp, r7
 4130              		@ sp needed
 4131 00ce 80BD     		pop	{r7, pc}
 4132              		.size	follow_path, .-follow_path
 4133              		.section	.text.get_ldnumber,"ax",%progbits
 4134              		.align	1
 4135              		.syntax unified
 4136              		.thumb
 4137              		.thumb_func
 4138              		.fpu fpv4-sp-d16
 4139              		.type	get_ldnumber, %function
 4140              	get_ldnumber:
 4141              		@ args = 0, pretend = 0, frame = 24
 4142              		@ frame_needed = 1, uses_anonymous_args = 0
 4143              		@ link register save eliminated.
 4144 0000 80B4     		push	{r7}
 4145 0002 87B0     		sub	sp, sp, #28
 4146 0004 00AF     		add	r7, sp, #0
 4147 0006 7860     		str	r0, [r7, #4]
 4148 0008 4FF0FF33 		mov	r3, #-1
 4149 000c 3B61     		str	r3, [r7, #16]
 4150 000e 7B68     		ldr	r3, [r7, #4]
 4151 0010 1B68     		ldr	r3, [r3]
 4152 0012 002B     		cmp	r3, #0
 4153 0014 31D0     		beq	.L372
 4154 0016 7B68     		ldr	r3, [r7, #4]
 4155 0018 1B68     		ldr	r3, [r3]
 4156 001a 7B61     		str	r3, [r7, #20]
 4157 001c 02E0     		b	.L373
 4158              	.L375:
ARM GAS  /var/folders/d2/nstgp4h54kz7g1l847x_b8wc0000gn/T//ccrhfnpm.s 			page 74


 4159 001e 7B69     		ldr	r3, [r7, #20]
 4160 0020 0133     		adds	r3, r3, #1
 4161 0022 7B61     		str	r3, [r7, #20]
 4162              	.L373:
 4163 0024 7B69     		ldr	r3, [r7, #20]
 4164 0026 1B78     		ldrb	r3, [r3]	@ zero_extendqisi2
 4165 0028 1F2B     		cmp	r3, #31
 4166 002a 03D9     		bls	.L374
 4167 002c 7B69     		ldr	r3, [r7, #20]
 4168 002e 1B78     		ldrb	r3, [r3]	@ zero_extendqisi2
 4169 0030 3A2B     		cmp	r3, #58
 4170 0032 F4D1     		bne	.L375
 4171              	.L374:
 4172 0034 7B69     		ldr	r3, [r7, #20]
 4173 0036 1B78     		ldrb	r3, [r3]	@ zero_extendqisi2
 4174 0038 3A2B     		cmp	r3, #58
 4175 003a 1CD1     		bne	.L376
 4176 003c 7B68     		ldr	r3, [r7, #4]
 4177 003e 1B68     		ldr	r3, [r3]
 4178 0040 FB60     		str	r3, [r7, #12]
 4179 0042 FB68     		ldr	r3, [r7, #12]
 4180 0044 5A1C     		adds	r2, r3, #1
 4181 0046 FA60     		str	r2, [r7, #12]
 4182 0048 1B78     		ldrb	r3, [r3]	@ zero_extendqisi2
 4183 004a 303B     		subs	r3, r3, #48
 4184 004c BB60     		str	r3, [r7, #8]
 4185 004e BB68     		ldr	r3, [r7, #8]
 4186 0050 092B     		cmp	r3, #9
 4187 0052 0ED8     		bhi	.L377
 4188 0054 FA68     		ldr	r2, [r7, #12]
 4189 0056 7B69     		ldr	r3, [r7, #20]
 4190 0058 9A42     		cmp	r2, r3
 4191 005a 0AD1     		bne	.L377
 4192 005c BB68     		ldr	r3, [r7, #8]
 4193 005e 002B     		cmp	r3, #0
 4194 0060 07D1     		bne	.L377
 4195 0062 BB68     		ldr	r3, [r7, #8]
 4196 0064 3B61     		str	r3, [r7, #16]
 4197 0066 7B69     		ldr	r3, [r7, #20]
 4198 0068 0133     		adds	r3, r3, #1
 4199 006a 7B61     		str	r3, [r7, #20]
 4200 006c 7B68     		ldr	r3, [r7, #4]
 4201 006e 7A69     		ldr	r2, [r7, #20]
 4202 0070 1A60     		str	r2, [r3]
 4203              	.L377:
 4204 0072 3B69     		ldr	r3, [r7, #16]
 4205 0074 02E0     		b	.L379
 4206              	.L376:
 4207 0076 0023     		movs	r3, #0
 4208 0078 3B61     		str	r3, [r7, #16]
 4209              	.L372:
 4210 007a 3B69     		ldr	r3, [r7, #16]
 4211              	.L379:
 4212 007c 1846     		mov	r0, r3
 4213 007e 1C37     		adds	r7, r7, #28
 4214 0080 BD46     		mov	sp, r7
 4215              		@ sp needed
ARM GAS  /var/folders/d2/nstgp4h54kz7g1l847x_b8wc0000gn/T//ccrhfnpm.s 			page 75


 4216 0082 5DF8047B 		ldr	r7, [sp], #4
 4217 0086 7047     		bx	lr
 4218              		.size	get_ldnumber, .-get_ldnumber
 4219              		.section	.text.check_fs,"ax",%progbits
 4220              		.align	1
 4221              		.syntax unified
 4222              		.thumb
 4223              		.thumb_func
 4224              		.fpu fpv4-sp-d16
 4225              		.type	check_fs, %function
 4226              	check_fs:
 4227              		@ args = 0, pretend = 0, frame = 8
 4228              		@ frame_needed = 1, uses_anonymous_args = 0
 4229 0000 80B5     		push	{r7, lr}
 4230 0002 82B0     		sub	sp, sp, #8
 4231 0004 00AF     		add	r7, sp, #0
 4232 0006 7860     		str	r0, [r7, #4]
 4233 0008 3960     		str	r1, [r7]
 4234 000a 7B68     		ldr	r3, [r7, #4]
 4235 000c 0022     		movs	r2, #0
 4236 000e 1A71     		strb	r2, [r3, #4]
 4237 0010 7B68     		ldr	r3, [r7, #4]
 4238 0012 4FF0FF32 		mov	r2, #-1
 4239 0016 DA62     		str	r2, [r3, #44]
 4240 0018 3968     		ldr	r1, [r7]
 4241 001a 7868     		ldr	r0, [r7, #4]
 4242 001c FFF7FEFF 		bl	move_window
 4243 0020 0346     		mov	r3, r0
 4244 0022 002B     		cmp	r3, #0
 4245 0024 01D0     		beq	.L381
 4246 0026 0323     		movs	r3, #3
 4247 0028 4AE0     		b	.L382
 4248              	.L381:
 4249 002a 7B68     		ldr	r3, [r7, #4]
 4250 002c 03F22E23 		addw	r3, r3, #558
 4251 0030 0133     		adds	r3, r3, #1
 4252 0032 1B78     		ldrb	r3, [r3]	@ zero_extendqisi2
 4253 0034 1B02     		lsls	r3, r3, #8
 4254 0036 1AB2     		sxth	r2, r3
 4255 0038 7B68     		ldr	r3, [r7, #4]
 4256 003a 93F82E32 		ldrb	r3, [r3, #558]	@ zero_extendqisi2
 4257 003e 1BB2     		sxth	r3, r3
 4258 0040 1343     		orrs	r3, r3, r2
 4259 0042 1BB2     		sxth	r3, r3
 4260 0044 204A     		ldr	r2, .L386
 4261 0046 9342     		cmp	r3, r2
 4262 0048 01D0     		beq	.L383
 4263 004a 0223     		movs	r3, #2
 4264 004c 38E0     		b	.L382
 4265              	.L383:
 4266 004e 7B68     		ldr	r3, [r7, #4]
 4267 0050 6633     		adds	r3, r3, #102
 4268 0052 0333     		adds	r3, r3, #3
 4269 0054 1B78     		ldrb	r3, [r3]	@ zero_extendqisi2
 4270 0056 1A06     		lsls	r2, r3, #24
 4271 0058 7B68     		ldr	r3, [r7, #4]
 4272 005a 6633     		adds	r3, r3, #102
ARM GAS  /var/folders/d2/nstgp4h54kz7g1l847x_b8wc0000gn/T//ccrhfnpm.s 			page 76


 4273 005c 0233     		adds	r3, r3, #2
 4274 005e 1B78     		ldrb	r3, [r3]	@ zero_extendqisi2
 4275 0060 1B04     		lsls	r3, r3, #16
 4276 0062 1343     		orrs	r3, r3, r2
 4277 0064 7A68     		ldr	r2, [r7, #4]
 4278 0066 6632     		adds	r2, r2, #102
 4279 0068 0132     		adds	r2, r2, #1
 4280 006a 1278     		ldrb	r2, [r2]	@ zero_extendqisi2
 4281 006c 1202     		lsls	r2, r2, #8
 4282 006e 1343     		orrs	r3, r3, r2
 4283 0070 7A68     		ldr	r2, [r7, #4]
 4284 0072 92F86620 		ldrb	r2, [r2, #102]	@ zero_extendqisi2
 4285 0076 1343     		orrs	r3, r3, r2
 4286 0078 23F07F43 		bic	r3, r3, #-16777216
 4287 007c 134A     		ldr	r2, .L386+4
 4288 007e 9342     		cmp	r3, r2
 4289 0080 01D1     		bne	.L384
 4290 0082 0023     		movs	r3, #0
 4291 0084 1CE0     		b	.L382
 4292              	.L384:
 4293 0086 7B68     		ldr	r3, [r7, #4]
 4294 0088 8233     		adds	r3, r3, #130
 4295 008a 0333     		adds	r3, r3, #3
 4296 008c 1B78     		ldrb	r3, [r3]	@ zero_extendqisi2
 4297 008e 1A06     		lsls	r2, r3, #24
 4298 0090 7B68     		ldr	r3, [r7, #4]
 4299 0092 8233     		adds	r3, r3, #130
 4300 0094 0233     		adds	r3, r3, #2
 4301 0096 1B78     		ldrb	r3, [r3]	@ zero_extendqisi2
 4302 0098 1B04     		lsls	r3, r3, #16
 4303 009a 1343     		orrs	r3, r3, r2
 4304 009c 7A68     		ldr	r2, [r7, #4]
 4305 009e 8232     		adds	r2, r2, #130
 4306 00a0 0132     		adds	r2, r2, #1
 4307 00a2 1278     		ldrb	r2, [r2]	@ zero_extendqisi2
 4308 00a4 1202     		lsls	r2, r2, #8
 4309 00a6 1343     		orrs	r3, r3, r2
 4310 00a8 7A68     		ldr	r2, [r7, #4]
 4311 00aa 92F88220 		ldrb	r2, [r2, #130]	@ zero_extendqisi2
 4312 00ae 1343     		orrs	r3, r3, r2
 4313 00b0 23F07F43 		bic	r3, r3, #-16777216
 4314 00b4 054A     		ldr	r2, .L386+4
 4315 00b6 9342     		cmp	r3, r2
 4316 00b8 01D1     		bne	.L385
 4317 00ba 0023     		movs	r3, #0
 4318 00bc 00E0     		b	.L382
 4319              	.L385:
 4320 00be 0123     		movs	r3, #1
 4321              	.L382:
 4322 00c0 1846     		mov	r0, r3
 4323 00c2 0837     		adds	r7, r7, #8
 4324 00c4 BD46     		mov	sp, r7
 4325              		@ sp needed
 4326 00c6 80BD     		pop	{r7, pc}
 4327              	.L387:
 4328              		.align	2
 4329              	.L386:
ARM GAS  /var/folders/d2/nstgp4h54kz7g1l847x_b8wc0000gn/T//ccrhfnpm.s 			page 77


 4330 00c8 55AAFFFF 		.word	-21931
 4331 00cc 46415400 		.word	5521734
 4332              		.size	check_fs, .-check_fs
 4333              		.section	.text.find_volume,"ax",%progbits
 4334              		.align	1
 4335              		.syntax unified
 4336              		.thumb
 4337              		.thumb_func
 4338              		.fpu fpv4-sp-d16
 4339              		.type	find_volume, %function
 4340              	find_volume:
 4341              		@ args = 0, pretend = 0, frame = 88
 4342              		@ frame_needed = 1, uses_anonymous_args = 0
 4343 0000 80B5     		push	{r7, lr}
 4344 0002 96B0     		sub	sp, sp, #88
 4345 0004 00AF     		add	r7, sp, #0
 4346 0006 F860     		str	r0, [r7, #12]
 4347 0008 B960     		str	r1, [r7, #8]
 4348 000a 1346     		mov	r3, r2
 4349 000c FB71     		strb	r3, [r7, #7]
 4350 000e FB68     		ldr	r3, [r7, #12]
 4351 0010 0022     		movs	r2, #0
 4352 0012 1A60     		str	r2, [r3]
 4353 0014 B868     		ldr	r0, [r7, #8]
 4354 0016 FFF7FEFF 		bl	get_ldnumber
 4355 001a F863     		str	r0, [r7, #60]
 4356 001c FB6B     		ldr	r3, [r7, #60]
 4357 001e 002B     		cmp	r3, #0
 4358 0020 01DA     		bge	.L389
 4359 0022 0B23     		movs	r3, #11
 4360 0024 90E2     		b	.L390
 4361              	.L389:
 4362 0026 9B4A     		ldr	r2, .L428
 4363 0028 FB6B     		ldr	r3, [r7, #60]
 4364 002a 52F82330 		ldr	r3, [r2, r3, lsl #2]
 4365 002e BB63     		str	r3, [r7, #56]
 4366 0030 BB6B     		ldr	r3, [r7, #56]
 4367 0032 002B     		cmp	r3, #0
 4368 0034 01D1     		bne	.L391
 4369 0036 0C23     		movs	r3, #12
 4370 0038 86E2     		b	.L390
 4371              	.L391:
 4372 003a FB68     		ldr	r3, [r7, #12]
 4373 003c BA6B     		ldr	r2, [r7, #56]
 4374 003e 1A60     		str	r2, [r3]
 4375 0040 BB6B     		ldr	r3, [r7, #56]
 4376 0042 1B78     		ldrb	r3, [r3]	@ zero_extendqisi2
 4377 0044 002B     		cmp	r3, #0
 4378 0046 1AD0     		beq	.L392
 4379 0048 BB6B     		ldr	r3, [r7, #56]
 4380 004a 5B78     		ldrb	r3, [r3, #1]	@ zero_extendqisi2
 4381 004c 1846     		mov	r0, r3
 4382 004e FFF7FEFF 		bl	disk_status
 4383 0052 0346     		mov	r3, r0
 4384 0054 87F83730 		strb	r3, [r7, #55]
 4385 0058 97F83730 		ldrb	r3, [r7, #55]	@ zero_extendqisi2
 4386 005c 03F00103 		and	r3, r3, #1
ARM GAS  /var/folders/d2/nstgp4h54kz7g1l847x_b8wc0000gn/T//ccrhfnpm.s 			page 78


 4387 0060 002B     		cmp	r3, #0
 4388 0062 0CD1     		bne	.L392
 4389 0064 FB79     		ldrb	r3, [r7, #7]	@ zero_extendqisi2
 4390 0066 002B     		cmp	r3, #0
 4391 0068 07D0     		beq	.L393
 4392 006a 97F83730 		ldrb	r3, [r7, #55]	@ zero_extendqisi2
 4393 006e 03F00403 		and	r3, r3, #4
 4394 0072 002B     		cmp	r3, #0
 4395 0074 01D0     		beq	.L393
 4396 0076 0A23     		movs	r3, #10
 4397 0078 66E2     		b	.L390
 4398              	.L393:
 4399 007a 0023     		movs	r3, #0
 4400 007c 64E2     		b	.L390
 4401              	.L392:
 4402 007e BB6B     		ldr	r3, [r7, #56]
 4403 0080 0022     		movs	r2, #0
 4404 0082 1A70     		strb	r2, [r3]
 4405 0084 FB6B     		ldr	r3, [r7, #60]
 4406 0086 DAB2     		uxtb	r2, r3
 4407 0088 BB6B     		ldr	r3, [r7, #56]
 4408 008a 5A70     		strb	r2, [r3, #1]
 4409 008c BB6B     		ldr	r3, [r7, #56]
 4410 008e 5B78     		ldrb	r3, [r3, #1]	@ zero_extendqisi2
 4411 0090 1846     		mov	r0, r3
 4412 0092 FFF7FEFF 		bl	disk_initialize
 4413 0096 0346     		mov	r3, r0
 4414 0098 87F83730 		strb	r3, [r7, #55]
 4415 009c 97F83730 		ldrb	r3, [r7, #55]	@ zero_extendqisi2
 4416 00a0 03F00103 		and	r3, r3, #1
 4417 00a4 002B     		cmp	r3, #0
 4418 00a6 01D0     		beq	.L394
 4419 00a8 0323     		movs	r3, #3
 4420 00aa 4DE2     		b	.L390
 4421              	.L394:
 4422 00ac FB79     		ldrb	r3, [r7, #7]	@ zero_extendqisi2
 4423 00ae 002B     		cmp	r3, #0
 4424 00b0 07D0     		beq	.L395
 4425 00b2 97F83730 		ldrb	r3, [r7, #55]	@ zero_extendqisi2
 4426 00b6 03F00403 		and	r3, r3, #4
 4427 00ba 002B     		cmp	r3, #0
 4428 00bc 01D0     		beq	.L395
 4429 00be 0A23     		movs	r3, #10
 4430 00c0 42E2     		b	.L390
 4431              	.L395:
 4432 00c2 0023     		movs	r3, #0
 4433 00c4 3B65     		str	r3, [r7, #80]
 4434 00c6 396D     		ldr	r1, [r7, #80]
 4435 00c8 B86B     		ldr	r0, [r7, #56]
 4436 00ca FFF7FEFF 		bl	check_fs
 4437 00ce 0346     		mov	r3, r0
 4438 00d0 87F85730 		strb	r3, [r7, #87]
 4439 00d4 97F85730 		ldrb	r3, [r7, #87]	@ zero_extendqisi2
 4440 00d8 012B     		cmp	r3, #1
 4441 00da 57D1     		bne	.L396
 4442 00dc 0023     		movs	r3, #0
 4443 00de 3B64     		str	r3, [r7, #64]
ARM GAS  /var/folders/d2/nstgp4h54kz7g1l847x_b8wc0000gn/T//ccrhfnpm.s 			page 79


 4444 00e0 2BE0     		b	.L397
 4445              	.L400:
 4446 00e2 BB6B     		ldr	r3, [r7, #56]
 4447 00e4 03F13002 		add	r2, r3, #48
 4448 00e8 3B6C     		ldr	r3, [r7, #64]
 4449 00ea 1B01     		lsls	r3, r3, #4
 4450 00ec 03F5DF73 		add	r3, r3, #446
 4451 00f0 1344     		add	r3, r3, r2
 4452 00f2 3B63     		str	r3, [r7, #48]
 4453 00f4 3B6B     		ldr	r3, [r7, #48]
 4454 00f6 0433     		adds	r3, r3, #4
 4455 00f8 1B78     		ldrb	r3, [r3]	@ zero_extendqisi2
 4456 00fa 002B     		cmp	r3, #0
 4457 00fc 12D0     		beq	.L398
 4458 00fe 3B6B     		ldr	r3, [r7, #48]
 4459 0100 0B33     		adds	r3, r3, #11
 4460 0102 1B78     		ldrb	r3, [r3]	@ zero_extendqisi2
 4461 0104 1A06     		lsls	r2, r3, #24
 4462 0106 3B6B     		ldr	r3, [r7, #48]
 4463 0108 0A33     		adds	r3, r3, #10
 4464 010a 1B78     		ldrb	r3, [r3]	@ zero_extendqisi2
 4465 010c 1B04     		lsls	r3, r3, #16
 4466 010e 1343     		orrs	r3, r3, r2
 4467 0110 3A6B     		ldr	r2, [r7, #48]
 4468 0112 0932     		adds	r2, r2, #9
 4469 0114 1278     		ldrb	r2, [r2]	@ zero_extendqisi2
 4470 0116 1202     		lsls	r2, r2, #8
 4471 0118 1343     		orrs	r3, r3, r2
 4472 011a 3A6B     		ldr	r2, [r7, #48]
 4473 011c 0832     		adds	r2, r2, #8
 4474 011e 1278     		ldrb	r2, [r2]	@ zero_extendqisi2
 4475 0120 1A43     		orrs	r2, r2, r3
 4476 0122 00E0     		b	.L399
 4477              	.L398:
 4478 0124 0022     		movs	r2, #0
 4479              	.L399:
 4480 0126 3B6C     		ldr	r3, [r7, #64]
 4481 0128 9B00     		lsls	r3, r3, #2
 4482 012a 07F15801 		add	r1, r7, #88
 4483 012e 0B44     		add	r3, r3, r1
 4484 0130 43F8442C 		str	r2, [r3, #-68]
 4485 0134 3B6C     		ldr	r3, [r7, #64]
 4486 0136 0133     		adds	r3, r3, #1
 4487 0138 3B64     		str	r3, [r7, #64]
 4488              	.L397:
 4489 013a 3B6C     		ldr	r3, [r7, #64]
 4490 013c 032B     		cmp	r3, #3
 4491 013e D0D9     		bls	.L400
 4492 0140 0023     		movs	r3, #0
 4493 0142 3B64     		str	r3, [r7, #64]
 4494 0144 3B6C     		ldr	r3, [r7, #64]
 4495 0146 002B     		cmp	r3, #0
 4496 0148 02D0     		beq	.L405
 4497 014a 3B6C     		ldr	r3, [r7, #64]
 4498 014c 013B     		subs	r3, r3, #1
 4499 014e 3B64     		str	r3, [r7, #64]
 4500              	.L405:
ARM GAS  /var/folders/d2/nstgp4h54kz7g1l847x_b8wc0000gn/T//ccrhfnpm.s 			page 80


 4501 0150 3B6C     		ldr	r3, [r7, #64]
 4502 0152 9B00     		lsls	r3, r3, #2
 4503 0154 07F15802 		add	r2, r7, #88
 4504 0158 1344     		add	r3, r3, r2
 4505 015a 53F8443C 		ldr	r3, [r3, #-68]
 4506 015e 3B65     		str	r3, [r7, #80]
 4507 0160 3B6D     		ldr	r3, [r7, #80]
 4508 0162 002B     		cmp	r3, #0
 4509 0164 05D0     		beq	.L402
 4510 0166 396D     		ldr	r1, [r7, #80]
 4511 0168 B86B     		ldr	r0, [r7, #56]
 4512 016a FFF7FEFF 		bl	check_fs
 4513 016e 0346     		mov	r3, r0
 4514 0170 00E0     		b	.L403
 4515              	.L402:
 4516 0172 0223     		movs	r3, #2
 4517              	.L403:
 4518 0174 87F85730 		strb	r3, [r7, #87]
 4519 0178 97F85730 		ldrb	r3, [r7, #87]	@ zero_extendqisi2
 4520 017c 002B     		cmp	r3, #0
 4521 017e 05D0     		beq	.L396
 4522 0180 3B6C     		ldr	r3, [r7, #64]
 4523 0182 0133     		adds	r3, r3, #1
 4524 0184 3B64     		str	r3, [r7, #64]
 4525 0186 3B6C     		ldr	r3, [r7, #64]
 4526 0188 032B     		cmp	r3, #3
 4527 018a E1D9     		bls	.L405
 4528              	.L396:
 4529 018c 97F85730 		ldrb	r3, [r7, #87]	@ zero_extendqisi2
 4530 0190 032B     		cmp	r3, #3
 4531 0192 01D1     		bne	.L406
 4532 0194 0123     		movs	r3, #1
 4533 0196 D7E1     		b	.L390
 4534              	.L406:
 4535 0198 97F85730 		ldrb	r3, [r7, #87]	@ zero_extendqisi2
 4536 019c 002B     		cmp	r3, #0
 4537 019e 01D0     		beq	.L407
 4538 01a0 0D23     		movs	r3, #13
 4539 01a2 D1E1     		b	.L390
 4540              	.L407:
 4541 01a4 BB6B     		ldr	r3, [r7, #56]
 4542 01a6 93F83C30 		ldrb	r3, [r3, #60]	@ zero_extendqisi2
 4543 01aa 1B02     		lsls	r3, r3, #8
 4544 01ac 1AB2     		sxth	r2, r3
 4545 01ae BB6B     		ldr	r3, [r7, #56]
 4546 01b0 93F83B30 		ldrb	r3, [r3, #59]	@ zero_extendqisi2
 4547 01b4 1BB2     		sxth	r3, r3
 4548 01b6 1343     		orrs	r3, r3, r2
 4549 01b8 1BB2     		sxth	r3, r3
 4550 01ba B3F5007F 		cmp	r3, #512
 4551 01be 01D0     		beq	.L408
 4552 01c0 0D23     		movs	r3, #13
 4553 01c2 C1E1     		b	.L390
 4554              	.L408:
 4555 01c4 BB6B     		ldr	r3, [r7, #56]
 4556 01c6 93F84730 		ldrb	r3, [r3, #71]	@ zero_extendqisi2
 4557 01ca 1B02     		lsls	r3, r3, #8
ARM GAS  /var/folders/d2/nstgp4h54kz7g1l847x_b8wc0000gn/T//ccrhfnpm.s 			page 81


 4558 01cc 1AB2     		sxth	r2, r3
 4559 01ce BB6B     		ldr	r3, [r7, #56]
 4560 01d0 93F84630 		ldrb	r3, [r3, #70]	@ zero_extendqisi2
 4561 01d4 1BB2     		sxth	r3, r3
 4562 01d6 1343     		orrs	r3, r3, r2
 4563 01d8 1BB2     		sxth	r3, r3
 4564 01da 9BB2     		uxth	r3, r3
 4565 01dc FB64     		str	r3, [r7, #76]
 4566 01de FB6C     		ldr	r3, [r7, #76]
 4567 01e0 002B     		cmp	r3, #0
 4568 01e2 12D1     		bne	.L409
 4569 01e4 BB6B     		ldr	r3, [r7, #56]
 4570 01e6 93F85730 		ldrb	r3, [r3, #87]	@ zero_extendqisi2
 4571 01ea 1A06     		lsls	r2, r3, #24
 4572 01ec BB6B     		ldr	r3, [r7, #56]
 4573 01ee 93F85630 		ldrb	r3, [r3, #86]	@ zero_extendqisi2
 4574 01f2 1B04     		lsls	r3, r3, #16
 4575 01f4 1343     		orrs	r3, r3, r2
 4576 01f6 BA6B     		ldr	r2, [r7, #56]
 4577 01f8 92F85520 		ldrb	r2, [r2, #85]	@ zero_extendqisi2
 4578 01fc 1202     		lsls	r2, r2, #8
 4579 01fe 1343     		orrs	r3, r3, r2
 4580 0200 BA6B     		ldr	r2, [r7, #56]
 4581 0202 92F85420 		ldrb	r2, [r2, #84]	@ zero_extendqisi2
 4582 0206 1343     		orrs	r3, r3, r2
 4583 0208 FB64     		str	r3, [r7, #76]
 4584              	.L409:
 4585 020a BB6B     		ldr	r3, [r7, #56]
 4586 020c FA6C     		ldr	r2, [r7, #76]
 4587 020e 9A61     		str	r2, [r3, #24]
 4588 0210 BB6B     		ldr	r3, [r7, #56]
 4589 0212 93F84020 		ldrb	r2, [r3, #64]	@ zero_extendqisi2
 4590 0216 BB6B     		ldr	r3, [r7, #56]
 4591 0218 DA70     		strb	r2, [r3, #3]
 4592 021a BB6B     		ldr	r3, [r7, #56]
 4593 021c DB78     		ldrb	r3, [r3, #3]	@ zero_extendqisi2
 4594 021e 012B     		cmp	r3, #1
 4595 0220 05D0     		beq	.L410
 4596 0222 BB6B     		ldr	r3, [r7, #56]
 4597 0224 DB78     		ldrb	r3, [r3, #3]	@ zero_extendqisi2
 4598 0226 022B     		cmp	r3, #2
 4599 0228 01D0     		beq	.L410
 4600 022a 0D23     		movs	r3, #13
 4601 022c 8CE1     		b	.L390
 4602              	.L410:
 4603 022e BB6B     		ldr	r3, [r7, #56]
 4604 0230 DB78     		ldrb	r3, [r3, #3]	@ zero_extendqisi2
 4605 0232 1A46     		mov	r2, r3
 4606 0234 FB6C     		ldr	r3, [r7, #76]
 4607 0236 02FB03F3 		mul	r3, r2, r3
 4608 023a FB64     		str	r3, [r7, #76]
 4609 023c BB6B     		ldr	r3, [r7, #56]
 4610 023e 93F83D20 		ldrb	r2, [r3, #61]	@ zero_extendqisi2
 4611 0242 BB6B     		ldr	r3, [r7, #56]
 4612 0244 9A70     		strb	r2, [r3, #2]
 4613 0246 BB6B     		ldr	r3, [r7, #56]
 4614 0248 9B78     		ldrb	r3, [r3, #2]	@ zero_extendqisi2
ARM GAS  /var/folders/d2/nstgp4h54kz7g1l847x_b8wc0000gn/T//ccrhfnpm.s 			page 82


 4615 024a 002B     		cmp	r3, #0
 4616 024c 08D0     		beq	.L411
 4617 024e BB6B     		ldr	r3, [r7, #56]
 4618 0250 9B78     		ldrb	r3, [r3, #2]	@ zero_extendqisi2
 4619 0252 1A46     		mov	r2, r3
 4620 0254 BB6B     		ldr	r3, [r7, #56]
 4621 0256 9B78     		ldrb	r3, [r3, #2]	@ zero_extendqisi2
 4622 0258 013B     		subs	r3, r3, #1
 4623 025a 1340     		ands	r3, r3, r2
 4624 025c 002B     		cmp	r3, #0
 4625 025e 01D0     		beq	.L412
 4626              	.L411:
 4627 0260 0D23     		movs	r3, #13
 4628 0262 71E1     		b	.L390
 4629              	.L412:
 4630 0264 BB6B     		ldr	r3, [r7, #56]
 4631 0266 93F84230 		ldrb	r3, [r3, #66]	@ zero_extendqisi2
 4632 026a 1B02     		lsls	r3, r3, #8
 4633 026c 1AB2     		sxth	r2, r3
 4634 026e BB6B     		ldr	r3, [r7, #56]
 4635 0270 93F84130 		ldrb	r3, [r3, #65]	@ zero_extendqisi2
 4636 0274 1BB2     		sxth	r3, r3
 4637 0276 1343     		orrs	r3, r3, r2
 4638 0278 1BB2     		sxth	r3, r3
 4639 027a 9AB2     		uxth	r2, r3
 4640 027c BB6B     		ldr	r3, [r7, #56]
 4641 027e 1A81     		strh	r2, [r3, #8]	@ movhi
 4642 0280 BB6B     		ldr	r3, [r7, #56]
 4643 0282 1B89     		ldrh	r3, [r3, #8]
 4644 0284 03F00F03 		and	r3, r3, #15
 4645 0288 9BB2     		uxth	r3, r3
 4646 028a 002B     		cmp	r3, #0
 4647 028c 04D0     		beq	.L413
 4648 028e 0D23     		movs	r3, #13
 4649 0290 5AE1     		b	.L390
 4650              	.L429:
 4651 0292 00BF     		.align	2
 4652              	.L428:
 4653 0294 00000000 		.word	FatFs
 4654              	.L413:
 4655 0298 BB6B     		ldr	r3, [r7, #56]
 4656 029a 93F84430 		ldrb	r3, [r3, #68]	@ zero_extendqisi2
 4657 029e 1B02     		lsls	r3, r3, #8
 4658 02a0 1AB2     		sxth	r2, r3
 4659 02a2 BB6B     		ldr	r3, [r7, #56]
 4660 02a4 93F84330 		ldrb	r3, [r3, #67]	@ zero_extendqisi2
 4661 02a8 1BB2     		sxth	r3, r3
 4662 02aa 1343     		orrs	r3, r3, r2
 4663 02ac 1BB2     		sxth	r3, r3
 4664 02ae 9BB2     		uxth	r3, r3
 4665 02b0 BB64     		str	r3, [r7, #72]
 4666 02b2 BB6C     		ldr	r3, [r7, #72]
 4667 02b4 002B     		cmp	r3, #0
 4668 02b6 12D1     		bne	.L414
 4669 02b8 BB6B     		ldr	r3, [r7, #56]
 4670 02ba 93F85330 		ldrb	r3, [r3, #83]	@ zero_extendqisi2
 4671 02be 1A06     		lsls	r2, r3, #24
ARM GAS  /var/folders/d2/nstgp4h54kz7g1l847x_b8wc0000gn/T//ccrhfnpm.s 			page 83


 4672 02c0 BB6B     		ldr	r3, [r7, #56]
 4673 02c2 93F85230 		ldrb	r3, [r3, #82]	@ zero_extendqisi2
 4674 02c6 1B04     		lsls	r3, r3, #16
 4675 02c8 1343     		orrs	r3, r3, r2
 4676 02ca BA6B     		ldr	r2, [r7, #56]
 4677 02cc 92F85120 		ldrb	r2, [r2, #81]	@ zero_extendqisi2
 4678 02d0 1202     		lsls	r2, r2, #8
 4679 02d2 1343     		orrs	r3, r3, r2
 4680 02d4 BA6B     		ldr	r2, [r7, #56]
 4681 02d6 92F85020 		ldrb	r2, [r2, #80]	@ zero_extendqisi2
 4682 02da 1343     		orrs	r3, r3, r2
 4683 02dc BB64     		str	r3, [r7, #72]
 4684              	.L414:
 4685 02de BB6B     		ldr	r3, [r7, #56]
 4686 02e0 93F83F30 		ldrb	r3, [r3, #63]	@ zero_extendqisi2
 4687 02e4 1B02     		lsls	r3, r3, #8
 4688 02e6 1AB2     		sxth	r2, r3
 4689 02e8 BB6B     		ldr	r3, [r7, #56]
 4690 02ea 93F83E30 		ldrb	r3, [r3, #62]	@ zero_extendqisi2
 4691 02ee 1BB2     		sxth	r3, r3
 4692 02f0 1343     		orrs	r3, r3, r2
 4693 02f2 1BB2     		sxth	r3, r3
 4694 02f4 FB85     		strh	r3, [r7, #46]	@ movhi
 4695 02f6 FB8D     		ldrh	r3, [r7, #46]
 4696 02f8 002B     		cmp	r3, #0
 4697 02fa 01D1     		bne	.L415
 4698 02fc 0D23     		movs	r3, #13
 4699 02fe 23E1     		b	.L390
 4700              	.L415:
 4701 0300 FA8D     		ldrh	r2, [r7, #46]
 4702 0302 FB6C     		ldr	r3, [r7, #76]
 4703 0304 1344     		add	r3, r3, r2
 4704 0306 BA6B     		ldr	r2, [r7, #56]
 4705 0308 1289     		ldrh	r2, [r2, #8]
 4706 030a 1209     		lsrs	r2, r2, #4
 4707 030c 92B2     		uxth	r2, r2
 4708 030e 1344     		add	r3, r3, r2
 4709 0310 BB62     		str	r3, [r7, #40]
 4710 0312 BA6C     		ldr	r2, [r7, #72]
 4711 0314 BB6A     		ldr	r3, [r7, #40]
 4712 0316 9A42     		cmp	r2, r3
 4713 0318 01D2     		bcs	.L416
 4714 031a 0D23     		movs	r3, #13
 4715 031c 14E1     		b	.L390
 4716              	.L416:
 4717 031e BA6C     		ldr	r2, [r7, #72]
 4718 0320 BB6A     		ldr	r3, [r7, #40]
 4719 0322 D31A     		subs	r3, r2, r3
 4720 0324 BA6B     		ldr	r2, [r7, #56]
 4721 0326 9278     		ldrb	r2, [r2, #2]	@ zero_extendqisi2
 4722 0328 B3FBF2F3 		udiv	r3, r3, r2
 4723 032c 7B62     		str	r3, [r7, #36]
 4724 032e 7B6A     		ldr	r3, [r7, #36]
 4725 0330 002B     		cmp	r3, #0
 4726 0332 01D1     		bne	.L417
 4727 0334 0D23     		movs	r3, #13
 4728 0336 07E1     		b	.L390
ARM GAS  /var/folders/d2/nstgp4h54kz7g1l847x_b8wc0000gn/T//ccrhfnpm.s 			page 84


 4729              	.L417:
 4730 0338 0123     		movs	r3, #1
 4731 033a 87F85730 		strb	r3, [r7, #87]
 4732 033e 7B6A     		ldr	r3, [r7, #36]
 4733 0340 40F6F572 		movw	r2, #4085
 4734 0344 9342     		cmp	r3, r2
 4735 0346 02D9     		bls	.L418
 4736 0348 0223     		movs	r3, #2
 4737 034a 87F85730 		strb	r3, [r7, #87]
 4738              	.L418:
 4739 034e 7B6A     		ldr	r3, [r7, #36]
 4740 0350 4FF6F572 		movw	r2, #65525
 4741 0354 9342     		cmp	r3, r2
 4742 0356 02D9     		bls	.L419
 4743 0358 0323     		movs	r3, #3
 4744 035a 87F85730 		strb	r3, [r7, #87]
 4745              	.L419:
 4746 035e 7B6A     		ldr	r3, [r7, #36]
 4747 0360 9A1C     		adds	r2, r3, #2
 4748 0362 BB6B     		ldr	r3, [r7, #56]
 4749 0364 5A61     		str	r2, [r3, #20]
 4750 0366 BB6B     		ldr	r3, [r7, #56]
 4751 0368 3A6D     		ldr	r2, [r7, #80]
 4752 036a DA61     		str	r2, [r3, #28]
 4753 036c FA8D     		ldrh	r2, [r7, #46]
 4754 036e 3B6D     		ldr	r3, [r7, #80]
 4755 0370 1A44     		add	r2, r2, r3
 4756 0372 BB6B     		ldr	r3, [r7, #56]
 4757 0374 1A62     		str	r2, [r3, #32]
 4758 0376 3A6D     		ldr	r2, [r7, #80]
 4759 0378 BB6A     		ldr	r3, [r7, #40]
 4760 037a 1A44     		add	r2, r2, r3
 4761 037c BB6B     		ldr	r3, [r7, #56]
 4762 037e 9A62     		str	r2, [r3, #40]
 4763 0380 97F85730 		ldrb	r3, [r7, #87]	@ zero_extendqisi2
 4764 0384 032B     		cmp	r3, #3
 4765 0386 1ED1     		bne	.L420
 4766 0388 BB6B     		ldr	r3, [r7, #56]
 4767 038a 1B89     		ldrh	r3, [r3, #8]
 4768 038c 002B     		cmp	r3, #0
 4769 038e 01D0     		beq	.L421
 4770 0390 0D23     		movs	r3, #13
 4771 0392 D9E0     		b	.L390
 4772              	.L421:
 4773 0394 BB6B     		ldr	r3, [r7, #56]
 4774 0396 93F85F30 		ldrb	r3, [r3, #95]	@ zero_extendqisi2
 4775 039a 1A06     		lsls	r2, r3, #24
 4776 039c BB6B     		ldr	r3, [r7, #56]
 4777 039e 93F85E30 		ldrb	r3, [r3, #94]	@ zero_extendqisi2
 4778 03a2 1B04     		lsls	r3, r3, #16
 4779 03a4 1343     		orrs	r3, r3, r2
 4780 03a6 BA6B     		ldr	r2, [r7, #56]
 4781 03a8 92F85D20 		ldrb	r2, [r2, #93]	@ zero_extendqisi2
 4782 03ac 1202     		lsls	r2, r2, #8
 4783 03ae 1343     		orrs	r3, r3, r2
 4784 03b0 BA6B     		ldr	r2, [r7, #56]
 4785 03b2 92F85C20 		ldrb	r2, [r2, #92]	@ zero_extendqisi2
ARM GAS  /var/folders/d2/nstgp4h54kz7g1l847x_b8wc0000gn/T//ccrhfnpm.s 			page 85


 4786 03b6 1A43     		orrs	r2, r2, r3
 4787 03b8 BB6B     		ldr	r3, [r7, #56]
 4788 03ba 5A62     		str	r2, [r3, #36]
 4789 03bc BB6B     		ldr	r3, [r7, #56]
 4790 03be 5B69     		ldr	r3, [r3, #20]
 4791 03c0 9B00     		lsls	r3, r3, #2
 4792 03c2 7B64     		str	r3, [r7, #68]
 4793 03c4 1FE0     		b	.L422
 4794              	.L420:
 4795 03c6 BB6B     		ldr	r3, [r7, #56]
 4796 03c8 1B89     		ldrh	r3, [r3, #8]
 4797 03ca 002B     		cmp	r3, #0
 4798 03cc 01D1     		bne	.L423
 4799 03ce 0D23     		movs	r3, #13
 4800 03d0 BAE0     		b	.L390
 4801              	.L423:
 4802 03d2 BB6B     		ldr	r3, [r7, #56]
 4803 03d4 1A6A     		ldr	r2, [r3, #32]
 4804 03d6 FB6C     		ldr	r3, [r7, #76]
 4805 03d8 1A44     		add	r2, r2, r3
 4806 03da BB6B     		ldr	r3, [r7, #56]
 4807 03dc 5A62     		str	r2, [r3, #36]
 4808 03de 97F85730 		ldrb	r3, [r7, #87]	@ zero_extendqisi2
 4809 03e2 022B     		cmp	r3, #2
 4810 03e4 03D1     		bne	.L424
 4811 03e6 BB6B     		ldr	r3, [r7, #56]
 4812 03e8 5B69     		ldr	r3, [r3, #20]
 4813 03ea 5B00     		lsls	r3, r3, #1
 4814 03ec 0AE0     		b	.L425
 4815              	.L424:
 4816 03ee BB6B     		ldr	r3, [r7, #56]
 4817 03f0 5A69     		ldr	r2, [r3, #20]
 4818 03f2 1346     		mov	r3, r2
 4819 03f4 5B00     		lsls	r3, r3, #1
 4820 03f6 1344     		add	r3, r3, r2
 4821 03f8 5A08     		lsrs	r2, r3, #1
 4822 03fa BB6B     		ldr	r3, [r7, #56]
 4823 03fc 5B69     		ldr	r3, [r3, #20]
 4824 03fe 03F00103 		and	r3, r3, #1
 4825 0402 1344     		add	r3, r3, r2
 4826              	.L425:
 4827 0404 7B64     		str	r3, [r7, #68]
 4828              	.L422:
 4829 0406 BB6B     		ldr	r3, [r7, #56]
 4830 0408 9A69     		ldr	r2, [r3, #24]
 4831 040a 7B6C     		ldr	r3, [r7, #68]
 4832 040c 03F2FF13 		addw	r3, r3, #511
 4833 0410 5B0A     		lsrs	r3, r3, #9
 4834 0412 9A42     		cmp	r2, r3
 4835 0414 01D2     		bcs	.L426
 4836 0416 0D23     		movs	r3, #13
 4837 0418 96E0     		b	.L390
 4838              	.L426:
 4839 041a BB6B     		ldr	r3, [r7, #56]
 4840 041c 4FF0FF32 		mov	r2, #-1
 4841 0420 1A61     		str	r2, [r3, #16]
 4842 0422 BB6B     		ldr	r3, [r7, #56]
ARM GAS  /var/folders/d2/nstgp4h54kz7g1l847x_b8wc0000gn/T//ccrhfnpm.s 			page 86


 4843 0424 1A69     		ldr	r2, [r3, #16]
 4844 0426 BB6B     		ldr	r3, [r7, #56]
 4845 0428 DA60     		str	r2, [r3, #12]
 4846 042a BB6B     		ldr	r3, [r7, #56]
 4847 042c 8022     		movs	r2, #128
 4848 042e 5A71     		strb	r2, [r3, #5]
 4849 0430 97F85730 		ldrb	r3, [r7, #87]	@ zero_extendqisi2
 4850 0434 032B     		cmp	r3, #3
 4851 0436 78D1     		bne	.L427
 4852 0438 BB6B     		ldr	r3, [r7, #56]
 4853 043a 93F86130 		ldrb	r3, [r3, #97]	@ zero_extendqisi2
 4854 043e 1B02     		lsls	r3, r3, #8
 4855 0440 1AB2     		sxth	r2, r3
 4856 0442 BB6B     		ldr	r3, [r7, #56]
 4857 0444 93F86030 		ldrb	r3, [r3, #96]	@ zero_extendqisi2
 4858 0448 1BB2     		sxth	r3, r3
 4859 044a 1343     		orrs	r3, r3, r2
 4860 044c 1BB2     		sxth	r3, r3
 4861 044e 012B     		cmp	r3, #1
 4862 0450 6BD1     		bne	.L427
 4863 0452 3B6D     		ldr	r3, [r7, #80]
 4864 0454 0133     		adds	r3, r3, #1
 4865 0456 1946     		mov	r1, r3
 4866 0458 B86B     		ldr	r0, [r7, #56]
 4867 045a FFF7FEFF 		bl	move_window
 4868 045e 0346     		mov	r3, r0
 4869 0460 002B     		cmp	r3, #0
 4870 0462 62D1     		bne	.L427
 4871 0464 BB6B     		ldr	r3, [r7, #56]
 4872 0466 0022     		movs	r2, #0
 4873 0468 5A71     		strb	r2, [r3, #5]
 4874 046a BB6B     		ldr	r3, [r7, #56]
 4875 046c 93F82F32 		ldrb	r3, [r3, #559]	@ zero_extendqisi2
 4876 0470 1B02     		lsls	r3, r3, #8
 4877 0472 1AB2     		sxth	r2, r3
 4878 0474 BB6B     		ldr	r3, [r7, #56]
 4879 0476 93F82E32 		ldrb	r3, [r3, #558]	@ zero_extendqisi2
 4880 047a 1BB2     		sxth	r3, r3
 4881 047c 1343     		orrs	r3, r3, r2
 4882 047e 1BB2     		sxth	r3, r3
 4883 0480 334A     		ldr	r2, .L430
 4884 0482 9342     		cmp	r3, r2
 4885 0484 51D1     		bne	.L427
 4886 0486 BB6B     		ldr	r3, [r7, #56]
 4887 0488 93F83330 		ldrb	r3, [r3, #51]	@ zero_extendqisi2
 4888 048c 1A06     		lsls	r2, r3, #24
 4889 048e BB6B     		ldr	r3, [r7, #56]
 4890 0490 93F83230 		ldrb	r3, [r3, #50]	@ zero_extendqisi2
 4891 0494 1B04     		lsls	r3, r3, #16
 4892 0496 1343     		orrs	r3, r3, r2
 4893 0498 BA6B     		ldr	r2, [r7, #56]
 4894 049a 92F83120 		ldrb	r2, [r2, #49]	@ zero_extendqisi2
 4895 049e 1202     		lsls	r2, r2, #8
 4896 04a0 1343     		orrs	r3, r3, r2
 4897 04a2 BA6B     		ldr	r2, [r7, #56]
 4898 04a4 92F83020 		ldrb	r2, [r2, #48]	@ zero_extendqisi2
 4899 04a8 1343     		orrs	r3, r3, r2
ARM GAS  /var/folders/d2/nstgp4h54kz7g1l847x_b8wc0000gn/T//ccrhfnpm.s 			page 87


 4900 04aa 2A4A     		ldr	r2, .L430+4
 4901 04ac 9342     		cmp	r3, r2
 4902 04ae 3CD1     		bne	.L427
 4903 04b0 BB6B     		ldr	r3, [r7, #56]
 4904 04b2 93F81732 		ldrb	r3, [r3, #535]	@ zero_extendqisi2
 4905 04b6 1A06     		lsls	r2, r3, #24
 4906 04b8 BB6B     		ldr	r3, [r7, #56]
 4907 04ba 93F81632 		ldrb	r3, [r3, #534]	@ zero_extendqisi2
 4908 04be 1B04     		lsls	r3, r3, #16
 4909 04c0 1343     		orrs	r3, r3, r2
 4910 04c2 BA6B     		ldr	r2, [r7, #56]
 4911 04c4 92F81522 		ldrb	r2, [r2, #533]	@ zero_extendqisi2
 4912 04c8 1202     		lsls	r2, r2, #8
 4913 04ca 1343     		orrs	r3, r3, r2
 4914 04cc BA6B     		ldr	r2, [r7, #56]
 4915 04ce 92F81422 		ldrb	r2, [r2, #532]	@ zero_extendqisi2
 4916 04d2 1343     		orrs	r3, r3, r2
 4917 04d4 204A     		ldr	r2, .L430+8
 4918 04d6 9342     		cmp	r3, r2
 4919 04d8 27D1     		bne	.L427
 4920 04da BB6B     		ldr	r3, [r7, #56]
 4921 04dc 93F81B32 		ldrb	r3, [r3, #539]	@ zero_extendqisi2
 4922 04e0 1A06     		lsls	r2, r3, #24
 4923 04e2 BB6B     		ldr	r3, [r7, #56]
 4924 04e4 93F81A32 		ldrb	r3, [r3, #538]	@ zero_extendqisi2
 4925 04e8 1B04     		lsls	r3, r3, #16
 4926 04ea 1343     		orrs	r3, r3, r2
 4927 04ec BA6B     		ldr	r2, [r7, #56]
 4928 04ee 92F81922 		ldrb	r2, [r2, #537]	@ zero_extendqisi2
 4929 04f2 1202     		lsls	r2, r2, #8
 4930 04f4 1343     		orrs	r3, r3, r2
 4931 04f6 BA6B     		ldr	r2, [r7, #56]
 4932 04f8 92F81822 		ldrb	r2, [r2, #536]	@ zero_extendqisi2
 4933 04fc 1A43     		orrs	r2, r2, r3
 4934 04fe BB6B     		ldr	r3, [r7, #56]
 4935 0500 1A61     		str	r2, [r3, #16]
 4936 0502 BB6B     		ldr	r3, [r7, #56]
 4937 0504 93F81F32 		ldrb	r3, [r3, #543]	@ zero_extendqisi2
 4938 0508 1A06     		lsls	r2, r3, #24
 4939 050a BB6B     		ldr	r3, [r7, #56]
 4940 050c 93F81E32 		ldrb	r3, [r3, #542]	@ zero_extendqisi2
 4941 0510 1B04     		lsls	r3, r3, #16
 4942 0512 1343     		orrs	r3, r3, r2
 4943 0514 BA6B     		ldr	r2, [r7, #56]
 4944 0516 92F81D22 		ldrb	r2, [r2, #541]	@ zero_extendqisi2
 4945 051a 1202     		lsls	r2, r2, #8
 4946 051c 1343     		orrs	r3, r3, r2
 4947 051e BA6B     		ldr	r2, [r7, #56]
 4948 0520 92F81C22 		ldrb	r2, [r2, #540]	@ zero_extendqisi2
 4949 0524 1A43     		orrs	r2, r2, r3
 4950 0526 BB6B     		ldr	r3, [r7, #56]
 4951 0528 DA60     		str	r2, [r3, #12]
 4952              	.L427:
 4953 052a BB6B     		ldr	r3, [r7, #56]
 4954 052c 97F85720 		ldrb	r2, [r7, #87]
 4955 0530 1A70     		strb	r2, [r3]
 4956 0532 0A4B     		ldr	r3, .L430+12
ARM GAS  /var/folders/d2/nstgp4h54kz7g1l847x_b8wc0000gn/T//ccrhfnpm.s 			page 88


 4957 0534 1B88     		ldrh	r3, [r3]
 4958 0536 0133     		adds	r3, r3, #1
 4959 0538 9AB2     		uxth	r2, r3
 4960 053a 084B     		ldr	r3, .L430+12
 4961 053c 1A80     		strh	r2, [r3]	@ movhi
 4962 053e 074B     		ldr	r3, .L430+12
 4963 0540 1A88     		ldrh	r2, [r3]
 4964 0542 BB6B     		ldr	r3, [r7, #56]
 4965 0544 DA80     		strh	r2, [r3, #6]	@ movhi
 4966 0546 0023     		movs	r3, #0
 4967              	.L390:
 4968 0548 1846     		mov	r0, r3
 4969 054a 5837     		adds	r7, r7, #88
 4970 054c BD46     		mov	sp, r7
 4971              		@ sp needed
 4972 054e 80BD     		pop	{r7, pc}
 4973              	.L431:
 4974              		.align	2
 4975              	.L430:
 4976 0550 55AAFFFF 		.word	-21931
 4977 0554 52526141 		.word	1096897106
 4978 0558 72724161 		.word	1631679090
 4979 055c 00000000 		.word	Fsid
 4980              		.size	find_volume, .-find_volume
 4981              		.section	.text.validate,"ax",%progbits
 4982              		.align	1
 4983              		.syntax unified
 4984              		.thumb
 4985              		.thumb_func
 4986              		.fpu fpv4-sp-d16
 4987              		.type	validate, %function
 4988              	validate:
 4989              		@ args = 0, pretend = 0, frame = 16
 4990              		@ frame_needed = 1, uses_anonymous_args = 0
 4991 0000 80B5     		push	{r7, lr}
 4992 0002 84B0     		sub	sp, sp, #16
 4993 0004 00AF     		add	r7, sp, #0
 4994 0006 7860     		str	r0, [r7, #4]
 4995 0008 7B68     		ldr	r3, [r7, #4]
 4996 000a FB60     		str	r3, [r7, #12]
 4997 000c FB68     		ldr	r3, [r7, #12]
 4998 000e 002B     		cmp	r3, #0
 4999 0010 0FD0     		beq	.L433
 5000 0012 FB68     		ldr	r3, [r7, #12]
 5001 0014 1B68     		ldr	r3, [r3]
 5002 0016 002B     		cmp	r3, #0
 5003 0018 0BD0     		beq	.L433
 5004 001a FB68     		ldr	r3, [r7, #12]
 5005 001c 1B68     		ldr	r3, [r3]
 5006 001e 1B78     		ldrb	r3, [r3]	@ zero_extendqisi2
 5007 0020 002B     		cmp	r3, #0
 5008 0022 06D0     		beq	.L433
 5009 0024 FB68     		ldr	r3, [r7, #12]
 5010 0026 1B68     		ldr	r3, [r3]
 5011 0028 DA88     		ldrh	r2, [r3, #6]
 5012 002a FB68     		ldr	r3, [r7, #12]
 5013 002c 9B88     		ldrh	r3, [r3, #4]
ARM GAS  /var/folders/d2/nstgp4h54kz7g1l847x_b8wc0000gn/T//ccrhfnpm.s 			page 89


 5014 002e 9A42     		cmp	r2, r3
 5015 0030 01D0     		beq	.L434
 5016              	.L433:
 5017 0032 0923     		movs	r3, #9
 5018 0034 0DE0     		b	.L435
 5019              	.L434:
 5020 0036 FB68     		ldr	r3, [r7, #12]
 5021 0038 1B68     		ldr	r3, [r3]
 5022 003a 5B78     		ldrb	r3, [r3, #1]	@ zero_extendqisi2
 5023 003c 1846     		mov	r0, r3
 5024 003e FFF7FEFF 		bl	disk_status
 5025 0042 0346     		mov	r3, r0
 5026 0044 03F00103 		and	r3, r3, #1
 5027 0048 002B     		cmp	r3, #0
 5028 004a 01D0     		beq	.L436
 5029 004c 0323     		movs	r3, #3
 5030 004e 00E0     		b	.L435
 5031              	.L436:
 5032 0050 0023     		movs	r3, #0
 5033              	.L435:
 5034 0052 1846     		mov	r0, r3
 5035 0054 1037     		adds	r7, r7, #16
 5036 0056 BD46     		mov	sp, r7
 5037              		@ sp needed
 5038 0058 80BD     		pop	{r7, pc}
 5039              		.size	validate, .-validate
 5040              		.section	.text.f_mount,"ax",%progbits
 5041              		.align	1
 5042              		.global	f_mount
 5043              		.syntax unified
 5044              		.thumb
 5045              		.thumb_func
 5046              		.fpu fpv4-sp-d16
 5047              		.type	f_mount, %function
 5048              	f_mount:
 5049              		@ args = 0, pretend = 0, frame = 32
 5050              		@ frame_needed = 1, uses_anonymous_args = 0
 5051 0000 80B5     		push	{r7, lr}
 5052 0002 88B0     		sub	sp, sp, #32
 5053 0004 00AF     		add	r7, sp, #0
 5054 0006 F860     		str	r0, [r7, #12]
 5055 0008 B960     		str	r1, [r7, #8]
 5056 000a 1346     		mov	r3, r2
 5057 000c FB71     		strb	r3, [r7, #7]
 5058 000e BB68     		ldr	r3, [r7, #8]
 5059 0010 3B61     		str	r3, [r7, #16]
 5060 0012 07F11003 		add	r3, r7, #16
 5061 0016 1846     		mov	r0, r3
 5062 0018 FFF7FEFF 		bl	get_ldnumber
 5063 001c F861     		str	r0, [r7, #28]
 5064 001e FB69     		ldr	r3, [r7, #28]
 5065 0020 002B     		cmp	r3, #0
 5066 0022 01DA     		bge	.L438
 5067 0024 0B23     		movs	r3, #11
 5068 0026 28E0     		b	.L444
 5069              	.L438:
 5070 0028 164A     		ldr	r2, .L445
ARM GAS  /var/folders/d2/nstgp4h54kz7g1l847x_b8wc0000gn/T//ccrhfnpm.s 			page 90


 5071 002a FB69     		ldr	r3, [r7, #28]
 5072 002c 52F82330 		ldr	r3, [r2, r3, lsl #2]
 5073 0030 BB61     		str	r3, [r7, #24]
 5074 0032 BB69     		ldr	r3, [r7, #24]
 5075 0034 002B     		cmp	r3, #0
 5076 0036 02D0     		beq	.L440
 5077 0038 BB69     		ldr	r3, [r7, #24]
 5078 003a 0022     		movs	r2, #0
 5079 003c 1A70     		strb	r2, [r3]
 5080              	.L440:
 5081 003e FB68     		ldr	r3, [r7, #12]
 5082 0040 002B     		cmp	r3, #0
 5083 0042 02D0     		beq	.L441
 5084 0044 FB68     		ldr	r3, [r7, #12]
 5085 0046 0022     		movs	r2, #0
 5086 0048 1A70     		strb	r2, [r3]
 5087              	.L441:
 5088 004a FA68     		ldr	r2, [r7, #12]
 5089 004c 0D49     		ldr	r1, .L445
 5090 004e FB69     		ldr	r3, [r7, #28]
 5091 0050 41F82320 		str	r2, [r1, r3, lsl #2]
 5092 0054 FB68     		ldr	r3, [r7, #12]
 5093 0056 002B     		cmp	r3, #0
 5094 0058 02D0     		beq	.L442
 5095 005a FB79     		ldrb	r3, [r7, #7]	@ zero_extendqisi2
 5096 005c 012B     		cmp	r3, #1
 5097 005e 01D0     		beq	.L443
 5098              	.L442:
 5099 0060 0023     		movs	r3, #0
 5100 0062 0AE0     		b	.L444
 5101              	.L443:
 5102 0064 07F10801 		add	r1, r7, #8
 5103 0068 07F10C03 		add	r3, r7, #12
 5104 006c 0022     		movs	r2, #0
 5105 006e 1846     		mov	r0, r3
 5106 0070 FFF7FEFF 		bl	find_volume
 5107 0074 0346     		mov	r3, r0
 5108 0076 FB75     		strb	r3, [r7, #23]
 5109 0078 FB7D     		ldrb	r3, [r7, #23]	@ zero_extendqisi2
 5110              	.L444:
 5111 007a 1846     		mov	r0, r3
 5112 007c 2037     		adds	r7, r7, #32
 5113 007e BD46     		mov	sp, r7
 5114              		@ sp needed
 5115 0080 80BD     		pop	{r7, pc}
 5116              	.L446:
 5117 0082 00BF     		.align	2
 5118              	.L445:
 5119 0084 00000000 		.word	FatFs
 5120              		.size	f_mount, .-f_mount
 5121              		.section	.text.f_open,"ax",%progbits
 5122              		.align	1
 5123              		.global	f_open
 5124              		.syntax unified
 5125              		.thumb
 5126              		.thumb_func
 5127              		.fpu fpv4-sp-d16
ARM GAS  /var/folders/d2/nstgp4h54kz7g1l847x_b8wc0000gn/T//ccrhfnpm.s 			page 91


 5128              		.type	f_open, %function
 5129              	f_open:
 5130              		@ args = 0, pretend = 0, frame = 592
 5131              		@ frame_needed = 1, uses_anonymous_args = 0
 5132 0000 80B5     		push	{r7, lr}
 5133 0002 ADF5147D 		sub	sp, sp, #592
 5134 0006 00AF     		add	r7, sp, #0
 5135 0008 07F10C03 		add	r3, r7, #12
 5136 000c 1860     		str	r0, [r3]
 5137 000e 07F10803 		add	r3, r7, #8
 5138 0012 1960     		str	r1, [r3]
 5139 0014 FB1D     		adds	r3, r7, #7
 5140 0016 1A70     		strb	r2, [r3]
 5141 0018 07F10C03 		add	r3, r7, #12
 5142 001c 1B68     		ldr	r3, [r3]
 5143 001e 002B     		cmp	r3, #0
 5144 0020 01D1     		bne	.L448
 5145 0022 0923     		movs	r3, #9
 5146 0024 8FE1     		b	.L462
 5147              	.L448:
 5148 0026 07F10C03 		add	r3, r7, #12
 5149 002a 1B68     		ldr	r3, [r3]
 5150 002c 0022     		movs	r2, #0
 5151 002e 1A60     		str	r2, [r3]
 5152 0030 FB1D     		adds	r3, r7, #7
 5153 0032 FA1D     		adds	r2, r7, #7
 5154 0034 1278     		ldrb	r2, [r2]
 5155 0036 02F01F02 		and	r2, r2, #31
 5156 003a 1A70     		strb	r2, [r3]
 5157 003c FB1D     		adds	r3, r7, #7
 5158 003e 1B78     		ldrb	r3, [r3]
 5159 0040 23F00103 		bic	r3, r3, #1
 5160 0044 DAB2     		uxtb	r2, r3
 5161 0046 07F10801 		add	r1, r7, #8
 5162 004a 07F50773 		add	r3, r7, #540
 5163 004e 1846     		mov	r0, r3
 5164 0050 FFF7FEFF 		bl	find_volume
 5165 0054 0346     		mov	r3, r0
 5166 0056 87F84F32 		strb	r3, [r7, #591]
 5167 005a 97F84F32 		ldrb	r3, [r7, #591]	@ zero_extendqisi2
 5168 005e 002B     		cmp	r3, #0
 5169 0060 40F06F81 		bne	.L450
 5170 0064 07F50473 		add	r3, r7, #528
 5171 0068 C7F83432 		str	r3, [r7, #564]
 5172 006c 07F11003 		add	r3, r7, #16
 5173 0070 C7F83832 		str	r3, [r7, #568]
 5174 0074 07F10803 		add	r3, r7, #8
 5175 0078 1A68     		ldr	r2, [r3]
 5176 007a 07F50773 		add	r3, r7, #540
 5177 007e 1146     		mov	r1, r2
 5178 0080 1846     		mov	r0, r3
 5179 0082 FFF7FEFF 		bl	follow_path
 5180 0086 0346     		mov	r3, r0
 5181 0088 87F84F32 		strb	r3, [r7, #591]
 5182 008c D7F83032 		ldr	r3, [r7, #560]
 5183 0090 C7F84832 		str	r3, [r7, #584]
 5184 0094 97F84F32 		ldrb	r3, [r7, #591]	@ zero_extendqisi2
ARM GAS  /var/folders/d2/nstgp4h54kz7g1l847x_b8wc0000gn/T//ccrhfnpm.s 			page 92


 5185 0098 002B     		cmp	r3, #0
 5186 009a 06D1     		bne	.L451
 5187 009c D7F84832 		ldr	r3, [r7, #584]
 5188 00a0 002B     		cmp	r3, #0
 5189 00a2 02D1     		bne	.L451
 5190 00a4 0623     		movs	r3, #6
 5191 00a6 87F84F32 		strb	r3, [r7, #591]
 5192              	.L451:
 5193 00aa FB1D     		adds	r3, r7, #7
 5194 00ac 1B78     		ldrb	r3, [r3]	@ zero_extendqisi2
 5195 00ae 03F01C03 		and	r3, r3, #28
 5196 00b2 002B     		cmp	r3, #0
 5197 00b4 00F0B480 		beq	.L452
 5198 00b8 97F84F32 		ldrb	r3, [r7, #591]	@ zero_extendqisi2
 5199 00bc 002B     		cmp	r3, #0
 5200 00be 16D0     		beq	.L453
 5201 00c0 97F84F32 		ldrb	r3, [r7, #591]	@ zero_extendqisi2
 5202 00c4 042B     		cmp	r3, #4
 5203 00c6 07D1     		bne	.L454
 5204 00c8 07F50773 		add	r3, r7, #540
 5205 00cc 1846     		mov	r0, r3
 5206 00ce FFF7FEFF 		bl	dir_register
 5207 00d2 0346     		mov	r3, r0
 5208 00d4 87F84F32 		strb	r3, [r7, #591]
 5209              	.L454:
 5210 00d8 FB1D     		adds	r3, r7, #7
 5211 00da FA1D     		adds	r2, r7, #7
 5212 00dc 1278     		ldrb	r2, [r2]
 5213 00de 42F00802 		orr	r2, r2, #8
 5214 00e2 1A70     		strb	r2, [r3]
 5215 00e4 D7F83032 		ldr	r3, [r7, #560]
 5216 00e8 C7F84832 		str	r3, [r7, #584]
 5217 00ec 14E0     		b	.L455
 5218              	.L453:
 5219 00ee D7F84832 		ldr	r3, [r7, #584]
 5220 00f2 0B33     		adds	r3, r3, #11
 5221 00f4 1B78     		ldrb	r3, [r3]	@ zero_extendqisi2
 5222 00f6 03F01103 		and	r3, r3, #17
 5223 00fa 002B     		cmp	r3, #0
 5224 00fc 03D0     		beq	.L456
 5225 00fe 0723     		movs	r3, #7
 5226 0100 87F84F32 		strb	r3, [r7, #591]
 5227 0104 08E0     		b	.L455
 5228              	.L456:
 5229 0106 FB1D     		adds	r3, r7, #7
 5230 0108 1B78     		ldrb	r3, [r3]	@ zero_extendqisi2
 5231 010a 03F00403 		and	r3, r3, #4
 5232 010e 002B     		cmp	r3, #0
 5233 0110 02D0     		beq	.L455
 5234 0112 0823     		movs	r3, #8
 5235 0114 87F84F32 		strb	r3, [r7, #591]
 5236              	.L455:
 5237 0118 97F84F32 		ldrb	r3, [r7, #591]	@ zero_extendqisi2
 5238 011c 002B     		cmp	r3, #0
 5239 011e 40F0A080 		bne	.L458
 5240 0122 FB1D     		adds	r3, r7, #7
 5241 0124 1B78     		ldrb	r3, [r3]	@ zero_extendqisi2
ARM GAS  /var/folders/d2/nstgp4h54kz7g1l847x_b8wc0000gn/T//ccrhfnpm.s 			page 93


 5242 0126 03F00803 		and	r3, r3, #8
 5243 012a 002B     		cmp	r3, #0
 5244 012c 00F09980 		beq	.L458
 5245 0130 FFF7FEFF 		bl	get_fattime
 5246 0134 C7F84402 		str	r0, [r7, #580]
 5247 0138 D7F84832 		ldr	r3, [r7, #584]
 5248 013c 0E33     		adds	r3, r3, #14
 5249 013e D7F84422 		ldr	r2, [r7, #580]
 5250 0142 D2B2     		uxtb	r2, r2
 5251 0144 1A70     		strb	r2, [r3]
 5252 0146 D7F84432 		ldr	r3, [r7, #580]
 5253 014a 9BB2     		uxth	r3, r3
 5254 014c 1B0A     		lsrs	r3, r3, #8
 5255 014e 9AB2     		uxth	r2, r3
 5256 0150 D7F84832 		ldr	r3, [r7, #584]
 5257 0154 0F33     		adds	r3, r3, #15
 5258 0156 D2B2     		uxtb	r2, r2
 5259 0158 1A70     		strb	r2, [r3]
 5260 015a D7F84432 		ldr	r3, [r7, #580]
 5261 015e 1A0C     		lsrs	r2, r3, #16
 5262 0160 D7F84832 		ldr	r3, [r7, #584]
 5263 0164 1033     		adds	r3, r3, #16
 5264 0166 D2B2     		uxtb	r2, r2
 5265 0168 1A70     		strb	r2, [r3]
 5266 016a D7F84432 		ldr	r3, [r7, #580]
 5267 016e 1A0E     		lsrs	r2, r3, #24
 5268 0170 D7F84832 		ldr	r3, [r7, #584]
 5269 0174 1133     		adds	r3, r3, #17
 5270 0176 D2B2     		uxtb	r2, r2
 5271 0178 1A70     		strb	r2, [r3]
 5272 017a D7F84832 		ldr	r3, [r7, #584]
 5273 017e 0B33     		adds	r3, r3, #11
 5274 0180 0022     		movs	r2, #0
 5275 0182 1A70     		strb	r2, [r3]
 5276 0184 D7F84832 		ldr	r3, [r7, #584]
 5277 0188 1C33     		adds	r3, r3, #28
 5278 018a 0022     		movs	r2, #0
 5279 018c 1A70     		strb	r2, [r3]
 5280 018e D7F84832 		ldr	r3, [r7, #584]
 5281 0192 1D33     		adds	r3, r3, #29
 5282 0194 0022     		movs	r2, #0
 5283 0196 1A70     		strb	r2, [r3]
 5284 0198 D7F84832 		ldr	r3, [r7, #584]
 5285 019c 1E33     		adds	r3, r3, #30
 5286 019e 0022     		movs	r2, #0
 5287 01a0 1A70     		strb	r2, [r3]
 5288 01a2 D7F84832 		ldr	r3, [r7, #584]
 5289 01a6 1F33     		adds	r3, r3, #31
 5290 01a8 0022     		movs	r2, #0
 5291 01aa 1A70     		strb	r2, [r3]
 5292 01ac D7F81C32 		ldr	r3, [r7, #540]
 5293 01b0 D7F84812 		ldr	r1, [r7, #584]
 5294 01b4 1846     		mov	r0, r3
 5295 01b6 FFF7FEFF 		bl	ld_clust
 5296 01ba C7F84002 		str	r0, [r7, #576]
 5297 01be 0021     		movs	r1, #0
 5298 01c0 D7F84802 		ldr	r0, [r7, #584]
ARM GAS  /var/folders/d2/nstgp4h54kz7g1l847x_b8wc0000gn/T//ccrhfnpm.s 			page 94


 5299 01c4 FFF7FEFF 		bl	st_clust
 5300 01c8 D7F81C32 		ldr	r3, [r7, #540]
 5301 01cc 0122     		movs	r2, #1
 5302 01ce 1A71     		strb	r2, [r3, #4]
 5303 01d0 D7F84032 		ldr	r3, [r7, #576]
 5304 01d4 002B     		cmp	r3, #0
 5305 01d6 44D0     		beq	.L458
 5306 01d8 D7F81C32 		ldr	r3, [r7, #540]
 5307 01dc DB6A     		ldr	r3, [r3, #44]
 5308 01de C7F84432 		str	r3, [r7, #580]
 5309 01e2 D7F81C32 		ldr	r3, [r7, #540]
 5310 01e6 D7F84012 		ldr	r1, [r7, #576]
 5311 01ea 1846     		mov	r0, r3
 5312 01ec FFF7FEFF 		bl	remove_chain
 5313 01f0 0346     		mov	r3, r0
 5314 01f2 87F84F32 		strb	r3, [r7, #591]
 5315 01f6 97F84F32 		ldrb	r3, [r7, #591]	@ zero_extendqisi2
 5316 01fa 002B     		cmp	r3, #0
 5317 01fc 31D1     		bne	.L458
 5318 01fe D7F81C32 		ldr	r3, [r7, #540]
 5319 0202 D7F84022 		ldr	r2, [r7, #576]
 5320 0206 013A     		subs	r2, r2, #1
 5321 0208 DA60     		str	r2, [r3, #12]
 5322 020a D7F81C32 		ldr	r3, [r7, #540]
 5323 020e D7F84412 		ldr	r1, [r7, #580]
 5324 0212 1846     		mov	r0, r3
 5325 0214 FFF7FEFF 		bl	move_window
 5326 0218 0346     		mov	r3, r0
 5327 021a 87F84F32 		strb	r3, [r7, #591]
 5328 021e 20E0     		b	.L458
 5329              	.L452:
 5330 0220 97F84F32 		ldrb	r3, [r7, #591]	@ zero_extendqisi2
 5331 0224 002B     		cmp	r3, #0
 5332 0226 1CD1     		bne	.L458
 5333 0228 D7F84832 		ldr	r3, [r7, #584]
 5334 022c 0B33     		adds	r3, r3, #11
 5335 022e 1B78     		ldrb	r3, [r3]	@ zero_extendqisi2
 5336 0230 03F01003 		and	r3, r3, #16
 5337 0234 002B     		cmp	r3, #0
 5338 0236 03D0     		beq	.L459
 5339 0238 0423     		movs	r3, #4
 5340 023a 87F84F32 		strb	r3, [r7, #591]
 5341 023e 10E0     		b	.L458
 5342              	.L459:
 5343 0240 FB1D     		adds	r3, r7, #7
 5344 0242 1B78     		ldrb	r3, [r3]	@ zero_extendqisi2
 5345 0244 03F00203 		and	r3, r3, #2
 5346 0248 002B     		cmp	r3, #0
 5347 024a 0AD0     		beq	.L458
 5348 024c D7F84832 		ldr	r3, [r7, #584]
 5349 0250 0B33     		adds	r3, r3, #11
 5350 0252 1B78     		ldrb	r3, [r3]	@ zero_extendqisi2
 5351 0254 03F00103 		and	r3, r3, #1
 5352 0258 002B     		cmp	r3, #0
 5353 025a 02D0     		beq	.L458
 5354 025c 0723     		movs	r3, #7
 5355 025e 87F84F32 		strb	r3, [r7, #591]
ARM GAS  /var/folders/d2/nstgp4h54kz7g1l847x_b8wc0000gn/T//ccrhfnpm.s 			page 95


 5356              	.L458:
 5357 0262 97F84F32 		ldrb	r3, [r7, #591]	@ zero_extendqisi2
 5358 0266 002B     		cmp	r3, #0
 5359 0268 18D1     		bne	.L460
 5360 026a FB1D     		adds	r3, r7, #7
 5361 026c 1B78     		ldrb	r3, [r3]	@ zero_extendqisi2
 5362 026e 03F00803 		and	r3, r3, #8
 5363 0272 002B     		cmp	r3, #0
 5364 0274 05D0     		beq	.L461
 5365 0276 FB1D     		adds	r3, r7, #7
 5366 0278 FA1D     		adds	r2, r7, #7
 5367 027a 1278     		ldrb	r2, [r2]
 5368 027c 42F02002 		orr	r2, r2, #32
 5369 0280 1A70     		strb	r2, [r3]
 5370              	.L461:
 5371 0282 D7F81C32 		ldr	r3, [r7, #540]
 5372 0286 DA6A     		ldr	r2, [r3, #44]
 5373 0288 07F10C03 		add	r3, r7, #12
 5374 028c 1B68     		ldr	r3, [r3]
 5375 028e DA61     		str	r2, [r3, #28]
 5376 0290 07F10C03 		add	r3, r7, #12
 5377 0294 1B68     		ldr	r3, [r3]
 5378 0296 D7F84822 		ldr	r2, [r7, #584]
 5379 029a 1A62     		str	r2, [r3, #32]
 5380              	.L460:
 5381 029c 97F84F32 		ldrb	r3, [r7, #591]	@ zero_extendqisi2
 5382 02a0 002B     		cmp	r3, #0
 5383 02a2 4ED1     		bne	.L450
 5384 02a4 07F10C03 		add	r3, r7, #12
 5385 02a8 1B68     		ldr	r3, [r3]
 5386 02aa FA1D     		adds	r2, r7, #7
 5387 02ac 1278     		ldrb	r2, [r2]
 5388 02ae 9A71     		strb	r2, [r3, #6]
 5389 02b0 07F10C03 		add	r3, r7, #12
 5390 02b4 1B68     		ldr	r3, [r3]
 5391 02b6 0022     		movs	r2, #0
 5392 02b8 DA71     		strb	r2, [r3, #7]
 5393 02ba D7F81C32 		ldr	r3, [r7, #540]
 5394 02be D7F84812 		ldr	r1, [r7, #584]
 5395 02c2 1846     		mov	r0, r3
 5396 02c4 FFF7FEFF 		bl	ld_clust
 5397 02c8 0246     		mov	r2, r0
 5398 02ca 07F10C03 		add	r3, r7, #12
 5399 02ce 1B68     		ldr	r3, [r3]
 5400 02d0 1A61     		str	r2, [r3, #16]
 5401 02d2 D7F84832 		ldr	r3, [r7, #584]
 5402 02d6 1F33     		adds	r3, r3, #31
 5403 02d8 1B78     		ldrb	r3, [r3]	@ zero_extendqisi2
 5404 02da 1A06     		lsls	r2, r3, #24
 5405 02dc D7F84832 		ldr	r3, [r7, #584]
 5406 02e0 1E33     		adds	r3, r3, #30
 5407 02e2 1B78     		ldrb	r3, [r3]	@ zero_extendqisi2
 5408 02e4 1B04     		lsls	r3, r3, #16
 5409 02e6 1343     		orrs	r3, r3, r2
 5410 02e8 D7F84822 		ldr	r2, [r7, #584]
 5411 02ec 1D32     		adds	r2, r2, #29
 5412 02ee 1278     		ldrb	r2, [r2]	@ zero_extendqisi2
ARM GAS  /var/folders/d2/nstgp4h54kz7g1l847x_b8wc0000gn/T//ccrhfnpm.s 			page 96


 5413 02f0 1202     		lsls	r2, r2, #8
 5414 02f2 1343     		orrs	r3, r3, r2
 5415 02f4 D7F84822 		ldr	r2, [r7, #584]
 5416 02f8 1C32     		adds	r2, r2, #28
 5417 02fa 1278     		ldrb	r2, [r2]	@ zero_extendqisi2
 5418 02fc 1A43     		orrs	r2, r2, r3
 5419 02fe 07F10C03 		add	r3, r7, #12
 5420 0302 1B68     		ldr	r3, [r3]
 5421 0304 DA60     		str	r2, [r3, #12]
 5422 0306 07F10C03 		add	r3, r7, #12
 5423 030a 1B68     		ldr	r3, [r3]
 5424 030c 0022     		movs	r2, #0
 5425 030e 9A60     		str	r2, [r3, #8]
 5426 0310 07F10C03 		add	r3, r7, #12
 5427 0314 1B68     		ldr	r3, [r3]
 5428 0316 0022     		movs	r2, #0
 5429 0318 9A61     		str	r2, [r3, #24]
 5430 031a 07F10C03 		add	r3, r7, #12
 5431 031e 1B68     		ldr	r3, [r3]
 5432 0320 0022     		movs	r2, #0
 5433 0322 5A62     		str	r2, [r3, #36]
 5434 0324 D7F81C22 		ldr	r2, [r7, #540]
 5435 0328 07F10C03 		add	r3, r7, #12
 5436 032c 1B68     		ldr	r3, [r3]
 5437 032e 1A60     		str	r2, [r3]
 5438 0330 07F10C03 		add	r3, r7, #12
 5439 0334 1B68     		ldr	r3, [r3]
 5440 0336 1B68     		ldr	r3, [r3]
 5441 0338 DA88     		ldrh	r2, [r3, #6]
 5442 033a 07F10C03 		add	r3, r7, #12
 5443 033e 1B68     		ldr	r3, [r3]
 5444 0340 9A80     		strh	r2, [r3, #4]	@ movhi
 5445              	.L450:
 5446 0342 97F84F32 		ldrb	r3, [r7, #591]	@ zero_extendqisi2
 5447              	.L462:
 5448 0346 1846     		mov	r0, r3
 5449 0348 07F51477 		add	r7, r7, #592
 5450 034c BD46     		mov	sp, r7
 5451              		@ sp needed
 5452 034e 80BD     		pop	{r7, pc}
 5453              		.size	f_open, .-f_open
 5454              		.section	.text.f_read,"ax",%progbits
 5455              		.align	1
 5456              		.global	f_read
 5457              		.syntax unified
 5458              		.thumb
 5459              		.thumb_func
 5460              		.fpu fpv4-sp-d16
 5461              		.type	f_read, %function
 5462              	f_read:
 5463              		@ args = 0, pretend = 0, frame = 48
 5464              		@ frame_needed = 1, uses_anonymous_args = 0
 5465 0000 80B5     		push	{r7, lr}
 5466 0002 8CB0     		sub	sp, sp, #48
 5467 0004 00AF     		add	r7, sp, #0
 5468 0006 F860     		str	r0, [r7, #12]
 5469 0008 B960     		str	r1, [r7, #8]
ARM GAS  /var/folders/d2/nstgp4h54kz7g1l847x_b8wc0000gn/T//ccrhfnpm.s 			page 97


 5470 000a 7A60     		str	r2, [r7, #4]
 5471 000c 3B60     		str	r3, [r7]
 5472 000e BB68     		ldr	r3, [r7, #8]
 5473 0010 3B62     		str	r3, [r7, #32]
 5474 0012 3B68     		ldr	r3, [r7]
 5475 0014 0022     		movs	r2, #0
 5476 0016 1A60     		str	r2, [r3]
 5477 0018 F868     		ldr	r0, [r7, #12]
 5478 001a FFF7FEFF 		bl	validate
 5479 001e 0346     		mov	r3, r0
 5480 0020 FB77     		strb	r3, [r7, #31]
 5481 0022 FB7F     		ldrb	r3, [r7, #31]	@ zero_extendqisi2
 5482 0024 002B     		cmp	r3, #0
 5483 0026 01D0     		beq	.L464
 5484 0028 FB7F     		ldrb	r3, [r7, #31]	@ zero_extendqisi2
 5485 002a 27E1     		b	.L465
 5486              	.L464:
 5487 002c FB68     		ldr	r3, [r7, #12]
 5488 002e DB79     		ldrb	r3, [r3, #7]	@ zero_extendqisi2
 5489 0030 002B     		cmp	r3, #0
 5490 0032 02D0     		beq	.L466
 5491 0034 FB68     		ldr	r3, [r7, #12]
 5492 0036 DB79     		ldrb	r3, [r3, #7]	@ zero_extendqisi2
 5493 0038 20E1     		b	.L465
 5494              	.L466:
 5495 003a FB68     		ldr	r3, [r7, #12]
 5496 003c 9B79     		ldrb	r3, [r3, #6]	@ zero_extendqisi2
 5497 003e 03F00103 		and	r3, r3, #1
 5498 0042 002B     		cmp	r3, #0
 5499 0044 01D1     		bne	.L467
 5500 0046 0723     		movs	r3, #7
 5501 0048 18E1     		b	.L465
 5502              	.L467:
 5503 004a FB68     		ldr	r3, [r7, #12]
 5504 004c DA68     		ldr	r2, [r3, #12]
 5505 004e FB68     		ldr	r3, [r7, #12]
 5506 0050 9B68     		ldr	r3, [r3, #8]
 5507 0052 D31A     		subs	r3, r2, r3
 5508 0054 BB61     		str	r3, [r7, #24]
 5509 0056 7A68     		ldr	r2, [r7, #4]
 5510 0058 BB69     		ldr	r3, [r7, #24]
 5511 005a 9A42     		cmp	r2, r3
 5512 005c 40F20981 		bls	.L469
 5513 0060 BB69     		ldr	r3, [r7, #24]
 5514 0062 7B60     		str	r3, [r7, #4]
 5515 0064 05E1     		b	.L469
 5516              	.L487:
 5517 0066 FB68     		ldr	r3, [r7, #12]
 5518 0068 9B68     		ldr	r3, [r3, #8]
 5519 006a C3F30803 		ubfx	r3, r3, #0, #9
 5520 006e 002B     		cmp	r3, #0
 5521 0070 40F0D280 		bne	.L470
 5522 0074 FB68     		ldr	r3, [r7, #12]
 5523 0076 9B68     		ldr	r3, [r3, #8]
 5524 0078 5B0A     		lsrs	r3, r3, #9
 5525 007a DAB2     		uxtb	r2, r3
 5526 007c FB68     		ldr	r3, [r7, #12]
ARM GAS  /var/folders/d2/nstgp4h54kz7g1l847x_b8wc0000gn/T//ccrhfnpm.s 			page 98


 5527 007e 1B68     		ldr	r3, [r3]
 5528 0080 9B78     		ldrb	r3, [r3, #2]	@ zero_extendqisi2
 5529 0082 013B     		subs	r3, r3, #1
 5530 0084 DBB2     		uxtb	r3, r3
 5531 0086 1340     		ands	r3, r3, r2
 5532 0088 FB75     		strb	r3, [r7, #23]
 5533 008a FB7D     		ldrb	r3, [r7, #23]	@ zero_extendqisi2
 5534 008c 002B     		cmp	r3, #0
 5535 008e 30D1     		bne	.L471
 5536 0090 FB68     		ldr	r3, [r7, #12]
 5537 0092 9B68     		ldr	r3, [r3, #8]
 5538 0094 002B     		cmp	r3, #0
 5539 0096 03D1     		bne	.L472
 5540 0098 FB68     		ldr	r3, [r7, #12]
 5541 009a 1B69     		ldr	r3, [r3, #16]
 5542 009c FB62     		str	r3, [r7, #44]
 5543 009e 14E0     		b	.L473
 5544              	.L472:
 5545 00a0 FB68     		ldr	r3, [r7, #12]
 5546 00a2 5B6A     		ldr	r3, [r3, #36]
 5547 00a4 002B     		cmp	r3, #0
 5548 00a6 07D0     		beq	.L474
 5549 00a8 FB68     		ldr	r3, [r7, #12]
 5550 00aa 9B68     		ldr	r3, [r3, #8]
 5551 00ac 1946     		mov	r1, r3
 5552 00ae F868     		ldr	r0, [r7, #12]
 5553 00b0 FFF7FEFF 		bl	clmt_clust
 5554 00b4 F862     		str	r0, [r7, #44]
 5555 00b6 08E0     		b	.L473
 5556              	.L474:
 5557 00b8 FB68     		ldr	r3, [r7, #12]
 5558 00ba 1A68     		ldr	r2, [r3]
 5559 00bc FB68     		ldr	r3, [r7, #12]
 5560 00be 5B69     		ldr	r3, [r3, #20]
 5561 00c0 1946     		mov	r1, r3
 5562 00c2 1046     		mov	r0, r2
 5563 00c4 FFF7FEFF 		bl	get_fat
 5564 00c8 F862     		str	r0, [r7, #44]
 5565              	.L473:
 5566 00ca FB6A     		ldr	r3, [r7, #44]
 5567 00cc 012B     		cmp	r3, #1
 5568 00ce 04D8     		bhi	.L475
 5569 00d0 FB68     		ldr	r3, [r7, #12]
 5570 00d2 0222     		movs	r2, #2
 5571 00d4 DA71     		strb	r2, [r3, #7]
 5572 00d6 0223     		movs	r3, #2
 5573 00d8 D0E0     		b	.L465
 5574              	.L475:
 5575 00da FB6A     		ldr	r3, [r7, #44]
 5576 00dc B3F1FF3F 		cmp	r3, #-1
 5577 00e0 04D1     		bne	.L476
 5578 00e2 FB68     		ldr	r3, [r7, #12]
 5579 00e4 0122     		movs	r2, #1
 5580 00e6 DA71     		strb	r2, [r3, #7]
 5581 00e8 0123     		movs	r3, #1
 5582 00ea C7E0     		b	.L465
 5583              	.L476:
ARM GAS  /var/folders/d2/nstgp4h54kz7g1l847x_b8wc0000gn/T//ccrhfnpm.s 			page 99


 5584 00ec FB68     		ldr	r3, [r7, #12]
 5585 00ee FA6A     		ldr	r2, [r7, #44]
 5586 00f0 5A61     		str	r2, [r3, #20]
 5587              	.L471:
 5588 00f2 FB68     		ldr	r3, [r7, #12]
 5589 00f4 1A68     		ldr	r2, [r3]
 5590 00f6 FB68     		ldr	r3, [r7, #12]
 5591 00f8 5B69     		ldr	r3, [r3, #20]
 5592 00fa 1946     		mov	r1, r3
 5593 00fc 1046     		mov	r0, r2
 5594 00fe FFF7FEFF 		bl	clust2sect
 5595 0102 3861     		str	r0, [r7, #16]
 5596 0104 3B69     		ldr	r3, [r7, #16]
 5597 0106 002B     		cmp	r3, #0
 5598 0108 04D1     		bne	.L477
 5599 010a FB68     		ldr	r3, [r7, #12]
 5600 010c 0222     		movs	r2, #2
 5601 010e DA71     		strb	r2, [r3, #7]
 5602 0110 0223     		movs	r3, #2
 5603 0112 B3E0     		b	.L465
 5604              	.L477:
 5605 0114 FB7D     		ldrb	r3, [r7, #23]	@ zero_extendqisi2
 5606 0116 3A69     		ldr	r2, [r7, #16]
 5607 0118 1344     		add	r3, r3, r2
 5608 011a 3B61     		str	r3, [r7, #16]
 5609 011c 7B68     		ldr	r3, [r7, #4]
 5610 011e 5B0A     		lsrs	r3, r3, #9
 5611 0120 7B62     		str	r3, [r7, #36]
 5612 0122 7B6A     		ldr	r3, [r7, #36]
 5613 0124 002B     		cmp	r3, #0
 5614 0126 3DD0     		beq	.L478
 5615 0128 FA7D     		ldrb	r2, [r7, #23]	@ zero_extendqisi2
 5616 012a 7B6A     		ldr	r3, [r7, #36]
 5617 012c 1344     		add	r3, r3, r2
 5618 012e FA68     		ldr	r2, [r7, #12]
 5619 0130 1268     		ldr	r2, [r2]
 5620 0132 9278     		ldrb	r2, [r2, #2]	@ zero_extendqisi2
 5621 0134 9342     		cmp	r3, r2
 5622 0136 06D9     		bls	.L479
 5623 0138 FB68     		ldr	r3, [r7, #12]
 5624 013a 1B68     		ldr	r3, [r3]
 5625 013c 9B78     		ldrb	r3, [r3, #2]	@ zero_extendqisi2
 5626 013e 1A46     		mov	r2, r3
 5627 0140 FB7D     		ldrb	r3, [r7, #23]	@ zero_extendqisi2
 5628 0142 D31A     		subs	r3, r2, r3
 5629 0144 7B62     		str	r3, [r7, #36]
 5630              	.L479:
 5631 0146 FB68     		ldr	r3, [r7, #12]
 5632 0148 1B68     		ldr	r3, [r3]
 5633 014a 5878     		ldrb	r0, [r3, #1]	@ zero_extendqisi2
 5634 014c 7B6A     		ldr	r3, [r7, #36]
 5635 014e 3A69     		ldr	r2, [r7, #16]
 5636 0150 396A     		ldr	r1, [r7, #32]
 5637 0152 FFF7FEFF 		bl	disk_read
 5638 0156 0346     		mov	r3, r0
 5639 0158 002B     		cmp	r3, #0
 5640 015a 04D0     		beq	.L480
ARM GAS  /var/folders/d2/nstgp4h54kz7g1l847x_b8wc0000gn/T//ccrhfnpm.s 			page 100


 5641 015c FB68     		ldr	r3, [r7, #12]
 5642 015e 0122     		movs	r2, #1
 5643 0160 DA71     		strb	r2, [r3, #7]
 5644 0162 0123     		movs	r3, #1
 5645 0164 8AE0     		b	.L465
 5646              	.L480:
 5647 0166 FB68     		ldr	r3, [r7, #12]
 5648 0168 9B79     		ldrb	r3, [r3, #6]	@ zero_extendqisi2
 5649 016a 03F04003 		and	r3, r3, #64
 5650 016e 002B     		cmp	r3, #0
 5651 0170 14D0     		beq	.L481
 5652 0172 FB68     		ldr	r3, [r7, #12]
 5653 0174 9A69     		ldr	r2, [r3, #24]
 5654 0176 3B69     		ldr	r3, [r7, #16]
 5655 0178 D31A     		subs	r3, r2, r3
 5656 017a 7A6A     		ldr	r2, [r7, #36]
 5657 017c 9A42     		cmp	r2, r3
 5658 017e 0DD9     		bls	.L481
 5659 0180 FB68     		ldr	r3, [r7, #12]
 5660 0182 9A69     		ldr	r2, [r3, #24]
 5661 0184 3B69     		ldr	r3, [r7, #16]
 5662 0186 D31A     		subs	r3, r2, r3
 5663 0188 5B02     		lsls	r3, r3, #9
 5664 018a 3A6A     		ldr	r2, [r7, #32]
 5665 018c D018     		adds	r0, r2, r3
 5666 018e FB68     		ldr	r3, [r7, #12]
 5667 0190 2833     		adds	r3, r3, #40
 5668 0192 4FF40072 		mov	r2, #512
 5669 0196 1946     		mov	r1, r3
 5670 0198 FFF7FEFF 		bl	mem_cpy
 5671              	.L481:
 5672 019c 7B6A     		ldr	r3, [r7, #36]
 5673 019e 5B02     		lsls	r3, r3, #9
 5674 01a0 BB62     		str	r3, [r7, #40]
 5675 01a2 52E0     		b	.L482
 5676              	.L478:
 5677 01a4 FB68     		ldr	r3, [r7, #12]
 5678 01a6 9B69     		ldr	r3, [r3, #24]
 5679 01a8 3A69     		ldr	r2, [r7, #16]
 5680 01aa 9A42     		cmp	r2, r3
 5681 01ac 31D0     		beq	.L483
 5682 01ae FB68     		ldr	r3, [r7, #12]
 5683 01b0 9B79     		ldrb	r3, [r3, #6]	@ zero_extendqisi2
 5684 01b2 03F04003 		and	r3, r3, #64
 5685 01b6 002B     		cmp	r3, #0
 5686 01b8 19D0     		beq	.L484
 5687 01ba FB68     		ldr	r3, [r7, #12]
 5688 01bc 1B68     		ldr	r3, [r3]
 5689 01be 5878     		ldrb	r0, [r3, #1]	@ zero_extendqisi2
 5690 01c0 FB68     		ldr	r3, [r7, #12]
 5691 01c2 03F12801 		add	r1, r3, #40
 5692 01c6 FB68     		ldr	r3, [r7, #12]
 5693 01c8 9A69     		ldr	r2, [r3, #24]
 5694 01ca 0123     		movs	r3, #1
 5695 01cc FFF7FEFF 		bl	disk_write
 5696 01d0 0346     		mov	r3, r0
 5697 01d2 002B     		cmp	r3, #0
ARM GAS  /var/folders/d2/nstgp4h54kz7g1l847x_b8wc0000gn/T//ccrhfnpm.s 			page 101


 5698 01d4 04D0     		beq	.L485
 5699 01d6 FB68     		ldr	r3, [r7, #12]
 5700 01d8 0122     		movs	r2, #1
 5701 01da DA71     		strb	r2, [r3, #7]
 5702 01dc 0123     		movs	r3, #1
 5703 01de 4DE0     		b	.L465
 5704              	.L485:
 5705 01e0 FB68     		ldr	r3, [r7, #12]
 5706 01e2 9B79     		ldrb	r3, [r3, #6]	@ zero_extendqisi2
 5707 01e4 23F04003 		bic	r3, r3, #64
 5708 01e8 DAB2     		uxtb	r2, r3
 5709 01ea FB68     		ldr	r3, [r7, #12]
 5710 01ec 9A71     		strb	r2, [r3, #6]
 5711              	.L484:
 5712 01ee FB68     		ldr	r3, [r7, #12]
 5713 01f0 1B68     		ldr	r3, [r3]
 5714 01f2 5878     		ldrb	r0, [r3, #1]	@ zero_extendqisi2
 5715 01f4 FB68     		ldr	r3, [r7, #12]
 5716 01f6 03F12801 		add	r1, r3, #40
 5717 01fa 0123     		movs	r3, #1
 5718 01fc 3A69     		ldr	r2, [r7, #16]
 5719 01fe FFF7FEFF 		bl	disk_read
 5720 0202 0346     		mov	r3, r0
 5721 0204 002B     		cmp	r3, #0
 5722 0206 04D0     		beq	.L483
 5723 0208 FB68     		ldr	r3, [r7, #12]
 5724 020a 0122     		movs	r2, #1
 5725 020c DA71     		strb	r2, [r3, #7]
 5726 020e 0123     		movs	r3, #1
 5727 0210 34E0     		b	.L465
 5728              	.L483:
 5729 0212 FB68     		ldr	r3, [r7, #12]
 5730 0214 3A69     		ldr	r2, [r7, #16]
 5731 0216 9A61     		str	r2, [r3, #24]
 5732              	.L470:
 5733 0218 FB68     		ldr	r3, [r7, #12]
 5734 021a 9B68     		ldr	r3, [r3, #8]
 5735 021c C3F30803 		ubfx	r3, r3, #0, #9
 5736 0220 C3F50073 		rsb	r3, r3, #512
 5737 0224 BB62     		str	r3, [r7, #40]
 5738 0226 BA6A     		ldr	r2, [r7, #40]
 5739 0228 7B68     		ldr	r3, [r7, #4]
 5740 022a 9A42     		cmp	r2, r3
 5741 022c 01D9     		bls	.L486
 5742 022e 7B68     		ldr	r3, [r7, #4]
 5743 0230 BB62     		str	r3, [r7, #40]
 5744              	.L486:
 5745 0232 FB68     		ldr	r3, [r7, #12]
 5746 0234 9B68     		ldr	r3, [r3, #8]
 5747 0236 C3F30803 		ubfx	r3, r3, #0, #9
 5748 023a 2833     		adds	r3, r3, #40
 5749 023c FA68     		ldr	r2, [r7, #12]
 5750 023e 1344     		add	r3, r3, r2
 5751 0240 BA6A     		ldr	r2, [r7, #40]
 5752 0242 1946     		mov	r1, r3
 5753 0244 386A     		ldr	r0, [r7, #32]
 5754 0246 FFF7FEFF 		bl	mem_cpy
ARM GAS  /var/folders/d2/nstgp4h54kz7g1l847x_b8wc0000gn/T//ccrhfnpm.s 			page 102


 5755              	.L482:
 5756 024a 3A6A     		ldr	r2, [r7, #32]
 5757 024c BB6A     		ldr	r3, [r7, #40]
 5758 024e 1344     		add	r3, r3, r2
 5759 0250 3B62     		str	r3, [r7, #32]
 5760 0252 FB68     		ldr	r3, [r7, #12]
 5761 0254 9A68     		ldr	r2, [r3, #8]
 5762 0256 BB6A     		ldr	r3, [r7, #40]
 5763 0258 1A44     		add	r2, r2, r3
 5764 025a FB68     		ldr	r3, [r7, #12]
 5765 025c 9A60     		str	r2, [r3, #8]
 5766 025e 3B68     		ldr	r3, [r7]
 5767 0260 1A68     		ldr	r2, [r3]
 5768 0262 BB6A     		ldr	r3, [r7, #40]
 5769 0264 1A44     		add	r2, r2, r3
 5770 0266 3B68     		ldr	r3, [r7]
 5771 0268 1A60     		str	r2, [r3]
 5772 026a 7A68     		ldr	r2, [r7, #4]
 5773 026c BB6A     		ldr	r3, [r7, #40]
 5774 026e D31A     		subs	r3, r2, r3
 5775 0270 7B60     		str	r3, [r7, #4]
 5776              	.L469:
 5777 0272 7B68     		ldr	r3, [r7, #4]
 5778 0274 002B     		cmp	r3, #0
 5779 0276 7FF4F6AE 		bne	.L487
 5780 027a 0023     		movs	r3, #0
 5781              	.L465:
 5782 027c 1846     		mov	r0, r3
 5783 027e 3037     		adds	r7, r7, #48
 5784 0280 BD46     		mov	sp, r7
 5785              		@ sp needed
 5786 0282 80BD     		pop	{r7, pc}
 5787              		.size	f_read, .-f_read
 5788              		.section	.text.f_write,"ax",%progbits
 5789              		.align	1
 5790              		.global	f_write
 5791              		.syntax unified
 5792              		.thumb
 5793              		.thumb_func
 5794              		.fpu fpv4-sp-d16
 5795              		.type	f_write, %function
 5796              	f_write:
 5797              		@ args = 0, pretend = 0, frame = 40
 5798              		@ frame_needed = 1, uses_anonymous_args = 0
 5799 0000 80B5     		push	{r7, lr}
 5800 0002 8AB0     		sub	sp, sp, #40
 5801 0004 00AF     		add	r7, sp, #0
 5802 0006 F860     		str	r0, [r7, #12]
 5803 0008 B960     		str	r1, [r7, #8]
 5804 000a 7A60     		str	r2, [r7, #4]
 5805 000c 3B60     		str	r3, [r7]
 5806 000e BB68     		ldr	r3, [r7, #8]
 5807 0010 BB61     		str	r3, [r7, #24]
 5808 0012 3B68     		ldr	r3, [r7]
 5809 0014 0022     		movs	r2, #0
 5810 0016 1A60     		str	r2, [r3]
 5811 0018 F868     		ldr	r0, [r7, #12]
ARM GAS  /var/folders/d2/nstgp4h54kz7g1l847x_b8wc0000gn/T//ccrhfnpm.s 			page 103


 5812 001a FFF7FEFF 		bl	validate
 5813 001e 0346     		mov	r3, r0
 5814 0020 FB75     		strb	r3, [r7, #23]
 5815 0022 FB7D     		ldrb	r3, [r7, #23]	@ zero_extendqisi2
 5816 0024 002B     		cmp	r3, #0
 5817 0026 01D0     		beq	.L489
 5818 0028 FB7D     		ldrb	r3, [r7, #23]	@ zero_extendqisi2
 5819 002a 5CE1     		b	.L490
 5820              	.L489:
 5821 002c FB68     		ldr	r3, [r7, #12]
 5822 002e DB79     		ldrb	r3, [r3, #7]	@ zero_extendqisi2
 5823 0030 002B     		cmp	r3, #0
 5824 0032 02D0     		beq	.L491
 5825 0034 FB68     		ldr	r3, [r7, #12]
 5826 0036 DB79     		ldrb	r3, [r3, #7]	@ zero_extendqisi2
 5827 0038 55E1     		b	.L490
 5828              	.L491:
 5829 003a FB68     		ldr	r3, [r7, #12]
 5830 003c 9B79     		ldrb	r3, [r3, #6]	@ zero_extendqisi2
 5831 003e 03F00203 		and	r3, r3, #2
 5832 0042 002B     		cmp	r3, #0
 5833 0044 01D1     		bne	.L492
 5834 0046 0723     		movs	r3, #7
 5835 0048 4DE1     		b	.L490
 5836              	.L492:
 5837 004a FB68     		ldr	r3, [r7, #12]
 5838 004c 9A68     		ldr	r2, [r3, #8]
 5839 004e 7B68     		ldr	r3, [r7, #4]
 5840 0050 1A44     		add	r2, r2, r3
 5841 0052 FB68     		ldr	r3, [r7, #12]
 5842 0054 9B68     		ldr	r3, [r3, #8]
 5843 0056 9A42     		cmp	r2, r3
 5844 0058 80F02D81 		bcs	.L494
 5845 005c 0023     		movs	r3, #0
 5846 005e 7B60     		str	r3, [r7, #4]
 5847 0060 29E1     		b	.L494
 5848              	.L515:
 5849 0062 FB68     		ldr	r3, [r7, #12]
 5850 0064 9B68     		ldr	r3, [r3, #8]
 5851 0066 C3F30803 		ubfx	r3, r3, #0, #9
 5852 006a 002B     		cmp	r3, #0
 5853 006c 40F0EF80 		bne	.L495
 5854 0070 FB68     		ldr	r3, [r7, #12]
 5855 0072 9B68     		ldr	r3, [r3, #8]
 5856 0074 5B0A     		lsrs	r3, r3, #9
 5857 0076 DAB2     		uxtb	r2, r3
 5858 0078 FB68     		ldr	r3, [r7, #12]
 5859 007a 1B68     		ldr	r3, [r3]
 5860 007c 9B78     		ldrb	r3, [r3, #2]	@ zero_extendqisi2
 5861 007e 013B     		subs	r3, r3, #1
 5862 0080 DBB2     		uxtb	r3, r3
 5863 0082 1340     		ands	r3, r3, r2
 5864 0084 BB75     		strb	r3, [r7, #22]
 5865 0086 BB7D     		ldrb	r3, [r7, #22]	@ zero_extendqisi2
 5866 0088 002B     		cmp	r3, #0
 5867 008a 45D1     		bne	.L496
 5868 008c FB68     		ldr	r3, [r7, #12]
ARM GAS  /var/folders/d2/nstgp4h54kz7g1l847x_b8wc0000gn/T//ccrhfnpm.s 			page 104


 5869 008e 9B68     		ldr	r3, [r3, #8]
 5870 0090 002B     		cmp	r3, #0
 5871 0092 0DD1     		bne	.L497
 5872 0094 FB68     		ldr	r3, [r7, #12]
 5873 0096 1B69     		ldr	r3, [r3, #16]
 5874 0098 7B62     		str	r3, [r7, #36]
 5875 009a 7B6A     		ldr	r3, [r7, #36]
 5876 009c 002B     		cmp	r3, #0
 5877 009e 1CD1     		bne	.L499
 5878 00a0 FB68     		ldr	r3, [r7, #12]
 5879 00a2 1B68     		ldr	r3, [r3]
 5880 00a4 0021     		movs	r1, #0
 5881 00a6 1846     		mov	r0, r3
 5882 00a8 FFF7FEFF 		bl	create_chain
 5883 00ac 7862     		str	r0, [r7, #36]
 5884 00ae 14E0     		b	.L499
 5885              	.L497:
 5886 00b0 FB68     		ldr	r3, [r7, #12]
 5887 00b2 5B6A     		ldr	r3, [r3, #36]
 5888 00b4 002B     		cmp	r3, #0
 5889 00b6 07D0     		beq	.L500
 5890 00b8 FB68     		ldr	r3, [r7, #12]
 5891 00ba 9B68     		ldr	r3, [r3, #8]
 5892 00bc 1946     		mov	r1, r3
 5893 00be F868     		ldr	r0, [r7, #12]
 5894 00c0 FFF7FEFF 		bl	clmt_clust
 5895 00c4 7862     		str	r0, [r7, #36]
 5896 00c6 08E0     		b	.L499
 5897              	.L500:
 5898 00c8 FB68     		ldr	r3, [r7, #12]
 5899 00ca 1A68     		ldr	r2, [r3]
 5900 00cc FB68     		ldr	r3, [r7, #12]
 5901 00ce 5B69     		ldr	r3, [r3, #20]
 5902 00d0 1946     		mov	r1, r3
 5903 00d2 1046     		mov	r0, r2
 5904 00d4 FFF7FEFF 		bl	create_chain
 5905 00d8 7862     		str	r0, [r7, #36]
 5906              	.L499:
 5907 00da 7B6A     		ldr	r3, [r7, #36]
 5908 00dc 002B     		cmp	r3, #0
 5909 00de 00F0EF80 		beq	.L517
 5910 00e2 7B6A     		ldr	r3, [r7, #36]
 5911 00e4 012B     		cmp	r3, #1
 5912 00e6 04D1     		bne	.L503
 5913 00e8 FB68     		ldr	r3, [r7, #12]
 5914 00ea 0222     		movs	r2, #2
 5915 00ec DA71     		strb	r2, [r3, #7]
 5916 00ee 0223     		movs	r3, #2
 5917 00f0 F9E0     		b	.L490
 5918              	.L503:
 5919 00f2 7B6A     		ldr	r3, [r7, #36]
 5920 00f4 B3F1FF3F 		cmp	r3, #-1
 5921 00f8 04D1     		bne	.L504
 5922 00fa FB68     		ldr	r3, [r7, #12]
 5923 00fc 0122     		movs	r2, #1
 5924 00fe DA71     		strb	r2, [r3, #7]
 5925 0100 0123     		movs	r3, #1
ARM GAS  /var/folders/d2/nstgp4h54kz7g1l847x_b8wc0000gn/T//ccrhfnpm.s 			page 105


 5926 0102 F0E0     		b	.L490
 5927              	.L504:
 5928 0104 FB68     		ldr	r3, [r7, #12]
 5929 0106 7A6A     		ldr	r2, [r7, #36]
 5930 0108 5A61     		str	r2, [r3, #20]
 5931 010a FB68     		ldr	r3, [r7, #12]
 5932 010c 1B69     		ldr	r3, [r3, #16]
 5933 010e 002B     		cmp	r3, #0
 5934 0110 02D1     		bne	.L496
 5935 0112 FB68     		ldr	r3, [r7, #12]
 5936 0114 7A6A     		ldr	r2, [r7, #36]
 5937 0116 1A61     		str	r2, [r3, #16]
 5938              	.L496:
 5939 0118 FB68     		ldr	r3, [r7, #12]
 5940 011a 9B79     		ldrb	r3, [r3, #6]	@ zero_extendqisi2
 5941 011c 03F04003 		and	r3, r3, #64
 5942 0120 002B     		cmp	r3, #0
 5943 0122 19D0     		beq	.L505
 5944 0124 FB68     		ldr	r3, [r7, #12]
 5945 0126 1B68     		ldr	r3, [r3]
 5946 0128 5878     		ldrb	r0, [r3, #1]	@ zero_extendqisi2
 5947 012a FB68     		ldr	r3, [r7, #12]
 5948 012c 03F12801 		add	r1, r3, #40
 5949 0130 FB68     		ldr	r3, [r7, #12]
 5950 0132 9A69     		ldr	r2, [r3, #24]
 5951 0134 0123     		movs	r3, #1
 5952 0136 FFF7FEFF 		bl	disk_write
 5953 013a 0346     		mov	r3, r0
 5954 013c 002B     		cmp	r3, #0
 5955 013e 04D0     		beq	.L506
 5956 0140 FB68     		ldr	r3, [r7, #12]
 5957 0142 0122     		movs	r2, #1
 5958 0144 DA71     		strb	r2, [r3, #7]
 5959 0146 0123     		movs	r3, #1
 5960 0148 CDE0     		b	.L490
 5961              	.L506:
 5962 014a FB68     		ldr	r3, [r7, #12]
 5963 014c 9B79     		ldrb	r3, [r3, #6]	@ zero_extendqisi2
 5964 014e 23F04003 		bic	r3, r3, #64
 5965 0152 DAB2     		uxtb	r2, r3
 5966 0154 FB68     		ldr	r3, [r7, #12]
 5967 0156 9A71     		strb	r2, [r3, #6]
 5968              	.L505:
 5969 0158 FB68     		ldr	r3, [r7, #12]
 5970 015a 1A68     		ldr	r2, [r3]
 5971 015c FB68     		ldr	r3, [r7, #12]
 5972 015e 5B69     		ldr	r3, [r3, #20]
 5973 0160 1946     		mov	r1, r3
 5974 0162 1046     		mov	r0, r2
 5975 0164 FFF7FEFF 		bl	clust2sect
 5976 0168 3861     		str	r0, [r7, #16]
 5977 016a 3B69     		ldr	r3, [r7, #16]
 5978 016c 002B     		cmp	r3, #0
 5979 016e 04D1     		bne	.L507
 5980 0170 FB68     		ldr	r3, [r7, #12]
 5981 0172 0222     		movs	r2, #2
 5982 0174 DA71     		strb	r2, [r3, #7]
ARM GAS  /var/folders/d2/nstgp4h54kz7g1l847x_b8wc0000gn/T//ccrhfnpm.s 			page 106


 5983 0176 0223     		movs	r3, #2
 5984 0178 B5E0     		b	.L490
 5985              	.L507:
 5986 017a BB7D     		ldrb	r3, [r7, #22]	@ zero_extendqisi2
 5987 017c 3A69     		ldr	r2, [r7, #16]
 5988 017e 1344     		add	r3, r3, r2
 5989 0180 3B61     		str	r3, [r7, #16]
 5990 0182 7B68     		ldr	r3, [r7, #4]
 5991 0184 5B0A     		lsrs	r3, r3, #9
 5992 0186 FB61     		str	r3, [r7, #28]
 5993 0188 FB69     		ldr	r3, [r7, #28]
 5994 018a 002B     		cmp	r3, #0
 5995 018c 3FD0     		beq	.L508
 5996 018e BA7D     		ldrb	r2, [r7, #22]	@ zero_extendqisi2
 5997 0190 FB69     		ldr	r3, [r7, #28]
 5998 0192 1344     		add	r3, r3, r2
 5999 0194 FA68     		ldr	r2, [r7, #12]
 6000 0196 1268     		ldr	r2, [r2]
 6001 0198 9278     		ldrb	r2, [r2, #2]	@ zero_extendqisi2
 6002 019a 9342     		cmp	r3, r2
 6003 019c 06D9     		bls	.L509
 6004 019e FB68     		ldr	r3, [r7, #12]
 6005 01a0 1B68     		ldr	r3, [r3]
 6006 01a2 9B78     		ldrb	r3, [r3, #2]	@ zero_extendqisi2
 6007 01a4 1A46     		mov	r2, r3
 6008 01a6 BB7D     		ldrb	r3, [r7, #22]	@ zero_extendqisi2
 6009 01a8 D31A     		subs	r3, r2, r3
 6010 01aa FB61     		str	r3, [r7, #28]
 6011              	.L509:
 6012 01ac FB68     		ldr	r3, [r7, #12]
 6013 01ae 1B68     		ldr	r3, [r3]
 6014 01b0 5878     		ldrb	r0, [r3, #1]	@ zero_extendqisi2
 6015 01b2 FB69     		ldr	r3, [r7, #28]
 6016 01b4 3A69     		ldr	r2, [r7, #16]
 6017 01b6 B969     		ldr	r1, [r7, #24]
 6018 01b8 FFF7FEFF 		bl	disk_write
 6019 01bc 0346     		mov	r3, r0
 6020 01be 002B     		cmp	r3, #0
 6021 01c0 04D0     		beq	.L510
 6022 01c2 FB68     		ldr	r3, [r7, #12]
 6023 01c4 0122     		movs	r2, #1
 6024 01c6 DA71     		strb	r2, [r3, #7]
 6025 01c8 0123     		movs	r3, #1
 6026 01ca 8CE0     		b	.L490
 6027              	.L510:
 6028 01cc FB68     		ldr	r3, [r7, #12]
 6029 01ce 9A69     		ldr	r2, [r3, #24]
 6030 01d0 3B69     		ldr	r3, [r7, #16]
 6031 01d2 D31A     		subs	r3, r2, r3
 6032 01d4 FA69     		ldr	r2, [r7, #28]
 6033 01d6 9A42     		cmp	r2, r3
 6034 01d8 15D9     		bls	.L511
 6035 01da FB68     		ldr	r3, [r7, #12]
 6036 01dc 03F12800 		add	r0, r3, #40
 6037 01e0 FB68     		ldr	r3, [r7, #12]
 6038 01e2 9A69     		ldr	r2, [r3, #24]
 6039 01e4 3B69     		ldr	r3, [r7, #16]
ARM GAS  /var/folders/d2/nstgp4h54kz7g1l847x_b8wc0000gn/T//ccrhfnpm.s 			page 107


 6040 01e6 D31A     		subs	r3, r2, r3
 6041 01e8 5B02     		lsls	r3, r3, #9
 6042 01ea BA69     		ldr	r2, [r7, #24]
 6043 01ec 1344     		add	r3, r3, r2
 6044 01ee 4FF40072 		mov	r2, #512
 6045 01f2 1946     		mov	r1, r3
 6046 01f4 FFF7FEFF 		bl	mem_cpy
 6047 01f8 FB68     		ldr	r3, [r7, #12]
 6048 01fa 9B79     		ldrb	r3, [r3, #6]	@ zero_extendqisi2
 6049 01fc 23F04003 		bic	r3, r3, #64
 6050 0200 DAB2     		uxtb	r2, r3
 6051 0202 FB68     		ldr	r3, [r7, #12]
 6052 0204 9A71     		strb	r2, [r3, #6]
 6053              	.L511:
 6054 0206 FB69     		ldr	r3, [r7, #28]
 6055 0208 5B02     		lsls	r3, r3, #9
 6056 020a 3B62     		str	r3, [r7, #32]
 6057 020c 3FE0     		b	.L512
 6058              	.L508:
 6059 020e FB68     		ldr	r3, [r7, #12]
 6060 0210 9B69     		ldr	r3, [r3, #24]
 6061 0212 3A69     		ldr	r2, [r7, #16]
 6062 0214 9A42     		cmp	r2, r3
 6063 0216 17D0     		beq	.L513
 6064 0218 FB68     		ldr	r3, [r7, #12]
 6065 021a 9A68     		ldr	r2, [r3, #8]
 6066 021c FB68     		ldr	r3, [r7, #12]
 6067 021e DB68     		ldr	r3, [r3, #12]
 6068 0220 9A42     		cmp	r2, r3
 6069 0222 11D2     		bcs	.L513
 6070 0224 FB68     		ldr	r3, [r7, #12]
 6071 0226 1B68     		ldr	r3, [r3]
 6072 0228 5878     		ldrb	r0, [r3, #1]	@ zero_extendqisi2
 6073 022a FB68     		ldr	r3, [r7, #12]
 6074 022c 03F12801 		add	r1, r3, #40
 6075 0230 0123     		movs	r3, #1
 6076 0232 3A69     		ldr	r2, [r7, #16]
 6077 0234 FFF7FEFF 		bl	disk_read
 6078 0238 0346     		mov	r3, r0
 6079 023a 002B     		cmp	r3, #0
 6080 023c 04D0     		beq	.L513
 6081 023e FB68     		ldr	r3, [r7, #12]
 6082 0240 0122     		movs	r2, #1
 6083 0242 DA71     		strb	r2, [r3, #7]
 6084 0244 0123     		movs	r3, #1
 6085 0246 4EE0     		b	.L490
 6086              	.L513:
 6087 0248 FB68     		ldr	r3, [r7, #12]
 6088 024a 3A69     		ldr	r2, [r7, #16]
 6089 024c 9A61     		str	r2, [r3, #24]
 6090              	.L495:
 6091 024e FB68     		ldr	r3, [r7, #12]
 6092 0250 9B68     		ldr	r3, [r3, #8]
 6093 0252 C3F30803 		ubfx	r3, r3, #0, #9
 6094 0256 C3F50073 		rsb	r3, r3, #512
 6095 025a 3B62     		str	r3, [r7, #32]
 6096 025c 3A6A     		ldr	r2, [r7, #32]
ARM GAS  /var/folders/d2/nstgp4h54kz7g1l847x_b8wc0000gn/T//ccrhfnpm.s 			page 108


 6097 025e 7B68     		ldr	r3, [r7, #4]
 6098 0260 9A42     		cmp	r2, r3
 6099 0262 01D9     		bls	.L514
 6100 0264 7B68     		ldr	r3, [r7, #4]
 6101 0266 3B62     		str	r3, [r7, #32]
 6102              	.L514:
 6103 0268 FB68     		ldr	r3, [r7, #12]
 6104 026a 9B68     		ldr	r3, [r3, #8]
 6105 026c C3F30803 		ubfx	r3, r3, #0, #9
 6106 0270 2833     		adds	r3, r3, #40
 6107 0272 FA68     		ldr	r2, [r7, #12]
 6108 0274 1344     		add	r3, r3, r2
 6109 0276 3A6A     		ldr	r2, [r7, #32]
 6110 0278 B969     		ldr	r1, [r7, #24]
 6111 027a 1846     		mov	r0, r3
 6112 027c FFF7FEFF 		bl	mem_cpy
 6113 0280 FB68     		ldr	r3, [r7, #12]
 6114 0282 9B79     		ldrb	r3, [r3, #6]	@ zero_extendqisi2
 6115 0284 43F04003 		orr	r3, r3, #64
 6116 0288 DAB2     		uxtb	r2, r3
 6117 028a FB68     		ldr	r3, [r7, #12]
 6118 028c 9A71     		strb	r2, [r3, #6]
 6119              	.L512:
 6120 028e BA69     		ldr	r2, [r7, #24]
 6121 0290 3B6A     		ldr	r3, [r7, #32]
 6122 0292 1344     		add	r3, r3, r2
 6123 0294 BB61     		str	r3, [r7, #24]
 6124 0296 FB68     		ldr	r3, [r7, #12]
 6125 0298 9A68     		ldr	r2, [r3, #8]
 6126 029a 3B6A     		ldr	r3, [r7, #32]
 6127 029c 1A44     		add	r2, r2, r3
 6128 029e FB68     		ldr	r3, [r7, #12]
 6129 02a0 9A60     		str	r2, [r3, #8]
 6130 02a2 3B68     		ldr	r3, [r7]
 6131 02a4 1A68     		ldr	r2, [r3]
 6132 02a6 3B6A     		ldr	r3, [r7, #32]
 6133 02a8 1A44     		add	r2, r2, r3
 6134 02aa 3B68     		ldr	r3, [r7]
 6135 02ac 1A60     		str	r2, [r3]
 6136 02ae 7A68     		ldr	r2, [r7, #4]
 6137 02b0 3B6A     		ldr	r3, [r7, #32]
 6138 02b2 D31A     		subs	r3, r2, r3
 6139 02b4 7B60     		str	r3, [r7, #4]
 6140              	.L494:
 6141 02b6 7B68     		ldr	r3, [r7, #4]
 6142 02b8 002B     		cmp	r3, #0
 6143 02ba 7FF4D2AE 		bne	.L515
 6144 02be 00E0     		b	.L502
 6145              	.L517:
 6146 02c0 00BF     		nop
 6147              	.L502:
 6148 02c2 FB68     		ldr	r3, [r7, #12]
 6149 02c4 9A68     		ldr	r2, [r3, #8]
 6150 02c6 FB68     		ldr	r3, [r7, #12]
 6151 02c8 DB68     		ldr	r3, [r3, #12]
 6152 02ca 9A42     		cmp	r2, r3
 6153 02cc 03D9     		bls	.L516
ARM GAS  /var/folders/d2/nstgp4h54kz7g1l847x_b8wc0000gn/T//ccrhfnpm.s 			page 109


 6154 02ce FB68     		ldr	r3, [r7, #12]
 6155 02d0 9A68     		ldr	r2, [r3, #8]
 6156 02d2 FB68     		ldr	r3, [r7, #12]
 6157 02d4 DA60     		str	r2, [r3, #12]
 6158              	.L516:
 6159 02d6 FB68     		ldr	r3, [r7, #12]
 6160 02d8 9B79     		ldrb	r3, [r3, #6]	@ zero_extendqisi2
 6161 02da 43F02003 		orr	r3, r3, #32
 6162 02de DAB2     		uxtb	r2, r3
 6163 02e0 FB68     		ldr	r3, [r7, #12]
 6164 02e2 9A71     		strb	r2, [r3, #6]
 6165 02e4 0023     		movs	r3, #0
 6166              	.L490:
 6167 02e6 1846     		mov	r0, r3
 6168 02e8 2837     		adds	r7, r7, #40
 6169 02ea BD46     		mov	sp, r7
 6170              		@ sp needed
 6171 02ec 80BD     		pop	{r7, pc}
 6172              		.size	f_write, .-f_write
 6173              		.section	.text.f_sync,"ax",%progbits
 6174              		.align	1
 6175              		.global	f_sync
 6176              		.syntax unified
 6177              		.thumb
 6178              		.thumb_func
 6179              		.fpu fpv4-sp-d16
 6180              		.type	f_sync, %function
 6181              	f_sync:
 6182              		@ args = 0, pretend = 0, frame = 24
 6183              		@ frame_needed = 1, uses_anonymous_args = 0
 6184 0000 80B5     		push	{r7, lr}
 6185 0002 86B0     		sub	sp, sp, #24
 6186 0004 00AF     		add	r7, sp, #0
 6187 0006 7860     		str	r0, [r7, #4]
 6188 0008 7868     		ldr	r0, [r7, #4]
 6189 000a FFF7FEFF 		bl	validate
 6190 000e 0346     		mov	r3, r0
 6191 0010 FB75     		strb	r3, [r7, #23]
 6192 0012 FB7D     		ldrb	r3, [r7, #23]	@ zero_extendqisi2
 6193 0014 002B     		cmp	r3, #0
 6194 0016 40F09680 		bne	.L519
 6195 001a 7B68     		ldr	r3, [r7, #4]
 6196 001c 9B79     		ldrb	r3, [r3, #6]	@ zero_extendqisi2
 6197 001e 03F02003 		and	r3, r3, #32
 6198 0022 002B     		cmp	r3, #0
 6199 0024 00F08F80 		beq	.L519
 6200 0028 7B68     		ldr	r3, [r7, #4]
 6201 002a 9B79     		ldrb	r3, [r3, #6]	@ zero_extendqisi2
 6202 002c 03F04003 		and	r3, r3, #64
 6203 0030 002B     		cmp	r3, #0
 6204 0032 16D0     		beq	.L520
 6205 0034 7B68     		ldr	r3, [r7, #4]
 6206 0036 1B68     		ldr	r3, [r3]
 6207 0038 5878     		ldrb	r0, [r3, #1]	@ zero_extendqisi2
 6208 003a 7B68     		ldr	r3, [r7, #4]
 6209 003c 03F12801 		add	r1, r3, #40
 6210 0040 7B68     		ldr	r3, [r7, #4]
ARM GAS  /var/folders/d2/nstgp4h54kz7g1l847x_b8wc0000gn/T//ccrhfnpm.s 			page 110


 6211 0042 9A69     		ldr	r2, [r3, #24]
 6212 0044 0123     		movs	r3, #1
 6213 0046 FFF7FEFF 		bl	disk_write
 6214 004a 0346     		mov	r3, r0
 6215 004c 002B     		cmp	r3, #0
 6216 004e 01D0     		beq	.L521
 6217 0050 0123     		movs	r3, #1
 6218 0052 79E0     		b	.L522
 6219              	.L521:
 6220 0054 7B68     		ldr	r3, [r7, #4]
 6221 0056 9B79     		ldrb	r3, [r3, #6]	@ zero_extendqisi2
 6222 0058 23F04003 		bic	r3, r3, #64
 6223 005c DAB2     		uxtb	r2, r3
 6224 005e 7B68     		ldr	r3, [r7, #4]
 6225 0060 9A71     		strb	r2, [r3, #6]
 6226              	.L520:
 6227 0062 7B68     		ldr	r3, [r7, #4]
 6228 0064 1A68     		ldr	r2, [r3]
 6229 0066 7B68     		ldr	r3, [r7, #4]
 6230 0068 DB69     		ldr	r3, [r3, #28]
 6231 006a 1946     		mov	r1, r3
 6232 006c 1046     		mov	r0, r2
 6233 006e FFF7FEFF 		bl	move_window
 6234 0072 0346     		mov	r3, r0
 6235 0074 FB75     		strb	r3, [r7, #23]
 6236 0076 FB7D     		ldrb	r3, [r7, #23]	@ zero_extendqisi2
 6237 0078 002B     		cmp	r3, #0
 6238 007a 64D1     		bne	.L519
 6239 007c 7B68     		ldr	r3, [r7, #4]
 6240 007e 1B6A     		ldr	r3, [r3, #32]
 6241 0080 3B61     		str	r3, [r7, #16]
 6242 0082 3B69     		ldr	r3, [r7, #16]
 6243 0084 0B33     		adds	r3, r3, #11
 6244 0086 1A78     		ldrb	r2, [r3]	@ zero_extendqisi2
 6245 0088 3B69     		ldr	r3, [r7, #16]
 6246 008a 0B33     		adds	r3, r3, #11
 6247 008c 42F02002 		orr	r2, r2, #32
 6248 0090 D2B2     		uxtb	r2, r2
 6249 0092 1A70     		strb	r2, [r3]
 6250 0094 7B68     		ldr	r3, [r7, #4]
 6251 0096 DA68     		ldr	r2, [r3, #12]
 6252 0098 3B69     		ldr	r3, [r7, #16]
 6253 009a 1C33     		adds	r3, r3, #28
 6254 009c D2B2     		uxtb	r2, r2
 6255 009e 1A70     		strb	r2, [r3]
 6256 00a0 7B68     		ldr	r3, [r7, #4]
 6257 00a2 DB68     		ldr	r3, [r3, #12]
 6258 00a4 9BB2     		uxth	r3, r3
 6259 00a6 1B0A     		lsrs	r3, r3, #8
 6260 00a8 9AB2     		uxth	r2, r3
 6261 00aa 3B69     		ldr	r3, [r7, #16]
 6262 00ac 1D33     		adds	r3, r3, #29
 6263 00ae D2B2     		uxtb	r2, r2
 6264 00b0 1A70     		strb	r2, [r3]
 6265 00b2 7B68     		ldr	r3, [r7, #4]
 6266 00b4 DB68     		ldr	r3, [r3, #12]
 6267 00b6 1A0C     		lsrs	r2, r3, #16
ARM GAS  /var/folders/d2/nstgp4h54kz7g1l847x_b8wc0000gn/T//ccrhfnpm.s 			page 111


 6268 00b8 3B69     		ldr	r3, [r7, #16]
 6269 00ba 1E33     		adds	r3, r3, #30
 6270 00bc D2B2     		uxtb	r2, r2
 6271 00be 1A70     		strb	r2, [r3]
 6272 00c0 7B68     		ldr	r3, [r7, #4]
 6273 00c2 DB68     		ldr	r3, [r3, #12]
 6274 00c4 1A0E     		lsrs	r2, r3, #24
 6275 00c6 3B69     		ldr	r3, [r7, #16]
 6276 00c8 1F33     		adds	r3, r3, #31
 6277 00ca D2B2     		uxtb	r2, r2
 6278 00cc 1A70     		strb	r2, [r3]
 6279 00ce 7B68     		ldr	r3, [r7, #4]
 6280 00d0 1B69     		ldr	r3, [r3, #16]
 6281 00d2 1946     		mov	r1, r3
 6282 00d4 3869     		ldr	r0, [r7, #16]
 6283 00d6 FFF7FEFF 		bl	st_clust
 6284 00da FFF7FEFF 		bl	get_fattime
 6285 00de F860     		str	r0, [r7, #12]
 6286 00e0 3B69     		ldr	r3, [r7, #16]
 6287 00e2 1633     		adds	r3, r3, #22
 6288 00e4 FA68     		ldr	r2, [r7, #12]
 6289 00e6 D2B2     		uxtb	r2, r2
 6290 00e8 1A70     		strb	r2, [r3]
 6291 00ea FB68     		ldr	r3, [r7, #12]
 6292 00ec 9BB2     		uxth	r3, r3
 6293 00ee 1B0A     		lsrs	r3, r3, #8
 6294 00f0 9AB2     		uxth	r2, r3
 6295 00f2 3B69     		ldr	r3, [r7, #16]
 6296 00f4 1733     		adds	r3, r3, #23
 6297 00f6 D2B2     		uxtb	r2, r2
 6298 00f8 1A70     		strb	r2, [r3]
 6299 00fa FB68     		ldr	r3, [r7, #12]
 6300 00fc 1A0C     		lsrs	r2, r3, #16
 6301 00fe 3B69     		ldr	r3, [r7, #16]
 6302 0100 1833     		adds	r3, r3, #24
 6303 0102 D2B2     		uxtb	r2, r2
 6304 0104 1A70     		strb	r2, [r3]
 6305 0106 FB68     		ldr	r3, [r7, #12]
 6306 0108 1A0E     		lsrs	r2, r3, #24
 6307 010a 3B69     		ldr	r3, [r7, #16]
 6308 010c 1933     		adds	r3, r3, #25
 6309 010e D2B2     		uxtb	r2, r2
 6310 0110 1A70     		strb	r2, [r3]
 6311 0112 3B69     		ldr	r3, [r7, #16]
 6312 0114 1233     		adds	r3, r3, #18
 6313 0116 0022     		movs	r2, #0
 6314 0118 1A70     		strb	r2, [r3]
 6315 011a 3B69     		ldr	r3, [r7, #16]
 6316 011c 1333     		adds	r3, r3, #19
 6317 011e 0022     		movs	r2, #0
 6318 0120 1A70     		strb	r2, [r3]
 6319 0122 7B68     		ldr	r3, [r7, #4]
 6320 0124 9B79     		ldrb	r3, [r3, #6]	@ zero_extendqisi2
 6321 0126 23F02003 		bic	r3, r3, #32
 6322 012a DAB2     		uxtb	r2, r3
 6323 012c 7B68     		ldr	r3, [r7, #4]
 6324 012e 9A71     		strb	r2, [r3, #6]
ARM GAS  /var/folders/d2/nstgp4h54kz7g1l847x_b8wc0000gn/T//ccrhfnpm.s 			page 112


 6325 0130 7B68     		ldr	r3, [r7, #4]
 6326 0132 1B68     		ldr	r3, [r3]
 6327 0134 0122     		movs	r2, #1
 6328 0136 1A71     		strb	r2, [r3, #4]
 6329 0138 7B68     		ldr	r3, [r7, #4]
 6330 013a 1B68     		ldr	r3, [r3]
 6331 013c 1846     		mov	r0, r3
 6332 013e FFF7FEFF 		bl	sync_fs
 6333 0142 0346     		mov	r3, r0
 6334 0144 FB75     		strb	r3, [r7, #23]
 6335              	.L519:
 6336 0146 FB7D     		ldrb	r3, [r7, #23]	@ zero_extendqisi2
 6337              	.L522:
 6338 0148 1846     		mov	r0, r3
 6339 014a 1837     		adds	r7, r7, #24
 6340 014c BD46     		mov	sp, r7
 6341              		@ sp needed
 6342 014e 80BD     		pop	{r7, pc}
 6343              		.size	f_sync, .-f_sync
 6344              		.section	.text.f_close,"ax",%progbits
 6345              		.align	1
 6346              		.global	f_close
 6347              		.syntax unified
 6348              		.thumb
 6349              		.thumb_func
 6350              		.fpu fpv4-sp-d16
 6351              		.type	f_close, %function
 6352              	f_close:
 6353              		@ args = 0, pretend = 0, frame = 16
 6354              		@ frame_needed = 1, uses_anonymous_args = 0
 6355 0000 80B5     		push	{r7, lr}
 6356 0002 84B0     		sub	sp, sp, #16
 6357 0004 00AF     		add	r7, sp, #0
 6358 0006 7860     		str	r0, [r7, #4]
 6359 0008 7868     		ldr	r0, [r7, #4]
 6360 000a FFF7FEFF 		bl	f_sync
 6361 000e 0346     		mov	r3, r0
 6362 0010 FB73     		strb	r3, [r7, #15]
 6363 0012 FB7B     		ldrb	r3, [r7, #15]	@ zero_extendqisi2
 6364 0014 002B     		cmp	r3, #0
 6365 0016 0AD1     		bne	.L524
 6366 0018 7868     		ldr	r0, [r7, #4]
 6367 001a FFF7FEFF 		bl	validate
 6368 001e 0346     		mov	r3, r0
 6369 0020 FB73     		strb	r3, [r7, #15]
 6370 0022 FB7B     		ldrb	r3, [r7, #15]	@ zero_extendqisi2
 6371 0024 002B     		cmp	r3, #0
 6372 0026 02D1     		bne	.L524
 6373 0028 7B68     		ldr	r3, [r7, #4]
 6374 002a 0022     		movs	r2, #0
 6375 002c 1A60     		str	r2, [r3]
 6376              	.L524:
 6377 002e FB7B     		ldrb	r3, [r7, #15]	@ zero_extendqisi2
 6378 0030 1846     		mov	r0, r3
 6379 0032 1037     		adds	r7, r7, #16
 6380 0034 BD46     		mov	sp, r7
 6381              		@ sp needed
ARM GAS  /var/folders/d2/nstgp4h54kz7g1l847x_b8wc0000gn/T//ccrhfnpm.s 			page 113


 6382 0036 80BD     		pop	{r7, pc}
 6383              		.size	f_close, .-f_close
 6384              		.section	.text.f_lseek,"ax",%progbits
 6385              		.align	1
 6386              		.global	f_lseek
 6387              		.syntax unified
 6388              		.thumb
 6389              		.thumb_func
 6390              		.fpu fpv4-sp-d16
 6391              		.type	f_lseek, %function
 6392              	f_lseek:
 6393              		@ args = 0, pretend = 0, frame = 64
 6394              		@ frame_needed = 1, uses_anonymous_args = 0
 6395 0000 80B5     		push	{r7, lr}
 6396 0002 90B0     		sub	sp, sp, #64
 6397 0004 00AF     		add	r7, sp, #0
 6398 0006 7860     		str	r0, [r7, #4]
 6399 0008 3960     		str	r1, [r7]
 6400 000a 7868     		ldr	r0, [r7, #4]
 6401 000c FFF7FEFF 		bl	validate
 6402 0010 0346     		mov	r3, r0
 6403 0012 87F83F30 		strb	r3, [r7, #63]
 6404 0016 97F83F30 		ldrb	r3, [r7, #63]	@ zero_extendqisi2
 6405 001a 002B     		cmp	r3, #0
 6406 001c 02D0     		beq	.L527
 6407 001e 97F83F30 		ldrb	r3, [r7, #63]	@ zero_extendqisi2
 6408 0022 FDE1     		b	.L528
 6409              	.L527:
 6410 0024 7B68     		ldr	r3, [r7, #4]
 6411 0026 DB79     		ldrb	r3, [r3, #7]	@ zero_extendqisi2
 6412 0028 002B     		cmp	r3, #0
 6413 002a 02D0     		beq	.L529
 6414 002c 7B68     		ldr	r3, [r7, #4]
 6415 002e DB79     		ldrb	r3, [r3, #7]	@ zero_extendqisi2
 6416 0030 F6E1     		b	.L528
 6417              	.L529:
 6418 0032 7B68     		ldr	r3, [r7, #4]
 6419 0034 5B6A     		ldr	r3, [r3, #36]
 6420 0036 002B     		cmp	r3, #0
 6421 0038 00F0D880 		beq	.L530
 6422 003c 3B68     		ldr	r3, [r7]
 6423 003e B3F1FF3F 		cmp	r3, #-1
 6424 0042 5CD1     		bne	.L531
 6425 0044 7B68     		ldr	r3, [r7, #4]
 6426 0046 5B6A     		ldr	r3, [r3, #36]
 6427 0048 FB62     		str	r3, [r7, #44]
 6428 004a FB6A     		ldr	r3, [r7, #44]
 6429 004c 1A1D     		adds	r2, r3, #4
 6430 004e FA62     		str	r2, [r7, #44]
 6431 0050 1B68     		ldr	r3, [r3]
 6432 0052 7B61     		str	r3, [r7, #20]
 6433 0054 0223     		movs	r3, #2
 6434 0056 3B63     		str	r3, [r7, #48]
 6435 0058 7B68     		ldr	r3, [r7, #4]
 6436 005a 1B69     		ldr	r3, [r3, #16]
 6437 005c BB63     		str	r3, [r7, #56]
 6438 005e BB6B     		ldr	r3, [r7, #56]
ARM GAS  /var/folders/d2/nstgp4h54kz7g1l847x_b8wc0000gn/T//ccrhfnpm.s 			page 114


 6439 0060 002B     		cmp	r3, #0
 6440 0062 3CD0     		beq	.L532
 6441              	.L537:
 6442 0064 BB6B     		ldr	r3, [r7, #56]
 6443 0066 3B61     		str	r3, [r7, #16]
 6444 0068 0023     		movs	r3, #0
 6445 006a 7B63     		str	r3, [r7, #52]
 6446 006c 3B6B     		ldr	r3, [r7, #48]
 6447 006e 0233     		adds	r3, r3, #2
 6448 0070 3B63     		str	r3, [r7, #48]
 6449              	.L535:
 6450 0072 BB6B     		ldr	r3, [r7, #56]
 6451 0074 FB60     		str	r3, [r7, #12]
 6452 0076 7B6B     		ldr	r3, [r7, #52]
 6453 0078 0133     		adds	r3, r3, #1
 6454 007a 7B63     		str	r3, [r7, #52]
 6455 007c 7B68     		ldr	r3, [r7, #4]
 6456 007e 1B68     		ldr	r3, [r3]
 6457 0080 B96B     		ldr	r1, [r7, #56]
 6458 0082 1846     		mov	r0, r3
 6459 0084 FFF7FEFF 		bl	get_fat
 6460 0088 B863     		str	r0, [r7, #56]
 6461 008a BB6B     		ldr	r3, [r7, #56]
 6462 008c 012B     		cmp	r3, #1
 6463 008e 04D8     		bhi	.L533
 6464 0090 7B68     		ldr	r3, [r7, #4]
 6465 0092 0222     		movs	r2, #2
 6466 0094 DA71     		strb	r2, [r3, #7]
 6467 0096 0223     		movs	r3, #2
 6468 0098 C2E1     		b	.L528
 6469              	.L533:
 6470 009a BB6B     		ldr	r3, [r7, #56]
 6471 009c B3F1FF3F 		cmp	r3, #-1
 6472 00a0 04D1     		bne	.L534
 6473 00a2 7B68     		ldr	r3, [r7, #4]
 6474 00a4 0122     		movs	r2, #1
 6475 00a6 DA71     		strb	r2, [r3, #7]
 6476 00a8 0123     		movs	r3, #1
 6477 00aa B9E1     		b	.L528
 6478              	.L534:
 6479 00ac FB68     		ldr	r3, [r7, #12]
 6480 00ae 0133     		adds	r3, r3, #1
 6481 00b0 BA6B     		ldr	r2, [r7, #56]
 6482 00b2 9A42     		cmp	r2, r3
 6483 00b4 DDD0     		beq	.L535
 6484 00b6 3A6B     		ldr	r2, [r7, #48]
 6485 00b8 7B69     		ldr	r3, [r7, #20]
 6486 00ba 9A42     		cmp	r2, r3
 6487 00bc 09D8     		bhi	.L536
 6488 00be FB6A     		ldr	r3, [r7, #44]
 6489 00c0 1A1D     		adds	r2, r3, #4
 6490 00c2 FA62     		str	r2, [r7, #44]
 6491 00c4 7A6B     		ldr	r2, [r7, #52]
 6492 00c6 1A60     		str	r2, [r3]
 6493 00c8 FB6A     		ldr	r3, [r7, #44]
 6494 00ca 1A1D     		adds	r2, r3, #4
 6495 00cc FA62     		str	r2, [r7, #44]
ARM GAS  /var/folders/d2/nstgp4h54kz7g1l847x_b8wc0000gn/T//ccrhfnpm.s 			page 115


 6496 00ce 3A69     		ldr	r2, [r7, #16]
 6497 00d0 1A60     		str	r2, [r3]
 6498              	.L536:
 6499 00d2 7B68     		ldr	r3, [r7, #4]
 6500 00d4 1B68     		ldr	r3, [r3]
 6501 00d6 5B69     		ldr	r3, [r3, #20]
 6502 00d8 BA6B     		ldr	r2, [r7, #56]
 6503 00da 9A42     		cmp	r2, r3
 6504 00dc C2D3     		bcc	.L537
 6505              	.L532:
 6506 00de 7B68     		ldr	r3, [r7, #4]
 6507 00e0 5B6A     		ldr	r3, [r3, #36]
 6508 00e2 3A6B     		ldr	r2, [r7, #48]
 6509 00e4 1A60     		str	r2, [r3]
 6510 00e6 3A6B     		ldr	r2, [r7, #48]
 6511 00e8 7B69     		ldr	r3, [r7, #20]
 6512 00ea 9A42     		cmp	r2, r3
 6513 00ec 03D8     		bhi	.L538
 6514 00ee FB6A     		ldr	r3, [r7, #44]
 6515 00f0 0022     		movs	r2, #0
 6516 00f2 1A60     		str	r2, [r3]
 6517 00f4 92E1     		b	.L546
 6518              	.L538:
 6519 00f6 1123     		movs	r3, #17
 6520 00f8 87F83F30 		strb	r3, [r7, #63]
 6521 00fc 8EE1     		b	.L546
 6522              	.L531:
 6523 00fe 7B68     		ldr	r3, [r7, #4]
 6524 0100 DB68     		ldr	r3, [r3, #12]
 6525 0102 3A68     		ldr	r2, [r7]
 6526 0104 9A42     		cmp	r2, r3
 6527 0106 02D9     		bls	.L541
 6528 0108 7B68     		ldr	r3, [r7, #4]
 6529 010a DB68     		ldr	r3, [r3, #12]
 6530 010c 3B60     		str	r3, [r7]
 6531              	.L541:
 6532 010e 7B68     		ldr	r3, [r7, #4]
 6533 0110 3A68     		ldr	r2, [r7]
 6534 0112 9A60     		str	r2, [r3, #8]
 6535 0114 3B68     		ldr	r3, [r7]
 6536 0116 002B     		cmp	r3, #0
 6537 0118 00F08081 		beq	.L546
 6538 011c 3B68     		ldr	r3, [r7]
 6539 011e 013B     		subs	r3, r3, #1
 6540 0120 1946     		mov	r1, r3
 6541 0122 7868     		ldr	r0, [r7, #4]
 6542 0124 FFF7FEFF 		bl	clmt_clust
 6543 0128 0246     		mov	r2, r0
 6544 012a 7B68     		ldr	r3, [r7, #4]
 6545 012c 5A61     		str	r2, [r3, #20]
 6546 012e 7B68     		ldr	r3, [r7, #4]
 6547 0130 1A68     		ldr	r2, [r3]
 6548 0132 7B68     		ldr	r3, [r7, #4]
 6549 0134 5B69     		ldr	r3, [r3, #20]
 6550 0136 1946     		mov	r1, r3
 6551 0138 1046     		mov	r0, r2
 6552 013a FFF7FEFF 		bl	clust2sect
ARM GAS  /var/folders/d2/nstgp4h54kz7g1l847x_b8wc0000gn/T//ccrhfnpm.s 			page 116


 6553 013e B861     		str	r0, [r7, #24]
 6554 0140 BB69     		ldr	r3, [r7, #24]
 6555 0142 002B     		cmp	r3, #0
 6556 0144 04D1     		bne	.L542
 6557 0146 7B68     		ldr	r3, [r7, #4]
 6558 0148 0222     		movs	r2, #2
 6559 014a DA71     		strb	r2, [r3, #7]
 6560 014c 0223     		movs	r3, #2
 6561 014e 67E1     		b	.L528
 6562              	.L542:
 6563 0150 3B68     		ldr	r3, [r7]
 6564 0152 013B     		subs	r3, r3, #1
 6565 0154 5B0A     		lsrs	r3, r3, #9
 6566 0156 7A68     		ldr	r2, [r7, #4]
 6567 0158 1268     		ldr	r2, [r2]
 6568 015a 9278     		ldrb	r2, [r2, #2]	@ zero_extendqisi2
 6569 015c 013A     		subs	r2, r2, #1
 6570 015e 1340     		ands	r3, r3, r2
 6571 0160 BA69     		ldr	r2, [r7, #24]
 6572 0162 1344     		add	r3, r3, r2
 6573 0164 BB61     		str	r3, [r7, #24]
 6574 0166 7B68     		ldr	r3, [r7, #4]
 6575 0168 9B68     		ldr	r3, [r3, #8]
 6576 016a C3F30803 		ubfx	r3, r3, #0, #9
 6577 016e 002B     		cmp	r3, #0
 6578 0170 00F05481 		beq	.L546
 6579 0174 7B68     		ldr	r3, [r7, #4]
 6580 0176 9B69     		ldr	r3, [r3, #24]
 6581 0178 BA69     		ldr	r2, [r7, #24]
 6582 017a 9A42     		cmp	r2, r3
 6583 017c 00F04E81 		beq	.L546
 6584 0180 7B68     		ldr	r3, [r7, #4]
 6585 0182 9B79     		ldrb	r3, [r3, #6]	@ zero_extendqisi2
 6586 0184 03F04003 		and	r3, r3, #64
 6587 0188 002B     		cmp	r3, #0
 6588 018a 19D0     		beq	.L543
 6589 018c 7B68     		ldr	r3, [r7, #4]
 6590 018e 1B68     		ldr	r3, [r3]
 6591 0190 5878     		ldrb	r0, [r3, #1]	@ zero_extendqisi2
 6592 0192 7B68     		ldr	r3, [r7, #4]
 6593 0194 03F12801 		add	r1, r3, #40
 6594 0198 7B68     		ldr	r3, [r7, #4]
 6595 019a 9A69     		ldr	r2, [r3, #24]
 6596 019c 0123     		movs	r3, #1
 6597 019e FFF7FEFF 		bl	disk_write
 6598 01a2 0346     		mov	r3, r0
 6599 01a4 002B     		cmp	r3, #0
 6600 01a6 04D0     		beq	.L544
 6601 01a8 7B68     		ldr	r3, [r7, #4]
 6602 01aa 0122     		movs	r2, #1
 6603 01ac DA71     		strb	r2, [r3, #7]
 6604 01ae 0123     		movs	r3, #1
 6605 01b0 36E1     		b	.L528
 6606              	.L544:
 6607 01b2 7B68     		ldr	r3, [r7, #4]
 6608 01b4 9B79     		ldrb	r3, [r3, #6]	@ zero_extendqisi2
 6609 01b6 23F04003 		bic	r3, r3, #64
ARM GAS  /var/folders/d2/nstgp4h54kz7g1l847x_b8wc0000gn/T//ccrhfnpm.s 			page 117


 6610 01ba DAB2     		uxtb	r2, r3
 6611 01bc 7B68     		ldr	r3, [r7, #4]
 6612 01be 9A71     		strb	r2, [r3, #6]
 6613              	.L543:
 6614 01c0 7B68     		ldr	r3, [r7, #4]
 6615 01c2 1B68     		ldr	r3, [r3]
 6616 01c4 5878     		ldrb	r0, [r3, #1]	@ zero_extendqisi2
 6617 01c6 7B68     		ldr	r3, [r7, #4]
 6618 01c8 03F12801 		add	r1, r3, #40
 6619 01cc 0123     		movs	r3, #1
 6620 01ce BA69     		ldr	r2, [r7, #24]
 6621 01d0 FFF7FEFF 		bl	disk_read
 6622 01d4 0346     		mov	r3, r0
 6623 01d6 002B     		cmp	r3, #0
 6624 01d8 04D0     		beq	.L545
 6625 01da 7B68     		ldr	r3, [r7, #4]
 6626 01dc 0122     		movs	r2, #1
 6627 01de DA71     		strb	r2, [r3, #7]
 6628 01e0 0123     		movs	r3, #1
 6629 01e2 1DE1     		b	.L528
 6630              	.L545:
 6631 01e4 7B68     		ldr	r3, [r7, #4]
 6632 01e6 BA69     		ldr	r2, [r7, #24]
 6633 01e8 9A61     		str	r2, [r3, #24]
 6634 01ea 17E1     		b	.L546
 6635              	.L530:
 6636 01ec 7B68     		ldr	r3, [r7, #4]
 6637 01ee DB68     		ldr	r3, [r3, #12]
 6638 01f0 3A68     		ldr	r2, [r7]
 6639 01f2 9A42     		cmp	r2, r3
 6640 01f4 08D9     		bls	.L547
 6641 01f6 7B68     		ldr	r3, [r7, #4]
 6642 01f8 9B79     		ldrb	r3, [r3, #6]	@ zero_extendqisi2
 6643 01fa 03F00203 		and	r3, r3, #2
 6644 01fe 002B     		cmp	r3, #0
 6645 0200 02D1     		bne	.L547
 6646 0202 7B68     		ldr	r3, [r7, #4]
 6647 0204 DB68     		ldr	r3, [r3, #12]
 6648 0206 3B60     		str	r3, [r7]
 6649              	.L547:
 6650 0208 7B68     		ldr	r3, [r7, #4]
 6651 020a 9B68     		ldr	r3, [r3, #8]
 6652 020c 3B62     		str	r3, [r7, #32]
 6653 020e 0023     		movs	r3, #0
 6654 0210 7B62     		str	r3, [r7, #36]
 6655 0212 7B68     		ldr	r3, [r7, #4]
 6656 0214 7A6A     		ldr	r2, [r7, #36]
 6657 0216 9A60     		str	r2, [r3, #8]
 6658 0218 3B68     		ldr	r3, [r7]
 6659 021a 002B     		cmp	r3, #0
 6660 021c 00F0AD80 		beq	.L548
 6661 0220 7B68     		ldr	r3, [r7, #4]
 6662 0222 1B68     		ldr	r3, [r3]
 6663 0224 9B78     		ldrb	r3, [r3, #2]	@ zero_extendqisi2
 6664 0226 5B02     		lsls	r3, r3, #9
 6665 0228 FB61     		str	r3, [r7, #28]
 6666 022a 3B6A     		ldr	r3, [r7, #32]
ARM GAS  /var/folders/d2/nstgp4h54kz7g1l847x_b8wc0000gn/T//ccrhfnpm.s 			page 118


 6667 022c 002B     		cmp	r3, #0
 6668 022e 1BD0     		beq	.L549
 6669 0230 3B68     		ldr	r3, [r7]
 6670 0232 5A1E     		subs	r2, r3, #1
 6671 0234 FB69     		ldr	r3, [r7, #28]
 6672 0236 B2FBF3F2 		udiv	r2, r2, r3
 6673 023a 3B6A     		ldr	r3, [r7, #32]
 6674 023c 591E     		subs	r1, r3, #1
 6675 023e FB69     		ldr	r3, [r7, #28]
 6676 0240 B1FBF3F3 		udiv	r3, r1, r3
 6677 0244 9A42     		cmp	r2, r3
 6678 0246 0FD3     		bcc	.L549
 6679 0248 3B6A     		ldr	r3, [r7, #32]
 6680 024a 5A1E     		subs	r2, r3, #1
 6681 024c FB69     		ldr	r3, [r7, #28]
 6682 024e 5B42     		negs	r3, r3
 6683 0250 1A40     		ands	r2, r2, r3
 6684 0252 7B68     		ldr	r3, [r7, #4]
 6685 0254 9A60     		str	r2, [r3, #8]
 6686 0256 7B68     		ldr	r3, [r7, #4]
 6687 0258 9B68     		ldr	r3, [r3, #8]
 6688 025a 3A68     		ldr	r2, [r7]
 6689 025c D31A     		subs	r3, r2, r3
 6690 025e 3B60     		str	r3, [r7]
 6691 0260 7B68     		ldr	r3, [r7, #4]
 6692 0262 5B69     		ldr	r3, [r3, #20]
 6693 0264 BB62     		str	r3, [r7, #40]
 6694 0266 23E0     		b	.L550
 6695              	.L549:
 6696 0268 7B68     		ldr	r3, [r7, #4]
 6697 026a 1B69     		ldr	r3, [r3, #16]
 6698 026c BB62     		str	r3, [r7, #40]
 6699 026e BB6A     		ldr	r3, [r7, #40]
 6700 0270 002B     		cmp	r3, #0
 6701 0272 1AD1     		bne	.L551
 6702 0274 7B68     		ldr	r3, [r7, #4]
 6703 0276 1B68     		ldr	r3, [r3]
 6704 0278 0021     		movs	r1, #0
 6705 027a 1846     		mov	r0, r3
 6706 027c FFF7FEFF 		bl	create_chain
 6707 0280 B862     		str	r0, [r7, #40]
 6708 0282 BB6A     		ldr	r3, [r7, #40]
 6709 0284 012B     		cmp	r3, #1
 6710 0286 04D1     		bne	.L552
 6711 0288 7B68     		ldr	r3, [r7, #4]
 6712 028a 0222     		movs	r2, #2
 6713 028c DA71     		strb	r2, [r3, #7]
 6714 028e 0223     		movs	r3, #2
 6715 0290 C6E0     		b	.L528
 6716              	.L552:
 6717 0292 BB6A     		ldr	r3, [r7, #40]
 6718 0294 B3F1FF3F 		cmp	r3, #-1
 6719 0298 04D1     		bne	.L553
 6720 029a 7B68     		ldr	r3, [r7, #4]
 6721 029c 0122     		movs	r2, #1
 6722 029e DA71     		strb	r2, [r3, #7]
 6723 02a0 0123     		movs	r3, #1
ARM GAS  /var/folders/d2/nstgp4h54kz7g1l847x_b8wc0000gn/T//ccrhfnpm.s 			page 119


 6724 02a2 BDE0     		b	.L528
 6725              	.L553:
 6726 02a4 7B68     		ldr	r3, [r7, #4]
 6727 02a6 BA6A     		ldr	r2, [r7, #40]
 6728 02a8 1A61     		str	r2, [r3, #16]
 6729              	.L551:
 6730 02aa 7B68     		ldr	r3, [r7, #4]
 6731 02ac BA6A     		ldr	r2, [r7, #40]
 6732 02ae 5A61     		str	r2, [r3, #20]
 6733              	.L550:
 6734 02b0 BB6A     		ldr	r3, [r7, #40]
 6735 02b2 002B     		cmp	r3, #0
 6736 02b4 61D0     		beq	.L548
 6737 02b6 3DE0     		b	.L554
 6738              	.L561:
 6739 02b8 7B68     		ldr	r3, [r7, #4]
 6740 02ba 9B79     		ldrb	r3, [r3, #6]	@ zero_extendqisi2
 6741 02bc 03F00203 		and	r3, r3, #2
 6742 02c0 002B     		cmp	r3, #0
 6743 02c2 0CD0     		beq	.L555
 6744 02c4 7B68     		ldr	r3, [r7, #4]
 6745 02c6 1B68     		ldr	r3, [r3]
 6746 02c8 B96A     		ldr	r1, [r7, #40]
 6747 02ca 1846     		mov	r0, r3
 6748 02cc FFF7FEFF 		bl	create_chain
 6749 02d0 B862     		str	r0, [r7, #40]
 6750 02d2 BB6A     		ldr	r3, [r7, #40]
 6751 02d4 002B     		cmp	r3, #0
 6752 02d6 09D1     		bne	.L556
 6753 02d8 FB69     		ldr	r3, [r7, #28]
 6754 02da 3B60     		str	r3, [r7]
 6755 02dc 2EE0     		b	.L557
 6756              	.L555:
 6757 02de 7B68     		ldr	r3, [r7, #4]
 6758 02e0 1B68     		ldr	r3, [r3]
 6759 02e2 B96A     		ldr	r1, [r7, #40]
 6760 02e4 1846     		mov	r0, r3
 6761 02e6 FFF7FEFF 		bl	get_fat
 6762 02ea B862     		str	r0, [r7, #40]
 6763              	.L556:
 6764 02ec BB6A     		ldr	r3, [r7, #40]
 6765 02ee B3F1FF3F 		cmp	r3, #-1
 6766 02f2 04D1     		bne	.L558
 6767 02f4 7B68     		ldr	r3, [r7, #4]
 6768 02f6 0122     		movs	r2, #1
 6769 02f8 DA71     		strb	r2, [r3, #7]
 6770 02fa 0123     		movs	r3, #1
 6771 02fc 90E0     		b	.L528
 6772              	.L558:
 6773 02fe BB6A     		ldr	r3, [r7, #40]
 6774 0300 012B     		cmp	r3, #1
 6775 0302 05D9     		bls	.L559
 6776 0304 7B68     		ldr	r3, [r7, #4]
 6777 0306 1B68     		ldr	r3, [r3]
 6778 0308 5B69     		ldr	r3, [r3, #20]
 6779 030a BA6A     		ldr	r2, [r7, #40]
 6780 030c 9A42     		cmp	r2, r3
ARM GAS  /var/folders/d2/nstgp4h54kz7g1l847x_b8wc0000gn/T//ccrhfnpm.s 			page 120


 6781 030e 04D3     		bcc	.L560
 6782              	.L559:
 6783 0310 7B68     		ldr	r3, [r7, #4]
 6784 0312 0222     		movs	r2, #2
 6785 0314 DA71     		strb	r2, [r3, #7]
 6786 0316 0223     		movs	r3, #2
 6787 0318 82E0     		b	.L528
 6788              	.L560:
 6789 031a 7B68     		ldr	r3, [r7, #4]
 6790 031c BA6A     		ldr	r2, [r7, #40]
 6791 031e 5A61     		str	r2, [r3, #20]
 6792 0320 7B68     		ldr	r3, [r7, #4]
 6793 0322 9A68     		ldr	r2, [r3, #8]
 6794 0324 FB69     		ldr	r3, [r7, #28]
 6795 0326 1A44     		add	r2, r2, r3
 6796 0328 7B68     		ldr	r3, [r7, #4]
 6797 032a 9A60     		str	r2, [r3, #8]
 6798 032c 3A68     		ldr	r2, [r7]
 6799 032e FB69     		ldr	r3, [r7, #28]
 6800 0330 D31A     		subs	r3, r2, r3
 6801 0332 3B60     		str	r3, [r7]
 6802              	.L554:
 6803 0334 3A68     		ldr	r2, [r7]
 6804 0336 FB69     		ldr	r3, [r7, #28]
 6805 0338 9A42     		cmp	r2, r3
 6806 033a BDD8     		bhi	.L561
 6807              	.L557:
 6808 033c 7B68     		ldr	r3, [r7, #4]
 6809 033e 9A68     		ldr	r2, [r3, #8]
 6810 0340 3B68     		ldr	r3, [r7]
 6811 0342 1A44     		add	r2, r2, r3
 6812 0344 7B68     		ldr	r3, [r7, #4]
 6813 0346 9A60     		str	r2, [r3, #8]
 6814 0348 3B68     		ldr	r3, [r7]
 6815 034a C3F30803 		ubfx	r3, r3, #0, #9
 6816 034e 002B     		cmp	r3, #0
 6817 0350 13D0     		beq	.L548
 6818 0352 7B68     		ldr	r3, [r7, #4]
 6819 0354 1B68     		ldr	r3, [r3]
 6820 0356 B96A     		ldr	r1, [r7, #40]
 6821 0358 1846     		mov	r0, r3
 6822 035a FFF7FEFF 		bl	clust2sect
 6823 035e 7862     		str	r0, [r7, #36]
 6824 0360 7B6A     		ldr	r3, [r7, #36]
 6825 0362 002B     		cmp	r3, #0
 6826 0364 04D1     		bne	.L562
 6827 0366 7B68     		ldr	r3, [r7, #4]
 6828 0368 0222     		movs	r2, #2
 6829 036a DA71     		strb	r2, [r3, #7]
 6830 036c 0223     		movs	r3, #2
 6831 036e 57E0     		b	.L528
 6832              	.L562:
 6833 0370 3B68     		ldr	r3, [r7]
 6834 0372 5B0A     		lsrs	r3, r3, #9
 6835 0374 7A6A     		ldr	r2, [r7, #36]
 6836 0376 1344     		add	r3, r3, r2
 6837 0378 7B62     		str	r3, [r7, #36]
ARM GAS  /var/folders/d2/nstgp4h54kz7g1l847x_b8wc0000gn/T//ccrhfnpm.s 			page 121


 6838              	.L548:
 6839 037a 7B68     		ldr	r3, [r7, #4]
 6840 037c 9B68     		ldr	r3, [r3, #8]
 6841 037e C3F30803 		ubfx	r3, r3, #0, #9
 6842 0382 002B     		cmp	r3, #0
 6843 0384 39D0     		beq	.L563
 6844 0386 7B68     		ldr	r3, [r7, #4]
 6845 0388 9B69     		ldr	r3, [r3, #24]
 6846 038a 7A6A     		ldr	r2, [r7, #36]
 6847 038c 9A42     		cmp	r2, r3
 6848 038e 34D0     		beq	.L563
 6849 0390 7B68     		ldr	r3, [r7, #4]
 6850 0392 9B79     		ldrb	r3, [r3, #6]	@ zero_extendqisi2
 6851 0394 03F04003 		and	r3, r3, #64
 6852 0398 002B     		cmp	r3, #0
 6853 039a 19D0     		beq	.L564
 6854 039c 7B68     		ldr	r3, [r7, #4]
 6855 039e 1B68     		ldr	r3, [r3]
 6856 03a0 5878     		ldrb	r0, [r3, #1]	@ zero_extendqisi2
 6857 03a2 7B68     		ldr	r3, [r7, #4]
 6858 03a4 03F12801 		add	r1, r3, #40
 6859 03a8 7B68     		ldr	r3, [r7, #4]
 6860 03aa 9A69     		ldr	r2, [r3, #24]
 6861 03ac 0123     		movs	r3, #1
 6862 03ae FFF7FEFF 		bl	disk_write
 6863 03b2 0346     		mov	r3, r0
 6864 03b4 002B     		cmp	r3, #0
 6865 03b6 04D0     		beq	.L565
 6866 03b8 7B68     		ldr	r3, [r7, #4]
 6867 03ba 0122     		movs	r2, #1
 6868 03bc DA71     		strb	r2, [r3, #7]
 6869 03be 0123     		movs	r3, #1
 6870 03c0 2EE0     		b	.L528
 6871              	.L565:
 6872 03c2 7B68     		ldr	r3, [r7, #4]
 6873 03c4 9B79     		ldrb	r3, [r3, #6]	@ zero_extendqisi2
 6874 03c6 23F04003 		bic	r3, r3, #64
 6875 03ca DAB2     		uxtb	r2, r3
 6876 03cc 7B68     		ldr	r3, [r7, #4]
 6877 03ce 9A71     		strb	r2, [r3, #6]
 6878              	.L564:
 6879 03d0 7B68     		ldr	r3, [r7, #4]
 6880 03d2 1B68     		ldr	r3, [r3]
 6881 03d4 5878     		ldrb	r0, [r3, #1]	@ zero_extendqisi2
 6882 03d6 7B68     		ldr	r3, [r7, #4]
 6883 03d8 03F12801 		add	r1, r3, #40
 6884 03dc 0123     		movs	r3, #1
 6885 03de 7A6A     		ldr	r2, [r7, #36]
 6886 03e0 FFF7FEFF 		bl	disk_read
 6887 03e4 0346     		mov	r3, r0
 6888 03e6 002B     		cmp	r3, #0
 6889 03e8 04D0     		beq	.L566
 6890 03ea 7B68     		ldr	r3, [r7, #4]
 6891 03ec 0122     		movs	r2, #1
 6892 03ee DA71     		strb	r2, [r3, #7]
 6893 03f0 0123     		movs	r3, #1
 6894 03f2 15E0     		b	.L528
ARM GAS  /var/folders/d2/nstgp4h54kz7g1l847x_b8wc0000gn/T//ccrhfnpm.s 			page 122


 6895              	.L566:
 6896 03f4 7B68     		ldr	r3, [r7, #4]
 6897 03f6 7A6A     		ldr	r2, [r7, #36]
 6898 03f8 9A61     		str	r2, [r3, #24]
 6899              	.L563:
 6900 03fa 7B68     		ldr	r3, [r7, #4]
 6901 03fc 9A68     		ldr	r2, [r3, #8]
 6902 03fe 7B68     		ldr	r3, [r7, #4]
 6903 0400 DB68     		ldr	r3, [r3, #12]
 6904 0402 9A42     		cmp	r2, r3
 6905 0404 0AD9     		bls	.L546
 6906 0406 7B68     		ldr	r3, [r7, #4]
 6907 0408 9A68     		ldr	r2, [r3, #8]
 6908 040a 7B68     		ldr	r3, [r7, #4]
 6909 040c DA60     		str	r2, [r3, #12]
 6910 040e 7B68     		ldr	r3, [r7, #4]
 6911 0410 9B79     		ldrb	r3, [r3, #6]	@ zero_extendqisi2
 6912 0412 43F02003 		orr	r3, r3, #32
 6913 0416 DAB2     		uxtb	r2, r3
 6914 0418 7B68     		ldr	r3, [r7, #4]
 6915 041a 9A71     		strb	r2, [r3, #6]
 6916              	.L546:
 6917 041c 97F83F30 		ldrb	r3, [r7, #63]	@ zero_extendqisi2
 6918              	.L528:
 6919 0420 1846     		mov	r0, r3
 6920 0422 4037     		adds	r7, r7, #64
 6921 0424 BD46     		mov	sp, r7
 6922              		@ sp needed
 6923 0426 80BD     		pop	{r7, pc}
 6924              		.size	f_lseek, .-f_lseek
 6925              		.section	.text.f_opendir,"ax",%progbits
 6926              		.align	1
 6927              		.global	f_opendir
 6928              		.syntax unified
 6929              		.thumb
 6930              		.thumb_func
 6931              		.fpu fpv4-sp-d16
 6932              		.type	f_opendir, %function
 6933              	f_opendir:
 6934              		@ args = 0, pretend = 0, frame = 544
 6935              		@ frame_needed = 1, uses_anonymous_args = 0
 6936 0000 80B5     		push	{r7, lr}
 6937 0002 ADF5087D 		sub	sp, sp, #544
 6938 0006 00AF     		add	r7, sp, #0
 6939 0008 3B1D     		adds	r3, r7, #4
 6940 000a 1860     		str	r0, [r3]
 6941 000c 3B46     		mov	r3, r7
 6942 000e 1960     		str	r1, [r3]
 6943 0010 3B1D     		adds	r3, r7, #4
 6944 0012 1B68     		ldr	r3, [r3]
 6945 0014 002B     		cmp	r3, #0
 6946 0016 01D1     		bne	.L568
 6947 0018 0923     		movs	r3, #9
 6948 001a 6CE0     		b	.L575
 6949              	.L568:
 6950 001c 3946     		mov	r1, r7
 6951 001e 07F50673 		add	r3, r7, #536
ARM GAS  /var/folders/d2/nstgp4h54kz7g1l847x_b8wc0000gn/T//ccrhfnpm.s 			page 123


 6952 0022 0022     		movs	r2, #0
 6953 0024 1846     		mov	r0, r3
 6954 0026 FFF7FEFF 		bl	find_volume
 6955 002a 0346     		mov	r3, r0
 6956 002c 87F81F32 		strb	r3, [r7, #543]
 6957 0030 97F81F32 		ldrb	r3, [r7, #543]	@ zero_extendqisi2
 6958 0034 002B     		cmp	r3, #0
 6959 0036 54D1     		bne	.L570
 6960 0038 D7F81822 		ldr	r2, [r7, #536]
 6961 003c 3B1D     		adds	r3, r7, #4
 6962 003e 1B68     		ldr	r3, [r3]
 6963 0040 1A60     		str	r2, [r3]
 6964 0042 3B1D     		adds	r3, r7, #4
 6965 0044 1B68     		ldr	r3, [r3]
 6966 0046 07F50372 		add	r2, r7, #524
 6967 004a 9A61     		str	r2, [r3, #24]
 6968 004c 3B1D     		adds	r3, r7, #4
 6969 004e 1B68     		ldr	r3, [r3]
 6970 0050 07F10C02 		add	r2, r7, #12
 6971 0054 DA61     		str	r2, [r3, #28]
 6972 0056 3B46     		mov	r3, r7
 6973 0058 1A68     		ldr	r2, [r3]
 6974 005a 3B1D     		adds	r3, r7, #4
 6975 005c 1146     		mov	r1, r2
 6976 005e 1868     		ldr	r0, [r3]
 6977 0060 FFF7FEFF 		bl	follow_path
 6978 0064 0346     		mov	r3, r0
 6979 0066 87F81F32 		strb	r3, [r7, #543]
 6980 006a 97F81F32 		ldrb	r3, [r7, #543]	@ zero_extendqisi2
 6981 006e 002B     		cmp	r3, #0
 6982 0070 30D1     		bne	.L571
 6983 0072 3B1D     		adds	r3, r7, #4
 6984 0074 1B68     		ldr	r3, [r3]
 6985 0076 5B69     		ldr	r3, [r3, #20]
 6986 0078 002B     		cmp	r3, #0
 6987 007a 19D0     		beq	.L572
 6988 007c 3B1D     		adds	r3, r7, #4
 6989 007e 1B68     		ldr	r3, [r3]
 6990 0080 5B69     		ldr	r3, [r3, #20]
 6991 0082 0B33     		adds	r3, r3, #11
 6992 0084 1B78     		ldrb	r3, [r3]	@ zero_extendqisi2
 6993 0086 03F01003 		and	r3, r3, #16
 6994 008a 002B     		cmp	r3, #0
 6995 008c 0DD0     		beq	.L573
 6996 008e D7F81822 		ldr	r2, [r7, #536]
 6997 0092 3B1D     		adds	r3, r7, #4
 6998 0094 1B68     		ldr	r3, [r3]
 6999 0096 5B69     		ldr	r3, [r3, #20]
 7000 0098 1946     		mov	r1, r3
 7001 009a 1046     		mov	r0, r2
 7002 009c FFF7FEFF 		bl	ld_clust
 7003 00a0 0246     		mov	r2, r0
 7004 00a2 3B1D     		adds	r3, r7, #4
 7005 00a4 1B68     		ldr	r3, [r3]
 7006 00a6 9A60     		str	r2, [r3, #8]
 7007 00a8 02E0     		b	.L572
 7008              	.L573:
ARM GAS  /var/folders/d2/nstgp4h54kz7g1l847x_b8wc0000gn/T//ccrhfnpm.s 			page 124


 7009 00aa 0523     		movs	r3, #5
 7010 00ac 87F81F32 		strb	r3, [r7, #543]
 7011              	.L572:
 7012 00b0 97F81F32 		ldrb	r3, [r7, #543]	@ zero_extendqisi2
 7013 00b4 002B     		cmp	r3, #0
 7014 00b6 0DD1     		bne	.L571
 7015 00b8 D7F81832 		ldr	r3, [r7, #536]
 7016 00bc DA88     		ldrh	r2, [r3, #6]
 7017 00be 3B1D     		adds	r3, r7, #4
 7018 00c0 1B68     		ldr	r3, [r3]
 7019 00c2 9A80     		strh	r2, [r3, #4]	@ movhi
 7020 00c4 3B1D     		adds	r3, r7, #4
 7021 00c6 0021     		movs	r1, #0
 7022 00c8 1868     		ldr	r0, [r3]
 7023 00ca FFF7FEFF 		bl	dir_sdi
 7024 00ce 0346     		mov	r3, r0
 7025 00d0 87F81F32 		strb	r3, [r7, #543]
 7026              	.L571:
 7027 00d4 97F81F32 		ldrb	r3, [r7, #543]	@ zero_extendqisi2
 7028 00d8 042B     		cmp	r3, #4
 7029 00da 02D1     		bne	.L570
 7030 00dc 0523     		movs	r3, #5
 7031 00de 87F81F32 		strb	r3, [r7, #543]
 7032              	.L570:
 7033 00e2 97F81F32 		ldrb	r3, [r7, #543]	@ zero_extendqisi2
 7034 00e6 002B     		cmp	r3, #0
 7035 00e8 03D0     		beq	.L574
 7036 00ea 3B1D     		adds	r3, r7, #4
 7037 00ec 1B68     		ldr	r3, [r3]
 7038 00ee 0022     		movs	r2, #0
 7039 00f0 1A60     		str	r2, [r3]
 7040              	.L574:
 7041 00f2 97F81F32 		ldrb	r3, [r7, #543]	@ zero_extendqisi2
 7042              	.L575:
 7043 00f6 1846     		mov	r0, r3
 7044 00f8 07F50877 		add	r7, r7, #544
 7045 00fc BD46     		mov	sp, r7
 7046              		@ sp needed
 7047 00fe 80BD     		pop	{r7, pc}
 7048              		.size	f_opendir, .-f_opendir
 7049              		.section	.text.f_closedir,"ax",%progbits
 7050              		.align	1
 7051              		.global	f_closedir
 7052              		.syntax unified
 7053              		.thumb
 7054              		.thumb_func
 7055              		.fpu fpv4-sp-d16
 7056              		.type	f_closedir, %function
 7057              	f_closedir:
 7058              		@ args = 0, pretend = 0, frame = 16
 7059              		@ frame_needed = 1, uses_anonymous_args = 0
 7060 0000 80B5     		push	{r7, lr}
 7061 0002 84B0     		sub	sp, sp, #16
 7062 0004 00AF     		add	r7, sp, #0
 7063 0006 7860     		str	r0, [r7, #4]
 7064 0008 7868     		ldr	r0, [r7, #4]
 7065 000a FFF7FEFF 		bl	validate
ARM GAS  /var/folders/d2/nstgp4h54kz7g1l847x_b8wc0000gn/T//ccrhfnpm.s 			page 125


 7066 000e 0346     		mov	r3, r0
 7067 0010 FB73     		strb	r3, [r7, #15]
 7068 0012 FB7B     		ldrb	r3, [r7, #15]	@ zero_extendqisi2
 7069 0014 002B     		cmp	r3, #0
 7070 0016 02D1     		bne	.L577
 7071 0018 7B68     		ldr	r3, [r7, #4]
 7072 001a 0022     		movs	r2, #0
 7073 001c 1A60     		str	r2, [r3]
 7074              	.L577:
 7075 001e FB7B     		ldrb	r3, [r7, #15]	@ zero_extendqisi2
 7076 0020 1846     		mov	r0, r3
 7077 0022 1037     		adds	r7, r7, #16
 7078 0024 BD46     		mov	sp, r7
 7079              		@ sp needed
 7080 0026 80BD     		pop	{r7, pc}
 7081              		.size	f_closedir, .-f_closedir
 7082              		.section	.text.f_readdir,"ax",%progbits
 7083              		.align	1
 7084              		.global	f_readdir
 7085              		.syntax unified
 7086              		.thumb
 7087              		.thumb_func
 7088              		.fpu fpv4-sp-d16
 7089              		.type	f_readdir, %function
 7090              	f_readdir:
 7091              		@ args = 0, pretend = 0, frame = 536
 7092              		@ frame_needed = 1, uses_anonymous_args = 0
 7093 0000 80B5     		push	{r7, lr}
 7094 0002 ADF5067D 		sub	sp, sp, #536
 7095 0006 00AF     		add	r7, sp, #0
 7096 0008 3B1D     		adds	r3, r7, #4
 7097 000a 1860     		str	r0, [r3]
 7098 000c 3B46     		mov	r3, r7
 7099 000e 1960     		str	r1, [r3]
 7100 0010 3B1D     		adds	r3, r7, #4
 7101 0012 1868     		ldr	r0, [r3]
 7102 0014 FFF7FEFF 		bl	validate
 7103 0018 0346     		mov	r3, r0
 7104 001a 87F81732 		strb	r3, [r7, #535]
 7105 001e 97F81732 		ldrb	r3, [r7, #535]	@ zero_extendqisi2
 7106 0022 002B     		cmp	r3, #0
 7107 0024 46D1     		bne	.L580
 7108 0026 3B46     		mov	r3, r7
 7109 0028 1B68     		ldr	r3, [r3]
 7110 002a 002B     		cmp	r3, #0
 7111 002c 08D1     		bne	.L581
 7112 002e 3B1D     		adds	r3, r7, #4
 7113 0030 0021     		movs	r1, #0
 7114 0032 1868     		ldr	r0, [r3]
 7115 0034 FFF7FEFF 		bl	dir_sdi
 7116 0038 0346     		mov	r3, r0
 7117 003a 87F81732 		strb	r3, [r7, #535]
 7118 003e 39E0     		b	.L580
 7119              	.L581:
 7120 0040 3B1D     		adds	r3, r7, #4
 7121 0042 1B68     		ldr	r3, [r3]
 7122 0044 07F50272 		add	r2, r7, #520
ARM GAS  /var/folders/d2/nstgp4h54kz7g1l847x_b8wc0000gn/T//ccrhfnpm.s 			page 126


 7123 0048 9A61     		str	r2, [r3, #24]
 7124 004a 3B1D     		adds	r3, r7, #4
 7125 004c 1B68     		ldr	r3, [r3]
 7126 004e 07F10802 		add	r2, r7, #8
 7127 0052 DA61     		str	r2, [r3, #28]
 7128 0054 3B1D     		adds	r3, r7, #4
 7129 0056 0021     		movs	r1, #0
 7130 0058 1868     		ldr	r0, [r3]
 7131 005a FFF7FEFF 		bl	dir_read
 7132 005e 0346     		mov	r3, r0
 7133 0060 87F81732 		strb	r3, [r7, #535]
 7134 0064 97F81732 		ldrb	r3, [r7, #535]	@ zero_extendqisi2
 7135 0068 042B     		cmp	r3, #4
 7136 006a 06D1     		bne	.L582
 7137 006c 3B1D     		adds	r3, r7, #4
 7138 006e 1B68     		ldr	r3, [r3]
 7139 0070 0022     		movs	r2, #0
 7140 0072 1A61     		str	r2, [r3, #16]
 7141 0074 0023     		movs	r3, #0
 7142 0076 87F81732 		strb	r3, [r7, #535]
 7143              	.L582:
 7144 007a 97F81732 		ldrb	r3, [r7, #535]	@ zero_extendqisi2
 7145 007e 002B     		cmp	r3, #0
 7146 0080 18D1     		bne	.L580
 7147 0082 3A46     		mov	r2, r7
 7148 0084 3B1D     		adds	r3, r7, #4
 7149 0086 1168     		ldr	r1, [r2]
 7150 0088 1868     		ldr	r0, [r3]
 7151 008a FFF7FEFF 		bl	get_fileinfo
 7152 008e 3B1D     		adds	r3, r7, #4
 7153 0090 0021     		movs	r1, #0
 7154 0092 1868     		ldr	r0, [r3]
 7155 0094 FFF7FEFF 		bl	dir_next
 7156 0098 0346     		mov	r3, r0
 7157 009a 87F81732 		strb	r3, [r7, #535]
 7158 009e 97F81732 		ldrb	r3, [r7, #535]	@ zero_extendqisi2
 7159 00a2 042B     		cmp	r3, #4
 7160 00a4 06D1     		bne	.L580
 7161 00a6 3B1D     		adds	r3, r7, #4
 7162 00a8 1B68     		ldr	r3, [r3]
 7163 00aa 0022     		movs	r2, #0
 7164 00ac 1A61     		str	r2, [r3, #16]
 7165 00ae 0023     		movs	r3, #0
 7166 00b0 87F81732 		strb	r3, [r7, #535]
 7167              	.L580:
 7168 00b4 97F81732 		ldrb	r3, [r7, #535]	@ zero_extendqisi2
 7169 00b8 1846     		mov	r0, r3
 7170 00ba 07F50677 		add	r7, r7, #536
 7171 00be BD46     		mov	sp, r7
 7172              		@ sp needed
 7173 00c0 80BD     		pop	{r7, pc}
 7174              		.size	f_readdir, .-f_readdir
 7175              		.section	.text.f_stat,"ax",%progbits
 7176              		.align	1
 7177              		.global	f_stat
 7178              		.syntax unified
 7179              		.thumb
ARM GAS  /var/folders/d2/nstgp4h54kz7g1l847x_b8wc0000gn/T//ccrhfnpm.s 			page 127


 7180              		.thumb_func
 7181              		.fpu fpv4-sp-d16
 7182              		.type	f_stat, %function
 7183              	f_stat:
 7184              		@ args = 0, pretend = 0, frame = 576
 7185              		@ frame_needed = 1, uses_anonymous_args = 0
 7186 0000 80B5     		push	{r7, lr}
 7187 0002 ADF5107D 		sub	sp, sp, #576
 7188 0006 00AF     		add	r7, sp, #0
 7189 0008 3B1D     		adds	r3, r7, #4
 7190 000a 1860     		str	r0, [r3]
 7191 000c 3B46     		mov	r3, r7
 7192 000e 1960     		str	r1, [r3]
 7193 0010 391D     		adds	r1, r7, #4
 7194 0012 07F50673 		add	r3, r7, #536
 7195 0016 0022     		movs	r2, #0
 7196 0018 1846     		mov	r0, r3
 7197 001a FFF7FEFF 		bl	find_volume
 7198 001e 0346     		mov	r3, r0
 7199 0020 87F83F32 		strb	r3, [r7, #575]
 7200 0024 97F83F32 		ldrb	r3, [r7, #575]	@ zero_extendqisi2
 7201 0028 002B     		cmp	r3, #0
 7202 002a 29D1     		bne	.L585
 7203 002c 07F50373 		add	r3, r7, #524
 7204 0030 C7F83032 		str	r3, [r7, #560]
 7205 0034 07F10C03 		add	r3, r7, #12
 7206 0038 C7F83432 		str	r3, [r7, #564]
 7207 003c 3B1D     		adds	r3, r7, #4
 7208 003e 1A68     		ldr	r2, [r3]
 7209 0040 07F50673 		add	r3, r7, #536
 7210 0044 1146     		mov	r1, r2
 7211 0046 1846     		mov	r0, r3
 7212 0048 FFF7FEFF 		bl	follow_path
 7213 004c 0346     		mov	r3, r0
 7214 004e 87F83F32 		strb	r3, [r7, #575]
 7215 0052 97F83F32 		ldrb	r3, [r7, #575]	@ zero_extendqisi2
 7216 0056 002B     		cmp	r3, #0
 7217 0058 12D1     		bne	.L585
 7218 005a D7F82C32 		ldr	r3, [r7, #556]
 7219 005e 002B     		cmp	r3, #0
 7220 0060 0BD0     		beq	.L586
 7221 0062 3B46     		mov	r3, r7
 7222 0064 1B68     		ldr	r3, [r3]
 7223 0066 002B     		cmp	r3, #0
 7224 0068 0AD0     		beq	.L585
 7225 006a 3B46     		mov	r3, r7
 7226 006c 07F50672 		add	r2, r7, #536
 7227 0070 1968     		ldr	r1, [r3]
 7228 0072 1046     		mov	r0, r2
 7229 0074 FFF7FEFF 		bl	get_fileinfo
 7230 0078 02E0     		b	.L585
 7231              	.L586:
 7232 007a 0623     		movs	r3, #6
 7233 007c 87F83F32 		strb	r3, [r7, #575]
 7234              	.L585:
 7235 0080 97F83F32 		ldrb	r3, [r7, #575]	@ zero_extendqisi2
 7236 0084 1846     		mov	r0, r3
ARM GAS  /var/folders/d2/nstgp4h54kz7g1l847x_b8wc0000gn/T//ccrhfnpm.s 			page 128


 7237 0086 07F51077 		add	r7, r7, #576
 7238 008a BD46     		mov	sp, r7
 7239              		@ sp needed
 7240 008c 80BD     		pop	{r7, pc}
 7241              		.size	f_stat, .-f_stat
 7242              		.section	.text.f_getfree,"ax",%progbits
 7243              		.align	1
 7244              		.global	f_getfree
 7245              		.syntax unified
 7246              		.thumb
 7247              		.thumb_func
 7248              		.fpu fpv4-sp-d16
 7249              		.type	f_getfree, %function
 7250              	f_getfree:
 7251              		@ args = 0, pretend = 0, frame = 56
 7252              		@ frame_needed = 1, uses_anonymous_args = 0
 7253 0000 80B5     		push	{r7, lr}
 7254 0002 8EB0     		sub	sp, sp, #56
 7255 0004 00AF     		add	r7, sp, #0
 7256 0006 F860     		str	r0, [r7, #12]
 7257 0008 B960     		str	r1, [r7, #8]
 7258 000a 7A60     		str	r2, [r7, #4]
 7259 000c 07F10C03 		add	r3, r7, #12
 7260 0010 0022     		movs	r2, #0
 7261 0012 1946     		mov	r1, r3
 7262 0014 7868     		ldr	r0, [r7, #4]
 7263 0016 FFF7FEFF 		bl	find_volume
 7264 001a 0346     		mov	r3, r0
 7265 001c 87F83730 		strb	r3, [r7, #55]
 7266 0020 7B68     		ldr	r3, [r7, #4]
 7267 0022 1B68     		ldr	r3, [r3]
 7268 0024 FB61     		str	r3, [r7, #28]
 7269 0026 97F83730 		ldrb	r3, [r7, #55]	@ zero_extendqisi2
 7270 002a 002B     		cmp	r3, #0
 7271 002c 40F0A680 		bne	.L590
 7272 0030 FB69     		ldr	r3, [r7, #28]
 7273 0032 1A69     		ldr	r2, [r3, #16]
 7274 0034 FB69     		ldr	r3, [r7, #28]
 7275 0036 5B69     		ldr	r3, [r3, #20]
 7276 0038 023B     		subs	r3, r3, #2
 7277 003a 9A42     		cmp	r2, r3
 7278 003c 04D8     		bhi	.L591
 7279 003e FB69     		ldr	r3, [r7, #28]
 7280 0040 1A69     		ldr	r2, [r3, #16]
 7281 0042 BB68     		ldr	r3, [r7, #8]
 7282 0044 1A60     		str	r2, [r3]
 7283 0046 99E0     		b	.L590
 7284              	.L591:
 7285 0048 FB69     		ldr	r3, [r7, #28]
 7286 004a 1B78     		ldrb	r3, [r3]
 7287 004c FB76     		strb	r3, [r7, #27]
 7288 004e 0023     		movs	r3, #0
 7289 0050 3B63     		str	r3, [r7, #48]
 7290 0052 FB7E     		ldrb	r3, [r7, #27]	@ zero_extendqisi2
 7291 0054 012B     		cmp	r3, #1
 7292 0056 24D1     		bne	.L592
 7293 0058 0223     		movs	r3, #2
ARM GAS  /var/folders/d2/nstgp4h54kz7g1l847x_b8wc0000gn/T//ccrhfnpm.s 			page 129


 7294 005a FB62     		str	r3, [r7, #44]
 7295              	.L597:
 7296 005c F96A     		ldr	r1, [r7, #44]
 7297 005e F869     		ldr	r0, [r7, #28]
 7298 0060 FFF7FEFF 		bl	get_fat
 7299 0064 7861     		str	r0, [r7, #20]
 7300 0066 7B69     		ldr	r3, [r7, #20]
 7301 0068 B3F1FF3F 		cmp	r3, #-1
 7302 006c 03D1     		bne	.L593
 7303 006e 0123     		movs	r3, #1
 7304 0070 87F83730 		strb	r3, [r7, #55]
 7305 0074 75E0     		b	.L598
 7306              	.L593:
 7307 0076 7B69     		ldr	r3, [r7, #20]
 7308 0078 012B     		cmp	r3, #1
 7309 007a 03D1     		bne	.L595
 7310 007c 0223     		movs	r3, #2
 7311 007e 87F83730 		strb	r3, [r7, #55]
 7312 0082 6EE0     		b	.L598
 7313              	.L595:
 7314 0084 7B69     		ldr	r3, [r7, #20]
 7315 0086 002B     		cmp	r3, #0
 7316 0088 02D1     		bne	.L596
 7317 008a 3B6B     		ldr	r3, [r7, #48]
 7318 008c 0133     		adds	r3, r3, #1
 7319 008e 3B63     		str	r3, [r7, #48]
 7320              	.L596:
 7321 0090 FB6A     		ldr	r3, [r7, #44]
 7322 0092 0133     		adds	r3, r3, #1
 7323 0094 FB62     		str	r3, [r7, #44]
 7324 0096 FB69     		ldr	r3, [r7, #28]
 7325 0098 5B69     		ldr	r3, [r3, #20]
 7326 009a FA6A     		ldr	r2, [r7, #44]
 7327 009c 9A42     		cmp	r2, r3
 7328 009e DDD3     		bcc	.L597
 7329 00a0 5FE0     		b	.L598
 7330              	.L592:
 7331 00a2 FB69     		ldr	r3, [r7, #28]
 7332 00a4 5B69     		ldr	r3, [r3, #20]
 7333 00a6 FB62     		str	r3, [r7, #44]
 7334 00a8 FB69     		ldr	r3, [r7, #28]
 7335 00aa 1B6A     		ldr	r3, [r3, #32]
 7336 00ac BB62     		str	r3, [r7, #40]
 7337 00ae 0023     		movs	r3, #0
 7338 00b0 7B62     		str	r3, [r7, #36]
 7339 00b2 0023     		movs	r3, #0
 7340 00b4 3B62     		str	r3, [r7, #32]
 7341              	.L605:
 7342 00b6 7B6A     		ldr	r3, [r7, #36]
 7343 00b8 002B     		cmp	r3, #0
 7344 00ba 13D1     		bne	.L599
 7345 00bc BB6A     		ldr	r3, [r7, #40]
 7346 00be 5A1C     		adds	r2, r3, #1
 7347 00c0 BA62     		str	r2, [r7, #40]
 7348 00c2 1946     		mov	r1, r3
 7349 00c4 F869     		ldr	r0, [r7, #28]
 7350 00c6 FFF7FEFF 		bl	move_window
ARM GAS  /var/folders/d2/nstgp4h54kz7g1l847x_b8wc0000gn/T//ccrhfnpm.s 			page 130


 7351 00ca 0346     		mov	r3, r0
 7352 00cc 87F83730 		strb	r3, [r7, #55]
 7353 00d0 97F83730 		ldrb	r3, [r7, #55]	@ zero_extendqisi2
 7354 00d4 002B     		cmp	r3, #0
 7355 00d6 43D1     		bne	.L607
 7356 00d8 FB69     		ldr	r3, [r7, #28]
 7357 00da 3033     		adds	r3, r3, #48
 7358 00dc 3B62     		str	r3, [r7, #32]
 7359 00de 4FF40073 		mov	r3, #512
 7360 00e2 7B62     		str	r3, [r7, #36]
 7361              	.L599:
 7362 00e4 FB7E     		ldrb	r3, [r7, #27]	@ zero_extendqisi2
 7363 00e6 022B     		cmp	r3, #2
 7364 00e8 15D1     		bne	.L601
 7365 00ea 3B6A     		ldr	r3, [r7, #32]
 7366 00ec 0133     		adds	r3, r3, #1
 7367 00ee 1B78     		ldrb	r3, [r3]	@ zero_extendqisi2
 7368 00f0 1B02     		lsls	r3, r3, #8
 7369 00f2 1AB2     		sxth	r2, r3
 7370 00f4 3B6A     		ldr	r3, [r7, #32]
 7371 00f6 1B78     		ldrb	r3, [r3]	@ zero_extendqisi2
 7372 00f8 1BB2     		sxth	r3, r3
 7373 00fa 1343     		orrs	r3, r3, r2
 7374 00fc 1BB2     		sxth	r3, r3
 7375 00fe 002B     		cmp	r3, #0
 7376 0100 02D1     		bne	.L602
 7377 0102 3B6B     		ldr	r3, [r7, #48]
 7378 0104 0133     		adds	r3, r3, #1
 7379 0106 3B63     		str	r3, [r7, #48]
 7380              	.L602:
 7381 0108 3B6A     		ldr	r3, [r7, #32]
 7382 010a 0233     		adds	r3, r3, #2
 7383 010c 3B62     		str	r3, [r7, #32]
 7384 010e 7B6A     		ldr	r3, [r7, #36]
 7385 0110 023B     		subs	r3, r3, #2
 7386 0112 7B62     		str	r3, [r7, #36]
 7387 0114 1DE0     		b	.L603
 7388              	.L601:
 7389 0116 3B6A     		ldr	r3, [r7, #32]
 7390 0118 0333     		adds	r3, r3, #3
 7391 011a 1B78     		ldrb	r3, [r3]	@ zero_extendqisi2
 7392 011c 1A06     		lsls	r2, r3, #24
 7393 011e 3B6A     		ldr	r3, [r7, #32]
 7394 0120 0233     		adds	r3, r3, #2
 7395 0122 1B78     		ldrb	r3, [r3]	@ zero_extendqisi2
 7396 0124 1B04     		lsls	r3, r3, #16
 7397 0126 1343     		orrs	r3, r3, r2
 7398 0128 3A6A     		ldr	r2, [r7, #32]
 7399 012a 0132     		adds	r2, r2, #1
 7400 012c 1278     		ldrb	r2, [r2]	@ zero_extendqisi2
 7401 012e 1202     		lsls	r2, r2, #8
 7402 0130 1343     		orrs	r3, r3, r2
 7403 0132 3A6A     		ldr	r2, [r7, #32]
 7404 0134 1278     		ldrb	r2, [r2]	@ zero_extendqisi2
 7405 0136 1343     		orrs	r3, r3, r2
 7406 0138 23F07043 		bic	r3, r3, #-268435456
 7407 013c 002B     		cmp	r3, #0
ARM GAS  /var/folders/d2/nstgp4h54kz7g1l847x_b8wc0000gn/T//ccrhfnpm.s 			page 131


 7408 013e 02D1     		bne	.L604
 7409 0140 3B6B     		ldr	r3, [r7, #48]
 7410 0142 0133     		adds	r3, r3, #1
 7411 0144 3B63     		str	r3, [r7, #48]
 7412              	.L604:
 7413 0146 3B6A     		ldr	r3, [r7, #32]
 7414 0148 0433     		adds	r3, r3, #4
 7415 014a 3B62     		str	r3, [r7, #32]
 7416 014c 7B6A     		ldr	r3, [r7, #36]
 7417 014e 043B     		subs	r3, r3, #4
 7418 0150 7B62     		str	r3, [r7, #36]
 7419              	.L603:
 7420 0152 FB6A     		ldr	r3, [r7, #44]
 7421 0154 013B     		subs	r3, r3, #1
 7422 0156 FB62     		str	r3, [r7, #44]
 7423 0158 FB6A     		ldr	r3, [r7, #44]
 7424 015a 002B     		cmp	r3, #0
 7425 015c ABD1     		bne	.L605
 7426 015e 00E0     		b	.L598
 7427              	.L607:
 7428 0160 00BF     		nop
 7429              	.L598:
 7430 0162 FB69     		ldr	r3, [r7, #28]
 7431 0164 3A6B     		ldr	r2, [r7, #48]
 7432 0166 1A61     		str	r2, [r3, #16]
 7433 0168 FB69     		ldr	r3, [r7, #28]
 7434 016a 5B79     		ldrb	r3, [r3, #5]	@ zero_extendqisi2
 7435 016c 43F00103 		orr	r3, r3, #1
 7436 0170 DAB2     		uxtb	r2, r3
 7437 0172 FB69     		ldr	r3, [r7, #28]
 7438 0174 5A71     		strb	r2, [r3, #5]
 7439 0176 BB68     		ldr	r3, [r7, #8]
 7440 0178 3A6B     		ldr	r2, [r7, #48]
 7441 017a 1A60     		str	r2, [r3]
 7442              	.L590:
 7443 017c 97F83730 		ldrb	r3, [r7, #55]	@ zero_extendqisi2
 7444 0180 1846     		mov	r0, r3
 7445 0182 3837     		adds	r7, r7, #56
 7446 0184 BD46     		mov	sp, r7
 7447              		@ sp needed
 7448 0186 80BD     		pop	{r7, pc}
 7449              		.size	f_getfree, .-f_getfree
 7450              		.section	.text.f_truncate,"ax",%progbits
 7451              		.align	1
 7452              		.global	f_truncate
 7453              		.syntax unified
 7454              		.thumb
 7455              		.thumb_func
 7456              		.fpu fpv4-sp-d16
 7457              		.type	f_truncate, %function
 7458              	f_truncate:
 7459              		@ args = 0, pretend = 0, frame = 16
 7460              		@ frame_needed = 1, uses_anonymous_args = 0
 7461 0000 80B5     		push	{r7, lr}
 7462 0002 84B0     		sub	sp, sp, #16
 7463 0004 00AF     		add	r7, sp, #0
 7464 0006 7860     		str	r0, [r7, #4]
ARM GAS  /var/folders/d2/nstgp4h54kz7g1l847x_b8wc0000gn/T//ccrhfnpm.s 			page 132


 7465 0008 7868     		ldr	r0, [r7, #4]
 7466 000a FFF7FEFF 		bl	validate
 7467 000e 0346     		mov	r3, r0
 7468 0010 FB73     		strb	r3, [r7, #15]
 7469 0012 FB7B     		ldrb	r3, [r7, #15]	@ zero_extendqisi2
 7470 0014 002B     		cmp	r3, #0
 7471 0016 0FD1     		bne	.L609
 7472 0018 7B68     		ldr	r3, [r7, #4]
 7473 001a DB79     		ldrb	r3, [r3, #7]	@ zero_extendqisi2
 7474 001c 002B     		cmp	r3, #0
 7475 001e 03D0     		beq	.L610
 7476 0020 7B68     		ldr	r3, [r7, #4]
 7477 0022 DB79     		ldrb	r3, [r3, #7]
 7478 0024 FB73     		strb	r3, [r7, #15]
 7479 0026 07E0     		b	.L609
 7480              	.L610:
 7481 0028 7B68     		ldr	r3, [r7, #4]
 7482 002a 9B79     		ldrb	r3, [r3, #6]	@ zero_extendqisi2
 7483 002c 03F00203 		and	r3, r3, #2
 7484 0030 002B     		cmp	r3, #0
 7485 0032 01D1     		bne	.L609
 7486 0034 0723     		movs	r3, #7
 7487 0036 FB73     		strb	r3, [r7, #15]
 7488              	.L609:
 7489 0038 FB7B     		ldrb	r3, [r7, #15]	@ zero_extendqisi2
 7490 003a 002B     		cmp	r3, #0
 7491 003c 7ED1     		bne	.L611
 7492 003e 7B68     		ldr	r3, [r7, #4]
 7493 0040 DA68     		ldr	r2, [r3, #12]
 7494 0042 7B68     		ldr	r3, [r7, #4]
 7495 0044 9B68     		ldr	r3, [r3, #8]
 7496 0046 9A42     		cmp	r2, r3
 7497 0048 72D9     		bls	.L612
 7498 004a 7B68     		ldr	r3, [r7, #4]
 7499 004c 9A68     		ldr	r2, [r3, #8]
 7500 004e 7B68     		ldr	r3, [r7, #4]
 7501 0050 DA60     		str	r2, [r3, #12]
 7502 0052 7B68     		ldr	r3, [r7, #4]
 7503 0054 9B79     		ldrb	r3, [r3, #6]	@ zero_extendqisi2
 7504 0056 43F02003 		orr	r3, r3, #32
 7505 005a DAB2     		uxtb	r2, r3
 7506 005c 7B68     		ldr	r3, [r7, #4]
 7507 005e 9A71     		strb	r2, [r3, #6]
 7508 0060 7B68     		ldr	r3, [r7, #4]
 7509 0062 9B68     		ldr	r3, [r3, #8]
 7510 0064 002B     		cmp	r3, #0
 7511 0066 0DD1     		bne	.L613
 7512 0068 7B68     		ldr	r3, [r7, #4]
 7513 006a 1A68     		ldr	r2, [r3]
 7514 006c 7B68     		ldr	r3, [r7, #4]
 7515 006e 1B69     		ldr	r3, [r3, #16]
 7516 0070 1946     		mov	r1, r3
 7517 0072 1046     		mov	r0, r2
 7518 0074 FFF7FEFF 		bl	remove_chain
 7519 0078 0346     		mov	r3, r0
 7520 007a FB73     		strb	r3, [r7, #15]
 7521 007c 7B68     		ldr	r3, [r7, #4]
ARM GAS  /var/folders/d2/nstgp4h54kz7g1l847x_b8wc0000gn/T//ccrhfnpm.s 			page 133


 7522 007e 0022     		movs	r2, #0
 7523 0080 1A61     		str	r2, [r3, #16]
 7524 0082 34E0     		b	.L614
 7525              	.L613:
 7526 0084 7B68     		ldr	r3, [r7, #4]
 7527 0086 1A68     		ldr	r2, [r3]
 7528 0088 7B68     		ldr	r3, [r7, #4]
 7529 008a 5B69     		ldr	r3, [r3, #20]
 7530 008c 1946     		mov	r1, r3
 7531 008e 1046     		mov	r0, r2
 7532 0090 FFF7FEFF 		bl	get_fat
 7533 0094 B860     		str	r0, [r7, #8]
 7534 0096 0023     		movs	r3, #0
 7535 0098 FB73     		strb	r3, [r7, #15]
 7536 009a BB68     		ldr	r3, [r7, #8]
 7537 009c B3F1FF3F 		cmp	r3, #-1
 7538 00a0 01D1     		bne	.L615
 7539 00a2 0123     		movs	r3, #1
 7540 00a4 FB73     		strb	r3, [r7, #15]
 7541              	.L615:
 7542 00a6 BB68     		ldr	r3, [r7, #8]
 7543 00a8 012B     		cmp	r3, #1
 7544 00aa 01D1     		bne	.L616
 7545 00ac 0223     		movs	r3, #2
 7546 00ae FB73     		strb	r3, [r7, #15]
 7547              	.L616:
 7548 00b0 FB7B     		ldrb	r3, [r7, #15]	@ zero_extendqisi2
 7549 00b2 002B     		cmp	r3, #0
 7550 00b4 1BD1     		bne	.L614
 7551 00b6 7B68     		ldr	r3, [r7, #4]
 7552 00b8 1B68     		ldr	r3, [r3]
 7553 00ba 5B69     		ldr	r3, [r3, #20]
 7554 00bc BA68     		ldr	r2, [r7, #8]
 7555 00be 9A42     		cmp	r2, r3
 7556 00c0 15D2     		bcs	.L614
 7557 00c2 7B68     		ldr	r3, [r7, #4]
 7558 00c4 1868     		ldr	r0, [r3]
 7559 00c6 7B68     		ldr	r3, [r7, #4]
 7560 00c8 5B69     		ldr	r3, [r3, #20]
 7561 00ca 6FF07042 		mvn	r2, #-268435456
 7562 00ce 1946     		mov	r1, r3
 7563 00d0 FFF7FEFF 		bl	put_fat
 7564 00d4 0346     		mov	r3, r0
 7565 00d6 FB73     		strb	r3, [r7, #15]
 7566 00d8 FB7B     		ldrb	r3, [r7, #15]	@ zero_extendqisi2
 7567 00da 002B     		cmp	r3, #0
 7568 00dc 07D1     		bne	.L614
 7569 00de 7B68     		ldr	r3, [r7, #4]
 7570 00e0 1B68     		ldr	r3, [r3]
 7571 00e2 B968     		ldr	r1, [r7, #8]
 7572 00e4 1846     		mov	r0, r3
 7573 00e6 FFF7FEFF 		bl	remove_chain
 7574 00ea 0346     		mov	r3, r0
 7575 00ec FB73     		strb	r3, [r7, #15]
 7576              	.L614:
 7577 00ee FB7B     		ldrb	r3, [r7, #15]	@ zero_extendqisi2
 7578 00f0 002B     		cmp	r3, #0
ARM GAS  /var/folders/d2/nstgp4h54kz7g1l847x_b8wc0000gn/T//ccrhfnpm.s 			page 134


 7579 00f2 1DD1     		bne	.L612
 7580 00f4 7B68     		ldr	r3, [r7, #4]
 7581 00f6 9B79     		ldrb	r3, [r3, #6]	@ zero_extendqisi2
 7582 00f8 03F04003 		and	r3, r3, #64
 7583 00fc 002B     		cmp	r3, #0
 7584 00fe 17D0     		beq	.L612
 7585 0100 7B68     		ldr	r3, [r7, #4]
 7586 0102 1B68     		ldr	r3, [r3]
 7587 0104 5878     		ldrb	r0, [r3, #1]	@ zero_extendqisi2
 7588 0106 7B68     		ldr	r3, [r7, #4]
 7589 0108 03F12801 		add	r1, r3, #40
 7590 010c 7B68     		ldr	r3, [r7, #4]
 7591 010e 9A69     		ldr	r2, [r3, #24]
 7592 0110 0123     		movs	r3, #1
 7593 0112 FFF7FEFF 		bl	disk_write
 7594 0116 0346     		mov	r3, r0
 7595 0118 002B     		cmp	r3, #0
 7596 011a 02D0     		beq	.L617
 7597 011c 0123     		movs	r3, #1
 7598 011e FB73     		strb	r3, [r7, #15]
 7599 0120 06E0     		b	.L612
 7600              	.L617:
 7601 0122 7B68     		ldr	r3, [r7, #4]
 7602 0124 9B79     		ldrb	r3, [r3, #6]	@ zero_extendqisi2
 7603 0126 23F04003 		bic	r3, r3, #64
 7604 012a DAB2     		uxtb	r2, r3
 7605 012c 7B68     		ldr	r3, [r7, #4]
 7606 012e 9A71     		strb	r2, [r3, #6]
 7607              	.L612:
 7608 0130 FB7B     		ldrb	r3, [r7, #15]	@ zero_extendqisi2
 7609 0132 002B     		cmp	r3, #0
 7610 0134 02D0     		beq	.L611
 7611 0136 7B68     		ldr	r3, [r7, #4]
 7612 0138 FA7B     		ldrb	r2, [r7, #15]
 7613 013a DA71     		strb	r2, [r3, #7]
 7614              	.L611:
 7615 013c FB7B     		ldrb	r3, [r7, #15]	@ zero_extendqisi2
 7616 013e 1846     		mov	r0, r3
 7617 0140 1037     		adds	r7, r7, #16
 7618 0142 BD46     		mov	sp, r7
 7619              		@ sp needed
 7620 0144 80BD     		pop	{r7, pc}
 7621              		.size	f_truncate, .-f_truncate
 7622              		.section	.text.f_unlink,"ax",%progbits
 7623              		.align	1
 7624              		.global	f_unlink
 7625              		.syntax unified
 7626              		.thumb
 7627              		.thumb_func
 7628              		.fpu fpv4-sp-d16
 7629              		.type	f_unlink, %function
 7630              	f_unlink:
 7631              		@ args = 0, pretend = 0, frame = 616
 7632              		@ frame_needed = 1, uses_anonymous_args = 0
 7633 0000 80B5     		push	{r7, lr}
 7634 0002 ADF51A7D 		sub	sp, sp, #616
 7635 0006 00AF     		add	r7, sp, #0
ARM GAS  /var/folders/d2/nstgp4h54kz7g1l847x_b8wc0000gn/T//ccrhfnpm.s 			page 135


 7636 0008 3B1D     		adds	r3, r7, #4
 7637 000a 1860     		str	r0, [r3]
 7638 000c 391D     		adds	r1, r7, #4
 7639 000e 07F50E73 		add	r3, r7, #568
 7640 0012 0122     		movs	r2, #1
 7641 0014 1846     		mov	r0, r3
 7642 0016 FFF7FEFF 		bl	find_volume
 7643 001a 0346     		mov	r3, r0
 7644 001c 87F86732 		strb	r3, [r7, #615]
 7645 0020 97F86732 		ldrb	r3, [r7, #615]	@ zero_extendqisi2
 7646 0024 002B     		cmp	r3, #0
 7647 0026 40F0A680 		bne	.L620
 7648 002a 07F50273 		add	r3, r7, #520
 7649 002e C7F85032 		str	r3, [r7, #592]
 7650 0032 07F10803 		add	r3, r7, #8
 7651 0036 C7F85432 		str	r3, [r7, #596]
 7652 003a 3B1D     		adds	r3, r7, #4
 7653 003c 1A68     		ldr	r2, [r3]
 7654 003e 07F50E73 		add	r3, r7, #568
 7655 0042 1146     		mov	r1, r2
 7656 0044 1846     		mov	r0, r3
 7657 0046 FFF7FEFF 		bl	follow_path
 7658 004a 0346     		mov	r3, r0
 7659 004c 87F86732 		strb	r3, [r7, #615]
 7660 0050 97F86732 		ldrb	r3, [r7, #615]	@ zero_extendqisi2
 7661 0054 002B     		cmp	r3, #0
 7662 0056 40F08E80 		bne	.L620
 7663 005a D7F84C32 		ldr	r3, [r7, #588]
 7664 005e C7F86032 		str	r3, [r7, #608]
 7665 0062 D7F86032 		ldr	r3, [r7, #608]
 7666 0066 002B     		cmp	r3, #0
 7667 0068 03D1     		bne	.L621
 7668 006a 0623     		movs	r3, #6
 7669 006c 87F86732 		strb	r3, [r7, #615]
 7670 0070 0AE0     		b	.L622
 7671              	.L621:
 7672 0072 D7F86032 		ldr	r3, [r7, #608]
 7673 0076 0B33     		adds	r3, r3, #11
 7674 0078 1B78     		ldrb	r3, [r3]	@ zero_extendqisi2
 7675 007a 03F00103 		and	r3, r3, #1
 7676 007e 002B     		cmp	r3, #0
 7677 0080 02D0     		beq	.L622
 7678 0082 0723     		movs	r3, #7
 7679 0084 87F86732 		strb	r3, [r7, #615]
 7680              	.L622:
 7681 0088 D7F83832 		ldr	r3, [r7, #568]
 7682 008c D7F86012 		ldr	r1, [r7, #608]
 7683 0090 1846     		mov	r0, r3
 7684 0092 FFF7FEFF 		bl	ld_clust
 7685 0096 C7F85C02 		str	r0, [r7, #604]
 7686 009a 97F86732 		ldrb	r3, [r7, #615]	@ zero_extendqisi2
 7687 009e 002B     		cmp	r3, #0
 7688 00a0 3FD1     		bne	.L623
 7689 00a2 D7F86032 		ldr	r3, [r7, #608]
 7690 00a6 0B33     		adds	r3, r3, #11
 7691 00a8 1B78     		ldrb	r3, [r3]	@ zero_extendqisi2
 7692 00aa 03F01003 		and	r3, r3, #16
ARM GAS  /var/folders/d2/nstgp4h54kz7g1l847x_b8wc0000gn/T//ccrhfnpm.s 			page 136


 7693 00ae 002B     		cmp	r3, #0
 7694 00b0 37D0     		beq	.L623
 7695 00b2 D7F85C32 		ldr	r3, [r7, #604]
 7696 00b6 012B     		cmp	r3, #1
 7697 00b8 03D8     		bhi	.L624
 7698 00ba 0223     		movs	r3, #2
 7699 00bc 87F86732 		strb	r3, [r7, #615]
 7700 00c0 2FE0     		b	.L623
 7701              	.L624:
 7702 00c2 07F50E71 		add	r1, r7, #568
 7703 00c6 07F50573 		add	r3, r7, #532
 7704 00ca 2422     		movs	r2, #36
 7705 00cc 1846     		mov	r0, r3
 7706 00ce FFF7FEFF 		bl	mem_cpy
 7707 00d2 D7F85C32 		ldr	r3, [r7, #604]
 7708 00d6 C7F81C32 		str	r3, [r7, #540]
 7709 00da 07F50573 		add	r3, r7, #532
 7710 00de 0221     		movs	r1, #2
 7711 00e0 1846     		mov	r0, r3
 7712 00e2 FFF7FEFF 		bl	dir_sdi
 7713 00e6 0346     		mov	r3, r0
 7714 00e8 87F86732 		strb	r3, [r7, #615]
 7715 00ec 97F86732 		ldrb	r3, [r7, #615]	@ zero_extendqisi2
 7716 00f0 002B     		cmp	r3, #0
 7717 00f2 16D1     		bne	.L623
 7718 00f4 07F50573 		add	r3, r7, #532
 7719 00f8 0021     		movs	r1, #0
 7720 00fa 1846     		mov	r0, r3
 7721 00fc FFF7FEFF 		bl	dir_read
 7722 0100 0346     		mov	r3, r0
 7723 0102 87F86732 		strb	r3, [r7, #615]
 7724 0106 97F86732 		ldrb	r3, [r7, #615]	@ zero_extendqisi2
 7725 010a 002B     		cmp	r3, #0
 7726 010c 02D1     		bne	.L625
 7727 010e 0723     		movs	r3, #7
 7728 0110 87F86732 		strb	r3, [r7, #615]
 7729              	.L625:
 7730 0114 97F86732 		ldrb	r3, [r7, #615]	@ zero_extendqisi2
 7731 0118 042B     		cmp	r3, #4
 7732 011a 02D1     		bne	.L623
 7733 011c 0023     		movs	r3, #0
 7734 011e 87F86732 		strb	r3, [r7, #615]
 7735              	.L623:
 7736 0122 97F86732 		ldrb	r3, [r7, #615]	@ zero_extendqisi2
 7737 0126 002B     		cmp	r3, #0
 7738 0128 25D1     		bne	.L620
 7739 012a 07F50E73 		add	r3, r7, #568
 7740 012e 1846     		mov	r0, r3
 7741 0130 FFF7FEFF 		bl	dir_remove
 7742 0134 0346     		mov	r3, r0
 7743 0136 87F86732 		strb	r3, [r7, #615]
 7744 013a 97F86732 		ldrb	r3, [r7, #615]	@ zero_extendqisi2
 7745 013e 002B     		cmp	r3, #0
 7746 0140 19D1     		bne	.L620
 7747 0142 D7F85C32 		ldr	r3, [r7, #604]
 7748 0146 002B     		cmp	r3, #0
 7749 0148 09D0     		beq	.L626
ARM GAS  /var/folders/d2/nstgp4h54kz7g1l847x_b8wc0000gn/T//ccrhfnpm.s 			page 137


 7750 014a D7F83832 		ldr	r3, [r7, #568]
 7751 014e D7F85C12 		ldr	r1, [r7, #604]
 7752 0152 1846     		mov	r0, r3
 7753 0154 FFF7FEFF 		bl	remove_chain
 7754 0158 0346     		mov	r3, r0
 7755 015a 87F86732 		strb	r3, [r7, #615]
 7756              	.L626:
 7757 015e 97F86732 		ldrb	r3, [r7, #615]	@ zero_extendqisi2
 7758 0162 002B     		cmp	r3, #0
 7759 0164 07D1     		bne	.L620
 7760 0166 D7F83832 		ldr	r3, [r7, #568]
 7761 016a 1846     		mov	r0, r3
 7762 016c FFF7FEFF 		bl	sync_fs
 7763 0170 0346     		mov	r3, r0
 7764 0172 87F86732 		strb	r3, [r7, #615]
 7765              	.L620:
 7766 0176 97F86732 		ldrb	r3, [r7, #615]	@ zero_extendqisi2
 7767 017a 1846     		mov	r0, r3
 7768 017c 07F51A77 		add	r7, r7, #616
 7769 0180 BD46     		mov	sp, r7
 7770              		@ sp needed
 7771 0182 80BD     		pop	{r7, pc}
 7772              		.size	f_unlink, .-f_unlink
 7773              		.section	.text.f_mkdir,"ax",%progbits
 7774              		.align	1
 7775              		.global	f_mkdir
 7776              		.syntax unified
 7777              		.thumb
 7778              		.thumb_func
 7779              		.fpu fpv4-sp-d16
 7780              		.type	f_mkdir, %function
 7781              	f_mkdir:
 7782              		@ args = 0, pretend = 0, frame = 592
 7783              		@ frame_needed = 1, uses_anonymous_args = 0
 7784 0000 80B5     		push	{r7, lr}
 7785 0002 ADF5147D 		sub	sp, sp, #592
 7786 0006 00AF     		add	r7, sp, #0
 7787 0008 3B1D     		adds	r3, r7, #4
 7788 000a 1860     		str	r0, [r3]
 7789 000c FFF7FEFF 		bl	get_fattime
 7790 0010 C7F84002 		str	r0, [r7, #576]
 7791 0014 391D     		adds	r1, r7, #4
 7792 0016 07F50573 		add	r3, r7, #532
 7793 001a 0122     		movs	r2, #1
 7794 001c 1846     		mov	r0, r3
 7795 001e FFF7FEFF 		bl	find_volume
 7796 0022 0346     		mov	r3, r0
 7797 0024 87F84F32 		strb	r3, [r7, #591]
 7798 0028 97F84F32 		ldrb	r3, [r7, #591]	@ zero_extendqisi2
 7799 002c 002B     		cmp	r3, #0
 7800 002e 40F04981 		bne	.L629
 7801 0032 07F50273 		add	r3, r7, #520
 7802 0036 C7F82C32 		str	r3, [r7, #556]
 7803 003a 07F10803 		add	r3, r7, #8
 7804 003e C7F83032 		str	r3, [r7, #560]
 7805 0042 3B1D     		adds	r3, r7, #4
 7806 0044 1A68     		ldr	r2, [r3]
ARM GAS  /var/folders/d2/nstgp4h54kz7g1l847x_b8wc0000gn/T//ccrhfnpm.s 			page 138


 7807 0046 07F50573 		add	r3, r7, #532
 7808 004a 1146     		mov	r1, r2
 7809 004c 1846     		mov	r0, r3
 7810 004e FFF7FEFF 		bl	follow_path
 7811 0052 0346     		mov	r3, r0
 7812 0054 87F84F32 		strb	r3, [r7, #591]
 7813 0058 97F84F32 		ldrb	r3, [r7, #591]	@ zero_extendqisi2
 7814 005c 002B     		cmp	r3, #0
 7815 005e 02D1     		bne	.L643
 7816 0060 0823     		movs	r3, #8
 7817 0062 87F84F32 		strb	r3, [r7, #591]
 7818              	.L643:
 7819 0066 97F84F32 		ldrb	r3, [r7, #591]	@ zero_extendqisi2
 7820 006a 042B     		cmp	r3, #4
 7821 006c 40F02A81 		bne	.L629
 7822 0070 D7F81432 		ldr	r3, [r7, #532]
 7823 0074 0021     		movs	r1, #0
 7824 0076 1846     		mov	r0, r3
 7825 0078 FFF7FEFF 		bl	create_chain
 7826 007c C7F83C02 		str	r0, [r7, #572]
 7827 0080 0023     		movs	r3, #0
 7828 0082 87F84F32 		strb	r3, [r7, #591]
 7829 0086 D7F83C32 		ldr	r3, [r7, #572]
 7830 008a 002B     		cmp	r3, #0
 7831 008c 02D1     		bne	.L631
 7832 008e 0723     		movs	r3, #7
 7833 0090 87F84F32 		strb	r3, [r7, #591]
 7834              	.L631:
 7835 0094 D7F83C32 		ldr	r3, [r7, #572]
 7836 0098 012B     		cmp	r3, #1
 7837 009a 02D1     		bne	.L632
 7838 009c 0223     		movs	r3, #2
 7839 009e 87F84F32 		strb	r3, [r7, #591]
 7840              	.L632:
 7841 00a2 D7F83C32 		ldr	r3, [r7, #572]
 7842 00a6 B3F1FF3F 		cmp	r3, #-1
 7843 00aa 02D1     		bne	.L633
 7844 00ac 0123     		movs	r3, #1
 7845 00ae 87F84F32 		strb	r3, [r7, #591]
 7846              	.L633:
 7847 00b2 97F84F32 		ldrb	r3, [r7, #591]	@ zero_extendqisi2
 7848 00b6 002B     		cmp	r3, #0
 7849 00b8 07D1     		bne	.L634
 7850 00ba D7F81432 		ldr	r3, [r7, #532]
 7851 00be 1846     		mov	r0, r3
 7852 00c0 FFF7FEFF 		bl	sync_window
 7853 00c4 0346     		mov	r3, r0
 7854 00c6 87F84F32 		strb	r3, [r7, #591]
 7855              	.L634:
 7856 00ca 97F84F32 		ldrb	r3, [r7, #591]	@ zero_extendqisi2
 7857 00ce 002B     		cmp	r3, #0
 7858 00d0 40F0A480 		bne	.L635
 7859 00d4 D7F81432 		ldr	r3, [r7, #532]
 7860 00d8 D7F83C12 		ldr	r1, [r7, #572]
 7861 00dc 1846     		mov	r0, r3
 7862 00de FFF7FEFF 		bl	clust2sect
 7863 00e2 C7F84802 		str	r0, [r7, #584]
ARM GAS  /var/folders/d2/nstgp4h54kz7g1l847x_b8wc0000gn/T//ccrhfnpm.s 			page 139


 7864 00e6 D7F81432 		ldr	r3, [r7, #532]
 7865 00ea 3033     		adds	r3, r3, #48
 7866 00ec C7F83832 		str	r3, [r7, #568]
 7867 00f0 4FF40072 		mov	r2, #512
 7868 00f4 0021     		movs	r1, #0
 7869 00f6 D7F83802 		ldr	r0, [r7, #568]
 7870 00fa FFF7FEFF 		bl	mem_set
 7871 00fe 0B22     		movs	r2, #11
 7872 0100 2021     		movs	r1, #32
 7873 0102 D7F83802 		ldr	r0, [r7, #568]
 7874 0106 FFF7FEFF 		bl	mem_set
 7875 010a D7F83832 		ldr	r3, [r7, #568]
 7876 010e 2E22     		movs	r2, #46
 7877 0110 1A70     		strb	r2, [r3]
 7878 0112 D7F83832 		ldr	r3, [r7, #568]
 7879 0116 0B33     		adds	r3, r3, #11
 7880 0118 1022     		movs	r2, #16
 7881 011a 1A70     		strb	r2, [r3]
 7882 011c D7F83832 		ldr	r3, [r7, #568]
 7883 0120 1633     		adds	r3, r3, #22
 7884 0122 D7F84022 		ldr	r2, [r7, #576]
 7885 0126 D2B2     		uxtb	r2, r2
 7886 0128 1A70     		strb	r2, [r3]
 7887 012a D7F84032 		ldr	r3, [r7, #576]
 7888 012e 9BB2     		uxth	r3, r3
 7889 0130 1B0A     		lsrs	r3, r3, #8
 7890 0132 9AB2     		uxth	r2, r3
 7891 0134 D7F83832 		ldr	r3, [r7, #568]
 7892 0138 1733     		adds	r3, r3, #23
 7893 013a D2B2     		uxtb	r2, r2
 7894 013c 1A70     		strb	r2, [r3]
 7895 013e D7F84032 		ldr	r3, [r7, #576]
 7896 0142 1A0C     		lsrs	r2, r3, #16
 7897 0144 D7F83832 		ldr	r3, [r7, #568]
 7898 0148 1833     		adds	r3, r3, #24
 7899 014a D2B2     		uxtb	r2, r2
 7900 014c 1A70     		strb	r2, [r3]
 7901 014e D7F84032 		ldr	r3, [r7, #576]
 7902 0152 1A0E     		lsrs	r2, r3, #24
 7903 0154 D7F83832 		ldr	r3, [r7, #568]
 7904 0158 1933     		adds	r3, r3, #25
 7905 015a D2B2     		uxtb	r2, r2
 7906 015c 1A70     		strb	r2, [r3]
 7907 015e D7F83C12 		ldr	r1, [r7, #572]
 7908 0162 D7F83802 		ldr	r0, [r7, #568]
 7909 0166 FFF7FEFF 		bl	st_clust
 7910 016a D7F83832 		ldr	r3, [r7, #568]
 7911 016e 2033     		adds	r3, r3, #32
 7912 0170 2022     		movs	r2, #32
 7913 0172 D7F83812 		ldr	r1, [r7, #568]
 7914 0176 1846     		mov	r0, r3
 7915 0178 FFF7FEFF 		bl	mem_cpy
 7916 017c D7F83832 		ldr	r3, [r7, #568]
 7917 0180 2133     		adds	r3, r3, #33
 7918 0182 2E22     		movs	r2, #46
 7919 0184 1A70     		strb	r2, [r3]
 7920 0186 D7F81C32 		ldr	r3, [r7, #540]
ARM GAS  /var/folders/d2/nstgp4h54kz7g1l847x_b8wc0000gn/T//ccrhfnpm.s 			page 140


 7921 018a C7F84432 		str	r3, [r7, #580]
 7922 018e D7F81432 		ldr	r3, [r7, #532]
 7923 0192 1B78     		ldrb	r3, [r3]	@ zero_extendqisi2
 7924 0194 032B     		cmp	r3, #3
 7925 0196 09D1     		bne	.L636
 7926 0198 D7F81432 		ldr	r3, [r7, #532]
 7927 019c 5B6A     		ldr	r3, [r3, #36]
 7928 019e D7F84422 		ldr	r2, [r7, #580]
 7929 01a2 9A42     		cmp	r2, r3
 7930 01a4 02D1     		bne	.L636
 7931 01a6 0023     		movs	r3, #0
 7932 01a8 C7F84432 		str	r3, [r7, #580]
 7933              	.L636:
 7934 01ac D7F83832 		ldr	r3, [r7, #568]
 7935 01b0 2033     		adds	r3, r3, #32
 7936 01b2 D7F84412 		ldr	r1, [r7, #580]
 7937 01b6 1846     		mov	r0, r3
 7938 01b8 FFF7FEFF 		bl	st_clust
 7939 01bc D7F81432 		ldr	r3, [r7, #532]
 7940 01c0 9B78     		ldrb	r3, [r3, #2]
 7941 01c2 87F84E32 		strb	r3, [r7, #590]
 7942 01c6 23E0     		b	.L637
 7943              	.L639:
 7944 01c8 D7F84832 		ldr	r3, [r7, #584]
 7945 01cc 5A1C     		adds	r2, r3, #1
 7946 01ce C7F84822 		str	r2, [r7, #584]
 7947 01d2 D7F81422 		ldr	r2, [r7, #532]
 7948 01d6 D362     		str	r3, [r2, #44]
 7949 01d8 D7F81432 		ldr	r3, [r7, #532]
 7950 01dc 0122     		movs	r2, #1
 7951 01de 1A71     		strb	r2, [r3, #4]
 7952 01e0 D7F81432 		ldr	r3, [r7, #532]
 7953 01e4 1846     		mov	r0, r3
 7954 01e6 FFF7FEFF 		bl	sync_window
 7955 01ea 0346     		mov	r3, r0
 7956 01ec 87F84F32 		strb	r3, [r7, #591]
 7957 01f0 97F84F32 		ldrb	r3, [r7, #591]	@ zero_extendqisi2
 7958 01f4 002B     		cmp	r3, #0
 7959 01f6 10D1     		bne	.L644
 7960 01f8 4FF40072 		mov	r2, #512
 7961 01fc 0021     		movs	r1, #0
 7962 01fe D7F83802 		ldr	r0, [r7, #568]
 7963 0202 FFF7FEFF 		bl	mem_set
 7964 0206 97F84E32 		ldrb	r3, [r7, #590]	@ zero_extendqisi2
 7965 020a 013B     		subs	r3, r3, #1
 7966 020c 87F84E32 		strb	r3, [r7, #590]
 7967              	.L637:
 7968 0210 97F84E32 		ldrb	r3, [r7, #590]	@ zero_extendqisi2
 7969 0214 002B     		cmp	r3, #0
 7970 0216 D7D1     		bne	.L639
 7971 0218 00E0     		b	.L635
 7972              	.L644:
 7973 021a 00BF     		nop
 7974              	.L635:
 7975 021c 97F84F32 		ldrb	r3, [r7, #591]	@ zero_extendqisi2
 7976 0220 002B     		cmp	r3, #0
 7977 0222 07D1     		bne	.L640
ARM GAS  /var/folders/d2/nstgp4h54kz7g1l847x_b8wc0000gn/T//ccrhfnpm.s 			page 141


 7978 0224 07F50573 		add	r3, r7, #532
 7979 0228 1846     		mov	r0, r3
 7980 022a FFF7FEFF 		bl	dir_register
 7981 022e 0346     		mov	r3, r0
 7982 0230 87F84F32 		strb	r3, [r7, #591]
 7983              	.L640:
 7984 0234 97F84F32 		ldrb	r3, [r7, #591]	@ zero_extendqisi2
 7985 0238 002B     		cmp	r3, #0
 7986 023a 07D0     		beq	.L641
 7987 023c D7F81432 		ldr	r3, [r7, #532]
 7988 0240 D7F83C12 		ldr	r1, [r7, #572]
 7989 0244 1846     		mov	r0, r3
 7990 0246 FFF7FEFF 		bl	remove_chain
 7991 024a 3BE0     		b	.L629
 7992              	.L641:
 7993 024c D7F82832 		ldr	r3, [r7, #552]
 7994 0250 C7F83832 		str	r3, [r7, #568]
 7995 0254 D7F83832 		ldr	r3, [r7, #568]
 7996 0258 0B33     		adds	r3, r3, #11
 7997 025a 1022     		movs	r2, #16
 7998 025c 1A70     		strb	r2, [r3]
 7999 025e D7F83832 		ldr	r3, [r7, #568]
 8000 0262 1633     		adds	r3, r3, #22
 8001 0264 D7F84022 		ldr	r2, [r7, #576]
 8002 0268 D2B2     		uxtb	r2, r2
 8003 026a 1A70     		strb	r2, [r3]
 8004 026c D7F84032 		ldr	r3, [r7, #576]
 8005 0270 9BB2     		uxth	r3, r3
 8006 0272 1B0A     		lsrs	r3, r3, #8
 8007 0274 9AB2     		uxth	r2, r3
 8008 0276 D7F83832 		ldr	r3, [r7, #568]
 8009 027a 1733     		adds	r3, r3, #23
 8010 027c D2B2     		uxtb	r2, r2
 8011 027e 1A70     		strb	r2, [r3]
 8012 0280 D7F84032 		ldr	r3, [r7, #576]
 8013 0284 1A0C     		lsrs	r2, r3, #16
 8014 0286 D7F83832 		ldr	r3, [r7, #568]
 8015 028a 1833     		adds	r3, r3, #24
 8016 028c D2B2     		uxtb	r2, r2
 8017 028e 1A70     		strb	r2, [r3]
 8018 0290 D7F84032 		ldr	r3, [r7, #576]
 8019 0294 1A0E     		lsrs	r2, r3, #24
 8020 0296 D7F83832 		ldr	r3, [r7, #568]
 8021 029a 1933     		adds	r3, r3, #25
 8022 029c D2B2     		uxtb	r2, r2
 8023 029e 1A70     		strb	r2, [r3]
 8024 02a0 D7F83C12 		ldr	r1, [r7, #572]
 8025 02a4 D7F83802 		ldr	r0, [r7, #568]
 8026 02a8 FFF7FEFF 		bl	st_clust
 8027 02ac D7F81432 		ldr	r3, [r7, #532]
 8028 02b0 0122     		movs	r2, #1
 8029 02b2 1A71     		strb	r2, [r3, #4]
 8030 02b4 D7F81432 		ldr	r3, [r7, #532]
 8031 02b8 1846     		mov	r0, r3
 8032 02ba FFF7FEFF 		bl	sync_fs
 8033 02be 0346     		mov	r3, r0
 8034 02c0 87F84F32 		strb	r3, [r7, #591]
ARM GAS  /var/folders/d2/nstgp4h54kz7g1l847x_b8wc0000gn/T//ccrhfnpm.s 			page 142


 8035              	.L629:
 8036 02c4 97F84F32 		ldrb	r3, [r7, #591]	@ zero_extendqisi2
 8037 02c8 1846     		mov	r0, r3
 8038 02ca 07F51477 		add	r7, r7, #592
 8039 02ce BD46     		mov	sp, r7
 8040              		@ sp needed
 8041 02d0 80BD     		pop	{r7, pc}
 8042              		.size	f_mkdir, .-f_mkdir
 8043              		.section	.text.f_chmod,"ax",%progbits
 8044              		.align	1
 8045              		.global	f_chmod
 8046              		.syntax unified
 8047              		.thumb
 8048              		.thumb_func
 8049              		.fpu fpv4-sp-d16
 8050              		.type	f_chmod, %function
 8051              	f_chmod:
 8052              		@ args = 0, pretend = 0, frame = 576
 8053              		@ frame_needed = 1, uses_anonymous_args = 0
 8054 0000 80B5     		push	{r7, lr}
 8055 0002 ADF5107D 		sub	sp, sp, #576
 8056 0006 00AF     		add	r7, sp, #0
 8057 0008 3B1D     		adds	r3, r7, #4
 8058 000a 1860     		str	r0, [r3]
 8059 000c 0846     		mov	r0, r1
 8060 000e 1146     		mov	r1, r2
 8061 0010 FB1C     		adds	r3, r7, #3
 8062 0012 0246     		mov	r2, r0
 8063 0014 1A70     		strb	r2, [r3]
 8064 0016 BB1C     		adds	r3, r7, #2
 8065 0018 0A46     		mov	r2, r1
 8066 001a 1A70     		strb	r2, [r3]
 8067 001c 391D     		adds	r1, r7, #4
 8068 001e 07F50573 		add	r3, r7, #532
 8069 0022 0122     		movs	r2, #1
 8070 0024 1846     		mov	r0, r3
 8071 0026 FFF7FEFF 		bl	find_volume
 8072 002a 0346     		mov	r3, r0
 8073 002c 87F83F32 		strb	r3, [r7, #575]
 8074 0030 97F83F32 		ldrb	r3, [r7, #575]	@ zero_extendqisi2
 8075 0034 002B     		cmp	r3, #0
 8076 0036 4AD1     		bne	.L646
 8077 0038 07F50273 		add	r3, r7, #520
 8078 003c C7F82C32 		str	r3, [r7, #556]
 8079 0040 07F10803 		add	r3, r7, #8
 8080 0044 C7F83032 		str	r3, [r7, #560]
 8081 0048 3B1D     		adds	r3, r7, #4
 8082 004a 1A68     		ldr	r2, [r3]
 8083 004c 07F50573 		add	r3, r7, #532
 8084 0050 1146     		mov	r1, r2
 8085 0052 1846     		mov	r0, r3
 8086 0054 FFF7FEFF 		bl	follow_path
 8087 0058 0346     		mov	r3, r0
 8088 005a 87F83F32 		strb	r3, [r7, #575]
 8089 005e 97F83F32 		ldrb	r3, [r7, #575]	@ zero_extendqisi2
 8090 0062 002B     		cmp	r3, #0
 8091 0064 33D1     		bne	.L646
ARM GAS  /var/folders/d2/nstgp4h54kz7g1l847x_b8wc0000gn/T//ccrhfnpm.s 			page 143


 8092 0066 D7F82832 		ldr	r3, [r7, #552]
 8093 006a C7F83832 		str	r3, [r7, #568]
 8094 006e D7F83832 		ldr	r3, [r7, #568]
 8095 0072 002B     		cmp	r3, #0
 8096 0074 03D1     		bne	.L647
 8097 0076 0623     		movs	r3, #6
 8098 0078 87F83F32 		strb	r3, [r7, #575]
 8099 007c 27E0     		b	.L646
 8100              	.L647:
 8101 007e BB1C     		adds	r3, r7, #2
 8102 0080 BA1C     		adds	r2, r7, #2
 8103 0082 1278     		ldrb	r2, [r2]
 8104 0084 02F02702 		and	r2, r2, #39
 8105 0088 1A70     		strb	r2, [r3]
 8106 008a FA1C     		adds	r2, r7, #3
 8107 008c BB1C     		adds	r3, r7, #2
 8108 008e 1278     		ldrb	r2, [r2]
 8109 0090 1B78     		ldrb	r3, [r3]
 8110 0092 1340     		ands	r3, r3, r2
 8111 0094 D9B2     		uxtb	r1, r3
 8112 0096 D7F83832 		ldr	r3, [r7, #568]
 8113 009a 0B33     		adds	r3, r3, #11
 8114 009c 1A78     		ldrb	r2, [r3]	@ zero_extendqisi2
 8115 009e BB1C     		adds	r3, r7, #2
 8116 00a0 1B78     		ldrb	r3, [r3]
 8117 00a2 DB43     		mvns	r3, r3
 8118 00a4 DBB2     		uxtb	r3, r3
 8119 00a6 1340     		ands	r3, r3, r2
 8120 00a8 DAB2     		uxtb	r2, r3
 8121 00aa D7F83832 		ldr	r3, [r7, #568]
 8122 00ae 0B33     		adds	r3, r3, #11
 8123 00b0 0A43     		orrs	r2, r2, r1
 8124 00b2 D2B2     		uxtb	r2, r2
 8125 00b4 1A70     		strb	r2, [r3]
 8126 00b6 D7F81432 		ldr	r3, [r7, #532]
 8127 00ba 0122     		movs	r2, #1
 8128 00bc 1A71     		strb	r2, [r3, #4]
 8129 00be D7F81432 		ldr	r3, [r7, #532]
 8130 00c2 1846     		mov	r0, r3
 8131 00c4 FFF7FEFF 		bl	sync_fs
 8132 00c8 0346     		mov	r3, r0
 8133 00ca 87F83F32 		strb	r3, [r7, #575]
 8134              	.L646:
 8135 00ce 97F83F32 		ldrb	r3, [r7, #575]	@ zero_extendqisi2
 8136 00d2 1846     		mov	r0, r3
 8137 00d4 07F51077 		add	r7, r7, #576
 8138 00d8 BD46     		mov	sp, r7
 8139              		@ sp needed
 8140 00da 80BD     		pop	{r7, pc}
 8141              		.size	f_chmod, .-f_chmod
 8142              		.section	.text.f_utime,"ax",%progbits
 8143              		.align	1
 8144              		.global	f_utime
 8145              		.syntax unified
 8146              		.thumb
 8147              		.thumb_func
 8148              		.fpu fpv4-sp-d16
ARM GAS  /var/folders/d2/nstgp4h54kz7g1l847x_b8wc0000gn/T//ccrhfnpm.s 			page 144


 8149              		.type	f_utime, %function
 8150              	f_utime:
 8151              		@ args = 0, pretend = 0, frame = 576
 8152              		@ frame_needed = 1, uses_anonymous_args = 0
 8153 0000 80B5     		push	{r7, lr}
 8154 0002 ADF5107D 		sub	sp, sp, #576
 8155 0006 00AF     		add	r7, sp, #0
 8156 0008 3B1D     		adds	r3, r7, #4
 8157 000a 1860     		str	r0, [r3]
 8158 000c 3B46     		mov	r3, r7
 8159 000e 1960     		str	r1, [r3]
 8160 0010 391D     		adds	r1, r7, #4
 8161 0012 07F50573 		add	r3, r7, #532
 8162 0016 0122     		movs	r2, #1
 8163 0018 1846     		mov	r0, r3
 8164 001a FFF7FEFF 		bl	find_volume
 8165 001e 0346     		mov	r3, r0
 8166 0020 87F83F32 		strb	r3, [r7, #575]
 8167 0024 97F83F32 		ldrb	r3, [r7, #575]	@ zero_extendqisi2
 8168 0028 002B     		cmp	r3, #0
 8169 002a 52D1     		bne	.L650
 8170 002c 07F50273 		add	r3, r7, #520
 8171 0030 C7F82C32 		str	r3, [r7, #556]
 8172 0034 07F10803 		add	r3, r7, #8
 8173 0038 C7F83032 		str	r3, [r7, #560]
 8174 003c 3B1D     		adds	r3, r7, #4
 8175 003e 1A68     		ldr	r2, [r3]
 8176 0040 07F50573 		add	r3, r7, #532
 8177 0044 1146     		mov	r1, r2
 8178 0046 1846     		mov	r0, r3
 8179 0048 FFF7FEFF 		bl	follow_path
 8180 004c 0346     		mov	r3, r0
 8181 004e 87F83F32 		strb	r3, [r7, #575]
 8182 0052 97F83F32 		ldrb	r3, [r7, #575]	@ zero_extendqisi2
 8183 0056 002B     		cmp	r3, #0
 8184 0058 3BD1     		bne	.L650
 8185 005a D7F82832 		ldr	r3, [r7, #552]
 8186 005e C7F83832 		str	r3, [r7, #568]
 8187 0062 D7F83832 		ldr	r3, [r7, #568]
 8188 0066 002B     		cmp	r3, #0
 8189 0068 03D1     		bne	.L651
 8190 006a 0623     		movs	r3, #6
 8191 006c 87F83F32 		strb	r3, [r7, #575]
 8192 0070 2FE0     		b	.L650
 8193              	.L651:
 8194 0072 3B46     		mov	r3, r7
 8195 0074 1B68     		ldr	r3, [r3]
 8196 0076 DA88     		ldrh	r2, [r3, #6]
 8197 0078 D7F83832 		ldr	r3, [r7, #568]
 8198 007c 1633     		adds	r3, r3, #22
 8199 007e D2B2     		uxtb	r2, r2
 8200 0080 1A70     		strb	r2, [r3]
 8201 0082 3B46     		mov	r3, r7
 8202 0084 1B68     		ldr	r3, [r3]
 8203 0086 DB88     		ldrh	r3, [r3, #6]
 8204 0088 1B0A     		lsrs	r3, r3, #8
 8205 008a 9AB2     		uxth	r2, r3
ARM GAS  /var/folders/d2/nstgp4h54kz7g1l847x_b8wc0000gn/T//ccrhfnpm.s 			page 145


 8206 008c D7F83832 		ldr	r3, [r7, #568]
 8207 0090 1733     		adds	r3, r3, #23
 8208 0092 D2B2     		uxtb	r2, r2
 8209 0094 1A70     		strb	r2, [r3]
 8210 0096 3B46     		mov	r3, r7
 8211 0098 1B68     		ldr	r3, [r3]
 8212 009a 9A88     		ldrh	r2, [r3, #4]
 8213 009c D7F83832 		ldr	r3, [r7, #568]
 8214 00a0 1833     		adds	r3, r3, #24
 8215 00a2 D2B2     		uxtb	r2, r2
 8216 00a4 1A70     		strb	r2, [r3]
 8217 00a6 3B46     		mov	r3, r7
 8218 00a8 1B68     		ldr	r3, [r3]
 8219 00aa 9B88     		ldrh	r3, [r3, #4]
 8220 00ac 1B0A     		lsrs	r3, r3, #8
 8221 00ae 9AB2     		uxth	r2, r3
 8222 00b0 D7F83832 		ldr	r3, [r7, #568]
 8223 00b4 1933     		adds	r3, r3, #25
 8224 00b6 D2B2     		uxtb	r2, r2
 8225 00b8 1A70     		strb	r2, [r3]
 8226 00ba D7F81432 		ldr	r3, [r7, #532]
 8227 00be 0122     		movs	r2, #1
 8228 00c0 1A71     		strb	r2, [r3, #4]
 8229 00c2 D7F81432 		ldr	r3, [r7, #532]
 8230 00c6 1846     		mov	r0, r3
 8231 00c8 FFF7FEFF 		bl	sync_fs
 8232 00cc 0346     		mov	r3, r0
 8233 00ce 87F83F32 		strb	r3, [r7, #575]
 8234              	.L650:
 8235 00d2 97F83F32 		ldrb	r3, [r7, #575]	@ zero_extendqisi2
 8236 00d6 1846     		mov	r0, r3
 8237 00d8 07F51077 		add	r7, r7, #576
 8238 00dc BD46     		mov	sp, r7
 8239              		@ sp needed
 8240 00de 80BD     		pop	{r7, pc}
 8241              		.size	f_utime, .-f_utime
 8242              		.section	.text.f_rename,"ax",%progbits
 8243              		.align	1
 8244              		.global	f_rename
 8245              		.syntax unified
 8246              		.thumb
 8247              		.thumb_func
 8248              		.fpu fpv4-sp-d16
 8249              		.type	f_rename, %function
 8250              	f_rename:
 8251              		@ args = 0, pretend = 0, frame = 640
 8252              		@ frame_needed = 1, uses_anonymous_args = 0
 8253 0000 90B5     		push	{r4, r7, lr}
 8254 0002 ADF5217D 		sub	sp, sp, #644
 8255 0006 00AF     		add	r7, sp, #0
 8256 0008 3B1D     		adds	r3, r7, #4
 8257 000a 1860     		str	r0, [r3]
 8258 000c 3B46     		mov	r3, r7
 8259 000e 1960     		str	r1, [r3]
 8260 0010 391D     		adds	r1, r7, #4
 8261 0012 07F51473 		add	r3, r7, #592
 8262 0016 0122     		movs	r2, #1
ARM GAS  /var/folders/d2/nstgp4h54kz7g1l847x_b8wc0000gn/T//ccrhfnpm.s 			page 146


 8263 0018 1846     		mov	r0, r3
 8264 001a FFF7FEFF 		bl	find_volume
 8265 001e 0346     		mov	r3, r0
 8266 0020 87F87F32 		strb	r3, [r7, #639]
 8267 0024 97F87F32 		ldrb	r3, [r7, #639]	@ zero_extendqisi2
 8268 0028 002B     		cmp	r3, #0
 8269 002a 40F0F580 		bne	.L654
 8270 002e D7F85032 		ldr	r3, [r7, #592]
 8271 0032 C7F82C32 		str	r3, [r7, #556]
 8272 0036 07F50273 		add	r3, r7, #520
 8273 003a C7F86832 		str	r3, [r7, #616]
 8274 003e 07F10803 		add	r3, r7, #8
 8275 0042 C7F86C32 		str	r3, [r7, #620]
 8276 0046 3B1D     		adds	r3, r7, #4
 8277 0048 1A68     		ldr	r2, [r3]
 8278 004a 07F51473 		add	r3, r7, #592
 8279 004e 1146     		mov	r1, r2
 8280 0050 1846     		mov	r0, r3
 8281 0052 FFF7FEFF 		bl	follow_path
 8282 0056 0346     		mov	r3, r0
 8283 0058 87F87F32 		strb	r3, [r7, #639]
 8284 005c 97F87F32 		ldrb	r3, [r7, #639]	@ zero_extendqisi2
 8285 0060 002B     		cmp	r3, #0
 8286 0062 40F0D980 		bne	.L654
 8287 0066 D7F86432 		ldr	r3, [r7, #612]
 8288 006a 002B     		cmp	r3, #0
 8289 006c 03D1     		bne	.L655
 8290 006e 0423     		movs	r3, #4
 8291 0070 87F87F32 		strb	r3, [r7, #639]
 8292 0074 D0E0     		b	.L654
 8293              	.L655:
 8294 0076 D7F86432 		ldr	r3, [r7, #612]
 8295 007a 03F10B01 		add	r1, r3, #11
 8296 007e 07F50573 		add	r3, r7, #532
 8297 0082 1522     		movs	r2, #21
 8298 0084 1846     		mov	r0, r3
 8299 0086 FFF7FEFF 		bl	mem_cpy
 8300 008a 07F51471 		add	r1, r7, #592
 8301 008e 07F50B73 		add	r3, r7, #556
 8302 0092 2422     		movs	r2, #36
 8303 0094 1846     		mov	r0, r3
 8304 0096 FFF7FEFF 		bl	mem_cpy
 8305 009a 3B46     		mov	r3, r7
 8306 009c 1846     		mov	r0, r3
 8307 009e FFF7FEFF 		bl	get_ldnumber
 8308 00a2 0346     		mov	r3, r0
 8309 00a4 002B     		cmp	r3, #0
 8310 00a6 0BDB     		blt	.L656
 8311 00a8 3B46     		mov	r3, r7
 8312 00aa 1A68     		ldr	r2, [r3]
 8313 00ac 07F50B73 		add	r3, r7, #556
 8314 00b0 1146     		mov	r1, r2
 8315 00b2 1846     		mov	r0, r3
 8316 00b4 FFF7FEFF 		bl	follow_path
 8317 00b8 0346     		mov	r3, r0
 8318 00ba 87F87F32 		strb	r3, [r7, #639]
 8319 00be 02E0     		b	.L657
ARM GAS  /var/folders/d2/nstgp4h54kz7g1l847x_b8wc0000gn/T//ccrhfnpm.s 			page 147


 8320              	.L656:
 8321 00c0 0B23     		movs	r3, #11
 8322 00c2 87F87F32 		strb	r3, [r7, #639]
 8323              	.L657:
 8324 00c6 97F87F32 		ldrb	r3, [r7, #639]	@ zero_extendqisi2
 8325 00ca 002B     		cmp	r3, #0
 8326 00cc 02D1     		bne	.L658
 8327 00ce 0823     		movs	r3, #8
 8328 00d0 87F87F32 		strb	r3, [r7, #639]
 8329              	.L658:
 8330 00d4 97F87F32 		ldrb	r3, [r7, #639]	@ zero_extendqisi2
 8331 00d8 042B     		cmp	r3, #4
 8332 00da 40F09D80 		bne	.L654
 8333 00de 07F50B73 		add	r3, r7, #556
 8334 00e2 1846     		mov	r0, r3
 8335 00e4 FFF7FEFF 		bl	dir_register
 8336 00e8 0346     		mov	r3, r0
 8337 00ea 87F87F32 		strb	r3, [r7, #639]
 8338 00ee 97F87F32 		ldrb	r3, [r7, #639]	@ zero_extendqisi2
 8339 00f2 002B     		cmp	r3, #0
 8340 00f4 40F09080 		bne	.L654
 8341 00f8 D7F84032 		ldr	r3, [r7, #576]
 8342 00fc C7F87832 		str	r3, [r7, #632]
 8343 0100 D7F87832 		ldr	r3, [r7, #632]
 8344 0104 03F10D00 		add	r0, r3, #13
 8345 0108 07F50573 		add	r3, r7, #532
 8346 010c 0233     		adds	r3, r3, #2
 8347 010e 1322     		movs	r2, #19
 8348 0110 1946     		mov	r1, r3
 8349 0112 FFF7FEFF 		bl	mem_cpy
 8350 0116 97F81422 		ldrb	r2, [r7, #532]	@ zero_extendqisi2
 8351 011a D7F87832 		ldr	r3, [r7, #632]
 8352 011e 0B33     		adds	r3, r3, #11
 8353 0120 42F02002 		orr	r2, r2, #32
 8354 0124 D2B2     		uxtb	r2, r2
 8355 0126 1A70     		strb	r2, [r3]
 8356 0128 D7F85032 		ldr	r3, [r7, #592]
 8357 012c 0122     		movs	r2, #1
 8358 012e 1A71     		strb	r2, [r3, #4]
 8359 0130 D7F85822 		ldr	r2, [r7, #600]
 8360 0134 D7F83432 		ldr	r3, [r7, #564]
 8361 0138 9A42     		cmp	r2, r3
 8362 013a 55D0     		beq	.L659
 8363 013c D7F87832 		ldr	r3, [r7, #632]
 8364 0140 0B33     		adds	r3, r3, #11
 8365 0142 1B78     		ldrb	r3, [r3]	@ zero_extendqisi2
 8366 0144 03F01003 		and	r3, r3, #16
 8367 0148 002B     		cmp	r3, #0
 8368 014a 4DD0     		beq	.L659
 8369 014c D7F85042 		ldr	r4, [r7, #592]
 8370 0150 D7F85032 		ldr	r3, [r7, #592]
 8371 0154 D7F87812 		ldr	r1, [r7, #632]
 8372 0158 1846     		mov	r0, r3
 8373 015a FFF7FEFF 		bl	ld_clust
 8374 015e 0346     		mov	r3, r0
 8375 0160 1946     		mov	r1, r3
 8376 0162 2046     		mov	r0, r4
ARM GAS  /var/folders/d2/nstgp4h54kz7g1l847x_b8wc0000gn/T//ccrhfnpm.s 			page 148


 8377 0164 FFF7FEFF 		bl	clust2sect
 8378 0168 C7F87402 		str	r0, [r7, #628]
 8379 016c D7F87432 		ldr	r3, [r7, #628]
 8380 0170 002B     		cmp	r3, #0
 8381 0172 03D1     		bne	.L660
 8382 0174 0223     		movs	r3, #2
 8383 0176 87F87F32 		strb	r3, [r7, #639]
 8384 017a 35E0     		b	.L659
 8385              	.L660:
 8386 017c D7F85032 		ldr	r3, [r7, #592]
 8387 0180 D7F87412 		ldr	r1, [r7, #628]
 8388 0184 1846     		mov	r0, r3
 8389 0186 FFF7FEFF 		bl	move_window
 8390 018a 0346     		mov	r3, r0
 8391 018c 87F87F32 		strb	r3, [r7, #639]
 8392 0190 D7F85032 		ldr	r3, [r7, #592]
 8393 0194 3033     		adds	r3, r3, #48
 8394 0196 2033     		adds	r3, r3, #32
 8395 0198 C7F87832 		str	r3, [r7, #632]
 8396 019c 97F87F32 		ldrb	r3, [r7, #639]	@ zero_extendqisi2
 8397 01a0 002B     		cmp	r3, #0
 8398 01a2 21D1     		bne	.L659
 8399 01a4 D7F87832 		ldr	r3, [r7, #632]
 8400 01a8 0133     		adds	r3, r3, #1
 8401 01aa 1B78     		ldrb	r3, [r3]	@ zero_extendqisi2
 8402 01ac 2E2B     		cmp	r3, #46
 8403 01ae 1BD1     		bne	.L659
 8404 01b0 D7F85032 		ldr	r3, [r7, #592]
 8405 01b4 1B78     		ldrb	r3, [r3]	@ zero_extendqisi2
 8406 01b6 032B     		cmp	r3, #3
 8407 01b8 06D1     		bne	.L661
 8408 01ba D7F83422 		ldr	r2, [r7, #564]
 8409 01be D7F85032 		ldr	r3, [r7, #592]
 8410 01c2 5B6A     		ldr	r3, [r3, #36]
 8411 01c4 9A42     		cmp	r2, r3
 8412 01c6 02D0     		beq	.L662
 8413              	.L661:
 8414 01c8 D7F83432 		ldr	r3, [r7, #564]
 8415 01cc 00E0     		b	.L663
 8416              	.L662:
 8417 01ce 0023     		movs	r3, #0
 8418              	.L663:
 8419 01d0 C7F87432 		str	r3, [r7, #628]
 8420 01d4 D7F87412 		ldr	r1, [r7, #628]
 8421 01d8 D7F87802 		ldr	r0, [r7, #632]
 8422 01dc FFF7FEFF 		bl	st_clust
 8423 01e0 D7F85032 		ldr	r3, [r7, #592]
 8424 01e4 0122     		movs	r2, #1
 8425 01e6 1A71     		strb	r2, [r3, #4]
 8426              	.L659:
 8427 01e8 97F87F32 		ldrb	r3, [r7, #639]	@ zero_extendqisi2
 8428 01ec 002B     		cmp	r3, #0
 8429 01ee 13D1     		bne	.L654
 8430 01f0 07F51473 		add	r3, r7, #592
 8431 01f4 1846     		mov	r0, r3
 8432 01f6 FFF7FEFF 		bl	dir_remove
 8433 01fa 0346     		mov	r3, r0
ARM GAS  /var/folders/d2/nstgp4h54kz7g1l847x_b8wc0000gn/T//ccrhfnpm.s 			page 149


 8434 01fc 87F87F32 		strb	r3, [r7, #639]
 8435 0200 97F87F32 		ldrb	r3, [r7, #639]	@ zero_extendqisi2
 8436 0204 002B     		cmp	r3, #0
 8437 0206 07D1     		bne	.L654
 8438 0208 D7F85032 		ldr	r3, [r7, #592]
 8439 020c 1846     		mov	r0, r3
 8440 020e FFF7FEFF 		bl	sync_fs
 8441 0212 0346     		mov	r3, r0
 8442 0214 87F87F32 		strb	r3, [r7, #639]
 8443              	.L654:
 8444 0218 97F87F32 		ldrb	r3, [r7, #639]	@ zero_extendqisi2
 8445 021c 1846     		mov	r0, r3
 8446 021e 07F52177 		add	r7, r7, #644
 8447 0222 BD46     		mov	sp, r7
 8448              		@ sp needed
 8449 0224 90BD     		pop	{r4, r7, pc}
 8450              		.size	f_rename, .-f_rename
 8451              		.section	.text.f_getlabel,"ax",%progbits
 8452              		.align	1
 8453              		.global	f_getlabel
 8454              		.syntax unified
 8455              		.thumb
 8456              		.thumb_func
 8457              		.fpu fpv4-sp-d16
 8458              		.type	f_getlabel, %function
 8459              	f_getlabel:
 8460              		@ args = 0, pretend = 0, frame = 64
 8461              		@ frame_needed = 1, uses_anonymous_args = 0
 8462 0000 80B5     		push	{r7, lr}
 8463 0002 90B0     		sub	sp, sp, #64
 8464 0004 00AF     		add	r7, sp, #0
 8465 0006 F860     		str	r0, [r7, #12]
 8466 0008 B960     		str	r1, [r7, #8]
 8467 000a 7A60     		str	r2, [r7, #4]
 8468 000c 07F10C01 		add	r1, r7, #12
 8469 0010 07F11003 		add	r3, r7, #16
 8470 0014 0022     		movs	r2, #0
 8471 0016 1846     		mov	r0, r3
 8472 0018 FFF7FEFF 		bl	find_volume
 8473 001c 0346     		mov	r3, r0
 8474 001e 87F83F30 		strb	r3, [r7, #63]
 8475 0022 97F83F30 		ldrb	r3, [r7, #63]	@ zero_extendqisi2
 8476 0026 002B     		cmp	r3, #0
 8477 0028 43D1     		bne	.L666
 8478 002a BB68     		ldr	r3, [r7, #8]
 8479 002c 002B     		cmp	r3, #0
 8480 002e 40D0     		beq	.L666
 8481 0030 0023     		movs	r3, #0
 8482 0032 BB61     		str	r3, [r7, #24]
 8483 0034 07F11003 		add	r3, r7, #16
 8484 0038 0021     		movs	r1, #0
 8485 003a 1846     		mov	r0, r3
 8486 003c FFF7FEFF 		bl	dir_sdi
 8487 0040 0346     		mov	r3, r0
 8488 0042 87F83F30 		strb	r3, [r7, #63]
 8489 0046 97F83F30 		ldrb	r3, [r7, #63]	@ zero_extendqisi2
 8490 004a 002B     		cmp	r3, #0
ARM GAS  /var/folders/d2/nstgp4h54kz7g1l847x_b8wc0000gn/T//ccrhfnpm.s 			page 150


 8491 004c 31D1     		bne	.L666
 8492 004e 07F11003 		add	r3, r7, #16
 8493 0052 0121     		movs	r1, #1
 8494 0054 1846     		mov	r0, r3
 8495 0056 FFF7FEFF 		bl	dir_read
 8496 005a 0346     		mov	r3, r0
 8497 005c 87F83F30 		strb	r3, [r7, #63]
 8498 0060 97F83F30 		ldrb	r3, [r7, #63]	@ zero_extendqisi2
 8499 0064 002B     		cmp	r3, #0
 8500 0066 1AD1     		bne	.L667
 8501 0068 7B6A     		ldr	r3, [r7, #36]
 8502 006a 0B22     		movs	r2, #11
 8503 006c 1946     		mov	r1, r3
 8504 006e B868     		ldr	r0, [r7, #8]
 8505 0070 FFF7FEFF 		bl	mem_cpy
 8506 0074 0B23     		movs	r3, #11
 8507 0076 BB63     		str	r3, [r7, #56]
 8508              	.L669:
 8509 0078 BA68     		ldr	r2, [r7, #8]
 8510 007a BB6B     		ldr	r3, [r7, #56]
 8511 007c 1344     		add	r3, r3, r2
 8512 007e 0022     		movs	r2, #0
 8513 0080 1A70     		strb	r2, [r3]
 8514 0082 BB6B     		ldr	r3, [r7, #56]
 8515 0084 002B     		cmp	r3, #0
 8516 0086 09D0     		beq	.L674
 8517 0088 BB6B     		ldr	r3, [r7, #56]
 8518 008a 013B     		subs	r3, r3, #1
 8519 008c BB63     		str	r3, [r7, #56]
 8520 008e BA68     		ldr	r2, [r7, #8]
 8521 0090 BB6B     		ldr	r3, [r7, #56]
 8522 0092 1344     		add	r3, r3, r2
 8523 0094 1B78     		ldrb	r3, [r3]	@ zero_extendqisi2
 8524 0096 202B     		cmp	r3, #32
 8525 0098 EED0     		beq	.L669
 8526 009a 00E0     		b	.L667
 8527              	.L674:
 8528 009c 00BF     		nop
 8529              	.L667:
 8530 009e 97F83F30 		ldrb	r3, [r7, #63]	@ zero_extendqisi2
 8531 00a2 042B     		cmp	r3, #4
 8532 00a4 05D1     		bne	.L666
 8533 00a6 BB68     		ldr	r3, [r7, #8]
 8534 00a8 0022     		movs	r2, #0
 8535 00aa 1A70     		strb	r2, [r3]
 8536 00ac 0023     		movs	r3, #0
 8537 00ae 87F83F30 		strb	r3, [r7, #63]
 8538              	.L666:
 8539 00b2 97F83F30 		ldrb	r3, [r7, #63]	@ zero_extendqisi2
 8540 00b6 002B     		cmp	r3, #0
 8541 00b8 37D1     		bne	.L670
 8542 00ba 7B68     		ldr	r3, [r7, #4]
 8543 00bc 002B     		cmp	r3, #0
 8544 00be 34D0     		beq	.L670
 8545 00c0 3A69     		ldr	r2, [r7, #16]
 8546 00c2 3B69     		ldr	r3, [r7, #16]
 8547 00c4 DB69     		ldr	r3, [r3, #28]
ARM GAS  /var/folders/d2/nstgp4h54kz7g1l847x_b8wc0000gn/T//ccrhfnpm.s 			page 151


 8548 00c6 1946     		mov	r1, r3
 8549 00c8 1046     		mov	r0, r2
 8550 00ca FFF7FEFF 		bl	move_window
 8551 00ce 0346     		mov	r3, r0
 8552 00d0 87F83F30 		strb	r3, [r7, #63]
 8553 00d4 97F83F30 		ldrb	r3, [r7, #63]	@ zero_extendqisi2
 8554 00d8 002B     		cmp	r3, #0
 8555 00da 26D1     		bne	.L670
 8556 00dc 3B69     		ldr	r3, [r7, #16]
 8557 00de 1B78     		ldrb	r3, [r3]	@ zero_extendqisi2
 8558 00e0 032B     		cmp	r3, #3
 8559 00e2 01D1     		bne	.L671
 8560 00e4 4323     		movs	r3, #67
 8561 00e6 00E0     		b	.L672
 8562              	.L671:
 8563 00e8 2723     		movs	r3, #39
 8564              	.L672:
 8565 00ea 7B63     		str	r3, [r7, #52]
 8566 00ec 3A69     		ldr	r2, [r7, #16]
 8567 00ee 7B6B     		ldr	r3, [r7, #52]
 8568 00f0 3033     		adds	r3, r3, #48
 8569 00f2 1344     		add	r3, r3, r2
 8570 00f4 0333     		adds	r3, r3, #3
 8571 00f6 1B78     		ldrb	r3, [r3]	@ zero_extendqisi2
 8572 00f8 1A06     		lsls	r2, r3, #24
 8573 00fa 3969     		ldr	r1, [r7, #16]
 8574 00fc 7B6B     		ldr	r3, [r7, #52]
 8575 00fe 3033     		adds	r3, r3, #48
 8576 0100 0B44     		add	r3, r3, r1
 8577 0102 0233     		adds	r3, r3, #2
 8578 0104 1B78     		ldrb	r3, [r3]	@ zero_extendqisi2
 8579 0106 1B04     		lsls	r3, r3, #16
 8580 0108 1343     		orrs	r3, r3, r2
 8581 010a 3969     		ldr	r1, [r7, #16]
 8582 010c 7A6B     		ldr	r2, [r7, #52]
 8583 010e 3032     		adds	r2, r2, #48
 8584 0110 0A44     		add	r2, r2, r1
 8585 0112 0132     		adds	r2, r2, #1
 8586 0114 1278     		ldrb	r2, [r2]	@ zero_extendqisi2
 8587 0116 1202     		lsls	r2, r2, #8
 8588 0118 1343     		orrs	r3, r3, r2
 8589 011a 3969     		ldr	r1, [r7, #16]
 8590 011c 7A6B     		ldr	r2, [r7, #52]
 8591 011e 0A44     		add	r2, r2, r1
 8592 0120 3032     		adds	r2, r2, #48
 8593 0122 1278     		ldrb	r2, [r2]	@ zero_extendqisi2
 8594 0124 1A43     		orrs	r2, r2, r3
 8595 0126 7B68     		ldr	r3, [r7, #4]
 8596 0128 1A60     		str	r2, [r3]
 8597              	.L670:
 8598 012a 97F83F30 		ldrb	r3, [r7, #63]	@ zero_extendqisi2
 8599 012e 1846     		mov	r0, r3
 8600 0130 4037     		adds	r7, r7, #64
 8601 0132 BD46     		mov	sp, r7
 8602              		@ sp needed
 8603 0134 80BD     		pop	{r7, pc}
 8604              		.size	f_getlabel, .-f_getlabel
ARM GAS  /var/folders/d2/nstgp4h54kz7g1l847x_b8wc0000gn/T//ccrhfnpm.s 			page 152


 8605              		.section	.rodata
 8606 0013 00       		.align	2
 8607              	.LC2:
 8608 0014 222A2B2C 		.ascii	"\"*+,.:;<=>?[]|\177\000"
 8608      2E3A3B3C 
 8608      3D3E3F5B 
 8608      5D7C7F00 
 8609              		.section	.text.f_setlabel,"ax",%progbits
 8610              		.align	1
 8611              		.global	f_setlabel
 8612              		.syntax unified
 8613              		.thumb
 8614              		.thumb_func
 8615              		.fpu fpv4-sp-d16
 8616              		.type	f_setlabel, %function
 8617              	f_setlabel:
 8618              		@ args = 0, pretend = 0, frame = 80
 8619              		@ frame_needed = 1, uses_anonymous_args = 0
 8620 0000 80B5     		push	{r7, lr}
 8621 0002 94B0     		sub	sp, sp, #80
 8622 0004 00AF     		add	r7, sp, #0
 8623 0006 7860     		str	r0, [r7, #4]
 8624 0008 391D     		adds	r1, r7, #4
 8625 000a 07F11403 		add	r3, r7, #20
 8626 000e 0122     		movs	r2, #1
 8627 0010 1846     		mov	r0, r3
 8628 0012 FFF7FEFF 		bl	find_volume
 8629 0016 0346     		mov	r3, r0
 8630 0018 87F84F30 		strb	r3, [r7, #79]
 8631 001c 97F84F30 		ldrb	r3, [r7, #79]	@ zero_extendqisi2
 8632 0020 002B     		cmp	r3, #0
 8633 0022 02D0     		beq	.L676
 8634 0024 97F84F30 		ldrb	r3, [r7, #79]	@ zero_extendqisi2
 8635 0028 1BE1     		b	.L696
 8636              	.L676:
 8637 002a 0023     		movs	r3, #0
 8638 002c 3B72     		strb	r3, [r7, #8]
 8639 002e 0023     		movs	r3, #0
 8640 0030 3B64     		str	r3, [r7, #64]
 8641 0032 02E0     		b	.L678
 8642              	.L679:
 8643 0034 3B6C     		ldr	r3, [r7, #64]
 8644 0036 0133     		adds	r3, r3, #1
 8645 0038 3B64     		str	r3, [r7, #64]
 8646              	.L678:
 8647 003a 7A68     		ldr	r2, [r7, #4]
 8648 003c 3B6C     		ldr	r3, [r7, #64]
 8649 003e 1344     		add	r3, r3, r2
 8650 0040 1B78     		ldrb	r3, [r3]	@ zero_extendqisi2
 8651 0042 002B     		cmp	r3, #0
 8652 0044 F6D1     		bne	.L679
 8653 0046 02E0     		b	.L680
 8654              	.L682:
 8655 0048 3B6C     		ldr	r3, [r7, #64]
 8656 004a 013B     		subs	r3, r3, #1
 8657 004c 3B64     		str	r3, [r7, #64]
 8658              	.L680:
ARM GAS  /var/folders/d2/nstgp4h54kz7g1l847x_b8wc0000gn/T//ccrhfnpm.s 			page 153


 8659 004e 3B6C     		ldr	r3, [r7, #64]
 8660 0050 002B     		cmp	r3, #0
 8661 0052 06D0     		beq	.L681
 8662 0054 7A68     		ldr	r2, [r7, #4]
 8663 0056 3B6C     		ldr	r3, [r7, #64]
 8664 0058 013B     		subs	r3, r3, #1
 8665 005a 1344     		add	r3, r3, r2
 8666 005c 1B78     		ldrb	r3, [r3]	@ zero_extendqisi2
 8667 005e 202B     		cmp	r3, #32
 8668 0060 F2D0     		beq	.L682
 8669              	.L681:
 8670 0062 3B6C     		ldr	r3, [r7, #64]
 8671 0064 002B     		cmp	r3, #0
 8672 0066 5AD0     		beq	.L683
 8673 0068 0023     		movs	r3, #0
 8674 006a 7B64     		str	r3, [r7, #68]
 8675 006c 7B6C     		ldr	r3, [r7, #68]
 8676 006e BB64     		str	r3, [r7, #72]
 8677              	.L689:
 8678 0070 7A68     		ldr	r2, [r7, #4]
 8679 0072 BB6C     		ldr	r3, [r7, #72]
 8680 0074 591C     		adds	r1, r3, #1
 8681 0076 B964     		str	r1, [r7, #72]
 8682 0078 1344     		add	r3, r3, r2
 8683 007a 1B78     		ldrb	r3, [r3]	@ zero_extendqisi2
 8684 007c FB87     		strh	r3, [r7, #62]	@ movhi
 8685 007e FB8F     		ldrh	r3, [r7, #62]
 8686 0080 0121     		movs	r1, #1
 8687 0082 1846     		mov	r0, r3
 8688 0084 FFF7FEFF 		bl	ff_convert
 8689 0088 0346     		mov	r3, r0
 8690 008a 1846     		mov	r0, r3
 8691 008c FFF7FEFF 		bl	ff_wtoupper
 8692 0090 0346     		mov	r3, r0
 8693 0092 0021     		movs	r1, #0
 8694 0094 1846     		mov	r0, r3
 8695 0096 FFF7FEFF 		bl	ff_convert
 8696 009a 0346     		mov	r3, r0
 8697 009c FB87     		strh	r3, [r7, #62]	@ movhi
 8698 009e FB8F     		ldrh	r3, [r7, #62]
 8699 00a0 002B     		cmp	r3, #0
 8700 00a2 10D0     		beq	.L684
 8701 00a4 FB8F     		ldrh	r3, [r7, #62]
 8702 00a6 1946     		mov	r1, r3
 8703 00a8 7048     		ldr	r0, .L697
 8704 00aa FFF7FEFF 		bl	chk_chr
 8705 00ae 0346     		mov	r3, r0
 8706 00b0 002B     		cmp	r3, #0
 8707 00b2 08D1     		bne	.L684
 8708 00b4 FB8F     		ldrh	r3, [r7, #62]
 8709 00b6 FF2B     		cmp	r3, #255
 8710 00b8 01D9     		bls	.L685
 8711 00ba 0A22     		movs	r2, #10
 8712 00bc 00E0     		b	.L686
 8713              	.L685:
 8714 00be 0B22     		movs	r2, #11
 8715              	.L686:
ARM GAS  /var/folders/d2/nstgp4h54kz7g1l847x_b8wc0000gn/T//ccrhfnpm.s 			page 154


 8716 00c0 7B6C     		ldr	r3, [r7, #68]
 8717 00c2 9A42     		cmp	r2, r3
 8718 00c4 01D8     		bhi	.L687
 8719              	.L684:
 8720 00c6 0623     		movs	r3, #6
 8721 00c8 CBE0     		b	.L696
 8722              	.L687:
 8723 00ca FB8F     		ldrh	r3, [r7, #62]
 8724 00cc FF2B     		cmp	r3, #255
 8725 00ce 0BD9     		bls	.L688
 8726 00d0 FB8F     		ldrh	r3, [r7, #62]
 8727 00d2 1B0A     		lsrs	r3, r3, #8
 8728 00d4 99B2     		uxth	r1, r3
 8729 00d6 7B6C     		ldr	r3, [r7, #68]
 8730 00d8 5A1C     		adds	r2, r3, #1
 8731 00da 7A64     		str	r2, [r7, #68]
 8732 00dc CAB2     		uxtb	r2, r1
 8733 00de 07F15001 		add	r1, r7, #80
 8734 00e2 0B44     		add	r3, r3, r1
 8735 00e4 03F8482C 		strb	r2, [r3, #-72]
 8736              	.L688:
 8737 00e8 7B6C     		ldr	r3, [r7, #68]
 8738 00ea 5A1C     		adds	r2, r3, #1
 8739 00ec 7A64     		str	r2, [r7, #68]
 8740 00ee FA8F     		ldrh	r2, [r7, #62]	@ movhi
 8741 00f0 D2B2     		uxtb	r2, r2
 8742 00f2 07F15001 		add	r1, r7, #80
 8743 00f6 0B44     		add	r3, r3, r1
 8744 00f8 03F8482C 		strb	r2, [r3, #-72]
 8745 00fc BA6C     		ldr	r2, [r7, #72]
 8746 00fe 3B6C     		ldr	r3, [r7, #64]
 8747 0100 9A42     		cmp	r2, r3
 8748 0102 B5D3     		bcc	.L689
 8749 0104 08E0     		b	.L690
 8750              	.L691:
 8751 0106 7B6C     		ldr	r3, [r7, #68]
 8752 0108 5A1C     		adds	r2, r3, #1
 8753 010a 7A64     		str	r2, [r7, #68]
 8754 010c 07F15002 		add	r2, r7, #80
 8755 0110 1344     		add	r3, r3, r2
 8756 0112 2022     		movs	r2, #32
 8757 0114 03F8482C 		strb	r2, [r3, #-72]
 8758              	.L690:
 8759 0118 7B6C     		ldr	r3, [r7, #68]
 8760 011a 0A2B     		cmp	r3, #10
 8761 011c F3D9     		bls	.L691
 8762              	.L683:
 8763 011e 0023     		movs	r3, #0
 8764 0120 FB61     		str	r3, [r7, #28]
 8765 0122 07F11403 		add	r3, r7, #20
 8766 0126 0021     		movs	r1, #0
 8767 0128 1846     		mov	r0, r3
 8768 012a FFF7FEFF 		bl	dir_sdi
 8769 012e 0346     		mov	r3, r0
 8770 0130 87F84F30 		strb	r3, [r7, #79]
 8771 0134 97F84F30 		ldrb	r3, [r7, #79]	@ zero_extendqisi2
 8772 0138 002B     		cmp	r3, #0
ARM GAS  /var/folders/d2/nstgp4h54kz7g1l847x_b8wc0000gn/T//ccrhfnpm.s 			page 155


 8773 013a 40F09080 		bne	.L692
 8774 013e 07F11403 		add	r3, r7, #20
 8775 0142 0121     		movs	r1, #1
 8776 0144 1846     		mov	r0, r3
 8777 0146 FFF7FEFF 		bl	dir_read
 8778 014a 0346     		mov	r3, r0
 8779 014c 87F84F30 		strb	r3, [r7, #79]
 8780 0150 97F84F30 		ldrb	r3, [r7, #79]	@ zero_extendqisi2
 8781 0154 002B     		cmp	r3, #0
 8782 0156 34D1     		bne	.L693
 8783 0158 3B7A     		ldrb	r3, [r7, #8]	@ zero_extendqisi2
 8784 015a 002B     		cmp	r3, #0
 8785 015c 23D0     		beq	.L694
 8786 015e BB6A     		ldr	r3, [r7, #40]
 8787 0160 07F10801 		add	r1, r7, #8
 8788 0164 0B22     		movs	r2, #11
 8789 0166 1846     		mov	r0, r3
 8790 0168 FFF7FEFF 		bl	mem_cpy
 8791 016c FFF7FEFF 		bl	get_fattime
 8792 0170 B863     		str	r0, [r7, #56]
 8793 0172 BB6A     		ldr	r3, [r7, #40]
 8794 0174 1633     		adds	r3, r3, #22
 8795 0176 BA6B     		ldr	r2, [r7, #56]
 8796 0178 D2B2     		uxtb	r2, r2
 8797 017a 1A70     		strb	r2, [r3]
 8798 017c BB6B     		ldr	r3, [r7, #56]
 8799 017e 9BB2     		uxth	r3, r3
 8800 0180 1B0A     		lsrs	r3, r3, #8
 8801 0182 9AB2     		uxth	r2, r3
 8802 0184 BB6A     		ldr	r3, [r7, #40]
 8803 0186 1733     		adds	r3, r3, #23
 8804 0188 D2B2     		uxtb	r2, r2
 8805 018a 1A70     		strb	r2, [r3]
 8806 018c BB6B     		ldr	r3, [r7, #56]
 8807 018e 1A0C     		lsrs	r2, r3, #16
 8808 0190 BB6A     		ldr	r3, [r7, #40]
 8809 0192 1833     		adds	r3, r3, #24
 8810 0194 D2B2     		uxtb	r2, r2
 8811 0196 1A70     		strb	r2, [r3]
 8812 0198 BB6B     		ldr	r3, [r7, #56]
 8813 019a 1A0E     		lsrs	r2, r3, #24
 8814 019c BB6A     		ldr	r3, [r7, #40]
 8815 019e 1933     		adds	r3, r3, #25
 8816 01a0 D2B2     		uxtb	r2, r2
 8817 01a2 1A70     		strb	r2, [r3]
 8818 01a4 02E0     		b	.L695
 8819              	.L694:
 8820 01a6 BB6A     		ldr	r3, [r7, #40]
 8821 01a8 E522     		movs	r2, #229
 8822 01aa 1A70     		strb	r2, [r3]
 8823              	.L695:
 8824 01ac 7B69     		ldr	r3, [r7, #20]
 8825 01ae 0122     		movs	r2, #1
 8826 01b0 1A71     		strb	r2, [r3, #4]
 8827 01b2 7B69     		ldr	r3, [r7, #20]
 8828 01b4 1846     		mov	r0, r3
 8829 01b6 FFF7FEFF 		bl	sync_fs
ARM GAS  /var/folders/d2/nstgp4h54kz7g1l847x_b8wc0000gn/T//ccrhfnpm.s 			page 156


 8830 01ba 0346     		mov	r3, r0
 8831 01bc 87F84F30 		strb	r3, [r7, #79]
 8832 01c0 4DE0     		b	.L692
 8833              	.L693:
 8834 01c2 97F84F30 		ldrb	r3, [r7, #79]	@ zero_extendqisi2
 8835 01c6 042B     		cmp	r3, #4
 8836 01c8 49D1     		bne	.L692
 8837 01ca 0023     		movs	r3, #0
 8838 01cc 87F84F30 		strb	r3, [r7, #79]
 8839 01d0 3B7A     		ldrb	r3, [r7, #8]	@ zero_extendqisi2
 8840 01d2 002B     		cmp	r3, #0
 8841 01d4 43D0     		beq	.L692
 8842 01d6 07F11403 		add	r3, r7, #20
 8843 01da 0121     		movs	r1, #1
 8844 01dc 1846     		mov	r0, r3
 8845 01de FFF7FEFF 		bl	dir_alloc
 8846 01e2 0346     		mov	r3, r0
 8847 01e4 87F84F30 		strb	r3, [r7, #79]
 8848 01e8 97F84F30 		ldrb	r3, [r7, #79]	@ zero_extendqisi2
 8849 01ec 002B     		cmp	r3, #0
 8850 01ee 36D1     		bne	.L692
 8851 01f0 BB6A     		ldr	r3, [r7, #40]
 8852 01f2 2022     		movs	r2, #32
 8853 01f4 0021     		movs	r1, #0
 8854 01f6 1846     		mov	r0, r3
 8855 01f8 FFF7FEFF 		bl	mem_set
 8856 01fc BB6A     		ldr	r3, [r7, #40]
 8857 01fe 07F10801 		add	r1, r7, #8
 8858 0202 0B22     		movs	r2, #11
 8859 0204 1846     		mov	r0, r3
 8860 0206 FFF7FEFF 		bl	mem_cpy
 8861 020a BB6A     		ldr	r3, [r7, #40]
 8862 020c 0B33     		adds	r3, r3, #11
 8863 020e 0822     		movs	r2, #8
 8864 0210 1A70     		strb	r2, [r3]
 8865 0212 FFF7FEFF 		bl	get_fattime
 8866 0216 B863     		str	r0, [r7, #56]
 8867 0218 BB6A     		ldr	r3, [r7, #40]
 8868 021a 1633     		adds	r3, r3, #22
 8869 021c BA6B     		ldr	r2, [r7, #56]
 8870 021e D2B2     		uxtb	r2, r2
 8871 0220 1A70     		strb	r2, [r3]
 8872 0222 BB6B     		ldr	r3, [r7, #56]
 8873 0224 9BB2     		uxth	r3, r3
 8874 0226 1B0A     		lsrs	r3, r3, #8
 8875 0228 9AB2     		uxth	r2, r3
 8876 022a BB6A     		ldr	r3, [r7, #40]
 8877 022c 1733     		adds	r3, r3, #23
 8878 022e D2B2     		uxtb	r2, r2
 8879 0230 1A70     		strb	r2, [r3]
 8880 0232 BB6B     		ldr	r3, [r7, #56]
 8881 0234 1A0C     		lsrs	r2, r3, #16
 8882 0236 BB6A     		ldr	r3, [r7, #40]
 8883 0238 1833     		adds	r3, r3, #24
 8884 023a D2B2     		uxtb	r2, r2
 8885 023c 1A70     		strb	r2, [r3]
 8886 023e BB6B     		ldr	r3, [r7, #56]
ARM GAS  /var/folders/d2/nstgp4h54kz7g1l847x_b8wc0000gn/T//ccrhfnpm.s 			page 157


 8887 0240 1A0E     		lsrs	r2, r3, #24
 8888 0242 BB6A     		ldr	r3, [r7, #40]
 8889 0244 1933     		adds	r3, r3, #25
 8890 0246 D2B2     		uxtb	r2, r2
 8891 0248 1A70     		strb	r2, [r3]
 8892 024a 7B69     		ldr	r3, [r7, #20]
 8893 024c 0122     		movs	r2, #1
 8894 024e 1A71     		strb	r2, [r3, #4]
 8895 0250 7B69     		ldr	r3, [r7, #20]
 8896 0252 1846     		mov	r0, r3
 8897 0254 FFF7FEFF 		bl	sync_fs
 8898 0258 0346     		mov	r3, r0
 8899 025a 87F84F30 		strb	r3, [r7, #79]
 8900              	.L692:
 8901 025e 97F84F30 		ldrb	r3, [r7, #79]	@ zero_extendqisi2
 8902              	.L696:
 8903 0262 1846     		mov	r0, r3
 8904 0264 5037     		adds	r7, r7, #80
 8905 0266 BD46     		mov	sp, r7
 8906              		@ sp needed
 8907 0268 80BD     		pop	{r7, pc}
 8908              	.L698:
 8909 026a 00BF     		.align	2
 8910              	.L697:
 8911 026c 14000000 		.word	.LC2
 8912              		.size	f_setlabel, .-f_setlabel
 8913              		.section	.rodata
 8914              		.align	2
 8915              	.LC3:
 8916 0024 EBFE904D 		.ascii	"\353\376\220MSDOS5.0\000"
 8916      53444F53 
 8916      352E3000 
 8917              		.align	2
 8918              	.LC4:
 8919 0030 4E4F204E 		.ascii	"NO NAME    FAT32   \000"
 8919      414D4520 
 8919      20202046 
 8919      41543332 
 8919      20202000 
 8920              		.align	2
 8921              	.LC5:
 8922 0044 4E4F204E 		.ascii	"NO NAME    FAT     \000"
 8922      414D4520 
 8922      20202046 
 8922      41542020 
 8922      20202000 
 8923              		.section	.text.f_mkfs,"ax",%progbits
 8924              		.align	1
 8925              		.global	f_mkfs
 8926              		.syntax unified
 8927              		.thumb
 8928              		.thumb_func
 8929              		.fpu fpv4-sp-d16
 8930              		.type	f_mkfs, %function
 8931              	f_mkfs:
 8932              		@ args = 0, pretend = 0, frame = 96
 8933              		@ frame_needed = 1, uses_anonymous_args = 0
ARM GAS  /var/folders/d2/nstgp4h54kz7g1l847x_b8wc0000gn/T//ccrhfnpm.s 			page 158


 8934 0000 80B5     		push	{r7, lr}
 8935 0002 98B0     		sub	sp, sp, #96
 8936 0004 00AF     		add	r7, sp, #0
 8937 0006 F860     		str	r0, [r7, #12]
 8938 0008 0B46     		mov	r3, r1
 8939 000a 7A60     		str	r2, [r7, #4]
 8940 000c FB72     		strb	r3, [r7, #11]
 8941 000e 07F10C03 		add	r3, r7, #12
 8942 0012 1846     		mov	r0, r3
 8943 0014 FFF7FEFF 		bl	get_ldnumber
 8944 0018 7864     		str	r0, [r7, #68]
 8945 001a 7B6C     		ldr	r3, [r7, #68]
 8946 001c 002B     		cmp	r3, #0
 8947 001e 02DA     		bge	.L700
 8948 0020 0B23     		movs	r3, #11
 8949 0022 00F0A2BC 		b	.L763
 8950              	.L700:
 8951 0026 FB7A     		ldrb	r3, [r7, #11]	@ zero_extendqisi2
 8952 0028 012B     		cmp	r3, #1
 8953 002a 02D9     		bls	.L702
 8954 002c 1323     		movs	r3, #19
 8955 002e 00F09CBC 		b	.L763
 8956              	.L702:
 8957 0032 7B68     		ldr	r3, [r7, #4]
 8958 0034 5A1E     		subs	r2, r3, #1
 8959 0036 7B68     		ldr	r3, [r7, #4]
 8960 0038 1340     		ands	r3, r3, r2
 8961 003a 002B     		cmp	r3, #0
 8962 003c 02D0     		beq	.L703
 8963 003e 1323     		movs	r3, #19
 8964 0040 00F093BC 		b	.L763
 8965              	.L703:
 8966 0044 9E4A     		ldr	r2, .L765
 8967 0046 7B6C     		ldr	r3, [r7, #68]
 8968 0048 52F82330 		ldr	r3, [r2, r3, lsl #2]
 8969 004c 3B64     		str	r3, [r7, #64]
 8970 004e 3B6C     		ldr	r3, [r7, #64]
 8971 0050 002B     		cmp	r3, #0
 8972 0052 02D1     		bne	.L704
 8973 0054 0C23     		movs	r3, #12
 8974 0056 00F088BC 		b	.L763
 8975              	.L704:
 8976 005a 3B6C     		ldr	r3, [r7, #64]
 8977 005c 0022     		movs	r2, #0
 8978 005e 1A70     		strb	r2, [r3]
 8979 0060 7B6C     		ldr	r3, [r7, #68]
 8980 0062 87F83F30 		strb	r3, [r7, #63]
 8981 0066 0023     		movs	r3, #0
 8982 0068 87F83E30 		strb	r3, [r7, #62]
 8983 006c 97F83F30 		ldrb	r3, [r7, #63]	@ zero_extendqisi2
 8984 0070 1846     		mov	r0, r3
 8985 0072 FFF7FEFF 		bl	disk_initialize
 8986 0076 0346     		mov	r3, r0
 8987 0078 87F83D30 		strb	r3, [r7, #61]
 8988 007c 97F83D30 		ldrb	r3, [r7, #61]	@ zero_extendqisi2
 8989 0080 03F00103 		and	r3, r3, #1
 8990 0084 002B     		cmp	r3, #0
ARM GAS  /var/folders/d2/nstgp4h54kz7g1l847x_b8wc0000gn/T//ccrhfnpm.s 			page 159


 8991 0086 02D0     		beq	.L705
 8992 0088 0323     		movs	r3, #3
 8993 008a 00F06EBC 		b	.L763
 8994              	.L705:
 8995 008e 97F83D30 		ldrb	r3, [r7, #61]	@ zero_extendqisi2
 8996 0092 03F00403 		and	r3, r3, #4
 8997 0096 002B     		cmp	r3, #0
 8998 0098 02D0     		beq	.L706
 8999 009a 0A23     		movs	r3, #10
 9000 009c 00F065BC 		b	.L763
 9001              	.L706:
 9002 00a0 07F11802 		add	r2, r7, #24
 9003 00a4 97F83F30 		ldrb	r3, [r7, #63]	@ zero_extendqisi2
 9004 00a8 0121     		movs	r1, #1
 9005 00aa 1846     		mov	r0, r3
 9006 00ac FFF7FEFF 		bl	disk_ioctl
 9007 00b0 0346     		mov	r3, r0
 9008 00b2 002B     		cmp	r3, #0
 9009 00b4 02D1     		bne	.L707
 9010 00b6 BB69     		ldr	r3, [r7, #24]
 9011 00b8 7F2B     		cmp	r3, #127
 9012 00ba 02D8     		bhi	.L708
 9013              	.L707:
 9014 00bc 0123     		movs	r3, #1
 9015 00be 00F054BC 		b	.L763
 9016              	.L708:
 9017 00c2 FB7A     		ldrb	r3, [r7, #11]	@ zero_extendqisi2
 9018 00c4 002B     		cmp	r3, #0
 9019 00c6 01D0     		beq	.L709
 9020 00c8 0023     		movs	r3, #0
 9021 00ca 00E0     		b	.L710
 9022              	.L709:
 9023 00cc 3F23     		movs	r3, #63
 9024              	.L710:
 9025 00ce BB63     		str	r3, [r7, #56]
 9026 00d0 BA69     		ldr	r2, [r7, #24]
 9027 00d2 BB6B     		ldr	r3, [r7, #56]
 9028 00d4 D31A     		subs	r3, r2, r3
 9029 00d6 BB61     		str	r3, [r7, #24]
 9030 00d8 7B68     		ldr	r3, [r7, #4]
 9031 00da 002B     		cmp	r3, #0
 9032 00dc 18D1     		bne	.L711
 9033 00de BB69     		ldr	r3, [r7, #24]
 9034 00e0 784A     		ldr	r2, .L765+4
 9035 00e2 A2FB0323 		umull	r2, r3, r2, r3
 9036 00e6 DB09     		lsrs	r3, r3, #7
 9037 00e8 7B63     		str	r3, [r7, #52]
 9038 00ea 0023     		movs	r3, #0
 9039 00ec BB65     		str	r3, [r7, #88]
 9040 00ee 02E0     		b	.L712
 9041              	.L713:
 9042 00f0 BB6D     		ldr	r3, [r7, #88]
 9043 00f2 0133     		adds	r3, r3, #1
 9044 00f4 BB65     		str	r3, [r7, #88]
 9045              	.L712:
 9046 00f6 744A     		ldr	r2, .L765+8
 9047 00f8 BB6D     		ldr	r3, [r7, #88]
ARM GAS  /var/folders/d2/nstgp4h54kz7g1l847x_b8wc0000gn/T//ccrhfnpm.s 			page 160


 9048 00fa 32F81330 		ldrh	r3, [r2, r3, lsl #1]
 9049 00fe 1A46     		mov	r2, r3
 9050 0100 7B6B     		ldr	r3, [r7, #52]
 9051 0102 9342     		cmp	r3, r2
 9052 0104 F4D3     		bcc	.L713
 9053 0106 714A     		ldr	r2, .L765+12
 9054 0108 BB6D     		ldr	r3, [r7, #88]
 9055 010a 32F81330 		ldrh	r3, [r2, r3, lsl #1]
 9056 010e 7B60     		str	r3, [r7, #4]
 9057              	.L711:
 9058 0110 7B68     		ldr	r3, [r7, #4]
 9059 0112 5B0A     		lsrs	r3, r3, #9
 9060 0114 7B60     		str	r3, [r7, #4]
 9061 0116 7B68     		ldr	r3, [r7, #4]
 9062 0118 002B     		cmp	r3, #0
 9063 011a 01D1     		bne	.L714
 9064 011c 0123     		movs	r3, #1
 9065 011e 7B60     		str	r3, [r7, #4]
 9066              	.L714:
 9067 0120 7B68     		ldr	r3, [r7, #4]
 9068 0122 802B     		cmp	r3, #128
 9069 0124 01D9     		bls	.L715
 9070 0126 8023     		movs	r3, #128
 9071 0128 7B60     		str	r3, [r7, #4]
 9072              	.L715:
 9073 012a BA69     		ldr	r2, [r7, #24]
 9074 012c 7B68     		ldr	r3, [r7, #4]
 9075 012e B2FBF3F3 		udiv	r3, r2, r3
 9076 0132 FB62     		str	r3, [r7, #44]
 9077 0134 0123     		movs	r3, #1
 9078 0136 87F83330 		strb	r3, [r7, #51]
 9079 013a FB6A     		ldr	r3, [r7, #44]
 9080 013c 40F6F572 		movw	r2, #4085
 9081 0140 9342     		cmp	r3, r2
 9082 0142 02D9     		bls	.L716
 9083 0144 0223     		movs	r3, #2
 9084 0146 87F83330 		strb	r3, [r7, #51]
 9085              	.L716:
 9086 014a FB6A     		ldr	r3, [r7, #44]
 9087 014c 4FF6F572 		movw	r2, #65525
 9088 0150 9342     		cmp	r3, r2
 9089 0152 02D9     		bls	.L717
 9090 0154 0323     		movs	r3, #3
 9091 0156 87F83330 		strb	r3, [r7, #51]
 9092              	.L717:
 9093 015a 97F83330 		ldrb	r3, [r7, #51]	@ zero_extendqisi2
 9094 015e 032B     		cmp	r3, #3
 9095 0160 0AD1     		bne	.L718
 9096 0162 FB6A     		ldr	r3, [r7, #44]
 9097 0164 8233     		adds	r3, r3, #130
 9098 0166 9B00     		lsls	r3, r3, #2
 9099 0168 013B     		subs	r3, r3, #1
 9100 016a 5B0A     		lsrs	r3, r3, #9
 9101 016c FB64     		str	r3, [r7, #76]
 9102 016e 2023     		movs	r3, #32
 9103 0170 3B65     		str	r3, [r7, #80]
 9104 0172 0023     		movs	r3, #0
ARM GAS  /var/folders/d2/nstgp4h54kz7g1l847x_b8wc0000gn/T//ccrhfnpm.s 			page 161


 9105 0174 BB64     		str	r3, [r7, #72]
 9106 0176 18E0     		b	.L719
 9107              	.L718:
 9108 0178 97F83330 		ldrb	r3, [r7, #51]	@ zero_extendqisi2
 9109 017c 012B     		cmp	r3, #1
 9110 017e 07D1     		bne	.L720
 9111 0180 FA6A     		ldr	r2, [r7, #44]
 9112 0182 1346     		mov	r3, r2
 9113 0184 5B00     		lsls	r3, r3, #1
 9114 0186 1344     		add	r3, r3, r2
 9115 0188 0133     		adds	r3, r3, #1
 9116 018a 5B08     		lsrs	r3, r3, #1
 9117 018c 0333     		adds	r3, r3, #3
 9118 018e 02E0     		b	.L721
 9119              	.L720:
 9120 0190 FB6A     		ldr	r3, [r7, #44]
 9121 0192 0233     		adds	r3, r3, #2
 9122 0194 5B00     		lsls	r3, r3, #1
 9123              	.L721:
 9124 0196 FB64     		str	r3, [r7, #76]
 9125 0198 FB6C     		ldr	r3, [r7, #76]
 9126 019a 03F2FF13 		addw	r3, r3, #511
 9127 019e 5B0A     		lsrs	r3, r3, #9
 9128 01a0 FB64     		str	r3, [r7, #76]
 9129 01a2 0123     		movs	r3, #1
 9130 01a4 3B65     		str	r3, [r7, #80]
 9131 01a6 2023     		movs	r3, #32
 9132 01a8 BB64     		str	r3, [r7, #72]
 9133              	.L719:
 9134 01aa BA6B     		ldr	r2, [r7, #56]
 9135 01ac 3B6D     		ldr	r3, [r7, #80]
 9136 01ae 1344     		add	r3, r3, r2
 9137 01b0 7B65     		str	r3, [r7, #84]
 9138 01b2 7A6D     		ldr	r2, [r7, #84]
 9139 01b4 FB6C     		ldr	r3, [r7, #76]
 9140 01b6 1344     		add	r3, r3, r2
 9141 01b8 BB62     		str	r3, [r7, #40]
 9142 01ba BA6A     		ldr	r2, [r7, #40]
 9143 01bc BB6C     		ldr	r3, [r7, #72]
 9144 01be 1344     		add	r3, r3, r2
 9145 01c0 7B62     		str	r3, [r7, #36]
 9146 01c2 7A6A     		ldr	r2, [r7, #36]
 9147 01c4 7B68     		ldr	r3, [r7, #4]
 9148 01c6 1A44     		add	r2, r2, r3
 9149 01c8 BB6B     		ldr	r3, [r7, #56]
 9150 01ca D21A     		subs	r2, r2, r3
 9151 01cc BB69     		ldr	r3, [r7, #24]
 9152 01ce 9A42     		cmp	r2, r3
 9153 01d0 01D9     		bls	.L722
 9154 01d2 0E23     		movs	r3, #14
 9155 01d4 C9E3     		b	.L763
 9156              	.L722:
 9157 01d6 07F11C02 		add	r2, r7, #28
 9158 01da 97F83F30 		ldrb	r3, [r7, #63]	@ zero_extendqisi2
 9159 01de 0321     		movs	r1, #3
 9160 01e0 1846     		mov	r0, r3
 9161 01e2 FFF7FEFF 		bl	disk_ioctl
ARM GAS  /var/folders/d2/nstgp4h54kz7g1l847x_b8wc0000gn/T//ccrhfnpm.s 			page 162


 9162 01e6 0346     		mov	r3, r0
 9163 01e8 002B     		cmp	r3, #0
 9164 01ea 06D1     		bne	.L723
 9165 01ec FB69     		ldr	r3, [r7, #28]
 9166 01ee 002B     		cmp	r3, #0
 9167 01f0 03D0     		beq	.L723
 9168 01f2 FB69     		ldr	r3, [r7, #28]
 9169 01f4 B3F5004F 		cmp	r3, #32768
 9170 01f8 01D9     		bls	.L724
 9171              	.L723:
 9172 01fa 0123     		movs	r3, #1
 9173 01fc FB61     		str	r3, [r7, #28]
 9174              	.L724:
 9175 01fe FA69     		ldr	r2, [r7, #28]
 9176 0200 7B6A     		ldr	r3, [r7, #36]
 9177 0202 1344     		add	r3, r3, r2
 9178 0204 5A1E     		subs	r2, r3, #1
 9179 0206 FB69     		ldr	r3, [r7, #28]
 9180 0208 5B42     		negs	r3, r3
 9181 020a 1340     		ands	r3, r3, r2
 9182 020c FB61     		str	r3, [r7, #28]
 9183 020e FA69     		ldr	r2, [r7, #28]
 9184 0210 7B6A     		ldr	r3, [r7, #36]
 9185 0212 D31A     		subs	r3, r2, r3
 9186 0214 FB61     		str	r3, [r7, #28]
 9187 0216 97F83330 		ldrb	r3, [r7, #51]	@ zero_extendqisi2
 9188 021a 032B     		cmp	r3, #3
 9189 021c 08D1     		bne	.L725
 9190 021e FB69     		ldr	r3, [r7, #28]
 9191 0220 3A6D     		ldr	r2, [r7, #80]
 9192 0222 1344     		add	r3, r3, r2
 9193 0224 3B65     		str	r3, [r7, #80]
 9194 0226 FB69     		ldr	r3, [r7, #28]
 9195 0228 7A6D     		ldr	r2, [r7, #84]
 9196 022a 1344     		add	r3, r3, r2
 9197 022c 7B65     		str	r3, [r7, #84]
 9198 022e 03E0     		b	.L726
 9199              	.L725:
 9200 0230 FB69     		ldr	r3, [r7, #28]
 9201 0232 FA6C     		ldr	r2, [r7, #76]
 9202 0234 1344     		add	r3, r3, r2
 9203 0236 FB64     		str	r3, [r7, #76]
 9204              	.L726:
 9205 0238 BA69     		ldr	r2, [r7, #24]
 9206 023a 3B6D     		ldr	r3, [r7, #80]
 9207 023c D21A     		subs	r2, r2, r3
 9208 023e FB6C     		ldr	r3, [r7, #76]
 9209 0240 D21A     		subs	r2, r2, r3
 9210 0242 BB6C     		ldr	r3, [r7, #72]
 9211 0244 D21A     		subs	r2, r2, r3
 9212 0246 7B68     		ldr	r3, [r7, #4]
 9213 0248 B2FBF3F3 		udiv	r3, r2, r3
 9214 024c FB62     		str	r3, [r7, #44]
 9215 024e 97F83330 		ldrb	r3, [r7, #51]	@ zero_extendqisi2
 9216 0252 022B     		cmp	r3, #2
 9217 0254 04D1     		bne	.L727
 9218 0256 FB6A     		ldr	r3, [r7, #44]
ARM GAS  /var/folders/d2/nstgp4h54kz7g1l847x_b8wc0000gn/T//ccrhfnpm.s 			page 163


 9219 0258 40F6F572 		movw	r2, #4085
 9220 025c 9342     		cmp	r3, r2
 9221 025e 08D9     		bls	.L728
 9222              	.L727:
 9223 0260 97F83330 		ldrb	r3, [r7, #51]	@ zero_extendqisi2
 9224 0264 032B     		cmp	r3, #3
 9225 0266 06D1     		bne	.L729
 9226 0268 FB6A     		ldr	r3, [r7, #44]
 9227 026a 4FF6F572 		movw	r2, #65525
 9228 026e 9342     		cmp	r3, r2
 9229 0270 01D8     		bhi	.L729
 9230              	.L728:
 9231 0272 0E23     		movs	r3, #14
 9232 0274 79E3     		b	.L763
 9233              	.L729:
 9234 0276 97F83330 		ldrb	r3, [r7, #51]	@ zero_extendqisi2
 9235 027a 032B     		cmp	r3, #3
 9236 027c 03D1     		bne	.L730
 9237 027e 0C23     		movs	r3, #12
 9238 0280 87F83130 		strb	r3, [r7, #49]
 9239 0284 14E0     		b	.L764
 9240              	.L730:
 9241 0286 97F83330 		ldrb	r3, [r7, #51]	@ zero_extendqisi2
 9242 028a 012B     		cmp	r3, #1
 9243 028c 07D1     		bne	.L732
 9244 028e BB69     		ldr	r3, [r7, #24]
 9245 0290 B3F5803F 		cmp	r3, #65536
 9246 0294 03D2     		bcs	.L732
 9247 0296 0123     		movs	r3, #1
 9248 0298 87F83130 		strb	r3, [r7, #49]
 9249 029c 08E0     		b	.L764
 9250              	.L732:
 9251 029e BB69     		ldr	r3, [r7, #24]
 9252 02a0 B3F5803F 		cmp	r3, #65536
 9253 02a4 01D2     		bcs	.L733
 9254 02a6 0423     		movs	r3, #4
 9255 02a8 00E0     		b	.L734
 9256              	.L733:
 9257 02aa 0623     		movs	r3, #6
 9258              	.L734:
 9259 02ac 87F83130 		strb	r3, [r7, #49]
 9260              	.L764:
 9261 02b0 FB7A     		ldrb	r3, [r7, #11]	@ zero_extendqisi2
 9262 02b2 002B     		cmp	r3, #0
 9263 02b4 0CD0     		beq	.L735
 9264 02b6 F023     		movs	r3, #240
 9265 02b8 87F83230 		strb	r3, [r7, #50]
 9266 02bc 85E0     		b	.L736
 9267              	.L766:
 9268 02be 00BF     		.align	2
 9269              	.L765:
 9270 02c0 00000000 		.word	FatFs
 9271 02c4 D34D6210 		.word	274877907
 9272 02c8 00000000 		.word	vst.8662
 9273 02cc 00000000 		.word	cst.8663
 9274              	.L735:
 9275 02d0 3B6C     		ldr	r3, [r7, #64]
ARM GAS  /var/folders/d2/nstgp4h54kz7g1l847x_b8wc0000gn/T//ccrhfnpm.s 			page 164


 9276 02d2 3033     		adds	r3, r3, #48
 9277 02d4 4FF40072 		mov	r2, #512
 9278 02d8 0021     		movs	r1, #0
 9279 02da 1846     		mov	r0, r3
 9280 02dc FFF7FEFF 		bl	mem_set
 9281 02e0 3B6C     		ldr	r3, [r7, #64]
 9282 02e2 3033     		adds	r3, r3, #48
 9283 02e4 03F5DF73 		add	r3, r3, #446
 9284 02e8 3B62     		str	r3, [r7, #32]
 9285 02ea 3B6A     		ldr	r3, [r7, #32]
 9286 02ec 0133     		adds	r3, r3, #1
 9287 02ee 0122     		movs	r2, #1
 9288 02f0 1A70     		strb	r2, [r3]
 9289 02f2 3B6A     		ldr	r3, [r7, #32]
 9290 02f4 0233     		adds	r3, r3, #2
 9291 02f6 0122     		movs	r2, #1
 9292 02f8 1A70     		strb	r2, [r3]
 9293 02fa 3B6A     		ldr	r3, [r7, #32]
 9294 02fc 0333     		adds	r3, r3, #3
 9295 02fe 0022     		movs	r2, #0
 9296 0300 1A70     		strb	r2, [r3]
 9297 0302 3B6A     		ldr	r3, [r7, #32]
 9298 0304 0433     		adds	r3, r3, #4
 9299 0306 97F83120 		ldrb	r2, [r7, #49]
 9300 030a 1A70     		strb	r2, [r3]
 9301 030c 3B6A     		ldr	r3, [r7, #32]
 9302 030e 0533     		adds	r3, r3, #5
 9303 0310 FE22     		movs	r2, #254
 9304 0312 1A70     		strb	r2, [r3]
 9305 0314 BA69     		ldr	r2, [r7, #24]
 9306 0316 BB6B     		ldr	r3, [r7, #56]
 9307 0318 1A44     		add	r2, r2, r3
 9308 031a 5A4B     		ldr	r3, .L767
 9309 031c A3FB0213 		umull	r1, r3, r3, r2
 9310 0320 D21A     		subs	r2, r2, r3
 9311 0322 5208     		lsrs	r2, r2, #1
 9312 0324 1344     		add	r3, r3, r2
 9313 0326 5B0B     		lsrs	r3, r3, #13
 9314 0328 FB61     		str	r3, [r7, #28]
 9315 032a FB69     		ldr	r3, [r7, #28]
 9316 032c 9B08     		lsrs	r3, r3, #2
 9317 032e DAB2     		uxtb	r2, r3
 9318 0330 3B6A     		ldr	r3, [r7, #32]
 9319 0332 0633     		adds	r3, r3, #6
 9320 0334 42F03F02 		orr	r2, r2, #63
 9321 0338 D2B2     		uxtb	r2, r2
 9322 033a 1A70     		strb	r2, [r3]
 9323 033c FA69     		ldr	r2, [r7, #28]
 9324 033e 3B6A     		ldr	r3, [r7, #32]
 9325 0340 0733     		adds	r3, r3, #7
 9326 0342 D2B2     		uxtb	r2, r2
 9327 0344 1A70     		strb	r2, [r3]
 9328 0346 3B6A     		ldr	r3, [r7, #32]
 9329 0348 0833     		adds	r3, r3, #8
 9330 034a 3F22     		movs	r2, #63
 9331 034c 1A70     		strb	r2, [r3]
 9332 034e 3B6A     		ldr	r3, [r7, #32]
ARM GAS  /var/folders/d2/nstgp4h54kz7g1l847x_b8wc0000gn/T//ccrhfnpm.s 			page 165


 9333 0350 0933     		adds	r3, r3, #9
 9334 0352 0022     		movs	r2, #0
 9335 0354 1A70     		strb	r2, [r3]
 9336 0356 3B6A     		ldr	r3, [r7, #32]
 9337 0358 0A33     		adds	r3, r3, #10
 9338 035a 0022     		movs	r2, #0
 9339 035c 1A70     		strb	r2, [r3]
 9340 035e 3B6A     		ldr	r3, [r7, #32]
 9341 0360 0B33     		adds	r3, r3, #11
 9342 0362 0022     		movs	r2, #0
 9343 0364 1A70     		strb	r2, [r3]
 9344 0366 BA69     		ldr	r2, [r7, #24]
 9345 0368 3B6A     		ldr	r3, [r7, #32]
 9346 036a 0C33     		adds	r3, r3, #12
 9347 036c D2B2     		uxtb	r2, r2
 9348 036e 1A70     		strb	r2, [r3]
 9349 0370 BB69     		ldr	r3, [r7, #24]
 9350 0372 9BB2     		uxth	r3, r3
 9351 0374 1B0A     		lsrs	r3, r3, #8
 9352 0376 9AB2     		uxth	r2, r3
 9353 0378 3B6A     		ldr	r3, [r7, #32]
 9354 037a 0D33     		adds	r3, r3, #13
 9355 037c D2B2     		uxtb	r2, r2
 9356 037e 1A70     		strb	r2, [r3]
 9357 0380 BB69     		ldr	r3, [r7, #24]
 9358 0382 1A0C     		lsrs	r2, r3, #16
 9359 0384 3B6A     		ldr	r3, [r7, #32]
 9360 0386 0E33     		adds	r3, r3, #14
 9361 0388 D2B2     		uxtb	r2, r2
 9362 038a 1A70     		strb	r2, [r3]
 9363 038c BB69     		ldr	r3, [r7, #24]
 9364 038e 1A0E     		lsrs	r2, r3, #24
 9365 0390 3B6A     		ldr	r3, [r7, #32]
 9366 0392 0F33     		adds	r3, r3, #15
 9367 0394 D2B2     		uxtb	r2, r2
 9368 0396 1A70     		strb	r2, [r3]
 9369 0398 3B6C     		ldr	r3, [r7, #64]
 9370 039a 5522     		movs	r2, #85
 9371 039c 83F82E22 		strb	r2, [r3, #558]
 9372 03a0 3B6C     		ldr	r3, [r7, #64]
 9373 03a2 AA22     		movs	r2, #170
 9374 03a4 83F82F22 		strb	r2, [r3, #559]
 9375 03a8 3B6C     		ldr	r3, [r7, #64]
 9376 03aa 03F13001 		add	r1, r3, #48
 9377 03ae 97F83F00 		ldrb	r0, [r7, #63]	@ zero_extendqisi2
 9378 03b2 0123     		movs	r3, #1
 9379 03b4 0022     		movs	r2, #0
 9380 03b6 FFF7FEFF 		bl	disk_write
 9381 03ba 0346     		mov	r3, r0
 9382 03bc 002B     		cmp	r3, #0
 9383 03be 01D0     		beq	.L737
 9384 03c0 0123     		movs	r3, #1
 9385 03c2 D2E2     		b	.L763
 9386              	.L737:
 9387 03c4 F823     		movs	r3, #248
 9388 03c6 87F83230 		strb	r3, [r7, #50]
 9389              	.L736:
ARM GAS  /var/folders/d2/nstgp4h54kz7g1l847x_b8wc0000gn/T//ccrhfnpm.s 			page 166


 9390 03ca 3B6C     		ldr	r3, [r7, #64]
 9391 03cc 3033     		adds	r3, r3, #48
 9392 03ce 3B62     		str	r3, [r7, #32]
 9393 03d0 4FF40072 		mov	r2, #512
 9394 03d4 0021     		movs	r1, #0
 9395 03d6 386A     		ldr	r0, [r7, #32]
 9396 03d8 FFF7FEFF 		bl	mem_set
 9397 03dc 0B22     		movs	r2, #11
 9398 03de 2A49     		ldr	r1, .L767+4
 9399 03e0 386A     		ldr	r0, [r7, #32]
 9400 03e2 FFF7FEFF 		bl	mem_cpy
 9401 03e6 4FF40073 		mov	r3, #512
 9402 03ea BB65     		str	r3, [r7, #88]
 9403 03ec 3B6A     		ldr	r3, [r7, #32]
 9404 03ee 0B33     		adds	r3, r3, #11
 9405 03f0 BA6D     		ldr	r2, [r7, #88]
 9406 03f2 D2B2     		uxtb	r2, r2
 9407 03f4 1A70     		strb	r2, [r3]
 9408 03f6 BB6D     		ldr	r3, [r7, #88]
 9409 03f8 9BB2     		uxth	r3, r3
 9410 03fa 1B0A     		lsrs	r3, r3, #8
 9411 03fc 9AB2     		uxth	r2, r3
 9412 03fe 3B6A     		ldr	r3, [r7, #32]
 9413 0400 0C33     		adds	r3, r3, #12
 9414 0402 D2B2     		uxtb	r2, r2
 9415 0404 1A70     		strb	r2, [r3]
 9416 0406 3B6A     		ldr	r3, [r7, #32]
 9417 0408 0D33     		adds	r3, r3, #13
 9418 040a 7A68     		ldr	r2, [r7, #4]
 9419 040c D2B2     		uxtb	r2, r2
 9420 040e 1A70     		strb	r2, [r3]
 9421 0410 3B6A     		ldr	r3, [r7, #32]
 9422 0412 0E33     		adds	r3, r3, #14
 9423 0414 3A6D     		ldr	r2, [r7, #80]
 9424 0416 D2B2     		uxtb	r2, r2
 9425 0418 1A70     		strb	r2, [r3]
 9426 041a 3B6D     		ldr	r3, [r7, #80]
 9427 041c 9BB2     		uxth	r3, r3
 9428 041e 1B0A     		lsrs	r3, r3, #8
 9429 0420 9AB2     		uxth	r2, r3
 9430 0422 3B6A     		ldr	r3, [r7, #32]
 9431 0424 0F33     		adds	r3, r3, #15
 9432 0426 D2B2     		uxtb	r2, r2
 9433 0428 1A70     		strb	r2, [r3]
 9434 042a 3B6A     		ldr	r3, [r7, #32]
 9435 042c 1033     		adds	r3, r3, #16
 9436 042e 0122     		movs	r2, #1
 9437 0430 1A70     		strb	r2, [r3]
 9438 0432 97F83330 		ldrb	r3, [r7, #51]	@ zero_extendqisi2
 9439 0436 032B     		cmp	r3, #3
 9440 0438 01D1     		bne	.L738
 9441 043a 0023     		movs	r3, #0
 9442 043c 01E0     		b	.L739
 9443              	.L738:
 9444 043e 4FF40073 		mov	r3, #512
 9445              	.L739:
 9446 0442 BB65     		str	r3, [r7, #88]
ARM GAS  /var/folders/d2/nstgp4h54kz7g1l847x_b8wc0000gn/T//ccrhfnpm.s 			page 167


 9447 0444 3B6A     		ldr	r3, [r7, #32]
 9448 0446 1133     		adds	r3, r3, #17
 9449 0448 BA6D     		ldr	r2, [r7, #88]
 9450 044a D2B2     		uxtb	r2, r2
 9451 044c 1A70     		strb	r2, [r3]
 9452 044e BB6D     		ldr	r3, [r7, #88]
 9453 0450 9BB2     		uxth	r3, r3
 9454 0452 1B0A     		lsrs	r3, r3, #8
 9455 0454 9AB2     		uxth	r2, r3
 9456 0456 3B6A     		ldr	r3, [r7, #32]
 9457 0458 1233     		adds	r3, r3, #18
 9458 045a D2B2     		uxtb	r2, r2
 9459 045c 1A70     		strb	r2, [r3]
 9460 045e BB69     		ldr	r3, [r7, #24]
 9461 0460 B3F5803F 		cmp	r3, #65536
 9462 0464 12D2     		bcs	.L740
 9463 0466 BA69     		ldr	r2, [r7, #24]
 9464 0468 3B6A     		ldr	r3, [r7, #32]
 9465 046a 1333     		adds	r3, r3, #19
 9466 046c D2B2     		uxtb	r2, r2
 9467 046e 1A70     		strb	r2, [r3]
 9468 0470 BB69     		ldr	r3, [r7, #24]
 9469 0472 9BB2     		uxth	r3, r3
 9470 0474 1B0A     		lsrs	r3, r3, #8
 9471 0476 9AB2     		uxth	r2, r3
 9472 0478 3B6A     		ldr	r3, [r7, #32]
 9473 047a 1433     		adds	r3, r3, #20
 9474 047c D2B2     		uxtb	r2, r2
 9475 047e 1A70     		strb	r2, [r3]
 9476 0480 1DE0     		b	.L741
 9477              	.L768:
 9478 0482 00BF     		.align	2
 9479              	.L767:
 9480 0484 5B561505 		.word	85284443
 9481 0488 24000000 		.word	.LC3
 9482              	.L740:
 9483 048c BA69     		ldr	r2, [r7, #24]
 9484 048e 3B6A     		ldr	r3, [r7, #32]
 9485 0490 2033     		adds	r3, r3, #32
 9486 0492 D2B2     		uxtb	r2, r2
 9487 0494 1A70     		strb	r2, [r3]
 9488 0496 BB69     		ldr	r3, [r7, #24]
 9489 0498 9BB2     		uxth	r3, r3
 9490 049a 1B0A     		lsrs	r3, r3, #8
 9491 049c 9AB2     		uxth	r2, r3
 9492 049e 3B6A     		ldr	r3, [r7, #32]
 9493 04a0 2133     		adds	r3, r3, #33
 9494 04a2 D2B2     		uxtb	r2, r2
 9495 04a4 1A70     		strb	r2, [r3]
 9496 04a6 BB69     		ldr	r3, [r7, #24]
 9497 04a8 1A0C     		lsrs	r2, r3, #16
 9498 04aa 3B6A     		ldr	r3, [r7, #32]
 9499 04ac 2233     		adds	r3, r3, #34
 9500 04ae D2B2     		uxtb	r2, r2
 9501 04b0 1A70     		strb	r2, [r3]
 9502 04b2 BB69     		ldr	r3, [r7, #24]
 9503 04b4 1A0E     		lsrs	r2, r3, #24
ARM GAS  /var/folders/d2/nstgp4h54kz7g1l847x_b8wc0000gn/T//ccrhfnpm.s 			page 168


 9504 04b6 3B6A     		ldr	r3, [r7, #32]
 9505 04b8 2333     		adds	r3, r3, #35
 9506 04ba D2B2     		uxtb	r2, r2
 9507 04bc 1A70     		strb	r2, [r3]
 9508              	.L741:
 9509 04be 3B6A     		ldr	r3, [r7, #32]
 9510 04c0 1533     		adds	r3, r3, #21
 9511 04c2 97F83220 		ldrb	r2, [r7, #50]
 9512 04c6 1A70     		strb	r2, [r3]
 9513 04c8 3B6A     		ldr	r3, [r7, #32]
 9514 04ca 1833     		adds	r3, r3, #24
 9515 04cc 3F22     		movs	r2, #63
 9516 04ce 1A70     		strb	r2, [r3]
 9517 04d0 3B6A     		ldr	r3, [r7, #32]
 9518 04d2 1933     		adds	r3, r3, #25
 9519 04d4 0022     		movs	r2, #0
 9520 04d6 1A70     		strb	r2, [r3]
 9521 04d8 3B6A     		ldr	r3, [r7, #32]
 9522 04da 1A33     		adds	r3, r3, #26
 9523 04dc FF22     		movs	r2, #255
 9524 04de 1A70     		strb	r2, [r3]
 9525 04e0 3B6A     		ldr	r3, [r7, #32]
 9526 04e2 1B33     		adds	r3, r3, #27
 9527 04e4 0022     		movs	r2, #0
 9528 04e6 1A70     		strb	r2, [r3]
 9529 04e8 3B6A     		ldr	r3, [r7, #32]
 9530 04ea 1C33     		adds	r3, r3, #28
 9531 04ec BA6B     		ldr	r2, [r7, #56]
 9532 04ee D2B2     		uxtb	r2, r2
 9533 04f0 1A70     		strb	r2, [r3]
 9534 04f2 BB6B     		ldr	r3, [r7, #56]
 9535 04f4 9BB2     		uxth	r3, r3
 9536 04f6 1B0A     		lsrs	r3, r3, #8
 9537 04f8 9AB2     		uxth	r2, r3
 9538 04fa 3B6A     		ldr	r3, [r7, #32]
 9539 04fc 1D33     		adds	r3, r3, #29
 9540 04fe D2B2     		uxtb	r2, r2
 9541 0500 1A70     		strb	r2, [r3]
 9542 0502 BB6B     		ldr	r3, [r7, #56]
 9543 0504 1A0C     		lsrs	r2, r3, #16
 9544 0506 3B6A     		ldr	r3, [r7, #32]
 9545 0508 1E33     		adds	r3, r3, #30
 9546 050a D2B2     		uxtb	r2, r2
 9547 050c 1A70     		strb	r2, [r3]
 9548 050e BB6B     		ldr	r3, [r7, #56]
 9549 0510 1A0E     		lsrs	r2, r3, #24
 9550 0512 3B6A     		ldr	r3, [r7, #32]
 9551 0514 1F33     		adds	r3, r3, #31
 9552 0516 D2B2     		uxtb	r2, r2
 9553 0518 1A70     		strb	r2, [r3]
 9554 051a FFF7FEFF 		bl	get_fattime
 9555 051e 0346     		mov	r3, r0
 9556 0520 FB61     		str	r3, [r7, #28]
 9557 0522 97F83330 		ldrb	r3, [r7, #51]	@ zero_extendqisi2
 9558 0526 032B     		cmp	r3, #3
 9559 0528 61D1     		bne	.L742
 9560 052a FA69     		ldr	r2, [r7, #28]
ARM GAS  /var/folders/d2/nstgp4h54kz7g1l847x_b8wc0000gn/T//ccrhfnpm.s 			page 169


 9561 052c 3B6A     		ldr	r3, [r7, #32]
 9562 052e 4333     		adds	r3, r3, #67
 9563 0530 D2B2     		uxtb	r2, r2
 9564 0532 1A70     		strb	r2, [r3]
 9565 0534 FB69     		ldr	r3, [r7, #28]
 9566 0536 9BB2     		uxth	r3, r3
 9567 0538 1B0A     		lsrs	r3, r3, #8
 9568 053a 9AB2     		uxth	r2, r3
 9569 053c 3B6A     		ldr	r3, [r7, #32]
 9570 053e 4433     		adds	r3, r3, #68
 9571 0540 D2B2     		uxtb	r2, r2
 9572 0542 1A70     		strb	r2, [r3]
 9573 0544 FB69     		ldr	r3, [r7, #28]
 9574 0546 1A0C     		lsrs	r2, r3, #16
 9575 0548 3B6A     		ldr	r3, [r7, #32]
 9576 054a 4533     		adds	r3, r3, #69
 9577 054c D2B2     		uxtb	r2, r2
 9578 054e 1A70     		strb	r2, [r3]
 9579 0550 FB69     		ldr	r3, [r7, #28]
 9580 0552 1A0E     		lsrs	r2, r3, #24
 9581 0554 3B6A     		ldr	r3, [r7, #32]
 9582 0556 4633     		adds	r3, r3, #70
 9583 0558 D2B2     		uxtb	r2, r2
 9584 055a 1A70     		strb	r2, [r3]
 9585 055c 3B6A     		ldr	r3, [r7, #32]
 9586 055e 2433     		adds	r3, r3, #36
 9587 0560 FA6C     		ldr	r2, [r7, #76]
 9588 0562 D2B2     		uxtb	r2, r2
 9589 0564 1A70     		strb	r2, [r3]
 9590 0566 FB6C     		ldr	r3, [r7, #76]
 9591 0568 9BB2     		uxth	r3, r3
 9592 056a 1B0A     		lsrs	r3, r3, #8
 9593 056c 9AB2     		uxth	r2, r3
 9594 056e 3B6A     		ldr	r3, [r7, #32]
 9595 0570 2533     		adds	r3, r3, #37
 9596 0572 D2B2     		uxtb	r2, r2
 9597 0574 1A70     		strb	r2, [r3]
 9598 0576 FB6C     		ldr	r3, [r7, #76]
 9599 0578 1A0C     		lsrs	r2, r3, #16
 9600 057a 3B6A     		ldr	r3, [r7, #32]
 9601 057c 2633     		adds	r3, r3, #38
 9602 057e D2B2     		uxtb	r2, r2
 9603 0580 1A70     		strb	r2, [r3]
 9604 0582 FB6C     		ldr	r3, [r7, #76]
 9605 0584 1A0E     		lsrs	r2, r3, #24
 9606 0586 3B6A     		ldr	r3, [r7, #32]
 9607 0588 2733     		adds	r3, r3, #39
 9608 058a D2B2     		uxtb	r2, r2
 9609 058c 1A70     		strb	r2, [r3]
 9610 058e 3B6A     		ldr	r3, [r7, #32]
 9611 0590 2C33     		adds	r3, r3, #44
 9612 0592 0222     		movs	r2, #2
 9613 0594 1A70     		strb	r2, [r3]
 9614 0596 3B6A     		ldr	r3, [r7, #32]
 9615 0598 2D33     		adds	r3, r3, #45
 9616 059a 0022     		movs	r2, #0
 9617 059c 1A70     		strb	r2, [r3]
ARM GAS  /var/folders/d2/nstgp4h54kz7g1l847x_b8wc0000gn/T//ccrhfnpm.s 			page 170


 9618 059e 3B6A     		ldr	r3, [r7, #32]
 9619 05a0 2E33     		adds	r3, r3, #46
 9620 05a2 0022     		movs	r2, #0
 9621 05a4 1A70     		strb	r2, [r3]
 9622 05a6 3B6A     		ldr	r3, [r7, #32]
 9623 05a8 2F33     		adds	r3, r3, #47
 9624 05aa 0022     		movs	r2, #0
 9625 05ac 1A70     		strb	r2, [r3]
 9626 05ae 3B6A     		ldr	r3, [r7, #32]
 9627 05b0 3033     		adds	r3, r3, #48
 9628 05b2 0122     		movs	r2, #1
 9629 05b4 1A70     		strb	r2, [r3]
 9630 05b6 3B6A     		ldr	r3, [r7, #32]
 9631 05b8 3133     		adds	r3, r3, #49
 9632 05ba 0022     		movs	r2, #0
 9633 05bc 1A70     		strb	r2, [r3]
 9634 05be 3B6A     		ldr	r3, [r7, #32]
 9635 05c0 3233     		adds	r3, r3, #50
 9636 05c2 0622     		movs	r2, #6
 9637 05c4 1A70     		strb	r2, [r3]
 9638 05c6 3B6A     		ldr	r3, [r7, #32]
 9639 05c8 3333     		adds	r3, r3, #51
 9640 05ca 0022     		movs	r2, #0
 9641 05cc 1A70     		strb	r2, [r3]
 9642 05ce 3B6A     		ldr	r3, [r7, #32]
 9643 05d0 4033     		adds	r3, r3, #64
 9644 05d2 8022     		movs	r2, #128
 9645 05d4 1A70     		strb	r2, [r3]
 9646 05d6 3B6A     		ldr	r3, [r7, #32]
 9647 05d8 4233     		adds	r3, r3, #66
 9648 05da 2922     		movs	r2, #41
 9649 05dc 1A70     		strb	r2, [r3]
 9650 05de 3B6A     		ldr	r3, [r7, #32]
 9651 05e0 4733     		adds	r3, r3, #71
 9652 05e2 1322     		movs	r2, #19
 9653 05e4 9249     		ldr	r1, .L769
 9654 05e6 1846     		mov	r0, r3
 9655 05e8 FFF7FEFF 		bl	mem_cpy
 9656 05ec 34E0     		b	.L743
 9657              	.L742:
 9658 05ee FA69     		ldr	r2, [r7, #28]
 9659 05f0 3B6A     		ldr	r3, [r7, #32]
 9660 05f2 2733     		adds	r3, r3, #39
 9661 05f4 D2B2     		uxtb	r2, r2
 9662 05f6 1A70     		strb	r2, [r3]
 9663 05f8 FB69     		ldr	r3, [r7, #28]
 9664 05fa 9BB2     		uxth	r3, r3
 9665 05fc 1B0A     		lsrs	r3, r3, #8
 9666 05fe 9AB2     		uxth	r2, r3
 9667 0600 3B6A     		ldr	r3, [r7, #32]
 9668 0602 2833     		adds	r3, r3, #40
 9669 0604 D2B2     		uxtb	r2, r2
 9670 0606 1A70     		strb	r2, [r3]
 9671 0608 FB69     		ldr	r3, [r7, #28]
 9672 060a 1A0C     		lsrs	r2, r3, #16
 9673 060c 3B6A     		ldr	r3, [r7, #32]
 9674 060e 2933     		adds	r3, r3, #41
ARM GAS  /var/folders/d2/nstgp4h54kz7g1l847x_b8wc0000gn/T//ccrhfnpm.s 			page 171


 9675 0610 D2B2     		uxtb	r2, r2
 9676 0612 1A70     		strb	r2, [r3]
 9677 0614 FB69     		ldr	r3, [r7, #28]
 9678 0616 1A0E     		lsrs	r2, r3, #24
 9679 0618 3B6A     		ldr	r3, [r7, #32]
 9680 061a 2A33     		adds	r3, r3, #42
 9681 061c D2B2     		uxtb	r2, r2
 9682 061e 1A70     		strb	r2, [r3]
 9683 0620 3B6A     		ldr	r3, [r7, #32]
 9684 0622 1633     		adds	r3, r3, #22
 9685 0624 FA6C     		ldr	r2, [r7, #76]
 9686 0626 D2B2     		uxtb	r2, r2
 9687 0628 1A70     		strb	r2, [r3]
 9688 062a FB6C     		ldr	r3, [r7, #76]
 9689 062c 9BB2     		uxth	r3, r3
 9690 062e 1B0A     		lsrs	r3, r3, #8
 9691 0630 9AB2     		uxth	r2, r3
 9692 0632 3B6A     		ldr	r3, [r7, #32]
 9693 0634 1733     		adds	r3, r3, #23
 9694 0636 D2B2     		uxtb	r2, r2
 9695 0638 1A70     		strb	r2, [r3]
 9696 063a 3B6A     		ldr	r3, [r7, #32]
 9697 063c 2433     		adds	r3, r3, #36
 9698 063e 8022     		movs	r2, #128
 9699 0640 1A70     		strb	r2, [r3]
 9700 0642 3B6A     		ldr	r3, [r7, #32]
 9701 0644 2633     		adds	r3, r3, #38
 9702 0646 2922     		movs	r2, #41
 9703 0648 1A70     		strb	r2, [r3]
 9704 064a 3B6A     		ldr	r3, [r7, #32]
 9705 064c 2B33     		adds	r3, r3, #43
 9706 064e 1322     		movs	r2, #19
 9707 0650 7849     		ldr	r1, .L769+4
 9708 0652 1846     		mov	r0, r3
 9709 0654 FFF7FEFF 		bl	mem_cpy
 9710              	.L743:
 9711 0658 3B6A     		ldr	r3, [r7, #32]
 9712 065a 03F5FF73 		add	r3, r3, #510
 9713 065e 5522     		movs	r2, #85
 9714 0660 1A70     		strb	r2, [r3]
 9715 0662 3B6A     		ldr	r3, [r7, #32]
 9716 0664 03F2FF13 		addw	r3, r3, #511
 9717 0668 AA22     		movs	r2, #170
 9718 066a 1A70     		strb	r2, [r3]
 9719 066c 97F83F00 		ldrb	r0, [r7, #63]	@ zero_extendqisi2
 9720 0670 0123     		movs	r3, #1
 9721 0672 BA6B     		ldr	r2, [r7, #56]
 9722 0674 396A     		ldr	r1, [r7, #32]
 9723 0676 FFF7FEFF 		bl	disk_write
 9724 067a 0346     		mov	r3, r0
 9725 067c 002B     		cmp	r3, #0
 9726 067e 01D0     		beq	.L744
 9727 0680 0123     		movs	r3, #1
 9728 0682 72E1     		b	.L763
 9729              	.L744:
 9730 0684 97F83330 		ldrb	r3, [r7, #51]	@ zero_extendqisi2
 9731 0688 032B     		cmp	r3, #3
ARM GAS  /var/folders/d2/nstgp4h54kz7g1l847x_b8wc0000gn/T//ccrhfnpm.s 			page 172


 9732 068a 07D1     		bne	.L745
 9733 068c BB6B     		ldr	r3, [r7, #56]
 9734 068e 9A1D     		adds	r2, r3, #6
 9735 0690 97F83F00 		ldrb	r0, [r7, #63]	@ zero_extendqisi2
 9736 0694 0123     		movs	r3, #1
 9737 0696 396A     		ldr	r1, [r7, #32]
 9738 0698 FFF7FEFF 		bl	disk_write
 9739              	.L745:
 9740 069c 7B6D     		ldr	r3, [r7, #84]
 9741 069e FB65     		str	r3, [r7, #92]
 9742 06a0 0023     		movs	r3, #0
 9743 06a2 BB65     		str	r3, [r7, #88]
 9744 06a4 9BE0     		b	.L746
 9745              	.L755:
 9746 06a6 4FF40072 		mov	r2, #512
 9747 06aa 0021     		movs	r1, #0
 9748 06ac 386A     		ldr	r0, [r7, #32]
 9749 06ae FFF7FEFF 		bl	mem_set
 9750 06b2 97F83230 		ldrb	r3, [r7, #50]	@ zero_extendqisi2
 9751 06b6 FB61     		str	r3, [r7, #28]
 9752 06b8 97F83330 		ldrb	r3, [r7, #51]	@ zero_extendqisi2
 9753 06bc 032B     		cmp	r3, #3
 9754 06be 23D0     		beq	.L747
 9755 06c0 97F83330 		ldrb	r3, [r7, #51]	@ zero_extendqisi2
 9756 06c4 012B     		cmp	r3, #1
 9757 06c6 01D1     		bne	.L748
 9758 06c8 5B4A     		ldr	r2, .L769+8
 9759 06ca 01E0     		b	.L749
 9760              	.L748:
 9761 06cc 6FF0FF02 		mvn	r2, #255
 9762              	.L749:
 9763 06d0 FB69     		ldr	r3, [r7, #28]
 9764 06d2 1343     		orrs	r3, r3, r2
 9765 06d4 FB61     		str	r3, [r7, #28]
 9766 06d6 FB69     		ldr	r3, [r7, #28]
 9767 06d8 DAB2     		uxtb	r2, r3
 9768 06da 3B6A     		ldr	r3, [r7, #32]
 9769 06dc 1A70     		strb	r2, [r3]
 9770 06de FB69     		ldr	r3, [r7, #28]
 9771 06e0 9BB2     		uxth	r3, r3
 9772 06e2 1B0A     		lsrs	r3, r3, #8
 9773 06e4 9AB2     		uxth	r2, r3
 9774 06e6 3B6A     		ldr	r3, [r7, #32]
 9775 06e8 0133     		adds	r3, r3, #1
 9776 06ea D2B2     		uxtb	r2, r2
 9777 06ec 1A70     		strb	r2, [r3]
 9778 06ee FB69     		ldr	r3, [r7, #28]
 9779 06f0 1A0C     		lsrs	r2, r3, #16
 9780 06f2 3B6A     		ldr	r3, [r7, #32]
 9781 06f4 0233     		adds	r3, r3, #2
 9782 06f6 D2B2     		uxtb	r2, r2
 9783 06f8 1A70     		strb	r2, [r3]
 9784 06fa FB69     		ldr	r3, [r7, #28]
 9785 06fc 1A0E     		lsrs	r2, r3, #24
 9786 06fe 3B6A     		ldr	r3, [r7, #32]
 9787 0700 0333     		adds	r3, r3, #3
 9788 0702 D2B2     		uxtb	r2, r2
ARM GAS  /var/folders/d2/nstgp4h54kz7g1l847x_b8wc0000gn/T//ccrhfnpm.s 			page 173


 9789 0704 1A70     		strb	r2, [r3]
 9790 0706 3BE0     		b	.L750
 9791              	.L747:
 9792 0708 FB69     		ldr	r3, [r7, #28]
 9793 070a 63F0FF03 		orn	r3, r3, #255
 9794 070e FB61     		str	r3, [r7, #28]
 9795 0710 FB69     		ldr	r3, [r7, #28]
 9796 0712 DAB2     		uxtb	r2, r3
 9797 0714 3B6A     		ldr	r3, [r7, #32]
 9798 0716 1A70     		strb	r2, [r3]
 9799 0718 FB69     		ldr	r3, [r7, #28]
 9800 071a 9BB2     		uxth	r3, r3
 9801 071c 1B0A     		lsrs	r3, r3, #8
 9802 071e 9AB2     		uxth	r2, r3
 9803 0720 3B6A     		ldr	r3, [r7, #32]
 9804 0722 0133     		adds	r3, r3, #1
 9805 0724 D2B2     		uxtb	r2, r2
 9806 0726 1A70     		strb	r2, [r3]
 9807 0728 FB69     		ldr	r3, [r7, #28]
 9808 072a 1A0C     		lsrs	r2, r3, #16
 9809 072c 3B6A     		ldr	r3, [r7, #32]
 9810 072e 0233     		adds	r3, r3, #2
 9811 0730 D2B2     		uxtb	r2, r2
 9812 0732 1A70     		strb	r2, [r3]
 9813 0734 FB69     		ldr	r3, [r7, #28]
 9814 0736 1A0E     		lsrs	r2, r3, #24
 9815 0738 3B6A     		ldr	r3, [r7, #32]
 9816 073a 0333     		adds	r3, r3, #3
 9817 073c D2B2     		uxtb	r2, r2
 9818 073e 1A70     		strb	r2, [r3]
 9819 0740 3B6A     		ldr	r3, [r7, #32]
 9820 0742 0433     		adds	r3, r3, #4
 9821 0744 FF22     		movs	r2, #255
 9822 0746 1A70     		strb	r2, [r3]
 9823 0748 3B6A     		ldr	r3, [r7, #32]
 9824 074a 0533     		adds	r3, r3, #5
 9825 074c FF22     		movs	r2, #255
 9826 074e 1A70     		strb	r2, [r3]
 9827 0750 3B6A     		ldr	r3, [r7, #32]
 9828 0752 0633     		adds	r3, r3, #6
 9829 0754 FF22     		movs	r2, #255
 9830 0756 1A70     		strb	r2, [r3]
 9831 0758 3B6A     		ldr	r3, [r7, #32]
 9832 075a 0733     		adds	r3, r3, #7
 9833 075c FF22     		movs	r2, #255
 9834 075e 1A70     		strb	r2, [r3]
 9835 0760 3B6A     		ldr	r3, [r7, #32]
 9836 0762 0833     		adds	r3, r3, #8
 9837 0764 FF22     		movs	r2, #255
 9838 0766 1A70     		strb	r2, [r3]
 9839 0768 3B6A     		ldr	r3, [r7, #32]
 9840 076a 0933     		adds	r3, r3, #9
 9841 076c FF22     		movs	r2, #255
 9842 076e 1A70     		strb	r2, [r3]
 9843 0770 3B6A     		ldr	r3, [r7, #32]
 9844 0772 0A33     		adds	r3, r3, #10
 9845 0774 FF22     		movs	r2, #255
ARM GAS  /var/folders/d2/nstgp4h54kz7g1l847x_b8wc0000gn/T//ccrhfnpm.s 			page 174


 9846 0776 1A70     		strb	r2, [r3]
 9847 0778 3B6A     		ldr	r3, [r7, #32]
 9848 077a 0B33     		adds	r3, r3, #11
 9849 077c 0F22     		movs	r2, #15
 9850 077e 1A70     		strb	r2, [r3]
 9851              	.L750:
 9852 0780 FA6D     		ldr	r2, [r7, #92]
 9853 0782 531C     		adds	r3, r2, #1
 9854 0784 FB65     		str	r3, [r7, #92]
 9855 0786 97F83F00 		ldrb	r0, [r7, #63]	@ zero_extendqisi2
 9856 078a 0123     		movs	r3, #1
 9857 078c 396A     		ldr	r1, [r7, #32]
 9858 078e FFF7FEFF 		bl	disk_write
 9859 0792 0346     		mov	r3, r0
 9860 0794 002B     		cmp	r3, #0
 9861 0796 01D0     		beq	.L751
 9862 0798 0123     		movs	r3, #1
 9863 079a E6E0     		b	.L763
 9864              	.L751:
 9865 079c 4FF40072 		mov	r2, #512
 9866 07a0 0021     		movs	r1, #0
 9867 07a2 386A     		ldr	r0, [r7, #32]
 9868 07a4 FFF7FEFF 		bl	mem_set
 9869 07a8 0123     		movs	r3, #1
 9870 07aa FB61     		str	r3, [r7, #28]
 9871 07ac 10E0     		b	.L752
 9872              	.L754:
 9873 07ae FA6D     		ldr	r2, [r7, #92]
 9874 07b0 531C     		adds	r3, r2, #1
 9875 07b2 FB65     		str	r3, [r7, #92]
 9876 07b4 97F83F00 		ldrb	r0, [r7, #63]	@ zero_extendqisi2
 9877 07b8 0123     		movs	r3, #1
 9878 07ba 396A     		ldr	r1, [r7, #32]
 9879 07bc FFF7FEFF 		bl	disk_write
 9880 07c0 0346     		mov	r3, r0
 9881 07c2 002B     		cmp	r3, #0
 9882 07c4 01D0     		beq	.L753
 9883 07c6 0123     		movs	r3, #1
 9884 07c8 CFE0     		b	.L763
 9885              	.L753:
 9886 07ca FB69     		ldr	r3, [r7, #28]
 9887 07cc 0133     		adds	r3, r3, #1
 9888 07ce FB61     		str	r3, [r7, #28]
 9889              	.L752:
 9890 07d0 FB69     		ldr	r3, [r7, #28]
 9891 07d2 FA6C     		ldr	r2, [r7, #76]
 9892 07d4 9A42     		cmp	r2, r3
 9893 07d6 EAD8     		bhi	.L754
 9894 07d8 BB6D     		ldr	r3, [r7, #88]
 9895 07da 0133     		adds	r3, r3, #1
 9896 07dc BB65     		str	r3, [r7, #88]
 9897              	.L746:
 9898 07de BB6D     		ldr	r3, [r7, #88]
 9899 07e0 002B     		cmp	r3, #0
 9900 07e2 3FF460AF 		beq	.L755
 9901 07e6 97F83330 		ldrb	r3, [r7, #51]	@ zero_extendqisi2
 9902 07ea 032B     		cmp	r3, #3
ARM GAS  /var/folders/d2/nstgp4h54kz7g1l847x_b8wc0000gn/T//ccrhfnpm.s 			page 175


 9903 07ec 01D1     		bne	.L756
 9904 07ee 7B68     		ldr	r3, [r7, #4]
 9905 07f0 00E0     		b	.L757
 9906              	.L756:
 9907 07f2 BB6C     		ldr	r3, [r7, #72]
 9908              	.L757:
 9909 07f4 BB65     		str	r3, [r7, #88]
 9910              	.L759:
 9911 07f6 FA6D     		ldr	r2, [r7, #92]
 9912 07f8 531C     		adds	r3, r2, #1
 9913 07fa FB65     		str	r3, [r7, #92]
 9914 07fc 97F83F00 		ldrb	r0, [r7, #63]	@ zero_extendqisi2
 9915 0800 0123     		movs	r3, #1
 9916 0802 396A     		ldr	r1, [r7, #32]
 9917 0804 FFF7FEFF 		bl	disk_write
 9918 0808 0346     		mov	r3, r0
 9919 080a 002B     		cmp	r3, #0
 9920 080c 01D0     		beq	.L758
 9921 080e 0123     		movs	r3, #1
 9922 0810 ABE0     		b	.L763
 9923              	.L758:
 9924 0812 BB6D     		ldr	r3, [r7, #88]
 9925 0814 013B     		subs	r3, r3, #1
 9926 0816 BB65     		str	r3, [r7, #88]
 9927 0818 BB6D     		ldr	r3, [r7, #88]
 9928 081a 002B     		cmp	r3, #0
 9929 081c EBD1     		bne	.L759
 9930 081e FB6D     		ldr	r3, [r7, #92]
 9931 0820 3B61     		str	r3, [r7, #16]
 9932 0822 97F83330 		ldrb	r3, [r7, #51]	@ zero_extendqisi2
 9933 0826 032B     		cmp	r3, #3
 9934 0828 08D1     		bne	.L760
 9935 082a 0123     		movs	r3, #1
 9936 082c 07E0     		b	.L761
 9937              	.L770:
 9938 082e 00BF     		.align	2
 9939              	.L769:
 9940 0830 30000000 		.word	.LC4
 9941 0834 44000000 		.word	.LC5
 9942 0838 00FFFF00 		.word	16776960
 9943              	.L760:
 9944 083c 0023     		movs	r3, #0
 9945              	.L761:
 9946 083e FA6A     		ldr	r2, [r7, #44]
 9947 0840 D31A     		subs	r3, r2, r3
 9948 0842 7A68     		ldr	r2, [r7, #4]
 9949 0844 02FB03F2 		mul	r2, r2, r3
 9950 0848 FB6D     		ldr	r3, [r7, #92]
 9951 084a 1344     		add	r3, r3, r2
 9952 084c 013B     		subs	r3, r3, #1
 9953 084e 7B61     		str	r3, [r7, #20]
 9954 0850 07F11002 		add	r2, r7, #16
 9955 0854 97F83F30 		ldrb	r3, [r7, #63]	@ zero_extendqisi2
 9956 0858 0421     		movs	r1, #4
 9957 085a 1846     		mov	r0, r3
 9958 085c FFF7FEFF 		bl	disk_ioctl
 9959 0860 97F83330 		ldrb	r3, [r7, #51]	@ zero_extendqisi2
ARM GAS  /var/folders/d2/nstgp4h54kz7g1l847x_b8wc0000gn/T//ccrhfnpm.s 			page 176


 9960 0864 032B     		cmp	r3, #3
 9961 0866 73D1     		bne	.L762
 9962 0868 3B6A     		ldr	r3, [r7, #32]
 9963 086a 5222     		movs	r2, #82
 9964 086c 1A70     		strb	r2, [r3]
 9965 086e 3B6A     		ldr	r3, [r7, #32]
 9966 0870 0133     		adds	r3, r3, #1
 9967 0872 5222     		movs	r2, #82
 9968 0874 1A70     		strb	r2, [r3]
 9969 0876 3B6A     		ldr	r3, [r7, #32]
 9970 0878 0233     		adds	r3, r3, #2
 9971 087a 6122     		movs	r2, #97
 9972 087c 1A70     		strb	r2, [r3]
 9973 087e 3B6A     		ldr	r3, [r7, #32]
 9974 0880 0333     		adds	r3, r3, #3
 9975 0882 4122     		movs	r2, #65
 9976 0884 1A70     		strb	r2, [r3]
 9977 0886 3B6A     		ldr	r3, [r7, #32]
 9978 0888 03F5F273 		add	r3, r3, #484
 9979 088c 7222     		movs	r2, #114
 9980 088e 1A70     		strb	r2, [r3]
 9981 0890 3B6A     		ldr	r3, [r7, #32]
 9982 0892 03F2E513 		addw	r3, r3, #485
 9983 0896 7222     		movs	r2, #114
 9984 0898 1A70     		strb	r2, [r3]
 9985 089a 3B6A     		ldr	r3, [r7, #32]
 9986 089c 03F5F373 		add	r3, r3, #486
 9987 08a0 4122     		movs	r2, #65
 9988 08a2 1A70     		strb	r2, [r3]
 9989 08a4 3B6A     		ldr	r3, [r7, #32]
 9990 08a6 03F2E713 		addw	r3, r3, #487
 9991 08aa 6122     		movs	r2, #97
 9992 08ac 1A70     		strb	r2, [r3]
 9993 08ae FB6A     		ldr	r3, [r7, #44]
 9994 08b0 DAB2     		uxtb	r2, r3
 9995 08b2 3B6A     		ldr	r3, [r7, #32]
 9996 08b4 03F5F473 		add	r3, r3, #488
 9997 08b8 013A     		subs	r2, r2, #1
 9998 08ba D2B2     		uxtb	r2, r2
 9999 08bc 1A70     		strb	r2, [r3]
 10000 08be FB6A     		ldr	r3, [r7, #44]
 10001 08c0 9BB2     		uxth	r3, r3
 10002 08c2 013B     		subs	r3, r3, #1
 10003 08c4 9BB2     		uxth	r3, r3
 10004 08c6 1B0A     		lsrs	r3, r3, #8
 10005 08c8 9AB2     		uxth	r2, r3
 10006 08ca 3B6A     		ldr	r3, [r7, #32]
 10007 08cc 03F2E913 		addw	r3, r3, #489
 10008 08d0 D2B2     		uxtb	r2, r2
 10009 08d2 1A70     		strb	r2, [r3]
 10010 08d4 FB6A     		ldr	r3, [r7, #44]
 10011 08d6 013B     		subs	r3, r3, #1
 10012 08d8 1A0C     		lsrs	r2, r3, #16
 10013 08da 3B6A     		ldr	r3, [r7, #32]
 10014 08dc 03F5F573 		add	r3, r3, #490
 10015 08e0 D2B2     		uxtb	r2, r2
 10016 08e2 1A70     		strb	r2, [r3]
ARM GAS  /var/folders/d2/nstgp4h54kz7g1l847x_b8wc0000gn/T//ccrhfnpm.s 			page 177


 10017 08e4 FB6A     		ldr	r3, [r7, #44]
 10018 08e6 013B     		subs	r3, r3, #1
 10019 08e8 1A0E     		lsrs	r2, r3, #24
 10020 08ea 3B6A     		ldr	r3, [r7, #32]
 10021 08ec 03F2EB13 		addw	r3, r3, #491
 10022 08f0 D2B2     		uxtb	r2, r2
 10023 08f2 1A70     		strb	r2, [r3]
 10024 08f4 3B6A     		ldr	r3, [r7, #32]
 10025 08f6 03F5F673 		add	r3, r3, #492
 10026 08fa 0222     		movs	r2, #2
 10027 08fc 1A70     		strb	r2, [r3]
 10028 08fe 3B6A     		ldr	r3, [r7, #32]
 10029 0900 03F2ED13 		addw	r3, r3, #493
 10030 0904 0022     		movs	r2, #0
 10031 0906 1A70     		strb	r2, [r3]
 10032 0908 3B6A     		ldr	r3, [r7, #32]
 10033 090a 03F5F773 		add	r3, r3, #494
 10034 090e 0022     		movs	r2, #0
 10035 0910 1A70     		strb	r2, [r3]
 10036 0912 3B6A     		ldr	r3, [r7, #32]
 10037 0914 03F2EF13 		addw	r3, r3, #495
 10038 0918 0022     		movs	r2, #0
 10039 091a 1A70     		strb	r2, [r3]
 10040 091c 3B6A     		ldr	r3, [r7, #32]
 10041 091e 03F5FF73 		add	r3, r3, #510
 10042 0922 5522     		movs	r2, #85
 10043 0924 1A70     		strb	r2, [r3]
 10044 0926 3B6A     		ldr	r3, [r7, #32]
 10045 0928 03F2FF13 		addw	r3, r3, #511
 10046 092c AA22     		movs	r2, #170
 10047 092e 1A70     		strb	r2, [r3]
 10048 0930 BB6B     		ldr	r3, [r7, #56]
 10049 0932 5A1C     		adds	r2, r3, #1
 10050 0934 97F83F00 		ldrb	r0, [r7, #63]	@ zero_extendqisi2
 10051 0938 0123     		movs	r3, #1
 10052 093a 396A     		ldr	r1, [r7, #32]
 10053 093c FFF7FEFF 		bl	disk_write
 10054 0940 BB6B     		ldr	r3, [r7, #56]
 10055 0942 DA1D     		adds	r2, r3, #7
 10056 0944 97F83F00 		ldrb	r0, [r7, #63]	@ zero_extendqisi2
 10057 0948 0123     		movs	r3, #1
 10058 094a 396A     		ldr	r1, [r7, #32]
 10059 094c FFF7FEFF 		bl	disk_write
 10060              	.L762:
 10061 0950 97F83F30 		ldrb	r3, [r7, #63]	@ zero_extendqisi2
 10062 0954 0022     		movs	r2, #0
 10063 0956 0021     		movs	r1, #0
 10064 0958 1846     		mov	r0, r3
 10065 095a FFF7FEFF 		bl	disk_ioctl
 10066 095e 0346     		mov	r3, r0
 10067 0960 002B     		cmp	r3, #0
 10068 0962 14BF     		ite	ne
 10069 0964 0123     		movne	r3, #1
 10070 0966 0023     		moveq	r3, #0
 10071 0968 DBB2     		uxtb	r3, r3
 10072              	.L763:
 10073 096a 1846     		mov	r0, r3
ARM GAS  /var/folders/d2/nstgp4h54kz7g1l847x_b8wc0000gn/T//ccrhfnpm.s 			page 178


 10074 096c 6037     		adds	r7, r7, #96
 10075 096e BD46     		mov	sp, r7
 10076              		@ sp needed
 10077 0970 80BD     		pop	{r7, pc}
 10078              		.size	f_mkfs, .-f_mkfs
 10079 0972 00BF     		.section	.text.f_gets,"ax",%progbits
 10080              		.align	1
 10081              		.global	f_gets
 10082              		.syntax unified
 10083              		.thumb
 10084              		.thumb_func
 10085              		.fpu fpv4-sp-d16
 10086              		.type	f_gets, %function
 10087              	f_gets:
 10088              		@ args = 0, pretend = 0, frame = 32
 10089              		@ frame_needed = 1, uses_anonymous_args = 0
 10090 0000 80B5     		push	{r7, lr}
 10091 0002 88B0     		sub	sp, sp, #32
 10092 0004 00AF     		add	r7, sp, #0
 10093 0006 F860     		str	r0, [r7, #12]
 10094 0008 B960     		str	r1, [r7, #8]
 10095 000a 7A60     		str	r2, [r7, #4]
 10096 000c 0023     		movs	r3, #0
 10097 000e FB61     		str	r3, [r7, #28]
 10098 0010 FB68     		ldr	r3, [r7, #12]
 10099 0012 BB61     		str	r3, [r7, #24]
 10100 0014 17E0     		b	.L772
 10101              	.L775:
 10102 0016 07F11003 		add	r3, r7, #16
 10103 001a 07F11401 		add	r1, r7, #20
 10104 001e 0122     		movs	r2, #1
 10105 0020 7868     		ldr	r0, [r7, #4]
 10106 0022 FFF7FEFF 		bl	f_read
 10107 0026 3B69     		ldr	r3, [r7, #16]
 10108 0028 012B     		cmp	r3, #1
 10109 002a 12D1     		bne	.L779
 10110 002c 3B7D     		ldrb	r3, [r7, #20]
 10111 002e FB75     		strb	r3, [r7, #23]
 10112 0030 BB69     		ldr	r3, [r7, #24]
 10113 0032 5A1C     		adds	r2, r3, #1
 10114 0034 BA61     		str	r2, [r7, #24]
 10115 0036 FA7D     		ldrb	r2, [r7, #23]
 10116 0038 1A70     		strb	r2, [r3]
 10117 003a FB69     		ldr	r3, [r7, #28]
 10118 003c 0133     		adds	r3, r3, #1
 10119 003e FB61     		str	r3, [r7, #28]
 10120 0040 FB7D     		ldrb	r3, [r7, #23]	@ zero_extendqisi2
 10121 0042 0A2B     		cmp	r3, #10
 10122 0044 07D0     		beq	.L780
 10123              	.L772:
 10124 0046 BB68     		ldr	r3, [r7, #8]
 10125 0048 013B     		subs	r3, r3, #1
 10126 004a FA69     		ldr	r2, [r7, #28]
 10127 004c 9A42     		cmp	r2, r3
 10128 004e E2DB     		blt	.L775
 10129 0050 02E0     		b	.L774
 10130              	.L779:
ARM GAS  /var/folders/d2/nstgp4h54kz7g1l847x_b8wc0000gn/T//ccrhfnpm.s 			page 179


 10131 0052 00BF     		nop
 10132 0054 00E0     		b	.L774
 10133              	.L780:
 10134 0056 00BF     		nop
 10135              	.L774:
 10136 0058 BB69     		ldr	r3, [r7, #24]
 10137 005a 0022     		movs	r2, #0
 10138 005c 1A70     		strb	r2, [r3]
 10139 005e FB69     		ldr	r3, [r7, #28]
 10140 0060 002B     		cmp	r3, #0
 10141 0062 01D0     		beq	.L776
 10142 0064 FB68     		ldr	r3, [r7, #12]
 10143 0066 00E0     		b	.L778
 10144              	.L776:
 10145 0068 0023     		movs	r3, #0
 10146              	.L778:
 10147 006a 1846     		mov	r0, r3
 10148 006c 2037     		adds	r7, r7, #32
 10149 006e BD46     		mov	sp, r7
 10150              		@ sp needed
 10151 0070 80BD     		pop	{r7, pc}
 10152              		.size	f_gets, .-f_gets
 10153              		.section	.text.putc_bfd,"ax",%progbits
 10154              		.align	1
 10155              		.syntax unified
 10156              		.thumb
 10157              		.thumb_func
 10158              		.fpu fpv4-sp-d16
 10159              		.type	putc_bfd, %function
 10160              	putc_bfd:
 10161              		@ args = 0, pretend = 0, frame = 16
 10162              		@ frame_needed = 1, uses_anonymous_args = 0
 10163 0000 80B5     		push	{r7, lr}
 10164 0002 84B0     		sub	sp, sp, #16
 10165 0004 00AF     		add	r7, sp, #0
 10166 0006 7860     		str	r0, [r7, #4]
 10167 0008 0B46     		mov	r3, r1
 10168 000a FB70     		strb	r3, [r7, #3]
 10169 000c 7B68     		ldr	r3, [r7, #4]
 10170 000e 5B68     		ldr	r3, [r3, #4]
 10171 0010 FB60     		str	r3, [r7, #12]
 10172 0012 FB68     		ldr	r3, [r7, #12]
 10173 0014 002B     		cmp	r3, #0
 10174 0016 25DB     		blt	.L787
 10175 0018 FB68     		ldr	r3, [r7, #12]
 10176 001a 5A1C     		adds	r2, r3, #1
 10177 001c FA60     		str	r2, [r7, #12]
 10178 001e 7A68     		ldr	r2, [r7, #4]
 10179 0020 1344     		add	r3, r3, r2
 10180 0022 FA78     		ldrb	r2, [r7, #3]
 10181 0024 1A73     		strb	r2, [r3, #12]
 10182 0026 FB68     		ldr	r3, [r7, #12]
 10183 0028 3C2B     		cmp	r3, #60
 10184 002a 12DD     		ble	.L784
 10185 002c 7B68     		ldr	r3, [r7, #4]
 10186 002e 1868     		ldr	r0, [r3]
 10187 0030 7B68     		ldr	r3, [r7, #4]
ARM GAS  /var/folders/d2/nstgp4h54kz7g1l847x_b8wc0000gn/T//ccrhfnpm.s 			page 180


 10188 0032 03F10C01 		add	r1, r3, #12
 10189 0036 FA68     		ldr	r2, [r7, #12]
 10190 0038 07F10803 		add	r3, r7, #8
 10191 003c FFF7FEFF 		bl	f_write
 10192 0040 BA68     		ldr	r2, [r7, #8]
 10193 0042 FB68     		ldr	r3, [r7, #12]
 10194 0044 9A42     		cmp	r2, r3
 10195 0046 01D1     		bne	.L785
 10196 0048 0023     		movs	r3, #0
 10197 004a 01E0     		b	.L786
 10198              	.L785:
 10199 004c 4FF0FF33 		mov	r3, #-1
 10200              	.L786:
 10201 0050 FB60     		str	r3, [r7, #12]
 10202              	.L784:
 10203 0052 7B68     		ldr	r3, [r7, #4]
 10204 0054 FA68     		ldr	r2, [r7, #12]
 10205 0056 5A60     		str	r2, [r3, #4]
 10206 0058 7B68     		ldr	r3, [r7, #4]
 10207 005a 9B68     		ldr	r3, [r3, #8]
 10208 005c 5A1C     		adds	r2, r3, #1
 10209 005e 7B68     		ldr	r3, [r7, #4]
 10210 0060 9A60     		str	r2, [r3, #8]
 10211 0062 00E0     		b	.L781
 10212              	.L787:
 10213 0064 00BF     		nop
 10214              	.L781:
 10215 0066 1037     		adds	r7, r7, #16
 10216 0068 BD46     		mov	sp, r7
 10217              		@ sp needed
 10218 006a 80BD     		pop	{r7, pc}
 10219              		.size	putc_bfd, .-putc_bfd
 10220              		.section	.text.f_putc,"ax",%progbits
 10221              		.align	1
 10222              		.global	f_putc
 10223              		.syntax unified
 10224              		.thumb
 10225              		.thumb_func
 10226              		.fpu fpv4-sp-d16
 10227              		.type	f_putc, %function
 10228              	f_putc:
 10229              		@ args = 0, pretend = 0, frame = 88
 10230              		@ frame_needed = 1, uses_anonymous_args = 0
 10231 0000 90B5     		push	{r4, r7, lr}
 10232 0002 97B0     		sub	sp, sp, #92
 10233 0004 00AF     		add	r7, sp, #0
 10234 0006 0346     		mov	r3, r0
 10235 0008 3960     		str	r1, [r7]
 10236 000a FB71     		strb	r3, [r7, #7]
 10237 000c 3B68     		ldr	r3, [r7]
 10238 000e FB60     		str	r3, [r7, #12]
 10239 0010 0023     		movs	r3, #0
 10240 0012 3B61     		str	r3, [r7, #16]
 10241 0014 3B69     		ldr	r3, [r7, #16]
 10242 0016 7B61     		str	r3, [r7, #20]
 10243 0018 FA79     		ldrb	r2, [r7, #7]	@ zero_extendqisi2
 10244 001a 07F10C03 		add	r3, r7, #12
ARM GAS  /var/folders/d2/nstgp4h54kz7g1l847x_b8wc0000gn/T//ccrhfnpm.s 			page 181


 10245 001e 1146     		mov	r1, r2
 10246 0020 1846     		mov	r0, r3
 10247 0022 FFF7FEFF 		bl	putc_bfd
 10248 0026 3B69     		ldr	r3, [r7, #16]
 10249 0028 002B     		cmp	r3, #0
 10250 002a 16DB     		blt	.L789
 10251 002c F868     		ldr	r0, [r7, #12]
 10252 002e 3B69     		ldr	r3, [r7, #16]
 10253 0030 1C46     		mov	r4, r3
 10254 0032 07F10802 		add	r2, r7, #8
 10255 0036 07F10C03 		add	r3, r7, #12
 10256 003a 03F10C01 		add	r1, r3, #12
 10257 003e 1346     		mov	r3, r2
 10258 0040 2246     		mov	r2, r4
 10259 0042 FFF7FEFF 		bl	f_write
 10260 0046 0346     		mov	r3, r0
 10261 0048 002B     		cmp	r3, #0
 10262 004a 06D1     		bne	.L789
 10263 004c 3B69     		ldr	r3, [r7, #16]
 10264 004e 1A46     		mov	r2, r3
 10265 0050 BB68     		ldr	r3, [r7, #8]
 10266 0052 9A42     		cmp	r2, r3
 10267 0054 01D1     		bne	.L789
 10268 0056 7B69     		ldr	r3, [r7, #20]
 10269 0058 01E0     		b	.L791
 10270              	.L789:
 10271 005a 4FF0FF33 		mov	r3, #-1
 10272              	.L791:
 10273 005e 1846     		mov	r0, r3
 10274 0060 5C37     		adds	r7, r7, #92
 10275 0062 BD46     		mov	sp, r7
 10276              		@ sp needed
 10277 0064 90BD     		pop	{r4, r7, pc}
 10278              		.size	f_putc, .-f_putc
 10279              		.section	.text.f_puts,"ax",%progbits
 10280              		.align	1
 10281              		.global	f_puts
 10282              		.syntax unified
 10283              		.thumb
 10284              		.thumb_func
 10285              		.fpu fpv4-sp-d16
 10286              		.type	f_puts, %function
 10287              	f_puts:
 10288              		@ args = 0, pretend = 0, frame = 88
 10289              		@ frame_needed = 1, uses_anonymous_args = 0
 10290 0000 90B5     		push	{r4, r7, lr}
 10291 0002 97B0     		sub	sp, sp, #92
 10292 0004 00AF     		add	r7, sp, #0
 10293 0006 7860     		str	r0, [r7, #4]
 10294 0008 3960     		str	r1, [r7]
 10295 000a 3B68     		ldr	r3, [r7]
 10296 000c FB60     		str	r3, [r7, #12]
 10297 000e 0023     		movs	r3, #0
 10298 0010 3B61     		str	r3, [r7, #16]
 10299 0012 3B69     		ldr	r3, [r7, #16]
 10300 0014 7B61     		str	r3, [r7, #20]
 10301 0016 09E0     		b	.L793
ARM GAS  /var/folders/d2/nstgp4h54kz7g1l847x_b8wc0000gn/T//ccrhfnpm.s 			page 182


 10302              	.L794:
 10303 0018 7B68     		ldr	r3, [r7, #4]
 10304 001a 5A1C     		adds	r2, r3, #1
 10305 001c 7A60     		str	r2, [r7, #4]
 10306 001e 1A78     		ldrb	r2, [r3]	@ zero_extendqisi2
 10307 0020 07F10C03 		add	r3, r7, #12
 10308 0024 1146     		mov	r1, r2
 10309 0026 1846     		mov	r0, r3
 10310 0028 FFF7FEFF 		bl	putc_bfd
 10311              	.L793:
 10312 002c 7B68     		ldr	r3, [r7, #4]
 10313 002e 1B78     		ldrb	r3, [r3]	@ zero_extendqisi2
 10314 0030 002B     		cmp	r3, #0
 10315 0032 F1D1     		bne	.L794
 10316 0034 3B69     		ldr	r3, [r7, #16]
 10317 0036 002B     		cmp	r3, #0
 10318 0038 16DB     		blt	.L795
 10319 003a F868     		ldr	r0, [r7, #12]
 10320 003c 3B69     		ldr	r3, [r7, #16]
 10321 003e 1C46     		mov	r4, r3
 10322 0040 07F10802 		add	r2, r7, #8
 10323 0044 07F10C03 		add	r3, r7, #12
 10324 0048 03F10C01 		add	r1, r3, #12
 10325 004c 1346     		mov	r3, r2
 10326 004e 2246     		mov	r2, r4
 10327 0050 FFF7FEFF 		bl	f_write
 10328 0054 0346     		mov	r3, r0
 10329 0056 002B     		cmp	r3, #0
 10330 0058 06D1     		bne	.L795
 10331 005a 3B69     		ldr	r3, [r7, #16]
 10332 005c 1A46     		mov	r2, r3
 10333 005e BB68     		ldr	r3, [r7, #8]
 10334 0060 9A42     		cmp	r2, r3
 10335 0062 01D1     		bne	.L795
 10336 0064 7B69     		ldr	r3, [r7, #20]
 10337 0066 01E0     		b	.L797
 10338              	.L795:
 10339 0068 4FF0FF33 		mov	r3, #-1
 10340              	.L797:
 10341 006c 1846     		mov	r0, r3
 10342 006e 5C37     		adds	r7, r7, #92
 10343 0070 BD46     		mov	sp, r7
 10344              		@ sp needed
 10345 0072 90BD     		pop	{r4, r7, pc}
 10346              		.size	f_puts, .-f_puts
 10347              		.section	.text.f_printf,"ax",%progbits
 10348              		.align	1
 10349              		.global	f_printf
 10350              		.syntax unified
 10351              		.thumb
 10352              		.thumb_func
 10353              		.fpu fpv4-sp-d16
 10354              		.type	f_printf, %function
 10355              	f_printf:
 10356              		@ args = 4, pretend = 12, frame = 136
 10357              		@ frame_needed = 1, uses_anonymous_args = 1
 10358 0000 0EB4     		push	{r1, r2, r3}
ARM GAS  /var/folders/d2/nstgp4h54kz7g1l847x_b8wc0000gn/T//ccrhfnpm.s 			page 183


 10359 0002 90B5     		push	{r4, r7, lr}
 10360 0004 A2B0     		sub	sp, sp, #136
 10361 0006 00AF     		add	r7, sp, #0
 10362 0008 7860     		str	r0, [r7, #4]
 10363 000a 7B68     		ldr	r3, [r7, #4]
 10364 000c BB60     		str	r3, [r7, #8]
 10365 000e 0023     		movs	r3, #0
 10366 0010 FB60     		str	r3, [r7, #12]
 10367 0012 FB68     		ldr	r3, [r7, #12]
 10368 0014 3B61     		str	r3, [r7, #16]
 10369 0016 07F19803 		add	r3, r7, #152
 10370 001a BB66     		str	r3, [r7, #104]
 10371              	.L849:
 10372 001c D7F89430 		ldr	r3, [r7, #148]
 10373 0020 5A1C     		adds	r2, r3, #1
 10374 0022 C7F89420 		str	r2, [r7, #148]
 10375 0026 1B78     		ldrb	r3, [r3]
 10376 0028 87F87330 		strb	r3, [r7, #115]
 10377 002c 97F87330 		ldrb	r3, [r7, #115]	@ zero_extendqisi2
 10378 0030 002B     		cmp	r3, #0
 10379 0032 00F0D981 		beq	.L853
 10380 0036 97F87330 		ldrb	r3, [r7, #115]	@ zero_extendqisi2
 10381 003a 252B     		cmp	r3, #37
 10382 003c 08D0     		beq	.L801
 10383 003e 97F87320 		ldrb	r2, [r7, #115]	@ zero_extendqisi2
 10384 0042 07F10803 		add	r3, r7, #8
 10385 0046 1146     		mov	r1, r2
 10386 0048 1846     		mov	r0, r3
 10387 004a FFF7FEFF 		bl	putc_bfd
 10388 004e CAE1     		b	.L802
 10389              	.L801:
 10390 0050 0023     		movs	r3, #0
 10391 0052 87F88730 		strb	r3, [r7, #135]
 10392 0056 0023     		movs	r3, #0
 10393 0058 BB67     		str	r3, [r7, #120]
 10394 005a D7F89430 		ldr	r3, [r7, #148]
 10395 005e 5A1C     		adds	r2, r3, #1
 10396 0060 C7F89420 		str	r2, [r7, #148]
 10397 0064 1B78     		ldrb	r3, [r3]
 10398 0066 87F87330 		strb	r3, [r7, #115]
 10399 006a 97F87330 		ldrb	r3, [r7, #115]	@ zero_extendqisi2
 10400 006e 302B     		cmp	r3, #48
 10401 0070 0BD1     		bne	.L803
 10402 0072 0123     		movs	r3, #1
 10403 0074 87F88730 		strb	r3, [r7, #135]
 10404 0078 D7F89430 		ldr	r3, [r7, #148]
 10405 007c 5A1C     		adds	r2, r3, #1
 10406 007e C7F89420 		str	r2, [r7, #148]
 10407 0082 1B78     		ldrb	r3, [r3]
 10408 0084 87F87330 		strb	r3, [r7, #115]
 10409 0088 22E0     		b	.L805
 10410              	.L803:
 10411 008a 97F87330 		ldrb	r3, [r7, #115]	@ zero_extendqisi2
 10412 008e 2D2B     		cmp	r3, #45
 10413 0090 1ED1     		bne	.L805
 10414 0092 0223     		movs	r3, #2
 10415 0094 87F88730 		strb	r3, [r7, #135]
ARM GAS  /var/folders/d2/nstgp4h54kz7g1l847x_b8wc0000gn/T//ccrhfnpm.s 			page 184


 10416 0098 D7F89430 		ldr	r3, [r7, #148]
 10417 009c 5A1C     		adds	r2, r3, #1
 10418 009e C7F89420 		str	r2, [r7, #148]
 10419 00a2 1B78     		ldrb	r3, [r3]
 10420 00a4 87F87330 		strb	r3, [r7, #115]
 10421 00a8 12E0     		b	.L805
 10422              	.L807:
 10423 00aa BA6F     		ldr	r2, [r7, #120]
 10424 00ac 1346     		mov	r3, r2
 10425 00ae 9B00     		lsls	r3, r3, #2
 10426 00b0 1344     		add	r3, r3, r2
 10427 00b2 5B00     		lsls	r3, r3, #1
 10428 00b4 1A46     		mov	r2, r3
 10429 00b6 97F87330 		ldrb	r3, [r7, #115]	@ zero_extendqisi2
 10430 00ba 1344     		add	r3, r3, r2
 10431 00bc 303B     		subs	r3, r3, #48
 10432 00be BB67     		str	r3, [r7, #120]
 10433 00c0 D7F89430 		ldr	r3, [r7, #148]
 10434 00c4 5A1C     		adds	r2, r3, #1
 10435 00c6 C7F89420 		str	r2, [r7, #148]
 10436 00ca 1B78     		ldrb	r3, [r3]
 10437 00cc 87F87330 		strb	r3, [r7, #115]
 10438              	.L805:
 10439 00d0 97F87330 		ldrb	r3, [r7, #115]	@ zero_extendqisi2
 10440 00d4 2F2B     		cmp	r3, #47
 10441 00d6 03D9     		bls	.L806
 10442 00d8 97F87330 		ldrb	r3, [r7, #115]	@ zero_extendqisi2
 10443 00dc 392B     		cmp	r3, #57
 10444 00de E4D9     		bls	.L807
 10445              	.L806:
 10446 00e0 97F87330 		ldrb	r3, [r7, #115]	@ zero_extendqisi2
 10447 00e4 6C2B     		cmp	r3, #108
 10448 00e6 03D0     		beq	.L808
 10449 00e8 97F87330 		ldrb	r3, [r7, #115]	@ zero_extendqisi2
 10450 00ec 4C2B     		cmp	r3, #76
 10451 00ee 0DD1     		bne	.L809
 10452              	.L808:
 10453 00f0 97F88730 		ldrb	r3, [r7, #135]
 10454 00f4 43F00403 		orr	r3, r3, #4
 10455 00f8 87F88730 		strb	r3, [r7, #135]
 10456 00fc D7F89430 		ldr	r3, [r7, #148]
 10457 0100 5A1C     		adds	r2, r3, #1
 10458 0102 C7F89420 		str	r2, [r7, #148]
 10459 0106 1B78     		ldrb	r3, [r3]
 10460 0108 87F87330 		strb	r3, [r7, #115]
 10461              	.L809:
 10462 010c 97F87330 		ldrb	r3, [r7, #115]	@ zero_extendqisi2
 10463 0110 002B     		cmp	r3, #0
 10464 0112 00F06B81 		beq	.L854
 10465 0116 97F87330 		ldrb	r3, [r7, #115]
 10466 011a 87F87230 		strb	r3, [r7, #114]
 10467 011e 97F87230 		ldrb	r3, [r7, #114]	@ zero_extendqisi2
 10468 0122 602B     		cmp	r3, #96
 10469 0124 08D9     		bls	.L811
 10470 0126 97F87230 		ldrb	r3, [r7, #114]	@ zero_extendqisi2
 10471 012a 7A2B     		cmp	r3, #122
 10472 012c 04D8     		bhi	.L811
ARM GAS  /var/folders/d2/nstgp4h54kz7g1l847x_b8wc0000gn/T//ccrhfnpm.s 			page 185


 10473 012e 97F87230 		ldrb	r3, [r7, #114]
 10474 0132 203B     		subs	r3, r3, #32
 10475 0134 87F87230 		strb	r3, [r7, #114]
 10476              	.L811:
 10477 0138 97F87230 		ldrb	r3, [r7, #114]	@ zero_extendqisi2
 10478 013c 423B     		subs	r3, r3, #66
 10479 013e 162B     		cmp	r3, #22
 10480 0140 00F28F80 		bhi	.L812
 10481 0144 01A2     		adr	r2, .L814
 10482 0146 52F823F0 		ldr	pc, [r2, r3, lsl #2]
 10483 014a 00BF     		.p2align 2
 10484              	.L814:
 10485 014c 43020000 		.word	.L813+1
 10486 0150 2B020000 		.word	.L815+1
 10487 0154 53020000 		.word	.L816+1
 10488 0158 63020000 		.word	.L812+1
 10489 015c 63020000 		.word	.L812+1
 10490 0160 63020000 		.word	.L812+1
 10491 0164 63020000 		.word	.L812+1
 10492 0168 63020000 		.word	.L812+1
 10493 016c 63020000 		.word	.L812+1
 10494 0170 63020000 		.word	.L812+1
 10495 0174 63020000 		.word	.L812+1
 10496 0178 63020000 		.word	.L812+1
 10497 017c 63020000 		.word	.L812+1
 10498 0180 4B020000 		.word	.L817+1
 10499 0184 63020000 		.word	.L812+1
 10500 0188 63020000 		.word	.L812+1
 10501 018c 63020000 		.word	.L812+1
 10502 0190 A9010000 		.word	.L818+1
 10503 0194 63020000 		.word	.L812+1
 10504 0198 53020000 		.word	.L816+1
 10505 019c 63020000 		.word	.L812+1
 10506 01a0 63020000 		.word	.L812+1
 10507 01a4 5B020000 		.word	.L819+1
 10508              		.p2align 1
 10509              	.L818:
 10510 01a8 BB6E     		ldr	r3, [r7, #104]
 10511 01aa 1A1D     		adds	r2, r3, #4
 10512 01ac BA66     		str	r2, [r7, #104]
 10513 01ae 1B68     		ldr	r3, [r3]
 10514 01b0 FB66     		str	r3, [r7, #108]
 10515 01b2 0023     		movs	r3, #0
 10516 01b4 FB67     		str	r3, [r7, #124]
 10517 01b6 02E0     		b	.L820
 10518              	.L821:
 10519 01b8 FB6F     		ldr	r3, [r7, #124]
 10520 01ba 0133     		adds	r3, r3, #1
 10521 01bc FB67     		str	r3, [r7, #124]
 10522              	.L820:
 10523 01be FA6E     		ldr	r2, [r7, #108]
 10524 01c0 FB6F     		ldr	r3, [r7, #124]
 10525 01c2 1344     		add	r3, r3, r2
 10526 01c4 1B78     		ldrb	r3, [r3]	@ zero_extendqisi2
 10527 01c6 002B     		cmp	r3, #0
 10528 01c8 F6D1     		bne	.L821
 10529 01ca 97F88730 		ldrb	r3, [r7, #135]	@ zero_extendqisi2
ARM GAS  /var/folders/d2/nstgp4h54kz7g1l847x_b8wc0000gn/T//ccrhfnpm.s 			page 186


 10530 01ce 03F00203 		and	r3, r3, #2
 10531 01d2 002B     		cmp	r3, #0
 10532 01d4 17D1     		bne	.L825
 10533 01d6 05E0     		b	.L823
 10534              	.L824:
 10535 01d8 07F10803 		add	r3, r7, #8
 10536 01dc 2021     		movs	r1, #32
 10537 01de 1846     		mov	r0, r3
 10538 01e0 FFF7FEFF 		bl	putc_bfd
 10539              	.L823:
 10540 01e4 FB6F     		ldr	r3, [r7, #124]
 10541 01e6 5A1C     		adds	r2, r3, #1
 10542 01e8 FA67     		str	r2, [r7, #124]
 10543 01ea BA6F     		ldr	r2, [r7, #120]
 10544 01ec 9A42     		cmp	r2, r3
 10545 01ee F3D8     		bhi	.L824
 10546 01f0 09E0     		b	.L825
 10547              	.L826:
 10548 01f2 FB6E     		ldr	r3, [r7, #108]
 10549 01f4 5A1C     		adds	r2, r3, #1
 10550 01f6 FA66     		str	r2, [r7, #108]
 10551 01f8 1A78     		ldrb	r2, [r3]	@ zero_extendqisi2
 10552 01fa 07F10803 		add	r3, r7, #8
 10553 01fe 1146     		mov	r1, r2
 10554 0200 1846     		mov	r0, r3
 10555 0202 FFF7FEFF 		bl	putc_bfd
 10556              	.L825:
 10557 0206 FB6E     		ldr	r3, [r7, #108]
 10558 0208 1B78     		ldrb	r3, [r3]	@ zero_extendqisi2
 10559 020a 002B     		cmp	r3, #0
 10560 020c F1D1     		bne	.L826
 10561 020e 05E0     		b	.L827
 10562              	.L828:
 10563 0210 07F10803 		add	r3, r7, #8
 10564 0214 2021     		movs	r1, #32
 10565 0216 1846     		mov	r0, r3
 10566 0218 FFF7FEFF 		bl	putc_bfd
 10567              	.L827:
 10568 021c FB6F     		ldr	r3, [r7, #124]
 10569 021e 5A1C     		adds	r2, r3, #1
 10570 0220 FA67     		str	r2, [r7, #124]
 10571 0222 BA6F     		ldr	r2, [r7, #120]
 10572 0224 9A42     		cmp	r2, r3
 10573 0226 F3D8     		bhi	.L828
 10574 0228 DDE0     		b	.L802
 10575              	.L815:
 10576 022a BB6E     		ldr	r3, [r7, #104]
 10577 022c 1A1D     		adds	r2, r3, #4
 10578 022e BA66     		str	r2, [r7, #104]
 10579 0230 1B68     		ldr	r3, [r3]
 10580 0232 DAB2     		uxtb	r2, r3
 10581 0234 07F10803 		add	r3, r7, #8
 10582 0238 1146     		mov	r1, r2
 10583 023a 1846     		mov	r0, r3
 10584 023c FFF7FEFF 		bl	putc_bfd
 10585 0240 D1E0     		b	.L802
 10586              	.L813:
ARM GAS  /var/folders/d2/nstgp4h54kz7g1l847x_b8wc0000gn/T//ccrhfnpm.s 			page 187


 10587 0242 0223     		movs	r3, #2
 10588 0244 87F88630 		strb	r3, [r7, #134]
 10589 0248 14E0     		b	.L829
 10590              	.L817:
 10591 024a 0823     		movs	r3, #8
 10592 024c 87F88630 		strb	r3, [r7, #134]
 10593 0250 10E0     		b	.L829
 10594              	.L816:
 10595 0252 0A23     		movs	r3, #10
 10596 0254 87F88630 		strb	r3, [r7, #134]
 10597 0258 0CE0     		b	.L829
 10598              	.L819:
 10599 025a 1023     		movs	r3, #16
 10600 025c 87F88630 		strb	r3, [r7, #134]
 10601 0260 08E0     		b	.L829
 10602              	.L812:
 10603 0262 97F87320 		ldrb	r2, [r7, #115]	@ zero_extendqisi2
 10604 0266 07F10803 		add	r3, r7, #8
 10605 026a 1146     		mov	r1, r2
 10606 026c 1846     		mov	r0, r3
 10607 026e FFF7FEFF 		bl	putc_bfd
 10608 0272 B8E0     		b	.L802
 10609              	.L829:
 10610 0274 97F88730 		ldrb	r3, [r7, #135]	@ zero_extendqisi2
 10611 0278 03F00403 		and	r3, r3, #4
 10612 027c 002B     		cmp	r3, #0
 10613 027e 04D0     		beq	.L830
 10614 0280 BB6E     		ldr	r3, [r7, #104]
 10615 0282 1A1D     		adds	r2, r3, #4
 10616 0284 BA66     		str	r2, [r7, #104]
 10617 0286 1B68     		ldr	r3, [r3]
 10618 0288 0CE0     		b	.L831
 10619              	.L830:
 10620 028a 97F87230 		ldrb	r3, [r7, #114]	@ zero_extendqisi2
 10621 028e 442B     		cmp	r3, #68
 10622 0290 04D1     		bne	.L832
 10623 0292 BB6E     		ldr	r3, [r7, #104]
 10624 0294 1A1D     		adds	r2, r3, #4
 10625 0296 BA66     		str	r2, [r7, #104]
 10626 0298 1B68     		ldr	r3, [r3]
 10627 029a 03E0     		b	.L831
 10628              	.L832:
 10629 029c BB6E     		ldr	r3, [r7, #104]
 10630 029e 1A1D     		adds	r2, r3, #4
 10631 02a0 BA66     		str	r2, [r7, #104]
 10632 02a2 1B68     		ldr	r3, [r3]
 10633              	.L831:
 10634 02a4 7B67     		str	r3, [r7, #116]
 10635 02a6 97F87230 		ldrb	r3, [r7, #114]	@ zero_extendqisi2
 10636 02aa 442B     		cmp	r3, #68
 10637 02ac 0BD1     		bne	.L834
 10638 02ae 7B6F     		ldr	r3, [r7, #116]
 10639 02b0 002B     		cmp	r3, #0
 10640 02b2 08DA     		bge	.L834
 10641 02b4 7B6F     		ldr	r3, [r7, #116]
 10642 02b6 5B42     		negs	r3, r3
 10643 02b8 7B67     		str	r3, [r7, #116]
ARM GAS  /var/folders/d2/nstgp4h54kz7g1l847x_b8wc0000gn/T//ccrhfnpm.s 			page 188


 10644 02ba 97F88730 		ldrb	r3, [r7, #135]
 10645 02be 43F00803 		orr	r3, r3, #8
 10646 02c2 87F88730 		strb	r3, [r7, #135]
 10647              	.L834:
 10648 02c6 0023     		movs	r3, #0
 10649 02c8 C7F88030 		str	r3, [r7, #128]
 10650              	.L839:
 10651 02cc 97F88620 		ldrb	r2, [r7, #134]	@ zero_extendqisi2
 10652 02d0 7B6F     		ldr	r3, [r7, #116]
 10653 02d2 B3FBF2F1 		udiv	r1, r3, r2
 10654 02d6 02FB01F2 		mul	r2, r2, r1
 10655 02da 9B1A     		subs	r3, r3, r2
 10656 02dc 87F87230 		strb	r3, [r7, #114]
 10657 02e0 97F88630 		ldrb	r3, [r7, #134]	@ zero_extendqisi2
 10658 02e4 7A6F     		ldr	r2, [r7, #116]
 10659 02e6 B2FBF3F3 		udiv	r3, r2, r3
 10660 02ea 7B67     		str	r3, [r7, #116]
 10661 02ec 97F87230 		ldrb	r3, [r7, #114]	@ zero_extendqisi2
 10662 02f0 092B     		cmp	r3, #9
 10663 02f2 0BD9     		bls	.L835
 10664 02f4 97F87330 		ldrb	r3, [r7, #115]	@ zero_extendqisi2
 10665 02f8 782B     		cmp	r3, #120
 10666 02fa 01D1     		bne	.L836
 10667 02fc 2722     		movs	r2, #39
 10668 02fe 00E0     		b	.L837
 10669              	.L836:
 10670 0300 0722     		movs	r2, #7
 10671              	.L837:
 10672 0302 97F87230 		ldrb	r3, [r7, #114]
 10673 0306 1344     		add	r3, r3, r2
 10674 0308 87F87230 		strb	r3, [r7, #114]
 10675              	.L835:
 10676 030c D7F88030 		ldr	r3, [r7, #128]
 10677 0310 5A1C     		adds	r2, r3, #1
 10678 0312 C7F88020 		str	r2, [r7, #128]
 10679 0316 97F87220 		ldrb	r2, [r7, #114]
 10680 031a 3032     		adds	r2, r2, #48
 10681 031c D2B2     		uxtb	r2, r2
 10682 031e 07F18801 		add	r1, r7, #136
 10683 0322 0B44     		add	r3, r3, r1
 10684 0324 03F8342C 		strb	r2, [r3, #-52]
 10685 0328 7B6F     		ldr	r3, [r7, #116]
 10686 032a 002B     		cmp	r3, #0
 10687 032c 03D0     		beq	.L838
 10688 032e D7F88030 		ldr	r3, [r7, #128]
 10689 0332 0F2B     		cmp	r3, #15
 10690 0334 CAD9     		bls	.L839
 10691              	.L838:
 10692 0336 97F88730 		ldrb	r3, [r7, #135]	@ zero_extendqisi2
 10693 033a 03F00803 		and	r3, r3, #8
 10694 033e 002B     		cmp	r3, #0
 10695 0340 0AD0     		beq	.L840
 10696 0342 D7F88030 		ldr	r3, [r7, #128]
 10697 0346 5A1C     		adds	r2, r3, #1
 10698 0348 C7F88020 		str	r2, [r7, #128]
 10699 034c 07F18802 		add	r2, r7, #136
 10700 0350 1344     		add	r3, r3, r2
ARM GAS  /var/folders/d2/nstgp4h54kz7g1l847x_b8wc0000gn/T//ccrhfnpm.s 			page 189


 10701 0352 2D22     		movs	r2, #45
 10702 0354 03F8342C 		strb	r2, [r3, #-52]
 10703              	.L840:
 10704 0358 D7F88030 		ldr	r3, [r7, #128]
 10705 035c FB67     		str	r3, [r7, #124]
 10706 035e 97F88730 		ldrb	r3, [r7, #135]	@ zero_extendqisi2
 10707 0362 03F00103 		and	r3, r3, #1
 10708 0366 002B     		cmp	r3, #0
 10709 0368 01D0     		beq	.L841
 10710 036a 3023     		movs	r3, #48
 10711 036c 00E0     		b	.L842
 10712              	.L841:
 10713 036e 2023     		movs	r3, #32
 10714              	.L842:
 10715 0370 87F87230 		strb	r3, [r7, #114]
 10716 0374 07E0     		b	.L843
 10717              	.L845:
 10718 0376 97F87220 		ldrb	r2, [r7, #114]	@ zero_extendqisi2
 10719 037a 07F10803 		add	r3, r7, #8
 10720 037e 1146     		mov	r1, r2
 10721 0380 1846     		mov	r0, r3
 10722 0382 FFF7FEFF 		bl	putc_bfd
 10723              	.L843:
 10724 0386 97F88730 		ldrb	r3, [r7, #135]	@ zero_extendqisi2
 10725 038a 03F00203 		and	r3, r3, #2
 10726 038e 002B     		cmp	r3, #0
 10727 0390 05D1     		bne	.L846
 10728 0392 FB6F     		ldr	r3, [r7, #124]
 10729 0394 5A1C     		adds	r2, r3, #1
 10730 0396 FA67     		str	r2, [r7, #124]
 10731 0398 BA6F     		ldr	r2, [r7, #120]
 10732 039a 9A42     		cmp	r2, r3
 10733 039c EBD8     		bhi	.L845
 10734              	.L846:
 10735 039e D7F88030 		ldr	r3, [r7, #128]
 10736 03a2 013B     		subs	r3, r3, #1
 10737 03a4 C7F88030 		str	r3, [r7, #128]
 10738 03a8 07F15402 		add	r2, r7, #84
 10739 03ac D7F88030 		ldr	r3, [r7, #128]
 10740 03b0 1344     		add	r3, r3, r2
 10741 03b2 1A78     		ldrb	r2, [r3]	@ zero_extendqisi2
 10742 03b4 07F10803 		add	r3, r7, #8
 10743 03b8 1146     		mov	r1, r2
 10744 03ba 1846     		mov	r0, r3
 10745 03bc FFF7FEFF 		bl	putc_bfd
 10746 03c0 D7F88030 		ldr	r3, [r7, #128]
 10747 03c4 002B     		cmp	r3, #0
 10748 03c6 EAD1     		bne	.L846
 10749 03c8 07E0     		b	.L847
 10750              	.L848:
 10751 03ca 97F87220 		ldrb	r2, [r7, #114]	@ zero_extendqisi2
 10752 03ce 07F10803 		add	r3, r7, #8
 10753 03d2 1146     		mov	r1, r2
 10754 03d4 1846     		mov	r0, r3
 10755 03d6 FFF7FEFF 		bl	putc_bfd
 10756              	.L847:
 10757 03da FB6F     		ldr	r3, [r7, #124]
ARM GAS  /var/folders/d2/nstgp4h54kz7g1l847x_b8wc0000gn/T//ccrhfnpm.s 			page 190


 10758 03dc 5A1C     		adds	r2, r3, #1
 10759 03de FA67     		str	r2, [r7, #124]
 10760 03e0 BA6F     		ldr	r2, [r7, #120]
 10761 03e2 9A42     		cmp	r2, r3
 10762 03e4 F1D8     		bhi	.L848
 10763              	.L802:
 10764 03e6 19E6     		b	.L849
 10765              	.L853:
 10766 03e8 00BF     		nop
 10767 03ea 00E0     		b	.L800
 10768              	.L854:
 10769 03ec 00BF     		nop
 10770              	.L800:
 10771 03ee FB68     		ldr	r3, [r7, #12]
 10772 03f0 002B     		cmp	r3, #0
 10773 03f2 16DB     		blt	.L850
 10774 03f4 B868     		ldr	r0, [r7, #8]
 10775 03f6 FB68     		ldr	r3, [r7, #12]
 10776 03f8 1C46     		mov	r4, r3
 10777 03fa 07F16402 		add	r2, r7, #100
 10778 03fe 07F10803 		add	r3, r7, #8
 10779 0402 03F10C01 		add	r1, r3, #12
 10780 0406 1346     		mov	r3, r2
 10781 0408 2246     		mov	r2, r4
 10782 040a FFF7FEFF 		bl	f_write
 10783 040e 0346     		mov	r3, r0
 10784 0410 002B     		cmp	r3, #0
 10785 0412 06D1     		bne	.L850
 10786 0414 FB68     		ldr	r3, [r7, #12]
 10787 0416 1A46     		mov	r2, r3
 10788 0418 7B6E     		ldr	r3, [r7, #100]
 10789 041a 9A42     		cmp	r2, r3
 10790 041c 01D1     		bne	.L850
 10791 041e 3B69     		ldr	r3, [r7, #16]
 10792 0420 01E0     		b	.L852
 10793              	.L850:
 10794 0422 4FF0FF33 		mov	r3, #-1
 10795              	.L852:
 10796 0426 1846     		mov	r0, r3
 10797 0428 8837     		adds	r7, r7, #136
 10798 042a BD46     		mov	sp, r7
 10799              		@ sp needed
 10800 042c BDE89040 		pop	{r4, r7, lr}
 10801 0430 03B0     		add	sp, sp, #12
 10802 0432 7047     		bx	lr
 10803              		.size	f_printf, .-f_printf
 10804              		.section	.rodata.vst.8662,"a",%progbits
 10805              		.align	2
 10806              		.type	vst.8662, %object
 10807              		.size	vst.8662, 22
 10808              	vst.8662:
 10809 0000 0004     		.short	1024
 10810 0002 0002     		.short	512
 10811 0004 0001     		.short	256
 10812 0006 8000     		.short	128
 10813 0008 4000     		.short	64
 10814 000a 2000     		.short	32
ARM GAS  /var/folders/d2/nstgp4h54kz7g1l847x_b8wc0000gn/T//ccrhfnpm.s 			page 191


 10815 000c 1000     		.short	16
 10816 000e 0800     		.short	8
 10817 0010 0400     		.short	4
 10818 0012 0200     		.short	2
 10819 0014 0000     		.short	0
 10820              		.section	.rodata.cst.8663,"a",%progbits
 10821              		.align	2
 10822              		.type	cst.8663, %object
 10823              		.size	cst.8663, 22
 10824              	cst.8663:
 10825 0000 0080     		.short	-32768
 10826 0002 0040     		.short	16384
 10827 0004 0020     		.short	8192
 10828 0006 0010     		.short	4096
 10829 0008 0008     		.short	2048
 10830 000a 0040     		.short	16384
 10831 000c 0020     		.short	8192
 10832 000e 0010     		.short	4096
 10833 0010 0008     		.short	2048
 10834 0012 0004     		.short	1024
 10835 0014 0002     		.short	512
 10836              		.ident	"GCC: (GNU Tools for Arm Embedded Processors 7-2017-q4-major) 7.2.1 20170904 (release) [ARM
ARM GAS  /var/folders/d2/nstgp4h54kz7g1l847x_b8wc0000gn/T//ccrhfnpm.s 			page 192


DEFINED SYMBOLS
                            *ABS*:0000000000000000 ff.c
/var/folders/d2/nstgp4h54kz7g1l847x_b8wc0000gn/T//ccrhfnpm.s:15     .bss.FatFs:0000000000000000 $d
/var/folders/d2/nstgp4h54kz7g1l847x_b8wc0000gn/T//ccrhfnpm.s:18     .bss.FatFs:0000000000000000 FatFs
/var/folders/d2/nstgp4h54kz7g1l847x_b8wc0000gn/T//ccrhfnpm.s:21     .bss.Fsid:0000000000000000 $d
/var/folders/d2/nstgp4h54kz7g1l847x_b8wc0000gn/T//ccrhfnpm.s:24     .bss.Fsid:0000000000000000 Fsid
/var/folders/d2/nstgp4h54kz7g1l847x_b8wc0000gn/T//ccrhfnpm.s:27     .rodata.ExCvt:0000000000000000 $d
/var/folders/d2/nstgp4h54kz7g1l847x_b8wc0000gn/T//ccrhfnpm.s:30     .rodata.ExCvt:0000000000000000 ExCvt
/var/folders/d2/nstgp4h54kz7g1l847x_b8wc0000gn/T//ccrhfnpm.s:160    .text.mem_cpy:0000000000000000 $t
/var/folders/d2/nstgp4h54kz7g1l847x_b8wc0000gn/T//ccrhfnpm.s:166    .text.mem_cpy:0000000000000000 mem_cpy
/var/folders/d2/nstgp4h54kz7g1l847x_b8wc0000gn/T//ccrhfnpm.s:204    .text.mem_set:0000000000000000 $t
/var/folders/d2/nstgp4h54kz7g1l847x_b8wc0000gn/T//ccrhfnpm.s:210    .text.mem_set:0000000000000000 mem_set
/var/folders/d2/nstgp4h54kz7g1l847x_b8wc0000gn/T//ccrhfnpm.s:244    .text.mem_cmp:0000000000000000 $t
/var/folders/d2/nstgp4h54kz7g1l847x_b8wc0000gn/T//ccrhfnpm.s:250    .text.mem_cmp:0000000000000000 mem_cmp
/var/folders/d2/nstgp4h54kz7g1l847x_b8wc0000gn/T//ccrhfnpm.s:297    .text.chk_chr:0000000000000000 $t
/var/folders/d2/nstgp4h54kz7g1l847x_b8wc0000gn/T//ccrhfnpm.s:303    .text.chk_chr:0000000000000000 chk_chr
/var/folders/d2/nstgp4h54kz7g1l847x_b8wc0000gn/T//ccrhfnpm.s:339    .text.sync_window:0000000000000000 $t
/var/folders/d2/nstgp4h54kz7g1l847x_b8wc0000gn/T//ccrhfnpm.s:345    .text.sync_window:0000000000000000 sync_window
/var/folders/d2/nstgp4h54kz7g1l847x_b8wc0000gn/T//ccrhfnpm.s:417    .text.move_window:0000000000000000 $t
/var/folders/d2/nstgp4h54kz7g1l847x_b8wc0000gn/T//ccrhfnpm.s:423    .text.move_window:0000000000000000 move_window
/var/folders/d2/nstgp4h54kz7g1l847x_b8wc0000gn/T//ccrhfnpm.s:470    .text.sync_fs:0000000000000000 $t
/var/folders/d2/nstgp4h54kz7g1l847x_b8wc0000gn/T//ccrhfnpm.s:476    .text.sync_fs:0000000000000000 sync_fs
/var/folders/d2/nstgp4h54kz7g1l847x_b8wc0000gn/T//ccrhfnpm.s:621    .text.clust2sect:0000000000000000 $t
/var/folders/d2/nstgp4h54kz7g1l847x_b8wc0000gn/T//ccrhfnpm.s:628    .text.clust2sect:0000000000000000 clust2sect
/var/folders/d2/nstgp4h54kz7g1l847x_b8wc0000gn/T//ccrhfnpm.s:666    .text.get_fat:0000000000000000 $t
/var/folders/d2/nstgp4h54kz7g1l847x_b8wc0000gn/T//ccrhfnpm.s:673    .text.get_fat:0000000000000000 get_fat
/var/folders/d2/nstgp4h54kz7g1l847x_b8wc0000gn/T//ccrhfnpm.s:853    .text.put_fat:0000000000000000 $t
/var/folders/d2/nstgp4h54kz7g1l847x_b8wc0000gn/T//ccrhfnpm.s:860    .text.put_fat:0000000000000000 put_fat
/var/folders/d2/nstgp4h54kz7g1l847x_b8wc0000gn/T//ccrhfnpm.s:1119   .text.remove_chain:0000000000000000 $t
/var/folders/d2/nstgp4h54kz7g1l847x_b8wc0000gn/T//ccrhfnpm.s:1125   .text.remove_chain:0000000000000000 remove_chain
/var/folders/d2/nstgp4h54kz7g1l847x_b8wc0000gn/T//ccrhfnpm.s:1257   .text.create_chain:0000000000000000 $t
/var/folders/d2/nstgp4h54kz7g1l847x_b8wc0000gn/T//ccrhfnpm.s:1263   .text.create_chain:0000000000000000 create_chain
/var/folders/d2/nstgp4h54kz7g1l847x_b8wc0000gn/T//ccrhfnpm.s:1423   .text.clmt_clust:0000000000000000 $t
/var/folders/d2/nstgp4h54kz7g1l847x_b8wc0000gn/T//ccrhfnpm.s:1429   .text.clmt_clust:0000000000000000 clmt_clust
/var/folders/d2/nstgp4h54kz7g1l847x_b8wc0000gn/T//ccrhfnpm.s:1488   .text.dir_sdi:0000000000000000 $t
/var/folders/d2/nstgp4h54kz7g1l847x_b8wc0000gn/T//ccrhfnpm.s:1494   .text.dir_sdi:0000000000000000 dir_sdi
/var/folders/d2/nstgp4h54kz7g1l847x_b8wc0000gn/T//ccrhfnpm.s:1635   .text.dir_next:0000000000000000 $t
/var/folders/d2/nstgp4h54kz7g1l847x_b8wc0000gn/T//ccrhfnpm.s:1641   .text.dir_next:0000000000000000 dir_next
/var/folders/d2/nstgp4h54kz7g1l847x_b8wc0000gn/T//ccrhfnpm.s:1858   .text.dir_alloc:0000000000000000 $t
/var/folders/d2/nstgp4h54kz7g1l847x_b8wc0000gn/T//ccrhfnpm.s:1864   .text.dir_alloc:0000000000000000 dir_alloc
/var/folders/d2/nstgp4h54kz7g1l847x_b8wc0000gn/T//ccrhfnpm.s:1944   .text.ld_clust:0000000000000000 $t
/var/folders/d2/nstgp4h54kz7g1l847x_b8wc0000gn/T//ccrhfnpm.s:1950   .text.ld_clust:0000000000000000 ld_clust
/var/folders/d2/nstgp4h54kz7g1l847x_b8wc0000gn/T//ccrhfnpm.s:2002   .text.st_clust:0000000000000000 $t
/var/folders/d2/nstgp4h54kz7g1l847x_b8wc0000gn/T//ccrhfnpm.s:2008   .text.st_clust:0000000000000000 st_clust
/var/folders/d2/nstgp4h54kz7g1l847x_b8wc0000gn/T//ccrhfnpm.s:2053   .rodata.LfnOfs:0000000000000000 $d
/var/folders/d2/nstgp4h54kz7g1l847x_b8wc0000gn/T//ccrhfnpm.s:2056   .rodata.LfnOfs:0000000000000000 LfnOfs
/var/folders/d2/nstgp4h54kz7g1l847x_b8wc0000gn/T//ccrhfnpm.s:2071   .text.cmp_lfn:0000000000000000 $t
/var/folders/d2/nstgp4h54kz7g1l847x_b8wc0000gn/T//ccrhfnpm.s:2077   .text.cmp_lfn:0000000000000000 cmp_lfn
/var/folders/d2/nstgp4h54kz7g1l847x_b8wc0000gn/T//ccrhfnpm.s:2192   .text.cmp_lfn:00000000000000d8 $d
/var/folders/d2/nstgp4h54kz7g1l847x_b8wc0000gn/T//ccrhfnpm.s:2195   .text.pick_lfn:0000000000000000 $t
/var/folders/d2/nstgp4h54kz7g1l847x_b8wc0000gn/T//ccrhfnpm.s:2201   .text.pick_lfn:0000000000000000 pick_lfn
/var/folders/d2/nstgp4h54kz7g1l847x_b8wc0000gn/T//ccrhfnpm.s:2310   .text.pick_lfn:00000000000000c4 $d
/var/folders/d2/nstgp4h54kz7g1l847x_b8wc0000gn/T//ccrhfnpm.s:2313   .text.fit_lfn:0000000000000000 $t
/var/folders/d2/nstgp4h54kz7g1l847x_b8wc0000gn/T//ccrhfnpm.s:2319   .text.fit_lfn:0000000000000000 fit_lfn
/var/folders/d2/nstgp4h54kz7g1l847x_b8wc0000gn/T//ccrhfnpm.s:2442   .text.fit_lfn:00000000000000e8 $d
/var/folders/d2/nstgp4h54kz7g1l847x_b8wc0000gn/T//ccrhfnpm.s:2445   .text.gen_numname:0000000000000000 $t
/var/folders/d2/nstgp4h54kz7g1l847x_b8wc0000gn/T//ccrhfnpm.s:2451   .text.gen_numname:0000000000000000 gen_numname
ARM GAS  /var/folders/d2/nstgp4h54kz7g1l847x_b8wc0000gn/T//ccrhfnpm.s 			page 193


/var/folders/d2/nstgp4h54kz7g1l847x_b8wc0000gn/T//ccrhfnpm.s:2597   .text.sum_sfn:0000000000000000 $t
/var/folders/d2/nstgp4h54kz7g1l847x_b8wc0000gn/T//ccrhfnpm.s:2603   .text.sum_sfn:0000000000000000 sum_sfn
/var/folders/d2/nstgp4h54kz7g1l847x_b8wc0000gn/T//ccrhfnpm.s:2643   .text.dir_find:0000000000000000 $t
/var/folders/d2/nstgp4h54kz7g1l847x_b8wc0000gn/T//ccrhfnpm.s:2649   .text.dir_find:0000000000000000 dir_find
/var/folders/d2/nstgp4h54kz7g1l847x_b8wc0000gn/T//ccrhfnpm.s:2836   .text.dir_read:0000000000000000 $t
/var/folders/d2/nstgp4h54kz7g1l847x_b8wc0000gn/T//ccrhfnpm.s:2842   .text.dir_read:0000000000000000 dir_read
/var/folders/d2/nstgp4h54kz7g1l847x_b8wc0000gn/T//ccrhfnpm.s:3011   .text.dir_register:0000000000000000 $t
/var/folders/d2/nstgp4h54kz7g1l847x_b8wc0000gn/T//ccrhfnpm.s:3017   .text.dir_register:0000000000000000 dir_register
/var/folders/d2/nstgp4h54kz7g1l847x_b8wc0000gn/T//ccrhfnpm.s:3252   .text.dir_register:00000000000001ec $d
/var/folders/d2/nstgp4h54kz7g1l847x_b8wc0000gn/T//ccrhfnpm.s:3255   .text.dir_remove:0000000000000000 $t
/var/folders/d2/nstgp4h54kz7g1l847x_b8wc0000gn/T//ccrhfnpm.s:3261   .text.dir_remove:0000000000000000 dir_remove
/var/folders/d2/nstgp4h54kz7g1l847x_b8wc0000gn/T//ccrhfnpm.s:3352   .text.get_fileinfo:0000000000000000 $t
/var/folders/d2/nstgp4h54kz7g1l847x_b8wc0000gn/T//ccrhfnpm.s:3358   .text.get_fileinfo:0000000000000000 get_fileinfo
/var/folders/d2/nstgp4h54kz7g1l847x_b8wc0000gn/T//ccrhfnpm.s:3578   .rodata:0000000000000000 $d
/var/folders/d2/nstgp4h54kz7g1l847x_b8wc0000gn/T//ccrhfnpm.s:3585   .text.create_name:0000000000000000 $t
/var/folders/d2/nstgp4h54kz7g1l847x_b8wc0000gn/T//ccrhfnpm.s:3591   .text.create_name:0000000000000000 create_name
/var/folders/d2/nstgp4h54kz7g1l847x_b8wc0000gn/T//ccrhfnpm.s:4011   .text.create_name:0000000000000358 $d
/var/folders/d2/nstgp4h54kz7g1l847x_b8wc0000gn/T//ccrhfnpm.s:4016   .text.follow_path:0000000000000000 $t
/var/folders/d2/nstgp4h54kz7g1l847x_b8wc0000gn/T//ccrhfnpm.s:4022   .text.follow_path:0000000000000000 follow_path
/var/folders/d2/nstgp4h54kz7g1l847x_b8wc0000gn/T//ccrhfnpm.s:4134   .text.get_ldnumber:0000000000000000 $t
/var/folders/d2/nstgp4h54kz7g1l847x_b8wc0000gn/T//ccrhfnpm.s:4140   .text.get_ldnumber:0000000000000000 get_ldnumber
/var/folders/d2/nstgp4h54kz7g1l847x_b8wc0000gn/T//ccrhfnpm.s:4220   .text.check_fs:0000000000000000 $t
/var/folders/d2/nstgp4h54kz7g1l847x_b8wc0000gn/T//ccrhfnpm.s:4226   .text.check_fs:0000000000000000 check_fs
/var/folders/d2/nstgp4h54kz7g1l847x_b8wc0000gn/T//ccrhfnpm.s:4330   .text.check_fs:00000000000000c8 $d
/var/folders/d2/nstgp4h54kz7g1l847x_b8wc0000gn/T//ccrhfnpm.s:4334   .text.find_volume:0000000000000000 $t
/var/folders/d2/nstgp4h54kz7g1l847x_b8wc0000gn/T//ccrhfnpm.s:4340   .text.find_volume:0000000000000000 find_volume
/var/folders/d2/nstgp4h54kz7g1l847x_b8wc0000gn/T//ccrhfnpm.s:4653   .text.find_volume:0000000000000294 $d
/var/folders/d2/nstgp4h54kz7g1l847x_b8wc0000gn/T//ccrhfnpm.s:4655   .text.find_volume:0000000000000298 $t
/var/folders/d2/nstgp4h54kz7g1l847x_b8wc0000gn/T//ccrhfnpm.s:4976   .text.find_volume:0000000000000550 $d
/var/folders/d2/nstgp4h54kz7g1l847x_b8wc0000gn/T//ccrhfnpm.s:4982   .text.validate:0000000000000000 $t
/var/folders/d2/nstgp4h54kz7g1l847x_b8wc0000gn/T//ccrhfnpm.s:4988   .text.validate:0000000000000000 validate
/var/folders/d2/nstgp4h54kz7g1l847x_b8wc0000gn/T//ccrhfnpm.s:5041   .text.f_mount:0000000000000000 $t
/var/folders/d2/nstgp4h54kz7g1l847x_b8wc0000gn/T//ccrhfnpm.s:5048   .text.f_mount:0000000000000000 f_mount
/var/folders/d2/nstgp4h54kz7g1l847x_b8wc0000gn/T//ccrhfnpm.s:5119   .text.f_mount:0000000000000084 $d
/var/folders/d2/nstgp4h54kz7g1l847x_b8wc0000gn/T//ccrhfnpm.s:5122   .text.f_open:0000000000000000 $t
/var/folders/d2/nstgp4h54kz7g1l847x_b8wc0000gn/T//ccrhfnpm.s:5129   .text.f_open:0000000000000000 f_open
/var/folders/d2/nstgp4h54kz7g1l847x_b8wc0000gn/T//ccrhfnpm.s:5455   .text.f_read:0000000000000000 $t
/var/folders/d2/nstgp4h54kz7g1l847x_b8wc0000gn/T//ccrhfnpm.s:5462   .text.f_read:0000000000000000 f_read
/var/folders/d2/nstgp4h54kz7g1l847x_b8wc0000gn/T//ccrhfnpm.s:5789   .text.f_write:0000000000000000 $t
/var/folders/d2/nstgp4h54kz7g1l847x_b8wc0000gn/T//ccrhfnpm.s:5796   .text.f_write:0000000000000000 f_write
/var/folders/d2/nstgp4h54kz7g1l847x_b8wc0000gn/T//ccrhfnpm.s:6174   .text.f_sync:0000000000000000 $t
/var/folders/d2/nstgp4h54kz7g1l847x_b8wc0000gn/T//ccrhfnpm.s:6181   .text.f_sync:0000000000000000 f_sync
/var/folders/d2/nstgp4h54kz7g1l847x_b8wc0000gn/T//ccrhfnpm.s:6345   .text.f_close:0000000000000000 $t
/var/folders/d2/nstgp4h54kz7g1l847x_b8wc0000gn/T//ccrhfnpm.s:6352   .text.f_close:0000000000000000 f_close
/var/folders/d2/nstgp4h54kz7g1l847x_b8wc0000gn/T//ccrhfnpm.s:6385   .text.f_lseek:0000000000000000 $t
/var/folders/d2/nstgp4h54kz7g1l847x_b8wc0000gn/T//ccrhfnpm.s:6392   .text.f_lseek:0000000000000000 f_lseek
/var/folders/d2/nstgp4h54kz7g1l847x_b8wc0000gn/T//ccrhfnpm.s:6926   .text.f_opendir:0000000000000000 $t
/var/folders/d2/nstgp4h54kz7g1l847x_b8wc0000gn/T//ccrhfnpm.s:6933   .text.f_opendir:0000000000000000 f_opendir
/var/folders/d2/nstgp4h54kz7g1l847x_b8wc0000gn/T//ccrhfnpm.s:7050   .text.f_closedir:0000000000000000 $t
/var/folders/d2/nstgp4h54kz7g1l847x_b8wc0000gn/T//ccrhfnpm.s:7057   .text.f_closedir:0000000000000000 f_closedir
/var/folders/d2/nstgp4h54kz7g1l847x_b8wc0000gn/T//ccrhfnpm.s:7083   .text.f_readdir:0000000000000000 $t
/var/folders/d2/nstgp4h54kz7g1l847x_b8wc0000gn/T//ccrhfnpm.s:7090   .text.f_readdir:0000000000000000 f_readdir
/var/folders/d2/nstgp4h54kz7g1l847x_b8wc0000gn/T//ccrhfnpm.s:7176   .text.f_stat:0000000000000000 $t
/var/folders/d2/nstgp4h54kz7g1l847x_b8wc0000gn/T//ccrhfnpm.s:7183   .text.f_stat:0000000000000000 f_stat
/var/folders/d2/nstgp4h54kz7g1l847x_b8wc0000gn/T//ccrhfnpm.s:7243   .text.f_getfree:0000000000000000 $t
/var/folders/d2/nstgp4h54kz7g1l847x_b8wc0000gn/T//ccrhfnpm.s:7250   .text.f_getfree:0000000000000000 f_getfree
/var/folders/d2/nstgp4h54kz7g1l847x_b8wc0000gn/T//ccrhfnpm.s:7451   .text.f_truncate:0000000000000000 $t
ARM GAS  /var/folders/d2/nstgp4h54kz7g1l847x_b8wc0000gn/T//ccrhfnpm.s 			page 194


/var/folders/d2/nstgp4h54kz7g1l847x_b8wc0000gn/T//ccrhfnpm.s:7458   .text.f_truncate:0000000000000000 f_truncate
/var/folders/d2/nstgp4h54kz7g1l847x_b8wc0000gn/T//ccrhfnpm.s:7623   .text.f_unlink:0000000000000000 $t
/var/folders/d2/nstgp4h54kz7g1l847x_b8wc0000gn/T//ccrhfnpm.s:7630   .text.f_unlink:0000000000000000 f_unlink
/var/folders/d2/nstgp4h54kz7g1l847x_b8wc0000gn/T//ccrhfnpm.s:7774   .text.f_mkdir:0000000000000000 $t
/var/folders/d2/nstgp4h54kz7g1l847x_b8wc0000gn/T//ccrhfnpm.s:7781   .text.f_mkdir:0000000000000000 f_mkdir
/var/folders/d2/nstgp4h54kz7g1l847x_b8wc0000gn/T//ccrhfnpm.s:8044   .text.f_chmod:0000000000000000 $t
/var/folders/d2/nstgp4h54kz7g1l847x_b8wc0000gn/T//ccrhfnpm.s:8051   .text.f_chmod:0000000000000000 f_chmod
/var/folders/d2/nstgp4h54kz7g1l847x_b8wc0000gn/T//ccrhfnpm.s:8143   .text.f_utime:0000000000000000 $t
/var/folders/d2/nstgp4h54kz7g1l847x_b8wc0000gn/T//ccrhfnpm.s:8150   .text.f_utime:0000000000000000 f_utime
/var/folders/d2/nstgp4h54kz7g1l847x_b8wc0000gn/T//ccrhfnpm.s:8243   .text.f_rename:0000000000000000 $t
/var/folders/d2/nstgp4h54kz7g1l847x_b8wc0000gn/T//ccrhfnpm.s:8250   .text.f_rename:0000000000000000 f_rename
/var/folders/d2/nstgp4h54kz7g1l847x_b8wc0000gn/T//ccrhfnpm.s:8452   .text.f_getlabel:0000000000000000 $t
/var/folders/d2/nstgp4h54kz7g1l847x_b8wc0000gn/T//ccrhfnpm.s:8459   .text.f_getlabel:0000000000000000 f_getlabel
/var/folders/d2/nstgp4h54kz7g1l847x_b8wc0000gn/T//ccrhfnpm.s:8610   .text.f_setlabel:0000000000000000 $t
/var/folders/d2/nstgp4h54kz7g1l847x_b8wc0000gn/T//ccrhfnpm.s:8617   .text.f_setlabel:0000000000000000 f_setlabel
/var/folders/d2/nstgp4h54kz7g1l847x_b8wc0000gn/T//ccrhfnpm.s:8911   .text.f_setlabel:000000000000026c $d
/var/folders/d2/nstgp4h54kz7g1l847x_b8wc0000gn/T//ccrhfnpm.s:8924   .text.f_mkfs:0000000000000000 $t
/var/folders/d2/nstgp4h54kz7g1l847x_b8wc0000gn/T//ccrhfnpm.s:8931   .text.f_mkfs:0000000000000000 f_mkfs
/var/folders/d2/nstgp4h54kz7g1l847x_b8wc0000gn/T//ccrhfnpm.s:9270   .text.f_mkfs:00000000000002c0 $d
/var/folders/d2/nstgp4h54kz7g1l847x_b8wc0000gn/T//ccrhfnpm.s:10808  .rodata.vst.8662:0000000000000000 vst.8662
/var/folders/d2/nstgp4h54kz7g1l847x_b8wc0000gn/T//ccrhfnpm.s:10824  .rodata.cst.8663:0000000000000000 cst.8663
/var/folders/d2/nstgp4h54kz7g1l847x_b8wc0000gn/T//ccrhfnpm.s:9275   .text.f_mkfs:00000000000002d0 $t
/var/folders/d2/nstgp4h54kz7g1l847x_b8wc0000gn/T//ccrhfnpm.s:9480   .text.f_mkfs:0000000000000484 $d
/var/folders/d2/nstgp4h54kz7g1l847x_b8wc0000gn/T//ccrhfnpm.s:9483   .text.f_mkfs:000000000000048c $t
/var/folders/d2/nstgp4h54kz7g1l847x_b8wc0000gn/T//ccrhfnpm.s:9940   .text.f_mkfs:0000000000000830 $d
/var/folders/d2/nstgp4h54kz7g1l847x_b8wc0000gn/T//ccrhfnpm.s:9944   .text.f_mkfs:000000000000083c $t
/var/folders/d2/nstgp4h54kz7g1l847x_b8wc0000gn/T//ccrhfnpm.s:10080  .text.f_gets:0000000000000000 $t
/var/folders/d2/nstgp4h54kz7g1l847x_b8wc0000gn/T//ccrhfnpm.s:10087  .text.f_gets:0000000000000000 f_gets
/var/folders/d2/nstgp4h54kz7g1l847x_b8wc0000gn/T//ccrhfnpm.s:10154  .text.putc_bfd:0000000000000000 $t
/var/folders/d2/nstgp4h54kz7g1l847x_b8wc0000gn/T//ccrhfnpm.s:10160  .text.putc_bfd:0000000000000000 putc_bfd
/var/folders/d2/nstgp4h54kz7g1l847x_b8wc0000gn/T//ccrhfnpm.s:10221  .text.f_putc:0000000000000000 $t
/var/folders/d2/nstgp4h54kz7g1l847x_b8wc0000gn/T//ccrhfnpm.s:10228  .text.f_putc:0000000000000000 f_putc
/var/folders/d2/nstgp4h54kz7g1l847x_b8wc0000gn/T//ccrhfnpm.s:10280  .text.f_puts:0000000000000000 $t
/var/folders/d2/nstgp4h54kz7g1l847x_b8wc0000gn/T//ccrhfnpm.s:10287  .text.f_puts:0000000000000000 f_puts
/var/folders/d2/nstgp4h54kz7g1l847x_b8wc0000gn/T//ccrhfnpm.s:10348  .text.f_printf:0000000000000000 $t
/var/folders/d2/nstgp4h54kz7g1l847x_b8wc0000gn/T//ccrhfnpm.s:10355  .text.f_printf:0000000000000000 f_printf
/var/folders/d2/nstgp4h54kz7g1l847x_b8wc0000gn/T//ccrhfnpm.s:10485  .text.f_printf:000000000000014c $d
/var/folders/d2/nstgp4h54kz7g1l847x_b8wc0000gn/T//ccrhfnpm.s:10508  .text.f_printf:00000000000001a8 $t
/var/folders/d2/nstgp4h54kz7g1l847x_b8wc0000gn/T//ccrhfnpm.s:10805  .rodata.vst.8662:0000000000000000 $d
/var/folders/d2/nstgp4h54kz7g1l847x_b8wc0000gn/T//ccrhfnpm.s:10821  .rodata.cst.8663:0000000000000000 $d

UNDEFINED SYMBOLS
disk_write
disk_read
disk_ioctl
ff_wtoupper
ff_convert
disk_status
disk_initialize
get_fattime
