ARM GAS  /var/folders/d2/nstgp4h54kz7g1l847x_b8wc0000gn/T//ccMoF2i8.s 			page 1


   1              		.cpu cortex-m4
   2              		.eabi_attribute 27, 1
   3              		.eabi_attribute 28, 1
   4              		.eabi_attribute 20, 1
   5              		.eabi_attribute 21, 1
   6              		.eabi_attribute 23, 3
   7              		.eabi_attribute 24, 1
   8              		.eabi_attribute 25, 1
   9              		.eabi_attribute 26, 1
  10              		.eabi_attribute 30, 6
  11              		.eabi_attribute 34, 1
  12              		.eabi_attribute 18, 4
  13              		.file	"flash.c"
  14              		.section	.text.flash_addr_to_sector,"ax",%progbits
  15              		.align	1
  16              		.global	flash_addr_to_sector
  17              		.syntax unified
  18              		.thumb
  19              		.thumb_func
  20              		.fpu fpv4-sp-d16
  21              		.type	flash_addr_to_sector, %function
  22              	flash_addr_to_sector:
  23              		@ args = 0, pretend = 0, frame = 24
  24              		@ frame_needed = 1, uses_anonymous_args = 0
  25              		@ link register save eliminated.
  26 0000 80B4     		push	{r7}
  27 0002 87B0     		sub	sp, sp, #28
  28 0004 00AF     		add	r7, sp, #0
  29 0006 7860     		str	r0, [r7, #4]
  30 0008 7B68     		ldr	r3, [r7, #4]
  31 000a 3B61     		str	r3, [r7, #16]
  32 000c 3B69     		ldr	r3, [r7, #16]
  33 000e 23F07F43 		bic	r3, r3, #-16777216
  34 0012 FB60     		str	r3, [r7, #12]
  35 0014 FB68     		ldr	r3, [r7, #12]
  36 0016 B3F5803F 		cmp	r3, #65536
  37 001a 03D2     		bcs	.L2
  38 001c FB68     		ldr	r3, [r7, #12]
  39 001e 9B0B     		lsrs	r3, r3, #14
  40 0020 FB75     		strb	r3, [r7, #23]
  41 0022 0EE0     		b	.L3
  42              	.L2:
  43 0024 FB68     		ldr	r3, [r7, #12]
  44 0026 B3F5003F 		cmp	r3, #131072
  45 002a 05D2     		bcs	.L4
  46 002c FB68     		ldr	r3, [r7, #12]
  47 002e 1B0C     		lsrs	r3, r3, #16
  48 0030 DBB2     		uxtb	r3, r3
  49 0032 0333     		adds	r3, r3, #3
  50 0034 FB75     		strb	r3, [r7, #23]
  51 0036 04E0     		b	.L3
  52              	.L4:
  53 0038 FB68     		ldr	r3, [r7, #12]
  54 003a 5B0C     		lsrs	r3, r3, #17
  55 003c DBB2     		uxtb	r3, r3
  56 003e 0433     		adds	r3, r3, #4
  57 0040 FB75     		strb	r3, [r7, #23]
ARM GAS  /var/folders/d2/nstgp4h54kz7g1l847x_b8wc0000gn/T//ccMoF2i8.s 			page 2


  58              	.L3:
  59 0042 3B69     		ldr	r3, [r7, #16]
  60 0044 B3F1016F 		cmp	r3, #135266304
  61 0048 02D3     		bcc	.L5
  62 004a FB7D     		ldrb	r3, [r7, #23]
  63 004c 0C33     		adds	r3, r3, #12
  64 004e FB75     		strb	r3, [r7, #23]
  65              	.L5:
  66 0050 FB7D     		ldrb	r3, [r7, #23]	@ zero_extendqisi2
  67 0052 1846     		mov	r0, r3
  68 0054 1C37     		adds	r7, r7, #28
  69 0056 BD46     		mov	sp, r7
  70              		@ sp needed
  71 0058 5DF8047B 		ldr	r7, [sp], #4
  72 005c 7047     		bx	lr
  73              		.size	flash_addr_to_sector, .-flash_addr_to_sector
  74              		.section	.text.flash_lock,"ax",%progbits
  75              		.align	1
  76              		.global	flash_lock
  77              		.syntax unified
  78              		.thumb
  79              		.thumb_func
  80              		.fpu fpv4-sp-d16
  81              		.type	flash_lock, %function
  82              	flash_lock:
  83              		@ args = 0, pretend = 0, frame = 0
  84              		@ frame_needed = 1, uses_anonymous_args = 0
  85              		@ link register save eliminated.
  86 0000 80B4     		push	{r7}
  87 0002 00AF     		add	r7, sp, #0
  88 0004 054B     		ldr	r3, .L8
  89 0006 1B68     		ldr	r3, [r3]
  90 0008 044A     		ldr	r2, .L8
  91 000a 43F00043 		orr	r3, r3, #-2147483648
  92 000e 1360     		str	r3, [r2]
  93 0010 00BF     		nop
  94 0012 BD46     		mov	sp, r7
  95              		@ sp needed
  96 0014 5DF8047B 		ldr	r7, [sp], #4
  97 0018 7047     		bx	lr
  98              	.L9:
  99 001a 00BF     		.align	2
 100              	.L8:
 101 001c 103C0240 		.word	1073888272
 102              		.size	flash_lock, .-flash_lock
 103              		.section	.text.flash_unlock,"ax",%progbits
 104              		.align	1
 105              		.global	flash_unlock
 106              		.syntax unified
 107              		.thumb
 108              		.thumb_func
 109              		.fpu fpv4-sp-d16
 110              		.type	flash_unlock, %function
 111              	flash_unlock:
 112              		@ args = 0, pretend = 0, frame = 0
 113              		@ frame_needed = 1, uses_anonymous_args = 0
 114              		@ link register save eliminated.
ARM GAS  /var/folders/d2/nstgp4h54kz7g1l847x_b8wc0000gn/T//ccMoF2i8.s 			page 3


 115 0000 80B4     		push	{r7}
 116 0002 00AF     		add	r7, sp, #0
 117 0004 084B     		ldr	r3, .L11
 118 0006 1B68     		ldr	r3, [r3]
 119 0008 074A     		ldr	r2, .L11
 120 000a 43F00043 		orr	r3, r3, #-2147483648
 121 000e 1360     		str	r3, [r2]
 122 0010 064B     		ldr	r3, .L11+4
 123 0012 074A     		ldr	r2, .L11+8
 124 0014 1A60     		str	r2, [r3]
 125 0016 054B     		ldr	r3, .L11+4
 126 0018 064A     		ldr	r2, .L11+12
 127 001a 1A60     		str	r2, [r3]
 128 001c 00BF     		nop
 129 001e BD46     		mov	sp, r7
 130              		@ sp needed
 131 0020 5DF8047B 		ldr	r7, [sp], #4
 132 0024 7047     		bx	lr
 133              	.L12:
 134 0026 00BF     		.align	2
 135              	.L11:
 136 0028 103C0240 		.word	1073888272
 137 002c 043C0240 		.word	1073888260
 138 0030 23016745 		.word	1164378403
 139 0034 AB89EFCD 		.word	-839939669
 140              		.size	flash_unlock, .-flash_unlock
 141              		.section	.text.flash_set_parallelism_8x,"ax",%progbits
 142              		.align	1
 143              		.syntax unified
 144              		.thumb
 145              		.thumb_func
 146              		.fpu fpv4-sp-d16
 147              		.type	flash_set_parallelism_8x, %function
 148              	flash_set_parallelism_8x:
 149              		@ args = 0, pretend = 0, frame = 0
 150              		@ frame_needed = 1, uses_anonymous_args = 0
 151              		@ link register save eliminated.
 152 0000 80B4     		push	{r7}
 153 0002 00AF     		add	r7, sp, #0
 154 0004 054B     		ldr	r3, .L14
 155 0006 1B68     		ldr	r3, [r3]
 156 0008 044A     		ldr	r2, .L14
 157 000a 23F44073 		bic	r3, r3, #768
 158 000e 1360     		str	r3, [r2]
 159 0010 00BF     		nop
 160 0012 BD46     		mov	sp, r7
 161              		@ sp needed
 162 0014 5DF8047B 		ldr	r7, [sp], #4
 163 0018 7047     		bx	lr
 164              	.L15:
 165 001a 00BF     		.align	2
 166              	.L14:
 167 001c 103C0240 		.word	1073888272
 168              		.size	flash_set_parallelism_8x, .-flash_set_parallelism_8x
 169              		.section	.text.flash_wait_while_busy,"ax",%progbits
 170              		.align	1
 171              		.syntax unified
ARM GAS  /var/folders/d2/nstgp4h54kz7g1l847x_b8wc0000gn/T//ccMoF2i8.s 			page 4


 172              		.thumb
 173              		.thumb_func
 174              		.fpu fpv4-sp-d16
 175              		.type	flash_wait_while_busy, %function
 176              	flash_wait_while_busy:
 177              		@ args = 0, pretend = 0, frame = 0
 178              		@ frame_needed = 1, uses_anonymous_args = 0
 179              		@ link register save eliminated.
 180 0000 80B4     		push	{r7}
 181 0002 00AF     		add	r7, sp, #0
 182 0004 00BF     		nop
 183              	.L17:
 184 0006 054B     		ldr	r3, .L18
 185 0008 1B68     		ldr	r3, [r3]
 186 000a 03F48033 		and	r3, r3, #65536
 187 000e 002B     		cmp	r3, #0
 188 0010 F9D1     		bne	.L17
 189 0012 00BF     		nop
 190 0014 BD46     		mov	sp, r7
 191              		@ sp needed
 192 0016 5DF8047B 		ldr	r7, [sp], #4
 193 001a 7047     		bx	lr
 194              	.L19:
 195              		.align	2
 196              	.L18:
 197 001c 0C3C0240 		.word	1073888268
 198              		.size	flash_wait_while_busy, .-flash_wait_while_busy
 199              		.section	.text.flash_write_byte,"ax",%progbits
 200              		.align	1
 201              		.syntax unified
 202              		.thumb
 203              		.thumb_func
 204              		.fpu fpv4-sp-d16
 205              		.type	flash_write_byte, %function
 206              	flash_write_byte:
 207              		@ args = 0, pretend = 0, frame = 8
 208              		@ frame_needed = 1, uses_anonymous_args = 0
 209 0000 80B5     		push	{r7, lr}
 210 0002 82B0     		sub	sp, sp, #8
 211 0004 00AF     		add	r7, sp, #0
 212 0006 7860     		str	r0, [r7, #4]
 213 0008 0B46     		mov	r3, r1
 214 000a FB70     		strb	r3, [r7, #3]
 215 000c 074B     		ldr	r3, .L21
 216 000e 1B68     		ldr	r3, [r3]
 217 0010 064A     		ldr	r2, .L21
 218 0012 43F00103 		orr	r3, r3, #1
 219 0016 1360     		str	r3, [r2]
 220 0018 7B68     		ldr	r3, [r7, #4]
 221 001a FA78     		ldrb	r2, [r7, #3]
 222 001c 1A70     		strb	r2, [r3]
 223 001e FFF7FEFF 		bl	flash_wait_while_busy
 224 0022 00BF     		nop
 225 0024 0837     		adds	r7, r7, #8
 226 0026 BD46     		mov	sp, r7
 227              		@ sp needed
 228 0028 80BD     		pop	{r7, pc}
ARM GAS  /var/folders/d2/nstgp4h54kz7g1l847x_b8wc0000gn/T//ccMoF2i8.s 			page 5


 229              	.L22:
 230 002a 00BF     		.align	2
 231              	.L21:
 232 002c 103C0240 		.word	1073888272
 233              		.size	flash_write_byte, .-flash_write_byte
 234              		.section	.text.flash_write,"ax",%progbits
 235              		.align	1
 236              		.global	flash_write
 237              		.syntax unified
 238              		.thumb
 239              		.thumb_func
 240              		.fpu fpv4-sp-d16
 241              		.type	flash_write, %function
 242              	flash_write:
 243              		@ args = 0, pretend = 0, frame = 24
 244              		@ frame_needed = 1, uses_anonymous_args = 0
 245 0000 80B5     		push	{r7, lr}
 246 0002 86B0     		sub	sp, sp, #24
 247 0004 00AF     		add	r7, sp, #0
 248 0006 F860     		str	r0, [r7, #12]
 249 0008 B960     		str	r1, [r7, #8]
 250 000a 7A60     		str	r2, [r7, #4]
 251 000c FFF7FEFF 		bl	flash_wait_while_busy
 252 0010 FFF7FEFF 		bl	flash_set_parallelism_8x
 253 0014 BB68     		ldr	r3, [r7, #8]
 254 0016 7B61     		str	r3, [r7, #20]
 255 0018 FB68     		ldr	r3, [r7, #12]
 256 001a 3B61     		str	r3, [r7, #16]
 257 001c 0AE0     		b	.L24
 258              	.L25:
 259 001e 3A69     		ldr	r2, [r7, #16]
 260 0020 531C     		adds	r3, r2, #1
 261 0022 3B61     		str	r3, [r7, #16]
 262 0024 7B69     		ldr	r3, [r7, #20]
 263 0026 591C     		adds	r1, r3, #1
 264 0028 7961     		str	r1, [r7, #20]
 265 002a 1B78     		ldrb	r3, [r3]	@ zero_extendqisi2
 266 002c 1946     		mov	r1, r3
 267 002e 1046     		mov	r0, r2
 268 0030 FFF7FEFF 		bl	flash_write_byte
 269              	.L24:
 270 0034 7B68     		ldr	r3, [r7, #4]
 271 0036 5A1E     		subs	r2, r3, #1
 272 0038 7A60     		str	r2, [r7, #4]
 273 003a 002B     		cmp	r3, #0
 274 003c EFD1     		bne	.L25
 275 003e 054B     		ldr	r3, .L26
 276 0040 1B68     		ldr	r3, [r3]
 277 0042 044A     		ldr	r2, .L26
 278 0044 23F00103 		bic	r3, r3, #1
 279 0048 1360     		str	r3, [r2]
 280 004a 00BF     		nop
 281 004c 1837     		adds	r7, r7, #24
 282 004e BD46     		mov	sp, r7
 283              		@ sp needed
 284 0050 80BD     		pop	{r7, pc}
 285              	.L27:
ARM GAS  /var/folders/d2/nstgp4h54kz7g1l847x_b8wc0000gn/T//ccMoF2i8.s 			page 6


 286 0052 00BF     		.align	2
 287              	.L26:
 288 0054 103C0240 		.word	1073888272
 289              		.size	flash_write, .-flash_write
 290              		.section	.text.flash_sector_erase,"ax",%progbits
 291              		.align	1
 292              		.global	flash_sector_erase
 293              		.syntax unified
 294              		.thumb
 295              		.thumb_func
 296              		.fpu fpv4-sp-d16
 297              		.type	flash_sector_erase, %function
 298              	flash_sector_erase:
 299              		@ args = 0, pretend = 0, frame = 16
 300              		@ frame_needed = 1, uses_anonymous_args = 0
 301 0000 80B5     		push	{r7, lr}
 302 0002 84B0     		sub	sp, sp, #16
 303 0004 00AF     		add	r7, sp, #0
 304 0006 7860     		str	r0, [r7, #4]
 305 0008 7868     		ldr	r0, [r7, #4]
 306 000a FFF7FEFF 		bl	flash_addr_to_sector
 307 000e 0346     		mov	r3, r0
 308 0010 FB60     		str	r3, [r7, #12]
 309 0012 FB68     		ldr	r3, [r7, #12]
 310 0014 DBB2     		uxtb	r3, r3
 311 0016 1846     		mov	r0, r3
 312 0018 FFF7FEFF 		bl	flash_sector_erase_number
 313 001c 00BF     		nop
 314 001e 1037     		adds	r7, r7, #16
 315 0020 BD46     		mov	sp, r7
 316              		@ sp needed
 317 0022 80BD     		pop	{r7, pc}
 318              		.size	flash_sector_erase, .-flash_sector_erase
 319              		.section	.text.flash_sector_erase_number,"ax",%progbits
 320              		.align	1
 321              		.global	flash_sector_erase_number
 322              		.syntax unified
 323              		.thumb
 324              		.thumb_func
 325              		.fpu fpv4-sp-d16
 326              		.type	flash_sector_erase_number, %function
 327              	flash_sector_erase_number:
 328              		@ args = 0, pretend = 0, frame = 8
 329              		@ frame_needed = 1, uses_anonymous_args = 0
 330 0000 80B5     		push	{r7, lr}
 331 0002 82B0     		sub	sp, sp, #8
 332 0004 00AF     		add	r7, sp, #0
 333 0006 0346     		mov	r3, r0
 334 0008 FB71     		strb	r3, [r7, #7]
 335 000a FFF7FEFF 		bl	flash_set_parallelism_8x
 336 000e FFF7FEFF 		bl	flash_wait_while_busy
 337 0012 104B     		ldr	r3, .L30
 338 0014 1B68     		ldr	r3, [r3]
 339 0016 0F4A     		ldr	r2, .L30
 340 0018 23F0F803 		bic	r3, r3, #248
 341 001c 1360     		str	r3, [r2]
 342 001e 0D4B     		ldr	r3, .L30
ARM GAS  /var/folders/d2/nstgp4h54kz7g1l847x_b8wc0000gn/T//ccMoF2i8.s 			page 7


 343 0020 1A68     		ldr	r2, [r3]
 344 0022 FB79     		ldrb	r3, [r7, #7]	@ zero_extendqisi2
 345 0024 DB00     		lsls	r3, r3, #3
 346 0026 DBB2     		uxtb	r3, r3
 347 0028 0A49     		ldr	r1, .L30
 348 002a 1343     		orrs	r3, r3, r2
 349 002c 0B60     		str	r3, [r1]
 350 002e 094B     		ldr	r3, .L30
 351 0030 1B68     		ldr	r3, [r3]
 352 0032 084A     		ldr	r2, .L30
 353 0034 43F00203 		orr	r3, r3, #2
 354 0038 1360     		str	r3, [r2]
 355 003a 064B     		ldr	r3, .L30
 356 003c 1B68     		ldr	r3, [r3]
 357 003e 054A     		ldr	r2, .L30
 358 0040 43F48033 		orr	r3, r3, #65536
 359 0044 1360     		str	r3, [r2]
 360 0046 FFF7FEFF 		bl	flash_wait_while_busy
 361 004a 00BF     		nop
 362 004c 0837     		adds	r7, r7, #8
 363 004e BD46     		mov	sp, r7
 364              		@ sp needed
 365 0050 80BD     		pop	{r7, pc}
 366              	.L31:
 367 0052 00BF     		.align	2
 368              	.L30:
 369 0054 103C0240 		.word	1073888272
 370              		.size	flash_sector_erase_number, .-flash_sector_erase_number
 371              		.ident	"GCC: (GNU Tools for Arm Embedded Processors 7-2017-q4-major) 7.2.1 20170904 (release) [ARM
ARM GAS  /var/folders/d2/nstgp4h54kz7g1l847x_b8wc0000gn/T//ccMoF2i8.s 			page 8

