ARM GAS  /var/folders/d2/nstgp4h54kz7g1l847x_b8wc0000gn/T//ccmBZnVV.s 			page 1


   1              		.cpu cortex-m4
   2              		.eabi_attribute 27, 1
   3              		.eabi_attribute 28, 1
   4              		.eabi_attribute 20, 1
   5              		.eabi_attribute 21, 1
   6              		.eabi_attribute 23, 3
   7              		.eabi_attribute 24, 1
   8              		.eabi_attribute 25, 1
   9              		.eabi_attribute 26, 1
  10              		.eabi_attribute 30, 6
  11              		.eabi_attribute 34, 1
  12              		.eabi_attribute 18, 4
  13              		.file	"gpt_lld.c"
  14              		.global	GPTD6
  15              		.section	.bss.GPTD6,"aw",%nobits
  16              		.align	2
  17              		.type	GPTD6, %object
  18              		.size	GPTD6, 16
  19              	GPTD6:
  20 0000 00000000 		.space	16
  20      00000000 
  20      00000000 
  20      00000000 
  21              		.global	GPTD11
  22              		.section	.bss.GPTD11,"aw",%nobits
  23              		.align	2
  24              		.type	GPTD11, %object
  25              		.size	GPTD11, 16
  26              	GPTD11:
  27 0000 00000000 		.space	16
  27      00000000 
  27      00000000 
  27      00000000 
  28              		.section	.text.gpt_lld_serve_interrupt,"ax",%progbits
  29              		.align	1
  30              		.syntax unified
  31              		.thumb
  32              		.thumb_func
  33              		.fpu fpv4-sp-d16
  34              		.type	gpt_lld_serve_interrupt, %function
  35              	gpt_lld_serve_interrupt:
  36              		@ args = 0, pretend = 0, frame = 8
  37              		@ frame_needed = 1, uses_anonymous_args = 0
  38 0000 80B5     		push	{r7, lr}
  39 0002 82B0     		sub	sp, sp, #8
  40 0004 00AF     		add	r7, sp, #0
  41 0006 7860     		str	r0, [r7, #4]
  42 0008 7B68     		ldr	r3, [r7, #4]
  43 000a DB68     		ldr	r3, [r3, #12]
  44 000c 0022     		movs	r2, #0
  45 000e 1A61     		str	r2, [r3, #16]
  46 0010 7B68     		ldr	r3, [r7, #4]
  47 0012 1B78     		ldrb	r3, [r3]	@ zero_extendqisi2
  48 0014 042B     		cmp	r3, #4
  49 0016 05D1     		bne	.L2
  50 0018 7B68     		ldr	r3, [r7, #4]
  51 001a 0222     		movs	r2, #2
ARM GAS  /var/folders/d2/nstgp4h54kz7g1l847x_b8wc0000gn/T//ccmBZnVV.s 			page 2


  52 001c 1A70     		strb	r2, [r3]
  53 001e 7868     		ldr	r0, [r7, #4]
  54 0020 FFF7FEFF 		bl	gpt_lld_stop_timer
  55              	.L2:
  56 0024 7B68     		ldr	r3, [r7, #4]
  57 0026 5B68     		ldr	r3, [r3, #4]
  58 0028 5B68     		ldr	r3, [r3, #4]
  59 002a 7868     		ldr	r0, [r7, #4]
  60 002c 9847     		blx	r3
  61 002e 00BF     		nop
  62 0030 0837     		adds	r7, r7, #8
  63 0032 BD46     		mov	sp, r7
  64              		@ sp needed
  65 0034 80BD     		pop	{r7, pc}
  66              		.size	gpt_lld_serve_interrupt, .-gpt_lld_serve_interrupt
  67              		.section	.text.Vector118,"ax",%progbits
  68              		.align	1
  69              		.global	Vector118
  70              		.syntax unified
  71              		.thumb
  72              		.thumb_func
  73              		.fpu fpv4-sp-d16
  74              		.type	Vector118, %function
  75              	Vector118:
  76              		@ args = 0, pretend = 0, frame = 0
  77              		@ frame_needed = 1, uses_anonymous_args = 0
  78 0000 80B5     		push	{r7, lr}
  79 0002 00AF     		add	r7, sp, #0
  80 0004 FFF7FEFF 		bl	_stats_increase_irq
  81 0008 FFF7FEFF 		bl	_dbg_check_enter_isr
  82 000c 0448     		ldr	r0, .L4
  83 000e FFF7FEFF 		bl	gpt_lld_serve_interrupt
  84 0012 FFF7FEFF 		bl	_dbg_check_leave_isr
  85 0016 FFF7FEFF 		bl	_port_irq_epilogue
  86 001a 00BF     		nop
  87 001c 80BD     		pop	{r7, pc}
  88              	.L5:
  89 001e 00BF     		.align	2
  90              	.L4:
  91 0020 00000000 		.word	GPTD6
  92              		.size	Vector118, .-Vector118
  93              		.section	.text.VectorA8,"ax",%progbits
  94              		.align	1
  95              		.global	VectorA8
  96              		.syntax unified
  97              		.thumb
  98              		.thumb_func
  99              		.fpu fpv4-sp-d16
 100              		.type	VectorA8, %function
 101              	VectorA8:
 102              		@ args = 0, pretend = 0, frame = 0
 103              		@ frame_needed = 1, uses_anonymous_args = 0
 104 0000 80B5     		push	{r7, lr}
 105 0002 00AF     		add	r7, sp, #0
 106 0004 FFF7FEFF 		bl	_stats_increase_irq
 107 0008 FFF7FEFF 		bl	_dbg_check_enter_isr
 108 000c 0448     		ldr	r0, .L7
ARM GAS  /var/folders/d2/nstgp4h54kz7g1l847x_b8wc0000gn/T//ccmBZnVV.s 			page 3


 109 000e FFF7FEFF 		bl	gpt_lld_serve_interrupt
 110 0012 FFF7FEFF 		bl	_dbg_check_leave_isr
 111 0016 FFF7FEFF 		bl	_port_irq_epilogue
 112 001a 00BF     		nop
 113 001c 80BD     		pop	{r7, pc}
 114              	.L8:
 115 001e 00BF     		.align	2
 116              	.L7:
 117 0020 00000000 		.word	GPTD11
 118              		.size	VectorA8, .-VectorA8
 119              		.section	.text.gpt_lld_init,"ax",%progbits
 120              		.align	1
 121              		.global	gpt_lld_init
 122              		.syntax unified
 123              		.thumb
 124              		.thumb_func
 125              		.fpu fpv4-sp-d16
 126              		.type	gpt_lld_init, %function
 127              	gpt_lld_init:
 128              		@ args = 0, pretend = 0, frame = 0
 129              		@ frame_needed = 1, uses_anonymous_args = 0
 130 0000 80B5     		push	{r7, lr}
 131 0002 00AF     		add	r7, sp, #0
 132 0004 064B     		ldr	r3, .L10
 133 0006 074A     		ldr	r2, .L10+4
 134 0008 DA60     		str	r2, [r3, #12]
 135 000a 0548     		ldr	r0, .L10
 136 000c FFF7FEFF 		bl	gptObjectInit
 137 0010 054B     		ldr	r3, .L10+8
 138 0012 064A     		ldr	r2, .L10+12
 139 0014 DA60     		str	r2, [r3, #12]
 140 0016 0448     		ldr	r0, .L10+8
 141 0018 FFF7FEFF 		bl	gptObjectInit
 142 001c 00BF     		nop
 143 001e 80BD     		pop	{r7, pc}
 144              	.L11:
 145              		.align	2
 146              	.L10:
 147 0020 00000000 		.word	GPTD6
 148 0024 00100040 		.word	1073745920
 149 0028 00000000 		.word	GPTD11
 150 002c 00480140 		.word	1073825792
 151              		.size	gpt_lld_init, .-gpt_lld_init
 152              		.section	.text.gpt_lld_start,"ax",%progbits
 153              		.align	1
 154              		.global	gpt_lld_start
 155              		.syntax unified
 156              		.thumb
 157              		.thumb_func
 158              		.fpu fpv4-sp-d16
 159              		.type	gpt_lld_start, %function
 160              	gpt_lld_start:
 161              		@ args = 0, pretend = 0, frame = 16
 162              		@ frame_needed = 1, uses_anonymous_args = 0
 163 0000 80B5     		push	{r7, lr}
 164 0002 84B0     		sub	sp, sp, #16
 165 0004 00AF     		add	r7, sp, #0
ARM GAS  /var/folders/d2/nstgp4h54kz7g1l847x_b8wc0000gn/T//ccmBZnVV.s 			page 4


 166 0006 7860     		str	r0, [r7, #4]
 167 0008 7B68     		ldr	r3, [r7, #4]
 168 000a 1B78     		ldrb	r3, [r3]	@ zero_extendqisi2
 169 000c 012B     		cmp	r3, #1
 170 000e 33D1     		bne	.L13
 171 0010 7B68     		ldr	r3, [r7, #4]
 172 0012 354A     		ldr	r2, .L16
 173 0014 9342     		cmp	r3, r2
 174 0016 15D1     		bne	.L14
 175 0018 344B     		ldr	r3, .L16+4
 176 001a 1B6C     		ldr	r3, [r3, #64]
 177 001c 334A     		ldr	r2, .L16+4
 178 001e 43F01003 		orr	r3, r3, #16
 179 0022 1364     		str	r3, [r2, #64]
 180 0024 314B     		ldr	r3, .L16+4
 181 0026 1B6A     		ldr	r3, [r3, #32]
 182 0028 304A     		ldr	r2, .L16+4
 183 002a 43F01003 		orr	r3, r3, #16
 184 002e 1362     		str	r3, [r2, #32]
 185 0030 2E4B     		ldr	r3, .L16+4
 186 0032 0022     		movs	r2, #0
 187 0034 1A62     		str	r2, [r3, #32]
 188 0036 0721     		movs	r1, #7
 189 0038 3620     		movs	r0, #54
 190 003a FFF7FEFF 		bl	nvicEnableVector
 191 003e 7B68     		ldr	r3, [r7, #4]
 192 0040 2B4A     		ldr	r2, .L16+8
 193 0042 9A60     		str	r2, [r3, #8]
 194              	.L14:
 195 0044 7B68     		ldr	r3, [r7, #4]
 196 0046 2B4A     		ldr	r2, .L16+12
 197 0048 9342     		cmp	r3, r2
 198 004a 15D1     		bne	.L13
 199 004c 274B     		ldr	r3, .L16+4
 200 004e 5B6C     		ldr	r3, [r3, #68]
 201 0050 264A     		ldr	r2, .L16+4
 202 0052 43F48023 		orr	r3, r3, #262144
 203 0056 5364     		str	r3, [r2, #68]
 204 0058 244B     		ldr	r3, .L16+4
 205 005a 5B6A     		ldr	r3, [r3, #36]
 206 005c 234A     		ldr	r2, .L16+4
 207 005e 43F48023 		orr	r3, r3, #262144
 208 0062 5362     		str	r3, [r2, #36]
 209 0064 214B     		ldr	r3, .L16+4
 210 0066 0022     		movs	r2, #0
 211 0068 5A62     		str	r2, [r3, #36]
 212 006a 0721     		movs	r1, #7
 213 006c 1A20     		movs	r0, #26
 214 006e FFF7FEFF 		bl	nvicEnableVector
 215 0072 7B68     		ldr	r3, [r7, #4]
 216 0074 204A     		ldr	r2, .L16+16
 217 0076 9A60     		str	r2, [r3, #8]
 218              	.L13:
 219 0078 7B68     		ldr	r3, [r7, #4]
 220 007a 9A68     		ldr	r2, [r3, #8]
 221 007c 7B68     		ldr	r3, [r7, #4]
 222 007e 5B68     		ldr	r3, [r3, #4]
ARM GAS  /var/folders/d2/nstgp4h54kz7g1l847x_b8wc0000gn/T//ccmBZnVV.s 			page 5


 223 0080 1B68     		ldr	r3, [r3]
 224 0082 B2FBF3F3 		udiv	r3, r2, r3
 225 0086 9BB2     		uxth	r3, r3
 226 0088 013B     		subs	r3, r3, #1
 227 008a FB81     		strh	r3, [r7, #14]	@ movhi
 228 008c FB89     		ldrh	r3, [r7, #14]
 229 008e 0133     		adds	r3, r3, #1
 230 0090 1A46     		mov	r2, r3
 231 0092 7B68     		ldr	r3, [r7, #4]
 232 0094 5B68     		ldr	r3, [r3, #4]
 233 0096 1B68     		ldr	r3, [r3]
 234 0098 03FB02F2 		mul	r2, r3, r2
 235 009c 7B68     		ldr	r3, [r7, #4]
 236 009e 9B68     		ldr	r3, [r3, #8]
 237 00a0 9A42     		cmp	r2, r3
 238 00a2 02D0     		beq	.L15
 239 00a4 1548     		ldr	r0, .L16+20
 240 00a6 FFF7FEFF 		bl	chSysHalt
 241              	.L15:
 242 00aa 7B68     		ldr	r3, [r7, #4]
 243 00ac DB68     		ldr	r3, [r3, #12]
 244 00ae 0022     		movs	r2, #0
 245 00b0 1A60     		str	r2, [r3]
 246 00b2 7B68     		ldr	r3, [r7, #4]
 247 00b4 5A68     		ldr	r2, [r3, #4]
 248 00b6 7B68     		ldr	r3, [r7, #4]
 249 00b8 DB68     		ldr	r3, [r3, #12]
 250 00ba 9268     		ldr	r2, [r2, #8]
 251 00bc 5A60     		str	r2, [r3, #4]
 252 00be 7B68     		ldr	r3, [r7, #4]
 253 00c0 DB68     		ldr	r3, [r3, #12]
 254 00c2 FA89     		ldrh	r2, [r7, #14]
 255 00c4 9A62     		str	r2, [r3, #40]
 256 00c6 7B68     		ldr	r3, [r7, #4]
 257 00c8 DB68     		ldr	r3, [r3, #12]
 258 00ca 0022     		movs	r2, #0
 259 00cc 1A61     		str	r2, [r3, #16]
 260 00ce 7B68     		ldr	r3, [r7, #4]
 261 00d0 5B68     		ldr	r3, [r3, #4]
 262 00d2 DA68     		ldr	r2, [r3, #12]
 263 00d4 7B68     		ldr	r3, [r7, #4]
 264 00d6 DB68     		ldr	r3, [r3, #12]
 265 00d8 22F0FF02 		bic	r2, r2, #255
 266 00dc DA60     		str	r2, [r3, #12]
 267 00de 00BF     		nop
 268 00e0 1037     		adds	r7, r7, #16
 269 00e2 BD46     		mov	sp, r7
 270              		@ sp needed
 271 00e4 80BD     		pop	{r7, pc}
 272              	.L17:
 273 00e6 00BF     		.align	2
 274              	.L16:
 275 00e8 00000000 		.word	GPTD6
 276 00ec 00380240 		.word	1073887232
 277 00f0 00BD0105 		.word	84000000
 278 00f4 00000000 		.word	GPTD11
 279 00f8 007A030A 		.word	168000000
ARM GAS  /var/folders/d2/nstgp4h54kz7g1l847x_b8wc0000gn/T//ccmBZnVV.s 			page 6


 280 00fc 00000000 		.word	__func__.9856
 281              		.size	gpt_lld_start, .-gpt_lld_start
 282              		.section	.text.gpt_lld_stop,"ax",%progbits
 283              		.align	1
 284              		.global	gpt_lld_stop
 285              		.syntax unified
 286              		.thumb
 287              		.thumb_func
 288              		.fpu fpv4-sp-d16
 289              		.type	gpt_lld_stop, %function
 290              	gpt_lld_stop:
 291              		@ args = 0, pretend = 0, frame = 8
 292              		@ frame_needed = 1, uses_anonymous_args = 0
 293 0000 80B5     		push	{r7, lr}
 294 0002 82B0     		sub	sp, sp, #8
 295 0004 00AF     		add	r7, sp, #0
 296 0006 7860     		str	r0, [r7, #4]
 297 0008 7B68     		ldr	r3, [r7, #4]
 298 000a 1B78     		ldrb	r3, [r3]	@ zero_extendqisi2
 299 000c 022B     		cmp	r3, #2
 300 000e 25D1     		bne	.L21
 301 0010 7B68     		ldr	r3, [r7, #4]
 302 0012 DB68     		ldr	r3, [r3, #12]
 303 0014 0022     		movs	r2, #0
 304 0016 1A60     		str	r2, [r3]
 305 0018 7B68     		ldr	r3, [r7, #4]
 306 001a DB68     		ldr	r3, [r3, #12]
 307 001c 0022     		movs	r2, #0
 308 001e DA60     		str	r2, [r3, #12]
 309 0020 7B68     		ldr	r3, [r7, #4]
 310 0022 DB68     		ldr	r3, [r3, #12]
 311 0024 0022     		movs	r2, #0
 312 0026 1A61     		str	r2, [r3, #16]
 313 0028 7B68     		ldr	r3, [r7, #4]
 314 002a 0E4A     		ldr	r2, .L22
 315 002c 9342     		cmp	r3, r2
 316 002e 08D1     		bne	.L20
 317 0030 3620     		movs	r0, #54
 318 0032 FFF7FEFF 		bl	nvicDisableVector
 319 0036 0C4B     		ldr	r3, .L22+4
 320 0038 1B6C     		ldr	r3, [r3, #64]
 321 003a 0B4A     		ldr	r2, .L22+4
 322 003c 23F01003 		bic	r3, r3, #16
 323 0040 1364     		str	r3, [r2, #64]
 324              	.L20:
 325 0042 7B68     		ldr	r3, [r7, #4]
 326 0044 094A     		ldr	r2, .L22+8
 327 0046 9342     		cmp	r3, r2
 328 0048 08D1     		bne	.L21
 329 004a 1A20     		movs	r0, #26
 330 004c FFF7FEFF 		bl	nvicDisableVector
 331 0050 054B     		ldr	r3, .L22+4
 332 0052 5B6C     		ldr	r3, [r3, #68]
 333 0054 044A     		ldr	r2, .L22+4
 334 0056 23F48023 		bic	r3, r3, #262144
 335 005a 5364     		str	r3, [r2, #68]
 336              	.L21:
ARM GAS  /var/folders/d2/nstgp4h54kz7g1l847x_b8wc0000gn/T//ccmBZnVV.s 			page 7


 337 005c 00BF     		nop
 338 005e 0837     		adds	r7, r7, #8
 339 0060 BD46     		mov	sp, r7
 340              		@ sp needed
 341 0062 80BD     		pop	{r7, pc}
 342              	.L23:
 343              		.align	2
 344              	.L22:
 345 0064 00000000 		.word	GPTD6
 346 0068 00380240 		.word	1073887232
 347 006c 00000000 		.word	GPTD11
 348              		.size	gpt_lld_stop, .-gpt_lld_stop
 349              		.section	.text.gpt_lld_start_timer,"ax",%progbits
 350              		.align	1
 351              		.global	gpt_lld_start_timer
 352              		.syntax unified
 353              		.thumb
 354              		.thumb_func
 355              		.fpu fpv4-sp-d16
 356              		.type	gpt_lld_start_timer, %function
 357              	gpt_lld_start_timer:
 358              		@ args = 0, pretend = 0, frame = 8
 359              		@ frame_needed = 1, uses_anonymous_args = 0
 360              		@ link register save eliminated.
 361 0000 80B4     		push	{r7}
 362 0002 83B0     		sub	sp, sp, #12
 363 0004 00AF     		add	r7, sp, #0
 364 0006 7860     		str	r0, [r7, #4]
 365 0008 3960     		str	r1, [r7]
 366 000a 7B68     		ldr	r3, [r7, #4]
 367 000c DB68     		ldr	r3, [r3, #12]
 368 000e 3A68     		ldr	r2, [r7]
 369 0010 013A     		subs	r2, r2, #1
 370 0012 DA62     		str	r2, [r3, #44]
 371 0014 7B68     		ldr	r3, [r7, #4]
 372 0016 DB68     		ldr	r3, [r3, #12]
 373 0018 0122     		movs	r2, #1
 374 001a 5A61     		str	r2, [r3, #20]
 375 001c 7B68     		ldr	r3, [r7, #4]
 376 001e DB68     		ldr	r3, [r3, #12]
 377 0020 0022     		movs	r2, #0
 378 0022 5A62     		str	r2, [r3, #36]
 379 0024 7B68     		ldr	r3, [r7, #4]
 380 0026 DB68     		ldr	r3, [r3, #12]
 381 0028 0022     		movs	r2, #0
 382 002a 1A61     		str	r2, [r3, #16]
 383 002c 7B68     		ldr	r3, [r7, #4]
 384 002e 5B68     		ldr	r3, [r3, #4]
 385 0030 5B68     		ldr	r3, [r3, #4]
 386 0032 002B     		cmp	r3, #0
 387 0034 07D0     		beq	.L25
 388 0036 7B68     		ldr	r3, [r7, #4]
 389 0038 DB68     		ldr	r3, [r3, #12]
 390 003a DA68     		ldr	r2, [r3, #12]
 391 003c 7B68     		ldr	r3, [r7, #4]
 392 003e DB68     		ldr	r3, [r3, #12]
 393 0040 42F00102 		orr	r2, r2, #1
ARM GAS  /var/folders/d2/nstgp4h54kz7g1l847x_b8wc0000gn/T//ccmBZnVV.s 			page 8


 394 0044 DA60     		str	r2, [r3, #12]
 395              	.L25:
 396 0046 7B68     		ldr	r3, [r7, #4]
 397 0048 DB68     		ldr	r3, [r3, #12]
 398 004a 0522     		movs	r2, #5
 399 004c 1A60     		str	r2, [r3]
 400 004e 00BF     		nop
 401 0050 0C37     		adds	r7, r7, #12
 402 0052 BD46     		mov	sp, r7
 403              		@ sp needed
 404 0054 5DF8047B 		ldr	r7, [sp], #4
 405 0058 7047     		bx	lr
 406              		.size	gpt_lld_start_timer, .-gpt_lld_start_timer
 407              		.section	.text.gpt_lld_stop_timer,"ax",%progbits
 408              		.align	1
 409              		.global	gpt_lld_stop_timer
 410              		.syntax unified
 411              		.thumb
 412              		.thumb_func
 413              		.fpu fpv4-sp-d16
 414              		.type	gpt_lld_stop_timer, %function
 415              	gpt_lld_stop_timer:
 416              		@ args = 0, pretend = 0, frame = 8
 417              		@ frame_needed = 1, uses_anonymous_args = 0
 418              		@ link register save eliminated.
 419 0000 80B4     		push	{r7}
 420 0002 83B0     		sub	sp, sp, #12
 421 0004 00AF     		add	r7, sp, #0
 422 0006 7860     		str	r0, [r7, #4]
 423 0008 7B68     		ldr	r3, [r7, #4]
 424 000a DB68     		ldr	r3, [r3, #12]
 425 000c 0022     		movs	r2, #0
 426 000e 1A60     		str	r2, [r3]
 427 0010 7B68     		ldr	r3, [r7, #4]
 428 0012 DB68     		ldr	r3, [r3, #12]
 429 0014 0022     		movs	r2, #0
 430 0016 1A61     		str	r2, [r3, #16]
 431 0018 7B68     		ldr	r3, [r7, #4]
 432 001a DB68     		ldr	r3, [r3, #12]
 433 001c DA68     		ldr	r2, [r3, #12]
 434 001e 7B68     		ldr	r3, [r7, #4]
 435 0020 DB68     		ldr	r3, [r3, #12]
 436 0022 22F0FF02 		bic	r2, r2, #255
 437 0026 DA60     		str	r2, [r3, #12]
 438 0028 00BF     		nop
 439 002a 0C37     		adds	r7, r7, #12
 440 002c BD46     		mov	sp, r7
 441              		@ sp needed
 442 002e 5DF8047B 		ldr	r7, [sp], #4
 443 0032 7047     		bx	lr
 444              		.size	gpt_lld_stop_timer, .-gpt_lld_stop_timer
 445              		.section	.text.gpt_lld_polled_delay,"ax",%progbits
 446              		.align	1
 447              		.global	gpt_lld_polled_delay
 448              		.syntax unified
 449              		.thumb
 450              		.thumb_func
ARM GAS  /var/folders/d2/nstgp4h54kz7g1l847x_b8wc0000gn/T//ccmBZnVV.s 			page 9


 451              		.fpu fpv4-sp-d16
 452              		.type	gpt_lld_polled_delay, %function
 453              	gpt_lld_polled_delay:
 454              		@ args = 0, pretend = 0, frame = 8
 455              		@ frame_needed = 1, uses_anonymous_args = 0
 456              		@ link register save eliminated.
 457 0000 80B4     		push	{r7}
 458 0002 83B0     		sub	sp, sp, #12
 459 0004 00AF     		add	r7, sp, #0
 460 0006 7860     		str	r0, [r7, #4]
 461 0008 3960     		str	r1, [r7]
 462 000a 7B68     		ldr	r3, [r7, #4]
 463 000c DB68     		ldr	r3, [r3, #12]
 464 000e 3A68     		ldr	r2, [r7]
 465 0010 013A     		subs	r2, r2, #1
 466 0012 DA62     		str	r2, [r3, #44]
 467 0014 7B68     		ldr	r3, [r7, #4]
 468 0016 DB68     		ldr	r3, [r3, #12]
 469 0018 0122     		movs	r2, #1
 470 001a 5A61     		str	r2, [r3, #20]
 471 001c 7B68     		ldr	r3, [r7, #4]
 472 001e DB68     		ldr	r3, [r3, #12]
 473 0020 0D22     		movs	r2, #13
 474 0022 1A60     		str	r2, [r3]
 475 0024 00BF     		nop
 476              	.L28:
 477 0026 7B68     		ldr	r3, [r7, #4]
 478 0028 DB68     		ldr	r3, [r3, #12]
 479 002a 1B69     		ldr	r3, [r3, #16]
 480 002c 03F00103 		and	r3, r3, #1
 481 0030 002B     		cmp	r3, #0
 482 0032 F8D0     		beq	.L28
 483 0034 7B68     		ldr	r3, [r7, #4]
 484 0036 DB68     		ldr	r3, [r3, #12]
 485 0038 0022     		movs	r2, #0
 486 003a 1A61     		str	r2, [r3, #16]
 487 003c 00BF     		nop
 488 003e 0C37     		adds	r7, r7, #12
 489 0040 BD46     		mov	sp, r7
 490              		@ sp needed
 491 0042 5DF8047B 		ldr	r7, [sp], #4
 492 0046 7047     		bx	lr
 493              		.size	gpt_lld_polled_delay, .-gpt_lld_polled_delay
 494              		.section	.rodata.__func__.9856,"a",%progbits
 495              		.align	2
 496              		.type	__func__.9856, %object
 497              		.size	__func__.9856, 14
 498              	__func__.9856:
 499 0000 6770745F 		.ascii	"gpt_lld_start\000"
 499      6C6C645F 
 499      73746172 
 499      7400
 500              		.ident	"GCC: (GNU Tools for Arm Embedded Processors 7-2017-q4-major) 7.2.1 20170904 (release) [ARM
ARM GAS  /var/folders/d2/nstgp4h54kz7g1l847x_b8wc0000gn/T//ccmBZnVV.s 			page 10


DEFINED SYMBOLS
                            *ABS*:0000000000000000 gpt_lld.c
/var/folders/d2/nstgp4h54kz7g1l847x_b8wc0000gn/T//ccmBZnVV.s:19     .bss.GPTD6:0000000000000000 GPTD6
/var/folders/d2/nstgp4h54kz7g1l847x_b8wc0000gn/T//ccmBZnVV.s:16     .bss.GPTD6:0000000000000000 $d
/var/folders/d2/nstgp4h54kz7g1l847x_b8wc0000gn/T//ccmBZnVV.s:26     .bss.GPTD11:0000000000000000 GPTD11
/var/folders/d2/nstgp4h54kz7g1l847x_b8wc0000gn/T//ccmBZnVV.s:23     .bss.GPTD11:0000000000000000 $d
/var/folders/d2/nstgp4h54kz7g1l847x_b8wc0000gn/T//ccmBZnVV.s:29     .text.gpt_lld_serve_interrupt:0000000000000000 $t
/var/folders/d2/nstgp4h54kz7g1l847x_b8wc0000gn/T//ccmBZnVV.s:35     .text.gpt_lld_serve_interrupt:0000000000000000 gpt_lld_serve_interrupt
/var/folders/d2/nstgp4h54kz7g1l847x_b8wc0000gn/T//ccmBZnVV.s:415    .text.gpt_lld_stop_timer:0000000000000000 gpt_lld_stop_timer
/var/folders/d2/nstgp4h54kz7g1l847x_b8wc0000gn/T//ccmBZnVV.s:68     .text.Vector118:0000000000000000 $t
/var/folders/d2/nstgp4h54kz7g1l847x_b8wc0000gn/T//ccmBZnVV.s:75     .text.Vector118:0000000000000000 Vector118
/var/folders/d2/nstgp4h54kz7g1l847x_b8wc0000gn/T//ccmBZnVV.s:91     .text.Vector118:0000000000000020 $d
/var/folders/d2/nstgp4h54kz7g1l847x_b8wc0000gn/T//ccmBZnVV.s:94     .text.VectorA8:0000000000000000 $t
/var/folders/d2/nstgp4h54kz7g1l847x_b8wc0000gn/T//ccmBZnVV.s:101    .text.VectorA8:0000000000000000 VectorA8
/var/folders/d2/nstgp4h54kz7g1l847x_b8wc0000gn/T//ccmBZnVV.s:117    .text.VectorA8:0000000000000020 $d
/var/folders/d2/nstgp4h54kz7g1l847x_b8wc0000gn/T//ccmBZnVV.s:120    .text.gpt_lld_init:0000000000000000 $t
/var/folders/d2/nstgp4h54kz7g1l847x_b8wc0000gn/T//ccmBZnVV.s:127    .text.gpt_lld_init:0000000000000000 gpt_lld_init
/var/folders/d2/nstgp4h54kz7g1l847x_b8wc0000gn/T//ccmBZnVV.s:147    .text.gpt_lld_init:0000000000000020 $d
/var/folders/d2/nstgp4h54kz7g1l847x_b8wc0000gn/T//ccmBZnVV.s:153    .text.gpt_lld_start:0000000000000000 $t
/var/folders/d2/nstgp4h54kz7g1l847x_b8wc0000gn/T//ccmBZnVV.s:160    .text.gpt_lld_start:0000000000000000 gpt_lld_start
/var/folders/d2/nstgp4h54kz7g1l847x_b8wc0000gn/T//ccmBZnVV.s:275    .text.gpt_lld_start:00000000000000e8 $d
/var/folders/d2/nstgp4h54kz7g1l847x_b8wc0000gn/T//ccmBZnVV.s:498    .rodata.__func__.9856:0000000000000000 __func__.9856
/var/folders/d2/nstgp4h54kz7g1l847x_b8wc0000gn/T//ccmBZnVV.s:283    .text.gpt_lld_stop:0000000000000000 $t
/var/folders/d2/nstgp4h54kz7g1l847x_b8wc0000gn/T//ccmBZnVV.s:290    .text.gpt_lld_stop:0000000000000000 gpt_lld_stop
/var/folders/d2/nstgp4h54kz7g1l847x_b8wc0000gn/T//ccmBZnVV.s:345    .text.gpt_lld_stop:0000000000000064 $d
/var/folders/d2/nstgp4h54kz7g1l847x_b8wc0000gn/T//ccmBZnVV.s:350    .text.gpt_lld_start_timer:0000000000000000 $t
/var/folders/d2/nstgp4h54kz7g1l847x_b8wc0000gn/T//ccmBZnVV.s:357    .text.gpt_lld_start_timer:0000000000000000 gpt_lld_start_timer
/var/folders/d2/nstgp4h54kz7g1l847x_b8wc0000gn/T//ccmBZnVV.s:408    .text.gpt_lld_stop_timer:0000000000000000 $t
/var/folders/d2/nstgp4h54kz7g1l847x_b8wc0000gn/T//ccmBZnVV.s:446    .text.gpt_lld_polled_delay:0000000000000000 $t
/var/folders/d2/nstgp4h54kz7g1l847x_b8wc0000gn/T//ccmBZnVV.s:453    .text.gpt_lld_polled_delay:0000000000000000 gpt_lld_polled_delay
/var/folders/d2/nstgp4h54kz7g1l847x_b8wc0000gn/T//ccmBZnVV.s:495    .rodata.__func__.9856:0000000000000000 $d

UNDEFINED SYMBOLS
_stats_increase_irq
_dbg_check_enter_isr
_dbg_check_leave_isr
_port_irq_epilogue
gptObjectInit
nvicEnableVector
chSysHalt
nvicDisableVector
