ARM GAS  /var/folders/d2/nstgp4h54kz7g1l847x_b8wc0000gn/T//ccNzmymf.s 			page 1


   1              		.cpu cortex-m4
   2              		.eabi_attribute 27, 1
   3              		.eabi_attribute 28, 1
   4              		.eabi_attribute 20, 1
   5              		.eabi_attribute 21, 1
   6              		.eabi_attribute 23, 3
   7              		.eabi_attribute 24, 1
   8              		.eabi_attribute 25, 1
   9              		.eabi_attribute 26, 1
  10              		.eabi_attribute 30, 6
  11              		.eabi_attribute 34, 1
  12              		.eabi_attribute 18, 4
  13              		.file	"i2c_lld.c"
  14              		.section	.text.port_lock,"ax",%progbits
  15              		.align	1
  16              		.syntax unified
  17              		.thumb
  18              		.thumb_func
  19              		.fpu fpv4-sp-d16
  20              		.type	port_lock, %function
  21              	port_lock:
  22              		@ args = 0, pretend = 0, frame = 8
  23              		@ frame_needed = 1, uses_anonymous_args = 0
  24              		@ link register save eliminated.
  25 0000 80B4     		push	{r7}
  26 0002 83B0     		sub	sp, sp, #12
  27 0004 00AF     		add	r7, sp, #0
  28 0006 2023     		movs	r3, #32
  29 0008 7B60     		str	r3, [r7, #4]
  30 000a 7B68     		ldr	r3, [r7, #4]
  31              		.syntax unified
  32              	@ 546 "../e-puck2_main-processor/ChibiOS//os/ext/CMSIS/include/core_cmFunc.h" 1
  33 000c 83F31188 		MSR basepri, r3
  34              	@ 0 "" 2
  35              		.thumb
  36              		.syntax unified
  37 0010 00BF     		nop
  38 0012 0C37     		adds	r7, r7, #12
  39 0014 BD46     		mov	sp, r7
  40              		@ sp needed
  41 0016 5DF8047B 		ldr	r7, [sp], #4
  42 001a 7047     		bx	lr
  43              		.size	port_lock, .-port_lock
  44              		.section	.text.port_unlock,"ax",%progbits
  45              		.align	1
  46              		.syntax unified
  47              		.thumb
  48              		.thumb_func
  49              		.fpu fpv4-sp-d16
  50              		.type	port_unlock, %function
  51              	port_unlock:
  52              		@ args = 0, pretend = 0, frame = 8
  53              		@ frame_needed = 1, uses_anonymous_args = 0
  54              		@ link register save eliminated.
  55 0000 80B4     		push	{r7}
  56 0002 83B0     		sub	sp, sp, #12
  57 0004 00AF     		add	r7, sp, #0
ARM GAS  /var/folders/d2/nstgp4h54kz7g1l847x_b8wc0000gn/T//ccNzmymf.s 			page 2


  58 0006 0023     		movs	r3, #0
  59 0008 7B60     		str	r3, [r7, #4]
  60 000a 7B68     		ldr	r3, [r7, #4]
  61              		.syntax unified
  62              	@ 546 "../e-puck2_main-processor/ChibiOS//os/ext/CMSIS/include/core_cmFunc.h" 1
  63 000c 83F31188 		MSR basepri, r3
  64              	@ 0 "" 2
  65              		.thumb
  66              		.syntax unified
  67 0010 00BF     		nop
  68 0012 0C37     		adds	r7, r7, #12
  69 0014 BD46     		mov	sp, r7
  70              		@ sp needed
  71 0016 5DF8047B 		ldr	r7, [sp], #4
  72 001a 7047     		bx	lr
  73              		.size	port_unlock, .-port_unlock
  74              		.section	.text.port_lock_from_isr,"ax",%progbits
  75              		.align	1
  76              		.syntax unified
  77              		.thumb
  78              		.thumb_func
  79              		.fpu fpv4-sp-d16
  80              		.type	port_lock_from_isr, %function
  81              	port_lock_from_isr:
  82              		@ args = 0, pretend = 0, frame = 0
  83              		@ frame_needed = 1, uses_anonymous_args = 0
  84 0000 80B5     		push	{r7, lr}
  85 0002 00AF     		add	r7, sp, #0
  86 0004 FFF7FEFF 		bl	port_lock
  87 0008 00BF     		nop
  88 000a 80BD     		pop	{r7, pc}
  89              		.size	port_lock_from_isr, .-port_lock_from_isr
  90              		.section	.text.port_unlock_from_isr,"ax",%progbits
  91              		.align	1
  92              		.syntax unified
  93              		.thumb
  94              		.thumb_func
  95              		.fpu fpv4-sp-d16
  96              		.type	port_unlock_from_isr, %function
  97              	port_unlock_from_isr:
  98              		@ args = 0, pretend = 0, frame = 0
  99              		@ frame_needed = 1, uses_anonymous_args = 0
 100 0000 80B5     		push	{r7, lr}
 101 0002 00AF     		add	r7, sp, #0
 102 0004 FFF7FEFF 		bl	port_unlock
 103 0008 00BF     		nop
 104 000a 80BD     		pop	{r7, pc}
 105              		.size	port_unlock_from_isr, .-port_unlock_from_isr
 106              		.section	.text.chSysLock,"ax",%progbits
 107              		.align	1
 108              		.syntax unified
 109              		.thumb
 110              		.thumb_func
 111              		.fpu fpv4-sp-d16
 112              		.type	chSysLock, %function
 113              	chSysLock:
 114              		@ args = 0, pretend = 0, frame = 0
ARM GAS  /var/folders/d2/nstgp4h54kz7g1l847x_b8wc0000gn/T//ccNzmymf.s 			page 3


 115              		@ frame_needed = 1, uses_anonymous_args = 0
 116 0000 80B5     		push	{r7, lr}
 117 0002 00AF     		add	r7, sp, #0
 118 0004 FFF7FEFF 		bl	port_lock
 119 0008 FFF7FEFF 		bl	_stats_start_measure_crit_thd
 120 000c FFF7FEFF 		bl	_dbg_check_lock
 121 0010 00BF     		nop
 122 0012 80BD     		pop	{r7, pc}
 123              		.size	chSysLock, .-chSysLock
 124              		.section	.text.chSysUnlock,"ax",%progbits
 125              		.align	1
 126              		.syntax unified
 127              		.thumb
 128              		.thumb_func
 129              		.fpu fpv4-sp-d16
 130              		.type	chSysUnlock, %function
 131              	chSysUnlock:
 132              		@ args = 0, pretend = 0, frame = 0
 133              		@ frame_needed = 1, uses_anonymous_args = 0
 134 0000 80B5     		push	{r7, lr}
 135 0002 00AF     		add	r7, sp, #0
 136 0004 FFF7FEFF 		bl	_dbg_check_unlock
 137 0008 FFF7FEFF 		bl	_stats_stop_measure_crit_thd
 138 000c 094B     		ldr	r3, .L8
 139 000e 1B68     		ldr	r3, [r3]
 140 0010 084A     		ldr	r2, .L8
 141 0012 9342     		cmp	r3, r2
 142 0014 0AD0     		beq	.L7
 143 0016 074B     		ldr	r3, .L8
 144 0018 9B69     		ldr	r3, [r3, #24]
 145 001a 9A68     		ldr	r2, [r3, #8]
 146 001c 054B     		ldr	r3, .L8
 147 001e 1B68     		ldr	r3, [r3]
 148 0020 9B68     		ldr	r3, [r3, #8]
 149 0022 9A42     		cmp	r2, r3
 150 0024 02D2     		bcs	.L7
 151 0026 0448     		ldr	r0, .L8+4
 152 0028 FFF7FEFF 		bl	chSysHalt
 153              	.L7:
 154 002c FFF7FEFF 		bl	port_unlock
 155 0030 00BF     		nop
 156 0032 80BD     		pop	{r7, pc}
 157              	.L9:
 158              		.align	2
 159              	.L8:
 160 0034 00000000 		.word	ch
 161 0038 00000000 		.word	__func__.7153
 162              		.size	chSysUnlock, .-chSysUnlock
 163              		.section	.text.chSysLockFromISR,"ax",%progbits
 164              		.align	1
 165              		.syntax unified
 166              		.thumb
 167              		.thumb_func
 168              		.fpu fpv4-sp-d16
 169              		.type	chSysLockFromISR, %function
 170              	chSysLockFromISR:
 171              		@ args = 0, pretend = 0, frame = 0
ARM GAS  /var/folders/d2/nstgp4h54kz7g1l847x_b8wc0000gn/T//ccNzmymf.s 			page 4


 172              		@ frame_needed = 1, uses_anonymous_args = 0
 173 0000 80B5     		push	{r7, lr}
 174 0002 00AF     		add	r7, sp, #0
 175 0004 FFF7FEFF 		bl	port_lock_from_isr
 176 0008 FFF7FEFF 		bl	_stats_start_measure_crit_isr
 177 000c FFF7FEFF 		bl	_dbg_check_lock_from_isr
 178 0010 00BF     		nop
 179 0012 80BD     		pop	{r7, pc}
 180              		.size	chSysLockFromISR, .-chSysLockFromISR
 181              		.section	.text.chSysUnlockFromISR,"ax",%progbits
 182              		.align	1
 183              		.syntax unified
 184              		.thumb
 185              		.thumb_func
 186              		.fpu fpv4-sp-d16
 187              		.type	chSysUnlockFromISR, %function
 188              	chSysUnlockFromISR:
 189              		@ args = 0, pretend = 0, frame = 0
 190              		@ frame_needed = 1, uses_anonymous_args = 0
 191 0000 80B5     		push	{r7, lr}
 192 0002 00AF     		add	r7, sp, #0
 193 0004 FFF7FEFF 		bl	_dbg_check_unlock_from_isr
 194 0008 FFF7FEFF 		bl	_stats_stop_measure_crit_isr
 195 000c FFF7FEFF 		bl	port_unlock_from_isr
 196 0010 00BF     		nop
 197 0012 80BD     		pop	{r7, pc}
 198              		.size	chSysUnlockFromISR, .-chSysUnlockFromISR
 199              		.section	.text.chVTGetSystemTimeX,"ax",%progbits
 200              		.align	1
 201              		.syntax unified
 202              		.thumb
 203              		.thumb_func
 204              		.fpu fpv4-sp-d16
 205              		.type	chVTGetSystemTimeX, %function
 206              	chVTGetSystemTimeX:
 207              		@ args = 0, pretend = 0, frame = 0
 208              		@ frame_needed = 1, uses_anonymous_args = 0
 209              		@ link register save eliminated.
 210 0000 80B4     		push	{r7}
 211 0002 00AF     		add	r7, sp, #0
 212 0004 034B     		ldr	r3, .L14
 213 0006 9B6A     		ldr	r3, [r3, #40]
 214 0008 1846     		mov	r0, r3
 215 000a BD46     		mov	sp, r7
 216              		@ sp needed
 217 000c 5DF8047B 		ldr	r7, [sp], #4
 218 0010 7047     		bx	lr
 219              	.L15:
 220 0012 00BF     		.align	2
 221              	.L14:
 222 0014 00000000 		.word	ch
 223              		.size	chVTGetSystemTimeX, .-chVTGetSystemTimeX
 224              		.section	.text.chVTIsTimeWithinX,"ax",%progbits
 225              		.align	1
 226              		.syntax unified
 227              		.thumb
 228              		.thumb_func
ARM GAS  /var/folders/d2/nstgp4h54kz7g1l847x_b8wc0000gn/T//ccNzmymf.s 			page 5


 229              		.fpu fpv4-sp-d16
 230              		.type	chVTIsTimeWithinX, %function
 231              	chVTIsTimeWithinX:
 232              		@ args = 0, pretend = 0, frame = 16
 233              		@ frame_needed = 1, uses_anonymous_args = 0
 234              		@ link register save eliminated.
 235 0000 80B4     		push	{r7}
 236 0002 85B0     		sub	sp, sp, #20
 237 0004 00AF     		add	r7, sp, #0
 238 0006 F860     		str	r0, [r7, #12]
 239 0008 B960     		str	r1, [r7, #8]
 240 000a 7A60     		str	r2, [r7, #4]
 241 000c FA68     		ldr	r2, [r7, #12]
 242 000e BB68     		ldr	r3, [r7, #8]
 243 0010 D21A     		subs	r2, r2, r3
 244 0012 7968     		ldr	r1, [r7, #4]
 245 0014 BB68     		ldr	r3, [r7, #8]
 246 0016 CB1A     		subs	r3, r1, r3
 247 0018 9A42     		cmp	r2, r3
 248 001a 34BF     		ite	cc
 249 001c 0123     		movcc	r3, #1
 250 001e 0023     		movcs	r3, #0
 251 0020 DBB2     		uxtb	r3, r3
 252 0022 1846     		mov	r0, r3
 253 0024 1437     		adds	r7, r7, #20
 254 0026 BD46     		mov	sp, r7
 255              		@ sp needed
 256 0028 5DF8047B 		ldr	r7, [sp], #4
 257 002c 7047     		bx	lr
 258              		.size	chVTIsTimeWithinX, .-chVTIsTimeWithinX
 259              		.section	.text.osalSysHalt,"ax",%progbits
 260              		.align	1
 261              		.syntax unified
 262              		.thumb
 263              		.thumb_func
 264              		.fpu fpv4-sp-d16
 265              		.type	osalSysHalt, %function
 266              	osalSysHalt:
 267              		@ args = 0, pretend = 0, frame = 8
 268              		@ frame_needed = 1, uses_anonymous_args = 0
 269 0000 80B5     		push	{r7, lr}
 270 0002 82B0     		sub	sp, sp, #8
 271 0004 00AF     		add	r7, sp, #0
 272 0006 7860     		str	r0, [r7, #4]
 273 0008 7868     		ldr	r0, [r7, #4]
 274 000a FFF7FEFF 		bl	chSysHalt
 275 000e 00BF     		nop
 276 0010 0837     		adds	r7, r7, #8
 277 0012 BD46     		mov	sp, r7
 278              		@ sp needed
 279 0014 80BD     		pop	{r7, pc}
 280              		.size	osalSysHalt, .-osalSysHalt
 281              		.section	.text.osalSysLock,"ax",%progbits
 282              		.align	1
 283              		.syntax unified
 284              		.thumb
 285              		.thumb_func
ARM GAS  /var/folders/d2/nstgp4h54kz7g1l847x_b8wc0000gn/T//ccNzmymf.s 			page 6


 286              		.fpu fpv4-sp-d16
 287              		.type	osalSysLock, %function
 288              	osalSysLock:
 289              		@ args = 0, pretend = 0, frame = 0
 290              		@ frame_needed = 1, uses_anonymous_args = 0
 291 0000 80B5     		push	{r7, lr}
 292 0002 00AF     		add	r7, sp, #0
 293 0004 FFF7FEFF 		bl	chSysLock
 294 0008 00BF     		nop
 295 000a 80BD     		pop	{r7, pc}
 296              		.size	osalSysLock, .-osalSysLock
 297              		.section	.text.osalSysUnlock,"ax",%progbits
 298              		.align	1
 299              		.syntax unified
 300              		.thumb
 301              		.thumb_func
 302              		.fpu fpv4-sp-d16
 303              		.type	osalSysUnlock, %function
 304              	osalSysUnlock:
 305              		@ args = 0, pretend = 0, frame = 0
 306              		@ frame_needed = 1, uses_anonymous_args = 0
 307 0000 80B5     		push	{r7, lr}
 308 0002 00AF     		add	r7, sp, #0
 309 0004 FFF7FEFF 		bl	chSysUnlock
 310 0008 00BF     		nop
 311 000a 80BD     		pop	{r7, pc}
 312              		.size	osalSysUnlock, .-osalSysUnlock
 313              		.section	.text.osalSysLockFromISR,"ax",%progbits
 314              		.align	1
 315              		.syntax unified
 316              		.thumb
 317              		.thumb_func
 318              		.fpu fpv4-sp-d16
 319              		.type	osalSysLockFromISR, %function
 320              	osalSysLockFromISR:
 321              		@ args = 0, pretend = 0, frame = 0
 322              		@ frame_needed = 1, uses_anonymous_args = 0
 323 0000 80B5     		push	{r7, lr}
 324 0002 00AF     		add	r7, sp, #0
 325 0004 FFF7FEFF 		bl	chSysLockFromISR
 326 0008 00BF     		nop
 327 000a 80BD     		pop	{r7, pc}
 328              		.size	osalSysLockFromISR, .-osalSysLockFromISR
 329              		.section	.text.osalSysUnlockFromISR,"ax",%progbits
 330              		.align	1
 331              		.syntax unified
 332              		.thumb
 333              		.thumb_func
 334              		.fpu fpv4-sp-d16
 335              		.type	osalSysUnlockFromISR, %function
 336              	osalSysUnlockFromISR:
 337              		@ args = 0, pretend = 0, frame = 0
 338              		@ frame_needed = 1, uses_anonymous_args = 0
 339 0000 80B5     		push	{r7, lr}
 340 0002 00AF     		add	r7, sp, #0
 341 0004 FFF7FEFF 		bl	chSysUnlockFromISR
 342 0008 00BF     		nop
ARM GAS  /var/folders/d2/nstgp4h54kz7g1l847x_b8wc0000gn/T//ccNzmymf.s 			page 7


 343 000a 80BD     		pop	{r7, pc}
 344              		.size	osalSysUnlockFromISR, .-osalSysUnlockFromISR
 345              		.section	.text.osalOsGetSystemTimeX,"ax",%progbits
 346              		.align	1
 347              		.syntax unified
 348              		.thumb
 349              		.thumb_func
 350              		.fpu fpv4-sp-d16
 351              		.type	osalOsGetSystemTimeX, %function
 352              	osalOsGetSystemTimeX:
 353              		@ args = 0, pretend = 0, frame = 0
 354              		@ frame_needed = 1, uses_anonymous_args = 0
 355 0000 80B5     		push	{r7, lr}
 356 0002 00AF     		add	r7, sp, #0
 357 0004 FFF7FEFF 		bl	chVTGetSystemTimeX
 358 0008 0346     		mov	r3, r0
 359 000a 1846     		mov	r0, r3
 360 000c 80BD     		pop	{r7, pc}
 361              		.size	osalOsGetSystemTimeX, .-osalOsGetSystemTimeX
 362              		.section	.text.osalOsIsTimeWithinX,"ax",%progbits
 363              		.align	1
 364              		.syntax unified
 365              		.thumb
 366              		.thumb_func
 367              		.fpu fpv4-sp-d16
 368              		.type	osalOsIsTimeWithinX, %function
 369              	osalOsIsTimeWithinX:
 370              		@ args = 0, pretend = 0, frame = 16
 371              		@ frame_needed = 1, uses_anonymous_args = 0
 372 0000 80B5     		push	{r7, lr}
 373 0002 84B0     		sub	sp, sp, #16
 374 0004 00AF     		add	r7, sp, #0
 375 0006 F860     		str	r0, [r7, #12]
 376 0008 B960     		str	r1, [r7, #8]
 377 000a 7A60     		str	r2, [r7, #4]
 378 000c 7A68     		ldr	r2, [r7, #4]
 379 000e B968     		ldr	r1, [r7, #8]
 380 0010 F868     		ldr	r0, [r7, #12]
 381 0012 FFF7FEFF 		bl	chVTIsTimeWithinX
 382 0016 0346     		mov	r3, r0
 383 0018 1846     		mov	r0, r3
 384 001a 1037     		adds	r7, r7, #16
 385 001c BD46     		mov	sp, r7
 386              		@ sp needed
 387 001e 80BD     		pop	{r7, pc}
 388              		.size	osalOsIsTimeWithinX, .-osalOsIsTimeWithinX
 389              		.section	.text.osalThreadSuspendTimeoutS,"ax",%progbits
 390              		.align	1
 391              		.syntax unified
 392              		.thumb
 393              		.thumb_func
 394              		.fpu fpv4-sp-d16
 395              		.type	osalThreadSuspendTimeoutS, %function
 396              	osalThreadSuspendTimeoutS:
 397              		@ args = 0, pretend = 0, frame = 8
 398              		@ frame_needed = 1, uses_anonymous_args = 0
 399 0000 80B5     		push	{r7, lr}
ARM GAS  /var/folders/d2/nstgp4h54kz7g1l847x_b8wc0000gn/T//ccNzmymf.s 			page 8


 400 0002 82B0     		sub	sp, sp, #8
 401 0004 00AF     		add	r7, sp, #0
 402 0006 7860     		str	r0, [r7, #4]
 403 0008 3960     		str	r1, [r7]
 404 000a 3968     		ldr	r1, [r7]
 405 000c 7868     		ldr	r0, [r7, #4]
 406 000e FFF7FEFF 		bl	chThdSuspendTimeoutS
 407 0012 0346     		mov	r3, r0
 408 0014 1846     		mov	r0, r3
 409 0016 0837     		adds	r7, r7, #8
 410 0018 BD46     		mov	sp, r7
 411              		@ sp needed
 412 001a 80BD     		pop	{r7, pc}
 413              		.size	osalThreadSuspendTimeoutS, .-osalThreadSuspendTimeoutS
 414              		.section	.text.osalThreadResumeI,"ax",%progbits
 415              		.align	1
 416              		.syntax unified
 417              		.thumb
 418              		.thumb_func
 419              		.fpu fpv4-sp-d16
 420              		.type	osalThreadResumeI, %function
 421              	osalThreadResumeI:
 422              		@ args = 0, pretend = 0, frame = 8
 423              		@ frame_needed = 1, uses_anonymous_args = 0
 424 0000 80B5     		push	{r7, lr}
 425 0002 82B0     		sub	sp, sp, #8
 426 0004 00AF     		add	r7, sp, #0
 427 0006 7860     		str	r0, [r7, #4]
 428 0008 3960     		str	r1, [r7]
 429 000a 3968     		ldr	r1, [r7]
 430 000c 7868     		ldr	r0, [r7, #4]
 431 000e FFF7FEFF 		bl	chThdResumeI
 432 0012 00BF     		nop
 433 0014 0837     		adds	r7, r7, #8
 434 0016 BD46     		mov	sp, r7
 435              		@ sp needed
 436 0018 80BD     		pop	{r7, pc}
 437              		.size	osalThreadResumeI, .-osalThreadResumeI
 438              		.global	I2CD1
 439              		.section	.bss.I2CD1,"aw",%nobits
 440              		.align	2
 441              		.type	I2CD1, %object
 442              		.size	I2CD1, 60
 443              	I2CD1:
 444 0000 00000000 		.space	60
 444      00000000 
 444      00000000 
 444      00000000 
 444      00000000 
 445              		.section	.text.i2c_lld_abort_operation,"ax",%progbits
 446              		.align	1
 447              		.syntax unified
 448              		.thumb
 449              		.thumb_func
 450              		.fpu fpv4-sp-d16
 451              		.type	i2c_lld_abort_operation, %function
 452              	i2c_lld_abort_operation:
ARM GAS  /var/folders/d2/nstgp4h54kz7g1l847x_b8wc0000gn/T//ccNzmymf.s 			page 9


 453              		@ args = 0, pretend = 0, frame = 16
 454              		@ frame_needed = 1, uses_anonymous_args = 0
 455              		@ link register save eliminated.
 456 0000 80B4     		push	{r7}
 457 0002 85B0     		sub	sp, sp, #20
 458 0004 00AF     		add	r7, sp, #0
 459 0006 7860     		str	r0, [r7, #4]
 460 0008 7B68     		ldr	r3, [r7, #4]
 461 000a 9B6B     		ldr	r3, [r3, #56]
 462 000c FB60     		str	r3, [r7, #12]
 463 000e FB68     		ldr	r3, [r7, #12]
 464 0010 4FF40042 		mov	r2, #32768
 465 0014 1A60     		str	r2, [r3]
 466 0016 FB68     		ldr	r3, [r7, #12]
 467 0018 0022     		movs	r2, #0
 468 001a 1A60     		str	r2, [r3]
 469 001c FB68     		ldr	r3, [r7, #12]
 470 001e 0022     		movs	r2, #0
 471 0020 5A60     		str	r2, [r3, #4]
 472 0022 FB68     		ldr	r3, [r7, #12]
 473 0024 0022     		movs	r2, #0
 474 0026 5A61     		str	r2, [r3, #20]
 475 0028 7B68     		ldr	r3, [r7, #4]
 476 002a 5B6B     		ldr	r3, [r3, #52]
 477 002c 1B68     		ldr	r3, [r3]
 478 002e 1A68     		ldr	r2, [r3]
 479 0030 7B68     		ldr	r3, [r7, #4]
 480 0032 5B6B     		ldr	r3, [r3, #52]
 481 0034 1B68     		ldr	r3, [r3]
 482 0036 22F01F02 		bic	r2, r2, #31
 483 003a 1A60     		str	r2, [r3]
 484 003c 00BF     		nop
 485              	.L31:
 486 003e 7B68     		ldr	r3, [r7, #4]
 487 0040 5B6B     		ldr	r3, [r3, #52]
 488 0042 1B68     		ldr	r3, [r3]
 489 0044 1B68     		ldr	r3, [r3]
 490 0046 03F00103 		and	r3, r3, #1
 491 004a 002B     		cmp	r3, #0
 492 004c F7D1     		bne	.L31
 493 004e 7B68     		ldr	r3, [r7, #4]
 494 0050 5B6B     		ldr	r3, [r3, #52]
 495 0052 1B7A     		ldrb	r3, [r3, #8]	@ zero_extendqisi2
 496 0054 1A46     		mov	r2, r3
 497 0056 3D23     		movs	r3, #61
 498 0058 03FA02F2 		lsl	r2, r3, r2
 499 005c 7B68     		ldr	r3, [r7, #4]
 500 005e 5B6B     		ldr	r3, [r3, #52]
 501 0060 5B68     		ldr	r3, [r3, #4]
 502 0062 1A60     		str	r2, [r3]
 503 0064 7B68     		ldr	r3, [r7, #4]
 504 0066 1B6B     		ldr	r3, [r3, #48]
 505 0068 1B68     		ldr	r3, [r3]
 506 006a 1A68     		ldr	r2, [r3]
 507 006c 7B68     		ldr	r3, [r7, #4]
 508 006e 1B6B     		ldr	r3, [r3, #48]
 509 0070 1B68     		ldr	r3, [r3]
ARM GAS  /var/folders/d2/nstgp4h54kz7g1l847x_b8wc0000gn/T//ccNzmymf.s 			page 10


 510 0072 22F01F02 		bic	r2, r2, #31
 511 0076 1A60     		str	r2, [r3]
 512 0078 00BF     		nop
 513              	.L32:
 514 007a 7B68     		ldr	r3, [r7, #4]
 515 007c 1B6B     		ldr	r3, [r3, #48]
 516 007e 1B68     		ldr	r3, [r3]
 517 0080 1B68     		ldr	r3, [r3]
 518 0082 03F00103 		and	r3, r3, #1
 519 0086 002B     		cmp	r3, #0
 520 0088 F7D1     		bne	.L32
 521 008a 7B68     		ldr	r3, [r7, #4]
 522 008c 1B6B     		ldr	r3, [r3, #48]
 523 008e 1B7A     		ldrb	r3, [r3, #8]	@ zero_extendqisi2
 524 0090 1A46     		mov	r2, r3
 525 0092 3D23     		movs	r3, #61
 526 0094 03FA02F2 		lsl	r2, r3, r2
 527 0098 7B68     		ldr	r3, [r7, #4]
 528 009a 1B6B     		ldr	r3, [r3, #48]
 529 009c 5B68     		ldr	r3, [r3, #4]
 530 009e 1A60     		str	r2, [r3]
 531 00a0 00BF     		nop
 532 00a2 1437     		adds	r7, r7, #20
 533 00a4 BD46     		mov	sp, r7
 534              		@ sp needed
 535 00a6 5DF8047B 		ldr	r7, [sp], #4
 536 00aa 7047     		bx	lr
 537              		.size	i2c_lld_abort_operation, .-i2c_lld_abort_operation
 538              		.section	.text.i2c_lld_set_clock,"ax",%progbits
 539              		.align	1
 540              		.syntax unified
 541              		.thumb
 542              		.thumb_func
 543              		.fpu fpv4-sp-d16
 544              		.type	i2c_lld_set_clock, %function
 545              	i2c_lld_set_clock:
 546              		@ args = 0, pretend = 0, frame = 24
 547              		@ frame_needed = 1, uses_anonymous_args = 0
 548 0000 80B5     		push	{r7, lr}
 549 0002 86B0     		sub	sp, sp, #24
 550 0004 00AF     		add	r7, sp, #0
 551 0006 7860     		str	r0, [r7, #4]
 552 0008 7B68     		ldr	r3, [r7, #4]
 553 000a 9B6B     		ldr	r3, [r3, #56]
 554 000c 3B61     		str	r3, [r7, #16]
 555 000e 7B68     		ldr	r3, [r7, #4]
 556 0010 5B68     		ldr	r3, [r3, #4]
 557 0012 5B68     		ldr	r3, [r3, #4]
 558 0014 FB60     		str	r3, [r7, #12]
 559 0016 7B68     		ldr	r3, [r7, #4]
 560 0018 5B68     		ldr	r3, [r3, #4]
 561 001a 1B7A     		ldrb	r3, [r3, #8]
 562 001c FB72     		strb	r3, [r7, #11]
 563 001e 7B68     		ldr	r3, [r7, #4]
 564 0020 002B     		cmp	r3, #0
 565 0022 06D0     		beq	.L34
 566 0024 FB68     		ldr	r3, [r7, #12]
ARM GAS  /var/folders/d2/nstgp4h54kz7g1l847x_b8wc0000gn/T//ccNzmymf.s 			page 11


 567 0026 002B     		cmp	r3, #0
 568 0028 03DD     		ble	.L34
 569 002a FB68     		ldr	r3, [r7, #12]
 570 002c 5C4A     		ldr	r2, .L51
 571 002e 9342     		cmp	r3, r2
 572 0030 02DD     		ble	.L35
 573              	.L34:
 574 0032 5C48     		ldr	r0, .L51+4
 575 0034 FFF7FEFF 		bl	chSysHalt
 576              	.L35:
 577 0038 3B69     		ldr	r3, [r7, #16]
 578 003a 5A68     		ldr	r2, [r3, #4]
 579 003c 4FF6C073 		movw	r3, #65472
 580 0040 1340     		ands	r3, r3, r2
 581 0042 3A69     		ldr	r2, [r7, #16]
 582 0044 5360     		str	r3, [r2, #4]
 583 0046 3B69     		ldr	r3, [r7, #16]
 584 0048 5B68     		ldr	r3, [r3, #4]
 585 004a 43F02A02 		orr	r2, r3, #42
 586 004e 3B69     		ldr	r3, [r7, #16]
 587 0050 5A60     		str	r2, [r3, #4]
 588 0052 0023     		movs	r3, #0
 589 0054 FB82     		strh	r3, [r7, #22]	@ movhi
 590 0056 40F6FF73 		movw	r3, #4095
 591 005a BB82     		strh	r3, [r7, #20]	@ movhi
 592 005c FB68     		ldr	r3, [r7, #12]
 593 005e 524A     		ldr	r2, .L51+8
 594 0060 9342     		cmp	r3, r2
 595 0062 2BDC     		bgt	.L36
 596 0064 FB7A     		ldrb	r3, [r7, #11]	@ zero_extendqisi2
 597 0066 012B     		cmp	r3, #1
 598 0068 02D0     		beq	.L48
 599 006a 4E48     		ldr	r0, .L51+4
 600 006c FFF7FEFF 		bl	chSysHalt
 601              	.L48:
 602 0070 FB68     		ldr	r3, [r7, #12]
 603 0072 5B00     		lsls	r3, r3, #1
 604 0074 1A46     		mov	r2, r3
 605 0076 4D4B     		ldr	r3, .L51+12
 606 0078 B3FBF2F1 		udiv	r1, r3, r2
 607 007c 02FB01F2 		mul	r2, r2, r1
 608 0080 9B1A     		subs	r3, r3, r2
 609 0082 002B     		cmp	r3, #0
 610 0084 02D0     		beq	.L38
 611 0086 4748     		ldr	r0, .L51+4
 612 0088 FFF7FEFF 		bl	chSysHalt
 613              	.L38:
 614 008c FB68     		ldr	r3, [r7, #12]
 615 008e 5B00     		lsls	r3, r3, #1
 616 0090 1A46     		mov	r2, r3
 617 0092 464B     		ldr	r3, .L51+12
 618 0094 B3FBF2F3 		udiv	r3, r3, r2
 619 0098 BB82     		strh	r3, [r7, #20]	@ movhi
 620 009a BB8A     		ldrh	r3, [r7, #20]
 621 009c 032B     		cmp	r3, #3
 622 009e 02D8     		bhi	.L39
 623 00a0 4048     		ldr	r0, .L51+4
ARM GAS  /var/folders/d2/nstgp4h54kz7g1l847x_b8wc0000gn/T//ccNzmymf.s 			page 12


 624 00a2 FFF7FEFF 		bl	chSysHalt
 625              	.L39:
 626 00a6 BB8A     		ldrh	r3, [r7, #20]	@ movhi
 627 00a8 C3F30B03 		ubfx	r3, r3, #0, #12
 628 00ac 9AB2     		uxth	r2, r3
 629 00ae FB8A     		ldrh	r3, [r7, #22]	@ movhi
 630 00b0 1343     		orrs	r3, r3, r2
 631 00b2 FB82     		strh	r3, [r7, #22]	@ movhi
 632 00b4 3B69     		ldr	r3, [r7, #16]
 633 00b6 2B22     		movs	r2, #43
 634 00b8 1A62     		str	r2, [r3, #32]
 635 00ba 62E0     		b	.L49
 636              	.L36:
 637 00bc FB68     		ldr	r3, [r7, #12]
 638 00be 3C4A     		ldr	r2, .L51+16
 639 00c0 9342     		cmp	r3, r2
 640 00c2 5EDC     		bgt	.L49
 641 00c4 FB7A     		ldrb	r3, [r7, #11]	@ zero_extendqisi2
 642 00c6 022B     		cmp	r3, #2
 643 00c8 05D0     		beq	.L41
 644 00ca FB7A     		ldrb	r3, [r7, #11]	@ zero_extendqisi2
 645 00cc 032B     		cmp	r3, #3
 646 00ce 02D0     		beq	.L41
 647 00d0 3448     		ldr	r0, .L51+4
 648 00d2 FFF7FEFF 		bl	chSysHalt
 649              	.L41:
 650 00d6 FB7A     		ldrb	r3, [r7, #11]	@ zero_extendqisi2
 651 00d8 022B     		cmp	r3, #2
 652 00da 19D1     		bne	.L42
 653 00dc FA68     		ldr	r2, [r7, #12]
 654 00de 1346     		mov	r3, r2
 655 00e0 5B00     		lsls	r3, r3, #1
 656 00e2 1344     		add	r3, r3, r2
 657 00e4 1A46     		mov	r2, r3
 658 00e6 314B     		ldr	r3, .L51+12
 659 00e8 B3FBF2F1 		udiv	r1, r3, r2
 660 00ec 02FB01F2 		mul	r2, r2, r1
 661 00f0 9B1A     		subs	r3, r3, r2
 662 00f2 002B     		cmp	r3, #0
 663 00f4 02D0     		beq	.L43
 664 00f6 2B48     		ldr	r0, .L51+4
 665 00f8 FFF7FEFF 		bl	chSysHalt
 666              	.L43:
 667 00fc FA68     		ldr	r2, [r7, #12]
 668 00fe 1346     		mov	r3, r2
 669 0100 5B00     		lsls	r3, r3, #1
 670 0102 1344     		add	r3, r3, r2
 671 0104 1A46     		mov	r2, r3
 672 0106 294B     		ldr	r3, .L51+12
 673 0108 B3FBF2F3 		udiv	r3, r3, r2
 674 010c BB82     		strh	r3, [r7, #20]	@ movhi
 675 010e 23E0     		b	.L50
 676              	.L42:
 677 0110 FB7A     		ldrb	r3, [r7, #11]	@ zero_extendqisi2
 678 0112 032B     		cmp	r3, #3
 679 0114 20D1     		bne	.L50
 680 0116 FA68     		ldr	r2, [r7, #12]
ARM GAS  /var/folders/d2/nstgp4h54kz7g1l847x_b8wc0000gn/T//ccNzmymf.s 			page 13


 681 0118 1346     		mov	r3, r2
 682 011a 9B00     		lsls	r3, r3, #2
 683 011c 1344     		add	r3, r3, r2
 684 011e 9A00     		lsls	r2, r3, #2
 685 0120 1344     		add	r3, r3, r2
 686 0122 1A46     		mov	r2, r3
 687 0124 214B     		ldr	r3, .L51+12
 688 0126 B3FBF2F1 		udiv	r1, r3, r2
 689 012a 02FB01F2 		mul	r2, r2, r1
 690 012e 9B1A     		subs	r3, r3, r2
 691 0130 002B     		cmp	r3, #0
 692 0132 02D0     		beq	.L45
 693 0134 1B48     		ldr	r0, .L51+4
 694 0136 FFF7FEFF 		bl	chSysHalt
 695              	.L45:
 696 013a FA68     		ldr	r2, [r7, #12]
 697 013c 1346     		mov	r3, r2
 698 013e 9B00     		lsls	r3, r3, #2
 699 0140 1344     		add	r3, r3, r2
 700 0142 9A00     		lsls	r2, r3, #2
 701 0144 1344     		add	r3, r3, r2
 702 0146 1A46     		mov	r2, r3
 703 0148 184B     		ldr	r3, .L51+12
 704 014a B3FBF2F3 		udiv	r3, r3, r2
 705 014e BB82     		strh	r3, [r7, #20]	@ movhi
 706 0150 FB8A     		ldrh	r3, [r7, #22]	@ movhi
 707 0152 43F48043 		orr	r3, r3, #16384
 708 0156 FB82     		strh	r3, [r7, #22]	@ movhi
 709              	.L50:
 710 0158 BB8A     		ldrh	r3, [r7, #20]
 711 015a 002B     		cmp	r3, #0
 712 015c 02D1     		bne	.L46
 713 015e 1148     		ldr	r0, .L51+4
 714 0160 FFF7FEFF 		bl	chSysHalt
 715              	.L46:
 716 0164 BB8A     		ldrh	r3, [r7, #20]	@ movhi
 717 0166 C3F30B03 		ubfx	r3, r3, #0, #12
 718 016a 9AB2     		uxth	r2, r3
 719 016c FB8A     		ldrh	r3, [r7, #22]	@ movhi
 720 016e 1343     		orrs	r3, r3, r2
 721 0170 9BB2     		uxth	r3, r3
 722 0172 6FEA4343 		mvn	r3, r3, lsl #17
 723 0176 6FEA5343 		mvn	r3, r3, lsr #17
 724 017a FB82     		strh	r3, [r7, #22]	@ movhi
 725 017c 3B69     		ldr	r3, [r7, #16]
 726 017e 0D22     		movs	r2, #13
 727 0180 1A62     		str	r2, [r3, #32]
 728              	.L49:
 729 0182 BB8A     		ldrh	r3, [r7, #20]
 730 0184 B3F5805F 		cmp	r3, #4096
 731 0188 02D3     		bcc	.L47
 732 018a 0648     		ldr	r0, .L51+4
 733 018c FFF7FEFF 		bl	chSysHalt
 734              	.L47:
 735 0190 FA8A     		ldrh	r2, [r7, #22]
 736 0192 3B69     		ldr	r3, [r7, #16]
 737 0194 DA61     		str	r2, [r3, #28]
ARM GAS  /var/folders/d2/nstgp4h54kz7g1l847x_b8wc0000gn/T//ccNzmymf.s 			page 14


 738 0196 00BF     		nop
 739 0198 1837     		adds	r7, r7, #24
 740 019a BD46     		mov	sp, r7
 741              		@ sp needed
 742 019c 80BD     		pop	{r7, pc}
 743              	.L52:
 744 019e 00BF     		.align	2
 745              	.L51:
 746 01a0 00093D00 		.word	4000000
 747 01a4 00000000 		.word	__func__.9857
 748 01a8 A0860100 		.word	100000
 749 01ac 80DE8002 		.word	42000000
 750 01b0 801A0600 		.word	400000
 751              		.size	i2c_lld_set_clock, .-i2c_lld_set_clock
 752              		.section	.text.i2c_lld_set_opmode,"ax",%progbits
 753              		.align	1
 754              		.syntax unified
 755              		.thumb
 756              		.thumb_func
 757              		.fpu fpv4-sp-d16
 758              		.type	i2c_lld_set_opmode, %function
 759              	i2c_lld_set_opmode:
 760              		@ args = 0, pretend = 0, frame = 24
 761              		@ frame_needed = 1, uses_anonymous_args = 0
 762              		@ link register save eliminated.
 763 0000 80B4     		push	{r7}
 764 0002 87B0     		sub	sp, sp, #28
 765 0004 00AF     		add	r7, sp, #0
 766 0006 7860     		str	r0, [r7, #4]
 767 0008 7B68     		ldr	r3, [r7, #4]
 768 000a 9B6B     		ldr	r3, [r3, #56]
 769 000c 3B61     		str	r3, [r7, #16]
 770 000e 7B68     		ldr	r3, [r7, #4]
 771 0010 5B68     		ldr	r3, [r3, #4]
 772 0012 1B78     		ldrb	r3, [r3]
 773 0014 FB73     		strb	r3, [r7, #15]
 774 0016 3B69     		ldr	r3, [r7, #16]
 775 0018 1B68     		ldr	r3, [r3]
 776 001a FB82     		strh	r3, [r7, #22]	@ movhi
 777 001c FB7B     		ldrb	r3, [r7, #15]	@ zero_extendqisi2
 778 001e 022B     		cmp	r3, #2
 779 0020 08D0     		beq	.L55
 780 0022 032B     		cmp	r3, #3
 781 0024 0FD0     		beq	.L56
 782 0026 012B     		cmp	r3, #1
 783 0028 12D1     		bne	.L54
 784 002a FB8A     		ldrh	r3, [r7, #22]	@ movhi
 785 002c 23F00A03 		bic	r3, r3, #10
 786 0030 FB82     		strh	r3, [r7, #22]	@ movhi
 787 0032 0DE0     		b	.L54
 788              	.L55:
 789 0034 FB8A     		ldrh	r3, [r7, #22]	@ movhi
 790 0036 43F00203 		orr	r3, r3, #2
 791 003a FB82     		strh	r3, [r7, #22]	@ movhi
 792 003c FB8A     		ldrh	r3, [r7, #22]	@ movhi
 793 003e 23F00803 		bic	r3, r3, #8
 794 0042 FB82     		strh	r3, [r7, #22]	@ movhi
ARM GAS  /var/folders/d2/nstgp4h54kz7g1l847x_b8wc0000gn/T//ccNzmymf.s 			page 15


 795 0044 04E0     		b	.L54
 796              	.L56:
 797 0046 FB8A     		ldrh	r3, [r7, #22]	@ movhi
 798 0048 43F00A03 		orr	r3, r3, #10
 799 004c FB82     		strh	r3, [r7, #22]	@ movhi
 800 004e 00BF     		nop
 801              	.L54:
 802 0050 FA8A     		ldrh	r2, [r7, #22]
 803 0052 3B69     		ldr	r3, [r7, #16]
 804 0054 1A60     		str	r2, [r3]
 805 0056 00BF     		nop
 806 0058 1C37     		adds	r7, r7, #28
 807 005a BD46     		mov	sp, r7
 808              		@ sp needed
 809 005c 5DF8047B 		ldr	r7, [sp], #4
 810 0060 7047     		bx	lr
 811              		.size	i2c_lld_set_opmode, .-i2c_lld_set_opmode
 812              		.section	.text.i2c_lld_serve_event_interrupt,"ax",%progbits
 813              		.align	1
 814              		.syntax unified
 815              		.thumb
 816              		.thumb_func
 817              		.fpu fpv4-sp-d16
 818              		.type	i2c_lld_serve_event_interrupt, %function
 819              	i2c_lld_serve_event_interrupt:
 820              		@ args = 0, pretend = 0, frame = 24
 821              		@ frame_needed = 1, uses_anonymous_args = 0
 822 0000 80B5     		push	{r7, lr}
 823 0002 86B0     		sub	sp, sp, #24
 824 0004 00AF     		add	r7, sp, #0
 825 0006 7860     		str	r0, [r7, #4]
 826 0008 7B68     		ldr	r3, [r7, #4]
 827 000a 9B6B     		ldr	r3, [r3, #56]
 828 000c 7B61     		str	r3, [r7, #20]
 829 000e 7B69     		ldr	r3, [r7, #20]
 830 0010 9B69     		ldr	r3, [r3, #24]
 831 0012 3B61     		str	r3, [r7, #16]
 832 0014 7B69     		ldr	r3, [r7, #20]
 833 0016 5B69     		ldr	r3, [r3, #20]
 834 0018 FB60     		str	r3, [r7, #12]
 835 001a 3B69     		ldr	r3, [r7, #16]
 836 001c 1A04     		lsls	r2, r3, #16
 837 001e FB68     		ldr	r3, [r7, #12]
 838 0020 1343     		orrs	r3, r3, r2
 839 0022 23F07F43 		bic	r3, r3, #-16777216
 840 0026 534A     		ldr	r2, .L73
 841 0028 9342     		cmp	r3, r2
 842 002a 31D0     		beq	.L60
 843 002c 514A     		ldr	r2, .L73
 844 002e 9342     		cmp	r3, r2
 845 0030 06D8     		bhi	.L61
 846 0032 514A     		ldr	r2, .L73+4
 847 0034 9342     		cmp	r3, r2
 848 0036 0AD0     		beq	.L62
 849 0038 504A     		ldr	r2, .L73+8
 850 003a 9342     		cmp	r3, r2
 851 003c 30D0     		beq	.L63
ARM GAS  /var/folders/d2/nstgp4h54kz7g1l847x_b8wc0000gn/T//ccNzmymf.s 			page 16


 852 003e 8FE0     		b	.L68
 853              	.L61:
 854 0040 4F4A     		ldr	r2, .L73+12
 855 0042 9342     		cmp	r3, r2
 856 0044 4FD0     		beq	.L64
 857 0046 4F4A     		ldr	r2, .L73+16
 858 0048 9342     		cmp	r3, r2
 859 004a 5DD0     		beq	.L65
 860 004c 88E0     		b	.L68
 861              	.L62:
 862 004e 7B68     		ldr	r3, [r7, #4]
 863 0050 9B8C     		ldrh	r3, [r3, #36]
 864 0052 1B0A     		lsrs	r3, r3, #8
 865 0054 9BB2     		uxth	r3, r3
 866 0056 002B     		cmp	r3, #0
 867 0058 14D0     		beq	.L66
 868 005a 7B68     		ldr	r3, [r7, #4]
 869 005c 9B8C     		ldrh	r3, [r3, #36]
 870 005e 1B0A     		lsrs	r3, r3, #8
 871 0060 9BB2     		uxth	r3, r3
 872 0062 03F00603 		and	r3, r3, #6
 873 0066 9AB2     		uxth	r2, r3
 874 0068 7B68     		ldr	r3, [r7, #4]
 875 006a 9B8C     		ldrh	r3, [r3, #36]
 876 006c 03F00103 		and	r3, r3, #1
 877 0070 9BB2     		uxth	r3, r3
 878 0072 1343     		orrs	r3, r3, r2
 879 0074 9BB2     		uxth	r3, r3
 880 0076 43F0F003 		orr	r3, r3, #240
 881 007a 9BB2     		uxth	r3, r3
 882 007c 1A46     		mov	r2, r3
 883 007e 7B69     		ldr	r3, [r7, #20]
 884 0080 1A61     		str	r2, [r3, #16]
 885 0082 6DE0     		b	.L68
 886              	.L66:
 887 0084 7B68     		ldr	r3, [r7, #4]
 888 0086 9B8C     		ldrh	r3, [r3, #36]
 889 0088 1A46     		mov	r2, r3
 890 008a 7B69     		ldr	r3, [r7, #20]
 891 008c 1A61     		str	r2, [r3, #16]
 892 008e 67E0     		b	.L68
 893              	.L60:
 894 0090 7B68     		ldr	r3, [r7, #4]
 895 0092 9B8C     		ldrh	r3, [r3, #36]
 896 0094 5B08     		lsrs	r3, r3, #1
 897 0096 9BB2     		uxth	r3, r3
 898 0098 DAB2     		uxtb	r2, r3
 899 009a 7B69     		ldr	r3, [r7, #20]
 900 009c 1A61     		str	r2, [r3, #16]
 901 009e 5FE0     		b	.L68
 902              	.L63:
 903 00a0 7B69     		ldr	r3, [r7, #20]
 904 00a2 5B68     		ldr	r3, [r3, #4]
 905 00a4 23F40072 		bic	r2, r3, #512
 906 00a8 7B69     		ldr	r3, [r7, #20]
 907 00aa 5A60     		str	r2, [r3, #4]
 908 00ac 7B68     		ldr	r3, [r7, #4]
ARM GAS  /var/folders/d2/nstgp4h54kz7g1l847x_b8wc0000gn/T//ccNzmymf.s 			page 17


 909 00ae 1B6B     		ldr	r3, [r3, #48]
 910 00b0 1B68     		ldr	r3, [r3]
 911 00b2 1A68     		ldr	r2, [r3]
 912 00b4 7B68     		ldr	r3, [r7, #4]
 913 00b6 1B6B     		ldr	r3, [r3, #48]
 914 00b8 1B68     		ldr	r3, [r3]
 915 00ba 42F00102 		orr	r2, r2, #1
 916 00be 1A60     		str	r2, [r3]
 917 00c0 7B69     		ldr	r3, [r7, #20]
 918 00c2 5B68     		ldr	r3, [r3, #4]
 919 00c4 43F48052 		orr	r2, r3, #4096
 920 00c8 7B69     		ldr	r3, [r7, #20]
 921 00ca 5A60     		str	r2, [r3, #4]
 922 00cc 7B68     		ldr	r3, [r7, #4]
 923 00ce 1B6B     		ldr	r3, [r3, #48]
 924 00d0 1B68     		ldr	r3, [r3]
 925 00d2 5B68     		ldr	r3, [r3, #4]
 926 00d4 012B     		cmp	r3, #1
 927 00d6 42D8     		bhi	.L72
 928 00d8 7B69     		ldr	r3, [r7, #20]
 929 00da 1B68     		ldr	r3, [r3]
 930 00dc 23F48062 		bic	r2, r3, #1024
 931 00e0 7B69     		ldr	r3, [r7, #20]
 932 00e2 1A60     		str	r2, [r3]
 933 00e4 3BE0     		b	.L72
 934              	.L64:
 935 00e6 7B69     		ldr	r3, [r7, #20]
 936 00e8 5B68     		ldr	r3, [r3, #4]
 937 00ea 23F40072 		bic	r2, r3, #512
 938 00ee 7B69     		ldr	r3, [r7, #20]
 939 00f0 5A60     		str	r2, [r3, #4]
 940 00f2 7B68     		ldr	r3, [r7, #4]
 941 00f4 5B6B     		ldr	r3, [r3, #52]
 942 00f6 1B68     		ldr	r3, [r3]
 943 00f8 1A68     		ldr	r2, [r3]
 944 00fa 7B68     		ldr	r3, [r7, #4]
 945 00fc 5B6B     		ldr	r3, [r3, #52]
 946 00fe 1B68     		ldr	r3, [r3]
 947 0100 42F00102 		orr	r2, r2, #1
 948 0104 1A60     		str	r2, [r3]
 949 0106 2BE0     		b	.L68
 950              	.L65:
 951 0108 7B68     		ldr	r3, [r7, #4]
 952 010a 1B6B     		ldr	r3, [r3, #48]
 953 010c 1B68     		ldr	r3, [r3]
 954 010e 5B68     		ldr	r3, [r3, #4]
 955 0110 002B     		cmp	r3, #0
 956 0112 0DD0     		beq	.L70
 957 0114 7B68     		ldr	r3, [r7, #4]
 958 0116 9B8C     		ldrh	r3, [r3, #36]
 959 0118 43F00103 		orr	r3, r3, #1
 960 011c 9AB2     		uxth	r2, r3
 961 011e 7B68     		ldr	r3, [r7, #4]
 962 0120 9A84     		strh	r2, [r3, #36]	@ movhi
 963 0122 7B69     		ldr	r3, [r7, #20]
 964 0124 1B68     		ldr	r3, [r3]
 965 0126 43F4A062 		orr	r2, r3, #1280
ARM GAS  /var/folders/d2/nstgp4h54kz7g1l847x_b8wc0000gn/T//ccNzmymf.s 			page 18


 966 012a 7B69     		ldr	r3, [r7, #20]
 967 012c 1A60     		str	r2, [r3]
 968 012e 1EE0     		b	.L58
 969              	.L70:
 970 0130 7B69     		ldr	r3, [r7, #20]
 971 0132 5B68     		ldr	r3, [r3, #4]
 972 0134 23F40072 		bic	r2, r3, #512
 973 0138 7B69     		ldr	r3, [r7, #20]
 974 013a 5A60     		str	r2, [r3, #4]
 975 013c 7B69     		ldr	r3, [r7, #20]
 976 013e 1B68     		ldr	r3, [r3]
 977 0140 43F40072 		orr	r2, r3, #512
 978 0144 7B69     		ldr	r3, [r7, #20]
 979 0146 1A60     		str	r2, [r3]
 980 0148 FFF7FEFF 		bl	osalSysLockFromISR
 981 014c 7B68     		ldr	r3, [r7, #4]
 982 014e 2033     		adds	r3, r3, #32
 983 0150 0021     		movs	r1, #0
 984 0152 1846     		mov	r0, r3
 985 0154 FFF7FEFF 		bl	osalThreadResumeI
 986 0158 FFF7FEFF 		bl	osalSysUnlockFromISR
 987 015c 00E0     		b	.L68
 988              	.L72:
 989 015e 00BF     		nop
 990              	.L68:
 991 0160 FB68     		ldr	r3, [r7, #12]
 992 0162 03F00A03 		and	r3, r3, #10
 993 0166 002B     		cmp	r3, #0
 994 0168 01D0     		beq	.L58
 995 016a 7B69     		ldr	r3, [r7, #20]
 996 016c 9B69     		ldr	r3, [r3, #24]
 997              	.L58:
 998 016e 1837     		adds	r7, r7, #24
 999 0170 BD46     		mov	sp, r7
 1000              		@ sp needed
 1001 0172 80BD     		pop	{r7, pc}
 1002              	.L74:
 1003              		.align	2
 1004              	.L73:
 1005 0174 08000300 		.word	196616
 1006 0178 01000300 		.word	196609
 1007 017c 02000300 		.word	196610
 1008 0180 82000700 		.word	458882
 1009 0184 84000700 		.word	458884
 1010              		.size	i2c_lld_serve_event_interrupt, .-i2c_lld_serve_event_interrupt
 1011              		.section	.rodata
 1012              		.align	2
 1013              	.LC0:
 1014 0000 444D4120 		.ascii	"DMA failure\000"
 1014      6661696C 
 1014      75726500 
 1015              		.section	.text.i2c_lld_serve_rx_end_irq,"ax",%progbits
 1016              		.align	1
 1017              		.syntax unified
 1018              		.thumb
 1019              		.thumb_func
 1020              		.fpu fpv4-sp-d16
ARM GAS  /var/folders/d2/nstgp4h54kz7g1l847x_b8wc0000gn/T//ccNzmymf.s 			page 19


 1021              		.type	i2c_lld_serve_rx_end_irq, %function
 1022              	i2c_lld_serve_rx_end_irq:
 1023              		@ args = 0, pretend = 0, frame = 16
 1024              		@ frame_needed = 1, uses_anonymous_args = 0
 1025 0000 80B5     		push	{r7, lr}
 1026 0002 84B0     		sub	sp, sp, #16
 1027 0004 00AF     		add	r7, sp, #0
 1028 0006 7860     		str	r0, [r7, #4]
 1029 0008 3960     		str	r1, [r7]
 1030 000a 7B68     		ldr	r3, [r7, #4]
 1031 000c 9B6B     		ldr	r3, [r3, #56]
 1032 000e FB60     		str	r3, [r7, #12]
 1033 0010 3B68     		ldr	r3, [r7]
 1034 0012 03F00C03 		and	r3, r3, #12
 1035 0016 002B     		cmp	r3, #0
 1036 0018 02D0     		beq	.L76
 1037 001a 2048     		ldr	r0, .L78
 1038 001c FFF7FEFF 		bl	osalSysHalt
 1039              	.L76:
 1040 0020 7B68     		ldr	r3, [r7, #4]
 1041 0022 1B6B     		ldr	r3, [r3, #48]
 1042 0024 1B68     		ldr	r3, [r3]
 1043 0026 1A68     		ldr	r2, [r3]
 1044 0028 7B68     		ldr	r3, [r7, #4]
 1045 002a 1B6B     		ldr	r3, [r3, #48]
 1046 002c 1B68     		ldr	r3, [r3]
 1047 002e 22F01F02 		bic	r2, r2, #31
 1048 0032 1A60     		str	r2, [r3]
 1049 0034 00BF     		nop
 1050              	.L77:
 1051 0036 7B68     		ldr	r3, [r7, #4]
 1052 0038 1B6B     		ldr	r3, [r3, #48]
 1053 003a 1B68     		ldr	r3, [r3]
 1054 003c 1B68     		ldr	r3, [r3]
 1055 003e 03F00103 		and	r3, r3, #1
 1056 0042 002B     		cmp	r3, #0
 1057 0044 F7D1     		bne	.L77
 1058 0046 7B68     		ldr	r3, [r7, #4]
 1059 0048 1B6B     		ldr	r3, [r3, #48]
 1060 004a 1B7A     		ldrb	r3, [r3, #8]	@ zero_extendqisi2
 1061 004c 1A46     		mov	r2, r3
 1062 004e 3D23     		movs	r3, #61
 1063 0050 03FA02F2 		lsl	r2, r3, r2
 1064 0054 7B68     		ldr	r3, [r7, #4]
 1065 0056 1B6B     		ldr	r3, [r3, #48]
 1066 0058 5B68     		ldr	r3, [r3, #4]
 1067 005a 1A60     		str	r2, [r3]
 1068 005c FB68     		ldr	r3, [r7, #12]
 1069 005e 5B68     		ldr	r3, [r3, #4]
 1070 0060 23F48052 		bic	r2, r3, #4096
 1071 0064 FB68     		ldr	r3, [r7, #12]
 1072 0066 5A60     		str	r2, [r3, #4]
 1073 0068 FB68     		ldr	r3, [r7, #12]
 1074 006a 1B68     		ldr	r3, [r3]
 1075 006c 23F48062 		bic	r2, r3, #1024
 1076 0070 FB68     		ldr	r3, [r7, #12]
 1077 0072 1A60     		str	r2, [r3]
ARM GAS  /var/folders/d2/nstgp4h54kz7g1l847x_b8wc0000gn/T//ccNzmymf.s 			page 20


 1078 0074 FB68     		ldr	r3, [r7, #12]
 1079 0076 1B68     		ldr	r3, [r3]
 1080 0078 43F40072 		orr	r2, r3, #512
 1081 007c FB68     		ldr	r3, [r7, #12]
 1082 007e 1A60     		str	r2, [r3]
 1083 0080 FFF7FEFF 		bl	osalSysLockFromISR
 1084 0084 7B68     		ldr	r3, [r7, #4]
 1085 0086 2033     		adds	r3, r3, #32
 1086 0088 0021     		movs	r1, #0
 1087 008a 1846     		mov	r0, r3
 1088 008c FFF7FEFF 		bl	osalThreadResumeI
 1089 0090 FFF7FEFF 		bl	osalSysUnlockFromISR
 1090 0094 00BF     		nop
 1091 0096 1037     		adds	r7, r7, #16
 1092 0098 BD46     		mov	sp, r7
 1093              		@ sp needed
 1094 009a 80BD     		pop	{r7, pc}
 1095              	.L79:
 1096              		.align	2
 1097              	.L78:
 1098 009c 00000000 		.word	.LC0
 1099              		.size	i2c_lld_serve_rx_end_irq, .-i2c_lld_serve_rx_end_irq
 1100              		.section	.text.i2c_lld_serve_tx_end_irq,"ax",%progbits
 1101              		.align	1
 1102              		.syntax unified
 1103              		.thumb
 1104              		.thumb_func
 1105              		.fpu fpv4-sp-d16
 1106              		.type	i2c_lld_serve_tx_end_irq, %function
 1107              	i2c_lld_serve_tx_end_irq:
 1108              		@ args = 0, pretend = 0, frame = 16
 1109              		@ frame_needed = 1, uses_anonymous_args = 0
 1110 0000 80B5     		push	{r7, lr}
 1111 0002 84B0     		sub	sp, sp, #16
 1112 0004 00AF     		add	r7, sp, #0
 1113 0006 7860     		str	r0, [r7, #4]
 1114 0008 3960     		str	r1, [r7]
 1115 000a 7B68     		ldr	r3, [r7, #4]
 1116 000c 9B6B     		ldr	r3, [r3, #56]
 1117 000e FB60     		str	r3, [r7, #12]
 1118 0010 3B68     		ldr	r3, [r7]
 1119 0012 03F00C03 		and	r3, r3, #12
 1120 0016 002B     		cmp	r3, #0
 1121 0018 02D0     		beq	.L81
 1122 001a 1548     		ldr	r0, .L83
 1123 001c FFF7FEFF 		bl	osalSysHalt
 1124              	.L81:
 1125 0020 7B68     		ldr	r3, [r7, #4]
 1126 0022 5B6B     		ldr	r3, [r3, #52]
 1127 0024 1B68     		ldr	r3, [r3]
 1128 0026 1A68     		ldr	r2, [r3]
 1129 0028 7B68     		ldr	r3, [r7, #4]
 1130 002a 5B6B     		ldr	r3, [r3, #52]
 1131 002c 1B68     		ldr	r3, [r3]
 1132 002e 22F01F02 		bic	r2, r2, #31
 1133 0032 1A60     		str	r2, [r3]
 1134 0034 00BF     		nop
ARM GAS  /var/folders/d2/nstgp4h54kz7g1l847x_b8wc0000gn/T//ccNzmymf.s 			page 21


 1135              	.L82:
 1136 0036 7B68     		ldr	r3, [r7, #4]
 1137 0038 5B6B     		ldr	r3, [r3, #52]
 1138 003a 1B68     		ldr	r3, [r3]
 1139 003c 1B68     		ldr	r3, [r3]
 1140 003e 03F00103 		and	r3, r3, #1
 1141 0042 002B     		cmp	r3, #0
 1142 0044 F7D1     		bne	.L82
 1143 0046 7B68     		ldr	r3, [r7, #4]
 1144 0048 5B6B     		ldr	r3, [r3, #52]
 1145 004a 1B7A     		ldrb	r3, [r3, #8]	@ zero_extendqisi2
 1146 004c 1A46     		mov	r2, r3
 1147 004e 3D23     		movs	r3, #61
 1148 0050 03FA02F2 		lsl	r2, r3, r2
 1149 0054 7B68     		ldr	r3, [r7, #4]
 1150 0056 5B6B     		ldr	r3, [r3, #52]
 1151 0058 5B68     		ldr	r3, [r3, #4]
 1152 005a 1A60     		str	r2, [r3]
 1153 005c FB68     		ldr	r3, [r7, #12]
 1154 005e 5B68     		ldr	r3, [r3, #4]
 1155 0060 43F40072 		orr	r2, r3, #512
 1156 0064 FB68     		ldr	r3, [r7, #12]
 1157 0066 5A60     		str	r2, [r3, #4]
 1158 0068 00BF     		nop
 1159 006a 1037     		adds	r7, r7, #16
 1160 006c BD46     		mov	sp, r7
 1161              		@ sp needed
 1162 006e 80BD     		pop	{r7, pc}
 1163              	.L84:
 1164              		.align	2
 1165              	.L83:
 1166 0070 00000000 		.word	.LC0
 1167              		.size	i2c_lld_serve_tx_end_irq, .-i2c_lld_serve_tx_end_irq
 1168              		.section	.text.i2c_lld_serve_error_interrupt,"ax",%progbits
 1169              		.align	1
 1170              		.syntax unified
 1171              		.thumb
 1172              		.thumb_func
 1173              		.fpu fpv4-sp-d16
 1174              		.type	i2c_lld_serve_error_interrupt, %function
 1175              	i2c_lld_serve_error_interrupt:
 1176              		@ args = 0, pretend = 0, frame = 8
 1177              		@ frame_needed = 1, uses_anonymous_args = 0
 1178 0000 80B5     		push	{r7, lr}
 1179 0002 82B0     		sub	sp, sp, #8
 1180 0004 00AF     		add	r7, sp, #0
 1181 0006 7860     		str	r0, [r7, #4]
 1182 0008 0B46     		mov	r3, r1
 1183 000a 7B80     		strh	r3, [r7, #2]	@ movhi
 1184 000c 7B68     		ldr	r3, [r7, #4]
 1185 000e 5B6B     		ldr	r3, [r3, #52]
 1186 0010 1B68     		ldr	r3, [r3]
 1187 0012 1A68     		ldr	r2, [r3]
 1188 0014 7B68     		ldr	r3, [r7, #4]
 1189 0016 5B6B     		ldr	r3, [r3, #52]
 1190 0018 1B68     		ldr	r3, [r3]
 1191 001a 22F01F02 		bic	r2, r2, #31
ARM GAS  /var/folders/d2/nstgp4h54kz7g1l847x_b8wc0000gn/T//ccNzmymf.s 			page 22


 1192 001e 1A60     		str	r2, [r3]
 1193 0020 00BF     		nop
 1194              	.L86:
 1195 0022 7B68     		ldr	r3, [r7, #4]
 1196 0024 5B6B     		ldr	r3, [r3, #52]
 1197 0026 1B68     		ldr	r3, [r3]
 1198 0028 1B68     		ldr	r3, [r3]
 1199 002a 03F00103 		and	r3, r3, #1
 1200 002e 002B     		cmp	r3, #0
 1201 0030 F7D1     		bne	.L86
 1202 0032 7B68     		ldr	r3, [r7, #4]
 1203 0034 5B6B     		ldr	r3, [r3, #52]
 1204 0036 1B7A     		ldrb	r3, [r3, #8]	@ zero_extendqisi2
 1205 0038 1A46     		mov	r2, r3
 1206 003a 3D23     		movs	r3, #61
 1207 003c 03FA02F2 		lsl	r2, r3, r2
 1208 0040 7B68     		ldr	r3, [r7, #4]
 1209 0042 5B6B     		ldr	r3, [r3, #52]
 1210 0044 5B68     		ldr	r3, [r3, #4]
 1211 0046 1A60     		str	r2, [r3]
 1212 0048 7B68     		ldr	r3, [r7, #4]
 1213 004a 1B6B     		ldr	r3, [r3, #48]
 1214 004c 1B68     		ldr	r3, [r3]
 1215 004e 1A68     		ldr	r2, [r3]
 1216 0050 7B68     		ldr	r3, [r7, #4]
 1217 0052 1B6B     		ldr	r3, [r3, #48]
 1218 0054 1B68     		ldr	r3, [r3]
 1219 0056 22F01F02 		bic	r2, r2, #31
 1220 005a 1A60     		str	r2, [r3]
 1221 005c 00BF     		nop
 1222              	.L87:
 1223 005e 7B68     		ldr	r3, [r7, #4]
 1224 0060 1B6B     		ldr	r3, [r3, #48]
 1225 0062 1B68     		ldr	r3, [r3]
 1226 0064 1B68     		ldr	r3, [r3]
 1227 0066 03F00103 		and	r3, r3, #1
 1228 006a 002B     		cmp	r3, #0
 1229 006c F7D1     		bne	.L87
 1230 006e 7B68     		ldr	r3, [r7, #4]
 1231 0070 1B6B     		ldr	r3, [r3, #48]
 1232 0072 1B7A     		ldrb	r3, [r3, #8]	@ zero_extendqisi2
 1233 0074 1A46     		mov	r2, r3
 1234 0076 3D23     		movs	r3, #61
 1235 0078 03FA02F2 		lsl	r2, r3, r2
 1236 007c 7B68     		ldr	r3, [r7, #4]
 1237 007e 1B6B     		ldr	r3, [r3, #48]
 1238 0080 5B68     		ldr	r3, [r3, #4]
 1239 0082 1A60     		str	r2, [r3]
 1240 0084 7B68     		ldr	r3, [r7, #4]
 1241 0086 0022     		movs	r2, #0
 1242 0088 9A60     		str	r2, [r3, #8]
 1243 008a 7B88     		ldrh	r3, [r7, #2]
 1244 008c 03F48073 		and	r3, r3, #256
 1245 0090 002B     		cmp	r3, #0
 1246 0092 05D0     		beq	.L88
 1247 0094 7B68     		ldr	r3, [r7, #4]
 1248 0096 9B68     		ldr	r3, [r3, #8]
ARM GAS  /var/folders/d2/nstgp4h54kz7g1l847x_b8wc0000gn/T//ccNzmymf.s 			page 23


 1249 0098 43F00102 		orr	r2, r3, #1
 1250 009c 7B68     		ldr	r3, [r7, #4]
 1251 009e 9A60     		str	r2, [r3, #8]
 1252              	.L88:
 1253 00a0 7B88     		ldrh	r3, [r7, #2]
 1254 00a2 03F40073 		and	r3, r3, #512
 1255 00a6 002B     		cmp	r3, #0
 1256 00a8 05D0     		beq	.L89
 1257 00aa 7B68     		ldr	r3, [r7, #4]
 1258 00ac 9B68     		ldr	r3, [r3, #8]
 1259 00ae 43F00202 		orr	r2, r3, #2
 1260 00b2 7B68     		ldr	r3, [r7, #4]
 1261 00b4 9A60     		str	r2, [r3, #8]
 1262              	.L89:
 1263 00b6 7B88     		ldrh	r3, [r7, #2]
 1264 00b8 03F48063 		and	r3, r3, #1024
 1265 00bc 002B     		cmp	r3, #0
 1266 00be 15D0     		beq	.L90
 1267 00c0 7B68     		ldr	r3, [r7, #4]
 1268 00c2 9B6B     		ldr	r3, [r3, #56]
 1269 00c4 5A68     		ldr	r2, [r3, #4]
 1270 00c6 7B68     		ldr	r3, [r7, #4]
 1271 00c8 9B6B     		ldr	r3, [r3, #56]
 1272 00ca 22F40072 		bic	r2, r2, #512
 1273 00ce 5A60     		str	r2, [r3, #4]
 1274 00d0 7B68     		ldr	r3, [r7, #4]
 1275 00d2 9B6B     		ldr	r3, [r3, #56]
 1276 00d4 1A68     		ldr	r2, [r3]
 1277 00d6 7B68     		ldr	r3, [r7, #4]
 1278 00d8 9B6B     		ldr	r3, [r3, #56]
 1279 00da 42F40072 		orr	r2, r2, #512
 1280 00de 1A60     		str	r2, [r3]
 1281 00e0 7B68     		ldr	r3, [r7, #4]
 1282 00e2 9B68     		ldr	r3, [r3, #8]
 1283 00e4 43F00402 		orr	r2, r3, #4
 1284 00e8 7B68     		ldr	r3, [r7, #4]
 1285 00ea 9A60     		str	r2, [r3, #8]
 1286              	.L90:
 1287 00ec 7B88     		ldrh	r3, [r7, #2]
 1288 00ee 03F40063 		and	r3, r3, #2048
 1289 00f2 002B     		cmp	r3, #0
 1290 00f4 05D0     		beq	.L91
 1291 00f6 7B68     		ldr	r3, [r7, #4]
 1292 00f8 9B68     		ldr	r3, [r3, #8]
 1293 00fa 43F00802 		orr	r2, r3, #8
 1294 00fe 7B68     		ldr	r3, [r7, #4]
 1295 0100 9A60     		str	r2, [r3, #8]
 1296              	.L91:
 1297 0102 7B88     		ldrh	r3, [r7, #2]
 1298 0104 03F48043 		and	r3, r3, #16384
 1299 0108 002B     		cmp	r3, #0
 1300 010a 05D0     		beq	.L92
 1301 010c 7B68     		ldr	r3, [r7, #4]
 1302 010e 9B68     		ldr	r3, [r3, #8]
 1303 0110 43F02002 		orr	r2, r3, #32
 1304 0114 7B68     		ldr	r3, [r7, #4]
 1305 0116 9A60     		str	r2, [r3, #8]
ARM GAS  /var/folders/d2/nstgp4h54kz7g1l847x_b8wc0000gn/T//ccNzmymf.s 			page 24


 1306              	.L92:
 1307 0118 7B88     		ldrh	r3, [r7, #2]
 1308 011a 03F48053 		and	r3, r3, #4096
 1309 011e 002B     		cmp	r3, #0
 1310 0120 05D0     		beq	.L93
 1311 0122 7B68     		ldr	r3, [r7, #4]
 1312 0124 9B68     		ldr	r3, [r3, #8]
 1313 0126 43F01002 		orr	r2, r3, #16
 1314 012a 7B68     		ldr	r3, [r7, #4]
 1315 012c 9A60     		str	r2, [r3, #8]
 1316              	.L93:
 1317 012e B7F90230 		ldrsh	r3, [r7, #2]
 1318 0132 002B     		cmp	r3, #0
 1319 0134 05DA     		bge	.L94
 1320 0136 7B68     		ldr	r3, [r7, #4]
 1321 0138 9B68     		ldr	r3, [r3, #8]
 1322 013a 43F04002 		orr	r2, r3, #64
 1323 013e 7B68     		ldr	r3, [r7, #4]
 1324 0140 9A60     		str	r2, [r3, #8]
 1325              	.L94:
 1326 0142 7B68     		ldr	r3, [r7, #4]
 1327 0144 9B68     		ldr	r3, [r3, #8]
 1328 0146 002B     		cmp	r3, #0
 1329 0148 0AD0     		beq	.L96
 1330 014a FFF7FEFF 		bl	osalSysLockFromISR
 1331 014e 7B68     		ldr	r3, [r7, #4]
 1332 0150 2033     		adds	r3, r3, #32
 1333 0152 6FF00101 		mvn	r1, #1
 1334 0156 1846     		mov	r0, r3
 1335 0158 FFF7FEFF 		bl	osalThreadResumeI
 1336 015c FFF7FEFF 		bl	osalSysUnlockFromISR
 1337              	.L96:
 1338 0160 00BF     		nop
 1339 0162 0837     		adds	r7, r7, #8
 1340 0164 BD46     		mov	sp, r7
 1341              		@ sp needed
 1342 0166 80BD     		pop	{r7, pc}
 1343              		.size	i2c_lld_serve_error_interrupt, .-i2c_lld_serve_error_interrupt
 1344              		.section	.text.VectorBC,"ax",%progbits
 1345              		.align	1
 1346              		.global	VectorBC
 1347              		.syntax unified
 1348              		.thumb
 1349              		.thumb_func
 1350              		.fpu fpv4-sp-d16
 1351              		.type	VectorBC, %function
 1352              	VectorBC:
 1353              		@ args = 0, pretend = 0, frame = 0
 1354              		@ frame_needed = 1, uses_anonymous_args = 0
 1355 0000 80B5     		push	{r7, lr}
 1356 0002 00AF     		add	r7, sp, #0
 1357 0004 FFF7FEFF 		bl	_stats_increase_irq
 1358 0008 FFF7FEFF 		bl	_dbg_check_enter_isr
 1359 000c 0448     		ldr	r0, .L98
 1360 000e FFF7FEFF 		bl	i2c_lld_serve_event_interrupt
 1361 0012 FFF7FEFF 		bl	_dbg_check_leave_isr
 1362 0016 FFF7FEFF 		bl	_port_irq_epilogue
ARM GAS  /var/folders/d2/nstgp4h54kz7g1l847x_b8wc0000gn/T//ccNzmymf.s 			page 25


 1363 001a 00BF     		nop
 1364 001c 80BD     		pop	{r7, pc}
 1365              	.L99:
 1366 001e 00BF     		.align	2
 1367              	.L98:
 1368 0020 00000000 		.word	I2CD1
 1369              		.size	VectorBC, .-VectorBC
 1370              		.section	.text.VectorC0,"ax",%progbits
 1371              		.align	1
 1372              		.global	VectorC0
 1373              		.syntax unified
 1374              		.thumb
 1375              		.thumb_func
 1376              		.fpu fpv4-sp-d16
 1377              		.type	VectorC0, %function
 1378              	VectorC0:
 1379              		@ args = 0, pretend = 0, frame = 8
 1380              		@ frame_needed = 1, uses_anonymous_args = 0
 1381 0000 80B5     		push	{r7, lr}
 1382 0002 82B0     		sub	sp, sp, #8
 1383 0004 00AF     		add	r7, sp, #0
 1384 0006 0E4B     		ldr	r3, .L101
 1385 0008 9B6B     		ldr	r3, [r3, #56]
 1386 000a 5B69     		ldr	r3, [r3, #20]
 1387 000c FB80     		strh	r3, [r7, #6]	@ movhi
 1388 000e FFF7FEFF 		bl	_stats_increase_irq
 1389 0012 FFF7FEFF 		bl	_dbg_check_enter_isr
 1390 0016 FB88     		ldrh	r3, [r7, #6]
 1391 0018 03F45F43 		and	r3, r3, #57088
 1392 001c DA43     		mvns	r2, r3
 1393 001e 084B     		ldr	r3, .L101
 1394 0020 9B6B     		ldr	r3, [r3, #56]
 1395 0022 5A61     		str	r2, [r3, #20]
 1396 0024 FB88     		ldrh	r3, [r7, #6]
 1397 0026 1946     		mov	r1, r3
 1398 0028 0548     		ldr	r0, .L101
 1399 002a FFF7FEFF 		bl	i2c_lld_serve_error_interrupt
 1400 002e FFF7FEFF 		bl	_dbg_check_leave_isr
 1401 0032 FFF7FEFF 		bl	_port_irq_epilogue
 1402 0036 00BF     		nop
 1403 0038 0837     		adds	r7, r7, #8
 1404 003a BD46     		mov	sp, r7
 1405              		@ sp needed
 1406 003c 80BD     		pop	{r7, pc}
 1407              	.L102:
 1408 003e 00BF     		.align	2
 1409              	.L101:
 1410 0040 00000000 		.word	I2CD1
 1411              		.size	VectorC0, .-VectorC0
 1412              		.section	.text.i2c_lld_init,"ax",%progbits
 1413              		.align	1
 1414              		.global	i2c_lld_init
 1415              		.syntax unified
 1416              		.thumb
 1417              		.thumb_func
 1418              		.fpu fpv4-sp-d16
 1419              		.type	i2c_lld_init, %function
ARM GAS  /var/folders/d2/nstgp4h54kz7g1l847x_b8wc0000gn/T//ccNzmymf.s 			page 26


 1420              	i2c_lld_init:
 1421              		@ args = 0, pretend = 0, frame = 0
 1422              		@ frame_needed = 1, uses_anonymous_args = 0
 1423 0000 80B5     		push	{r7, lr}
 1424 0002 00AF     		add	r7, sp, #0
 1425 0004 0848     		ldr	r0, .L104
 1426 0006 FFF7FEFF 		bl	i2cObjectInit
 1427 000a 074B     		ldr	r3, .L104
 1428 000c 0022     		movs	r2, #0
 1429 000e 1A62     		str	r2, [r3, #32]
 1430 0010 054B     		ldr	r3, .L104
 1431 0012 064A     		ldr	r2, .L104+4
 1432 0014 9A63     		str	r2, [r3, #56]
 1433 0016 044B     		ldr	r3, .L104
 1434 0018 054A     		ldr	r2, .L104+8
 1435 001a 1A63     		str	r2, [r3, #48]
 1436 001c 024B     		ldr	r3, .L104
 1437 001e 054A     		ldr	r2, .L104+12
 1438 0020 5A63     		str	r2, [r3, #52]
 1439 0022 00BF     		nop
 1440 0024 80BD     		pop	{r7, pc}
 1441              	.L105:
 1442 0026 00BF     		.align	2
 1443              	.L104:
 1444 0028 00000000 		.word	I2CD1
 1445 002c 00540040 		.word	1073763328
 1446 0030 00000000 		.word	_stm32_dma_streams
 1447 0034 54000000 		.word	_stm32_dma_streams+84
 1448              		.size	i2c_lld_init, .-i2c_lld_init
 1449              		.section	.text.i2c_lld_start,"ax",%progbits
 1450              		.align	1
 1451              		.global	i2c_lld_start
 1452              		.syntax unified
 1453              		.thumb
 1454              		.thumb_func
 1455              		.fpu fpv4-sp-d16
 1456              		.type	i2c_lld_start, %function
 1457              	i2c_lld_start:
 1458              		@ args = 0, pretend = 0, frame = 16
 1459              		@ frame_needed = 1, uses_anonymous_args = 0
 1460 0000 80B5     		push	{r7, lr}
 1461 0002 84B0     		sub	sp, sp, #16
 1462 0004 00AF     		add	r7, sp, #0
 1463 0006 7860     		str	r0, [r7, #4]
 1464 0008 7B68     		ldr	r3, [r7, #4]
 1465 000a 9B6B     		ldr	r3, [r3, #56]
 1466 000c FB60     		str	r3, [r7, #12]
 1467 000e 7B68     		ldr	r3, [r7, #4]
 1468 0010 40F25642 		movw	r2, #1110
 1469 0014 DA62     		str	r2, [r3, #44]
 1470 0016 7B68     		ldr	r3, [r7, #4]
 1471 0018 40F21642 		movw	r2, #1046
 1472 001c 9A62     		str	r2, [r3, #40]
 1473 001e 7B68     		ldr	r3, [r7, #4]
 1474 0020 1B78     		ldrb	r3, [r3]	@ zero_extendqisi2
 1475 0022 012B     		cmp	r3, #1
 1476 0024 48D1     		bne	.L107
ARM GAS  /var/folders/d2/nstgp4h54kz7g1l847x_b8wc0000gn/T//ccNzmymf.s 			page 27


 1477 0026 7B68     		ldr	r3, [r7, #4]
 1478 0028 384A     		ldr	r2, .L110
 1479 002a 9342     		cmp	r3, r2
 1480 002c 44D1     		bne	.L107
 1481 002e 384B     		ldr	r3, .L110+4
 1482 0030 1B6A     		ldr	r3, [r3, #32]
 1483 0032 374A     		ldr	r2, .L110+4
 1484 0034 43F40013 		orr	r3, r3, #2097152
 1485 0038 1362     		str	r3, [r2, #32]
 1486 003a 354B     		ldr	r3, .L110+4
 1487 003c 0022     		movs	r2, #0
 1488 003e 1A62     		str	r2, [r3, #32]
 1489 0040 7B68     		ldr	r3, [r7, #4]
 1490 0042 186B     		ldr	r0, [r3, #48]
 1491 0044 7B68     		ldr	r3, [r7, #4]
 1492 0046 334A     		ldr	r2, .L110+8
 1493 0048 0521     		movs	r1, #5
 1494 004a FFF7FEFF 		bl	dmaStreamAllocate
 1495 004e 0346     		mov	r3, r0
 1496 0050 FB72     		strb	r3, [r7, #11]
 1497 0052 FB7A     		ldrb	r3, [r7, #11]	@ zero_extendqisi2
 1498 0054 002B     		cmp	r3, #0
 1499 0056 02D0     		beq	.L108
 1500 0058 2F48     		ldr	r0, .L110+12
 1501 005a FFF7FEFF 		bl	chSysHalt
 1502              	.L108:
 1503 005e 7B68     		ldr	r3, [r7, #4]
 1504 0060 586B     		ldr	r0, [r3, #52]
 1505 0062 7B68     		ldr	r3, [r7, #4]
 1506 0064 2D4A     		ldr	r2, .L110+16
 1507 0066 0521     		movs	r1, #5
 1508 0068 FFF7FEFF 		bl	dmaStreamAllocate
 1509 006c 0346     		mov	r3, r0
 1510 006e FB72     		strb	r3, [r7, #11]
 1511 0070 FB7A     		ldrb	r3, [r7, #11]	@ zero_extendqisi2
 1512 0072 002B     		cmp	r3, #0
 1513 0074 02D0     		beq	.L109
 1514 0076 2848     		ldr	r0, .L110+12
 1515 0078 FFF7FEFF 		bl	chSysHalt
 1516              	.L109:
 1517 007c 244B     		ldr	r3, .L110+4
 1518 007e 1B6C     		ldr	r3, [r3, #64]
 1519 0080 234A     		ldr	r2, .L110+4
 1520 0082 43F40013 		orr	r3, r3, #2097152
 1521 0086 1364     		str	r3, [r2, #64]
 1522 0088 0521     		movs	r1, #5
 1523 008a 1F20     		movs	r0, #31
 1524 008c FFF7FEFF 		bl	nvicEnableVector
 1525 0090 0521     		movs	r1, #5
 1526 0092 2020     		movs	r0, #32
 1527 0094 FFF7FEFF 		bl	nvicEnableVector
 1528 0098 7B68     		ldr	r3, [r7, #4]
 1529 009a 9B6A     		ldr	r3, [r3, #40]
 1530 009c 43F00073 		orr	r3, r3, #33554432
 1531 00a0 43F44033 		orr	r3, r3, #196608
 1532 00a4 7A68     		ldr	r2, [r7, #4]
 1533 00a6 9362     		str	r3, [r2, #40]
ARM GAS  /var/folders/d2/nstgp4h54kz7g1l847x_b8wc0000gn/T//ccNzmymf.s 			page 28


 1534 00a8 7B68     		ldr	r3, [r7, #4]
 1535 00aa DB6A     		ldr	r3, [r3, #44]
 1536 00ac 43F00073 		orr	r3, r3, #33554432
 1537 00b0 43F44033 		orr	r3, r3, #196608
 1538 00b4 7A68     		ldr	r2, [r7, #4]
 1539 00b6 D362     		str	r3, [r2, #44]
 1540              	.L107:
 1541 00b8 FB68     		ldr	r3, [r7, #12]
 1542 00ba 03F11002 		add	r2, r3, #16
 1543 00be 7B68     		ldr	r3, [r7, #4]
 1544 00c0 1B6B     		ldr	r3, [r3, #48]
 1545 00c2 1B68     		ldr	r3, [r3]
 1546 00c4 9A60     		str	r2, [r3, #8]
 1547 00c6 FB68     		ldr	r3, [r7, #12]
 1548 00c8 03F11002 		add	r2, r3, #16
 1549 00cc 7B68     		ldr	r3, [r7, #4]
 1550 00ce 5B6B     		ldr	r3, [r3, #52]
 1551 00d0 1B68     		ldr	r3, [r3]
 1552 00d2 9A60     		str	r2, [r3, #8]
 1553 00d4 FB68     		ldr	r3, [r7, #12]
 1554 00d6 4FF40042 		mov	r2, #32768
 1555 00da 1A60     		str	r2, [r3]
 1556 00dc FB68     		ldr	r3, [r7, #12]
 1557 00de 0022     		movs	r2, #0
 1558 00e0 1A60     		str	r2, [r3]
 1559 00e2 FB68     		ldr	r3, [r7, #12]
 1560 00e4 4FF41062 		mov	r2, #2304
 1561 00e8 5A60     		str	r2, [r3, #4]
 1562 00ea 7868     		ldr	r0, [r7, #4]
 1563 00ec FFF7FEFF 		bl	i2c_lld_set_clock
 1564 00f0 7868     		ldr	r0, [r7, #4]
 1565 00f2 FFF7FEFF 		bl	i2c_lld_set_opmode
 1566 00f6 FB68     		ldr	r3, [r7, #12]
 1567 00f8 1B68     		ldr	r3, [r3]
 1568 00fa 43F00102 		orr	r2, r3, #1
 1569 00fe FB68     		ldr	r3, [r7, #12]
 1570 0100 1A60     		str	r2, [r3]
 1571 0102 00BF     		nop
 1572 0104 1037     		adds	r7, r7, #16
 1573 0106 BD46     		mov	sp, r7
 1574              		@ sp needed
 1575 0108 80BD     		pop	{r7, pc}
 1576              	.L111:
 1577 010a 00BF     		.align	2
 1578              	.L110:
 1579 010c 00000000 		.word	I2CD1
 1580 0110 00380240 		.word	1073887232
 1581 0114 00000000 		.word	i2c_lld_serve_rx_end_irq
 1582 0118 00000000 		.word	__func__.9922
 1583 011c 00000000 		.word	i2c_lld_serve_tx_end_irq
 1584              		.size	i2c_lld_start, .-i2c_lld_start
 1585              		.section	.text.i2c_lld_stop,"ax",%progbits
 1586              		.align	1
 1587              		.global	i2c_lld_stop
 1588              		.syntax unified
 1589              		.thumb
 1590              		.thumb_func
ARM GAS  /var/folders/d2/nstgp4h54kz7g1l847x_b8wc0000gn/T//ccNzmymf.s 			page 29


 1591              		.fpu fpv4-sp-d16
 1592              		.type	i2c_lld_stop, %function
 1593              	i2c_lld_stop:
 1594              		@ args = 0, pretend = 0, frame = 8
 1595              		@ frame_needed = 1, uses_anonymous_args = 0
 1596 0000 80B5     		push	{r7, lr}
 1597 0002 82B0     		sub	sp, sp, #8
 1598 0004 00AF     		add	r7, sp, #0
 1599 0006 7860     		str	r0, [r7, #4]
 1600 0008 7B68     		ldr	r3, [r7, #4]
 1601 000a 1B78     		ldrb	r3, [r3]	@ zero_extendqisi2
 1602 000c 012B     		cmp	r3, #1
 1603 000e 1CD0     		beq	.L114
 1604 0010 7868     		ldr	r0, [r7, #4]
 1605 0012 FFF7FEFF 		bl	i2c_lld_abort_operation
 1606 0016 7B68     		ldr	r3, [r7, #4]
 1607 0018 5B6B     		ldr	r3, [r3, #52]
 1608 001a 1846     		mov	r0, r3
 1609 001c FFF7FEFF 		bl	dmaStreamRelease
 1610 0020 7B68     		ldr	r3, [r7, #4]
 1611 0022 1B6B     		ldr	r3, [r3, #48]
 1612 0024 1846     		mov	r0, r3
 1613 0026 FFF7FEFF 		bl	dmaStreamRelease
 1614 002a 7B68     		ldr	r3, [r7, #4]
 1615 002c 094A     		ldr	r2, .L115
 1616 002e 9342     		cmp	r3, r2
 1617 0030 0BD1     		bne	.L114
 1618 0032 1F20     		movs	r0, #31
 1619 0034 FFF7FEFF 		bl	nvicDisableVector
 1620 0038 2020     		movs	r0, #32
 1621 003a FFF7FEFF 		bl	nvicDisableVector
 1622 003e 064B     		ldr	r3, .L115+4
 1623 0040 1B6C     		ldr	r3, [r3, #64]
 1624 0042 054A     		ldr	r2, .L115+4
 1625 0044 23F40013 		bic	r3, r3, #2097152
 1626 0048 1364     		str	r3, [r2, #64]
 1627              	.L114:
 1628 004a 00BF     		nop
 1629 004c 0837     		adds	r7, r7, #8
 1630 004e BD46     		mov	sp, r7
 1631              		@ sp needed
 1632 0050 80BD     		pop	{r7, pc}
 1633              	.L116:
 1634 0052 00BF     		.align	2
 1635              	.L115:
 1636 0054 00000000 		.word	I2CD1
 1637 0058 00380240 		.word	1073887232
 1638              		.size	i2c_lld_stop, .-i2c_lld_stop
 1639              		.section	.text.i2c_lld_master_receive_timeout,"ax",%progbits
 1640              		.align	1
 1641              		.global	i2c_lld_master_receive_timeout
 1642              		.syntax unified
 1643              		.thumb
 1644              		.thumb_func
 1645              		.fpu fpv4-sp-d16
 1646              		.type	i2c_lld_master_receive_timeout, %function
 1647              	i2c_lld_master_receive_timeout:
ARM GAS  /var/folders/d2/nstgp4h54kz7g1l847x_b8wc0000gn/T//ccNzmymf.s 			page 30


 1648              		@ args = 4, pretend = 0, frame = 32
 1649              		@ frame_needed = 1, uses_anonymous_args = 0
 1650 0000 80B5     		push	{r7, lr}
 1651 0002 88B0     		sub	sp, sp, #32
 1652 0004 00AF     		add	r7, sp, #0
 1653 0006 F860     		str	r0, [r7, #12]
 1654 0008 7A60     		str	r2, [r7, #4]
 1655 000a 3B60     		str	r3, [r7]
 1656 000c 0B46     		mov	r3, r1	@ movhi
 1657 000e 7B81     		strh	r3, [r7, #10]	@ movhi
 1658 0010 FB68     		ldr	r3, [r7, #12]
 1659 0012 9B6B     		ldr	r3, [r3, #56]
 1660 0014 FB61     		str	r3, [r7, #28]
 1661 0016 FB68     		ldr	r3, [r7, #12]
 1662 0018 0022     		movs	r2, #0
 1663 001a 9A60     		str	r2, [r3, #8]
 1664 001c 7B89     		ldrh	r3, [r7, #10]
 1665 001e 5B00     		lsls	r3, r3, #1
 1666 0020 1BB2     		sxth	r3, r3
 1667 0022 43F00103 		orr	r3, r3, #1
 1668 0026 1BB2     		sxth	r3, r3
 1669 0028 9AB2     		uxth	r2, r3
 1670 002a FB68     		ldr	r3, [r7, #12]
 1671 002c 9A84     		strh	r2, [r3, #36]	@ movhi
 1672 002e FFF7FEFF 		bl	osalSysUnlock
 1673 0032 FB68     		ldr	r3, [r7, #12]
 1674 0034 1B6B     		ldr	r3, [r3, #48]
 1675 0036 1B68     		ldr	r3, [r3]
 1676 0038 FA68     		ldr	r2, [r7, #12]
 1677 003a 926A     		ldr	r2, [r2, #40]
 1678 003c 1A60     		str	r2, [r3]
 1679 003e FB68     		ldr	r3, [r7, #12]
 1680 0040 1B6B     		ldr	r3, [r3, #48]
 1681 0042 1B68     		ldr	r3, [r3]
 1682 0044 7A68     		ldr	r2, [r7, #4]
 1683 0046 DA60     		str	r2, [r3, #12]
 1684 0048 FB68     		ldr	r3, [r7, #12]
 1685 004a 1B6B     		ldr	r3, [r3, #48]
 1686 004c 1B68     		ldr	r3, [r3]
 1687 004e 3A68     		ldr	r2, [r7]
 1688 0050 5A60     		str	r2, [r3, #4]
 1689 0052 FFF7FEFF 		bl	osalOsGetSystemTimeX
 1690 0056 B861     		str	r0, [r7, #24]
 1691 0058 BB69     		ldr	r3, [r7, #24]
 1692 005a 3233     		adds	r3, r3, #50
 1693 005c 7B61     		str	r3, [r7, #20]
 1694              	.L122:
 1695 005e FFF7FEFF 		bl	osalSysLock
 1696 0062 FB69     		ldr	r3, [r7, #28]
 1697 0064 9B69     		ldr	r3, [r3, #24]
 1698 0066 03F00203 		and	r3, r3, #2
 1699 006a 002B     		cmp	r3, #0
 1700 006c 05D1     		bne	.L118
 1701 006e FB69     		ldr	r3, [r7, #28]
 1702 0070 1B68     		ldr	r3, [r3]
 1703 0072 03F40073 		and	r3, r3, #512
 1704 0076 002B     		cmp	r3, #0
ARM GAS  /var/folders/d2/nstgp4h54kz7g1l847x_b8wc0000gn/T//ccNzmymf.s 			page 31


 1705 0078 13D0     		beq	.L124
 1706              	.L118:
 1707 007a FFF7FEFF 		bl	osalOsGetSystemTimeX
 1708 007e 0346     		mov	r3, r0
 1709 0080 7A69     		ldr	r2, [r7, #20]
 1710 0082 B969     		ldr	r1, [r7, #24]
 1711 0084 1846     		mov	r0, r3
 1712 0086 FFF7FEFF 		bl	osalOsIsTimeWithinX
 1713 008a 0346     		mov	r3, r0
 1714 008c 83F00103 		eor	r3, r3, #1
 1715 0090 DBB2     		uxtb	r3, r3
 1716 0092 002B     		cmp	r3, #0
 1717 0094 02D0     		beq	.L120
 1718 0096 4FF0FF33 		mov	r3, #-1
 1719 009a 16E0     		b	.L121
 1720              	.L120:
 1721 009c FFF7FEFF 		bl	osalSysUnlock
 1722 00a0 DDE7     		b	.L122
 1723              	.L124:
 1724 00a2 00BF     		nop
 1725 00a4 FB69     		ldr	r3, [r7, #28]
 1726 00a6 5B68     		ldr	r3, [r3, #4]
 1727 00a8 43F40072 		orr	r2, r3, #512
 1728 00ac FB69     		ldr	r3, [r7, #28]
 1729 00ae 5A60     		str	r2, [r3, #4]
 1730 00b0 FB69     		ldr	r3, [r7, #28]
 1731 00b2 1B68     		ldr	r3, [r3]
 1732 00b4 43F4A062 		orr	r2, r3, #1280
 1733 00b8 FB69     		ldr	r3, [r7, #28]
 1734 00ba 1A60     		str	r2, [r3]
 1735 00bc FB68     		ldr	r3, [r7, #12]
 1736 00be 2033     		adds	r3, r3, #32
 1737 00c0 B96A     		ldr	r1, [r7, #40]
 1738 00c2 1846     		mov	r0, r3
 1739 00c4 FFF7FEFF 		bl	osalThreadSuspendTimeoutS
 1740 00c8 0346     		mov	r3, r0
 1741              	.L121:
 1742 00ca 1846     		mov	r0, r3
 1743 00cc 2037     		adds	r7, r7, #32
 1744 00ce BD46     		mov	sp, r7
 1745              		@ sp needed
 1746 00d0 80BD     		pop	{r7, pc}
 1747              		.size	i2c_lld_master_receive_timeout, .-i2c_lld_master_receive_timeout
 1748              		.section	.text.i2c_lld_master_transmit_timeout,"ax",%progbits
 1749              		.align	1
 1750              		.global	i2c_lld_master_transmit_timeout
 1751              		.syntax unified
 1752              		.thumb
 1753              		.thumb_func
 1754              		.fpu fpv4-sp-d16
 1755              		.type	i2c_lld_master_transmit_timeout, %function
 1756              	i2c_lld_master_transmit_timeout:
 1757              		@ args = 12, pretend = 0, frame = 32
 1758              		@ frame_needed = 1, uses_anonymous_args = 0
 1759 0000 80B5     		push	{r7, lr}
 1760 0002 88B0     		sub	sp, sp, #32
 1761 0004 00AF     		add	r7, sp, #0
ARM GAS  /var/folders/d2/nstgp4h54kz7g1l847x_b8wc0000gn/T//ccNzmymf.s 			page 32


 1762 0006 F860     		str	r0, [r7, #12]
 1763 0008 7A60     		str	r2, [r7, #4]
 1764 000a 3B60     		str	r3, [r7]
 1765 000c 0B46     		mov	r3, r1	@ movhi
 1766 000e 7B81     		strh	r3, [r7, #10]	@ movhi
 1767 0010 FB68     		ldr	r3, [r7, #12]
 1768 0012 9B6B     		ldr	r3, [r3, #56]
 1769 0014 FB61     		str	r3, [r7, #28]
 1770 0016 FB68     		ldr	r3, [r7, #12]
 1771 0018 0022     		movs	r2, #0
 1772 001a 9A60     		str	r2, [r3, #8]
 1773 001c 7B89     		ldrh	r3, [r7, #10]	@ movhi
 1774 001e 5B00     		lsls	r3, r3, #1
 1775 0020 9AB2     		uxth	r2, r3
 1776 0022 FB68     		ldr	r3, [r7, #12]
 1777 0024 9A84     		strh	r2, [r3, #36]	@ movhi
 1778 0026 FFF7FEFF 		bl	osalSysUnlock
 1779 002a FB68     		ldr	r3, [r7, #12]
 1780 002c 5B6B     		ldr	r3, [r3, #52]
 1781 002e 1B68     		ldr	r3, [r3]
 1782 0030 FA68     		ldr	r2, [r7, #12]
 1783 0032 D26A     		ldr	r2, [r2, #44]
 1784 0034 1A60     		str	r2, [r3]
 1785 0036 FB68     		ldr	r3, [r7, #12]
 1786 0038 5B6B     		ldr	r3, [r3, #52]
 1787 003a 1B68     		ldr	r3, [r3]
 1788 003c 7A68     		ldr	r2, [r7, #4]
 1789 003e DA60     		str	r2, [r3, #12]
 1790 0040 FB68     		ldr	r3, [r7, #12]
 1791 0042 5B6B     		ldr	r3, [r3, #52]
 1792 0044 1B68     		ldr	r3, [r3]
 1793 0046 3A68     		ldr	r2, [r7]
 1794 0048 5A60     		str	r2, [r3, #4]
 1795 004a FB68     		ldr	r3, [r7, #12]
 1796 004c 1B6B     		ldr	r3, [r3, #48]
 1797 004e 1B68     		ldr	r3, [r3]
 1798 0050 FA68     		ldr	r2, [r7, #12]
 1799 0052 926A     		ldr	r2, [r2, #40]
 1800 0054 1A60     		str	r2, [r3]
 1801 0056 FB68     		ldr	r3, [r7, #12]
 1802 0058 1B6B     		ldr	r3, [r3, #48]
 1803 005a 1B68     		ldr	r3, [r3]
 1804 005c BA6A     		ldr	r2, [r7, #40]
 1805 005e DA60     		str	r2, [r3, #12]
 1806 0060 FB68     		ldr	r3, [r7, #12]
 1807 0062 1B6B     		ldr	r3, [r3, #48]
 1808 0064 1B68     		ldr	r3, [r3]
 1809 0066 FA6A     		ldr	r2, [r7, #44]
 1810 0068 5A60     		str	r2, [r3, #4]
 1811 006a FFF7FEFF 		bl	osalOsGetSystemTimeX
 1812 006e B861     		str	r0, [r7, #24]
 1813 0070 BB69     		ldr	r3, [r7, #24]
 1814 0072 3233     		adds	r3, r3, #50
 1815 0074 7B61     		str	r3, [r7, #20]
 1816              	.L130:
 1817 0076 FFF7FEFF 		bl	osalSysLock
 1818 007a FB69     		ldr	r3, [r7, #28]
ARM GAS  /var/folders/d2/nstgp4h54kz7g1l847x_b8wc0000gn/T//ccNzmymf.s 			page 33


 1819 007c 9B69     		ldr	r3, [r3, #24]
 1820 007e 03F00203 		and	r3, r3, #2
 1821 0082 002B     		cmp	r3, #0
 1822 0084 05D1     		bne	.L126
 1823 0086 FB69     		ldr	r3, [r7, #28]
 1824 0088 1B68     		ldr	r3, [r3]
 1825 008a 03F40073 		and	r3, r3, #512
 1826 008e 002B     		cmp	r3, #0
 1827 0090 13D0     		beq	.L132
 1828              	.L126:
 1829 0092 FFF7FEFF 		bl	osalOsGetSystemTimeX
 1830 0096 0346     		mov	r3, r0
 1831 0098 7A69     		ldr	r2, [r7, #20]
 1832 009a B969     		ldr	r1, [r7, #24]
 1833 009c 1846     		mov	r0, r3
 1834 009e FFF7FEFF 		bl	osalOsIsTimeWithinX
 1835 00a2 0346     		mov	r3, r0
 1836 00a4 83F00103 		eor	r3, r3, #1
 1837 00a8 DBB2     		uxtb	r3, r3
 1838 00aa 002B     		cmp	r3, #0
 1839 00ac 02D0     		beq	.L128
 1840 00ae 4FF0FF33 		mov	r3, #-1
 1841 00b2 16E0     		b	.L129
 1842              	.L128:
 1843 00b4 FFF7FEFF 		bl	osalSysUnlock
 1844 00b8 DDE7     		b	.L130
 1845              	.L132:
 1846 00ba 00BF     		nop
 1847 00bc FB69     		ldr	r3, [r7, #28]
 1848 00be 5B68     		ldr	r3, [r3, #4]
 1849 00c0 43F40072 		orr	r2, r3, #512
 1850 00c4 FB69     		ldr	r3, [r7, #28]
 1851 00c6 5A60     		str	r2, [r3, #4]
 1852 00c8 FB69     		ldr	r3, [r7, #28]
 1853 00ca 1B68     		ldr	r3, [r3]
 1854 00cc 43F48072 		orr	r2, r3, #256
 1855 00d0 FB69     		ldr	r3, [r7, #28]
 1856 00d2 1A60     		str	r2, [r3]
 1857 00d4 FB68     		ldr	r3, [r7, #12]
 1858 00d6 2033     		adds	r3, r3, #32
 1859 00d8 396B     		ldr	r1, [r7, #48]
 1860 00da 1846     		mov	r0, r3
 1861 00dc FFF7FEFF 		bl	osalThreadSuspendTimeoutS
 1862 00e0 0346     		mov	r3, r0
 1863              	.L129:
 1864 00e2 1846     		mov	r0, r3
 1865 00e4 2037     		adds	r7, r7, #32
 1866 00e6 BD46     		mov	sp, r7
 1867              		@ sp needed
 1868 00e8 80BD     		pop	{r7, pc}
 1869              		.size	i2c_lld_master_transmit_timeout, .-i2c_lld_master_transmit_timeout
 1870              		.section	.rodata.__func__.9857,"a",%progbits
 1871              		.align	2
 1872              		.type	__func__.9857, %object
 1873              		.size	__func__.9857, 18
 1874              	__func__.9857:
 1875 0000 6932635F 		.ascii	"i2c_lld_set_clock\000"
ARM GAS  /var/folders/d2/nstgp4h54kz7g1l847x_b8wc0000gn/T//ccNzmymf.s 			page 34


 1875      6C6C645F 
 1875      7365745F 
 1875      636C6F63 
 1875      6B00
 1876              		.section	.rodata.__func__.9922,"a",%progbits
 1877              		.align	2
 1878              		.type	__func__.9922, %object
 1879              		.size	__func__.9922, 14
 1880              	__func__.9922:
 1881 0000 6932635F 		.ascii	"i2c_lld_start\000"
 1881      6C6C645F 
 1881      73746172 
 1881      7400
 1882              		.section	.rodata.__func__.7153,"a",%progbits
 1883              		.align	2
 1884              		.type	__func__.7153, %object
 1885              		.size	__func__.7153, 12
 1886              	__func__.7153:
 1887 0000 63685379 		.ascii	"chSysUnlock\000"
 1887      73556E6C 
 1887      6F636B00 
 1888              		.ident	"GCC: (GNU Tools for Arm Embedded Processors 7-2017-q4-major) 7.2.1 20170904 (release) [ARM
ARM GAS  /var/folders/d2/nstgp4h54kz7g1l847x_b8wc0000gn/T//ccNzmymf.s 			page 35


DEFINED SYMBOLS
                            *ABS*:0000000000000000 i2c_lld.c
/var/folders/d2/nstgp4h54kz7g1l847x_b8wc0000gn/T//ccNzmymf.s:15     .text.port_lock:0000000000000000 $t
/var/folders/d2/nstgp4h54kz7g1l847x_b8wc0000gn/T//ccNzmymf.s:21     .text.port_lock:0000000000000000 port_lock
/var/folders/d2/nstgp4h54kz7g1l847x_b8wc0000gn/T//ccNzmymf.s:45     .text.port_unlock:0000000000000000 $t
/var/folders/d2/nstgp4h54kz7g1l847x_b8wc0000gn/T//ccNzmymf.s:51     .text.port_unlock:0000000000000000 port_unlock
/var/folders/d2/nstgp4h54kz7g1l847x_b8wc0000gn/T//ccNzmymf.s:75     .text.port_lock_from_isr:0000000000000000 $t
/var/folders/d2/nstgp4h54kz7g1l847x_b8wc0000gn/T//ccNzmymf.s:81     .text.port_lock_from_isr:0000000000000000 port_lock_from_isr
/var/folders/d2/nstgp4h54kz7g1l847x_b8wc0000gn/T//ccNzmymf.s:91     .text.port_unlock_from_isr:0000000000000000 $t
/var/folders/d2/nstgp4h54kz7g1l847x_b8wc0000gn/T//ccNzmymf.s:97     .text.port_unlock_from_isr:0000000000000000 port_unlock_from_isr
/var/folders/d2/nstgp4h54kz7g1l847x_b8wc0000gn/T//ccNzmymf.s:107    .text.chSysLock:0000000000000000 $t
/var/folders/d2/nstgp4h54kz7g1l847x_b8wc0000gn/T//ccNzmymf.s:113    .text.chSysLock:0000000000000000 chSysLock
/var/folders/d2/nstgp4h54kz7g1l847x_b8wc0000gn/T//ccNzmymf.s:125    .text.chSysUnlock:0000000000000000 $t
/var/folders/d2/nstgp4h54kz7g1l847x_b8wc0000gn/T//ccNzmymf.s:131    .text.chSysUnlock:0000000000000000 chSysUnlock
/var/folders/d2/nstgp4h54kz7g1l847x_b8wc0000gn/T//ccNzmymf.s:160    .text.chSysUnlock:0000000000000034 $d
/var/folders/d2/nstgp4h54kz7g1l847x_b8wc0000gn/T//ccNzmymf.s:1886   .rodata.__func__.7153:0000000000000000 __func__.7153
/var/folders/d2/nstgp4h54kz7g1l847x_b8wc0000gn/T//ccNzmymf.s:164    .text.chSysLockFromISR:0000000000000000 $t
/var/folders/d2/nstgp4h54kz7g1l847x_b8wc0000gn/T//ccNzmymf.s:170    .text.chSysLockFromISR:0000000000000000 chSysLockFromISR
/var/folders/d2/nstgp4h54kz7g1l847x_b8wc0000gn/T//ccNzmymf.s:182    .text.chSysUnlockFromISR:0000000000000000 $t
/var/folders/d2/nstgp4h54kz7g1l847x_b8wc0000gn/T//ccNzmymf.s:188    .text.chSysUnlockFromISR:0000000000000000 chSysUnlockFromISR
/var/folders/d2/nstgp4h54kz7g1l847x_b8wc0000gn/T//ccNzmymf.s:200    .text.chVTGetSystemTimeX:0000000000000000 $t
/var/folders/d2/nstgp4h54kz7g1l847x_b8wc0000gn/T//ccNzmymf.s:206    .text.chVTGetSystemTimeX:0000000000000000 chVTGetSystemTimeX
/var/folders/d2/nstgp4h54kz7g1l847x_b8wc0000gn/T//ccNzmymf.s:222    .text.chVTGetSystemTimeX:0000000000000014 $d
/var/folders/d2/nstgp4h54kz7g1l847x_b8wc0000gn/T//ccNzmymf.s:225    .text.chVTIsTimeWithinX:0000000000000000 $t
/var/folders/d2/nstgp4h54kz7g1l847x_b8wc0000gn/T//ccNzmymf.s:231    .text.chVTIsTimeWithinX:0000000000000000 chVTIsTimeWithinX
/var/folders/d2/nstgp4h54kz7g1l847x_b8wc0000gn/T//ccNzmymf.s:260    .text.osalSysHalt:0000000000000000 $t
/var/folders/d2/nstgp4h54kz7g1l847x_b8wc0000gn/T//ccNzmymf.s:266    .text.osalSysHalt:0000000000000000 osalSysHalt
/var/folders/d2/nstgp4h54kz7g1l847x_b8wc0000gn/T//ccNzmymf.s:282    .text.osalSysLock:0000000000000000 $t
/var/folders/d2/nstgp4h54kz7g1l847x_b8wc0000gn/T//ccNzmymf.s:288    .text.osalSysLock:0000000000000000 osalSysLock
/var/folders/d2/nstgp4h54kz7g1l847x_b8wc0000gn/T//ccNzmymf.s:298    .text.osalSysUnlock:0000000000000000 $t
/var/folders/d2/nstgp4h54kz7g1l847x_b8wc0000gn/T//ccNzmymf.s:304    .text.osalSysUnlock:0000000000000000 osalSysUnlock
/var/folders/d2/nstgp4h54kz7g1l847x_b8wc0000gn/T//ccNzmymf.s:314    .text.osalSysLockFromISR:0000000000000000 $t
/var/folders/d2/nstgp4h54kz7g1l847x_b8wc0000gn/T//ccNzmymf.s:320    .text.osalSysLockFromISR:0000000000000000 osalSysLockFromISR
/var/folders/d2/nstgp4h54kz7g1l847x_b8wc0000gn/T//ccNzmymf.s:330    .text.osalSysUnlockFromISR:0000000000000000 $t
/var/folders/d2/nstgp4h54kz7g1l847x_b8wc0000gn/T//ccNzmymf.s:336    .text.osalSysUnlockFromISR:0000000000000000 osalSysUnlockFromISR
/var/folders/d2/nstgp4h54kz7g1l847x_b8wc0000gn/T//ccNzmymf.s:346    .text.osalOsGetSystemTimeX:0000000000000000 $t
/var/folders/d2/nstgp4h54kz7g1l847x_b8wc0000gn/T//ccNzmymf.s:352    .text.osalOsGetSystemTimeX:0000000000000000 osalOsGetSystemTimeX
/var/folders/d2/nstgp4h54kz7g1l847x_b8wc0000gn/T//ccNzmymf.s:363    .text.osalOsIsTimeWithinX:0000000000000000 $t
/var/folders/d2/nstgp4h54kz7g1l847x_b8wc0000gn/T//ccNzmymf.s:369    .text.osalOsIsTimeWithinX:0000000000000000 osalOsIsTimeWithinX
/var/folders/d2/nstgp4h54kz7g1l847x_b8wc0000gn/T//ccNzmymf.s:390    .text.osalThreadSuspendTimeoutS:0000000000000000 $t
/var/folders/d2/nstgp4h54kz7g1l847x_b8wc0000gn/T//ccNzmymf.s:396    .text.osalThreadSuspendTimeoutS:0000000000000000 osalThreadSuspendTimeoutS
/var/folders/d2/nstgp4h54kz7g1l847x_b8wc0000gn/T//ccNzmymf.s:415    .text.osalThreadResumeI:0000000000000000 $t
/var/folders/d2/nstgp4h54kz7g1l847x_b8wc0000gn/T//ccNzmymf.s:421    .text.osalThreadResumeI:0000000000000000 osalThreadResumeI
/var/folders/d2/nstgp4h54kz7g1l847x_b8wc0000gn/T//ccNzmymf.s:443    .bss.I2CD1:0000000000000000 I2CD1
/var/folders/d2/nstgp4h54kz7g1l847x_b8wc0000gn/T//ccNzmymf.s:440    .bss.I2CD1:0000000000000000 $d
/var/folders/d2/nstgp4h54kz7g1l847x_b8wc0000gn/T//ccNzmymf.s:446    .text.i2c_lld_abort_operation:0000000000000000 $t
/var/folders/d2/nstgp4h54kz7g1l847x_b8wc0000gn/T//ccNzmymf.s:452    .text.i2c_lld_abort_operation:0000000000000000 i2c_lld_abort_operation
/var/folders/d2/nstgp4h54kz7g1l847x_b8wc0000gn/T//ccNzmymf.s:539    .text.i2c_lld_set_clock:0000000000000000 $t
/var/folders/d2/nstgp4h54kz7g1l847x_b8wc0000gn/T//ccNzmymf.s:545    .text.i2c_lld_set_clock:0000000000000000 i2c_lld_set_clock
/var/folders/d2/nstgp4h54kz7g1l847x_b8wc0000gn/T//ccNzmymf.s:746    .text.i2c_lld_set_clock:00000000000001a0 $d
/var/folders/d2/nstgp4h54kz7g1l847x_b8wc0000gn/T//ccNzmymf.s:1874   .rodata.__func__.9857:0000000000000000 __func__.9857
/var/folders/d2/nstgp4h54kz7g1l847x_b8wc0000gn/T//ccNzmymf.s:753    .text.i2c_lld_set_opmode:0000000000000000 $t
/var/folders/d2/nstgp4h54kz7g1l847x_b8wc0000gn/T//ccNzmymf.s:759    .text.i2c_lld_set_opmode:0000000000000000 i2c_lld_set_opmode
/var/folders/d2/nstgp4h54kz7g1l847x_b8wc0000gn/T//ccNzmymf.s:813    .text.i2c_lld_serve_event_interrupt:0000000000000000 $t
/var/folders/d2/nstgp4h54kz7g1l847x_b8wc0000gn/T//ccNzmymf.s:819    .text.i2c_lld_serve_event_interrupt:0000000000000000 i2c_lld_serve_event_interrupt
/var/folders/d2/nstgp4h54kz7g1l847x_b8wc0000gn/T//ccNzmymf.s:1005   .text.i2c_lld_serve_event_interrupt:0000000000000174 $d
/var/folders/d2/nstgp4h54kz7g1l847x_b8wc0000gn/T//ccNzmymf.s:1012   .rodata:0000000000000000 $d
ARM GAS  /var/folders/d2/nstgp4h54kz7g1l847x_b8wc0000gn/T//ccNzmymf.s 			page 36


/var/folders/d2/nstgp4h54kz7g1l847x_b8wc0000gn/T//ccNzmymf.s:1016   .text.i2c_lld_serve_rx_end_irq:0000000000000000 $t
/var/folders/d2/nstgp4h54kz7g1l847x_b8wc0000gn/T//ccNzmymf.s:1022   .text.i2c_lld_serve_rx_end_irq:0000000000000000 i2c_lld_serve_rx_end_irq
/var/folders/d2/nstgp4h54kz7g1l847x_b8wc0000gn/T//ccNzmymf.s:1098   .text.i2c_lld_serve_rx_end_irq:000000000000009c $d
/var/folders/d2/nstgp4h54kz7g1l847x_b8wc0000gn/T//ccNzmymf.s:1101   .text.i2c_lld_serve_tx_end_irq:0000000000000000 $t
/var/folders/d2/nstgp4h54kz7g1l847x_b8wc0000gn/T//ccNzmymf.s:1107   .text.i2c_lld_serve_tx_end_irq:0000000000000000 i2c_lld_serve_tx_end_irq
/var/folders/d2/nstgp4h54kz7g1l847x_b8wc0000gn/T//ccNzmymf.s:1166   .text.i2c_lld_serve_tx_end_irq:0000000000000070 $d
/var/folders/d2/nstgp4h54kz7g1l847x_b8wc0000gn/T//ccNzmymf.s:1169   .text.i2c_lld_serve_error_interrupt:0000000000000000 $t
/var/folders/d2/nstgp4h54kz7g1l847x_b8wc0000gn/T//ccNzmymf.s:1175   .text.i2c_lld_serve_error_interrupt:0000000000000000 i2c_lld_serve_error_interrupt
/var/folders/d2/nstgp4h54kz7g1l847x_b8wc0000gn/T//ccNzmymf.s:1345   .text.VectorBC:0000000000000000 $t
/var/folders/d2/nstgp4h54kz7g1l847x_b8wc0000gn/T//ccNzmymf.s:1352   .text.VectorBC:0000000000000000 VectorBC
/var/folders/d2/nstgp4h54kz7g1l847x_b8wc0000gn/T//ccNzmymf.s:1368   .text.VectorBC:0000000000000020 $d
/var/folders/d2/nstgp4h54kz7g1l847x_b8wc0000gn/T//ccNzmymf.s:1371   .text.VectorC0:0000000000000000 $t
/var/folders/d2/nstgp4h54kz7g1l847x_b8wc0000gn/T//ccNzmymf.s:1378   .text.VectorC0:0000000000000000 VectorC0
/var/folders/d2/nstgp4h54kz7g1l847x_b8wc0000gn/T//ccNzmymf.s:1410   .text.VectorC0:0000000000000040 $d
/var/folders/d2/nstgp4h54kz7g1l847x_b8wc0000gn/T//ccNzmymf.s:1413   .text.i2c_lld_init:0000000000000000 $t
/var/folders/d2/nstgp4h54kz7g1l847x_b8wc0000gn/T//ccNzmymf.s:1420   .text.i2c_lld_init:0000000000000000 i2c_lld_init
/var/folders/d2/nstgp4h54kz7g1l847x_b8wc0000gn/T//ccNzmymf.s:1444   .text.i2c_lld_init:0000000000000028 $d
/var/folders/d2/nstgp4h54kz7g1l847x_b8wc0000gn/T//ccNzmymf.s:1450   .text.i2c_lld_start:0000000000000000 $t
/var/folders/d2/nstgp4h54kz7g1l847x_b8wc0000gn/T//ccNzmymf.s:1457   .text.i2c_lld_start:0000000000000000 i2c_lld_start
/var/folders/d2/nstgp4h54kz7g1l847x_b8wc0000gn/T//ccNzmymf.s:1579   .text.i2c_lld_start:000000000000010c $d
/var/folders/d2/nstgp4h54kz7g1l847x_b8wc0000gn/T//ccNzmymf.s:1880   .rodata.__func__.9922:0000000000000000 __func__.9922
/var/folders/d2/nstgp4h54kz7g1l847x_b8wc0000gn/T//ccNzmymf.s:1586   .text.i2c_lld_stop:0000000000000000 $t
/var/folders/d2/nstgp4h54kz7g1l847x_b8wc0000gn/T//ccNzmymf.s:1593   .text.i2c_lld_stop:0000000000000000 i2c_lld_stop
/var/folders/d2/nstgp4h54kz7g1l847x_b8wc0000gn/T//ccNzmymf.s:1636   .text.i2c_lld_stop:0000000000000054 $d
/var/folders/d2/nstgp4h54kz7g1l847x_b8wc0000gn/T//ccNzmymf.s:1640   .text.i2c_lld_master_receive_timeout:0000000000000000 $t
/var/folders/d2/nstgp4h54kz7g1l847x_b8wc0000gn/T//ccNzmymf.s:1647   .text.i2c_lld_master_receive_timeout:0000000000000000 i2c_lld_master_receive_timeout
/var/folders/d2/nstgp4h54kz7g1l847x_b8wc0000gn/T//ccNzmymf.s:1749   .text.i2c_lld_master_transmit_timeout:0000000000000000 $t
/var/folders/d2/nstgp4h54kz7g1l847x_b8wc0000gn/T//ccNzmymf.s:1756   .text.i2c_lld_master_transmit_timeout:0000000000000000 i2c_lld_master_transmit_timeout
/var/folders/d2/nstgp4h54kz7g1l847x_b8wc0000gn/T//ccNzmymf.s:1871   .rodata.__func__.9857:0000000000000000 $d
/var/folders/d2/nstgp4h54kz7g1l847x_b8wc0000gn/T//ccNzmymf.s:1877   .rodata.__func__.9922:0000000000000000 $d
/var/folders/d2/nstgp4h54kz7g1l847x_b8wc0000gn/T//ccNzmymf.s:1883   .rodata.__func__.7153:0000000000000000 $d

UNDEFINED SYMBOLS
_stats_start_measure_crit_thd
_dbg_check_lock
_dbg_check_unlock
_stats_stop_measure_crit_thd
chSysHalt
ch
_stats_start_measure_crit_isr
_dbg_check_lock_from_isr
_dbg_check_unlock_from_isr
_stats_stop_measure_crit_isr
chThdSuspendTimeoutS
chThdResumeI
_stats_increase_irq
_dbg_check_enter_isr
_dbg_check_leave_isr
_port_irq_epilogue
i2cObjectInit
_stm32_dma_streams
dmaStreamAllocate
nvicEnableVector
dmaStreamRelease
nvicDisableVector
