ARM GAS  /var/folders/d2/nstgp4h54kz7g1l847x_b8wc0000gn/T//ccxRnKL3.s 			page 1


   1              		.cpu cortex-m4
   2              		.eabi_attribute 27, 1
   3              		.eabi_attribute 28, 1
   4              		.eabi_attribute 20, 1
   5              		.eabi_attribute 21, 1
   6              		.eabi_attribute 23, 3
   7              		.eabi_attribute 24, 1
   8              		.eabi_attribute 25, 1
   9              		.eabi_attribute 26, 1
  10              		.eabi_attribute 30, 2
  11              		.eabi_attribute 34, 1
  12              		.eabi_attribute 18, 4
  13              		.file	"i2s.c"
  14              		.text
  15              	.Ltext0:
  16              		.cfi_sections	.debug_frame
  17              		.section	.text.i2sInit,"ax",%progbits
  18              		.align	1
  19              		.p2align 4,,15
  20              		.global	i2sInit
  21              		.syntax unified
  22              		.thumb
  23              		.thumb_func
  24              		.fpu fpv4-sp-d16
  25              		.type	i2sInit, %function
  26              	i2sInit:
  27              	.LFB256:
  28              		.file 1 "../e-puck2_main-processor/ChibiOS//os/hal/src/i2s.c"
  29              		.loc 1 56 0
  30              		.cfi_startproc
  31              		@ args = 0, pretend = 0, frame = 8
  32              		@ frame_needed = 0, uses_anonymous_args = 0
  33 0000 00B5     		push	{lr}
  34              		.cfi_def_cfa_offset 4
  35              		.cfi_offset 14, -4
  36 0002 074B     		ldr	r3, .L7
  37 0004 83B0     		sub	sp, sp, #12
  38              		.cfi_def_cfa_offset 16
  39              		.loc 1 56 0
  40 0006 1A68     		ldr	r2, [r3]
  41 0008 0192     		str	r2, [sp, #4]
  42              		.loc 1 58 0
  43 000a 019A     		ldr	r2, [sp, #4]
  44 000c 1B68     		ldr	r3, [r3]
  45 000e 9A42     		cmp	r2, r3
  46 0010 04D1     		bne	.L6
  47              		.loc 1 59 0
  48 0012 03B0     		add	sp, sp, #12
  49              		.cfi_remember_state
  50              		.cfi_def_cfa_offset 4
  51              		@ sp needed
  52 0014 5DF804EB 		ldr	lr, [sp], #4
  53              		.cfi_restore 14
  54              		.cfi_def_cfa_offset 0
  55              		.loc 1 58 0
  56 0018 FFF7FEBF 		b	i2s_lld_init
  57              	.LVL0:
ARM GAS  /var/folders/d2/nstgp4h54kz7g1l847x_b8wc0000gn/T//ccxRnKL3.s 			page 2


  58              	.L6:
  59              		.cfi_restore_state
  60 001c FFF7FEFF 		bl	__stack_chk_fail
  61              	.LVL1:
  62              	.L8:
  63              		.align	2
  64              	.L7:
  65 0020 00000000 		.word	__stack_chk_guard
  66              		.cfi_endproc
  67              	.LFE256:
  68              		.size	i2sInit, .-i2sInit
  69              		.section	.text.i2sObjectInit,"ax",%progbits
  70              		.align	1
  71              		.p2align 4,,15
  72              		.global	i2sObjectInit
  73              		.syntax unified
  74              		.thumb
  75              		.thumb_func
  76              		.fpu fpv4-sp-d16
  77              		.type	i2sObjectInit, %function
  78              	i2sObjectInit:
  79              	.LFB257:
  80              		.loc 1 68 0
  81              		.cfi_startproc
  82              		@ args = 0, pretend = 0, frame = 8
  83              		@ frame_needed = 0, uses_anonymous_args = 0
  84              	.LVL2:
  85 0000 00B5     		push	{lr}
  86              		.cfi_def_cfa_offset 4
  87              		.cfi_offset 14, -4
  88 0002 084B     		ldr	r3, .L13
  89 0004 83B0     		sub	sp, sp, #12
  90              		.cfi_def_cfa_offset 16
  91              		.loc 1 68 0
  92 0006 1A68     		ldr	r2, [r3]
  93 0008 0192     		str	r2, [sp, #4]
  94              		.loc 1 70 0
  95 000a 0122     		movs	r2, #1
  96 000c 0270     		strb	r2, [r0]
  97              		.loc 1 72 0
  98 000e 019A     		ldr	r2, [sp, #4]
  99 0010 1B68     		ldr	r3, [r3]
 100              		.loc 1 71 0
 101 0012 0021     		movs	r1, #0
 102              		.loc 1 72 0
 103 0014 9A42     		cmp	r2, r3
 104              		.loc 1 71 0
 105 0016 4160     		str	r1, [r0, #4]
 106              		.loc 1 72 0
 107 0018 02D1     		bne	.L12
 108 001a 03B0     		add	sp, sp, #12
 109              		.cfi_remember_state
 110              		.cfi_def_cfa_offset 4
 111              		@ sp needed
 112 001c 5DF804FB 		ldr	pc, [sp], #4
 113              	.L12:
 114              		.cfi_restore_state
ARM GAS  /var/folders/d2/nstgp4h54kz7g1l847x_b8wc0000gn/T//ccxRnKL3.s 			page 3


 115 0020 FFF7FEFF 		bl	__stack_chk_fail
 116              	.LVL3:
 117              	.L14:
 118              		.align	2
 119              	.L13:
 120 0024 00000000 		.word	__stack_chk_guard
 121              		.cfi_endproc
 122              	.LFE257:
 123              		.size	i2sObjectInit, .-i2sObjectInit
 124              		.section	.text.i2sStart,"ax",%progbits
 125              		.align	1
 126              		.p2align 4,,15
 127              		.global	i2sStart
 128              		.syntax unified
 129              		.thumb
 130              		.thumb_func
 131              		.fpu fpv4-sp-d16
 132              		.type	i2sStart, %function
 133              	i2sStart:
 134              	.LFB258:
 135              		.loc 1 82 0
 136              		.cfi_startproc
 137              		@ args = 0, pretend = 0, frame = 8
 138              		@ frame_needed = 0, uses_anonymous_args = 0
 139              	.LVL4:
 140 0000 70B5     		push	{r4, r5, r6, lr}
 141              		.cfi_def_cfa_offset 16
 142              		.cfi_offset 4, -16
 143              		.cfi_offset 5, -12
 144              		.cfi_offset 6, -8
 145              		.cfi_offset 14, -4
 146 0002 1E4D     		ldr	r5, .L27
 147 0004 82B0     		sub	sp, sp, #8
 148              		.cfi_def_cfa_offset 24
 149              		.loc 1 82 0
 150 0006 2B68     		ldr	r3, [r5]
 151 0008 0193     		str	r3, [sp, #4]
 152 000a 0E46     		mov	r6, r1
 153              		.loc 1 84 0
 154 000c 0446     		mov	r4, r0
 155 000e 70B3     		cbz	r0, .L16
 156              		.loc 1 84 0 is_stmt 0 discriminator 3
 157 0010 69B3     		cbz	r1, .L16
 158              	.LVL5:
 159              	.L17:
 160              	.LBB68:
 161              	.LBB69:
 162              	.LBB70:
 163              	.LBB71:
 164              	.LBB72:
 165              	.LBB73:
 166              		.file 2 "../e-puck2_main-processor/ChibiOS//os/ext/CMSIS/include/core_cmFunc.h"
 167              		.loc 2 546 0 is_stmt 1
 168 0012 2023     		movs	r3, #32
 169              		.syntax unified
 170              	@ 546 "../e-puck2_main-processor/ChibiOS//os/ext/CMSIS/include/core_cmFunc.h" 1
 171 0014 83F31188 		MSR basepri, r3
ARM GAS  /var/folders/d2/nstgp4h54kz7g1l847x_b8wc0000gn/T//ccxRnKL3.s 			page 4


 172              	@ 0 "" 2
 173              	.LVL6:
 174              		.thumb
 175              		.syntax unified
 176              	.LBE73:
 177              	.LBE72:
 178              	.LBE71:
 179              		.file 3 "../e-puck2_main-processor/ChibiOS//os/rt/include/chsys.h"
 180              		.loc 3 349 0
 181 0018 FFF7FEFF 		bl	_stats_start_measure_crit_thd
 182              	.LVL7:
 183              		.loc 3 350 0
 184 001c FFF7FEFF 		bl	_dbg_check_lock
 185              	.LVL8:
 186              	.LBE70:
 187              	.LBE69:
 188              	.LBE68:
 189              		.loc 1 87 0
 190 0020 2378     		ldrb	r3, [r4]	@ zero_extendqisi2
 191 0022 013B     		subs	r3, r3, #1
 192 0024 012B     		cmp	r3, #1
 193 0026 02D9     		bls	.L18
 194              		.loc 1 87 0 is_stmt 0 discriminator 2
 195 0028 1548     		ldr	r0, .L27+4
 196 002a FFF7FEFF 		bl	chSysHalt
 197              	.LVL9:
 198              	.L18:
 199              		.loc 1 90 0 is_stmt 1
 200 002e 2046     		mov	r0, r4
 201              		.loc 1 89 0
 202 0030 6660     		str	r6, [r4, #4]
 203              		.loc 1 90 0
 204 0032 FFF7FEFF 		bl	i2s_lld_start
 205              	.LVL10:
 206              		.loc 1 91 0
 207 0036 0223     		movs	r3, #2
 208 0038 2370     		strb	r3, [r4]
 209              	.LBB74:
 210              	.LBB75:
 211              	.LBB76:
 212              		.loc 3 360 0
 213 003a FFF7FEFF 		bl	_dbg_check_unlock
 214              	.LVL11:
 215              		.loc 3 361 0
 216 003e FFF7FEFF 		bl	_stats_stop_measure_crit_thd
 217              	.LVL12:
 218              		.loc 3 367 0
 219 0042 104B     		ldr	r3, .L27+8
 220 0044 1A68     		ldr	r2, [r3]
 221 0046 9A42     		cmp	r2, r3
 222 0048 04D0     		beq	.L19
 223 004a 9969     		ldr	r1, [r3, #24]
 224 004c 9368     		ldr	r3, [r2, #8]
 225 004e 8A68     		ldr	r2, [r1, #8]
 226 0050 9A42     		cmp	r2, r3
 227 0052 08D3     		bcc	.L25
 228              	.L19:
ARM GAS  /var/folders/d2/nstgp4h54kz7g1l847x_b8wc0000gn/T//ccxRnKL3.s 			page 5


 229              	.LVL13:
 230              	.LBB77:
 231              	.LBB78:
 232              	.LBB79:
 233              		.loc 2 546 0
 234 0054 0023     		movs	r3, #0
 235              		.syntax unified
 236              	@ 546 "../e-puck2_main-processor/ChibiOS//os/ext/CMSIS/include/core_cmFunc.h" 1
 237 0056 83F31188 		MSR basepri, r3
 238              	@ 0 "" 2
 239              	.LVL14:
 240              		.thumb
 241              		.syntax unified
 242              	.LBE79:
 243              	.LBE78:
 244              	.LBE77:
 245              	.LBE76:
 246              	.LBE75:
 247              	.LBE74:
 248              		.loc 1 93 0
 249 005a 019A     		ldr	r2, [sp, #4]
 250 005c 2B68     		ldr	r3, [r5]
 251 005e 9A42     		cmp	r2, r3
 252 0060 09D1     		bne	.L26
 253 0062 02B0     		add	sp, sp, #8
 254              		.cfi_remember_state
 255              		.cfi_def_cfa_offset 16
 256              		@ sp needed
 257 0064 70BD     		pop	{r4, r5, r6, pc}
 258              	.LVL15:
 259              	.L25:
 260              		.cfi_restore_state
 261              	.LBB82:
 262              	.LBB81:
 263              	.LBB80:
 264              		.loc 3 367 0
 265 0066 0848     		ldr	r0, .L27+12
 266 0068 FFF7FEFF 		bl	chSysHalt
 267              	.LVL16:
 268 006c F2E7     		b	.L19
 269              	.LVL17:
 270              	.L16:
 271              	.LBE80:
 272              	.LBE81:
 273              	.LBE82:
 274              		.loc 1 84 0 discriminator 4
 275 006e 0448     		ldr	r0, .L27+4
 276              	.LVL18:
 277 0070 FFF7FEFF 		bl	chSysHalt
 278              	.LVL19:
 279 0074 CDE7     		b	.L17
 280              	.L26:
 281              		.loc 1 93 0
 282 0076 FFF7FEFF 		bl	__stack_chk_fail
 283              	.LVL20:
 284              	.L28:
 285 007a 00BF     		.align	2
ARM GAS  /var/folders/d2/nstgp4h54kz7g1l847x_b8wc0000gn/T//ccxRnKL3.s 			page 6


 286              	.L27:
 287 007c 00000000 		.word	__stack_chk_guard
 288 0080 00000000 		.word	.LANCHOR0
 289 0084 00000000 		.word	ch
 290 0088 00000000 		.word	.LANCHOR1
 291              		.cfi_endproc
 292              	.LFE258:
 293              		.size	i2sStart, .-i2sStart
 294              		.section	.text.i2sStop,"ax",%progbits
 295              		.align	1
 296              		.p2align 4,,15
 297              		.global	i2sStop
 298              		.syntax unified
 299              		.thumb
 300              		.thumb_func
 301              		.fpu fpv4-sp-d16
 302              		.type	i2sStop, %function
 303              	i2sStop:
 304              	.LFB259:
 305              		.loc 1 102 0
 306              		.cfi_startproc
 307              		@ args = 0, pretend = 0, frame = 8
 308              		@ frame_needed = 0, uses_anonymous_args = 0
 309              	.LVL21:
 310 0000 30B5     		push	{r4, r5, lr}
 311              		.cfi_def_cfa_offset 12
 312              		.cfi_offset 4, -12
 313              		.cfi_offset 5, -8
 314              		.cfi_offset 14, -4
 315 0002 1C4D     		ldr	r5, .L38
 316 0004 83B0     		sub	sp, sp, #12
 317              		.cfi_def_cfa_offset 24
 318              		.loc 1 102 0
 319 0006 2B68     		ldr	r3, [r5]
 320 0008 0193     		str	r3, [sp, #4]
 321              		.loc 1 104 0
 322 000a 0446     		mov	r4, r0
 323 000c 60B3     		cbz	r0, .L35
 324              	.LVL22:
 325              	.L30:
 326              	.LBB96:
 327              	.LBB97:
 328              	.LBB98:
 329              	.LBB99:
 330              	.LBB100:
 331              	.LBB101:
 332              		.loc 2 546 0
 333 000e 2023     		movs	r3, #32
 334              		.syntax unified
 335              	@ 546 "../e-puck2_main-processor/ChibiOS//os/ext/CMSIS/include/core_cmFunc.h" 1
 336 0010 83F31188 		MSR basepri, r3
 337              	@ 0 "" 2
 338              	.LVL23:
 339              		.thumb
 340              		.syntax unified
 341              	.LBE101:
 342              	.LBE100:
ARM GAS  /var/folders/d2/nstgp4h54kz7g1l847x_b8wc0000gn/T//ccxRnKL3.s 			page 7


 343              	.LBE99:
 344              		.loc 3 349 0
 345 0014 FFF7FEFF 		bl	_stats_start_measure_crit_thd
 346              	.LVL24:
 347              		.loc 3 350 0
 348 0018 FFF7FEFF 		bl	_dbg_check_lock
 349              	.LVL25:
 350              	.LBE98:
 351              	.LBE97:
 352              	.LBE96:
 353              		.loc 1 107 0
 354 001c 2378     		ldrb	r3, [r4]	@ zero_extendqisi2
 355 001e 013B     		subs	r3, r3, #1
 356 0020 012B     		cmp	r3, #1
 357 0022 02D9     		bls	.L31
 358              		.loc 1 107 0 is_stmt 0 discriminator 2
 359 0024 1448     		ldr	r0, .L38+4
 360 0026 FFF7FEFF 		bl	chSysHalt
 361              	.LVL26:
 362              	.L31:
 363              		.loc 1 109 0 is_stmt 1
 364 002a 2046     		mov	r0, r4
 365 002c FFF7FEFF 		bl	i2s_lld_stop
 366              	.LVL27:
 367              		.loc 1 110 0
 368 0030 0123     		movs	r3, #1
 369 0032 2370     		strb	r3, [r4]
 370              	.LBB102:
 371              	.LBB103:
 372              	.LBB104:
 373              		.loc 3 360 0
 374 0034 FFF7FEFF 		bl	_dbg_check_unlock
 375              	.LVL28:
 376              		.loc 3 361 0
 377 0038 FFF7FEFF 		bl	_stats_stop_measure_crit_thd
 378              	.LVL29:
 379              		.loc 3 367 0
 380 003c 0F4B     		ldr	r3, .L38+8
 381 003e 1A68     		ldr	r2, [r3]
 382 0040 9A42     		cmp	r2, r3
 383 0042 04D0     		beq	.L32
 384 0044 9969     		ldr	r1, [r3, #24]
 385 0046 9368     		ldr	r3, [r2, #8]
 386 0048 8A68     		ldr	r2, [r1, #8]
 387 004a 9A42     		cmp	r2, r3
 388 004c 08D3     		bcc	.L36
 389              	.L32:
 390              	.LVL30:
 391              	.LBB105:
 392              	.LBB106:
 393              	.LBB107:
 394              		.loc 2 546 0
 395 004e 0023     		movs	r3, #0
 396              		.syntax unified
 397              	@ 546 "../e-puck2_main-processor/ChibiOS//os/ext/CMSIS/include/core_cmFunc.h" 1
 398 0050 83F31188 		MSR basepri, r3
 399              	@ 0 "" 2
ARM GAS  /var/folders/d2/nstgp4h54kz7g1l847x_b8wc0000gn/T//ccxRnKL3.s 			page 8


 400              	.LVL31:
 401              		.thumb
 402              		.syntax unified
 403              	.LBE107:
 404              	.LBE106:
 405              	.LBE105:
 406              	.LBE104:
 407              	.LBE103:
 408              	.LBE102:
 409              		.loc 1 112 0
 410 0054 019A     		ldr	r2, [sp, #4]
 411 0056 2B68     		ldr	r3, [r5]
 412 0058 9A42     		cmp	r2, r3
 413 005a 09D1     		bne	.L37
 414 005c 03B0     		add	sp, sp, #12
 415              		.cfi_remember_state
 416              		.cfi_def_cfa_offset 12
 417              		@ sp needed
 418 005e 30BD     		pop	{r4, r5, pc}
 419              	.LVL32:
 420              	.L36:
 421              		.cfi_restore_state
 422              	.LBB110:
 423              	.LBB109:
 424              	.LBB108:
 425              		.loc 3 367 0
 426 0060 0748     		ldr	r0, .L38+12
 427 0062 FFF7FEFF 		bl	chSysHalt
 428              	.LVL33:
 429 0066 F2E7     		b	.L32
 430              	.LVL34:
 431              	.L35:
 432              	.LBE108:
 433              	.LBE109:
 434              	.LBE110:
 435              		.loc 1 104 0 discriminator 2
 436 0068 0348     		ldr	r0, .L38+4
 437              	.LVL35:
 438 006a FFF7FEFF 		bl	chSysHalt
 439              	.LVL36:
 440 006e CEE7     		b	.L30
 441              	.L37:
 442              		.loc 1 112 0
 443 0070 FFF7FEFF 		bl	__stack_chk_fail
 444              	.LVL37:
 445              	.L39:
 446              		.align	2
 447              	.L38:
 448 0074 00000000 		.word	__stack_chk_guard
 449 0078 00000000 		.word	.LANCHOR2
 450 007c 00000000 		.word	ch
 451 0080 00000000 		.word	.LANCHOR1
 452              		.cfi_endproc
 453              	.LFE259:
 454              		.size	i2sStop, .-i2sStop
 455              		.section	.text.i2sStartExchange,"ax",%progbits
 456              		.align	1
ARM GAS  /var/folders/d2/nstgp4h54kz7g1l847x_b8wc0000gn/T//ccxRnKL3.s 			page 9


 457              		.p2align 4,,15
 458              		.global	i2sStartExchange
 459              		.syntax unified
 460              		.thumb
 461              		.thumb_func
 462              		.fpu fpv4-sp-d16
 463              		.type	i2sStartExchange, %function
 464              	i2sStartExchange:
 465              	.LFB260:
 466              		.loc 1 121 0
 467              		.cfi_startproc
 468              		@ args = 0, pretend = 0, frame = 8
 469              		@ frame_needed = 0, uses_anonymous_args = 0
 470              	.LVL38:
 471 0000 30B5     		push	{r4, r5, lr}
 472              		.cfi_def_cfa_offset 12
 473              		.cfi_offset 4, -12
 474              		.cfi_offset 5, -8
 475              		.cfi_offset 14, -4
 476 0002 1C4D     		ldr	r5, .L52
 477 0004 83B0     		sub	sp, sp, #12
 478              		.cfi_def_cfa_offset 24
 479              		.loc 1 121 0
 480 0006 2B68     		ldr	r3, [r5]
 481 0008 0193     		str	r3, [sp, #4]
 482              		.loc 1 123 0
 483 000a 0446     		mov	r4, r0
 484 000c 58B3     		cbz	r0, .L49
 485              	.LVL39:
 486              	.L41:
 487              	.LBB124:
 488              	.LBB125:
 489              	.LBB126:
 490              	.LBB127:
 491              	.LBB128:
 492              	.LBB129:
 493              		.loc 2 546 0
 494 000e 2023     		movs	r3, #32
 495              		.syntax unified
 496              	@ 546 "../e-puck2_main-processor/ChibiOS//os/ext/CMSIS/include/core_cmFunc.h" 1
 497 0010 83F31188 		MSR basepri, r3
 498              	@ 0 "" 2
 499              	.LVL40:
 500              		.thumb
 501              		.syntax unified
 502              	.LBE129:
 503              	.LBE128:
 504              	.LBE127:
 505              		.loc 3 349 0
 506 0014 FFF7FEFF 		bl	_stats_start_measure_crit_thd
 507              	.LVL41:
 508              		.loc 3 350 0
 509 0018 FFF7FEFF 		bl	_dbg_check_lock
 510              	.LVL42:
 511              	.LBE126:
 512              	.LBE125:
 513              	.LBE124:
ARM GAS  /var/folders/d2/nstgp4h54kz7g1l847x_b8wc0000gn/T//ccxRnKL3.s 			page 10


 514              		.loc 1 126 0
 515 001c 2378     		ldrb	r3, [r4]	@ zero_extendqisi2
 516 001e 022B     		cmp	r3, #2
 517 0020 02D0     		beq	.L42
 518              		.loc 1 126 0 is_stmt 0 discriminator 2
 519 0022 1548     		ldr	r0, .L52+4
 520 0024 FFF7FEFF 		bl	chSysHalt
 521              	.LVL43:
 522              	.L42:
 523              		.loc 1 127 0 is_stmt 1
 524 0028 2046     		mov	r0, r4
 525 002a FFF7FEFF 		bl	i2s_lld_start_exchange
 526              	.LVL44:
 527 002e 0323     		movs	r3, #3
 528 0030 2370     		strb	r3, [r4]
 529              	.LBB130:
 530              	.LBB131:
 531              	.LBB132:
 532              		.loc 3 360 0
 533 0032 FFF7FEFF 		bl	_dbg_check_unlock
 534              	.LVL45:
 535              		.loc 3 361 0
 536 0036 FFF7FEFF 		bl	_stats_stop_measure_crit_thd
 537              	.LVL46:
 538              		.loc 3 367 0
 539 003a 104B     		ldr	r3, .L52+8
 540 003c 1A68     		ldr	r2, [r3]
 541 003e 9A42     		cmp	r2, r3
 542 0040 04D0     		beq	.L43
 543 0042 9969     		ldr	r1, [r3, #24]
 544 0044 9368     		ldr	r3, [r2, #8]
 545 0046 8A68     		ldr	r2, [r1, #8]
 546 0048 9A42     		cmp	r2, r3
 547 004a 08D3     		bcc	.L50
 548              	.L43:
 549              	.LVL47:
 550              	.LBB133:
 551              	.LBB134:
 552              	.LBB135:
 553              		.loc 2 546 0
 554 004c 0023     		movs	r3, #0
 555              		.syntax unified
 556              	@ 546 "../e-puck2_main-processor/ChibiOS//os/ext/CMSIS/include/core_cmFunc.h" 1
 557 004e 83F31188 		MSR basepri, r3
 558              	@ 0 "" 2
 559              	.LVL48:
 560              		.thumb
 561              		.syntax unified
 562              	.LBE135:
 563              	.LBE134:
 564              	.LBE133:
 565              	.LBE132:
 566              	.LBE131:
 567              	.LBE130:
 568              		.loc 1 129 0
 569 0052 019A     		ldr	r2, [sp, #4]
 570 0054 2B68     		ldr	r3, [r5]
ARM GAS  /var/folders/d2/nstgp4h54kz7g1l847x_b8wc0000gn/T//ccxRnKL3.s 			page 11


 571 0056 9A42     		cmp	r2, r3
 572 0058 09D1     		bne	.L51
 573 005a 03B0     		add	sp, sp, #12
 574              		.cfi_remember_state
 575              		.cfi_def_cfa_offset 12
 576              		@ sp needed
 577 005c 30BD     		pop	{r4, r5, pc}
 578              	.LVL49:
 579              	.L50:
 580              		.cfi_restore_state
 581              	.LBB138:
 582              	.LBB137:
 583              	.LBB136:
 584              		.loc 3 367 0
 585 005e 0848     		ldr	r0, .L52+12
 586 0060 FFF7FEFF 		bl	chSysHalt
 587              	.LVL50:
 588 0064 F2E7     		b	.L43
 589              	.LVL51:
 590              	.L49:
 591              	.LBE136:
 592              	.LBE137:
 593              	.LBE138:
 594              		.loc 1 123 0 discriminator 2
 595 0066 0448     		ldr	r0, .L52+4
 596              	.LVL52:
 597 0068 FFF7FEFF 		bl	chSysHalt
 598              	.LVL53:
 599 006c CFE7     		b	.L41
 600              	.L51:
 601              		.loc 1 129 0
 602 006e FFF7FEFF 		bl	__stack_chk_fail
 603              	.LVL54:
 604              	.L53:
 605 0072 00BF     		.align	2
 606              	.L52:
 607 0074 00000000 		.word	__stack_chk_guard
 608 0078 00000000 		.word	.LANCHOR3
 609 007c 00000000 		.word	ch
 610 0080 00000000 		.word	.LANCHOR1
 611              		.cfi_endproc
 612              	.LFE260:
 613              		.size	i2sStartExchange, .-i2sStartExchange
 614              		.section	.text.i2sStopExchange,"ax",%progbits
 615              		.align	1
 616              		.p2align 4,,15
 617              		.global	i2sStopExchange
 618              		.syntax unified
 619              		.thumb
 620              		.thumb_func
 621              		.fpu fpv4-sp-d16
 622              		.type	i2sStopExchange, %function
 623              	i2sStopExchange:
 624              	.LFB261:
 625              		.loc 1 140 0
 626              		.cfi_startproc
 627              		@ args = 0, pretend = 0, frame = 8
ARM GAS  /var/folders/d2/nstgp4h54kz7g1l847x_b8wc0000gn/T//ccxRnKL3.s 			page 12


 628              		@ frame_needed = 0, uses_anonymous_args = 0
 629              	.LVL55:
 630 0000 30B5     		push	{r4, r5, lr}
 631              		.cfi_def_cfa_offset 12
 632              		.cfi_offset 4, -12
 633              		.cfi_offset 5, -8
 634              		.cfi_offset 14, -4
 635 0002 1C4D     		ldr	r5, .L63
 636 0004 83B0     		sub	sp, sp, #12
 637              		.cfi_def_cfa_offset 24
 638              		.loc 1 140 0
 639 0006 2B68     		ldr	r3, [r5]
 640 0008 0193     		str	r3, [sp, #4]
 641              		.loc 1 142 0
 642 000a 0446     		mov	r4, r0
 643 000c 60B3     		cbz	r0, .L60
 644              	.LVL56:
 645              	.L55:
 646              	.LBB152:
 647              	.LBB153:
 648              	.LBB154:
 649              	.LBB155:
 650              	.LBB156:
 651              	.LBB157:
 652              		.loc 2 546 0
 653 000e 2023     		movs	r3, #32
 654              		.syntax unified
 655              	@ 546 "../e-puck2_main-processor/ChibiOS//os/ext/CMSIS/include/core_cmFunc.h" 1
 656 0010 83F31188 		MSR basepri, r3
 657              	@ 0 "" 2
 658              	.LVL57:
 659              		.thumb
 660              		.syntax unified
 661              	.LBE157:
 662              	.LBE156:
 663              	.LBE155:
 664              		.loc 3 349 0
 665 0014 FFF7FEFF 		bl	_stats_start_measure_crit_thd
 666              	.LVL58:
 667              		.loc 3 350 0
 668 0018 FFF7FEFF 		bl	_dbg_check_lock
 669              	.LVL59:
 670              	.LBE154:
 671              	.LBE153:
 672              	.LBE152:
 673              		.loc 1 145 0
 674 001c 2378     		ldrb	r3, [r4]	@ zero_extendqisi2
 675 001e 023B     		subs	r3, r3, #2
 676 0020 022B     		cmp	r3, #2
 677 0022 02D9     		bls	.L56
 678              		.loc 1 145 0 is_stmt 0 discriminator 2
 679 0024 1448     		ldr	r0, .L63+4
 680 0026 FFF7FEFF 		bl	chSysHalt
 681              	.LVL60:
 682              	.L56:
 683              		.loc 1 149 0 is_stmt 1
 684 002a 2046     		mov	r0, r4
ARM GAS  /var/folders/d2/nstgp4h54kz7g1l847x_b8wc0000gn/T//ccxRnKL3.s 			page 13


 685 002c FFF7FEFF 		bl	i2s_lld_stop_exchange
 686              	.LVL61:
 687 0030 0223     		movs	r3, #2
 688 0032 2370     		strb	r3, [r4]
 689              	.LBB158:
 690              	.LBB159:
 691              	.LBB160:
 692              		.loc 3 360 0
 693 0034 FFF7FEFF 		bl	_dbg_check_unlock
 694              	.LVL62:
 695              		.loc 3 361 0
 696 0038 FFF7FEFF 		bl	_stats_stop_measure_crit_thd
 697              	.LVL63:
 698              		.loc 3 367 0
 699 003c 0F4B     		ldr	r3, .L63+8
 700 003e 1A68     		ldr	r2, [r3]
 701 0040 9A42     		cmp	r2, r3
 702 0042 04D0     		beq	.L57
 703 0044 9969     		ldr	r1, [r3, #24]
 704 0046 9368     		ldr	r3, [r2, #8]
 705 0048 8A68     		ldr	r2, [r1, #8]
 706 004a 9A42     		cmp	r2, r3
 707 004c 08D3     		bcc	.L61
 708              	.L57:
 709              	.LVL64:
 710              	.LBB161:
 711              	.LBB162:
 712              	.LBB163:
 713              		.loc 2 546 0
 714 004e 0023     		movs	r3, #0
 715              		.syntax unified
 716              	@ 546 "../e-puck2_main-processor/ChibiOS//os/ext/CMSIS/include/core_cmFunc.h" 1
 717 0050 83F31188 		MSR basepri, r3
 718              	@ 0 "" 2
 719              	.LVL65:
 720              		.thumb
 721              		.syntax unified
 722              	.LBE163:
 723              	.LBE162:
 724              	.LBE161:
 725              	.LBE160:
 726              	.LBE159:
 727              	.LBE158:
 728              		.loc 1 151 0
 729 0054 019A     		ldr	r2, [sp, #4]
 730 0056 2B68     		ldr	r3, [r5]
 731 0058 9A42     		cmp	r2, r3
 732 005a 09D1     		bne	.L62
 733 005c 03B0     		add	sp, sp, #12
 734              		.cfi_remember_state
 735              		.cfi_def_cfa_offset 12
 736              		@ sp needed
 737 005e 30BD     		pop	{r4, r5, pc}
 738              	.LVL66:
 739              	.L61:
 740              		.cfi_restore_state
 741              	.LBB166:
ARM GAS  /var/folders/d2/nstgp4h54kz7g1l847x_b8wc0000gn/T//ccxRnKL3.s 			page 14


 742              	.LBB165:
 743              	.LBB164:
 744              		.loc 3 367 0
 745 0060 0748     		ldr	r0, .L63+12
 746 0062 FFF7FEFF 		bl	chSysHalt
 747              	.LVL67:
 748 0066 F2E7     		b	.L57
 749              	.LVL68:
 750              	.L60:
 751              	.LBE164:
 752              	.LBE165:
 753              	.LBE166:
 754              		.loc 1 142 0 discriminator 2
 755 0068 0348     		ldr	r0, .L63+4
 756              	.LVL69:
 757 006a FFF7FEFF 		bl	chSysHalt
 758              	.LVL70:
 759 006e CEE7     		b	.L55
 760              	.L62:
 761              		.loc 1 151 0
 762 0070 FFF7FEFF 		bl	__stack_chk_fail
 763              	.LVL71:
 764              	.L64:
 765              		.align	2
 766              	.L63:
 767 0074 00000000 		.word	__stack_chk_guard
 768 0078 00000000 		.word	.LANCHOR4
 769 007c 00000000 		.word	ch
 770 0080 00000000 		.word	.LANCHOR1
 771              		.cfi_endproc
 772              	.LFE261:
 773              		.size	i2sStopExchange, .-i2sStopExchange
 774              		.section	.rodata.__func__.7153,"a",%progbits
 775              		.align	2
 776              		.set	.LANCHOR1,. + 0
 777              		.type	__func__.7153, %object
 778              		.size	__func__.7153, 12
 779              	__func__.7153:
 780 0000 63685379 		.ascii	"chSysUnlock\000"
 780      73556E6C 
 780      6F636B00 
 781              		.section	.rodata.__func__.9848,"a",%progbits
 782              		.align	2
 783              		.set	.LANCHOR0,. + 0
 784              		.type	__func__.9848, %object
 785              		.size	__func__.9848, 9
 786              	__func__.9848:
 787 0000 69327353 		.ascii	"i2sStart\000"
 787      74617274 
 787      00
 788              		.section	.rodata.__func__.9852,"a",%progbits
 789              		.align	2
 790              		.set	.LANCHOR2,. + 0
 791              		.type	__func__.9852, %object
 792              		.size	__func__.9852, 8
 793              	__func__.9852:
 794 0000 69327353 		.ascii	"i2sStop\000"
ARM GAS  /var/folders/d2/nstgp4h54kz7g1l847x_b8wc0000gn/T//ccxRnKL3.s 			page 15


 794      746F7000 
 795              		.section	.rodata.__func__.9856,"a",%progbits
 796              		.align	2
 797              		.set	.LANCHOR3,. + 0
 798              		.type	__func__.9856, %object
 799              		.size	__func__.9856, 17
 800              	__func__.9856:
 801 0000 69327353 		.ascii	"i2sStartExchange\000"
 801      74617274 
 801      45786368 
 801      616E6765 
 801      00
 802              		.section	.rodata.__func__.9860,"a",%progbits
 803              		.align	2
 804              		.set	.LANCHOR4,. + 0
 805              		.type	__func__.9860, %object
 806              		.size	__func__.9860, 16
 807              	__func__.9860:
 808 0000 69327353 		.ascii	"i2sStopExchange\000"
 808      746F7045 
 808      78636861 
 808      6E676500 
 809              		.text
 810              	.Letext0:
 811              		.file 4 "/Applications/Eclipse_e-puck2.app/Contents/Eclipse_e-puck2/Tools/gcc-arm-none-eabi-7-2017
 812              		.file 5 "/Applications/Eclipse_e-puck2.app/Contents/Eclipse_e-puck2/Tools/gcc-arm-none-eabi-7-2017
 813              		.file 6 "/Applications/Eclipse_e-puck2.app/Contents/Eclipse_e-puck2/Tools/gcc-arm-none-eabi-7-2017
 814              		.file 7 "../e-puck2_main-processor/ChibiOS//os/rt/ports/ARMCMx/compilers/GCC/chtypes.h"
 815              		.file 8 "../e-puck2_main-processor/ChibiOS//os/rt/include/chsystypes.h"
 816              		.file 9 "../e-puck2_main-processor/ChibiOS//os/rt/include/chschd.h"
 817              		.file 10 "../e-puck2_main-processor/ChibiOS//os/ext/CMSIS/include/core_cm4.h"
 818              		.file 11 "../e-puck2_main-processor/ChibiOS//os/ext/CMSIS/ST/system_stm32f4xx.h"
 819              		.file 12 "../e-puck2_main-processor/ChibiOS//os/ext/CMSIS/ST/stm32f407xx.h"
 820              		.file 13 "../e-puck2_main-processor/ChibiOS//os/rt/ports/ARMCMx/chcore.h"
 821              		.file 14 "../e-puck2_main-processor/ChibiOS//os/rt/ports/ARMCMx/chcore_v7m.h"
 822              		.file 15 "../e-puck2_main-processor/ChibiOS//os/rt/include/chdebug.h"
 823              		.file 16 "../e-puck2_main-processor/ChibiOS//os/rt/include/chtm.h"
 824              		.file 17 "../e-puck2_main-processor/ChibiOS//os/rt/include/chstats.h"
 825              		.file 18 "../e-puck2_main-processor/ChibiOS//os/rt/include/chsem.h"
 826              		.file 19 "../e-puck2_main-processor/ChibiOS//os/rt/include/chmtx.h"
 827              		.file 20 "../e-puck2_main-processor/ChibiOS//os/rt/include/chregistry.h"
 828              		.file 21 "../e-puck2_main-processor/ChibiOS//os/rt/include/chevents.h"
 829              		.file 22 "../e-puck2_main-processor/ChibiOS//os/rt/include/chqueues.h"
 830              		.file 23 "../e-puck2_main-processor/ChibiOS//os/hal/ports/STM32/STM32F4xx/stm32_dma.h"
 831              		.file 24 "../e-puck2_main-processor/ChibiOS//os/hal/include/hal_ioblock.h"
 832              		.file 25 "../e-puck2_main-processor/ChibiOS//os/hal/ports/STM32/LLD/GPIOv2/pal_lld.h"
 833              		.file 26 "../e-puck2_main-processor/ChibiOS//os/hal/include/adc.h"
 834              		.file 27 "../e-puck2_main-processor/ChibiOS//os/hal/ports/STM32/STM32F4xx/adc_lld.h"
 835              		.file 28 "../e-puck2_main-processor/ChibiOS//os/hal/include/can.h"
 836              		.file 29 "../e-puck2_main-processor/ChibiOS//os/hal/ports/STM32/LLD/can_lld.h"
 837              		.file 30 "../e-puck2_main-processor/ChibiOS//os/hal/include/dac.h"
 838              		.file 31 "../e-puck2_main-processor/ChibiOS//os/hal/ports/STM32/LLD/DACv1/dac_lld.h"
 839              		.file 32 "../e-puck2_main-processor/ChibiOS//os/hal/include/ext.h"
 840              		.file 33 "../e-puck2_main-processor/ChibiOS//os/hal/ports/STM32/LLD/ext_lld.h"
 841              		.file 34 "../e-puck2_main-processor/ChibiOS//os/hal/include/gpt.h"
 842              		.file 35 "../e-puck2_main-processor/ChibiOS//os/hal/ports/STM32/LLD/TIMv1/gpt_lld.h"
 843              		.file 36 "../e-puck2_main-processor/ChibiOS//os/hal/ports/STM32/LLD/TIMv1/stm32_tim.h"
ARM GAS  /var/folders/d2/nstgp4h54kz7g1l847x_b8wc0000gn/T//ccxRnKL3.s 			page 16


 844              		.file 37 "../e-puck2_main-processor/ChibiOS//os/hal/include/i2c.h"
 845              		.file 38 "../e-puck2_main-processor/ChibiOS//os/hal/ports/STM32/LLD/I2Cv1/i2c_lld.h"
 846              		.file 39 "../e-puck2_main-processor/ChibiOS//os/hal/include/i2s.h"
 847              		.file 40 "../e-puck2_main-processor/ChibiOS//os/hal/ports/STM32/LLD/SPIv1/i2s_lld.h"
 848              		.file 41 "../e-puck2_main-processor/ChibiOS//os/hal/include/pwm.h"
 849              		.file 42 "../e-puck2_main-processor/ChibiOS//os/hal/ports/STM32/LLD/TIMv1/pwm_lld.h"
 850              		.file 43 "../e-puck2_main-processor/ChibiOS//os/hal/include/serial.h"
 851              		.file 44 "../e-puck2_main-processor/ChibiOS//os/hal/ports/STM32/LLD/USARTv1/serial_lld.h"
 852              		.file 45 "../e-puck2_main-processor/ChibiOS//os/hal/include/sdc.h"
 853              		.file 46 "../e-puck2_main-processor/ChibiOS//os/hal/ports/STM32/LLD/sdc_lld.h"
 854              		.file 47 "../e-puck2_main-processor/ChibiOS//os/hal/include/spi.h"
 855              		.file 48 "../e-puck2_main-processor/ChibiOS//os/hal/ports/STM32/LLD/SPIv1/spi_lld.h"
 856              		.file 49 "../e-puck2_main-processor/ChibiOS//os/hal/include/usb.h"
 857              		.file 50 "../e-puck2_main-processor/ChibiOS//os/hal/ports/STM32/LLD/OTGv1/usb_lld.h"
 858              		.file 51 "../e-puck2_main-processor/ChibiOS//os/hal/ports/STM32/LLD/OTGv1/stm32_otg.h"
 859              		.file 52 "../e-puck2_main-processor/ChibiOS//os/hal/osal/rt/osal.h"