ARM GAS  /var/folders/d2/nstgp4h54kz7g1l847x_b8wc0000gn/T//cc79jbRG.s 			page 1


   1              		.cpu cortex-m4
   2              		.eabi_attribute 27, 1
   3              		.eabi_attribute 28, 1
   4              		.eabi_attribute 20, 1
   5              		.eabi_attribute 21, 1
   6              		.eabi_attribute 23, 3
   7              		.eabi_attribute 24, 1
   8              		.eabi_attribute 25, 1
   9              		.eabi_attribute 26, 1
  10              		.eabi_attribute 30, 6
  11              		.eabi_attribute 34, 1
  12              		.eabi_attribute 18, 4
  13              		.file	"i2s_lld.c"
  14              		.section	.text.osalSysHalt,"ax",%progbits
  15              		.align	1
  16              		.syntax unified
  17              		.thumb
  18              		.thumb_func
  19              		.fpu fpv4-sp-d16
  20              		.type	osalSysHalt, %function
  21              	osalSysHalt:
  22              		@ args = 0, pretend = 0, frame = 8
  23              		@ frame_needed = 1, uses_anonymous_args = 0
  24 0000 80B5     		push	{r7, lr}
  25 0002 82B0     		sub	sp, sp, #8
  26 0004 00AF     		add	r7, sp, #0
  27 0006 7860     		str	r0, [r7, #4]
  28 0008 7868     		ldr	r0, [r7, #4]
  29 000a FFF7FEFF 		bl	chSysHalt
  30 000e 00BF     		nop
  31 0010 0837     		adds	r7, r7, #8
  32 0012 BD46     		mov	sp, r7
  33              		@ sp needed
  34 0014 80BD     		pop	{r7, pc}
  35              		.size	osalSysHalt, .-osalSysHalt
  36              		.global	I2SD2
  37              		.section	.bss.I2SD2,"aw",%nobits
  38              		.align	2
  39              		.type	I2SD2, %object
  40              		.size	I2SD2, 32
  41              	I2SD2:
  42 0000 00000000 		.space	32
  42      00000000 
  42      00000000 
  42      00000000 
  42      00000000 
  43              		.section	.rodata
  44              		.align	2
  45              	.LC0:
  46 0000 444D4120 		.ascii	"DMA failure\000"
  46      6661696C 
  46      75726500 
  47              		.section	.text.i2s_lld_serve_rx_interrupt,"ax",%progbits
  48              		.align	1
  49              		.syntax unified
  50              		.thumb
  51              		.thumb_func
ARM GAS  /var/folders/d2/nstgp4h54kz7g1l847x_b8wc0000gn/T//cc79jbRG.s 			page 2


  52              		.fpu fpv4-sp-d16
  53              		.type	i2s_lld_serve_rx_interrupt, %function
  54              	i2s_lld_serve_rx_interrupt:
  55              		@ args = 0, pretend = 0, frame = 8
  56              		@ frame_needed = 1, uses_anonymous_args = 0
  57 0000 80B5     		push	{r7, lr}
  58 0002 82B0     		sub	sp, sp, #8
  59 0004 00AF     		add	r7, sp, #0
  60 0006 7860     		str	r0, [r7, #4]
  61 0008 3960     		str	r1, [r7]
  62 000a 3B68     		ldr	r3, [r7]
  63 000c 03F00C03 		and	r3, r3, #12
  64 0010 002B     		cmp	r3, #0
  65 0012 02D0     		beq	.L3
  66 0014 2048     		ldr	r0, .L10
  67 0016 FFF7FEFF 		bl	osalSysHalt
  68              	.L3:
  69 001a 3B68     		ldr	r3, [r7]
  70 001c 03F02003 		and	r3, r3, #32
  71 0020 002B     		cmp	r3, #0
  72 0022 20D0     		beq	.L4
  73 0024 7B68     		ldr	r3, [r7, #4]
  74 0026 5B68     		ldr	r3, [r3, #4]
  75 0028 DB68     		ldr	r3, [r3, #12]
  76 002a 002B     		cmp	r3, #0
  77 002c 17D0     		beq	.L5
  78 002e 7B68     		ldr	r3, [r7, #4]
  79 0030 0422     		movs	r2, #4
  80 0032 1A70     		strb	r2, [r3]
  81 0034 7B68     		ldr	r3, [r7, #4]
  82 0036 5B68     		ldr	r3, [r3, #4]
  83 0038 DB68     		ldr	r3, [r3, #12]
  84 003a 7A68     		ldr	r2, [r7, #4]
  85 003c 5268     		ldr	r2, [r2, #4]
  86 003e 9268     		ldr	r2, [r2, #8]
  87 0040 5108     		lsrs	r1, r2, #1
  88 0042 7A68     		ldr	r2, [r7, #4]
  89 0044 5268     		ldr	r2, [r2, #4]
  90 0046 9268     		ldr	r2, [r2, #8]
  91 0048 5208     		lsrs	r2, r2, #1
  92 004a 7868     		ldr	r0, [r7, #4]
  93 004c 9847     		blx	r3
  94 004e 7B68     		ldr	r3, [r7, #4]
  95 0050 1B78     		ldrb	r3, [r3]	@ zero_extendqisi2
  96 0052 042B     		cmp	r3, #4
  97 0054 1BD1     		bne	.L9
  98 0056 7B68     		ldr	r3, [r7, #4]
  99 0058 0222     		movs	r2, #2
 100 005a 1A70     		strb	r2, [r3]
 101 005c 17E0     		b	.L9
 102              	.L5:
 103 005e 7B68     		ldr	r3, [r7, #4]
 104 0060 0222     		movs	r2, #2
 105 0062 1A70     		strb	r2, [r3]
 106 0064 13E0     		b	.L9
 107              	.L4:
 108 0066 3B68     		ldr	r3, [r7]
ARM GAS  /var/folders/d2/nstgp4h54kz7g1l847x_b8wc0000gn/T//cc79jbRG.s 			page 3


 109 0068 03F01003 		and	r3, r3, #16
 110 006c 002B     		cmp	r3, #0
 111 006e 0ED0     		beq	.L9
 112 0070 7B68     		ldr	r3, [r7, #4]
 113 0072 5B68     		ldr	r3, [r3, #4]
 114 0074 DB68     		ldr	r3, [r3, #12]
 115 0076 002B     		cmp	r3, #0
 116 0078 09D0     		beq	.L9
 117 007a 7B68     		ldr	r3, [r7, #4]
 118 007c 5B68     		ldr	r3, [r3, #4]
 119 007e DB68     		ldr	r3, [r3, #12]
 120 0080 7A68     		ldr	r2, [r7, #4]
 121 0082 5268     		ldr	r2, [r2, #4]
 122 0084 9268     		ldr	r2, [r2, #8]
 123 0086 5208     		lsrs	r2, r2, #1
 124 0088 0021     		movs	r1, #0
 125 008a 7868     		ldr	r0, [r7, #4]
 126 008c 9847     		blx	r3
 127              	.L9:
 128 008e 00BF     		nop
 129 0090 0837     		adds	r7, r7, #8
 130 0092 BD46     		mov	sp, r7
 131              		@ sp needed
 132 0094 80BD     		pop	{r7, pc}
 133              	.L11:
 134 0096 00BF     		.align	2
 135              	.L10:
 136 0098 00000000 		.word	.LC0
 137              		.size	i2s_lld_serve_rx_interrupt, .-i2s_lld_serve_rx_interrupt
 138              		.section	.text.i2s_lld_init,"ax",%progbits
 139              		.align	1
 140              		.global	i2s_lld_init
 141              		.syntax unified
 142              		.thumb
 143              		.thumb_func
 144              		.fpu fpv4-sp-d16
 145              		.type	i2s_lld_init, %function
 146              	i2s_lld_init:
 147              		@ args = 0, pretend = 0, frame = 0
 148              		@ frame_needed = 1, uses_anonymous_args = 0
 149 0000 80B5     		push	{r7, lr}
 150 0002 00AF     		add	r7, sp, #0
 151 0004 0B48     		ldr	r0, .L13
 152 0006 FFF7FEFF 		bl	i2sObjectInit
 153 000a 0A4B     		ldr	r3, .L13
 154 000c 0A4A     		ldr	r2, .L13+4
 155 000e 9A60     		str	r2, [r3, #8]
 156 0010 084B     		ldr	r3, .L13
 157 0012 4FF44072 		mov	r2, #768
 158 0016 9A81     		strh	r2, [r3, #12]	@ movhi
 159 0018 064B     		ldr	r3, .L13
 160 001a 084A     		ldr	r2, .L13+8
 161 001c 1A61     		str	r2, [r3, #16]
 162 001e 054B     		ldr	r3, .L13
 163 0020 074A     		ldr	r2, .L13+12
 164 0022 9A61     		str	r2, [r3, #24]
 165 0024 034B     		ldr	r3, .L13
ARM GAS  /var/folders/d2/nstgp4h54kz7g1l847x_b8wc0000gn/T//cc79jbRG.s 			page 4


 166 0026 0022     		movs	r2, #0
 167 0028 5A61     		str	r2, [r3, #20]
 168 002a 024B     		ldr	r3, .L13
 169 002c 0022     		movs	r2, #0
 170 002e DA61     		str	r2, [r3, #28]
 171 0030 00BF     		nop
 172 0032 80BD     		pop	{r7, pc}
 173              	.L14:
 174              		.align	2
 175              	.L13:
 176 0034 00000000 		.word	I2SD2
 177 0038 00380040 		.word	1073756160
 178 003c 24000000 		.word	_stm32_dma_streams+36
 179 0040 1E2D0100 		.word	77086
 180              		.size	i2s_lld_init, .-i2s_lld_init
 181              		.section	.text.i2s_lld_start,"ax",%progbits
 182              		.align	1
 183              		.global	i2s_lld_start
 184              		.syntax unified
 185              		.thumb
 186              		.thumb_func
 187              		.fpu fpv4-sp-d16
 188              		.type	i2s_lld_start, %function
 189              	i2s_lld_start:
 190              		@ args = 0, pretend = 0, frame = 16
 191              		@ frame_needed = 1, uses_anonymous_args = 0
 192 0000 80B5     		push	{r7, lr}
 193 0002 84B0     		sub	sp, sp, #16
 194 0004 00AF     		add	r7, sp, #0
 195 0006 7860     		str	r0, [r7, #4]
 196 0008 7B68     		ldr	r3, [r7, #4]
 197 000a 1B78     		ldrb	r3, [r3]	@ zero_extendqisi2
 198 000c 012B     		cmp	r3, #1
 199 000e 44D1     		bne	.L16
 200 0010 7B68     		ldr	r3, [r7, #4]
 201 0012 2E4A     		ldr	r2, .L20
 202 0014 9342     		cmp	r3, r2
 203 0016 1CD1     		bne	.L17
 204 0018 2D4B     		ldr	r3, .L20+4
 205 001a 1B6C     		ldr	r3, [r3, #64]
 206 001c 2C4A     		ldr	r2, .L20+4
 207 001e 43F48043 		orr	r3, r3, #16384
 208 0022 1364     		str	r3, [r2, #64]
 209 0024 7B68     		ldr	r3, [r7, #4]
 210 0026 1869     		ldr	r0, [r3, #16]
 211 0028 7B68     		ldr	r3, [r7, #4]
 212 002a 2A4A     		ldr	r2, .L20+8
 213 002c 0A21     		movs	r1, #10
 214 002e FFF7FEFF 		bl	dmaStreamAllocate
 215 0032 0346     		mov	r3, r0
 216 0034 FB73     		strb	r3, [r7, #15]
 217 0036 FB7B     		ldrb	r3, [r7, #15]	@ zero_extendqisi2
 218 0038 002B     		cmp	r3, #0
 219 003a 02D0     		beq	.L18
 220 003c 2648     		ldr	r0, .L20+12
 221 003e FFF7FEFF 		bl	chSysHalt
 222              	.L18:
ARM GAS  /var/folders/d2/nstgp4h54kz7g1l847x_b8wc0000gn/T//cc79jbRG.s 			page 5


 223 0042 7B68     		ldr	r3, [r7, #4]
 224 0044 9B68     		ldr	r3, [r3, #8]
 225 0046 0022     		movs	r2, #0
 226 0048 1A60     		str	r2, [r3]
 227 004a 7B68     		ldr	r3, [r7, #4]
 228 004c 9B68     		ldr	r3, [r3, #8]
 229 004e 0122     		movs	r2, #1
 230 0050 5A60     		str	r2, [r3, #4]
 231              	.L17:
 232 0052 7B68     		ldr	r3, [r7, #4]
 233 0054 1B69     		ldr	r3, [r3, #16]
 234 0056 002B     		cmp	r3, #0
 235 0058 0DD0     		beq	.L19
 236 005a 7B68     		ldr	r3, [r7, #4]
 237 005c 1B69     		ldr	r3, [r3, #16]
 238 005e 1B68     		ldr	r3, [r3]
 239 0060 7A68     		ldr	r2, [r7, #4]
 240 0062 9269     		ldr	r2, [r2, #24]
 241 0064 1A60     		str	r2, [r3]
 242 0066 7B68     		ldr	r3, [r7, #4]
 243 0068 9B68     		ldr	r3, [r3, #8]
 244 006a 03F10C02 		add	r2, r3, #12
 245 006e 7B68     		ldr	r3, [r7, #4]
 246 0070 1B69     		ldr	r3, [r3, #16]
 247 0072 1B68     		ldr	r3, [r3]
 248 0074 9A60     		str	r2, [r3, #8]
 249              	.L19:
 250 0076 7B68     		ldr	r3, [r7, #4]
 251 0078 5B69     		ldr	r3, [r3, #20]
 252 007a 002B     		cmp	r3, #0
 253 007c 0DD0     		beq	.L16
 254 007e 7B68     		ldr	r3, [r7, #4]
 255 0080 5B69     		ldr	r3, [r3, #20]
 256 0082 1B68     		ldr	r3, [r3]
 257 0084 7A68     		ldr	r2, [r7, #4]
 258 0086 D269     		ldr	r2, [r2, #28]
 259 0088 1A60     		str	r2, [r3]
 260 008a 7B68     		ldr	r3, [r7, #4]
 261 008c 9B68     		ldr	r3, [r3, #8]
 262 008e 03F10C02 		add	r2, r3, #12
 263 0092 7B68     		ldr	r3, [r7, #4]
 264 0094 5B69     		ldr	r3, [r3, #20]
 265 0096 1B68     		ldr	r3, [r3]
 266 0098 9A60     		str	r2, [r3, #8]
 267              	.L16:
 268 009a 7B68     		ldr	r3, [r7, #4]
 269 009c 5B68     		ldr	r3, [r3, #4]
 270 009e B3F91220 		ldrsh	r2, [r3, #18]
 271 00a2 7B68     		ldr	r3, [r7, #4]
 272 00a4 9B68     		ldr	r3, [r3, #8]
 273 00a6 1A62     		str	r2, [r3, #32]
 274 00a8 7B68     		ldr	r3, [r7, #4]
 275 00aa 5B68     		ldr	r3, [r3, #4]
 276 00ac B3F91030 		ldrsh	r3, [r3, #16]
 277 00b0 1A46     		mov	r2, r3
 278 00b2 7B68     		ldr	r3, [r7, #4]
 279 00b4 9B89     		ldrh	r3, [r3, #12]
ARM GAS  /var/folders/d2/nstgp4h54kz7g1l847x_b8wc0000gn/T//cc79jbRG.s 			page 6


 280 00b6 1343     		orrs	r3, r3, r2
 281 00b8 1A46     		mov	r2, r3
 282 00ba 7B68     		ldr	r3, [r7, #4]
 283 00bc 9B68     		ldr	r3, [r3, #8]
 284 00be 42F40062 		orr	r2, r2, #2048
 285 00c2 DA61     		str	r2, [r3, #28]
 286 00c4 00BF     		nop
 287 00c6 1037     		adds	r7, r7, #16
 288 00c8 BD46     		mov	sp, r7
 289              		@ sp needed
 290 00ca 80BD     		pop	{r7, pc}
 291              	.L21:
 292              		.align	2
 293              	.L20:
 294 00cc 00000000 		.word	I2SD2
 295 00d0 00380240 		.word	1073887232
 296 00d4 00000000 		.word	i2s_lld_serve_rx_interrupt
 297 00d8 00000000 		.word	__func__.9850
 298              		.size	i2s_lld_start, .-i2s_lld_start
 299              		.section	.text.i2s_lld_stop,"ax",%progbits
 300              		.align	1
 301              		.global	i2s_lld_stop
 302              		.syntax unified
 303              		.thumb
 304              		.thumb_func
 305              		.fpu fpv4-sp-d16
 306              		.type	i2s_lld_stop, %function
 307              	i2s_lld_stop:
 308              		@ args = 0, pretend = 0, frame = 8
 309              		@ frame_needed = 1, uses_anonymous_args = 0
 310 0000 80B5     		push	{r7, lr}
 311 0002 82B0     		sub	sp, sp, #8
 312 0004 00AF     		add	r7, sp, #0
 313 0006 7860     		str	r0, [r7, #4]
 314 0008 7B68     		ldr	r3, [r7, #4]
 315 000a 1B78     		ldrb	r3, [r3]	@ zero_extendqisi2
 316 000c 022B     		cmp	r3, #2
 317 000e 1FD1     		bne	.L26
 318 0010 7B68     		ldr	r3, [r7, #4]
 319 0012 9B68     		ldr	r3, [r3, #8]
 320 0014 0022     		movs	r2, #0
 321 0016 5A60     		str	r2, [r3, #4]
 322 0018 7B68     		ldr	r3, [r7, #4]
 323 001a 1B69     		ldr	r3, [r3, #16]
 324 001c 002B     		cmp	r3, #0
 325 001e 04D0     		beq	.L24
 326 0020 7B68     		ldr	r3, [r7, #4]
 327 0022 1B69     		ldr	r3, [r3, #16]
 328 0024 1846     		mov	r0, r3
 329 0026 FFF7FEFF 		bl	dmaStreamRelease
 330              	.L24:
 331 002a 7B68     		ldr	r3, [r7, #4]
 332 002c 5B69     		ldr	r3, [r3, #20]
 333 002e 002B     		cmp	r3, #0
 334 0030 04D0     		beq	.L25
 335 0032 7B68     		ldr	r3, [r7, #4]
 336 0034 5B69     		ldr	r3, [r3, #20]
ARM GAS  /var/folders/d2/nstgp4h54kz7g1l847x_b8wc0000gn/T//cc79jbRG.s 			page 7


 337 0036 1846     		mov	r0, r3
 338 0038 FFF7FEFF 		bl	dmaStreamRelease
 339              	.L25:
 340 003c 7B68     		ldr	r3, [r7, #4]
 341 003e 064A     		ldr	r2, .L27
 342 0040 9342     		cmp	r3, r2
 343 0042 05D1     		bne	.L26
 344 0044 054B     		ldr	r3, .L27+4
 345 0046 1B6C     		ldr	r3, [r3, #64]
 346 0048 044A     		ldr	r2, .L27+4
 347 004a 23F48043 		bic	r3, r3, #16384
 348 004e 1364     		str	r3, [r2, #64]
 349              	.L26:
 350 0050 00BF     		nop
 351 0052 0837     		adds	r7, r7, #8
 352 0054 BD46     		mov	sp, r7
 353              		@ sp needed
 354 0056 80BD     		pop	{r7, pc}
 355              	.L28:
 356              		.align	2
 357              	.L27:
 358 0058 00000000 		.word	I2SD2
 359 005c 00380240 		.word	1073887232
 360              		.size	i2s_lld_stop, .-i2s_lld_stop
 361              		.section	.text.i2s_lld_start_exchange,"ax",%progbits
 362              		.align	1
 363              		.global	i2s_lld_start_exchange
 364              		.syntax unified
 365              		.thumb
 366              		.thumb_func
 367              		.fpu fpv4-sp-d16
 368              		.type	i2s_lld_start_exchange, %function
 369              	i2s_lld_start_exchange:
 370              		@ args = 0, pretend = 0, frame = 16
 371              		@ frame_needed = 1, uses_anonymous_args = 0
 372              		@ link register save eliminated.
 373 0000 80B4     		push	{r7}
 374 0002 85B0     		sub	sp, sp, #20
 375 0004 00AF     		add	r7, sp, #0
 376 0006 7860     		str	r0, [r7, #4]
 377 0008 7B68     		ldr	r3, [r7, #4]
 378 000a 5B68     		ldr	r3, [r3, #4]
 379 000c 9B68     		ldr	r3, [r3, #8]
 380 000e FB60     		str	r3, [r7, #12]
 381 0010 7B68     		ldr	r3, [r7, #4]
 382 0012 5B68     		ldr	r3, [r3, #4]
 383 0014 B3F91030 		ldrsh	r3, [r3, #16]
 384 0018 9BB2     		uxth	r3, r3
 385 001a 03F00603 		and	r3, r3, #6
 386 001e 002B     		cmp	r3, #0
 387 0020 02D0     		beq	.L30
 388 0022 FB68     		ldr	r3, [r7, #12]
 389 0024 5B00     		lsls	r3, r3, #1
 390 0026 FB60     		str	r3, [r7, #12]
 391              	.L30:
 392 0028 7B68     		ldr	r3, [r7, #4]
 393 002a 1B69     		ldr	r3, [r3, #16]
ARM GAS  /var/folders/d2/nstgp4h54kz7g1l847x_b8wc0000gn/T//cc79jbRG.s 			page 8


 394 002c 002B     		cmp	r3, #0
 395 002e 15D0     		beq	.L31
 396 0030 7B68     		ldr	r3, [r7, #4]
 397 0032 5B68     		ldr	r3, [r3, #4]
 398 0034 5A68     		ldr	r2, [r3, #4]
 399 0036 7B68     		ldr	r3, [r7, #4]
 400 0038 1B69     		ldr	r3, [r3, #16]
 401 003a 1B68     		ldr	r3, [r3]
 402 003c DA60     		str	r2, [r3, #12]
 403 003e 7B68     		ldr	r3, [r7, #4]
 404 0040 1B69     		ldr	r3, [r3, #16]
 405 0042 1B68     		ldr	r3, [r3]
 406 0044 FA68     		ldr	r2, [r7, #12]
 407 0046 5A60     		str	r2, [r3, #4]
 408 0048 7B68     		ldr	r3, [r7, #4]
 409 004a 1B69     		ldr	r3, [r3, #16]
 410 004c 1B68     		ldr	r3, [r3]
 411 004e 1A68     		ldr	r2, [r3]
 412 0050 7B68     		ldr	r3, [r7, #4]
 413 0052 1B69     		ldr	r3, [r3, #16]
 414 0054 1B68     		ldr	r3, [r3]
 415 0056 42F00102 		orr	r2, r2, #1
 416 005a 1A60     		str	r2, [r3]
 417              	.L31:
 418 005c 7B68     		ldr	r3, [r7, #4]
 419 005e 5B69     		ldr	r3, [r3, #20]
 420 0060 002B     		cmp	r3, #0
 421 0062 15D0     		beq	.L32
 422 0064 7B68     		ldr	r3, [r7, #4]
 423 0066 5B68     		ldr	r3, [r3, #4]
 424 0068 1A68     		ldr	r2, [r3]
 425 006a 7B68     		ldr	r3, [r7, #4]
 426 006c 5B69     		ldr	r3, [r3, #20]
 427 006e 1B68     		ldr	r3, [r3]
 428 0070 DA60     		str	r2, [r3, #12]
 429 0072 7B68     		ldr	r3, [r7, #4]
 430 0074 5B69     		ldr	r3, [r3, #20]
 431 0076 1B68     		ldr	r3, [r3]
 432 0078 FA68     		ldr	r2, [r7, #12]
 433 007a 5A60     		str	r2, [r3, #4]
 434 007c 7B68     		ldr	r3, [r7, #4]
 435 007e 5B69     		ldr	r3, [r3, #20]
 436 0080 1B68     		ldr	r3, [r3]
 437 0082 1A68     		ldr	r2, [r3]
 438 0084 7B68     		ldr	r3, [r7, #4]
 439 0086 5B69     		ldr	r3, [r3, #20]
 440 0088 1B68     		ldr	r3, [r3]
 441 008a 42F00102 		orr	r2, r2, #1
 442 008e 1A60     		str	r2, [r3]
 443              	.L32:
 444 0090 7B68     		ldr	r3, [r7, #4]
 445 0092 9B68     		ldr	r3, [r3, #8]
 446 0094 DA69     		ldr	r2, [r3, #28]
 447 0096 7B68     		ldr	r3, [r7, #4]
 448 0098 9B68     		ldr	r3, [r3, #8]
 449 009a 42F48062 		orr	r2, r2, #1024
 450 009e DA61     		str	r2, [r3, #28]
ARM GAS  /var/folders/d2/nstgp4h54kz7g1l847x_b8wc0000gn/T//cc79jbRG.s 			page 9


 451 00a0 00BF     		nop
 452 00a2 1437     		adds	r7, r7, #20
 453 00a4 BD46     		mov	sp, r7
 454              		@ sp needed
 455 00a6 5DF8047B 		ldr	r7, [sp], #4
 456 00aa 7047     		bx	lr
 457              		.size	i2s_lld_start_exchange, .-i2s_lld_start_exchange
 458              		.section	.text.i2s_lld_stop_exchange,"ax",%progbits
 459              		.align	1
 460              		.global	i2s_lld_stop_exchange
 461              		.syntax unified
 462              		.thumb
 463              		.thumb_func
 464              		.fpu fpv4-sp-d16
 465              		.type	i2s_lld_stop_exchange, %function
 466              	i2s_lld_stop_exchange:
 467              		@ args = 0, pretend = 0, frame = 8
 468              		@ frame_needed = 1, uses_anonymous_args = 0
 469              		@ link register save eliminated.
 470 0000 80B4     		push	{r7}
 471 0002 83B0     		sub	sp, sp, #12
 472 0004 00AF     		add	r7, sp, #0
 473 0006 7860     		str	r0, [r7, #4]
 474 0008 7B68     		ldr	r3, [r7, #4]
 475 000a 5B69     		ldr	r3, [r3, #20]
 476 000c 002B     		cmp	r3, #0
 477 000e 25D0     		beq	.L34
 478 0010 7B68     		ldr	r3, [r7, #4]
 479 0012 5B69     		ldr	r3, [r3, #20]
 480 0014 1B68     		ldr	r3, [r3]
 481 0016 1A68     		ldr	r2, [r3]
 482 0018 7B68     		ldr	r3, [r7, #4]
 483 001a 5B69     		ldr	r3, [r3, #20]
 484 001c 1B68     		ldr	r3, [r3]
 485 001e 22F01F02 		bic	r2, r2, #31
 486 0022 1A60     		str	r2, [r3]
 487 0024 00BF     		nop
 488              	.L35:
 489 0026 7B68     		ldr	r3, [r7, #4]
 490 0028 5B69     		ldr	r3, [r3, #20]
 491 002a 1B68     		ldr	r3, [r3]
 492 002c 1B68     		ldr	r3, [r3]
 493 002e 03F00103 		and	r3, r3, #1
 494 0032 002B     		cmp	r3, #0
 495 0034 F7D1     		bne	.L35
 496 0036 7B68     		ldr	r3, [r7, #4]
 497 0038 5B69     		ldr	r3, [r3, #20]
 498 003a 1B7A     		ldrb	r3, [r3, #8]	@ zero_extendqisi2
 499 003c 1A46     		mov	r2, r3
 500 003e 3D23     		movs	r3, #61
 501 0040 03FA02F2 		lsl	r2, r3, r2
 502 0044 7B68     		ldr	r3, [r7, #4]
 503 0046 5B69     		ldr	r3, [r3, #20]
 504 0048 5B68     		ldr	r3, [r3, #4]
 505 004a 1A60     		str	r2, [r3]
 506 004c 00BF     		nop
 507              	.L36:
ARM GAS  /var/folders/d2/nstgp4h54kz7g1l847x_b8wc0000gn/T//cc79jbRG.s 			page 10


 508 004e 7B68     		ldr	r3, [r7, #4]
 509 0050 9B68     		ldr	r3, [r3, #8]
 510 0052 9B68     		ldr	r3, [r3, #8]
 511 0054 03F08203 		and	r3, r3, #130
 512 0058 022B     		cmp	r3, #2
 513 005a F8D1     		bne	.L36
 514              	.L34:
 515 005c 7B68     		ldr	r3, [r7, #4]
 516 005e 9B68     		ldr	r3, [r3, #8]
 517 0060 DA69     		ldr	r2, [r3, #28]
 518 0062 7B68     		ldr	r3, [r7, #4]
 519 0064 9B68     		ldr	r3, [r3, #8]
 520 0066 22F48062 		bic	r2, r2, #1024
 521 006a DA61     		str	r2, [r3, #28]
 522 006c 7B68     		ldr	r3, [r7, #4]
 523 006e 1B69     		ldr	r3, [r3, #16]
 524 0070 002B     		cmp	r3, #0
 525 0072 1DD0     		beq	.L39
 526 0074 7B68     		ldr	r3, [r7, #4]
 527 0076 1B69     		ldr	r3, [r3, #16]
 528 0078 1B68     		ldr	r3, [r3]
 529 007a 1A68     		ldr	r2, [r3]
 530 007c 7B68     		ldr	r3, [r7, #4]
 531 007e 1B69     		ldr	r3, [r3, #16]
 532 0080 1B68     		ldr	r3, [r3]
 533 0082 22F01F02 		bic	r2, r2, #31
 534 0086 1A60     		str	r2, [r3]
 535 0088 00BF     		nop
 536              	.L38:
 537 008a 7B68     		ldr	r3, [r7, #4]
 538 008c 1B69     		ldr	r3, [r3, #16]
 539 008e 1B68     		ldr	r3, [r3]
 540 0090 1B68     		ldr	r3, [r3]
 541 0092 03F00103 		and	r3, r3, #1
 542 0096 002B     		cmp	r3, #0
 543 0098 F7D1     		bne	.L38
 544 009a 7B68     		ldr	r3, [r7, #4]
 545 009c 1B69     		ldr	r3, [r3, #16]
 546 009e 1B7A     		ldrb	r3, [r3, #8]	@ zero_extendqisi2
 547 00a0 1A46     		mov	r2, r3
 548 00a2 3D23     		movs	r3, #61
 549 00a4 03FA02F2 		lsl	r2, r3, r2
 550 00a8 7B68     		ldr	r3, [r7, #4]
 551 00aa 1B69     		ldr	r3, [r3, #16]
 552 00ac 5B68     		ldr	r3, [r3, #4]
 553 00ae 1A60     		str	r2, [r3]
 554              	.L39:
 555 00b0 00BF     		nop
 556 00b2 0C37     		adds	r7, r7, #12
 557 00b4 BD46     		mov	sp, r7
 558              		@ sp needed
 559 00b6 5DF8047B 		ldr	r7, [sp], #4
 560 00ba 7047     		bx	lr
 561              		.size	i2s_lld_stop_exchange, .-i2s_lld_stop_exchange
 562              		.section	.rodata.__func__.9850,"a",%progbits
 563              		.align	2
 564              		.type	__func__.9850, %object
ARM GAS  /var/folders/d2/nstgp4h54kz7g1l847x_b8wc0000gn/T//cc79jbRG.s 			page 11


 565              		.size	__func__.9850, 14
 566              	__func__.9850:
 567 0000 6932735F 		.ascii	"i2s_lld_start\000"
 567      6C6C645F 
 567      73746172 
 567      7400
 568              		.ident	"GCC: (GNU Tools for Arm Embedded Processors 7-2017-q4-major) 7.2.1 20170904 (release) [ARM
ARM GAS  /var/folders/d2/nstgp4h54kz7g1l847x_b8wc0000gn/T//cc79jbRG.s 			page 12

