ARM GAS  /var/folders/d2/nstgp4h54kz7g1l847x_b8wc0000gn/T//ccswAhZN.s 			page 1


   1              		.cpu cortex-m4
   2              		.eabi_attribute 27, 1
   3              		.eabi_attribute 28, 1
   4              		.eabi_attribute 20, 1
   5              		.eabi_attribute 21, 1
   6              		.eabi_attribute 23, 3
   7              		.eabi_attribute 24, 1
   8              		.eabi_attribute 25, 1
   9              		.eabi_attribute 26, 1
  10              		.eabi_attribute 30, 6
  11              		.eabi_attribute 34, 1
  12              		.eabi_attribute 18, 4
  13              		.file	"leds.c"
  14              		.section	.bss.rgb_led,"aw",%nobits
  15              		.align	2
  16              		.type	rgb_led, %object
  17              		.size	rgb_led, 12
  18              	rgb_led:
  19 0000 00000000 		.space	12
  19      00000000 
  19      00000000 
  20              		.section	.text.set_led,"ax",%progbits
  21              		.align	1
  22              		.global	set_led
  23              		.syntax unified
  24              		.thumb
  25              		.thumb_func
  26              		.fpu fpv4-sp-d16
  27              		.type	set_led, %function
  28              	set_led:
  29              		@ args = 0, pretend = 0, frame = 16
  30              		@ frame_needed = 1, uses_anonymous_args = 0
  31 0000 80B5     		push	{r7, lr}
  32 0002 84B0     		sub	sp, sp, #16
  33 0004 00AF     		add	r7, sp, #0
  34 0006 0346     		mov	r3, r0
  35 0008 3960     		str	r1, [r7]
  36 000a FB71     		strb	r3, [r7, #7]
  37 000c FB79     		ldrb	r3, [r7, #7]	@ zero_extendqisi2
  38 000e 032B     		cmp	r3, #3
  39 0010 62D8     		bhi	.L2
  40 0012 01A2     		adr	r2, .L4
  41 0014 52F823F0 		ldr	pc, [r2, r3, lsl #2]
  42              		.p2align 2
  43              	.L4:
  44 0018 29000000 		.word	.L3+1
  45 001c 53000000 		.word	.L5+1
  46 0020 7D000000 		.word	.L6+1
  47 0024 AB000000 		.word	.L7+1
  48              		.p2align 1
  49              	.L3:
  50 0028 3B68     		ldr	r3, [r7]
  51 002a 012B     		cmp	r3, #1
  52 002c 06D9     		bls	.L8
  53 002e 344B     		ldr	r3, .L23
  54 0030 5B69     		ldr	r3, [r3, #20]
  55 0032 334A     		ldr	r2, .L23
ARM GAS  /var/folders/d2/nstgp4h54kz7g1l847x_b8wc0000gn/T//ccswAhZN.s 			page 2


  56 0034 83F02003 		eor	r3, r3, #32
  57 0038 5361     		str	r3, [r2, #20]
  58 003a 5CE0     		b	.L11
  59              	.L8:
  60 003c 3B68     		ldr	r3, [r7]
  61 003e 002B     		cmp	r3, #0
  62 0040 03D0     		beq	.L10
  63 0042 2F4B     		ldr	r3, .L23
  64 0044 2022     		movs	r2, #32
  65 0046 5A83     		strh	r2, [r3, #26]	@ movhi
  66 0048 55E0     		b	.L11
  67              	.L10:
  68 004a 2D4B     		ldr	r3, .L23
  69 004c 2022     		movs	r2, #32
  70 004e 1A83     		strh	r2, [r3, #24]	@ movhi
  71 0050 51E0     		b	.L11
  72              	.L5:
  73 0052 3B68     		ldr	r3, [r7]
  74 0054 012B     		cmp	r3, #1
  75 0056 06D9     		bls	.L12
  76 0058 294B     		ldr	r3, .L23
  77 005a 5B69     		ldr	r3, [r3, #20]
  78 005c 284A     		ldr	r2, .L23
  79 005e 83F04003 		eor	r3, r3, #64
  80 0062 5361     		str	r3, [r2, #20]
  81 0064 47E0     		b	.L11
  82              	.L12:
  83 0066 3B68     		ldr	r3, [r7]
  84 0068 002B     		cmp	r3, #0
  85 006a 03D0     		beq	.L14
  86 006c 244B     		ldr	r3, .L23
  87 006e 4022     		movs	r2, #64
  88 0070 5A83     		strh	r2, [r3, #26]	@ movhi
  89 0072 40E0     		b	.L11
  90              	.L14:
  91 0074 224B     		ldr	r3, .L23
  92 0076 4022     		movs	r2, #64
  93 0078 1A83     		strh	r2, [r3, #24]	@ movhi
  94 007a 3CE0     		b	.L11
  95              	.L6:
  96 007c 3B68     		ldr	r3, [r7]
  97 007e 012B     		cmp	r3, #1
  98 0080 06D9     		bls	.L15
  99 0082 1F4B     		ldr	r3, .L23
 100 0084 5B69     		ldr	r3, [r3, #20]
 101 0086 1E4A     		ldr	r2, .L23
 102 0088 83F48063 		eor	r3, r3, #1024
 103 008c 5361     		str	r3, [r2, #20]
 104 008e 32E0     		b	.L11
 105              	.L15:
 106 0090 3B68     		ldr	r3, [r7]
 107 0092 002B     		cmp	r3, #0
 108 0094 04D0     		beq	.L17
 109 0096 1A4B     		ldr	r3, .L23
 110 0098 4FF48062 		mov	r2, #1024
 111 009c 5A83     		strh	r2, [r3, #26]	@ movhi
 112 009e 2AE0     		b	.L11
ARM GAS  /var/folders/d2/nstgp4h54kz7g1l847x_b8wc0000gn/T//ccswAhZN.s 			page 3


 113              	.L17:
 114 00a0 174B     		ldr	r3, .L23
 115 00a2 4FF48062 		mov	r2, #1024
 116 00a6 1A83     		strh	r2, [r3, #24]	@ movhi
 117 00a8 25E0     		b	.L11
 118              	.L7:
 119 00aa 3B68     		ldr	r3, [r7]
 120 00ac 012B     		cmp	r3, #1
 121 00ae 06D9     		bls	.L18
 122 00b0 134B     		ldr	r3, .L23
 123 00b2 5B69     		ldr	r3, [r3, #20]
 124 00b4 124A     		ldr	r2, .L23
 125 00b6 83F40063 		eor	r3, r3, #2048
 126 00ba 5361     		str	r3, [r2, #20]
 127 00bc 1BE0     		b	.L11
 128              	.L18:
 129 00be 3B68     		ldr	r3, [r7]
 130 00c0 002B     		cmp	r3, #0
 131 00c2 04D0     		beq	.L20
 132 00c4 0E4B     		ldr	r3, .L23
 133 00c6 4FF40062 		mov	r2, #2048
 134 00ca 5A83     		strh	r2, [r3, #26]	@ movhi
 135 00cc 13E0     		b	.L11
 136              	.L20:
 137 00ce 0C4B     		ldr	r3, .L23
 138 00d0 4FF40062 		mov	r2, #2048
 139 00d4 1A83     		strh	r2, [r3, #24]	@ movhi
 140 00d6 0EE0     		b	.L11
 141              	.L2:
 142 00d8 0023     		movs	r3, #0
 143 00da FB60     		str	r3, [r7, #12]
 144 00dc 08E0     		b	.L21
 145              	.L22:
 146 00de FB68     		ldr	r3, [r7, #12]
 147 00e0 DBB2     		uxtb	r3, r3
 148 00e2 3968     		ldr	r1, [r7]
 149 00e4 1846     		mov	r0, r3
 150 00e6 FFF7FEFF 		bl	set_led
 151 00ea FB68     		ldr	r3, [r7, #12]
 152 00ec 0133     		adds	r3, r3, #1
 153 00ee FB60     		str	r3, [r7, #12]
 154              	.L21:
 155 00f0 FB68     		ldr	r3, [r7, #12]
 156 00f2 032B     		cmp	r3, #3
 157 00f4 F3DD     		ble	.L22
 158              	.L11:
 159 00f6 00BF     		nop
 160 00f8 1037     		adds	r7, r7, #16
 161 00fa BD46     		mov	sp, r7
 162              		@ sp needed
 163 00fc 80BD     		pop	{r7, pc}
 164              	.L24:
 165 00fe 00BF     		.align	2
 166              	.L23:
 167 0100 000C0240 		.word	1073875968
 168              		.size	set_led, .-set_led
 169              		.section	.text.set_rgb_led,"ax",%progbits
ARM GAS  /var/folders/d2/nstgp4h54kz7g1l847x_b8wc0000gn/T//ccswAhZN.s 			page 4


 170              		.align	1
 171              		.global	set_rgb_led
 172              		.syntax unified
 173              		.thumb
 174              		.thumb_func
 175              		.fpu fpv4-sp-d16
 176              		.type	set_rgb_led, %function
 177              	set_rgb_led:
 178              		@ args = 0, pretend = 0, frame = 8
 179              		@ frame_needed = 1, uses_anonymous_args = 0
 180 0000 90B5     		push	{r4, r7, lr}
 181 0002 83B0     		sub	sp, sp, #12
 182 0004 00AF     		add	r7, sp, #0
 183 0006 0446     		mov	r4, r0
 184 0008 0846     		mov	r0, r1
 185 000a 1146     		mov	r1, r2
 186 000c 1A46     		mov	r2, r3
 187 000e 2346     		mov	r3, r4
 188 0010 FB71     		strb	r3, [r7, #7]
 189 0012 0346     		mov	r3, r0
 190 0014 BB71     		strb	r3, [r7, #6]
 191 0016 0B46     		mov	r3, r1
 192 0018 7B71     		strb	r3, [r7, #5]
 193 001a 1346     		mov	r3, r2
 194 001c 3B71     		strb	r3, [r7, #4]
 195 001e FFF7FEFF 		bl	spi_rgb_setting_is_enabled
 196 0022 0346     		mov	r3, r0
 197 0024 002B     		cmp	r3, #0
 198 0026 01D1     		bne	.L26
 199 0028 FFF7FEFF 		bl	spi_rgb_setting_enable
 200              	.L26:
 201 002c FA79     		ldrb	r2, [r7, #7]	@ zero_extendqisi2
 202 002e 0E49     		ldr	r1, .L27
 203 0030 1346     		mov	r3, r2
 204 0032 5B00     		lsls	r3, r3, #1
 205 0034 1344     		add	r3, r3, r2
 206 0036 0B44     		add	r3, r3, r1
 207 0038 BA79     		ldrb	r2, [r7, #6]
 208 003a 1A70     		strb	r2, [r3]
 209 003c FA79     		ldrb	r2, [r7, #7]	@ zero_extendqisi2
 210 003e 0A49     		ldr	r1, .L27
 211 0040 1346     		mov	r3, r2
 212 0042 5B00     		lsls	r3, r3, #1
 213 0044 1344     		add	r3, r3, r2
 214 0046 0B44     		add	r3, r3, r1
 215 0048 0133     		adds	r3, r3, #1
 216 004a 7A79     		ldrb	r2, [r7, #5]
 217 004c 1A70     		strb	r2, [r3]
 218 004e FA79     		ldrb	r2, [r7, #7]	@ zero_extendqisi2
 219 0050 0549     		ldr	r1, .L27
 220 0052 1346     		mov	r3, r2
 221 0054 5B00     		lsls	r3, r3, #1
 222 0056 1344     		add	r3, r3, r2
 223 0058 0B44     		add	r3, r3, r1
 224 005a 0233     		adds	r3, r3, #2
 225 005c 3A79     		ldrb	r2, [r7, #4]
 226 005e 1A70     		strb	r2, [r3]
ARM GAS  /var/folders/d2/nstgp4h54kz7g1l847x_b8wc0000gn/T//ccswAhZN.s 			page 5


 227 0060 00BF     		nop
 228 0062 0C37     		adds	r7, r7, #12
 229 0064 BD46     		mov	sp, r7
 230              		@ sp needed
 231 0066 90BD     		pop	{r4, r7, pc}
 232              	.L28:
 233              		.align	2
 234              	.L27:
 235 0068 00000000 		.word	rgb_led
 236              		.size	set_rgb_led, .-set_rgb_led
 237              		.section	.text.toggle_rgb_led,"ax",%progbits
 238              		.align	1
 239              		.global	toggle_rgb_led
 240              		.syntax unified
 241              		.thumb
 242              		.thumb_func
 243              		.fpu fpv4-sp-d16
 244              		.type	toggle_rgb_led, %function
 245              	toggle_rgb_led:
 246              		@ args = 0, pretend = 0, frame = 8
 247              		@ frame_needed = 1, uses_anonymous_args = 0
 248 0000 80B5     		push	{r7, lr}
 249 0002 82B0     		sub	sp, sp, #8
 250 0004 00AF     		add	r7, sp, #0
 251 0006 0346     		mov	r3, r0
 252 0008 FB71     		strb	r3, [r7, #7]
 253 000a 0B46     		mov	r3, r1
 254 000c BB71     		strb	r3, [r7, #6]
 255 000e 1346     		mov	r3, r2
 256 0010 7B71     		strb	r3, [r7, #5]
 257 0012 FFF7FEFF 		bl	spi_rgb_setting_is_enabled
 258 0016 0346     		mov	r3, r0
 259 0018 002B     		cmp	r3, #0
 260 001a 01D1     		bne	.L30
 261 001c FFF7FEFF 		bl	spi_rgb_setting_enable
 262              	.L30:
 263 0020 FA79     		ldrb	r2, [r7, #7]	@ zero_extendqisi2
 264 0022 B979     		ldrb	r1, [r7, #6]	@ zero_extendqisi2
 265 0024 1048     		ldr	r0, .L34
 266 0026 1346     		mov	r3, r2
 267 0028 5B00     		lsls	r3, r3, #1
 268 002a 1344     		add	r3, r3, r2
 269 002c 0344     		add	r3, r3, r0
 270 002e 0B44     		add	r3, r3, r1
 271 0030 1B78     		ldrb	r3, [r3]	@ zero_extendqisi2
 272 0032 002B     		cmp	r3, #0
 273 0034 0AD0     		beq	.L31
 274 0036 FA79     		ldrb	r2, [r7, #7]	@ zero_extendqisi2
 275 0038 B979     		ldrb	r1, [r7, #6]	@ zero_extendqisi2
 276 003a 0B48     		ldr	r0, .L34
 277 003c 1346     		mov	r3, r2
 278 003e 5B00     		lsls	r3, r3, #1
 279 0040 1344     		add	r3, r3, r2
 280 0042 0344     		add	r3, r3, r0
 281 0044 0B44     		add	r3, r3, r1
 282 0046 0022     		movs	r2, #0
 283 0048 1A70     		strb	r2, [r3]
ARM GAS  /var/folders/d2/nstgp4h54kz7g1l847x_b8wc0000gn/T//ccswAhZN.s 			page 6


 284 004a 09E0     		b	.L33
 285              	.L31:
 286 004c FA79     		ldrb	r2, [r7, #7]	@ zero_extendqisi2
 287 004e B979     		ldrb	r1, [r7, #6]	@ zero_extendqisi2
 288 0050 0548     		ldr	r0, .L34
 289 0052 1346     		mov	r3, r2
 290 0054 5B00     		lsls	r3, r3, #1
 291 0056 1344     		add	r3, r3, r2
 292 0058 0344     		add	r3, r3, r0
 293 005a 0B44     		add	r3, r3, r1
 294 005c 7A79     		ldrb	r2, [r7, #5]
 295 005e 1A70     		strb	r2, [r3]
 296              	.L33:
 297 0060 00BF     		nop
 298 0062 0837     		adds	r7, r7, #8
 299 0064 BD46     		mov	sp, r7
 300              		@ sp needed
 301 0066 80BD     		pop	{r7, pc}
 302              	.L35:
 303              		.align	2
 304              	.L34:
 305 0068 00000000 		.word	rgb_led
 306              		.size	toggle_rgb_led, .-toggle_rgb_led
 307              		.section	.text.set_body_led,"ax",%progbits
 308              		.align	1
 309              		.global	set_body_led
 310              		.syntax unified
 311              		.thumb
 312              		.thumb_func
 313              		.fpu fpv4-sp-d16
 314              		.type	set_body_led, %function
 315              	set_body_led:
 316              		@ args = 0, pretend = 0, frame = 8
 317              		@ frame_needed = 1, uses_anonymous_args = 0
 318              		@ link register save eliminated.
 319 0000 80B4     		push	{r7}
 320 0002 83B0     		sub	sp, sp, #12
 321 0004 00AF     		add	r7, sp, #0
 322 0006 7860     		str	r0, [r7, #4]
 323 0008 7B68     		ldr	r3, [r7, #4]
 324 000a 012B     		cmp	r3, #1
 325 000c 06D9     		bls	.L37
 326 000e 0B4B     		ldr	r3, .L41
 327 0010 5B69     		ldr	r3, [r3, #20]
 328 0012 0A4A     		ldr	r2, .L41
 329 0014 83F00403 		eor	r3, r3, #4
 330 0018 5361     		str	r3, [r2, #20]
 331 001a 09E0     		b	.L40
 332              	.L37:
 333 001c 7B68     		ldr	r3, [r7, #4]
 334 001e 002B     		cmp	r3, #0
 335 0020 03D0     		beq	.L39
 336 0022 064B     		ldr	r3, .L41
 337 0024 0422     		movs	r2, #4
 338 0026 1A83     		strh	r2, [r3, #24]	@ movhi
 339 0028 02E0     		b	.L40
 340              	.L39:
ARM GAS  /var/folders/d2/nstgp4h54kz7g1l847x_b8wc0000gn/T//ccswAhZN.s 			page 7


 341 002a 044B     		ldr	r3, .L41
 342 002c 0422     		movs	r2, #4
 343 002e 5A83     		strh	r2, [r3, #26]	@ movhi
 344              	.L40:
 345 0030 00BF     		nop
 346 0032 0C37     		adds	r7, r7, #12
 347 0034 BD46     		mov	sp, r7
 348              		@ sp needed
 349 0036 5DF8047B 		ldr	r7, [sp], #4
 350 003a 7047     		bx	lr
 351              	.L42:
 352              		.align	2
 353              	.L41:
 354 003c 00040240 		.word	1073873920
 355              		.size	set_body_led, .-set_body_led
 356              		.section	.text.set_front_led,"ax",%progbits
 357              		.align	1
 358              		.global	set_front_led
 359              		.syntax unified
 360              		.thumb
 361              		.thumb_func
 362              		.fpu fpv4-sp-d16
 363              		.type	set_front_led, %function
 364              	set_front_led:
 365              		@ args = 0, pretend = 0, frame = 8
 366              		@ frame_needed = 1, uses_anonymous_args = 0
 367              		@ link register save eliminated.
 368 0000 80B4     		push	{r7}
 369 0002 83B0     		sub	sp, sp, #12
 370 0004 00AF     		add	r7, sp, #0
 371 0006 7860     		str	r0, [r7, #4]
 372 0008 7B68     		ldr	r3, [r7, #4]
 373 000a 012B     		cmp	r3, #1
 374 000c 06D9     		bls	.L44
 375 000e 0C4B     		ldr	r3, .L48
 376 0010 5B69     		ldr	r3, [r3, #20]
 377 0012 0B4A     		ldr	r2, .L48
 378 0014 83F48043 		eor	r3, r3, #16384
 379 0018 5361     		str	r3, [r2, #20]
 380 001a 0BE0     		b	.L47
 381              	.L44:
 382 001c 7B68     		ldr	r3, [r7, #4]
 383 001e 002B     		cmp	r3, #0
 384 0020 04D0     		beq	.L46
 385 0022 074B     		ldr	r3, .L48
 386 0024 4FF48042 		mov	r2, #16384
 387 0028 1A83     		strh	r2, [r3, #24]	@ movhi
 388 002a 03E0     		b	.L47
 389              	.L46:
 390 002c 044B     		ldr	r3, .L48
 391 002e 4FF48042 		mov	r2, #16384
 392 0032 5A83     		strh	r2, [r3, #26]	@ movhi
 393              	.L47:
 394 0034 00BF     		nop
 395 0036 0C37     		adds	r7, r7, #12
 396 0038 BD46     		mov	sp, r7
 397              		@ sp needed
ARM GAS  /var/folders/d2/nstgp4h54kz7g1l847x_b8wc0000gn/T//ccswAhZN.s 			page 8


 398 003a 5DF8047B 		ldr	r7, [sp], #4
 399 003e 7047     		bx	lr
 400              	.L49:
 401              		.align	2
 402              	.L48:
 403 0040 000C0240 		.word	1073875968
 404              		.size	set_front_led, .-set_front_led
 405              		.section	.text.clear_leds,"ax",%progbits
 406              		.align	1
 407              		.global	clear_leds
 408              		.syntax unified
 409              		.thumb
 410              		.thumb_func
 411              		.fpu fpv4-sp-d16
 412              		.type	clear_leds, %function
 413              	clear_leds:
 414              		@ args = 0, pretend = 0, frame = 8
 415              		@ frame_needed = 1, uses_anonymous_args = 0
 416 0000 80B5     		push	{r7, lr}
 417 0002 82B0     		sub	sp, sp, #8
 418 0004 00AF     		add	r7, sp, #0
 419 0006 0023     		movs	r3, #0
 420 0008 7B60     		str	r3, [r7, #4]
 421 000a 0FE0     		b	.L51
 422              	.L52:
 423 000c 7B68     		ldr	r3, [r7, #4]
 424 000e DBB2     		uxtb	r3, r3
 425 0010 0021     		movs	r1, #0
 426 0012 1846     		mov	r0, r3
 427 0014 FFF7FEFF 		bl	set_led
 428 0018 7B68     		ldr	r3, [r7, #4]
 429 001a D8B2     		uxtb	r0, r3
 430 001c 0023     		movs	r3, #0
 431 001e 0022     		movs	r2, #0
 432 0020 0021     		movs	r1, #0
 433 0022 FFF7FEFF 		bl	set_rgb_led
 434 0026 7B68     		ldr	r3, [r7, #4]
 435 0028 0133     		adds	r3, r3, #1
 436 002a 7B60     		str	r3, [r7, #4]
 437              	.L51:
 438 002c 7B68     		ldr	r3, [r7, #4]
 439 002e 032B     		cmp	r3, #3
 440 0030 ECDD     		ble	.L52
 441 0032 00BF     		nop
 442 0034 0837     		adds	r7, r7, #8
 443 0036 BD46     		mov	sp, r7
 444              		@ sp needed
 445 0038 80BD     		pop	{r7, pc}
 446              		.size	clear_leds, .-clear_leds
 447              		.section	.text.get_all_rgb_state,"ax",%progbits
 448              		.align	1
 449              		.global	get_all_rgb_state
 450              		.syntax unified
 451              		.thumb
 452              		.thumb_func
 453              		.fpu fpv4-sp-d16
 454              		.type	get_all_rgb_state, %function
ARM GAS  /var/folders/d2/nstgp4h54kz7g1l847x_b8wc0000gn/T//ccswAhZN.s 			page 9


 455              	get_all_rgb_state:
 456              		@ args = 0, pretend = 0, frame = 8
 457              		@ frame_needed = 1, uses_anonymous_args = 0
 458              		@ link register save eliminated.
 459 0000 90B4     		push	{r4, r7}
 460 0002 82B0     		sub	sp, sp, #8
 461 0004 00AF     		add	r7, sp, #0
 462 0006 7860     		str	r0, [r7, #4]
 463 0008 7B68     		ldr	r3, [r7, #4]
 464 000a 064A     		ldr	r2, .L54
 465 000c 1C46     		mov	r4, r3
 466 000e 1346     		mov	r3, r2
 467 0010 07CB     		ldmia	r3!, {r0, r1, r2}
 468 0012 2060     		str	r0, [r4]	@ unaligned
 469 0014 6160     		str	r1, [r4, #4]	@ unaligned
 470 0016 A260     		str	r2, [r4, #8]	@ unaligned
 471 0018 00BF     		nop
 472 001a 0837     		adds	r7, r7, #8
 473 001c BD46     		mov	sp, r7
 474              		@ sp needed
 475 001e 90BC     		pop	{r4, r7}
 476 0020 7047     		bx	lr
 477              	.L55:
 478 0022 00BF     		.align	2
 479              	.L54:
 480 0024 00000000 		.word	rgb_led
 481              		.size	get_all_rgb_state, .-get_all_rgb_state
 482              		.ident	"GCC: (GNU Tools for Arm Embedded Processors 7-2017-q4-major) 7.2.1 20170904 (release) [ARM
ARM GAS  /var/folders/d2/nstgp4h54kz7g1l847x_b8wc0000gn/T//ccswAhZN.s 			page 10

