ARM GAS  /var/folders/d2/nstgp4h54kz7g1l847x_b8wc0000gn/T//cchgq8lC.s 			page 1


   1              		.cpu cortex-m4
   2              		.eabi_attribute 27, 1
   3              		.eabi_attribute 28, 1
   4              		.eabi_attribute 20, 1
   5              		.eabi_attribute 21, 1
   6              		.eabi_attribute 23, 3
   7              		.eabi_attribute 24, 1
   8              		.eabi_attribute 25, 1
   9              		.eabi_attribute 26, 1
  10              		.eabi_attribute 30, 2
  11              		.eabi_attribute 34, 1
  12              		.eabi_attribute 18, 4
  13              		.file	"malloc_lock.c"
  14              		.text
  15              	.Ltext0:
  16              		.cfi_sections	.debug_frame
  17              		.section	.text.__malloc_lock,"ax",%progbits
  18              		.align	1
  19              		.p2align 4,,15
  20              		.global	__malloc_lock
  21              		.syntax unified
  22              		.thumb
  23              		.thumb_func
  24              		.fpu fpv4-sp-d16
  25              		.type	__malloc_lock, %function
  26              	__malloc_lock:
  27              	.LFB219:
  28              		.file 1 "../e-puck2_main-processor/src/chibios-syscalls/malloc_lock.c"
  29              		.loc 1 11 0
  30              		.cfi_startproc
  31              		@ args = 0, pretend = 0, frame = 8
  32              		@ frame_needed = 0, uses_anonymous_args = 0
  33              	.LVL0:
  34 0000 00B5     		push	{lr}
  35              		.cfi_def_cfa_offset 4
  36              		.cfi_offset 14, -4
  37 0002 084B     		ldr	r3, .L7
  38 0004 83B0     		sub	sp, sp, #12
  39              		.cfi_def_cfa_offset 16
  40              		.loc 1 11 0
  41 0006 1A68     		ldr	r2, [r3]
  42 0008 0192     		str	r2, [sp, #4]
  43              		.loc 1 13 0
  44 000a 019A     		ldr	r2, [sp, #4]
  45 000c 1B68     		ldr	r3, [r3]
  46 000e 9A42     		cmp	r2, r3
  47 0010 05D1     		bne	.L6
  48 0012 0548     		ldr	r0, .L7+4
  49              	.LVL1:
  50              		.loc 1 14 0
  51 0014 03B0     		add	sp, sp, #12
  52              		.cfi_remember_state
  53              		.cfi_def_cfa_offset 4
  54              		@ sp needed
  55 0016 5DF804EB 		ldr	lr, [sp], #4
  56              		.cfi_restore 14
  57              		.cfi_def_cfa_offset 0
ARM GAS  /var/folders/d2/nstgp4h54kz7g1l847x_b8wc0000gn/T//cchgq8lC.s 			page 2


  58              		.loc 1 13 0
  59 001a FFF7FEBF 		b	chMtxLock
  60              	.LVL2:
  61              	.L6:
  62              		.cfi_restore_state
  63 001e FFF7FEFF 		bl	__stack_chk_fail
  64              	.LVL3:
  65              	.L8:
  66 0022 00BF     		.align	2
  67              	.L7:
  68 0024 00000000 		.word	__stack_chk_guard
  69 0028 00000000 		.word	.LANCHOR0
  70              		.cfi_endproc
  71              	.LFE219:
  72              		.size	__malloc_lock, .-__malloc_lock
  73              		.section	.text.__malloc_unlock,"ax",%progbits
  74              		.align	1
  75              		.p2align 4,,15
  76              		.global	__malloc_unlock
  77              		.syntax unified
  78              		.thumb
  79              		.thumb_func
  80              		.fpu fpv4-sp-d16
  81              		.type	__malloc_unlock, %function
  82              	__malloc_unlock:
  83              	.LFB220:
  84              		.loc 1 17 0
  85              		.cfi_startproc
  86              		@ args = 0, pretend = 0, frame = 8
  87              		@ frame_needed = 0, uses_anonymous_args = 0
  88              	.LVL4:
  89 0000 00B5     		push	{lr}
  90              		.cfi_def_cfa_offset 4
  91              		.cfi_offset 14, -4
  92 0002 084B     		ldr	r3, .L14
  93 0004 83B0     		sub	sp, sp, #12
  94              		.cfi_def_cfa_offset 16
  95              		.loc 1 17 0
  96 0006 1A68     		ldr	r2, [r3]
  97 0008 0192     		str	r2, [sp, #4]
  98              		.loc 1 19 0
  99 000a 019A     		ldr	r2, [sp, #4]
 100 000c 1B68     		ldr	r3, [r3]
 101 000e 9A42     		cmp	r2, r3
 102 0010 05D1     		bne	.L13
 103 0012 0548     		ldr	r0, .L14+4
 104              	.LVL5:
 105              		.loc 1 20 0
 106 0014 03B0     		add	sp, sp, #12
 107              		.cfi_remember_state
 108              		.cfi_def_cfa_offset 4
 109              		@ sp needed
 110 0016 5DF804EB 		ldr	lr, [sp], #4
 111              		.cfi_restore 14
 112              		.cfi_def_cfa_offset 0
 113              		.loc 1 19 0
 114 001a FFF7FEBF 		b	chMtxUnlock
ARM GAS  /var/folders/d2/nstgp4h54kz7g1l847x_b8wc0000gn/T//cchgq8lC.s 			page 3


 115              	.LVL6:
 116              	.L13:
 117              		.cfi_restore_state
 118 001e FFF7FEFF 		bl	__stack_chk_fail
 119              	.LVL7:
 120              	.L15:
 121 0022 00BF     		.align	2
 122              	.L14:
 123 0024 00000000 		.word	__stack_chk_guard
 124 0028 00000000 		.word	.LANCHOR0
 125              		.cfi_endproc
 126              	.LFE220:
 127              		.size	__malloc_unlock, .-__malloc_unlock
 128              		.section	.data.lock,"aw",%progbits
 129              		.align	2
 130              		.set	.LANCHOR0,. + 0
 131              		.type	lock, %object
 132              		.size	lock, 20
 133              	lock:
 134 0000 00000000 		.word	lock
 135 0004 00000000 		.word	lock
 136 0008 00000000 		.word	0
 137 000c 00000000 		.word	0
 138 0010 00000000 		.word	0
 139              		.text
 140              	.Letext0:
 141              		.file 2 "/Applications/Eclipse_e-puck2.app/Contents/Eclipse_e-puck2/Tools/gcc-arm-none-eabi-7-2017
 142              		.file 3 "/Applications/Eclipse_e-puck2.app/Contents/Eclipse_e-puck2/Tools/gcc-arm-none-eabi-7-2017
 143              		.file 4 "/Applications/Eclipse_e-puck2.app/Contents/Eclipse_e-puck2/Tools/gcc-arm-none-eabi-7-2017
 144              		.file 5 "../e-puck2_main-processor/ChibiOS//os/rt/ports/ARMCMx/compilers/GCC/chtypes.h"
 145              		.file 6 "../e-puck2_main-processor/ChibiOS//os/rt/include/chsystypes.h"
 146              		.file 7 "../e-puck2_main-processor/ChibiOS//os/rt/include/chschd.h"
 147              		.file 8 "../e-puck2_main-processor/ChibiOS//os/ext/CMSIS/include/core_cm4.h"
 148              		.file 9 "../e-puck2_main-processor/ChibiOS//os/ext/CMSIS/ST/system_stm32f4xx.h"
 149              		.file 10 "../e-puck2_main-processor/ChibiOS//os/rt/ports/ARMCMx/chcore.h"
 150              		.file 11 "../e-puck2_main-processor/ChibiOS//os/rt/ports/ARMCMx/chcore_v7m.h"
 151              		.file 12 "../e-puck2_main-processor/ChibiOS//os/rt/include/chdebug.h"
 152              		.file 13 "../e-puck2_main-processor/ChibiOS//os/rt/include/chtm.h"
 153              		.file 14 "../e-puck2_main-processor/ChibiOS//os/rt/include/chstats.h"
 154              		.file 15 "../e-puck2_main-processor/ChibiOS//os/rt/include/chsem.h"
 155              		.file 16 "../e-puck2_main-processor/ChibiOS//os/rt/include/chmtx.h"
 156              		.file 17 "../e-puck2_main-processor/ChibiOS//os/rt/include/chregistry.h"
 157              		.file 18 "/Applications/Eclipse_e-puck2.app/Contents/Eclipse_e-puck2/Tools/gcc-arm-none-eabi-7-201
 158              		.file 19 "/Applications/Eclipse_e-puck2.app/Contents/Eclipse_e-puck2/Tools/gcc-arm-none-eabi-7-201
 159              		.file 20 "/Applications/Eclipse_e-puck2.app/Contents/Eclipse_e-puck2/Tools/gcc-arm-none-eabi-7-201