ARM GAS  /var/folders/d2/nstgp4h54kz7g1l847x_b8wc0000gn/T//cchSGH4z.s 			page 1


   1              		.cpu cortex-m4
   2              		.eabi_attribute 27, 1
   3              		.eabi_attribute 28, 1
   4              		.eabi_attribute 20, 1
   5              		.eabi_attribute 21, 1
   6              		.eabi_attribute 23, 3
   7              		.eabi_attribute 24, 1
   8              		.eabi_attribute 25, 1
   9              		.eabi_attribute 26, 1
  10              		.eabi_attribute 30, 6
  11              		.eabi_attribute 34, 1
  12              		.eabi_attribute 18, 4
  13              		.file	"memstreams.c"
  14              		.section	.text.writes,"ax",%progbits
  15              		.align	1
  16              		.syntax unified
  17              		.thumb
  18              		.thumb_func
  19              		.fpu fpv4-sp-d16
  20              		.type	writes, %function
  21              	writes:
  22              		@ args = 0, pretend = 0, frame = 24
  23              		@ frame_needed = 1, uses_anonymous_args = 0
  24 0000 80B5     		push	{r7, lr}
  25 0002 86B0     		sub	sp, sp, #24
  26 0004 00AF     		add	r7, sp, #0
  27 0006 F860     		str	r0, [r7, #12]
  28 0008 B960     		str	r1, [r7, #8]
  29 000a 7A60     		str	r2, [r7, #4]
  30 000c FB68     		ldr	r3, [r7, #12]
  31 000e 7B61     		str	r3, [r7, #20]
  32 0010 7B69     		ldr	r3, [r7, #20]
  33 0012 9A68     		ldr	r2, [r3, #8]
  34 0014 7B69     		ldr	r3, [r7, #20]
  35 0016 DB68     		ldr	r3, [r3, #12]
  36 0018 D31A     		subs	r3, r2, r3
  37 001a 7A68     		ldr	r2, [r7, #4]
  38 001c 9A42     		cmp	r2, r3
  39 001e 05D9     		bls	.L2
  40 0020 7B69     		ldr	r3, [r7, #20]
  41 0022 9A68     		ldr	r2, [r3, #8]
  42 0024 7B69     		ldr	r3, [r7, #20]
  43 0026 DB68     		ldr	r3, [r3, #12]
  44 0028 D31A     		subs	r3, r2, r3
  45 002a 7B60     		str	r3, [r7, #4]
  46              	.L2:
  47 002c 7B69     		ldr	r3, [r7, #20]
  48 002e 5A68     		ldr	r2, [r3, #4]
  49 0030 7B69     		ldr	r3, [r7, #20]
  50 0032 DB68     		ldr	r3, [r3, #12]
  51 0034 1344     		add	r3, r3, r2
  52 0036 7A68     		ldr	r2, [r7, #4]
  53 0038 B968     		ldr	r1, [r7, #8]
  54 003a 1846     		mov	r0, r3
  55 003c FFF7FEFF 		bl	memcpy
  56 0040 7B69     		ldr	r3, [r7, #20]
  57 0042 DA68     		ldr	r2, [r3, #12]
ARM GAS  /var/folders/d2/nstgp4h54kz7g1l847x_b8wc0000gn/T//cchSGH4z.s 			page 2


  58 0044 7B68     		ldr	r3, [r7, #4]
  59 0046 1A44     		add	r2, r2, r3
  60 0048 7B69     		ldr	r3, [r7, #20]
  61 004a DA60     		str	r2, [r3, #12]
  62 004c 7B68     		ldr	r3, [r7, #4]
  63 004e 1846     		mov	r0, r3
  64 0050 1837     		adds	r7, r7, #24
  65 0052 BD46     		mov	sp, r7
  66              		@ sp needed
  67 0054 80BD     		pop	{r7, pc}
  68              		.size	writes, .-writes
  69              		.section	.text.reads,"ax",%progbits
  70              		.align	1
  71              		.syntax unified
  72              		.thumb
  73              		.thumb_func
  74              		.fpu fpv4-sp-d16
  75              		.type	reads, %function
  76              	reads:
  77              		@ args = 0, pretend = 0, frame = 24
  78              		@ frame_needed = 1, uses_anonymous_args = 0
  79 0000 80B5     		push	{r7, lr}
  80 0002 86B0     		sub	sp, sp, #24
  81 0004 00AF     		add	r7, sp, #0
  82 0006 F860     		str	r0, [r7, #12]
  83 0008 B960     		str	r1, [r7, #8]
  84 000a 7A60     		str	r2, [r7, #4]
  85 000c FB68     		ldr	r3, [r7, #12]
  86 000e 7B61     		str	r3, [r7, #20]
  87 0010 7B69     		ldr	r3, [r7, #20]
  88 0012 DA68     		ldr	r2, [r3, #12]
  89 0014 7B69     		ldr	r3, [r7, #20]
  90 0016 1B69     		ldr	r3, [r3, #16]
  91 0018 D31A     		subs	r3, r2, r3
  92 001a 7A68     		ldr	r2, [r7, #4]
  93 001c 9A42     		cmp	r2, r3
  94 001e 05D9     		bls	.L5
  95 0020 7B69     		ldr	r3, [r7, #20]
  96 0022 DA68     		ldr	r2, [r3, #12]
  97 0024 7B69     		ldr	r3, [r7, #20]
  98 0026 1B69     		ldr	r3, [r3, #16]
  99 0028 D31A     		subs	r3, r2, r3
 100 002a 7B60     		str	r3, [r7, #4]
 101              	.L5:
 102 002c 7B69     		ldr	r3, [r7, #20]
 103 002e 5A68     		ldr	r2, [r3, #4]
 104 0030 7B69     		ldr	r3, [r7, #20]
 105 0032 1B69     		ldr	r3, [r3, #16]
 106 0034 1344     		add	r3, r3, r2
 107 0036 7A68     		ldr	r2, [r7, #4]
 108 0038 1946     		mov	r1, r3
 109 003a B868     		ldr	r0, [r7, #8]
 110 003c FFF7FEFF 		bl	memcpy
 111 0040 7B69     		ldr	r3, [r7, #20]
 112 0042 1A69     		ldr	r2, [r3, #16]
 113 0044 7B68     		ldr	r3, [r7, #4]
 114 0046 1A44     		add	r2, r2, r3
ARM GAS  /var/folders/d2/nstgp4h54kz7g1l847x_b8wc0000gn/T//cchSGH4z.s 			page 3


 115 0048 7B69     		ldr	r3, [r7, #20]
 116 004a 1A61     		str	r2, [r3, #16]
 117 004c 7B68     		ldr	r3, [r7, #4]
 118 004e 1846     		mov	r0, r3
 119 0050 1837     		adds	r7, r7, #24
 120 0052 BD46     		mov	sp, r7
 121              		@ sp needed
 122 0054 80BD     		pop	{r7, pc}
 123              		.size	reads, .-reads
 124              		.section	.text.put,"ax",%progbits
 125              		.align	1
 126              		.syntax unified
 127              		.thumb
 128              		.thumb_func
 129              		.fpu fpv4-sp-d16
 130              		.type	put, %function
 131              	put:
 132              		@ args = 0, pretend = 0, frame = 16
 133              		@ frame_needed = 1, uses_anonymous_args = 0
 134              		@ link register save eliminated.
 135 0000 80B4     		push	{r7}
 136 0002 85B0     		sub	sp, sp, #20
 137 0004 00AF     		add	r7, sp, #0
 138 0006 7860     		str	r0, [r7, #4]
 139 0008 0B46     		mov	r3, r1
 140 000a FB70     		strb	r3, [r7, #3]
 141 000c 7B68     		ldr	r3, [r7, #4]
 142 000e FB60     		str	r3, [r7, #12]
 143 0010 FB68     		ldr	r3, [r7, #12]
 144 0012 9A68     		ldr	r2, [r3, #8]
 145 0014 FB68     		ldr	r3, [r7, #12]
 146 0016 DB68     		ldr	r3, [r3, #12]
 147 0018 9A42     		cmp	r2, r3
 148 001a 02D1     		bne	.L8
 149 001c 6FF00103 		mvn	r3, #1
 150 0020 0CE0     		b	.L9
 151              	.L8:
 152 0022 FB68     		ldr	r3, [r7, #12]
 153 0024 5A68     		ldr	r2, [r3, #4]
 154 0026 FB68     		ldr	r3, [r7, #12]
 155 0028 DB68     		ldr	r3, [r3, #12]
 156 002a 1344     		add	r3, r3, r2
 157 002c FA78     		ldrb	r2, [r7, #3]
 158 002e 1A70     		strb	r2, [r3]
 159 0030 FB68     		ldr	r3, [r7, #12]
 160 0032 DB68     		ldr	r3, [r3, #12]
 161 0034 5A1C     		adds	r2, r3, #1
 162 0036 FB68     		ldr	r3, [r7, #12]
 163 0038 DA60     		str	r2, [r3, #12]
 164 003a 0023     		movs	r3, #0
 165              	.L9:
 166 003c 1846     		mov	r0, r3
 167 003e 1437     		adds	r7, r7, #20
 168 0040 BD46     		mov	sp, r7
 169              		@ sp needed
 170 0042 5DF8047B 		ldr	r7, [sp], #4
 171 0046 7047     		bx	lr
ARM GAS  /var/folders/d2/nstgp4h54kz7g1l847x_b8wc0000gn/T//cchSGH4z.s 			page 4


 172              		.size	put, .-put
 173              		.section	.text.get,"ax",%progbits
 174              		.align	1
 175              		.syntax unified
 176              		.thumb
 177              		.thumb_func
 178              		.fpu fpv4-sp-d16
 179              		.type	get, %function
 180              	get:
 181              		@ args = 0, pretend = 0, frame = 16
 182              		@ frame_needed = 1, uses_anonymous_args = 0
 183              		@ link register save eliminated.
 184 0000 80B4     		push	{r7}
 185 0002 85B0     		sub	sp, sp, #20
 186 0004 00AF     		add	r7, sp, #0
 187 0006 7860     		str	r0, [r7, #4]
 188 0008 7B68     		ldr	r3, [r7, #4]
 189 000a FB60     		str	r3, [r7, #12]
 190 000c FB68     		ldr	r3, [r7, #12]
 191 000e DA68     		ldr	r2, [r3, #12]
 192 0010 FB68     		ldr	r3, [r7, #12]
 193 0012 1B69     		ldr	r3, [r3, #16]
 194 0014 9A42     		cmp	r2, r3
 195 0016 02D1     		bne	.L11
 196 0018 6FF00103 		mvn	r3, #1
 197 001c 0CE0     		b	.L12
 198              	.L11:
 199 001e FB68     		ldr	r3, [r7, #12]
 200 0020 5A68     		ldr	r2, [r3, #4]
 201 0022 FB68     		ldr	r3, [r7, #12]
 202 0024 1B69     		ldr	r3, [r3, #16]
 203 0026 1344     		add	r3, r3, r2
 204 0028 1B78     		ldrb	r3, [r3]
 205 002a FB72     		strb	r3, [r7, #11]
 206 002c FB68     		ldr	r3, [r7, #12]
 207 002e 1B69     		ldr	r3, [r3, #16]
 208 0030 5A1C     		adds	r2, r3, #1
 209 0032 FB68     		ldr	r3, [r7, #12]
 210 0034 1A61     		str	r2, [r3, #16]
 211 0036 FB7A     		ldrb	r3, [r7, #11]	@ zero_extendqisi2
 212              	.L12:
 213 0038 1846     		mov	r0, r3
 214 003a 1437     		adds	r7, r7, #20
 215 003c BD46     		mov	sp, r7
 216              		@ sp needed
 217 003e 5DF8047B 		ldr	r7, [sp], #4
 218 0042 7047     		bx	lr
 219              		.size	get, .-get
 220              		.section	.rodata.vmt,"a",%progbits
 221              		.align	2
 222              		.type	vmt, %object
 223              		.size	vmt, 16
 224              	vmt:
 225 0000 00000000 		.word	writes
 226 0004 00000000 		.word	reads
 227 0008 00000000 		.word	put
 228 000c 00000000 		.word	get
ARM GAS  /var/folders/d2/nstgp4h54kz7g1l847x_b8wc0000gn/T//cchSGH4z.s 			page 5


 229              		.section	.text.msObjectInit,"ax",%progbits
 230              		.align	1
 231              		.global	msObjectInit
 232              		.syntax unified
 233              		.thumb
 234              		.thumb_func
 235              		.fpu fpv4-sp-d16
 236              		.type	msObjectInit, %function
 237              	msObjectInit:
 238              		@ args = 0, pretend = 0, frame = 16
 239              		@ frame_needed = 1, uses_anonymous_args = 0
 240              		@ link register save eliminated.
 241 0000 80B4     		push	{r7}
 242 0002 85B0     		sub	sp, sp, #20
 243 0004 00AF     		add	r7, sp, #0
 244 0006 F860     		str	r0, [r7, #12]
 245 0008 B960     		str	r1, [r7, #8]
 246 000a 7A60     		str	r2, [r7, #4]
 247 000c 3B60     		str	r3, [r7]
 248 000e FB68     		ldr	r3, [r7, #12]
 249 0010 094A     		ldr	r2, .L14
 250 0012 1A60     		str	r2, [r3]
 251 0014 FB68     		ldr	r3, [r7, #12]
 252 0016 BA68     		ldr	r2, [r7, #8]
 253 0018 5A60     		str	r2, [r3, #4]
 254 001a FB68     		ldr	r3, [r7, #12]
 255 001c 7A68     		ldr	r2, [r7, #4]
 256 001e 9A60     		str	r2, [r3, #8]
 257 0020 FB68     		ldr	r3, [r7, #12]
 258 0022 3A68     		ldr	r2, [r7]
 259 0024 DA60     		str	r2, [r3, #12]
 260 0026 FB68     		ldr	r3, [r7, #12]
 261 0028 0022     		movs	r2, #0
 262 002a 1A61     		str	r2, [r3, #16]
 263 002c 00BF     		nop
 264 002e 1437     		adds	r7, r7, #20
 265 0030 BD46     		mov	sp, r7
 266              		@ sp needed
 267 0032 5DF8047B 		ldr	r7, [sp], #4
 268 0036 7047     		bx	lr
 269              	.L15:
 270              		.align	2
 271              	.L14:
 272 0038 00000000 		.word	vmt
 273              		.size	msObjectInit, .-msObjectInit
 274              		.ident	"GCC: (GNU Tools for Arm Embedded Processors 7-2017-q4-major) 7.2.1 20170904 (release) [ARM
ARM GAS  /var/folders/d2/nstgp4h54kz7g1l847x_b8wc0000gn/T//cchSGH4z.s 			page 6

