ARM GAS  /var/folders/d2/nstgp4h54kz7g1l847x_b8wc0000gn/T//ccaKPViU.s 			page 1


   1              		.cpu cortex-m4
   2              		.eabi_attribute 27, 1
   3              		.eabi_attribute 28, 1
   4              		.eabi_attribute 20, 1
   5              		.eabi_attribute 21, 1
   6              		.eabi_attribute 23, 3
   7              		.eabi_attribute 24, 1
   8              		.eabi_attribute 25, 1
   9              		.eabi_attribute 26, 1
  10              		.eabi_attribute 30, 2
  11              		.eabi_attribute 34, 1
  12              		.eabi_attribute 18, 4
  13              		.file	"messagebus.c"
  14              		.text
  15              	.Ltext0:
  16              		.cfi_sections	.debug_frame
  17              		.section	.text.messagebus_init,"ax",%progbits
  18              		.align	1
  19              		.p2align 4,,15
  20              		.global	messagebus_init
  21              		.syntax unified
  22              		.thumb
  23              		.thumb_func
  24              		.fpu fpv4-sp-d16
  25              		.type	messagebus_init, %function
  26              	messagebus_init:
  27              	.LFB1:
  28              		.file 1 "../e-puck2_main-processor/src/msgbus/messagebus.c"
  29              		.loc 1 17 0
  30              		.cfi_startproc
  31              		@ args = 0, pretend = 0, frame = 8
  32              		@ frame_needed = 0, uses_anonymous_args = 0
  33              	.LVL0:
  34 0000 10B5     		push	{r4, lr}
  35              		.cfi_def_cfa_offset 8
  36              		.cfi_offset 4, -8
  37              		.cfi_offset 14, -4
  38 0002 084B     		ldr	r3, .L6
  39 0004 82B0     		sub	sp, sp, #8
  40              		.cfi_def_cfa_offset 16
  41              		.loc 1 17 0
  42 0006 1C68     		ldr	r4, [r3]
  43 0008 0194     		str	r4, [sp, #4]
  44              		.loc 1 18 0
  45 000a 0024     		movs	r4, #0
  46 000c 0460     		str	r4, [r0]	@ unaligned
  47              		.loc 1 21 0
  48 000e 019C     		ldr	r4, [sp, #4]
  49 0010 1B68     		ldr	r3, [r3]
  50 0012 9C42     		cmp	r4, r3
  51              		.loc 1 20 0
  52 0014 C0E90112 		strd	r1, r2, [r0, #4]
  53              		.loc 1 21 0
  54 0018 01D1     		bne	.L5
  55 001a 02B0     		add	sp, sp, #8
  56              		.cfi_remember_state
  57              		.cfi_def_cfa_offset 8
ARM GAS  /var/folders/d2/nstgp4h54kz7g1l847x_b8wc0000gn/T//ccaKPViU.s 			page 2


  58              		@ sp needed
  59 001c 10BD     		pop	{r4, pc}
  60              	.L5:
  61              		.cfi_restore_state
  62 001e FFF7FEFF 		bl	__stack_chk_fail
  63              	.LVL1:
  64              	.L7:
  65 0022 00BF     		.align	2
  66              	.L6:
  67 0024 00000000 		.word	__stack_chk_guard
  68              		.cfi_endproc
  69              	.LFE1:
  70              		.size	messagebus_init, .-messagebus_init
  71              		.section	.text.messagebus_topic_init,"ax",%progbits
  72              		.align	1
  73              		.p2align 4,,15
  74              		.global	messagebus_topic_init
  75              		.syntax unified
  76              		.thumb
  77              		.thumb_func
  78              		.fpu fpv4-sp-d16
  79              		.type	messagebus_topic_init, %function
  80              	messagebus_topic_init:
  81              	.LFB2:
  82              		.loc 1 25 0
  83              		.cfi_startproc
  84              		@ args = 4, pretend = 0, frame = 8
  85              		@ frame_needed = 0, uses_anonymous_args = 0
  86              	.LVL2:
  87 0000 2DE9F043 		push	{r4, r5, r6, r7, r8, r9, lr}
  88              		.cfi_def_cfa_offset 28
  89              		.cfi_offset 4, -28
  90              		.cfi_offset 5, -24
  91              		.cfi_offset 6, -20
  92              		.cfi_offset 7, -16
  93              		.cfi_offset 8, -12
  94              		.cfi_offset 9, -8
  95              		.cfi_offset 14, -4
  96 0004 0E4D     		ldr	r5, .L12
  97 0006 83B0     		sub	sp, sp, #12
  98              		.cfi_def_cfa_offset 40
  99              		.loc 1 25 0
 100 0008 2C68     		ldr	r4, [r5]
 101 000a 0194     		str	r4, [sp, #4]
 102 000c 0446     		mov	r4, r0
 103 000e 9946     		mov	r9, r3
 104 0010 0F46     		mov	r7, r1
 105 0012 1646     		mov	r6, r2
 106              		.loc 1 26 0
 107 0014 1030     		adds	r0, r0, #16
 108              	.LVL3:
 109 0016 4C22     		movs	r2, #76
 110              	.LVL4:
 111 0018 0021     		movs	r1, #0
 112              	.LVL5:
 113              		.loc 1 25 0
 114 001a DDF82880 		ldr	r8, [sp, #40]
ARM GAS  /var/folders/d2/nstgp4h54kz7g1l847x_b8wc0000gn/T//ccaKPViU.s 			page 3


 115              		.loc 1 26 0
 116 001e FFF7FEFF 		bl	memset
 117              	.LVL6:
 118              		.loc 1 27 0
 119 0022 C4F80090 		str	r9, [r4]
 120              		.loc 1 31 0
 121 0026 019A     		ldr	r2, [sp, #4]
 122 0028 2B68     		ldr	r3, [r5]
 123              		.loc 1 30 0
 124 002a E660     		str	r6, [r4, #12]
 125              		.loc 1 31 0
 126 002c 9A42     		cmp	r2, r3
 127              		.loc 1 29 0
 128 002e C4E90187 		strd	r8, r7, [r4, #4]
 129              		.loc 1 31 0
 130 0032 02D1     		bne	.L11
 131 0034 03B0     		add	sp, sp, #12
 132              		.cfi_remember_state
 133              		.cfi_def_cfa_offset 28
 134              		@ sp needed
 135 0036 BDE8F083 		pop	{r4, r5, r6, r7, r8, r9, pc}
 136              	.LVL7:
 137              	.L11:
 138              		.cfi_restore_state
 139 003a FFF7FEFF 		bl	__stack_chk_fail
 140              	.LVL8:
 141              	.L13:
 142 003e 00BF     		.align	2
 143              	.L12:
 144 0040 00000000 		.word	__stack_chk_guard
 145              		.cfi_endproc
 146              	.LFE2:
 147              		.size	messagebus_topic_init, .-messagebus_topic_init
 148              		.section	.text.messagebus_advertise_topic,"ax",%progbits
 149              		.align	1
 150              		.p2align 4,,15
 151              		.global	messagebus_advertise_topic
 152              		.syntax unified
 153              		.thumb
 154              		.thumb_func
 155              		.fpu fpv4-sp-d16
 156              		.type	messagebus_advertise_topic, %function
 157              	messagebus_advertise_topic:
 158              	.LFB3:
 159              		.loc 1 34 0
 160              		.cfi_startproc
 161              		@ args = 0, pretend = 0, frame = 8
 162              		@ frame_needed = 0, uses_anonymous_args = 0
 163              	.LVL9:
 164 0000 F0B5     		push	{r4, r5, r6, r7, lr}
 165              		.cfi_def_cfa_offset 20
 166              		.cfi_offset 4, -20
 167              		.cfi_offset 5, -16
 168              		.cfi_offset 6, -12
 169              		.cfi_offset 7, -8
 170              		.cfi_offset 14, -4
 171 0002 144E     		ldr	r6, .L23
ARM GAS  /var/folders/d2/nstgp4h54kz7g1l847x_b8wc0000gn/T//ccaKPViU.s 			page 4


 172 0004 83B0     		sub	sp, sp, #12
 173              		.cfi_def_cfa_offset 32
 174              		.loc 1 35 0
 175 0006 01F11003 		add	r3, r1, #16
 176              		.loc 1 34 0
 177 000a 1746     		mov	r7, r2
 178 000c 3268     		ldr	r2, [r6]
 179              	.LVL10:
 180 000e 0192     		str	r2, [sp, #4]
 181 0010 0446     		mov	r4, r0
 182              		.loc 1 35 0
 183 0012 4122     		movs	r2, #65
 184 0014 1846     		mov	r0, r3
 185              	.LVL11:
 186              		.loc 1 34 0
 187 0016 0D46     		mov	r5, r1
 188              		.loc 1 35 0
 189 0018 0021     		movs	r1, #0
 190              	.LVL12:
 191 001a FFF7FEFF 		bl	memset
 192              	.LVL13:
 193              		.loc 1 36 0
 194 001e 3946     		mov	r1, r7
 195 0020 4022     		movs	r2, #64
 196 0022 FFF7FEFF 		bl	strncpy
 197              	.LVL14:
 198              		.loc 1 38 0
 199 0026 6068     		ldr	r0, [r4, #4]
 200 0028 FFF7FEFF 		bl	messagebus_lock_acquire
 201              	.LVL15:
 202              		.loc 1 40 0
 203 002c 2368     		ldr	r3, [r4]
 204 002e 03B1     		cbz	r3, .L15
 205              		.loc 1 41 0
 206 0030 AB65     		str	r3, [r5, #88]
 207              	.L15:
 208              		.loc 1 43 0
 209 0032 2560     		str	r5, [r4]
 210              		.loc 1 45 0
 211 0034 A068     		ldr	r0, [r4, #8]
 212 0036 FFF7FEFF 		bl	messagebus_condvar_broadcast
 213              	.LVL16:
 214              		.loc 1 47 0
 215 003a 019A     		ldr	r2, [sp, #4]
 216 003c 3368     		ldr	r3, [r6]
 217 003e 9A42     		cmp	r2, r3
 218 0040 05D1     		bne	.L22
 219 0042 6068     		ldr	r0, [r4, #4]
 220              		.loc 1 48 0
 221 0044 03B0     		add	sp, sp, #12
 222              		.cfi_remember_state
 223              		.cfi_def_cfa_offset 20
 224              		@ sp needed
 225 0046 BDE8F040 		pop	{r4, r5, r6, r7, lr}
 226              		.cfi_restore 14
 227              		.cfi_restore 7
 228              		.cfi_restore 6
ARM GAS  /var/folders/d2/nstgp4h54kz7g1l847x_b8wc0000gn/T//ccaKPViU.s 			page 5


 229              		.cfi_restore 5
 230              		.cfi_restore 4
 231              		.cfi_def_cfa_offset 0
 232              	.LVL17:
 233              		.loc 1 47 0
 234 004a FFF7FEBF 		b	messagebus_lock_release
 235              	.LVL18:
 236              	.L22:
 237              		.cfi_restore_state
 238 004e FFF7FEFF 		bl	__stack_chk_fail
 239              	.LVL19:
 240              	.L24:
 241 0052 00BF     		.align	2
 242              	.L23:
 243 0054 00000000 		.word	__stack_chk_guard
 244              		.cfi_endproc
 245              	.LFE3:
 246              		.size	messagebus_advertise_topic, .-messagebus_advertise_topic
 247              		.section	.text.messagebus_find_topic,"ax",%progbits
 248              		.align	1
 249              		.p2align 4,,15
 250              		.global	messagebus_find_topic
 251              		.syntax unified
 252              		.thumb
 253              		.thumb_func
 254              		.fpu fpv4-sp-d16
 255              		.type	messagebus_find_topic, %function
 256              	messagebus_find_topic:
 257              	.LFB4:
 258              		.loc 1 51 0
 259              		.cfi_startproc
 260              		@ args = 0, pretend = 0, frame = 8
 261              		@ frame_needed = 0, uses_anonymous_args = 0
 262              	.LVL20:
 263 0000 F0B5     		push	{r4, r5, r6, r7, lr}
 264              		.cfi_def_cfa_offset 20
 265              		.cfi_offset 4, -20
 266              		.cfi_offset 5, -16
 267              		.cfi_offset 6, -12
 268              		.cfi_offset 7, -8
 269              		.cfi_offset 14, -4
 270 0002 104F     		ldr	r7, .L39
 271 0004 83B0     		sub	sp, sp, #12
 272              		.cfi_def_cfa_offset 32
 273              		.loc 1 51 0
 274 0006 0646     		mov	r6, r0
 275 0008 3B68     		ldr	r3, [r7]
 276              		.loc 1 54 0
 277 000a 4068     		ldr	r0, [r0, #4]
 278              	.LVL21:
 279              		.loc 1 51 0
 280 000c 0193     		str	r3, [sp, #4]
 281 000e 0D46     		mov	r5, r1
 282              		.loc 1 54 0
 283 0010 FFF7FEFF 		bl	messagebus_lock_acquire
 284              	.LVL22:
 285 0014 3468     		ldr	r4, [r6]
ARM GAS  /var/folders/d2/nstgp4h54kz7g1l847x_b8wc0000gn/T//ccaKPViU.s 			page 6


 286              	.LVL23:
 287              	.LBB6:
 288              	.LBB7:
 289              		.loc 1 7 0
 290 0016 14B9     		cbnz	r4, .L27
 291 0018 08E0     		b	.L26
 292              	.L37:
 293 001a A46D     		ldr	r4, [r4, #88]
 294              	.LVL24:
 295 001c 34B1     		cbz	r4, .L26
 296              	.L27:
 297              		.loc 1 8 0
 298 001e 04F11001 		add	r1, r4, #16
 299 0022 2846     		mov	r0, r5
 300 0024 FFF7FEFF 		bl	strcmp
 301              	.LVL25:
 302 0028 0028     		cmp	r0, #0
 303 002a F6D1     		bne	.L37
 304              	.L26:
 305              	.LVL26:
 306              	.LBE7:
 307              	.LBE6:
 308              		.loc 1 58 0
 309 002c 7068     		ldr	r0, [r6, #4]
 310 002e FFF7FEFF 		bl	messagebus_lock_release
 311              	.LVL27:
 312              		.loc 1 61 0
 313 0032 019A     		ldr	r2, [sp, #4]
 314 0034 3B68     		ldr	r3, [r7]
 315 0036 9A42     		cmp	r2, r3
 316 0038 2046     		mov	r0, r4
 317 003a 01D1     		bne	.L38
 318 003c 03B0     		add	sp, sp, #12
 319              		.cfi_remember_state
 320              		.cfi_def_cfa_offset 20
 321              		@ sp needed
 322 003e F0BD     		pop	{r4, r5, r6, r7, pc}
 323              	.LVL28:
 324              	.L38:
 325              		.cfi_restore_state
 326 0040 FFF7FEFF 		bl	__stack_chk_fail
 327              	.LVL29:
 328              	.L40:
 329              		.align	2
 330              	.L39:
 331 0044 00000000 		.word	__stack_chk_guard
 332              		.cfi_endproc
 333              	.LFE4:
 334              		.size	messagebus_find_topic, .-messagebus_find_topic
 335              		.section	.text.messagebus_find_topic_blocking,"ax",%progbits
 336              		.align	1
 337              		.p2align 4,,15
 338              		.global	messagebus_find_topic_blocking
 339              		.syntax unified
 340              		.thumb
 341              		.thumb_func
 342              		.fpu fpv4-sp-d16
ARM GAS  /var/folders/d2/nstgp4h54kz7g1l847x_b8wc0000gn/T//ccaKPViU.s 			page 7


 343              		.type	messagebus_find_topic_blocking, %function
 344              	messagebus_find_topic_blocking:
 345              	.LFB5:
 346              		.loc 1 64 0
 347              		.cfi_startproc
 348              		@ args = 0, pretend = 0, frame = 8
 349              		@ frame_needed = 0, uses_anonymous_args = 0
 350              	.LVL30:
 351 0000 F0B5     		push	{r4, r5, r6, r7, lr}
 352              		.cfi_def_cfa_offset 20
 353              		.cfi_offset 4, -20
 354              		.cfi_offset 5, -16
 355              		.cfi_offset 6, -12
 356              		.cfi_offset 7, -8
 357              		.cfi_offset 14, -4
 358 0002 124F     		ldr	r7, .L52
 359 0004 83B0     		sub	sp, sp, #12
 360              		.cfi_def_cfa_offset 32
 361              		.loc 1 64 0
 362 0006 0646     		mov	r6, r0
 363 0008 3B68     		ldr	r3, [r7]
 364              		.loc 1 67 0
 365 000a 4068     		ldr	r0, [r0, #4]
 366              	.LVL31:
 367              		.loc 1 64 0
 368 000c 0193     		str	r3, [sp, #4]
 369              	.LVL32:
 370 000e 0D46     		mov	r5, r1
 371              		.loc 1 67 0
 372 0010 FFF7FEFF 		bl	messagebus_lock_acquire
 373              	.LVL33:
 374              	.L42:
 375 0014 3468     		ldr	r4, [r6]
 376              	.LVL34:
 377              	.LBB8:
 378              	.LBB9:
 379              		.loc 1 7 0
 380 0016 14B9     		cbnz	r4, .L44
 381 0018 12E0     		b	.L45
 382              	.LVL35:
 383              	.L50:
 384 001a A46D     		ldr	r4, [r4, #88]
 385              	.LVL36:
 386 001c 84B1     		cbz	r4, .L45
 387              	.LVL37:
 388              	.L44:
 389              		.loc 1 8 0
 390 001e 04F11001 		add	r1, r4, #16
 391 0022 2846     		mov	r0, r5
 392 0024 FFF7FEFF 		bl	strcmp
 393              	.LVL38:
 394 0028 0028     		cmp	r0, #0
 395 002a F6D1     		bne	.L50
 396              	.LVL39:
 397              	.LBE9:
 398              	.LBE8:
 399              		.loc 1 77 0
ARM GAS  /var/folders/d2/nstgp4h54kz7g1l847x_b8wc0000gn/T//ccaKPViU.s 			page 8


 400 002c 7068     		ldr	r0, [r6, #4]
 401 002e FFF7FEFF 		bl	messagebus_lock_release
 402              	.LVL40:
 403              		.loc 1 80 0
 404 0032 019A     		ldr	r2, [sp, #4]
 405 0034 3B68     		ldr	r3, [r7]
 406 0036 9A42     		cmp	r2, r3
 407 0038 2046     		mov	r0, r4
 408 003a 05D1     		bne	.L51
 409 003c 03B0     		add	sp, sp, #12
 410              		.cfi_remember_state
 411              		.cfi_def_cfa_offset 20
 412              		@ sp needed
 413 003e F0BD     		pop	{r4, r5, r6, r7, pc}
 414              	.LVL41:
 415              	.L45:
 416              		.cfi_restore_state
 417              		.loc 1 73 0
 418 0040 B068     		ldr	r0, [r6, #8]
 419 0042 FFF7FEFF 		bl	messagebus_condvar_wait
 420              	.LVL42:
 421 0046 E5E7     		b	.L42
 422              	.LVL43:
 423              	.L51:
 424              		.loc 1 80 0
 425 0048 FFF7FEFF 		bl	__stack_chk_fail
 426              	.LVL44:
 427              	.L53:
 428              		.align	2
 429              	.L52:
 430 004c 00000000 		.word	__stack_chk_guard
 431              		.cfi_endproc
 432              	.LFE5:
 433              		.size	messagebus_find_topic_blocking, .-messagebus_find_topic_blocking
 434              		.section	.text.messagebus_topic_publish,"ax",%progbits
 435              		.align	1
 436              		.p2align 4,,15
 437              		.global	messagebus_topic_publish
 438              		.syntax unified
 439              		.thumb
 440              		.thumb_func
 441              		.fpu fpv4-sp-d16
 442              		.type	messagebus_topic_publish, %function
 443              	messagebus_topic_publish:
 444              	.LFB6:
 445              		.loc 1 83 0
 446              		.cfi_startproc
 447              		@ args = 0, pretend = 0, frame = 8
 448              		@ frame_needed = 0, uses_anonymous_args = 0
 449              	.LVL45:
 450 0000 F0B5     		push	{r4, r5, r6, r7, lr}
 451              		.cfi_def_cfa_offset 20
 452              		.cfi_offset 4, -20
 453              		.cfi_offset 5, -16
 454              		.cfi_offset 6, -12
 455              		.cfi_offset 7, -8
 456              		.cfi_offset 14, -4
ARM GAS  /var/folders/d2/nstgp4h54kz7g1l847x_b8wc0000gn/T//ccaKPViU.s 			page 9


 457 0002 1C4E     		ldr	r6, .L67
 458              		.loc 1 84 0
 459 0004 4368     		ldr	r3, [r0, #4]
 460              		.loc 1 83 0
 461 0006 83B0     		sub	sp, sp, #12
 462              		.cfi_def_cfa_offset 32
 463              		.loc 1 83 0
 464 0008 0546     		mov	r5, r0
 465              		.loc 1 84 0
 466 000a 9342     		cmp	r3, r2
 467              		.loc 1 83 0
 468 000c 3068     		ldr	r0, [r6]
 469              	.LVL46:
 470 000e 0190     		str	r0, [sp, #4]
 471              		.loc 1 84 0
 472 0010 06D2     		bcs	.L65
 473              		.loc 1 85 0
 474 0012 0020     		movs	r0, #0
 475              	.LVL47:
 476              	.L55:
 477              		.loc 1 105 0
 478 0014 019A     		ldr	r2, [sp, #4]
 479 0016 3368     		ldr	r3, [r6]
 480 0018 9A42     		cmp	r2, r3
 481 001a 29D1     		bne	.L66
 482 001c 03B0     		add	sp, sp, #12
 483              		.cfi_remember_state
 484              		.cfi_def_cfa_offset 20
 485              		@ sp needed
 486 001e F0BD     		pop	{r4, r5, r6, r7, pc}
 487              	.LVL48:
 488              	.L65:
 489              		.cfi_restore_state
 490 0020 1446     		mov	r4, r2
 491 0022 0F46     		mov	r7, r1
 492              		.loc 1 88 0
 493 0024 A868     		ldr	r0, [r5, #8]
 494 0026 FFF7FEFF 		bl	messagebus_lock_acquire
 495              	.LVL49:
 496              		.loc 1 90 0
 497 002a 2246     		mov	r2, r4
 498 002c 3946     		mov	r1, r7
 499 002e 2868     		ldr	r0, [r5]
 500 0030 FFF7FEFF 		bl	memcpy
 501              	.LVL50:
 502              		.loc 1 91 0
 503 0034 0123     		movs	r3, #1
 504 0036 85F85130 		strb	r3, [r5, #81]
 505              		.loc 1 92 0
 506 003a E868     		ldr	r0, [r5, #12]
 507 003c FFF7FEFF 		bl	messagebus_condvar_broadcast
 508              	.LVL51:
 509              		.loc 1 95 0
 510 0040 6C6D     		ldr	r4, [r5, #84]
 511              	.LVL52:
 512 0042 84B1     		cbz	r4, .L56
 513              	.L57:
ARM GAS  /var/folders/d2/nstgp4h54kz7g1l847x_b8wc0000gn/T//ccaKPViU.s 			page 10


 514              		.loc 1 96 0 discriminator 3
 515 0044 2368     		ldr	r3, [r4]
 516 0046 1868     		ldr	r0, [r3]
 517 0048 FFF7FEFF 		bl	messagebus_lock_acquire
 518              	.LVL53:
 519              		.loc 1 97 0 discriminator 3
 520 004c 2368     		ldr	r3, [r4]
 521 004e 9D60     		str	r5, [r3, #8]
 522              		.loc 1 98 0 discriminator 3
 523 0050 2368     		ldr	r3, [r4]
 524 0052 5868     		ldr	r0, [r3, #4]
 525 0054 FFF7FEFF 		bl	messagebus_condvar_broadcast
 526              	.LVL54:
 527              		.loc 1 99 0 discriminator 3
 528 0058 2368     		ldr	r3, [r4]
 529 005a 1868     		ldr	r0, [r3]
 530 005c FFF7FEFF 		bl	messagebus_lock_release
 531              	.LVL55:
 532              		.loc 1 95 0 discriminator 3
 533 0060 6468     		ldr	r4, [r4, #4]
 534              	.LVL56:
 535 0062 002C     		cmp	r4, #0
 536 0064 EED1     		bne	.L57
 537              	.L56:
 538              		.loc 1 102 0
 539 0066 A868     		ldr	r0, [r5, #8]
 540 0068 FFF7FEFF 		bl	messagebus_lock_release
 541              	.LVL57:
 542              		.loc 1 104 0
 543 006c 0120     		movs	r0, #1
 544 006e D1E7     		b	.L55
 545              	.LVL58:
 546              	.L66:
 547              		.loc 1 105 0
 548 0070 FFF7FEFF 		bl	__stack_chk_fail
 549              	.LVL59:
 550              	.L68:
 551              		.align	2
 552              	.L67:
 553 0074 00000000 		.word	__stack_chk_guard
 554              		.cfi_endproc
 555              	.LFE6:
 556              		.size	messagebus_topic_publish, .-messagebus_topic_publish
 557              		.section	.text.messagebus_topic_read,"ax",%progbits
 558              		.align	1
 559              		.p2align 4,,15
 560              		.global	messagebus_topic_read
 561              		.syntax unified
 562              		.thumb
 563              		.thumb_func
 564              		.fpu fpv4-sp-d16
 565              		.type	messagebus_topic_read, %function
 566              	messagebus_topic_read:
 567              	.LFB7:
 568              		.loc 1 108 0
 569              		.cfi_startproc
 570              		@ args = 0, pretend = 0, frame = 8
ARM GAS  /var/folders/d2/nstgp4h54kz7g1l847x_b8wc0000gn/T//ccaKPViU.s 			page 11


 571              		@ frame_needed = 0, uses_anonymous_args = 0
 572              	.LVL60:
 573 0000 2DE9F041 		push	{r4, r5, r6, r7, r8, lr}
 574              		.cfi_def_cfa_offset 24
 575              		.cfi_offset 4, -24
 576              		.cfi_offset 5, -20
 577              		.cfi_offset 6, -16
 578              		.cfi_offset 7, -12
 579              		.cfi_offset 8, -8
 580              		.cfi_offset 14, -4
 581 0004 0F4D     		ldr	r5, .L77
 582 0006 82B0     		sub	sp, sp, #8
 583              		.cfi_def_cfa_offset 32
 584              		.loc 1 108 0
 585 0008 0446     		mov	r4, r0
 586 000a 2B68     		ldr	r3, [r5]
 587              		.loc 1 110 0
 588 000c 8068     		ldr	r0, [r0, #8]
 589              	.LVL61:
 590              		.loc 1 108 0
 591 000e 0193     		str	r3, [sp, #4]
 592              	.LVL62:
 593 0010 0F46     		mov	r7, r1
 594 0012 9046     		mov	r8, r2
 595              		.loc 1 110 0
 596 0014 FFF7FEFF 		bl	messagebus_lock_acquire
 597              	.LVL63:
 598              		.loc 1 112 0
 599 0018 94F85160 		ldrb	r6, [r4, #81]	@ zero_extendqisi2
 600 001c 26B1     		cbz	r6, .L70
 601              	.LVL64:
 602              		.loc 1 114 0
 603 001e 4246     		mov	r2, r8
 604 0020 3846     		mov	r0, r7
 605 0022 2168     		ldr	r1, [r4]
 606 0024 FFF7FEFF 		bl	memcpy
 607              	.LVL65:
 608              	.L70:
 609              		.loc 1 117 0
 610 0028 A068     		ldr	r0, [r4, #8]
 611 002a FFF7FEFF 		bl	messagebus_lock_release
 612              	.LVL66:
 613              		.loc 1 120 0
 614 002e 019A     		ldr	r2, [sp, #4]
 615 0030 2B68     		ldr	r3, [r5]
 616 0032 9A42     		cmp	r2, r3
 617 0034 3046     		mov	r0, r6
 618 0036 02D1     		bne	.L76
 619 0038 02B0     		add	sp, sp, #8
 620              		.cfi_remember_state
 621              		.cfi_def_cfa_offset 24
 622              		@ sp needed
 623 003a BDE8F081 		pop	{r4, r5, r6, r7, r8, pc}
 624              	.LVL67:
 625              	.L76:
 626              		.cfi_restore_state
 627 003e FFF7FEFF 		bl	__stack_chk_fail
ARM GAS  /var/folders/d2/nstgp4h54kz7g1l847x_b8wc0000gn/T//ccaKPViU.s 			page 12


 628              	.LVL68:
 629              	.L78:
 630 0042 00BF     		.align	2
 631              	.L77:
 632 0044 00000000 		.word	__stack_chk_guard
 633              		.cfi_endproc
 634              	.LFE7:
 635              		.size	messagebus_topic_read, .-messagebus_topic_read
 636              		.section	.text.messagebus_topic_wait,"ax",%progbits
 637              		.align	1
 638              		.p2align 4,,15
 639              		.global	messagebus_topic_wait
 640              		.syntax unified
 641              		.thumb
 642              		.thumb_func
 643              		.fpu fpv4-sp-d16
 644              		.type	messagebus_topic_wait, %function
 645              	messagebus_topic_wait:
 646              	.LFB8:
 647              		.loc 1 123 0
 648              		.cfi_startproc
 649              		@ args = 0, pretend = 0, frame = 8
 650              		@ frame_needed = 0, uses_anonymous_args = 0
 651              	.LVL69:
 652 0000 F0B5     		push	{r4, r5, r6, r7, lr}
 653              		.cfi_def_cfa_offset 20
 654              		.cfi_offset 4, -20
 655              		.cfi_offset 5, -16
 656              		.cfi_offset 6, -12
 657              		.cfi_offset 7, -8
 658              		.cfi_offset 14, -4
 659 0002 0F4D     		ldr	r5, .L84
 660 0004 83B0     		sub	sp, sp, #12
 661              		.cfi_def_cfa_offset 32
 662              		.loc 1 123 0
 663 0006 0446     		mov	r4, r0
 664 0008 2B68     		ldr	r3, [r5]
 665              		.loc 1 124 0
 666 000a 8068     		ldr	r0, [r0, #8]
 667              	.LVL70:
 668              		.loc 1 123 0
 669 000c 0193     		str	r3, [sp, #4]
 670 000e 0E46     		mov	r6, r1
 671 0010 1746     		mov	r7, r2
 672              		.loc 1 124 0
 673 0012 FFF7FEFF 		bl	messagebus_lock_acquire
 674              	.LVL71:
 675              		.loc 1 125 0
 676 0016 E068     		ldr	r0, [r4, #12]
 677 0018 FFF7FEFF 		bl	messagebus_condvar_wait
 678              	.LVL72:
 679              		.loc 1 127 0
 680 001c 3A46     		mov	r2, r7
 681 001e 3046     		mov	r0, r6
 682 0020 2168     		ldr	r1, [r4]
 683 0022 FFF7FEFF 		bl	memcpy
 684              	.LVL73:
ARM GAS  /var/folders/d2/nstgp4h54kz7g1l847x_b8wc0000gn/T//ccaKPViU.s 			page 13


 685              		.loc 1 129 0
 686 0026 019A     		ldr	r2, [sp, #4]
 687 0028 2B68     		ldr	r3, [r5]
 688 002a 9A42     		cmp	r2, r3
 689 002c 05D1     		bne	.L83
 690 002e A068     		ldr	r0, [r4, #8]
 691              		.loc 1 130 0
 692 0030 03B0     		add	sp, sp, #12
 693              		.cfi_remember_state
 694              		.cfi_def_cfa_offset 20
 695              		@ sp needed
 696 0032 BDE8F040 		pop	{r4, r5, r6, r7, lr}
 697              		.cfi_restore 14
 698              		.cfi_restore 7
 699              		.cfi_restore 6
 700              		.cfi_restore 5
 701              		.cfi_restore 4
 702              		.cfi_def_cfa_offset 0
 703              	.LVL74:
 704              		.loc 1 129 0
 705 0036 FFF7FEBF 		b	messagebus_lock_release
 706              	.LVL75:
 707              	.L83:
 708              		.cfi_restore_state
 709 003a FFF7FEFF 		bl	__stack_chk_fail
 710              	.LVL76:
 711              	.L85:
 712 003e 00BF     		.align	2
 713              	.L84:
 714 0040 00000000 		.word	__stack_chk_guard
 715              		.cfi_endproc
 716              	.LFE8:
 717              		.size	messagebus_topic_wait, .-messagebus_topic_wait
 718              		.section	.text.messagebus_watchgroup_init,"ax",%progbits
 719              		.align	1
 720              		.p2align 4,,15
 721              		.global	messagebus_watchgroup_init
 722              		.syntax unified
 723              		.thumb
 724              		.thumb_func
 725              		.fpu fpv4-sp-d16
 726              		.type	messagebus_watchgroup_init, %function
 727              	messagebus_watchgroup_init:
 728              	.LFB9:
 729              		.loc 1 134 0
 730              		.cfi_startproc
 731              		@ args = 0, pretend = 0, frame = 8
 732              		@ frame_needed = 0, uses_anonymous_args = 0
 733              	.LVL77:
 734 0000 10B5     		push	{r4, lr}
 735              		.cfi_def_cfa_offset 8
 736              		.cfi_offset 4, -8
 737              		.cfi_offset 14, -4
 738 0002 074B     		ldr	r3, .L90
 739              		.loc 1 136 0
 740 0004 4260     		str	r2, [r0, #4]
 741              		.loc 1 134 0
ARM GAS  /var/folders/d2/nstgp4h54kz7g1l847x_b8wc0000gn/T//ccaKPViU.s 			page 14


 742 0006 82B0     		sub	sp, sp, #8
 743              		.cfi_def_cfa_offset 16
 744              		.loc 1 134 0
 745 0008 1C68     		ldr	r4, [r3]
 746 000a 0194     		str	r4, [sp, #4]
 747              		.loc 1 135 0
 748 000c 0160     		str	r1, [r0]
 749              		.loc 1 137 0
 750 000e 0199     		ldr	r1, [sp, #4]
 751              	.LVL78:
 752 0010 1B68     		ldr	r3, [r3]
 753 0012 9942     		cmp	r1, r3
 754 0014 01D1     		bne	.L89
 755 0016 02B0     		add	sp, sp, #8
 756              		.cfi_remember_state
 757              		.cfi_def_cfa_offset 8
 758              		@ sp needed
 759 0018 10BD     		pop	{r4, pc}
 760              	.L89:
 761              		.cfi_restore_state
 762 001a FFF7FEFF 		bl	__stack_chk_fail
 763              	.LVL79:
 764              	.L91:
 765 001e 00BF     		.align	2
 766              	.L90:
 767 0020 00000000 		.word	__stack_chk_guard
 768              		.cfi_endproc
 769              	.LFE9:
 770              		.size	messagebus_watchgroup_init, .-messagebus_watchgroup_init
 771              		.section	.text.messagebus_watchgroup_watch,"ax",%progbits
 772              		.align	1
 773              		.p2align 4,,15
 774              		.global	messagebus_watchgroup_watch
 775              		.syntax unified
 776              		.thumb
 777              		.thumb_func
 778              		.fpu fpv4-sp-d16
 779              		.type	messagebus_watchgroup_watch, %function
 780              	messagebus_watchgroup_watch:
 781              	.LFB10:
 782              		.loc 1 142 0
 783              		.cfi_startproc
 784              		@ args = 0, pretend = 0, frame = 8
 785              		@ frame_needed = 0, uses_anonymous_args = 0
 786              	.LVL80:
 787 0000 F0B5     		push	{r4, r5, r6, r7, lr}
 788              		.cfi_def_cfa_offset 20
 789              		.cfi_offset 4, -20
 790              		.cfi_offset 5, -16
 791              		.cfi_offset 6, -12
 792              		.cfi_offset 7, -8
 793              		.cfi_offset 14, -4
 794 0002 104F     		ldr	r7, .L101
 795 0004 0D46     		mov	r5, r1
 796 0006 83B0     		sub	sp, sp, #12
 797              		.cfi_def_cfa_offset 32
 798              		.loc 1 142 0
ARM GAS  /var/folders/d2/nstgp4h54kz7g1l847x_b8wc0000gn/T//ccaKPViU.s 			page 15


 799 0008 3B68     		ldr	r3, [r7]
 800 000a 0193     		str	r3, [sp, #4]
 801 000c 0646     		mov	r6, r0
 802              		.loc 1 143 0
 803 000e 9068     		ldr	r0, [r2, #8]
 804              	.LVL81:
 805              		.loc 1 142 0
 806 0010 1446     		mov	r4, r2
 807              		.loc 1 143 0
 808 0012 FFF7FEFF 		bl	messagebus_lock_acquire
 809              	.LVL82:
 810              		.loc 1 144 0
 811 0016 2868     		ldr	r0, [r5]
 812 0018 FFF7FEFF 		bl	messagebus_lock_acquire
 813              	.LVL83:
 814              		.loc 1 146 0
 815 001c 3560     		str	r5, [r6]
 816              		.loc 1 148 0
 817 001e 636D     		ldr	r3, [r4, #84]
 818 0020 03B1     		cbz	r3, .L93
 819              		.loc 1 149 0
 820 0022 7360     		str	r3, [r6, #4]
 821              	.L93:
 822              		.loc 1 151 0
 823 0024 6665     		str	r6, [r4, #84]
 824              		.loc 1 153 0
 825 0026 2868     		ldr	r0, [r5]
 826 0028 FFF7FEFF 		bl	messagebus_lock_release
 827              	.LVL84:
 828              		.loc 1 154 0
 829 002c 019A     		ldr	r2, [sp, #4]
 830 002e 3B68     		ldr	r3, [r7]
 831 0030 9A42     		cmp	r2, r3
 832 0032 05D1     		bne	.L100
 833 0034 A068     		ldr	r0, [r4, #8]
 834              		.loc 1 155 0
 835 0036 03B0     		add	sp, sp, #12
 836              		.cfi_remember_state
 837              		.cfi_def_cfa_offset 20
 838              		@ sp needed
 839 0038 BDE8F040 		pop	{r4, r5, r6, r7, lr}
 840              		.cfi_restore 14
 841              		.cfi_restore 7
 842              		.cfi_restore 6
 843              		.cfi_restore 5
 844              		.cfi_restore 4
 845              		.cfi_def_cfa_offset 0
 846              	.LVL85:
 847              		.loc 1 154 0
 848 003c FFF7FEBF 		b	messagebus_lock_release
 849              	.LVL86:
 850              	.L100:
 851              		.cfi_restore_state
 852 0040 FFF7FEFF 		bl	__stack_chk_fail
 853              	.LVL87:
 854              	.L102:
 855              		.align	2
ARM GAS  /var/folders/d2/nstgp4h54kz7g1l847x_b8wc0000gn/T//ccaKPViU.s 			page 16


 856              	.L101:
 857 0044 00000000 		.word	__stack_chk_guard
 858              		.cfi_endproc
 859              	.LFE10:
 860              		.size	messagebus_watchgroup_watch, .-messagebus_watchgroup_watch
 861              		.section	.text.messagebus_watchgroup_wait,"ax",%progbits
 862              		.align	1
 863              		.p2align 4,,15
 864              		.global	messagebus_watchgroup_wait
 865              		.syntax unified
 866              		.thumb
 867              		.thumb_func
 868              		.fpu fpv4-sp-d16
 869              		.type	messagebus_watchgroup_wait, %function
 870              	messagebus_watchgroup_wait:
 871              	.LFB11:
 872              		.loc 1 158 0
 873              		.cfi_startproc
 874              		@ args = 0, pretend = 0, frame = 8
 875              		@ frame_needed = 0, uses_anonymous_args = 0
 876              	.LVL88:
 877 0000 70B5     		push	{r4, r5, r6, lr}
 878              		.cfi_def_cfa_offset 16
 879              		.cfi_offset 4, -16
 880              		.cfi_offset 5, -12
 881              		.cfi_offset 6, -8
 882              		.cfi_offset 14, -4
 883 0002 0C4D     		ldr	r5, .L107
 884 0004 82B0     		sub	sp, sp, #8
 885              		.cfi_def_cfa_offset 24
 886              		.loc 1 158 0
 887 0006 0446     		mov	r4, r0
 888 0008 2B68     		ldr	r3, [r5]
 889              		.loc 1 161 0
 890 000a 0068     		ldr	r0, [r0]
 891              	.LVL89:
 892              		.loc 1 158 0
 893 000c 0193     		str	r3, [sp, #4]
 894              		.loc 1 161 0
 895 000e FFF7FEFF 		bl	messagebus_lock_acquire
 896              	.LVL90:
 897              		.loc 1 162 0
 898 0012 6068     		ldr	r0, [r4, #4]
 899 0014 FFF7FEFF 		bl	messagebus_condvar_wait
 900              	.LVL91:
 901              		.loc 1 166 0
 902 0018 2068     		ldr	r0, [r4]
 903              		.loc 1 164 0
 904 001a A668     		ldr	r6, [r4, #8]
 905              	.LVL92:
 906              		.loc 1 166 0
 907 001c FFF7FEFF 		bl	messagebus_lock_release
 908              	.LVL93:
 909              		.loc 1 169 0
 910 0020 019A     		ldr	r2, [sp, #4]
 911 0022 2B68     		ldr	r3, [r5]
 912 0024 9A42     		cmp	r2, r3
ARM GAS  /var/folders/d2/nstgp4h54kz7g1l847x_b8wc0000gn/T//ccaKPViU.s 			page 17


 913 0026 02D1     		bne	.L106
 914 0028 3046     		mov	r0, r6
 915 002a 02B0     		add	sp, sp, #8
 916              		.cfi_remember_state
 917              		.cfi_def_cfa_offset 16
 918              		@ sp needed
 919 002c 70BD     		pop	{r4, r5, r6, pc}
 920              	.LVL94:
 921              	.L106:
 922              		.cfi_restore_state
 923 002e FFF7FEFF 		bl	__stack_chk_fail
 924              	.LVL95:
 925              	.L108:
 926 0032 00BF     		.align	2
 927              	.L107:
 928 0034 00000000 		.word	__stack_chk_guard
 929              		.cfi_endproc
 930              	.LFE11:
 931              		.size	messagebus_watchgroup_wait, .-messagebus_watchgroup_wait
 932              		.text
 933              	.Letext0:
 934              		.file 2 "/Applications/Eclipse_e-puck2.app/Contents/Eclipse_e-puck2/Tools/gcc-arm-none-eabi-7-2017
 935              		.file 3 "/Applications/Eclipse_e-puck2.app/Contents/Eclipse_e-puck2/Tools/gcc-arm-none-eabi-7-2017
 936              		.file 4 "/Applications/Eclipse_e-puck2.app/Contents/Eclipse_e-puck2/Tools/gcc-arm-none-eabi-7-2017
 937              		.file 5 "/Applications/Eclipse_e-puck2.app/Contents/Eclipse_e-puck2/Tools/gcc-arm-none-eabi-7-2017
 938              		.file 6 "../e-puck2_main-processor/src/msgbus/messagebus.h"
 939              		.file 7 "/Applications/Eclipse_e-puck2.app/Contents/Eclipse_e-puck2/Tools/gcc-arm-none-eabi-7-2017
 940              		.file 8 "/Applications/Eclipse_e-puck2.app/Contents/Eclipse_e-puck2/Tools/gcc-arm-none-eabi-7-2017
 941              		.file 9 "<built-in>"
 942              		.section	.debug_info,"",%progbits
 943              	.Ldebug_info0:
 944 0000 8C100000 		.4byte	0x108c
 945 0004 0400     		.2byte	0x4
 946 0006 00000000 		.4byte	.Ldebug_abbrev0
 947 000a 04       		.byte	0x4
 948 000b 01       		.uleb128 0x1
 949 000c DC020000 		.4byte	.LASF175
 950 0010 0C       		.byte	0xc
 951 0011 9D080000 		.4byte	.LASF176
 952 0015 0C000000 		.4byte	.LASF177
 953 0019 00000000 		.4byte	.Ldebug_ranges0+0
 954 001d 00000000 		.4byte	0
 955 0021 00000000 		.4byte	.Ldebug_line0
 956 0025 02       		.uleb128 0x2
 957 0026 01       		.byte	0x1
 958 0027 06       		.byte	0x6
 959 0028 64010000 		.4byte	.LASF0
 960 002c 02       		.uleb128 0x2
 961 002d 01       		.byte	0x1
 962 002e 08       		.byte	0x8
 963 002f 08060000 		.4byte	.LASF1
 964 0033 02       		.uleb128 0x2
 965 0034 02       		.byte	0x2
 966 0035 05       		.byte	0x5
 967 0036 6A060000 		.4byte	.LASF2
 968 003a 02       		.uleb128 0x2
 969 003b 02       		.byte	0x2
ARM GAS  /var/folders/d2/nstgp4h54kz7g1l847x_b8wc0000gn/T//ccaKPViU.s 			page 18


 970 003c 07       		.byte	0x7
 971 003d 70040000 		.4byte	.LASF3
 972 0041 02       		.uleb128 0x2
 973 0042 04       		.byte	0x4
 974 0043 05       		.byte	0x5
 975 0044 B8010000 		.4byte	.LASF4
 976 0048 02       		.uleb128 0x2
 977 0049 04       		.byte	0x4
 978 004a 07       		.byte	0x7
 979 004b 4C040000 		.4byte	.LASF5
 980 004f 02       		.uleb128 0x2
 981 0050 08       		.byte	0x8
 982 0051 05       		.byte	0x5
 983 0052 56010000 		.4byte	.LASF6
 984 0056 02       		.uleb128 0x2
 985 0057 08       		.byte	0x8
 986 0058 07       		.byte	0x7
 987 0059 E5000000 		.4byte	.LASF7
 988 005d 03       		.uleb128 0x3
 989 005e 04       		.byte	0x4
 990 005f 05       		.byte	0x5
 991 0060 696E7400 		.ascii	"int\000"
 992 0064 02       		.uleb128 0x2
 993 0065 04       		.byte	0x4
 994 0066 07       		.byte	0x7
 995 0067 CF020000 		.4byte	.LASF8
 996 006b 04       		.uleb128 0x4
 997 006c 72000000 		.4byte	.LASF10
 998 0070 02       		.byte	0x2
 999 0071 D8       		.byte	0xd8
 1000 0072 64000000 		.4byte	0x64
 1001 0076 02       		.uleb128 0x2
 1002 0077 08       		.byte	0x8
 1003 0078 04       		.byte	0x4
 1004 0079 5C050000 		.4byte	.LASF9
 1005 007d 04       		.uleb128 0x4
 1006 007e CD040000 		.4byte	.LASF11
 1007 0082 03       		.byte	0x3
 1008 0083 22       		.byte	0x22
 1009 0084 88000000 		.4byte	0x88
 1010 0088 05       		.uleb128 0x5
 1011 0089 04       		.byte	0x4
 1012 008a 8E000000 		.4byte	0x8e
 1013 008e 06       		.uleb128 0x6
 1014 008f 28070000 		.4byte	.LASF144
 1015 0093 04       		.uleb128 0x4
 1016 0094 AD050000 		.4byte	.LASF12
 1017 0098 04       		.byte	0x4
 1018 0099 2C       		.byte	0x2c
 1019 009a 41000000 		.4byte	0x41
 1020 009e 04       		.uleb128 0x4
 1021 009f 6D070000 		.4byte	.LASF13
 1022 00a3 04       		.byte	0x4
 1023 00a4 72       		.byte	0x72
 1024 00a5 41000000 		.4byte	0x41
 1025 00a9 07       		.uleb128 0x7
 1026 00aa DD040000 		.4byte	.LASF14
ARM GAS  /var/folders/d2/nstgp4h54kz7g1l847x_b8wc0000gn/T//ccaKPViU.s 			page 19


 1027 00ae 02       		.byte	0x2
 1028 00af 6501     		.2byte	0x165
 1029 00b1 64000000 		.4byte	0x64
 1030 00b5 08       		.uleb128 0x8
 1031 00b6 04       		.byte	0x4
 1032 00b7 04       		.byte	0x4
 1033 00b8 A6       		.byte	0xa6
 1034 00b9 D4000000 		.4byte	0xd4
 1035 00bd 09       		.uleb128 0x9
 1036 00be C0040000 		.4byte	.LASF15
 1037 00c2 04       		.byte	0x4
 1038 00c3 A8       		.byte	0xa8
 1039 00c4 A9000000 		.4byte	0xa9
 1040 00c8 09       		.uleb128 0x9
 1041 00c9 20040000 		.4byte	.LASF16
 1042 00cd 04       		.byte	0x4
 1043 00ce A9       		.byte	0xa9
 1044 00cf D4000000 		.4byte	0xd4
 1045 00d3 00       		.byte	0
 1046 00d4 0A       		.uleb128 0xa
 1047 00d5 2C000000 		.4byte	0x2c
 1048 00d9 E4000000 		.4byte	0xe4
 1049 00dd 0B       		.uleb128 0xb
 1050 00de 64000000 		.4byte	0x64
 1051 00e2 03       		.byte	0x3
 1052 00e3 00       		.byte	0
 1053 00e4 0C       		.uleb128 0xc
 1054 00e5 08       		.byte	0x8
 1055 00e6 04       		.byte	0x4
 1056 00e7 A3       		.byte	0xa3
 1057 00e8 05010000 		.4byte	0x105
 1058 00ec 0D       		.uleb128 0xd
 1059 00ed 20070000 		.4byte	.LASF17
 1060 00f1 04       		.byte	0x4
 1061 00f2 A5       		.byte	0xa5
 1062 00f3 5D000000 		.4byte	0x5d
 1063 00f7 00       		.byte	0
 1064 00f8 0D       		.uleb128 0xd
 1065 00f9 2F070000 		.4byte	.LASF18
 1066 00fd 04       		.byte	0x4
 1067 00fe AA       		.byte	0xaa
 1068 00ff B5000000 		.4byte	0xb5
 1069 0103 04       		.byte	0x4
 1070 0104 00       		.byte	0
 1071 0105 04       		.uleb128 0x4
 1072 0106 92060000 		.4byte	.LASF19
 1073 010a 04       		.byte	0x4
 1074 010b AB       		.byte	0xab
 1075 010c E4000000 		.4byte	0xe4
 1076 0110 04       		.uleb128 0x4
 1077 0111 8C020000 		.4byte	.LASF20
 1078 0115 04       		.byte	0x4
 1079 0116 AF       		.byte	0xaf
 1080 0117 7D000000 		.4byte	0x7d
 1081 011b 0E       		.uleb128 0xe
 1082 011c 04       		.byte	0x4
 1083 011d 05       		.uleb128 0x5
ARM GAS  /var/folders/d2/nstgp4h54kz7g1l847x_b8wc0000gn/T//ccaKPViU.s 			page 20


 1084 011e 04       		.byte	0x4
 1085 011f 23010000 		.4byte	0x123
 1086 0123 02       		.uleb128 0x2
 1087 0124 01       		.byte	0x1
 1088 0125 08       		.byte	0x8
 1089 0126 8A070000 		.4byte	.LASF21
 1090 012a 0F       		.uleb128 0xf
 1091 012b 23010000 		.4byte	0x123
 1092 012f 10       		.uleb128 0x10
 1093 0130 D5040000 		.4byte	.LASF22
 1094 0134 05       		.byte	0x5
 1095 0135 10       		.byte	0x10
 1096 0136 3A010000 		.4byte	0x13a
 1097 013a 05       		.uleb128 0x5
 1098 013b 04       		.byte	0x4
 1099 013c 1D010000 		.4byte	0x11d
 1100 0140 10       		.uleb128 0x10
 1101 0141 55050000 		.4byte	.LASF23
 1102 0145 05       		.byte	0x5
 1103 0146 E8       		.byte	0xe8
 1104 0147 1D010000 		.4byte	0x11d
 1105 014b 10       		.uleb128 0x10
 1106 014c 68050000 		.4byte	.LASF24
 1107 0150 05       		.byte	0x5
 1108 0151 E9       		.byte	0xe9
 1109 0152 5D000000 		.4byte	0x5d
 1110 0156 10       		.uleb128 0x10
 1111 0157 A5070000 		.4byte	.LASF25
 1112 015b 05       		.byte	0x5
 1113 015c E9       		.byte	0xe9
 1114 015d 5D000000 		.4byte	0x5d
 1115 0161 10       		.uleb128 0x10
 1116 0162 3D040000 		.4byte	.LASF26
 1117 0166 05       		.byte	0x5
 1118 0167 E9       		.byte	0xe9
 1119 0168 5D000000 		.4byte	0x5d
 1120 016c 10       		.uleb128 0x10
 1121 016d 33050000 		.4byte	.LASF27
 1122 0171 05       		.byte	0x5
 1123 0172 EB       		.byte	0xeb
 1124 0173 5D000000 		.4byte	0x5d
 1125 0177 11       		.uleb128 0x11
 1126 0178 B8040000 		.4byte	.LASF37
 1127 017c 5C       		.byte	0x5c
 1128 017d 06       		.byte	0x6
 1129 017e 0C       		.byte	0xc
 1130 017f E4010000 		.4byte	0x1e4
 1131 0183 0D       		.uleb128 0xd
 1132 0184 9E070000 		.4byte	.LASF28
 1133 0188 06       		.byte	0x6
 1134 0189 0D       		.byte	0xd
 1135 018a 1B010000 		.4byte	0x11b
 1136 018e 00       		.byte	0
 1137 018f 0D       		.uleb128 0xd
 1138 0190 78010000 		.4byte	.LASF29
 1139 0194 06       		.byte	0x6
 1140 0195 0E       		.byte	0xe
ARM GAS  /var/folders/d2/nstgp4h54kz7g1l847x_b8wc0000gn/T//ccaKPViU.s 			page 21


 1141 0196 6B000000 		.4byte	0x6b
 1142 019a 04       		.byte	0x4
 1143 019b 0D       		.uleb128 0xd
 1144 019c 4A090000 		.4byte	.LASF30
 1145 01a0 06       		.byte	0x6
 1146 01a1 0F       		.byte	0xf
 1147 01a2 1B010000 		.4byte	0x11b
 1148 01a6 08       		.byte	0x8
 1149 01a7 0D       		.uleb128 0xd
 1150 01a8 4D050000 		.4byte	.LASF31
 1151 01ac 06       		.byte	0x6
 1152 01ad 10       		.byte	0x10
 1153 01ae 1B010000 		.4byte	0x11b
 1154 01b2 0C       		.byte	0xc
 1155 01b3 0D       		.uleb128 0xd
 1156 01b4 64040000 		.4byte	.LASF32
 1157 01b8 06       		.byte	0x6
 1158 01b9 11       		.byte	0x11
 1159 01ba E4010000 		.4byte	0x1e4
 1160 01be 10       		.byte	0x10
 1161 01bf 0D       		.uleb128 0xd
 1162 01c0 98010000 		.4byte	.LASF33
 1163 01c4 06       		.byte	0x6
 1164 01c5 12       		.byte	0x12
 1165 01c6 F4010000 		.4byte	0x1f4
 1166 01ca 51       		.byte	0x51
 1167 01cb 0D       		.uleb128 0xd
 1168 01cc B2070000 		.4byte	.LASF34
 1169 01d0 06       		.byte	0x6
 1170 01d1 13       		.byte	0x13
 1171 01d2 20020000 		.4byte	0x220
 1172 01d6 54       		.byte	0x54
 1173 01d7 0D       		.uleb128 0xd
 1174 01d8 48010000 		.4byte	.LASF35
 1175 01dc 06       		.byte	0x6
 1176 01dd 14       		.byte	0x14
 1177 01de 26020000 		.4byte	0x226
 1178 01e2 58       		.byte	0x58
 1179 01e3 00       		.byte	0
 1180 01e4 0A       		.uleb128 0xa
 1181 01e5 23010000 		.4byte	0x123
 1182 01e9 F4010000 		.4byte	0x1f4
 1183 01ed 0B       		.uleb128 0xb
 1184 01ee 64000000 		.4byte	0x64
 1185 01f2 40       		.byte	0x40
 1186 01f3 00       		.byte	0
 1187 01f4 02       		.uleb128 0x2
 1188 01f5 01       		.byte	0x1
 1189 01f6 02       		.byte	0x2
 1190 01f7 02060000 		.4byte	.LASF36
 1191 01fb 11       		.uleb128 0x11
 1192 01fc 37070000 		.4byte	.LASF38
 1193 0200 08       		.byte	0x8
 1194 0201 06       		.byte	0x6
 1195 0202 25       		.byte	0x25
 1196 0203 20020000 		.4byte	0x220
 1197 0207 0D       		.uleb128 0xd
ARM GAS  /var/folders/d2/nstgp4h54kz7g1l847x_b8wc0000gn/T//ccaKPViU.s 			page 22


 1198 0208 AA010000 		.4byte	.LASF39
 1199 020c 06       		.byte	0x6
 1200 020d 26       		.byte	0x26
 1201 020e C6020000 		.4byte	0x2c6
 1202 0212 00       		.byte	0
 1203 0213 0D       		.uleb128 0xd
 1204 0214 48010000 		.4byte	.LASF35
 1205 0218 06       		.byte	0x6
 1206 0219 27       		.byte	0x27
 1207 021a 20020000 		.4byte	0x220
 1208 021e 04       		.byte	0x4
 1209 021f 00       		.byte	0
 1210 0220 05       		.uleb128 0x5
 1211 0221 04       		.byte	0x4
 1212 0222 FB010000 		.4byte	0x1fb
 1213 0226 05       		.uleb128 0x5
 1214 0227 04       		.byte	0x4
 1215 0228 77010000 		.4byte	0x177
 1216 022c 04       		.uleb128 0x4
 1217 022d 8C040000 		.4byte	.LASF40
 1218 0231 06       		.byte	0x6
 1219 0232 15       		.byte	0x15
 1220 0233 77010000 		.4byte	0x177
 1221 0237 0C       		.uleb128 0xc
 1222 0238 04       		.byte	0x4
 1223 0239 06       		.byte	0x6
 1224 023a 18       		.byte	0x18
 1225 023b 4C020000 		.4byte	0x24c
 1226 023f 0D       		.uleb128 0xd
 1227 0240 1B070000 		.4byte	.LASF41
 1228 0244 06       		.byte	0x6
 1229 0245 19       		.byte	0x19
 1230 0246 4C020000 		.4byte	0x24c
 1231 024a 00       		.byte	0
 1232 024b 00       		.byte	0
 1233 024c 05       		.uleb128 0x5
 1234 024d 04       		.byte	0x4
 1235 024e 2C020000 		.4byte	0x22c
 1236 0252 0C       		.uleb128 0xc
 1237 0253 0C       		.byte	0xc
 1238 0254 06       		.byte	0x6
 1239 0255 17       		.byte	0x17
 1240 0256 7F020000 		.4byte	0x27f
 1241 025a 0D       		.uleb128 0xd
 1242 025b E0070000 		.4byte	.LASF42
 1243 025f 06       		.byte	0x6
 1244 0260 1A       		.byte	0x1a
 1245 0261 37020000 		.4byte	0x237
 1246 0265 00       		.byte	0
 1247 0266 0D       		.uleb128 0xd
 1248 0267 4A090000 		.4byte	.LASF30
 1249 026b 06       		.byte	0x6
 1250 026c 1B       		.byte	0x1b
 1251 026d 1B010000 		.4byte	0x11b
 1252 0271 04       		.byte	0x4
 1253 0272 0D       		.uleb128 0xd
 1254 0273 4D050000 		.4byte	.LASF31
ARM GAS  /var/folders/d2/nstgp4h54kz7g1l847x_b8wc0000gn/T//ccaKPViU.s 			page 23


 1255 0277 06       		.byte	0x6
 1256 0278 1C       		.byte	0x1c
 1257 0279 1B010000 		.4byte	0x11b
 1258 027d 08       		.byte	0x8
 1259 027e 00       		.byte	0
 1260 027f 04       		.uleb128 0x4
 1261 0280 B6000000 		.4byte	.LASF43
 1262 0284 06       		.byte	0x6
 1263 0285 1D       		.byte	0x1d
 1264 0286 52020000 		.4byte	0x252
 1265 028a 11       		.uleb128 0x11
 1266 028b 31060000 		.4byte	.LASF44
 1267 028f 0C       		.byte	0xc
 1268 0290 06       		.byte	0x6
 1269 0291 1F       		.byte	0x1f
 1270 0292 BB020000 		.4byte	0x2bb
 1271 0296 0D       		.uleb128 0xd
 1272 0297 4A090000 		.4byte	.LASF30
 1273 029b 06       		.byte	0x6
 1274 029c 20       		.byte	0x20
 1275 029d 1B010000 		.4byte	0x11b
 1276 02a1 00       		.byte	0
 1277 02a2 0D       		.uleb128 0xd
 1278 02a3 4D050000 		.4byte	.LASF31
 1279 02a7 06       		.byte	0x6
 1280 02a8 21       		.byte	0x21
 1281 02a9 1B010000 		.4byte	0x11b
 1282 02ad 04       		.byte	0x4
 1283 02ae 0D       		.uleb128 0xd
 1284 02af 04020000 		.4byte	.LASF45
 1285 02b3 06       		.byte	0x6
 1286 02b4 22       		.byte	0x22
 1287 02b5 4C020000 		.4byte	0x24c
 1288 02b9 08       		.byte	0x8
 1289 02ba 00       		.byte	0
 1290 02bb 04       		.uleb128 0x4
 1291 02bc 49060000 		.4byte	.LASF46
 1292 02c0 06       		.byte	0x6
 1293 02c1 23       		.byte	0x23
 1294 02c2 8A020000 		.4byte	0x28a
 1295 02c6 05       		.uleb128 0x5
 1296 02c7 04       		.byte	0x4
 1297 02c8 BB020000 		.4byte	0x2bb
 1298 02cc 04       		.uleb128 0x4
 1299 02cd 4C070000 		.4byte	.LASF47
 1300 02d1 06       		.byte	0x6
 1301 02d2 28       		.byte	0x28
 1302 02d3 FB010000 		.4byte	0x1fb
 1303 02d7 04       		.uleb128 0x4
 1304 02d8 26080000 		.4byte	.LASF48
 1305 02dc 07       		.byte	0x7
 1306 02dd 16       		.byte	0x16
 1307 02de 48000000 		.4byte	0x48
 1308 02e2 11       		.uleb128 0x11
 1309 02e3 9D020000 		.4byte	.LASF49
 1310 02e7 18       		.byte	0x18
 1311 02e8 07       		.byte	0x7
ARM GAS  /var/folders/d2/nstgp4h54kz7g1l847x_b8wc0000gn/T//ccaKPViU.s 			page 24


 1312 02e9 2F       		.byte	0x2f
 1313 02ea 35030000 		.4byte	0x335
 1314 02ee 0D       		.uleb128 0xd
 1315 02ef B4020000 		.4byte	.LASF50
 1316 02f3 07       		.byte	0x7
 1317 02f4 31       		.byte	0x31
 1318 02f5 35030000 		.4byte	0x335
 1319 02f9 00       		.byte	0
 1320 02fa 12       		.uleb128 0x12
 1321 02fb 5F6B00   		.ascii	"_k\000"
 1322 02fe 07       		.byte	0x7
 1323 02ff 32       		.byte	0x32
 1324 0300 5D000000 		.4byte	0x5d
 1325 0304 04       		.byte	0x4
 1326 0305 0D       		.uleb128 0xd
 1327 0306 0C070000 		.4byte	.LASF51
 1328 030a 07       		.byte	0x7
 1329 030b 32       		.byte	0x32
 1330 030c 5D000000 		.4byte	0x5d
 1331 0310 08       		.byte	0x8
 1332 0311 0D       		.uleb128 0xd
 1333 0312 86020000 		.4byte	.LASF52
 1334 0316 07       		.byte	0x7
 1335 0317 32       		.byte	0x32
 1336 0318 5D000000 		.4byte	0x5d
 1337 031c 0C       		.byte	0xc
 1338 031d 0D       		.uleb128 0xd
 1339 031e 55080000 		.4byte	.LASF53
 1340 0322 07       		.byte	0x7
 1341 0323 32       		.byte	0x32
 1342 0324 5D000000 		.4byte	0x5d
 1343 0328 10       		.byte	0x10
 1344 0329 12       		.uleb128 0x12
 1345 032a 5F7800   		.ascii	"_x\000"
 1346 032d 07       		.byte	0x7
 1347 032e 33       		.byte	0x33
 1348 032f 3B030000 		.4byte	0x33b
 1349 0333 14       		.byte	0x14
 1350 0334 00       		.byte	0
 1351 0335 05       		.uleb128 0x5
 1352 0336 04       		.byte	0x4
 1353 0337 E2020000 		.4byte	0x2e2
 1354 033b 0A       		.uleb128 0xa
 1355 033c D7020000 		.4byte	0x2d7
 1356 0340 4B030000 		.4byte	0x34b
 1357 0344 0B       		.uleb128 0xb
 1358 0345 64000000 		.4byte	0x64
 1359 0349 00       		.byte	0
 1360 034a 00       		.byte	0
 1361 034b 11       		.uleb128 0x11
 1362 034c CA020000 		.4byte	.LASF54
 1363 0350 24       		.byte	0x24
 1364 0351 07       		.byte	0x7
 1365 0352 37       		.byte	0x37
 1366 0353 C4030000 		.4byte	0x3c4
 1367 0357 0D       		.uleb128 0xd
 1368 0358 4D010000 		.4byte	.LASF55
ARM GAS  /var/folders/d2/nstgp4h54kz7g1l847x_b8wc0000gn/T//ccaKPViU.s 			page 25


 1369 035c 07       		.byte	0x7
 1370 035d 39       		.byte	0x39
 1371 035e 5D000000 		.4byte	0x5d
 1372 0362 00       		.byte	0
 1373 0363 0D       		.uleb128 0xd
 1374 0364 8F070000 		.4byte	.LASF56
 1375 0368 07       		.byte	0x7
 1376 0369 3A       		.byte	0x3a
 1377 036a 5D000000 		.4byte	0x5d
 1378 036e 04       		.byte	0x4
 1379 036f 0D       		.uleb128 0xd
 1380 0370 89010000 		.4byte	.LASF57
 1381 0374 07       		.byte	0x7
 1382 0375 3B       		.byte	0x3b
 1383 0376 5D000000 		.4byte	0x5d
 1384 037a 08       		.byte	0x8
 1385 037b 0D       		.uleb128 0xd
 1386 037c 4F090000 		.4byte	.LASF58
 1387 0380 07       		.byte	0x7
 1388 0381 3C       		.byte	0x3c
 1389 0382 5D000000 		.4byte	0x5d
 1390 0386 0C       		.byte	0xc
 1391 0387 0D       		.uleb128 0xd
 1392 0388 91050000 		.4byte	.LASF59
 1393 038c 07       		.byte	0x7
 1394 038d 3D       		.byte	0x3d
 1395 038e 5D000000 		.4byte	0x5d
 1396 0392 10       		.byte	0x10
 1397 0393 0D       		.uleb128 0xd
 1398 0394 43050000 		.4byte	.LASF60
 1399 0398 07       		.byte	0x7
 1400 0399 3E       		.byte	0x3e
 1401 039a 5D000000 		.4byte	0x5d
 1402 039e 14       		.byte	0x14
 1403 039f 0D       		.uleb128 0xd
 1404 03a0 5A080000 		.4byte	.LASF61
 1405 03a4 07       		.byte	0x7
 1406 03a5 3F       		.byte	0x3f
 1407 03a6 5D000000 		.4byte	0x5d
 1408 03aa 18       		.byte	0x18
 1409 03ab 0D       		.uleb128 0xd
 1410 03ac 74060000 		.4byte	.LASF62
 1411 03b0 07       		.byte	0x7
 1412 03b1 40       		.byte	0x40
 1413 03b2 5D000000 		.4byte	0x5d
 1414 03b6 1C       		.byte	0x1c
 1415 03b7 0D       		.uleb128 0xd
 1416 03b8 11090000 		.4byte	.LASF63
 1417 03bc 07       		.byte	0x7
 1418 03bd 41       		.byte	0x41
 1419 03be 5D000000 		.4byte	0x5d
 1420 03c2 20       		.byte	0x20
 1421 03c3 00       		.byte	0
 1422 03c4 13       		.uleb128 0x13
 1423 03c5 75070000 		.4byte	.LASF64
 1424 03c9 0801     		.2byte	0x108
 1425 03cb 07       		.byte	0x7
ARM GAS  /var/folders/d2/nstgp4h54kz7g1l847x_b8wc0000gn/T//ccaKPViU.s 			page 26


 1426 03cc 4A       		.byte	0x4a
 1427 03cd 04040000 		.4byte	0x404
 1428 03d1 0D       		.uleb128 0xd
 1429 03d2 6B020000 		.4byte	.LASF65
 1430 03d6 07       		.byte	0x7
 1431 03d7 4B       		.byte	0x4b
 1432 03d8 04040000 		.4byte	0x404
 1433 03dc 00       		.byte	0
 1434 03dd 0D       		.uleb128 0xd
 1435 03de 00000000 		.4byte	.LASF66
 1436 03e2 07       		.byte	0x7
 1437 03e3 4C       		.byte	0x4c
 1438 03e4 04040000 		.4byte	0x404
 1439 03e8 80       		.byte	0x80
 1440 03e9 14       		.uleb128 0x14
 1441 03ea D7070000 		.4byte	.LASF67
 1442 03ee 07       		.byte	0x7
 1443 03ef 4E       		.byte	0x4e
 1444 03f0 D7020000 		.4byte	0x2d7
 1445 03f4 0001     		.2byte	0x100
 1446 03f6 14       		.uleb128 0x14
 1447 03f7 E0010000 		.4byte	.LASF68
 1448 03fb 07       		.byte	0x7
 1449 03fc 51       		.byte	0x51
 1450 03fd D7020000 		.4byte	0x2d7
 1451 0401 0401     		.2byte	0x104
 1452 0403 00       		.byte	0
 1453 0404 0A       		.uleb128 0xa
 1454 0405 1B010000 		.4byte	0x11b
 1455 0409 14040000 		.4byte	0x414
 1456 040d 0B       		.uleb128 0xb
 1457 040e 64000000 		.4byte	0x64
 1458 0412 1F       		.byte	0x1f
 1459 0413 00       		.byte	0
 1460 0414 13       		.uleb128 0x13
 1461 0415 9A050000 		.4byte	.LASF69
 1462 0419 9001     		.2byte	0x190
 1463 041b 07       		.byte	0x7
 1464 041c 5D       		.byte	0x5d
 1465 041d 52040000 		.4byte	0x452
 1466 0421 0D       		.uleb128 0xd
 1467 0422 B4020000 		.4byte	.LASF50
 1468 0426 07       		.byte	0x7
 1469 0427 5E       		.byte	0x5e
 1470 0428 52040000 		.4byte	0x452
 1471 042c 00       		.byte	0
 1472 042d 0D       		.uleb128 0xd
 1473 042e CB060000 		.4byte	.LASF70
 1474 0432 07       		.byte	0x7
 1475 0433 5F       		.byte	0x5f
 1476 0434 5D000000 		.4byte	0x5d
 1477 0438 04       		.byte	0x4
 1478 0439 0D       		.uleb128 0xd
 1479 043a 73020000 		.4byte	.LASF71
 1480 043e 07       		.byte	0x7
 1481 043f 61       		.byte	0x61
 1482 0440 58040000 		.4byte	0x458
ARM GAS  /var/folders/d2/nstgp4h54kz7g1l847x_b8wc0000gn/T//ccaKPViU.s 			page 27


 1483 0444 08       		.byte	0x8
 1484 0445 0D       		.uleb128 0xd
 1485 0446 75070000 		.4byte	.LASF64
 1486 044a 07       		.byte	0x7
 1487 044b 62       		.byte	0x62
 1488 044c C4030000 		.4byte	0x3c4
 1489 0450 88       		.byte	0x88
 1490 0451 00       		.byte	0
 1491 0452 05       		.uleb128 0x5
 1492 0453 04       		.byte	0x4
 1493 0454 14040000 		.4byte	0x414
 1494 0458 0A       		.uleb128 0xa
 1495 0459 68040000 		.4byte	0x468
 1496 045d 68040000 		.4byte	0x468
 1497 0461 0B       		.uleb128 0xb
 1498 0462 64000000 		.4byte	0x64
 1499 0466 1F       		.byte	0x1f
 1500 0467 00       		.byte	0
 1501 0468 05       		.uleb128 0x5
 1502 0469 04       		.byte	0x4
 1503 046a 6E040000 		.4byte	0x46e
 1504 046e 15       		.uleb128 0x15
 1505 046f 11       		.uleb128 0x11
 1506 0470 7E060000 		.4byte	.LASF72
 1507 0474 08       		.byte	0x8
 1508 0475 07       		.byte	0x7
 1509 0476 75       		.byte	0x75
 1510 0477 94040000 		.4byte	0x494
 1511 047b 0D       		.uleb128 0xd
 1512 047c 83010000 		.4byte	.LASF73
 1513 0480 07       		.byte	0x7
 1514 0481 76       		.byte	0x76
 1515 0482 94040000 		.4byte	0x494
 1516 0486 00       		.byte	0
 1517 0487 0D       		.uleb128 0xd
 1518 0488 65000000 		.4byte	.LASF74
 1519 048c 07       		.byte	0x7
 1520 048d 77       		.byte	0x77
 1521 048e 5D000000 		.4byte	0x5d
 1522 0492 04       		.byte	0x4
 1523 0493 00       		.byte	0
 1524 0494 05       		.uleb128 0x5
 1525 0495 04       		.byte	0x4
 1526 0496 2C000000 		.4byte	0x2c
 1527 049a 11       		.uleb128 0x11
 1528 049b 9D060000 		.4byte	.LASF75
 1529 049f 68       		.byte	0x68
 1530 04a0 07       		.byte	0x7
 1531 04a1 B5       		.byte	0xb5
 1532 04a2 C4050000 		.4byte	0x5c4
 1533 04a6 12       		.uleb128 0x12
 1534 04a7 5F7000   		.ascii	"_p\000"
 1535 04aa 07       		.byte	0x7
 1536 04ab B6       		.byte	0xb6
 1537 04ac 94040000 		.4byte	0x494
 1538 04b0 00       		.byte	0
 1539 04b1 12       		.uleb128 0x12
ARM GAS  /var/folders/d2/nstgp4h54kz7g1l847x_b8wc0000gn/T//ccaKPViU.s 			page 28


 1540 04b2 5F7200   		.ascii	"_r\000"
 1541 04b5 07       		.byte	0x7
 1542 04b6 B7       		.byte	0xb7
 1543 04b7 5D000000 		.4byte	0x5d
 1544 04bb 04       		.byte	0x4
 1545 04bc 12       		.uleb128 0x12
 1546 04bd 5F7700   		.ascii	"_w\000"
 1547 04c0 07       		.byte	0x7
 1548 04c1 B8       		.byte	0xb8
 1549 04c2 5D000000 		.4byte	0x5d
 1550 04c6 08       		.byte	0x8
 1551 04c7 0D       		.uleb128 0xd
 1552 04c8 D9010000 		.4byte	.LASF76
 1553 04cc 07       		.byte	0x7
 1554 04cd B9       		.byte	0xb9
 1555 04ce 33000000 		.4byte	0x33
 1556 04d2 0C       		.byte	0xc
 1557 04d3 0D       		.uleb128 0xd
 1558 04d4 5E040000 		.4byte	.LASF77
 1559 04d8 07       		.byte	0x7
 1560 04d9 BA       		.byte	0xba
 1561 04da 33000000 		.4byte	0x33
 1562 04de 0E       		.byte	0xe
 1563 04df 12       		.uleb128 0x12
 1564 04e0 5F626600 		.ascii	"_bf\000"
 1565 04e4 07       		.byte	0x7
 1566 04e5 BB       		.byte	0xbb
 1567 04e6 6F040000 		.4byte	0x46f
 1568 04ea 10       		.byte	0x10
 1569 04eb 0D       		.uleb128 0xd
 1570 04ec FC000000 		.4byte	.LASF78
 1571 04f0 07       		.byte	0x7
 1572 04f1 BC       		.byte	0xbc
 1573 04f2 5D000000 		.4byte	0x5d
 1574 04f6 18       		.byte	0x18
 1575 04f7 0D       		.uleb128 0xd
 1576 04f8 A2010000 		.4byte	.LASF79
 1577 04fc 07       		.byte	0x7
 1578 04fd C3       		.byte	0xc3
 1579 04fe 1B010000 		.4byte	0x11b
 1580 0502 1C       		.byte	0x1c
 1581 0503 0D       		.uleb128 0xd
 1582 0504 BA020000 		.4byte	.LASF80
 1583 0508 07       		.byte	0x7
 1584 0509 C5       		.byte	0xc5
 1585 050a 1F070000 		.4byte	0x71f
 1586 050e 20       		.byte	0x20
 1587 050f 0D       		.uleb128 0xd
 1588 0510 3C050000 		.4byte	.LASF81
 1589 0514 07       		.byte	0x7
 1590 0515 C7       		.byte	0xc7
 1591 0516 49070000 		.4byte	0x749
 1592 051a 24       		.byte	0x24
 1593 051b 0D       		.uleb128 0xd
 1594 051c BB070000 		.4byte	.LASF82
 1595 0520 07       		.byte	0x7
 1596 0521 CA       		.byte	0xca
ARM GAS  /var/folders/d2/nstgp4h54kz7g1l847x_b8wc0000gn/T//ccaKPViU.s 			page 29


 1597 0522 6D070000 		.4byte	0x76d
 1598 0526 28       		.byte	0x28
 1599 0527 0D       		.uleb128 0xd
 1600 0528 2B090000 		.4byte	.LASF83
 1601 052c 07       		.byte	0x7
 1602 052d CB       		.byte	0xcb
 1603 052e 87070000 		.4byte	0x787
 1604 0532 2C       		.byte	0x2c
 1605 0533 12       		.uleb128 0x12
 1606 0534 5F756200 		.ascii	"_ub\000"
 1607 0538 07       		.byte	0x7
 1608 0539 CE       		.byte	0xce
 1609 053a 6F040000 		.4byte	0x46f
 1610 053e 30       		.byte	0x30
 1611 053f 12       		.uleb128 0x12
 1612 0540 5F757000 		.ascii	"_up\000"
 1613 0544 07       		.byte	0x7
 1614 0545 CF       		.byte	0xcf
 1615 0546 94040000 		.4byte	0x494
 1616 054a 38       		.byte	0x38
 1617 054b 12       		.uleb128 0x12
 1618 054c 5F757200 		.ascii	"_ur\000"
 1619 0550 07       		.byte	0x7
 1620 0551 D0       		.byte	0xd0
 1621 0552 5D000000 		.4byte	0x5d
 1622 0556 3C       		.byte	0x3c
 1623 0557 0D       		.uleb128 0xd
 1624 0558 EF010000 		.4byte	.LASF84
 1625 055c 07       		.byte	0x7
 1626 055d D3       		.byte	0xd3
 1627 055e 8D070000 		.4byte	0x78d
 1628 0562 40       		.byte	0x40
 1629 0563 0D       		.uleb128 0xd
 1630 0564 EB080000 		.4byte	.LASF85
 1631 0568 07       		.byte	0x7
 1632 0569 D4       		.byte	0xd4
 1633 056a 9D070000 		.4byte	0x79d
 1634 056e 43       		.byte	0x43
 1635 056f 12       		.uleb128 0x12
 1636 0570 5F6C6200 		.ascii	"_lb\000"
 1637 0574 07       		.byte	0x7
 1638 0575 D7       		.byte	0xd7
 1639 0576 6F040000 		.4byte	0x46f
 1640 057a 44       		.byte	0x44
 1641 057b 0D       		.uleb128 0xd
 1642 057c F5010000 		.4byte	.LASF86
 1643 0580 07       		.byte	0x7
 1644 0581 DA       		.byte	0xda
 1645 0582 5D000000 		.4byte	0x5d
 1646 0586 4C       		.byte	0x4c
 1647 0587 0D       		.uleb128 0xd
 1648 0588 1C020000 		.4byte	.LASF87
 1649 058c 07       		.byte	0x7
 1650 058d DB       		.byte	0xdb
 1651 058e 93000000 		.4byte	0x93
 1652 0592 50       		.byte	0x50
 1653 0593 0D       		.uleb128 0xd
ARM GAS  /var/folders/d2/nstgp4h54kz7g1l847x_b8wc0000gn/T//ccaKPViU.s 			page 30


 1654 0594 99000000 		.4byte	.LASF88
 1655 0598 07       		.byte	0x7
 1656 0599 DE       		.byte	0xde
 1657 059a E2050000 		.4byte	0x5e2
 1658 059e 54       		.byte	0x54
 1659 059f 0D       		.uleb128 0xd
 1660 05a0 F5040000 		.4byte	.LASF89
 1661 05a4 07       		.byte	0x7
 1662 05a5 E2       		.byte	0xe2
 1663 05a6 10010000 		.4byte	0x110
 1664 05aa 58       		.byte	0x58
 1665 05ab 0D       		.uleb128 0xd
 1666 05ac A5060000 		.4byte	.LASF90
 1667 05b0 07       		.byte	0x7
 1668 05b1 E4       		.byte	0xe4
 1669 05b2 05010000 		.4byte	0x105
 1670 05b6 5C       		.byte	0x5c
 1671 05b7 0D       		.uleb128 0xd
 1672 05b8 13050000 		.4byte	.LASF91
 1673 05bc 07       		.byte	0x7
 1674 05bd E5       		.byte	0xe5
 1675 05be 5D000000 		.4byte	0x5d
 1676 05c2 64       		.byte	0x64
 1677 05c3 00       		.byte	0
 1678 05c4 16       		.uleb128 0x16
 1679 05c5 5D000000 		.4byte	0x5d
 1680 05c9 E2050000 		.4byte	0x5e2
 1681 05cd 17       		.uleb128 0x17
 1682 05ce E2050000 		.4byte	0x5e2
 1683 05d2 17       		.uleb128 0x17
 1684 05d3 1B010000 		.4byte	0x11b
 1685 05d7 17       		.uleb128 0x17
 1686 05d8 1D010000 		.4byte	0x11d
 1687 05dc 17       		.uleb128 0x17
 1688 05dd 5D000000 		.4byte	0x5d
 1689 05e1 00       		.byte	0
 1690 05e2 05       		.uleb128 0x5
 1691 05e3 04       		.byte	0x4
 1692 05e4 ED050000 		.4byte	0x5ed
 1693 05e8 0F       		.uleb128 0xf
 1694 05e9 E2050000 		.4byte	0x5e2
 1695 05ed 18       		.uleb128 0x18
 1696 05ee 14070000 		.4byte	.LASF92
 1697 05f2 2804     		.2byte	0x428
 1698 05f4 07       		.byte	0x7
 1699 05f5 3902     		.2byte	0x239
 1700 05f7 1F070000 		.4byte	0x71f
 1701 05fb 19       		.uleb128 0x19
 1702 05fc 83070000 		.4byte	.LASF93
 1703 0600 07       		.byte	0x7
 1704 0601 3B02     		.2byte	0x23b
 1705 0603 5D000000 		.4byte	0x5d
 1706 0607 00       		.byte	0
 1707 0608 19       		.uleb128 0x19
 1708 0609 E8010000 		.4byte	.LASF94
 1709 060d 07       		.byte	0x7
 1710 060e 4002     		.2byte	0x240
ARM GAS  /var/folders/d2/nstgp4h54kz7g1l847x_b8wc0000gn/T//ccaKPViU.s 			page 31


 1711 0610 F4070000 		.4byte	0x7f4
 1712 0614 04       		.byte	0x4
 1713 0615 19       		.uleb128 0x19
 1714 0616 35040000 		.4byte	.LASF95
 1715 061a 07       		.byte	0x7
 1716 061b 4002     		.2byte	0x240
 1717 061d F4070000 		.4byte	0x7f4
 1718 0621 08       		.byte	0x8
 1719 0622 19       		.uleb128 0x19
 1720 0623 95020000 		.4byte	.LASF96
 1721 0627 07       		.byte	0x7
 1722 0628 4002     		.2byte	0x240
 1723 062a F4070000 		.4byte	0x7f4
 1724 062e 0C       		.byte	0xc
 1725 062f 19       		.uleb128 0x19
 1726 0630 C6060000 		.4byte	.LASF97
 1727 0634 07       		.byte	0x7
 1728 0635 4202     		.2byte	0x242
 1729 0637 5D000000 		.4byte	0x5d
 1730 063b 10       		.byte	0x10
 1731 063c 19       		.uleb128 0x19
 1732 063d 81000000 		.4byte	.LASF98
 1733 0641 07       		.byte	0x7
 1734 0642 4302     		.2byte	0x243
 1735 0644 D6090000 		.4byte	0x9d6
 1736 0648 14       		.byte	0x14
 1737 0649 19       		.uleb128 0x19
 1738 064a E2060000 		.4byte	.LASF99
 1739 064e 07       		.byte	0x7
 1740 064f 4602     		.2byte	0x246
 1741 0651 5D000000 		.4byte	0x5d
 1742 0655 30       		.byte	0x30
 1743 0656 19       		.uleb128 0x19
 1744 0657 D0060000 		.4byte	.LASF100
 1745 065b 07       		.byte	0x7
 1746 065c 4702     		.2byte	0x247
 1747 065e EB090000 		.4byte	0x9eb
 1748 0662 34       		.byte	0x34
 1749 0663 19       		.uleb128 0x19
 1750 0664 A2050000 		.4byte	.LASF101
 1751 0668 07       		.byte	0x7
 1752 0669 4902     		.2byte	0x249
 1753 066b 5D000000 		.4byte	0x5d
 1754 066f 38       		.byte	0x38
 1755 0670 19       		.uleb128 0x19
 1756 0671 D8060000 		.4byte	.LASF102
 1757 0675 07       		.byte	0x7
 1758 0676 4B02     		.2byte	0x24b
 1759 0678 FC090000 		.4byte	0x9fc
 1760 067c 3C       		.byte	0x3c
 1761 067d 19       		.uleb128 0x19
 1762 067e 1B050000 		.4byte	.LASF103
 1763 0682 07       		.byte	0x7
 1764 0683 4E02     		.2byte	0x24e
 1765 0685 35030000 		.4byte	0x335
 1766 0689 40       		.byte	0x40
 1767 068a 19       		.uleb128 0x19
ARM GAS  /var/folders/d2/nstgp4h54kz7g1l847x_b8wc0000gn/T//ccaKPViU.s 			page 32


 1768 068b C0020000 		.4byte	.LASF104
 1769 068f 07       		.byte	0x7
 1770 0690 4F02     		.2byte	0x24f
 1771 0692 5D000000 		.4byte	0x5d
 1772 0696 44       		.byte	0x44
 1773 0697 19       		.uleb128 0x19
 1774 0698 45090000 		.4byte	.LASF105
 1775 069c 07       		.byte	0x7
 1776 069d 5002     		.2byte	0x250
 1777 069f 35030000 		.4byte	0x335
 1778 06a3 48       		.byte	0x48
 1779 06a4 19       		.uleb128 0x19
 1780 06a5 CD050000 		.4byte	.LASF106
 1781 06a9 07       		.byte	0x7
 1782 06aa 5102     		.2byte	0x251
 1783 06ac 020A0000 		.4byte	0xa02
 1784 06b0 4C       		.byte	0x4c
 1785 06b1 19       		.uleb128 0x19
 1786 06b2 44040000 		.4byte	.LASF107
 1787 06b6 07       		.byte	0x7
 1788 06b7 5402     		.2byte	0x254
 1789 06b9 5D000000 		.4byte	0x5d
 1790 06bd 50       		.byte	0x50
 1791 06be 19       		.uleb128 0x19
 1792 06bf 14020000 		.4byte	.LASF108
 1793 06c3 07       		.byte	0x7
 1794 06c4 5502     		.2byte	0x255
 1795 06c6 1D010000 		.4byte	0x11d
 1796 06ca 54       		.byte	0x54
 1797 06cb 19       		.uleb128 0x19
 1798 06cc 2C060000 		.4byte	.LASF109
 1799 06d0 07       		.byte	0x7
 1800 06d1 7802     		.2byte	0x278
 1801 06d3 B4090000 		.4byte	0x9b4
 1802 06d7 58       		.byte	0x58
 1803 06d8 1A       		.uleb128 0x1a
 1804 06d9 9A050000 		.4byte	.LASF69
 1805 06dd 07       		.byte	0x7
 1806 06de 7C02     		.2byte	0x27c
 1807 06e0 52040000 		.4byte	0x452
 1808 06e4 4801     		.2byte	0x148
 1809 06e6 1A       		.uleb128 0x1a
 1810 06e7 83040000 		.4byte	.LASF110
 1811 06eb 07       		.byte	0x7
 1812 06ec 7D02     		.2byte	0x27d
 1813 06ee 14040000 		.4byte	0x414
 1814 06f2 4C01     		.2byte	0x14c
 1815 06f4 1A       		.uleb128 0x1a
 1816 06f5 93080000 		.4byte	.LASF111
 1817 06f9 07       		.byte	0x7
 1818 06fa 8102     		.2byte	0x281
 1819 06fc 130A0000 		.4byte	0xa13
 1820 0700 DC02     		.2byte	0x2dc
 1821 0702 1A       		.uleb128 0x1a
 1822 0703 B0010000 		.4byte	.LASF112
 1823 0707 07       		.byte	0x7
 1824 0708 8602     		.2byte	0x286
ARM GAS  /var/folders/d2/nstgp4h54kz7g1l847x_b8wc0000gn/T//ccaKPViU.s 			page 33


 1825 070a B9070000 		.4byte	0x7b9
 1826 070e E002     		.2byte	0x2e0
 1827 0710 1A       		.uleb128 0x1a
 1828 0711 93010000 		.4byte	.LASF113
 1829 0715 07       		.byte	0x7
 1830 0716 8802     		.2byte	0x288
 1831 0718 1F0A0000 		.4byte	0xa1f
 1832 071c EC02     		.2byte	0x2ec
 1833 071e 00       		.byte	0
 1834 071f 05       		.uleb128 0x5
 1835 0720 04       		.byte	0x4
 1836 0721 C4050000 		.4byte	0x5c4
 1837 0725 16       		.uleb128 0x16
 1838 0726 5D000000 		.4byte	0x5d
 1839 072a 43070000 		.4byte	0x743
 1840 072e 17       		.uleb128 0x17
 1841 072f E2050000 		.4byte	0x5e2
 1842 0733 17       		.uleb128 0x17
 1843 0734 1B010000 		.4byte	0x11b
 1844 0738 17       		.uleb128 0x17
 1845 0739 43070000 		.4byte	0x743
 1846 073d 17       		.uleb128 0x17
 1847 073e 5D000000 		.4byte	0x5d
 1848 0742 00       		.byte	0
 1849 0743 05       		.uleb128 0x5
 1850 0744 04       		.byte	0x4
 1851 0745 2A010000 		.4byte	0x12a
 1852 0749 05       		.uleb128 0x5
 1853 074a 04       		.byte	0x4
 1854 074b 25070000 		.4byte	0x725
 1855 074f 16       		.uleb128 0x16
 1856 0750 9E000000 		.4byte	0x9e
 1857 0754 6D070000 		.4byte	0x76d
 1858 0758 17       		.uleb128 0x17
 1859 0759 E2050000 		.4byte	0x5e2
 1860 075d 17       		.uleb128 0x17
 1861 075e 1B010000 		.4byte	0x11b
 1862 0762 17       		.uleb128 0x17
 1863 0763 9E000000 		.4byte	0x9e
 1864 0767 17       		.uleb128 0x17
 1865 0768 5D000000 		.4byte	0x5d
 1866 076c 00       		.byte	0
 1867 076d 05       		.uleb128 0x5
 1868 076e 04       		.byte	0x4
 1869 076f 4F070000 		.4byte	0x74f
 1870 0773 16       		.uleb128 0x16
 1871 0774 5D000000 		.4byte	0x5d
 1872 0778 87070000 		.4byte	0x787
 1873 077c 17       		.uleb128 0x17
 1874 077d E2050000 		.4byte	0x5e2
 1875 0781 17       		.uleb128 0x17
 1876 0782 1B010000 		.4byte	0x11b
 1877 0786 00       		.byte	0
 1878 0787 05       		.uleb128 0x5
 1879 0788 04       		.byte	0x4
 1880 0789 73070000 		.4byte	0x773
 1881 078d 0A       		.uleb128 0xa
ARM GAS  /var/folders/d2/nstgp4h54kz7g1l847x_b8wc0000gn/T//ccaKPViU.s 			page 34


 1882 078e 2C000000 		.4byte	0x2c
 1883 0792 9D070000 		.4byte	0x79d
 1884 0796 0B       		.uleb128 0xb
 1885 0797 64000000 		.4byte	0x64
 1886 079b 02       		.byte	0x2
 1887 079c 00       		.byte	0
 1888 079d 0A       		.uleb128 0xa
 1889 079e 2C000000 		.4byte	0x2c
 1890 07a2 AD070000 		.4byte	0x7ad
 1891 07a6 0B       		.uleb128 0xb
 1892 07a7 64000000 		.4byte	0x64
 1893 07ab 00       		.byte	0
 1894 07ac 00       		.byte	0
 1895 07ad 07       		.uleb128 0x7
 1896 07ae 8B060000 		.4byte	.LASF114
 1897 07b2 07       		.byte	0x7
 1898 07b3 1F01     		.2byte	0x11f
 1899 07b5 9A040000 		.4byte	0x49a
 1900 07b9 1B       		.uleb128 0x1b
 1901 07ba 64080000 		.4byte	.LASF115
 1902 07be 0C       		.byte	0xc
 1903 07bf 07       		.byte	0x7
 1904 07c0 2301     		.2byte	0x123
 1905 07c2 EE070000 		.4byte	0x7ee
 1906 07c6 19       		.uleb128 0x19
 1907 07c7 B4020000 		.4byte	.LASF50
 1908 07cb 07       		.byte	0x7
 1909 07cc 2501     		.2byte	0x125
 1910 07ce EE070000 		.4byte	0x7ee
 1911 07d2 00       		.byte	0
 1912 07d3 19       		.uleb128 0x19
 1913 07d4 69040000 		.4byte	.LASF116
 1914 07d8 07       		.byte	0x7
 1915 07d9 2601     		.2byte	0x126
 1916 07db 5D000000 		.4byte	0x5d
 1917 07df 04       		.byte	0x4
 1918 07e0 19       		.uleb128 0x19
 1919 07e1 85060000 		.4byte	.LASF117
 1920 07e5 07       		.byte	0x7
 1921 07e6 2701     		.2byte	0x127
 1922 07e8 F4070000 		.4byte	0x7f4
 1923 07ec 08       		.byte	0x8
 1924 07ed 00       		.byte	0
 1925 07ee 05       		.uleb128 0x5
 1926 07ef 04       		.byte	0x4
 1927 07f0 B9070000 		.4byte	0x7b9
 1928 07f4 05       		.uleb128 0x5
 1929 07f5 04       		.byte	0x4
 1930 07f6 AD070000 		.4byte	0x7ad
 1931 07fa 1B       		.uleb128 0x1b
 1932 07fb 79000000 		.4byte	.LASF118
 1933 07ff 0E       		.byte	0xe
 1934 0800 07       		.byte	0x7
 1935 0801 3F01     		.2byte	0x13f
 1936 0803 2F080000 		.4byte	0x82f
 1937 0807 19       		.uleb128 0x19
 1938 0808 98070000 		.4byte	.LASF119
ARM GAS  /var/folders/d2/nstgp4h54kz7g1l847x_b8wc0000gn/T//ccaKPViU.s 			page 35


 1939 080c 07       		.byte	0x7
 1940 080d 4001     		.2byte	0x140
 1941 080f 2F080000 		.4byte	0x82f
 1942 0813 00       		.byte	0
 1943 0814 19       		.uleb128 0x19
 1944 0815 AC070000 		.4byte	.LASF120
 1945 0819 07       		.byte	0x7
 1946 081a 4101     		.2byte	0x141
 1947 081c 2F080000 		.4byte	0x82f
 1948 0820 06       		.byte	0x6
 1949 0821 19       		.uleb128 0x19
 1950 0822 02080000 		.4byte	.LASF121
 1951 0826 07       		.byte	0x7
 1952 0827 4201     		.2byte	0x142
 1953 0829 3A000000 		.4byte	0x3a
 1954 082d 0C       		.byte	0xc
 1955 082e 00       		.byte	0
 1956 082f 0A       		.uleb128 0xa
 1957 0830 3A000000 		.4byte	0x3a
 1958 0834 3F080000 		.4byte	0x83f
 1959 0838 0B       		.uleb128 0xb
 1960 0839 64000000 		.4byte	0x64
 1961 083d 02       		.byte	0x2
 1962 083e 00       		.byte	0
 1963 083f 1C       		.uleb128 0x1c
 1964 0840 D0       		.byte	0xd0
 1965 0841 07       		.byte	0x7
 1966 0842 5902     		.2byte	0x259
 1967 0844 40090000 		.4byte	0x940
 1968 0848 19       		.uleb128 0x19
 1969 0849 48080000 		.4byte	.LASF122
 1970 084d 07       		.byte	0x7
 1971 084e 5B02     		.2byte	0x25b
 1972 0850 64000000 		.4byte	0x64
 1973 0854 00       		.byte	0
 1974 0855 19       		.uleb128 0x19
 1975 0856 50020000 		.4byte	.LASF123
 1976 085a 07       		.byte	0x7
 1977 085b 5C02     		.2byte	0x25c
 1978 085d 1D010000 		.4byte	0x11d
 1979 0861 04       		.byte	0x4
 1980 0862 19       		.uleb128 0x19
 1981 0863 AB040000 		.4byte	.LASF124
 1982 0867 07       		.byte	0x7
 1983 0868 5D02     		.2byte	0x25d
 1984 086a 40090000 		.4byte	0x940
 1985 086e 08       		.byte	0x8
 1986 086f 19       		.uleb128 0x19
 1987 0870 1C090000 		.4byte	.LASF125
 1988 0874 07       		.byte	0x7
 1989 0875 5E02     		.2byte	0x25e
 1990 0877 4B030000 		.4byte	0x34b
 1991 087b 24       		.byte	0x24
 1992 087c 19       		.uleb128 0x19
 1993 087d A5020000 		.4byte	.LASF126
 1994 0881 07       		.byte	0x7
 1995 0882 5F02     		.2byte	0x25f
ARM GAS  /var/folders/d2/nstgp4h54kz7g1l847x_b8wc0000gn/T//ccaKPViU.s 			page 36


 1996 0884 5D000000 		.4byte	0x5d
 1997 0888 48       		.byte	0x48
 1998 0889 19       		.uleb128 0x19
 1999 088a AE060000 		.4byte	.LASF127
 2000 088e 07       		.byte	0x7
 2001 088f 6002     		.2byte	0x260
 2002 0891 56000000 		.4byte	0x56
 2003 0895 50       		.byte	0x50
 2004 0896 19       		.uleb128 0x19
 2005 0897 32090000 		.4byte	.LASF128
 2006 089b 07       		.byte	0x7
 2007 089c 6102     		.2byte	0x261
 2008 089e FA070000 		.4byte	0x7fa
 2009 08a2 58       		.byte	0x58
 2010 08a3 19       		.uleb128 0x19
 2011 08a4 B9060000 		.4byte	.LASF129
 2012 08a8 07       		.byte	0x7
 2013 08a9 6202     		.2byte	0x262
 2014 08ab 05010000 		.4byte	0x105
 2015 08af 68       		.byte	0x68
 2016 08b0 19       		.uleb128 0x19
 2017 08b1 37090000 		.4byte	.LASF130
 2018 08b5 07       		.byte	0x7
 2019 08b6 6302     		.2byte	0x263
 2020 08b8 05010000 		.4byte	0x105
 2021 08bc 70       		.byte	0x70
 2022 08bd 19       		.uleb128 0x19
 2023 08be F4050000 		.4byte	.LASF131
 2024 08c2 07       		.byte	0x7
 2025 08c3 6402     		.2byte	0x264
 2026 08c5 05010000 		.4byte	0x105
 2027 08c9 78       		.byte	0x78
 2028 08ca 19       		.uleb128 0x19
 2029 08cb 73080000 		.4byte	.LASF132
 2030 08cf 07       		.byte	0x7
 2031 08d0 6502     		.2byte	0x265
 2032 08d2 50090000 		.4byte	0x950
 2033 08d6 80       		.byte	0x80
 2034 08d7 19       		.uleb128 0x19
 2035 08d8 9F040000 		.4byte	.LASF133
 2036 08dc 07       		.byte	0x7
 2037 08dd 6602     		.2byte	0x266
 2038 08df 60090000 		.4byte	0x960
 2039 08e3 88       		.byte	0x88
 2040 08e4 19       		.uleb128 0x19
 2041 08e5 8C000000 		.4byte	.LASF134
 2042 08e9 07       		.byte	0x7
 2043 08ea 6702     		.2byte	0x267
 2044 08ec 5D000000 		.4byte	0x5d
 2045 08f0 A0       		.byte	0xa0
 2046 08f1 19       		.uleb128 0x19
 2047 08f2 5D020000 		.4byte	.LASF135
 2048 08f6 07       		.byte	0x7
 2049 08f7 6802     		.2byte	0x268
 2050 08f9 05010000 		.4byte	0x105
 2051 08fd A4       		.byte	0xa4
 2052 08fe 19       		.uleb128 0x19
ARM GAS  /var/folders/d2/nstgp4h54kz7g1l847x_b8wc0000gn/T//ccaKPViU.s 			page 37


 2053 08ff 39010000 		.4byte	.LASF136
 2054 0903 07       		.byte	0x7
 2055 0904 6902     		.2byte	0x269
 2056 0906 05010000 		.4byte	0x105
 2057 090a AC       		.byte	0xac
 2058 090b 19       		.uleb128 0x19
 2059 090c 3F020000 		.4byte	.LASF137
 2060 0910 07       		.byte	0x7
 2061 0911 6A02     		.2byte	0x26a
 2062 0913 05010000 		.4byte	0x105
 2063 0917 B4       		.byte	0xb4
 2064 0918 19       		.uleb128 0x19
 2065 0919 A7000000 		.4byte	.LASF138
 2066 091d 07       		.byte	0x7
 2067 091e 6B02     		.2byte	0x26b
 2068 0920 05010000 		.4byte	0x105
 2069 0924 BC       		.byte	0xbc
 2070 0925 19       		.uleb128 0x19
 2071 0926 C3000000 		.4byte	.LASF139
 2072 092a 07       		.byte	0x7
 2073 092b 6C02     		.2byte	0x26c
 2074 092d 05010000 		.4byte	0x105
 2075 0931 C4       		.byte	0xc4
 2076 0932 19       		.uleb128 0x19
 2077 0933 61060000 		.4byte	.LASF140
 2078 0937 07       		.byte	0x7
 2079 0938 6D02     		.2byte	0x26d
 2080 093a 5D000000 		.4byte	0x5d
 2081 093e CC       		.byte	0xcc
 2082 093f 00       		.byte	0
 2083 0940 0A       		.uleb128 0xa
 2084 0941 23010000 		.4byte	0x123
 2085 0945 50090000 		.4byte	0x950
 2086 0949 0B       		.uleb128 0xb
 2087 094a 64000000 		.4byte	0x64
 2088 094e 19       		.byte	0x19
 2089 094f 00       		.byte	0
 2090 0950 0A       		.uleb128 0xa
 2091 0951 23010000 		.4byte	0x123
 2092 0955 60090000 		.4byte	0x960
 2093 0959 0B       		.uleb128 0xb
 2094 095a 64000000 		.4byte	0x64
 2095 095e 07       		.byte	0x7
 2096 095f 00       		.byte	0
 2097 0960 0A       		.uleb128 0xa
 2098 0961 23010000 		.4byte	0x123
 2099 0965 70090000 		.4byte	0x970
 2100 0969 0B       		.uleb128 0xb
 2101 096a 64000000 		.4byte	0x64
 2102 096e 17       		.byte	0x17
 2103 096f 00       		.byte	0
 2104 0970 1C       		.uleb128 0x1c
 2105 0971 F0       		.byte	0xf0
 2106 0972 07       		.byte	0x7
 2107 0973 7202     		.2byte	0x272
 2108 0975 94090000 		.4byte	0x994
 2109 0979 19       		.uleb128 0x19
ARM GAS  /var/folders/d2/nstgp4h54kz7g1l847x_b8wc0000gn/T//ccaKPViU.s 			page 38


 2110 097a 6F050000 		.4byte	.LASF141
 2111 097e 07       		.byte	0x7
 2112 097f 7502     		.2byte	0x275
 2113 0981 94090000 		.4byte	0x994
 2114 0985 00       		.byte	0
 2115 0986 19       		.uleb128 0x19
 2116 0987 6A080000 		.4byte	.LASF142
 2117 098b 07       		.byte	0x7
 2118 098c 7602     		.2byte	0x276
 2119 098e A4090000 		.4byte	0x9a4
 2120 0992 78       		.byte	0x78
 2121 0993 00       		.byte	0
 2122 0994 0A       		.uleb128 0xa
 2123 0995 94040000 		.4byte	0x494
 2124 0999 A4090000 		.4byte	0x9a4
 2125 099d 0B       		.uleb128 0xb
 2126 099e 64000000 		.4byte	0x64
 2127 09a2 1D       		.byte	0x1d
 2128 09a3 00       		.byte	0
 2129 09a4 0A       		.uleb128 0xa
 2130 09a5 64000000 		.4byte	0x64
 2131 09a9 B4090000 		.4byte	0x9b4
 2132 09ad 0B       		.uleb128 0xb
 2133 09ae 64000000 		.4byte	0x64
 2134 09b2 1D       		.byte	0x1d
 2135 09b3 00       		.byte	0
 2136 09b4 1D       		.uleb128 0x1d
 2137 09b5 F0       		.byte	0xf0
 2138 09b6 07       		.byte	0x7
 2139 09b7 5702     		.2byte	0x257
 2140 09b9 D6090000 		.4byte	0x9d6
 2141 09bd 1E       		.uleb128 0x1e
 2142 09be 14070000 		.4byte	.LASF92
 2143 09c2 07       		.byte	0x7
 2144 09c3 6E02     		.2byte	0x26e
 2145 09c5 3F080000 		.4byte	0x83f
 2146 09c9 1E       		.uleb128 0x1e
 2147 09ca F1080000 		.4byte	.LASF143
 2148 09ce 07       		.byte	0x7
 2149 09cf 7702     		.2byte	0x277
 2150 09d1 70090000 		.4byte	0x970
 2151 09d5 00       		.byte	0
 2152 09d6 0A       		.uleb128 0xa
 2153 09d7 23010000 		.4byte	0x123
 2154 09db E6090000 		.4byte	0x9e6
 2155 09df 0B       		.uleb128 0xb
 2156 09e0 64000000 		.4byte	0x64
 2157 09e4 18       		.byte	0x18
 2158 09e5 00       		.byte	0
 2159 09e6 06       		.uleb128 0x6
 2160 09e7 23010000 		.4byte	.LASF145
 2161 09eb 05       		.uleb128 0x5
 2162 09ec 04       		.byte	0x4
 2163 09ed E6090000 		.4byte	0x9e6
 2164 09f1 1F       		.uleb128 0x1f
 2165 09f2 FC090000 		.4byte	0x9fc
 2166 09f6 17       		.uleb128 0x17
ARM GAS  /var/folders/d2/nstgp4h54kz7g1l847x_b8wc0000gn/T//ccaKPViU.s 			page 39


 2167 09f7 E2050000 		.4byte	0x5e2
 2168 09fb 00       		.byte	0
 2169 09fc 05       		.uleb128 0x5
 2170 09fd 04       		.byte	0x4
 2171 09fe F1090000 		.4byte	0x9f1
 2172 0a02 05       		.uleb128 0x5
 2173 0a03 04       		.byte	0x4
 2174 0a04 35030000 		.4byte	0x335
 2175 0a08 1F       		.uleb128 0x1f
 2176 0a09 130A0000 		.4byte	0xa13
 2177 0a0d 17       		.uleb128 0x17
 2178 0a0e 5D000000 		.4byte	0x5d
 2179 0a12 00       		.byte	0
 2180 0a13 05       		.uleb128 0x5
 2181 0a14 04       		.byte	0x4
 2182 0a15 190A0000 		.4byte	0xa19
 2183 0a19 05       		.uleb128 0x5
 2184 0a1a 04       		.byte	0x4
 2185 0a1b 080A0000 		.4byte	0xa08
 2186 0a1f 0A       		.uleb128 0xa
 2187 0a20 AD070000 		.4byte	0x7ad
 2188 0a24 2F0A0000 		.4byte	0xa2f
 2189 0a28 0B       		.uleb128 0xb
 2190 0a29 64000000 		.4byte	0x64
 2191 0a2d 02       		.byte	0x2
 2192 0a2e 00       		.byte	0
 2193 0a2f 20       		.uleb128 0x20
 2194 0a30 61070000 		.4byte	.LASF146
 2195 0a34 07       		.byte	0x7
 2196 0a35 0703     		.2byte	0x307
 2197 0a37 E2050000 		.4byte	0x5e2
 2198 0a3b 20       		.uleb128 0x20
 2199 0a3c 2E080000 		.4byte	.LASF147
 2200 0a40 07       		.byte	0x7
 2201 0a41 0803     		.2byte	0x308
 2202 0a43 E8050000 		.4byte	0x5e8
 2203 0a47 21       		.uleb128 0x21
 2204 0a48 E7070000 		.4byte	.LASF154
 2205 0a4c 01       		.byte	0x1
 2206 0a4d 9D       		.byte	0x9d
 2207 0a4e 4C020000 		.4byte	0x24c
 2208 0a52 00000000 		.4byte	.LFB11
 2209 0a56 38000000 		.4byte	.LFE11-.LFB11
 2210 0a5a 01       		.uleb128 0x1
 2211 0a5b 9C       		.byte	0x9c
 2212 0a5c A10A0000 		.4byte	0xaa1
 2213 0a60 22       		.uleb128 0x22
 2214 0a61 AA010000 		.4byte	.LASF39
 2215 0a65 01       		.byte	0x1
 2216 0a66 9D       		.byte	0x9d
 2217 0a67 C6020000 		.4byte	0x2c6
 2218 0a6b 00000000 		.4byte	.LLST36
 2219 0a6f 23       		.uleb128 0x23
 2220 0a70 72657300 		.ascii	"res\000"
 2221 0a74 01       		.byte	0x1
 2222 0a75 9F       		.byte	0x9f
 2223 0a76 4C020000 		.4byte	0x24c
ARM GAS  /var/folders/d2/nstgp4h54kz7g1l847x_b8wc0000gn/T//ccaKPViU.s 			page 40


 2224 0a7a 01       		.uleb128 0x1
 2225 0a7b 56       		.byte	0x56
 2226 0a7c 24       		.uleb128 0x24
 2227 0a7d 12000000 		.4byte	.LVL90
 2228 0a81 26100000 		.4byte	0x1026
 2229 0a85 24       		.uleb128 0x24
 2230 0a86 18000000 		.4byte	.LVL91
 2231 0a8a 31100000 		.4byte	0x1031
 2232 0a8e 24       		.uleb128 0x24
 2233 0a8f 20000000 		.4byte	.LVL93
 2234 0a93 3C100000 		.4byte	0x103c
 2235 0a97 24       		.uleb128 0x24
 2236 0a98 32000000 		.4byte	.LVL95
 2237 0a9c 47100000 		.4byte	0x1047
 2238 0aa0 00       		.byte	0
 2239 0aa1 25       		.uleb128 0x25
 2240 0aa2 CF080000 		.4byte	.LASF150
 2241 0aa6 01       		.byte	0x1
 2242 0aa7 8B       		.byte	0x8b
 2243 0aa8 00000000 		.4byte	.LFB10
 2244 0aac 48000000 		.4byte	.LFE10-.LFB10
 2245 0ab0 01       		.uleb128 0x1
 2246 0ab1 9C       		.byte	0x9c
 2247 0ab2 110B0000 		.4byte	0xb11
 2248 0ab6 22       		.uleb128 0x22
 2249 0ab7 1B010000 		.4byte	.LASF148
 2250 0abb 01       		.byte	0x1
 2251 0abc 8B       		.byte	0x8b
 2252 0abd 110B0000 		.4byte	0xb11
 2253 0ac1 1E000000 		.4byte	.LLST33
 2254 0ac5 22       		.uleb128 0x22
 2255 0ac6 AA010000 		.4byte	.LASF39
 2256 0aca 01       		.byte	0x1
 2257 0acb 8C       		.byte	0x8c
 2258 0acc C6020000 		.4byte	0x2c6
 2259 0ad0 55000000 		.4byte	.LLST34
 2260 0ad4 22       		.uleb128 0x22
 2261 0ad5 FE010000 		.4byte	.LASF149
 2262 0ad9 01       		.byte	0x1
 2263 0ada 8D       		.byte	0x8d
 2264 0adb 4C020000 		.4byte	0x24c
 2265 0adf 8C000000 		.4byte	.LLST35
 2266 0ae3 24       		.uleb128 0x24
 2267 0ae4 16000000 		.4byte	.LVL82
 2268 0ae8 26100000 		.4byte	0x1026
 2269 0aec 24       		.uleb128 0x24
 2270 0aed 1C000000 		.4byte	.LVL83
 2271 0af1 26100000 		.4byte	0x1026
 2272 0af5 24       		.uleb128 0x24
 2273 0af6 2C000000 		.4byte	.LVL84
 2274 0afa 3C100000 		.4byte	0x103c
 2275 0afe 26       		.uleb128 0x26
 2276 0aff 40000000 		.4byte	.LVL86
 2277 0b03 3C100000 		.4byte	0x103c
 2278 0b07 24       		.uleb128 0x24
 2279 0b08 44000000 		.4byte	.LVL87
 2280 0b0c 47100000 		.4byte	0x1047
ARM GAS  /var/folders/d2/nstgp4h54kz7g1l847x_b8wc0000gn/T//ccaKPViU.s 			page 41


 2281 0b10 00       		.byte	0
 2282 0b11 05       		.uleb128 0x5
 2283 0b12 04       		.byte	0x4
 2284 0b13 CC020000 		.4byte	0x2cc
 2285 0b17 25       		.uleb128 0x25
 2286 0b18 24020000 		.4byte	.LASF151
 2287 0b1c 01       		.byte	0x1
 2288 0b1d 84       		.byte	0x84
 2289 0b1e 00000000 		.4byte	.LFB9
 2290 0b22 24000000 		.4byte	.LFE9-.LFB9
 2291 0b26 01       		.uleb128 0x1
 2292 0b27 9C       		.byte	0x9c
 2293 0b28 630B0000 		.4byte	0xb63
 2294 0b2c 22       		.uleb128 0x22
 2295 0b2d AA010000 		.4byte	.LASF39
 2296 0b31 01       		.byte	0x1
 2297 0b32 84       		.byte	0x84
 2298 0b33 C6020000 		.4byte	0x2c6
 2299 0b37 C3000000 		.4byte	.LLST30
 2300 0b3b 22       		.uleb128 0x22
 2301 0b3c 4A090000 		.4byte	.LASF30
 2302 0b40 01       		.byte	0x1
 2303 0b41 84       		.byte	0x84
 2304 0b42 1B010000 		.4byte	0x11b
 2305 0b46 E4000000 		.4byte	.LLST31
 2306 0b4a 22       		.uleb128 0x22
 2307 0b4b 4D050000 		.4byte	.LASF31
 2308 0b4f 01       		.byte	0x1
 2309 0b50 85       		.byte	0x85
 2310 0b51 1B010000 		.4byte	0x11b
 2311 0b55 11010000 		.4byte	.LLST32
 2312 0b59 24       		.uleb128 0x24
 2313 0b5a 1E000000 		.4byte	.LVL79
 2314 0b5e 47100000 		.4byte	0x1047
 2315 0b62 00       		.byte	0
 2316 0b63 25       		.uleb128 0x25
 2317 0b64 7D080000 		.4byte	.LASF152
 2318 0b68 01       		.byte	0x1
 2319 0b69 7A       		.byte	0x7a
 2320 0b6a 00000000 		.4byte	.LFB8
 2321 0b6e 44000000 		.4byte	.LFE8-.LFB8
 2322 0b72 01       		.uleb128 0x1
 2323 0b73 9C       		.byte	0x9c
 2324 0b74 E40B0000 		.4byte	0xbe4
 2325 0b78 22       		.uleb128 0x22
 2326 0b79 FE010000 		.4byte	.LASF149
 2327 0b7d 01       		.byte	0x1
 2328 0b7e 7A       		.byte	0x7a
 2329 0b7f 4C020000 		.4byte	0x24c
 2330 0b83 32010000 		.4byte	.LLST27
 2331 0b87 27       		.uleb128 0x27
 2332 0b88 62756600 		.ascii	"buf\000"
 2333 0b8c 01       		.byte	0x1
 2334 0b8d 7A       		.byte	0x7a
 2335 0b8e 1B010000 		.4byte	0x11b
 2336 0b92 69010000 		.4byte	.LLST28
 2337 0b96 22       		.uleb128 0x22
ARM GAS  /var/folders/d2/nstgp4h54kz7g1l847x_b8wc0000gn/T//ccaKPViU.s 			page 42


 2338 0b97 70010000 		.4byte	.LASF153
 2339 0b9b 01       		.byte	0x1
 2340 0b9c 7A       		.byte	0x7a
 2341 0b9d 6B000000 		.4byte	0x6b
 2342 0ba1 A0010000 		.4byte	.LLST29
 2343 0ba5 24       		.uleb128 0x24
 2344 0ba6 16000000 		.4byte	.LVL71
 2345 0baa 26100000 		.4byte	0x1026
 2346 0bae 24       		.uleb128 0x24
 2347 0baf 1C000000 		.4byte	.LVL72
 2348 0bb3 31100000 		.4byte	0x1031
 2349 0bb7 28       		.uleb128 0x28
 2350 0bb8 26000000 		.4byte	.LVL73
 2351 0bbc 50100000 		.4byte	0x1050
 2352 0bc0 D10B0000 		.4byte	0xbd1
 2353 0bc4 29       		.uleb128 0x29
 2354 0bc5 01       		.uleb128 0x1
 2355 0bc6 50       		.byte	0x50
 2356 0bc7 02       		.uleb128 0x2
 2357 0bc8 76       		.byte	0x76
 2358 0bc9 00       		.sleb128 0
 2359 0bca 29       		.uleb128 0x29
 2360 0bcb 01       		.uleb128 0x1
 2361 0bcc 52       		.byte	0x52
 2362 0bcd 02       		.uleb128 0x2
 2363 0bce 77       		.byte	0x77
 2364 0bcf 00       		.sleb128 0
 2365 0bd0 00       		.byte	0
 2366 0bd1 26       		.uleb128 0x26
 2367 0bd2 3A000000 		.4byte	.LVL75
 2368 0bd6 3C100000 		.4byte	0x103c
 2369 0bda 24       		.uleb128 0x24
 2370 0bdb 3E000000 		.4byte	.LVL76
 2371 0bdf 47100000 		.4byte	0x1047
 2372 0be3 00       		.byte	0
 2373 0be4 21       		.uleb128 0x21
 2374 0be5 16060000 		.4byte	.LASF155
 2375 0be9 01       		.byte	0x1
 2376 0bea 6B       		.byte	0x6b
 2377 0beb F4010000 		.4byte	0x1f4
 2378 0bef 00000000 		.4byte	.LFB7
 2379 0bf3 48000000 		.4byte	.LFE7-.LFB7
 2380 0bf7 01       		.uleb128 0x1
 2381 0bf8 9C       		.byte	0x9c
 2382 0bf9 6F0C0000 		.4byte	0xc6f
 2383 0bfd 22       		.uleb128 0x22
 2384 0bfe FE010000 		.4byte	.LASF149
 2385 0c02 01       		.byte	0x1
 2386 0c03 6B       		.byte	0x6b
 2387 0c04 4C020000 		.4byte	0x24c
 2388 0c08 D7010000 		.4byte	.LLST23
 2389 0c0c 27       		.uleb128 0x27
 2390 0c0d 62756600 		.ascii	"buf\000"
 2391 0c11 01       		.byte	0x1
 2392 0c12 6B       		.byte	0x6b
 2393 0c13 1B010000 		.4byte	0x11b
 2394 0c17 F5010000 		.4byte	.LLST24
ARM GAS  /var/folders/d2/nstgp4h54kz7g1l847x_b8wc0000gn/T//ccaKPViU.s 			page 43


 2395 0c1b 22       		.uleb128 0x22
 2396 0c1c 70010000 		.4byte	.LASF153
 2397 0c20 01       		.byte	0x1
 2398 0c21 6B       		.byte	0x6b
 2399 0c22 6B000000 		.4byte	0x6b
 2400 0c26 13020000 		.4byte	.LLST25
 2401 0c2a 2A       		.uleb128 0x2a
 2402 0c2b 59090000 		.4byte	.LASF156
 2403 0c2f 01       		.byte	0x1
 2404 0c30 6D       		.byte	0x6d
 2405 0c31 F4010000 		.4byte	0x1f4
 2406 0c35 31020000 		.4byte	.LLST26
 2407 0c39 24       		.uleb128 0x24
 2408 0c3a 18000000 		.4byte	.LVL63
 2409 0c3e 26100000 		.4byte	0x1026
 2410 0c42 28       		.uleb128 0x28
 2411 0c43 28000000 		.4byte	.LVL65
 2412 0c47 50100000 		.4byte	0x1050
 2413 0c4b 5C0C0000 		.4byte	0xc5c
 2414 0c4f 29       		.uleb128 0x29
 2415 0c50 01       		.uleb128 0x1
 2416 0c51 50       		.byte	0x50
 2417 0c52 02       		.uleb128 0x2
 2418 0c53 77       		.byte	0x77
 2419 0c54 00       		.sleb128 0
 2420 0c55 29       		.uleb128 0x29
 2421 0c56 01       		.uleb128 0x1
 2422 0c57 52       		.byte	0x52
 2423 0c58 02       		.uleb128 0x2
 2424 0c59 78       		.byte	0x78
 2425 0c5a 00       		.sleb128 0
 2426 0c5b 00       		.byte	0
 2427 0c5c 24       		.uleb128 0x24
 2428 0c5d 2E000000 		.4byte	.LVL66
 2429 0c61 3C100000 		.4byte	0x103c
 2430 0c65 24       		.uleb128 0x24
 2431 0c66 42000000 		.4byte	.LVL68
 2432 0c6a 47100000 		.4byte	0x1047
 2433 0c6e 00       		.byte	0
 2434 0c6f 21       		.uleb128 0x21
 2435 0c70 B4050000 		.4byte	.LASF157
 2436 0c74 01       		.byte	0x1
 2437 0c75 52       		.byte	0x52
 2438 0c76 F4010000 		.4byte	0x1f4
 2439 0c7a 00000000 		.4byte	.LFB6
 2440 0c7e 78000000 		.4byte	.LFE6-.LFB6
 2441 0c82 01       		.uleb128 0x1
 2442 0c83 9C       		.byte	0x9c
 2443 0c84 1C0D0000 		.4byte	0xd1c
 2444 0c88 22       		.uleb128 0x22
 2445 0c89 FE010000 		.4byte	.LASF149
 2446 0c8d 01       		.byte	0x1
 2447 0c8e 52       		.byte	0x52
 2448 0c8f 4C020000 		.4byte	0x24c
 2449 0c93 5C020000 		.4byte	.LLST19
 2450 0c97 27       		.uleb128 0x27
 2451 0c98 62756600 		.ascii	"buf\000"
ARM GAS  /var/folders/d2/nstgp4h54kz7g1l847x_b8wc0000gn/T//ccaKPViU.s 			page 44


 2452 0c9c 01       		.byte	0x1
 2453 0c9d 52       		.byte	0x52
 2454 0c9e 1B010000 		.4byte	0x11b
 2455 0ca2 7A020000 		.4byte	.LLST20
 2456 0ca6 22       		.uleb128 0x22
 2457 0ca7 70010000 		.4byte	.LASF153
 2458 0cab 01       		.byte	0x1
 2459 0cac 52       		.byte	0x52
 2460 0cad 6B000000 		.4byte	0x6b
 2461 0cb1 BF020000 		.4byte	.LLST21
 2462 0cb5 2B       		.uleb128 0x2b
 2463 0cb6 7700     		.ascii	"w\000"
 2464 0cb8 01       		.byte	0x1
 2465 0cb9 5E       		.byte	0x5e
 2466 0cba 110B0000 		.4byte	0xb11
 2467 0cbe 04030000 		.4byte	.LLST22
 2468 0cc2 24       		.uleb128 0x24
 2469 0cc3 2A000000 		.4byte	.LVL49
 2470 0cc7 26100000 		.4byte	0x1026
 2471 0ccb 28       		.uleb128 0x28
 2472 0ccc 34000000 		.4byte	.LVL50
 2473 0cd0 50100000 		.4byte	0x1050
 2474 0cd4 E50C0000 		.4byte	0xce5
 2475 0cd8 29       		.uleb128 0x29
 2476 0cd9 01       		.uleb128 0x1
 2477 0cda 51       		.byte	0x51
 2478 0cdb 02       		.uleb128 0x2
 2479 0cdc 77       		.byte	0x77
 2480 0cdd 00       		.sleb128 0
 2481 0cde 29       		.uleb128 0x29
 2482 0cdf 01       		.uleb128 0x1
 2483 0ce0 52       		.byte	0x52
 2484 0ce1 02       		.uleb128 0x2
 2485 0ce2 74       		.byte	0x74
 2486 0ce3 00       		.sleb128 0
 2487 0ce4 00       		.byte	0
 2488 0ce5 24       		.uleb128 0x24
 2489 0ce6 40000000 		.4byte	.LVL51
 2490 0cea 5F100000 		.4byte	0x105f
 2491 0cee 24       		.uleb128 0x24
 2492 0cef 4C000000 		.4byte	.LVL53
 2493 0cf3 26100000 		.4byte	0x1026
 2494 0cf7 24       		.uleb128 0x24
 2495 0cf8 58000000 		.4byte	.LVL54
 2496 0cfc 5F100000 		.4byte	0x105f
 2497 0d00 24       		.uleb128 0x24
 2498 0d01 60000000 		.4byte	.LVL55
 2499 0d05 3C100000 		.4byte	0x103c
 2500 0d09 24       		.uleb128 0x24
 2501 0d0a 6C000000 		.4byte	.LVL57
 2502 0d0e 3C100000 		.4byte	0x103c
 2503 0d12 24       		.uleb128 0x24
 2504 0d13 74000000 		.4byte	.LVL59
 2505 0d17 47100000 		.4byte	0x1047
 2506 0d1b 00       		.byte	0
 2507 0d1c 21       		.uleb128 0x21
 2508 0d1d 07080000 		.4byte	.LASF158
ARM GAS  /var/folders/d2/nstgp4h54kz7g1l847x_b8wc0000gn/T//ccaKPViU.s 			page 45


 2509 0d21 01       		.byte	0x1
 2510 0d22 3F       		.byte	0x3f
 2511 0d23 4C020000 		.4byte	0x24c
 2512 0d27 00000000 		.4byte	.LFB5
 2513 0d2b 50000000 		.4byte	.LFE5-.LFB5
 2514 0d2f 01       		.uleb128 0x1
 2515 0d30 9C       		.byte	0x9c
 2516 0d31 D00D0000 		.4byte	0xdd0
 2517 0d35 27       		.uleb128 0x27
 2518 0d36 62757300 		.ascii	"bus\000"
 2519 0d3a 01       		.byte	0x1
 2520 0d3b 3F       		.byte	0x3f
 2521 0d3c D00D0000 		.4byte	0xdd0
 2522 0d40 17030000 		.4byte	.LLST15
 2523 0d44 22       		.uleb128 0x22
 2524 0d45 64040000 		.4byte	.LASF32
 2525 0d49 01       		.byte	0x1
 2526 0d4a 3F       		.byte	0x3f
 2527 0d4b 43070000 		.4byte	0x743
 2528 0d4f 35030000 		.4byte	.LLST16
 2529 0d53 2B       		.uleb128 0x2b
 2530 0d54 72657300 		.ascii	"res\000"
 2531 0d58 01       		.byte	0x1
 2532 0d59 41       		.byte	0x41
 2533 0d5a 4C020000 		.4byte	0x24c
 2534 0d5e 53030000 		.4byte	.LLST17
 2535 0d62 2C       		.uleb128 0x2c
 2536 0d63 F60F0000 		.4byte	0xff6
 2537 0d67 16000000 		.4byte	.LBB8
 2538 0d6b 16000000 		.4byte	.LBE8-.LBB8
 2539 0d6f 01       		.byte	0x1
 2540 0d70 46       		.byte	0x46
 2541 0d71 AB0D0000 		.4byte	0xdab
 2542 0d75 2D       		.uleb128 0x2d
 2543 0d76 06100000 		.4byte	0x1006
 2544 0d7a 01       		.uleb128 0x1
 2545 0d7b 56       		.byte	0x56
 2546 0d7c 2E       		.uleb128 0x2e
 2547 0d7d 11100000 		.4byte	0x1011
 2548 0d81 2F       		.uleb128 0x2f
 2549 0d82 16000000 		.4byte	.LBB9
 2550 0d86 16000000 		.4byte	.LBE9-.LBB9
 2551 0d8a 30       		.uleb128 0x30
 2552 0d8b 1C100000 		.4byte	0x101c
 2553 0d8f 88030000 		.4byte	.LLST18
 2554 0d93 31       		.uleb128 0x31
 2555 0d94 28000000 		.4byte	.LVL38
 2556 0d98 6A100000 		.4byte	0x106a
 2557 0d9c 29       		.uleb128 0x29
 2558 0d9d 01       		.uleb128 0x1
 2559 0d9e 50       		.byte	0x50
 2560 0d9f 02       		.uleb128 0x2
 2561 0da0 75       		.byte	0x75
 2562 0da1 00       		.sleb128 0
 2563 0da2 29       		.uleb128 0x29
 2564 0da3 01       		.uleb128 0x1
 2565 0da4 51       		.byte	0x51
ARM GAS  /var/folders/d2/nstgp4h54kz7g1l847x_b8wc0000gn/T//ccaKPViU.s 			page 46


 2566 0da5 02       		.uleb128 0x2
 2567 0da6 74       		.byte	0x74
 2568 0da7 10       		.sleb128 16
 2569 0da8 00       		.byte	0
 2570 0da9 00       		.byte	0
 2571 0daa 00       		.byte	0
 2572 0dab 24       		.uleb128 0x24
 2573 0dac 14000000 		.4byte	.LVL33
 2574 0db0 26100000 		.4byte	0x1026
 2575 0db4 24       		.uleb128 0x24
 2576 0db5 32000000 		.4byte	.LVL40
 2577 0db9 3C100000 		.4byte	0x103c
 2578 0dbd 24       		.uleb128 0x24
 2579 0dbe 46000000 		.4byte	.LVL42
 2580 0dc2 31100000 		.4byte	0x1031
 2581 0dc6 24       		.uleb128 0x24
 2582 0dc7 4C000000 		.4byte	.LVL44
 2583 0dcb 47100000 		.4byte	0x1047
 2584 0dcf 00       		.byte	0
 2585 0dd0 05       		.uleb128 0x5
 2586 0dd1 04       		.byte	0x4
 2587 0dd2 7F020000 		.4byte	0x27f
 2588 0dd6 21       		.uleb128 0x21
 2589 0dd7 C1070000 		.4byte	.LASF159
 2590 0ddb 01       		.byte	0x1
 2591 0ddc 32       		.byte	0x32
 2592 0ddd 4C020000 		.4byte	0x24c
 2593 0de1 00000000 		.4byte	.LFB4
 2594 0de5 48000000 		.4byte	.LFE4-.LFB4
 2595 0de9 01       		.uleb128 0x1
 2596 0dea 9C       		.byte	0x9c
 2597 0deb 810E0000 		.4byte	0xe81
 2598 0def 27       		.uleb128 0x27
 2599 0df0 62757300 		.ascii	"bus\000"
 2600 0df4 01       		.byte	0x1
 2601 0df5 32       		.byte	0x32
 2602 0df6 D00D0000 		.4byte	0xdd0
 2603 0dfa A7030000 		.4byte	.LLST11
 2604 0dfe 22       		.uleb128 0x22
 2605 0dff 64040000 		.4byte	.LASF32
 2606 0e03 01       		.byte	0x1
 2607 0e04 32       		.byte	0x32
 2608 0e05 43070000 		.4byte	0x743
 2609 0e09 C5030000 		.4byte	.LLST12
 2610 0e0d 32       		.uleb128 0x32
 2611 0e0e 72657300 		.ascii	"res\000"
 2612 0e12 01       		.byte	0x1
 2613 0e13 34       		.byte	0x34
 2614 0e14 4C020000 		.4byte	0x24c
 2615 0e18 2C       		.uleb128 0x2c
 2616 0e19 F60F0000 		.4byte	0xff6
 2617 0e1d 16000000 		.4byte	.LBB6
 2618 0e21 16000000 		.4byte	.LBE6-.LBB6
 2619 0e25 01       		.byte	0x1
 2620 0e26 38       		.byte	0x38
 2621 0e27 650E0000 		.4byte	0xe65
 2622 0e2b 2D       		.uleb128 0x2d
ARM GAS  /var/folders/d2/nstgp4h54kz7g1l847x_b8wc0000gn/T//ccaKPViU.s 			page 47


 2623 0e2c 06100000 		.4byte	0x1006
 2624 0e30 01       		.uleb128 0x1
 2625 0e31 56       		.byte	0x56
 2626 0e32 33       		.uleb128 0x33
 2627 0e33 11100000 		.4byte	0x1011
 2628 0e37 E3030000 		.4byte	.LLST13
 2629 0e3b 2F       		.uleb128 0x2f
 2630 0e3c 16000000 		.4byte	.LBB7
 2631 0e40 16000000 		.4byte	.LBE7-.LBB7
 2632 0e44 30       		.uleb128 0x30
 2633 0e45 1C100000 		.4byte	0x101c
 2634 0e49 F6030000 		.4byte	.LLST14
 2635 0e4d 31       		.uleb128 0x31
 2636 0e4e 28000000 		.4byte	.LVL25
 2637 0e52 6A100000 		.4byte	0x106a
 2638 0e56 29       		.uleb128 0x29
 2639 0e57 01       		.uleb128 0x1
 2640 0e58 50       		.byte	0x50
 2641 0e59 02       		.uleb128 0x2
 2642 0e5a 75       		.byte	0x75
 2643 0e5b 00       		.sleb128 0
 2644 0e5c 29       		.uleb128 0x29
 2645 0e5d 01       		.uleb128 0x1
 2646 0e5e 51       		.byte	0x51
 2647 0e5f 02       		.uleb128 0x2
 2648 0e60 74       		.byte	0x74
 2649 0e61 10       		.sleb128 16
 2650 0e62 00       		.byte	0
 2651 0e63 00       		.byte	0
 2652 0e64 00       		.byte	0
 2653 0e65 24       		.uleb128 0x24
 2654 0e66 14000000 		.4byte	.LVL22
 2655 0e6a 26100000 		.4byte	0x1026
 2656 0e6e 24       		.uleb128 0x24
 2657 0e6f 32000000 		.4byte	.LVL27
 2658 0e73 3C100000 		.4byte	0x103c
 2659 0e77 24       		.uleb128 0x24
 2660 0e78 44000000 		.4byte	.LVL29
 2661 0e7c 47100000 		.4byte	0x1047
 2662 0e80 00       		.byte	0
 2663 0e81 25       		.uleb128 0x25
 2664 0e82 76050000 		.4byte	.LASF160
 2665 0e86 01       		.byte	0x1
 2666 0e87 21       		.byte	0x21
 2667 0e88 00000000 		.4byte	.LFB3
 2668 0e8c 58000000 		.4byte	.LFE3-.LFB3
 2669 0e90 01       		.uleb128 0x1
 2670 0e91 9C       		.byte	0x9c
 2671 0e92 210F0000 		.4byte	0xf21
 2672 0e96 27       		.uleb128 0x27
 2673 0e97 62757300 		.ascii	"bus\000"
 2674 0e9b 01       		.byte	0x1
 2675 0e9c 21       		.byte	0x21
 2676 0e9d D00D0000 		.4byte	0xdd0
 2677 0ea1 09040000 		.4byte	.LLST8
 2678 0ea5 22       		.uleb128 0x22
 2679 0ea6 FE010000 		.4byte	.LASF149
ARM GAS  /var/folders/d2/nstgp4h54kz7g1l847x_b8wc0000gn/T//ccaKPViU.s 			page 48


 2680 0eaa 01       		.byte	0x1
 2681 0eab 21       		.byte	0x21
 2682 0eac 4C020000 		.4byte	0x24c
 2683 0eb0 40040000 		.4byte	.LLST9
 2684 0eb4 22       		.uleb128 0x22
 2685 0eb5 64040000 		.4byte	.LASF32
 2686 0eb9 01       		.byte	0x1
 2687 0eba 21       		.byte	0x21
 2688 0ebb 43070000 		.4byte	0x743
 2689 0ebf 77040000 		.4byte	.LLST10
 2690 0ec3 28       		.uleb128 0x28
 2691 0ec4 1E000000 		.4byte	.LVL13
 2692 0ec8 75100000 		.4byte	0x1075
 2693 0ecc E20E0000 		.4byte	0xee2
 2694 0ed0 29       		.uleb128 0x29
 2695 0ed1 01       		.uleb128 0x1
 2696 0ed2 50       		.byte	0x50
 2697 0ed3 02       		.uleb128 0x2
 2698 0ed4 75       		.byte	0x75
 2699 0ed5 10       		.sleb128 16
 2700 0ed6 29       		.uleb128 0x29
 2701 0ed7 01       		.uleb128 0x1
 2702 0ed8 51       		.byte	0x51
 2703 0ed9 01       		.uleb128 0x1
 2704 0eda 30       		.byte	0x30
 2705 0edb 29       		.uleb128 0x29
 2706 0edc 01       		.uleb128 0x1
 2707 0edd 52       		.byte	0x52
 2708 0ede 02       		.uleb128 0x2
 2709 0edf 08       		.byte	0x8
 2710 0ee0 41       		.byte	0x41
 2711 0ee1 00       		.byte	0
 2712 0ee2 28       		.uleb128 0x28
 2713 0ee3 26000000 		.4byte	.LVL14
 2714 0ee7 84100000 		.4byte	0x1084
 2715 0eeb FC0E0000 		.4byte	0xefc
 2716 0eef 29       		.uleb128 0x29
 2717 0ef0 01       		.uleb128 0x1
 2718 0ef1 51       		.byte	0x51
 2719 0ef2 02       		.uleb128 0x2
 2720 0ef3 77       		.byte	0x77
 2721 0ef4 00       		.sleb128 0
 2722 0ef5 29       		.uleb128 0x29
 2723 0ef6 01       		.uleb128 0x1
 2724 0ef7 52       		.byte	0x52
 2725 0ef8 02       		.uleb128 0x2
 2726 0ef9 08       		.byte	0x8
 2727 0efa 40       		.byte	0x40
 2728 0efb 00       		.byte	0
 2729 0efc 24       		.uleb128 0x24
 2730 0efd 2C000000 		.4byte	.LVL15
 2731 0f01 26100000 		.4byte	0x1026
 2732 0f05 24       		.uleb128 0x24
 2733 0f06 3A000000 		.4byte	.LVL16
 2734 0f0a 5F100000 		.4byte	0x105f
 2735 0f0e 26       		.uleb128 0x26
 2736 0f0f 4E000000 		.4byte	.LVL18
ARM GAS  /var/folders/d2/nstgp4h54kz7g1l847x_b8wc0000gn/T//ccaKPViU.s 			page 49


 2737 0f13 3C100000 		.4byte	0x103c
 2738 0f17 24       		.uleb128 0x24
 2739 0f18 52000000 		.4byte	.LVL19
 2740 0f1c 47100000 		.4byte	0x1047
 2741 0f20 00       		.byte	0
 2742 0f21 25       		.uleb128 0x25
 2743 0f22 05010000 		.4byte	.LASF161
 2744 0f26 01       		.byte	0x1
 2745 0f27 17       		.byte	0x17
 2746 0f28 00000000 		.4byte	.LFB2
 2747 0f2c 44000000 		.4byte	.LFE2-.LFB2
 2748 0f30 01       		.uleb128 0x1
 2749 0f31 9C       		.byte	0x9c
 2750 0f32 AA0F0000 		.4byte	0xfaa
 2751 0f36 22       		.uleb128 0x22
 2752 0f37 FE010000 		.4byte	.LASF149
 2753 0f3b 01       		.byte	0x1
 2754 0f3c 17       		.byte	0x17
 2755 0f3d 4C020000 		.4byte	0x24c
 2756 0f41 AE040000 		.4byte	.LLST3
 2757 0f45 22       		.uleb128 0x22
 2758 0f46 2E010000 		.4byte	.LASF162
 2759 0f4a 01       		.byte	0x1
 2760 0f4b 17       		.byte	0x17
 2761 0f4c 1B010000 		.4byte	0x11b
 2762 0f50 CC040000 		.4byte	.LLST4
 2763 0f54 22       		.uleb128 0x22
 2764 0f55 78020000 		.4byte	.LASF163
 2765 0f59 01       		.byte	0x1
 2766 0f5a 17       		.byte	0x17
 2767 0f5b 1B010000 		.4byte	0x11b
 2768 0f5f EA040000 		.4byte	.LLST5
 2769 0f63 22       		.uleb128 0x22
 2770 0f64 9E070000 		.4byte	.LASF28
 2771 0f68 01       		.byte	0x1
 2772 0f69 18       		.byte	0x18
 2773 0f6a 1B010000 		.4byte	0x11b
 2774 0f6e 08050000 		.4byte	.LLST6
 2775 0f72 22       		.uleb128 0x22
 2776 0f73 78010000 		.4byte	.LASF29
 2777 0f77 01       		.byte	0x1
 2778 0f78 18       		.byte	0x18
 2779 0f79 6B000000 		.4byte	0x6b
 2780 0f7d 26050000 		.4byte	.LLST7
 2781 0f81 28       		.uleb128 0x28
 2782 0f82 22000000 		.4byte	.LVL6
 2783 0f86 75100000 		.4byte	0x1075
 2784 0f8a A00F0000 		.4byte	0xfa0
 2785 0f8e 29       		.uleb128 0x29
 2786 0f8f 01       		.uleb128 0x1
 2787 0f90 50       		.byte	0x50
 2788 0f91 02       		.uleb128 0x2
 2789 0f92 74       		.byte	0x74
 2790 0f93 10       		.sleb128 16
 2791 0f94 29       		.uleb128 0x29
 2792 0f95 01       		.uleb128 0x1
 2793 0f96 51       		.byte	0x51
ARM GAS  /var/folders/d2/nstgp4h54kz7g1l847x_b8wc0000gn/T//ccaKPViU.s 			page 50


 2794 0f97 01       		.uleb128 0x1
 2795 0f98 30       		.byte	0x30
 2796 0f99 29       		.uleb128 0x29
 2797 0f9a 01       		.uleb128 0x1
 2798 0f9b 52       		.byte	0x52
 2799 0f9c 02       		.uleb128 0x2
 2800 0f9d 08       		.byte	0x8
 2801 0f9e 4C       		.byte	0x4c
 2802 0f9f 00       		.byte	0
 2803 0fa0 24       		.uleb128 0x24
 2804 0fa1 3E000000 		.4byte	.LVL8
 2805 0fa5 47100000 		.4byte	0x1047
 2806 0fa9 00       		.byte	0
 2807 0faa 25       		.uleb128 0x25
 2808 0fab 23050000 		.4byte	.LASF164
 2809 0faf 01       		.byte	0x1
 2810 0fb0 10       		.byte	0x10
 2811 0fb1 00000000 		.4byte	.LFB1
 2812 0fb5 28000000 		.4byte	.LFE1-.LFB1
 2813 0fb9 01       		.uleb128 0x1
 2814 0fba 9C       		.byte	0x9c
 2815 0fbb F60F0000 		.4byte	0xff6
 2816 0fbf 27       		.uleb128 0x27
 2817 0fc0 62757300 		.ascii	"bus\000"
 2818 0fc4 01       		.byte	0x1
 2819 0fc5 10       		.byte	0x10
 2820 0fc6 D00D0000 		.4byte	0xdd0
 2821 0fca 46050000 		.4byte	.LLST0
 2822 0fce 22       		.uleb128 0x22
 2823 0fcf 4A090000 		.4byte	.LASF30
 2824 0fd3 01       		.byte	0x1
 2825 0fd4 10       		.byte	0x10
 2826 0fd5 1B010000 		.4byte	0x11b
 2827 0fd9 67050000 		.4byte	.LLST1
 2828 0fdd 22       		.uleb128 0x22
 2829 0fde 4D050000 		.4byte	.LASF31
 2830 0fe2 01       		.byte	0x1
 2831 0fe3 10       		.byte	0x10
 2832 0fe4 1B010000 		.4byte	0x11b
 2833 0fe8 88050000 		.4byte	.LLST2
 2834 0fec 24       		.uleb128 0x24
 2835 0fed 22000000 		.4byte	.LVL1
 2836 0ff1 47100000 		.4byte	0x1047
 2837 0ff5 00       		.byte	0
 2838 0ff6 34       		.uleb128 0x34
 2839 0ff7 27040000 		.4byte	.LASF178
 2840 0ffb 01       		.byte	0x1
 2841 0ffc 04       		.byte	0x4
 2842 0ffd 4C020000 		.4byte	0x24c
 2843 1001 01       		.byte	0x1
 2844 1002 26100000 		.4byte	0x1026
 2845 1006 35       		.uleb128 0x35
 2846 1007 62757300 		.ascii	"bus\000"
 2847 100b 01       		.byte	0x1
 2848 100c 04       		.byte	0x4
 2849 100d D00D0000 		.4byte	0xdd0
 2850 1011 36       		.uleb128 0x36
ARM GAS  /var/folders/d2/nstgp4h54kz7g1l847x_b8wc0000gn/T//ccaKPViU.s 			page 51


 2851 1012 64040000 		.4byte	.LASF32
 2852 1016 01       		.byte	0x1
 2853 1017 04       		.byte	0x4
 2854 1018 43070000 		.4byte	0x743
 2855 101c 32       		.uleb128 0x32
 2856 101d 7400     		.ascii	"t\000"
 2857 101f 01       		.byte	0x1
 2858 1020 06       		.byte	0x6
 2859 1021 4C020000 		.4byte	0x24c
 2860 1025 00       		.byte	0
 2861 1026 37       		.uleb128 0x37
 2862 1027 FB040000 		.4byte	.LASF165
 2863 102b FB040000 		.4byte	.LASF165
 2864 102f 06       		.byte	0x6
 2865 1030 9F       		.byte	0x9f
 2866 1031 37       		.uleb128 0x37
 2867 1032 C1010000 		.4byte	.LASF166
 2868 1036 C1010000 		.4byte	.LASF166
 2869 103a 06       		.byte	0x6
 2870 103b A8       		.byte	0xa8
 2871 103c 37       		.uleb128 0x37
 2872 103d F9080000 		.4byte	.LASF167
 2873 1041 F9080000 		.4byte	.LASF167
 2874 1045 06       		.byte	0x6
 2875 1046 A2       		.byte	0xa2
 2876 1047 38       		.uleb128 0x38
 2877 1048 FB060000 		.4byte	.LASF179
 2878 104c FB060000 		.4byte	.LASF179
 2879 1050 39       		.uleb128 0x39
 2880 1051 C6040000 		.4byte	.LASF170
 2881 1055 E4040000 		.4byte	.LASF172
 2882 1059 09       		.byte	0x9
 2883 105a 00       		.byte	0
 2884 105b C6040000 		.4byte	.LASF170
 2885 105f 37       		.uleb128 0x37
 2886 1060 D7050000 		.4byte	.LASF168
 2887 1064 D7050000 		.4byte	.LASF168
 2888 1068 06       		.byte	0x6
 2889 1069 A5       		.byte	0xa5
 2890 106a 37       		.uleb128 0x37
 2891 106b 6B000000 		.4byte	.LASF169
 2892 106f 6B000000 		.4byte	.LASF169
 2893 1073 08       		.byte	0x8
 2894 1074 24       		.byte	0x24
 2895 1075 39       		.uleb128 0x39
 2896 1076 41080000 		.4byte	.LASF171
 2897 107a D4000000 		.4byte	.LASF173
 2898 107e 09       		.byte	0x9
 2899 107f 00       		.byte	0
 2900 1080 41080000 		.4byte	.LASF171
 2901 1084 37       		.uleb128 0x37
 2902 1085 9F000000 		.4byte	.LASF174
 2903 1089 9F000000 		.4byte	.LASF174
 2904 108d 08       		.byte	0x8
 2905 108e 2C       		.byte	0x2c
 2906 108f 00       		.byte	0
 2907              		.section	.debug_abbrev,"",%progbits
ARM GAS  /var/folders/d2/nstgp4h54kz7g1l847x_b8wc0000gn/T//ccaKPViU.s 			page 52


 2908              	.Ldebug_abbrev0:
 2909 0000 01       		.uleb128 0x1
 2910 0001 11       		.uleb128 0x11
 2911 0002 01       		.byte	0x1
 2912 0003 25       		.uleb128 0x25
 2913 0004 0E       		.uleb128 0xe
 2914 0005 13       		.uleb128 0x13
 2915 0006 0B       		.uleb128 0xb
 2916 0007 03       		.uleb128 0x3
 2917 0008 0E       		.uleb128 0xe
 2918 0009 1B       		.uleb128 0x1b
 2919 000a 0E       		.uleb128 0xe
 2920 000b 55       		.uleb128 0x55
 2921 000c 17       		.uleb128 0x17
 2922 000d 11       		.uleb128 0x11
 2923 000e 01       		.uleb128 0x1
 2924 000f 10       		.uleb128 0x10
 2925 0010 17       		.uleb128 0x17
 2926 0011 00       		.byte	0
 2927 0012 00       		.byte	0
 2928 0013 02       		.uleb128 0x2
 2929 0014 24       		.uleb128 0x24
 2930 0015 00       		.byte	0
 2931 0016 0B       		.uleb128 0xb
 2932 0017 0B       		.uleb128 0xb
 2933 0018 3E       		.uleb128 0x3e
 2934 0019 0B       		.uleb128 0xb
 2935 001a 03       		.uleb128 0x3
 2936 001b 0E       		.uleb128 0xe
 2937 001c 00       		.byte	0
 2938 001d 00       		.byte	0
 2939 001e 03       		.uleb128 0x3
 2940 001f 24       		.uleb128 0x24
 2941 0020 00       		.byte	0
 2942 0021 0B       		.uleb128 0xb
 2943 0022 0B       		.uleb128 0xb
 2944 0023 3E       		.uleb128 0x3e
 2945 0024 0B       		.uleb128 0xb
 2946 0025 03       		.uleb128 0x3
 2947 0026 08       		.uleb128 0x8
 2948 0027 00       		.byte	0
 2949 0028 00       		.byte	0
 2950 0029 04       		.uleb128 0x4
 2951 002a 16       		.uleb128 0x16
 2952 002b 00       		.byte	0
 2953 002c 03       		.uleb128 0x3
 2954 002d 0E       		.uleb128 0xe
 2955 002e 3A       		.uleb128 0x3a
 2956 002f 0B       		.uleb128 0xb
 2957 0030 3B       		.uleb128 0x3b
 2958 0031 0B       		.uleb128 0xb
 2959 0032 49       		.uleb128 0x49
 2960 0033 13       		.uleb128 0x13
 2961 0034 00       		.byte	0
 2962 0035 00       		.byte	0
 2963 0036 05       		.uleb128 0x5
 2964 0037 0F       		.uleb128 0xf
ARM GAS  /var/folders/d2/nstgp4h54kz7g1l847x_b8wc0000gn/T//ccaKPViU.s 			page 53


 2965 0038 00       		.byte	0
 2966 0039 0B       		.uleb128 0xb
 2967 003a 0B       		.uleb128 0xb
 2968 003b 49       		.uleb128 0x49
 2969 003c 13       		.uleb128 0x13
 2970 003d 00       		.byte	0
 2971 003e 00       		.byte	0
 2972 003f 06       		.uleb128 0x6
 2973 0040 13       		.uleb128 0x13
 2974 0041 00       		.byte	0
 2975 0042 03       		.uleb128 0x3
 2976 0043 0E       		.uleb128 0xe
 2977 0044 3C       		.uleb128 0x3c
 2978 0045 19       		.uleb128 0x19
 2979 0046 00       		.byte	0
 2980 0047 00       		.byte	0
 2981 0048 07       		.uleb128 0x7
 2982 0049 16       		.uleb128 0x16
 2983 004a 00       		.byte	0
 2984 004b 03       		.uleb128 0x3
 2985 004c 0E       		.uleb128 0xe
 2986 004d 3A       		.uleb128 0x3a
 2987 004e 0B       		.uleb128 0xb
 2988 004f 3B       		.uleb128 0x3b
 2989 0050 05       		.uleb128 0x5
 2990 0051 49       		.uleb128 0x49
 2991 0052 13       		.uleb128 0x13
 2992 0053 00       		.byte	0
 2993 0054 00       		.byte	0
 2994 0055 08       		.uleb128 0x8
 2995 0056 17       		.uleb128 0x17
 2996 0057 01       		.byte	0x1
 2997 0058 0B       		.uleb128 0xb
 2998 0059 0B       		.uleb128 0xb
 2999 005a 3A       		.uleb128 0x3a
 3000 005b 0B       		.uleb128 0xb
 3001 005c 3B       		.uleb128 0x3b
 3002 005d 0B       		.uleb128 0xb
 3003 005e 01       		.uleb128 0x1
 3004 005f 13       		.uleb128 0x13
 3005 0060 00       		.byte	0
 3006 0061 00       		.byte	0
 3007 0062 09       		.uleb128 0x9
 3008 0063 0D       		.uleb128 0xd
 3009 0064 00       		.byte	0
 3010 0065 03       		.uleb128 0x3
 3011 0066 0E       		.uleb128 0xe
 3012 0067 3A       		.uleb128 0x3a
 3013 0068 0B       		.uleb128 0xb
 3014 0069 3B       		.uleb128 0x3b
 3015 006a 0B       		.uleb128 0xb
 3016 006b 49       		.uleb128 0x49
 3017 006c 13       		.uleb128 0x13
 3018 006d 00       		.byte	0
 3019 006e 00       		.byte	0
 3020 006f 0A       		.uleb128 0xa
 3021 0070 01       		.uleb128 0x1
ARM GAS  /var/folders/d2/nstgp4h54kz7g1l847x_b8wc0000gn/T//ccaKPViU.s 			page 54


 3022 0071 01       		.byte	0x1
 3023 0072 49       		.uleb128 0x49
 3024 0073 13       		.uleb128 0x13
 3025 0074 01       		.uleb128 0x1
 3026 0075 13       		.uleb128 0x13
 3027 0076 00       		.byte	0
 3028 0077 00       		.byte	0
 3029 0078 0B       		.uleb128 0xb
 3030 0079 21       		.uleb128 0x21
 3031 007a 00       		.byte	0
 3032 007b 49       		.uleb128 0x49
 3033 007c 13       		.uleb128 0x13
 3034 007d 2F       		.uleb128 0x2f
 3035 007e 0B       		.uleb128 0xb
 3036 007f 00       		.byte	0
 3037 0080 00       		.byte	0
 3038 0081 0C       		.uleb128 0xc
 3039 0082 13       		.uleb128 0x13
 3040 0083 01       		.byte	0x1
 3041 0084 0B       		.uleb128 0xb
 3042 0085 0B       		.uleb128 0xb
 3043 0086 3A       		.uleb128 0x3a
 3044 0087 0B       		.uleb128 0xb
 3045 0088 3B       		.uleb128 0x3b
 3046 0089 0B       		.uleb128 0xb
 3047 008a 01       		.uleb128 0x1
 3048 008b 13       		.uleb128 0x13
 3049 008c 00       		.byte	0
 3050 008d 00       		.byte	0
 3051 008e 0D       		.uleb128 0xd
 3052 008f 0D       		.uleb128 0xd
 3053 0090 00       		.byte	0
 3054 0091 03       		.uleb128 0x3
 3055 0092 0E       		.uleb128 0xe
 3056 0093 3A       		.uleb128 0x3a
 3057 0094 0B       		.uleb128 0xb
 3058 0095 3B       		.uleb128 0x3b
 3059 0096 0B       		.uleb128 0xb
 3060 0097 49       		.uleb128 0x49
 3061 0098 13       		.uleb128 0x13
 3062 0099 38       		.uleb128 0x38
 3063 009a 0B       		.uleb128 0xb
 3064 009b 00       		.byte	0
 3065 009c 00       		.byte	0
 3066 009d 0E       		.uleb128 0xe
 3067 009e 0F       		.uleb128 0xf
 3068 009f 00       		.byte	0
 3069 00a0 0B       		.uleb128 0xb
 3070 00a1 0B       		.uleb128 0xb
 3071 00a2 00       		.byte	0
 3072 00a3 00       		.byte	0
 3073 00a4 0F       		.uleb128 0xf
 3074 00a5 26       		.uleb128 0x26
 3075 00a6 00       		.byte	0
 3076 00a7 49       		.uleb128 0x49
 3077 00a8 13       		.uleb128 0x13
 3078 00a9 00       		.byte	0
ARM GAS  /var/folders/d2/nstgp4h54kz7g1l847x_b8wc0000gn/T//ccaKPViU.s 			page 55


 3079 00aa 00       		.byte	0
 3080 00ab 10       		.uleb128 0x10
 3081 00ac 34       		.uleb128 0x34
 3082 00ad 00       		.byte	0
 3083 00ae 03       		.uleb128 0x3
 3084 00af 0E       		.uleb128 0xe
 3085 00b0 3A       		.uleb128 0x3a
 3086 00b1 0B       		.uleb128 0xb
 3087 00b2 3B       		.uleb128 0x3b
 3088 00b3 0B       		.uleb128 0xb
 3089 00b4 49       		.uleb128 0x49
 3090 00b5 13       		.uleb128 0x13
 3091 00b6 3F       		.uleb128 0x3f
 3092 00b7 19       		.uleb128 0x19
 3093 00b8 3C       		.uleb128 0x3c
 3094 00b9 19       		.uleb128 0x19
 3095 00ba 00       		.byte	0
 3096 00bb 00       		.byte	0
 3097 00bc 11       		.uleb128 0x11
 3098 00bd 13       		.uleb128 0x13
 3099 00be 01       		.byte	0x1
 3100 00bf 03       		.uleb128 0x3
 3101 00c0 0E       		.uleb128 0xe
 3102 00c1 0B       		.uleb128 0xb
 3103 00c2 0B       		.uleb128 0xb
 3104 00c3 3A       		.uleb128 0x3a
 3105 00c4 0B       		.uleb128 0xb
 3106 00c5 3B       		.uleb128 0x3b
 3107 00c6 0B       		.uleb128 0xb
 3108 00c7 01       		.uleb128 0x1
 3109 00c8 13       		.uleb128 0x13
 3110 00c9 00       		.byte	0
 3111 00ca 00       		.byte	0
 3112 00cb 12       		.uleb128 0x12
 3113 00cc 0D       		.uleb128 0xd
 3114 00cd 00       		.byte	0
 3115 00ce 03       		.uleb128 0x3
 3116 00cf 08       		.uleb128 0x8
 3117 00d0 3A       		.uleb128 0x3a
 3118 00d1 0B       		.uleb128 0xb
 3119 00d2 3B       		.uleb128 0x3b
 3120 00d3 0B       		.uleb128 0xb
 3121 00d4 49       		.uleb128 0x49
 3122 00d5 13       		.uleb128 0x13
 3123 00d6 38       		.uleb128 0x38
 3124 00d7 0B       		.uleb128 0xb
 3125 00d8 00       		.byte	0
 3126 00d9 00       		.byte	0
 3127 00da 13       		.uleb128 0x13
 3128 00db 13       		.uleb128 0x13
 3129 00dc 01       		.byte	0x1
 3130 00dd 03       		.uleb128 0x3
 3131 00de 0E       		.uleb128 0xe
 3132 00df 0B       		.uleb128 0xb
 3133 00e0 05       		.uleb128 0x5
 3134 00e1 3A       		.uleb128 0x3a
 3135 00e2 0B       		.uleb128 0xb
ARM GAS  /var/folders/d2/nstgp4h54kz7g1l847x_b8wc0000gn/T//ccaKPViU.s 			page 56


 3136 00e3 3B       		.uleb128 0x3b
 3137 00e4 0B       		.uleb128 0xb
 3138 00e5 01       		.uleb128 0x1
 3139 00e6 13       		.uleb128 0x13
 3140 00e7 00       		.byte	0
 3141 00e8 00       		.byte	0
 3142 00e9 14       		.uleb128 0x14
 3143 00ea 0D       		.uleb128 0xd
 3144 00eb 00       		.byte	0
 3145 00ec 03       		.uleb128 0x3
 3146 00ed 0E       		.uleb128 0xe
 3147 00ee 3A       		.uleb128 0x3a
 3148 00ef 0B       		.uleb128 0xb
 3149 00f0 3B       		.uleb128 0x3b
 3150 00f1 0B       		.uleb128 0xb
 3151 00f2 49       		.uleb128 0x49
 3152 00f3 13       		.uleb128 0x13
 3153 00f4 38       		.uleb128 0x38
 3154 00f5 05       		.uleb128 0x5
 3155 00f6 00       		.byte	0
 3156 00f7 00       		.byte	0
 3157 00f8 15       		.uleb128 0x15
 3158 00f9 15       		.uleb128 0x15
 3159 00fa 00       		.byte	0
 3160 00fb 27       		.uleb128 0x27
 3161 00fc 19       		.uleb128 0x19
 3162 00fd 00       		.byte	0
 3163 00fe 00       		.byte	0
 3164 00ff 16       		.uleb128 0x16
 3165 0100 15       		.uleb128 0x15
 3166 0101 01       		.byte	0x1
 3167 0102 27       		.uleb128 0x27
 3168 0103 19       		.uleb128 0x19
 3169 0104 49       		.uleb128 0x49
 3170 0105 13       		.uleb128 0x13
 3171 0106 01       		.uleb128 0x1
 3172 0107 13       		.uleb128 0x13
 3173 0108 00       		.byte	0
 3174 0109 00       		.byte	0
 3175 010a 17       		.uleb128 0x17
 3176 010b 05       		.uleb128 0x5
 3177 010c 00       		.byte	0
 3178 010d 49       		.uleb128 0x49
 3179 010e 13       		.uleb128 0x13
 3180 010f 00       		.byte	0
 3181 0110 00       		.byte	0
 3182 0111 18       		.uleb128 0x18
 3183 0112 13       		.uleb128 0x13
 3184 0113 01       		.byte	0x1
 3185 0114 03       		.uleb128 0x3
 3186 0115 0E       		.uleb128 0xe
 3187 0116 0B       		.uleb128 0xb
 3188 0117 05       		.uleb128 0x5
 3189 0118 3A       		.uleb128 0x3a
 3190 0119 0B       		.uleb128 0xb
 3191 011a 3B       		.uleb128 0x3b
 3192 011b 05       		.uleb128 0x5
ARM GAS  /var/folders/d2/nstgp4h54kz7g1l847x_b8wc0000gn/T//ccaKPViU.s 			page 57


 3193 011c 01       		.uleb128 0x1
 3194 011d 13       		.uleb128 0x13
 3195 011e 00       		.byte	0
 3196 011f 00       		.byte	0
 3197 0120 19       		.uleb128 0x19
 3198 0121 0D       		.uleb128 0xd
 3199 0122 00       		.byte	0
 3200 0123 03       		.uleb128 0x3
 3201 0124 0E       		.uleb128 0xe
 3202 0125 3A       		.uleb128 0x3a
 3203 0126 0B       		.uleb128 0xb
 3204 0127 3B       		.uleb128 0x3b
 3205 0128 05       		.uleb128 0x5
 3206 0129 49       		.uleb128 0x49
 3207 012a 13       		.uleb128 0x13
 3208 012b 38       		.uleb128 0x38
 3209 012c 0B       		.uleb128 0xb
 3210 012d 00       		.byte	0
 3211 012e 00       		.byte	0
 3212 012f 1A       		.uleb128 0x1a
 3213 0130 0D       		.uleb128 0xd
 3214 0131 00       		.byte	0
 3215 0132 03       		.uleb128 0x3
 3216 0133 0E       		.uleb128 0xe
 3217 0134 3A       		.uleb128 0x3a
 3218 0135 0B       		.uleb128 0xb
 3219 0136 3B       		.uleb128 0x3b
 3220 0137 05       		.uleb128 0x5
 3221 0138 49       		.uleb128 0x49
 3222 0139 13       		.uleb128 0x13
 3223 013a 38       		.uleb128 0x38
 3224 013b 05       		.uleb128 0x5
 3225 013c 00       		.byte	0
 3226 013d 00       		.byte	0
 3227 013e 1B       		.uleb128 0x1b
 3228 013f 13       		.uleb128 0x13
 3229 0140 01       		.byte	0x1
 3230 0141 03       		.uleb128 0x3
 3231 0142 0E       		.uleb128 0xe
 3232 0143 0B       		.uleb128 0xb
 3233 0144 0B       		.uleb128 0xb
 3234 0145 3A       		.uleb128 0x3a
 3235 0146 0B       		.uleb128 0xb
 3236 0147 3B       		.uleb128 0x3b
 3237 0148 05       		.uleb128 0x5
 3238 0149 01       		.uleb128 0x1
 3239 014a 13       		.uleb128 0x13
 3240 014b 00       		.byte	0
 3241 014c 00       		.byte	0
 3242 014d 1C       		.uleb128 0x1c
 3243 014e 13       		.uleb128 0x13
 3244 014f 01       		.byte	0x1
 3245 0150 0B       		.uleb128 0xb
 3246 0151 0B       		.uleb128 0xb
 3247 0152 3A       		.uleb128 0x3a
 3248 0153 0B       		.uleb128 0xb
 3249 0154 3B       		.uleb128 0x3b
ARM GAS  /var/folders/d2/nstgp4h54kz7g1l847x_b8wc0000gn/T//ccaKPViU.s 			page 58


 3250 0155 05       		.uleb128 0x5
 3251 0156 01       		.uleb128 0x1
 3252 0157 13       		.uleb128 0x13
 3253 0158 00       		.byte	0
 3254 0159 00       		.byte	0
 3255 015a 1D       		.uleb128 0x1d
 3256 015b 17       		.uleb128 0x17
 3257 015c 01       		.byte	0x1
 3258 015d 0B       		.uleb128 0xb
 3259 015e 0B       		.uleb128 0xb
 3260 015f 3A       		.uleb128 0x3a
 3261 0160 0B       		.uleb128 0xb
 3262 0161 3B       		.uleb128 0x3b
 3263 0162 05       		.uleb128 0x5
 3264 0163 01       		.uleb128 0x1
 3265 0164 13       		.uleb128 0x13
 3266 0165 00       		.byte	0
 3267 0166 00       		.byte	0
 3268 0167 1E       		.uleb128 0x1e
 3269 0168 0D       		.uleb128 0xd
 3270 0169 00       		.byte	0
 3271 016a 03       		.uleb128 0x3
 3272 016b 0E       		.uleb128 0xe
 3273 016c 3A       		.uleb128 0x3a
 3274 016d 0B       		.uleb128 0xb
 3275 016e 3B       		.uleb128 0x3b
 3276 016f 05       		.uleb128 0x5
 3277 0170 49       		.uleb128 0x49
 3278 0171 13       		.uleb128 0x13
 3279 0172 00       		.byte	0
 3280 0173 00       		.byte	0
 3281 0174 1F       		.uleb128 0x1f
 3282 0175 15       		.uleb128 0x15
 3283 0176 01       		.byte	0x1
 3284 0177 27       		.uleb128 0x27
 3285 0178 19       		.uleb128 0x19
 3286 0179 01       		.uleb128 0x1
 3287 017a 13       		.uleb128 0x13
 3288 017b 00       		.byte	0
 3289 017c 00       		.byte	0
 3290 017d 20       		.uleb128 0x20
 3291 017e 34       		.uleb128 0x34
 3292 017f 00       		.byte	0
 3293 0180 03       		.uleb128 0x3
 3294 0181 0E       		.uleb128 0xe
 3295 0182 3A       		.uleb128 0x3a
 3296 0183 0B       		.uleb128 0xb
 3297 0184 3B       		.uleb128 0x3b
 3298 0185 05       		.uleb128 0x5
 3299 0186 49       		.uleb128 0x49
 3300 0187 13       		.uleb128 0x13
 3301 0188 3F       		.uleb128 0x3f
 3302 0189 19       		.uleb128 0x19
 3303 018a 3C       		.uleb128 0x3c
 3304 018b 19       		.uleb128 0x19
 3305 018c 00       		.byte	0
 3306 018d 00       		.byte	0
ARM GAS  /var/folders/d2/nstgp4h54kz7g1l847x_b8wc0000gn/T//ccaKPViU.s 			page 59


 3307 018e 21       		.uleb128 0x21
 3308 018f 2E       		.uleb128 0x2e
 3309 0190 01       		.byte	0x1
 3310 0191 3F       		.uleb128 0x3f
 3311 0192 19       		.uleb128 0x19
 3312 0193 03       		.uleb128 0x3
 3313 0194 0E       		.uleb128 0xe
 3314 0195 3A       		.uleb128 0x3a
 3315 0196 0B       		.uleb128 0xb
 3316 0197 3B       		.uleb128 0x3b
 3317 0198 0B       		.uleb128 0xb
 3318 0199 27       		.uleb128 0x27
 3319 019a 19       		.uleb128 0x19
 3320 019b 49       		.uleb128 0x49
 3321 019c 13       		.uleb128 0x13
 3322 019d 11       		.uleb128 0x11
 3323 019e 01       		.uleb128 0x1
 3324 019f 12       		.uleb128 0x12
 3325 01a0 06       		.uleb128 0x6
 3326 01a1 40       		.uleb128 0x40
 3327 01a2 18       		.uleb128 0x18
 3328 01a3 9742     		.uleb128 0x2117
 3329 01a5 19       		.uleb128 0x19
 3330 01a6 01       		.uleb128 0x1
 3331 01a7 13       		.uleb128 0x13
 3332 01a8 00       		.byte	0
 3333 01a9 00       		.byte	0
 3334 01aa 22       		.uleb128 0x22
 3335 01ab 05       		.uleb128 0x5
 3336 01ac 00       		.byte	0
 3337 01ad 03       		.uleb128 0x3
 3338 01ae 0E       		.uleb128 0xe
 3339 01af 3A       		.uleb128 0x3a
 3340 01b0 0B       		.uleb128 0xb
 3341 01b1 3B       		.uleb128 0x3b
 3342 01b2 0B       		.uleb128 0xb
 3343 01b3 49       		.uleb128 0x49
 3344 01b4 13       		.uleb128 0x13
 3345 01b5 02       		.uleb128 0x2
 3346 01b6 17       		.uleb128 0x17
 3347 01b7 00       		.byte	0
 3348 01b8 00       		.byte	0
 3349 01b9 23       		.uleb128 0x23
 3350 01ba 34       		.uleb128 0x34
 3351 01bb 00       		.byte	0
 3352 01bc 03       		.uleb128 0x3
 3353 01bd 08       		.uleb128 0x8
 3354 01be 3A       		.uleb128 0x3a
 3355 01bf 0B       		.uleb128 0xb
 3356 01c0 3B       		.uleb128 0x3b
 3357 01c1 0B       		.uleb128 0xb
 3358 01c2 49       		.uleb128 0x49
 3359 01c3 13       		.uleb128 0x13
 3360 01c4 02       		.uleb128 0x2
 3361 01c5 18       		.uleb128 0x18
 3362 01c6 00       		.byte	0
 3363 01c7 00       		.byte	0
ARM GAS  /var/folders/d2/nstgp4h54kz7g1l847x_b8wc0000gn/T//ccaKPViU.s 			page 60


 3364 01c8 24       		.uleb128 0x24
 3365 01c9 898201   		.uleb128 0x4109
 3366 01cc 00       		.byte	0
 3367 01cd 11       		.uleb128 0x11
 3368 01ce 01       		.uleb128 0x1
 3369 01cf 31       		.uleb128 0x31
 3370 01d0 13       		.uleb128 0x13
 3371 01d1 00       		.byte	0
 3372 01d2 00       		.byte	0
 3373 01d3 25       		.uleb128 0x25
 3374 01d4 2E       		.uleb128 0x2e
 3375 01d5 01       		.byte	0x1
 3376 01d6 3F       		.uleb128 0x3f
 3377 01d7 19       		.uleb128 0x19
 3378 01d8 03       		.uleb128 0x3
 3379 01d9 0E       		.uleb128 0xe
 3380 01da 3A       		.uleb128 0x3a
 3381 01db 0B       		.uleb128 0xb
 3382 01dc 3B       		.uleb128 0x3b
 3383 01dd 0B       		.uleb128 0xb
 3384 01de 27       		.uleb128 0x27
 3385 01df 19       		.uleb128 0x19
 3386 01e0 11       		.uleb128 0x11
 3387 01e1 01       		.uleb128 0x1
 3388 01e2 12       		.uleb128 0x12
 3389 01e3 06       		.uleb128 0x6
 3390 01e4 40       		.uleb128 0x40
 3391 01e5 18       		.uleb128 0x18
 3392 01e6 9742     		.uleb128 0x2117
 3393 01e8 19       		.uleb128 0x19
 3394 01e9 01       		.uleb128 0x1
 3395 01ea 13       		.uleb128 0x13
 3396 01eb 00       		.byte	0
 3397 01ec 00       		.byte	0
 3398 01ed 26       		.uleb128 0x26
 3399 01ee 898201   		.uleb128 0x4109
 3400 01f1 00       		.byte	0
 3401 01f2 11       		.uleb128 0x11
 3402 01f3 01       		.uleb128 0x1
 3403 01f4 9542     		.uleb128 0x2115
 3404 01f6 19       		.uleb128 0x19
 3405 01f7 31       		.uleb128 0x31
 3406 01f8 13       		.uleb128 0x13
 3407 01f9 00       		.byte	0
 3408 01fa 00       		.byte	0
 3409 01fb 27       		.uleb128 0x27
 3410 01fc 05       		.uleb128 0x5
 3411 01fd 00       		.byte	0
 3412 01fe 03       		.uleb128 0x3
 3413 01ff 08       		.uleb128 0x8
 3414 0200 3A       		.uleb128 0x3a
 3415 0201 0B       		.uleb128 0xb
 3416 0202 3B       		.uleb128 0x3b
 3417 0203 0B       		.uleb128 0xb
 3418 0204 49       		.uleb128 0x49
 3419 0205 13       		.uleb128 0x13
 3420 0206 02       		.uleb128 0x2
ARM GAS  /var/folders/d2/nstgp4h54kz7g1l847x_b8wc0000gn/T//ccaKPViU.s 			page 61


 3421 0207 17       		.uleb128 0x17
 3422 0208 00       		.byte	0
 3423 0209 00       		.byte	0
 3424 020a 28       		.uleb128 0x28
 3425 020b 898201   		.uleb128 0x4109
 3426 020e 01       		.byte	0x1
 3427 020f 11       		.uleb128 0x11
 3428 0210 01       		.uleb128 0x1
 3429 0211 31       		.uleb128 0x31
 3430 0212 13       		.uleb128 0x13
 3431 0213 01       		.uleb128 0x1
 3432 0214 13       		.uleb128 0x13
 3433 0215 00       		.byte	0
 3434 0216 00       		.byte	0
 3435 0217 29       		.uleb128 0x29
 3436 0218 8A8201   		.uleb128 0x410a
 3437 021b 00       		.byte	0
 3438 021c 02       		.uleb128 0x2
 3439 021d 18       		.uleb128 0x18
 3440 021e 9142     		.uleb128 0x2111
 3441 0220 18       		.uleb128 0x18
 3442 0221 00       		.byte	0
 3443 0222 00       		.byte	0
 3444 0223 2A       		.uleb128 0x2a
 3445 0224 34       		.uleb128 0x34
 3446 0225 00       		.byte	0
 3447 0226 03       		.uleb128 0x3
 3448 0227 0E       		.uleb128 0xe
 3449 0228 3A       		.uleb128 0x3a
 3450 0229 0B       		.uleb128 0xb
 3451 022a 3B       		.uleb128 0x3b
 3452 022b 0B       		.uleb128 0xb
 3453 022c 49       		.uleb128 0x49
 3454 022d 13       		.uleb128 0x13
 3455 022e 02       		.uleb128 0x2
 3456 022f 17       		.uleb128 0x17
 3457 0230 00       		.byte	0
 3458 0231 00       		.byte	0
 3459 0232 2B       		.uleb128 0x2b
 3460 0233 34       		.uleb128 0x34
 3461 0234 00       		.byte	0
 3462 0235 03       		.uleb128 0x3
 3463 0236 08       		.uleb128 0x8
 3464 0237 3A       		.uleb128 0x3a
 3465 0238 0B       		.uleb128 0xb
 3466 0239 3B       		.uleb128 0x3b
 3467 023a 0B       		.uleb128 0xb
 3468 023b 49       		.uleb128 0x49
 3469 023c 13       		.uleb128 0x13
 3470 023d 02       		.uleb128 0x2
 3471 023e 17       		.uleb128 0x17
 3472 023f 00       		.byte	0
 3473 0240 00       		.byte	0
 3474 0241 2C       		.uleb128 0x2c
 3475 0242 1D       		.uleb128 0x1d
 3476 0243 01       		.byte	0x1
 3477 0244 31       		.uleb128 0x31
ARM GAS  /var/folders/d2/nstgp4h54kz7g1l847x_b8wc0000gn/T//ccaKPViU.s 			page 62


 3478 0245 13       		.uleb128 0x13
 3479 0246 11       		.uleb128 0x11
 3480 0247 01       		.uleb128 0x1
 3481 0248 12       		.uleb128 0x12
 3482 0249 06       		.uleb128 0x6
 3483 024a 58       		.uleb128 0x58
 3484 024b 0B       		.uleb128 0xb
 3485 024c 59       		.uleb128 0x59
 3486 024d 0B       		.uleb128 0xb
 3487 024e 01       		.uleb128 0x1
 3488 024f 13       		.uleb128 0x13
 3489 0250 00       		.byte	0
 3490 0251 00       		.byte	0
 3491 0252 2D       		.uleb128 0x2d
 3492 0253 05       		.uleb128 0x5
 3493 0254 00       		.byte	0
 3494 0255 31       		.uleb128 0x31
 3495 0256 13       		.uleb128 0x13
 3496 0257 02       		.uleb128 0x2
 3497 0258 18       		.uleb128 0x18
 3498 0259 00       		.byte	0
 3499 025a 00       		.byte	0
 3500 025b 2E       		.uleb128 0x2e
 3501 025c 05       		.uleb128 0x5
 3502 025d 00       		.byte	0
 3503 025e 31       		.uleb128 0x31
 3504 025f 13       		.uleb128 0x13
 3505 0260 00       		.byte	0
 3506 0261 00       		.byte	0
 3507 0262 2F       		.uleb128 0x2f
 3508 0263 0B       		.uleb128 0xb
 3509 0264 01       		.byte	0x1
 3510 0265 11       		.uleb128 0x11
 3511 0266 01       		.uleb128 0x1
 3512 0267 12       		.uleb128 0x12
 3513 0268 06       		.uleb128 0x6
 3514 0269 00       		.byte	0
 3515 026a 00       		.byte	0
 3516 026b 30       		.uleb128 0x30
 3517 026c 34       		.uleb128 0x34
 3518 026d 00       		.byte	0
 3519 026e 31       		.uleb128 0x31
 3520 026f 13       		.uleb128 0x13
 3521 0270 02       		.uleb128 0x2
 3522 0271 17       		.uleb128 0x17
 3523 0272 00       		.byte	0
 3524 0273 00       		.byte	0
 3525 0274 31       		.uleb128 0x31
 3526 0275 898201   		.uleb128 0x4109
 3527 0278 01       		.byte	0x1
 3528 0279 11       		.uleb128 0x11
 3529 027a 01       		.uleb128 0x1
 3530 027b 31       		.uleb128 0x31
 3531 027c 13       		.uleb128 0x13
 3532 027d 00       		.byte	0
 3533 027e 00       		.byte	0
 3534 027f 32       		.uleb128 0x32
ARM GAS  /var/folders/d2/nstgp4h54kz7g1l847x_b8wc0000gn/T//ccaKPViU.s 			page 63


 3535 0280 34       		.uleb128 0x34
 3536 0281 00       		.byte	0
 3537 0282 03       		.uleb128 0x3
 3538 0283 08       		.uleb128 0x8
 3539 0284 3A       		.uleb128 0x3a
 3540 0285 0B       		.uleb128 0xb
 3541 0286 3B       		.uleb128 0x3b
 3542 0287 0B       		.uleb128 0xb
 3543 0288 49       		.uleb128 0x49
 3544 0289 13       		.uleb128 0x13
 3545 028a 00       		.byte	0
 3546 028b 00       		.byte	0
 3547 028c 33       		.uleb128 0x33
 3548 028d 05       		.uleb128 0x5
 3549 028e 00       		.byte	0
 3550 028f 31       		.uleb128 0x31
 3551 0290 13       		.uleb128 0x13
 3552 0291 02       		.uleb128 0x2
 3553 0292 17       		.uleb128 0x17
 3554 0293 00       		.byte	0
 3555 0294 00       		.byte	0
 3556 0295 34       		.uleb128 0x34
 3557 0296 2E       		.uleb128 0x2e
 3558 0297 01       		.byte	0x1
 3559 0298 03       		.uleb128 0x3
 3560 0299 0E       		.uleb128 0xe
 3561 029a 3A       		.uleb128 0x3a
 3562 029b 0B       		.uleb128 0xb
 3563 029c 3B       		.uleb128 0x3b
 3564 029d 0B       		.uleb128 0xb
 3565 029e 27       		.uleb128 0x27
 3566 029f 19       		.uleb128 0x19
 3567 02a0 49       		.uleb128 0x49
 3568 02a1 13       		.uleb128 0x13
 3569 02a2 20       		.uleb128 0x20
 3570 02a3 0B       		.uleb128 0xb
 3571 02a4 01       		.uleb128 0x1
 3572 02a5 13       		.uleb128 0x13
 3573 02a6 00       		.byte	0
 3574 02a7 00       		.byte	0
 3575 02a8 35       		.uleb128 0x35
 3576 02a9 05       		.uleb128 0x5
 3577 02aa 00       		.byte	0
 3578 02ab 03       		.uleb128 0x3
 3579 02ac 08       		.uleb128 0x8
 3580 02ad 3A       		.uleb128 0x3a
 3581 02ae 0B       		.uleb128 0xb
 3582 02af 3B       		.uleb128 0x3b
 3583 02b0 0B       		.uleb128 0xb
 3584 02b1 49       		.uleb128 0x49
 3585 02b2 13       		.uleb128 0x13
 3586 02b3 00       		.byte	0
 3587 02b4 00       		.byte	0
 3588 02b5 36       		.uleb128 0x36
 3589 02b6 05       		.uleb128 0x5
 3590 02b7 00       		.byte	0
 3591 02b8 03       		.uleb128 0x3
ARM GAS  /var/folders/d2/nstgp4h54kz7g1l847x_b8wc0000gn/T//ccaKPViU.s 			page 64


 3592 02b9 0E       		.uleb128 0xe
 3593 02ba 3A       		.uleb128 0x3a
 3594 02bb 0B       		.uleb128 0xb
 3595 02bc 3B       		.uleb128 0x3b
 3596 02bd 0B       		.uleb128 0xb
 3597 02be 49       		.uleb128 0x49
 3598 02bf 13       		.uleb128 0x13
 3599 02c0 00       		.byte	0
 3600 02c1 00       		.byte	0
 3601 02c2 37       		.uleb128 0x37
 3602 02c3 2E       		.uleb128 0x2e
 3603 02c4 00       		.byte	0
 3604 02c5 3F       		.uleb128 0x3f
 3605 02c6 19       		.uleb128 0x19
 3606 02c7 3C       		.uleb128 0x3c
 3607 02c8 19       		.uleb128 0x19
 3608 02c9 6E       		.uleb128 0x6e
 3609 02ca 0E       		.uleb128 0xe
 3610 02cb 03       		.uleb128 0x3
 3611 02cc 0E       		.uleb128 0xe
 3612 02cd 3A       		.uleb128 0x3a
 3613 02ce 0B       		.uleb128 0xb
 3614 02cf 3B       		.uleb128 0x3b
 3615 02d0 0B       		.uleb128 0xb
 3616 02d1 00       		.byte	0
 3617 02d2 00       		.byte	0
 3618 02d3 38       		.uleb128 0x38
 3619 02d4 2E       		.uleb128 0x2e
 3620 02d5 00       		.byte	0
 3621 02d6 3F       		.uleb128 0x3f
 3622 02d7 19       		.uleb128 0x19
 3623 02d8 3C       		.uleb128 0x3c
 3624 02d9 19       		.uleb128 0x19
 3625 02da 6E       		.uleb128 0x6e
 3626 02db 0E       		.uleb128 0xe
 3627 02dc 03       		.uleb128 0x3
 3628 02dd 0E       		.uleb128 0xe
 3629 02de 00       		.byte	0
 3630 02df 00       		.byte	0
 3631 02e0 39       		.uleb128 0x39
 3632 02e1 2E       		.uleb128 0x2e
 3633 02e2 00       		.byte	0
 3634 02e3 3F       		.uleb128 0x3f
 3635 02e4 19       		.uleb128 0x19
 3636 02e5 3C       		.uleb128 0x3c
 3637 02e6 19       		.uleb128 0x19
 3638 02e7 6E       		.uleb128 0x6e
 3639 02e8 0E       		.uleb128 0xe
 3640 02e9 03       		.uleb128 0x3
 3641 02ea 0E       		.uleb128 0xe
 3642 02eb 3A       		.uleb128 0x3a
 3643 02ec 0B       		.uleb128 0xb
 3644 02ed 3B       		.uleb128 0x3b
 3645 02ee 0B       		.uleb128 0xb
 3646 02ef 6E       		.uleb128 0x6e
 3647 02f0 0E       		.uleb128 0xe
 3648 02f1 00       		.byte	0
ARM GAS  /var/folders/d2/nstgp4h54kz7g1l847x_b8wc0000gn/T//ccaKPViU.s 			page 65


 3649 02f2 00       		.byte	0
 3650 02f3 00       		.byte	0
 3651              		.section	.debug_loc,"",%progbits
 3652              	.Ldebug_loc0:
 3653              	.LLST36:
 3654 0000 00000000 		.4byte	.LVL88
 3655 0004 0C000000 		.4byte	.LVL89
 3656 0008 0100     		.2byte	0x1
 3657 000a 50       		.byte	0x50
 3658 000b 0C000000 		.4byte	.LVL89
 3659 000f 38000000 		.4byte	.LFE11
 3660 0013 0100     		.2byte	0x1
 3661 0015 54       		.byte	0x54
 3662 0016 00000000 		.4byte	0
 3663 001a 00000000 		.4byte	0
 3664              	.LLST33:
 3665 001e 00000000 		.4byte	.LVL80
 3666 0022 10000000 		.4byte	.LVL81
 3667 0026 0100     		.2byte	0x1
 3668 0028 50       		.byte	0x50
 3669 0029 10000000 		.4byte	.LVL81
 3670 002d 3C000000 		.4byte	.LVL85
 3671 0031 0100     		.2byte	0x1
 3672 0033 56       		.byte	0x56
 3673 0034 3C000000 		.4byte	.LVL85
 3674 0038 40000000 		.4byte	.LVL86
 3675 003c 0400     		.2byte	0x4
 3676 003e F3       		.byte	0xf3
 3677 003f 01       		.uleb128 0x1
 3678 0040 50       		.byte	0x50
 3679 0041 9F       		.byte	0x9f
 3680 0042 40000000 		.4byte	.LVL86
 3681 0046 48000000 		.4byte	.LFE10
 3682 004a 0100     		.2byte	0x1
 3683 004c 56       		.byte	0x56
 3684 004d 00000000 		.4byte	0
 3685 0051 00000000 		.4byte	0
 3686              	.LLST34:
 3687 0055 00000000 		.4byte	.LVL80
 3688 0059 15000000 		.4byte	.LVL82-1
 3689 005d 0100     		.2byte	0x1
 3690 005f 51       		.byte	0x51
 3691 0060 15000000 		.4byte	.LVL82-1
 3692 0064 3C000000 		.4byte	.LVL85
 3693 0068 0100     		.2byte	0x1
 3694 006a 55       		.byte	0x55
 3695 006b 3C000000 		.4byte	.LVL85
 3696 006f 40000000 		.4byte	.LVL86
 3697 0073 0400     		.2byte	0x4
 3698 0075 F3       		.byte	0xf3
 3699 0076 01       		.uleb128 0x1
 3700 0077 51       		.byte	0x51
 3701 0078 9F       		.byte	0x9f
 3702 0079 40000000 		.4byte	.LVL86
 3703 007d 48000000 		.4byte	.LFE10
 3704 0081 0100     		.2byte	0x1
 3705 0083 55       		.byte	0x55
ARM GAS  /var/folders/d2/nstgp4h54kz7g1l847x_b8wc0000gn/T//ccaKPViU.s 			page 66


 3706 0084 00000000 		.4byte	0
 3707 0088 00000000 		.4byte	0
 3708              	.LLST35:
 3709 008c 00000000 		.4byte	.LVL80
 3710 0090 15000000 		.4byte	.LVL82-1
 3711 0094 0100     		.2byte	0x1
 3712 0096 52       		.byte	0x52
 3713 0097 15000000 		.4byte	.LVL82-1
 3714 009b 3C000000 		.4byte	.LVL85
 3715 009f 0100     		.2byte	0x1
 3716 00a1 54       		.byte	0x54
 3717 00a2 3C000000 		.4byte	.LVL85
 3718 00a6 40000000 		.4byte	.LVL86
 3719 00aa 0400     		.2byte	0x4
 3720 00ac F3       		.byte	0xf3
 3721 00ad 01       		.uleb128 0x1
 3722 00ae 52       		.byte	0x52
 3723 00af 9F       		.byte	0x9f
 3724 00b0 40000000 		.4byte	.LVL86
 3725 00b4 48000000 		.4byte	.LFE10
 3726 00b8 0100     		.2byte	0x1
 3727 00ba 54       		.byte	0x54
 3728 00bb 00000000 		.4byte	0
 3729 00bf 00000000 		.4byte	0
 3730              	.LLST30:
 3731 00c3 00000000 		.4byte	.LVL77
 3732 00c7 1D000000 		.4byte	.LVL79-1
 3733 00cb 0100     		.2byte	0x1
 3734 00cd 50       		.byte	0x50
 3735 00ce 1D000000 		.4byte	.LVL79-1
 3736 00d2 24000000 		.4byte	.LFE9
 3737 00d6 0400     		.2byte	0x4
 3738 00d8 F3       		.byte	0xf3
 3739 00d9 01       		.uleb128 0x1
 3740 00da 50       		.byte	0x50
 3741 00db 9F       		.byte	0x9f
 3742 00dc 00000000 		.4byte	0
 3743 00e0 00000000 		.4byte	0
 3744              	.LLST31:
 3745 00e4 00000000 		.4byte	.LVL77
 3746 00e8 10000000 		.4byte	.LVL78
 3747 00ec 0100     		.2byte	0x1
 3748 00ee 51       		.byte	0x51
 3749 00ef 10000000 		.4byte	.LVL78
 3750 00f3 1D000000 		.4byte	.LVL79-1
 3751 00f7 0200     		.2byte	0x2
 3752 00f9 70       		.byte	0x70
 3753 00fa 00       		.sleb128 0
 3754 00fb 1D000000 		.4byte	.LVL79-1
 3755 00ff 24000000 		.4byte	.LFE9
 3756 0103 0400     		.2byte	0x4
 3757 0105 F3       		.byte	0xf3
 3758 0106 01       		.uleb128 0x1
 3759 0107 51       		.byte	0x51
 3760 0108 9F       		.byte	0x9f
 3761 0109 00000000 		.4byte	0
 3762 010d 00000000 		.4byte	0
ARM GAS  /var/folders/d2/nstgp4h54kz7g1l847x_b8wc0000gn/T//ccaKPViU.s 			page 67


 3763              	.LLST32:
 3764 0111 00000000 		.4byte	.LVL77
 3765 0115 1D000000 		.4byte	.LVL79-1
 3766 0119 0100     		.2byte	0x1
 3767 011b 52       		.byte	0x52
 3768 011c 1D000000 		.4byte	.LVL79-1
 3769 0120 24000000 		.4byte	.LFE9
 3770 0124 0400     		.2byte	0x4
 3771 0126 F3       		.byte	0xf3
 3772 0127 01       		.uleb128 0x1
 3773 0128 52       		.byte	0x52
 3774 0129 9F       		.byte	0x9f
 3775 012a 00000000 		.4byte	0
 3776 012e 00000000 		.4byte	0
 3777              	.LLST27:
 3778 0132 00000000 		.4byte	.LVL69
 3779 0136 0C000000 		.4byte	.LVL70
 3780 013a 0100     		.2byte	0x1
 3781 013c 50       		.byte	0x50
 3782 013d 0C000000 		.4byte	.LVL70
 3783 0141 36000000 		.4byte	.LVL74
 3784 0145 0100     		.2byte	0x1
 3785 0147 54       		.byte	0x54
 3786 0148 36000000 		.4byte	.LVL74
 3787 014c 3A000000 		.4byte	.LVL75
 3788 0150 0400     		.2byte	0x4
 3789 0152 F3       		.byte	0xf3
 3790 0153 01       		.uleb128 0x1
 3791 0154 50       		.byte	0x50
 3792 0155 9F       		.byte	0x9f
 3793 0156 3A000000 		.4byte	.LVL75
 3794 015a 44000000 		.4byte	.LFE8
 3795 015e 0100     		.2byte	0x1
 3796 0160 54       		.byte	0x54
 3797 0161 00000000 		.4byte	0
 3798 0165 00000000 		.4byte	0
 3799              	.LLST28:
 3800 0169 00000000 		.4byte	.LVL69
 3801 016d 15000000 		.4byte	.LVL71-1
 3802 0171 0100     		.2byte	0x1
 3803 0173 51       		.byte	0x51
 3804 0174 15000000 		.4byte	.LVL71-1
 3805 0178 36000000 		.4byte	.LVL74
 3806 017c 0100     		.2byte	0x1
 3807 017e 56       		.byte	0x56
 3808 017f 36000000 		.4byte	.LVL74
 3809 0183 3A000000 		.4byte	.LVL75
 3810 0187 0400     		.2byte	0x4
 3811 0189 F3       		.byte	0xf3
 3812 018a 01       		.uleb128 0x1
 3813 018b 51       		.byte	0x51
 3814 018c 9F       		.byte	0x9f
 3815 018d 3A000000 		.4byte	.LVL75
 3816 0191 44000000 		.4byte	.LFE8
 3817 0195 0100     		.2byte	0x1
 3818 0197 56       		.byte	0x56
 3819 0198 00000000 		.4byte	0
ARM GAS  /var/folders/d2/nstgp4h54kz7g1l847x_b8wc0000gn/T//ccaKPViU.s 			page 68


 3820 019c 00000000 		.4byte	0
 3821              	.LLST29:
 3822 01a0 00000000 		.4byte	.LVL69
 3823 01a4 15000000 		.4byte	.LVL71-1
 3824 01a8 0100     		.2byte	0x1
 3825 01aa 52       		.byte	0x52
 3826 01ab 15000000 		.4byte	.LVL71-1
 3827 01af 36000000 		.4byte	.LVL74
 3828 01b3 0100     		.2byte	0x1
 3829 01b5 57       		.byte	0x57
 3830 01b6 36000000 		.4byte	.LVL74
 3831 01ba 3A000000 		.4byte	.LVL75
 3832 01be 0400     		.2byte	0x4
 3833 01c0 F3       		.byte	0xf3
 3834 01c1 01       		.uleb128 0x1
 3835 01c2 52       		.byte	0x52
 3836 01c3 9F       		.byte	0x9f
 3837 01c4 3A000000 		.4byte	.LVL75
 3838 01c8 44000000 		.4byte	.LFE8
 3839 01cc 0100     		.2byte	0x1
 3840 01ce 57       		.byte	0x57
 3841 01cf 00000000 		.4byte	0
 3842 01d3 00000000 		.4byte	0
 3843              	.LLST23:
 3844 01d7 00000000 		.4byte	.LVL60
 3845 01db 0E000000 		.4byte	.LVL61
 3846 01df 0100     		.2byte	0x1
 3847 01e1 50       		.byte	0x50
 3848 01e2 0E000000 		.4byte	.LVL61
 3849 01e6 48000000 		.4byte	.LFE7
 3850 01ea 0100     		.2byte	0x1
 3851 01ec 54       		.byte	0x54
 3852 01ed 00000000 		.4byte	0
 3853 01f1 00000000 		.4byte	0
 3854              	.LLST24:
 3855 01f5 00000000 		.4byte	.LVL60
 3856 01f9 17000000 		.4byte	.LVL63-1
 3857 01fd 0100     		.2byte	0x1
 3858 01ff 51       		.byte	0x51
 3859 0200 17000000 		.4byte	.LVL63-1
 3860 0204 48000000 		.4byte	.LFE7
 3861 0208 0100     		.2byte	0x1
 3862 020a 57       		.byte	0x57
 3863 020b 00000000 		.4byte	0
 3864 020f 00000000 		.4byte	0
 3865              	.LLST25:
 3866 0213 00000000 		.4byte	.LVL60
 3867 0217 17000000 		.4byte	.LVL63-1
 3868 021b 0100     		.2byte	0x1
 3869 021d 52       		.byte	0x52
 3870 021e 17000000 		.4byte	.LVL63-1
 3871 0222 48000000 		.4byte	.LFE7
 3872 0226 0100     		.2byte	0x1
 3873 0228 58       		.byte	0x58
 3874 0229 00000000 		.4byte	0
 3875 022d 00000000 		.4byte	0
 3876              	.LLST26:
ARM GAS  /var/folders/d2/nstgp4h54kz7g1l847x_b8wc0000gn/T//ccaKPViU.s 			page 69


 3877 0231 10000000 		.4byte	.LVL62
 3878 0235 1E000000 		.4byte	.LVL64
 3879 0239 0200     		.2byte	0x2
 3880 023b 30       		.byte	0x30
 3881 023c 9F       		.byte	0x9f
 3882 023d 1E000000 		.4byte	.LVL64
 3883 0241 28000000 		.4byte	.LVL65
 3884 0245 0200     		.2byte	0x2
 3885 0247 31       		.byte	0x31
 3886 0248 9F       		.byte	0x9f
 3887 0249 28000000 		.4byte	.LVL65
 3888 024d 48000000 		.4byte	.LFE7
 3889 0251 0100     		.2byte	0x1
 3890 0253 56       		.byte	0x56
 3891 0254 00000000 		.4byte	0
 3892 0258 00000000 		.4byte	0
 3893              	.LLST19:
 3894 025c 00000000 		.4byte	.LVL45
 3895 0260 0E000000 		.4byte	.LVL46
 3896 0264 0100     		.2byte	0x1
 3897 0266 50       		.byte	0x50
 3898 0267 0E000000 		.4byte	.LVL46
 3899 026b 78000000 		.4byte	.LFE6
 3900 026f 0100     		.2byte	0x1
 3901 0271 55       		.byte	0x55
 3902 0272 00000000 		.4byte	0
 3903 0276 00000000 		.4byte	0
 3904              	.LLST20:
 3905 027a 00000000 		.4byte	.LVL45
 3906 027e 14000000 		.4byte	.LVL47
 3907 0282 0100     		.2byte	0x1
 3908 0284 51       		.byte	0x51
 3909 0285 14000000 		.4byte	.LVL47
 3910 0289 20000000 		.4byte	.LVL48
 3911 028d 0400     		.2byte	0x4
 3912 028f F3       		.byte	0xf3
 3913 0290 01       		.uleb128 0x1
 3914 0291 51       		.byte	0x51
 3915 0292 9F       		.byte	0x9f
 3916 0293 20000000 		.4byte	.LVL48
 3917 0297 29000000 		.4byte	.LVL49-1
 3918 029b 0100     		.2byte	0x1
 3919 029d 51       		.byte	0x51
 3920 029e 29000000 		.4byte	.LVL49-1
 3921 02a2 70000000 		.4byte	.LVL58
 3922 02a6 0100     		.2byte	0x1
 3923 02a8 57       		.byte	0x57
 3924 02a9 70000000 		.4byte	.LVL58
 3925 02ad 78000000 		.4byte	.LFE6
 3926 02b1 0400     		.2byte	0x4
 3927 02b3 F3       		.byte	0xf3
 3928 02b4 01       		.uleb128 0x1
 3929 02b5 51       		.byte	0x51
 3930 02b6 9F       		.byte	0x9f
 3931 02b7 00000000 		.4byte	0
 3932 02bb 00000000 		.4byte	0
 3933              	.LLST21:
ARM GAS  /var/folders/d2/nstgp4h54kz7g1l847x_b8wc0000gn/T//ccaKPViU.s 			page 70


 3934 02bf 00000000 		.4byte	.LVL45
 3935 02c3 14000000 		.4byte	.LVL47
 3936 02c7 0100     		.2byte	0x1
 3937 02c9 52       		.byte	0x52
 3938 02ca 14000000 		.4byte	.LVL47
 3939 02ce 20000000 		.4byte	.LVL48
 3940 02d2 0400     		.2byte	0x4
 3941 02d4 F3       		.byte	0xf3
 3942 02d5 01       		.uleb128 0x1
 3943 02d6 52       		.byte	0x52
 3944 02d7 9F       		.byte	0x9f
 3945 02d8 20000000 		.4byte	.LVL48
 3946 02dc 29000000 		.4byte	.LVL49-1
 3947 02e0 0100     		.2byte	0x1
 3948 02e2 52       		.byte	0x52
 3949 02e3 29000000 		.4byte	.LVL49-1
 3950 02e7 42000000 		.4byte	.LVL52
 3951 02eb 0100     		.2byte	0x1
 3952 02ed 54       		.byte	0x54
 3953 02ee 42000000 		.4byte	.LVL52
 3954 02f2 78000000 		.4byte	.LFE6
 3955 02f6 0400     		.2byte	0x4
 3956 02f8 F3       		.byte	0xf3
 3957 02f9 01       		.uleb128 0x1
 3958 02fa 52       		.byte	0x52
 3959 02fb 9F       		.byte	0x9f
 3960 02fc 00000000 		.4byte	0
 3961 0300 00000000 		.4byte	0
 3962              	.LLST22:
 3963 0304 42000000 		.4byte	.LVL52
 3964 0308 70000000 		.4byte	.LVL58
 3965 030c 0100     		.2byte	0x1
 3966 030e 54       		.byte	0x54
 3967 030f 00000000 		.4byte	0
 3968 0313 00000000 		.4byte	0
 3969              	.LLST15:
 3970 0317 00000000 		.4byte	.LVL30
 3971 031b 0C000000 		.4byte	.LVL31
 3972 031f 0100     		.2byte	0x1
 3973 0321 50       		.byte	0x50
 3974 0322 0C000000 		.4byte	.LVL31
 3975 0326 50000000 		.4byte	.LFE5
 3976 032a 0100     		.2byte	0x1
 3977 032c 56       		.byte	0x56
 3978 032d 00000000 		.4byte	0
 3979 0331 00000000 		.4byte	0
 3980              	.LLST16:
 3981 0335 00000000 		.4byte	.LVL30
 3982 0339 13000000 		.4byte	.LVL33-1
 3983 033d 0100     		.2byte	0x1
 3984 033f 51       		.byte	0x51
 3985 0340 13000000 		.4byte	.LVL33-1
 3986 0344 50000000 		.4byte	.LFE5
 3987 0348 0100     		.2byte	0x1
 3988 034a 55       		.byte	0x55
 3989 034b 00000000 		.4byte	0
 3990 034f 00000000 		.4byte	0
ARM GAS  /var/folders/d2/nstgp4h54kz7g1l847x_b8wc0000gn/T//ccaKPViU.s 			page 71


 3991              	.LLST17:
 3992 0353 0E000000 		.4byte	.LVL32
 3993 0357 2C000000 		.4byte	.LVL39
 3994 035b 0200     		.2byte	0x2
 3995 035d 30       		.byte	0x30
 3996 035e 9F       		.byte	0x9f
 3997 035f 2C000000 		.4byte	.LVL39
 3998 0363 40000000 		.4byte	.LVL41
 3999 0367 0100     		.2byte	0x1
 4000 0369 54       		.byte	0x54
 4001 036a 48000000 		.4byte	.LVL43
 4002 036e 4B000000 		.4byte	.LVL44-1
 4003 0372 0100     		.2byte	0x1
 4004 0374 50       		.byte	0x50
 4005 0375 4B000000 		.4byte	.LVL44-1
 4006 0379 50000000 		.4byte	.LFE5
 4007 037d 0100     		.2byte	0x1
 4008 037f 54       		.byte	0x54
 4009 0380 00000000 		.4byte	0
 4010 0384 00000000 		.4byte	0
 4011              	.LLST18:
 4012 0388 16000000 		.4byte	.LVL34
 4013 038c 1A000000 		.4byte	.LVL35
 4014 0390 0200     		.2byte	0x2
 4015 0392 76       		.byte	0x76
 4016 0393 00       		.sleb128 0
 4017 0394 1A000000 		.4byte	.LVL35
 4018 0398 2C000000 		.4byte	.LVL39
 4019 039c 0100     		.2byte	0x1
 4020 039e 54       		.byte	0x54
 4021 039f 00000000 		.4byte	0
 4022 03a3 00000000 		.4byte	0
 4023              	.LLST11:
 4024 03a7 00000000 		.4byte	.LVL20
 4025 03ab 0C000000 		.4byte	.LVL21
 4026 03af 0100     		.2byte	0x1
 4027 03b1 50       		.byte	0x50
 4028 03b2 0C000000 		.4byte	.LVL21
 4029 03b6 48000000 		.4byte	.LFE4
 4030 03ba 0100     		.2byte	0x1
 4031 03bc 56       		.byte	0x56
 4032 03bd 00000000 		.4byte	0
 4033 03c1 00000000 		.4byte	0
 4034              	.LLST12:
 4035 03c5 00000000 		.4byte	.LVL20
 4036 03c9 13000000 		.4byte	.LVL22-1
 4037 03cd 0100     		.2byte	0x1
 4038 03cf 51       		.byte	0x51
 4039 03d0 13000000 		.4byte	.LVL22-1
 4040 03d4 48000000 		.4byte	.LFE4
 4041 03d8 0100     		.2byte	0x1
 4042 03da 55       		.byte	0x55
 4043 03db 00000000 		.4byte	0
 4044 03df 00000000 		.4byte	0
 4045              	.LLST13:
 4046 03e3 16000000 		.4byte	.LVL23
 4047 03e7 2C000000 		.4byte	.LVL26
ARM GAS  /var/folders/d2/nstgp4h54kz7g1l847x_b8wc0000gn/T//ccaKPViU.s 			page 72


 4048 03eb 0100     		.2byte	0x1
 4049 03ed 55       		.byte	0x55
 4050 03ee 00000000 		.4byte	0
 4051 03f2 00000000 		.4byte	0
 4052              	.LLST14:
 4053 03f6 16000000 		.4byte	.LVL23
 4054 03fa 2C000000 		.4byte	.LVL26
 4055 03fe 0100     		.2byte	0x1
 4056 0400 54       		.byte	0x54
 4057 0401 00000000 		.4byte	0
 4058 0405 00000000 		.4byte	0
 4059              	.LLST8:
 4060 0409 00000000 		.4byte	.LVL9
 4061 040d 16000000 		.4byte	.LVL11
 4062 0411 0100     		.2byte	0x1
 4063 0413 50       		.byte	0x50
 4064 0414 16000000 		.4byte	.LVL11
 4065 0418 4A000000 		.4byte	.LVL17
 4066 041c 0100     		.2byte	0x1
 4067 041e 54       		.byte	0x54
 4068 041f 4A000000 		.4byte	.LVL17
 4069 0423 4E000000 		.4byte	.LVL18
 4070 0427 0400     		.2byte	0x4
 4071 0429 F3       		.byte	0xf3
 4072 042a 01       		.uleb128 0x1
 4073 042b 50       		.byte	0x50
 4074 042c 9F       		.byte	0x9f
 4075 042d 4E000000 		.4byte	.LVL18
 4076 0431 58000000 		.4byte	.LFE3
 4077 0435 0100     		.2byte	0x1
 4078 0437 54       		.byte	0x54
 4079 0438 00000000 		.4byte	0
 4080 043c 00000000 		.4byte	0
 4081              	.LLST9:
 4082 0440 00000000 		.4byte	.LVL9
 4083 0444 1A000000 		.4byte	.LVL12
 4084 0448 0100     		.2byte	0x1
 4085 044a 51       		.byte	0x51
 4086 044b 1A000000 		.4byte	.LVL12
 4087 044f 4A000000 		.4byte	.LVL17
 4088 0453 0100     		.2byte	0x1
 4089 0455 55       		.byte	0x55
 4090 0456 4A000000 		.4byte	.LVL17
 4091 045a 4E000000 		.4byte	.LVL18
 4092 045e 0400     		.2byte	0x4
 4093 0460 F3       		.byte	0xf3
 4094 0461 01       		.uleb128 0x1
 4095 0462 51       		.byte	0x51
 4096 0463 9F       		.byte	0x9f
 4097 0464 4E000000 		.4byte	.LVL18
 4098 0468 58000000 		.4byte	.LFE3
 4099 046c 0100     		.2byte	0x1
 4100 046e 55       		.byte	0x55
 4101 046f 00000000 		.4byte	0
 4102 0473 00000000 		.4byte	0
 4103              	.LLST10:
 4104 0477 00000000 		.4byte	.LVL9
ARM GAS  /var/folders/d2/nstgp4h54kz7g1l847x_b8wc0000gn/T//ccaKPViU.s 			page 73


 4105 047b 0E000000 		.4byte	.LVL10
 4106 047f 0100     		.2byte	0x1
 4107 0481 52       		.byte	0x52
 4108 0482 0E000000 		.4byte	.LVL10
 4109 0486 4A000000 		.4byte	.LVL17
 4110 048a 0100     		.2byte	0x1
 4111 048c 57       		.byte	0x57
 4112 048d 4A000000 		.4byte	.LVL17
 4113 0491 4E000000 		.4byte	.LVL18
 4114 0495 0400     		.2byte	0x4
 4115 0497 F3       		.byte	0xf3
 4116 0498 01       		.uleb128 0x1
 4117 0499 52       		.byte	0x52
 4118 049a 9F       		.byte	0x9f
 4119 049b 4E000000 		.4byte	.LVL18
 4120 049f 58000000 		.4byte	.LFE3
 4121 04a3 0100     		.2byte	0x1
 4122 04a5 57       		.byte	0x57
 4123 04a6 00000000 		.4byte	0
 4124 04aa 00000000 		.4byte	0
 4125              	.LLST3:
 4126 04ae 00000000 		.4byte	.LVL2
 4127 04b2 16000000 		.4byte	.LVL3
 4128 04b6 0100     		.2byte	0x1
 4129 04b8 50       		.byte	0x50
 4130 04b9 16000000 		.4byte	.LVL3
 4131 04bd 44000000 		.4byte	.LFE2
 4132 04c1 0100     		.2byte	0x1
 4133 04c3 54       		.byte	0x54
 4134 04c4 00000000 		.4byte	0
 4135 04c8 00000000 		.4byte	0
 4136              	.LLST4:
 4137 04cc 00000000 		.4byte	.LVL2
 4138 04d0 1A000000 		.4byte	.LVL5
 4139 04d4 0100     		.2byte	0x1
 4140 04d6 51       		.byte	0x51
 4141 04d7 1A000000 		.4byte	.LVL5
 4142 04db 44000000 		.4byte	.LFE2
 4143 04df 0100     		.2byte	0x1
 4144 04e1 57       		.byte	0x57
 4145 04e2 00000000 		.4byte	0
 4146 04e6 00000000 		.4byte	0
 4147              	.LLST5:
 4148 04ea 00000000 		.4byte	.LVL2
 4149 04ee 18000000 		.4byte	.LVL4
 4150 04f2 0100     		.2byte	0x1
 4151 04f4 52       		.byte	0x52
 4152 04f5 18000000 		.4byte	.LVL4
 4153 04f9 44000000 		.4byte	.LFE2
 4154 04fd 0100     		.2byte	0x1
 4155 04ff 56       		.byte	0x56
 4156 0500 00000000 		.4byte	0
 4157 0504 00000000 		.4byte	0
 4158              	.LLST6:
 4159 0508 00000000 		.4byte	.LVL2
 4160 050c 21000000 		.4byte	.LVL6-1
 4161 0510 0100     		.2byte	0x1
ARM GAS  /var/folders/d2/nstgp4h54kz7g1l847x_b8wc0000gn/T//ccaKPViU.s 			page 74


 4162 0512 53       		.byte	0x53
 4163 0513 21000000 		.4byte	.LVL6-1
 4164 0517 44000000 		.4byte	.LFE2
 4165 051b 0100     		.2byte	0x1
 4166 051d 59       		.byte	0x59
 4167 051e 00000000 		.4byte	0
 4168 0522 00000000 		.4byte	0
 4169              	.LLST7:
 4170 0526 00000000 		.4byte	.LVL2
 4171 052a 3A000000 		.4byte	.LVL7
 4172 052e 0200     		.2byte	0x2
 4173 0530 91       		.byte	0x91
 4174 0531 00       		.sleb128 0
 4175 0532 3A000000 		.4byte	.LVL7
 4176 0536 44000000 		.4byte	.LFE2
 4177 053a 0200     		.2byte	0x2
 4178 053c 91       		.byte	0x91
 4179 053d 00       		.sleb128 0
 4180 053e 00000000 		.4byte	0
 4181 0542 00000000 		.4byte	0
 4182              	.LLST0:
 4183 0546 00000000 		.4byte	.LVL0
 4184 054a 21000000 		.4byte	.LVL1-1
 4185 054e 0100     		.2byte	0x1
 4186 0550 50       		.byte	0x50
 4187 0551 21000000 		.4byte	.LVL1-1
 4188 0555 28000000 		.4byte	.LFE1
 4189 0559 0400     		.2byte	0x4
 4190 055b F3       		.byte	0xf3
 4191 055c 01       		.uleb128 0x1
 4192 055d 50       		.byte	0x50
 4193 055e 9F       		.byte	0x9f
 4194 055f 00000000 		.4byte	0
 4195 0563 00000000 		.4byte	0
 4196              	.LLST1:
 4197 0567 00000000 		.4byte	.LVL0
 4198 056b 21000000 		.4byte	.LVL1-1
 4199 056f 0100     		.2byte	0x1
 4200 0571 51       		.byte	0x51
 4201 0572 21000000 		.4byte	.LVL1-1
 4202 0576 28000000 		.4byte	.LFE1
 4203 057a 0400     		.2byte	0x4
 4204 057c F3       		.byte	0xf3
 4205 057d 01       		.uleb128 0x1
 4206 057e 51       		.byte	0x51
 4207 057f 9F       		.byte	0x9f
 4208 0580 00000000 		.4byte	0
 4209 0584 00000000 		.4byte	0
 4210              	.LLST2:
 4211 0588 00000000 		.4byte	.LVL0
 4212 058c 21000000 		.4byte	.LVL1-1
 4213 0590 0100     		.2byte	0x1
 4214 0592 52       		.byte	0x52
 4215 0593 21000000 		.4byte	.LVL1-1
 4216 0597 28000000 		.4byte	.LFE1
 4217 059b 0400     		.2byte	0x4
 4218 059d F3       		.byte	0xf3
ARM GAS  /var/folders/d2/nstgp4h54kz7g1l847x_b8wc0000gn/T//ccaKPViU.s 			page 75


 4219 059e 01       		.uleb128 0x1
 4220 059f 52       		.byte	0x52
 4221 05a0 9F       		.byte	0x9f
 4222 05a1 00000000 		.4byte	0
 4223 05a5 00000000 		.4byte	0
 4224              		.section	.debug_aranges,"",%progbits
 4225 0000 6C000000 		.4byte	0x6c
 4226 0004 0200     		.2byte	0x2
 4227 0006 00000000 		.4byte	.Ldebug_info0
 4228 000a 04       		.byte	0x4
 4229 000b 00       		.byte	0
 4230 000c 0000     		.2byte	0
 4231 000e 0000     		.2byte	0
 4232 0010 00000000 		.4byte	.LFB1
 4233 0014 28000000 		.4byte	.LFE1-.LFB1
 4234 0018 00000000 		.4byte	.LFB2
 4235 001c 44000000 		.4byte	.LFE2-.LFB2
 4236 0020 00000000 		.4byte	.LFB3
 4237 0024 58000000 		.4byte	.LFE3-.LFB3
 4238 0028 00000000 		.4byte	.LFB4
 4239 002c 48000000 		.4byte	.LFE4-.LFB4
 4240 0030 00000000 		.4byte	.LFB5
 4241 0034 50000000 		.4byte	.LFE5-.LFB5
 4242 0038 00000000 		.4byte	.LFB6
 4243 003c 78000000 		.4byte	.LFE6-.LFB6
 4244 0040 00000000 		.4byte	.LFB7
 4245 0044 48000000 		.4byte	.LFE7-.LFB7
 4246 0048 00000000 		.4byte	.LFB8
 4247 004c 44000000 		.4byte	.LFE8-.LFB8
 4248 0050 00000000 		.4byte	.LFB9
 4249 0054 24000000 		.4byte	.LFE9-.LFB9
 4250 0058 00000000 		.4byte	.LFB10
 4251 005c 48000000 		.4byte	.LFE10-.LFB10
 4252 0060 00000000 		.4byte	.LFB11
 4253 0064 38000000 		.4byte	.LFE11-.LFB11
 4254 0068 00000000 		.4byte	0
 4255 006c 00000000 		.4byte	0
 4256              		.section	.debug_ranges,"",%progbits
 4257              	.Ldebug_ranges0:
 4258 0000 00000000 		.4byte	.LFB1
 4259 0004 28000000 		.4byte	.LFE1
 4260 0008 00000000 		.4byte	.LFB2
 4261 000c 44000000 		.4byte	.LFE2
 4262 0010 00000000 		.4byte	.LFB3
 4263 0014 58000000 		.4byte	.LFE3
 4264 0018 00000000 		.4byte	.LFB4
 4265 001c 48000000 		.4byte	.LFE4
 4266 0020 00000000 		.4byte	.LFB5
 4267 0024 50000000 		.4byte	.LFE5
 4268 0028 00000000 		.4byte	.LFB6
 4269 002c 78000000 		.4byte	.LFE6
 4270 0030 00000000 		.4byte	.LFB7
 4271 0034 48000000 		.4byte	.LFE7
 4272 0038 00000000 		.4byte	.LFB8
 4273 003c 44000000 		.4byte	.LFE8
 4274 0040 00000000 		.4byte	.LFB9
 4275 0044 24000000 		.4byte	.LFE9
ARM GAS  /var/folders/d2/nstgp4h54kz7g1l847x_b8wc0000gn/T//ccaKPViU.s 			page 76


 4276 0048 00000000 		.4byte	.LFB10
 4277 004c 48000000 		.4byte	.LFE10
 4278 0050 00000000 		.4byte	.LFB11
 4279 0054 38000000 		.4byte	.LFE11
 4280 0058 00000000 		.4byte	0
 4281 005c 00000000 		.4byte	0
 4282              		.section	.debug_line,"",%progbits
 4283              	.Ldebug_line0:
 4284 0000 6C030000 		.section	.debug_str,"MS",%progbits,1
 4284      02002802 
 4284      00000201 
 4284      FB0E0D00 
 4284      01010101 
 4285              	.LASF66:
 4286 0000 5F64736F 		.ascii	"_dso_handle\000"
 4286      5F68616E 
 4286      646C6500 
 4287              	.LASF177:
 4288 000c 2F557365 		.ascii	"/Users/bharathkeshavamurthy/Workspaces/Talos/src/ma"
 4288      72732F62 
 4288      68617261 
 4288      74686B65 
 4288      73686176 
 4289 003f 696E2F63 		.ascii	"in/cpp/org/purdue/ece/talos/optimize/\000"
 4289      70702F6F 
 4289      72672F70 
 4289      75726475 
 4289      652F6563 
 4290              	.LASF74:
 4291 0065 5F73697A 		.ascii	"_size\000"
 4291      6500
 4292              	.LASF169:
 4293 006b 73747263 		.ascii	"strcmp\000"
 4293      6D7000
 4294              	.LASF10:
 4295 0072 73697A65 		.ascii	"size_t\000"
 4295      5F7400
 4296              	.LASF118:
 4297 0079 5F72616E 		.ascii	"_rand48\000"
 4297      64343800 
 4298              	.LASF98:
 4299 0081 5F656D65 		.ascii	"_emergency\000"
 4299      7267656E 
 4299      637900
 4300              	.LASF134:
 4301 008c 5F676574 		.ascii	"_getdate_err\000"
 4301      64617465 
 4301      5F657272 
 4301      00
 4302              	.LASF88:
 4303 0099 5F646174 		.ascii	"_data\000"
 4303      6100
 4304              	.LASF174:
 4305 009f 7374726E 		.ascii	"strncpy\000"
 4305      63707900 
 4306              	.LASF138:
 4307 00a7 5F776372 		.ascii	"_wcrtomb_state\000"
ARM GAS  /var/folders/d2/nstgp4h54kz7g1l847x_b8wc0000gn/T//ccaKPViU.s 			page 77


 4307      746F6D62 
 4307      5F737461 
 4307      746500
 4308              	.LASF43:
 4309 00b6 6D657373 		.ascii	"messagebus_t\000"
 4309      61676562 
 4309      75735F74 
 4309      00
 4310              	.LASF139:
 4311 00c3 5F776373 		.ascii	"_wcsrtombs_state\000"
 4311      72746F6D 
 4311      62735F73 
 4311      74617465 
 4311      00
 4312              	.LASF173:
 4313 00d4 5F5F6275 		.ascii	"__builtin_memset\000"
 4313      696C7469 
 4313      6E5F6D65 
 4313      6D736574 
 4313      00
 4314              	.LASF7:
 4315 00e5 6C6F6E67 		.ascii	"long long unsigned int\000"
 4315      206C6F6E 
 4315      6720756E 
 4315      7369676E 
 4315      65642069 
 4316              	.LASF78:
 4317 00fc 5F6C6266 		.ascii	"_lbfsize\000"
 4317      73697A65 
 4317      00
 4318              	.LASF161:
 4319 0105 6D657373 		.ascii	"messagebus_topic_init\000"
 4319      61676562 
 4319      75735F74 
 4319      6F706963 
 4319      5F696E69 
 4320              	.LASF148:
 4321 011b 77617463 		.ascii	"watcher\000"
 4321      68657200 
 4322              	.LASF145:
 4323 0123 5F5F6C6F 		.ascii	"__locale_t\000"
 4323      63616C65 
 4323      5F7400
 4324              	.LASF162:
 4325 012e 746F7069 		.ascii	"topic_lock\000"
 4325      635F6C6F 
 4325      636B00
 4326              	.LASF136:
 4327 0139 5F6D6272 		.ascii	"_mbrtowc_state\000"
 4327      746F7763 
 4327      5F737461 
 4327      746500
 4328              	.LASF35:
 4329 0148 6E657874 		.ascii	"next\000"
 4329      00
 4330              	.LASF55:
 4331 014d 5F5F746D 		.ascii	"__tm_sec\000"
ARM GAS  /var/folders/d2/nstgp4h54kz7g1l847x_b8wc0000gn/T//ccaKPViU.s 			page 78


 4331      5F736563 
 4331      00
 4332              	.LASF6:
 4333 0156 6C6F6E67 		.ascii	"long long int\000"
 4333      206C6F6E 
 4333      6720696E 
 4333      7400
 4334              	.LASF0:
 4335 0164 7369676E 		.ascii	"signed char\000"
 4335      65642063 
 4335      68617200 
 4336              	.LASF153:
 4337 0170 6275665F 		.ascii	"buf_len\000"
 4337      6C656E00 
 4338              	.LASF29:
 4339 0178 62756666 		.ascii	"buffer_len\000"
 4339      65725F6C 
 4339      656E00
 4340              	.LASF73:
 4341 0183 5F626173 		.ascii	"_base\000"
 4341      6500
 4342              	.LASF57:
 4343 0189 5F5F746D 		.ascii	"__tm_hour\000"
 4343      5F686F75 
 4343      7200
 4344              	.LASF113:
 4345 0193 5F5F7366 		.ascii	"__sf\000"
 4345      00
 4346              	.LASF33:
 4347 0198 7075626C 		.ascii	"published\000"
 4347      69736865 
 4347      6400
 4348              	.LASF79:
 4349 01a2 5F636F6F 		.ascii	"_cookie\000"
 4349      6B696500 
 4350              	.LASF39:
 4351 01aa 67726F75 		.ascii	"group\000"
 4351      7000
 4352              	.LASF112:
 4353 01b0 5F5F7367 		.ascii	"__sglue\000"
 4353      6C756500 
 4354              	.LASF4:
 4355 01b8 6C6F6E67 		.ascii	"long int\000"
 4355      20696E74 
 4355      00
 4356              	.LASF166:
 4357 01c1 6D657373 		.ascii	"messagebus_condvar_wait\000"
 4357      61676562 
 4357      75735F63 
 4357      6F6E6476 
 4357      61725F77 
 4358              	.LASF76:
 4359 01d9 5F666C61 		.ascii	"_flags\000"
 4359      677300
 4360              	.LASF68:
 4361 01e0 5F69735F 		.ascii	"_is_cxa\000"
 4361      63786100 
ARM GAS  /var/folders/d2/nstgp4h54kz7g1l847x_b8wc0000gn/T//ccaKPViU.s 			page 79


 4362              	.LASF94:
 4363 01e8 5F737464 		.ascii	"_stdin\000"
 4363      696E00
 4364              	.LASF84:
 4365 01ef 5F756275 		.ascii	"_ubuf\000"
 4365      6600
 4366              	.LASF86:
 4367 01f5 5F626C6B 		.ascii	"_blksize\000"
 4367      73697A65 
 4367      00
 4368              	.LASF149:
 4369 01fe 746F7069 		.ascii	"topic\000"
 4369      6300
 4370              	.LASF45:
 4371 0204 7075626C 		.ascii	"published_topic\000"
 4371      69736865 
 4371      645F746F 
 4371      70696300 
 4372              	.LASF108:
 4373 0214 5F637674 		.ascii	"_cvtbuf\000"
 4373      62756600 
 4374              	.LASF87:
 4375 021c 5F6F6666 		.ascii	"_offset\000"
 4375      73657400 
 4376              	.LASF151:
 4377 0224 6D657373 		.ascii	"messagebus_watchgroup_init\000"
 4377      61676562 
 4377      75735F77 
 4377      61746368 
 4377      67726F75 
 4378              	.LASF137:
 4379 023f 5F6D6273 		.ascii	"_mbsrtowcs_state\000"
 4379      72746F77 
 4379      63735F73 
 4379      74617465 
 4379      00
 4380              	.LASF123:
 4381 0250 5F737472 		.ascii	"_strtok_last\000"
 4381      746F6B5F 
 4381      6C617374 
 4381      00
 4382              	.LASF135:
 4383 025d 5F6D6272 		.ascii	"_mbrlen_state\000"
 4383      6C656E5F 
 4383      73746174 
 4383      6500
 4384              	.LASF65:
 4385 026b 5F666E61 		.ascii	"_fnargs\000"
 4385      72677300 
 4386              	.LASF71:
 4387 0273 5F666E73 		.ascii	"_fns\000"
 4387      00
 4388              	.LASF163:
 4389 0278 746F7069 		.ascii	"topic_condvar\000"
 4389      635F636F 
 4389      6E647661 
 4389      7200
ARM GAS  /var/folders/d2/nstgp4h54kz7g1l847x_b8wc0000gn/T//ccaKPViU.s 			page 80


 4390              	.LASF52:
 4391 0286 5F736967 		.ascii	"_sign\000"
 4391      6E00
 4392              	.LASF20:
 4393 028c 5F666C6F 		.ascii	"_flock_t\000"
 4393      636B5F74 
 4393      00
 4394              	.LASF96:
 4395 0295 5F737464 		.ascii	"_stderr\000"
 4395      65727200 
 4396              	.LASF49:
 4397 029d 5F426967 		.ascii	"_Bigint\000"
 4397      696E7400 
 4398              	.LASF126:
 4399 02a5 5F67616D 		.ascii	"_gamma_signgam\000"
 4399      6D615F73 
 4399      69676E67 
 4399      616D00
 4400              	.LASF50:
 4401 02b4 5F6E6578 		.ascii	"_next\000"
 4401      7400
 4402              	.LASF80:
 4403 02ba 5F726561 		.ascii	"_read\000"
 4403      6400
 4404              	.LASF104:
 4405 02c0 5F726573 		.ascii	"_result_k\000"
 4405      756C745F 
 4405      6B00
 4406              	.LASF54:
 4407 02ca 5F5F746D 		.ascii	"__tm\000"
 4407      00
 4408              	.LASF8:
 4409 02cf 756E7369 		.ascii	"unsigned int\000"
 4409      676E6564 
 4409      20696E74 
 4409      00
 4410              	.LASF175:
 4411 02dc 474E5520 		.ascii	"GNU C11 7.2.1 20170904 (release) [ARM/embedded-7-br"
 4411      43313120 
 4411      372E322E 
 4411      31203230 
 4411      31373039 
 4412 030f 616E6368 		.ascii	"anch revision 255204] -mcpu=cortex-m4 -mfloat-abi=h"
 4412      20726576 
 4412      6973696F 
 4412      6E203235 
 4412      35323034 
 4413 0342 61726420 		.ascii	"ard -mfpu=fpv4-sp-d16 -mno-thumb-interwork -mthumb "
 4413      2D6D6670 
 4413      753D6670 
 4413      76342D73 
 4413      702D6431 
 4414 0375 2D676764 		.ascii	"-ggdb -O2 -fomit-frame-pointer -falign-functions=16"
 4414      62202D4F 
 4414      32202D66 
 4414      6F6D6974 
 4414      2D667261 
ARM GAS  /var/folders/d2/nstgp4h54kz7g1l847x_b8wc0000gn/T//ccaKPViU.s 			page 81


 4415 03a8 202D666E 		.ascii	" -fno-strict-aliasing -fstack-protector-all -ffunct"
 4415      6F2D7374 
 4415      72696374 
 4415      2D616C69 
 4415      6173696E 
 4416 03db 696F6E2D 		.ascii	"ion-sections -fdata-sections -fno-common -fsingle-p"
 4416      73656374 
 4416      696F6E73 
 4416      202D6664 
 4416      6174612D 
 4417 040e 72656369 		.ascii	"recision-constant\000"
 4417      73696F6E 
 4417      2D636F6E 
 4417      7374616E 
 4417      7400
 4418              	.LASF16:
 4419 0420 5F5F7763 		.ascii	"__wchb\000"
 4419      686200
 4420              	.LASF178:
 4421 0427 746F7069 		.ascii	"topic_by_name\000"
 4421      635F6279 
 4421      5F6E616D 
 4421      6500
 4422              	.LASF95:
 4423 0435 5F737464 		.ascii	"_stdout\000"
 4423      6F757400 
 4424              	.LASF26:
 4425 043d 6F70746F 		.ascii	"optopt\000"
 4425      707400
 4426              	.LASF107:
 4427 0444 5F637674 		.ascii	"_cvtlen\000"
 4427      6C656E00 
 4428              	.LASF5:
 4429 044c 6C6F6E67 		.ascii	"long unsigned int\000"
 4429      20756E73 
 4429      69676E65 
 4429      6420696E 
 4429      7400
 4430              	.LASF77:
 4431 045e 5F66696C 		.ascii	"_file\000"
 4431      6500
 4432              	.LASF32:
 4433 0464 6E616D65 		.ascii	"name\000"
 4433      00
 4434              	.LASF116:
 4435 0469 5F6E696F 		.ascii	"_niobs\000"
 4435      627300
 4436              	.LASF3:
 4437 0470 73686F72 		.ascii	"short unsigned int\000"
 4437      7420756E 
 4437      7369676E 
 4437      65642069 
 4437      6E7400
 4438              	.LASF110:
 4439 0483 5F617465 		.ascii	"_atexit0\000"
 4439      78697430 
 4439      00
ARM GAS  /var/folders/d2/nstgp4h54kz7g1l847x_b8wc0000gn/T//ccaKPViU.s 			page 82


 4440              	.LASF40:
 4441 048c 6D657373 		.ascii	"messagebus_topic_t\000"
 4441      61676562 
 4441      75735F74 
 4441      6F706963 
 4441      5F7400
 4442              	.LASF133:
 4443 049f 5F736967 		.ascii	"_signal_buf\000"
 4443      6E616C5F 
 4443      62756600 
 4444              	.LASF124:
 4445 04ab 5F617363 		.ascii	"_asctime_buf\000"
 4445      74696D65 
 4445      5F627566 
 4445      00
 4446              	.LASF37:
 4447 04b8 746F7069 		.ascii	"topic_s\000"
 4447      635F7300 
 4448              	.LASF15:
 4449 04c0 5F5F7763 		.ascii	"__wch\000"
 4449      6800
 4450              	.LASF170:
 4451 04c6 6D656D63 		.ascii	"memcpy\000"
 4451      707900
 4452              	.LASF11:
 4453 04cd 5F4C4F43 		.ascii	"_LOCK_T\000"
 4453      4B5F5400 
 4454              	.LASF22:
 4455 04d5 656E7669 		.ascii	"environ\000"
 4455      726F6E00 
 4456              	.LASF14:
 4457 04dd 77696E74 		.ascii	"wint_t\000"
 4457      5F7400
 4458              	.LASF172:
 4459 04e4 5F5F6275 		.ascii	"__builtin_memcpy\000"
 4459      696C7469 
 4459      6E5F6D65 
 4459      6D637079 
 4459      00
 4460              	.LASF89:
 4461 04f5 5F6C6F63 		.ascii	"_lock\000"
 4461      6B00
 4462              	.LASF165:
 4463 04fb 6D657373 		.ascii	"messagebus_lock_acquire\000"
 4463      61676562 
 4463      75735F6C 
 4463      6F636B5F 
 4463      61637175 
 4464              	.LASF91:
 4465 0513 5F666C61 		.ascii	"_flags2\000"
 4465      67733200 
 4466              	.LASF103:
 4467 051b 5F726573 		.ascii	"_result\000"
 4467      756C7400 
 4468              	.LASF164:
 4469 0523 6D657373 		.ascii	"messagebus_init\000"
 4469      61676562 
ARM GAS  /var/folders/d2/nstgp4h54kz7g1l847x_b8wc0000gn/T//ccaKPViU.s 			page 83


 4469      75735F69 
 4469      6E697400 
 4470              	.LASF27:
 4471 0533 6F707472 		.ascii	"optreset\000"
 4471      65736574 
 4471      00
 4472              	.LASF81:
 4473 053c 5F777269 		.ascii	"_write\000"
 4473      746500
 4474              	.LASF60:
 4475 0543 5F5F746D 		.ascii	"__tm_year\000"
 4475      5F796561 
 4475      7200
 4476              	.LASF31:
 4477 054d 636F6E64 		.ascii	"condvar\000"
 4477      76617200 
 4478              	.LASF23:
 4479 0555 6F707461 		.ascii	"optarg\000"
 4479      726700
 4480              	.LASF9:
 4481 055c 6C6F6E67 		.ascii	"long double\000"
 4481      20646F75 
 4481      626C6500 
 4482              	.LASF24:
 4483 0568 6F707469 		.ascii	"optind\000"
 4483      6E6400
 4484              	.LASF141:
 4485 056f 5F6E6578 		.ascii	"_nextf\000"
 4485      746600
 4486              	.LASF160:
 4487 0576 6D657373 		.ascii	"messagebus_advertise_topic\000"
 4487      61676562 
 4487      75735F61 
 4487      64766572 
 4487      74697365 
 4488              	.LASF59:
 4489 0591 5F5F746D 		.ascii	"__tm_mon\000"
 4489      5F6D6F6E 
 4489      00
 4490              	.LASF69:
 4491 059a 5F617465 		.ascii	"_atexit\000"
 4491      78697400 
 4492              	.LASF101:
 4493 05a2 5F5F7364 		.ascii	"__sdidinit\000"
 4493      6964696E 
 4493      697400
 4494              	.LASF12:
 4495 05ad 5F6F6666 		.ascii	"_off_t\000"
 4495      5F7400
 4496              	.LASF157:
 4497 05b4 6D657373 		.ascii	"messagebus_topic_publish\000"
 4497      61676562 
 4497      75735F74 
 4497      6F706963 
 4497      5F707562 
 4498              	.LASF106:
 4499 05cd 5F667265 		.ascii	"_freelist\000"
ARM GAS  /var/folders/d2/nstgp4h54kz7g1l847x_b8wc0000gn/T//ccaKPViU.s 			page 84


 4499      656C6973 
 4499      7400
 4500              	.LASF168:
 4501 05d7 6D657373 		.ascii	"messagebus_condvar_broadcast\000"
 4501      61676562 
 4501      75735F63 
 4501      6F6E6476 
 4501      61725F62 
 4502              	.LASF131:
 4503 05f4 5F776374 		.ascii	"_wctomb_state\000"
 4503      6F6D625F 
 4503      73746174 
 4503      6500
 4504              	.LASF36:
 4505 0602 5F426F6F 		.ascii	"_Bool\000"
 4505      6C00
 4506              	.LASF1:
 4507 0608 756E7369 		.ascii	"unsigned char\000"
 4507      676E6564 
 4507      20636861 
 4507      7200
 4508              	.LASF155:
 4509 0616 6D657373 		.ascii	"messagebus_topic_read\000"
 4509      61676562 
 4509      75735F74 
 4509      6F706963 
 4509      5F726561 
 4510              	.LASF109:
 4511 062c 5F6E6577 		.ascii	"_new\000"
 4511      00
 4512              	.LASF44:
 4513 0631 6D657373 		.ascii	"messagebus_watchgroup_s\000"
 4513      61676562 
 4513      75735F77 
 4513      61746368 
 4513      67726F75 
 4514              	.LASF46:
 4515 0649 6D657373 		.ascii	"messagebus_watchgroup_t\000"
 4515      61676562 
 4515      75735F77 
 4515      61746368 
 4515      67726F75 
 4516              	.LASF140:
 4517 0661 5F685F65 		.ascii	"_h_errno\000"
 4517      72726E6F 
 4517      00
 4518              	.LASF2:
 4519 066a 73686F72 		.ascii	"short int\000"
 4519      7420696E 
 4519      7400
 4520              	.LASF62:
 4521 0674 5F5F746D 		.ascii	"__tm_yday\000"
 4521      5F796461 
 4521      7900
 4522              	.LASF72:
 4523 067e 5F5F7362 		.ascii	"__sbuf\000"
 4523      756600
ARM GAS  /var/folders/d2/nstgp4h54kz7g1l847x_b8wc0000gn/T//ccaKPViU.s 			page 85


 4524              	.LASF117:
 4525 0685 5F696F62 		.ascii	"_iobs\000"
 4525      7300
 4526              	.LASF114:
 4527 068b 5F5F4649 		.ascii	"__FILE\000"
 4527      4C4500
 4528              	.LASF19:
 4529 0692 5F6D6273 		.ascii	"_mbstate_t\000"
 4529      74617465 
 4529      5F7400
 4530              	.LASF75:
 4531 069d 5F5F7346 		.ascii	"__sFILE\000"
 4531      494C4500 
 4532              	.LASF90:
 4533 06a5 5F6D6273 		.ascii	"_mbstate\000"
 4533      74617465 
 4533      00
 4534              	.LASF127:
 4535 06ae 5F72616E 		.ascii	"_rand_next\000"
 4535      645F6E65 
 4535      787400
 4536              	.LASF129:
 4537 06b9 5F6D626C 		.ascii	"_mblen_state\000"
 4537      656E5F73 
 4537      74617465 
 4537      00
 4538              	.LASF97:
 4539 06c6 5F696E63 		.ascii	"_inc\000"
 4539      00
 4540              	.LASF70:
 4541 06cb 5F696E64 		.ascii	"_ind\000"
 4541      00
 4542              	.LASF100:
 4543 06d0 5F6C6F63 		.ascii	"_locale\000"
 4543      616C6500 
 4544              	.LASF102:
 4545 06d8 5F5F636C 		.ascii	"__cleanup\000"
 4545      65616E75 
 4545      7000
 4546              	.LASF99:
 4547 06e2 5F756E73 		.ascii	"_unspecified_locale_info\000"
 4547      70656369 
 4547      66696564 
 4547      5F6C6F63 
 4547      616C655F 
 4548              	.LASF179:
 4549 06fb 5F5F7374 		.ascii	"__stack_chk_fail\000"
 4549      61636B5F 
 4549      63686B5F 
 4549      6661696C 
 4549      00
 4550              	.LASF51:
 4551 070c 5F6D6178 		.ascii	"_maxwds\000"
 4551      77647300 
 4552              	.LASF92:
 4553 0714 5F726565 		.ascii	"_reent\000"
 4553      6E7400
ARM GAS  /var/folders/d2/nstgp4h54kz7g1l847x_b8wc0000gn/T//ccaKPViU.s 			page 86


 4554              	.LASF41:
 4555 071b 68656164 		.ascii	"head\000"
 4555      00
 4556              	.LASF17:
 4557 0720 5F5F636F 		.ascii	"__count\000"
 4557      756E7400 
 4558              	.LASF144:
 4559 0728 5F5F6C6F 		.ascii	"__lock\000"
 4559      636B00
 4560              	.LASF18:
 4561 072f 5F5F7661 		.ascii	"__value\000"
 4561      6C756500 
 4562              	.LASF38:
 4563 0737 6D657373 		.ascii	"messagebus_watcher_s\000"
 4563      61676562 
 4563      75735F77 
 4563      61746368 
 4563      65725F73 
 4564              	.LASF47:
 4565 074c 6D657373 		.ascii	"messagebus_watcher_t\000"
 4565      61676562 
 4565      75735F77 
 4565      61746368 
 4565      65725F74 
 4566              	.LASF146:
 4567 0761 5F696D70 		.ascii	"_impure_ptr\000"
 4567      7572655F 
 4567      70747200 
 4568              	.LASF13:
 4569 076d 5F66706F 		.ascii	"_fpos_t\000"
 4569      735F7400 
 4570              	.LASF64:
 4571 0775 5F6F6E5F 		.ascii	"_on_exit_args\000"
 4571      65786974 
 4571      5F617267 
 4571      7300
 4572              	.LASF93:
 4573 0783 5F657272 		.ascii	"_errno\000"
 4573      6E6F00
 4574              	.LASF21:
 4575 078a 63686172 		.ascii	"char\000"
 4575      00
 4576              	.LASF56:
 4577 078f 5F5F746D 		.ascii	"__tm_min\000"
 4577      5F6D696E 
 4577      00
 4578              	.LASF119:
 4579 0798 5F736565 		.ascii	"_seed\000"
 4579      6400
 4580              	.LASF28:
 4581 079e 62756666 		.ascii	"buffer\000"
 4581      657200
 4582              	.LASF25:
 4583 07a5 6F707465 		.ascii	"opterr\000"
 4583      727200
 4584              	.LASF120:
 4585 07ac 5F6D756C 		.ascii	"_mult\000"
ARM GAS  /var/folders/d2/nstgp4h54kz7g1l847x_b8wc0000gn/T//ccaKPViU.s 			page 87


 4585      7400
 4586              	.LASF34:
 4587 07b2 77617463 		.ascii	"watchers\000"
 4587      68657273 
 4587      00
 4588              	.LASF82:
 4589 07bb 5F736565 		.ascii	"_seek\000"
 4589      6B00
 4590              	.LASF159:
 4591 07c1 6D657373 		.ascii	"messagebus_find_topic\000"
 4591      61676562 
 4591      75735F66 
 4591      696E645F 
 4591      746F7069 
 4592              	.LASF67:
 4593 07d7 5F666E74 		.ascii	"_fntypes\000"
 4593      79706573 
 4593      00
 4594              	.LASF42:
 4595 07e0 746F7069 		.ascii	"topics\000"
 4595      637300
 4596              	.LASF154:
 4597 07e7 6D657373 		.ascii	"messagebus_watchgroup_wait\000"
 4597      61676562 
 4597      75735F77 
 4597      61746368 
 4597      67726F75 
 4598              	.LASF121:
 4599 0802 5F616464 		.ascii	"_add\000"
 4599      00
 4600              	.LASF158:
 4601 0807 6D657373 		.ascii	"messagebus_find_topic_blocking\000"
 4601      61676562 
 4601      75735F66 
 4601      696E645F 
 4601      746F7069 
 4602              	.LASF48:
 4603 0826 5F5F554C 		.ascii	"__ULong\000"
 4603      6F6E6700 
 4604              	.LASF147:
 4605 082e 5F676C6F 		.ascii	"_global_impure_ptr\000"
 4605      62616C5F 
 4605      696D7075 
 4605      72655F70 
 4605      747200
 4606              	.LASF171:
 4607 0841 6D656D73 		.ascii	"memset\000"
 4607      657400
 4608              	.LASF122:
 4609 0848 5F756E75 		.ascii	"_unused_rand\000"
 4609      7365645F 
 4609      72616E64 
 4609      00
 4610              	.LASF53:
 4611 0855 5F776473 		.ascii	"_wds\000"
 4611      00
 4612              	.LASF61:
ARM GAS  /var/folders/d2/nstgp4h54kz7g1l847x_b8wc0000gn/T//ccaKPViU.s 			page 88


 4613 085a 5F5F746D 		.ascii	"__tm_wday\000"
 4613      5F776461 
 4613      7900
 4614              	.LASF115:
 4615 0864 5F676C75 		.ascii	"_glue\000"
 4615      6500
 4616              	.LASF142:
 4617 086a 5F6E6D61 		.ascii	"_nmalloc\000"
 4617      6C6C6F63 
 4617      00
 4618              	.LASF132:
 4619 0873 5F6C3634 		.ascii	"_l64a_buf\000"
 4619      615F6275 
 4619      6600
 4620              	.LASF152:
 4621 087d 6D657373 		.ascii	"messagebus_topic_wait\000"
 4621      61676562 
 4621      75735F74 
 4621      6F706963 
 4621      5F776169 
 4622              	.LASF111:
 4623 0893 5F736967 		.ascii	"_sig_func\000"
 4623      5F66756E 
 4623      6300
 4624              	.LASF176:
 4625 089d 2E2E2F65 		.ascii	"../e-puck2_main-processor/src/msgbus/messagebus.c\000"
 4625      2D707563 
 4625      6B325F6D 
 4625      61696E2D 
 4625      70726F63 
 4626              	.LASF150:
 4627 08cf 6D657373 		.ascii	"messagebus_watchgroup_watch\000"
 4627      61676562 
 4627      75735F77 
 4627      61746368 
 4627      67726F75 
 4628              	.LASF85:
 4629 08eb 5F6E6275 		.ascii	"_nbuf\000"
 4629      6600
 4630              	.LASF143:
 4631 08f1 5F756E75 		.ascii	"_unused\000"
 4631      73656400 
 4632              	.LASF167:
 4633 08f9 6D657373 		.ascii	"messagebus_lock_release\000"
 4633      61676562 
 4633      75735F6C 
 4633      6F636B5F 
 4633      72656C65 
 4634              	.LASF63:
 4635 0911 5F5F746D 		.ascii	"__tm_isdst\000"
 4635      5F697364 
 4635      737400
 4636              	.LASF125:
 4637 091c 5F6C6F63 		.ascii	"_localtime_buf\000"
 4637      616C7469 
 4637      6D655F62 
 4637      756600
ARM GAS  /var/folders/d2/nstgp4h54kz7g1l847x_b8wc0000gn/T//ccaKPViU.s 			page 89


 4638              	.LASF83:
 4639 092b 5F636C6F 		.ascii	"_close\000"
 4639      736500
 4640              	.LASF128:
 4641 0932 5F723438 		.ascii	"_r48\000"
 4641      00
 4642              	.LASF130:
 4643 0937 5F6D6274 		.ascii	"_mbtowc_state\000"
 4643      6F77635F 
 4643      73746174 
 4643      6500
 4644              	.LASF105:
 4645 0945 5F703573 		.ascii	"_p5s\000"
 4645      00
 4646              	.LASF30:
 4647 094a 6C6F636B 		.ascii	"lock\000"
 4647      00
 4648              	.LASF58:
 4649 094f 5F5F746D 		.ascii	"__tm_mday\000"
 4649      5F6D6461 
 4649      7900
 4650              	.LASF156:
 4651 0959 73756363 		.ascii	"success\000"
 4651      65737300 
 4652              		.ident	"GCC: (GNU Tools for Arm Embedded Processors 7-2017-q4-major) 7.2.1 20170904 (release) [ARM
ARM GAS  /var/folders/d2/nstgp4h54kz7g1l847x_b8wc0000gn/T//ccaKPViU.s 			page 90


DEFINED SYMBOLS
                            *ABS*:0000000000000000 messagebus.c
/var/folders/d2/nstgp4h54kz7g1l847x_b8wc0000gn/T//ccaKPViU.s:18     .text.messagebus_init:0000000000000000 $t
/var/folders/d2/nstgp4h54kz7g1l847x_b8wc0000gn/T//ccaKPViU.s:26     .text.messagebus_init:0000000000000000 messagebus_init
/var/folders/d2/nstgp4h54kz7g1l847x_b8wc0000gn/T//ccaKPViU.s:67     .text.messagebus_init:0000000000000024 $d
/var/folders/d2/nstgp4h54kz7g1l847x_b8wc0000gn/T//ccaKPViU.s:72     .text.messagebus_topic_init:0000000000000000 $t
/var/folders/d2/nstgp4h54kz7g1l847x_b8wc0000gn/T//ccaKPViU.s:80     .text.messagebus_topic_init:0000000000000000 messagebus_topic_init
/var/folders/d2/nstgp4h54kz7g1l847x_b8wc0000gn/T//ccaKPViU.s:144    .text.messagebus_topic_init:0000000000000040 $d
/var/folders/d2/nstgp4h54kz7g1l847x_b8wc0000gn/T//ccaKPViU.s:149    .text.messagebus_advertise_topic:0000000000000000 $t
/var/folders/d2/nstgp4h54kz7g1l847x_b8wc0000gn/T//ccaKPViU.s:157    .text.messagebus_advertise_topic:0000000000000000 messagebus_advertise_topic
/var/folders/d2/nstgp4h54kz7g1l847x_b8wc0000gn/T//ccaKPViU.s:243    .text.messagebus_advertise_topic:0000000000000054 $d
/var/folders/d2/nstgp4h54kz7g1l847x_b8wc0000gn/T//ccaKPViU.s:248    .text.messagebus_find_topic:0000000000000000 $t
/var/folders/d2/nstgp4h54kz7g1l847x_b8wc0000gn/T//ccaKPViU.s:256    .text.messagebus_find_topic:0000000000000000 messagebus_find_topic
/var/folders/d2/nstgp4h54kz7g1l847x_b8wc0000gn/T//ccaKPViU.s:331    .text.messagebus_find_topic:0000000000000044 $d
/var/folders/d2/nstgp4h54kz7g1l847x_b8wc0000gn/T//ccaKPViU.s:336    .text.messagebus_find_topic_blocking:0000000000000000 $t
/var/folders/d2/nstgp4h54kz7g1l847x_b8wc0000gn/T//ccaKPViU.s:344    .text.messagebus_find_topic_blocking:0000000000000000 messagebus_find_topic_blocking
/var/folders/d2/nstgp4h54kz7g1l847x_b8wc0000gn/T//ccaKPViU.s:430    .text.messagebus_find_topic_blocking:000000000000004c $d
/var/folders/d2/nstgp4h54kz7g1l847x_b8wc0000gn/T//ccaKPViU.s:435    .text.messagebus_topic_publish:0000000000000000 $t
/var/folders/d2/nstgp4h54kz7g1l847x_b8wc0000gn/T//ccaKPViU.s:443    .text.messagebus_topic_publish:0000000000000000 messagebus_topic_publish
/var/folders/d2/nstgp4h54kz7g1l847x_b8wc0000gn/T//ccaKPViU.s:553    .text.messagebus_topic_publish:0000000000000074 $d
/var/folders/d2/nstgp4h54kz7g1l847x_b8wc0000gn/T//ccaKPViU.s:558    .text.messagebus_topic_read:0000000000000000 $t
/var/folders/d2/nstgp4h54kz7g1l847x_b8wc0000gn/T//ccaKPViU.s:566    .text.messagebus_topic_read:0000000000000000 messagebus_topic_read
/var/folders/d2/nstgp4h54kz7g1l847x_b8wc0000gn/T//ccaKPViU.s:632    .text.messagebus_topic_read:0000000000000044 $d
/var/folders/d2/nstgp4h54kz7g1l847x_b8wc0000gn/T//ccaKPViU.s:637    .text.messagebus_topic_wait:0000000000000000 $t
/var/folders/d2/nstgp4h54kz7g1l847x_b8wc0000gn/T//ccaKPViU.s:645    .text.messagebus_topic_wait:0000000000000000 messagebus_topic_wait
/var/folders/d2/nstgp4h54kz7g1l847x_b8wc0000gn/T//ccaKPViU.s:714    .text.messagebus_topic_wait:0000000000000040 $d
/var/folders/d2/nstgp4h54kz7g1l847x_b8wc0000gn/T//ccaKPViU.s:719    .text.messagebus_watchgroup_init:0000000000000000 $t
/var/folders/d2/nstgp4h54kz7g1l847x_b8wc0000gn/T//ccaKPViU.s:727    .text.messagebus_watchgroup_init:0000000000000000 messagebus_watchgroup_init
/var/folders/d2/nstgp4h54kz7g1l847x_b8wc0000gn/T//ccaKPViU.s:767    .text.messagebus_watchgroup_init:0000000000000020 $d
/var/folders/d2/nstgp4h54kz7g1l847x_b8wc0000gn/T//ccaKPViU.s:772    .text.messagebus_watchgroup_watch:0000000000000000 $t
/var/folders/d2/nstgp4h54kz7g1l847x_b8wc0000gn/T//ccaKPViU.s:780    .text.messagebus_watchgroup_watch:0000000000000000 messagebus_watchgroup_watch
/var/folders/d2/nstgp4h54kz7g1l847x_b8wc0000gn/T//ccaKPViU.s:857    .text.messagebus_watchgroup_watch:0000000000000044 $d
/var/folders/d2/nstgp4h54kz7g1l847x_b8wc0000gn/T//ccaKPViU.s:862    .text.messagebus_watchgroup_wait:0000000000000000 $t
/var/folders/d2/nstgp4h54kz7g1l847x_b8wc0000gn/T//ccaKPViU.s:870    .text.messagebus_watchgroup_wait:0000000000000000 messagebus_watchgroup_wait
/var/folders/d2/nstgp4h54kz7g1l847x_b8wc0000gn/T//ccaKPViU.s:928    .text.messagebus_watchgroup_wait:0000000000000034 $d

UNDEFINED SYMBOLS
__stack_chk_fail
__stack_chk_guard
memset
strncpy
messagebus_lock_acquire
messagebus_condvar_broadcast
messagebus_lock_release
strcmp
messagebus_condvar_wait
memcpy
