ARM GAS  /var/folders/d2/nstgp4h54kz7g1l847x_b8wc0000gn/T//ccaXUuon.s 			page 1


   1              		.cpu cortex-m4
   2              		.eabi_attribute 27, 1
   3              		.eabi_attribute 28, 1
   4              		.eabi_attribute 20, 1
   5              		.eabi_attribute 21, 1
   6              		.eabi_attribute 23, 3
   7              		.eabi_attribute 24, 1
   8              		.eabi_attribute 25, 1
   9              		.eabi_attribute 26, 1
  10              		.eabi_attribute 30, 6
  11              		.eabi_attribute 34, 1
  12              		.eabi_attribute 18, 4
  13              		.file	"messagebus.c"
  14              		.section	.text.topic_by_name,"ax",%progbits
  15              		.align	1
  16              		.syntax unified
  17              		.thumb
  18              		.thumb_func
  19              		.fpu fpv4-sp-d16
  20              		.type	topic_by_name, %function
  21              	topic_by_name:
  22              		@ args = 0, pretend = 0, frame = 16
  23              		@ frame_needed = 1, uses_anonymous_args = 0
  24 0000 80B5     		push	{r7, lr}
  25 0002 84B0     		sub	sp, sp, #16
  26 0004 00AF     		add	r7, sp, #0
  27 0006 7860     		str	r0, [r7, #4]
  28 0008 3960     		str	r1, [r7]
  29 000a 7B68     		ldr	r3, [r7, #4]
  30 000c 1B68     		ldr	r3, [r3]
  31 000e FB60     		str	r3, [r7, #12]
  32 0010 0DE0     		b	.L2
  33              	.L5:
  34 0012 FB68     		ldr	r3, [r7, #12]
  35 0014 1033     		adds	r3, r3, #16
  36 0016 1946     		mov	r1, r3
  37 0018 3868     		ldr	r0, [r7]
  38 001a FFF7FEFF 		bl	strcmp
  39 001e 0346     		mov	r3, r0
  40 0020 002B     		cmp	r3, #0
  41 0022 01D1     		bne	.L3
  42 0024 FB68     		ldr	r3, [r7, #12]
  43 0026 06E0     		b	.L4
  44              	.L3:
  45 0028 FB68     		ldr	r3, [r7, #12]
  46 002a 9B6D     		ldr	r3, [r3, #88]
  47 002c FB60     		str	r3, [r7, #12]
  48              	.L2:
  49 002e FB68     		ldr	r3, [r7, #12]
  50 0030 002B     		cmp	r3, #0
  51 0032 EED1     		bne	.L5
  52 0034 0023     		movs	r3, #0
  53              	.L4:
  54 0036 1846     		mov	r0, r3
  55 0038 1037     		adds	r7, r7, #16
  56 003a BD46     		mov	sp, r7
  57              		@ sp needed
ARM GAS  /var/folders/d2/nstgp4h54kz7g1l847x_b8wc0000gn/T//ccaXUuon.s 			page 2


  58 003c 80BD     		pop	{r7, pc}
  59              		.size	topic_by_name, .-topic_by_name
  60              		.section	.text.messagebus_init,"ax",%progbits
  61              		.align	1
  62              		.global	messagebus_init
  63              		.syntax unified
  64              		.thumb
  65              		.thumb_func
  66              		.fpu fpv4-sp-d16
  67              		.type	messagebus_init, %function
  68              	messagebus_init:
  69              		@ args = 0, pretend = 0, frame = 16
  70              		@ frame_needed = 1, uses_anonymous_args = 0
  71 0000 80B5     		push	{r7, lr}
  72 0002 84B0     		sub	sp, sp, #16
  73 0004 00AF     		add	r7, sp, #0
  74 0006 F860     		str	r0, [r7, #12]
  75 0008 B960     		str	r1, [r7, #8]
  76 000a 7A60     		str	r2, [r7, #4]
  77 000c 0C22     		movs	r2, #12
  78 000e 0021     		movs	r1, #0
  79 0010 F868     		ldr	r0, [r7, #12]
  80 0012 FFF7FEFF 		bl	memset
  81 0016 FB68     		ldr	r3, [r7, #12]
  82 0018 BA68     		ldr	r2, [r7, #8]
  83 001a 5A60     		str	r2, [r3, #4]
  84 001c FB68     		ldr	r3, [r7, #12]
  85 001e 7A68     		ldr	r2, [r7, #4]
  86 0020 9A60     		str	r2, [r3, #8]
  87 0022 00BF     		nop
  88 0024 1037     		adds	r7, r7, #16
  89 0026 BD46     		mov	sp, r7
  90              		@ sp needed
  91 0028 80BD     		pop	{r7, pc}
  92              		.size	messagebus_init, .-messagebus_init
  93              		.section	.text.messagebus_topic_init,"ax",%progbits
  94              		.align	1
  95              		.global	messagebus_topic_init
  96              		.syntax unified
  97              		.thumb
  98              		.thumb_func
  99              		.fpu fpv4-sp-d16
 100              		.type	messagebus_topic_init, %function
 101              	messagebus_topic_init:
 102              		@ args = 4, pretend = 0, frame = 16
 103              		@ frame_needed = 1, uses_anonymous_args = 0
 104 0000 80B5     		push	{r7, lr}
 105 0002 84B0     		sub	sp, sp, #16
 106 0004 00AF     		add	r7, sp, #0
 107 0006 F860     		str	r0, [r7, #12]
 108 0008 B960     		str	r1, [r7, #8]
 109 000a 7A60     		str	r2, [r7, #4]
 110 000c 3B60     		str	r3, [r7]
 111 000e 5C22     		movs	r2, #92
 112 0010 0021     		movs	r1, #0
 113 0012 F868     		ldr	r0, [r7, #12]
 114 0014 FFF7FEFF 		bl	memset
ARM GAS  /var/folders/d2/nstgp4h54kz7g1l847x_b8wc0000gn/T//ccaXUuon.s 			page 3


 115 0018 FB68     		ldr	r3, [r7, #12]
 116 001a 3A68     		ldr	r2, [r7]
 117 001c 1A60     		str	r2, [r3]
 118 001e FB68     		ldr	r3, [r7, #12]
 119 0020 BA69     		ldr	r2, [r7, #24]
 120 0022 5A60     		str	r2, [r3, #4]
 121 0024 FB68     		ldr	r3, [r7, #12]
 122 0026 BA68     		ldr	r2, [r7, #8]
 123 0028 9A60     		str	r2, [r3, #8]
 124 002a FB68     		ldr	r3, [r7, #12]
 125 002c 7A68     		ldr	r2, [r7, #4]
 126 002e DA60     		str	r2, [r3, #12]
 127 0030 00BF     		nop
 128 0032 1037     		adds	r7, r7, #16
 129 0034 BD46     		mov	sp, r7
 130              		@ sp needed
 131 0036 80BD     		pop	{r7, pc}
 132              		.size	messagebus_topic_init, .-messagebus_topic_init
 133              		.section	.text.messagebus_advertise_topic,"ax",%progbits
 134              		.align	1
 135              		.global	messagebus_advertise_topic
 136              		.syntax unified
 137              		.thumb
 138              		.thumb_func
 139              		.fpu fpv4-sp-d16
 140              		.type	messagebus_advertise_topic, %function
 141              	messagebus_advertise_topic:
 142              		@ args = 0, pretend = 0, frame = 16
 143              		@ frame_needed = 1, uses_anonymous_args = 0
 144 0000 80B5     		push	{r7, lr}
 145 0002 84B0     		sub	sp, sp, #16
 146 0004 00AF     		add	r7, sp, #0
 147 0006 F860     		str	r0, [r7, #12]
 148 0008 B960     		str	r1, [r7, #8]
 149 000a 7A60     		str	r2, [r7, #4]
 150 000c BB68     		ldr	r3, [r7, #8]
 151 000e 1033     		adds	r3, r3, #16
 152 0010 4122     		movs	r2, #65
 153 0012 0021     		movs	r1, #0
 154 0014 1846     		mov	r0, r3
 155 0016 FFF7FEFF 		bl	memset
 156 001a BB68     		ldr	r3, [r7, #8]
 157 001c 1033     		adds	r3, r3, #16
 158 001e 4022     		movs	r2, #64
 159 0020 7968     		ldr	r1, [r7, #4]
 160 0022 1846     		mov	r0, r3
 161 0024 FFF7FEFF 		bl	strncpy
 162 0028 FB68     		ldr	r3, [r7, #12]
 163 002a 5B68     		ldr	r3, [r3, #4]
 164 002c 1846     		mov	r0, r3
 165 002e FFF7FEFF 		bl	messagebus_lock_acquire
 166 0032 FB68     		ldr	r3, [r7, #12]
 167 0034 1B68     		ldr	r3, [r3]
 168 0036 002B     		cmp	r3, #0
 169 0038 03D0     		beq	.L9
 170 003a FB68     		ldr	r3, [r7, #12]
 171 003c 1A68     		ldr	r2, [r3]
ARM GAS  /var/folders/d2/nstgp4h54kz7g1l847x_b8wc0000gn/T//ccaXUuon.s 			page 4


 172 003e BB68     		ldr	r3, [r7, #8]
 173 0040 9A65     		str	r2, [r3, #88]
 174              	.L9:
 175 0042 FB68     		ldr	r3, [r7, #12]
 176 0044 BA68     		ldr	r2, [r7, #8]
 177 0046 1A60     		str	r2, [r3]
 178 0048 FB68     		ldr	r3, [r7, #12]
 179 004a 9B68     		ldr	r3, [r3, #8]
 180 004c 1846     		mov	r0, r3
 181 004e FFF7FEFF 		bl	messagebus_condvar_broadcast
 182 0052 FB68     		ldr	r3, [r7, #12]
 183 0054 5B68     		ldr	r3, [r3, #4]
 184 0056 1846     		mov	r0, r3
 185 0058 FFF7FEFF 		bl	messagebus_lock_release
 186 005c 00BF     		nop
 187 005e 1037     		adds	r7, r7, #16
 188 0060 BD46     		mov	sp, r7
 189              		@ sp needed
 190 0062 80BD     		pop	{r7, pc}
 191              		.size	messagebus_advertise_topic, .-messagebus_advertise_topic
 192              		.section	.text.messagebus_find_topic,"ax",%progbits
 193              		.align	1
 194              		.global	messagebus_find_topic
 195              		.syntax unified
 196              		.thumb
 197              		.thumb_func
 198              		.fpu fpv4-sp-d16
 199              		.type	messagebus_find_topic, %function
 200              	messagebus_find_topic:
 201              		@ args = 0, pretend = 0, frame = 16
 202              		@ frame_needed = 1, uses_anonymous_args = 0
 203 0000 80B5     		push	{r7, lr}
 204 0002 84B0     		sub	sp, sp, #16
 205 0004 00AF     		add	r7, sp, #0
 206 0006 7860     		str	r0, [r7, #4]
 207 0008 3960     		str	r1, [r7]
 208 000a 7B68     		ldr	r3, [r7, #4]
 209 000c 5B68     		ldr	r3, [r3, #4]
 210 000e 1846     		mov	r0, r3
 211 0010 FFF7FEFF 		bl	messagebus_lock_acquire
 212 0014 3968     		ldr	r1, [r7]
 213 0016 7868     		ldr	r0, [r7, #4]
 214 0018 FFF7FEFF 		bl	topic_by_name
 215 001c F860     		str	r0, [r7, #12]
 216 001e 7B68     		ldr	r3, [r7, #4]
 217 0020 5B68     		ldr	r3, [r3, #4]
 218 0022 1846     		mov	r0, r3
 219 0024 FFF7FEFF 		bl	messagebus_lock_release
 220 0028 FB68     		ldr	r3, [r7, #12]
 221 002a 1846     		mov	r0, r3
 222 002c 1037     		adds	r7, r7, #16
 223 002e BD46     		mov	sp, r7
 224              		@ sp needed
 225 0030 80BD     		pop	{r7, pc}
 226              		.size	messagebus_find_topic, .-messagebus_find_topic
 227              		.section	.text.messagebus_find_topic_blocking,"ax",%progbits
 228              		.align	1
ARM GAS  /var/folders/d2/nstgp4h54kz7g1l847x_b8wc0000gn/T//ccaXUuon.s 			page 5


 229              		.global	messagebus_find_topic_blocking
 230              		.syntax unified
 231              		.thumb
 232              		.thumb_func
 233              		.fpu fpv4-sp-d16
 234              		.type	messagebus_find_topic_blocking, %function
 235              	messagebus_find_topic_blocking:
 236              		@ args = 0, pretend = 0, frame = 16
 237              		@ frame_needed = 1, uses_anonymous_args = 0
 238 0000 80B5     		push	{r7, lr}
 239 0002 84B0     		sub	sp, sp, #16
 240 0004 00AF     		add	r7, sp, #0
 241 0006 7860     		str	r0, [r7, #4]
 242 0008 3960     		str	r1, [r7]
 243 000a 0023     		movs	r3, #0
 244 000c FB60     		str	r3, [r7, #12]
 245 000e 7B68     		ldr	r3, [r7, #4]
 246 0010 5B68     		ldr	r3, [r3, #4]
 247 0012 1846     		mov	r0, r3
 248 0014 FFF7FEFF 		bl	messagebus_lock_acquire
 249 0018 0CE0     		b	.L13
 250              	.L14:
 251 001a 3968     		ldr	r1, [r7]
 252 001c 7868     		ldr	r0, [r7, #4]
 253 001e FFF7FEFF 		bl	topic_by_name
 254 0022 F860     		str	r0, [r7, #12]
 255 0024 FB68     		ldr	r3, [r7, #12]
 256 0026 002B     		cmp	r3, #0
 257 0028 04D1     		bne	.L13
 258 002a 7B68     		ldr	r3, [r7, #4]
 259 002c 9B68     		ldr	r3, [r3, #8]
 260 002e 1846     		mov	r0, r3
 261 0030 FFF7FEFF 		bl	messagebus_condvar_wait
 262              	.L13:
 263 0034 FB68     		ldr	r3, [r7, #12]
 264 0036 002B     		cmp	r3, #0
 265 0038 EFD0     		beq	.L14
 266 003a 7B68     		ldr	r3, [r7, #4]
 267 003c 5B68     		ldr	r3, [r3, #4]
 268 003e 1846     		mov	r0, r3
 269 0040 FFF7FEFF 		bl	messagebus_lock_release
 270 0044 FB68     		ldr	r3, [r7, #12]
 271 0046 1846     		mov	r0, r3
 272 0048 1037     		adds	r7, r7, #16
 273 004a BD46     		mov	sp, r7
 274              		@ sp needed
 275 004c 80BD     		pop	{r7, pc}
 276              		.size	messagebus_find_topic_blocking, .-messagebus_find_topic_blocking
 277              		.section	.text.messagebus_topic_publish,"ax",%progbits
 278              		.align	1
 279              		.global	messagebus_topic_publish
 280              		.syntax unified
 281              		.thumb
 282              		.thumb_func
 283              		.fpu fpv4-sp-d16
 284              		.type	messagebus_topic_publish, %function
 285              	messagebus_topic_publish:
ARM GAS  /var/folders/d2/nstgp4h54kz7g1l847x_b8wc0000gn/T//ccaXUuon.s 			page 6


 286              		@ args = 0, pretend = 0, frame = 24
 287              		@ frame_needed = 1, uses_anonymous_args = 0
 288 0000 80B5     		push	{r7, lr}
 289 0002 86B0     		sub	sp, sp, #24
 290 0004 00AF     		add	r7, sp, #0
 291 0006 F860     		str	r0, [r7, #12]
 292 0008 B960     		str	r1, [r7, #8]
 293 000a 7A60     		str	r2, [r7, #4]
 294 000c FB68     		ldr	r3, [r7, #12]
 295 000e 5B68     		ldr	r3, [r3, #4]
 296 0010 7A68     		ldr	r2, [r7, #4]
 297 0012 9A42     		cmp	r2, r3
 298 0014 01D9     		bls	.L17
 299 0016 0023     		movs	r3, #0
 300 0018 3AE0     		b	.L18
 301              	.L17:
 302 001a FB68     		ldr	r3, [r7, #12]
 303 001c 9B68     		ldr	r3, [r3, #8]
 304 001e 1846     		mov	r0, r3
 305 0020 FFF7FEFF 		bl	messagebus_lock_acquire
 306 0024 FB68     		ldr	r3, [r7, #12]
 307 0026 1B68     		ldr	r3, [r3]
 308 0028 7A68     		ldr	r2, [r7, #4]
 309 002a B968     		ldr	r1, [r7, #8]
 310 002c 1846     		mov	r0, r3
 311 002e FFF7FEFF 		bl	memcpy
 312 0032 FB68     		ldr	r3, [r7, #12]
 313 0034 0122     		movs	r2, #1
 314 0036 83F85120 		strb	r2, [r3, #81]
 315 003a FB68     		ldr	r3, [r7, #12]
 316 003c DB68     		ldr	r3, [r3, #12]
 317 003e 1846     		mov	r0, r3
 318 0040 FFF7FEFF 		bl	messagebus_condvar_broadcast
 319 0044 FB68     		ldr	r3, [r7, #12]
 320 0046 5B6D     		ldr	r3, [r3, #84]
 321 0048 7B61     		str	r3, [r7, #20]
 322 004a 18E0     		b	.L19
 323              	.L20:
 324 004c 7B69     		ldr	r3, [r7, #20]
 325 004e 1B68     		ldr	r3, [r3]
 326 0050 1B68     		ldr	r3, [r3]
 327 0052 1846     		mov	r0, r3
 328 0054 FFF7FEFF 		bl	messagebus_lock_acquire
 329 0058 7B69     		ldr	r3, [r7, #20]
 330 005a 1B68     		ldr	r3, [r3]
 331 005c FA68     		ldr	r2, [r7, #12]
 332 005e 9A60     		str	r2, [r3, #8]
 333 0060 7B69     		ldr	r3, [r7, #20]
 334 0062 1B68     		ldr	r3, [r3]
 335 0064 5B68     		ldr	r3, [r3, #4]
 336 0066 1846     		mov	r0, r3
 337 0068 FFF7FEFF 		bl	messagebus_condvar_broadcast
 338 006c 7B69     		ldr	r3, [r7, #20]
 339 006e 1B68     		ldr	r3, [r3]
 340 0070 1B68     		ldr	r3, [r3]
 341 0072 1846     		mov	r0, r3
 342 0074 FFF7FEFF 		bl	messagebus_lock_release
ARM GAS  /var/folders/d2/nstgp4h54kz7g1l847x_b8wc0000gn/T//ccaXUuon.s 			page 7


 343 0078 7B69     		ldr	r3, [r7, #20]
 344 007a 5B68     		ldr	r3, [r3, #4]
 345 007c 7B61     		str	r3, [r7, #20]
 346              	.L19:
 347 007e 7B69     		ldr	r3, [r7, #20]
 348 0080 002B     		cmp	r3, #0
 349 0082 E3D1     		bne	.L20
 350 0084 FB68     		ldr	r3, [r7, #12]
 351 0086 9B68     		ldr	r3, [r3, #8]
 352 0088 1846     		mov	r0, r3
 353 008a FFF7FEFF 		bl	messagebus_lock_release
 354 008e 0123     		movs	r3, #1
 355              	.L18:
 356 0090 1846     		mov	r0, r3
 357 0092 1837     		adds	r7, r7, #24
 358 0094 BD46     		mov	sp, r7
 359              		@ sp needed
 360 0096 80BD     		pop	{r7, pc}
 361              		.size	messagebus_topic_publish, .-messagebus_topic_publish
 362              		.section	.text.messagebus_topic_read,"ax",%progbits
 363              		.align	1
 364              		.global	messagebus_topic_read
 365              		.syntax unified
 366              		.thumb
 367              		.thumb_func
 368              		.fpu fpv4-sp-d16
 369              		.type	messagebus_topic_read, %function
 370              	messagebus_topic_read:
 371              		@ args = 0, pretend = 0, frame = 24
 372              		@ frame_needed = 1, uses_anonymous_args = 0
 373 0000 80B5     		push	{r7, lr}
 374 0002 86B0     		sub	sp, sp, #24
 375 0004 00AF     		add	r7, sp, #0
 376 0006 F860     		str	r0, [r7, #12]
 377 0008 B960     		str	r1, [r7, #8]
 378 000a 7A60     		str	r2, [r7, #4]
 379 000c 0023     		movs	r3, #0
 380 000e FB75     		strb	r3, [r7, #23]
 381 0010 FB68     		ldr	r3, [r7, #12]
 382 0012 9B68     		ldr	r3, [r3, #8]
 383 0014 1846     		mov	r0, r3
 384 0016 FFF7FEFF 		bl	messagebus_lock_acquire
 385 001a FB68     		ldr	r3, [r7, #12]
 386 001c 93F85130 		ldrb	r3, [r3, #81]	@ zero_extendqisi2
 387 0020 002B     		cmp	r3, #0
 388 0022 08D0     		beq	.L22
 389 0024 0123     		movs	r3, #1
 390 0026 FB75     		strb	r3, [r7, #23]
 391 0028 FB68     		ldr	r3, [r7, #12]
 392 002a 1B68     		ldr	r3, [r3]
 393 002c 7A68     		ldr	r2, [r7, #4]
 394 002e 1946     		mov	r1, r3
 395 0030 B868     		ldr	r0, [r7, #8]
 396 0032 FFF7FEFF 		bl	memcpy
 397              	.L22:
 398 0036 FB68     		ldr	r3, [r7, #12]
 399 0038 9B68     		ldr	r3, [r3, #8]
ARM GAS  /var/folders/d2/nstgp4h54kz7g1l847x_b8wc0000gn/T//ccaXUuon.s 			page 8


 400 003a 1846     		mov	r0, r3
 401 003c FFF7FEFF 		bl	messagebus_lock_release
 402 0040 FB7D     		ldrb	r3, [r7, #23]	@ zero_extendqisi2
 403 0042 1846     		mov	r0, r3
 404 0044 1837     		adds	r7, r7, #24
 405 0046 BD46     		mov	sp, r7
 406              		@ sp needed
 407 0048 80BD     		pop	{r7, pc}
 408              		.size	messagebus_topic_read, .-messagebus_topic_read
 409              		.section	.text.messagebus_topic_wait,"ax",%progbits
 410              		.align	1
 411              		.global	messagebus_topic_wait
 412              		.syntax unified
 413              		.thumb
 414              		.thumb_func
 415              		.fpu fpv4-sp-d16
 416              		.type	messagebus_topic_wait, %function
 417              	messagebus_topic_wait:
 418              		@ args = 0, pretend = 0, frame = 16
 419              		@ frame_needed = 1, uses_anonymous_args = 0
 420 0000 80B5     		push	{r7, lr}
 421 0002 84B0     		sub	sp, sp, #16
 422 0004 00AF     		add	r7, sp, #0
 423 0006 F860     		str	r0, [r7, #12]
 424 0008 B960     		str	r1, [r7, #8]
 425 000a 7A60     		str	r2, [r7, #4]
 426 000c FB68     		ldr	r3, [r7, #12]
 427 000e 9B68     		ldr	r3, [r3, #8]
 428 0010 1846     		mov	r0, r3
 429 0012 FFF7FEFF 		bl	messagebus_lock_acquire
 430 0016 FB68     		ldr	r3, [r7, #12]
 431 0018 DB68     		ldr	r3, [r3, #12]
 432 001a 1846     		mov	r0, r3
 433 001c FFF7FEFF 		bl	messagebus_condvar_wait
 434 0020 FB68     		ldr	r3, [r7, #12]
 435 0022 1B68     		ldr	r3, [r3]
 436 0024 7A68     		ldr	r2, [r7, #4]
 437 0026 1946     		mov	r1, r3
 438 0028 B868     		ldr	r0, [r7, #8]
 439 002a FFF7FEFF 		bl	memcpy
 440 002e FB68     		ldr	r3, [r7, #12]
 441 0030 9B68     		ldr	r3, [r3, #8]
 442 0032 1846     		mov	r0, r3
 443 0034 FFF7FEFF 		bl	messagebus_lock_release
 444 0038 00BF     		nop
 445 003a 1037     		adds	r7, r7, #16
 446 003c BD46     		mov	sp, r7
 447              		@ sp needed
 448 003e 80BD     		pop	{r7, pc}
 449              		.size	messagebus_topic_wait, .-messagebus_topic_wait
 450              		.section	.text.messagebus_watchgroup_init,"ax",%progbits
 451              		.align	1
 452              		.global	messagebus_watchgroup_init
 453              		.syntax unified
 454              		.thumb
 455              		.thumb_func
 456              		.fpu fpv4-sp-d16
ARM GAS  /var/folders/d2/nstgp4h54kz7g1l847x_b8wc0000gn/T//ccaXUuon.s 			page 9


 457              		.type	messagebus_watchgroup_init, %function
 458              	messagebus_watchgroup_init:
 459              		@ args = 0, pretend = 0, frame = 16
 460              		@ frame_needed = 1, uses_anonymous_args = 0
 461              		@ link register save eliminated.
 462 0000 80B4     		push	{r7}
 463 0002 85B0     		sub	sp, sp, #20
 464 0004 00AF     		add	r7, sp, #0
 465 0006 F860     		str	r0, [r7, #12]
 466 0008 B960     		str	r1, [r7, #8]
 467 000a 7A60     		str	r2, [r7, #4]
 468 000c FB68     		ldr	r3, [r7, #12]
 469 000e BA68     		ldr	r2, [r7, #8]
 470 0010 1A60     		str	r2, [r3]
 471 0012 FB68     		ldr	r3, [r7, #12]
 472 0014 7A68     		ldr	r2, [r7, #4]
 473 0016 5A60     		str	r2, [r3, #4]
 474 0018 00BF     		nop
 475 001a 1437     		adds	r7, r7, #20
 476 001c BD46     		mov	sp, r7
 477              		@ sp needed
 478 001e 5DF8047B 		ldr	r7, [sp], #4
 479 0022 7047     		bx	lr
 480              		.size	messagebus_watchgroup_init, .-messagebus_watchgroup_init
 481              		.section	.text.messagebus_watchgroup_watch,"ax",%progbits
 482              		.align	1
 483              		.global	messagebus_watchgroup_watch
 484              		.syntax unified
 485              		.thumb
 486              		.thumb_func
 487              		.fpu fpv4-sp-d16
 488              		.type	messagebus_watchgroup_watch, %function
 489              	messagebus_watchgroup_watch:
 490              		@ args = 0, pretend = 0, frame = 16
 491              		@ frame_needed = 1, uses_anonymous_args = 0
 492 0000 80B5     		push	{r7, lr}
 493 0002 84B0     		sub	sp, sp, #16
 494 0004 00AF     		add	r7, sp, #0
 495 0006 F860     		str	r0, [r7, #12]
 496 0008 B960     		str	r1, [r7, #8]
 497 000a 7A60     		str	r2, [r7, #4]
 498 000c 7B68     		ldr	r3, [r7, #4]
 499 000e 9B68     		ldr	r3, [r3, #8]
 500 0010 1846     		mov	r0, r3
 501 0012 FFF7FEFF 		bl	messagebus_lock_acquire
 502 0016 BB68     		ldr	r3, [r7, #8]
 503 0018 1B68     		ldr	r3, [r3]
 504 001a 1846     		mov	r0, r3
 505 001c FFF7FEFF 		bl	messagebus_lock_acquire
 506 0020 FB68     		ldr	r3, [r7, #12]
 507 0022 BA68     		ldr	r2, [r7, #8]
 508 0024 1A60     		str	r2, [r3]
 509 0026 7B68     		ldr	r3, [r7, #4]
 510 0028 5B6D     		ldr	r3, [r3, #84]
 511 002a 002B     		cmp	r3, #0
 512 002c 03D0     		beq	.L27
 513 002e 7B68     		ldr	r3, [r7, #4]
ARM GAS  /var/folders/d2/nstgp4h54kz7g1l847x_b8wc0000gn/T//ccaXUuon.s 			page 10


 514 0030 5A6D     		ldr	r2, [r3, #84]
 515 0032 FB68     		ldr	r3, [r7, #12]
 516 0034 5A60     		str	r2, [r3, #4]
 517              	.L27:
 518 0036 7B68     		ldr	r3, [r7, #4]
 519 0038 FA68     		ldr	r2, [r7, #12]
 520 003a 5A65     		str	r2, [r3, #84]
 521 003c BB68     		ldr	r3, [r7, #8]
 522 003e 1B68     		ldr	r3, [r3]
 523 0040 1846     		mov	r0, r3
 524 0042 FFF7FEFF 		bl	messagebus_lock_release
 525 0046 7B68     		ldr	r3, [r7, #4]
 526 0048 9B68     		ldr	r3, [r3, #8]
 527 004a 1846     		mov	r0, r3
 528 004c FFF7FEFF 		bl	messagebus_lock_release
 529 0050 00BF     		nop
 530 0052 1037     		adds	r7, r7, #16
 531 0054 BD46     		mov	sp, r7
 532              		@ sp needed
 533 0056 80BD     		pop	{r7, pc}
 534              		.size	messagebus_watchgroup_watch, .-messagebus_watchgroup_watch
 535              		.section	.text.messagebus_watchgroup_wait,"ax",%progbits
 536              		.align	1
 537              		.global	messagebus_watchgroup_wait
 538              		.syntax unified
 539              		.thumb
 540              		.thumb_func
 541              		.fpu fpv4-sp-d16
 542              		.type	messagebus_watchgroup_wait, %function
 543              	messagebus_watchgroup_wait:
 544              		@ args = 0, pretend = 0, frame = 16
 545              		@ frame_needed = 1, uses_anonymous_args = 0
 546 0000 80B5     		push	{r7, lr}
 547 0002 84B0     		sub	sp, sp, #16
 548 0004 00AF     		add	r7, sp, #0
 549 0006 7860     		str	r0, [r7, #4]
 550 0008 7B68     		ldr	r3, [r7, #4]
 551 000a 1B68     		ldr	r3, [r3]
 552 000c 1846     		mov	r0, r3
 553 000e FFF7FEFF 		bl	messagebus_lock_acquire
 554 0012 7B68     		ldr	r3, [r7, #4]
 555 0014 5B68     		ldr	r3, [r3, #4]
 556 0016 1846     		mov	r0, r3
 557 0018 FFF7FEFF 		bl	messagebus_condvar_wait
 558 001c 7B68     		ldr	r3, [r7, #4]
 559 001e 9B68     		ldr	r3, [r3, #8]
 560 0020 FB60     		str	r3, [r7, #12]
 561 0022 7B68     		ldr	r3, [r7, #4]
 562 0024 1B68     		ldr	r3, [r3]
 563 0026 1846     		mov	r0, r3
 564 0028 FFF7FEFF 		bl	messagebus_lock_release
 565 002c FB68     		ldr	r3, [r7, #12]
 566 002e 1846     		mov	r0, r3
 567 0030 1037     		adds	r7, r7, #16
 568 0032 BD46     		mov	sp, r7
 569              		@ sp needed
 570 0034 80BD     		pop	{r7, pc}
ARM GAS  /var/folders/d2/nstgp4h54kz7g1l847x_b8wc0000gn/T//ccaXUuon.s 			page 11


 571              		.size	messagebus_watchgroup_wait, .-messagebus_watchgroup_wait
 572              		.ident	"GCC: (GNU Tools for Arm Embedded Processors 7-2017-q4-major) 7.2.1 20170904 (release) [ARM
ARM GAS  /var/folders/d2/nstgp4h54kz7g1l847x_b8wc0000gn/T//ccaXUuon.s 			page 12


DEFINED SYMBOLS
                            *ABS*:0000000000000000 messagebus.c
/var/folders/d2/nstgp4h54kz7g1l847x_b8wc0000gn/T//ccaXUuon.s:15     .text.topic_by_name:0000000000000000 $t
/var/folders/d2/nstgp4h54kz7g1l847x_b8wc0000gn/T//ccaXUuon.s:21     .text.topic_by_name:0000000000000000 topic_by_name
/var/folders/d2/nstgp4h54kz7g1l847x_b8wc0000gn/T//ccaXUuon.s:61     .text.messagebus_init:0000000000000000 $t
/var/folders/d2/nstgp4h54kz7g1l847x_b8wc0000gn/T//ccaXUuon.s:68     .text.messagebus_init:0000000000000000 messagebus_init
/var/folders/d2/nstgp4h54kz7g1l847x_b8wc0000gn/T//ccaXUuon.s:94     .text.messagebus_topic_init:0000000000000000 $t
/var/folders/d2/nstgp4h54kz7g1l847x_b8wc0000gn/T//ccaXUuon.s:101    .text.messagebus_topic_init:0000000000000000 messagebus_topic_init
/var/folders/d2/nstgp4h54kz7g1l847x_b8wc0000gn/T//ccaXUuon.s:134    .text.messagebus_advertise_topic:0000000000000000 $t
/var/folders/d2/nstgp4h54kz7g1l847x_b8wc0000gn/T//ccaXUuon.s:141    .text.messagebus_advertise_topic:0000000000000000 messagebus_advertise_topic
/var/folders/d2/nstgp4h54kz7g1l847x_b8wc0000gn/T//ccaXUuon.s:193    .text.messagebus_find_topic:0000000000000000 $t
/var/folders/d2/nstgp4h54kz7g1l847x_b8wc0000gn/T//ccaXUuon.s:200    .text.messagebus_find_topic:0000000000000000 messagebus_find_topic
/var/folders/d2/nstgp4h54kz7g1l847x_b8wc0000gn/T//ccaXUuon.s:228    .text.messagebus_find_topic_blocking:0000000000000000 $t
/var/folders/d2/nstgp4h54kz7g1l847x_b8wc0000gn/T//ccaXUuon.s:235    .text.messagebus_find_topic_blocking:0000000000000000 messagebus_find_topic_blocking
/var/folders/d2/nstgp4h54kz7g1l847x_b8wc0000gn/T//ccaXUuon.s:278    .text.messagebus_topic_publish:0000000000000000 $t
/var/folders/d2/nstgp4h54kz7g1l847x_b8wc0000gn/T//ccaXUuon.s:285    .text.messagebus_topic_publish:0000000000000000 messagebus_topic_publish
/var/folders/d2/nstgp4h54kz7g1l847x_b8wc0000gn/T//ccaXUuon.s:363    .text.messagebus_topic_read:0000000000000000 $t
/var/folders/d2/nstgp4h54kz7g1l847x_b8wc0000gn/T//ccaXUuon.s:370    .text.messagebus_topic_read:0000000000000000 messagebus_topic_read
/var/folders/d2/nstgp4h54kz7g1l847x_b8wc0000gn/T//ccaXUuon.s:410    .text.messagebus_topic_wait:0000000000000000 $t
/var/folders/d2/nstgp4h54kz7g1l847x_b8wc0000gn/T//ccaXUuon.s:417    .text.messagebus_topic_wait:0000000000000000 messagebus_topic_wait
/var/folders/d2/nstgp4h54kz7g1l847x_b8wc0000gn/T//ccaXUuon.s:451    .text.messagebus_watchgroup_init:0000000000000000 $t
/var/folders/d2/nstgp4h54kz7g1l847x_b8wc0000gn/T//ccaXUuon.s:458    .text.messagebus_watchgroup_init:0000000000000000 messagebus_watchgroup_init
/var/folders/d2/nstgp4h54kz7g1l847x_b8wc0000gn/T//ccaXUuon.s:482    .text.messagebus_watchgroup_watch:0000000000000000 $t
/var/folders/d2/nstgp4h54kz7g1l847x_b8wc0000gn/T//ccaXUuon.s:489    .text.messagebus_watchgroup_watch:0000000000000000 messagebus_watchgroup_watch
/var/folders/d2/nstgp4h54kz7g1l847x_b8wc0000gn/T//ccaXUuon.s:536    .text.messagebus_watchgroup_wait:0000000000000000 $t
/var/folders/d2/nstgp4h54kz7g1l847x_b8wc0000gn/T//ccaXUuon.s:543    .text.messagebus_watchgroup_wait:0000000000000000 messagebus_watchgroup_wait

UNDEFINED SYMBOLS
strcmp
memset
strncpy
messagebus_lock_acquire
messagebus_condvar_broadcast
messagebus_lock_release
messagebus_condvar_wait
memcpy
