ARM GAS  /var/folders/d2/nstgp4h54kz7g1l847x_b8wc0000gn/T//ccaKPViU.s 			page 1


   1              		.cpu cortex-m4
   2              		.eabi_attribute 27, 1
   3              		.eabi_attribute 28, 1
   4              		.eabi_attribute 20, 1
   5              		.eabi_attribute 21, 1
   6              		.eabi_attribute 23, 3
   7              		.eabi_attribute 24, 1
   8              		.eabi_attribute 25, 1
   9              		.eabi_attribute 26, 1
  10              		.eabi_attribute 30, 2
  11              		.eabi_attribute 34, 1
  12              		.eabi_attribute 18, 4
  13              		.file	"messagebus.c"
  14              		.text
  15              	.Ltext0:
  16              		.cfi_sections	.debug_frame
  17              		.section	.text.messagebus_init,"ax",%progbits
  18              		.align	1
  19              		.p2align 4,,15
  20              		.global	messagebus_init
  21              		.syntax unified
  22              		.thumb
  23              		.thumb_func
  24              		.fpu fpv4-sp-d16
  25              		.type	messagebus_init, %function
  26              	messagebus_init:
  27              	.LFB1:
  28              		.file 1 "../e-puck2_main-processor/src/msgbus/messagebus.c"
  29              		.loc 1 17 0
  30              		.cfi_startproc
  31              		@ args = 0, pretend = 0, frame = 8
  32              		@ frame_needed = 0, uses_anonymous_args = 0
  33              	.LVL0:
  34 0000 10B5     		push	{r4, lr}
  35              		.cfi_def_cfa_offset 8
  36              		.cfi_offset 4, -8
  37              		.cfi_offset 14, -4
  38 0002 084B     		ldr	r3, .L6
  39 0004 82B0     		sub	sp, sp, #8
  40              		.cfi_def_cfa_offset 16
  41              		.loc 1 17 0
  42 0006 1C68     		ldr	r4, [r3]
  43 0008 0194     		str	r4, [sp, #4]
  44              		.loc 1 18 0
  45 000a 0024     		movs	r4, #0
  46 000c 0460     		str	r4, [r0]	@ unaligned
  47              		.loc 1 21 0
  48 000e 019C     		ldr	r4, [sp, #4]
  49 0010 1B68     		ldr	r3, [r3]
  50 0012 9C42     		cmp	r4, r3
  51              		.loc 1 20 0
  52 0014 C0E90112 		strd	r1, r2, [r0, #4]
  53              		.loc 1 21 0
  54 0018 01D1     		bne	.L5
  55 001a 02B0     		add	sp, sp, #8
  56              		.cfi_remember_state
  57              		.cfi_def_cfa_offset 8
ARM GAS  /var/folders/d2/nstgp4h54kz7g1l847x_b8wc0000gn/T//ccaKPViU.s 			page 2


  58              		@ sp needed
  59 001c 10BD     		pop	{r4, pc}
  60              	.L5:
  61              		.cfi_restore_state
  62 001e FFF7FEFF 		bl	__stack_chk_fail
  63              	.LVL1:
  64              	.L7:
  65 0022 00BF     		.align	2
  66              	.L6:
  67 0024 00000000 		.word	__stack_chk_guard
  68              		.cfi_endproc
  69              	.LFE1:
  70              		.size	messagebus_init, .-messagebus_init
  71              		.section	.text.messagebus_topic_init,"ax",%progbits
  72              		.align	1
  73              		.p2align 4,,15
  74              		.global	messagebus_topic_init
  75              		.syntax unified
  76              		.thumb
  77              		.thumb_func
  78              		.fpu fpv4-sp-d16
  79              		.type	messagebus_topic_init, %function
  80              	messagebus_topic_init:
  81              	.LFB2:
  82              		.loc 1 25 0
  83              		.cfi_startproc
  84              		@ args = 4, pretend = 0, frame = 8
  85              		@ frame_needed = 0, uses_anonymous_args = 0
  86              	.LVL2:
  87 0000 2DE9F043 		push	{r4, r5, r6, r7, r8, r9, lr}
  88              		.cfi_def_cfa_offset 28
  89              		.cfi_offset 4, -28
  90              		.cfi_offset 5, -24
  91              		.cfi_offset 6, -20
  92              		.cfi_offset 7, -16
  93              		.cfi_offset 8, -12
  94              		.cfi_offset 9, -8
  95              		.cfi_offset 14, -4
  96 0004 0E4D     		ldr	r5, .L12
  97 0006 83B0     		sub	sp, sp, #12
  98              		.cfi_def_cfa_offset 40
  99              		.loc 1 25 0
 100 0008 2C68     		ldr	r4, [r5]
 101 000a 0194     		str	r4, [sp, #4]
 102 000c 0446     		mov	r4, r0
 103 000e 9946     		mov	r9, r3
 104 0010 0F46     		mov	r7, r1
 105 0012 1646     		mov	r6, r2
 106              		.loc 1 26 0
 107 0014 1030     		adds	r0, r0, #16
 108              	.LVL3:
 109 0016 4C22     		movs	r2, #76
 110              	.LVL4:
 111 0018 0021     		movs	r1, #0
 112              	.LVL5:
 113              		.loc 1 25 0
 114 001a DDF82880 		ldr	r8, [sp, #40]
ARM GAS  /var/folders/d2/nstgp4h54kz7g1l847x_b8wc0000gn/T//ccaKPViU.s 			page 3


 115              		.loc 1 26 0
 116 001e FFF7FEFF 		bl	memset
 117              	.LVL6:
 118              		.loc 1 27 0
 119 0022 C4F80090 		str	r9, [r4]
 120              		.loc 1 31 0
 121 0026 019A     		ldr	r2, [sp, #4]
 122 0028 2B68     		ldr	r3, [r5]
 123              		.loc 1 30 0
 124 002a E660     		str	r6, [r4, #12]
 125              		.loc 1 31 0
 126 002c 9A42     		cmp	r2, r3
 127              		.loc 1 29 0
 128 002e C4E90187 		strd	r8, r7, [r4, #4]
 129              		.loc 1 31 0
 130 0032 02D1     		bne	.L11
 131 0034 03B0     		add	sp, sp, #12
 132              		.cfi_remember_state
 133              		.cfi_def_cfa_offset 28
 134              		@ sp needed
 135 0036 BDE8F083 		pop	{r4, r5, r6, r7, r8, r9, pc}
 136              	.LVL7:
 137              	.L11:
 138              		.cfi_restore_state
 139 003a FFF7FEFF 		bl	__stack_chk_fail
 140              	.LVL8:
 141              	.L13:
 142 003e 00BF     		.align	2
 143              	.L12:
 144 0040 00000000 		.word	__stack_chk_guard
 145              		.cfi_endproc
 146              	.LFE2:
 147              		.size	messagebus_topic_init, .-messagebus_topic_init
 148              		.section	.text.messagebus_advertise_topic,"ax",%progbits
 149              		.align	1
 150              		.p2align 4,,15
 151              		.global	messagebus_advertise_topic
 152              		.syntax unified
 153              		.thumb
 154              		.thumb_func
 155              		.fpu fpv4-sp-d16
 156              		.type	messagebus_advertise_topic, %function
 157              	messagebus_advertise_topic:
 158              	.LFB3:
 159              		.loc 1 34 0
 160              		.cfi_startproc
 161              		@ args = 0, pretend = 0, frame = 8
 162              		@ frame_needed = 0, uses_anonymous_args = 0
 163              	.LVL9:
 164 0000 F0B5     		push	{r4, r5, r6, r7, lr}
 165              		.cfi_def_cfa_offset 20
 166              		.cfi_offset 4, -20
 167              		.cfi_offset 5, -16
 168              		.cfi_offset 6, -12
 169              		.cfi_offset 7, -8
 170              		.cfi_offset 14, -4
 171 0002 144E     		ldr	r6, .L23
ARM GAS  /var/folders/d2/nstgp4h54kz7g1l847x_b8wc0000gn/T//ccaKPViU.s 			page 4


 172 0004 83B0     		sub	sp, sp, #12
 173              		.cfi_def_cfa_offset 32
 174              		.loc 1 35 0
 175 0006 01F11003 		add	r3, r1, #16
 176              		.loc 1 34 0
 177 000a 1746     		mov	r7, r2
 178 000c 3268     		ldr	r2, [r6]
 179              	.LVL10:
 180 000e 0192     		str	r2, [sp, #4]
 181 0010 0446     		mov	r4, r0
 182              		.loc 1 35 0
 183 0012 4122     		movs	r2, #65
 184 0014 1846     		mov	r0, r3
 185              	.LVL11:
 186              		.loc 1 34 0
 187 0016 0D46     		mov	r5, r1
 188              		.loc 1 35 0
 189 0018 0021     		movs	r1, #0
 190              	.LVL12:
 191 001a FFF7FEFF 		bl	memset
 192              	.LVL13:
 193              		.loc 1 36 0
 194 001e 3946     		mov	r1, r7
 195 0020 4022     		movs	r2, #64
 196 0022 FFF7FEFF 		bl	strncpy
 197              	.LVL14:
 198              		.loc 1 38 0
 199 0026 6068     		ldr	r0, [r4, #4]
 200 0028 FFF7FEFF 		bl	messagebus_lock_acquire
 201              	.LVL15:
 202              		.loc 1 40 0
 203 002c 2368     		ldr	r3, [r4]
 204 002e 03B1     		cbz	r3, .L15
 205              		.loc 1 41 0
 206 0030 AB65     		str	r3, [r5, #88]
 207              	.L15:
 208              		.loc 1 43 0
 209 0032 2560     		str	r5, [r4]
 210              		.loc 1 45 0
 211 0034 A068     		ldr	r0, [r4, #8]
 212 0036 FFF7FEFF 		bl	messagebus_condvar_broadcast
 213              	.LVL16:
 214              		.loc 1 47 0
 215 003a 019A     		ldr	r2, [sp, #4]
 216 003c 3368     		ldr	r3, [r6]
 217 003e 9A42     		cmp	r2, r3
 218 0040 05D1     		bne	.L22
 219 0042 6068     		ldr	r0, [r4, #4]
 220              		.loc 1 48 0
 221 0044 03B0     		add	sp, sp, #12
 222              		.cfi_remember_state
 223              		.cfi_def_cfa_offset 20
 224              		@ sp needed
 225 0046 BDE8F040 		pop	{r4, r5, r6, r7, lr}
 226              		.cfi_restore 14
 227              		.cfi_restore 7
 228              		.cfi_restore 6
ARM GAS  /var/folders/d2/nstgp4h54kz7g1l847x_b8wc0000gn/T//ccaKPViU.s 			page 5


 229              		.cfi_restore 5
 230              		.cfi_restore 4
 231              		.cfi_def_cfa_offset 0
 232              	.LVL17:
 233              		.loc 1 47 0
 234 004a FFF7FEBF 		b	messagebus_lock_release
 235              	.LVL18:
 236              	.L22:
 237              		.cfi_restore_state
 238 004e FFF7FEFF 		bl	__stack_chk_fail
 239              	.LVL19:
 240              	.L24:
 241 0052 00BF     		.align	2
 242              	.L23:
 243 0054 00000000 		.word	__stack_chk_guard
 244              		.cfi_endproc
 245              	.LFE3:
 246              		.size	messagebus_advertise_topic, .-messagebus_advertise_topic
 247              		.section	.text.messagebus_find_topic,"ax",%progbits
 248              		.align	1
 249              		.p2align 4,,15
 250              		.global	messagebus_find_topic
 251              		.syntax unified
 252              		.thumb
 253              		.thumb_func
 254              		.fpu fpv4-sp-d16
 255              		.type	messagebus_find_topic, %function
 256              	messagebus_find_topic:
 257              	.LFB4:
 258              		.loc 1 51 0
 259              		.cfi_startproc
 260              		@ args = 0, pretend = 0, frame = 8
 261              		@ frame_needed = 0, uses_anonymous_args = 0
 262              	.LVL20:
 263 0000 F0B5     		push	{r4, r5, r6, r7, lr}
 264              		.cfi_def_cfa_offset 20
 265              		.cfi_offset 4, -20
 266              		.cfi_offset 5, -16
 267              		.cfi_offset 6, -12
 268              		.cfi_offset 7, -8
 269              		.cfi_offset 14, -4
 270 0002 104F     		ldr	r7, .L39
 271 0004 83B0     		sub	sp, sp, #12
 272              		.cfi_def_cfa_offset 32
 273              		.loc 1 51 0
 274 0006 0646     		mov	r6, r0
 275 0008 3B68     		ldr	r3, [r7]
 276              		.loc 1 54 0
 277 000a 4068     		ldr	r0, [r0, #4]
 278              	.LVL21:
 279              		.loc 1 51 0
 280 000c 0193     		str	r3, [sp, #4]
 281 000e 0D46     		mov	r5, r1
 282              		.loc 1 54 0
 283 0010 FFF7FEFF 		bl	messagebus_lock_acquire
 284              	.LVL22:
 285 0014 3468     		ldr	r4, [r6]
ARM GAS  /var/folders/d2/nstgp4h54kz7g1l847x_b8wc0000gn/T//ccaKPViU.s 			page 6


 286              	.LVL23:
 287              	.LBB6:
 288              	.LBB7:
 289              		.loc 1 7 0
 290 0016 14B9     		cbnz	r4, .L27
 291 0018 08E0     		b	.L26
 292              	.L37:
 293 001a A46D     		ldr	r4, [r4, #88]
 294              	.LVL24:
 295 001c 34B1     		cbz	r4, .L26
 296              	.L27:
 297              		.loc 1 8 0
 298 001e 04F11001 		add	r1, r4, #16
 299 0022 2846     		mov	r0, r5
 300 0024 FFF7FEFF 		bl	strcmp
 301              	.LVL25:
 302 0028 0028     		cmp	r0, #0
 303 002a F6D1     		bne	.L37
 304              	.L26:
 305              	.LVL26:
 306              	.LBE7:
 307              	.LBE6:
 308              		.loc 1 58 0
 309 002c 7068     		ldr	r0, [r6, #4]
 310 002e FFF7FEFF 		bl	messagebus_lock_release
 311              	.LVL27:
 312              		.loc 1 61 0
 313 0032 019A     		ldr	r2, [sp, #4]
 314 0034 3B68     		ldr	r3, [r7]
 315 0036 9A42     		cmp	r2, r3
 316 0038 2046     		mov	r0, r4
 317 003a 01D1     		bne	.L38
 318 003c 03B0     		add	sp, sp, #12
 319              		.cfi_remember_state
 320              		.cfi_def_cfa_offset 20
 321              		@ sp needed
 322 003e F0BD     		pop	{r4, r5, r6, r7, pc}
 323              	.LVL28:
 324              	.L38:
 325              		.cfi_restore_state
 326 0040 FFF7FEFF 		bl	__stack_chk_fail
 327              	.LVL29:
 328              	.L40:
 329              		.align	2
 330              	.L39:
 331 0044 00000000 		.word	__stack_chk_guard
 332              		.cfi_endproc
 333              	.LFE4:
 334              		.size	messagebus_find_topic, .-messagebus_find_topic
 335              		.section	.text.messagebus_find_topic_blocking,"ax",%progbits
 336              		.align	1
 337              		.p2align 4,,15
 338              		.global	messagebus_find_topic_blocking
 339              		.syntax unified
 340              		.thumb
 341              		.thumb_func
 342              		.fpu fpv4-sp-d16
ARM GAS  /var/folders/d2/nstgp4h54kz7g1l847x_b8wc0000gn/T//ccaKPViU.s 			page 7


 343              		.type	messagebus_find_topic_blocking, %function
 344              	messagebus_find_topic_blocking:
 345              	.LFB5:
 346              		.loc 1 64 0
 347              		.cfi_startproc
 348              		@ args = 0, pretend = 0, frame = 8
 349              		@ frame_needed = 0, uses_anonymous_args = 0
 350              	.LVL30:
 351 0000 F0B5     		push	{r4, r5, r6, r7, lr}
 352              		.cfi_def_cfa_offset 20
 353              		.cfi_offset 4, -20
 354              		.cfi_offset 5, -16
 355              		.cfi_offset 6, -12
 356              		.cfi_offset 7, -8
 357              		.cfi_offset 14, -4
 358 0002 124F     		ldr	r7, .L52
 359 0004 83B0     		sub	sp, sp, #12
 360              		.cfi_def_cfa_offset 32
 361              		.loc 1 64 0
 362 0006 0646     		mov	r6, r0
 363 0008 3B68     		ldr	r3, [r7]
 364              		.loc 1 67 0
 365 000a 4068     		ldr	r0, [r0, #4]
 366              	.LVL31:
 367              		.loc 1 64 0
 368 000c 0193     		str	r3, [sp, #4]
 369              	.LVL32:
 370 000e 0D46     		mov	r5, r1
 371              		.loc 1 67 0
 372 0010 FFF7FEFF 		bl	messagebus_lock_acquire
 373              	.LVL33:
 374              	.L42:
 375 0014 3468     		ldr	r4, [r6]
 376              	.LVL34:
 377              	.LBB8:
 378              	.LBB9:
 379              		.loc 1 7 0
 380 0016 14B9     		cbnz	r4, .L44
 381 0018 12E0     		b	.L45
 382              	.LVL35:
 383              	.L50:
 384 001a A46D     		ldr	r4, [r4, #88]
 385              	.LVL36:
 386 001c 84B1     		cbz	r4, .L45
 387              	.LVL37:
 388              	.L44:
 389              		.loc 1 8 0
 390 001e 04F11001 		add	r1, r4, #16
 391 0022 2846     		mov	r0, r5
 392 0024 FFF7FEFF 		bl	strcmp
 393              	.LVL38:
 394 0028 0028     		cmp	r0, #0
 395 002a F6D1     		bne	.L50
 396              	.LVL39:
 397              	.LBE9:
 398              	.LBE8:
 399              		.loc 1 77 0
ARM GAS  /var/folders/d2/nstgp4h54kz7g1l847x_b8wc0000gn/T//ccaKPViU.s 			page 8


 400 002c 7068     		ldr	r0, [r6, #4]
 401 002e FFF7FEFF 		bl	messagebus_lock_release
 402              	.LVL40:
 403              		.loc 1 80 0
 404 0032 019A     		ldr	r2, [sp, #4]
 405 0034 3B68     		ldr	r3, [r7]
 406 0036 9A42     		cmp	r2, r3
 407 0038 2046     		mov	r0, r4
 408 003a 05D1     		bne	.L51
 409 003c 03B0     		add	sp, sp, #12
 410              		.cfi_remember_state
 411              		.cfi_def_cfa_offset 20
 412              		@ sp needed
 413 003e F0BD     		pop	{r4, r5, r6, r7, pc}
 414              	.LVL41:
 415              	.L45:
 416              		.cfi_restore_state
 417              		.loc 1 73 0
 418 0040 B068     		ldr	r0, [r6, #8]
 419 0042 FFF7FEFF 		bl	messagebus_condvar_wait
 420              	.LVL42:
 421 0046 E5E7     		b	.L42
 422              	.LVL43:
 423              	.L51:
 424              		.loc 1 80 0
 425 0048 FFF7FEFF 		bl	__stack_chk_fail
 426              	.LVL44:
 427              	.L53:
 428              		.align	2
 429              	.L52:
 430 004c 00000000 		.word	__stack_chk_guard
 431              		.cfi_endproc
 432              	.LFE5:
 433              		.size	messagebus_find_topic_blocking, .-messagebus_find_topic_blocking
 434              		.section	.text.messagebus_topic_publish,"ax",%progbits
 435              		.align	1
 436              		.p2align 4,,15
 437              		.global	messagebus_topic_publish
 438              		.syntax unified
 439              		.thumb
 440              		.thumb_func
 441              		.fpu fpv4-sp-d16
 442              		.type	messagebus_topic_publish, %function
 443              	messagebus_topic_publish:
 444              	.LFB6:
 445              		.loc 1 83 0
 446              		.cfi_startproc
 447              		@ args = 0, pretend = 0, frame = 8
 448              		@ frame_needed = 0, uses_anonymous_args = 0
 449              	.LVL45:
 450 0000 F0B5     		push	{r4, r5, r6, r7, lr}
 451              		.cfi_def_cfa_offset 20
 452              		.cfi_offset 4, -20
 453              		.cfi_offset 5, -16
 454              		.cfi_offset 6, -12
 455              		.cfi_offset 7, -8
 456              		.cfi_offset 14, -4
ARM GAS  /var/folders/d2/nstgp4h54kz7g1l847x_b8wc0000gn/T//ccaKPViU.s 			page 9


 457 0002 1C4E     		ldr	r6, .L67
 458              		.loc 1 84 0
 459 0004 4368     		ldr	r3, [r0, #4]
 460              		.loc 1 83 0
 461 0006 83B0     		sub	sp, sp, #12
 462              		.cfi_def_cfa_offset 32
 463              		.loc 1 83 0
 464 0008 0546     		mov	r5, r0
 465              		.loc 1 84 0
 466 000a 9342     		cmp	r3, r2
 467              		.loc 1 83 0
 468 000c 3068     		ldr	r0, [r6]
 469              	.LVL46:
 470 000e 0190     		str	r0, [sp, #4]
 471              		.loc 1 84 0
 472 0010 06D2     		bcs	.L65
 473              		.loc 1 85 0
 474 0012 0020     		movs	r0, #0
 475              	.LVL47:
 476              	.L55:
 477              		.loc 1 105 0
 478 0014 019A     		ldr	r2, [sp, #4]
 479 0016 3368     		ldr	r3, [r6]
 480 0018 9A42     		cmp	r2, r3
 481 001a 29D1     		bne	.L66
 482 001c 03B0     		add	sp, sp, #12
 483              		.cfi_remember_state
 484              		.cfi_def_cfa_offset 20
 485              		@ sp needed
 486 001e F0BD     		pop	{r4, r5, r6, r7, pc}
 487              	.LVL48:
 488              	.L65:
 489              		.cfi_restore_state
 490 0020 1446     		mov	r4, r2
 491 0022 0F46     		mov	r7, r1
 492              		.loc 1 88 0
 493 0024 A868     		ldr	r0, [r5, #8]
 494 0026 FFF7FEFF 		bl	messagebus_lock_acquire
 495              	.LVL49:
 496              		.loc 1 90 0
 497 002a 2246     		mov	r2, r4
 498 002c 3946     		mov	r1, r7
 499 002e 2868     		ldr	r0, [r5]
 500 0030 FFF7FEFF 		bl	memcpy
 501              	.LVL50:
 502              		.loc 1 91 0
 503 0034 0123     		movs	r3, #1
 504 0036 85F85130 		strb	r3, [r5, #81]
 505              		.loc 1 92 0
 506 003a E868     		ldr	r0, [r5, #12]
 507 003c FFF7FEFF 		bl	messagebus_condvar_broadcast
 508              	.LVL51:
 509              		.loc 1 95 0
 510 0040 6C6D     		ldr	r4, [r5, #84]
 511              	.LVL52:
 512 0042 84B1     		cbz	r4, .L56
 513              	.L57:
ARM GAS  /var/folders/d2/nstgp4h54kz7g1l847x_b8wc0000gn/T//ccaKPViU.s 			page 10


 514              		.loc 1 96 0 discriminator 3
 515 0044 2368     		ldr	r3, [r4]
 516 0046 1868     		ldr	r0, [r3]
 517 0048 FFF7FEFF 		bl	messagebus_lock_acquire
 518              	.LVL53:
 519              		.loc 1 97 0 discriminator 3
 520 004c 2368     		ldr	r3, [r4]
 521 004e 9D60     		str	r5, [r3, #8]
 522              		.loc 1 98 0 discriminator 3
 523 0050 2368     		ldr	r3, [r4]
 524 0052 5868     		ldr	r0, [r3, #4]
 525 0054 FFF7FEFF 		bl	messagebus_condvar_broadcast
 526              	.LVL54:
 527              		.loc 1 99 0 discriminator 3
 528 0058 2368     		ldr	r3, [r4]
 529 005a 1868     		ldr	r0, [r3]
 530 005c FFF7FEFF 		bl	messagebus_lock_release
 531              	.LVL55:
 532              		.loc 1 95 0 discriminator 3
 533 0060 6468     		ldr	r4, [r4, #4]
 534              	.LVL56:
 535 0062 002C     		cmp	r4, #0
 536 0064 EED1     		bne	.L57
 537              	.L56:
 538              		.loc 1 102 0
 539 0066 A868     		ldr	r0, [r5, #8]
 540 0068 FFF7FEFF 		bl	messagebus_lock_release
 541              	.LVL57:
 542              		.loc 1 104 0
 543 006c 0120     		movs	r0, #1
 544 006e D1E7     		b	.L55
 545              	.LVL58:
 546              	.L66:
 547              		.loc 1 105 0
 548 0070 FFF7FEFF 		bl	__stack_chk_fail
 549              	.LVL59:
 550              	.L68:
 551              		.align	2
 552              	.L67:
 553 0074 00000000 		.word	__stack_chk_guard
 554              		.cfi_endproc
 555              	.LFE6:
 556              		.size	messagebus_topic_publish, .-messagebus_topic_publish
 557              		.section	.text.messagebus_topic_read,"ax",%progbits
 558              		.align	1
 559              		.p2align 4,,15
 560              		.global	messagebus_topic_read
 561              		.syntax unified
 562              		.thumb
 563              		.thumb_func
 564              		.fpu fpv4-sp-d16
 565              		.type	messagebus_topic_read, %function
 566              	messagebus_topic_read:
 567              	.LFB7:
 568              		.loc 1 108 0
 569              		.cfi_startproc
 570              		@ args = 0, pretend = 0, frame = 8
ARM GAS  /var/folders/d2/nstgp4h54kz7g1l847x_b8wc0000gn/T//ccaKPViU.s 			page 11


 571              		@ frame_needed = 0, uses_anonymous_args = 0
 572              	.LVL60:
 573 0000 2DE9F041 		push	{r4, r5, r6, r7, r8, lr}
 574              		.cfi_def_cfa_offset 24
 575              		.cfi_offset 4, -24
 576              		.cfi_offset 5, -20
 577              		.cfi_offset 6, -16
 578              		.cfi_offset 7, -12
 579              		.cfi_offset 8, -8
 580              		.cfi_offset 14, -4
 581 0004 0F4D     		ldr	r5, .L77
 582 0006 82B0     		sub	sp, sp, #8
 583              		.cfi_def_cfa_offset 32
 584              		.loc 1 108 0
 585 0008 0446     		mov	r4, r0
 586 000a 2B68     		ldr	r3, [r5]
 587              		.loc 1 110 0
 588 000c 8068     		ldr	r0, [r0, #8]
 589              	.LVL61:
 590              		.loc 1 108 0
 591 000e 0193     		str	r3, [sp, #4]
 592              	.LVL62:
 593 0010 0F46     		mov	r7, r1
 594 0012 9046     		mov	r8, r2
 595              		.loc 1 110 0
 596 0014 FFF7FEFF 		bl	messagebus_lock_acquire
 597              	.LVL63:
 598              		.loc 1 112 0
 599 0018 94F85160 		ldrb	r6, [r4, #81]	@ zero_extendqisi2
 600 001c 26B1     		cbz	r6, .L70
 601              	.LVL64:
 602              		.loc 1 114 0
 603 001e 4246     		mov	r2, r8
 604 0020 3846     		mov	r0, r7
 605 0022 2168     		ldr	r1, [r4]
 606 0024 FFF7FEFF 		bl	memcpy
 607              	.LVL65:
 608              	.L70:
 609              		.loc 1 117 0
 610 0028 A068     		ldr	r0, [r4, #8]
 611 002a FFF7FEFF 		bl	messagebus_lock_release
 612              	.LVL66:
 613              		.loc 1 120 0
 614 002e 019A     		ldr	r2, [sp, #4]
 615 0030 2B68     		ldr	r3, [r5]
 616 0032 9A42     		cmp	r2, r3
 617 0034 3046     		mov	r0, r6
 618 0036 02D1     		bne	.L76
 619 0038 02B0     		add	sp, sp, #8
 620              		.cfi_remember_state
 621              		.cfi_def_cfa_offset 24
 622              		@ sp needed
 623 003a BDE8F081 		pop	{r4, r5, r6, r7, r8, pc}
 624              	.LVL67:
 625              	.L76:
 626              		.cfi_restore_state
 627 003e FFF7FEFF 		bl	__stack_chk_fail
ARM GAS  /var/folders/d2/nstgp4h54kz7g1l847x_b8wc0000gn/T//ccaKPViU.s 			page 12


 628              	.LVL68:
 629              	.L78:
 630 0042 00BF     		.align	2
 631              	.L77:
 632 0044 00000000 		.word	__stack_chk_guard
 633              		.cfi_endproc
 634              	.LFE7:
 635              		.size	messagebus_topic_read, .-messagebus_topic_read
 636              		.section	.text.messagebus_topic_wait,"ax",%progbits
 637              		.align	1
 638              		.p2align 4,,15
 639              		.global	messagebus_topic_wait
 640              		.syntax unified
 641              		.thumb
 642              		.thumb_func
 643              		.fpu fpv4-sp-d16
 644              		.type	messagebus_topic_wait, %function
 645              	messagebus_topic_wait:
 646              	.LFB8:
 647              		.loc 1 123 0
 648              		.cfi_startproc
 649              		@ args = 0, pretend = 0, frame = 8
 650              		@ frame_needed = 0, uses_anonymous_args = 0
 651              	.LVL69:
 652 0000 F0B5     		push	{r4, r5, r6, r7, lr}
 653              		.cfi_def_cfa_offset 20
 654              		.cfi_offset 4, -20
 655              		.cfi_offset 5, -16
 656              		.cfi_offset 6, -12
 657              		.cfi_offset 7, -8
 658              		.cfi_offset 14, -4
 659 0002 0F4D     		ldr	r5, .L84
 660 0004 83B0     		sub	sp, sp, #12
 661              		.cfi_def_cfa_offset 32
 662              		.loc 1 123 0
 663 0006 0446     		mov	r4, r0
 664 0008 2B68     		ldr	r3, [r5]
 665              		.loc 1 124 0
 666 000a 8068     		ldr	r0, [r0, #8]
 667              	.LVL70:
 668              		.loc 1 123 0
 669 000c 0193     		str	r3, [sp, #4]
 670 000e 0E46     		mov	r6, r1
 671 0010 1746     		mov	r7, r2
 672              		.loc 1 124 0
 673 0012 FFF7FEFF 		bl	messagebus_lock_acquire
 674              	.LVL71:
 675              		.loc 1 125 0
 676 0016 E068     		ldr	r0, [r4, #12]
 677 0018 FFF7FEFF 		bl	messagebus_condvar_wait
 678              	.LVL72:
 679              		.loc 1 127 0
 680 001c 3A46     		mov	r2, r7
 681 001e 3046     		mov	r0, r6
 682 0020 2168     		ldr	r1, [r4]
 683 0022 FFF7FEFF 		bl	memcpy
 684              	.LVL73:
ARM GAS  /var/folders/d2/nstgp4h54kz7g1l847x_b8wc0000gn/T//ccaKPViU.s 			page 13


 685              		.loc 1 129 0
 686 0026 019A     		ldr	r2, [sp, #4]
 687 0028 2B68     		ldr	r3, [r5]
 688 002a 9A42     		cmp	r2, r3
 689 002c 05D1     		bne	.L83
 690 002e A068     		ldr	r0, [r4, #8]
 691              		.loc 1 130 0
 692 0030 03B0     		add	sp, sp, #12
 693              		.cfi_remember_state
 694              		.cfi_def_cfa_offset 20
 695              		@ sp needed
 696 0032 BDE8F040 		pop	{r4, r5, r6, r7, lr}
 697              		.cfi_restore 14
 698              		.cfi_restore 7
 699              		.cfi_restore 6
 700              		.cfi_restore 5
 701              		.cfi_restore 4
 702              		.cfi_def_cfa_offset 0
 703              	.LVL74:
 704              		.loc 1 129 0
 705 0036 FFF7FEBF 		b	messagebus_lock_release
 706              	.LVL75:
 707              	.L83:
 708              		.cfi_restore_state
 709 003a FFF7FEFF 		bl	__stack_chk_fail
 710              	.LVL76:
 711              	.L85:
 712 003e 00BF     		.align	2
 713              	.L84:
 714 0040 00000000 		.word	__stack_chk_guard
 715              		.cfi_endproc
 716              	.LFE8:
 717              		.size	messagebus_topic_wait, .-messagebus_topic_wait
 718              		.section	.text.messagebus_watchgroup_init,"ax",%progbits
 719              		.align	1
 720              		.p2align 4,,15
 721              		.global	messagebus_watchgroup_init
 722              		.syntax unified
 723              		.thumb
 724              		.thumb_func
 725              		.fpu fpv4-sp-d16
 726              		.type	messagebus_watchgroup_init, %function
 727              	messagebus_watchgroup_init:
 728              	.LFB9:
 729              		.loc 1 134 0
 730              		.cfi_startproc
 731              		@ args = 0, pretend = 0, frame = 8
 732              		@ frame_needed = 0, uses_anonymous_args = 0
 733              	.LVL77:
 734 0000 10B5     		push	{r4, lr}
 735              		.cfi_def_cfa_offset 8
 736              		.cfi_offset 4, -8
 737              		.cfi_offset 14, -4
 738 0002 074B     		ldr	r3, .L90
 739              		.loc 1 136 0
 740 0004 4260     		str	r2, [r0, #4]
 741              		.loc 1 134 0
ARM GAS  /var/folders/d2/nstgp4h54kz7g1l847x_b8wc0000gn/T//ccaKPViU.s 			page 14


 742 0006 82B0     		sub	sp, sp, #8
 743              		.cfi_def_cfa_offset 16
 744              		.loc 1 134 0
 745 0008 1C68     		ldr	r4, [r3]
 746 000a 0194     		str	r4, [sp, #4]
 747              		.loc 1 135 0
 748 000c 0160     		str	r1, [r0]
 749              		.loc 1 137 0
 750 000e 0199     		ldr	r1, [sp, #4]
 751              	.LVL78:
 752 0010 1B68     		ldr	r3, [r3]
 753 0012 9942     		cmp	r1, r3
 754 0014 01D1     		bne	.L89
 755 0016 02B0     		add	sp, sp, #8
 756              		.cfi_remember_state
 757              		.cfi_def_cfa_offset 8
 758              		@ sp needed
 759 0018 10BD     		pop	{r4, pc}
 760              	.L89:
 761              		.cfi_restore_state
 762 001a FFF7FEFF 		bl	__stack_chk_fail
 763              	.LVL79:
 764              	.L91:
 765 001e 00BF     		.align	2
 766              	.L90:
 767 0020 00000000 		.word	__stack_chk_guard
 768              		.cfi_endproc
 769              	.LFE9:
 770              		.size	messagebus_watchgroup_init, .-messagebus_watchgroup_init
 771              		.section	.text.messagebus_watchgroup_watch,"ax",%progbits
 772              		.align	1
 773              		.p2align 4,,15
 774              		.global	messagebus_watchgroup_watch
 775              		.syntax unified
 776              		.thumb
 777              		.thumb_func
 778              		.fpu fpv4-sp-d16
 779              		.type	messagebus_watchgroup_watch, %function
 780              	messagebus_watchgroup_watch:
 781              	.LFB10:
 782              		.loc 1 142 0
 783              		.cfi_startproc
 784              		@ args = 0, pretend = 0, frame = 8
 785              		@ frame_needed = 0, uses_anonymous_args = 0
 786              	.LVL80:
 787 0000 F0B5     		push	{r4, r5, r6, r7, lr}
 788              		.cfi_def_cfa_offset 20
 789              		.cfi_offset 4, -20
 790              		.cfi_offset 5, -16
 791              		.cfi_offset 6, -12
 792              		.cfi_offset 7, -8
 793              		.cfi_offset 14, -4
 794 0002 104F     		ldr	r7, .L101
 795 0004 0D46     		mov	r5, r1
 796 0006 83B0     		sub	sp, sp, #12
 797              		.cfi_def_cfa_offset 32
 798              		.loc 1 142 0
ARM GAS  /var/folders/d2/nstgp4h54kz7g1l847x_b8wc0000gn/T//ccaKPViU.s 			page 15


 799 0008 3B68     		ldr	r3, [r7]
 800 000a 0193     		str	r3, [sp, #4]
 801 000c 0646     		mov	r6, r0
 802              		.loc 1 143 0
 803 000e 9068     		ldr	r0, [r2, #8]
 804              	.LVL81:
 805              		.loc 1 142 0
 806 0010 1446     		mov	r4, r2
 807              		.loc 1 143 0
 808 0012 FFF7FEFF 		bl	messagebus_lock_acquire
 809              	.LVL82:
 810              		.loc 1 144 0
 811 0016 2868     		ldr	r0, [r5]
 812 0018 FFF7FEFF 		bl	messagebus_lock_acquire
 813              	.LVL83:
 814              		.loc 1 146 0
 815 001c 3560     		str	r5, [r6]
 816              		.loc 1 148 0
 817 001e 636D     		ldr	r3, [r4, #84]
 818 0020 03B1     		cbz	r3, .L93
 819              		.loc 1 149 0
 820 0022 7360     		str	r3, [r6, #4]
 821              	.L93:
 822              		.loc 1 151 0
 823 0024 6665     		str	r6, [r4, #84]
 824              		.loc 1 153 0
 825 0026 2868     		ldr	r0, [r5]
 826 0028 FFF7FEFF 		bl	messagebus_lock_release
 827              	.LVL84:
 828              		.loc 1 154 0
 829 002c 019A     		ldr	r2, [sp, #4]
 830 002e 3B68     		ldr	r3, [r7]
 831 0030 9A42     		cmp	r2, r3
 832 0032 05D1     		bne	.L100
 833 0034 A068     		ldr	r0, [r4, #8]
 834              		.loc 1 155 0
 835 0036 03B0     		add	sp, sp, #12
 836              		.cfi_remember_state
 837              		.cfi_def_cfa_offset 20
 838              		@ sp needed
 839 0038 BDE8F040 		pop	{r4, r5, r6, r7, lr}
 840              		.cfi_restore 14
 841              		.cfi_restore 7
 842              		.cfi_restore 6
 843              		.cfi_restore 5
 844              		.cfi_restore 4
 845              		.cfi_def_cfa_offset 0
 846              	.LVL85:
 847              		.loc 1 154 0
 848 003c FFF7FEBF 		b	messagebus_lock_release
 849              	.LVL86:
 850              	.L100:
 851              		.cfi_restore_state
 852 0040 FFF7FEFF 		bl	__stack_chk_fail
 853              	.LVL87:
 854              	.L102:
 855              		.align	2
ARM GAS  /var/folders/d2/nstgp4h54kz7g1l847x_b8wc0000gn/T//ccaKPViU.s 			page 16


 856              	.L101:
 857 0044 00000000 		.word	__stack_chk_guard
 858              		.cfi_endproc
 859              	.LFE10:
 860              		.size	messagebus_watchgroup_watch, .-messagebus_watchgroup_watch
 861              		.section	.text.messagebus_watchgroup_wait,"ax",%progbits
 862              		.align	1
 863              		.p2align 4,,15
 864              		.global	messagebus_watchgroup_wait
 865              		.syntax unified
 866              		.thumb
 867              		.thumb_func
 868              		.fpu fpv4-sp-d16
 869              		.type	messagebus_watchgroup_wait, %function
 870              	messagebus_watchgroup_wait:
 871              	.LFB11:
 872              		.loc 1 158 0
 873              		.cfi_startproc
 874              		@ args = 0, pretend = 0, frame = 8
 875              		@ frame_needed = 0, uses_anonymous_args = 0
 876              	.LVL88:
 877 0000 70B5     		push	{r4, r5, r6, lr}
 878              		.cfi_def_cfa_offset 16
 879              		.cfi_offset 4, -16
 880              		.cfi_offset 5, -12
 881              		.cfi_offset 6, -8
 882              		.cfi_offset 14, -4
 883 0002 0C4D     		ldr	r5, .L107
 884 0004 82B0     		sub	sp, sp, #8
 885              		.cfi_def_cfa_offset 24
 886              		.loc 1 158 0
 887 0006 0446     		mov	r4, r0
 888 0008 2B68     		ldr	r3, [r5]
 889              		.loc 1 161 0
 890 000a 0068     		ldr	r0, [r0]
 891              	.LVL89:
 892              		.loc 1 158 0
 893 000c 0193     		str	r3, [sp, #4]
 894              		.loc 1 161 0
 895 000e FFF7FEFF 		bl	messagebus_lock_acquire
 896              	.LVL90:
 897              		.loc 1 162 0
 898 0012 6068     		ldr	r0, [r4, #4]
 899 0014 FFF7FEFF 		bl	messagebus_condvar_wait
 900              	.LVL91:
 901              		.loc 1 166 0
 902 0018 2068     		ldr	r0, [r4]
 903              		.loc 1 164 0
 904 001a A668     		ldr	r6, [r4, #8]
 905              	.LVL92:
 906              		.loc 1 166 0
 907 001c FFF7FEFF 		bl	messagebus_lock_release
 908              	.LVL93:
 909              		.loc 1 169 0
 910 0020 019A     		ldr	r2, [sp, #4]
 911 0022 2B68     		ldr	r3, [r5]
 912 0024 9A42     		cmp	r2, r3
ARM GAS  /var/folders/d2/nstgp4h54kz7g1l847x_b8wc0000gn/T//ccaKPViU.s 			page 17


 913 0026 02D1     		bne	.L106
 914 0028 3046     		mov	r0, r6
 915 002a 02B0     		add	sp, sp, #8
 916              		.cfi_remember_state
 917              		.cfi_def_cfa_offset 16
 918              		@ sp needed
 919 002c 70BD     		pop	{r4, r5, r6, pc}
 920              	.LVL94:
 921              	.L106:
 922              		.cfi_restore_state
 923 002e FFF7FEFF 		bl	__stack_chk_fail
 924              	.LVL95:
 925              	.L108:
 926 0032 00BF     		.align	2
 927              	.L107:
 928 0034 00000000 		.word	__stack_chk_guard
 929              		.cfi_endproc
 930              	.LFE11:
 931              		.size	messagebus_watchgroup_wait, .-messagebus_watchgroup_wait
 932              		.text
 933              	.Letext0:
 934              		.file 2 "/Applications/Eclipse_e-puck2.app/Contents/Eclipse_e-puck2/Tools/gcc-arm-none-eabi-7-2017
 935              		.file 3 "/Applications/Eclipse_e-puck2.app/Contents/Eclipse_e-puck2/Tools/gcc-arm-none-eabi-7-2017
 936              		.file 4 "/Applications/Eclipse_e-puck2.app/Contents/Eclipse_e-puck2/Tools/gcc-arm-none-eabi-7-2017
 937              		.file 5 "/Applications/Eclipse_e-puck2.app/Contents/Eclipse_e-puck2/Tools/gcc-arm-none-eabi-7-2017
 938              		.file 6 "../e-puck2_main-processor/src/msgbus/messagebus.h"
 939              		.file 7 "/Applications/Eclipse_e-puck2.app/Contents/Eclipse_e-puck2/Tools/gcc-arm-none-eabi-7-2017
 940              		.file 8 "/Applications/Eclipse_e-puck2.app/Contents/Eclipse_e-puck2/Tools/gcc-arm-none-eabi-7-2017
 941              		.file 9 "<built-in>"