ARM GAS  /var/folders/d2/nstgp4h54kz7g1l847x_b8wc0000gn/T//cc5NfEcX.s 			page 1


   1              		.cpu cortex-m4
   2              		.eabi_attribute 27, 1
   3              		.eabi_attribute 28, 1
   4              		.eabi_attribute 20, 1
   5              		.eabi_attribute 21, 1
   6              		.eabi_attribute 23, 3
   7              		.eabi_attribute 24, 1
   8              		.eabi_attribute 25, 1
   9              		.eabi_attribute 26, 1
  10              		.eabi_attribute 30, 6
  11              		.eabi_attribute 34, 1
  12              		.eabi_attribute 18, 4
  13              		.file	"microphone.c"
  14              		.section	.bss.mic_volume,"aw",%nobits
  15              		.align	2
  16              		.type	mic_volume, %object
  17              		.size	mic_volume, 8
  18              	mic_volume:
  19 0000 00000000 		.space	8
  19      00000000 
  20              		.section	.bss.mic_last,"aw",%nobits
  21              		.align	2
  22              		.type	mic_last, %object
  23              		.size	mic_last, 8
  24              	mic_last:
  25 0000 00000000 		.space	8
  25      00000000 
  26              		.section	.bss.mic_buffer_ready,"aw",%nobits
  27              		.type	mic_buffer_ready, %object
  28              		.size	mic_buffer_ready, 1
  29              	mic_buffer_ready:
  30 0000 00       		.space	1
  31              		.section	.text.mic_get_last,"ax",%progbits
  32              		.align	1
  33              		.global	mic_get_last
  34              		.syntax unified
  35              		.thumb
  36              		.thumb_func
  37              		.fpu fpv4-sp-d16
  38              		.type	mic_get_last, %function
  39              	mic_get_last:
  40              		@ args = 0, pretend = 0, frame = 8
  41              		@ frame_needed = 1, uses_anonymous_args = 0
  42              		@ link register save eliminated.
  43 0000 80B4     		push	{r7}
  44 0002 83B0     		sub	sp, sp, #12
  45 0004 00AF     		add	r7, sp, #0
  46 0006 0346     		mov	r3, r0
  47 0008 FB71     		strb	r3, [r7, #7]
  48 000a FB79     		ldrb	r3, [r7, #7]	@ zero_extendqisi2
  49 000c 032B     		cmp	r3, #3
  50 000e 04D8     		bhi	.L2
  51 0010 FB79     		ldrb	r3, [r7, #7]	@ zero_extendqisi2
  52 0012 054A     		ldr	r2, .L4
  53 0014 32F91330 		ldrsh	r3, [r2, r3, lsl #1]
  54 0018 00E0     		b	.L3
  55              	.L2:
ARM GAS  /var/folders/d2/nstgp4h54kz7g1l847x_b8wc0000gn/T//cc5NfEcX.s 			page 2


  56 001a 0023     		movs	r3, #0
  57              	.L3:
  58 001c 1846     		mov	r0, r3
  59 001e 0C37     		adds	r7, r7, #12
  60 0020 BD46     		mov	sp, r7
  61              		@ sp needed
  62 0022 5DF8047B 		ldr	r7, [sp], #4
  63 0026 7047     		bx	lr
  64              	.L5:
  65              		.align	2
  66              	.L4:
  67 0028 00000000 		.word	mic_last
  68              		.size	mic_get_last, .-mic_get_last
  69              		.section	.text.mic_get_volume,"ax",%progbits
  70              		.align	1
  71              		.global	mic_get_volume
  72              		.syntax unified
  73              		.thumb
  74              		.thumb_func
  75              		.fpu fpv4-sp-d16
  76              		.type	mic_get_volume, %function
  77              	mic_get_volume:
  78              		@ args = 0, pretend = 0, frame = 8
  79              		@ frame_needed = 1, uses_anonymous_args = 0
  80              		@ link register save eliminated.
  81 0000 80B4     		push	{r7}
  82 0002 83B0     		sub	sp, sp, #12
  83 0004 00AF     		add	r7, sp, #0
  84 0006 0346     		mov	r3, r0
  85 0008 FB71     		strb	r3, [r7, #7]
  86 000a FB79     		ldrb	r3, [r7, #7]	@ zero_extendqisi2
  87 000c 032B     		cmp	r3, #3
  88 000e 04D8     		bhi	.L7
  89 0010 FB79     		ldrb	r3, [r7, #7]	@ zero_extendqisi2
  90 0012 054A     		ldr	r2, .L9
  91 0014 32F81330 		ldrh	r3, [r2, r3, lsl #1]
  92 0018 00E0     		b	.L8
  93              	.L7:
  94 001a 0023     		movs	r3, #0
  95              	.L8:
  96 001c 1846     		mov	r0, r3
  97 001e 0C37     		adds	r7, r7, #12
  98 0020 BD46     		mov	sp, r7
  99              		@ sp needed
 100 0022 5DF8047B 		ldr	r7, [sp], #4
 101 0026 7047     		bx	lr
 102              	.L10:
 103              		.align	2
 104              	.L9:
 105 0028 00000000 		.word	mic_volume
 106              		.size	mic_get_volume, .-mic_get_volume
 107              		.section	.text.handlePCMdata,"ax",%progbits
 108              		.align	1
 109              		.syntax unified
 110              		.thumb
 111              		.thumb_func
 112              		.fpu fpv4-sp-d16
ARM GAS  /var/folders/d2/nstgp4h54kz7g1l847x_b8wc0000gn/T//cc5NfEcX.s 			page 3


 113              		.type	handlePCMdata, %function
 114              	handlePCMdata:
 115              		@ args = 0, pretend = 0, frame = 32
 116              		@ frame_needed = 1, uses_anonymous_args = 0
 117              		@ link register save eliminated.
 118 0000 80B4     		push	{r7}
 119 0002 89B0     		sub	sp, sp, #36
 120 0004 00AF     		add	r7, sp, #0
 121 0006 7860     		str	r0, [r7, #4]
 122 0008 0B46     		mov	r3, r1
 123 000a 7B80     		strh	r3, [r7, #2]	@ movhi
 124 000c 07F11403 		add	r3, r7, #20
 125 0010 0022     		movs	r2, #0
 126 0012 1A60     		str	r2, [r3]
 127 0014 5A60     		str	r2, [r3, #4]
 128 0016 4FF40043 		mov	r3, #32768
 129 001a BB82     		strh	r3, [r7, #20]	@ movhi
 130 001c 07F10C03 		add	r3, r7, #12
 131 0020 0022     		movs	r2, #0
 132 0022 1A60     		str	r2, [r3]
 133 0024 5A60     		str	r2, [r3, #4]
 134 0026 47F6FF73 		movw	r3, #32767
 135 002a BB81     		strh	r3, [r7, #12]	@ movhi
 136 002c 714B     		ldr	r3, .L23
 137 002e 0122     		movs	r2, #1
 138 0030 1A70     		strb	r2, [r3]
 139 0032 0023     		movs	r3, #0
 140 0034 FB83     		strh	r3, [r7, #30]	@ movhi
 141 0036 96E0     		b	.L12
 142              	.L21:
 143 0038 FB8B     		ldrh	r3, [r7, #30]
 144 003a 0133     		adds	r3, r3, #1
 145 003c 5B00     		lsls	r3, r3, #1
 146 003e 7A68     		ldr	r2, [r7, #4]
 147 0040 1344     		add	r3, r3, r2
 148 0042 B3F90020 		ldrsh	r2, [r3]
 149 0046 B7F91630 		ldrsh	r3, [r7, #22]
 150 004a 9A42     		cmp	r2, r3
 151 004c 07DD     		ble	.L13
 152 004e FB8B     		ldrh	r3, [r7, #30]
 153 0050 0133     		adds	r3, r3, #1
 154 0052 5B00     		lsls	r3, r3, #1
 155 0054 7A68     		ldr	r2, [r7, #4]
 156 0056 1344     		add	r3, r3, r2
 157 0058 B3F90030 		ldrsh	r3, [r3]
 158 005c FB82     		strh	r3, [r7, #22]	@ movhi
 159              	.L13:
 160 005e FB8B     		ldrh	r3, [r7, #30]
 161 0060 0133     		adds	r3, r3, #1
 162 0062 5B00     		lsls	r3, r3, #1
 163 0064 7A68     		ldr	r2, [r7, #4]
 164 0066 1344     		add	r3, r3, r2
 165 0068 B3F90020 		ldrsh	r2, [r3]
 166 006c B7F90E30 		ldrsh	r3, [r7, #14]
 167 0070 9A42     		cmp	r2, r3
 168 0072 07DA     		bge	.L14
 169 0074 FB8B     		ldrh	r3, [r7, #30]
ARM GAS  /var/folders/d2/nstgp4h54kz7g1l847x_b8wc0000gn/T//cc5NfEcX.s 			page 4


 170 0076 0133     		adds	r3, r3, #1
 171 0078 5B00     		lsls	r3, r3, #1
 172 007a 7A68     		ldr	r2, [r7, #4]
 173 007c 1344     		add	r3, r3, r2
 174 007e B3F90030 		ldrsh	r3, [r3]
 175 0082 FB81     		strh	r3, [r7, #14]	@ movhi
 176              	.L14:
 177 0084 FB8B     		ldrh	r3, [r7, #30]
 178 0086 5B00     		lsls	r3, r3, #1
 179 0088 7A68     		ldr	r2, [r7, #4]
 180 008a 1344     		add	r3, r3, r2
 181 008c B3F90020 		ldrsh	r2, [r3]
 182 0090 B7F91430 		ldrsh	r3, [r7, #20]
 183 0094 9A42     		cmp	r2, r3
 184 0096 06DD     		ble	.L15
 185 0098 FB8B     		ldrh	r3, [r7, #30]
 186 009a 5B00     		lsls	r3, r3, #1
 187 009c 7A68     		ldr	r2, [r7, #4]
 188 009e 1344     		add	r3, r3, r2
 189 00a0 B3F90030 		ldrsh	r3, [r3]
 190 00a4 BB82     		strh	r3, [r7, #20]	@ movhi
 191              	.L15:
 192 00a6 FB8B     		ldrh	r3, [r7, #30]
 193 00a8 5B00     		lsls	r3, r3, #1
 194 00aa 7A68     		ldr	r2, [r7, #4]
 195 00ac 1344     		add	r3, r3, r2
 196 00ae B3F90020 		ldrsh	r2, [r3]
 197 00b2 B7F90C30 		ldrsh	r3, [r7, #12]
 198 00b6 9A42     		cmp	r2, r3
 199 00b8 06DA     		bge	.L16
 200 00ba FB8B     		ldrh	r3, [r7, #30]
 201 00bc 5B00     		lsls	r3, r3, #1
 202 00be 7A68     		ldr	r2, [r7, #4]
 203 00c0 1344     		add	r3, r3, r2
 204 00c2 B3F90030 		ldrsh	r3, [r3]
 205 00c6 BB81     		strh	r3, [r7, #12]	@ movhi
 206              	.L16:
 207 00c8 FB8B     		ldrh	r3, [r7, #30]
 208 00ca 0333     		adds	r3, r3, #3
 209 00cc 5B00     		lsls	r3, r3, #1
 210 00ce 7A68     		ldr	r2, [r7, #4]
 211 00d0 1344     		add	r3, r3, r2
 212 00d2 B3F90020 		ldrsh	r2, [r3]
 213 00d6 B7F91A30 		ldrsh	r3, [r7, #26]
 214 00da 9A42     		cmp	r2, r3
 215 00dc 07DD     		ble	.L17
 216 00de FB8B     		ldrh	r3, [r7, #30]
 217 00e0 0333     		adds	r3, r3, #3
 218 00e2 5B00     		lsls	r3, r3, #1
 219 00e4 7A68     		ldr	r2, [r7, #4]
 220 00e6 1344     		add	r3, r3, r2
 221 00e8 B3F90030 		ldrsh	r3, [r3]
 222 00ec 7B83     		strh	r3, [r7, #26]	@ movhi
 223              	.L17:
 224 00ee FB8B     		ldrh	r3, [r7, #30]
 225 00f0 0333     		adds	r3, r3, #3
 226 00f2 5B00     		lsls	r3, r3, #1
ARM GAS  /var/folders/d2/nstgp4h54kz7g1l847x_b8wc0000gn/T//cc5NfEcX.s 			page 5


 227 00f4 7A68     		ldr	r2, [r7, #4]
 228 00f6 1344     		add	r3, r3, r2
 229 00f8 B3F90020 		ldrsh	r2, [r3]
 230 00fc B7F91230 		ldrsh	r3, [r7, #18]
 231 0100 9A42     		cmp	r2, r3
 232 0102 07DA     		bge	.L18
 233 0104 FB8B     		ldrh	r3, [r7, #30]
 234 0106 0333     		adds	r3, r3, #3
 235 0108 5B00     		lsls	r3, r3, #1
 236 010a 7A68     		ldr	r2, [r7, #4]
 237 010c 1344     		add	r3, r3, r2
 238 010e B3F90030 		ldrsh	r3, [r3]
 239 0112 7B82     		strh	r3, [r7, #18]	@ movhi
 240              	.L18:
 241 0114 FB8B     		ldrh	r3, [r7, #30]
 242 0116 0233     		adds	r3, r3, #2
 243 0118 5B00     		lsls	r3, r3, #1
 244 011a 7A68     		ldr	r2, [r7, #4]
 245 011c 1344     		add	r3, r3, r2
 246 011e B3F90020 		ldrsh	r2, [r3]
 247 0122 B7F91830 		ldrsh	r3, [r7, #24]
 248 0126 9A42     		cmp	r2, r3
 249 0128 07DD     		ble	.L19
 250 012a FB8B     		ldrh	r3, [r7, #30]
 251 012c 0233     		adds	r3, r3, #2
 252 012e 5B00     		lsls	r3, r3, #1
 253 0130 7A68     		ldr	r2, [r7, #4]
 254 0132 1344     		add	r3, r3, r2
 255 0134 B3F90030 		ldrsh	r3, [r3]
 256 0138 3B83     		strh	r3, [r7, #24]	@ movhi
 257              	.L19:
 258 013a FB8B     		ldrh	r3, [r7, #30]
 259 013c 0233     		adds	r3, r3, #2
 260 013e 5B00     		lsls	r3, r3, #1
 261 0140 7A68     		ldr	r2, [r7, #4]
 262 0142 1344     		add	r3, r3, r2
 263 0144 B3F90020 		ldrsh	r2, [r3]
 264 0148 B7F91030 		ldrsh	r3, [r7, #16]
 265 014c 9A42     		cmp	r2, r3
 266 014e 07DA     		bge	.L20
 267 0150 FB8B     		ldrh	r3, [r7, #30]
 268 0152 0233     		adds	r3, r3, #2
 269 0154 5B00     		lsls	r3, r3, #1
 270 0156 7A68     		ldr	r2, [r7, #4]
 271 0158 1344     		add	r3, r3, r2
 272 015a B3F90030 		ldrsh	r3, [r3]
 273 015e 3B82     		strh	r3, [r7, #16]	@ movhi
 274              	.L20:
 275 0160 FB8B     		ldrh	r3, [r7, #30]	@ movhi
 276 0162 0433     		adds	r3, r3, #4
 277 0164 FB83     		strh	r3, [r7, #30]	@ movhi
 278              	.L12:
 279 0166 FA8B     		ldrh	r2, [r7, #30]
 280 0168 7B88     		ldrh	r3, [r7, #2]
 281 016a 9A42     		cmp	r2, r3
 282 016c FFF464AF 		bcc	.L21
 283 0170 B7F91430 		ldrsh	r3, [r7, #20]
ARM GAS  /var/folders/d2/nstgp4h54kz7g1l847x_b8wc0000gn/T//cc5NfEcX.s 			page 6


 284 0174 9AB2     		uxth	r2, r3
 285 0176 B7F90C30 		ldrsh	r3, [r7, #12]
 286 017a 9BB2     		uxth	r3, r3
 287 017c D31A     		subs	r3, r2, r3
 288 017e 9AB2     		uxth	r2, r3
 289 0180 1D4B     		ldr	r3, .L23+4
 290 0182 1A80     		strh	r2, [r3]	@ movhi
 291 0184 B7F91630 		ldrsh	r3, [r7, #22]
 292 0188 9AB2     		uxth	r2, r3
 293 018a B7F90E30 		ldrsh	r3, [r7, #14]
 294 018e 9BB2     		uxth	r3, r3
 295 0190 D31A     		subs	r3, r2, r3
 296 0192 9AB2     		uxth	r2, r3
 297 0194 184B     		ldr	r3, .L23+4
 298 0196 5A80     		strh	r2, [r3, #2]	@ movhi
 299 0198 B7F91830 		ldrsh	r3, [r7, #24]
 300 019c 9AB2     		uxth	r2, r3
 301 019e B7F91030 		ldrsh	r3, [r7, #16]
 302 01a2 9BB2     		uxth	r3, r3
 303 01a4 D31A     		subs	r3, r2, r3
 304 01a6 9AB2     		uxth	r2, r3
 305 01a8 134B     		ldr	r3, .L23+4
 306 01aa 9A80     		strh	r2, [r3, #4]	@ movhi
 307 01ac B7F91A30 		ldrsh	r3, [r7, #26]
 308 01b0 9AB2     		uxth	r2, r3
 309 01b2 B7F91230 		ldrsh	r3, [r7, #18]
 310 01b6 9BB2     		uxth	r3, r3
 311 01b8 D31A     		subs	r3, r2, r3
 312 01ba 9AB2     		uxth	r2, r3
 313 01bc 0E4B     		ldr	r3, .L23+4
 314 01be DA80     		strh	r2, [r3, #6]	@ movhi
 315 01c0 7B68     		ldr	r3, [r7, #4]
 316 01c2 B3F9F824 		ldrsh	r2, [r3, #1272]
 317 01c6 0D4B     		ldr	r3, .L23+8
 318 01c8 1A80     		strh	r2, [r3]	@ movhi
 319 01ca 7B68     		ldr	r3, [r7, #4]
 320 01cc B3F9FA24 		ldrsh	r2, [r3, #1274]
 321 01d0 0A4B     		ldr	r3, .L23+8
 322 01d2 5A80     		strh	r2, [r3, #2]	@ movhi
 323 01d4 7B68     		ldr	r3, [r7, #4]
 324 01d6 B3F9FC24 		ldrsh	r2, [r3, #1276]
 325 01da 084B     		ldr	r3, .L23+8
 326 01dc 9A80     		strh	r2, [r3, #4]	@ movhi
 327 01de 7B68     		ldr	r3, [r7, #4]
 328 01e0 B3F9FE24 		ldrsh	r2, [r3, #1278]
 329 01e4 054B     		ldr	r3, .L23+8
 330 01e6 DA80     		strh	r2, [r3, #6]	@ movhi
 331 01e8 00BF     		nop
 332 01ea 2437     		adds	r7, r7, #36
 333 01ec BD46     		mov	sp, r7
 334              		@ sp needed
 335 01ee 5DF8047B 		ldr	r7, [sp], #4
 336 01f2 7047     		bx	lr
 337              	.L24:
 338              		.align	2
 339              	.L23:
 340 01f4 00000000 		.word	mic_buffer_ready
ARM GAS  /var/folders/d2/nstgp4h54kz7g1l847x_b8wc0000gn/T//cc5NfEcX.s 			page 7


 341 01f8 00000000 		.word	mic_volume
 342 01fc 00000000 		.word	mic_last
 343              		.size	handlePCMdata, .-handlePCMdata
 344              		.section	.text.mic_start,"ax",%progbits
 345              		.align	1
 346              		.global	mic_start
 347              		.syntax unified
 348              		.thumb
 349              		.thumb_func
 350              		.fpu fpv4-sp-d16
 351              		.type	mic_start, %function
 352              	mic_start:
 353              		@ args = 0, pretend = 0, frame = 16
 354              		@ frame_needed = 1, uses_anonymous_args = 0
 355 0000 80B5     		push	{r7, lr}
 356 0002 84B0     		sub	sp, sp, #16
 357 0004 00AF     		add	r7, sp, #0
 358 0006 7860     		str	r0, [r7, #4]
 359 0008 5D4B     		ldr	r3, .L31
 360 000a 1B78     		ldrb	r3, [r3]	@ zero_extendqisi2
 361 000c 012B     		cmp	r3, #1
 362 000e 40F0B280 		bne	.L30
 363 0012 5C4B     		ldr	r3, .L31+4
 364 0014 5B6C     		ldr	r3, [r3, #68]
 365 0016 5B4A     		ldr	r2, .L31+4
 366 0018 43F48033 		orr	r3, r3, #65536
 367 001c 5364     		str	r3, [r2, #68]
 368 001e 594B     		ldr	r3, .L31+4
 369 0020 5B6A     		ldr	r3, [r3, #36]
 370 0022 584A     		ldr	r2, .L31+4
 371 0024 43F48033 		orr	r3, r3, #65536
 372 0028 5362     		str	r3, [r2, #36]
 373 002a 564B     		ldr	r3, .L31+4
 374 002c 0022     		movs	r2, #0
 375 002e 5A62     		str	r2, [r3, #36]
 376 0030 554B     		ldr	r3, .L31+8
 377 0032 0022     		movs	r2, #0
 378 0034 1A61     		str	r2, [r3, #16]
 379 0036 544B     		ldr	r3, .L31+8
 380 0038 0022     		movs	r2, #0
 381 003a DA60     		str	r2, [r3, #12]
 382 003c 524B     		ldr	r3, .L31+8
 383 003e 1B6A     		ldr	r3, [r3, #32]
 384 0040 514A     		ldr	r2, .L31+8
 385 0042 23F00103 		bic	r3, r3, #1
 386 0046 1362     		str	r3, [r2, #32]
 387 0048 4F4B     		ldr	r3, .L31+8
 388 004a 9B69     		ldr	r3, [r3, #24]
 389 004c 4E4A     		ldr	r2, .L31+8
 390 004e 23F00303 		bic	r3, r3, #3
 391 0052 9361     		str	r3, [r2, #24]
 392 0054 4C4B     		ldr	r3, .L31+8
 393 0056 9B69     		ldr	r3, [r3, #24]
 394 0058 4B4A     		ldr	r2, .L31+8
 395 005a 43F00103 		orr	r3, r3, #1
 396 005e 9361     		str	r3, [r2, #24]
 397 0060 494B     		ldr	r3, .L31+8
ARM GAS  /var/folders/d2/nstgp4h54kz7g1l847x_b8wc0000gn/T//cc5NfEcX.s 			page 8


 398 0062 9B69     		ldr	r3, [r3, #24]
 399 0064 484A     		ldr	r2, .L31+8
 400 0066 23F0F003 		bic	r3, r3, #240
 401 006a 9361     		str	r3, [r2, #24]
 402 006c 464B     		ldr	r3, .L31+8
 403 006e 1B6A     		ldr	r3, [r3, #32]
 404 0070 454A     		ldr	r2, .L31+8
 405 0072 23F00A03 		bic	r3, r3, #10
 406 0076 1362     		str	r3, [r2, #32]
 407 0078 434B     		ldr	r3, .L31+8
 408 007a 9B69     		ldr	r3, [r3, #24]
 409 007c 424A     		ldr	r2, .L31+8
 410 007e 23F00C03 		bic	r3, r3, #12
 411 0082 9361     		str	r3, [r2, #24]
 412 0084 404B     		ldr	r3, .L31+8
 413 0086 9B68     		ldr	r3, [r3, #8]
 414 0088 3F4A     		ldr	r2, .L31+8
 415 008a 23F07003 		bic	r3, r3, #112
 416 008e 9360     		str	r3, [r2, #8]
 417 0090 3D4B     		ldr	r3, .L31+8
 418 0092 9B68     		ldr	r3, [r3, #8]
 419 0094 3C4A     		ldr	r2, .L31+8
 420 0096 43F05003 		orr	r3, r3, #80
 421 009a 9360     		str	r3, [r2, #8]
 422 009c 3A4B     		ldr	r3, .L31+8
 423 009e 9B68     		ldr	r3, [r3, #8]
 424 00a0 394A     		ldr	r2, .L31+8
 425 00a2 23F48033 		bic	r3, r3, #65536
 426 00a6 23F00703 		bic	r3, r3, #7
 427 00aa 9360     		str	r3, [r2, #8]
 428 00ac 364B     		ldr	r3, .L31+8
 429 00ae 9B68     		ldr	r3, [r3, #8]
 430 00b0 354A     		ldr	r2, .L31+8
 431 00b2 43F00703 		orr	r3, r3, #7
 432 00b6 9360     		str	r3, [r2, #8]
 433 00b8 334B     		ldr	r3, .L31+8
 434 00ba 1B68     		ldr	r3, [r3]
 435 00bc 324A     		ldr	r2, .L31+8
 436 00be 23F44073 		bic	r3, r3, #768
 437 00c2 1360     		str	r3, [r2]
 438 00c4 304B     		ldr	r3, .L31+8
 439 00c6 0122     		movs	r2, #1
 440 00c8 DA62     		str	r2, [r3, #44]
 441 00ca 2F4B     		ldr	r3, .L31+8
 442 00cc 0022     		movs	r2, #0
 443 00ce 9A62     		str	r2, [r3, #40]
 444 00d0 2D4B     		ldr	r3, .L31+8
 445 00d2 0122     		movs	r2, #1
 446 00d4 5A61     		str	r2, [r3, #20]
 447 00d6 2C4B     		ldr	r3, .L31+8
 448 00d8 1B6A     		ldr	r3, [r3, #32]
 449 00da 2B4A     		ldr	r2, .L31+8
 450 00dc 23F01003 		bic	r3, r3, #16
 451 00e0 1362     		str	r3, [r2, #32]
 452 00e2 294B     		ldr	r3, .L31+8
 453 00e4 9B69     		ldr	r3, [r3, #24]
 454 00e6 284A     		ldr	r2, .L31+8
ARM GAS  /var/folders/d2/nstgp4h54kz7g1l847x_b8wc0000gn/T//cc5NfEcX.s 			page 9


 455 00e8 23F44073 		bic	r3, r3, #768
 456 00ec 9361     		str	r3, [r2, #24]
 457 00ee 264B     		ldr	r3, .L31+8
 458 00f0 9B69     		ldr	r3, [r3, #24]
 459 00f2 254A     		ldr	r2, .L31+8
 460 00f4 23F08073 		bic	r3, r3, #16777216
 461 00f8 23F4E043 		bic	r3, r3, #28672
 462 00fc 9361     		str	r3, [r2, #24]
 463 00fe 224B     		ldr	r3, .L31+8
 464 0100 9B69     		ldr	r3, [r3, #24]
 465 0102 214A     		ldr	r2, .L31+8
 466 0104 43F4C043 		orr	r3, r3, #24576
 467 0108 9361     		str	r3, [r2, #24]
 468 010a 1F4B     		ldr	r3, .L31+8
 469 010c 1B6A     		ldr	r3, [r3, #32]
 470 010e 1E4A     		ldr	r2, .L31+8
 471 0110 23F0A003 		bic	r3, r3, #160
 472 0114 1362     		str	r3, [r2, #32]
 473 0116 1C4B     		ldr	r3, .L31+8
 474 0118 0122     		movs	r2, #1
 475 011a 9A63     		str	r2, [r3, #56]
 476 011c 1A4B     		ldr	r3, .L31+8
 477 011e 9B69     		ldr	r3, [r3, #24]
 478 0120 194A     		ldr	r2, .L31+8
 479 0122 43F40063 		orr	r3, r3, #2048
 480 0126 9361     		str	r3, [r2, #24]
 481 0128 174B     		ldr	r3, .L31+8
 482 012a 1B6A     		ldr	r3, [r3, #32]
 483 012c 164A     		ldr	r2, .L31+8
 484 012e 23F48063 		bic	r3, r3, #1024
 485 0132 1362     		str	r3, [r2, #32]
 486 0134 144B     		ldr	r3, .L31+8
 487 0136 1B6A     		ldr	r3, [r3, #32]
 488 0138 134A     		ldr	r2, .L31+8
 489 013a 43F01103 		orr	r3, r3, #17
 490 013e 1362     		str	r3, [r2, #32]
 491 0140 114B     		ldr	r3, .L31+8
 492 0142 1B68     		ldr	r3, [r3]
 493 0144 104A     		ldr	r2, .L31+8
 494 0146 43F00103 		orr	r3, r3, #1
 495 014a 1360     		str	r3, [r2]
 496 014c 07F10C03 		add	r3, r7, #12
 497 0150 0422     		movs	r2, #4
 498 0152 0021     		movs	r1, #0
 499 0154 1846     		mov	r0, r3
 500 0156 FFF7FEFF 		bl	memset
 501 015a 7B68     		ldr	r3, [r7, #4]
 502 015c 002B     		cmp	r3, #0
 503 015e 02D0     		beq	.L28
 504 0160 7B68     		ldr	r3, [r7, #4]
 505 0162 FB60     		str	r3, [r7, #12]
 506 0164 01E0     		b	.L29
 507              	.L28:
 508 0166 094B     		ldr	r3, .L31+12
 509 0168 FB60     		str	r3, [r7, #12]
 510              	.L29:
 511 016a 07F10C03 		add	r3, r7, #12
ARM GAS  /var/folders/d2/nstgp4h54kz7g1l847x_b8wc0000gn/T//cc5NfEcX.s 			page 10


 512 016e 1846     		mov	r0, r3
 513 0170 FFF7FEFF 		bl	mp45dt02Init
 514 0174 00E0     		b	.L25
 515              	.L30:
 516 0176 00BF     		nop
 517              	.L25:
 518 0178 1037     		adds	r7, r7, #16
 519 017a BD46     		mov	sp, r7
 520              		@ sp needed
 521 017c 80BD     		pop	{r7, pc}
 522              	.L32:
 523 017e 00BF     		.align	2
 524              	.L31:
 525 0180 00000000 		.word	I2SD2
 526 0184 00380240 		.word	1073887232
 527 0188 00400140 		.word	1073823744
 528 018c 00000000 		.word	handlePCMdata
 529              		.size	mic_start, .-mic_start
 530              		.section	.text.mic_get_buffer_ptr,"ax",%progbits
 531              		.align	1
 532              		.global	mic_get_buffer_ptr
 533              		.syntax unified
 534              		.thumb
 535              		.thumb_func
 536              		.fpu fpv4-sp-d16
 537              		.type	mic_get_buffer_ptr, %function
 538              	mic_get_buffer_ptr:
 539              		@ args = 0, pretend = 0, frame = 0
 540              		@ frame_needed = 1, uses_anonymous_args = 0
 541 0000 80B5     		push	{r7, lr}
 542 0002 00AF     		add	r7, sp, #0
 543 0004 FFF7FEFF 		bl	mp45dt02BufferPtr
 544 0008 0346     		mov	r3, r0
 545 000a 1846     		mov	r0, r3
 546 000c 80BD     		pop	{r7, pc}
 547              		.size	mic_get_buffer_ptr, .-mic_get_buffer_ptr
 548              		.section	.text.mic_buffer_is_ready,"ax",%progbits
 549              		.align	1
 550              		.global	mic_buffer_is_ready
 551              		.syntax unified
 552              		.thumb
 553              		.thumb_func
 554              		.fpu fpv4-sp-d16
 555              		.type	mic_buffer_is_ready, %function
 556              	mic_buffer_is_ready:
 557              		@ args = 0, pretend = 0, frame = 0
 558              		@ frame_needed = 1, uses_anonymous_args = 0
 559              		@ link register save eliminated.
 560 0000 80B4     		push	{r7}
 561 0002 00AF     		add	r7, sp, #0
 562 0004 034B     		ldr	r3, .L37
 563 0006 1B78     		ldrb	r3, [r3]	@ zero_extendqisi2
 564 0008 1846     		mov	r0, r3
 565 000a BD46     		mov	sp, r7
 566              		@ sp needed
 567 000c 5DF8047B 		ldr	r7, [sp], #4
 568 0010 7047     		bx	lr
ARM GAS  /var/folders/d2/nstgp4h54kz7g1l847x_b8wc0000gn/T//cc5NfEcX.s 			page 11


 569              	.L38:
 570 0012 00BF     		.align	2
 571              	.L37:
 572 0014 00000000 		.word	mic_buffer_ready
 573              		.size	mic_buffer_is_ready, .-mic_buffer_is_ready
 574              		.section	.text.mic_buffer_ready_reset,"ax",%progbits
 575              		.align	1
 576              		.global	mic_buffer_ready_reset
 577              		.syntax unified
 578              		.thumb
 579              		.thumb_func
 580              		.fpu fpv4-sp-d16
 581              		.type	mic_buffer_ready_reset, %function
 582              	mic_buffer_ready_reset:
 583              		@ args = 0, pretend = 0, frame = 0
 584              		@ frame_needed = 1, uses_anonymous_args = 0
 585              		@ link register save eliminated.
 586 0000 80B4     		push	{r7}
 587 0002 00AF     		add	r7, sp, #0
 588 0004 034B     		ldr	r3, .L40
 589 0006 0022     		movs	r2, #0
 590 0008 1A70     		strb	r2, [r3]
 591 000a 00BF     		nop
 592 000c BD46     		mov	sp, r7
 593              		@ sp needed
 594 000e 5DF8047B 		ldr	r7, [sp], #4
 595 0012 7047     		bx	lr
 596              	.L41:
 597              		.align	2
 598              	.L40:
 599 0014 00000000 		.word	mic_buffer_ready
 600              		.size	mic_buffer_ready_reset, .-mic_buffer_ready_reset
 601              		.section	.text.mic_buffer_get_size,"ax",%progbits
 602              		.align	1
 603              		.global	mic_buffer_get_size
 604              		.syntax unified
 605              		.thumb
 606              		.thumb_func
 607              		.fpu fpv4-sp-d16
 608              		.type	mic_buffer_get_size, %function
 609              	mic_buffer_get_size:
 610              		@ args = 0, pretend = 0, frame = 0
 611              		@ frame_needed = 1, uses_anonymous_args = 0
 612              		@ link register save eliminated.
 613 0000 80B4     		push	{r7}
 614 0002 00AF     		add	r7, sp, #0
 615 0004 4FF4A063 		mov	r3, #1280
 616 0008 1846     		mov	r0, r3
 617 000a BD46     		mov	sp, r7
 618              		@ sp needed
 619 000c 5DF8047B 		ldr	r7, [sp], #4
 620 0010 7047     		bx	lr
 621              		.size	mic_buffer_get_size, .-mic_buffer_get_size
 622              		.ident	"GCC: (GNU Tools for Arm Embedded Processors 7-2017-q4-major) 7.2.1 20170904 (release) [ARM
ARM GAS  /var/folders/d2/nstgp4h54kz7g1l847x_b8wc0000gn/T//cc5NfEcX.s 			page 12


DEFINED SYMBOLS
                            *ABS*:0000000000000000 microphone.c
/var/folders/d2/nstgp4h54kz7g1l847x_b8wc0000gn/T//cc5NfEcX.s:15     .bss.mic_volume:0000000000000000 $d
/var/folders/d2/nstgp4h54kz7g1l847x_b8wc0000gn/T//cc5NfEcX.s:18     .bss.mic_volume:0000000000000000 mic_volume
/var/folders/d2/nstgp4h54kz7g1l847x_b8wc0000gn/T//cc5NfEcX.s:21     .bss.mic_last:0000000000000000 $d
/var/folders/d2/nstgp4h54kz7g1l847x_b8wc0000gn/T//cc5NfEcX.s:24     .bss.mic_last:0000000000000000 mic_last
/var/folders/d2/nstgp4h54kz7g1l847x_b8wc0000gn/T//cc5NfEcX.s:29     .bss.mic_buffer_ready:0000000000000000 mic_buffer_ready
/var/folders/d2/nstgp4h54kz7g1l847x_b8wc0000gn/T//cc5NfEcX.s:30     .bss.mic_buffer_ready:0000000000000000 $d
/var/folders/d2/nstgp4h54kz7g1l847x_b8wc0000gn/T//cc5NfEcX.s:32     .text.mic_get_last:0000000000000000 $t
/var/folders/d2/nstgp4h54kz7g1l847x_b8wc0000gn/T//cc5NfEcX.s:39     .text.mic_get_last:0000000000000000 mic_get_last
/var/folders/d2/nstgp4h54kz7g1l847x_b8wc0000gn/T//cc5NfEcX.s:67     .text.mic_get_last:0000000000000028 $d
/var/folders/d2/nstgp4h54kz7g1l847x_b8wc0000gn/T//cc5NfEcX.s:70     .text.mic_get_volume:0000000000000000 $t
/var/folders/d2/nstgp4h54kz7g1l847x_b8wc0000gn/T//cc5NfEcX.s:77     .text.mic_get_volume:0000000000000000 mic_get_volume
/var/folders/d2/nstgp4h54kz7g1l847x_b8wc0000gn/T//cc5NfEcX.s:105    .text.mic_get_volume:0000000000000028 $d
/var/folders/d2/nstgp4h54kz7g1l847x_b8wc0000gn/T//cc5NfEcX.s:108    .text.handlePCMdata:0000000000000000 $t
/var/folders/d2/nstgp4h54kz7g1l847x_b8wc0000gn/T//cc5NfEcX.s:114    .text.handlePCMdata:0000000000000000 handlePCMdata
/var/folders/d2/nstgp4h54kz7g1l847x_b8wc0000gn/T//cc5NfEcX.s:340    .text.handlePCMdata:00000000000001f4 $d
/var/folders/d2/nstgp4h54kz7g1l847x_b8wc0000gn/T//cc5NfEcX.s:345    .text.mic_start:0000000000000000 $t
/var/folders/d2/nstgp4h54kz7g1l847x_b8wc0000gn/T//cc5NfEcX.s:352    .text.mic_start:0000000000000000 mic_start
/var/folders/d2/nstgp4h54kz7g1l847x_b8wc0000gn/T//cc5NfEcX.s:525    .text.mic_start:0000000000000180 $d
/var/folders/d2/nstgp4h54kz7g1l847x_b8wc0000gn/T//cc5NfEcX.s:531    .text.mic_get_buffer_ptr:0000000000000000 $t
/var/folders/d2/nstgp4h54kz7g1l847x_b8wc0000gn/T//cc5NfEcX.s:538    .text.mic_get_buffer_ptr:0000000000000000 mic_get_buffer_ptr
/var/folders/d2/nstgp4h54kz7g1l847x_b8wc0000gn/T//cc5NfEcX.s:549    .text.mic_buffer_is_ready:0000000000000000 $t
/var/folders/d2/nstgp4h54kz7g1l847x_b8wc0000gn/T//cc5NfEcX.s:556    .text.mic_buffer_is_ready:0000000000000000 mic_buffer_is_ready
/var/folders/d2/nstgp4h54kz7g1l847x_b8wc0000gn/T//cc5NfEcX.s:572    .text.mic_buffer_is_ready:0000000000000014 $d
/var/folders/d2/nstgp4h54kz7g1l847x_b8wc0000gn/T//cc5NfEcX.s:575    .text.mic_buffer_ready_reset:0000000000000000 $t
/var/folders/d2/nstgp4h54kz7g1l847x_b8wc0000gn/T//cc5NfEcX.s:582    .text.mic_buffer_ready_reset:0000000000000000 mic_buffer_ready_reset
/var/folders/d2/nstgp4h54kz7g1l847x_b8wc0000gn/T//cc5NfEcX.s:599    .text.mic_buffer_ready_reset:0000000000000014 $d
/var/folders/d2/nstgp4h54kz7g1l847x_b8wc0000gn/T//cc5NfEcX.s:602    .text.mic_buffer_get_size:0000000000000000 $t
/var/folders/d2/nstgp4h54kz7g1l847x_b8wc0000gn/T//cc5NfEcX.s:609    .text.mic_buffer_get_size:0000000000000000 mic_buffer_get_size

UNDEFINED SYMBOLS
memset
mp45dt02Init
I2SD2
mp45dt02BufferPtr
