ARM GAS  /var/folders/d2/nstgp4h54kz7g1l847x_b8wc0000gn/T//ccqW9IH1.s 			page 1


   1              		.cpu cortex-m4
   2              		.eabi_attribute 27, 1
   3              		.eabi_attribute 28, 1
   4              		.eabi_attribute 20, 1
   5              		.eabi_attribute 21, 1
   6              		.eabi_attribute 23, 3
   7              		.eabi_attribute 24, 1
   8              		.eabi_attribute 25, 1
   9              		.eabi_attribute 26, 1
  10              		.eabi_attribute 30, 2
  11              		.eabi_attribute 34, 1
  12              		.eabi_attribute 18, 4
  13              		.file	"microphone.c"
  14              		.text
  15              	.Ltext0:
  16              		.cfi_sections	.debug_frame
  17              		.section	.text.handlePCMdata,"ax",%progbits
  18              		.align	1
  19              		.p2align 4,,15
  20              		.syntax unified
  21              		.thumb
  22              		.thumb_func
  23              		.fpu fpv4-sp-d16
  24              		.type	handlePCMdata, %function
  25              	handlePCMdata:
  26              	.LFB258:
  27              		.file 1 "../e-puck2_main-processor/src/audio/microphone.c"
  28              		.loc 1 33 0
  29              		.cfi_startproc
  30              		@ args = 0, pretend = 0, frame = 8
  31              		@ frame_needed = 0, uses_anonymous_args = 0
  32              	.LVL0:
  33 0000 2DE9F04F 		push	{r4, r5, r6, r7, r8, r9, r10, fp, lr}
  34              		.cfi_def_cfa_offset 36
  35              		.cfi_offset 4, -36
  36              		.cfi_offset 5, -32
  37              		.cfi_offset 6, -28
  38              		.cfi_offset 7, -24
  39              		.cfi_offset 8, -20
  40              		.cfi_offset 9, -16
  41              		.cfi_offset 10, -12
  42              		.cfi_offset 11, -8
  43              		.cfi_offset 14, -4
  44 0004 394A     		ldr	r2, .L18
  45              		.loc 1 36 0
  46 0006 3A4B     		ldr	r3, .L18+4
  47              		.loc 1 33 0
  48 0008 1268     		ldr	r2, [r2]
  49 000a 83B0     		sub	sp, sp, #12
  50              		.cfi_def_cfa_offset 48
  51              		.loc 1 36 0
  52 000c 0124     		movs	r4, #1
  53              		.loc 1 33 0
  54 000e 0192     		str	r2, [sp, #4]
  55              	.LVL1:
  56              		.loc 1 36 0
  57 0010 1C70     		strb	r4, [r3]
ARM GAS  /var/folders/d2/nstgp4h54kz7g1l847x_b8wc0000gn/T//ccqW9IH1.s 			page 2


  58              	.LVL2:
  59              	.LBB2:
  60              		.loc 1 38 0
  61 0012 0029     		cmp	r1, #0
  62 0014 63D0     		beq	.L8
  63              	.LBE2:
  64              		.loc 1 34 0
  65 0016 4FF00008 		mov	r8, #0
  66 001a 364C     		ldr	r4, .L18+8
  67 001c C246     		mov	r10, r8
  68 001e C346     		mov	fp, r8
  69 0020 C146     		mov	r9, r8
  70 0022 4746     		mov	r7, r8
  71 0024 C446     		mov	ip, r8
  72              	.LBB3:
  73              		.loc 1 38 0
  74 0026 4346     		mov	r3, r8
  75              	.LBE3:
  76              		.loc 1 34 0
  77 0028 47F6FF7E 		movw	lr, #32767
  78 002c 1DE0     		b	.L6
  79              	.LVL3:
  80              	.L16:
  81 002e AB45     		cmp	fp, r5
  82 0030 A8BF     		it	ge
  83 0032 AB46     		movge	fp, r5
  84              	.LVL4:
  85              	.L3:
  86              	.LBB4:
  87              		.loc 1 47 0
  88 0034 0244     		add	r2, r2, r0
  89 0036 32F9026C 		ldrsh	r6, [r2, #-2]
  90              		.loc 1 54 0
  91 003a B2F90450 		ldrsh	r5, [r2, #4]
  92 003e B442     		cmp	r4, r6
  93 0040 B8BF     		it	lt
  94 0042 3446     		movlt	r4, r6
  95              	.LVL5:
  96 0044 B645     		cmp	lr, r6
  97 0046 A8BF     		it	ge
  98 0048 B646     		movge	lr, r6
  99              	.LVL6:
 100 004a 4D45     		cmp	r5, r9
 101 004c 45DC     		bgt	.L10
 102 004e A845     		cmp	r8, r5
 103 0050 A8BF     		it	ge
 104 0052 A846     		movge	r8, r5
 105              	.LVL7:
 106              	.L4:
 107              		.loc 1 61 0
 108 0054 B2F90220 		ldrsh	r2, [r2, #2]
 109 0058 BA42     		cmp	r2, r7
 110 005a 0EDC     		bgt	.L11
 111              		.loc 1 38 0
 112 005c 0433     		adds	r3, r3, #4
 113              	.LVL8:
 114 005e 9245     		cmp	r10, r2
ARM GAS  /var/folders/d2/nstgp4h54kz7g1l847x_b8wc0000gn/T//ccqW9IH1.s 			page 3


 115 0060 9BB2     		uxth	r3, r3
 116 0062 A8BF     		it	ge
 117 0064 9246     		movge	r10, r2
 118              	.LVL9:
 119 0066 9942     		cmp	r1, r3
 120 0068 0CD9     		bls	.L15
 121              	.LVL10:
 122              	.L6:
 123              		.loc 1 40 0
 124 006a 5D1C     		adds	r5, r3, #1
 125 006c 6A00     		lsls	r2, r5, #1
 126 006e 30F91550 		ldrsh	r5, [r0, r5, lsl #1]
 127 0072 6545     		cmp	r5, ip
 128 0074 DBDD     		ble	.L16
 129 0076 AC46     		mov	ip, r5
 130              	.LVL11:
 131 0078 DCE7     		b	.L3
 132              	.LVL12:
 133              	.L11:
 134              		.loc 1 38 0
 135 007a 0433     		adds	r3, r3, #4
 136              	.LVL13:
 137 007c 9BB2     		uxth	r3, r3
 138 007e 9942     		cmp	r1, r3
 139 0080 1746     		mov	r7, r2
 140              	.LVL14:
 141 0082 F2D8     		bhi	.L6
 142              	.L15:
 143 0084 A4EB0E04 		sub	r4, r4, lr
 144              	.LVL15:
 145 0088 ACEB0B0C 		sub	ip, ip, fp
 146              	.LVL16:
 147 008c A7EB0A07 		sub	r7, r7, r10
 148              	.LVL17:
 149 0090 A9EB0808 		sub	r8, r9, r8
 150              	.LVL18:
 151 0094 A4B2     		uxth	r4, r4
 152 0096 1FFA8CFC 		uxth	ip, ip
 153 009a BFB2     		uxth	r7, r7
 154 009c 1FFA88F8 		uxth	r8, r8
 155              	.LVL19:
 156              	.L2:
 157              	.LBE4:
 158              		.loc 1 70 0
 159 00a0 154A     		ldr	r2, .L18+12
 160              		.loc 1 80 0
 161 00a2 1249     		ldr	r1, .L18
 162              	.LVL20:
 163              		.loc 1 70 0
 164 00a4 1480     		strh	r4, [r2]	@ movhi
 165              		.loc 1 80 0
 166 00a6 019C     		ldr	r4, [sp, #4]
 167 00a8 0968     		ldr	r1, [r1]
 168              		.loc 1 74 0
 169 00aa 144B     		ldr	r3, .L18+16
 170              		.loc 1 71 0
 171 00ac A2F802C0 		strh	ip, [r2, #2]	@ movhi
ARM GAS  /var/folders/d2/nstgp4h54kz7g1l847x_b8wc0000gn/T//ccqW9IH1.s 			page 4


 172              		.loc 1 72 0
 173 00b0 9780     		strh	r7, [r2, #4]	@ movhi
 174              		.loc 1 74 0
 175 00b2 B0F8F8C4 		ldrh	ip, [r0, #1272]
 176              		.loc 1 75 0
 177 00b6 B0F8FA64 		ldrh	r6, [r0, #1274]
 178              		.loc 1 73 0
 179 00ba A2F80680 		strh	r8, [r2, #6]	@ movhi
 180              		.loc 1 76 0
 181 00be B0F8FC54 		ldrh	r5, [r0, #1276]
 182              		.loc 1 77 0
 183 00c2 B0F8FE24 		ldrh	r2, [r0, #1278]
 184              		.loc 1 74 0
 185 00c6 A3F800C0 		strh	ip, [r3]	@ movhi
 186              		.loc 1 80 0
 187 00ca 8C42     		cmp	r4, r1
 188              		.loc 1 75 0
 189 00cc 5E80     		strh	r6, [r3, #2]	@ movhi
 190              		.loc 1 76 0
 191 00ce 9D80     		strh	r5, [r3, #4]	@ movhi
 192              		.loc 1 77 0
 193 00d0 DA80     		strh	r2, [r3, #6]	@ movhi
 194              		.loc 1 80 0
 195 00d2 08D1     		bne	.L17
 196 00d4 03B0     		add	sp, sp, #12
 197              		.cfi_remember_state
 198              		.cfi_def_cfa_offset 36
 199              		@ sp needed
 200 00d6 BDE8F08F 		pop	{r4, r5, r6, r7, r8, r9, r10, fp, pc}
 201              	.LVL21:
 202              	.L10:
 203              		.cfi_restore_state
 204              	.LBB5:
 205 00da A946     		mov	r9, r5
 206              	.LVL22:
 207 00dc BAE7     		b	.L4
 208              	.LVL23:
 209              	.L8:
 210              		.loc 1 38 0
 211 00de 8846     		mov	r8, r1
 212 00e0 0F46     		mov	r7, r1
 213 00e2 8C46     		mov	ip, r1
 214 00e4 DCE7     		b	.L2
 215              	.LVL24:
 216              	.L17:
 217              	.LBE5:
 218              		.loc 1 80 0
 219 00e6 FFF7FEFF 		bl	__stack_chk_fail
 220              	.LVL25:
 221              	.L19:
 222 00ea 00BF     		.align	2
 223              	.L18:
 224 00ec 00000000 		.word	__stack_chk_guard
 225 00f0 00000000 		.word	.LANCHOR0
 226 00f4 0080FFFF 		.word	-32768
 227 00f8 00000000 		.word	.LANCHOR1
 228 00fc 00000000 		.word	.LANCHOR2
ARM GAS  /var/folders/d2/nstgp4h54kz7g1l847x_b8wc0000gn/T//ccqW9IH1.s 			page 5


 229              		.cfi_endproc
 230              	.LFE258:
 231              		.size	handlePCMdata, .-handlePCMdata
 232              		.section	.text.mic_get_last,"ax",%progbits
 233              		.align	1
 234              		.p2align 4,,15
 235              		.global	mic_get_last
 236              		.syntax unified
 237              		.thumb
 238              		.thumb_func
 239              		.fpu fpv4-sp-d16
 240              		.type	mic_get_last, %function
 241              	mic_get_last:
 242              	.LFB256:
 243              		.loc 1 13 0
 244              		.cfi_startproc
 245              		@ args = 0, pretend = 0, frame = 8
 246              		@ frame_needed = 0, uses_anonymous_args = 0
 247              	.LVL26:
 248 0000 00B5     		push	{lr}
 249              		.cfi_def_cfa_offset 4
 250              		.cfi_offset 14, -4
 251 0002 0A4B     		ldr	r3, .L26
 252 0004 83B0     		sub	sp, sp, #12
 253              		.cfi_def_cfa_offset 16
 254              		.loc 1 13 0
 255 0006 1A68     		ldr	r2, [r3]
 256 0008 0192     		str	r2, [sp, #4]
 257              		.loc 1 14 0
 258 000a 0328     		cmp	r0, #3
 259              		.loc 1 15 0
 260 000c 9CBF     		itt	ls
 261 000e 084A     		ldrls	r2, .L26+4
 262 0010 32F91000 		ldrshls	r0, [r2, r0, lsl #1]
 263              	.LVL27:
 264              		.loc 1 19 0
 265 0014 019A     		ldr	r2, [sp, #4]
 266 0016 1B68     		ldr	r3, [r3]
 267              		.loc 1 17 0
 268 0018 88BF     		it	hi
 269 001a 0020     		movhi	r0, #0
 270              		.loc 1 19 0
 271 001c 9A42     		cmp	r2, r3
 272 001e 02D1     		bne	.L25
 273 0020 03B0     		add	sp, sp, #12
 274              		.cfi_remember_state
 275              		.cfi_def_cfa_offset 4
 276              		@ sp needed
 277 0022 5DF804FB 		ldr	pc, [sp], #4
 278              	.L25:
 279              		.cfi_restore_state
 280 0026 FFF7FEFF 		bl	__stack_chk_fail
 281              	.LVL28:
 282              	.L27:
 283 002a 00BF     		.align	2
 284              	.L26:
 285 002c 00000000 		.word	__stack_chk_guard
ARM GAS  /var/folders/d2/nstgp4h54kz7g1l847x_b8wc0000gn/T//ccqW9IH1.s 			page 6


 286 0030 00000000 		.word	.LANCHOR2
 287              		.cfi_endproc
 288              	.LFE256:
 289              		.size	mic_get_last, .-mic_get_last
 290              		.section	.text.mic_get_volume,"ax",%progbits
 291              		.align	1
 292              		.p2align 4,,15
 293              		.global	mic_get_volume
 294              		.syntax unified
 295              		.thumb
 296              		.thumb_func
 297              		.fpu fpv4-sp-d16
 298              		.type	mic_get_volume, %function
 299              	mic_get_volume:
 300              	.LFB257:
 301              		.loc 1 22 0
 302              		.cfi_startproc
 303              		@ args = 0, pretend = 0, frame = 8
 304              		@ frame_needed = 0, uses_anonymous_args = 0
 305              	.LVL29:
 306 0000 00B5     		push	{lr}
 307              		.cfi_def_cfa_offset 4
 308              		.cfi_offset 14, -4
 309 0002 0A4B     		ldr	r3, .L34
 310 0004 83B0     		sub	sp, sp, #12
 311              		.cfi_def_cfa_offset 16
 312              		.loc 1 22 0
 313 0006 1A68     		ldr	r2, [r3]
 314 0008 0192     		str	r2, [sp, #4]
 315              		.loc 1 23 0
 316 000a 0328     		cmp	r0, #3
 317              		.loc 1 24 0
 318 000c 9CBF     		itt	ls
 319 000e 084A     		ldrls	r2, .L34+4
 320 0010 32F81000 		ldrhls	r0, [r2, r0, lsl #1]
 321              	.LVL30:
 322              		.loc 1 28 0
 323 0014 019A     		ldr	r2, [sp, #4]
 324 0016 1B68     		ldr	r3, [r3]
 325              		.loc 1 26 0
 326 0018 88BF     		it	hi
 327 001a 0020     		movhi	r0, #0
 328              		.loc 1 28 0
 329 001c 9A42     		cmp	r2, r3
 330 001e 02D1     		bne	.L33
 331 0020 03B0     		add	sp, sp, #12
 332              		.cfi_remember_state
 333              		.cfi_def_cfa_offset 4
 334              		@ sp needed
 335 0022 5DF804FB 		ldr	pc, [sp], #4
 336              	.L33:
 337              		.cfi_restore_state
 338 0026 FFF7FEFF 		bl	__stack_chk_fail
 339              	.LVL31:
 340              	.L35:
 341 002a 00BF     		.align	2
 342              	.L34:
ARM GAS  /var/folders/d2/nstgp4h54kz7g1l847x_b8wc0000gn/T//ccqW9IH1.s 			page 7


 343 002c 00000000 		.word	__stack_chk_guard
 344 0030 00000000 		.word	.LANCHOR1
 345              		.cfi_endproc
 346              	.LFE257:
 347              		.size	mic_get_volume, .-mic_get_volume
 348              		.section	.text.mic_start,"ax",%progbits
 349              		.align	1
 350              		.p2align 4,,15
 351              		.global	mic_start
 352              		.syntax unified
 353              		.thumb
 354              		.thumb_func
 355              		.fpu fpv4-sp-d16
 356              		.type	mic_start, %function
 357              	mic_start:
 358              	.LFB259:
 359              		.loc 1 82 0
 360              		.cfi_startproc
 361              		@ args = 0, pretend = 0, frame = 8
 362              		@ frame_needed = 0, uses_anonymous_args = 0
 363              	.LVL32:
 364 0000 70B5     		push	{r4, r5, r6, lr}
 365              		.cfi_def_cfa_offset 16
 366              		.cfi_offset 4, -16
 367              		.cfi_offset 5, -12
 368              		.cfi_offset 6, -8
 369              		.cfi_offset 14, -4
 370              		.loc 1 84 0
 371 0002 3F4B     		ldr	r3, .L45
 372              		.loc 1 82 0
 373 0004 3F4C     		ldr	r4, .L45+4
 374              		.loc 1 84 0
 375 0006 1A78     		ldrb	r2, [r3]	@ zero_extendqisi2
 376              		.loc 1 82 0
 377 0008 2368     		ldr	r3, [r4]
 378 000a 82B0     		sub	sp, sp, #8
 379              		.cfi_def_cfa_offset 24
 380              		.loc 1 84 0
 381 000c 012A     		cmp	r2, #1
 382              		.loc 1 82 0
 383 000e 0193     		str	r3, [sp, #4]
 384              		.loc 1 84 0
 385 0010 05D0     		beq	.L43
 386              	.LVL33:
 387              	.L36:
 388              		.loc 1 144 0
 389 0012 019A     		ldr	r2, [sp, #4]
 390 0014 2368     		ldr	r3, [r4]
 391 0016 9A42     		cmp	r2, r3
 392 0018 70D1     		bne	.L44
 393 001a 02B0     		add	sp, sp, #8
 394              		.cfi_remember_state
 395              		.cfi_def_cfa_offset 16
 396              		@ sp needed
 397 001c 70BD     		pop	{r4, r5, r6, pc}
 398              	.LVL34:
 399              	.L43:
ARM GAS  /var/folders/d2/nstgp4h54kz7g1l847x_b8wc0000gn/T//ccqW9IH1.s 			page 8


 400              		.cfi_restore_state
 401              		.loc 1 94 0
 402 001e 3A49     		ldr	r1, .L45+8
 403              		.loc 1 97 0
 404 0020 3A4B     		ldr	r3, .L45+12
 405              		.loc 1 94 0
 406 0022 4D6C     		ldr	r5, [r1, #68]
 407 0024 45F48035 		orr	r5, r5, #65536
 408 0028 4D64     		str	r5, [r1, #68]
 409              		.loc 1 95 0
 410 002a 4E6A     		ldr	r6, [r1, #36]
 411 002c 0025     		movs	r5, #0
 412 002e 46F48036 		orr	r6, r6, #65536
 413 0032 4E62     		str	r6, [r1, #36]
 414 0034 4D62     		str	r5, [r1, #36]
 415              		.loc 1 97 0
 416 0036 1D61     		str	r5, [r3, #16]
 417              		.loc 1 98 0
 418 0038 DD60     		str	r5, [r3, #12]
 419              		.loc 1 101 0
 420 003a 196A     		ldr	r1, [r3, #32]
 421 003c 21F00101 		bic	r1, r1, #1
 422 0040 1962     		str	r1, [r3, #32]
 423              		.loc 1 102 0
 424 0042 9969     		ldr	r1, [r3, #24]
 425 0044 21F00301 		bic	r1, r1, #3
 426 0048 9961     		str	r1, [r3, #24]
 427              		.loc 1 103 0
 428 004a 9969     		ldr	r1, [r3, #24]
 429 004c 41F00101 		orr	r1, r1, #1
 430 0050 9961     		str	r1, [r3, #24]
 431              		.loc 1 104 0
 432 0052 9969     		ldr	r1, [r3, #24]
 433 0054 21F0F001 		bic	r1, r1, #240
 434 0058 9961     		str	r1, [r3, #24]
 435              		.loc 1 105 0
 436 005a 196A     		ldr	r1, [r3, #32]
 437 005c 21F00A01 		bic	r1, r1, #10
 438 0060 1962     		str	r1, [r3, #32]
 439              		.loc 1 106 0
 440 0062 9969     		ldr	r1, [r3, #24]
 441 0064 21F00C01 		bic	r1, r1, #12
 442 0068 9961     		str	r1, [r3, #24]
 443              		.loc 1 109 0
 444 006a 9968     		ldr	r1, [r3, #8]
 445 006c 21F07001 		bic	r1, r1, #112
 446 0070 9960     		str	r1, [r3, #8]
 447              		.loc 1 110 0
 448 0072 9968     		ldr	r1, [r3, #8]
 449 0074 41F05001 		orr	r1, r1, #80
 450 0078 9960     		str	r1, [r3, #8]
 451              		.loc 1 111 0
 452 007a 9968     		ldr	r1, [r3, #8]
 453 007c 21F48031 		bic	r1, r1, #65536
 454 0080 21F00701 		bic	r1, r1, #7
 455 0084 9960     		str	r1, [r3, #8]
 456              		.loc 1 112 0
ARM GAS  /var/folders/d2/nstgp4h54kz7g1l847x_b8wc0000gn/T//ccqW9IH1.s 			page 9


 457 0086 9968     		ldr	r1, [r3, #8]
 458 0088 41F00701 		orr	r1, r1, #7
 459 008c 9960     		str	r1, [r3, #8]
 460              		.loc 1 115 0
 461 008e 1968     		ldr	r1, [r3]
 462 0090 21F44071 		bic	r1, r1, #768
 463 0094 1960     		str	r1, [r3]
 464              		.loc 1 116 0
 465 0096 DA62     		str	r2, [r3, #44]
 466              		.loc 1 117 0
 467 0098 9D62     		str	r5, [r3, #40]
 468              		.loc 1 118 0
 469 009a 5A61     		str	r2, [r3, #20]
 470              		.loc 1 119 0
 471 009c 196A     		ldr	r1, [r3, #32]
 472 009e 21F01001 		bic	r1, r1, #16
 473 00a2 1962     		str	r1, [r3, #32]
 474              		.loc 1 120 0
 475 00a4 9969     		ldr	r1, [r3, #24]
 476 00a6 21F44071 		bic	r1, r1, #768
 477 00aa 9961     		str	r1, [r3, #24]
 478              		.loc 1 121 0
 479 00ac 9969     		ldr	r1, [r3, #24]
 480 00ae 21F08071 		bic	r1, r1, #16777216
 481 00b2 21F4E041 		bic	r1, r1, #28672
 482 00b6 9961     		str	r1, [r3, #24]
 483              		.loc 1 122 0
 484 00b8 9969     		ldr	r1, [r3, #24]
 485 00ba 41F4C041 		orr	r1, r1, #24576
 486 00be 9961     		str	r1, [r3, #24]
 487              		.loc 1 123 0
 488 00c0 196A     		ldr	r1, [r3, #32]
 489 00c2 21F0A001 		bic	r1, r1, #160
 490 00c6 1962     		str	r1, [r3, #32]
 491              		.loc 1 124 0
 492 00c8 9A63     		str	r2, [r3, #56]
 493              		.loc 1 125 0
 494 00ca 9A69     		ldr	r2, [r3, #24]
 495 00cc 42F40062 		orr	r2, r2, #2048
 496 00d0 9A61     		str	r2, [r3, #24]
 497              		.loc 1 126 0
 498 00d2 1A6A     		ldr	r2, [r3, #32]
 499 00d4 22F48062 		bic	r2, r2, #1024
 500 00d8 1A62     		str	r2, [r3, #32]
 501              		.loc 1 129 0
 502 00da 1A6A     		ldr	r2, [r3, #32]
 503 00dc 42F01102 		orr	r2, r2, #17
 504 00e0 1A62     		str	r2, [r3, #32]
 505              		.loc 1 130 0
 506 00e2 1A68     		ldr	r2, [r3]
 507 00e4 42F00102 		orr	r2, r2, #1
 508 00e8 1A60     		str	r2, [r3]
 509              		.loc 1 137 0
 510 00ea 20B1     		cbz	r0, .L38
 511              		.loc 1 138 0
 512 00ec 0090     		str	r0, [sp]
 513              	.L39:
ARM GAS  /var/folders/d2/nstgp4h54kz7g1l847x_b8wc0000gn/T//ccqW9IH1.s 			page 10


 514              		.loc 1 141 0
 515 00ee 6846     		mov	r0, sp
 516              	.LVL35:
 517 00f0 FFF7FEFF 		bl	mp45dt02Init
 518              	.LVL36:
 519 00f4 8DE7     		b	.L36
 520              	.LVL37:
 521              	.L38:
 522              		.loc 1 140 0
 523 00f6 064B     		ldr	r3, .L45+16
 524 00f8 0093     		str	r3, [sp]
 525 00fa F8E7     		b	.L39
 526              	.LVL38:
 527              	.L44:
 528              		.loc 1 144 0
 529 00fc FFF7FEFF 		bl	__stack_chk_fail
 530              	.LVL39:
 531              	.L46:
 532              		.align	2
 533              	.L45:
 534 0100 00000000 		.word	I2SD2
 535 0104 00000000 		.word	__stack_chk_guard
 536 0108 00380240 		.word	1073887232
 537 010c 00400140 		.word	1073823744
 538 0110 00000000 		.word	handlePCMdata
 539              		.cfi_endproc
 540              	.LFE259:
 541              		.size	mic_start, .-mic_start
 542              		.section	.text.mic_get_buffer_ptr,"ax",%progbits
 543              		.align	1
 544              		.p2align 4,,15
 545              		.global	mic_get_buffer_ptr
 546              		.syntax unified
 547              		.thumb
 548              		.thumb_func
 549              		.fpu fpv4-sp-d16
 550              		.type	mic_get_buffer_ptr, %function
 551              	mic_get_buffer_ptr:
 552              	.LFB260:
 553              		.loc 1 146 0
 554              		.cfi_startproc
 555              		@ args = 0, pretend = 0, frame = 8
 556              		@ frame_needed = 0, uses_anonymous_args = 0
 557 0000 00B5     		push	{lr}
 558              		.cfi_def_cfa_offset 4
 559              		.cfi_offset 14, -4
 560 0002 074B     		ldr	r3, .L52
 561 0004 83B0     		sub	sp, sp, #12
 562              		.cfi_def_cfa_offset 16
 563              		.loc 1 146 0
 564 0006 1A68     		ldr	r2, [r3]
 565 0008 0192     		str	r2, [sp, #4]
 566              		.loc 1 147 0
 567 000a 019A     		ldr	r2, [sp, #4]
 568 000c 1B68     		ldr	r3, [r3]
 569 000e 9A42     		cmp	r2, r3
 570 0010 04D1     		bne	.L51
ARM GAS  /var/folders/d2/nstgp4h54kz7g1l847x_b8wc0000gn/T//ccqW9IH1.s 			page 11


 571              		.loc 1 148 0
 572 0012 03B0     		add	sp, sp, #12
 573              		.cfi_remember_state
 574              		.cfi_def_cfa_offset 4
 575              		@ sp needed
 576 0014 5DF804EB 		ldr	lr, [sp], #4
 577              		.cfi_restore 14
 578              		.cfi_def_cfa_offset 0
 579              		.loc 1 147 0
 580 0018 FFF7FEBF 		b	mp45dt02BufferPtr
 581              	.LVL40:
 582              	.L51:
 583              		.cfi_restore_state
 584 001c FFF7FEFF 		bl	__stack_chk_fail
 585              	.LVL41:
 586              	.L53:
 587              		.align	2
 588              	.L52:
 589 0020 00000000 		.word	__stack_chk_guard
 590              		.cfi_endproc
 591              	.LFE260:
 592              		.size	mic_get_buffer_ptr, .-mic_get_buffer_ptr
 593              		.section	.text.mic_buffer_is_ready,"ax",%progbits
 594              		.align	1
 595              		.p2align 4,,15
 596              		.global	mic_buffer_is_ready
 597              		.syntax unified
 598              		.thumb
 599              		.thumb_func
 600              		.fpu fpv4-sp-d16
 601              		.type	mic_buffer_is_ready, %function
 602              	mic_buffer_is_ready:
 603              	.LFB261:
 604              		.loc 1 150 0
 605              		.cfi_startproc
 606              		@ args = 0, pretend = 0, frame = 8
 607              		@ frame_needed = 0, uses_anonymous_args = 0
 608 0000 00B5     		push	{lr}
 609              		.cfi_def_cfa_offset 4
 610              		.cfi_offset 14, -4
 611 0002 074B     		ldr	r3, .L58
 612              		.loc 1 151 0
 613 0004 0749     		ldr	r1, .L58+4
 614              		.loc 1 150 0
 615 0006 1A68     		ldr	r2, [r3]
 616              		.loc 1 152 0
 617 0008 0878     		ldrb	r0, [r1]	@ zero_extendqisi2
 618              		.loc 1 150 0
 619 000a 83B0     		sub	sp, sp, #12
 620              		.cfi_def_cfa_offset 16
 621              		.loc 1 150 0
 622 000c 0192     		str	r2, [sp, #4]
 623              		.loc 1 152 0
 624 000e 019A     		ldr	r2, [sp, #4]
 625 0010 1B68     		ldr	r3, [r3]
 626 0012 9A42     		cmp	r2, r3
 627 0014 02D1     		bne	.L57
ARM GAS  /var/folders/d2/nstgp4h54kz7g1l847x_b8wc0000gn/T//ccqW9IH1.s 			page 12


 628 0016 03B0     		add	sp, sp, #12
 629              		.cfi_remember_state
 630              		.cfi_def_cfa_offset 4
 631              		@ sp needed
 632 0018 5DF804FB 		ldr	pc, [sp], #4
 633              	.L57:
 634              		.cfi_restore_state
 635 001c FFF7FEFF 		bl	__stack_chk_fail
 636              	.LVL42:
 637              	.L59:
 638              		.align	2
 639              	.L58:
 640 0020 00000000 		.word	__stack_chk_guard
 641 0024 00000000 		.word	.LANCHOR0
 642              		.cfi_endproc
 643              	.LFE261:
 644              		.size	mic_buffer_is_ready, .-mic_buffer_is_ready
 645              		.section	.text.mic_buffer_ready_reset,"ax",%progbits
 646              		.align	1
 647              		.p2align 4,,15
 648              		.global	mic_buffer_ready_reset
 649              		.syntax unified
 650              		.thumb
 651              		.thumb_func
 652              		.fpu fpv4-sp-d16
 653              		.type	mic_buffer_ready_reset, %function
 654              	mic_buffer_ready_reset:
 655              	.LFB262:
 656              		.loc 1 154 0
 657              		.cfi_startproc
 658              		@ args = 0, pretend = 0, frame = 8
 659              		@ frame_needed = 0, uses_anonymous_args = 0
 660 0000 00B5     		push	{lr}
 661              		.cfi_def_cfa_offset 4
 662              		.cfi_offset 14, -4
 663 0002 084B     		ldr	r3, .L64
 664              		.loc 1 155 0
 665 0004 0849     		ldr	r1, .L64+4
 666              		.loc 1 154 0
 667 0006 1A68     		ldr	r2, [r3]
 668 0008 83B0     		sub	sp, sp, #12
 669              		.cfi_def_cfa_offset 16
 670              		.loc 1 155 0
 671 000a 0020     		movs	r0, #0
 672              		.loc 1 154 0
 673 000c 0192     		str	r2, [sp, #4]
 674              		.loc 1 156 0
 675 000e 019A     		ldr	r2, [sp, #4]
 676 0010 1B68     		ldr	r3, [r3]
 677              		.loc 1 155 0
 678 0012 0870     		strb	r0, [r1]
 679              		.loc 1 156 0
 680 0014 9A42     		cmp	r2, r3
 681 0016 02D1     		bne	.L63
 682 0018 03B0     		add	sp, sp, #12
 683              		.cfi_remember_state
 684              		.cfi_def_cfa_offset 4
ARM GAS  /var/folders/d2/nstgp4h54kz7g1l847x_b8wc0000gn/T//ccqW9IH1.s 			page 13


 685              		@ sp needed
 686 001a 5DF804FB 		ldr	pc, [sp], #4
 687              	.L63:
 688              		.cfi_restore_state
 689 001e FFF7FEFF 		bl	__stack_chk_fail
 690              	.LVL43:
 691              	.L65:
 692 0022 00BF     		.align	2
 693              	.L64:
 694 0024 00000000 		.word	__stack_chk_guard
 695 0028 00000000 		.word	.LANCHOR0
 696              		.cfi_endproc
 697              	.LFE262:
 698              		.size	mic_buffer_ready_reset, .-mic_buffer_ready_reset
 699              		.section	.text.mic_buffer_get_size,"ax",%progbits
 700              		.align	1
 701              		.p2align 4,,15
 702              		.global	mic_buffer_get_size
 703              		.syntax unified
 704              		.thumb
 705              		.thumb_func
 706              		.fpu fpv4-sp-d16
 707              		.type	mic_buffer_get_size, %function
 708              	mic_buffer_get_size:
 709              	.LFB263:
 710              		.loc 1 158 0
 711              		.cfi_startproc
 712              		@ args = 0, pretend = 0, frame = 8
 713              		@ frame_needed = 0, uses_anonymous_args = 0
 714 0000 00B5     		push	{lr}
 715              		.cfi_def_cfa_offset 4
 716              		.cfi_offset 14, -4
 717 0002 074B     		ldr	r3, .L70
 718 0004 83B0     		sub	sp, sp, #12
 719              		.cfi_def_cfa_offset 16
 720              		.loc 1 158 0
 721 0006 1A68     		ldr	r2, [r3]
 722 0008 0192     		str	r2, [sp, #4]
 723              		.loc 1 160 0
 724 000a 019A     		ldr	r2, [sp, #4]
 725 000c 1B68     		ldr	r3, [r3]
 726 000e 9A42     		cmp	r2, r3
 727 0010 04D1     		bne	.L69
 728 0012 4FF4A060 		mov	r0, #1280
 729 0016 03B0     		add	sp, sp, #12
 730              		.cfi_remember_state
 731              		.cfi_def_cfa_offset 4
 732              		@ sp needed
 733 0018 5DF804FB 		ldr	pc, [sp], #4
 734              	.L69:
 735              		.cfi_restore_state
 736 001c FFF7FEFF 		bl	__stack_chk_fail
 737              	.LVL44:
 738              	.L71:
 739              		.align	2
 740              	.L70:
 741 0020 00000000 		.word	__stack_chk_guard
ARM GAS  /var/folders/d2/nstgp4h54kz7g1l847x_b8wc0000gn/T//ccqW9IH1.s 			page 14


 742              		.cfi_endproc
 743              	.LFE263:
 744              		.size	mic_buffer_get_size, .-mic_buffer_get_size
 745              		.section	.bss.mic_buffer_ready,"aw",%nobits
 746              		.set	.LANCHOR0,. + 0
 747              		.type	mic_buffer_ready, %object
 748              		.size	mic_buffer_ready, 1
 749              	mic_buffer_ready:
 750 0000 00       		.space	1
 751              		.section	.bss.mic_last,"aw",%nobits
 752              		.align	2
 753              		.set	.LANCHOR2,. + 0
 754              		.type	mic_last, %object
 755              		.size	mic_last, 8
 756              	mic_last:
 757 0000 00000000 		.space	8
 757      00000000 
 758              		.section	.bss.mic_volume,"aw",%nobits
 759              		.align	2
 760              		.set	.LANCHOR1,. + 0
 761              		.type	mic_volume, %object
 762              		.size	mic_volume, 8
 763              	mic_volume:
 764 0000 00000000 		.space	8
 764      00000000 
 765              		.text
 766              	.Letext0:
 767              		.file 2 "/Applications/Eclipse_e-puck2.app/Contents/Eclipse_e-puck2/Tools/gcc-arm-none-eabi-7-2017
 768              		.file 3 "/Applications/Eclipse_e-puck2.app/Contents/Eclipse_e-puck2/Tools/gcc-arm-none-eabi-7-2017
 769              		.file 4 "/Applications/Eclipse_e-puck2.app/Contents/Eclipse_e-puck2/Tools/gcc-arm-none-eabi-7-2017
 770              		.file 5 "/Applications/Eclipse_e-puck2.app/Contents/Eclipse_e-puck2/Tools/gcc-arm-none-eabi-7-2017
 771              		.file 6 "/Applications/Eclipse_e-puck2.app/Contents/Eclipse_e-puck2/Tools/gcc-arm-none-eabi-7-2017
 772              		.file 7 "/Applications/Eclipse_e-puck2.app/Contents/Eclipse_e-puck2/Tools/gcc-arm-none-eabi-7-2017
 773              		.file 8 "../e-puck2_main-processor/ChibiOS//os/rt/ports/ARMCMx/compilers/GCC/chtypes.h"
 774              		.file 9 "../e-puck2_main-processor/ChibiOS//os/rt/include/chsystypes.h"
 775              		.file 10 "../e-puck2_main-processor/ChibiOS//os/rt/include/chschd.h"
 776              		.file 11 "../e-puck2_main-processor/ChibiOS//os/ext/CMSIS/include/core_cm4.h"
 777              		.file 12 "../e-puck2_main-processor/ChibiOS//os/ext/CMSIS/ST/system_stm32f4xx.h"
 778              		.file 13 "../e-puck2_main-processor/ChibiOS//os/ext/CMSIS/ST/stm32f407xx.h"
 779              		.file 14 "../e-puck2_main-processor/ChibiOS//os/rt/ports/ARMCMx/chcore.h"
 780              		.file 15 "../e-puck2_main-processor/ChibiOS//os/rt/ports/ARMCMx/chcore_v7m.h"
 781              		.file 16 "../e-puck2_main-processor/ChibiOS//os/rt/include/chdebug.h"
 782              		.file 17 "../e-puck2_main-processor/ChibiOS//os/rt/include/chtm.h"
 783              		.file 18 "../e-puck2_main-processor/ChibiOS//os/rt/include/chstats.h"
 784              		.file 19 "../e-puck2_main-processor/ChibiOS//os/rt/include/chsem.h"
 785              		.file 20 "../e-puck2_main-processor/ChibiOS//os/rt/include/chmtx.h"
 786              		.file 21 "../e-puck2_main-processor/ChibiOS//os/rt/include/chregistry.h"
 787              		.file 22 "../e-puck2_main-processor/ChibiOS//os/rt/include/chevents.h"
 788              		.file 23 "../e-puck2_main-processor/ChibiOS//os/rt/include/chqueues.h"
 789              		.file 24 "../e-puck2_main-processor/ChibiOS//os/hal/ports/STM32/STM32F4xx/stm32_dma.h"
 790              		.file 25 "../e-puck2_main-processor/ChibiOS//os/hal/include/hal_ioblock.h"
 791              		.file 26 "../e-puck2_main-processor/ChibiOS//os/hal/ports/STM32/LLD/GPIOv2/pal_lld.h"
 792              		.file 27 "../e-puck2_main-processor/ChibiOS//os/hal/include/adc.h"
 793              		.file 28 "../e-puck2_main-processor/ChibiOS//os/hal/ports/STM32/STM32F4xx/adc_lld.h"
 794              		.file 29 "../e-puck2_main-processor/ChibiOS//os/hal/include/can.h"
 795              		.file 30 "../e-puck2_main-processor/ChibiOS//os/hal/ports/STM32/LLD/can_lld.h"
 796              		.file 31 "../e-puck2_main-processor/ChibiOS//os/hal/include/dac.h"
ARM GAS  /var/folders/d2/nstgp4h54kz7g1l847x_b8wc0000gn/T//ccqW9IH1.s 			page 15


 797              		.file 32 "../e-puck2_main-processor/ChibiOS//os/hal/ports/STM32/LLD/DACv1/dac_lld.h"
 798              		.file 33 "../e-puck2_main-processor/ChibiOS//os/hal/include/ext.h"
 799              		.file 34 "../e-puck2_main-processor/ChibiOS//os/hal/ports/STM32/LLD/ext_lld.h"
 800              		.file 35 "../e-puck2_main-processor/ChibiOS//os/hal/include/gpt.h"
 801              		.file 36 "../e-puck2_main-processor/ChibiOS//os/hal/ports/STM32/LLD/TIMv1/gpt_lld.h"
 802              		.file 37 "../e-puck2_main-processor/ChibiOS//os/hal/ports/STM32/LLD/TIMv1/stm32_tim.h"
 803              		.file 38 "../e-puck2_main-processor/ChibiOS//os/hal/include/i2c.h"
 804              		.file 39 "../e-puck2_main-processor/ChibiOS//os/hal/ports/STM32/LLD/I2Cv1/i2c_lld.h"
 805              		.file 40 "../e-puck2_main-processor/ChibiOS//os/hal/include/i2s.h"
 806              		.file 41 "../e-puck2_main-processor/ChibiOS//os/hal/ports/STM32/LLD/SPIv1/i2s_lld.h"
 807              		.file 42 "../e-puck2_main-processor/ChibiOS//os/hal/include/pwm.h"
 808              		.file 43 "../e-puck2_main-processor/ChibiOS//os/hal/ports/STM32/LLD/TIMv1/pwm_lld.h"
 809              		.file 44 "../e-puck2_main-processor/ChibiOS//os/hal/include/serial.h"
 810              		.file 45 "../e-puck2_main-processor/ChibiOS//os/hal/ports/STM32/LLD/USARTv1/serial_lld.h"
 811              		.file 46 "../e-puck2_main-processor/ChibiOS//os/hal/include/sdc.h"
 812              		.file 47 "../e-puck2_main-processor/ChibiOS//os/hal/ports/STM32/LLD/sdc_lld.h"
 813              		.file 48 "../e-puck2_main-processor/ChibiOS//os/hal/include/spi.h"
 814              		.file 49 "../e-puck2_main-processor/ChibiOS//os/hal/ports/STM32/LLD/SPIv1/spi_lld.h"
 815              		.file 50 "../e-puck2_main-processor/ChibiOS//os/hal/include/usb.h"
 816              		.file 51 "../e-puck2_main-processor/ChibiOS//os/hal/ports/STM32/LLD/OTGv1/usb_lld.h"
 817              		.file 52 "../e-puck2_main-processor/ChibiOS//os/hal/ports/STM32/LLD/OTGv1/stm32_otg.h"
 818              		.file 53 "../e-puck2_main-processor/src/audio/mp45dt02_processing.h"