ARM GAS  /var/folders/d2/nstgp4h54kz7g1l847x_b8wc0000gn/T//cciPCYiE.s 			page 1


   1              		.cpu cortex-m4
   2              		.eabi_attribute 27, 1
   3              		.eabi_attribute 28, 1
   4              		.eabi_attribute 20, 1
   5              		.eabi_attribute 21, 1
   6              		.eabi_attribute 23, 3
   7              		.eabi_attribute 24, 1
   8              		.eabi_attribute 25, 1
   9              		.eabi_attribute 26, 1
  10              		.eabi_attribute 30, 6
  11              		.eabi_attribute 34, 1
  12              		.eabi_attribute 18, 4
  13              		.file	"motors.c"
  14              		.section	.rodata.step_halt,"a",%progbits
  15              		.align	2
  16              		.type	step_halt, %object
  17              		.size	step_halt, 4
  18              	step_halt:
  19 0000 00000000 		.space	4
  20              		.section	.rodata.step_table,"a",%progbits
  21              		.align	2
  22              		.type	step_table, %object
  23              		.size	step_table, 32
  24              	step_table:
  25 0000 01       		.byte	1
  26 0001 00       		.byte	0
  27 0002 01       		.byte	1
  28 0003 00       		.byte	0
  29 0004 00       		.byte	0
  30 0005 00       		.byte	0
  31 0006 01       		.byte	1
  32 0007 00       		.byte	0
  33 0008 00       		.byte	0
  34 0009 01       		.byte	1
  35 000a 01       		.byte	1
  36 000b 00       		.byte	0
  37 000c 00       		.byte	0
  38 000d 01       		.byte	1
  39 000e 00       		.byte	0
  40 000f 00       		.byte	0
  41 0010 00       		.byte	0
  42 0011 01       		.byte	1
  43 0012 00       		.byte	0
  44 0013 01       		.byte	1
  45 0014 00       		.byte	0
  46 0015 00       		.byte	0
  47 0016 00       		.byte	0
  48 0017 01       		.byte	1
  49 0018 01       		.byte	1
  50 0019 00       		.byte	0
  51 001a 00       		.byte	0
  52 001b 01       		.byte	1
  53 001c 01       		.byte	1
  54 001d 00       		.byte	0
  55 001e 00       		.byte	0
  56 001f 00       		.byte	0
  57              		.global	right_motor
ARM GAS  /var/folders/d2/nstgp4h54kz7g1l847x_b8wc0000gn/T//cciPCYiE.s 			page 2


  58              		.section	.bss.right_motor,"aw",%nobits
  59              		.align	2
  60              		.type	right_motor, %object
  61              		.size	right_motor, 28
  62              	right_motor:
  63 0000 00000000 		.space	28
  63      00000000 
  63      00000000 
  63      00000000 
  63      00000000 
  64              		.global	left_motor
  65              		.section	.bss.left_motor,"aw",%nobits
  66              		.align	2
  67              		.type	left_motor, %object
  68              		.size	left_motor, 28
  69              	left_motor:
  70 0000 00000000 		.space	28
  70      00000000 
  70      00000000 
  70      00000000 
  70      00000000 
  71              		.section	.text.right_motor_update,"ax",%progbits
  72              		.align	1
  73              		.syntax unified
  74              		.thumb
  75              		.thumb_func
  76              		.fpu fpv4-sp-d16
  77              		.type	right_motor_update, %function
  78              	right_motor_update:
  79              		@ args = 0, pretend = 0, frame = 8
  80              		@ frame_needed = 1, uses_anonymous_args = 0
  81              		@ link register save eliminated.
  82 0000 80B4     		push	{r7}
  83 0002 83B0     		sub	sp, sp, #12
  84 0004 00AF     		add	r7, sp, #0
  85 0006 7860     		str	r0, [r7, #4]
  86 0008 7B68     		ldr	r3, [r7, #4]
  87 000a 1B78     		ldrb	r3, [r3]	@ zero_extendqisi2
  88 000c 002B     		cmp	r3, #0
  89 000e 04D0     		beq	.L2
  90 0010 1C4B     		ldr	r3, .L11
  91 0012 4FF40052 		mov	r2, #8192
  92 0016 1A83     		strh	r2, [r3, #24]	@ movhi
  93 0018 03E0     		b	.L3
  94              	.L2:
  95 001a 1A4B     		ldr	r3, .L11
  96 001c 4FF40052 		mov	r2, #8192
  97 0020 5A83     		strh	r2, [r3, #26]	@ movhi
  98              	.L3:
  99 0022 7B68     		ldr	r3, [r7, #4]
 100 0024 0133     		adds	r3, r3, #1
 101 0026 1B78     		ldrb	r3, [r3]	@ zero_extendqisi2
 102 0028 002B     		cmp	r3, #0
 103 002a 04D0     		beq	.L4
 104 002c 154B     		ldr	r3, .L11
 105 002e 4FF48052 		mov	r2, #4096
 106 0032 1A83     		strh	r2, [r3, #24]	@ movhi
ARM GAS  /var/folders/d2/nstgp4h54kz7g1l847x_b8wc0000gn/T//cciPCYiE.s 			page 3


 107 0034 03E0     		b	.L5
 108              	.L4:
 109 0036 134B     		ldr	r3, .L11
 110 0038 4FF48052 		mov	r2, #4096
 111 003c 5A83     		strh	r2, [r3, #26]	@ movhi
 112              	.L5:
 113 003e 7B68     		ldr	r3, [r7, #4]
 114 0040 0233     		adds	r3, r3, #2
 115 0042 1B78     		ldrb	r3, [r3]	@ zero_extendqisi2
 116 0044 002B     		cmp	r3, #0
 117 0046 04D0     		beq	.L6
 118 0048 0E4B     		ldr	r3, .L11
 119 004a 4FF48042 		mov	r2, #16384
 120 004e 1A83     		strh	r2, [r3, #24]	@ movhi
 121 0050 03E0     		b	.L7
 122              	.L6:
 123 0052 0C4B     		ldr	r3, .L11
 124 0054 4FF48042 		mov	r2, #16384
 125 0058 5A83     		strh	r2, [r3, #26]	@ movhi
 126              	.L7:
 127 005a 7B68     		ldr	r3, [r7, #4]
 128 005c 0333     		adds	r3, r3, #3
 129 005e 1B78     		ldrb	r3, [r3]	@ zero_extendqisi2
 130 0060 002B     		cmp	r3, #0
 131 0062 04D0     		beq	.L8
 132 0064 074B     		ldr	r3, .L11
 133 0066 4FF40042 		mov	r2, #32768
 134 006a 1A83     		strh	r2, [r3, #24]	@ movhi
 135 006c 03E0     		b	.L10
 136              	.L8:
 137 006e 054B     		ldr	r3, .L11
 138 0070 4FF40042 		mov	r2, #32768
 139 0074 5A83     		strh	r2, [r3, #26]	@ movhi
 140              	.L10:
 141 0076 00BF     		nop
 142 0078 0C37     		adds	r7, r7, #12
 143 007a BD46     		mov	sp, r7
 144              		@ sp needed
 145 007c 5DF8047B 		ldr	r7, [sp], #4
 146 0080 7047     		bx	lr
 147              	.L12:
 148 0082 00BF     		.align	2
 149              	.L11:
 150 0084 00100240 		.word	1073876992
 151              		.size	right_motor_update, .-right_motor_update
 152              		.section	.text.left_motor_update,"ax",%progbits
 153              		.align	1
 154              		.syntax unified
 155              		.thumb
 156              		.thumb_func
 157              		.fpu fpv4-sp-d16
 158              		.type	left_motor_update, %function
 159              	left_motor_update:
 160              		@ args = 0, pretend = 0, frame = 8
 161              		@ frame_needed = 1, uses_anonymous_args = 0
 162              		@ link register save eliminated.
 163 0000 80B4     		push	{r7}
ARM GAS  /var/folders/d2/nstgp4h54kz7g1l847x_b8wc0000gn/T//cciPCYiE.s 			page 4


 164 0002 83B0     		sub	sp, sp, #12
 165 0004 00AF     		add	r7, sp, #0
 166 0006 7860     		str	r0, [r7, #4]
 167 0008 7B68     		ldr	r3, [r7, #4]
 168 000a 1B78     		ldrb	r3, [r3]	@ zero_extendqisi2
 169 000c 002B     		cmp	r3, #0
 170 000e 04D0     		beq	.L14
 171 0010 1C4B     		ldr	r3, .L23
 172 0012 4FF40072 		mov	r2, #512
 173 0016 1A83     		strh	r2, [r3, #24]	@ movhi
 174 0018 03E0     		b	.L15
 175              	.L14:
 176 001a 1A4B     		ldr	r3, .L23
 177 001c 4FF40072 		mov	r2, #512
 178 0020 5A83     		strh	r2, [r3, #26]	@ movhi
 179              	.L15:
 180 0022 7B68     		ldr	r3, [r7, #4]
 181 0024 0133     		adds	r3, r3, #1
 182 0026 1B78     		ldrb	r3, [r3]	@ zero_extendqisi2
 183 0028 002B     		cmp	r3, #0
 184 002a 04D0     		beq	.L16
 185 002c 154B     		ldr	r3, .L23
 186 002e 4FF48072 		mov	r2, #256
 187 0032 1A83     		strh	r2, [r3, #24]	@ movhi
 188 0034 03E0     		b	.L17
 189              	.L16:
 190 0036 134B     		ldr	r3, .L23
 191 0038 4FF48072 		mov	r2, #256
 192 003c 5A83     		strh	r2, [r3, #26]	@ movhi
 193              	.L17:
 194 003e 7B68     		ldr	r3, [r7, #4]
 195 0040 0233     		adds	r3, r3, #2
 196 0042 1B78     		ldrb	r3, [r3]	@ zero_extendqisi2
 197 0044 002B     		cmp	r3, #0
 198 0046 04D0     		beq	.L18
 199 0048 0E4B     		ldr	r3, .L23
 200 004a 4FF40062 		mov	r2, #2048
 201 004e 1A83     		strh	r2, [r3, #24]	@ movhi
 202 0050 03E0     		b	.L19
 203              	.L18:
 204 0052 0C4B     		ldr	r3, .L23
 205 0054 4FF40062 		mov	r2, #2048
 206 0058 5A83     		strh	r2, [r3, #26]	@ movhi
 207              	.L19:
 208 005a 7B68     		ldr	r3, [r7, #4]
 209 005c 0333     		adds	r3, r3, #3
 210 005e 1B78     		ldrb	r3, [r3]	@ zero_extendqisi2
 211 0060 002B     		cmp	r3, #0
 212 0062 04D0     		beq	.L20
 213 0064 074B     		ldr	r3, .L23
 214 0066 4FF48062 		mov	r2, #1024
 215 006a 1A83     		strh	r2, [r3, #24]	@ movhi
 216 006c 03E0     		b	.L22
 217              	.L20:
 218 006e 054B     		ldr	r3, .L23
 219 0070 4FF48062 		mov	r2, #1024
 220 0074 5A83     		strh	r2, [r3, #26]	@ movhi
ARM GAS  /var/folders/d2/nstgp4h54kz7g1l847x_b8wc0000gn/T//cciPCYiE.s 			page 5


 221              	.L22:
 222 0076 00BF     		nop
 223 0078 0C37     		adds	r7, r7, #12
 224 007a BD46     		mov	sp, r7
 225              		@ sp needed
 226 007c 5DF8047B 		ldr	r7, [sp], #4
 227 0080 7047     		bx	lr
 228              	.L24:
 229 0082 00BF     		.align	2
 230              	.L23:
 231 0084 00100240 		.word	1073876992
 232              		.size	left_motor_update, .-left_motor_update
 233              		.section	.text.right_motor_timer_callback,"ax",%progbits
 234              		.align	1
 235              		.syntax unified
 236              		.thumb
 237              		.thumb_func
 238              		.fpu fpv4-sp-d16
 239              		.type	right_motor_timer_callback, %function
 240              	right_motor_timer_callback:
 241              		@ args = 0, pretend = 0, frame = 16
 242              		@ frame_needed = 1, uses_anonymous_args = 0
 243 0000 80B5     		push	{r7, lr}
 244 0002 84B0     		sub	sp, sp, #16
 245 0004 00AF     		add	r7, sp, #0
 246 0006 7860     		str	r0, [r7, #4]
 247 0008 1F4B     		ldr	r3, .L30
 248 000a 1B78     		ldrb	r3, [r3]	@ zero_extendqisi2
 249 000c 022B     		cmp	r3, #2
 250 000e 17D1     		bne	.L26
 251 0010 1D4B     		ldr	r3, .L30
 252 0012 5B78     		ldrb	r3, [r3, #1]	@ zero_extendqisi2
 253 0014 0133     		adds	r3, r3, #1
 254 0016 DBB2     		uxtb	r3, r3
 255 0018 03F00703 		and	r3, r3, #7
 256 001c FB73     		strb	r3, [r7, #15]
 257 001e 1A4B     		ldr	r3, .L30
 258 0020 9B68     		ldr	r3, [r3, #8]
 259 0022 FA7B     		ldrb	r2, [r7, #15]	@ zero_extendqisi2
 260 0024 9200     		lsls	r2, r2, #2
 261 0026 1949     		ldr	r1, .L30+4
 262 0028 0A44     		add	r2, r2, r1
 263 002a 1046     		mov	r0, r2
 264 002c 9847     		blx	r3
 265 002e 164B     		ldr	r3, .L30
 266 0030 5B68     		ldr	r3, [r3, #4]
 267 0032 013B     		subs	r3, r3, #1
 268 0034 144A     		ldr	r2, .L30
 269 0036 5360     		str	r3, [r2, #4]
 270 0038 134A     		ldr	r2, .L30
 271 003a FB7B     		ldrb	r3, [r7, #15]
 272 003c 5370     		strb	r3, [r2, #1]
 273 003e 1FE0     		b	.L29
 274              	.L26:
 275 0040 114B     		ldr	r3, .L30
 276 0042 1B78     		ldrb	r3, [r3]	@ zero_extendqisi2
 277 0044 012B     		cmp	r3, #1
ARM GAS  /var/folders/d2/nstgp4h54kz7g1l847x_b8wc0000gn/T//cciPCYiE.s 			page 6


 278 0046 17D1     		bne	.L28
 279 0048 0F4B     		ldr	r3, .L30
 280 004a 5B78     		ldrb	r3, [r3, #1]	@ zero_extendqisi2
 281 004c 013B     		subs	r3, r3, #1
 282 004e DBB2     		uxtb	r3, r3
 283 0050 03F00703 		and	r3, r3, #7
 284 0054 FB73     		strb	r3, [r7, #15]
 285 0056 0C4B     		ldr	r3, .L30
 286 0058 9B68     		ldr	r3, [r3, #8]
 287 005a FA7B     		ldrb	r2, [r7, #15]	@ zero_extendqisi2
 288 005c 9200     		lsls	r2, r2, #2
 289 005e 0B49     		ldr	r1, .L30+4
 290 0060 0A44     		add	r2, r2, r1
 291 0062 1046     		mov	r0, r2
 292 0064 9847     		blx	r3
 293 0066 084B     		ldr	r3, .L30
 294 0068 5B68     		ldr	r3, [r3, #4]
 295 006a 0133     		adds	r3, r3, #1
 296 006c 064A     		ldr	r2, .L30
 297 006e 5360     		str	r3, [r2, #4]
 298 0070 054A     		ldr	r2, .L30
 299 0072 FB7B     		ldrb	r3, [r7, #15]
 300 0074 5370     		strb	r3, [r2, #1]
 301 0076 03E0     		b	.L29
 302              	.L28:
 303 0078 034B     		ldr	r3, .L30
 304 007a 9B68     		ldr	r3, [r3, #8]
 305 007c 0448     		ldr	r0, .L30+8
 306 007e 9847     		blx	r3
 307              	.L29:
 308 0080 00BF     		nop
 309 0082 1037     		adds	r7, r7, #16
 310 0084 BD46     		mov	sp, r7
 311              		@ sp needed
 312 0086 80BD     		pop	{r7, pc}
 313              	.L31:
 314              		.align	2
 315              	.L30:
 316 0088 00000000 		.word	right_motor
 317 008c 00000000 		.word	step_table
 318 0090 00000000 		.word	step_halt
 319              		.size	right_motor_timer_callback, .-right_motor_timer_callback
 320              		.section	.text.left_motor_timer_callback,"ax",%progbits
 321              		.align	1
 322              		.syntax unified
 323              		.thumb
 324              		.thumb_func
 325              		.fpu fpv4-sp-d16
 326              		.type	left_motor_timer_callback, %function
 327              	left_motor_timer_callback:
 328              		@ args = 0, pretend = 0, frame = 16
 329              		@ frame_needed = 1, uses_anonymous_args = 0
 330 0000 80B5     		push	{r7, lr}
 331 0002 84B0     		sub	sp, sp, #16
 332 0004 00AF     		add	r7, sp, #0
 333 0006 7860     		str	r0, [r7, #4]
 334 0008 1F4B     		ldr	r3, .L37
ARM GAS  /var/folders/d2/nstgp4h54kz7g1l847x_b8wc0000gn/T//cciPCYiE.s 			page 7


 335 000a 1B78     		ldrb	r3, [r3]	@ zero_extendqisi2
 336 000c 012B     		cmp	r3, #1
 337 000e 17D1     		bne	.L33
 338 0010 1D4B     		ldr	r3, .L37
 339 0012 5B78     		ldrb	r3, [r3, #1]	@ zero_extendqisi2
 340 0014 0133     		adds	r3, r3, #1
 341 0016 DBB2     		uxtb	r3, r3
 342 0018 03F00703 		and	r3, r3, #7
 343 001c FB73     		strb	r3, [r7, #15]
 344 001e 1A4B     		ldr	r3, .L37
 345 0020 9B68     		ldr	r3, [r3, #8]
 346 0022 FA7B     		ldrb	r2, [r7, #15]	@ zero_extendqisi2
 347 0024 9200     		lsls	r2, r2, #2
 348 0026 1949     		ldr	r1, .L37+4
 349 0028 0A44     		add	r2, r2, r1
 350 002a 1046     		mov	r0, r2
 351 002c 9847     		blx	r3
 352 002e 164B     		ldr	r3, .L37
 353 0030 5B68     		ldr	r3, [r3, #4]
 354 0032 0133     		adds	r3, r3, #1
 355 0034 144A     		ldr	r2, .L37
 356 0036 5360     		str	r3, [r2, #4]
 357 0038 134A     		ldr	r2, .L37
 358 003a FB7B     		ldrb	r3, [r7, #15]
 359 003c 5370     		strb	r3, [r2, #1]
 360 003e 1FE0     		b	.L36
 361              	.L33:
 362 0040 114B     		ldr	r3, .L37
 363 0042 1B78     		ldrb	r3, [r3]	@ zero_extendqisi2
 364 0044 022B     		cmp	r3, #2
 365 0046 17D1     		bne	.L35
 366 0048 0F4B     		ldr	r3, .L37
 367 004a 5B78     		ldrb	r3, [r3, #1]	@ zero_extendqisi2
 368 004c 013B     		subs	r3, r3, #1
 369 004e DBB2     		uxtb	r3, r3
 370 0050 03F00703 		and	r3, r3, #7
 371 0054 FB73     		strb	r3, [r7, #15]
 372 0056 0C4B     		ldr	r3, .L37
 373 0058 9B68     		ldr	r3, [r3, #8]
 374 005a FA7B     		ldrb	r2, [r7, #15]	@ zero_extendqisi2
 375 005c 9200     		lsls	r2, r2, #2
 376 005e 0B49     		ldr	r1, .L37+4
 377 0060 0A44     		add	r2, r2, r1
 378 0062 1046     		mov	r0, r2
 379 0064 9847     		blx	r3
 380 0066 084B     		ldr	r3, .L37
 381 0068 5B68     		ldr	r3, [r3, #4]
 382 006a 013B     		subs	r3, r3, #1
 383 006c 064A     		ldr	r2, .L37
 384 006e 5360     		str	r3, [r2, #4]
 385 0070 054A     		ldr	r2, .L37
 386 0072 FB7B     		ldrb	r3, [r7, #15]
 387 0074 5370     		strb	r3, [r2, #1]
 388 0076 03E0     		b	.L36
 389              	.L35:
 390 0078 034B     		ldr	r3, .L37
 391 007a 9B68     		ldr	r3, [r3, #8]
ARM GAS  /var/folders/d2/nstgp4h54kz7g1l847x_b8wc0000gn/T//cciPCYiE.s 			page 8


 392 007c 0448     		ldr	r0, .L37+8
 393 007e 9847     		blx	r3
 394              	.L36:
 395 0080 00BF     		nop
 396 0082 1037     		adds	r7, r7, #16
 397 0084 BD46     		mov	sp, r7
 398              		@ sp needed
 399 0086 80BD     		pop	{r7, pc}
 400              	.L38:
 401              		.align	2
 402              	.L37:
 403 0088 00000000 		.word	left_motor
 404 008c 00000000 		.word	step_table
 405 0090 00000000 		.word	step_halt
 406              		.size	left_motor_timer_callback, .-left_motor_timer_callback
 407              		.section	.text.right_motor_pwm_ch1_cb,"ax",%progbits
 408              		.align	1
 409              		.syntax unified
 410              		.thumb
 411              		.thumb_func
 412              		.fpu fpv4-sp-d16
 413              		.type	right_motor_pwm_ch1_cb, %function
 414              	right_motor_pwm_ch1_cb:
 415              		@ args = 0, pretend = 0, frame = 8
 416              		@ frame_needed = 1, uses_anonymous_args = 0
 417              		@ link register save eliminated.
 418 0000 80B4     		push	{r7}
 419 0002 83B0     		sub	sp, sp, #12
 420 0004 00AF     		add	r7, sp, #0
 421 0006 7860     		str	r0, [r7, #4]
 422 0008 0A4B     		ldr	r3, .L40
 423 000a 4FF40052 		mov	r2, #8192
 424 000e 5A83     		strh	r2, [r3, #26]	@ movhi
 425 0010 084B     		ldr	r3, .L40
 426 0012 4FF48052 		mov	r2, #4096
 427 0016 5A83     		strh	r2, [r3, #26]	@ movhi
 428 0018 064B     		ldr	r3, .L40
 429 001a 4FF48042 		mov	r2, #16384
 430 001e 5A83     		strh	r2, [r3, #26]	@ movhi
 431 0020 044B     		ldr	r3, .L40
 432 0022 4FF40042 		mov	r2, #32768
 433 0026 5A83     		strh	r2, [r3, #26]	@ movhi
 434 0028 00BF     		nop
 435 002a 0C37     		adds	r7, r7, #12
 436 002c BD46     		mov	sp, r7
 437              		@ sp needed
 438 002e 5DF8047B 		ldr	r7, [sp], #4
 439 0032 7047     		bx	lr
 440              	.L41:
 441              		.align	2
 442              	.L40:
 443 0034 00100240 		.word	1073876992
 444              		.size	right_motor_pwm_ch1_cb, .-right_motor_pwm_ch1_cb
 445              		.section	.text.left_motor_pwm_ch1_cb,"ax",%progbits
 446              		.align	1
 447              		.syntax unified
 448              		.thumb
ARM GAS  /var/folders/d2/nstgp4h54kz7g1l847x_b8wc0000gn/T//cciPCYiE.s 			page 9


 449              		.thumb_func
 450              		.fpu fpv4-sp-d16
 451              		.type	left_motor_pwm_ch1_cb, %function
 452              	left_motor_pwm_ch1_cb:
 453              		@ args = 0, pretend = 0, frame = 8
 454              		@ frame_needed = 1, uses_anonymous_args = 0
 455              		@ link register save eliminated.
 456 0000 80B4     		push	{r7}
 457 0002 83B0     		sub	sp, sp, #12
 458 0004 00AF     		add	r7, sp, #0
 459 0006 7860     		str	r0, [r7, #4]
 460 0008 0A4B     		ldr	r3, .L43
 461 000a 4FF40072 		mov	r2, #512
 462 000e 5A83     		strh	r2, [r3, #26]	@ movhi
 463 0010 084B     		ldr	r3, .L43
 464 0012 4FF48072 		mov	r2, #256
 465 0016 5A83     		strh	r2, [r3, #26]	@ movhi
 466 0018 064B     		ldr	r3, .L43
 467 001a 4FF40062 		mov	r2, #2048
 468 001e 5A83     		strh	r2, [r3, #26]	@ movhi
 469 0020 044B     		ldr	r3, .L43
 470 0022 4FF48062 		mov	r2, #1024
 471 0026 5A83     		strh	r2, [r3, #26]	@ movhi
 472 0028 00BF     		nop
 473 002a 0C37     		adds	r7, r7, #12
 474 002c BD46     		mov	sp, r7
 475              		@ sp needed
 476 002e 5DF8047B 		ldr	r7, [sp], #4
 477 0032 7047     		bx	lr
 478              	.L44:
 479              		.align	2
 480              	.L43:
 481 0034 00100240 		.word	1073876992
 482              		.size	left_motor_pwm_ch1_cb, .-left_motor_pwm_ch1_cb
 483              		.section	.text.right_motor_enable_power_save,"ax",%progbits
 484              		.align	1
 485              		.global	right_motor_enable_power_save
 486              		.syntax unified
 487              		.thumb
 488              		.thumb_func
 489              		.fpu fpv4-sp-d16
 490              		.type	right_motor_enable_power_save, %function
 491              	right_motor_enable_power_save:
 492              		@ args = 0, pretend = 0, frame = 0
 493              		@ frame_needed = 1, uses_anonymous_args = 0
 494 0000 80B5     		push	{r7, lr}
 495 0002 00AF     		add	r7, sp, #0
 496 0004 9922     		movs	r2, #153
 497 0006 0021     		movs	r1, #0
 498 0008 0448     		ldr	r0, .L46
 499 000a FFF7FEFF 		bl	pwmEnableChannel
 500 000e 0021     		movs	r1, #0
 501 0010 0248     		ldr	r0, .L46
 502 0012 FFF7FEFF 		bl	pwmEnableChannelNotification
 503 0016 00BF     		nop
 504 0018 80BD     		pop	{r7, pc}
 505              	.L47:
ARM GAS  /var/folders/d2/nstgp4h54kz7g1l847x_b8wc0000gn/T//cciPCYiE.s 			page 10


 506 001a 00BF     		.align	2
 507              	.L46:
 508 001c 00000000 		.word	PWMD3
 509              		.size	right_motor_enable_power_save, .-right_motor_enable_power_save
 510              		.section	.text.left_motor_enable_power_save,"ax",%progbits
 511              		.align	1
 512              		.global	left_motor_enable_power_save
 513              		.syntax unified
 514              		.thumb
 515              		.thumb_func
 516              		.fpu fpv4-sp-d16
 517              		.type	left_motor_enable_power_save, %function
 518              	left_motor_enable_power_save:
 519              		@ args = 0, pretend = 0, frame = 0
 520              		@ frame_needed = 1, uses_anonymous_args = 0
 521 0000 80B5     		push	{r7, lr}
 522 0002 00AF     		add	r7, sp, #0
 523 0004 9922     		movs	r2, #153
 524 0006 0021     		movs	r1, #0
 525 0008 0448     		ldr	r0, .L49
 526 000a FFF7FEFF 		bl	pwmEnableChannel
 527 000e 0021     		movs	r1, #0
 528 0010 0248     		ldr	r0, .L49
 529 0012 FFF7FEFF 		bl	pwmEnableChannelNotification
 530 0016 00BF     		nop
 531 0018 80BD     		pop	{r7, pc}
 532              	.L50:
 533 001a 00BF     		.align	2
 534              	.L49:
 535 001c 00000000 		.word	PWMD4
 536              		.size	left_motor_enable_power_save, .-left_motor_enable_power_save
 537              		.section	.text.right_motor_disable_power_save,"ax",%progbits
 538              		.align	1
 539              		.global	right_motor_disable_power_save
 540              		.syntax unified
 541              		.thumb
 542              		.thumb_func
 543              		.fpu fpv4-sp-d16
 544              		.type	right_motor_disable_power_save, %function
 545              	right_motor_disable_power_save:
 546              		@ args = 0, pretend = 0, frame = 0
 547              		@ frame_needed = 1, uses_anonymous_args = 0
 548 0000 80B5     		push	{r7, lr}
 549 0002 00AF     		add	r7, sp, #0
 550 0004 0021     		movs	r1, #0
 551 0006 0248     		ldr	r0, .L52
 552 0008 FFF7FEFF 		bl	pwmDisableChannel
 553 000c 00BF     		nop
 554 000e 80BD     		pop	{r7, pc}
 555              	.L53:
 556              		.align	2
 557              	.L52:
 558 0010 00000000 		.word	PWMD3
 559              		.size	right_motor_disable_power_save, .-right_motor_disable_power_save
 560              		.section	.text.left_motor_disable_power_save,"ax",%progbits
 561              		.align	1
 562              		.global	left_motor_disable_power_save
ARM GAS  /var/folders/d2/nstgp4h54kz7g1l847x_b8wc0000gn/T//cciPCYiE.s 			page 11


 563              		.syntax unified
 564              		.thumb
 565              		.thumb_func
 566              		.fpu fpv4-sp-d16
 567              		.type	left_motor_disable_power_save, %function
 568              	left_motor_disable_power_save:
 569              		@ args = 0, pretend = 0, frame = 0
 570              		@ frame_needed = 1, uses_anonymous_args = 0
 571 0000 80B5     		push	{r7, lr}
 572 0002 00AF     		add	r7, sp, #0
 573 0004 0021     		movs	r1, #0
 574 0006 0248     		ldr	r0, .L55
 575 0008 FFF7FEFF 		bl	pwmDisableChannel
 576 000c 00BF     		nop
 577 000e 80BD     		pop	{r7, pc}
 578              	.L56:
 579              		.align	2
 580              	.L55:
 581 0010 00000000 		.word	PWMD4
 582              		.size	left_motor_disable_power_save, .-left_motor_disable_power_save
 583              		.section	.text.motor_set_speed,"ax",%progbits
 584              		.align	1
 585              		.global	motor_set_speed
 586              		.syntax unified
 587              		.thumb
 588              		.thumb_func
 589              		.fpu fpv4-sp-d16
 590              		.type	motor_set_speed, %function
 591              	motor_set_speed:
 592              		@ args = 0, pretend = 0, frame = 16
 593              		@ frame_needed = 1, uses_anonymous_args = 0
 594 0000 80B5     		push	{r7, lr}
 595 0002 84B0     		sub	sp, sp, #16
 596 0004 00AF     		add	r7, sp, #0
 597 0006 7860     		str	r0, [r7, #4]
 598 0008 3960     		str	r1, [r7]
 599 000a 3B68     		ldr	r3, [r7]
 600 000c 40F24C42 		movw	r2, #1100
 601 0010 9342     		cmp	r3, r2
 602 0012 03DD     		ble	.L58
 603 0014 40F24C43 		movw	r3, #1100
 604 0018 3B60     		str	r3, [r7]
 605 001a 05E0     		b	.L59
 606              	.L58:
 607 001c 3B68     		ldr	r3, [r7]
 608 001e 204A     		ldr	r2, .L65
 609 0020 9342     		cmp	r3, r2
 610 0022 01DA     		bge	.L59
 611 0024 1E4B     		ldr	r3, .L65
 612 0026 3B60     		str	r3, [r7]
 613              	.L59:
 614 0028 7B68     		ldr	r3, [r7, #4]
 615 002a 3A68     		ldr	r2, [r7]
 616 002c 9A61     		str	r2, [r3, #24]
 617 002e 3B68     		ldr	r3, [r7]
 618 0030 5B00     		lsls	r3, r3, #1
 619 0032 3B60     		str	r3, [r7]
ARM GAS  /var/folders/d2/nstgp4h54kz7g1l847x_b8wc0000gn/T//cciPCYiE.s 			page 12


 620 0034 3B68     		ldr	r3, [r7]
 621 0036 002B     		cmp	r3, #0
 622 0038 09D1     		bne	.L60
 623 003a 7B68     		ldr	r3, [r7, #4]
 624 003c 0022     		movs	r2, #0
 625 003e 1A70     		strb	r2, [r3]
 626 0040 4FF47A73 		mov	r3, #1000
 627 0044 FB81     		strh	r3, [r7, #14]	@ movhi
 628 0046 7B68     		ldr	r3, [r7, #4]
 629 0048 1B69     		ldr	r3, [r3, #16]
 630 004a 9847     		blx	r3
 631 004c 1DE0     		b	.L61
 632              	.L60:
 633 004e 3B68     		ldr	r3, [r7]
 634 0050 002B     		cmp	r3, #0
 635 0052 03DD     		ble	.L62
 636 0054 7B68     		ldr	r3, [r7, #4]
 637 0056 0122     		movs	r2, #1
 638 0058 1A70     		strb	r2, [r3]
 639 005a 05E0     		b	.L63
 640              	.L62:
 641 005c 7B68     		ldr	r3, [r7, #4]
 642 005e 0222     		movs	r2, #2
 643 0060 1A70     		strb	r2, [r3]
 644 0062 3B68     		ldr	r3, [r7]
 645 0064 5B42     		negs	r3, r3
 646 0066 3B60     		str	r3, [r7]
 647              	.L63:
 648 0068 0E4A     		ldr	r2, .L65+4
 649 006a 3B68     		ldr	r3, [r7]
 650 006c 92FBF3F3 		sdiv	r3, r2, r3
 651 0070 FB81     		strh	r3, [r7, #14]	@ movhi
 652 0072 3B68     		ldr	r3, [r7]
 653 0074 40F28922 		movw	r2, #649
 654 0078 9342     		cmp	r3, r2
 655 007a 03DC     		bgt	.L64
 656 007c 7B68     		ldr	r3, [r7, #4]
 657 007e DB68     		ldr	r3, [r3, #12]
 658 0080 9847     		blx	r3
 659 0082 02E0     		b	.L61
 660              	.L64:
 661 0084 7B68     		ldr	r3, [r7, #4]
 662 0086 1B69     		ldr	r3, [r3, #16]
 663 0088 9847     		blx	r3
 664              	.L61:
 665 008a 7B68     		ldr	r3, [r7, #4]
 666 008c 5B69     		ldr	r3, [r3, #20]
 667 008e FA89     		ldrh	r2, [r7, #14]
 668 0090 1146     		mov	r1, r2
 669 0092 1846     		mov	r0, r3
 670 0094 FFF7FEFF 		bl	pwmChangePeriod
 671 0098 00BF     		nop
 672 009a 1037     		adds	r7, r7, #16
 673 009c BD46     		mov	sp, r7
 674              		@ sp needed
 675 009e 80BD     		pop	{r7, pc}
 676              	.L66:
ARM GAS  /var/folders/d2/nstgp4h54kz7g1l847x_b8wc0000gn/T//cciPCYiE.s 			page 13


 677              		.align	2
 678              	.L65:
 679 00a0 B4FBFFFF 		.word	-1100
 680 00a4 A0860100 		.word	100000
 681              		.size	motor_set_speed, .-motor_set_speed
 682              		.section	.text.left_motor_set_speed,"ax",%progbits
 683              		.align	1
 684              		.global	left_motor_set_speed
 685              		.syntax unified
 686              		.thumb
 687              		.thumb_func
 688              		.fpu fpv4-sp-d16
 689              		.type	left_motor_set_speed, %function
 690              	left_motor_set_speed:
 691              		@ args = 0, pretend = 0, frame = 8
 692              		@ frame_needed = 1, uses_anonymous_args = 0
 693 0000 80B5     		push	{r7, lr}
 694 0002 82B0     		sub	sp, sp, #8
 695 0004 00AF     		add	r7, sp, #0
 696 0006 7860     		str	r0, [r7, #4]
 697 0008 7968     		ldr	r1, [r7, #4]
 698 000a 0348     		ldr	r0, .L68
 699 000c FFF7FEFF 		bl	motor_set_speed
 700 0010 00BF     		nop
 701 0012 0837     		adds	r7, r7, #8
 702 0014 BD46     		mov	sp, r7
 703              		@ sp needed
 704 0016 80BD     		pop	{r7, pc}
 705              	.L69:
 706              		.align	2
 707              	.L68:
 708 0018 00000000 		.word	left_motor
 709              		.size	left_motor_set_speed, .-left_motor_set_speed
 710              		.section	.text.right_motor_set_speed,"ax",%progbits
 711              		.align	1
 712              		.global	right_motor_set_speed
 713              		.syntax unified
 714              		.thumb
 715              		.thumb_func
 716              		.fpu fpv4-sp-d16
 717              		.type	right_motor_set_speed, %function
 718              	right_motor_set_speed:
 719              		@ args = 0, pretend = 0, frame = 8
 720              		@ frame_needed = 1, uses_anonymous_args = 0
 721 0000 80B5     		push	{r7, lr}
 722 0002 82B0     		sub	sp, sp, #8
 723 0004 00AF     		add	r7, sp, #0
 724 0006 7860     		str	r0, [r7, #4]
 725 0008 7968     		ldr	r1, [r7, #4]
 726 000a 0348     		ldr	r0, .L71
 727 000c FFF7FEFF 		bl	motor_set_speed
 728 0010 00BF     		nop
 729 0012 0837     		adds	r7, r7, #8
 730 0014 BD46     		mov	sp, r7
 731              		@ sp needed
 732 0016 80BD     		pop	{r7, pc}
 733              	.L72:
ARM GAS  /var/folders/d2/nstgp4h54kz7g1l847x_b8wc0000gn/T//cciPCYiE.s 			page 14


 734              		.align	2
 735              	.L71:
 736 0018 00000000 		.word	right_motor
 737              		.size	right_motor_set_speed, .-right_motor_set_speed
 738              		.section	.text.left_motor_get_pos,"ax",%progbits
 739              		.align	1
 740              		.global	left_motor_get_pos
 741              		.syntax unified
 742              		.thumb
 743              		.thumb_func
 744              		.fpu fpv4-sp-d16
 745              		.type	left_motor_get_pos, %function
 746              	left_motor_get_pos:
 747              		@ args = 0, pretend = 0, frame = 0
 748              		@ frame_needed = 1, uses_anonymous_args = 0
 749              		@ link register save eliminated.
 750 0000 80B4     		push	{r7}
 751 0002 00AF     		add	r7, sp, #0
 752 0004 044B     		ldr	r3, .L75
 753 0006 5B68     		ldr	r3, [r3, #4]
 754 0008 DA0F     		lsrs	r2, r3, #31
 755 000a 1344     		add	r3, r3, r2
 756 000c 5B10     		asrs	r3, r3, #1
 757 000e 1846     		mov	r0, r3
 758 0010 BD46     		mov	sp, r7
 759              		@ sp needed
 760 0012 5DF8047B 		ldr	r7, [sp], #4
 761 0016 7047     		bx	lr
 762              	.L76:
 763              		.align	2
 764              	.L75:
 765 0018 00000000 		.word	left_motor
 766              		.size	left_motor_get_pos, .-left_motor_get_pos
 767              		.section	.text.right_motor_get_pos,"ax",%progbits
 768              		.align	1
 769              		.global	right_motor_get_pos
 770              		.syntax unified
 771              		.thumb
 772              		.thumb_func
 773              		.fpu fpv4-sp-d16
 774              		.type	right_motor_get_pos, %function
 775              	right_motor_get_pos:
 776              		@ args = 0, pretend = 0, frame = 0
 777              		@ frame_needed = 1, uses_anonymous_args = 0
 778              		@ link register save eliminated.
 779 0000 80B4     		push	{r7}
 780 0002 00AF     		add	r7, sp, #0
 781 0004 044B     		ldr	r3, .L79
 782 0006 5B68     		ldr	r3, [r3, #4]
 783 0008 DA0F     		lsrs	r2, r3, #31
 784 000a 1344     		add	r3, r3, r2
 785 000c 5B10     		asrs	r3, r3, #1
 786 000e 1846     		mov	r0, r3
 787 0010 BD46     		mov	sp, r7
 788              		@ sp needed
 789 0012 5DF8047B 		ldr	r7, [sp], #4
 790 0016 7047     		bx	lr
ARM GAS  /var/folders/d2/nstgp4h54kz7g1l847x_b8wc0000gn/T//cciPCYiE.s 			page 15


 791              	.L80:
 792              		.align	2
 793              	.L79:
 794 0018 00000000 		.word	right_motor
 795              		.size	right_motor_get_pos, .-right_motor_get_pos
 796              		.section	.text.left_motor_set_pos,"ax",%progbits
 797              		.align	1
 798              		.global	left_motor_set_pos
 799              		.syntax unified
 800              		.thumb
 801              		.thumb_func
 802              		.fpu fpv4-sp-d16
 803              		.type	left_motor_set_pos, %function
 804              	left_motor_set_pos:
 805              		@ args = 0, pretend = 0, frame = 8
 806              		@ frame_needed = 1, uses_anonymous_args = 0
 807              		@ link register save eliminated.
 808 0000 80B4     		push	{r7}
 809 0002 83B0     		sub	sp, sp, #12
 810 0004 00AF     		add	r7, sp, #0
 811 0006 7860     		str	r0, [r7, #4]
 812 0008 7B68     		ldr	r3, [r7, #4]
 813 000a 5B00     		lsls	r3, r3, #1
 814 000c 034A     		ldr	r2, .L82
 815 000e 5360     		str	r3, [r2, #4]
 816 0010 00BF     		nop
 817 0012 0C37     		adds	r7, r7, #12
 818 0014 BD46     		mov	sp, r7
 819              		@ sp needed
 820 0016 5DF8047B 		ldr	r7, [sp], #4
 821 001a 7047     		bx	lr
 822              	.L83:
 823              		.align	2
 824              	.L82:
 825 001c 00000000 		.word	left_motor
 826              		.size	left_motor_set_pos, .-left_motor_set_pos
 827              		.section	.text.right_motor_set_pos,"ax",%progbits
 828              		.align	1
 829              		.global	right_motor_set_pos
 830              		.syntax unified
 831              		.thumb
 832              		.thumb_func
 833              		.fpu fpv4-sp-d16
 834              		.type	right_motor_set_pos, %function
 835              	right_motor_set_pos:
 836              		@ args = 0, pretend = 0, frame = 8
 837              		@ frame_needed = 1, uses_anonymous_args = 0
 838              		@ link register save eliminated.
 839 0000 80B4     		push	{r7}
 840 0002 83B0     		sub	sp, sp, #12
 841 0004 00AF     		add	r7, sp, #0
 842 0006 7860     		str	r0, [r7, #4]
 843 0008 7B68     		ldr	r3, [r7, #4]
 844 000a 5B00     		lsls	r3, r3, #1
 845 000c 034A     		ldr	r2, .L85
 846 000e 5360     		str	r3, [r2, #4]
 847 0010 00BF     		nop
ARM GAS  /var/folders/d2/nstgp4h54kz7g1l847x_b8wc0000gn/T//cciPCYiE.s 			page 16


 848 0012 0C37     		adds	r7, r7, #12
 849 0014 BD46     		mov	sp, r7
 850              		@ sp needed
 851 0016 5DF8047B 		ldr	r7, [sp], #4
 852 001a 7047     		bx	lr
 853              	.L86:
 854              		.align	2
 855              	.L85:
 856 001c 00000000 		.word	right_motor
 857              		.size	right_motor_set_pos, .-right_motor_set_pos
 858              		.section	.text.motors_init,"ax",%progbits
 859              		.align	1
 860              		.global	motors_init
 861              		.syntax unified
 862              		.thumb
 863              		.thumb_func
 864              		.fpu fpv4-sp-d16
 865              		.type	motors_init, %function
 866              	motors_init:
 867              		@ args = 0, pretend = 0, frame = 0
 868              		@ frame_needed = 1, uses_anonymous_args = 0
 869 0000 80B5     		push	{r7, lr}
 870 0002 00AF     		add	r7, sp, #0
 871 0004 1F4B     		ldr	r3, .L88
 872 0006 0022     		movs	r2, #0
 873 0008 1A70     		strb	r2, [r3]
 874 000a 1E4B     		ldr	r3, .L88
 875 000c 0022     		movs	r2, #0
 876 000e 5A70     		strb	r2, [r3, #1]
 877 0010 1C4B     		ldr	r3, .L88
 878 0012 0022     		movs	r2, #0
 879 0014 5A60     		str	r2, [r3, #4]
 880 0016 1B4B     		ldr	r3, .L88
 881 0018 1B4A     		ldr	r2, .L88+4
 882 001a 9A60     		str	r2, [r3, #8]
 883 001c 194B     		ldr	r3, .L88
 884 001e 1B4A     		ldr	r2, .L88+8
 885 0020 DA60     		str	r2, [r3, #12]
 886 0022 184B     		ldr	r3, .L88
 887 0024 1A4A     		ldr	r2, .L88+12
 888 0026 1A61     		str	r2, [r3, #16]
 889 0028 164B     		ldr	r3, .L88
 890 002a 1A4A     		ldr	r2, .L88+16
 891 002c 5A61     		str	r2, [r3, #20]
 892 002e 1A4B     		ldr	r3, .L88+20
 893 0030 0022     		movs	r2, #0
 894 0032 1A70     		strb	r2, [r3]
 895 0034 184B     		ldr	r3, .L88+20
 896 0036 0022     		movs	r2, #0
 897 0038 5A70     		strb	r2, [r3, #1]
 898 003a 174B     		ldr	r3, .L88+20
 899 003c 0022     		movs	r2, #0
 900 003e 5A60     		str	r2, [r3, #4]
 901 0040 154B     		ldr	r3, .L88+20
 902 0042 164A     		ldr	r2, .L88+24
 903 0044 9A60     		str	r2, [r3, #8]
 904 0046 144B     		ldr	r3, .L88+20
ARM GAS  /var/folders/d2/nstgp4h54kz7g1l847x_b8wc0000gn/T//cciPCYiE.s 			page 17


 905 0048 154A     		ldr	r2, .L88+28
 906 004a DA60     		str	r2, [r3, #12]
 907 004c 124B     		ldr	r3, .L88+20
 908 004e 154A     		ldr	r2, .L88+32
 909 0050 1A61     		str	r2, [r3, #16]
 910 0052 114B     		ldr	r3, .L88+20
 911 0054 144A     		ldr	r2, .L88+36
 912 0056 5A61     		str	r2, [r3, #20]
 913 0058 1448     		ldr	r0, .L88+40
 914 005a FFF7FEFF 		bl	right_motor_update
 915 005e 1348     		ldr	r0, .L88+40
 916 0060 FFF7FEFF 		bl	left_motor_update
 917 0064 1249     		ldr	r1, .L88+44
 918 0066 0B48     		ldr	r0, .L88+16
 919 0068 FFF7FEFF 		bl	pwmStart
 920 006c 0948     		ldr	r0, .L88+16
 921 006e FFF7FEFF 		bl	pwmEnablePeriodicNotification
 922 0072 1049     		ldr	r1, .L88+48
 923 0074 0C48     		ldr	r0, .L88+36
 924 0076 FFF7FEFF 		bl	pwmStart
 925 007a 0B48     		ldr	r0, .L88+36
 926 007c FFF7FEFF 		bl	pwmEnablePeriodicNotification
 927 0080 00BF     		nop
 928 0082 80BD     		pop	{r7, pc}
 929              	.L89:
 930              		.align	2
 931              	.L88:
 932 0084 00000000 		.word	right_motor
 933 0088 00000000 		.word	right_motor_update
 934 008c 00000000 		.word	right_motor_enable_power_save
 935 0090 00000000 		.word	right_motor_disable_power_save
 936 0094 00000000 		.word	PWMD3
 937 0098 00000000 		.word	left_motor
 938 009c 00000000 		.word	left_motor_update
 939 00a0 00000000 		.word	left_motor_enable_power_save
 940 00a4 00000000 		.word	left_motor_disable_power_save
 941 00a8 00000000 		.word	PWMD4
 942 00ac 00000000 		.word	step_halt
 943 00b0 00000000 		.word	pwmcfg_right_motor.9974
 944 00b4 00000000 		.word	pwmcfg_left_motor.9975
 945              		.size	motors_init, .-motors_init
 946              		.section	.text.left_motor_get_desired_speed,"ax",%progbits
 947              		.align	1
 948              		.global	left_motor_get_desired_speed
 949              		.syntax unified
 950              		.thumb
 951              		.thumb_func
 952              		.fpu fpv4-sp-d16
 953              		.type	left_motor_get_desired_speed, %function
 954              	left_motor_get_desired_speed:
 955              		@ args = 0, pretend = 0, frame = 0
 956              		@ frame_needed = 1, uses_anonymous_args = 0
 957              		@ link register save eliminated.
 958 0000 80B4     		push	{r7}
 959 0002 00AF     		add	r7, sp, #0
 960 0004 034B     		ldr	r3, .L92
 961 0006 9B69     		ldr	r3, [r3, #24]
ARM GAS  /var/folders/d2/nstgp4h54kz7g1l847x_b8wc0000gn/T//cciPCYiE.s 			page 18


 962 0008 1846     		mov	r0, r3
 963 000a BD46     		mov	sp, r7
 964              		@ sp needed
 965 000c 5DF8047B 		ldr	r7, [sp], #4
 966 0010 7047     		bx	lr
 967              	.L93:
 968 0012 00BF     		.align	2
 969              	.L92:
 970 0014 00000000 		.word	left_motor
 971              		.size	left_motor_get_desired_speed, .-left_motor_get_desired_speed
 972              		.section	.text.right_motor_get_desired_speed,"ax",%progbits
 973              		.align	1
 974              		.global	right_motor_get_desired_speed
 975              		.syntax unified
 976              		.thumb
 977              		.thumb_func
 978              		.fpu fpv4-sp-d16
 979              		.type	right_motor_get_desired_speed, %function
 980              	right_motor_get_desired_speed:
 981              		@ args = 0, pretend = 0, frame = 0
 982              		@ frame_needed = 1, uses_anonymous_args = 0
 983              		@ link register save eliminated.
 984 0000 80B4     		push	{r7}
 985 0002 00AF     		add	r7, sp, #0
 986 0004 034B     		ldr	r3, .L96
 987 0006 9B69     		ldr	r3, [r3, #24]
 988 0008 1846     		mov	r0, r3
 989 000a BD46     		mov	sp, r7
 990              		@ sp needed
 991 000c 5DF8047B 		ldr	r7, [sp], #4
 992 0010 7047     		bx	lr
 993              	.L97:
 994 0012 00BF     		.align	2
 995              	.L96:
 996 0014 00000000 		.word	right_motor
 997              		.size	right_motor_get_desired_speed, .-right_motor_get_desired_speed
 998              		.section	.rodata.pwmcfg_right_motor.9974,"a",%progbits
 999              		.align	2
 1000              		.type	pwmcfg_right_motor.9974, %object
 1001              		.size	pwmcfg_right_motor.9974, 52
 1002              	pwmcfg_right_motor.9974:
 1003 0000 A0860100 		.word	100000
 1004 0004 FFFF0000 		.word	65535
 1005 0008 00000000 		.word	right_motor_timer_callback
 1006 000c 01000000 		.word	1
 1007 0010 00000000 		.word	right_motor_pwm_ch1_cb
 1008 0014 00000000 		.word	0
 1009 0018 00000000 		.word	0
 1010 001c 00000000 		.word	0
 1011 0020 00000000 		.word	0
 1012 0024 00000000 		.word	0
 1013 0028 00000000 		.word	0
 1014 002c 00000000 		.word	0
 1015 0030 00000000 		.space	4
 1016              		.section	.rodata.pwmcfg_left_motor.9975,"a",%progbits
 1017              		.align	2
 1018              		.type	pwmcfg_left_motor.9975, %object
ARM GAS  /var/folders/d2/nstgp4h54kz7g1l847x_b8wc0000gn/T//cciPCYiE.s 			page 19


 1019              		.size	pwmcfg_left_motor.9975, 52
 1020              	pwmcfg_left_motor.9975:
 1021 0000 A0860100 		.word	100000
 1022 0004 FFFF0000 		.word	65535
 1023 0008 00000000 		.word	left_motor_timer_callback
 1024 000c 01000000 		.word	1
 1025 0010 00000000 		.word	left_motor_pwm_ch1_cb
 1026 0014 00000000 		.word	0
 1027 0018 00000000 		.word	0
 1028 001c 00000000 		.word	0
 1029 0020 00000000 		.word	0
 1030 0024 00000000 		.word	0
 1031 0028 00000000 		.word	0
 1032 002c 00000000 		.word	0
 1033 0030 00000000 		.space	4
 1034              		.ident	"GCC: (GNU Tools for Arm Embedded Processors 7-2017-q4-major) 7.2.1 20170904 (release) [ARM
ARM GAS  /var/folders/d2/nstgp4h54kz7g1l847x_b8wc0000gn/T//cciPCYiE.s 			page 20

