ARM GAS  /var/folders/d2/nstgp4h54kz7g1l847x_b8wc0000gn/T//ccJ1XQgA.s 			page 1


   1              		.cpu cortex-m4
   2              		.eabi_attribute 27, 1
   3              		.eabi_attribute 28, 1
   4              		.eabi_attribute 20, 1
   5              		.eabi_attribute 21, 1
   6              		.eabi_attribute 23, 3
   7              		.eabi_attribute 24, 1
   8              		.eabi_attribute 25, 1
   9              		.eabi_attribute 26, 1
  10              		.eabi_attribute 30, 6
  11              		.eabi_attribute 34, 1
  12              		.eabi_attribute 18, 4
  13              		.file	"mpu9250.c"
  14              		.section	.data.imu_addr,"aw",%progbits
  15              		.type	imu_addr, %object
  16              		.size	imu_addr, 1
  17              	imu_addr:
  18 0000 68       		.byte	104
  19              		.section	.text.mpu9250_change_addr,"ax",%progbits
  20              		.align	1
  21              		.global	mpu9250_change_addr
  22              		.syntax unified
  23              		.thumb
  24              		.thumb_func
  25              		.fpu fpv4-sp-d16
  26              		.type	mpu9250_change_addr, %function
  27              	mpu9250_change_addr:
  28              		@ args = 0, pretend = 0, frame = 0
  29              		@ frame_needed = 1, uses_anonymous_args = 0
  30              		@ link register save eliminated.
  31 0000 80B4     		push	{r7}
  32 0002 00AF     		add	r7, sp, #0
  33 0004 074B     		ldr	r3, .L5
  34 0006 1B78     		ldrb	r3, [r3]	@ zero_extendqisi2
  35 0008 682B     		cmp	r3, #104
  36 000a 03D1     		bne	.L2
  37 000c 054B     		ldr	r3, .L5
  38 000e 6922     		movs	r2, #105
  39 0010 1A70     		strb	r2, [r3]
  40 0012 02E0     		b	.L4
  41              	.L2:
  42 0014 034B     		ldr	r3, .L5
  43 0016 6822     		movs	r2, #104
  44 0018 1A70     		strb	r2, [r3]
  45              	.L4:
  46 001a 00BF     		nop
  47 001c BD46     		mov	sp, r7
  48              		@ sp needed
  49 001e 5DF8047B 		ldr	r7, [sp], #4
  50 0022 7047     		bx	lr
  51              	.L6:
  52              		.align	2
  53              	.L5:
  54 0024 00000000 		.word	imu_addr
  55              		.size	mpu9250_change_addr, .-mpu9250_change_addr
  56              		.section	.text.mpu9250_read_id,"ax",%progbits
  57              		.align	1
ARM GAS  /var/folders/d2/nstgp4h54kz7g1l847x_b8wc0000gn/T//ccJ1XQgA.s 			page 2


  58              		.global	mpu9250_read_id
  59              		.syntax unified
  60              		.thumb
  61              		.thumb_func
  62              		.fpu fpv4-sp-d16
  63              		.type	mpu9250_read_id, %function
  64              	mpu9250_read_id:
  65              		@ args = 0, pretend = 0, frame = 16
  66              		@ frame_needed = 1, uses_anonymous_args = 0
  67 0000 80B5     		push	{r7, lr}
  68 0002 84B0     		sub	sp, sp, #16
  69 0004 00AF     		add	r7, sp, #0
  70 0006 7860     		str	r0, [r7, #4]
  71 0008 0023     		movs	r3, #0
  72 000a FB73     		strb	r3, [r7, #15]
  73 000c 114B     		ldr	r3, .L10
  74 000e 1B78     		ldrb	r3, [r3]	@ zero_extendqisi2
  75 0010 7A68     		ldr	r2, [r7, #4]
  76 0012 7521     		movs	r1, #117
  77 0014 1846     		mov	r0, r3
  78 0016 FFF7FEFF 		bl	read_reg
  79 001a 0346     		mov	r3, r0
  80 001c FB73     		strb	r3, [r7, #15]
  81 001e 97F90F30 		ldrsb	r3, [r7, #15]
  82 0022 002B     		cmp	r3, #0
  83 0024 11D0     		beq	.L8
  84 0026 FFF7FEFF 		bl	mpu9250_change_addr
  85 002a 0A4B     		ldr	r3, .L10
  86 002c 1B78     		ldrb	r3, [r3]	@ zero_extendqisi2
  87 002e 7A68     		ldr	r2, [r7, #4]
  88 0030 7521     		movs	r1, #117
  89 0032 1846     		mov	r0, r3
  90 0034 FFF7FEFF 		bl	read_reg
  91 0038 0346     		mov	r3, r0
  92 003a FB73     		strb	r3, [r7, #15]
  93 003c 97F90F30 		ldrsb	r3, [r7, #15]
  94 0040 002B     		cmp	r3, #0
  95 0042 02D0     		beq	.L8
  96 0044 97F90F30 		ldrsb	r3, [r7, #15]
  97 0048 00E0     		b	.L9
  98              	.L8:
  99 004a 0023     		movs	r3, #0
 100              	.L9:
 101 004c 1846     		mov	r0, r3
 102 004e 1037     		adds	r7, r7, #16
 103 0050 BD46     		mov	sp, r7
 104              		@ sp needed
 105 0052 80BD     		pop	{r7, pc}
 106              	.L11:
 107              		.align	2
 108              	.L10:
 109 0054 00000000 		.word	imu_addr
 110              		.size	mpu9250_read_id, .-mpu9250_read_id
 111              		.section	.text.read_word,"ax",%progbits
 112              		.align	1
 113              		.syntax unified
 114              		.thumb
ARM GAS  /var/folders/d2/nstgp4h54kz7g1l847x_b8wc0000gn/T//ccJ1XQgA.s 			page 3


 115              		.thumb_func
 116              		.fpu fpv4-sp-d16
 117              		.type	read_word, %function
 118              	read_word:
 119              		@ args = 0, pretend = 0, frame = 8
 120              		@ frame_needed = 1, uses_anonymous_args = 0
 121              		@ link register save eliminated.
 122 0000 80B4     		push	{r7}
 123 0002 83B0     		sub	sp, sp, #12
 124 0004 00AF     		add	r7, sp, #0
 125 0006 7860     		str	r0, [r7, #4]
 126 0008 7B68     		ldr	r3, [r7, #4]
 127 000a 1B78     		ldrb	r3, [r3]	@ zero_extendqisi2
 128 000c 5BB2     		sxtb	r3, r3
 129 000e 1B02     		lsls	r3, r3, #8
 130 0010 7A68     		ldr	r2, [r7, #4]
 131 0012 0132     		adds	r2, r2, #1
 132 0014 1278     		ldrb	r2, [r2]	@ zero_extendqisi2
 133 0016 1343     		orrs	r3, r3, r2
 134 0018 1846     		mov	r0, r3
 135 001a 0C37     		adds	r7, r7, #12
 136 001c BD46     		mov	sp, r7
 137              		@ sp needed
 138 001e 5DF8047B 		ldr	r7, [sp], #4
 139 0022 7047     		bx	lr
 140              		.size	read_word, .-read_word
 141              		.section	.text.mpu9250_setup,"ax",%progbits
 142              		.align	1
 143              		.global	mpu9250_setup
 144              		.syntax unified
 145              		.thumb
 146              		.thumb_func
 147              		.fpu fpv4-sp-d16
 148              		.type	mpu9250_setup, %function
 149              	mpu9250_setup:
 150              		@ args = 0, pretend = 0, frame = 16
 151              		@ frame_needed = 1, uses_anonymous_args = 0
 152 0000 80B5     		push	{r7, lr}
 153 0002 84B0     		sub	sp, sp, #16
 154 0004 00AF     		add	r7, sp, #0
 155 0006 7860     		str	r0, [r7, #4]
 156 0008 0023     		movs	r3, #0
 157 000a FB73     		strb	r3, [r7, #15]
 158 000c 0023     		movs	r3, #0
 159 000e BB73     		strb	r3, [r7, #14]
 160 0010 784B     		ldr	r3, .L28
 161 0012 1B78     		ldrb	r3, [r3]	@ zero_extendqisi2
 162 0014 8022     		movs	r2, #128
 163 0016 6B21     		movs	r1, #107
 164 0018 1846     		mov	r0, r3
 165 001a FFF7FEFF 		bl	write_reg
 166 001e 0346     		mov	r3, r0
 167 0020 FB73     		strb	r3, [r7, #15]
 168 0022 97F90F30 		ldrsb	r3, [r7, #15]
 169 0026 002B     		cmp	r3, #0
 170 0028 11D0     		beq	.L15
 171 002a FFF7FEFF 		bl	mpu9250_change_addr
ARM GAS  /var/folders/d2/nstgp4h54kz7g1l847x_b8wc0000gn/T//ccJ1XQgA.s 			page 4


 172 002e 714B     		ldr	r3, .L28
 173 0030 1B78     		ldrb	r3, [r3]	@ zero_extendqisi2
 174 0032 8022     		movs	r2, #128
 175 0034 6B21     		movs	r1, #107
 176 0036 1846     		mov	r0, r3
 177 0038 FFF7FEFF 		bl	write_reg
 178 003c 0346     		mov	r3, r0
 179 003e FB73     		strb	r3, [r7, #15]
 180 0040 97F90F30 		ldrsb	r3, [r7, #15]
 181 0044 002B     		cmp	r3, #0
 182 0046 02D0     		beq	.L15
 183 0048 97F90F30 		ldrsb	r3, [r7, #15]
 184 004c CEE0     		b	.L25
 185              	.L15:
 186 004e 0120     		movs	r0, #1
 187 0050 FFF7FEFF 		bl	chThdSleep
 188              	.L20:
 189 0054 674B     		ldr	r3, .L28
 190 0056 1B78     		ldrb	r3, [r3]	@ zero_extendqisi2
 191 0058 07F10E02 		add	r2, r7, #14
 192 005c 6B21     		movs	r1, #107
 193 005e 1846     		mov	r0, r3
 194 0060 FFF7FEFF 		bl	read_reg
 195 0064 0346     		mov	r3, r0
 196 0066 FB73     		strb	r3, [r7, #15]
 197 0068 97F90F30 		ldrsb	r3, [r7, #15]
 198 006c 002B     		cmp	r3, #0
 199 006e 12D0     		beq	.L17
 200 0070 FFF7FEFF 		bl	mpu9250_change_addr
 201 0074 5F4B     		ldr	r3, .L28
 202 0076 1B78     		ldrb	r3, [r3]	@ zero_extendqisi2
 203 0078 07F10E02 		add	r2, r7, #14
 204 007c 6B21     		movs	r1, #107
 205 007e 1846     		mov	r0, r3
 206 0080 FFF7FEFF 		bl	read_reg
 207 0084 0346     		mov	r3, r0
 208 0086 FB73     		strb	r3, [r7, #15]
 209 0088 97F90F30 		ldrsb	r3, [r7, #15]
 210 008c 002B     		cmp	r3, #0
 211 008e 02D0     		beq	.L17
 212 0090 97F90F30 		ldrsb	r3, [r7, #15]
 213 0094 AAE0     		b	.L25
 214              	.L17:
 215 0096 BB7B     		ldrb	r3, [r7, #14]	@ zero_extendqisi2
 216 0098 5BB2     		sxtb	r3, r3
 217 009a 002B     		cmp	r3, #0
 218 009c 03DA     		bge	.L27
 219 009e 0120     		movs	r0, #1
 220 00a0 FFF7FEFF 		bl	chThdSleep
 221 00a4 D6E7     		b	.L20
 222              	.L27:
 223 00a6 00BF     		nop
 224 00a8 524B     		ldr	r3, .L28
 225 00aa 1878     		ldrb	r0, [r3]	@ zero_extendqisi2
 226 00ac 7B68     		ldr	r3, [r7, #4]
 227 00ae 5B00     		lsls	r3, r3, #1
 228 00b0 DBB2     		uxtb	r3, r3
ARM GAS  /var/folders/d2/nstgp4h54kz7g1l847x_b8wc0000gn/T//ccJ1XQgA.s 			page 5


 229 00b2 03F01803 		and	r3, r3, #24
 230 00b6 DBB2     		uxtb	r3, r3
 231 00b8 1A46     		mov	r2, r3
 232 00ba 1B21     		movs	r1, #27
 233 00bc FFF7FEFF 		bl	write_reg
 234 00c0 0346     		mov	r3, r0
 235 00c2 FB73     		strb	r3, [r7, #15]
 236 00c4 97F90F30 		ldrsb	r3, [r7, #15]
 237 00c8 002B     		cmp	r3, #0
 238 00ca 16D0     		beq	.L21
 239 00cc FFF7FEFF 		bl	mpu9250_change_addr
 240 00d0 484B     		ldr	r3, .L28
 241 00d2 1878     		ldrb	r0, [r3]	@ zero_extendqisi2
 242 00d4 7B68     		ldr	r3, [r7, #4]
 243 00d6 5B00     		lsls	r3, r3, #1
 244 00d8 DBB2     		uxtb	r3, r3
 245 00da 03F01803 		and	r3, r3, #24
 246 00de DBB2     		uxtb	r3, r3
 247 00e0 1A46     		mov	r2, r3
 248 00e2 1B21     		movs	r1, #27
 249 00e4 FFF7FEFF 		bl	write_reg
 250 00e8 0346     		mov	r3, r0
 251 00ea FB73     		strb	r3, [r7, #15]
 252 00ec 97F90F30 		ldrsb	r3, [r7, #15]
 253 00f0 002B     		cmp	r3, #0
 254 00f2 02D0     		beq	.L21
 255 00f4 97F90F30 		ldrsb	r3, [r7, #15]
 256 00f8 78E0     		b	.L25
 257              	.L21:
 258 00fa 0120     		movs	r0, #1
 259 00fc FFF7FEFF 		bl	chThdSleep
 260 0100 3C4B     		ldr	r3, .L28
 261 0102 1878     		ldrb	r0, [r3]	@ zero_extendqisi2
 262 0104 7B68     		ldr	r3, [r7, #4]
 263 0106 DB00     		lsls	r3, r3, #3
 264 0108 DBB2     		uxtb	r3, r3
 265 010a 03F01803 		and	r3, r3, #24
 266 010e DBB2     		uxtb	r3, r3
 267 0110 1A46     		mov	r2, r3
 268 0112 1C21     		movs	r1, #28
 269 0114 FFF7FEFF 		bl	write_reg
 270 0118 0346     		mov	r3, r0
 271 011a FB73     		strb	r3, [r7, #15]
 272 011c 97F90F30 		ldrsb	r3, [r7, #15]
 273 0120 002B     		cmp	r3, #0
 274 0122 16D0     		beq	.L22
 275 0124 FFF7FEFF 		bl	mpu9250_change_addr
 276 0128 324B     		ldr	r3, .L28
 277 012a 1878     		ldrb	r0, [r3]	@ zero_extendqisi2
 278 012c 7B68     		ldr	r3, [r7, #4]
 279 012e DB00     		lsls	r3, r3, #3
 280 0130 DBB2     		uxtb	r3, r3
 281 0132 03F01803 		and	r3, r3, #24
 282 0136 DBB2     		uxtb	r3, r3
 283 0138 1A46     		mov	r2, r3
 284 013a 1C21     		movs	r1, #28
 285 013c FFF7FEFF 		bl	write_reg
ARM GAS  /var/folders/d2/nstgp4h54kz7g1l847x_b8wc0000gn/T//ccJ1XQgA.s 			page 6


 286 0140 0346     		mov	r3, r0
 287 0142 FB73     		strb	r3, [r7, #15]
 288 0144 97F90F30 		ldrsb	r3, [r7, #15]
 289 0148 002B     		cmp	r3, #0
 290 014a 02D0     		beq	.L22
 291 014c 97F90F30 		ldrsb	r3, [r7, #15]
 292 0150 4CE0     		b	.L25
 293              	.L22:
 294 0152 0120     		movs	r0, #1
 295 0154 FFF7FEFF 		bl	chThdSleep
 296 0158 264B     		ldr	r3, .L28
 297 015a 1878     		ldrb	r0, [r3]	@ zero_extendqisi2
 298 015c 7B68     		ldr	r3, [r7, #4]
 299 015e 1B12     		asrs	r3, r3, #8
 300 0160 DBB2     		uxtb	r3, r3
 301 0162 1A46     		mov	r2, r3
 302 0164 1921     		movs	r1, #25
 303 0166 FFF7FEFF 		bl	write_reg
 304 016a 0346     		mov	r3, r0
 305 016c FB73     		strb	r3, [r7, #15]
 306 016e 97F90F30 		ldrsb	r3, [r7, #15]
 307 0172 002B     		cmp	r3, #0
 308 0174 13D0     		beq	.L23
 309 0176 FFF7FEFF 		bl	mpu9250_change_addr
 310 017a 1E4B     		ldr	r3, .L28
 311 017c 1878     		ldrb	r0, [r3]	@ zero_extendqisi2
 312 017e 7B68     		ldr	r3, [r7, #4]
 313 0180 1B12     		asrs	r3, r3, #8
 314 0182 DBB2     		uxtb	r3, r3
 315 0184 1A46     		mov	r2, r3
 316 0186 1921     		movs	r1, #25
 317 0188 FFF7FEFF 		bl	write_reg
 318 018c 0346     		mov	r3, r0
 319 018e FB73     		strb	r3, [r7, #15]
 320 0190 97F90F30 		ldrsb	r3, [r7, #15]
 321 0194 002B     		cmp	r3, #0
 322 0196 02D0     		beq	.L23
 323 0198 97F90F30 		ldrsb	r3, [r7, #15]
 324 019c 26E0     		b	.L25
 325              	.L23:
 326 019e 0120     		movs	r0, #1
 327 01a0 FFF7FEFF 		bl	chThdSleep
 328 01a4 134B     		ldr	r3, .L28
 329 01a6 1B78     		ldrb	r3, [r3]	@ zero_extendqisi2
 330 01a8 0122     		movs	r2, #1
 331 01aa 3821     		movs	r1, #56
 332 01ac 1846     		mov	r0, r3
 333 01ae FFF7FEFF 		bl	write_reg
 334 01b2 0346     		mov	r3, r0
 335 01b4 FB73     		strb	r3, [r7, #15]
 336 01b6 97F90F30 		ldrsb	r3, [r7, #15]
 337 01ba 002B     		cmp	r3, #0
 338 01bc 11D0     		beq	.L24
 339 01be FFF7FEFF 		bl	mpu9250_change_addr
 340 01c2 0C4B     		ldr	r3, .L28
 341 01c4 1B78     		ldrb	r3, [r3]	@ zero_extendqisi2
 342 01c6 0122     		movs	r2, #1
ARM GAS  /var/folders/d2/nstgp4h54kz7g1l847x_b8wc0000gn/T//ccJ1XQgA.s 			page 7


 343 01c8 3821     		movs	r1, #56
 344 01ca 1846     		mov	r0, r3
 345 01cc FFF7FEFF 		bl	write_reg
 346 01d0 0346     		mov	r3, r0
 347 01d2 FB73     		strb	r3, [r7, #15]
 348 01d4 97F90F30 		ldrsb	r3, [r7, #15]
 349 01d8 002B     		cmp	r3, #0
 350 01da 02D0     		beq	.L24
 351 01dc 97F90F30 		ldrsb	r3, [r7, #15]
 352 01e0 04E0     		b	.L25
 353              	.L24:
 354 01e2 0120     		movs	r0, #1
 355 01e4 FFF7FEFF 		bl	chThdSleep
 356 01e8 97F90F30 		ldrsb	r3, [r7, #15]
 357              	.L25:
 358 01ec 1846     		mov	r0, r3
 359 01ee 1037     		adds	r7, r7, #16
 360 01f0 BD46     		mov	sp, r7
 361              		@ sp needed
 362 01f2 80BD     		pop	{r7, pc}
 363              	.L29:
 364              		.align	2
 365              	.L28:
 366 01f4 00000000 		.word	imu_addr
 367              		.size	mpu9250_setup, .-mpu9250_setup
 368              		.section	.text.mpu9250_magnetometer_setup,"ax",%progbits
 369              		.align	1
 370              		.global	mpu9250_magnetometer_setup
 371              		.syntax unified
 372              		.thumb
 373              		.thumb_func
 374              		.fpu fpv4-sp-d16
 375              		.type	mpu9250_magnetometer_setup, %function
 376              	mpu9250_magnetometer_setup:
 377              		@ args = 0, pretend = 0, frame = 8
 378              		@ frame_needed = 1, uses_anonymous_args = 0
 379 0000 80B5     		push	{r7, lr}
 380 0002 82B0     		sub	sp, sp, #8
 381 0004 00AF     		add	r7, sp, #0
 382 0006 0023     		movs	r3, #0
 383 0008 FB71     		strb	r3, [r7, #7]
 384 000a 7E4B     		ldr	r3, .L40
 385 000c 1B78     		ldrb	r3, [r3]	@ zero_extendqisi2
 386 000e 0222     		movs	r2, #2
 387 0010 3721     		movs	r1, #55
 388 0012 1846     		mov	r0, r3
 389 0014 FFF7FEFF 		bl	write_reg
 390 0018 0346     		mov	r3, r0
 391 001a FB71     		strb	r3, [r7, #7]
 392 001c 97F90730 		ldrsb	r3, [r7, #7]
 393 0020 002B     		cmp	r3, #0
 394 0022 11D0     		beq	.L31
 395 0024 FFF7FEFF 		bl	mpu9250_change_addr
 396 0028 764B     		ldr	r3, .L40
 397 002a 1B78     		ldrb	r3, [r3]	@ zero_extendqisi2
 398 002c 0222     		movs	r2, #2
 399 002e 3721     		movs	r1, #55
ARM GAS  /var/folders/d2/nstgp4h54kz7g1l847x_b8wc0000gn/T//ccJ1XQgA.s 			page 8


 400 0030 1846     		mov	r0, r3
 401 0032 FFF7FEFF 		bl	write_reg
 402 0036 0346     		mov	r3, r0
 403 0038 FB71     		strb	r3, [r7, #7]
 404 003a 97F90730 		ldrsb	r3, [r7, #7]
 405 003e 002B     		cmp	r3, #0
 406 0040 02D0     		beq	.L31
 407 0042 97F90730 		ldrsb	r3, [r7, #7]
 408 0046 D8E0     		b	.L32
 409              	.L31:
 410 0048 1222     		movs	r2, #18
 411 004a 0A21     		movs	r1, #10
 412 004c 0C20     		movs	r0, #12
 413 004e FFF7FEFF 		bl	write_reg
 414 0052 0346     		mov	r3, r0
 415 0054 FB71     		strb	r3, [r7, #7]
 416 0056 97F90730 		ldrsb	r3, [r7, #7]
 417 005a 002B     		cmp	r3, #0
 418 005c 02D0     		beq	.L33
 419 005e 97F90730 		ldrsb	r3, [r7, #7]
 420 0062 CAE0     		b	.L32
 421              	.L33:
 422 0064 674B     		ldr	r3, .L40
 423 0066 1B78     		ldrb	r3, [r3]	@ zero_extendqisi2
 424 0068 0022     		movs	r2, #0
 425 006a 3721     		movs	r1, #55
 426 006c 1846     		mov	r0, r3
 427 006e FFF7FEFF 		bl	write_reg
 428 0072 0346     		mov	r3, r0
 429 0074 FB71     		strb	r3, [r7, #7]
 430 0076 97F90730 		ldrsb	r3, [r7, #7]
 431 007a 002B     		cmp	r3, #0
 432 007c 11D0     		beq	.L34
 433 007e FFF7FEFF 		bl	mpu9250_change_addr
 434 0082 604B     		ldr	r3, .L40
 435 0084 1B78     		ldrb	r3, [r3]	@ zero_extendqisi2
 436 0086 0022     		movs	r2, #0
 437 0088 3721     		movs	r1, #55
 438 008a 1846     		mov	r0, r3
 439 008c FFF7FEFF 		bl	write_reg
 440 0090 0346     		mov	r3, r0
 441 0092 FB71     		strb	r3, [r7, #7]
 442 0094 97F90730 		ldrsb	r3, [r7, #7]
 443 0098 002B     		cmp	r3, #0
 444 009a 02D0     		beq	.L34
 445 009c 97F90730 		ldrsb	r3, [r7, #7]
 446 00a0 ABE0     		b	.L32
 447              	.L34:
 448 00a2 584B     		ldr	r3, .L40
 449 00a4 1B78     		ldrb	r3, [r3]	@ zero_extendqisi2
 450 00a6 5D22     		movs	r2, #93
 451 00a8 2421     		movs	r1, #36
 452 00aa 1846     		mov	r0, r3
 453 00ac FFF7FEFF 		bl	write_reg
 454 00b0 0346     		mov	r3, r0
 455 00b2 FB71     		strb	r3, [r7, #7]
 456 00b4 97F90730 		ldrsb	r3, [r7, #7]
ARM GAS  /var/folders/d2/nstgp4h54kz7g1l847x_b8wc0000gn/T//ccJ1XQgA.s 			page 9


 457 00b8 002B     		cmp	r3, #0
 458 00ba 11D0     		beq	.L35
 459 00bc FFF7FEFF 		bl	mpu9250_change_addr
 460 00c0 504B     		ldr	r3, .L40
 461 00c2 1B78     		ldrb	r3, [r3]	@ zero_extendqisi2
 462 00c4 5D22     		movs	r2, #93
 463 00c6 2421     		movs	r1, #36
 464 00c8 1846     		mov	r0, r3
 465 00ca FFF7FEFF 		bl	write_reg
 466 00ce 0346     		mov	r3, r0
 467 00d0 FB71     		strb	r3, [r7, #7]
 468 00d2 97F90730 		ldrsb	r3, [r7, #7]
 469 00d6 002B     		cmp	r3, #0
 470 00d8 02D0     		beq	.L35
 471 00da 97F90730 		ldrsb	r3, [r7, #7]
 472 00de 8CE0     		b	.L32
 473              	.L35:
 474 00e0 0120     		movs	r0, #1
 475 00e2 FFF7FEFF 		bl	chThdSleep
 476 00e6 474B     		ldr	r3, .L40
 477 00e8 1B78     		ldrb	r3, [r3]	@ zero_extendqisi2
 478 00ea 2022     		movs	r2, #32
 479 00ec 6A21     		movs	r1, #106
 480 00ee 1846     		mov	r0, r3
 481 00f0 FFF7FEFF 		bl	write_reg
 482 00f4 0346     		mov	r3, r0
 483 00f6 FB71     		strb	r3, [r7, #7]
 484 00f8 97F90730 		ldrsb	r3, [r7, #7]
 485 00fc 002B     		cmp	r3, #0
 486 00fe 11D0     		beq	.L36
 487 0100 FFF7FEFF 		bl	mpu9250_change_addr
 488 0104 3F4B     		ldr	r3, .L40
 489 0106 1B78     		ldrb	r3, [r3]	@ zero_extendqisi2
 490 0108 2022     		movs	r2, #32
 491 010a 6A21     		movs	r1, #106
 492 010c 1846     		mov	r0, r3
 493 010e FFF7FEFF 		bl	write_reg
 494 0112 0346     		mov	r3, r0
 495 0114 FB71     		strb	r3, [r7, #7]
 496 0116 97F90730 		ldrsb	r3, [r7, #7]
 497 011a 002B     		cmp	r3, #0
 498 011c 02D0     		beq	.L36
 499 011e 97F90730 		ldrsb	r3, [r7, #7]
 500 0122 6AE0     		b	.L32
 501              	.L36:
 502 0124 0120     		movs	r0, #1
 503 0126 FFF7FEFF 		bl	chThdSleep
 504 012a 364B     		ldr	r3, .L40
 505 012c 1B78     		ldrb	r3, [r3]	@ zero_extendqisi2
 506 012e 8C22     		movs	r2, #140
 507 0130 2521     		movs	r1, #37
 508 0132 1846     		mov	r0, r3
 509 0134 FFF7FEFF 		bl	write_reg
 510 0138 0346     		mov	r3, r0
 511 013a FB71     		strb	r3, [r7, #7]
 512 013c 97F90730 		ldrsb	r3, [r7, #7]
 513 0140 002B     		cmp	r3, #0
ARM GAS  /var/folders/d2/nstgp4h54kz7g1l847x_b8wc0000gn/T//ccJ1XQgA.s 			page 10


 514 0142 11D0     		beq	.L37
 515 0144 FFF7FEFF 		bl	mpu9250_change_addr
 516 0148 2E4B     		ldr	r3, .L40
 517 014a 1B78     		ldrb	r3, [r3]	@ zero_extendqisi2
 518 014c 8C22     		movs	r2, #140
 519 014e 2521     		movs	r1, #37
 520 0150 1846     		mov	r0, r3
 521 0152 FFF7FEFF 		bl	write_reg
 522 0156 0346     		mov	r3, r0
 523 0158 FB71     		strb	r3, [r7, #7]
 524 015a 97F90730 		ldrsb	r3, [r7, #7]
 525 015e 002B     		cmp	r3, #0
 526 0160 02D0     		beq	.L37
 527 0162 97F90730 		ldrsb	r3, [r7, #7]
 528 0166 48E0     		b	.L32
 529              	.L37:
 530 0168 0120     		movs	r0, #1
 531 016a FFF7FEFF 		bl	chThdSleep
 532 016e 254B     		ldr	r3, .L40
 533 0170 1B78     		ldrb	r3, [r3]	@ zero_extendqisi2
 534 0172 0322     		movs	r2, #3
 535 0174 2621     		movs	r1, #38
 536 0176 1846     		mov	r0, r3
 537 0178 FFF7FEFF 		bl	write_reg
 538 017c 0346     		mov	r3, r0
 539 017e FB71     		strb	r3, [r7, #7]
 540 0180 97F90730 		ldrsb	r3, [r7, #7]
 541 0184 002B     		cmp	r3, #0
 542 0186 11D0     		beq	.L38
 543 0188 FFF7FEFF 		bl	mpu9250_change_addr
 544 018c 1D4B     		ldr	r3, .L40
 545 018e 1B78     		ldrb	r3, [r3]	@ zero_extendqisi2
 546 0190 0322     		movs	r2, #3
 547 0192 2621     		movs	r1, #38
 548 0194 1846     		mov	r0, r3
 549 0196 FFF7FEFF 		bl	write_reg
 550 019a 0346     		mov	r3, r0
 551 019c FB71     		strb	r3, [r7, #7]
 552 019e 97F90730 		ldrsb	r3, [r7, #7]
 553 01a2 002B     		cmp	r3, #0
 554 01a4 02D0     		beq	.L38
 555 01a6 97F90730 		ldrsb	r3, [r7, #7]
 556 01aa 26E0     		b	.L32
 557              	.L38:
 558 01ac 0120     		movs	r0, #1
 559 01ae FFF7FEFF 		bl	chThdSleep
 560 01b2 144B     		ldr	r3, .L40
 561 01b4 1B78     		ldrb	r3, [r3]	@ zero_extendqisi2
 562 01b6 8722     		movs	r2, #135
 563 01b8 2721     		movs	r1, #39
 564 01ba 1846     		mov	r0, r3
 565 01bc FFF7FEFF 		bl	write_reg
 566 01c0 0346     		mov	r3, r0
 567 01c2 FB71     		strb	r3, [r7, #7]
 568 01c4 97F90730 		ldrsb	r3, [r7, #7]
 569 01c8 002B     		cmp	r3, #0
 570 01ca 11D0     		beq	.L39
ARM GAS  /var/folders/d2/nstgp4h54kz7g1l847x_b8wc0000gn/T//ccJ1XQgA.s 			page 11


 571 01cc FFF7FEFF 		bl	mpu9250_change_addr
 572 01d0 0C4B     		ldr	r3, .L40
 573 01d2 1B78     		ldrb	r3, [r3]	@ zero_extendqisi2
 574 01d4 8722     		movs	r2, #135
 575 01d6 2721     		movs	r1, #39
 576 01d8 1846     		mov	r0, r3
 577 01da FFF7FEFF 		bl	write_reg
 578 01de 0346     		mov	r3, r0
 579 01e0 FB71     		strb	r3, [r7, #7]
 580 01e2 97F90730 		ldrsb	r3, [r7, #7]
 581 01e6 002B     		cmp	r3, #0
 582 01e8 02D0     		beq	.L39
 583 01ea 97F90730 		ldrsb	r3, [r7, #7]
 584 01ee 04E0     		b	.L32
 585              	.L39:
 586 01f0 0120     		movs	r0, #1
 587 01f2 FFF7FEFF 		bl	chThdSleep
 588 01f6 97F90730 		ldrsb	r3, [r7, #7]
 589              	.L32:
 590 01fa 1846     		mov	r0, r3
 591 01fc 0837     		adds	r7, r7, #8
 592 01fe BD46     		mov	sp, r7
 593              		@ sp needed
 594 0200 80BD     		pop	{r7, pc}
 595              	.L41:
 596 0202 00BF     		.align	2
 597              	.L40:
 598 0204 00000000 		.word	imu_addr
 599              		.size	mpu9250_magnetometer_setup, .-mpu9250_magnetometer_setup
 600              		.section	.text.mpu9250_magnetometer_read_sens_adj,"ax",%progbits
 601              		.align	1
 602              		.global	mpu9250_magnetometer_read_sens_adj
 603              		.syntax unified
 604              		.thumb
 605              		.thumb_func
 606              		.fpu fpv4-sp-d16
 607              		.type	mpu9250_magnetometer_read_sens_adj, %function
 608              	mpu9250_magnetometer_read_sens_adj:
 609              		@ args = 0, pretend = 0, frame = 16
 610              		@ frame_needed = 1, uses_anonymous_args = 0
 611 0000 80B5     		push	{r7, lr}
 612 0002 84B0     		sub	sp, sp, #16
 613 0004 00AF     		add	r7, sp, #0
 614 0006 7860     		str	r0, [r7, #4]
 615 0008 0023     		movs	r3, #0
 616 000a FB73     		strb	r3, [r7, #15]
 617 000c 2E4B     		ldr	r3, .L45
 618 000e 1878     		ldrb	r0, [r3]	@ zero_extendqisi2
 619 0010 0323     		movs	r3, #3
 620 0012 2E4A     		ldr	r2, .L45+4
 621 0014 1021     		movs	r1, #16
 622 0016 FFF7FEFF 		bl	read_reg_multi
 623 001a 0346     		mov	r3, r0
 624 001c FB73     		strb	r3, [r7, #15]
 625 001e 97F90F30 		ldrsb	r3, [r7, #15]
 626 0022 002B     		cmp	r3, #0
 627 0024 11D0     		beq	.L43
ARM GAS  /var/folders/d2/nstgp4h54kz7g1l847x_b8wc0000gn/T//ccJ1XQgA.s 			page 12


 628 0026 FFF7FEFF 		bl	mpu9250_change_addr
 629 002a 274B     		ldr	r3, .L45
 630 002c 1878     		ldrb	r0, [r3]	@ zero_extendqisi2
 631 002e 0323     		movs	r3, #3
 632 0030 264A     		ldr	r2, .L45+4
 633 0032 1021     		movs	r1, #16
 634 0034 FFF7FEFF 		bl	read_reg_multi
 635 0038 0346     		mov	r3, r0
 636 003a FB73     		strb	r3, [r7, #15]
 637 003c 97F90F30 		ldrsb	r3, [r7, #15]
 638 0040 002B     		cmp	r3, #0
 639 0042 02D0     		beq	.L43
 640 0044 97F90F30 		ldrsb	r3, [r7, #15]
 641 0048 39E0     		b	.L44
 642              	.L43:
 643 004a 204B     		ldr	r3, .L45+4
 644 004c 1B78     		ldrb	r3, [r3]	@ zero_extendqisi2
 645 004e 803B     		subs	r3, r3, #128
 646 0050 07EE903A 		vmov	s15, r3	@ int
 647 0054 B8EEE77A 		vcvt.f32.s32	s14, s15
 648 0058 DFED1D6A 		vldr.32	s13, .L45+8
 649 005c C7EE267A 		vdiv.f32	s15, s14, s13
 650 0060 B7EE007A 		vmov.f32	s14, #1.0e+0
 651 0064 77EE877A 		vadd.f32	s15, s15, s14
 652 0068 7B68     		ldr	r3, [r7, #4]
 653 006a C3ED007A 		vstr.32	s15, [r3]
 654 006e 174B     		ldr	r3, .L45+4
 655 0070 5B78     		ldrb	r3, [r3, #1]	@ zero_extendqisi2
 656 0072 803B     		subs	r3, r3, #128
 657 0074 07EE903A 		vmov	s15, r3	@ int
 658 0078 B8EEE77A 		vcvt.f32.s32	s14, s15
 659 007c DFED146A 		vldr.32	s13, .L45+8
 660 0080 C7EE267A 		vdiv.f32	s15, s14, s13
 661 0084 7B68     		ldr	r3, [r7, #4]
 662 0086 0433     		adds	r3, r3, #4
 663 0088 B7EE007A 		vmov.f32	s14, #1.0e+0
 664 008c 77EE877A 		vadd.f32	s15, s15, s14
 665 0090 C3ED007A 		vstr.32	s15, [r3]
 666 0094 0D4B     		ldr	r3, .L45+4
 667 0096 9B78     		ldrb	r3, [r3, #2]	@ zero_extendqisi2
 668 0098 803B     		subs	r3, r3, #128
 669 009a 07EE903A 		vmov	s15, r3	@ int
 670 009e B8EEE77A 		vcvt.f32.s32	s14, s15
 671 00a2 DFED0B6A 		vldr.32	s13, .L45+8
 672 00a6 C7EE267A 		vdiv.f32	s15, s14, s13
 673 00aa 7B68     		ldr	r3, [r7, #4]
 674 00ac 0833     		adds	r3, r3, #8
 675 00ae B7EE007A 		vmov.f32	s14, #1.0e+0
 676 00b2 77EE877A 		vadd.f32	s15, s15, s14
 677 00b6 C3ED007A 		vstr.32	s15, [r3]
 678 00ba 97F90F30 		ldrsb	r3, [r7, #15]
 679              	.L44:
 680 00be 1846     		mov	r0, r3
 681 00c0 1037     		adds	r7, r7, #16
 682 00c2 BD46     		mov	sp, r7
 683              		@ sp needed
 684 00c4 80BD     		pop	{r7, pc}
ARM GAS  /var/folders/d2/nstgp4h54kz7g1l847x_b8wc0000gn/T//ccJ1XQgA.s 			page 13


 685              	.L46:
 686 00c6 00BF     		.align	2
 687              	.L45:
 688 00c8 00000000 		.word	imu_addr
 689 00cc 00000000 		.word	buf.10612
 690 00d0 00008043 		.word	1132462080
 691              		.size	mpu9250_magnetometer_read_sens_adj, .-mpu9250_magnetometer_read_sens_adj
 692              		.section	.text.mpu9250_ping,"ax",%progbits
 693              		.align	1
 694              		.global	mpu9250_ping
 695              		.syntax unified
 696              		.thumb
 697              		.thumb_func
 698              		.fpu fpv4-sp-d16
 699              		.type	mpu9250_ping, %function
 700              	mpu9250_ping:
 701              		@ args = 0, pretend = 0, frame = 8
 702              		@ frame_needed = 1, uses_anonymous_args = 0
 703 0000 80B5     		push	{r7, lr}
 704 0002 82B0     		sub	sp, sp, #8
 705 0004 00AF     		add	r7, sp, #0
 706 0006 0023     		movs	r3, #0
 707 0008 FB71     		strb	r3, [r7, #7]
 708 000a FB1D     		adds	r3, r7, #7
 709 000c 1846     		mov	r0, r3
 710 000e FFF7FEFF 		bl	mpu9250_read_id
 711 0012 FB79     		ldrb	r3, [r7, #7]	@ zero_extendqisi2
 712 0014 682B     		cmp	r3, #104
 713 0016 0CBF     		ite	eq
 714 0018 0123     		moveq	r3, #1
 715 001a 0023     		movne	r3, #0
 716 001c DBB2     		uxtb	r3, r3
 717 001e 1846     		mov	r0, r3
 718 0020 0837     		adds	r7, r7, #8
 719 0022 BD46     		mov	sp, r7
 720              		@ sp needed
 721 0024 80BD     		pop	{r7, pc}
 722              		.size	mpu9250_ping, .-mpu9250_ping
 723              		.section	.text.mpu9250_read,"ax",%progbits
 724              		.align	1
 725              		.global	mpu9250_read
 726              		.syntax unified
 727              		.thumb
 728              		.thumb_func
 729              		.fpu fpv4-sp-d16
 730              		.type	mpu9250_read, %function
 731              	mpu9250_read:
 732              		@ args = 20, pretend = 0, frame = 24
 733              		@ frame_needed = 1, uses_anonymous_args = 0
 734 0000 80B5     		push	{r7, lr}
 735 0002 86B0     		sub	sp, sp, #24
 736 0004 00AF     		add	r7, sp, #0
 737 0006 F860     		str	r0, [r7, #12]
 738 0008 B960     		str	r1, [r7, #8]
 739 000a 7A60     		str	r2, [r7, #4]
 740 000c 3B60     		str	r3, [r7]
 741 000e 0023     		movs	r3, #0
ARM GAS  /var/folders/d2/nstgp4h54kz7g1l847x_b8wc0000gn/T//ccJ1XQgA.s 			page 14


 742 0010 FB75     		strb	r3, [r7, #23]
 743 0012 A54B     		ldr	r3, .L57
 744 0014 1878     		ldrb	r0, [r3]	@ zero_extendqisi2
 745 0016 1623     		movs	r3, #22
 746 0018 A44A     		ldr	r2, .L57+4
 747 001a 3A21     		movs	r1, #58
 748 001c FFF7FEFF 		bl	read_reg_multi
 749 0020 0346     		mov	r3, r0
 750 0022 FB75     		strb	r3, [r7, #23]
 751 0024 97F91730 		ldrsb	r3, [r7, #23]
 752 0028 002B     		cmp	r3, #0
 753 002a 11D0     		beq	.L50
 754 002c FFF7FEFF 		bl	mpu9250_change_addr
 755 0030 9D4B     		ldr	r3, .L57
 756 0032 1878     		ldrb	r0, [r3]	@ zero_extendqisi2
 757 0034 1623     		movs	r3, #22
 758 0036 9D4A     		ldr	r2, .L57+4
 759 0038 3A21     		movs	r1, #58
 760 003a FFF7FEFF 		bl	read_reg_multi
 761 003e 0346     		mov	r3, r0
 762 0040 FB75     		strb	r3, [r7, #23]
 763 0042 97F91730 		ldrsb	r3, [r7, #23]
 764 0046 002B     		cmp	r3, #0
 765 0048 02D0     		beq	.L50
 766 004a 97F91730 		ldrsb	r3, [r7, #23]
 767 004e 26E1     		b	.L51
 768              	.L50:
 769 0050 3B6B     		ldr	r3, [r7, #48]
 770 0052 002B     		cmp	r3, #0
 771 0054 03D0     		beq	.L52
 772 0056 954B     		ldr	r3, .L57+4
 773 0058 1A78     		ldrb	r2, [r3]	@ zero_extendqisi2
 774 005a 3B6B     		ldr	r3, [r7, #48]
 775 005c 1A70     		strb	r2, [r3]
 776              	.L52:
 777 005e BB68     		ldr	r3, [r7, #8]
 778 0060 002B     		cmp	r3, #0
 779 0062 6ED0     		beq	.L53
 780 0064 9248     		ldr	r0, .L57+8
 781 0066 FFF7FEFF 		bl	read_word
 782 006a 0346     		mov	r3, r0
 783 006c 9BB2     		uxth	r3, r3
 784 006e 5B42     		negs	r3, r3
 785 0070 9BB2     		uxth	r3, r3
 786 0072 1AB2     		sxth	r2, r3
 787 0074 7B6A     		ldr	r3, [r7, #36]
 788 0076 1A80     		strh	r2, [r3]	@ movhi
 789 0078 8E48     		ldr	r0, .L57+12
 790 007a FFF7FEFF 		bl	read_word
 791 007e 0346     		mov	r3, r0
 792 0080 9BB2     		uxth	r3, r3
 793 0082 5B42     		negs	r3, r3
 794 0084 9AB2     		uxth	r2, r3
 795 0086 7B6A     		ldr	r3, [r7, #36]
 796 0088 0233     		adds	r3, r3, #2
 797 008a 12B2     		sxth	r2, r2
 798 008c 1A80     		strh	r2, [r3]	@ movhi
ARM GAS  /var/folders/d2/nstgp4h54kz7g1l847x_b8wc0000gn/T//ccJ1XQgA.s 			page 15


 799 008e 8A48     		ldr	r0, .L57+16
 800 0090 FFF7FEFF 		bl	read_word
 801 0094 0346     		mov	r3, r0
 802 0096 9BB2     		uxth	r3, r3
 803 0098 5B42     		negs	r3, r3
 804 009a 9AB2     		uxth	r2, r3
 805 009c 7B6A     		ldr	r3, [r7, #36]
 806 009e 0433     		adds	r3, r3, #4
 807 00a0 12B2     		sxth	r2, r2
 808 00a2 1A80     		strh	r2, [r3]	@ movhi
 809 00a4 7B6A     		ldr	r3, [r7, #36]
 810 00a6 B3F90030 		ldrsh	r3, [r3]
 811 00aa 1A46     		mov	r2, r3
 812 00ac FB6A     		ldr	r3, [r7, #44]
 813 00ae B3F90030 		ldrsh	r3, [r3]
 814 00b2 D31A     		subs	r3, r2, r3
 815 00b4 07EE903A 		vmov	s15, r3	@ int
 816 00b8 F8EEE77A 		vcvt.f32.s32	s15, s15
 817 00bc 9FED7F7A 		vldr.32	s14, .L57+20
 818 00c0 67EE877A 		vmul.f32	s15, s15, s14
 819 00c4 9FED7E7A 		vldr.32	s14, .L57+24
 820 00c8 67EE877A 		vmul.f32	s15, s15, s14
 821 00cc BB68     		ldr	r3, [r7, #8]
 822 00ce C3ED007A 		vstr.32	s15, [r3]
 823 00d2 7B6A     		ldr	r3, [r7, #36]
 824 00d4 0233     		adds	r3, r3, #2
 825 00d6 B3F90030 		ldrsh	r3, [r3]
 826 00da 1A46     		mov	r2, r3
 827 00dc FB6A     		ldr	r3, [r7, #44]
 828 00de 0233     		adds	r3, r3, #2
 829 00e0 B3F90030 		ldrsh	r3, [r3]
 830 00e4 D31A     		subs	r3, r2, r3
 831 00e6 07EE903A 		vmov	s15, r3	@ int
 832 00ea F8EEE77A 		vcvt.f32.s32	s15, s15
 833 00ee 9FED737A 		vldr.32	s14, .L57+20
 834 00f2 67EE877A 		vmul.f32	s15, s15, s14
 835 00f6 BB68     		ldr	r3, [r7, #8]
 836 00f8 0433     		adds	r3, r3, #4
 837 00fa 9FED717A 		vldr.32	s14, .L57+24
 838 00fe 67EE877A 		vmul.f32	s15, s15, s14
 839 0102 C3ED007A 		vstr.32	s15, [r3]
 840 0106 7B6A     		ldr	r3, [r7, #36]
 841 0108 0433     		adds	r3, r3, #4
 842 010a B3F90030 		ldrsh	r3, [r3]
 843 010e 1A46     		mov	r2, r3
 844 0110 FB6A     		ldr	r3, [r7, #44]
 845 0112 0433     		adds	r3, r3, #4
 846 0114 B3F90030 		ldrsh	r3, [r3]
 847 0118 D31A     		subs	r3, r2, r3
 848 011a 07EE903A 		vmov	s15, r3	@ int
 849 011e F8EEE77A 		vcvt.f32.s32	s15, s15
 850 0122 9FED687A 		vldr.32	s14, .L57+28
 851 0126 77EEC77A 		vsub.f32	s15, s15, s14
 852 012a 9FED647A 		vldr.32	s14, .L57+20
 853 012e 67EE877A 		vmul.f32	s15, s15, s14
 854 0132 BB68     		ldr	r3, [r7, #8]
 855 0134 0833     		adds	r3, r3, #8
ARM GAS  /var/folders/d2/nstgp4h54kz7g1l847x_b8wc0000gn/T//ccJ1XQgA.s 			page 16


 856 0136 9FED627A 		vldr.32	s14, .L57+24
 857 013a 67EE877A 		vmul.f32	s15, s15, s14
 858 013e C3ED007A 		vstr.32	s15, [r3]
 859              	.L53:
 860 0142 7B68     		ldr	r3, [r7, #4]
 861 0144 002B     		cmp	r3, #0
 862 0146 15D0     		beq	.L54
 863 0148 5F48     		ldr	r0, .L57+32
 864 014a FFF7FEFF 		bl	read_word
 865 014e 07EE900A 		vmov	s15, r0	@ int
 866 0152 F8EEE77A 		vcvt.f32.s32	s15, s15
 867 0156 B3EE057A 		vmov.f32	s14, #2.1e+1
 868 015a 37EEC77A 		vsub.f32	s14, s15, s14
 869 015e DFED5B6A 		vldr.32	s13, .L57+36
 870 0162 C7EE267A 		vdiv.f32	s15, s14, s13
 871 0166 B3EE057A 		vmov.f32	s14, #2.1e+1
 872 016a 77EE877A 		vadd.f32	s15, s15, s14
 873 016e 7B68     		ldr	r3, [r7, #4]
 874 0170 C3ED007A 		vstr.32	s15, [r3]
 875              	.L54:
 876 0174 FB68     		ldr	r3, [r7, #12]
 877 0176 002B     		cmp	r3, #0
 878 0178 55D0     		beq	.L55
 879 017a 5548     		ldr	r0, .L57+40
 880 017c FFF7FEFF 		bl	read_word
 881 0180 0346     		mov	r3, r0
 882 0182 1AB2     		sxth	r2, r3
 883 0184 3B6A     		ldr	r3, [r7, #32]
 884 0186 1A80     		strh	r2, [r3]	@ movhi
 885 0188 5248     		ldr	r0, .L57+44
 886 018a FFF7FEFF 		bl	read_word
 887 018e 0246     		mov	r2, r0
 888 0190 3B6A     		ldr	r3, [r7, #32]
 889 0192 0233     		adds	r3, r3, #2
 890 0194 12B2     		sxth	r2, r2
 891 0196 1A80     		strh	r2, [r3]	@ movhi
 892 0198 4F48     		ldr	r0, .L57+48
 893 019a FFF7FEFF 		bl	read_word
 894 019e 0246     		mov	r2, r0
 895 01a0 3B6A     		ldr	r3, [r7, #32]
 896 01a2 0433     		adds	r3, r3, #4
 897 01a4 12B2     		sxth	r2, r2
 898 01a6 1A80     		strh	r2, [r3]	@ movhi
 899 01a8 3B6A     		ldr	r3, [r7, #32]
 900 01aa B3F90030 		ldrsh	r3, [r3]
 901 01ae 1A46     		mov	r2, r3
 902 01b0 BB6A     		ldr	r3, [r7, #40]
 903 01b2 B3F90030 		ldrsh	r3, [r3]
 904 01b6 D31A     		subs	r3, r2, r3
 905 01b8 07EE903A 		vmov	s15, r3	@ int
 906 01bc F8EEE77A 		vcvt.f32.s32	s15, s15
 907 01c0 9FED467A 		vldr.32	s14, .L57+52
 908 01c4 67EE877A 		vmul.f32	s15, s15, s14
 909 01c8 FB68     		ldr	r3, [r7, #12]
 910 01ca C3ED007A 		vstr.32	s15, [r3]
 911 01ce 3B6A     		ldr	r3, [r7, #32]
 912 01d0 0233     		adds	r3, r3, #2
ARM GAS  /var/folders/d2/nstgp4h54kz7g1l847x_b8wc0000gn/T//ccJ1XQgA.s 			page 17


 913 01d2 B3F90030 		ldrsh	r3, [r3]
 914 01d6 1A46     		mov	r2, r3
 915 01d8 BB6A     		ldr	r3, [r7, #40]
 916 01da 0233     		adds	r3, r3, #2
 917 01dc B3F90030 		ldrsh	r3, [r3]
 918 01e0 D31A     		subs	r3, r2, r3
 919 01e2 07EE903A 		vmov	s15, r3	@ int
 920 01e6 F8EEE77A 		vcvt.f32.s32	s15, s15
 921 01ea FB68     		ldr	r3, [r7, #12]
 922 01ec 0433     		adds	r3, r3, #4
 923 01ee 9FED3B7A 		vldr.32	s14, .L57+52
 924 01f2 67EE877A 		vmul.f32	s15, s15, s14
 925 01f6 C3ED007A 		vstr.32	s15, [r3]
 926 01fa 3B6A     		ldr	r3, [r7, #32]
 927 01fc 0433     		adds	r3, r3, #4
 928 01fe B3F90030 		ldrsh	r3, [r3]
 929 0202 1A46     		mov	r2, r3
 930 0204 BB6A     		ldr	r3, [r7, #40]
 931 0206 0433     		adds	r3, r3, #4
 932 0208 B3F90030 		ldrsh	r3, [r3]
 933 020c D31A     		subs	r3, r2, r3
 934 020e 07EE903A 		vmov	s15, r3	@ int
 935 0212 F8EEE77A 		vcvt.f32.s32	s15, s15
 936 0216 FB68     		ldr	r3, [r7, #12]
 937 0218 0833     		adds	r3, r3, #8
 938 021a 9FED307A 		vldr.32	s14, .L57+52
 939 021e 67EE877A 		vmul.f32	s15, s15, s14
 940 0222 C3ED007A 		vstr.32	s15, [r3]
 941              	.L55:
 942 0226 3B68     		ldr	r3, [r7]
 943 0228 002B     		cmp	r3, #0
 944 022a 37D0     		beq	.L56
 945 022c 1F4B     		ldr	r3, .L57+4
 946 022e 1B7C     		ldrb	r3, [r3, #16]	@ zero_extendqisi2
 947 0230 5BB2     		sxtb	r3, r3
 948 0232 1B02     		lsls	r3, r3, #8
 949 0234 1D4A     		ldr	r2, .L57+4
 950 0236 D27B     		ldrb	r2, [r2, #15]	@ zero_extendqisi2
 951 0238 1343     		orrs	r3, r3, r2
 952 023a 07EE903A 		vmov	s15, r3	@ int
 953 023e F8EEE77A 		vcvt.f32.s32	s15, s15
 954 0242 9FED277A 		vldr.32	s14, .L57+56
 955 0246 67EE877A 		vmul.f32	s15, s15, s14
 956 024a 3B68     		ldr	r3, [r7]
 957 024c C3ED007A 		vstr.32	s15, [r3]
 958 0250 164B     		ldr	r3, .L57+4
 959 0252 9B7C     		ldrb	r3, [r3, #18]	@ zero_extendqisi2
 960 0254 5BB2     		sxtb	r3, r3
 961 0256 1B02     		lsls	r3, r3, #8
 962 0258 144A     		ldr	r2, .L57+4
 963 025a 527C     		ldrb	r2, [r2, #17]	@ zero_extendqisi2
 964 025c 1343     		orrs	r3, r3, r2
 965 025e 07EE903A 		vmov	s15, r3	@ int
 966 0262 F8EEE77A 		vcvt.f32.s32	s15, s15
 967 0266 3B68     		ldr	r3, [r7]
 968 0268 0433     		adds	r3, r3, #4
 969 026a 9FED1D7A 		vldr.32	s14, .L57+56
ARM GAS  /var/folders/d2/nstgp4h54kz7g1l847x_b8wc0000gn/T//ccJ1XQgA.s 			page 18


 970 026e 67EE877A 		vmul.f32	s15, s15, s14
 971 0272 C3ED007A 		vstr.32	s15, [r3]
 972 0276 0D4B     		ldr	r3, .L57+4
 973 0278 1B7D     		ldrb	r3, [r3, #20]	@ zero_extendqisi2
 974 027a 5BB2     		sxtb	r3, r3
 975 027c 1B02     		lsls	r3, r3, #8
 976 027e 0B4A     		ldr	r2, .L57+4
 977 0280 D27C     		ldrb	r2, [r2, #19]	@ zero_extendqisi2
 978 0282 1343     		orrs	r3, r3, r2
 979 0284 07EE903A 		vmov	s15, r3	@ int
 980 0288 F8EEE77A 		vcvt.f32.s32	s15, s15
 981 028c 3B68     		ldr	r3, [r7]
 982 028e 0833     		adds	r3, r3, #8
 983 0290 9FED137A 		vldr.32	s14, .L57+56
 984 0294 67EE877A 		vmul.f32	s15, s15, s14
 985 0298 C3ED007A 		vstr.32	s15, [r3]
 986              	.L56:
 987 029c 0023     		movs	r3, #0
 988              	.L51:
 989 029e 1846     		mov	r0, r3
 990 02a0 1837     		adds	r7, r7, #24
 991 02a2 BD46     		mov	sp, r7
 992              		@ sp needed
 993 02a4 80BD     		pop	{r7, pc}
 994              	.L58:
 995 02a6 00BF     		.align	2
 996              	.L57:
 997 02a8 00000000 		.word	imu_addr
 998 02ac 00000000 		.word	buf.10629
 999 02b0 01000000 		.word	buf.10629+1
 1000 02b4 03000000 		.word	buf.10629+3
 1001 02b8 05000000 		.word	buf.10629+5
 1002 02bc 0AE81C41 		.word	1092413450
 1003 02c0 00008038 		.word	947912704
 1004 02c4 00008046 		.word	1182793728
 1005 02c8 07000000 		.word	buf.10629+7
 1006 02cc 5CEFA643 		.word	1135013724
 1007 02d0 09000000 		.word	buf.10629+9
 1008 02d4 0B000000 		.word	buf.10629+11
 1009 02d8 0D000000 		.word	buf.10629+13
 1010 02dc 58A00B39 		.word	957063256
 1011 02e0 9989193E 		.word	1041861017
 1012              		.size	mpu9250_read, .-mpu9250_read
 1013              		.section	.bss.buf.10612,"aw",%nobits
 1014              		.align	2
 1015              		.type	buf.10612, %object
 1016              		.size	buf.10612, 3
 1017              	buf.10612:
 1018 0000 000000   		.space	3
 1019              		.section	.bss.buf.10629,"aw",%nobits
 1020              		.align	2
 1021              		.type	buf.10629, %object
 1022              		.size	buf.10629, 22
 1023              	buf.10629:
 1024 0000 00000000 		.space	22
 1024      00000000 
 1024      00000000 
ARM GAS  /var/folders/d2/nstgp4h54kz7g1l847x_b8wc0000gn/T//ccJ1XQgA.s 			page 19


 1024      00000000 
 1024      00000000 
 1025              		.ident	"GCC: (GNU Tools for Arm Embedded Processors 7-2017-q4-major) 7.2.1 20170904 (release) [ARM
ARM GAS  /var/folders/d2/nstgp4h54kz7g1l847x_b8wc0000gn/T//ccJ1XQgA.s 			page 20


DEFINED SYMBOLS
                            *ABS*:0000000000000000 mpu9250.c
/var/folders/d2/nstgp4h54kz7g1l847x_b8wc0000gn/T//ccJ1XQgA.s:17     .data.imu_addr:0000000000000000 imu_addr
/var/folders/d2/nstgp4h54kz7g1l847x_b8wc0000gn/T//ccJ1XQgA.s:20     .text.mpu9250_change_addr:0000000000000000 $t
/var/folders/d2/nstgp4h54kz7g1l847x_b8wc0000gn/T//ccJ1XQgA.s:27     .text.mpu9250_change_addr:0000000000000000 mpu9250_change_addr
/var/folders/d2/nstgp4h54kz7g1l847x_b8wc0000gn/T//ccJ1XQgA.s:54     .text.mpu9250_change_addr:0000000000000024 $d
/var/folders/d2/nstgp4h54kz7g1l847x_b8wc0000gn/T//ccJ1XQgA.s:57     .text.mpu9250_read_id:0000000000000000 $t
/var/folders/d2/nstgp4h54kz7g1l847x_b8wc0000gn/T//ccJ1XQgA.s:64     .text.mpu9250_read_id:0000000000000000 mpu9250_read_id
/var/folders/d2/nstgp4h54kz7g1l847x_b8wc0000gn/T//ccJ1XQgA.s:109    .text.mpu9250_read_id:0000000000000054 $d
/var/folders/d2/nstgp4h54kz7g1l847x_b8wc0000gn/T//ccJ1XQgA.s:112    .text.read_word:0000000000000000 $t
/var/folders/d2/nstgp4h54kz7g1l847x_b8wc0000gn/T//ccJ1XQgA.s:118    .text.read_word:0000000000000000 read_word
/var/folders/d2/nstgp4h54kz7g1l847x_b8wc0000gn/T//ccJ1XQgA.s:142    .text.mpu9250_setup:0000000000000000 $t
/var/folders/d2/nstgp4h54kz7g1l847x_b8wc0000gn/T//ccJ1XQgA.s:149    .text.mpu9250_setup:0000000000000000 mpu9250_setup
/var/folders/d2/nstgp4h54kz7g1l847x_b8wc0000gn/T//ccJ1XQgA.s:366    .text.mpu9250_setup:00000000000001f4 $d
/var/folders/d2/nstgp4h54kz7g1l847x_b8wc0000gn/T//ccJ1XQgA.s:369    .text.mpu9250_magnetometer_setup:0000000000000000 $t
/var/folders/d2/nstgp4h54kz7g1l847x_b8wc0000gn/T//ccJ1XQgA.s:376    .text.mpu9250_magnetometer_setup:0000000000000000 mpu9250_magnetometer_setup
/var/folders/d2/nstgp4h54kz7g1l847x_b8wc0000gn/T//ccJ1XQgA.s:598    .text.mpu9250_magnetometer_setup:0000000000000204 $d
/var/folders/d2/nstgp4h54kz7g1l847x_b8wc0000gn/T//ccJ1XQgA.s:601    .text.mpu9250_magnetometer_read_sens_adj:0000000000000000 $t
/var/folders/d2/nstgp4h54kz7g1l847x_b8wc0000gn/T//ccJ1XQgA.s:608    .text.mpu9250_magnetometer_read_sens_adj:0000000000000000 mpu9250_magnetometer_read_sens_adj
/var/folders/d2/nstgp4h54kz7g1l847x_b8wc0000gn/T//ccJ1XQgA.s:688    .text.mpu9250_magnetometer_read_sens_adj:00000000000000c8 $d
/var/folders/d2/nstgp4h54kz7g1l847x_b8wc0000gn/T//ccJ1XQgA.s:1017   .bss.buf.10612:0000000000000000 buf.10612
/var/folders/d2/nstgp4h54kz7g1l847x_b8wc0000gn/T//ccJ1XQgA.s:693    .text.mpu9250_ping:0000000000000000 $t
/var/folders/d2/nstgp4h54kz7g1l847x_b8wc0000gn/T//ccJ1XQgA.s:700    .text.mpu9250_ping:0000000000000000 mpu9250_ping
/var/folders/d2/nstgp4h54kz7g1l847x_b8wc0000gn/T//ccJ1XQgA.s:724    .text.mpu9250_read:0000000000000000 $t
/var/folders/d2/nstgp4h54kz7g1l847x_b8wc0000gn/T//ccJ1XQgA.s:731    .text.mpu9250_read:0000000000000000 mpu9250_read
/var/folders/d2/nstgp4h54kz7g1l847x_b8wc0000gn/T//ccJ1XQgA.s:997    .text.mpu9250_read:00000000000002a8 $d
/var/folders/d2/nstgp4h54kz7g1l847x_b8wc0000gn/T//ccJ1XQgA.s:1023   .bss.buf.10629:0000000000000000 buf.10629
/var/folders/d2/nstgp4h54kz7g1l847x_b8wc0000gn/T//ccJ1XQgA.s:1014   .bss.buf.10612:0000000000000000 $d
/var/folders/d2/nstgp4h54kz7g1l847x_b8wc0000gn/T//ccJ1XQgA.s:1020   .bss.buf.10629:0000000000000000 $d

UNDEFINED SYMBOLS
read_reg
write_reg
chThdSleep
read_reg_multi
