ARM GAS  /var/folders/d2/nstgp4h54kz7g1l847x_b8wc0000gn/T//ccoABA04.s 			page 1


   1              		.cpu cortex-m4
   2              		.eabi_attribute 27, 1
   3              		.eabi_attribute 28, 1
   4              		.eabi_attribute 20, 1
   5              		.eabi_attribute 21, 1
   6              		.eabi_attribute 23, 3
   7              		.eabi_attribute 24, 1
   8              		.eabi_attribute 25, 1
   9              		.eabi_attribute 26, 1
  10              		.eabi_attribute 30, 2
  11              		.eabi_attribute 34, 1
  12              		.eabi_attribute 18, 4
  13              		.file	"mpu9250.c"
  14              		.text
  15              	.Ltext0:
  16              		.cfi_sections	.debug_frame
  17              		.section	.text.mpu9250_change_addr,"ax",%progbits
  18              		.align	1
  19              		.p2align 4,,15
  20              		.global	mpu9250_change_addr
  21              		.syntax unified
  22              		.thumb
  23              		.thumb_func
  24              		.fpu fpv4-sp-d16
  25              		.type	mpu9250_change_addr, %function
  26              	mpu9250_change_addr:
  27              	.LFB256:
  28              		.file 1 "../e-puck2_main-processor/src/sensors/mpu9250.c"
  29              		.loc 1 21 0
  30              		.cfi_startproc
  31              		@ args = 0, pretend = 0, frame = 8
  32              		@ frame_needed = 0, uses_anonymous_args = 0
  33 0000 00B5     		push	{lr}
  34              		.cfi_def_cfa_offset 4
  35              		.cfi_offset 14, -4
  36              		.loc 1 22 0
  37 0002 0A4A     		ldr	r2, .L8
  38              		.loc 1 21 0
  39 0004 0A4B     		ldr	r3, .L8+4
  40              		.loc 1 22 0
  41 0006 1178     		ldrb	r1, [r2]	@ zero_extendqisi2
  42              		.loc 1 21 0
  43 0008 1868     		ldr	r0, [r3]
  44 000a 83B0     		sub	sp, sp, #12
  45              		.cfi_def_cfa_offset 16
  46              		.loc 1 22 0
  47 000c 6829     		cmp	r1, #104
  48              		.loc 1 21 0
  49 000e 0190     		str	r0, [sp, #4]
  50              		.loc 1 23 0
  51 0010 0CBF     		ite	eq
  52 0012 6921     		moveq	r1, #105
  53              		.loc 1 25 0
  54 0014 6821     		movne	r1, #104
  55 0016 1170     		strb	r1, [r2]
  56              		.loc 1 27 0
  57 0018 019A     		ldr	r2, [sp, #4]
ARM GAS  /var/folders/d2/nstgp4h54kz7g1l847x_b8wc0000gn/T//ccoABA04.s 			page 2


  58 001a 1B68     		ldr	r3, [r3]
  59 001c 9A42     		cmp	r2, r3
  60 001e 02D1     		bne	.L7
  61 0020 03B0     		add	sp, sp, #12
  62              		.cfi_remember_state
  63              		.cfi_def_cfa_offset 4
  64              		@ sp needed
  65 0022 5DF804FB 		ldr	pc, [sp], #4
  66              	.L7:
  67              		.cfi_restore_state
  68 0026 FFF7FEFF 		bl	__stack_chk_fail
  69              	.LVL0:
  70              	.L9:
  71 002a 00BF     		.align	2
  72              	.L8:
  73 002c 00000000 		.word	.LANCHOR0
  74 0030 00000000 		.word	__stack_chk_guard
  75              		.cfi_endproc
  76              	.LFE256:
  77              		.size	mpu9250_change_addr, .-mpu9250_change_addr
  78              		.section	.text.mpu9250_read_id,"ax",%progbits
  79              		.align	1
  80              		.p2align 4,,15
  81              		.global	mpu9250_read_id
  82              		.syntax unified
  83              		.thumb
  84              		.thumb_func
  85              		.fpu fpv4-sp-d16
  86              		.type	mpu9250_read_id, %function
  87              	mpu9250_read_id:
  88              	.LFB257:
  89              		.loc 1 38 0
  90              		.cfi_startproc
  91              		@ args = 0, pretend = 0, frame = 8
  92              		@ frame_needed = 0, uses_anonymous_args = 0
  93              	.LVL1:
  94 0000 70B5     		push	{r4, r5, r6, lr}
  95              		.cfi_def_cfa_offset 16
  96              		.cfi_offset 4, -16
  97              		.cfi_offset 5, -12
  98              		.cfi_offset 6, -8
  99              		.cfi_offset 14, -4
 100 0002 124D     		ldr	r5, .L18
 101              		.loc 1 40 0
 102 0004 124C     		ldr	r4, .L18+4
 103              		.loc 1 38 0
 104 0006 2B68     		ldr	r3, [r5]
 105 0008 82B0     		sub	sp, sp, #8
 106              		.cfi_def_cfa_offset 24
 107              		.loc 1 38 0
 108 000a 0646     		mov	r6, r0
 109              		.loc 1 40 0
 110 000c 0246     		mov	r2, r0
 111 000e 7521     		movs	r1, #117
 112 0010 2078     		ldrb	r0, [r4]	@ zero_extendqisi2
 113              	.LVL2:
 114              		.loc 1 38 0
ARM GAS  /var/folders/d2/nstgp4h54kz7g1l847x_b8wc0000gn/T//ccoABA04.s 			page 3


 115 0012 0193     		str	r3, [sp, #4]
 116              	.LVL3:
 117              		.loc 1 40 0
 118 0014 FFF7FEFF 		bl	read_reg
 119              	.LVL4:
 120 0018 80B1     		cbz	r0, .L11
 121              	.LVL5:
 122              	.LBB54:
 123              	.LBB55:
 124              	.LBB56:
 125              	.LBB57:
 126              		.loc 1 22 0
 127 001a 2378     		ldrb	r3, [r4]	@ zero_extendqisi2
 128              	.LBE57:
 129              	.LBE56:
 130              		.loc 1 42 0
 131 001c 019A     		ldr	r2, [sp, #4]
 132              	.LBB61:
 133              	.LBB58:
 134              		.loc 1 22 0
 135 001e 682B     		cmp	r3, #104
 136              	.LBE58:
 137              	.LBE61:
 138              		.loc 1 42 0
 139 0020 2B68     		ldr	r3, [r5]
 140              	.LBB62:
 141              	.LBB59:
 142              		.loc 1 23 0
 143 0022 0CBF     		ite	eq
 144 0024 6920     		moveq	r0, #105
 145              	.LVL6:
 146              		.loc 1 25 0
 147 0026 6820     		movne	r0, #104
 148              	.LBE59:
 149              	.LBE62:
 150              		.loc 1 42 0
 151 0028 9A42     		cmp	r2, r3
 152              	.LBB63:
 153              	.LBB60:
 154              		.loc 1 25 0
 155 002a 2070     		strb	r0, [r4]
 156              	.LBE60:
 157              	.LBE63:
 158              		.loc 1 42 0
 159 002c 0CD1     		bne	.L17
 160 002e 3246     		mov	r2, r6
 161 0030 7521     		movs	r1, #117
 162              	.LBE55:
 163              	.LBE54:
 164              		.loc 1 47 0
 165 0032 02B0     		add	sp, sp, #8
 166              		.cfi_remember_state
 167              		.cfi_def_cfa_offset 16
 168              		@ sp needed
 169 0034 BDE87040 		pop	{r4, r5, r6, lr}
 170              		.cfi_restore 14
 171              		.cfi_restore 6
ARM GAS  /var/folders/d2/nstgp4h54kz7g1l847x_b8wc0000gn/T//ccoABA04.s 			page 4


 172              		.cfi_restore 5
 173              		.cfi_restore 4
 174              		.cfi_def_cfa_offset 0
 175              	.LVL7:
 176              	.LBB65:
 177              	.LBB64:
 178              		.loc 1 42 0
 179 0038 FFF7FEBF 		b	read_reg
 180              	.LVL8:
 181              	.L11:
 182              		.cfi_restore_state
 183              	.LBE64:
 184              	.LBE65:
 185              		.loc 1 47 0
 186 003c 019A     		ldr	r2, [sp, #4]
 187 003e 2B68     		ldr	r3, [r5]
 188 0040 9A42     		cmp	r2, r3
 189 0042 01D1     		bne	.L17
 190 0044 02B0     		add	sp, sp, #8
 191              		.cfi_remember_state
 192              		.cfi_def_cfa_offset 16
 193              		@ sp needed
 194 0046 70BD     		pop	{r4, r5, r6, pc}
 195              	.LVL9:
 196              	.L17:
 197              		.cfi_restore_state
 198 0048 FFF7FEFF 		bl	__stack_chk_fail
 199              	.LVL10:
 200              	.L19:
 201              		.align	2
 202              	.L18:
 203 004c 00000000 		.word	__stack_chk_guard
 204 0050 00000000 		.word	.LANCHOR0
 205              		.cfi_endproc
 206              	.LFE257:
 207              		.size	mpu9250_read_id, .-mpu9250_read_id
 208              		.section	.text.mpu9250_setup,"ax",%progbits
 209              		.align	1
 210              		.p2align 4,,15
 211              		.global	mpu9250_setup
 212              		.syntax unified
 213              		.thumb
 214              		.thumb_func
 215              		.fpu fpv4-sp-d16
 216              		.type	mpu9250_setup, %function
 217              	mpu9250_setup:
 218              	.LFB259:
 219              		.loc 1 66 0
 220              		.cfi_startproc
 221              		@ args = 0, pretend = 0, frame = 8
 222              		@ frame_needed = 0, uses_anonymous_args = 0
 223              	.LVL11:
 224 0000 F0B5     		push	{r4, r5, r6, r7, lr}
 225              		.cfi_def_cfa_offset 20
 226              		.cfi_offset 4, -20
 227              		.cfi_offset 5, -16
 228              		.cfi_offset 6, -12
ARM GAS  /var/folders/d2/nstgp4h54kz7g1l847x_b8wc0000gn/T//ccoABA04.s 			page 5


 229              		.cfi_offset 7, -8
 230              		.cfi_offset 14, -4
 231 0002 504D     		ldr	r5, .L56
 232              		.loc 1 71 0
 233 0004 504C     		ldr	r4, .L56+4
 234              		.loc 1 66 0
 235 0006 2B68     		ldr	r3, [r5]
 236 0008 83B0     		sub	sp, sp, #12
 237              		.cfi_def_cfa_offset 32
 238              		.loc 1 66 0
 239 000a 0746     		mov	r7, r0
 240 000c 0193     		str	r3, [sp, #4]
 241              	.LVL12:
 242              		.loc 1 71 0
 243 000e 2078     		ldrb	r0, [r4]	@ zero_extendqisi2
 244              	.LVL13:
 245              		.loc 1 68 0
 246 0010 0023     		movs	r3, #0
 247              		.loc 1 71 0
 248 0012 8022     		movs	r2, #128
 249 0014 6B21     		movs	r1, #107
 250              		.loc 1 68 0
 251 0016 8DF80330 		strb	r3, [sp, #3]
 252              		.loc 1 71 0
 253 001a FFF7FEFF 		bl	write_reg
 254              	.LVL14:
 255 001e 58B1     		cbz	r0, .L26
 256              	.LBB66:
 257              	.LBB67:
 258              		.loc 1 22 0
 259 0020 2378     		ldrb	r3, [r4]	@ zero_extendqisi2
 260 0022 682B     		cmp	r3, #104
 261              		.loc 1 23 0
 262 0024 0CBF     		ite	eq
 263 0026 6920     		moveq	r0, #105
 264              	.LVL15:
 265              		.loc 1 25 0
 266 0028 6820     		movne	r0, #104
 267              	.LBE67:
 268              	.LBE66:
 269              		.loc 1 73 0
 270 002a 8022     		movs	r2, #128
 271 002c 6B21     		movs	r1, #107
 272              	.LBB69:
 273              	.LBB68:
 274              		.loc 1 25 0
 275 002e 2070     		strb	r0, [r4]
 276              	.LBE68:
 277              	.LBE69:
 278              		.loc 1 73 0
 279 0030 FFF7FEFF 		bl	write_reg
 280              	.LVL16:
 281 0034 0028     		cmp	r0, #0
 282 0036 7CD1     		bne	.L25
 283              	.L26:
 284              		.loc 1 77 0
 285 0038 0120     		movs	r0, #1
ARM GAS  /var/folders/d2/nstgp4h54kz7g1l847x_b8wc0000gn/T//ccoABA04.s 			page 6


 286              	.LVL17:
 287 003a FFF7FEFF 		bl	chThdSleep
 288              	.LVL18:
 289              	.LBB70:
 290              	.LBB71:
 291              		.loc 1 25 0
 292 003e 6826     		movs	r6, #104
 293 0040 02E0     		b	.L22
 294              	.LVL19:
 295              	.L53:
 296              	.LBE71:
 297              	.LBE70:
 298              		.loc 1 88 0
 299 0042 0120     		movs	r0, #1
 300              	.LVL20:
 301 0044 FFF7FEFF 		bl	chThdSleep
 302              	.LVL21:
 303              	.L22:
 304              		.loc 1 79 0
 305 0048 0DF10302 		add	r2, sp, #3
 306 004c 6B21     		movs	r1, #107
 307 004e 2078     		ldrb	r0, [r4]	@ zero_extendqisi2
 308 0050 FFF7FEFF 		bl	read_reg
 309              	.LVL22:
 310 0054 78B1     		cbz	r0, .L32
 311              	.LBB74:
 312              	.LBB72:
 313              		.loc 1 22 0
 314 0056 2378     		ldrb	r3, [r4]	@ zero_extendqisi2
 315 0058 682B     		cmp	r3, #104
 316              		.loc 1 23 0
 317 005a 0CBF     		ite	eq
 318 005c 6920     		moveq	r0, #105
 319              	.LVL23:
 320              		.loc 1 25 0
 321 005e 6820     		movne	r0, #104
 322              	.LBE72:
 323              	.LBE74:
 324              		.loc 1 81 0
 325 0060 0DF10302 		add	r2, sp, #3
 326 0064 4FF06B01 		mov	r1, #107
 327              	.LBB75:
 328              	.LBB73:
 329              		.loc 1 23 0
 330 0068 0CBF     		ite	eq
 331 006a 2070     		strbeq	r0, [r4]
 332              		.loc 1 25 0
 333 006c 2670     		strbne	r6, [r4]
 334              	.LBE73:
 335              	.LBE75:
 336              		.loc 1 81 0
 337 006e FFF7FEFF 		bl	read_reg
 338              	.LVL24:
 339 0072 0028     		cmp	r0, #0
 340 0074 5DD1     		bne	.L25
 341              	.L32:
 342              		.loc 1 85 0
ARM GAS  /var/folders/d2/nstgp4h54kz7g1l847x_b8wc0000gn/T//ccoABA04.s 			page 7


 343 0076 9DF90330 		ldrsb	r3, [sp, #3]
 344 007a 002B     		cmp	r3, #0
 345 007c E1DB     		blt	.L53
 346              		.loc 1 92 0
 347 007e 7E00     		lsls	r6, r7, #1
 348 0080 06F01806 		and	r6, r6, #24
 349 0084 3246     		mov	r2, r6
 350 0086 1B21     		movs	r1, #27
 351 0088 2078     		ldrb	r0, [r4]	@ zero_extendqisi2
 352              	.LVL25:
 353 008a FFF7FEFF 		bl	write_reg
 354              	.LVL26:
 355 008e 58B1     		cbz	r0, .L38
 356              	.LBB76:
 357              	.LBB77:
 358              		.loc 1 22 0
 359 0090 2378     		ldrb	r3, [r4]	@ zero_extendqisi2
 360 0092 682B     		cmp	r3, #104
 361              		.loc 1 23 0
 362 0094 0CBF     		ite	eq
 363 0096 6920     		moveq	r0, #105
 364              	.LVL27:
 365              		.loc 1 25 0
 366 0098 6820     		movne	r0, #104
 367              	.LBE77:
 368              	.LBE76:
 369              		.loc 1 94 0
 370 009a 3246     		mov	r2, r6
 371 009c 1B21     		movs	r1, #27
 372              	.LBB79:
 373              	.LBB78:
 374              		.loc 1 25 0
 375 009e 2070     		strb	r0, [r4]
 376              	.LBE78:
 377              	.LBE79:
 378              		.loc 1 94 0
 379 00a0 FFF7FEFF 		bl	write_reg
 380              	.LVL28:
 381 00a4 0028     		cmp	r0, #0
 382 00a6 44D1     		bne	.L25
 383              	.L38:
 384              		.loc 1 101 0
 385 00a8 FE00     		lsls	r6, r7, #3
 386              		.loc 1 98 0
 387 00aa 0120     		movs	r0, #1
 388              	.LVL29:
 389              		.loc 1 101 0
 390 00ac 06F01806 		and	r6, r6, #24
 391              		.loc 1 98 0
 392 00b0 FFF7FEFF 		bl	chThdSleep
 393              	.LVL30:
 394              		.loc 1 101 0
 395 00b4 3246     		mov	r2, r6
 396 00b6 1C21     		movs	r1, #28
 397 00b8 2078     		ldrb	r0, [r4]	@ zero_extendqisi2
 398 00ba FFF7FEFF 		bl	write_reg
 399              	.LVL31:
ARM GAS  /var/folders/d2/nstgp4h54kz7g1l847x_b8wc0000gn/T//ccoABA04.s 			page 8


 400 00be 50B1     		cbz	r0, .L35
 401              	.LBB80:
 402              	.LBB81:
 403              		.loc 1 22 0
 404 00c0 2378     		ldrb	r3, [r4]	@ zero_extendqisi2
 405 00c2 682B     		cmp	r3, #104
 406              		.loc 1 23 0
 407 00c4 0CBF     		ite	eq
 408 00c6 6920     		moveq	r0, #105
 409              	.LVL32:
 410              		.loc 1 25 0
 411 00c8 6820     		movne	r0, #104
 412              	.LBE81:
 413              	.LBE80:
 414              		.loc 1 103 0
 415 00ca 3246     		mov	r2, r6
 416 00cc 1C21     		movs	r1, #28
 417              	.LBB83:
 418              	.LBB82:
 419              		.loc 1 25 0
 420 00ce 2070     		strb	r0, [r4]
 421              	.LBE82:
 422              	.LBE83:
 423              		.loc 1 103 0
 424 00d0 FFF7FEFF 		bl	write_reg
 425              	.LVL33:
 426 00d4 68BB     		cbnz	r0, .L25
 427              	.L35:
 428              		.loc 1 107 0
 429 00d6 0120     		movs	r0, #1
 430              	.LVL34:
 431              		.loc 1 110 0
 432 00d8 C7F30727 		ubfx	r7, r7, #8, #8
 433              	.LVL35:
 434              		.loc 1 107 0
 435 00dc FFF7FEFF 		bl	chThdSleep
 436              	.LVL36:
 437              		.loc 1 110 0
 438 00e0 3A46     		mov	r2, r7
 439 00e2 1921     		movs	r1, #25
 440 00e4 2078     		ldrb	r0, [r4]	@ zero_extendqisi2
 441 00e6 FFF7FEFF 		bl	write_reg
 442              	.LVL37:
 443 00ea 50B1     		cbz	r0, .L40
 444              	.LBB84:
 445              	.LBB85:
 446              		.loc 1 22 0
 447 00ec 2378     		ldrb	r3, [r4]	@ zero_extendqisi2
 448 00ee 682B     		cmp	r3, #104
 449              		.loc 1 23 0
 450 00f0 0CBF     		ite	eq
 451 00f2 6920     		moveq	r0, #105
 452              	.LVL38:
 453              		.loc 1 25 0
 454 00f4 6820     		movne	r0, #104
 455              	.LBE85:
 456              	.LBE84:
ARM GAS  /var/folders/d2/nstgp4h54kz7g1l847x_b8wc0000gn/T//ccoABA04.s 			page 9


 457              		.loc 1 112 0
 458 00f6 3A46     		mov	r2, r7
 459 00f8 1921     		movs	r1, #25
 460              	.LBB87:
 461              	.LBB86:
 462              		.loc 1 25 0
 463 00fa 2070     		strb	r0, [r4]
 464              	.LBE86:
 465              	.LBE87:
 466              		.loc 1 112 0
 467 00fc FFF7FEFF 		bl	write_reg
 468              	.LVL39:
 469 0100 B8B9     		cbnz	r0, .L25
 470              	.L40:
 471              		.loc 1 116 0
 472 0102 0120     		movs	r0, #1
 473              	.LVL40:
 474 0104 FFF7FEFF 		bl	chThdSleep
 475              	.LVL41:
 476              		.loc 1 119 0
 477 0108 0122     		movs	r2, #1
 478 010a 3821     		movs	r1, #56
 479 010c 2078     		ldrb	r0, [r4]	@ zero_extendqisi2
 480 010e FFF7FEFF 		bl	write_reg
 481              	.LVL42:
 482 0112 50B1     		cbz	r0, .L44
 483              	.LBB88:
 484              	.LBB89:
 485              		.loc 1 22 0
 486 0114 2378     		ldrb	r3, [r4]	@ zero_extendqisi2
 487 0116 682B     		cmp	r3, #104
 488              		.loc 1 23 0
 489 0118 0CBF     		ite	eq
 490 011a 6920     		moveq	r0, #105
 491              	.LVL43:
 492              		.loc 1 25 0
 493 011c 6820     		movne	r0, #104
 494              	.LBE89:
 495              	.LBE88:
 496              		.loc 1 121 0
 497 011e 0122     		movs	r2, #1
 498 0120 3821     		movs	r1, #56
 499              	.LBB91:
 500              	.LBB90:
 501              		.loc 1 25 0
 502 0122 2070     		strb	r0, [r4]
 503              	.LBE90:
 504              	.LBE91:
 505              		.loc 1 121 0
 506 0124 FFF7FEFF 		bl	write_reg
 507              	.LVL44:
 508 0128 18B9     		cbnz	r0, .L25
 509              	.L44:
 510              	.LVL45:
 511              		.loc 1 125 0
 512 012a 0120     		movs	r0, #1
 513 012c FFF7FEFF 		bl	chThdSleep
ARM GAS  /var/folders/d2/nstgp4h54kz7g1l847x_b8wc0000gn/T//ccoABA04.s 			page 10


 514              	.LVL46:
 515              		.loc 1 131 0
 516 0130 0020     		movs	r0, #0
 517              	.LVL47:
 518              	.L25:
 519              		.loc 1 133 0
 520 0132 019A     		ldr	r2, [sp, #4]
 521 0134 2B68     		ldr	r3, [r5]
 522 0136 9A42     		cmp	r2, r3
 523 0138 01D1     		bne	.L55
 524 013a 03B0     		add	sp, sp, #12
 525              		.cfi_remember_state
 526              		.cfi_def_cfa_offset 20
 527              		@ sp needed
 528 013c F0BD     		pop	{r4, r5, r6, r7, pc}
 529              	.L55:
 530              		.cfi_restore_state
 531 013e FFF7FEFF 		bl	__stack_chk_fail
 532              	.LVL48:
 533              	.L57:
 534 0142 00BF     		.align	2
 535              	.L56:
 536 0144 00000000 		.word	__stack_chk_guard
 537 0148 00000000 		.word	.LANCHOR0
 538              		.cfi_endproc
 539              	.LFE259:
 540              		.size	mpu9250_setup, .-mpu9250_setup
 541              		.section	.text.mpu9250_magnetometer_setup,"ax",%progbits
 542              		.align	1
 543              		.p2align 4,,15
 544              		.global	mpu9250_magnetometer_setup
 545              		.syntax unified
 546              		.thumb
 547              		.thumb_func
 548              		.fpu fpv4-sp-d16
 549              		.type	mpu9250_magnetometer_setup, %function
 550              	mpu9250_magnetometer_setup:
 551              	.LFB260:
 552              		.loc 1 135 0
 553              		.cfi_startproc
 554              		@ args = 0, pretend = 0, frame = 8
 555              		@ frame_needed = 0, uses_anonymous_args = 0
 556 0000 70B5     		push	{r4, r5, r6, lr}
 557              		.cfi_def_cfa_offset 16
 558              		.cfi_offset 4, -16
 559              		.cfi_offset 5, -12
 560              		.cfi_offset 6, -8
 561              		.cfi_offset 14, -4
 562 0002 514E     		ldr	r6, .L102
 563              		.loc 1 140 0
 564 0004 514C     		ldr	r4, .L102+4
 565              		.loc 1 135 0
 566 0006 3368     		ldr	r3, [r6]
 567              		.loc 1 140 0
 568 0008 2078     		ldrb	r0, [r4]	@ zero_extendqisi2
 569              		.loc 1 135 0
 570 000a 82B0     		sub	sp, sp, #8
ARM GAS  /var/folders/d2/nstgp4h54kz7g1l847x_b8wc0000gn/T//ccoABA04.s 			page 11


 571              		.cfi_def_cfa_offset 24
 572              		.loc 1 140 0
 573 000c 0222     		movs	r2, #2
 574 000e 3721     		movs	r1, #55
 575              		.loc 1 135 0
 576 0010 0193     		str	r3, [sp, #4]
 577              	.LVL49:
 578              		.loc 1 140 0
 579 0012 FFF7FEFF 		bl	write_reg
 580              	.LVL50:
 581 0016 58B1     		cbz	r0, .L64
 582              	.LBB92:
 583              	.LBB93:
 584              		.loc 1 22 0
 585 0018 2378     		ldrb	r3, [r4]	@ zero_extendqisi2
 586 001a 682B     		cmp	r3, #104
 587              		.loc 1 23 0
 588 001c 0CBF     		ite	eq
 589 001e 6920     		moveq	r0, #105
 590              	.LVL51:
 591              		.loc 1 25 0
 592 0020 6820     		movne	r0, #104
 593              	.LBE93:
 594              	.LBE92:
 595              		.loc 1 142 0
 596 0022 0222     		movs	r2, #2
 597 0024 3721     		movs	r1, #55
 598              	.LBB95:
 599              	.LBB94:
 600              		.loc 1 25 0
 601 0026 2070     		strb	r0, [r4]
 602              	.LBE94:
 603              	.LBE95:
 604              		.loc 1 142 0
 605 0028 FFF7FEFF 		bl	write_reg
 606              	.LVL52:
 607 002c 0546     		mov	r5, r0
 608 002e 30B9     		cbnz	r0, .L60
 609              	.L64:
 610              		.loc 1 148 0
 611 0030 1222     		movs	r2, #18
 612 0032 0A21     		movs	r1, #10
 613 0034 0C20     		movs	r0, #12
 614              	.LVL53:
 615 0036 FFF7FEFF 		bl	write_reg
 616              	.LVL54:
 617 003a 0546     		mov	r5, r0
 618 003c 30B1     		cbz	r0, .L100
 619              	.LVL55:
 620              	.L60:
 621              		.loc 1 218 0
 622 003e 019A     		ldr	r2, [sp, #4]
 623 0040 3368     		ldr	r3, [r6]
 624 0042 9A42     		cmp	r2, r3
 625 0044 2846     		mov	r0, r5
 626 0046 7CD1     		bne	.L101
 627 0048 02B0     		add	sp, sp, #8
ARM GAS  /var/folders/d2/nstgp4h54kz7g1l847x_b8wc0000gn/T//ccoABA04.s 			page 12


 628              		.cfi_remember_state
 629              		.cfi_def_cfa_offset 16
 630              		@ sp needed
 631 004a 70BD     		pop	{r4, r5, r6, pc}
 632              	.LVL56:
 633              	.L100:
 634              		.cfi_restore_state
 635              		.loc 1 154 0
 636 004c 0246     		mov	r2, r0
 637 004e 3721     		movs	r1, #55
 638 0050 2078     		ldrb	r0, [r4]	@ zero_extendqisi2
 639              	.LVL57:
 640 0052 FFF7FEFF 		bl	write_reg
 641              	.LVL58:
 642 0056 58B1     		cbz	r0, .L70
 643              	.LBB96:
 644              	.LBB97:
 645              		.loc 1 22 0
 646 0058 2378     		ldrb	r3, [r4]	@ zero_extendqisi2
 647 005a 682B     		cmp	r3, #104
 648              		.loc 1 23 0
 649 005c 0CBF     		ite	eq
 650 005e 6920     		moveq	r0, #105
 651              	.LVL59:
 652              		.loc 1 25 0
 653 0060 6820     		movne	r0, #104
 654              	.LBE97:
 655              	.LBE96:
 656              		.loc 1 156 0
 657 0062 0022     		movs	r2, #0
 658 0064 3721     		movs	r1, #55
 659              	.LBB99:
 660              	.LBB98:
 661              		.loc 1 25 0
 662 0066 2070     		strb	r0, [r4]
 663              	.LBE98:
 664              	.LBE99:
 665              		.loc 1 156 0
 666 0068 FFF7FEFF 		bl	write_reg
 667              	.LVL60:
 668 006c 0028     		cmp	r0, #0
 669 006e 66D1     		bne	.L94
 670              	.L70:
 671              		.loc 1 169 0
 672 0070 5D22     		movs	r2, #93
 673 0072 2421     		movs	r1, #36
 674 0074 2078     		ldrb	r0, [r4]	@ zero_extendqisi2
 675              	.LVL61:
 676 0076 FFF7FEFF 		bl	write_reg
 677              	.LVL62:
 678 007a 58B1     		cbz	r0, .L67
 679              	.LBB100:
 680              	.LBB101:
 681              		.loc 1 22 0
 682 007c 2378     		ldrb	r3, [r4]	@ zero_extendqisi2
 683 007e 682B     		cmp	r3, #104
 684              		.loc 1 23 0
ARM GAS  /var/folders/d2/nstgp4h54kz7g1l847x_b8wc0000gn/T//ccoABA04.s 			page 13


 685 0080 0CBF     		ite	eq
 686 0082 6920     		moveq	r0, #105
 687              	.LVL63:
 688              		.loc 1 25 0
 689 0084 6820     		movne	r0, #104
 690              	.LBE101:
 691              	.LBE100:
 692              		.loc 1 171 0
 693 0086 5D22     		movs	r2, #93
 694 0088 2421     		movs	r1, #36
 695              	.LBB103:
 696              	.LBB102:
 697              		.loc 1 25 0
 698 008a 2070     		strb	r0, [r4]
 699              	.LBE102:
 700              	.LBE103:
 701              		.loc 1 171 0
 702 008c FFF7FEFF 		bl	write_reg
 703              	.LVL64:
 704 0090 0028     		cmp	r0, #0
 705 0092 54D1     		bne	.L94
 706              	.L67:
 707              		.loc 1 175 0
 708 0094 0120     		movs	r0, #1
 709              	.LVL65:
 710 0096 FFF7FEFF 		bl	chThdSleep
 711              	.LVL66:
 712              		.loc 1 178 0
 713 009a 2022     		movs	r2, #32
 714 009c 6A21     		movs	r1, #106
 715 009e 2078     		ldrb	r0, [r4]	@ zero_extendqisi2
 716 00a0 FFF7FEFF 		bl	write_reg
 717              	.LVL67:
 718 00a4 58B1     		cbz	r0, .L72
 719              	.LBB104:
 720              	.LBB105:
 721              		.loc 1 22 0
 722 00a6 2378     		ldrb	r3, [r4]	@ zero_extendqisi2
 723 00a8 682B     		cmp	r3, #104
 724              		.loc 1 23 0
 725 00aa 0CBF     		ite	eq
 726 00ac 6920     		moveq	r0, #105
 727              	.LVL68:
 728              		.loc 1 25 0
 729 00ae 6820     		movne	r0, #104
 730              	.LBE105:
 731              	.LBE104:
 732              		.loc 1 180 0
 733 00b0 2022     		movs	r2, #32
 734 00b2 6A21     		movs	r1, #106
 735              	.LBB107:
 736              	.LBB106:
 737              		.loc 1 25 0
 738 00b4 2070     		strb	r0, [r4]
 739              	.LBE106:
 740              	.LBE107:
 741              		.loc 1 180 0
ARM GAS  /var/folders/d2/nstgp4h54kz7g1l847x_b8wc0000gn/T//ccoABA04.s 			page 14


 742 00b6 FFF7FEFF 		bl	write_reg
 743              	.LVL69:
 744 00ba 0028     		cmp	r0, #0
 745 00bc 3FD1     		bne	.L94
 746              	.L72:
 747              		.loc 1 184 0
 748 00be 0120     		movs	r0, #1
 749              	.LVL70:
 750 00c0 FFF7FEFF 		bl	chThdSleep
 751              	.LVL71:
 752              		.loc 1 187 0
 753 00c4 8C22     		movs	r2, #140
 754 00c6 2521     		movs	r1, #37
 755 00c8 2078     		ldrb	r0, [r4]	@ zero_extendqisi2
 756 00ca FFF7FEFF 		bl	write_reg
 757              	.LVL72:
 758 00ce 50B1     		cbz	r0, .L76
 759              	.LBB108:
 760              	.LBB109:
 761              		.loc 1 22 0
 762 00d0 2378     		ldrb	r3, [r4]	@ zero_extendqisi2
 763 00d2 682B     		cmp	r3, #104
 764              		.loc 1 23 0
 765 00d4 0CBF     		ite	eq
 766 00d6 6920     		moveq	r0, #105
 767              	.LVL73:
 768              		.loc 1 25 0
 769 00d8 6820     		movne	r0, #104
 770              	.LBE109:
 771              	.LBE108:
 772              		.loc 1 189 0
 773 00da 8C22     		movs	r2, #140
 774 00dc 2521     		movs	r1, #37
 775              	.LBB111:
 776              	.LBB110:
 777              		.loc 1 25 0
 778 00de 2070     		strb	r0, [r4]
 779              	.LBE110:
 780              	.LBE111:
 781              		.loc 1 189 0
 782 00e0 FFF7FEFF 		bl	write_reg
 783              	.LVL74:
 784 00e4 58BB     		cbnz	r0, .L94
 785              	.L76:
 786              		.loc 1 193 0
 787 00e6 0120     		movs	r0, #1
 788              	.LVL75:
 789 00e8 FFF7FEFF 		bl	chThdSleep
 790              	.LVL76:
 791              		.loc 1 196 0
 792 00ec 0322     		movs	r2, #3
 793 00ee 2621     		movs	r1, #38
 794 00f0 2078     		ldrb	r0, [r4]	@ zero_extendqisi2
 795 00f2 FFF7FEFF 		bl	write_reg
 796              	.LVL77:
 797 00f6 50B1     		cbz	r0, .L80
 798              	.LBB112:
ARM GAS  /var/folders/d2/nstgp4h54kz7g1l847x_b8wc0000gn/T//ccoABA04.s 			page 15


 799              	.LBB113:
 800              		.loc 1 22 0
 801 00f8 2378     		ldrb	r3, [r4]	@ zero_extendqisi2
 802 00fa 682B     		cmp	r3, #104
 803              		.loc 1 23 0
 804 00fc 0CBF     		ite	eq
 805 00fe 6920     		moveq	r0, #105
 806              	.LVL78:
 807              		.loc 1 25 0
 808 0100 6820     		movne	r0, #104
 809              	.LBE113:
 810              	.LBE112:
 811              		.loc 1 198 0
 812 0102 0322     		movs	r2, #3
 813 0104 2621     		movs	r1, #38
 814              	.LBB115:
 815              	.LBB114:
 816              		.loc 1 25 0
 817 0106 2070     		strb	r0, [r4]
 818              	.LBE114:
 819              	.LBE115:
 820              		.loc 1 198 0
 821 0108 FFF7FEFF 		bl	write_reg
 822              	.LVL79:
 823 010c B8B9     		cbnz	r0, .L94
 824              	.L80:
 825              		.loc 1 202 0
 826 010e 0120     		movs	r0, #1
 827              	.LVL80:
 828 0110 FFF7FEFF 		bl	chThdSleep
 829              	.LVL81:
 830              		.loc 1 209 0
 831 0114 8722     		movs	r2, #135
 832 0116 2721     		movs	r1, #39
 833 0118 2078     		ldrb	r0, [r4]	@ zero_extendqisi2
 834 011a FFF7FEFF 		bl	write_reg
 835              	.LVL82:
 836 011e 50B1     		cbz	r0, .L84
 837              	.LBB116:
 838              	.LBB117:
 839              		.loc 1 22 0
 840 0120 2378     		ldrb	r3, [r4]	@ zero_extendqisi2
 841 0122 682B     		cmp	r3, #104
 842              		.loc 1 23 0
 843 0124 0CBF     		ite	eq
 844 0126 6920     		moveq	r0, #105
 845              	.LVL83:
 846              		.loc 1 25 0
 847 0128 6820     		movne	r0, #104
 848              	.LBE117:
 849              	.LBE116:
 850              		.loc 1 211 0
 851 012a 8722     		movs	r2, #135
 852 012c 2721     		movs	r1, #39
 853              	.LBB119:
 854              	.LBB118:
 855              		.loc 1 25 0
ARM GAS  /var/folders/d2/nstgp4h54kz7g1l847x_b8wc0000gn/T//ccoABA04.s 			page 16


 856 012e 2070     		strb	r0, [r4]
 857              	.LBE118:
 858              	.LBE119:
 859              		.loc 1 211 0
 860 0130 FFF7FEFF 		bl	write_reg
 861              	.LVL84:
 862 0134 18B9     		cbnz	r0, .L94
 863              	.L84:
 864              	.LVL85:
 865              		.loc 1 215 0
 866 0136 0120     		movs	r0, #1
 867 0138 FFF7FEFF 		bl	chThdSleep
 868              	.LVL86:
 869              		.loc 1 217 0
 870 013c 7FE7     		b	.L60
 871              	.LVL87:
 872              	.L94:
 873 013e 0546     		mov	r5, r0
 874 0140 7DE7     		b	.L60
 875              	.LVL88:
 876              	.L101:
 877              		.loc 1 218 0
 878 0142 FFF7FEFF 		bl	__stack_chk_fail
 879              	.LVL89:
 880              	.L103:
 881 0146 00BF     		.align	2
 882              	.L102:
 883 0148 00000000 		.word	__stack_chk_guard
 884 014c 00000000 		.word	.LANCHOR0
 885              		.cfi_endproc
 886              	.LFE260:
 887              		.size	mpu9250_magnetometer_setup, .-mpu9250_magnetometer_setup
 888              		.section	.text.mpu9250_magnetometer_read_sens_adj,"ax",%progbits
 889              		.align	1
 890              		.p2align 4,,15
 891              		.global	mpu9250_magnetometer_read_sens_adj
 892              		.syntax unified
 893              		.thumb
 894              		.thumb_func
 895              		.fpu fpv4-sp-d16
 896              		.type	mpu9250_magnetometer_read_sens_adj, %function
 897              	mpu9250_magnetometer_read_sens_adj:
 898              	.LFB261:
 899              		.loc 1 220 0
 900              		.cfi_startproc
 901              		@ args = 0, pretend = 0, frame = 8
 902              		@ frame_needed = 0, uses_anonymous_args = 0
 903              	.LVL90:
 904 0000 70B5     		push	{r4, r5, r6, lr}
 905              		.cfi_def_cfa_offset 16
 906              		.cfi_offset 4, -16
 907              		.cfi_offset 5, -12
 908              		.cfi_offset 6, -8
 909              		.cfi_offset 14, -4
 910 0002 244D     		ldr	r5, .L116
 911              		.loc 1 224 0
 912 0004 244E     		ldr	r6, .L116+4
ARM GAS  /var/folders/d2/nstgp4h54kz7g1l847x_b8wc0000gn/T//ccoABA04.s 			page 17


 913              		.loc 1 220 0
 914 0006 2B68     		ldr	r3, [r5]
 915              		.loc 1 224 0
 916 0008 244A     		ldr	r2, .L116+8
 917              		.loc 1 220 0
 918 000a 82B0     		sub	sp, sp, #8
 919              		.cfi_def_cfa_offset 24
 920              		.loc 1 220 0
 921 000c 0446     		mov	r4, r0
 922 000e 0193     		str	r3, [sp, #4]
 923              	.LVL91:
 924              		.loc 1 224 0
 925 0010 3078     		ldrb	r0, [r6]	@ zero_extendqisi2
 926              	.LVL92:
 927 0012 0323     		movs	r3, #3
 928 0014 1021     		movs	r1, #16
 929 0016 FFF7FEFF 		bl	read_reg_multi
 930              	.LVL93:
 931 001a 58B1     		cbz	r0, .L109
 932              	.LBB120:
 933              	.LBB121:
 934              		.loc 1 22 0
 935 001c 3378     		ldrb	r3, [r6]	@ zero_extendqisi2
 936              	.LBE121:
 937              	.LBE120:
 938              		.loc 1 226 0
 939 001e 1F4A     		ldr	r2, .L116+8
 940              	.LBB124:
 941              	.LBB122:
 942              		.loc 1 22 0
 943 0020 682B     		cmp	r3, #104
 944              		.loc 1 23 0
 945 0022 0CBF     		ite	eq
 946 0024 6920     		moveq	r0, #105
 947              	.LVL94:
 948              		.loc 1 25 0
 949 0026 6820     		movne	r0, #104
 950              	.LBE122:
 951              	.LBE124:
 952              		.loc 1 226 0
 953 0028 0323     		movs	r3, #3
 954 002a 1021     		movs	r1, #16
 955              	.LBB125:
 956              	.LBB123:
 957              		.loc 1 25 0
 958 002c 3070     		strb	r0, [r6]
 959              	.LBE123:
 960              	.LBE125:
 961              		.loc 1 226 0
 962 002e FFF7FEFF 		bl	read_reg_multi
 963              	.LVL95:
 964 0032 38BB     		cbnz	r0, .L106
 965              	.L109:
 966              	.LVL96:
 967              		.loc 1 230 0
 968 0034 194A     		ldr	r2, .L116+8
 969 0036 DFED1A6A 		vldr.32	s13, .L116+12
ARM GAS  /var/folders/d2/nstgp4h54kz7g1l847x_b8wc0000gn/T//ccoABA04.s 			page 18


 970 003a 1378     		ldrb	r3, [r2]	@ zero_extendqisi2
 971 003c 803B     		subs	r3, r3, #128
 972 003e 07EE903A 		vmov	s15, r3	@ int
 973 0042 B8EEE77A 		vcvt.f32.s32	s14, s15
 974 0046 F7EE007A 		vmov.f32	s15, #1.0e+0
 975 004a B0EE676A 		vmov.f32	s12, s15
 976 004e A7EE266A 		vfma.f32	s12, s14, s13
 977              		.loc 1 234 0
 978 0052 0020     		movs	r0, #0
 979              		.loc 1 230 0
 980 0054 84ED006A 		vstr.32	s12, [r4]
 981              		.loc 1 231 0
 982 0058 5378     		ldrb	r3, [r2, #1]	@ zero_extendqisi2
 983 005a 803B     		subs	r3, r3, #128
 984 005c 07EE103A 		vmov	s14, r3	@ int
 985 0060 B8EEC77A 		vcvt.f32.s32	s14, s14
 986 0064 B0EE676A 		vmov.f32	s12, s15
 987 0068 A7EE266A 		vfma.f32	s12, s14, s13
 988 006c 84ED016A 		vstr.32	s12, [r4, #4]
 989              		.loc 1 232 0
 990 0070 9378     		ldrb	r3, [r2, #2]	@ zero_extendqisi2
 991 0072 803B     		subs	r3, r3, #128
 992 0074 07EE103A 		vmov	s14, r3	@ int
 993 0078 B8EEC77A 		vcvt.f32.s32	s14, s14
 994 007c E7EE267A 		vfma.f32	s15, s14, s13
 995 0080 C4ED027A 		vstr.32	s15, [r4, #8]
 996              	.LVL97:
 997              	.L106:
 998              		.loc 1 235 0
 999 0084 019A     		ldr	r2, [sp, #4]
 1000 0086 2B68     		ldr	r3, [r5]
 1001 0088 9A42     		cmp	r2, r3
 1002 008a 01D1     		bne	.L115
 1003 008c 02B0     		add	sp, sp, #8
 1004              		.cfi_remember_state
 1005              		.cfi_def_cfa_offset 16
 1006              		@ sp needed
 1007 008e 70BD     		pop	{r4, r5, r6, pc}
 1008              	.LVL98:
 1009              	.L115:
 1010              		.cfi_restore_state
 1011 0090 FFF7FEFF 		bl	__stack_chk_fail
 1012              	.LVL99:
 1013              	.L117:
 1014              		.align	2
 1015              	.L116:
 1016 0094 00000000 		.word	__stack_chk_guard
 1017 0098 00000000 		.word	.LANCHOR0
 1018 009c 00000000 		.word	.LANCHOR1
 1019 00a0 0000803B 		.word	998244352
 1020              		.cfi_endproc
 1021              	.LFE261:
 1022              		.size	mpu9250_magnetometer_read_sens_adj, .-mpu9250_magnetometer_read_sens_adj
 1023              		.section	.text.mpu9250_ping,"ax",%progbits
 1024              		.align	1
 1025              		.p2align 4,,15
 1026              		.global	mpu9250_ping
ARM GAS  /var/folders/d2/nstgp4h54kz7g1l847x_b8wc0000gn/T//ccoABA04.s 			page 19


 1027              		.syntax unified
 1028              		.thumb
 1029              		.thumb_func
 1030              		.fpu fpv4-sp-d16
 1031              		.type	mpu9250_ping, %function
 1032              	mpu9250_ping:
 1033              	.LFB262:
 1034              		.loc 1 237 0
 1035              		.cfi_startproc
 1036              		@ args = 0, pretend = 0, frame = 8
 1037              		@ frame_needed = 0, uses_anonymous_args = 0
 1038 0000 10B5     		push	{r4, lr}
 1039              		.cfi_def_cfa_offset 8
 1040              		.cfi_offset 4, -8
 1041              		.cfi_offset 14, -4
 1042 0002 82B0     		sub	sp, sp, #8
 1043              		.cfi_def_cfa_offset 16
 1044              		.loc 1 238 0
 1045 0004 02A8     		add	r0, sp, #8
 1046              		.loc 1 237 0
 1047 0006 0C4C     		ldr	r4, .L122
 1048              		.loc 1 238 0
 1049 0008 0023     		movs	r3, #0
 1050 000a 00F8053D 		strb	r3, [r0, #-5]!
 1051              		.loc 1 237 0
 1052 000e 2368     		ldr	r3, [r4]
 1053 0010 0193     		str	r3, [sp, #4]
 1054              		.loc 1 239 0
 1055 0012 FFF7FEFF 		bl	mpu9250_read_id
 1056              	.LVL100:
 1057              		.loc 1 240 0
 1058 0016 9DF80300 		ldrb	r0, [sp, #3]	@ zero_extendqisi2
 1059              		.loc 1 241 0
 1060 001a 019A     		ldr	r2, [sp, #4]
 1061 001c 2368     		ldr	r3, [r4]
 1062 001e A0F16800 		sub	r0, #104
 1063 0022 B0FA80F0 		clz	r0, r0
 1064 0026 9A42     		cmp	r2, r3
 1065 0028 4FEA5010 		lsr	r0, r0, #5
 1066 002c 01D1     		bne	.L121
 1067 002e 02B0     		add	sp, sp, #8
 1068              		.cfi_remember_state
 1069              		.cfi_def_cfa_offset 8
 1070              		@ sp needed
 1071 0030 10BD     		pop	{r4, pc}
 1072              	.L121:
 1073              		.cfi_restore_state
 1074 0032 FFF7FEFF 		bl	__stack_chk_fail
 1075              	.LVL101:
 1076              	.L123:
 1077 0036 00BF     		.align	2
 1078              	.L122:
 1079 0038 00000000 		.word	__stack_chk_guard
 1080              		.cfi_endproc
 1081              	.LFE262:
 1082              		.size	mpu9250_ping, .-mpu9250_ping
 1083              		.section	.text.mpu9250_read,"ax",%progbits
ARM GAS  /var/folders/d2/nstgp4h54kz7g1l847x_b8wc0000gn/T//ccoABA04.s 			page 20


 1084              		.align	1
 1085              		.p2align 4,,15
 1086              		.global	mpu9250_read
 1087              		.syntax unified
 1088              		.thumb
 1089              		.thumb_func
 1090              		.fpu fpv4-sp-d16
 1091              		.type	mpu9250_read, %function
 1092              	mpu9250_read:
 1093              	.LFB263:
 1094              		.loc 1 243 0
 1095              		.cfi_startproc
 1096              		@ args = 20, pretend = 0, frame = 24
 1097              		@ frame_needed = 0, uses_anonymous_args = 0
 1098              	.LVL102:
 1099 0000 2DE9F04F 		push	{r4, r5, r6, r7, r8, r9, r10, fp, lr}
 1100              		.cfi_def_cfa_offset 36
 1101              		.cfi_offset 4, -36
 1102              		.cfi_offset 5, -32
 1103              		.cfi_offset 6, -28
 1104              		.cfi_offset 7, -24
 1105              		.cfi_offset 8, -20
 1106              		.cfi_offset 9, -16
 1107              		.cfi_offset 10, -12
 1108              		.cfi_offset 11, -8
 1109              		.cfi_offset 14, -4
 1110 0004 87B0     		sub	sp, sp, #28
 1111              		.cfi_def_cfa_offset 64
 1112              		.loc 1 243 0
 1113 0006 1E46     		mov	r6, r3
 1114 0008 DDE912B3 		ldrd	fp, r3, [sp, #72]
 1115              	.LVL103:
 1116 000c DFF82892 		ldr	r9, .L148+28
 1117              		.loc 1 247 0
 1118 0010 DFF828A2 		ldr	r10, .L148+32
 1119              		.loc 1 243 0
 1120 0014 0393     		str	r3, [sp, #12]
 1121 0016 149B     		ldr	r3, [sp, #80]
 1122 0018 D9F80040 		ldr	r4, [r9]
 1123 001c 0292     		str	r2, [sp, #8]
 1124 001e 0746     		mov	r7, r0
 1125 0020 8846     		mov	r8, r1
 1126 0022 0193     		str	r3, [sp, #4]
 1127              		.loc 1 247 0
 1128 0024 9AF80000 		ldrb	r0, [r10]	@ zero_extendqisi2
 1129              	.LVL104:
 1130 0028 7C4A     		ldr	r2, .L148
 1131              	.LVL105:
 1132              		.loc 1 243 0
 1133 002a 0594     		str	r4, [sp, #20]
 1134              	.LVL106:
 1135              		.loc 1 247 0
 1136 002c 1623     		movs	r3, #22
 1137 002e 3A21     		movs	r1, #58
 1138              	.LVL107:
 1139              		.loc 1 243 0
 1140 0030 DDE91045 		ldrd	r4, r5, [sp, #64]
ARM GAS  /var/folders/d2/nstgp4h54kz7g1l847x_b8wc0000gn/T//ccoABA04.s 			page 21


 1141              		.loc 1 247 0
 1142 0034 FFF7FEFF 		bl	read_reg_multi
 1143              	.LVL108:
 1144 0038 78B1     		cbz	r0, .L131
 1145              	.LBB126:
 1146              	.LBB127:
 1147              		.loc 1 22 0
 1148 003a 9AF80030 		ldrb	r3, [r10]	@ zero_extendqisi2
 1149              	.LBE127:
 1150              	.LBE126:
 1151              		.loc 1 249 0
 1152 003e 774A     		ldr	r2, .L148
 1153              	.LBB130:
 1154              	.LBB128:
 1155              		.loc 1 22 0
 1156 0040 682B     		cmp	r3, #104
 1157              		.loc 1 23 0
 1158 0042 0CBF     		ite	eq
 1159 0044 6920     		moveq	r0, #105
 1160              	.LVL109:
 1161              		.loc 1 25 0
 1162 0046 6820     		movne	r0, #104
 1163              	.LBE128:
 1164              	.LBE130:
 1165              		.loc 1 249 0
 1166 0048 1623     		movs	r3, #22
 1167 004a 3A21     		movs	r1, #58
 1168              	.LBB131:
 1169              	.LBB129:
 1170              		.loc 1 25 0
 1171 004c 8AF80000 		strb	r0, [r10]
 1172              	.LBE129:
 1173              	.LBE131:
 1174              		.loc 1 249 0
 1175 0050 FFF7FEFF 		bl	read_reg_multi
 1176              	.LVL110:
 1177 0054 0028     		cmp	r0, #0
 1178 0056 40F0D480 		bne	.L130
 1179              	.L131:
 1180              		.loc 1 254 0
 1181 005a 019B     		ldr	r3, [sp, #4]
 1182 005c 1BB1     		cbz	r3, .L127
 1183              		.loc 1 255 0
 1184 005e 6F4B     		ldr	r3, .L148
 1185 0060 019A     		ldr	r2, [sp, #4]
 1186 0062 1B78     		ldrb	r3, [r3]	@ zero_extendqisi2
 1187 0064 1370     		strb	r3, [r2]
 1188              	.L127:
 1189              		.loc 1 257 0
 1190 0066 B8F1000F 		cmp	r8, #0
 1191 006a 4AD0     		beq	.L132
 1192              	.LBB132:
 1193              	.LBB133:
 1194              		.loc 1 58 0
 1195 006c 6B4A     		ldr	r2, .L148
 1196              	.LBE133:
 1197              	.LBE132:
ARM GAS  /var/folders/d2/nstgp4h54kz7g1l847x_b8wc0000gn/T//ccoABA04.s 			page 22


 1198              		.loc 1 262 0
 1199 006e 9FED6C6A 		vldr.32	s12, .L148+4
 1200              	.LBB136:
 1201              	.LBB134:
 1202              		.loc 1 58 0
 1203 0072 92F90110 		ldrsb	r1, [r2, #1]
 1204 0076 9378     		ldrb	r3, [r2, #2]	@ zero_extendqisi2
 1205              	.LBE134:
 1206              	.LBE136:
 1207              		.loc 1 262 0
 1208 0078 DFED6A6A 		vldr.32	s13, .L148+8
 1209              		.loc 1 266 0
 1210 007c DFED6A5A 		vldr.32	s11, .L148+12
 1211              	.LBB137:
 1212              	.LBB135:
 1213              		.loc 1 58 0
 1214 0080 43EA0123 		orr	r3, r3, r1, lsl #8
 1215              	.LBE135:
 1216              	.LBE137:
 1217              		.loc 1 259 0
 1218 0084 5B42     		negs	r3, r3
 1219 0086 1BB2     		sxth	r3, r3
 1220 0088 2B80     		strh	r3, [r5]	@ movhi
 1221              	.LBB138:
 1222              	.LBB139:
 1223              		.loc 1 58 0
 1224 008a 1179     		ldrb	r1, [r2, #4]	@ zero_extendqisi2
 1225 008c 92F90300 		ldrsb	r0, [r2, #3]
 1226              	.LVL111:
 1227 0090 41EA0021 		orr	r1, r1, r0, lsl #8
 1228              	.LBE139:
 1229              	.LBE138:
 1230              		.loc 1 260 0
 1231 0094 4942     		negs	r1, r1
 1232 0096 6980     		strh	r1, [r5, #2]	@ movhi
 1233              	.LBB140:
 1234              	.LBB141:
 1235              		.loc 1 58 0
 1236 0098 92F90510 		ldrsb	r1, [r2, #5]
 1237 009c 9279     		ldrb	r2, [r2, #6]	@ zero_extendqisi2
 1238 009e 42EA0122 		orr	r2, r2, r1, lsl #8
 1239              	.LBE141:
 1240              	.LBE140:
 1241              		.loc 1 261 0
 1242 00a2 5242     		negs	r2, r2
 1243              		.loc 1 262 0
 1244 00a4 0399     		ldr	r1, [sp, #12]
 1245              		.loc 1 261 0
 1246 00a6 AA80     		strh	r2, [r5, #4]	@ movhi
 1247              		.loc 1 262 0
 1248 00a8 B1F90020 		ldrsh	r2, [r1]
 1249 00ac 9B1A     		subs	r3, r3, r2
 1250 00ae 07EE103A 		vmov	s14, r3	@ int
 1251 00b2 B8EEC77A 		vcvt.f32.s32	s14, s14
 1252 00b6 27EE067A 		vmul.f32	s14, s14, s12
 1253 00ba 27EE267A 		vmul.f32	s14, s14, s13
 1254 00be 88ED007A 		vstr.32	s14, [r8]
ARM GAS  /var/folders/d2/nstgp4h54kz7g1l847x_b8wc0000gn/T//ccoABA04.s 			page 23


 1255              		.loc 1 263 0
 1256 00c2 B1F90220 		ldrsh	r2, [r1, #2]
 1257 00c6 B5F90230 		ldrsh	r3, [r5, #2]
 1258 00ca 9B1A     		subs	r3, r3, r2
 1259 00cc 07EE103A 		vmov	s14, r3	@ int
 1260 00d0 B8EEC77A 		vcvt.f32.s32	s14, s14
 1261 00d4 27EE067A 		vmul.f32	s14, s14, s12
 1262 00d8 27EE267A 		vmul.f32	s14, s14, s13
 1263 00dc 88ED017A 		vstr.32	s14, [r8, #4]
 1264              		.loc 1 266 0
 1265 00e0 B5F90430 		ldrsh	r3, [r5, #4]
 1266 00e4 B1F90420 		ldrsh	r2, [r1, #4]
 1267 00e8 9B1A     		subs	r3, r3, r2
 1268 00ea 07EE903A 		vmov	s15, r3	@ int
 1269 00ee F8EEE77A 		vcvt.f32.s32	s15, s15
 1270 00f2 77EEE57A 		vsub.f32	s15, s15, s11
 1271 00f6 67EE867A 		vmul.f32	s15, s15, s12
 1272 00fa 67EEA67A 		vmul.f32	s15, s15, s13
 1273 00fe C8ED027A 		vstr.32	s15, [r8, #8]
 1274              	.L132:
 1275              		.loc 1 268 0
 1276 0102 0298     		ldr	r0, [sp, #8]
 1277 0104 A8B1     		cbz	r0, .L133
 1278              	.LBB142:
 1279              	.LBB143:
 1280              		.loc 1 58 0
 1281 0106 454A     		ldr	r2, .L148
 1282              	.LBE143:
 1283              	.LBE142:
 1284              		.loc 1 269 0
 1285 0108 9FED486A 		vldr.32	s12, .L148+16
 1286              	.LBB145:
 1287              	.LBB144:
 1288              		.loc 1 58 0
 1289 010c 92F90710 		ldrsb	r1, [r2, #7]
 1290 0110 137A     		ldrb	r3, [r2, #8]	@ zero_extendqisi2
 1291 0112 43EA0123 		orr	r3, r3, r1, lsl #8
 1292 0116 07EE903A 		vmov	s15, r3	@ int
 1293              	.LBE144:
 1294              	.LBE145:
 1295              		.loc 1 269 0
 1296 011a F8EEE77A 		vcvt.f32.s32	s15, s15
 1297 011e F3EE056A 		vmov.f32	s13, #2.1e+1
 1298 0122 77EEE67A 		vsub.f32	s15, s15, s13
 1299 0126 87EE867A 		vdiv.f32	s14, s15, s12
 1300 012a 77EE267A 		vadd.f32	s15, s14, s13
 1301 012e C0ED007A 		vstr.32	s15, [r0]
 1302              	.L133:
 1303              		.loc 1 271 0
 1304 0132 002F     		cmp	r7, #0
 1305 0134 39D0     		beq	.L134
 1306              	.LBB146:
 1307              	.LBB147:
 1308              		.loc 1 58 0
 1309 0136 394A     		ldr	r2, .L148
 1310              	.LBE147:
 1311              	.LBE146:
ARM GAS  /var/folders/d2/nstgp4h54kz7g1l847x_b8wc0000gn/T//ccoABA04.s 			page 24


 1312              		.loc 1 275 0
 1313 0138 DFED3D6A 		vldr.32	s13, .L148+20
 1314              	.LBB149:
 1315              	.LBB148:
 1316              		.loc 1 58 0
 1317 013c 92F90910 		ldrsb	r1, [r2, #9]
 1318 0140 937A     		ldrb	r3, [r2, #10]	@ zero_extendqisi2
 1319              	.LBE148:
 1320              	.LBE149:
 1321              		.loc 1 272 0
 1322 0142 43EA0123 		orr	r3, r3, r1, lsl #8
 1323 0146 2380     		strh	r3, [r4]	@ movhi
 1324              	.LBB150:
 1325              	.LBB151:
 1326              		.loc 1 58 0
 1327 0148 92F90B00 		ldrsb	r0, [r2, #11]
 1328 014c 117B     		ldrb	r1, [r2, #12]	@ zero_extendqisi2
 1329 014e 41EA0021 		orr	r1, r1, r0, lsl #8
 1330              	.LBE151:
 1331              	.LBE150:
 1332              		.loc 1 273 0
 1333 0152 6180     		strh	r1, [r4, #2]	@ movhi
 1334              	.LBB152:
 1335              	.LBB153:
 1336              		.loc 1 58 0
 1337 0154 92F90D10 		ldrsb	r1, [r2, #13]
 1338 0158 927B     		ldrb	r2, [r2, #14]	@ zero_extendqisi2
 1339 015a 42EA0122 		orr	r2, r2, r1, lsl #8
 1340              	.LBE153:
 1341              	.LBE152:
 1342              		.loc 1 274 0
 1343 015e A280     		strh	r2, [r4, #4]	@ movhi
 1344              		.loc 1 275 0
 1345 0160 BBF90020 		ldrsh	r2, [fp]
 1346 0164 9B1A     		subs	r3, r3, r2
 1347 0166 07EE903A 		vmov	s15, r3	@ int
 1348 016a F8EEE77A 		vcvt.f32.s32	s15, s15
 1349 016e 67EEA67A 		vmul.f32	s15, s15, s13
 1350 0172 C7ED007A 		vstr.32	s15, [r7]
 1351              		.loc 1 276 0
 1352 0176 BBF90220 		ldrsh	r2, [fp, #2]
 1353 017a B4F90230 		ldrsh	r3, [r4, #2]
 1354 017e 9B1A     		subs	r3, r3, r2
 1355 0180 07EE103A 		vmov	s14, r3	@ int
 1356 0184 B8EEC77A 		vcvt.f32.s32	s14, s14
 1357 0188 27EE267A 		vmul.f32	s14, s14, s13
 1358 018c 87ED017A 		vstr.32	s14, [r7, #4]
 1359              		.loc 1 277 0
 1360 0190 B4F90430 		ldrsh	r3, [r4, #4]
 1361 0194 BBF90420 		ldrsh	r2, [fp, #4]
 1362 0198 9B1A     		subs	r3, r3, r2
 1363 019a 07EE903A 		vmov	s15, r3	@ int
 1364 019e F8EEE77A 		vcvt.f32.s32	s15, s15
 1365 01a2 67EEA67A 		vmul.f32	s15, s15, s13
 1366 01a6 C7ED027A 		vstr.32	s15, [r7, #8]
 1367              	.L134:
 1368              		.loc 1 280 0
ARM GAS  /var/folders/d2/nstgp4h54kz7g1l847x_b8wc0000gn/T//ccoABA04.s 			page 25


 1369 01aa 96B3     		cbz	r6, .L136
 1370              		.loc 1 281 0
 1371 01ac 1B4A     		ldr	r2, .L148
 1372 01ae DFED216A 		vldr.32	s13, .L148+24
 1373 01b2 92F91010 		ldrsb	r1, [r2, #16]
 1374 01b6 D37B     		ldrb	r3, [r2, #15]	@ zero_extendqisi2
 1375 01b8 43EA0123 		orr	r3, r3, r1, lsl #8
 1376 01bc 07EE103A 		vmov	s14, r3	@ int
 1377 01c0 B8EEC77A 		vcvt.f32.s32	s14, s14
 1378              		.loc 1 286 0
 1379 01c4 0020     		movs	r0, #0
 1380              		.loc 1 281 0
 1381 01c6 27EE267A 		vmul.f32	s14, s14, s13
 1382 01ca 86ED007A 		vstr.32	s14, [r6]
 1383              		.loc 1 282 0
 1384 01ce 92F91210 		ldrsb	r1, [r2, #18]
 1385 01d2 537C     		ldrb	r3, [r2, #17]	@ zero_extendqisi2
 1386 01d4 43EA0123 		orr	r3, r3, r1, lsl #8
 1387 01d8 07EE103A 		vmov	s14, r3	@ int
 1388 01dc B8EEC77A 		vcvt.f32.s32	s14, s14
 1389 01e0 27EE267A 		vmul.f32	s14, s14, s13
 1390 01e4 86ED017A 		vstr.32	s14, [r6, #4]
 1391              		.loc 1 283 0
 1392 01e8 92F91410 		ldrsb	r1, [r2, #20]
 1393 01ec D37C     		ldrb	r3, [r2, #19]	@ zero_extendqisi2
 1394 01ee 43EA0123 		orr	r3, r3, r1, lsl #8
 1395 01f2 07EE903A 		vmov	s15, r3	@ int
 1396 01f6 F8EEE77A 		vcvt.f32.s32	s15, s15
 1397 01fa 67EEA67A 		vmul.f32	s15, s15, s13
 1398 01fe C6ED027A 		vstr.32	s15, [r6, #8]
 1399              	.L130:
 1400              		.loc 1 287 0
 1401 0202 059A     		ldr	r2, [sp, #20]
 1402 0204 D9F80030 		ldr	r3, [r9]
 1403 0208 9A42     		cmp	r2, r3
 1404 020a 04D1     		bne	.L147
 1405 020c 07B0     		add	sp, sp, #28
 1406              		.cfi_remember_state
 1407              		.cfi_def_cfa_offset 36
 1408              		@ sp needed
 1409 020e BDE8F08F 		pop	{r4, r5, r6, r7, r8, r9, r10, fp, pc}
 1410              	.LVL112:
 1411              	.L136:
 1412              		.cfi_restore_state
 1413              		.loc 1 286 0
 1414 0212 3046     		mov	r0, r6
 1415 0214 F5E7     		b	.L130
 1416              	.L147:
 1417              		.loc 1 287 0
 1418 0216 FFF7FEFF 		bl	__stack_chk_fail
 1419              	.LVL113:
 1420              	.L149:
 1421 021a 00BF     		.align	2
 1422              	.L148:
 1423 021c 00000000 		.word	.LANCHOR2
 1424 0220 0AE81C41 		.word	1092413450
 1425 0224 00008038 		.word	947912704
ARM GAS  /var/folders/d2/nstgp4h54kz7g1l847x_b8wc0000gn/T//ccoABA04.s 			page 26


 1426 0228 00008046 		.word	1182793728
 1427 022c 5CEFA643 		.word	1135013724
 1428 0230 58A00B39 		.word	957063256
 1429 0234 9989193E 		.word	1041861017
 1430 0238 00000000 		.word	__stack_chk_guard
 1431 023c 00000000 		.word	.LANCHOR0
 1432              		.cfi_endproc
 1433              	.LFE263:
 1434              		.size	mpu9250_read, .-mpu9250_read
 1435              		.section	.bss.buf.10612,"aw",%nobits
 1436              		.align	2
 1437              		.set	.LANCHOR1,. + 0
 1438              		.type	buf.10612, %object
 1439              		.size	buf.10612, 3
 1440              	buf.10612:
 1441 0000 000000   		.space	3
 1442              		.section	.bss.buf.10629,"aw",%nobits
 1443              		.align	2
 1444              		.set	.LANCHOR2,. + 0
 1445              		.type	buf.10629, %object
 1446              		.size	buf.10629, 22
 1447              	buf.10629:
 1448 0000 00000000 		.space	22
 1448      00000000 
 1448      00000000 
 1448      00000000 
 1448      00000000 
 1449              		.section	.data.imu_addr,"aw",%progbits
 1450              		.set	.LANCHOR0,. + 0
 1451              		.type	imu_addr, %object
 1452              		.size	imu_addr, 1
 1453              	imu_addr:
 1454 0000 68       		.byte	104
 1455              		.text
 1456              	.Letext0:
 1457              		.file 2 "/Applications/Eclipse_e-puck2.app/Contents/Eclipse_e-puck2/Tools/gcc-arm-none-eabi-7-2017
 1458              		.file 3 "/Applications/Eclipse_e-puck2.app/Contents/Eclipse_e-puck2/Tools/gcc-arm-none-eabi-7-2017
 1459              		.file 4 "/Applications/Eclipse_e-puck2.app/Contents/Eclipse_e-puck2/Tools/gcc-arm-none-eabi-7-2017
 1460              		.file 5 "/Applications/Eclipse_e-puck2.app/Contents/Eclipse_e-puck2/Tools/gcc-arm-none-eabi-7-2017
 1461              		.file 6 "/Applications/Eclipse_e-puck2.app/Contents/Eclipse_e-puck2/Tools/gcc-arm-none-eabi-7-2017
 1462              		.file 7 "/Applications/Eclipse_e-puck2.app/Contents/Eclipse_e-puck2/Tools/gcc-arm-none-eabi-7-2017
 1463              		.file 8 "/Applications/Eclipse_e-puck2.app/Contents/Eclipse_e-puck2/Tools/gcc-arm-none-eabi-7-2017
 1464              		.file 9 "../e-puck2_main-processor/ChibiOS//os/rt/ports/ARMCMx/compilers/GCC/chtypes.h"
 1465              		.file 10 "../e-puck2_main-processor/ChibiOS//os/rt/include/chsystypes.h"
 1466              		.file 11 "../e-puck2_main-processor/ChibiOS//os/rt/include/chschd.h"
 1467              		.file 12 "../e-puck2_main-processor/ChibiOS//os/ext/CMSIS/include/core_cm4.h"
 1468              		.file 13 "../e-puck2_main-processor/ChibiOS//os/ext/CMSIS/ST/system_stm32f4xx.h"
 1469              		.file 14 "../e-puck2_main-processor/ChibiOS//os/ext/CMSIS/ST/stm32f407xx.h"
 1470              		.file 15 "../e-puck2_main-processor/ChibiOS//os/rt/ports/ARMCMx/chcore.h"
 1471              		.file 16 "../e-puck2_main-processor/ChibiOS//os/rt/ports/ARMCMx/chcore_v7m.h"
 1472              		.file 17 "../e-puck2_main-processor/ChibiOS//os/rt/include/chdebug.h"
 1473              		.file 18 "../e-puck2_main-processor/ChibiOS//os/rt/include/chtm.h"
 1474              		.file 19 "../e-puck2_main-processor/ChibiOS//os/rt/include/chstats.h"
 1475              		.file 20 "../e-puck2_main-processor/ChibiOS//os/rt/include/chsem.h"
 1476              		.file 21 "../e-puck2_main-processor/ChibiOS//os/rt/include/chmtx.h"
 1477              		.file 22 "../e-puck2_main-processor/ChibiOS//os/rt/include/chregistry.h"
 1478              		.file 23 "../e-puck2_main-processor/ChibiOS//os/rt/include/chevents.h"
ARM GAS  /var/folders/d2/nstgp4h54kz7g1l847x_b8wc0000gn/T//ccoABA04.s 			page 27


 1479              		.file 24 "../e-puck2_main-processor/ChibiOS//os/rt/include/chqueues.h"
 1480              		.file 25 "../e-puck2_main-processor/ChibiOS//os/hal/ports/STM32/STM32F4xx/stm32_dma.h"
 1481              		.file 26 "../e-puck2_main-processor/ChibiOS//os/hal/include/hal_ioblock.h"
 1482              		.file 27 "../e-puck2_main-processor/ChibiOS//os/hal/ports/STM32/LLD/GPIOv2/pal_lld.h"
 1483              		.file 28 "../e-puck2_main-processor/ChibiOS//os/hal/include/adc.h"
 1484              		.file 29 "../e-puck2_main-processor/ChibiOS//os/hal/ports/STM32/STM32F4xx/adc_lld.h"
 1485              		.file 30 "../e-puck2_main-processor/ChibiOS//os/hal/include/can.h"
 1486              		.file 31 "../e-puck2_main-processor/ChibiOS//os/hal/ports/STM32/LLD/can_lld.h"
 1487              		.file 32 "../e-puck2_main-processor/ChibiOS//os/hal/include/dac.h"
 1488              		.file 33 "../e-puck2_main-processor/ChibiOS//os/hal/ports/STM32/LLD/DACv1/dac_lld.h"
 1489              		.file 34 "../e-puck2_main-processor/ChibiOS//os/hal/include/ext.h"
 1490              		.file 35 "../e-puck2_main-processor/ChibiOS//os/hal/ports/STM32/LLD/ext_lld.h"
 1491              		.file 36 "../e-puck2_main-processor/ChibiOS//os/hal/include/gpt.h"
 1492              		.file 37 "../e-puck2_main-processor/ChibiOS//os/hal/ports/STM32/LLD/TIMv1/gpt_lld.h"
 1493              		.file 38 "../e-puck2_main-processor/ChibiOS//os/hal/ports/STM32/LLD/TIMv1/stm32_tim.h"
 1494              		.file 39 "../e-puck2_main-processor/ChibiOS//os/hal/include/i2c.h"
 1495              		.file 40 "../e-puck2_main-processor/ChibiOS//os/hal/ports/STM32/LLD/I2Cv1/i2c_lld.h"
 1496              		.file 41 "../e-puck2_main-processor/ChibiOS//os/hal/include/i2s.h"
 1497              		.file 42 "../e-puck2_main-processor/ChibiOS//os/hal/ports/STM32/LLD/SPIv1/i2s_lld.h"
 1498              		.file 43 "../e-puck2_main-processor/ChibiOS//os/hal/include/pwm.h"
 1499              		.file 44 "../e-puck2_main-processor/ChibiOS//os/hal/ports/STM32/LLD/TIMv1/pwm_lld.h"
 1500              		.file 45 "../e-puck2_main-processor/ChibiOS//os/hal/include/serial.h"
 1501              		.file 46 "../e-puck2_main-processor/ChibiOS//os/hal/ports/STM32/LLD/USARTv1/serial_lld.h"
 1502              		.file 47 "../e-puck2_main-processor/ChibiOS//os/hal/include/sdc.h"
 1503              		.file 48 "../e-puck2_main-processor/ChibiOS//os/hal/ports/STM32/LLD/sdc_lld.h"
 1504              		.file 49 "../e-puck2_main-processor/ChibiOS//os/hal/include/spi.h"
 1505              		.file 50 "../e-puck2_main-processor/ChibiOS//os/hal/ports/STM32/LLD/SPIv1/spi_lld.h"
 1506              		.file 51 "../e-puck2_main-processor/ChibiOS//os/hal/include/usb.h"
 1507              		.file 52 "../e-puck2_main-processor/ChibiOS//os/hal/ports/STM32/LLD/OTGv1/usb_lld.h"
 1508              		.file 53 "../e-puck2_main-processor/ChibiOS//os/hal/ports/STM32/LLD/OTGv1/stm32_otg.h"
 1509              		.file 54 "../e-puck2_main-processor/src/sensors/mpu9250.h"
 1510              		.file 55 "../e-puck2_main-processor/src/sensors/../i2c_bus.h"
 1511              		.file 56 "../e-puck2_main-processor/ChibiOS//os/rt/include/chthreads.h"