ARM GAS  /var/folders/d2/nstgp4h54kz7g1l847x_b8wc0000gn/T//cccORz8f.s 			page 1


   1              		.cpu cortex-m4
   2              		.eabi_attribute 27, 1
   3              		.eabi_attribute 28, 1
   4              		.eabi_attribute 20, 1
   5              		.eabi_attribute 21, 1
   6              		.eabi_attribute 23, 3
   7              		.eabi_attribute 24, 1
   8              		.eabi_attribute 25, 1
   9              		.eabi_attribute 26, 1
  10              		.eabi_attribute 30, 2
  11              		.eabi_attribute 34, 1
  12              		.eabi_attribute 18, 4
  13              		.file	"natives.c"
  14              		.text
  15              	.Ltext0:
  16              		.cfi_sections	.debug_frame
  17              		.section	.text.aseba_atan2.part.1,"ax",%progbits
  18              		.align	1
  19              		.p2align 4,,15
  20              		.syntax unified
  21              		.thumb
  22              		.thumb_func
  23              		.fpu fpv4-sp-d16
  24              		.type	aseba_atan2.part.1, %function
  25              	aseba_atan2.part.1:
  26              	.LFB31:
  27              		.file 1 "../e-puck2_main-processor/aseba/vm/natives.c"
  28              		.loc 1 69 0
  29              		.cfi_startproc
  30              		@ args = 0, pretend = 0, frame = 8
  31              		@ frame_needed = 0, uses_anonymous_args = 0
  32              	.LVL0:
  33 0000 F0B5     		push	{r4, r5, r6, r7, lr}
  34              		.cfi_def_cfa_offset 20
  35              		.cfi_offset 4, -20
  36              		.cfi_offset 5, -16
  37              		.cfi_offset 6, -12
  38              		.cfi_offset 7, -8
  39              		.cfi_offset 14, -4
  40 0002 2C4E     		ldr	r6, .L17
  41 0004 83B0     		sub	sp, sp, #12
  42              		.cfi_def_cfa_offset 32
  43              		.loc 1 69 0
  44 0006 3368     		ldr	r3, [r6]
  45 0008 0193     		str	r3, [sp, #4]
  46              	.LVL1:
  47              	.LBB190:
  48              		.loc 1 83 0
  49 000a 0029     		cmp	r1, #0
  50 000c 3CD0     		beq	.L9
  51              	.LBB191:
  52              		.loc 1 128 0
  53 000e 0023     		movs	r3, #0
  54              	.LBE191:
  55              		.loc 1 82 0
  56 0010 80EAE075 		eor	r5, r0, r0, asr #31
  57              		.loc 1 81 0
ARM GAS  /var/folders/d2/nstgp4h54kz7g1l847x_b8wc0000gn/T//cccORz8f.s 			page 2


  58 0014 81EAE174 		eor	r4, r1, r1, asr #31
  59              		.loc 1 82 0
  60 0018 A5EBE075 		sub	r5, r5, r0, asr #31
  61              		.loc 1 81 0
  62 001c A4EBE174 		sub	r4, r4, r1, asr #31
  63              	.LBB195:
  64              		.loc 1 129 0
  65 0020 1A46     		mov	r2, r3
  66              		.loc 1 128 0
  67 0022 2D04     		lsls	r5, r5, #16
  68 0024 24B2     		sxth	r4, r4
  69 0026 95FBF4F5 		sdiv	r5, r5, r4
  70              	.LVL2:
  71              	.L4:
  72              		.loc 1 133 0
  73 002a 55FA03F4 		asrs	r4, r5, r3
  74 002e 1CB2     		sxth	r4, r3
  75              	.LVL3:
  76 0030 03F10103 		add	r3, r3, #1
  77 0034 18BF     		it	ne
  78 0036 2246     		movne	r2, r4
  79              	.LVL4:
  80              		.loc 1 132 0
  81 0038 202B     		cmp	r3, #32
  82 003a F6D1     		bne	.L4
  83              	.LBB192:
  84              		.loc 1 138 0
  85 003c 94B2     		uxth	r4, r2
  86 003e A4F10C07 		sub	r7, r4, #12
  87 0042 3FB2     		sxth	r7, r7
  88              	.LVL5:
  89              		.loc 1 139 0
  90 0044 002F     		cmp	r7, #0
  91 0046 2CDB     		blt	.L15
  92              	.LVL6:
  93              	.LBB193:
  94              		.loc 1 146 0
  95 0048 0123     		movs	r3, #1
  96 004a 9340     		lsls	r3, r3, r2
  97              		.loc 1 147 0
  98 004c 083C     		subs	r4, r4, #8
  99              	.LVL7:
 100              		.loc 1 148 0
 101 004e 24B2     		sxth	r4, r4
 102              	.LVL8:
 103              		.loc 1 146 0
 104 0050 EB1A     		subs	r3, r5, r3
 105              		.loc 1 148 0
 106 0052 2341     		asrs	r3, r3, r4
 107 0054 1BB2     		sxth	r3, r3
 108              	.LVL9:
 109              		.loc 1 151 0
 110 0056 5A11     		asrs	r2, r3, #5
 111              	.LVL10:
 112 0058 02EBC707 		add	r7, r2, r7, lsl #3
 113              	.LVL11:
 114 005c 7C1C     		adds	r4, r7, #1
ARM GAS  /var/folders/d2/nstgp4h54kz7g1l847x_b8wc0000gn/T//cccORz8f.s 			page 3


 115 005e 164A     		ldr	r2, .L17+4
 116 0060 32F81440 		ldrh	r4, [r2, r4, lsl #1]
 117 0064 32F91720 		ldrsh	r2, [r2, r7, lsl #1]
 118              		.loc 1 150 0
 119 0068 03F01F03 		and	r3, r3, #31
 120              	.LVL12:
 121              		.loc 1 151 0
 122 006c 14FB03F4 		smulbb	r4, r4, r3
 123 0070 C3F12003 		rsb	r3, r3, #32
 124              	.LVL13:
 125 0074 03FB0243 		mla	r3, r3, r2, r4
 126 0078 43F34F13 		sbfx	r3, r3, #5, #16
 127              	.LVL14:
 128              	.L6:
 129              	.LBE193:
 130              		.loc 1 155 0
 131 007c 0029     		cmp	r1, #0
 132 007e 05DA     		bge	.L2
 133              		.loc 1 156 0
 134 0080 C3F50043 		rsb	r3, r3, #32768
 135              	.LVL15:
 136 0084 1BB2     		sxth	r3, r3
 137              	.LVL16:
 138 0086 01E0     		b	.L2
 139              	.LVL17:
 140              	.L9:
 141              	.LBE192:
 142              	.LBE195:
 143              		.loc 1 85 0
 144 0088 4FF48043 		mov	r3, #16384
 145              	.L2:
 146              	.LVL18:
 147              		.loc 1 160 0
 148 008c 0028     		cmp	r0, #0
 149              	.LBE190:
 150              		.loc 1 165 0
 151 008e 0199     		ldr	r1, [sp, #4]
 152              	.LVL19:
 153 0090 3268     		ldr	r2, [r6]
 154              	.LBB197:
 155              		.loc 1 163 0
 156 0092 DCBF     		itt	le
 157 0094 5B42     		rsble	r3, r3, #0
 158              	.LVL20:
 159 0096 1BB2     		sxthle	r3, r3
 160              	.LBE197:
 161              		.loc 1 165 0
 162 0098 9142     		cmp	r1, r2
 163 009a 1846     		mov	r0, r3
 164              	.LVL21:
 165 009c 08D1     		bne	.L16
 166 009e 03B0     		add	sp, sp, #12
 167              		.cfi_remember_state
 168              		.cfi_def_cfa_offset 20
 169              		@ sp needed
 170 00a0 F0BD     		pop	{r4, r5, r6, r7, pc}
 171              	.LVL22:
ARM GAS  /var/folders/d2/nstgp4h54kz7g1l847x_b8wc0000gn/T//cccORz8f.s 			page 4


 172              	.L15:
 173              		.cfi_restore_state
 174              	.LBB198:
 175              	.LBB196:
 176              	.LBB194:
 177              		.loc 1 142 0
 178 00a2 4FF42373 		mov	r3, #652
 179 00a6 03FB05F3 		mul	r3, r3, r5
 180 00aa 43F30F33 		sbfx	r3, r3, #12, #16
 181              	.LVL23:
 182 00ae E5E7     		b	.L6
 183              	.LVL24:
 184              	.L16:
 185              	.LBE194:
 186              	.LBE196:
 187              	.LBE198:
 188              		.loc 1 165 0
 189 00b0 FFF7FEFF 		bl	__stack_chk_fail
 190              	.LVL25:
 191              	.L18:
 192              		.align	2
 193              	.L17:
 194 00b4 00000000 		.word	__stack_chk_guard
 195 00b8 00000000 		.word	.LANCHOR0
 196              		.cfi_endproc
 197              	.LFE31:
 198              		.size	aseba_atan2.part.1, .-aseba_atan2.part.1
 199              		.section	.text.aseba_atan2,"ax",%progbits
 200              		.align	1
 201              		.p2align 4,,15
 202              		.global	aseba_atan2
 203              		.syntax unified
 204              		.thumb
 205              		.thumb_func
 206              		.fpu fpv4-sp-d16
 207              		.type	aseba_atan2, %function
 208              	aseba_atan2:
 209              	.LFB1:
 210              		.loc 1 70 0
 211              		.cfi_startproc
 212              		@ args = 0, pretend = 0, frame = 8
 213              		@ frame_needed = 0, uses_anonymous_args = 0
 214              	.LVL26:
 215 0000 00B5     		push	{lr}
 216              		.cfi_def_cfa_offset 4
 217              		.cfi_offset 14, -4
 218 0002 0E4B     		ldr	r3, .L27
 219 0004 83B0     		sub	sp, sp, #12
 220              		.cfi_def_cfa_offset 16
 221              		.loc 1 70 0
 222 0006 1A68     		ldr	r2, [r3]
 223 0008 0192     		str	r2, [sp, #4]
 224              		.loc 1 71 0
 225 000a 60B9     		cbnz	r0, .L20
 226 000c 0A46     		mov	r2, r1
 227              		.loc 1 165 0
 228 000e 0199     		ldr	r1, [sp, #4]
ARM GAS  /var/folders/d2/nstgp4h54kz7g1l847x_b8wc0000gn/T//cccORz8f.s 			page 5


 229              	.LVL27:
 230 0010 1B68     		ldr	r3, [r3]
 231              		.loc 1 73 0
 232 0012 002A     		cmp	r2, #0
 233              		.loc 1 76 0
 234 0014 A0F50040 		sub	r0, r0, #32768
 235              	.LVL28:
 236              		.loc 1 165 0
 237 0018 A8BF     		it	ge
 238 001a 0020     		movge	r0, #0
 239 001c 9942     		cmp	r1, r3
 240 001e 0BD1     		bne	.L25
 241 0020 03B0     		add	sp, sp, #12
 242              		.cfi_remember_state
 243              		.cfi_def_cfa_offset 4
 244              		@ sp needed
 245 0022 5DF804FB 		ldr	pc, [sp], #4
 246              	.LVL29:
 247              	.L20:
 248              		.cfi_restore_state
 249 0026 019A     		ldr	r2, [sp, #4]
 250 0028 1B68     		ldr	r3, [r3]
 251 002a 9A42     		cmp	r2, r3
 252 002c 04D1     		bne	.L25
 253 002e 03B0     		add	sp, sp, #12
 254              		.cfi_remember_state
 255              		.cfi_def_cfa_offset 4
 256              		@ sp needed
 257 0030 5DF804EB 		ldr	lr, [sp], #4
 258              		.cfi_restore 14
 259              		.cfi_def_cfa_offset 0
 260 0034 FFF7FEBF 		b	aseba_atan2.part.1
 261              	.LVL30:
 262              	.L25:
 263              		.cfi_restore_state
 264 0038 FFF7FEFF 		bl	__stack_chk_fail
 265              	.LVL31:
 266              	.L28:
 267              		.align	2
 268              	.L27:
 269 003c 00000000 		.word	__stack_chk_guard
 270              		.cfi_endproc
 271              	.LFE1:
 272              		.size	aseba_atan2, .-aseba_atan2
 273              		.section	.text.aseba_sin,"ax",%progbits
 274              		.align	1
 275              		.p2align 4,,15
 276              		.global	aseba_sin
 277              		.syntax unified
 278              		.thumb
 279              		.thumb_func
 280              		.fpu fpv4-sp-d16
 281              		.type	aseba_sin, %function
 282              	aseba_sin:
 283              	.LFB2:
 284              		.loc 1 181 0
 285              		.cfi_startproc
ARM GAS  /var/folders/d2/nstgp4h54kz7g1l847x_b8wc0000gn/T//cccORz8f.s 			page 6


 286              		@ args = 0, pretend = 0, frame = 8
 287              		@ frame_needed = 0, uses_anonymous_args = 0
 288              	.LVL32:
 289 0000 30B5     		push	{r4, r5, lr}
 290              		.cfi_def_cfa_offset 12
 291              		.cfi_offset 4, -12
 292              		.cfi_offset 5, -8
 293              		.cfi_offset 14, -4
 294 0002 1E49     		ldr	r1, .L45
 295 0004 83B0     		sub	sp, sp, #12
 296              		.cfi_def_cfa_offset 24
 297              		.loc 1 181 0
 298 0006 0B68     		ldr	r3, [r1]
 299 0008 0193     		str	r3, [sp, #4]
 300              		.loc 1 186 0
 301 000a 0028     		cmp	r0, #0
 302              	.LVL33:
 303 000c 22DB     		blt	.L41
 304              		.loc 1 198 0
 305 000e B0F5804F 		cmp	r0, #16384
 306 0012 1ADC     		bgt	.L42
 307              		.loc 1 200 0
 308 0014 2BD0     		beq	.L38
 309              		.loc 1 204 0
 310 0016 0025     		movs	r5, #0
 311              	.L32:
 312              	.LVL34:
 313              	.LBB199:
 314              		.loc 1 211 0
 315 0018 C411     		asrs	r4, r0, #7
 316 001a 194B     		ldr	r3, .L45+4
 317 001c 621C     		adds	r2, r4, #1
 318              	.LBE199:
 319              		.loc 1 208 0
 320 001e 00F07F00 		and	r0, r0, #127
 321              	.LVL35:
 322              	.LBB200:
 323              		.loc 1 211 0
 324 0022 33F81220 		ldrh	r2, [r3, r2, lsl #1]
 325 0026 33F91430 		ldrsh	r3, [r3, r4, lsl #1]
 326 002a 12FB00F2 		smulbb	r2, r2, r0
 327 002e C0F18000 		rsb	r0, r0, #128
 328              	.LVL36:
 329 0032 00FB0320 		mla	r0, r0, r3, r2
 330 0036 C011     		asrs	r0, r0, #7
 331              	.LVL37:
 332              		.loc 1 213 0
 333 0038 05B1     		cbz	r5, .L40
 334              		.loc 1 214 0
 335 003a 4042     		negs	r0, r0
 336              	.LVL38:
 337              	.L40:
 338 003c 00B2     		sxth	r0, r0
 339              	.LVL39:
 340              	.L33:
 341              	.LBE200:
 342              		.loc 1 218 0
ARM GAS  /var/folders/d2/nstgp4h54kz7g1l847x_b8wc0000gn/T//cccORz8f.s 			page 7


 343 003e 019A     		ldr	r2, [sp, #4]
 344 0040 0B68     		ldr	r3, [r1]
 345 0042 9A42     		cmp	r2, r3
 346 0044 18D1     		bne	.L43
 347 0046 03B0     		add	sp, sp, #12
 348              		.cfi_remember_state
 349              		.cfi_def_cfa_offset 12
 350              		@ sp needed
 351 0048 30BD     		pop	{r4, r5, pc}
 352              	.L42:
 353              		.cfi_restore_state
 354              		.loc 1 199 0
 355 004a C0F50040 		rsb	r0, r0, #32768
 356 004e 00B2     		sxth	r0, r0
 357              	.LVL40:
 358              		.loc 1 204 0
 359 0050 0025     		movs	r5, #0
 360 0052 E1E7     		b	.L32
 361              	.LVL41:
 362              	.L41:
 363              		.loc 1 188 0
 364 0054 10F5804F 		cmn	r0, #16384
 365 0058 04DB     		blt	.L44
 366              		.loc 1 190 0
 367 005a 0BD0     		beq	.L37
 368              		.loc 1 191 0
 369 005c 4042     		negs	r0, r0
 370 005e 00B2     		sxth	r0, r0
 371              	.LVL42:
 372              		.loc 1 194 0
 373 0060 0125     		movs	r5, #1
 374 0062 D9E7     		b	.L32
 375              	.LVL43:
 376              	.L44:
 377              		.loc 1 189 0
 378 0064 A0F50040 		sub	r0, r0, #32768
 379 0068 00B2     		sxth	r0, r0
 380              	.LVL44:
 381              		.loc 1 194 0
 382 006a 0125     		movs	r5, #1
 383 006c D4E7     		b	.L32
 384              	.LVL45:
 385              	.L38:
 386              		.loc 1 203 0
 387 006e 47F6FF70 		movw	r0, #32767
 388 0072 E4E7     		b	.L33
 389              	.L37:
 390              		.loc 1 193 0
 391 0074 0348     		ldr	r0, .L45+8
 392 0076 E2E7     		b	.L33
 393              	.L43:
 394              		.loc 1 218 0
 395 0078 FFF7FEFF 		bl	__stack_chk_fail
 396              	.LVL46:
 397              	.L46:
 398              		.align	2
 399              	.L45:
ARM GAS  /var/folders/d2/nstgp4h54kz7g1l847x_b8wc0000gn/T//cccORz8f.s 			page 8


 400 007c 00000000 		.word	__stack_chk_guard
 401 0080 00000000 		.word	.LANCHOR1
 402 0084 0180FFFF 		.word	-32767
 403              		.cfi_endproc
 404              	.LFE2:
 405              		.size	aseba_sin, .-aseba_sin
 406              		.section	.text.aseba_cos,"ax",%progbits
 407              		.align	1
 408              		.p2align 4,,15
 409              		.global	aseba_cos
 410              		.syntax unified
 411              		.thumb
 412              		.thumb_func
 413              		.fpu fpv4-sp-d16
 414              		.type	aseba_cos, %function
 415              	aseba_cos:
 416              	.LFB3:
 417              		.loc 1 222 0
 418              		.cfi_startproc
 419              		@ args = 0, pretend = 0, frame = 8
 420              		@ frame_needed = 0, uses_anonymous_args = 0
 421              	.LVL47:
 422 0000 00B5     		push	{lr}
 423              		.cfi_def_cfa_offset 4
 424              		.cfi_offset 14, -4
 425 0002 094B     		ldr	r3, .L52
 426 0004 83B0     		sub	sp, sp, #12
 427              		.cfi_def_cfa_offset 16
 428              		.loc 1 222 0
 429 0006 1A68     		ldr	r2, [r3]
 430 0008 0192     		str	r2, [sp, #4]
 431              		.loc 1 223 0
 432 000a 019A     		ldr	r2, [sp, #4]
 433 000c 1B68     		ldr	r3, [r3]
 434 000e 9A42     		cmp	r2, r3
 435 0010 07D1     		bne	.L51
 436 0012 00F58040 		add	r0, r0, #16384
 437              	.LVL48:
 438 0016 00B2     		sxth	r0, r0
 439              		.loc 1 224 0
 440 0018 03B0     		add	sp, sp, #12
 441              		.cfi_remember_state
 442              		.cfi_def_cfa_offset 4
 443              		@ sp needed
 444 001a 5DF804EB 		ldr	lr, [sp], #4
 445              		.cfi_restore 14
 446              		.cfi_def_cfa_offset 0
 447              		.loc 1 223 0
 448 001e FFF7FEBF 		b	aseba_sin
 449              	.LVL49:
 450              	.L51:
 451              		.cfi_restore_state
 452 0022 FFF7FEFF 		bl	__stack_chk_fail
 453              	.LVL50:
 454              	.L53:
 455 0026 00BF     		.align	2
 456              	.L52:
ARM GAS  /var/folders/d2/nstgp4h54kz7g1l847x_b8wc0000gn/T//cccORz8f.s 			page 9


 457 0028 00000000 		.word	__stack_chk_guard
 458              		.cfi_endproc
 459              	.LFE3:
 460              		.size	aseba_cos, .-aseba_cos
 461              		.section	.text.aseba_sqrt,"ax",%progbits
 462              		.align	1
 463              		.p2align 4,,15
 464              		.global	aseba_sqrt
 465              		.syntax unified
 466              		.thumb
 467              		.thumb_func
 468              		.fpu fpv4-sp-d16
 469              		.type	aseba_sqrt, %function
 470              	aseba_sqrt:
 471              	.LFB4:
 472              		.loc 1 228 0
 473              		.cfi_startproc
 474              		@ args = 0, pretend = 0, frame = 8
 475              		@ frame_needed = 0, uses_anonymous_args = 0
 476              	.LVL51:
 477 0000 30B5     		push	{r4, r5, lr}
 478              		.cfi_def_cfa_offset 12
 479              		.cfi_offset 4, -12
 480              		.cfi_offset 5, -8
 481              		.cfi_offset 14, -4
 482 0002 154D     		ldr	r5, .L70
 483 0004 83B0     		sub	sp, sp, #12
 484              		.cfi_def_cfa_offset 24
 485              		.loc 1 228 0
 486 0006 2B68     		ldr	r3, [r5]
 487 0008 0193     		str	r3, [sp, #4]
 488              	.LVL52:
 489              		.loc 1 233 0
 490 000a B0F5804F 		cmp	r0, #16384
 491              		.loc 1 231 0
 492 000e 4FF48043 		mov	r3, #16384
 493              		.loc 1 233 0
 494 0012 03DA     		bge	.L55
 495              	.LVL53:
 496              	.L56:
 497              		.loc 1 234 0
 498 0014 9B10     		asrs	r3, r3, #2
 499              	.LVL54:
 500              		.loc 1 233 0
 501 0016 9842     		cmp	r0, r3
 502 0018 FCDB     		blt	.L56
 503              		.loc 1 236 0
 504 001a CBB1     		cbz	r3, .L67
 505              	.LVL55:
 506              	.L55:
 507              		.loc 1 231 0
 508 001c 0022     		movs	r2, #0
 509 001e 08E0     		b	.L59
 510              	.LVL56:
 511              	.L68:
 512              		.loc 1 240 0
 513 0020 99B2     		uxth	r1, r3
ARM GAS  /var/folders/d2/nstgp4h54kz7g1l847x_b8wc0000gn/T//cccORz8f.s 			page 10


 514 0022 0A44     		add	r2, r2, r1
 515              	.LVL57:
 516 0024 801A     		subs	r0, r0, r2
 517              	.LVL58:
 518              		.loc 1 236 0
 519 0026 9B10     		asrs	r3, r3, #2
 520              	.LVL59:
 521              		.loc 1 241 0
 522 0028 01EB0402 		add	r2, r1, r4
 523              		.loc 1 240 0
 524 002c 00B2     		sxth	r0, r0
 525              	.LVL60:
 526              		.loc 1 241 0
 527 002e 12B2     		sxth	r2, r2
 528              	.LVL61:
 529              		.loc 1 236 0
 530 0030 07D0     		beq	.L57
 531              	.LVL62:
 532              	.L59:
 533              		.loc 1 238 0
 534 0032 D118     		adds	r1, r2, r3
 535 0034 8842     		cmp	r0, r1
 536 0036 4FEA6204 		asr	r4, r2, #1
 537 003a F1DA     		bge	.L68
 538              		.loc 1 236 0
 539 003c 9B10     		asrs	r3, r3, #2
 540              	.LVL63:
 541              		.loc 1 245 0
 542 003e 2246     		mov	r2, r4
 543              	.LVL64:
 544              		.loc 1 236 0
 545 0040 F7D1     		bne	.L59
 546              	.LVL65:
 547              	.L57:
 548              		.loc 1 250 0
 549 0042 0199     		ldr	r1, [sp, #4]
 550 0044 2B68     		ldr	r3, [r5]
 551 0046 9942     		cmp	r1, r3
 552 0048 1046     		mov	r0, r2
 553              	.LVL66:
 554 004a 03D1     		bne	.L69
 555 004c 03B0     		add	sp, sp, #12
 556              		.cfi_remember_state
 557              		.cfi_def_cfa_offset 12
 558              		@ sp needed
 559 004e 30BD     		pop	{r4, r5, pc}
 560              	.LVL67:
 561              	.L67:
 562              		.cfi_restore_state
 563              		.loc 1 230 0
 564 0050 1A46     		mov	r2, r3
 565 0052 F6E7     		b	.L57
 566              	.LVL68:
 567              	.L69:
 568              		.loc 1 250 0
 569 0054 FFF7FEFF 		bl	__stack_chk_fail
 570              	.LVL69:
ARM GAS  /var/folders/d2/nstgp4h54kz7g1l847x_b8wc0000gn/T//cccORz8f.s 			page 11


 571              	.L71:
 572              		.align	2
 573              	.L70:
 574 0058 00000000 		.word	__stack_chk_guard
 575              		.cfi_endproc
 576              	.LFE4:
 577              		.size	aseba_sqrt, .-aseba_sqrt
 578              		.section	.text.aseba_comb_sort,"ax",%progbits
 579              		.align	1
 580              		.p2align 4,,15
 581              		.global	aseba_comb_sort
 582              		.syntax unified
 583              		.thumb
 584              		.thumb_func
 585              		.fpu fpv4-sp-d16
 586              		.type	aseba_comb_sort, %function
 587              	aseba_comb_sort:
 588              	.LFB5:
 589              		.loc 1 254 0
 590              		.cfi_startproc
 591              		@ args = 0, pretend = 0, frame = 8
 592              		@ frame_needed = 0, uses_anonymous_args = 0
 593              	.LVL70:
 594 0000 2DE9F043 		push	{r4, r5, r6, r7, r8, r9, lr}
 595              		.cfi_def_cfa_offset 28
 596              		.cfi_offset 4, -28
 597              		.cfi_offset 5, -24
 598              		.cfi_offset 6, -20
 599              		.cfi_offset 7, -16
 600              		.cfi_offset 8, -12
 601              		.cfi_offset 9, -8
 602              		.cfi_offset 14, -4
 603 0004 DFF880E0 		ldr	lr, .L91
 604              		.loc 1 266 0
 605 0008 DFF880C0 		ldr	ip, .L91+4
 606              		.loc 1 254 0
 607 000c DEF80030 		ldr	r3, [lr]
 608 0010 83B0     		sub	sp, sp, #12
 609              		.cfi_def_cfa_offset 40
 610              		.loc 1 255 0
 611 0012 0F46     		mov	r7, r1
 612              		.loc 1 259 0
 613 0014 012F     		cmp	r7, #1
 614              		.loc 1 254 0
 615 0016 0193     		str	r3, [sp, #4]
 616              	.LVL71:
 617              		.loc 1 256 0
 618 0018 4FF00009 		mov	r9, #0
 619              	.LVL72:
 620              		.loc 1 259 0
 621 001c 1FD9     		bls	.L89
 622              	.LVL73:
 623              	.L77:
 624              		.loc 1 266 0
 625 001e BF00     		lsls	r7, r7, #2
 626              	.LVL74:
 627 0020 ACFB0737 		umull	r3, r7, ip, r7
ARM GAS  /var/folders/d2/nstgp4h54kz7g1l847x_b8wc0000gn/T//cccORz8f.s 			page 12


 628 0024 BF08     		lsrs	r7, r7, #2
 629              		.loc 1 272 0
 630 0026 3A46     		mov	r2, r7
 631 0028 8A42     		cmp	r2, r1
 632              		.loc 1 266 0
 633 002a BFB2     		uxth	r7, r7
 634              	.LVL75:
 635              		.loc 1 272 0
 636 002c 1FDA     		bge	.L74
 637 002e 9046     		mov	r8, r2
 638              	.L80:
 639 0030 0023     		movs	r3, #0
 640 0032 9946     		mov	r9, r3
 641              	.LVL76:
 642              	.L76:
 643              		.loc 1 274 0
 644 0034 30F91340 		ldrsh	r4, [r0, r3, lsl #1]
 645 0038 30F91250 		ldrsh	r5, [r0, r2, lsl #1]
 646 003c 661B     		subs	r6, r4, r5
 647 003e 002E     		cmp	r6, #0
 648 0040 05DD     		ble	.L75
 649              	.LVL77:
 650              	.LBB201:
 651              		.loc 1 277 0
 652 0042 20F81350 		strh	r5, [r0, r3, lsl #1]	@ movhi
 653              		.loc 1 278 0
 654 0046 20F81240 		strh	r4, [r0, r2, lsl #1]	@ movhi
 655              	.LVL78:
 656              		.loc 1 279 0
 657 004a 4FF00109 		mov	r9, #1
 658              	.LVL79:
 659              	.L75:
 660              	.LBE201:
 661              		.loc 1 272 0 discriminator 2
 662 004e 0133     		adds	r3, r3, #1
 663              	.LVL80:
 664 0050 9BB2     		uxth	r3, r3
 665              	.LVL81:
 666 0052 03EB0802 		add	r2, r3, r8
 667 0056 8A42     		cmp	r2, r1
 668 0058 ECDB     		blt	.L76
 669              	.LVL82:
 670              		.loc 1 259 0
 671 005a 012F     		cmp	r7, #1
 672 005c DFD8     		bhi	.L77
 673              	.LVL83:
 674              	.L89:
 675              		.loc 1 259 0 is_stmt 0 discriminator 1
 676 005e B9F1000F 		cmp	r9, #0
 677 0062 06D0     		beq	.L72
 678              	.LVL84:
 679              		.loc 1 272 0 is_stmt 1
 680 0064 8F42     		cmp	r7, r1
 681 0066 3A46     		mov	r2, r7
 682 0068 03DA     		bge	.L72
 683 006a B846     		mov	r8, r7
 684 006c E0E7     		b	.L80
ARM GAS  /var/folders/d2/nstgp4h54kz7g1l847x_b8wc0000gn/T//cccORz8f.s 			page 13


 685              	.L74:
 686              		.loc 1 259 0
 687 006e 012F     		cmp	r7, #1
 688 0070 D5D1     		bne	.L77
 689              	.LVL85:
 690              	.L72:
 691              		.loc 1 283 0
 692 0072 019A     		ldr	r2, [sp, #4]
 693 0074 DEF80030 		ldr	r3, [lr]
 694 0078 9A42     		cmp	r2, r3
 695 007a 02D1     		bne	.L90
 696 007c 03B0     		add	sp, sp, #12
 697              		.cfi_remember_state
 698              		.cfi_def_cfa_offset 28
 699              		@ sp needed
 700 007e BDE8F083 		pop	{r4, r5, r6, r7, r8, r9, pc}
 701              	.LVL86:
 702              	.L90:
 703              		.cfi_restore_state
 704 0082 FFF7FEFF 		bl	__stack_chk_fail
 705              	.LVL87:
 706              	.L92:
 707 0086 00BF     		.align	2
 708              	.L91:
 709 0088 00000000 		.word	__stack_chk_guard
 710 008c CDCCCCCC 		.word	-858993459
 711              		.cfi_endproc
 712              	.LFE5:
 713              		.size	aseba_comb_sort, .-aseba_comb_sort
 714              		.section	.text.AsebaNative_veccopy,"ax",%progbits
 715              		.align	1
 716              		.p2align 4,,15
 717              		.global	AsebaNative_veccopy
 718              		.syntax unified
 719              		.thumb
 720              		.thumb_func
 721              		.fpu fpv4-sp-d16
 722              		.type	AsebaNative_veccopy, %function
 723              	AsebaNative_veccopy:
 724              	.LFB6:
 725              		.loc 1 289 0
 726              		.cfi_startproc
 727              		@ args = 0, pretend = 0, frame = 8
 728              		@ frame_needed = 0, uses_anonymous_args = 0
 729              	.LVL88:
 730              	.LBB202:
 731              	.LBB203:
 732              		.file 2 "../e-puck2_main-processor/aseba/vm/natives.h"
 733              		.loc 2 90 0
 734 0000 B0F91C20 		ldrsh	r2, [r0, #28]
 735              	.LBE203:
 736              	.LBE202:
 737              		.loc 1 289 0
 738 0004 F0B5     		push	{r4, r5, r6, r7, lr}
 739              		.cfi_def_cfa_offset 20
 740              		.cfi_offset 4, -20
 741              		.cfi_offset 5, -16
ARM GAS  /var/folders/d2/nstgp4h54kz7g1l847x_b8wc0000gn/T//cccORz8f.s 			page 14


 742              		.cfi_offset 6, -12
 743              		.cfi_offset 7, -8
 744              		.cfi_offset 14, -4
 745              	.LBB207:
 746              	.LBB204:
 747              		.loc 2 90 0
 748 0006 93B2     		uxth	r3, r2
 749 0008 5C1E     		subs	r4, r3, #1
 750 000a 4569     		ldr	r5, [r0, #20]
 751              	.LVL89:
 752              	.LBE204:
 753              	.LBE207:
 754              		.loc 1 289 0
 755 000c 134F     		ldr	r7, .L103
 756              	.LBB208:
 757              	.LBB205:
 758              		.loc 2 90 0
 759 000e 24B2     		sxth	r4, r4
 760              	.LBE205:
 761              	.LBE208:
 762              	.LBB209:
 763              	.LBB210:
 764 0010 991E     		subs	r1, r3, #2
 765              	.LBE210:
 766              	.LBE209:
 767              	.LBB213:
 768              	.LBB206:
 769 0012 8483     		strh	r4, [r0, #28]	@ movhi
 770              	.LBE206:
 771              	.LBE213:
 772              	.LBB214:
 773              	.LBB211:
 774 0014 09B2     		sxth	r1, r1
 775              	.LBE211:
 776              	.LBE214:
 777              		.loc 1 291 0
 778 0016 35F81260 		ldrh	r6, [r5, r2, lsl #1]
 779              	.LVL90:
 780              	.LBB215:
 781              	.LBB212:
 782              		.loc 2 90 0
 783 001a 8183     		strh	r1, [r0, #28]	@ movhi
 784              	.LBE212:
 785              	.LBE215:
 786              	.LBB216:
 787              	.LBB217:
 788 001c DA1E     		subs	r2, r3, #3
 789              	.LBE217:
 790              	.LBE216:
 791              		.loc 1 292 0
 792 001e 35F81430 		ldrh	r3, [r5, r4, lsl #1]
 793              	.LVL91:
 794              	.LBB219:
 795              	.LBB218:
 796              		.loc 2 90 0
 797 0022 8283     		strh	r2, [r0, #28]	@ movhi
 798              	.LBE218:
ARM GAS  /var/folders/d2/nstgp4h54kz7g1l847x_b8wc0000gn/T//cccORz8f.s 			page 15


 799              	.LBE219:
 800              		.loc 1 289 0
 801 0024 83B0     		sub	sp, sp, #12
 802              		.cfi_def_cfa_offset 32
 803              		.loc 1 295 0
 804 0026 35F81150 		ldrh	r5, [r5, r1, lsl #1]
 805              	.LVL92:
 806              		.loc 1 289 0
 807 002a 3A68     		ldr	r2, [r7]
 808 002c 0192     		str	r2, [sp, #4]
 809              		.loc 1 299 0
 810 002e 6DB1     		cbz	r5, .L93
 811 0030 1D44     		add	r5, r5, r3
 812              	.LVL93:
 813 0032 ADB2     		uxth	r5, r5
 814 0034 F61A     		subs	r6, r6, r3
 815              	.LVL94:
 816              	.L95:
 817              		.loc 1 301 0 discriminator 3
 818 0036 C168     		ldr	r1, [r0, #12]
 819 0038 9A19     		adds	r2, r3, r6
 820 003a 92B2     		uxth	r2, r2
 821 003c 5C1C     		adds	r4, r3, #1
 822              	.LVL95:
 823 003e 31F91330 		ldrsh	r3, [r1, r3, lsl #1]
 824 0042 21F81230 		strh	r3, [r1, r2, lsl #1]	@ movhi
 825 0046 A3B2     		uxth	r3, r4
 826              		.loc 1 299 0 discriminator 3
 827 0048 AB42     		cmp	r3, r5
 828 004a F4D1     		bne	.L95
 829              	.LVL96:
 830              	.L93:
 831              		.loc 1 303 0
 832 004c 019A     		ldr	r2, [sp, #4]
 833 004e 3B68     		ldr	r3, [r7]
 834 0050 9A42     		cmp	r2, r3
 835 0052 01D1     		bne	.L102
 836 0054 03B0     		add	sp, sp, #12
 837              		.cfi_remember_state
 838              		.cfi_def_cfa_offset 20
 839              		@ sp needed
 840 0056 F0BD     		pop	{r4, r5, r6, r7, pc}
 841              	.L102:
 842              		.cfi_restore_state
 843 0058 FFF7FEFF 		bl	__stack_chk_fail
 844              	.LVL97:
 845              	.L104:
 846              		.align	2
 847              	.L103:
 848 005c 00000000 		.word	__stack_chk_guard
 849              		.cfi_endproc
 850              	.LFE6:
 851              		.size	AsebaNative_veccopy, .-AsebaNative_veccopy
 852              		.section	.text.AsebaNative_vecfill,"ax",%progbits
 853              		.align	1
 854              		.p2align 4,,15
 855              		.global	AsebaNative_vecfill
ARM GAS  /var/folders/d2/nstgp4h54kz7g1l847x_b8wc0000gn/T//cccORz8f.s 			page 16


 856              		.syntax unified
 857              		.thumb
 858              		.thumb_func
 859              		.fpu fpv4-sp-d16
 860              		.type	AsebaNative_vecfill, %function
 861              	AsebaNative_vecfill:
 862              	.LFB7:
 863              		.loc 1 318 0
 864              		.cfi_startproc
 865              		@ args = 0, pretend = 0, frame = 8
 866              		@ frame_needed = 0, uses_anonymous_args = 0
 867              	.LVL98:
 868              	.LBB220:
 869              	.LBB221:
 870              		.loc 2 90 0
 871 0000 B0F91C30 		ldrsh	r3, [r0, #28]
 872              	.LBE221:
 873              	.LBE220:
 874              		.loc 1 318 0
 875 0004 F0B5     		push	{r4, r5, r6, r7, lr}
 876              		.cfi_def_cfa_offset 20
 877              		.cfi_offset 4, -20
 878              		.cfi_offset 5, -16
 879              		.cfi_offset 6, -12
 880              		.cfi_offset 7, -8
 881              		.cfi_offset 14, -4
 882              	.LBB225:
 883              	.LBB222:
 884              		.loc 2 90 0
 885 0006 9AB2     		uxth	r2, r3
 886 0008 541E     		subs	r4, r2, #1
 887 000a 4569     		ldr	r5, [r0, #20]
 888              	.LVL99:
 889              	.LBE222:
 890              	.LBE225:
 891              		.loc 1 318 0
 892 000c 124F     		ldr	r7, .L115
 893              	.LBB226:
 894              	.LBB223:
 895              		.loc 2 90 0
 896 000e 24B2     		sxth	r4, r4
 897              	.LBE223:
 898              	.LBE226:
 899              	.LBB227:
 900              	.LBB228:
 901 0010 911E     		subs	r1, r2, #2
 902              	.LBE228:
 903              	.LBE227:
 904              	.LBB231:
 905              	.LBB224:
 906 0012 8483     		strh	r4, [r0, #28]	@ movhi
 907              	.LBE224:
 908              	.LBE231:
 909              	.LBB232:
 910              	.LBB229:
 911 0014 09B2     		sxth	r1, r1
 912              	.LBE229:
ARM GAS  /var/folders/d2/nstgp4h54kz7g1l847x_b8wc0000gn/T//cccORz8f.s 			page 17


 913              	.LBE232:
 914              		.loc 1 320 0
 915 0016 35F81330 		ldrh	r3, [r5, r3, lsl #1]
 916              	.LVL100:
 917              	.LBB233:
 918              	.LBB230:
 919              		.loc 2 90 0
 920 001a 8183     		strh	r1, [r0, #28]	@ movhi
 921              	.LBE230:
 922              	.LBE233:
 923              	.LBB234:
 924              	.LBB235:
 925 001c 033A     		subs	r2, r2, #3
 926              	.LBE235:
 927              	.LBE234:
 928              		.loc 1 321 0
 929 001e 35F81460 		ldrh	r6, [r5, r4, lsl #1]
 930              	.LVL101:
 931              	.LBB237:
 932              	.LBB236:
 933              		.loc 2 90 0
 934 0022 8283     		strh	r2, [r0, #28]	@ movhi
 935              	.LBE236:
 936              	.LBE237:
 937              		.loc 1 318 0
 938 0024 83B0     		sub	sp, sp, #12
 939              		.cfi_def_cfa_offset 32
 940              		.loc 1 324 0
 941 0026 35F81150 		ldrh	r5, [r5, r1, lsl #1]
 942              	.LVL102:
 943              		.loc 1 318 0
 944 002a 3A68     		ldr	r2, [r7]
 945 002c 0192     		str	r2, [sp, #4]
 946              		.loc 1 328 0
 947 002e 55B1     		cbz	r5, .L105
 948 0030 1D44     		add	r5, r5, r3
 949              	.LVL103:
 950 0032 ADB2     		uxth	r5, r5
 951              		.loc 1 330 0
 952 0034 7600     		lsls	r6, r6, #1
 953              	.LVL104:
 954              	.L107:
 955              		.loc 1 330 0 is_stmt 0 discriminator 3
 956 0036 C268     		ldr	r2, [r0, #12]
 957 0038 591C     		adds	r1, r3, #1
 958              	.LVL105:
 959 003a 945F     		ldrsh	r4, [r2, r6]
 960 003c 22F81340 		strh	r4, [r2, r3, lsl #1]	@ movhi
 961 0040 8BB2     		uxth	r3, r1
 962              		.loc 1 328 0 is_stmt 1 discriminator 3
 963 0042 AB42     		cmp	r3, r5
 964 0044 F7D1     		bne	.L107
 965              	.LVL106:
 966              	.L105:
 967              		.loc 1 332 0
 968 0046 019A     		ldr	r2, [sp, #4]
 969 0048 3B68     		ldr	r3, [r7]
ARM GAS  /var/folders/d2/nstgp4h54kz7g1l847x_b8wc0000gn/T//cccORz8f.s 			page 18


 970 004a 9A42     		cmp	r2, r3
 971 004c 01D1     		bne	.L114
 972 004e 03B0     		add	sp, sp, #12
 973              		.cfi_remember_state
 974              		.cfi_def_cfa_offset 20
 975              		@ sp needed
 976 0050 F0BD     		pop	{r4, r5, r6, r7, pc}
 977              	.L114:
 978              		.cfi_restore_state
 979 0052 FFF7FEFF 		bl	__stack_chk_fail
 980              	.LVL107:
 981              	.L116:
 982 0056 00BF     		.align	2
 983              	.L115:
 984 0058 00000000 		.word	__stack_chk_guard
 985              		.cfi_endproc
 986              	.LFE7:
 987              		.size	AsebaNative_vecfill, .-AsebaNative_vecfill
 988              		.section	.text.AsebaNative_vecaddscalar,"ax",%progbits
 989              		.align	1
 990              		.p2align 4,,15
 991              		.global	AsebaNative_vecaddscalar
 992              		.syntax unified
 993              		.thumb
 994              		.thumb_func
 995              		.fpu fpv4-sp-d16
 996              		.type	AsebaNative_vecaddscalar, %function
 997              	AsebaNative_vecaddscalar:
 998              	.LFB8:
 999              		.loc 1 347 0
 1000              		.cfi_startproc
 1001              		@ args = 0, pretend = 0, frame = 8
 1002              		@ frame_needed = 0, uses_anonymous_args = 0
 1003              	.LVL108:
 1004              	.LBB238:
 1005              	.LBB239:
 1006              		.loc 2 90 0
 1007 0000 B0F91CC0 		ldrsh	ip, [r0, #28]
 1008 0004 4169     		ldr	r1, [r0, #20]
 1009              	.LVL109:
 1010              	.LBE239:
 1011              	.LBE238:
 1012              		.loc 1 347 0
 1013 0006 F0B5     		push	{r4, r5, r6, r7, lr}
 1014              		.cfi_def_cfa_offset 20
 1015              		.cfi_offset 4, -20
 1016              		.cfi_offset 5, -16
 1017              		.cfi_offset 6, -12
 1018              		.cfi_offset 7, -8
 1019              		.cfi_offset 14, -4
 1020              	.LBB242:
 1021              	.LBB240:
 1022              		.loc 2 90 0
 1023 0008 1FFA8CF2 		uxth	r2, ip
 1024 000c 531E     		subs	r3, r2, #1
 1025 000e 1BB2     		sxth	r3, r3
 1026              	.LBE240:
ARM GAS  /var/folders/d2/nstgp4h54kz7g1l847x_b8wc0000gn/T//cccORz8f.s 			page 19


 1027              	.LBE242:
 1028              	.LBB243:
 1029              	.LBB244:
 1030 0010 961E     		subs	r6, r2, #2
 1031              	.LBE244:
 1032              	.LBE243:
 1033              	.LBB247:
 1034              	.LBB241:
 1035 0012 8383     		strh	r3, [r0, #28]	@ movhi
 1036              	.LBE241:
 1037              	.LBE247:
 1038              	.LBB248:
 1039              	.LBB245:
 1040 0014 36B2     		sxth	r6, r6
 1041              	.LBE245:
 1042              	.LBE248:
 1043              	.LBB249:
 1044              	.LBB250:
 1045 0016 D51E     		subs	r5, r2, #3
 1046              	.LBE250:
 1047              	.LBE249:
 1048              		.loc 1 349 0
 1049 0018 31F81CC0 		ldrh	ip, [r1, ip, lsl #1]
 1050              	.LVL110:
 1051              	.LBB253:
 1052              	.LBB246:
 1053              		.loc 2 90 0
 1054 001c 8683     		strh	r6, [r0, #28]	@ movhi
 1055              	.LBE246:
 1056              	.LBE253:
 1057              	.LBB254:
 1058              	.LBB251:
 1059 001e 2DB2     		sxth	r5, r5
 1060              	.LBE251:
 1061              	.LBE254:
 1062              		.loc 1 350 0
 1063 0020 31F81330 		ldrh	r3, [r1, r3, lsl #1]
 1064              	.LVL111:
 1065              	.LBB255:
 1066              	.LBB252:
 1067              		.loc 2 90 0
 1068 0024 8583     		strh	r5, [r0, #28]	@ movhi
 1069              	.LBE252:
 1070              	.LBE255:
 1071              	.LBB256:
 1072              	.LBB257:
 1073 0026 043A     		subs	r2, r2, #4
 1074              	.LBE257:
 1075              	.LBE256:
 1076              		.loc 1 351 0
 1077 0028 31F81660 		ldrh	r6, [r1, r6, lsl #1]
 1078              	.LVL112:
 1079              		.loc 1 347 0
 1080 002c 124F     		ldr	r7, .L127
 1081              	.LBB259:
 1082              	.LBB258:
 1083              		.loc 2 90 0
ARM GAS  /var/folders/d2/nstgp4h54kz7g1l847x_b8wc0000gn/T//cccORz8f.s 			page 20


 1084 002e 8283     		strh	r2, [r0, #28]	@ movhi
 1085              	.LBE258:
 1086              	.LBE259:
 1087              		.loc 1 347 0
 1088 0030 83B0     		sub	sp, sp, #12
 1089              		.cfi_def_cfa_offset 32
 1090              		.loc 1 356 0
 1091 0032 C468     		ldr	r4, [r0, #12]
 1092              		.loc 1 354 0
 1093 0034 31F81550 		ldrh	r5, [r1, r5, lsl #1]
 1094              	.LVL113:
 1095              		.loc 1 347 0
 1096 0038 3A68     		ldr	r2, [r7]
 1097              		.loc 1 356 0
 1098 003a 34F91660 		ldrsh	r6, [r4, r6, lsl #1]
 1099              	.LVL114:
 1100              		.loc 1 347 0
 1101 003e 0192     		str	r2, [sp, #4]
 1102              		.loc 1 358 0
 1103 0040 95B1     		cbz	r5, .L117
 1104 0042 1D44     		add	r5, r5, r3
 1105              	.LVL115:
 1106 0044 ADB2     		uxth	r5, r5
 1107 0046 ACEB030C 		sub	ip, ip, r3
 1108              	.LVL116:
 1109 004a B6B2     		uxth	r6, r6
 1110 004c 00E0     		b	.L119
 1111              	.LVL117:
 1112              	.L125:
 1113 004e C468     		ldr	r4, [r0, #12]
 1114              	.LVL118:
 1115              	.L119:
 1116              		.loc 1 360 0 discriminator 3
 1117 0050 34F81310 		ldrh	r1, [r4, r3, lsl #1]
 1118 0054 03EB0C02 		add	r2, r3, ip
 1119 0058 0133     		adds	r3, r3, #1
 1120              	.LVL119:
 1121 005a 92B2     		uxth	r2, r2
 1122 005c 9BB2     		uxth	r3, r3
 1123              	.LVL120:
 1124 005e 3144     		add	r1, r1, r6
 1125              		.loc 1 358 0 discriminator 3
 1126 0060 AB42     		cmp	r3, r5
 1127              		.loc 1 360 0 discriminator 3
 1128 0062 24F81210 		strh	r1, [r4, r2, lsl #1]	@ movhi
 1129              		.loc 1 358 0 discriminator 3
 1130 0066 F2D1     		bne	.L125
 1131              	.LVL121:
 1132              	.L117:
 1133              		.loc 1 362 0
 1134 0068 019A     		ldr	r2, [sp, #4]
 1135 006a 3B68     		ldr	r3, [r7]
 1136 006c 9A42     		cmp	r2, r3
 1137 006e 01D1     		bne	.L126
 1138 0070 03B0     		add	sp, sp, #12
 1139              		.cfi_remember_state
 1140              		.cfi_def_cfa_offset 20
ARM GAS  /var/folders/d2/nstgp4h54kz7g1l847x_b8wc0000gn/T//cccORz8f.s 			page 21


 1141              		@ sp needed
 1142 0072 F0BD     		pop	{r4, r5, r6, r7, pc}
 1143              	.L126:
 1144              		.cfi_restore_state
 1145 0074 FFF7FEFF 		bl	__stack_chk_fail
 1146              	.LVL122:
 1147              	.L128:
 1148              		.align	2
 1149              	.L127:
 1150 0078 00000000 		.word	__stack_chk_guard
 1151              		.cfi_endproc
 1152              	.LFE8:
 1153              		.size	AsebaNative_vecaddscalar, .-AsebaNative_vecaddscalar
 1154              		.section	.text.AsebaNative_vecadd,"ax",%progbits
 1155              		.align	1
 1156              		.p2align 4,,15
 1157              		.global	AsebaNative_vecadd
 1158              		.syntax unified
 1159              		.thumb
 1160              		.thumb_func
 1161              		.fpu fpv4-sp-d16
 1162              		.type	AsebaNative_vecadd, %function
 1163              	AsebaNative_vecadd:
 1164              	.LFB9:
 1165              		.loc 1 378 0
 1166              		.cfi_startproc
 1167              		@ args = 0, pretend = 0, frame = 8
 1168              		@ frame_needed = 0, uses_anonymous_args = 0
 1169              	.LVL123:
 1170 0000 F0B5     		push	{r4, r5, r6, r7, lr}
 1171              		.cfi_def_cfa_offset 20
 1172              		.cfi_offset 4, -20
 1173              		.cfi_offset 5, -16
 1174              		.cfi_offset 6, -12
 1175              		.cfi_offset 7, -8
 1176              		.cfi_offset 14, -4
 1177              	.LBB260:
 1178              	.LBB261:
 1179              		.loc 2 90 0
 1180 0002 B0F91C60 		ldrsh	r6, [r0, #28]
 1181 0006 4169     		ldr	r1, [r0, #20]
 1182              	.LVL124:
 1183              	.LBE261:
 1184              	.LBE260:
 1185              		.loc 1 378 0
 1186 0008 DFF86CC0 		ldr	ip, .L139
 1187              	.LBB264:
 1188              	.LBB262:
 1189              		.loc 2 90 0
 1190 000c B2B2     		uxth	r2, r6
 1191 000e 531E     		subs	r3, r2, #1
 1192 0010 1BB2     		sxth	r3, r3
 1193              	.LBE262:
 1194              	.LBE264:
 1195              	.LBB265:
 1196              	.LBB266:
 1197 0012 951E     		subs	r5, r2, #2
ARM GAS  /var/folders/d2/nstgp4h54kz7g1l847x_b8wc0000gn/T//cccORz8f.s 			page 22


 1198              	.LBE266:
 1199              	.LBE265:
 1200              	.LBB269:
 1201              	.LBB263:
 1202 0014 8383     		strh	r3, [r0, #28]	@ movhi
 1203              	.LBE263:
 1204              	.LBE269:
 1205              	.LBB270:
 1206              	.LBB267:
 1207 0016 2DB2     		sxth	r5, r5
 1208              	.LBE267:
 1209              	.LBE270:
 1210              	.LBB271:
 1211              	.LBB272:
 1212 0018 D41E     		subs	r4, r2, #3
 1213              	.LBE272:
 1214              	.LBE271:
 1215              		.loc 1 380 0
 1216 001a 31F81670 		ldrh	r7, [r1, r6, lsl #1]
 1217              	.LVL125:
 1218              	.LBB275:
 1219              	.LBB268:
 1220              		.loc 2 90 0
 1221 001e 8583     		strh	r5, [r0, #28]	@ movhi
 1222              	.LBE268:
 1223              	.LBE275:
 1224              	.LBB276:
 1225              	.LBB273:
 1226 0020 24B2     		sxth	r4, r4
 1227              	.LBE273:
 1228              	.LBE276:
 1229              		.loc 1 381 0
 1230 0022 31F81330 		ldrh	r3, [r1, r3, lsl #1]
 1231              	.LVL126:
 1232              	.LBB277:
 1233              	.LBB274:
 1234              		.loc 2 90 0
 1235 0026 8483     		strh	r4, [r0, #28]	@ movhi
 1236              	.LBE274:
 1237              	.LBE277:
 1238              	.LBB278:
 1239              	.LBB279:
 1240 0028 043A     		subs	r2, r2, #4
 1241              	.LBE279:
 1242              	.LBE278:
 1243              		.loc 1 382 0
 1244 002a 31F81560 		ldrh	r6, [r1, r5, lsl #1]
 1245              	.LVL127:
 1246              	.LBB281:
 1247              	.LBB280:
 1248              		.loc 2 90 0
 1249 002e 8283     		strh	r2, [r0, #28]	@ movhi
 1250              	.LBE280:
 1251              	.LBE281:
 1252              		.loc 1 378 0
 1253 0030 83B0     		sub	sp, sp, #12
 1254              		.cfi_def_cfa_offset 32
ARM GAS  /var/folders/d2/nstgp4h54kz7g1l847x_b8wc0000gn/T//cccORz8f.s 			page 23


 1255              		.loc 1 385 0
 1256 0032 31F81450 		ldrh	r5, [r1, r4, lsl #1]
 1257              	.LVL128:
 1258              		.loc 1 378 0
 1259 0036 DCF80020 		ldr	r2, [ip]
 1260 003a 0192     		str	r2, [sp, #4]
 1261              		.loc 1 388 0
 1262 003c 9DB1     		cbz	r5, .L129
 1263 003e 1D44     		add	r5, r5, r3
 1264              	.LVL129:
 1265 0040 ADB2     		uxth	r5, r5
 1266 0042 FF1A     		subs	r7, r7, r3
 1267              	.LVL130:
 1268 0044 F61A     		subs	r6, r6, r3
 1269              	.LVL131:
 1270              	.L131:
 1271              		.loc 1 390 0 discriminator 3
 1272 0046 9C19     		adds	r4, r3, r6
 1273 0048 C268     		ldr	r2, [r0, #12]
 1274 004a A4B2     		uxth	r4, r4
 1275 004c 32F813E0 		ldrh	lr, [r2, r3, lsl #1]
 1276 0050 32F81440 		ldrh	r4, [r2, r4, lsl #1]
 1277 0054 D919     		adds	r1, r3, r7
 1278 0056 0133     		adds	r3, r3, #1
 1279              	.LVL132:
 1280 0058 89B2     		uxth	r1, r1
 1281 005a 9BB2     		uxth	r3, r3
 1282 005c 7444     		add	r4, r4, lr
 1283              		.loc 1 388 0 discriminator 3
 1284 005e AB42     		cmp	r3, r5
 1285              		.loc 1 390 0 discriminator 3
 1286 0060 22F81140 		strh	r4, [r2, r1, lsl #1]	@ movhi
 1287              	.LVL133:
 1288              		.loc 1 388 0 discriminator 3
 1289 0064 EFD1     		bne	.L131
 1290              	.L129:
 1291              		.loc 1 392 0
 1292 0066 019A     		ldr	r2, [sp, #4]
 1293 0068 DCF80030 		ldr	r3, [ip]
 1294 006c 9A42     		cmp	r2, r3
 1295 006e 01D1     		bne	.L138
 1296 0070 03B0     		add	sp, sp, #12
 1297              		.cfi_remember_state
 1298              		.cfi_def_cfa_offset 20
 1299              		@ sp needed
 1300 0072 F0BD     		pop	{r4, r5, r6, r7, pc}
 1301              	.L138:
 1302              		.cfi_restore_state
 1303 0074 FFF7FEFF 		bl	__stack_chk_fail
 1304              	.LVL134:
 1305              	.L140:
 1306              		.align	2
 1307              	.L139:
 1308 0078 00000000 		.word	__stack_chk_guard
 1309              		.cfi_endproc
 1310              	.LFE9:
 1311              		.size	AsebaNative_vecadd, .-AsebaNative_vecadd
ARM GAS  /var/folders/d2/nstgp4h54kz7g1l847x_b8wc0000gn/T//cccORz8f.s 			page 24


 1312              		.section	.text.AsebaNative_vecsub,"ax",%progbits
 1313              		.align	1
 1314              		.p2align 4,,15
 1315              		.global	AsebaNative_vecsub
 1316              		.syntax unified
 1317              		.thumb
 1318              		.thumb_func
 1319              		.fpu fpv4-sp-d16
 1320              		.type	AsebaNative_vecsub, %function
 1321              	AsebaNative_vecsub:
 1322              	.LFB10:
 1323              		.loc 1 408 0
 1324              		.cfi_startproc
 1325              		@ args = 0, pretend = 0, frame = 8
 1326              		@ frame_needed = 0, uses_anonymous_args = 0
 1327              	.LVL135:
 1328 0000 F0B5     		push	{r4, r5, r6, r7, lr}
 1329              		.cfi_def_cfa_offset 20
 1330              		.cfi_offset 4, -20
 1331              		.cfi_offset 5, -16
 1332              		.cfi_offset 6, -12
 1333              		.cfi_offset 7, -8
 1334              		.cfi_offset 14, -4
 1335              	.LBB282:
 1336              	.LBB283:
 1337              		.loc 2 90 0
 1338 0002 B0F91C60 		ldrsh	r6, [r0, #28]
 1339 0006 4169     		ldr	r1, [r0, #20]
 1340              	.LVL136:
 1341              	.LBE283:
 1342              	.LBE282:
 1343              		.loc 1 408 0
 1344 0008 DFF870C0 		ldr	ip, .L151
 1345              	.LBB286:
 1346              	.LBB284:
 1347              		.loc 2 90 0
 1348 000c B2B2     		uxth	r2, r6
 1349 000e 531E     		subs	r3, r2, #1
 1350 0010 1BB2     		sxth	r3, r3
 1351              	.LBE284:
 1352              	.LBE286:
 1353              	.LBB287:
 1354              	.LBB288:
 1355 0012 951E     		subs	r5, r2, #2
 1356              	.LBE288:
 1357              	.LBE287:
 1358              	.LBB291:
 1359              	.LBB285:
 1360 0014 8383     		strh	r3, [r0, #28]	@ movhi
 1361              	.LBE285:
 1362              	.LBE291:
 1363              	.LBB292:
 1364              	.LBB289:
 1365 0016 2DB2     		sxth	r5, r5
 1366              	.LBE289:
 1367              	.LBE292:
 1368              	.LBB293:
ARM GAS  /var/folders/d2/nstgp4h54kz7g1l847x_b8wc0000gn/T//cccORz8f.s 			page 25


 1369              	.LBB294:
 1370 0018 D41E     		subs	r4, r2, #3
 1371              	.LBE294:
 1372              	.LBE293:
 1373              		.loc 1 410 0
 1374 001a 31F81670 		ldrh	r7, [r1, r6, lsl #1]
 1375              	.LVL137:
 1376              	.LBB297:
 1377              	.LBB290:
 1378              		.loc 2 90 0
 1379 001e 8583     		strh	r5, [r0, #28]	@ movhi
 1380              	.LBE290:
 1381              	.LBE297:
 1382              	.LBB298:
 1383              	.LBB295:
 1384 0020 24B2     		sxth	r4, r4
 1385              	.LBE295:
 1386              	.LBE298:
 1387              		.loc 1 411 0
 1388 0022 31F81330 		ldrh	r3, [r1, r3, lsl #1]
 1389              	.LVL138:
 1390              	.LBB299:
 1391              	.LBB296:
 1392              		.loc 2 90 0
 1393 0026 8483     		strh	r4, [r0, #28]	@ movhi
 1394              	.LBE296:
 1395              	.LBE299:
 1396              	.LBB300:
 1397              	.LBB301:
 1398 0028 043A     		subs	r2, r2, #4
 1399              	.LBE301:
 1400              	.LBE300:
 1401              		.loc 1 412 0
 1402 002a 31F81560 		ldrh	r6, [r1, r5, lsl #1]
 1403              	.LVL139:
 1404              	.LBB303:
 1405              	.LBB302:
 1406              		.loc 2 90 0
 1407 002e 8283     		strh	r2, [r0, #28]	@ movhi
 1408              	.LBE302:
 1409              	.LBE303:
 1410              		.loc 1 408 0
 1411 0030 83B0     		sub	sp, sp, #12
 1412              		.cfi_def_cfa_offset 32
 1413              		.loc 1 415 0
 1414 0032 31F81450 		ldrh	r5, [r1, r4, lsl #1]
 1415              	.LVL140:
 1416              		.loc 1 408 0
 1417 0036 DCF80020 		ldr	r2, [ip]
 1418 003a 0192     		str	r2, [sp, #4]
 1419              		.loc 1 418 0
 1420 003c A5B1     		cbz	r5, .L141
 1421 003e 1D44     		add	r5, r5, r3
 1422              	.LVL141:
 1423 0040 ADB2     		uxth	r5, r5
 1424 0042 FF1A     		subs	r7, r7, r3
 1425              	.LVL142:
ARM GAS  /var/folders/d2/nstgp4h54kz7g1l847x_b8wc0000gn/T//cccORz8f.s 			page 26


 1426 0044 F61A     		subs	r6, r6, r3
 1427              	.LVL143:
 1428              	.L143:
 1429              		.loc 1 420 0 discriminator 3
 1430 0046 9C19     		adds	r4, r3, r6
 1431 0048 C268     		ldr	r2, [r0, #12]
 1432 004a A4B2     		uxth	r4, r4
 1433 004c D919     		adds	r1, r3, r7
 1434 004e 32F814E0 		ldrh	lr, [r2, r4, lsl #1]
 1435 0052 32F81340 		ldrh	r4, [r2, r3, lsl #1]
 1436 0056 0133     		adds	r3, r3, #1
 1437              	.LVL144:
 1438 0058 89B2     		uxth	r1, r1
 1439 005a 9BB2     		uxth	r3, r3
 1440 005c A4EB0E04 		sub	r4, r4, lr
 1441              		.loc 1 418 0 discriminator 3
 1442 0060 AB42     		cmp	r3, r5
 1443              		.loc 1 420 0 discriminator 3
 1444 0062 22F81140 		strh	r4, [r2, r1, lsl #1]	@ movhi
 1445              	.LVL145:
 1446              		.loc 1 418 0 discriminator 3
 1447 0066 EED1     		bne	.L143
 1448              	.L141:
 1449              		.loc 1 422 0
 1450 0068 019A     		ldr	r2, [sp, #4]
 1451 006a DCF80030 		ldr	r3, [ip]
 1452 006e 9A42     		cmp	r2, r3
 1453 0070 01D1     		bne	.L150
 1454 0072 03B0     		add	sp, sp, #12
 1455              		.cfi_remember_state
 1456              		.cfi_def_cfa_offset 20
 1457              		@ sp needed
 1458 0074 F0BD     		pop	{r4, r5, r6, r7, pc}
 1459              	.L150:
 1460              		.cfi_restore_state
 1461 0076 FFF7FEFF 		bl	__stack_chk_fail
 1462              	.LVL146:
 1463              	.L152:
 1464 007a 00BF     		.align	2
 1465              	.L151:
 1466 007c 00000000 		.word	__stack_chk_guard
 1467              		.cfi_endproc
 1468              	.LFE10:
 1469              		.size	AsebaNative_vecsub, .-AsebaNative_vecsub
 1470              		.section	.text.AsebaNative_vecmul,"ax",%progbits
 1471              		.align	1
 1472              		.p2align 4,,15
 1473              		.global	AsebaNative_vecmul
 1474              		.syntax unified
 1475              		.thumb
 1476              		.thumb_func
 1477              		.fpu fpv4-sp-d16
 1478              		.type	AsebaNative_vecmul, %function
 1479              	AsebaNative_vecmul:
 1480              	.LFB11:
 1481              		.loc 1 438 0
 1482              		.cfi_startproc
ARM GAS  /var/folders/d2/nstgp4h54kz7g1l847x_b8wc0000gn/T//cccORz8f.s 			page 27


 1483              		@ args = 0, pretend = 0, frame = 8
 1484              		@ frame_needed = 0, uses_anonymous_args = 0
 1485              	.LVL147:
 1486 0000 F0B5     		push	{r4, r5, r6, r7, lr}
 1487              		.cfi_def_cfa_offset 20
 1488              		.cfi_offset 4, -20
 1489              		.cfi_offset 5, -16
 1490              		.cfi_offset 6, -12
 1491              		.cfi_offset 7, -8
 1492              		.cfi_offset 14, -4
 1493              	.LBB304:
 1494              	.LBB305:
 1495              		.loc 2 90 0
 1496 0002 B0F91C60 		ldrsh	r6, [r0, #28]
 1497 0006 4169     		ldr	r1, [r0, #20]
 1498              	.LVL148:
 1499              	.LBE305:
 1500              	.LBE304:
 1501              		.loc 1 438 0
 1502 0008 DFF870C0 		ldr	ip, .L163
 1503              	.LBB308:
 1504              	.LBB306:
 1505              		.loc 2 90 0
 1506 000c B2B2     		uxth	r2, r6
 1507 000e 531E     		subs	r3, r2, #1
 1508 0010 1BB2     		sxth	r3, r3
 1509              	.LBE306:
 1510              	.LBE308:
 1511              	.LBB309:
 1512              	.LBB310:
 1513 0012 951E     		subs	r5, r2, #2
 1514              	.LBE310:
 1515              	.LBE309:
 1516              	.LBB313:
 1517              	.LBB307:
 1518 0014 8383     		strh	r3, [r0, #28]	@ movhi
 1519              	.LBE307:
 1520              	.LBE313:
 1521              	.LBB314:
 1522              	.LBB311:
 1523 0016 2DB2     		sxth	r5, r5
 1524              	.LBE311:
 1525              	.LBE314:
 1526              	.LBB315:
 1527              	.LBB316:
 1528 0018 D41E     		subs	r4, r2, #3
 1529              	.LBE316:
 1530              	.LBE315:
 1531              		.loc 1 440 0
 1532 001a 31F81670 		ldrh	r7, [r1, r6, lsl #1]
 1533              	.LVL149:
 1534              	.LBB319:
 1535              	.LBB312:
 1536              		.loc 2 90 0
 1537 001e 8583     		strh	r5, [r0, #28]	@ movhi
 1538              	.LBE312:
 1539              	.LBE319:
ARM GAS  /var/folders/d2/nstgp4h54kz7g1l847x_b8wc0000gn/T//cccORz8f.s 			page 28


 1540              	.LBB320:
 1541              	.LBB317:
 1542 0020 24B2     		sxth	r4, r4
 1543              	.LBE317:
 1544              	.LBE320:
 1545              		.loc 1 441 0
 1546 0022 31F81330 		ldrh	r3, [r1, r3, lsl #1]
 1547              	.LVL150:
 1548              	.LBB321:
 1549              	.LBB318:
 1550              		.loc 2 90 0
 1551 0026 8483     		strh	r4, [r0, #28]	@ movhi
 1552              	.LBE318:
 1553              	.LBE321:
 1554              	.LBB322:
 1555              	.LBB323:
 1556 0028 043A     		subs	r2, r2, #4
 1557              	.LBE323:
 1558              	.LBE322:
 1559              		.loc 1 442 0
 1560 002a 31F81560 		ldrh	r6, [r1, r5, lsl #1]
 1561              	.LVL151:
 1562              	.LBB325:
 1563              	.LBB324:
 1564              		.loc 2 90 0
 1565 002e 8283     		strh	r2, [r0, #28]	@ movhi
 1566              	.LBE324:
 1567              	.LBE325:
 1568              		.loc 1 438 0
 1569 0030 83B0     		sub	sp, sp, #12
 1570              		.cfi_def_cfa_offset 32
 1571              		.loc 1 445 0
 1572 0032 31F81450 		ldrh	r5, [r1, r4, lsl #1]
 1573              	.LVL152:
 1574              		.loc 1 438 0
 1575 0036 DCF80020 		ldr	r2, [ip]
 1576 003a 0192     		str	r2, [sp, #4]
 1577              		.loc 1 448 0
 1578 003c A5B1     		cbz	r5, .L153
 1579 003e 1D44     		add	r5, r5, r3
 1580              	.LVL153:
 1581 0040 ADB2     		uxth	r5, r5
 1582 0042 FF1A     		subs	r7, r7, r3
 1583              	.LVL154:
 1584 0044 F61A     		subs	r6, r6, r3
 1585              	.LVL155:
 1586              	.L155:
 1587              		.loc 1 450 0 discriminator 3
 1588 0046 9C19     		adds	r4, r3, r6
 1589 0048 C268     		ldr	r2, [r0, #12]
 1590 004a A4B2     		uxth	r4, r4
 1591 004c 32F813E0 		ldrh	lr, [r2, r3, lsl #1]
 1592 0050 32F81440 		ldrh	r4, [r2, r4, lsl #1]
 1593 0054 D919     		adds	r1, r3, r7
 1594 0056 0133     		adds	r3, r3, #1
 1595              	.LVL156:
 1596 0058 89B2     		uxth	r1, r1
ARM GAS  /var/folders/d2/nstgp4h54kz7g1l847x_b8wc0000gn/T//cccORz8f.s 			page 29


 1597 005a 9BB2     		uxth	r3, r3
 1598 005c 14FB0EF4 		smulbb	r4, r4, lr
 1599              		.loc 1 448 0 discriminator 3
 1600 0060 AB42     		cmp	r3, r5
 1601              		.loc 1 450 0 discriminator 3
 1602 0062 22F81140 		strh	r4, [r2, r1, lsl #1]	@ movhi
 1603              	.LVL157:
 1604              		.loc 1 448 0 discriminator 3
 1605 0066 EED1     		bne	.L155
 1606              	.L153:
 1607              		.loc 1 452 0
 1608 0068 019A     		ldr	r2, [sp, #4]
 1609 006a DCF80030 		ldr	r3, [ip]
 1610 006e 9A42     		cmp	r2, r3
 1611 0070 01D1     		bne	.L162
 1612 0072 03B0     		add	sp, sp, #12
 1613              		.cfi_remember_state
 1614              		.cfi_def_cfa_offset 20
 1615              		@ sp needed
 1616 0074 F0BD     		pop	{r4, r5, r6, r7, pc}
 1617              	.L162:
 1618              		.cfi_restore_state
 1619 0076 FFF7FEFF 		bl	__stack_chk_fail
 1620              	.LVL158:
 1621              	.L164:
 1622 007a 00BF     		.align	2
 1623              	.L163:
 1624 007c 00000000 		.word	__stack_chk_guard
 1625              		.cfi_endproc
 1626              	.LFE11:
 1627              		.size	AsebaNative_vecmul, .-AsebaNative_vecmul
 1628              		.section	.text.AsebaNative_vecdiv,"ax",%progbits
 1629              		.align	1
 1630              		.p2align 4,,15
 1631              		.global	AsebaNative_vecdiv
 1632              		.syntax unified
 1633              		.thumb
 1634              		.thumb_func
 1635              		.fpu fpv4-sp-d16
 1636              		.type	AsebaNative_vecdiv, %function
 1637              	AsebaNative_vecdiv:
 1638              	.LFB12:
 1639              		.loc 1 468 0
 1640              		.cfi_startproc
 1641              		@ args = 0, pretend = 0, frame = 8
 1642              		@ frame_needed = 0, uses_anonymous_args = 0
 1643              	.LVL159:
 1644 0000 2DE9F041 		push	{r4, r5, r6, r7, r8, lr}
 1645              		.cfi_def_cfa_offset 24
 1646              		.cfi_offset 4, -24
 1647              		.cfi_offset 5, -20
 1648              		.cfi_offset 6, -16
 1649              		.cfi_offset 7, -12
 1650              		.cfi_offset 8, -8
 1651              		.cfi_offset 14, -4
 1652              	.LBB326:
 1653              	.LBB327:
ARM GAS  /var/folders/d2/nstgp4h54kz7g1l847x_b8wc0000gn/T//cccORz8f.s 			page 30


 1654              		.loc 2 90 0
 1655 0004 B0F91C60 		ldrsh	r6, [r0, #28]
 1656 0008 4169     		ldr	r1, [r0, #20]
 1657              	.LVL160:
 1658              	.LBE327:
 1659              	.LBE326:
 1660              		.loc 1 468 0
 1661 000a DFF8B4E0 		ldr	lr, .L181
 1662              	.LBB330:
 1663              	.LBB328:
 1664              		.loc 2 90 0
 1665 000e B3B2     		uxth	r3, r6
 1666 0010 5A1E     		subs	r2, r3, #1
 1667 0012 12B2     		sxth	r2, r2
 1668              	.LBE328:
 1669              	.LBE330:
 1670              	.LBB331:
 1671              	.LBB332:
 1672 0014 9D1E     		subs	r5, r3, #2
 1673              	.LBE332:
 1674              	.LBE331:
 1675              	.LBB335:
 1676              	.LBB329:
 1677 0016 8283     		strh	r2, [r0, #28]	@ movhi
 1678              	.LBE329:
 1679              	.LBE335:
 1680              	.LBB336:
 1681              	.LBB333:
 1682 0018 2DB2     		sxth	r5, r5
 1683              	.LBE333:
 1684              	.LBE336:
 1685              	.LBB337:
 1686              	.LBB338:
 1687 001a DC1E     		subs	r4, r3, #3
 1688              	.LBE338:
 1689              	.LBE337:
 1690              		.loc 1 470 0
 1691 001c 31F81670 		ldrh	r7, [r1, r6, lsl #1]
 1692              	.LVL161:
 1693              	.LBB341:
 1694              	.LBB334:
 1695              		.loc 2 90 0
 1696 0020 8583     		strh	r5, [r0, #28]	@ movhi
 1697              	.LBE334:
 1698              	.LBE341:
 1699              	.LBB342:
 1700              	.LBB339:
 1701 0022 24B2     		sxth	r4, r4
 1702              	.LBE339:
 1703              	.LBE342:
 1704              		.loc 1 471 0
 1705 0024 31F81220 		ldrh	r2, [r1, r2, lsl #1]
 1706              	.LVL162:
 1707              	.LBB343:
 1708              	.LBB340:
 1709              		.loc 2 90 0
 1710 0028 8483     		strh	r4, [r0, #28]	@ movhi
ARM GAS  /var/folders/d2/nstgp4h54kz7g1l847x_b8wc0000gn/T//cccORz8f.s 			page 31


 1711              	.LBE340:
 1712              	.LBE343:
 1713              	.LBB344:
 1714              	.LBB345:
 1715 002a 043B     		subs	r3, r3, #4
 1716              	.LBE345:
 1717              	.LBE344:
 1718              		.loc 1 472 0
 1719 002c 31F815C0 		ldrh	ip, [r1, r5, lsl #1]
 1720              	.LVL163:
 1721              	.LBB347:
 1722              	.LBB346:
 1723              		.loc 2 90 0
 1724 0030 8383     		strh	r3, [r0, #28]	@ movhi
 1725              	.LBE346:
 1726              	.LBE347:
 1727              		.loc 1 468 0
 1728 0032 82B0     		sub	sp, sp, #8
 1729              		.cfi_def_cfa_offset 32
 1730              		.loc 1 475 0
 1731 0034 31F81460 		ldrh	r6, [r1, r4, lsl #1]
 1732              	.LVL164:
 1733              		.loc 1 468 0
 1734 0038 DEF80030 		ldr	r3, [lr]
 1735 003c 0193     		str	r3, [sp, #4]
 1736              		.loc 1 478 0
 1737 003e 2EB3     		cbz	r6, .L165
 1738              	.LBB348:
 1739              		.loc 1 480 0
 1740 0040 C568     		ldr	r5, [r0, #12]
 1741              		.loc 1 481 0
 1742 0042 35F91C80 		ldrsh	r8, [r5, ip, lsl #1]
 1743              		.loc 1 480 0
 1744 0046 35F91210 		ldrsh	r1, [r5, r2, lsl #1]
 1745 004a 531C     		adds	r3, r2, #1
 1746 004c 9BB2     		uxth	r3, r3
 1747              	.LVL165:
 1748              		.loc 1 483 0
 1749 004e B8F1000F 		cmp	r8, #0
 1750 0052 23D0     		beq	.L168
 1751 0054 1644     		add	r6, r6, r2
 1752              	.LVL166:
 1753 0056 013F     		subs	r7, r7, #1
 1754              	.LVL167:
 1755 0058 B6B2     		uxth	r6, r6
 1756              		.loc 1 485 0
 1757 005a BF1A     		subs	r7, r7, r2
 1758              	.LVL168:
 1759 005c ACEB020C 		sub	ip, ip, r2
 1760              	.LVL169:
 1761 0060 09E0     		b	.L171
 1762              	.LVL170:
 1763              	.L169:
 1764              		.loc 1 480 0
 1765 0062 C568     		ldr	r5, [r0, #12]
 1766              		.loc 1 481 0
 1767 0064 35F91280 		ldrsh	r8, [r5, r2, lsl #1]
ARM GAS  /var/folders/d2/nstgp4h54kz7g1l847x_b8wc0000gn/T//cccORz8f.s 			page 32


 1768              	.LVL171:
 1769              		.loc 1 480 0
 1770 0068 35F91310 		ldrsh	r1, [r5, r3, lsl #1]
 1771 006c 0133     		adds	r3, r3, #1
 1772              	.LVL172:
 1773 006e 9BB2     		uxth	r3, r3
 1774              	.LVL173:
 1775              		.loc 1 483 0
 1776 0070 B8F1000F 		cmp	r8, #0
 1777 0074 12D0     		beq	.L168
 1778              	.L171:
 1779              		.loc 1 485 0
 1780 0076 DC19     		adds	r4, r3, r7
 1781 0078 A4B2     		uxth	r4, r4
 1782 007a 03EB0C02 		add	r2, r3, ip
 1783              	.LBE348:
 1784              		.loc 1 478 0
 1785 007e 9E42     		cmp	r6, r3
 1786              	.LBB349:
 1787              		.loc 1 485 0
 1788 0080 91FBF8F1 		sdiv	r1, r1, r8
 1789              	.LVL174:
 1790 0084 92B2     		uxth	r2, r2
 1791              	.LVL175:
 1792 0086 25F81410 		strh	r1, [r5, r4, lsl #1]	@ movhi
 1793              	.LBE349:
 1794              		.loc 1 478 0
 1795 008a EAD1     		bne	.L169
 1796              	.LVL176:
 1797              	.L165:
 1798              		.loc 1 494 0
 1799 008c 019A     		ldr	r2, [sp, #4]
 1800 008e DEF80030 		ldr	r3, [lr]
 1801 0092 9A42     		cmp	r2, r3
 1802 0094 12D1     		bne	.L180
 1803 0096 02B0     		add	sp, sp, #8
 1804              		.cfi_remember_state
 1805              		.cfi_def_cfa_offset 24
 1806              		@ sp needed
 1807 0098 BDE8F081 		pop	{r4, r5, r6, r7, r8, pc}
 1808              	.LVL177:
 1809              	.L168:
 1810              		.cfi_restore_state
 1811              	.LBB350:
 1812              		.loc 1 490 0
 1813 009c 0199     		ldr	r1, [sp, #4]
 1814              	.LVL178:
 1815 009e DEF80020 		ldr	r2, [lr]
 1816              		.loc 1 489 0
 1817 00a2 0223     		movs	r3, #2
 1818              	.LVL179:
 1819              		.loc 1 490 0
 1820 00a4 9142     		cmp	r1, r2
 1821              		.loc 1 489 0
 1822 00a6 0383     		strh	r3, [r0, #24]	@ movhi
 1823              		.loc 1 490 0
 1824 00a8 08D1     		bne	.L180
ARM GAS  /var/folders/d2/nstgp4h54kz7g1l847x_b8wc0000gn/T//cccORz8f.s 			page 33


 1825 00aa 00F11A02 		add	r2, r0, #26
 1826 00ae 49F20701 		movw	r1, #36871
 1827              	.LBE350:
 1828              		.loc 1 494 0
 1829 00b2 02B0     		add	sp, sp, #8
 1830              		.cfi_remember_state
 1831              		.cfi_def_cfa_offset 24
 1832              		@ sp needed
 1833 00b4 BDE8F041 		pop	{r4, r5, r6, r7, r8, lr}
 1834              		.cfi_restore 14
 1835              		.cfi_restore 8
 1836              		.cfi_restore 7
 1837              		.cfi_restore 6
 1838              		.cfi_restore 5
 1839              		.cfi_restore 4
 1840              		.cfi_def_cfa_offset 0
 1841              	.LVL180:
 1842              	.LBB351:
 1843              		.loc 1 490 0
 1844 00b8 FFF7FEBF 		b	AsebaSendMessage
 1845              	.LVL181:
 1846              	.L180:
 1847              		.cfi_restore_state
 1848              	.LBE351:
 1849              		.loc 1 494 0
 1850 00bc FFF7FEFF 		bl	__stack_chk_fail
 1851              	.LVL182:
 1852              	.L182:
 1853              		.align	2
 1854              	.L181:
 1855 00c0 00000000 		.word	__stack_chk_guard
 1856              		.cfi_endproc
 1857              	.LFE12:
 1858              		.size	AsebaNative_vecdiv, .-AsebaNative_vecdiv
 1859              		.section	.text.AsebaNative_vecmin,"ax",%progbits
 1860              		.align	1
 1861              		.p2align 4,,15
 1862              		.global	AsebaNative_vecmin
 1863              		.syntax unified
 1864              		.thumb
 1865              		.thumb_func
 1866              		.fpu fpv4-sp-d16
 1867              		.type	AsebaNative_vecmin, %function
 1868              	AsebaNative_vecmin:
 1869              	.LFB13:
 1870              		.loc 1 510 0
 1871              		.cfi_startproc
 1872              		@ args = 0, pretend = 0, frame = 8
 1873              		@ frame_needed = 0, uses_anonymous_args = 0
 1874              	.LVL183:
 1875 0000 F0B5     		push	{r4, r5, r6, r7, lr}
 1876              		.cfi_def_cfa_offset 20
 1877              		.cfi_offset 4, -20
 1878              		.cfi_offset 5, -16
 1879              		.cfi_offset 6, -12
 1880              		.cfi_offset 7, -8
 1881              		.cfi_offset 14, -4
ARM GAS  /var/folders/d2/nstgp4h54kz7g1l847x_b8wc0000gn/T//cccORz8f.s 			page 34


 1882              	.LBB352:
 1883              	.LBB353:
 1884              		.loc 2 90 0
 1885 0002 B0F91C60 		ldrsh	r6, [r0, #28]
 1886 0006 4169     		ldr	r1, [r0, #20]
 1887              	.LVL184:
 1888              	.LBE353:
 1889              	.LBE352:
 1890              		.loc 1 510 0
 1891 0008 DFF870C0 		ldr	ip, .L193
 1892              	.LBB356:
 1893              	.LBB354:
 1894              		.loc 2 90 0
 1895 000c B2B2     		uxth	r2, r6
 1896 000e 531E     		subs	r3, r2, #1
 1897 0010 1BB2     		sxth	r3, r3
 1898              	.LBE354:
 1899              	.LBE356:
 1900              	.LBB357:
 1901              	.LBB358:
 1902 0012 951E     		subs	r5, r2, #2
 1903              	.LBE358:
 1904              	.LBE357:
 1905              	.LBB361:
 1906              	.LBB355:
 1907 0014 8383     		strh	r3, [r0, #28]	@ movhi
 1908              	.LBE355:
 1909              	.LBE361:
 1910              	.LBB362:
 1911              	.LBB359:
 1912 0016 2DB2     		sxth	r5, r5
 1913              	.LBE359:
 1914              	.LBE362:
 1915              	.LBB363:
 1916              	.LBB364:
 1917 0018 D41E     		subs	r4, r2, #3
 1918              	.LBE364:
 1919              	.LBE363:
 1920              		.loc 1 512 0
 1921 001a 31F81670 		ldrh	r7, [r1, r6, lsl #1]
 1922              	.LVL185:
 1923              	.LBB367:
 1924              	.LBB360:
 1925              		.loc 2 90 0
 1926 001e 8583     		strh	r5, [r0, #28]	@ movhi
 1927              	.LBE360:
 1928              	.LBE367:
 1929              	.LBB368:
 1930              	.LBB365:
 1931 0020 24B2     		sxth	r4, r4
 1932              	.LBE365:
 1933              	.LBE368:
 1934              		.loc 1 513 0
 1935 0022 31F81330 		ldrh	r3, [r1, r3, lsl #1]
 1936              	.LVL186:
 1937              	.LBB369:
 1938              	.LBB366:
ARM GAS  /var/folders/d2/nstgp4h54kz7g1l847x_b8wc0000gn/T//cccORz8f.s 			page 35


 1939              		.loc 2 90 0
 1940 0026 8483     		strh	r4, [r0, #28]	@ movhi
 1941              	.LBE366:
 1942              	.LBE369:
 1943              	.LBB370:
 1944              	.LBB371:
 1945 0028 043A     		subs	r2, r2, #4
 1946              	.LBE371:
 1947              	.LBE370:
 1948              		.loc 1 514 0
 1949 002a 31F81560 		ldrh	r6, [r1, r5, lsl #1]
 1950              	.LVL187:
 1951              	.LBB373:
 1952              	.LBB372:
 1953              		.loc 2 90 0
 1954 002e 8283     		strh	r2, [r0, #28]	@ movhi
 1955              	.LBE372:
 1956              	.LBE373:
 1957              		.loc 1 510 0
 1958 0030 83B0     		sub	sp, sp, #12
 1959              		.cfi_def_cfa_offset 32
 1960              		.loc 1 517 0
 1961 0032 31F81450 		ldrh	r5, [r1, r4, lsl #1]
 1962              	.LVL188:
 1963              		.loc 1 510 0
 1964 0036 DCF80020 		ldr	r2, [ip]
 1965 003a 0192     		str	r2, [sp, #4]
 1966              		.loc 1 520 0
 1967 003c ADB1     		cbz	r5, .L183
 1968 003e 1D44     		add	r5, r5, r3
 1969              	.LVL189:
 1970 0040 ADB2     		uxth	r5, r5
 1971 0042 FF1A     		subs	r7, r7, r3
 1972              	.LVL190:
 1973 0044 F61A     		subs	r6, r6, r3
 1974              	.LVL191:
 1975              	.L185:
 1976              	.LBB374:
 1977              		.loc 1 523 0 discriminator 3
 1978 0046 9C19     		adds	r4, r3, r6
 1979              		.loc 1 522 0 discriminator 3
 1980 0048 C268     		ldr	r2, [r0, #12]
 1981              		.loc 1 523 0 discriminator 3
 1982 004a A4B2     		uxth	r4, r4
 1983              		.loc 1 524 0 discriminator 3
 1984 004c 32F913E0 		ldrsh	lr, [r2, r3, lsl #1]
 1985 0050 32F91440 		ldrsh	r4, [r2, r4, lsl #1]
 1986              		.loc 1 525 0 discriminator 3
 1987 0054 D919     		adds	r1, r3, r7
 1988              		.loc 1 522 0 discriminator 3
 1989 0056 0133     		adds	r3, r3, #1
 1990              	.LVL192:
 1991              		.loc 1 524 0 discriminator 3
 1992 0058 7445     		cmp	r4, lr
 1993              		.loc 1 525 0 discriminator 3
 1994 005a 89B2     		uxth	r1, r1
 1995              	.LVL193:
ARM GAS  /var/folders/d2/nstgp4h54kz7g1l847x_b8wc0000gn/T//cccORz8f.s 			page 36


 1996 005c 9BB2     		uxth	r3, r3
 1997              		.loc 1 524 0 discriminator 3
 1998 005e A8BF     		it	ge
 1999 0060 7446     		movge	r4, lr
 2000              	.LBE374:
 2001              		.loc 1 520 0 discriminator 3
 2002 0062 AB42     		cmp	r3, r5
 2003              	.LBB375:
 2004              		.loc 1 525 0 discriminator 3
 2005 0064 22F81140 		strh	r4, [r2, r1, lsl #1]	@ movhi
 2006              	.LVL194:
 2007              	.LBE375:
 2008              		.loc 1 520 0 discriminator 3
 2009 0068 EDD1     		bne	.L185
 2010              	.L183:
 2011              		.loc 1 527 0
 2012 006a 019A     		ldr	r2, [sp, #4]
 2013 006c DCF80030 		ldr	r3, [ip]
 2014 0070 9A42     		cmp	r2, r3
 2015 0072 01D1     		bne	.L192
 2016 0074 03B0     		add	sp, sp, #12
 2017              		.cfi_remember_state
 2018              		.cfi_def_cfa_offset 20
 2019              		@ sp needed
 2020 0076 F0BD     		pop	{r4, r5, r6, r7, pc}
 2021              	.L192:
 2022              		.cfi_restore_state
 2023 0078 FFF7FEFF 		bl	__stack_chk_fail
 2024              	.LVL195:
 2025              	.L194:
 2026              		.align	2
 2027              	.L193:
 2028 007c 00000000 		.word	__stack_chk_guard
 2029              		.cfi_endproc
 2030              	.LFE13:
 2031              		.size	AsebaNative_vecmin, .-AsebaNative_vecmin
 2032              		.section	.text.AsebaNative_vecmax,"ax",%progbits
 2033              		.align	1
 2034              		.p2align 4,,15
 2035              		.global	AsebaNative_vecmax
 2036              		.syntax unified
 2037              		.thumb
 2038              		.thumb_func
 2039              		.fpu fpv4-sp-d16
 2040              		.type	AsebaNative_vecmax, %function
 2041              	AsebaNative_vecmax:
 2042              	.LFB14:
 2043              		.loc 1 543 0
 2044              		.cfi_startproc
 2045              		@ args = 0, pretend = 0, frame = 8
 2046              		@ frame_needed = 0, uses_anonymous_args = 0
 2047              	.LVL196:
 2048 0000 F0B5     		push	{r4, r5, r6, r7, lr}
 2049              		.cfi_def_cfa_offset 20
 2050              		.cfi_offset 4, -20
 2051              		.cfi_offset 5, -16
 2052              		.cfi_offset 6, -12
ARM GAS  /var/folders/d2/nstgp4h54kz7g1l847x_b8wc0000gn/T//cccORz8f.s 			page 37


 2053              		.cfi_offset 7, -8
 2054              		.cfi_offset 14, -4
 2055              	.LBB376:
 2056              	.LBB377:
 2057              		.loc 2 90 0
 2058 0002 B0F91C60 		ldrsh	r6, [r0, #28]
 2059 0006 4169     		ldr	r1, [r0, #20]
 2060              	.LVL197:
 2061              	.LBE377:
 2062              	.LBE376:
 2063              		.loc 1 543 0
 2064 0008 DFF870C0 		ldr	ip, .L205
 2065              	.LBB380:
 2066              	.LBB378:
 2067              		.loc 2 90 0
 2068 000c B2B2     		uxth	r2, r6
 2069 000e 531E     		subs	r3, r2, #1
 2070 0010 1BB2     		sxth	r3, r3
 2071              	.LBE378:
 2072              	.LBE380:
 2073              	.LBB381:
 2074              	.LBB382:
 2075 0012 951E     		subs	r5, r2, #2
 2076              	.LBE382:
 2077              	.LBE381:
 2078              	.LBB385:
 2079              	.LBB379:
 2080 0014 8383     		strh	r3, [r0, #28]	@ movhi
 2081              	.LBE379:
 2082              	.LBE385:
 2083              	.LBB386:
 2084              	.LBB383:
 2085 0016 2DB2     		sxth	r5, r5
 2086              	.LBE383:
 2087              	.LBE386:
 2088              	.LBB387:
 2089              	.LBB388:
 2090 0018 D41E     		subs	r4, r2, #3
 2091              	.LBE388:
 2092              	.LBE387:
 2093              		.loc 1 545 0
 2094 001a 31F81670 		ldrh	r7, [r1, r6, lsl #1]
 2095              	.LVL198:
 2096              	.LBB391:
 2097              	.LBB384:
 2098              		.loc 2 90 0
 2099 001e 8583     		strh	r5, [r0, #28]	@ movhi
 2100              	.LBE384:
 2101              	.LBE391:
 2102              	.LBB392:
 2103              	.LBB389:
 2104 0020 24B2     		sxth	r4, r4
 2105              	.LBE389:
 2106              	.LBE392:
 2107              		.loc 1 546 0
 2108 0022 31F81330 		ldrh	r3, [r1, r3, lsl #1]
 2109              	.LVL199:
ARM GAS  /var/folders/d2/nstgp4h54kz7g1l847x_b8wc0000gn/T//cccORz8f.s 			page 38


 2110              	.LBB393:
 2111              	.LBB390:
 2112              		.loc 2 90 0
 2113 0026 8483     		strh	r4, [r0, #28]	@ movhi
 2114              	.LBE390:
 2115              	.LBE393:
 2116              	.LBB394:
 2117              	.LBB395:
 2118 0028 043A     		subs	r2, r2, #4
 2119              	.LBE395:
 2120              	.LBE394:
 2121              		.loc 1 547 0
 2122 002a 31F81560 		ldrh	r6, [r1, r5, lsl #1]
 2123              	.LVL200:
 2124              	.LBB397:
 2125              	.LBB396:
 2126              		.loc 2 90 0
 2127 002e 8283     		strh	r2, [r0, #28]	@ movhi
 2128              	.LBE396:
 2129              	.LBE397:
 2130              		.loc 1 543 0
 2131 0030 83B0     		sub	sp, sp, #12
 2132              		.cfi_def_cfa_offset 32
 2133              		.loc 1 550 0
 2134 0032 31F81450 		ldrh	r5, [r1, r4, lsl #1]
 2135              	.LVL201:
 2136              		.loc 1 543 0
 2137 0036 DCF80020 		ldr	r2, [ip]
 2138 003a 0192     		str	r2, [sp, #4]
 2139              		.loc 1 553 0
 2140 003c ADB1     		cbz	r5, .L195
 2141 003e 1D44     		add	r5, r5, r3
 2142              	.LVL202:
 2143 0040 ADB2     		uxth	r5, r5
 2144 0042 FF1A     		subs	r7, r7, r3
 2145              	.LVL203:
 2146 0044 F61A     		subs	r6, r6, r3
 2147              	.LVL204:
 2148              	.L197:
 2149              	.LBB398:
 2150              		.loc 1 556 0 discriminator 3
 2151 0046 9C19     		adds	r4, r3, r6
 2152              		.loc 1 555 0 discriminator 3
 2153 0048 C268     		ldr	r2, [r0, #12]
 2154              		.loc 1 556 0 discriminator 3
 2155 004a A4B2     		uxth	r4, r4
 2156              		.loc 1 557 0 discriminator 3
 2157 004c 32F913E0 		ldrsh	lr, [r2, r3, lsl #1]
 2158 0050 32F91440 		ldrsh	r4, [r2, r4, lsl #1]
 2159              		.loc 1 558 0 discriminator 3
 2160 0054 D919     		adds	r1, r3, r7
 2161              		.loc 1 555 0 discriminator 3
 2162 0056 0133     		adds	r3, r3, #1
 2163              	.LVL205:
 2164              		.loc 1 557 0 discriminator 3
 2165 0058 7445     		cmp	r4, lr
 2166              		.loc 1 558 0 discriminator 3
ARM GAS  /var/folders/d2/nstgp4h54kz7g1l847x_b8wc0000gn/T//cccORz8f.s 			page 39


 2167 005a 89B2     		uxth	r1, r1
 2168              	.LVL206:
 2169 005c 9BB2     		uxth	r3, r3
 2170              		.loc 1 557 0 discriminator 3
 2171 005e B8BF     		it	lt
 2172 0060 7446     		movlt	r4, lr
 2173              	.LBE398:
 2174              		.loc 1 553 0 discriminator 3
 2175 0062 AB42     		cmp	r3, r5
 2176              	.LBB399:
 2177              		.loc 1 558 0 discriminator 3
 2178 0064 22F81140 		strh	r4, [r2, r1, lsl #1]	@ movhi
 2179              	.LVL207:
 2180              	.LBE399:
 2181              		.loc 1 553 0 discriminator 3
 2182 0068 EDD1     		bne	.L197
 2183              	.L195:
 2184              		.loc 1 560 0
 2185 006a 019A     		ldr	r2, [sp, #4]
 2186 006c DCF80030 		ldr	r3, [ip]
 2187 0070 9A42     		cmp	r2, r3
 2188 0072 01D1     		bne	.L204
 2189 0074 03B0     		add	sp, sp, #12
 2190              		.cfi_remember_state
 2191              		.cfi_def_cfa_offset 20
 2192              		@ sp needed
 2193 0076 F0BD     		pop	{r4, r5, r6, r7, pc}
 2194              	.L204:
 2195              		.cfi_restore_state
 2196 0078 FFF7FEFF 		bl	__stack_chk_fail
 2197              	.LVL208:
 2198              	.L206:
 2199              		.align	2
 2200              	.L205:
 2201 007c 00000000 		.word	__stack_chk_guard
 2202              		.cfi_endproc
 2203              	.LFE14:
 2204              		.size	AsebaNative_vecmax, .-AsebaNative_vecmax
 2205              		.section	.text.AsebaNative_vecclamp,"ax",%progbits
 2206              		.align	1
 2207              		.p2align 4,,15
 2208              		.global	AsebaNative_vecclamp
 2209              		.syntax unified
 2210              		.thumb
 2211              		.thumb_func
 2212              		.fpu fpv4-sp-d16
 2213              		.type	AsebaNative_vecclamp, %function
 2214              	AsebaNative_vecclamp:
 2215              	.LFB15:
 2216              		.loc 1 575 0
 2217              		.cfi_startproc
 2218              		@ args = 0, pretend = 0, frame = 8
 2219              		@ frame_needed = 0, uses_anonymous_args = 0
 2220              	.LVL209:
 2221 0000 2DE9F043 		push	{r4, r5, r6, r7, r8, r9, lr}
 2222              		.cfi_def_cfa_offset 28
 2223              		.cfi_offset 4, -28
ARM GAS  /var/folders/d2/nstgp4h54kz7g1l847x_b8wc0000gn/T//cccORz8f.s 			page 40


 2224              		.cfi_offset 5, -24
 2225              		.cfi_offset 6, -20
 2226              		.cfi_offset 7, -16
 2227              		.cfi_offset 8, -12
 2228              		.cfi_offset 9, -8
 2229              		.cfi_offset 14, -4
 2230              	.LBB400:
 2231              	.LBB401:
 2232              		.loc 2 90 0
 2233 0004 B0F91C40 		ldrsh	r4, [r0, #28]
 2234 0008 4169     		ldr	r1, [r0, #20]
 2235              	.LVL210:
 2236              	.LBE401:
 2237              	.LBE400:
 2238              		.loc 1 575 0
 2239 000a DFF89C80 		ldr	r8, .L218
 2240              	.LBB404:
 2241              	.LBB402:
 2242              		.loc 2 90 0
 2243 000e A2B2     		uxth	r2, r4
 2244 0010 531E     		subs	r3, r2, #1
 2245 0012 1BB2     		sxth	r3, r3
 2246              	.LBE402:
 2247              	.LBE404:
 2248              	.LBB405:
 2249              	.LBB406:
 2250 0014 961E     		subs	r6, r2, #2
 2251              	.LBE406:
 2252              	.LBE405:
 2253              	.LBB409:
 2254              	.LBB403:
 2255 0016 8383     		strh	r3, [r0, #28]	@ movhi
 2256              	.LBE403:
 2257              	.LBE409:
 2258              	.LBB410:
 2259              	.LBB407:
 2260 0018 36B2     		sxth	r6, r6
 2261              	.LBE407:
 2262              	.LBE410:
 2263              	.LBB411:
 2264              	.LBB412:
 2265 001a D51E     		subs	r5, r2, #3
 2266              	.LBE412:
 2267              	.LBE411:
 2268              		.loc 1 577 0
 2269 001c 31F814E0 		ldrh	lr, [r1, r4, lsl #1]
 2270              	.LVL211:
 2271              	.LBB415:
 2272              	.LBB408:
 2273              		.loc 2 90 0
 2274 0020 8683     		strh	r6, [r0, #28]	@ movhi
 2275              	.LBE408:
 2276              	.LBE415:
 2277              	.LBB416:
 2278              	.LBB413:
 2279 0022 2DB2     		sxth	r5, r5
 2280              	.LBE413:
ARM GAS  /var/folders/d2/nstgp4h54kz7g1l847x_b8wc0000gn/T//cccORz8f.s 			page 41


 2281              	.LBE416:
 2282              	.LBB417:
 2283              	.LBB418:
 2284 0024 141F     		subs	r4, r2, #4
 2285              	.LBE418:
 2286              	.LBE417:
 2287              		.loc 1 578 0
 2288 0026 31F81330 		ldrh	r3, [r1, r3, lsl #1]
 2289              	.LVL212:
 2290              	.LBB421:
 2291              	.LBB414:
 2292              		.loc 2 90 0
 2293 002a 8583     		strh	r5, [r0, #28]	@ movhi
 2294              	.LBE414:
 2295              	.LBE421:
 2296              	.LBB422:
 2297              	.LBB419:
 2298 002c 24B2     		sxth	r4, r4
 2299              	.LBE419:
 2300              	.LBE422:
 2301              		.loc 1 579 0
 2302 002e 31F816C0 		ldrh	ip, [r1, r6, lsl #1]
 2303              	.LVL213:
 2304              	.LBB423:
 2305              	.LBB420:
 2306              		.loc 2 90 0
 2307 0032 8483     		strh	r4, [r0, #28]	@ movhi
 2308              	.LBE420:
 2309              	.LBE423:
 2310              	.LBB424:
 2311              	.LBB425:
 2312 0034 053A     		subs	r2, r2, #5
 2313              	.LBE425:
 2314              	.LBE424:
 2315              		.loc 1 580 0
 2316 0036 31F81570 		ldrh	r7, [r1, r5, lsl #1]
 2317              	.LVL214:
 2318              	.LBB427:
 2319              	.LBB426:
 2320              		.loc 2 90 0
 2321 003a 8283     		strh	r2, [r0, #28]	@ movhi
 2322              	.LBE426:
 2323              	.LBE427:
 2324              		.loc 1 575 0
 2325 003c 83B0     		sub	sp, sp, #12
 2326              		.cfi_def_cfa_offset 40
 2327              		.loc 1 583 0
 2328 003e 31F81460 		ldrh	r6, [r1, r4, lsl #1]
 2329              	.LVL215:
 2330              		.loc 1 575 0
 2331 0042 D8F80020 		ldr	r2, [r8]
 2332 0046 0192     		str	r2, [sp, #4]
 2333              		.loc 1 586 0
 2334 0048 1EB3     		cbz	r6, .L207
 2335 004a 1E44     		add	r6, r6, r3
 2336              	.LVL216:
 2337 004c B6B2     		uxth	r6, r6
ARM GAS  /var/folders/d2/nstgp4h54kz7g1l847x_b8wc0000gn/T//cccORz8f.s 			page 42


 2338 004e AEEB030E 		sub	lr, lr, r3
 2339              	.LVL217:
 2340 0052 ACEB030C 		sub	ip, ip, r3
 2341              	.LVL218:
 2342 0056 FF1A     		subs	r7, r7, r3
 2343              	.LVL219:
 2344              	.L210:
 2345              	.LBB428:
 2346              		.loc 1 590 0
 2347 0058 DA19     		adds	r2, r3, r7
 2348              		.loc 1 588 0
 2349 005a C168     		ldr	r1, [r0, #12]
 2350              		.loc 1 590 0
 2351 005c 92B2     		uxth	r2, r2
 2352              		.loc 1 589 0
 2353 005e 03EB0C09 		add	r9, r3, ip
 2354              		.loc 1 590 0
 2355 0062 31F91240 		ldrsh	r4, [r1, r2, lsl #1]
 2356              		.loc 1 588 0
 2357 0066 31F91350 		ldrsh	r5, [r1, r3, lsl #1]
 2358              		.loc 1 589 0
 2359 006a 1FFA89F9 		uxth	r9, r9
 2360 006e 03EB0E02 		add	r2, r3, lr
 2361              		.loc 1 591 0
 2362 0072 A542     		cmp	r5, r4
 2363              		.loc 1 588 0
 2364 0074 03F10103 		add	r3, r3, #1
 2365              		.loc 1 589 0
 2366 0078 31F91990 		ldrsh	r9, [r1, r9, lsl #1]
 2367 007c 92B2     		uxth	r2, r2
 2368              	.LVL220:
 2369              		.loc 1 588 0
 2370 007e 9BB2     		uxth	r3, r3
 2371              	.LVL221:
 2372              		.loc 1 591 0
 2373 0080 03DC     		bgt	.L209
 2374              		.loc 1 591 0 is_stmt 0 discriminator 1
 2375 0082 4D45     		cmp	r5, r9
 2376 0084 2C46     		mov	r4, r5
 2377              	.LVL222:
 2378 0086 B8BF     		it	lt
 2379 0088 4C46     		movlt	r4, r9
 2380              	.L209:
 2381              	.LVL223:
 2382              	.LBE428:
 2383              		.loc 1 586 0 is_stmt 1 discriminator 4
 2384 008a B342     		cmp	r3, r6
 2385              	.LBB429:
 2386              		.loc 1 592 0 discriminator 4
 2387 008c 21F81240 		strh	r4, [r1, r2, lsl #1]	@ movhi
 2388              	.LBE429:
 2389              		.loc 1 586 0 discriminator 4
 2390 0090 E2D1     		bne	.L210
 2391              	.LVL224:
 2392              	.L207:
 2393              		.loc 1 594 0
 2394 0092 019A     		ldr	r2, [sp, #4]
ARM GAS  /var/folders/d2/nstgp4h54kz7g1l847x_b8wc0000gn/T//cccORz8f.s 			page 43


 2395 0094 D8F80030 		ldr	r3, [r8]
 2396 0098 9A42     		cmp	r2, r3
 2397 009a 02D1     		bne	.L217
 2398 009c 03B0     		add	sp, sp, #12
 2399              		.cfi_remember_state
 2400              		.cfi_def_cfa_offset 28
 2401              		@ sp needed
 2402 009e BDE8F083 		pop	{r4, r5, r6, r7, r8, r9, pc}
 2403              	.L217:
 2404              		.cfi_restore_state
 2405 00a2 FFF7FEFF 		bl	__stack_chk_fail
 2406              	.LVL225:
 2407              	.L219:
 2408 00a6 00BF     		.align	2
 2409              	.L218:
 2410 00a8 00000000 		.word	__stack_chk_guard
 2411              		.cfi_endproc
 2412              	.LFE15:
 2413              		.size	AsebaNative_vecclamp, .-AsebaNative_vecclamp
 2414              		.section	.text.AsebaNative_vecdot,"ax",%progbits
 2415              		.align	1
 2416              		.p2align 4,,15
 2417              		.global	AsebaNative_vecdot
 2418              		.syntax unified
 2419              		.thumb
 2420              		.thumb_func
 2421              		.fpu fpv4-sp-d16
 2422              		.type	AsebaNative_vecdot, %function
 2423              	AsebaNative_vecdot:
 2424              	.LFB16:
 2425              		.loc 1 610 0
 2426              		.cfi_startproc
 2427              		@ args = 0, pretend = 0, frame = 8
 2428              		@ frame_needed = 0, uses_anonymous_args = 0
 2429              	.LVL226:
 2430 0000 2DE9F041 		push	{r4, r5, r6, r7, r8, lr}
 2431              		.cfi_def_cfa_offset 24
 2432              		.cfi_offset 4, -24
 2433              		.cfi_offset 5, -20
 2434              		.cfi_offset 6, -16
 2435              		.cfi_offset 7, -12
 2436              		.cfi_offset 8, -8
 2437              		.cfi_offset 14, -4
 2438              	.LBB430:
 2439              	.LBB431:
 2440              		.loc 2 90 0
 2441 0004 B0F91C60 		ldrsh	r6, [r0, #28]
 2442 0008 4169     		ldr	r1, [r0, #20]
 2443              	.LVL227:
 2444              	.LBE431:
 2445              	.LBE430:
 2446              		.loc 1 615 0
 2447 000a C468     		ldr	r4, [r0, #12]
 2448              		.loc 1 610 0
 2449 000c 284D     		ldr	r5, .L230
 2450              	.LBB434:
 2451              	.LBB432:
ARM GAS  /var/folders/d2/nstgp4h54kz7g1l847x_b8wc0000gn/T//cccORz8f.s 			page 44


 2452              		.loc 2 90 0
 2453 000e B2B2     		uxth	r2, r6
 2454 0010 531E     		subs	r3, r2, #1
 2455 0012 1BB2     		sxth	r3, r3
 2456              	.LBE432:
 2457              	.LBE434:
 2458              	.LBB435:
 2459              	.LBB436:
 2460 0014 A2F1020C 		sub	ip, r2, #2
 2461              	.LBE436:
 2462              	.LBE435:
 2463              	.LBB440:
 2464              	.LBB433:
 2465 0018 8383     		strh	r3, [r0, #28]	@ movhi
 2466              	.LBE433:
 2467              	.LBE440:
 2468              	.LBB441:
 2469              	.LBB437:
 2470 001a 0FFA8CFC 		sxth	ip, ip
 2471              	.LBE437:
 2472              	.LBE441:
 2473              	.LBB442:
 2474              	.LBB443:
 2475 001e D71E     		subs	r7, r2, #3
 2476              	.LBE443:
 2477              	.LBE442:
 2478              		.loc 1 612 0
 2479 0020 31F81660 		ldrh	r6, [r1, r6, lsl #1]
 2480              	.LVL228:
 2481              	.LBB447:
 2482              	.LBB438:
 2483              		.loc 2 90 0
 2484 0024 A0F81CC0 		strh	ip, [r0, #28]	@ movhi
 2485              	.LBE438:
 2486              	.LBE447:
 2487              	.LBB448:
 2488              	.LBB444:
 2489 0028 3FB2     		sxth	r7, r7
 2490              	.LBE444:
 2491              	.LBE448:
 2492              	.LBB449:
 2493              	.LBB450:
 2494 002a A2F1040E 		sub	lr, r2, #4
 2495              	.LBE450:
 2496              	.LBE449:
 2497              	.LBB453:
 2498              	.LBB439:
 2499 002e 31F91330 		ldrsh	r3, [r1, r3, lsl #1]
 2500              	.LVL229:
 2501              	.LBE439:
 2502              	.LBE453:
 2503              	.LBB454:
 2504              	.LBB445:
 2505 0032 8783     		strh	r7, [r0, #28]	@ movhi
 2506              	.LBE445:
 2507              	.LBE454:
 2508              	.LBB455:
ARM GAS  /var/folders/d2/nstgp4h54kz7g1l847x_b8wc0000gn/T//cccORz8f.s 			page 45


 2509              	.LBB451:
 2510 0034 0FFA8EFE 		sxth	lr, lr
 2511              	.LBE451:
 2512              	.LBE455:
 2513              	.LBB456:
 2514              	.LBB446:
 2515 0038 31F91CC0 		ldrsh	ip, [r1, ip, lsl #1]
 2516              	.LVL230:
 2517              	.LBE446:
 2518              	.LBE456:
 2519              	.LBB457:
 2520              	.LBB452:
 2521 003c A0F81CE0 		strh	lr, [r0, #28]	@ movhi
 2522              	.LBE452:
 2523              	.LBE457:
 2524              		.loc 1 615 0
 2525 0040 31F91770 		ldrsh	r7, [r1, r7, lsl #1]
 2526              		.loc 1 610 0
 2527 0044 D5F80080 		ldr	r8, [r5]
 2528              		.loc 1 615 0
 2529 0048 34F91770 		ldrsh	r7, [r4, r7, lsl #1]
 2530              	.LVL231:
 2531              		.loc 1 610 0
 2532 004c 82B0     		sub	sp, sp, #8
 2533              		.cfi_def_cfa_offset 32
 2534              	.LBB458:
 2535              	.LBB459:
 2536              		.loc 2 90 0
 2537 004e 053A     		subs	r2, r2, #5
 2538              	.LBE459:
 2539              	.LBE458:
 2540              		.loc 1 622 0
 2541 0050 202F     		cmp	r7, #32
 2542              		.loc 1 610 0
 2543 0052 CDF80480 		str	r8, [sp, #4]
 2544              	.LBB461:
 2545              	.LBB460:
 2546              		.loc 2 90 0
 2547 0056 8283     		strh	r2, [r0, #28]	@ movhi
 2548              	.LVL232:
 2549              	.LBE460:
 2550              	.LBE461:
 2551              		.loc 1 622 0
 2552 0058 23DC     		bgt	.L221
 2553              		.loc 1 618 0
 2554 005a 31F81E10 		ldrh	r1, [r1, lr, lsl #1]
 2555              	.LVL233:
 2556              		.loc 1 662 0
 2557 005e B9B1     		cbz	r1, .L223
 2558              		.loc 1 613 0
 2559 0060 9BB2     		uxth	r3, r3
 2560              	.LVL234:
 2561 0062 1944     		add	r1, r1, r3
 2562              		.loc 1 614 0
 2563 0064 1FFA8CFC 		uxth	ip, ip
 2564              	.LVL235:
 2565 0068 1FFA81FE 		uxth	lr, r1
ARM GAS  /var/folders/d2/nstgp4h54kz7g1l847x_b8wc0000gn/T//cccORz8f.s 			page 46


 2566              	.LVL236:
 2567 006c ACEB030C 		sub	ip, ip, r3
 2568              		.loc 1 619 0
 2569 0070 0021     		movs	r1, #0
 2570              	.LVL237:
 2571              	.L225:
 2572              		.loc 1 664 0 discriminator 3
 2573 0072 03EB0C02 		add	r2, r3, ip
 2574 0076 92B2     		uxth	r2, r2
 2575 0078 34F81300 		ldrh	r0, [r4, r3, lsl #1]
 2576 007c 34F81220 		ldrh	r2, [r4, r2, lsl #1]
 2577 0080 0133     		adds	r3, r3, #1
 2578              	.LVL238:
 2579 0082 9BB2     		uxth	r3, r3
 2580              		.loc 1 662 0 discriminator 3
 2581 0084 7345     		cmp	r3, lr
 2582              		.loc 1 664 0 discriminator 3
 2583 0086 10FB0211 		smlabb	r1, r0, r2, r1
 2584              	.LVL239:
 2585              		.loc 1 662 0 discriminator 3
 2586 008a F2D1     		bne	.L225
 2587 008c 3941     		asrs	r1, r1, r7
 2588              	.LVL240:
 2589 008e 09B2     		sxth	r1, r1
 2590              	.L223:
 2591              		.loc 1 667 0
 2592 0090 24F81610 		strh	r1, [r4, r6, lsl #1]	@ movhi
 2593              	.L220:
 2594              		.loc 1 669 0
 2595 0094 019A     		ldr	r2, [sp, #4]
 2596 0096 2B68     		ldr	r3, [r5]
 2597 0098 9A42     		cmp	r2, r3
 2598 009a 06D1     		bne	.L229
 2599 009c 02B0     		add	sp, sp, #8
 2600              		.cfi_remember_state
 2601              		.cfi_def_cfa_offset 24
 2602              		@ sp needed
 2603 009e BDE8F081 		pop	{r4, r5, r6, r7, r8, pc}
 2604              	.LVL241:
 2605              	.L221:
 2606              		.cfi_restore_state
 2607              		.loc 1 623 0
 2608 00a2 0023     		movs	r3, #0
 2609              	.LVL242:
 2610 00a4 24F81630 		strh	r3, [r4, r6, lsl #1]	@ movhi
 2611              	.LVL243:
 2612              		.loc 1 624 0
 2613 00a8 F4E7     		b	.L220
 2614              	.LVL244:
 2615              	.L229:
 2616              		.loc 1 669 0
 2617 00aa FFF7FEFF 		bl	__stack_chk_fail
 2618              	.LVL245:
 2619              	.L231:
 2620 00ae 00BF     		.align	2
 2621              	.L230:
 2622 00b0 00000000 		.word	__stack_chk_guard
ARM GAS  /var/folders/d2/nstgp4h54kz7g1l847x_b8wc0000gn/T//cccORz8f.s 			page 47


 2623              		.cfi_endproc
 2624              	.LFE16:
 2625              		.size	AsebaNative_vecdot, .-AsebaNative_vecdot
 2626              		.section	.text.AsebaNative_vecstat,"ax",%progbits
 2627              		.align	1
 2628              		.p2align 4,,15
 2629              		.global	AsebaNative_vecstat
 2630              		.syntax unified
 2631              		.thumb
 2632              		.thumb_func
 2633              		.fpu fpv4-sp-d16
 2634              		.type	AsebaNative_vecstat, %function
 2635              	AsebaNative_vecstat:
 2636              	.LFB17:
 2637              		.loc 1 686 0
 2638              		.cfi_startproc
 2639              		@ args = 0, pretend = 0, frame = 8
 2640              		@ frame_needed = 0, uses_anonymous_args = 0
 2641              	.LVL246:
 2642              	.LBB462:
 2643              	.LBB463:
 2644              		.loc 2 90 0
 2645 0000 B0F91C10 		ldrsh	r1, [r0, #28]
 2646 0004 4269     		ldr	r2, [r0, #20]
 2647              	.LVL247:
 2648              	.LBE463:
 2649              	.LBE462:
 2650              		.loc 1 686 0
 2651 0006 DFF8C4C0 		ldr	ip, .L246
 2652 000a 2DE9F043 		push	{r4, r5, r6, r7, r8, r9, lr}
 2653              		.cfi_def_cfa_offset 28
 2654              		.cfi_offset 4, -28
 2655              		.cfi_offset 5, -24
 2656              		.cfi_offset 6, -20
 2657              		.cfi_offset 7, -16
 2658              		.cfi_offset 8, -12
 2659              		.cfi_offset 9, -8
 2660              		.cfi_offset 14, -4
 2661              	.LBB467:
 2662              	.LBB464:
 2663              		.loc 2 90 0
 2664 000e 8BB2     		uxth	r3, r1
 2665 0010 5D1E     		subs	r5, r3, #1
 2666 0012 2DB2     		sxth	r5, r5
 2667              	.LBE464:
 2668              	.LBE467:
 2669              	.LBB468:
 2670              	.LBB469:
 2671 0014 9E1E     		subs	r6, r3, #2
 2672              	.LBE469:
 2673              	.LBE468:
 2674              	.LBB473:
 2675              	.LBB465:
 2676 0016 8583     		strh	r5, [r0, #28]	@ movhi
 2677              	.LBE465:
 2678              	.LBE473:
 2679              	.LBB474:
ARM GAS  /var/folders/d2/nstgp4h54kz7g1l847x_b8wc0000gn/T//cccORz8f.s 			page 48


 2680              	.LBB470:
 2681 0018 36B2     		sxth	r6, r6
 2682              	.LBE470:
 2683              	.LBE474:
 2684              	.LBB475:
 2685              	.LBB476:
 2686 001a DC1E     		subs	r4, r3, #3
 2687              	.LBE476:
 2688              	.LBE475:
 2689              	.LBB480:
 2690              	.LBB466:
 2691 001c 32F91170 		ldrsh	r7, [r2, r1, lsl #1]
 2692              	.LVL248:
 2693              	.LBE466:
 2694              	.LBE480:
 2695              	.LBB481:
 2696              	.LBB471:
 2697 0020 8683     		strh	r6, [r0, #28]	@ movhi
 2698              	.LBE471:
 2699              	.LBE481:
 2700              	.LBB482:
 2701              	.LBB477:
 2702 0022 24B2     		sxth	r4, r4
 2703              	.LBE477:
 2704              	.LBE482:
 2705              	.LBB483:
 2706              	.LBB484:
 2707 0024 191F     		subs	r1, r3, #4
 2708              	.LBE484:
 2709              	.LBE483:
 2710              	.LBB488:
 2711              	.LBB472:
 2712 0026 32F91550 		ldrsh	r5, [r2, r5, lsl #1]
 2713              	.LVL249:
 2714              	.LBE472:
 2715              	.LBE488:
 2716              	.LBB489:
 2717              	.LBB478:
 2718 002a 8483     		strh	r4, [r0, #28]	@ movhi
 2719              	.LBE478:
 2720              	.LBE489:
 2721              	.LBB490:
 2722              	.LBB485:
 2723 002c 09B2     		sxth	r1, r1
 2724              	.LBE485:
 2725              	.LBE490:
 2726              	.LBB491:
 2727              	.LBB479:
 2728 002e 32F91660 		ldrsh	r6, [r2, r6, lsl #1]
 2729              	.LVL250:
 2730              	.LBE479:
 2731              	.LBE491:
 2732              	.LBB492:
 2733              	.LBB486:
 2734 0032 8183     		strh	r1, [r0, #28]	@ movhi
 2735              	.LBE486:
 2736              	.LBE492:
ARM GAS  /var/folders/d2/nstgp4h54kz7g1l847x_b8wc0000gn/T//cccORz8f.s 			page 49


 2737              	.LBB493:
 2738              	.LBB494:
 2739 0034 053B     		subs	r3, r3, #5
 2740              	.LBE494:
 2741              	.LBE493:
 2742              	.LBB496:
 2743              	.LBB487:
 2744 0036 32F914E0 		ldrsh	lr, [r2, r4, lsl #1]
 2745              	.LVL251:
 2746              	.LBE487:
 2747              	.LBE496:
 2748              	.LBB497:
 2749              	.LBB495:
 2750 003a 8383     		strh	r3, [r0, #28]	@ movhi
 2751              	.LBE495:
 2752              	.LBE497:
 2753              		.loc 1 686 0
 2754 003c 83B0     		sub	sp, sp, #12
 2755              		.cfi_def_cfa_offset 40
 2756              		.loc 1 694 0
 2757 003e 32F81180 		ldrh	r8, [r2, r1, lsl #1]
 2758              	.LVL252:
 2759              		.loc 1 686 0
 2760 0042 DCF80030 		ldr	r3, [ip]
 2761 0046 0193     		str	r3, [sp, #4]
 2762              		.loc 1 699 0
 2763 0048 B8F1000F 		cmp	r8, #0
 2764 004c 31D0     		beq	.L232
 2765              		.loc 1 701 0
 2766 004e C368     		ldr	r3, [r0, #12]
 2767              		.loc 1 688 0
 2768 0050 BFB2     		uxth	r7, r7
 2769              	.LVL253:
 2770              		.loc 1 703 0
 2771 0052 ADB2     		uxth	r5, r5
 2772              		.loc 1 701 0
 2773 0054 33F91740 		ldrsh	r4, [r3, r7, lsl #1]
 2774              		.loc 1 703 0
 2775 0058 23F81540 		strh	r4, [r3, r5, lsl #1]	@ movhi
 2776              		.loc 1 704 0
 2777 005c B6B2     		uxth	r6, r6
 2778 005e C268     		ldr	r2, [r0, #12]
 2779              		.loc 1 701 0
 2780 0060 7B1C     		adds	r3, r7, #1
 2781              		.loc 1 706 0
 2782 0062 B8F1010F 		cmp	r8, #1
 2783              		.loc 1 704 0
 2784 0066 22F81640 		strh	r4, [r2, r6, lsl #1]	@ movhi
 2785              		.loc 1 703 0
 2786 006a 4FEA4505 		lsl	r5, r5, #1
 2787              	.LVL254:
 2788              		.loc 1 704 0
 2789 006e 4FEA4606 		lsl	r6, r6, #1
 2790              	.LVL255:
 2791              		.loc 1 701 0
 2792 0072 9BB2     		uxth	r3, r3
 2793              	.LVL256:
ARM GAS  /var/folders/d2/nstgp4h54kz7g1l847x_b8wc0000gn/T//cccORz8f.s 			page 50


 2794              		.loc 1 706 0
 2795 0074 25D0     		beq	.L234
 2796 0076 4744     		add	r7, r7, r8
 2797 0078 C268     		ldr	r2, [r0, #12]
 2798 007a BFB2     		uxth	r7, r7
 2799              	.LVL257:
 2800              	.L237:
 2801              		.loc 1 708 0
 2802 007c 32F91310 		ldrsh	r1, [r2, r3, lsl #1]
 2803              		.loc 1 709 0
 2804 0080 32F90590 		ldrsh	r9, [r2, r5]
 2805 0084 8945     		cmp	r9, r1
 2806              		.loc 1 710 0
 2807 0086 C4BF     		itt	gt
 2808 0088 5153     		strhgt	r1, [r2, r5]	@ movhi
 2809 008a C268     		ldrgt	r2, [r0, #12]
 2810              		.loc 1 711 0
 2811 008c 32F90690 		ldrsh	r9, [r2, r6]
 2812 0090 8945     		cmp	r9, r1
 2813              		.loc 1 712 0
 2814 0092 B8BF     		it	lt
 2815 0094 9153     		strhlt	r1, [r2, r6]	@ movhi
 2816              		.loc 1 708 0
 2817 0096 03F10103 		add	r3, r3, #1
 2818              	.LVL258:
 2819 009a 9BB2     		uxth	r3, r3
 2820              	.LVL259:
 2821 009c B8BF     		it	lt
 2822 009e C268     		ldrlt	r2, [r0, #12]
 2823              		.loc 1 706 0
 2824 00a0 BB42     		cmp	r3, r7
 2825              		.loc 1 713 0
 2826 00a2 0C44     		add	r4, r4, r1
 2827              	.LVL260:
 2828              		.loc 1 706 0
 2829 00a4 EAD1     		bne	.L237
 2830              	.LVL261:
 2831              	.L238:
 2832              		.loc 1 716 0
 2833 00a6 94FBF8F4 		sdiv	r4, r4, r8
 2834              	.LVL262:
 2835 00aa 1FFA8EFE 		uxth	lr, lr
 2836 00ae 22F81E40 		strh	r4, [r2, lr, lsl #1]	@ movhi
 2837              	.LVL263:
 2838              	.L232:
 2839              		.loc 1 718 0
 2840 00b2 019A     		ldr	r2, [sp, #4]
 2841 00b4 DCF80030 		ldr	r3, [ip]
 2842 00b8 9A42     		cmp	r2, r3
 2843 00ba 04D1     		bne	.L245
 2844 00bc 03B0     		add	sp, sp, #12
 2845              		.cfi_remember_state
 2846              		.cfi_def_cfa_offset 28
 2847              		@ sp needed
 2848 00be BDE8F083 		pop	{r4, r5, r6, r7, r8, r9, pc}
 2849              	.LVL264:
 2850              	.L234:
ARM GAS  /var/folders/d2/nstgp4h54kz7g1l847x_b8wc0000gn/T//cccORz8f.s 			page 51


 2851              		.cfi_restore_state
 2852 00c2 C268     		ldr	r2, [r0, #12]
 2853 00c4 EFE7     		b	.L238
 2854              	.LVL265:
 2855              	.L245:
 2856 00c6 FFF7FEFF 		bl	__stack_chk_fail
 2857              	.LVL266:
 2858              	.L247:
 2859 00ca 00BF     		.align	2
 2860              	.L246:
 2861 00cc 00000000 		.word	__stack_chk_guard
 2862              		.cfi_endproc
 2863              	.LFE17:
 2864              		.size	AsebaNative_vecstat, .-AsebaNative_vecstat
 2865              		.section	.text.AsebaNative_vecargbounds,"ax",%progbits
 2866              		.align	1
 2867              		.p2align 4,,15
 2868              		.global	AsebaNative_vecargbounds
 2869              		.syntax unified
 2870              		.thumb
 2871              		.thumb_func
 2872              		.fpu fpv4-sp-d16
 2873              		.type	AsebaNative_vecargbounds, %function
 2874              	AsebaNative_vecargbounds:
 2875              	.LFB18:
 2876              		.loc 1 735 0
 2877              		.cfi_startproc
 2878              		@ args = 0, pretend = 0, frame = 8
 2879              		@ frame_needed = 0, uses_anonymous_args = 0
 2880              	.LVL267:
 2881              	.LBB498:
 2882              	.LBB499:
 2883              		.loc 2 90 0
 2884 0000 B0F91C30 		ldrsh	r3, [r0, #28]
 2885              	.LBE499:
 2886              	.LBE498:
 2887              		.loc 1 735 0
 2888 0004 2DE9F041 		push	{r4, r5, r6, r7, r8, lr}
 2889              		.cfi_def_cfa_offset 24
 2890              		.cfi_offset 4, -24
 2891              		.cfi_offset 5, -20
 2892              		.cfi_offset 6, -16
 2893              		.cfi_offset 7, -12
 2894              		.cfi_offset 8, -8
 2895              		.cfi_offset 14, -4
 2896              	.LBB504:
 2897              	.LBB500:
 2898              		.loc 2 90 0
 2899 0008 9AB2     		uxth	r2, r3
 2900 000a 551E     		subs	r5, r2, #1
 2901 000c 4769     		ldr	r7, [r0, #20]
 2902              	.LVL268:
 2903              	.LBE500:
 2904              	.LBE504:
 2905              		.loc 1 735 0
 2906 000e 234E     		ldr	r6, .L260
 2907              	.LBB505:
ARM GAS  /var/folders/d2/nstgp4h54kz7g1l847x_b8wc0000gn/T//cccORz8f.s 			page 52


 2908              	.LBB501:
 2909              		.loc 2 90 0
 2910 0010 2DB2     		sxth	r5, r5
 2911              	.LBE501:
 2912              	.LBE505:
 2913              	.LBB506:
 2914              	.LBB507:
 2915 0012 941E     		subs	r4, r2, #2
 2916              	.LBE507:
 2917              	.LBE506:
 2918              	.LBB511:
 2919              	.LBB502:
 2920 0014 8583     		strh	r5, [r0, #28]	@ movhi
 2921              	.LBE502:
 2922              	.LBE511:
 2923              	.LBB512:
 2924              	.LBB508:
 2925 0016 24B2     		sxth	r4, r4
 2926              	.LBE508:
 2927              	.LBE512:
 2928              	.LBB513:
 2929              	.LBB514:
 2930 0018 D11E     		subs	r1, r2, #3
 2931              	.LBE514:
 2932              	.LBE513:
 2933              	.LBB518:
 2934              	.LBB503:
 2935 001a 37F91330 		ldrsh	r3, [r7, r3, lsl #1]
 2936              	.LVL269:
 2937              	.LBE503:
 2938              	.LBE518:
 2939              	.LBB519:
 2940              	.LBB509:
 2941 001e 8483     		strh	r4, [r0, #28]	@ movhi
 2942              	.LBE509:
 2943              	.LBE519:
 2944              	.LBB520:
 2945              	.LBB515:
 2946 0020 09B2     		sxth	r1, r1
 2947              	.LBE515:
 2948              	.LBE520:
 2949              	.LBB521:
 2950              	.LBB510:
 2951 0022 37F915E0 		ldrsh	lr, [r7, r5, lsl #1]
 2952              	.LVL270:
 2953              	.LBE510:
 2954              	.LBE521:
 2955              	.LBB522:
 2956              	.LBB516:
 2957 0026 8183     		strh	r1, [r0, #28]	@ movhi
 2958              	.LBE516:
 2959              	.LBE522:
 2960              	.LBB523:
 2961              	.LBB524:
 2962 0028 043A     		subs	r2, r2, #4
 2963              	.LBE524:
 2964              	.LBE523:
ARM GAS  /var/folders/d2/nstgp4h54kz7g1l847x_b8wc0000gn/T//cccORz8f.s 			page 53


 2965              	.LBB526:
 2966              	.LBB517:
 2967 002a 37F914C0 		ldrsh	ip, [r7, r4, lsl #1]
 2968              	.LVL271:
 2969              	.LBE517:
 2970              	.LBE526:
 2971              	.LBB527:
 2972              	.LBB525:
 2973 002e 8283     		strh	r2, [r0, #28]	@ movhi
 2974              	.LBE525:
 2975              	.LBE527:
 2976              		.loc 1 735 0
 2977 0030 82B0     		sub	sp, sp, #8
 2978              		.cfi_def_cfa_offset 32
 2979              		.loc 1 742 0
 2980 0032 37F81120 		ldrh	r2, [r7, r1, lsl #1]
 2981              	.LVL272:
 2982              		.loc 1 735 0
 2983 0036 3168     		ldr	r1, [r6]
 2984 0038 0191     		str	r1, [sp, #4]
 2985              		.loc 1 748 0
 2986 003a 2AB3     		cbz	r2, .L248
 2987              		.loc 1 737 0
 2988 003c 9BB2     		uxth	r3, r3
 2989              	.LVL273:
 2990 003e 1A44     		add	r2, r2, r3
 2991              	.LVL274:
 2992              		.loc 1 756 0
 2993 0040 1FFA8EFE 		uxth	lr, lr
 2994              		.loc 1 761 0
 2995 0044 1FFA8CFC 		uxth	ip, ip
 2996              		.loc 1 744 0
 2997 0048 154F     		ldr	r7, .L260+4
 2998 004a 94B2     		uxth	r4, r2
 2999              		.loc 1 756 0
 3000 004c 4FEA4E0E 		lsl	lr, lr, #1
 3001              	.LVL275:
 3002              		.loc 1 761 0
 3003 0050 4FEA4C0C 		lsl	ip, ip, #1
 3004              	.LVL276:
 3005              		.loc 1 756 0
 3006 0054 6FEA0308 		mvn	r8, r3
 3007              		.loc 1 743 0
 3008 0058 47F6FF75 		movw	r5, #32767
 3009              	.LVL277:
 3010              	.L252:
 3011              		.loc 1 752 0
 3012 005c C268     		ldr	r2, [r0, #12]
 3013 005e 32F91310 		ldrsh	r1, [r2, r3, lsl #1]
 3014 0062 0133     		adds	r3, r3, #1
 3015              	.LVL278:
 3016              		.loc 1 753 0
 3017 0064 A942     		cmp	r1, r5
 3018              		.loc 1 752 0
 3019 0066 9BB2     		uxth	r3, r3
 3020              	.LVL279:
 3021              		.loc 1 753 0
ARM GAS  /var/folders/d2/nstgp4h54kz7g1l847x_b8wc0000gn/T//cccORz8f.s 			page 54


 3022 0068 04DA     		bge	.L250
 3023              	.LVL280:
 3024              		.loc 1 756 0
 3025 006a 03EB0805 		add	r5, r3, r8
 3026 006e 22F80E50 		strh	r5, [r2, lr]	@ movhi
 3027 0072 0D46     		mov	r5, r1
 3028              	.LVL281:
 3029              	.L250:
 3030              		.loc 1 758 0
 3031 0074 B942     		cmp	r1, r7
 3032 0076 05DD     		ble	.L251
 3033              	.LVL282:
 3034              		.loc 1 761 0
 3035 0078 C268     		ldr	r2, [r0, #12]
 3036 007a 03EB0807 		add	r7, r3, r8
 3037 007e 22F80C70 		strh	r7, [r2, ip]	@ movhi
 3038 0082 0F46     		mov	r7, r1
 3039              	.LVL283:
 3040              	.L251:
 3041              		.loc 1 750 0 discriminator 2
 3042 0084 A342     		cmp	r3, r4
 3043 0086 E9D1     		bne	.L252
 3044              	.LVL284:
 3045              	.L248:
 3046              		.loc 1 765 0
 3047 0088 019A     		ldr	r2, [sp, #4]
 3048 008a 3368     		ldr	r3, [r6]
 3049 008c 9A42     		cmp	r2, r3
 3050 008e 02D1     		bne	.L259
 3051 0090 02B0     		add	sp, sp, #8
 3052              		.cfi_remember_state
 3053              		.cfi_def_cfa_offset 24
 3054              		@ sp needed
 3055 0092 BDE8F081 		pop	{r4, r5, r6, r7, r8, pc}
 3056              	.L259:
 3057              		.cfi_restore_state
 3058 0096 FFF7FEFF 		bl	__stack_chk_fail
 3059              	.LVL285:
 3060              	.L261:
 3061 009a 00BF     		.align	2
 3062              	.L260:
 3063 009c 00000000 		.word	__stack_chk_guard
 3064 00a0 0080FFFF 		.word	-32768
 3065              		.cfi_endproc
 3066              	.LFE18:
 3067              		.size	AsebaNative_vecargbounds, .-AsebaNative_vecargbounds
 3068              		.section	.text.AsebaNative_vecsort,"ax",%progbits
 3069              		.align	1
 3070              		.p2align 4,,15
 3071              		.global	AsebaNative_vecsort
 3072              		.syntax unified
 3073              		.thumb
 3074              		.thumb_func
 3075              		.fpu fpv4-sp-d16
 3076              		.type	AsebaNative_vecsort, %function
 3077              	AsebaNative_vecsort:
 3078              	.LFB19:
ARM GAS  /var/folders/d2/nstgp4h54kz7g1l847x_b8wc0000gn/T//cccORz8f.s 			page 55


 3079              		.loc 1 781 0
 3080              		.cfi_startproc
 3081              		@ args = 0, pretend = 0, frame = 8
 3082              		@ frame_needed = 0, uses_anonymous_args = 0
 3083              	.LVL286:
 3084 0000 F0B5     		push	{r4, r5, r6, r7, lr}
 3085              		.cfi_def_cfa_offset 20
 3086              		.cfi_offset 4, -20
 3087              		.cfi_offset 5, -16
 3088              		.cfi_offset 6, -12
 3089              		.cfi_offset 7, -8
 3090              		.cfi_offset 14, -4
 3091 0002 0F4C     		ldr	r4, .L267
 3092              	.LBB528:
 3093              	.LBB529:
 3094              		.loc 2 90 0
 3095 0004 B0F91C10 		ldrsh	r1, [r0, #28]
 3096              	.LBE529:
 3097              	.LBE528:
 3098              		.loc 1 781 0
 3099 0008 2368     		ldr	r3, [r4]
 3100 000a 4569     		ldr	r5, [r0, #20]
 3101              	.LVL287:
 3102 000c 83B0     		sub	sp, sp, #12
 3103              		.cfi_def_cfa_offset 32
 3104              		.loc 1 781 0
 3105 000e 0193     		str	r3, [sp, #4]
 3106              	.LBB532:
 3107              	.LBB530:
 3108              		.loc 2 90 0
 3109 0010 8BB2     		uxth	r3, r1
 3110 0012 5A1E     		subs	r2, r3, #1
 3111              	.LBE530:
 3112              	.LBE532:
 3113              		.loc 1 788 0
 3114 0014 019E     		ldr	r6, [sp, #4]
 3115 0016 2468     		ldr	r4, [r4]
 3116              	.LBB533:
 3117              	.LBB531:
 3118              		.loc 2 90 0
 3119 0018 12B2     		sxth	r2, r2
 3120 001a 8283     		strh	r2, [r0, #28]	@ movhi
 3121              	.LBE531:
 3122              	.LBE533:
 3123              	.LBB534:
 3124              	.LBB535:
 3125 001c 023B     		subs	r3, r3, #2
 3126              	.LBE535:
 3127              	.LBE534:
 3128              		.loc 1 788 0
 3129 001e A642     		cmp	r6, r4
 3130              		.loc 1 783 0
 3131 0020 35F81170 		ldrh	r7, [r5, r1, lsl #1]
 3132              	.LVL288:
 3133              	.LBB537:
 3134              	.LBB536:
 3135              		.loc 2 90 0
ARM GAS  /var/folders/d2/nstgp4h54kz7g1l847x_b8wc0000gn/T//cccORz8f.s 			page 56


 3136 0024 8383     		strh	r3, [r0, #28]	@ movhi
 3137              	.LVL289:
 3138              	.LBE536:
 3139              	.LBE537:
 3140              		.loc 1 788 0
 3141 0026 09D1     		bne	.L266
 3142 0028 C068     		ldr	r0, [r0, #12]
 3143              	.LVL290:
 3144 002a 35F81210 		ldrh	r1, [r5, r2, lsl #1]
 3145 002e 00EB4700 		add	r0, r0, r7, lsl #1
 3146              		.loc 1 789 0
 3147 0032 03B0     		add	sp, sp, #12
 3148              		.cfi_remember_state
 3149              		.cfi_def_cfa_offset 20
 3150              		@ sp needed
 3151 0034 BDE8F040 		pop	{r4, r5, r6, r7, lr}
 3152              		.cfi_restore 14
 3153              		.cfi_restore 7
 3154              		.cfi_restore 6
 3155              		.cfi_restore 5
 3156              		.cfi_restore 4
 3157              		.cfi_def_cfa_offset 0
 3158              	.LVL291:
 3159              		.loc 1 788 0
 3160 0038 FFF7FEBF 		b	aseba_comb_sort
 3161              	.LVL292:
 3162              	.L266:
 3163              		.cfi_restore_state
 3164 003c FFF7FEFF 		bl	__stack_chk_fail
 3165              	.LVL293:
 3166              	.L268:
 3167              		.align	2
 3168              	.L267:
 3169 0040 00000000 		.word	__stack_chk_guard
 3170              		.cfi_endproc
 3171              	.LFE19:
 3172              		.size	AsebaNative_vecsort, .-AsebaNative_vecsort
 3173              		.section	.text.AsebaNative_mathmuldiv,"ax",%progbits
 3174              		.align	1
 3175              		.p2align 4,,15
 3176              		.global	AsebaNative_mathmuldiv
 3177              		.syntax unified
 3178              		.thumb
 3179              		.thumb_func
 3180              		.fpu fpv4-sp-d16
 3181              		.type	AsebaNative_mathmuldiv, %function
 3182              	AsebaNative_mathmuldiv:
 3183              	.LFB20:
 3184              		.loc 1 803 0
 3185              		.cfi_startproc
 3186              		@ args = 0, pretend = 0, frame = 8
 3187              		@ frame_needed = 0, uses_anonymous_args = 0
 3188              	.LVL294:
 3189 0000 2DE9F047 		push	{r4, r5, r6, r7, r8, r9, r10, lr}
 3190              		.cfi_def_cfa_offset 32
 3191              		.cfi_offset 4, -32
 3192              		.cfi_offset 5, -28
ARM GAS  /var/folders/d2/nstgp4h54kz7g1l847x_b8wc0000gn/T//cccORz8f.s 			page 57


 3193              		.cfi_offset 6, -24
 3194              		.cfi_offset 7, -20
 3195              		.cfi_offset 8, -16
 3196              		.cfi_offset 9, -12
 3197              		.cfi_offset 10, -8
 3198              		.cfi_offset 14, -4
 3199              	.LBB538:
 3200              	.LBB539:
 3201              		.loc 2 90 0
 3202 0004 B0F91C40 		ldrsh	r4, [r0, #28]
 3203 0008 4269     		ldr	r2, [r0, #20]
 3204              	.LVL295:
 3205              	.LBE539:
 3206              	.LBE538:
 3207              		.loc 1 803 0
 3208 000a DFF8D0E0 		ldr	lr, .L285
 3209              	.LBB542:
 3210              	.LBB540:
 3211              		.loc 2 90 0
 3212 000e A3B2     		uxth	r3, r4
 3213 0010 591E     		subs	r1, r3, #1
 3214 0012 09B2     		sxth	r1, r1
 3215              	.LBE540:
 3216              	.LBE542:
 3217              	.LBB543:
 3218              	.LBB544:
 3219 0014 9F1E     		subs	r7, r3, #2
 3220              	.LBE544:
 3221              	.LBE543:
 3222              	.LBB547:
 3223              	.LBB541:
 3224 0016 8183     		strh	r1, [r0, #28]	@ movhi
 3225              	.LBE541:
 3226              	.LBE547:
 3227              	.LBB548:
 3228              	.LBB545:
 3229 0018 3FB2     		sxth	r7, r7
 3230              	.LBE545:
 3231              	.LBE548:
 3232              	.LBB549:
 3233              	.LBB550:
 3234 001a DD1E     		subs	r5, r3, #3
 3235              	.LBE550:
 3236              	.LBE549:
 3237              		.loc 1 805 0
 3238 001c 32F81460 		ldrh	r6, [r2, r4, lsl #1]
 3239              	.LVL296:
 3240              	.LBB553:
 3241              	.LBB546:
 3242              		.loc 2 90 0
 3243 0020 8783     		strh	r7, [r0, #28]	@ movhi
 3244              	.LBE546:
 3245              	.LBE553:
 3246              	.LBB554:
 3247              	.LBB551:
 3248 0022 2DB2     		sxth	r5, r5
 3249              	.LBE551:
ARM GAS  /var/folders/d2/nstgp4h54kz7g1l847x_b8wc0000gn/T//cccORz8f.s 			page 58


 3250              	.LBE554:
 3251              	.LBB555:
 3252              	.LBB556:
 3253 0024 1C1F     		subs	r4, r3, #4
 3254              	.LBE556:
 3255              	.LBE555:
 3256              		.loc 1 806 0
 3257 0026 32F81110 		ldrh	r1, [r2, r1, lsl #1]
 3258              	.LVL297:
 3259              	.LBB559:
 3260              	.LBB552:
 3261              		.loc 2 90 0
 3262 002a 8583     		strh	r5, [r0, #28]	@ movhi
 3263              	.LBE552:
 3264              	.LBE559:
 3265              	.LBB560:
 3266              	.LBB557:
 3267 002c 24B2     		sxth	r4, r4
 3268              	.LBE557:
 3269              	.LBE560:
 3270              		.loc 1 807 0
 3271 002e 32F81770 		ldrh	r7, [r2, r7, lsl #1]
 3272              	.LVL298:
 3273              	.LBB561:
 3274              	.LBB558:
 3275              		.loc 2 90 0
 3276 0032 8483     		strh	r4, [r0, #28]	@ movhi
 3277              	.LBE558:
 3278              	.LBE561:
 3279              	.LBB562:
 3280              	.LBB563:
 3281 0034 053B     		subs	r3, r3, #5
 3282              	.LBE563:
 3283              	.LBE562:
 3284              		.loc 1 808 0
 3285 0036 32F815C0 		ldrh	ip, [r2, r5, lsl #1]
 3286              	.LVL299:
 3287              	.LBB565:
 3288              	.LBB564:
 3289              		.loc 2 90 0
 3290 003a 8383     		strh	r3, [r0, #28]	@ movhi
 3291              	.LBE564:
 3292              	.LBE565:
 3293              		.loc 1 803 0
 3294 003c 82B0     		sub	sp, sp, #8
 3295              		.cfi_def_cfa_offset 40
 3296              		.loc 1 811 0
 3297 003e 32F81450 		ldrh	r5, [r2, r4, lsl #1]
 3298              	.LVL300:
 3299              		.loc 1 803 0
 3300 0042 DEF80030 		ldr	r3, [lr]
 3301 0046 0193     		str	r3, [sp, #4]
 3302              		.loc 1 814 0
 3303 0048 75B3     		cbz	r5, .L269
 3304              	.LBB566:
 3305              		.loc 1 816 0
 3306 004a D0F80C80 		ldr	r8, [r0, #12]
ARM GAS  /var/folders/d2/nstgp4h54kz7g1l847x_b8wc0000gn/T//cccORz8f.s 			page 59


 3307              		.loc 1 818 0
 3308 004e 38F91C40 		ldrsh	r4, [r8, ip, lsl #1]
 3309              		.loc 1 816 0
 3310 0052 38F91120 		ldrsh	r2, [r8, r1, lsl #1]
 3311              		.loc 1 817 0
 3312 0056 38F917A0 		ldrsh	r10, [r8, r7, lsl #1]
 3313              		.loc 1 816 0
 3314 005a 4B1C     		adds	r3, r1, #1
 3315 005c 9BB2     		uxth	r3, r3
 3316              	.LVL301:
 3317              		.loc 1 819 0
 3318 005e 5CB3     		cbz	r4, .L272
 3319 0060 0D44     		add	r5, r5, r1
 3320              	.LVL302:
 3321 0062 013E     		subs	r6, r6, #1
 3322              	.LVL303:
 3323 0064 ADB2     		uxth	r5, r5
 3324              		.loc 1 821 0
 3325 0066 761A     		subs	r6, r6, r1
 3326              	.LVL304:
 3327 0068 ACEB010C 		sub	ip, ip, r1
 3328              	.LVL305:
 3329 006c 7F1A     		subs	r7, r7, r1
 3330              	.LVL306:
 3331 006e 0AE0     		b	.L275
 3332              	.LVL307:
 3333              	.L273:
 3334              		.loc 1 816 0
 3335 0070 D0F80C80 		ldr	r8, [r0, #12]
 3336              		.loc 1 818 0
 3337 0074 38F91140 		ldrsh	r4, [r8, r1, lsl #1]
 3338              		.loc 1 817 0
 3339 0078 38F912A0 		ldrsh	r10, [r8, r2, lsl #1]
 3340              		.loc 1 816 0
 3341 007c 38F91320 		ldrsh	r2, [r8, r3, lsl #1]
 3342              	.LVL308:
 3343 0080 0133     		adds	r3, r3, #1
 3344              	.LVL309:
 3345 0082 9BB2     		uxth	r3, r3
 3346              	.LVL310:
 3347              		.loc 1 819 0
 3348 0084 C4B1     		cbz	r4, .L272
 3349              	.L275:
 3350              		.loc 1 821 0
 3351 0086 03EB0609 		add	r9, r3, r6
 3352 008a 1FFA89F9 		uxth	r9, r9
 3353 008e 0AFB02FA 		mul	r10, r10, r2
 3354              	.LVL311:
 3355 0092 03EB0C01 		add	r1, r3, ip
 3356 0096 DA19     		adds	r2, r3, r7
 3357              	.LVL312:
 3358              	.LBE566:
 3359              		.loc 1 814 0
 3360 0098 9D42     		cmp	r5, r3
 3361              	.LBB567:
 3362              		.loc 1 821 0
 3363 009a 9AFBF4F4 		sdiv	r4, r10, r4
ARM GAS  /var/folders/d2/nstgp4h54kz7g1l847x_b8wc0000gn/T//cccORz8f.s 			page 60


 3364              	.LVL313:
 3365 009e 89B2     		uxth	r1, r1
 3366 00a0 28F81940 		strh	r4, [r8, r9, lsl #1]	@ movhi
 3367 00a4 92B2     		uxth	r2, r2
 3368              	.LVL314:
 3369              	.LBE567:
 3370              		.loc 1 814 0
 3371 00a6 E3D1     		bne	.L273
 3372              	.LVL315:
 3373              	.L269:
 3374              		.loc 1 830 0
 3375 00a8 019A     		ldr	r2, [sp, #4]
 3376 00aa DEF80030 		ldr	r3, [lr]
 3377 00ae 9A42     		cmp	r2, r3
 3378 00b0 12D1     		bne	.L284
 3379 00b2 02B0     		add	sp, sp, #8
 3380              		.cfi_remember_state
 3381              		.cfi_def_cfa_offset 32
 3382              		@ sp needed
 3383 00b4 BDE8F087 		pop	{r4, r5, r6, r7, r8, r9, r10, pc}
 3384              	.LVL316:
 3385              	.L272:
 3386              		.cfi_restore_state
 3387              	.LBB568:
 3388              		.loc 1 826 0
 3389 00b8 0199     		ldr	r1, [sp, #4]
 3390 00ba DEF80020 		ldr	r2, [lr]
 3391              	.LVL317:
 3392              		.loc 1 825 0
 3393 00be 0223     		movs	r3, #2
 3394              	.LVL318:
 3395              		.loc 1 826 0
 3396 00c0 9142     		cmp	r1, r2
 3397              		.loc 1 825 0
 3398 00c2 0383     		strh	r3, [r0, #24]	@ movhi
 3399              		.loc 1 826 0
 3400 00c4 08D1     		bne	.L284
 3401 00c6 00F11A02 		add	r2, r0, #26
 3402 00ca 49F20701 		movw	r1, #36871
 3403              	.LBE568:
 3404              		.loc 1 830 0
 3405 00ce 02B0     		add	sp, sp, #8
 3406              		.cfi_remember_state
 3407              		.cfi_def_cfa_offset 32
 3408              		@ sp needed
 3409 00d0 BDE8F047 		pop	{r4, r5, r6, r7, r8, r9, r10, lr}
 3410              		.cfi_restore 14
 3411              		.cfi_restore 10
 3412              		.cfi_restore 9
 3413              		.cfi_restore 8
 3414              		.cfi_restore 7
 3415              		.cfi_restore 6
 3416              		.cfi_restore 5
 3417              		.cfi_restore 4
 3418              		.cfi_def_cfa_offset 0
 3419              	.LVL319:
 3420              	.LBB569:
ARM GAS  /var/folders/d2/nstgp4h54kz7g1l847x_b8wc0000gn/T//cccORz8f.s 			page 61


 3421              		.loc 1 826 0
 3422 00d4 FFF7FEBF 		b	AsebaSendMessage
 3423              	.LVL320:
 3424              	.L284:
 3425              		.cfi_restore_state
 3426              	.LBE569:
 3427              		.loc 1 830 0
 3428 00d8 FFF7FEFF 		bl	__stack_chk_fail
 3429              	.LVL321:
 3430              	.L286:
 3431              		.align	2
 3432              	.L285:
 3433 00dc 00000000 		.word	__stack_chk_guard
 3434              		.cfi_endproc
 3435              	.LFE20:
 3436              		.size	AsebaNative_mathmuldiv, .-AsebaNative_mathmuldiv
 3437              		.section	.text.AsebaNative_mathatan2,"ax",%progbits
 3438              		.align	1
 3439              		.p2align 4,,15
 3440              		.global	AsebaNative_mathatan2
 3441              		.syntax unified
 3442              		.thumb
 3443              		.thumb_func
 3444              		.fpu fpv4-sp-d16
 3445              		.type	AsebaNative_mathatan2, %function
 3446              	AsebaNative_mathatan2:
 3447              	.LFB21:
 3448              		.loc 1 846 0
 3449              		.cfi_startproc
 3450              		@ args = 0, pretend = 0, frame = 8
 3451              		@ frame_needed = 0, uses_anonymous_args = 0
 3452              	.LVL322:
 3453 0000 2DE9F04F 		push	{r4, r5, r6, r7, r8, r9, r10, fp, lr}
 3454              		.cfi_def_cfa_offset 36
 3455              		.cfi_offset 4, -36
 3456              		.cfi_offset 5, -32
 3457              		.cfi_offset 6, -28
 3458              		.cfi_offset 7, -24
 3459              		.cfi_offset 8, -20
 3460              		.cfi_offset 9, -16
 3461              		.cfi_offset 10, -12
 3462              		.cfi_offset 11, -8
 3463              		.cfi_offset 14, -4
 3464              	.LBB570:
 3465              	.LBB571:
 3466              		.loc 2 90 0
 3467 0004 B0F91C30 		ldrsh	r3, [r0, #28]
 3468 0008 99B2     		uxth	r1, r3
 3469              	.LBE571:
 3470              	.LBE570:
 3471              		.loc 1 846 0
 3472 000a 0646     		mov	r6, r0
 3473              	.LBB574:
 3474              	.LBB572:
 3475              		.loc 2 90 0
 3476 000c 4A1E     		subs	r2, r1, #1
 3477 000e 4069     		ldr	r0, [r0, #20]
ARM GAS  /var/folders/d2/nstgp4h54kz7g1l847x_b8wc0000gn/T//cccORz8f.s 			page 62


 3478              	.LVL323:
 3479 0010 12B2     		sxth	r2, r2
 3480              	.LBE572:
 3481              	.LBE574:
 3482              	.LBB575:
 3483              	.LBB576:
 3484 0012 8D1E     		subs	r5, r1, #2
 3485              	.LBE576:
 3486              	.LBE575:
 3487              	.LBB580:
 3488              	.LBB573:
 3489 0014 B283     		strh	r2, [r6, #28]	@ movhi
 3490              	.LBE573:
 3491              	.LBE580:
 3492              	.LBB581:
 3493              	.LBB577:
 3494 0016 2DB2     		sxth	r5, r5
 3495              	.LBE577:
 3496              	.LBE581:
 3497              	.LBB582:
 3498              	.LBB583:
 3499 0018 CC1E     		subs	r4, r1, #3
 3500              	.LBE583:
 3501              	.LBE582:
 3502              		.loc 1 848 0
 3503 001a 30F81330 		ldrh	r3, [r0, r3, lsl #1]
 3504              	.LVL324:
 3505              	.LBB587:
 3506              	.LBB578:
 3507              		.loc 2 90 0
 3508 001e B583     		strh	r5, [r6, #28]	@ movhi
 3509              	.LBE578:
 3510              	.LBE587:
 3511              	.LBB588:
 3512              	.LBB584:
 3513 0020 24B2     		sxth	r4, r4
 3514              	.LBE584:
 3515              	.LBE588:
 3516              	.LBB589:
 3517              	.LBB579:
 3518 0022 30F91220 		ldrsh	r2, [r0, r2, lsl #1]
 3519              	.LVL325:
 3520              	.LBE579:
 3521              	.LBE589:
 3522              	.LBB590:
 3523              	.LBB585:
 3524 0026 B483     		strh	r4, [r6, #28]	@ movhi
 3525              	.LBE585:
 3526              	.LBE590:
 3527              	.LBB591:
 3528              	.LBB592:
 3529 0028 0439     		subs	r1, r1, #4
 3530              	.LBE592:
 3531              	.LBE591:
 3532              	.LBB594:
 3533              	.LBB586:
 3534 002a 30F915B0 		ldrsh	fp, [r0, r5, lsl #1]
ARM GAS  /var/folders/d2/nstgp4h54kz7g1l847x_b8wc0000gn/T//cccORz8f.s 			page 63


 3535              	.LVL326:
 3536              	.LBE586:
 3537              	.LBE594:
 3538              	.LBB595:
 3539              	.LBB593:
 3540 002e B183     		strh	r1, [r6, #28]	@ movhi
 3541              	.LBE593:
 3542              	.LBE595:
 3543              		.loc 1 853 0
 3544 0030 30F81410 		ldrh	r1, [r0, r4, lsl #1]
 3545              	.LVL327:
 3546              		.loc 1 846 0
 3547 0034 1B48     		ldr	r0, .L300
 3548 0036 83B0     		sub	sp, sp, #12
 3549              		.cfi_def_cfa_offset 48
 3550              		.loc 1 846 0
 3551 0038 0068     		ldr	r0, [r0]
 3552 003a 0190     		str	r0, [sp, #4]
 3553              		.loc 1 856 0
 3554 003c 41B3     		cbz	r1, .L287
 3555 003e 03EB0108 		add	r8, r3, r1
 3556              	.LBB596:
 3557              	.LBB597:
 3558              	.LBB598:
 3559              		.loc 1 76 0
 3560 0042 DFF86490 		ldr	r9, .L300+4
 3561 0046 1FFA88F8 		uxth	r8, r8
 3562 004a A2EB030A 		sub	r10, r2, r3
 3563 004e ABEB030B 		sub	fp, fp, r3
 3564              	.LVL328:
 3565 0052 07E0     		b	.L291
 3566              	.LVL329:
 3567              	.L298:
 3568 0054 30EA2100 		bics	r0, r0, r1, asr #32
 3569 0058 28BF     		it	cs
 3570 005a 4846     		movcs	r0, r9
 3571              	.LVL330:
 3572              	.LBE598:
 3573              	.LBE597:
 3574              	.LBE596:
 3575              		.loc 1 856 0
 3576 005c 4545     		cmp	r5, r8
 3577 005e 2B46     		mov	r3, r5
 3578              	.LVL331:
 3579              	.LBB601:
 3580              		.loc 1 860 0
 3581 0060 E053     		strh	r0, [r4, r7]	@ movhi
 3582              	.LVL332:
 3583              	.LBE601:
 3584              		.loc 1 856 0
 3585 0062 15D0     		beq	.L287
 3586              	.LVL333:
 3587              	.L291:
 3588              	.LBB602:
 3589              		.loc 1 858 0 discriminator 3
 3590 0064 03EB0A00 		add	r0, r3, r10
 3591 0068 F468     		ldr	r4, [r6, #12]
ARM GAS  /var/folders/d2/nstgp4h54kz7g1l847x_b8wc0000gn/T//cccORz8f.s 			page 64


 3592 006a 00B2     		sxth	r0, r0
 3593              		.loc 1 859 0 discriminator 3
 3594 006c 03EB0B01 		add	r1, r3, fp
 3595 0070 09B2     		sxth	r1, r1
 3596              		.loc 1 858 0 discriminator 3
 3597 0072 34F91000 		ldrsh	r0, [r4, r0, lsl #1]
 3598              	.LVL334:
 3599              		.loc 1 859 0 discriminator 3
 3600 0076 34F91110 		ldrsh	r1, [r4, r1, lsl #1]
 3601              	.LVL335:
 3602              		.loc 1 860 0 discriminator 3
 3603 007a 5D1C     		adds	r5, r3, #1
 3604 007c ADB2     		uxth	r5, r5
 3605              	.LVL336:
 3606 007e 5F00     		lsls	r7, r3, #1
 3607              	.LVL337:
 3608              	.LBB600:
 3609              	.LBB599:
 3610              		.loc 1 71 0 discriminator 3
 3611 0080 0028     		cmp	r0, #0
 3612 0082 E7D0     		beq	.L298
 3613 0084 FFF7FEFF 		bl	aseba_atan2.part.1
 3614              	.LVL338:
 3615              	.LBE599:
 3616              	.LBE600:
 3617              	.LBE602:
 3618              		.loc 1 856 0
 3619 0088 4545     		cmp	r5, r8
 3620 008a 2B46     		mov	r3, r5
 3621              	.LBB603:
 3622              		.loc 1 860 0
 3623 008c E053     		strh	r0, [r4, r7]	@ movhi
 3624              	.LVL339:
 3625              	.LBE603:
 3626              		.loc 1 856 0
 3627 008e E9D1     		bne	.L291
 3628              	.LVL340:
 3629              	.L287:
 3630              		.loc 1 862 0
 3631 0090 044B     		ldr	r3, .L300
 3632 0092 019A     		ldr	r2, [sp, #4]
 3633 0094 1B68     		ldr	r3, [r3]
 3634 0096 9A42     		cmp	r2, r3
 3635 0098 02D1     		bne	.L299
 3636 009a 03B0     		add	sp, sp, #12
 3637              		.cfi_remember_state
 3638              		.cfi_def_cfa_offset 36
 3639              		@ sp needed
 3640 009c BDE8F08F 		pop	{r4, r5, r6, r7, r8, r9, r10, fp, pc}
 3641              	.LVL341:
 3642              	.L299:
 3643              		.cfi_restore_state
 3644 00a0 FFF7FEFF 		bl	__stack_chk_fail
 3645              	.LVL342:
 3646              	.L301:
 3647              		.align	2
 3648              	.L300:
ARM GAS  /var/folders/d2/nstgp4h54kz7g1l847x_b8wc0000gn/T//cccORz8f.s 			page 65


 3649 00a4 00000000 		.word	__stack_chk_guard
 3650 00a8 0080FFFF 		.word	-32768
 3651              		.cfi_endproc
 3652              	.LFE21:
 3653              		.size	AsebaNative_mathatan2, .-AsebaNative_mathatan2
 3654              		.section	.text.AsebaNative_mathsin,"ax",%progbits
 3655              		.align	1
 3656              		.p2align 4,,15
 3657              		.global	AsebaNative_mathsin
 3658              		.syntax unified
 3659              		.thumb
 3660              		.thumb_func
 3661              		.fpu fpv4-sp-d16
 3662              		.type	AsebaNative_mathsin, %function
 3663              	AsebaNative_mathsin:
 3664              	.LFB22:
 3665              		.loc 1 877 0
 3666              		.cfi_startproc
 3667              		@ args = 0, pretend = 0, frame = 8
 3668              		@ frame_needed = 0, uses_anonymous_args = 0
 3669              	.LVL343:
 3670 0000 2DE9F047 		push	{r4, r5, r6, r7, r8, r9, r10, lr}
 3671              		.cfi_def_cfa_offset 32
 3672              		.cfi_offset 4, -32
 3673              		.cfi_offset 5, -28
 3674              		.cfi_offset 6, -24
 3675              		.cfi_offset 7, -20
 3676              		.cfi_offset 8, -16
 3677              		.cfi_offset 9, -12
 3678              		.cfi_offset 10, -8
 3679              		.cfi_offset 14, -4
 3680              	.LBB604:
 3681              	.LBB605:
 3682              		.loc 2 90 0
 3683 0004 B0F91C40 		ldrsh	r4, [r0, #28]
 3684              	.LBE605:
 3685              	.LBE604:
 3686              		.loc 1 877 0
 3687 0008 DFF86C80 		ldr	r8, .L312
 3688              	.LBB609:
 3689              	.LBB606:
 3690              		.loc 2 90 0
 3691 000c A3B2     		uxth	r3, r4
 3692              	.LBE606:
 3693              	.LBE609:
 3694              		.loc 1 877 0
 3695 000e 8246     		mov	r10, r0
 3696              	.LBB610:
 3697              	.LBB607:
 3698              		.loc 2 90 0
 3699 0010 591E     		subs	r1, r3, #1
 3700 0012 4069     		ldr	r0, [r0, #20]
 3701              	.LVL344:
 3702 0014 09B2     		sxth	r1, r1
 3703              	.LBE607:
 3704              	.LBE610:
 3705              	.LBB611:
ARM GAS  /var/folders/d2/nstgp4h54kz7g1l847x_b8wc0000gn/T//cccORz8f.s 			page 66


 3706              	.LBB612:
 3707 0016 9A1E     		subs	r2, r3, #2
 3708              	.LBE612:
 3709              	.LBE611:
 3710              	.LBB616:
 3711              	.LBB608:
 3712 0018 AAF81C10 		strh	r1, [r10, #28]	@ movhi
 3713              	.LBE608:
 3714              	.LBE616:
 3715              	.LBB617:
 3716              	.LBB613:
 3717 001c 12B2     		sxth	r2, r2
 3718              	.LBE613:
 3719              	.LBE617:
 3720              		.loc 1 879 0
 3721 001e 30F81440 		ldrh	r4, [r0, r4, lsl #1]
 3722              	.LVL345:
 3723              	.LBB618:
 3724              	.LBB614:
 3725              		.loc 2 90 0
 3726 0022 AAF81C20 		strh	r2, [r10, #28]	@ movhi
 3727              	.LBE614:
 3728              	.LBE618:
 3729              	.LBB619:
 3730              	.LBB620:
 3731 0026 033B     		subs	r3, r3, #3
 3732              	.LBE620:
 3733              	.LBE619:
 3734              	.LBB622:
 3735              	.LBB615:
 3736 0028 30F91170 		ldrsh	r7, [r0, r1, lsl #1]
 3737              	.LVL346:
 3738              	.LBE615:
 3739              	.LBE622:
 3740              	.LBB623:
 3741              	.LBB621:
 3742 002c AAF81C30 		strh	r3, [r10, #28]	@ movhi
 3743              	.LBE621:
 3744              	.LBE623:
 3745              		.loc 1 877 0
 3746 0030 82B0     		sub	sp, sp, #8
 3747              		.cfi_def_cfa_offset 40
 3748              		.loc 1 883 0
 3749 0032 30F81260 		ldrh	r6, [r0, r2, lsl #1]
 3750              	.LVL347:
 3751              		.loc 1 877 0
 3752 0036 D8F80030 		ldr	r3, [r8]
 3753 003a 0193     		str	r3, [sp, #4]
 3754              		.loc 1 886 0
 3755 003c 8EB1     		cbz	r6, .L302
 3756 003e 2644     		add	r6, r6, r4
 3757              	.LVL348:
 3758 0040 B6B2     		uxth	r6, r6
 3759 0042 3F1B     		subs	r7, r7, r4
 3760              	.LVL349:
 3761              	.L304:
 3762              	.LBB624:
ARM GAS  /var/folders/d2/nstgp4h54kz7g1l847x_b8wc0000gn/T//cccORz8f.s 			page 67


 3763              		.loc 1 888 0 discriminator 3
 3764 0044 E319     		adds	r3, r4, r7
 3765 0046 1BB2     		sxth	r3, r3
 3766 0048 DAF80C90 		ldr	r9, [r10, #12]
 3767              	.LVL350:
 3768              		.loc 1 889 0 discriminator 3
 3769 004c 39F91300 		ldrsh	r0, [r9, r3, lsl #1]
 3770 0050 651C     		adds	r5, r4, #1
 3771 0052 FFF7FEFF 		bl	aseba_sin
 3772              	.LVL351:
 3773 0056 ADB2     		uxth	r5, r5
 3774              	.LVL352:
 3775              	.LBE624:
 3776              		.loc 1 886 0 discriminator 3
 3777 0058 B542     		cmp	r5, r6
 3778              	.LBB625:
 3779              		.loc 1 889 0 discriminator 3
 3780 005a 29F81400 		strh	r0, [r9, r4, lsl #1]	@ movhi
 3781 005e 2C46     		mov	r4, r5
 3782              	.LBE625:
 3783              		.loc 1 886 0 discriminator 3
 3784 0060 F0D1     		bne	.L304
 3785              	.LVL353:
 3786              	.L302:
 3787              		.loc 1 891 0
 3788 0062 019A     		ldr	r2, [sp, #4]
 3789 0064 D8F80030 		ldr	r3, [r8]
 3790 0068 9A42     		cmp	r2, r3
 3791 006a 02D1     		bne	.L311
 3792 006c 02B0     		add	sp, sp, #8
 3793              		.cfi_remember_state
 3794              		.cfi_def_cfa_offset 32
 3795              		@ sp needed
 3796 006e BDE8F087 		pop	{r4, r5, r6, r7, r8, r9, r10, pc}
 3797              	.LVL354:
 3798              	.L311:
 3799              		.cfi_restore_state
 3800 0072 FFF7FEFF 		bl	__stack_chk_fail
 3801              	.LVL355:
 3802              	.L313:
 3803 0076 00BF     		.align	2
 3804              	.L312:
 3805 0078 00000000 		.word	__stack_chk_guard
 3806              		.cfi_endproc
 3807              	.LFE22:
 3808              		.size	AsebaNative_mathsin, .-AsebaNative_mathsin
 3809              		.section	.text.AsebaNative_mathcos,"ax",%progbits
 3810              		.align	1
 3811              		.p2align 4,,15
 3812              		.global	AsebaNative_mathcos
 3813              		.syntax unified
 3814              		.thumb
 3815              		.thumb_func
 3816              		.fpu fpv4-sp-d16
 3817              		.type	AsebaNative_mathcos, %function
 3818              	AsebaNative_mathcos:
 3819              	.LFB23:
ARM GAS  /var/folders/d2/nstgp4h54kz7g1l847x_b8wc0000gn/T//cccORz8f.s 			page 68


 3820              		.loc 1 905 0
 3821              		.cfi_startproc
 3822              		@ args = 0, pretend = 0, frame = 8
 3823              		@ frame_needed = 0, uses_anonymous_args = 0
 3824              	.LVL356:
 3825 0000 2DE9F047 		push	{r4, r5, r6, r7, r8, r9, r10, lr}
 3826              		.cfi_def_cfa_offset 32
 3827              		.cfi_offset 4, -32
 3828              		.cfi_offset 5, -28
 3829              		.cfi_offset 6, -24
 3830              		.cfi_offset 7, -20
 3831              		.cfi_offset 8, -16
 3832              		.cfi_offset 9, -12
 3833              		.cfi_offset 10, -8
 3834              		.cfi_offset 14, -4
 3835              	.LBB626:
 3836              	.LBB627:
 3837              		.loc 2 90 0
 3838 0004 B0F91C40 		ldrsh	r4, [r0, #28]
 3839              	.LBE627:
 3840              	.LBE626:
 3841              		.loc 1 905 0
 3842 0008 DFF87080 		ldr	r8, .L324
 3843              	.LBB631:
 3844              	.LBB628:
 3845              		.loc 2 90 0
 3846 000c A3B2     		uxth	r3, r4
 3847              	.LBE628:
 3848              	.LBE631:
 3849              		.loc 1 905 0
 3850 000e 8146     		mov	r9, r0
 3851              	.LBB632:
 3852              	.LBB629:
 3853              		.loc 2 90 0
 3854 0010 591E     		subs	r1, r3, #1
 3855 0012 4069     		ldr	r0, [r0, #20]
 3856              	.LVL357:
 3857 0014 09B2     		sxth	r1, r1
 3858              	.LBE629:
 3859              	.LBE632:
 3860              	.LBB633:
 3861              	.LBB634:
 3862 0016 9A1E     		subs	r2, r3, #2
 3863              	.LBE634:
 3864              	.LBE633:
 3865              	.LBB638:
 3866              	.LBB630:
 3867 0018 A9F81C10 		strh	r1, [r9, #28]	@ movhi
 3868              	.LBE630:
 3869              	.LBE638:
 3870              	.LBB639:
 3871              	.LBB635:
 3872 001c 12B2     		sxth	r2, r2
 3873              	.LBE635:
 3874              	.LBE639:
 3875              		.loc 1 907 0
 3876 001e 30F81440 		ldrh	r4, [r0, r4, lsl #1]
ARM GAS  /var/folders/d2/nstgp4h54kz7g1l847x_b8wc0000gn/T//cccORz8f.s 			page 69


 3877              	.LVL358:
 3878              	.LBB640:
 3879              	.LBB636:
 3880              		.loc 2 90 0
 3881 0022 A9F81C20 		strh	r2, [r9, #28]	@ movhi
 3882              	.LBE636:
 3883              	.LBE640:
 3884              	.LBB641:
 3885              	.LBB642:
 3886 0026 033B     		subs	r3, r3, #3
 3887              	.LBE642:
 3888              	.LBE641:
 3889              	.LBB644:
 3890              	.LBB637:
 3891 0028 30F91170 		ldrsh	r7, [r0, r1, lsl #1]
 3892              	.LVL359:
 3893              	.LBE637:
 3894              	.LBE644:
 3895              	.LBB645:
 3896              	.LBB643:
 3897 002c A9F81C30 		strh	r3, [r9, #28]	@ movhi
 3898              	.LBE643:
 3899              	.LBE645:
 3900              		.loc 1 905 0
 3901 0030 82B0     		sub	sp, sp, #8
 3902              		.cfi_def_cfa_offset 40
 3903              		.loc 1 911 0
 3904 0032 30F81260 		ldrh	r6, [r0, r2, lsl #1]
 3905              	.LVL360:
 3906              		.loc 1 905 0
 3907 0036 D8F80030 		ldr	r3, [r8]
 3908 003a 0193     		str	r3, [sp, #4]
 3909              		.loc 1 914 0
 3910 003c A6B1     		cbz	r6, .L314
 3911 003e 2644     		add	r6, r6, r4
 3912              	.LVL361:
 3913 0040 B6B2     		uxth	r6, r6
 3914 0042 3F1B     		subs	r7, r7, r4
 3915              	.LVL362:
 3916              	.L316:
 3917              	.LBB646:
 3918              		.loc 1 916 0 discriminator 3
 3919 0044 E319     		adds	r3, r4, r7
 3920 0046 1BB2     		sxth	r3, r3
 3921 0048 D9F80CA0 		ldr	r10, [r9, #12]
 3922              	.LVL363:
 3923              	.LBB647:
 3924              	.LBB648:
 3925              		.loc 1 223 0 discriminator 3
 3926 004c 3AF81300 		ldrh	r0, [r10, r3, lsl #1]
 3927 0050 00F58040 		add	r0, r0, #16384
 3928 0054 00B2     		sxth	r0, r0
 3929              	.LBE648:
 3930              	.LBE647:
 3931              		.loc 1 917 0 discriminator 3
 3932 0056 651C     		adds	r5, r4, #1
 3933              	.LBB650:
ARM GAS  /var/folders/d2/nstgp4h54kz7g1l847x_b8wc0000gn/T//cccORz8f.s 			page 70


 3934              	.LBB649:
 3935              		.loc 1 223 0 discriminator 3
 3936 0058 FFF7FEFF 		bl	aseba_sin
 3937              	.LVL364:
 3938              	.LBE649:
 3939              	.LBE650:
 3940              		.loc 1 917 0 discriminator 3
 3941 005c ADB2     		uxth	r5, r5
 3942              	.LVL365:
 3943              	.LBE646:
 3944              		.loc 1 914 0 discriminator 3
 3945 005e B542     		cmp	r5, r6
 3946              	.LBB651:
 3947              		.loc 1 917 0 discriminator 3
 3948 0060 2AF81400 		strh	r0, [r10, r4, lsl #1]	@ movhi
 3949 0064 2C46     		mov	r4, r5
 3950              	.LBE651:
 3951              		.loc 1 914 0 discriminator 3
 3952 0066 EDD1     		bne	.L316
 3953              	.LVL366:
 3954              	.L314:
 3955              		.loc 1 919 0
 3956 0068 019A     		ldr	r2, [sp, #4]
 3957 006a D8F80030 		ldr	r3, [r8]
 3958 006e 9A42     		cmp	r2, r3
 3959 0070 02D1     		bne	.L323
 3960 0072 02B0     		add	sp, sp, #8
 3961              		.cfi_remember_state
 3962              		.cfi_def_cfa_offset 32
 3963              		@ sp needed
 3964 0074 BDE8F087 		pop	{r4, r5, r6, r7, r8, r9, r10, pc}
 3965              	.LVL367:
 3966              	.L323:
 3967              		.cfi_restore_state
 3968 0078 FFF7FEFF 		bl	__stack_chk_fail
 3969              	.LVL368:
 3970              	.L325:
 3971              		.align	2
 3972              	.L324:
 3973 007c 00000000 		.word	__stack_chk_guard
 3974              		.cfi_endproc
 3975              	.LFE23:
 3976              		.size	AsebaNative_mathcos, .-AsebaNative_mathcos
 3977              		.section	.text.AsebaNative_mathrot2,"ax",%progbits
 3978              		.align	1
 3979              		.p2align 4,,15
 3980              		.global	AsebaNative_mathrot2
 3981              		.syntax unified
 3982              		.thumb
 3983              		.thumb_func
 3984              		.fpu fpv4-sp-d16
 3985              		.type	AsebaNative_mathrot2, %function
 3986              	AsebaNative_mathrot2:
 3987              	.LFB24:
 3988              		.loc 1 933 0
 3989              		.cfi_startproc
 3990              		@ args = 0, pretend = 0, frame = 8
ARM GAS  /var/folders/d2/nstgp4h54kz7g1l847x_b8wc0000gn/T//cccORz8f.s 			page 71


 3991              		@ frame_needed = 0, uses_anonymous_args = 0
 3992              	.LVL369:
 3993 0000 2DE9F04F 		push	{r4, r5, r6, r7, r8, r9, r10, fp, lr}
 3994              		.cfi_def_cfa_offset 36
 3995              		.cfi_offset 4, -36
 3996              		.cfi_offset 5, -32
 3997              		.cfi_offset 6, -28
 3998              		.cfi_offset 7, -24
 3999              		.cfi_offset 8, -20
 4000              		.cfi_offset 9, -16
 4001              		.cfi_offset 10, -12
 4002              		.cfi_offset 11, -8
 4003              		.cfi_offset 14, -4
 4004 0004 214F     		ldr	r7, .L330
 4005              	.LBB652:
 4006              	.LBB653:
 4007              		.loc 2 90 0
 4008 0006 B0F91C50 		ldrsh	r5, [r0, #28]
 4009              	.LBE653:
 4010              	.LBE652:
 4011              		.loc 1 933 0
 4012 000a 3B68     		ldr	r3, [r7]
 4013 000c 83B0     		sub	sp, sp, #12
 4014              		.cfi_def_cfa_offset 48
 4015              		.loc 1 933 0
 4016 000e 0446     		mov	r4, r0
 4017 0010 0193     		str	r3, [sp, #4]
 4018              	.LBB657:
 4019              	.LBB654:
 4020              		.loc 2 90 0
 4021 0012 ABB2     		uxth	r3, r5
 4022 0014 5A1E     		subs	r2, r3, #1
 4023 0016 4069     		ldr	r0, [r0, #20]
 4024              	.LVL370:
 4025              	.LBE654:
 4026              	.LBE657:
 4027              		.loc 1 940 0
 4028 0018 D4F80C90 		ldr	r9, [r4, #12]
 4029              	.LBB658:
 4030              	.LBB655:
 4031              		.loc 2 90 0
 4032 001c 12B2     		sxth	r2, r2
 4033              	.LBE655:
 4034              	.LBE658:
 4035              	.LBB659:
 4036              	.LBB660:
 4037 001e 991E     		subs	r1, r3, #2
 4038              	.LBE660:
 4039              	.LBE659:
 4040              	.LBB663:
 4041              	.LBB656:
 4042 0020 A283     		strh	r2, [r4, #28]	@ movhi
 4043              	.LBE656:
 4044              	.LBE663:
 4045              	.LBB664:
 4046              	.LBB661:
 4047 0022 09B2     		sxth	r1, r1
ARM GAS  /var/folders/d2/nstgp4h54kz7g1l847x_b8wc0000gn/T//cccORz8f.s 			page 72


 4048              	.LBE661:
 4049              	.LBE664:
 4050              		.loc 1 935 0
 4051 0024 30F81580 		ldrh	r8, [r0, r5, lsl #1]
 4052              	.LVL371:
 4053              	.LBB665:
 4054              	.LBB662:
 4055              		.loc 2 90 0
 4056 0028 A183     		strh	r1, [r4, #28]	@ movhi
 4057              	.LBE662:
 4058              	.LBE665:
 4059              	.LBB666:
 4060              	.LBB667:
 4061 002a 033B     		subs	r3, r3, #3
 4062              	.LBE667:
 4063              	.LBE666:
 4064              		.loc 1 936 0
 4065 002c 30F81220 		ldrh	r2, [r0, r2, lsl #1]
 4066              	.LVL372:
 4067              	.LBB669:
 4068              	.LBB668:
 4069              		.loc 2 90 0
 4070 0030 A383     		strh	r3, [r4, #28]	@ movhi
 4071              	.LVL373:
 4072              	.LBE668:
 4073              	.LBE669:
 4074              		.loc 1 942 0
 4075 0032 30F81130 		ldrh	r3, [r0, r1, lsl #1]
 4076              		.loc 1 940 0
 4077 0036 39F91260 		ldrsh	r6, [r9, r2, lsl #1]
 4078              	.LVL374:
 4079              		.loc 1 942 0
 4080 003a 39F913B0 		ldrsh	fp, [r9, r3, lsl #1]
 4081              		.loc 1 941 0
 4082 003e 09EB4202 		add	r2, r9, r2, lsl #1
 4083              	.LVL375:
 4084              	.LBB670:
 4085              	.LBB671:
 4086              		.loc 1 223 0
 4087 0042 0BF58040 		add	r0, fp, #16384
 4088              	.LVL376:
 4089 0046 00B2     		sxth	r0, r0
 4090              	.LBE671:
 4091              	.LBE670:
 4092              		.loc 1 941 0
 4093 0048 B2F90250 		ldrsh	r5, [r2, #2]
 4094              	.LVL377:
 4095              	.LBB673:
 4096              	.LBB672:
 4097              		.loc 1 223 0
 4098 004c FFF7FEFF 		bl	aseba_sin
 4099              	.LVL378:
 4100 0050 8246     		mov	r10, r0
 4101              	.LVL379:
 4102              	.LBE672:
 4103              	.LBE673:
 4104              		.loc 1 945 0
ARM GAS  /var/folders/d2/nstgp4h54kz7g1l847x_b8wc0000gn/T//cccORz8f.s 			page 73


 4105 0052 5846     		mov	r0, fp
 4106 0054 FFF7FEFF 		bl	aseba_sin
 4107              	.LVL380:
 4108              		.loc 1 947 0
 4109 0058 0AFB06F3 		mul	r3, r10, r6
 4110 005c 00FB1533 		mls	r3, r0, r5, r3
 4111 0060 DB13     		asrs	r3, r3, #15
 4112 0062 29F81830 		strh	r3, [r9, r8, lsl #1]	@ movhi
 4113              		.loc 1 951 0
 4114 0066 E368     		ldr	r3, [r4, #12]
 4115              		.loc 1 952 0
 4116 0068 019A     		ldr	r2, [sp, #4]
 4117              		.loc 1 948 0
 4118 006a 06FB00F6 		mul	r6, r6, r0
 4119              	.LVL381:
 4120              		.loc 1 951 0
 4121 006e 03EB4808 		add	r8, r3, r8, lsl #1
 4122              	.LVL382:
 4123              		.loc 1 948 0
 4124 0072 0AFB0565 		mla	r5, r10, r5, r6
 4125              	.LVL383:
 4126 0076 ED13     		asrs	r5, r5, #15
 4127 0078 A8F80250 		strh	r5, [r8, #2]	@ movhi
 4128              		.loc 1 952 0
 4129 007c 3B68     		ldr	r3, [r7]
 4130 007e 9A42     		cmp	r2, r3
 4131 0080 02D1     		bne	.L329
 4132 0082 03B0     		add	sp, sp, #12
 4133              		.cfi_remember_state
 4134              		.cfi_def_cfa_offset 36
 4135              		@ sp needed
 4136 0084 BDE8F08F 		pop	{r4, r5, r6, r7, r8, r9, r10, fp, pc}
 4137              	.LVL384:
 4138              	.L329:
 4139              		.cfi_restore_state
 4140 0088 FFF7FEFF 		bl	__stack_chk_fail
 4141              	.LVL385:
 4142              	.L331:
 4143              		.align	2
 4144              	.L330:
 4145 008c 00000000 		.word	__stack_chk_guard
 4146              		.cfi_endproc
 4147              	.LFE24:
 4148              		.size	AsebaNative_mathrot2, .-AsebaNative_mathrot2
 4149              		.section	.text.AsebaNative_mathsqrt,"ax",%progbits
 4150              		.align	1
 4151              		.p2align 4,,15
 4152              		.global	AsebaNative_mathsqrt
 4153              		.syntax unified
 4154              		.thumb
 4155              		.thumb_func
 4156              		.fpu fpv4-sp-d16
 4157              		.type	AsebaNative_mathsqrt, %function
 4158              	AsebaNative_mathsqrt:
 4159              	.LFB25:
 4160              		.loc 1 967 0
 4161              		.cfi_startproc
ARM GAS  /var/folders/d2/nstgp4h54kz7g1l847x_b8wc0000gn/T//cccORz8f.s 			page 74


 4162              		@ args = 0, pretend = 0, frame = 8
 4163              		@ frame_needed = 0, uses_anonymous_args = 0
 4164              	.LVL386:
 4165              	.LBB674:
 4166              	.LBB675:
 4167              		.loc 2 90 0
 4168 0000 B0F91C30 		ldrsh	r3, [r0, #28]
 4169              	.LBE675:
 4170              	.LBE674:
 4171              		.loc 1 967 0
 4172 0004 2DE9F043 		push	{r4, r5, r6, r7, r8, r9, lr}
 4173              		.cfi_def_cfa_offset 28
 4174              		.cfi_offset 4, -28
 4175              		.cfi_offset 5, -24
 4176              		.cfi_offset 6, -20
 4177              		.cfi_offset 7, -16
 4178              		.cfi_offset 8, -12
 4179              		.cfi_offset 9, -8
 4180              		.cfi_offset 14, -4
 4181              	.LBB679:
 4182              	.LBB676:
 4183              		.loc 2 90 0
 4184 0008 9AB2     		uxth	r2, r3
 4185 000a 541E     		subs	r4, r2, #1
 4186 000c 4569     		ldr	r5, [r0, #20]
 4187              	.LVL387:
 4188              	.LBE676:
 4189              	.LBE679:
 4190              		.loc 1 967 0
 4191 000e DFF8A480 		ldr	r8, .L354
 4192              	.LBB680:
 4193              	.LBB677:
 4194              		.loc 2 90 0
 4195 0012 24B2     		sxth	r4, r4
 4196              	.LBE677:
 4197              	.LBE680:
 4198              	.LBB681:
 4199              	.LBB682:
 4200 0014 911E     		subs	r1, r2, #2
 4201              	.LBE682:
 4202              	.LBE681:
 4203              	.LBB686:
 4204              	.LBB678:
 4205 0016 8483     		strh	r4, [r0, #28]	@ movhi
 4206              	.LBE678:
 4207              	.LBE686:
 4208              	.LBB687:
 4209              	.LBB683:
 4210 0018 09B2     		sxth	r1, r1
 4211              	.LBE683:
 4212              	.LBE687:
 4213              		.loc 1 969 0
 4214 001a 35F81330 		ldrh	r3, [r5, r3, lsl #1]
 4215              	.LVL388:
 4216              	.LBB688:
 4217              	.LBB684:
 4218              		.loc 2 90 0
ARM GAS  /var/folders/d2/nstgp4h54kz7g1l847x_b8wc0000gn/T//cccORz8f.s 			page 75


 4219 001e 8183     		strh	r1, [r0, #28]	@ movhi
 4220              	.LBE684:
 4221              	.LBE688:
 4222              	.LBB689:
 4223              	.LBB690:
 4224 0020 033A     		subs	r2, r2, #3
 4225              	.LBE690:
 4226              	.LBE689:
 4227              	.LBB692:
 4228              	.LBB685:
 4229 0022 35F914E0 		ldrsh	lr, [r5, r4, lsl #1]
 4230              	.LVL389:
 4231              	.LBE685:
 4232              	.LBE692:
 4233              	.LBB693:
 4234              	.LBB691:
 4235 0026 8283     		strh	r2, [r0, #28]	@ movhi
 4236              	.LBE691:
 4237              	.LBE693:
 4238              		.loc 1 967 0
 4239 0028 83B0     		sub	sp, sp, #12
 4240              		.cfi_def_cfa_offset 40
 4241              		.loc 1 973 0
 4242 002a 35F81120 		ldrh	r2, [r5, r1, lsl #1]
 4243              	.LVL390:
 4244              		.loc 1 967 0
 4245 002e D8F80010 		ldr	r1, [r8]
 4246 0032 0191     		str	r1, [sp, #4]
 4247              		.loc 1 976 0
 4248 0034 72B3     		cbz	r2, .L332
 4249 0036 03EB020C 		add	ip, r3, r2
 4250 003a 1FFA8CFC 		uxth	ip, ip
 4251 003e AEEB030E 		sub	lr, lr, r3
 4252              	.LVL391:
 4253              	.L339:
 4254              	.LBB694:
 4255              		.loc 1 978 0 discriminator 3
 4256 0042 03EB0E02 		add	r2, r3, lr
 4257 0046 12B2     		sxth	r2, r2
 4258 0048 C668     		ldr	r6, [r0, #12]
 4259 004a 36F91240 		ldrsh	r4, [r6, r2, lsl #1]
 4260              	.LVL392:
 4261              		.loc 1 979 0 discriminator 3
 4262 004e 5D1C     		adds	r5, r3, #1
 4263              	.LBB695:
 4264              	.LBB696:
 4265              		.loc 1 233 0 discriminator 3
 4266 0050 B4F5804F 		cmp	r4, #16384
 4267              	.LBE696:
 4268              	.LBE695:
 4269              		.loc 1 979 0 discriminator 3
 4270 0054 4FEA4307 		lsl	r7, r3, #1
 4271 0058 ADB2     		uxth	r5, r5
 4272              	.LVL393:
 4273              	.LBB699:
 4274              	.LBB697:
 4275              		.loc 1 231 0 discriminator 3
ARM GAS  /var/folders/d2/nstgp4h54kz7g1l847x_b8wc0000gn/T//cccORz8f.s 			page 76


 4276 005a 4FF48043 		mov	r3, #16384
 4277              		.loc 1 233 0 discriminator 3
 4278 005e 03DA     		bge	.L334
 4279              	.LVL394:
 4280              	.L335:
 4281              		.loc 1 234 0
 4282 0060 9B10     		asrs	r3, r3, #2
 4283              	.LVL395:
 4284              		.loc 1 233 0
 4285 0062 9C42     		cmp	r4, r3
 4286 0064 FCDB     		blt	.L335
 4287              		.loc 1 236 0
 4288 0066 EBB1     		cbz	r3, .L351
 4289              	.LVL396:
 4290              	.L334:
 4291              		.loc 1 231 0
 4292 0068 0022     		movs	r2, #0
 4293 006a 07E0     		b	.L338
 4294              	.LVL397:
 4295              	.L352:
 4296              		.loc 1 240 0
 4297 006c 99B2     		uxth	r1, r3
 4298 006e 0A44     		add	r2, r2, r1
 4299              	.LVL398:
 4300 0070 A41A     		subs	r4, r4, r2
 4301              	.LVL399:
 4302              		.loc 1 241 0
 4303 0072 4944     		add	r1, r1, r9
 4304              		.loc 1 236 0
 4305 0074 9B10     		asrs	r3, r3, #2
 4306              	.LVL400:
 4307              		.loc 1 240 0
 4308 0076 24B2     		sxth	r4, r4
 4309              	.LVL401:
 4310              		.loc 1 241 0
 4311 0078 0AB2     		sxth	r2, r1
 4312              	.LVL402:
 4313              		.loc 1 236 0
 4314 007a 07D0     		beq	.L336
 4315              	.LVL403:
 4316              	.L338:
 4317              		.loc 1 238 0
 4318 007c D118     		adds	r1, r2, r3
 4319 007e 8C42     		cmp	r4, r1
 4320 0080 4FEA6209 		asr	r9, r2, #1
 4321 0084 F2DA     		bge	.L352
 4322              		.loc 1 236 0
 4323 0086 9B10     		asrs	r3, r3, #2
 4324              	.LVL404:
 4325              		.loc 1 245 0
 4326 0088 4A46     		mov	r2, r9
 4327              	.LVL405:
 4328              		.loc 1 236 0
 4329 008a F7D1     		bne	.L338
 4330              	.L336:
 4331              	.LVL406:
 4332              	.LBE697:
ARM GAS  /var/folders/d2/nstgp4h54kz7g1l847x_b8wc0000gn/T//cccORz8f.s 			page 77


 4333              	.LBE699:
 4334              	.LBE694:
 4335              		.loc 1 976 0
 4336 008c 6545     		cmp	r5, ip
 4337 008e 2B46     		mov	r3, r5
 4338              	.LBB701:
 4339              		.loc 1 979 0
 4340 0090 F253     		strh	r2, [r6, r7]	@ movhi
 4341              	.LVL407:
 4342              	.LBE701:
 4343              		.loc 1 976 0
 4344 0092 D6D1     		bne	.L339
 4345              	.LVL408:
 4346              	.L332:
 4347              		.loc 1 981 0
 4348 0094 019A     		ldr	r2, [sp, #4]
 4349 0096 D8F80030 		ldr	r3, [r8]
 4350 009a 9A42     		cmp	r2, r3
 4351 009c 08D1     		bne	.L353
 4352 009e 03B0     		add	sp, sp, #12
 4353              		.cfi_remember_state
 4354              		.cfi_def_cfa_offset 28
 4355              		@ sp needed
 4356 00a0 BDE8F083 		pop	{r4, r5, r6, r7, r8, r9, pc}
 4357              	.LVL409:
 4358              	.L351:
 4359              		.cfi_restore_state
 4360              	.LBB702:
 4361              	.LBB700:
 4362              	.LBB698:
 4363              		.loc 1 230 0
 4364 00a4 1A46     		mov	r2, r3
 4365              	.LVL410:
 4366              	.LBE698:
 4367              	.LBE700:
 4368              	.LBE702:
 4369              		.loc 1 976 0
 4370 00a6 6545     		cmp	r5, ip
 4371 00a8 2B46     		mov	r3, r5
 4372              	.LBB703:
 4373              		.loc 1 979 0
 4374 00aa F253     		strh	r2, [r6, r7]	@ movhi
 4375              	.LVL411:
 4376              	.LBE703:
 4377              		.loc 1 976 0
 4378 00ac C9D1     		bne	.L339
 4379 00ae F1E7     		b	.L332
 4380              	.LVL412:
 4381              	.L353:
 4382              		.loc 1 981 0
 4383 00b0 FFF7FEFF 		bl	__stack_chk_fail
 4384              	.LVL413:
 4385              	.L355:
 4386              		.align	2
 4387              	.L354:
 4388 00b4 00000000 		.word	__stack_chk_guard
 4389              		.cfi_endproc
ARM GAS  /var/folders/d2/nstgp4h54kz7g1l847x_b8wc0000gn/T//cccORz8f.s 			page 78


 4390              	.LFE25:
 4391              		.size	AsebaNative_mathsqrt, .-AsebaNative_mathsqrt
 4392              		.section	.text.AsebaNative_vecnonzerosequence,"ax",%progbits
 4393              		.align	1
 4394              		.p2align 4,,15
 4395              		.global	AsebaNative_vecnonzerosequence
 4396              		.syntax unified
 4397              		.thumb
 4398              		.thumb_func
 4399              		.fpu fpv4-sp-d16
 4400              		.type	AsebaNative_vecnonzerosequence, %function
 4401              	AsebaNative_vecnonzerosequence:
 4402              	.LFB26:
 4403              		.loc 1 995 0
 4404              		.cfi_startproc
 4405              		@ args = 0, pretend = 0, frame = 8
 4406              		@ frame_needed = 0, uses_anonymous_args = 0
 4407              	.LVL414:
 4408 0000 2DE9F047 		push	{r4, r5, r6, r7, r8, r9, r10, lr}
 4409              		.cfi_def_cfa_offset 32
 4410              		.cfi_offset 4, -32
 4411              		.cfi_offset 5, -28
 4412              		.cfi_offset 6, -24
 4413              		.cfi_offset 7, -20
 4414              		.cfi_offset 8, -16
 4415              		.cfi_offset 9, -12
 4416              		.cfi_offset 10, -8
 4417              		.cfi_offset 14, -4
 4418 0004 524F     		ldr	r7, .L384
 4419              	.LBB704:
 4420              	.LBB705:
 4421              		.loc 2 90 0
 4422 0006 B0F91C60 		ldrsh	r6, [r0, #28]
 4423              	.LBE705:
 4424              	.LBE704:
 4425              		.loc 1 995 0
 4426 000a 3B68     		ldr	r3, [r7]
 4427 000c 4169     		ldr	r1, [r0, #20]
 4428              	.LVL415:
 4429 000e 82B0     		sub	sp, sp, #8
 4430              		.cfi_def_cfa_offset 40
 4431              		.loc 1 995 0
 4432 0010 0193     		str	r3, [sp, #4]
 4433              	.LBB708:
 4434              	.LBB706:
 4435              		.loc 2 90 0
 4436 0012 B3B2     		uxth	r3, r6
 4437 0014 5D1E     		subs	r5, r3, #1
 4438 0016 2DB2     		sxth	r5, r5
 4439              	.LBE706:
 4440              	.LBE708:
 4441              	.LBB709:
 4442              	.LBB710:
 4443 0018 9A1E     		subs	r2, r3, #2
 4444              	.LBE710:
 4445              	.LBE709:
 4446              	.LBB713:
ARM GAS  /var/folders/d2/nstgp4h54kz7g1l847x_b8wc0000gn/T//cccORz8f.s 			page 79


 4447              	.LBB707:
 4448 001a 8583     		strh	r5, [r0, #28]	@ movhi
 4449              	.LBE707:
 4450              	.LBE713:
 4451              	.LBB714:
 4452              	.LBB711:
 4453 001c 12B2     		sxth	r2, r2
 4454              	.LBE711:
 4455              	.LBE714:
 4456              	.LBB715:
 4457              	.LBB716:
 4458 001e DC1E     		subs	r4, r3, #3
 4459              	.LBE716:
 4460              	.LBE715:
 4461              		.loc 1 997 0
 4462 0020 31F816E0 		ldrh	lr, [r1, r6, lsl #1]
 4463              	.LVL416:
 4464              	.LBB720:
 4465              	.LBB712:
 4466              		.loc 2 90 0
 4467 0024 8283     		strh	r2, [r0, #28]	@ movhi
 4468              	.LBE712:
 4469              	.LBE720:
 4470              	.LBB721:
 4471              	.LBB717:
 4472 0026 24B2     		sxth	r4, r4
 4473              	.LBE717:
 4474              	.LBE721:
 4475              		.loc 1 998 0
 4476 0028 31F81550 		ldrh	r5, [r1, r5, lsl #1]
 4477              	.LVL417:
 4478              	.LBB722:
 4479              	.LBB718:
 4480              		.loc 2 90 0
 4481 002c 8483     		strh	r4, [r0, #28]	@ movhi
 4482              	.LBE718:
 4483              	.LBE722:
 4484              	.LBB723:
 4485              	.LBB724:
 4486 002e 043B     		subs	r3, r3, #4
 4487              	.LBE724:
 4488              	.LBE723:
 4489              	.LBB726:
 4490              	.LBB719:
 4491 0030 31F912C0 		ldrsh	ip, [r1, r2, lsl #1]
 4492              	.LVL418:
 4493              	.LBE719:
 4494              	.LBE726:
 4495              	.LBB727:
 4496              	.LBB725:
 4497 0034 8383     		strh	r3, [r0, #28]	@ movhi
 4498              	.LBE725:
 4499              	.LBE727:
 4500              		.loc 1 1015 0
 4501 0036 0022     		movs	r2, #0
 4502              		.loc 1 1002 0
 4503 0038 31F81430 		ldrh	r3, [r1, r4, lsl #1]
ARM GAS  /var/folders/d2/nstgp4h54kz7g1l847x_b8wc0000gn/T//cccORz8f.s 			page 80


 4504              	.LVL419:
 4505              		.loc 1 1003 0
 4506 003c C468     		ldr	r4, [r0, #12]
 4507              	.LVL420:
 4508 003e 1146     		mov	r1, r2
 4509              		.loc 1 1015 0
 4510 0040 03E0     		b	.L357
 4511              	.LVL421:
 4512              	.L359:
 4513 0042 0132     		adds	r2, r2, #1
 4514              		.loc 1 1018 0
 4515 0044 91B2     		uxth	r1, r2
 4516 0046 8B42     		cmp	r3, r1
 4517 0048 4ED3     		bcc	.L381
 4518              	.LVL422:
 4519              	.L357:
 4520              		.loc 1 1015 0
 4521 004a 90B2     		uxth	r0, r2
 4522              	.LVL423:
 4523 004c 4619     		adds	r6, r0, r5
 4524 004e 34F91660 		ldrsh	r6, [r4, r6, lsl #1]
 4525 0052 002E     		cmp	r6, #0
 4526 0054 F5D1     		bne	.L359
 4527              		.loc 1 1003 0
 4528 0056 1FFA8CFC 		uxth	ip, ip
 4529 005a 0A46     		mov	r2, r1
 4530 005c 34F91C80 		ldrsh	r8, [r4, ip, lsl #1]
 4531              	.LVL424:
 4532              	.L363:
 4533              		.loc 1 1027 0
 4534 0060 0132     		adds	r2, r2, #1
 4535              	.LVL425:
 4536 0062 92B2     		uxth	r2, r2
 4537              	.LVL426:
 4538              		.loc 1 1028 0
 4539 0064 9342     		cmp	r3, r2
 4540 0066 57D3     		bcc	.L382
 4541              		.loc 1 1025 0
 4542 0068 02EB050C 		add	ip, r2, r5
 4543 006c 34F91CC0 		ldrsh	ip, [r4, ip, lsl #1]
 4544 0070 BCF1000F 		cmp	ip, #0
 4545 0074 F4D0     		beq	.L363
 4546 0076 92FBF3F1 		sdiv	r1, r2, r3
 4547 007a 03FB1121 		mls	r1, r3, r1, r2
 4548 007e 2944     		add	r1, r1, r5
 4549              		.loc 1 1048 0
 4550 0080 4FF0000C 		mov	ip, #0
 4551 0084 34F911A0 		ldrsh	r10, [r4, r1, lsl #1]
 4552              		.loc 1 1046 0
 4553 0088 6046     		mov	r0, ip
 4554              	.L371:
 4555              	.LVL427:
 4556              		.loc 1 1054 0
 4557 008a 8146     		mov	r9, r0
 4558 008c 0EE0     		b	.L364
 4559              	.LVL428:
 4560              	.L366:
ARM GAS  /var/folders/d2/nstgp4h54kz7g1l847x_b8wc0000gn/T//cccORz8f.s 			page 81


 4561 008e 0131     		adds	r1, r1, #1
 4562 0090 89B2     		uxth	r1, r1
 4563 0092 0FFA81F9 		sxth	r9, r1
 4564              	.LVL429:
 4565              		.loc 1 1057 0
 4566 0096 9945     		cmp	r9, r3
 4567 0098 30DA     		bge	.L365
 4568 009a 02EB090A 		add	r10, r2, r9
 4569 009e 9AFBF3F1 		sdiv	r1, r10, r3
 4570 00a2 03FB11A1 		mls	r1, r3, r1, r10
 4571 00a6 2944     		add	r1, r1, r5
 4572 00a8 34F911A0 		ldrsh	r10, [r4, r1, lsl #1]
 4573              	.LVL430:
 4574              	.L364:
 4575 00ac 1FFA89F1 		uxth	r1, r9
 4576              		.loc 1 1054 0
 4577 00b0 BAF1000F 		cmp	r10, #0
 4578 00b4 EBD1     		bne	.L366
 4579              		.loc 1 1061 0
 4580 00b6 091A     		subs	r1, r1, r0
 4581 00b8 09B2     		sxth	r1, r1
 4582              	.LVL431:
 4583              		.loc 1 1062 0
 4584 00ba 8E42     		cmp	r6, r1
 4585 00bc 32DB     		blt	.L373
 4586 00be 4846     		mov	r0, r9
 4587              	.LVL432:
 4588              	.L367:
 4589              		.loc 1 1067 0
 4590 00c0 4B45     		cmp	r3, r9
 4591 00c2 04DC     		bgt	.L369
 4592 00c4 1EE0     		b	.L368
 4593              	.LVL433:
 4594              	.L370:
 4595 00c6 0130     		adds	r0, r0, #1
 4596              	.LVL434:
 4597 00c8 00B2     		sxth	r0, r0
 4598              	.LVL435:
 4599              		.loc 1 1074 0
 4600 00ca 9842     		cmp	r0, r3
 4601 00cc 1ADA     		bge	.L368
 4602              	.LVL436:
 4603              	.L369:
 4604              		.loc 1 1071 0
 4605 00ce 00EB0209 		add	r9, r0, r2
 4606 00d2 99FBF3F1 		sdiv	r1, r9, r3
 4607 00d6 03FB1191 		mls	r1, r3, r1, r9
 4608 00da 2944     		add	r1, r1, r5
 4609 00dc 34F911A0 		ldrsh	r10, [r4, r1, lsl #1]
 4610 00e0 BAF1000F 		cmp	r10, #0
 4611 00e4 EFD0     		beq	.L370
 4612 00e6 D0E7     		b	.L371
 4613              	.LVL437:
 4614              	.L381:
 4615              		.loc 1 1020 0
 4616 00e8 0023     		movs	r3, #0
 4617              	.LVL438:
ARM GAS  /var/folders/d2/nstgp4h54kz7g1l847x_b8wc0000gn/T//cccORz8f.s 			page 82


 4618 00ea 24F81E30 		strh	r3, [r4, lr, lsl #1]	@ movhi
 4619              	.LVL439:
 4620              	.L356:
 4621              		.loc 1 1088 0
 4622 00ee 019A     		ldr	r2, [sp, #4]
 4623 00f0 3B68     		ldr	r3, [r7]
 4624 00f2 9A42     		cmp	r2, r3
 4625 00f4 29D1     		bne	.L383
 4626 00f6 02B0     		add	sp, sp, #8
 4627              		.cfi_remember_state
 4628              		.cfi_def_cfa_offset 32
 4629              		@ sp needed
 4630 00f8 BDE8F087 		pop	{r4, r5, r6, r7, r8, r9, r10, pc}
 4631              	.LVL440:
 4632              	.L365:
 4633              		.cfi_restore_state
 4634              		.loc 1 1061 0
 4635 00fc 091A     		subs	r1, r1, r0
 4636 00fe 09B2     		sxth	r1, r1
 4637              	.LVL441:
 4638              		.loc 1 1062 0
 4639 0100 8E42     		cmp	r6, r1
 4640 0102 0FDB     		blt	.L373
 4641              	.LVL442:
 4642              	.L368:
 4643              		.loc 1 1080 0
 4644 0104 B045     		cmp	r8, r6
 4645 0106 08DC     		bgt	.L380
 4646              		.loc 1 1086 0
 4647 0108 6244     		add	r2, r2, ip
 4648              	.LVL443:
 4649 010a 92FBF3F1 		sdiv	r1, r2, r3
 4650 010e 03FB1123 		mls	r3, r3, r1, r2
 4651              	.LVL444:
 4652 0112 24F81E30 		strh	r3, [r4, lr, lsl #1]	@ movhi
 4653 0116 EAE7     		b	.L356
 4654              	.LVL445:
 4655              	.L382:
 4656              		.loc 1 1030 0
 4657 0118 61B9     		cbnz	r1, .L361
 4658              	.L380:
 4659              		.loc 1 1082 0
 4660 011a 4FF6FF73 		movw	r3, #65535
 4661              	.LVL446:
 4662 011e 24F81E30 		strh	r3, [r4, lr, lsl #1]	@ movhi
 4663 0122 E4E7     		b	.L356
 4664              	.LVL447:
 4665              	.L373:
 4666              		.loc 1 1065 0
 4667 0124 4844     		add	r0, r0, r9
 4668              	.LVL448:
 4669 0126 00EBD070 		add	r0, r0, r0, lsr #31
 4670 012a 40F34F0C 		sbfx	ip, r0, #1, #16
 4671              	.LVL449:
 4672 012e 0E46     		mov	r6, r1
 4673 0130 4846     		mov	r0, r9
 4674 0132 C5E7     		b	.L367
ARM GAS  /var/folders/d2/nstgp4h54kz7g1l847x_b8wc0000gn/T//cccORz8f.s 			page 83


 4675              	.LVL450:
 4676              	.L361:
 4677              	.LBB728:
 4678              		.loc 1 1036 0
 4679 0134 0139     		subs	r1, r1, #1
 4680              		.loc 1 1037 0
 4681 0136 89B2     		uxth	r1, r1
 4682 0138 4145     		cmp	r1, r8
 4683 013a EEDB     		blt	.L380
 4684              		.loc 1 1040 0
 4685 013c 0138     		subs	r0, r0, #1
 4686              	.LVL451:
 4687 013e 00EBD070 		add	r0, r0, r0, lsr #31
 4688              	.LVL452:
 4689 0142 4310     		asrs	r3, r0, #1
 4690              	.LVL453:
 4691 0144 24F81E30 		strh	r3, [r4, lr, lsl #1]	@ movhi
 4692 0148 D1E7     		b	.L356
 4693              	.LVL454:
 4694              	.L383:
 4695              	.LBE728:
 4696              		.loc 1 1088 0
 4697 014a FFF7FEFF 		bl	__stack_chk_fail
 4698              	.LVL455:
 4699              	.L385:
 4700 014e 00BF     		.align	2
 4701              	.L384:
 4702 0150 00000000 		.word	__stack_chk_guard
 4703              		.cfi_endproc
 4704              	.LFE26:
 4705              		.size	AsebaNative_vecnonzerosequence, .-AsebaNative_vecnonzerosequence
 4706              		.section	.text.AsebaSetRandomSeed,"ax",%progbits
 4707              		.align	1
 4708              		.p2align 4,,15
 4709              		.global	AsebaSetRandomSeed
 4710              		.syntax unified
 4711              		.thumb
 4712              		.thumb_func
 4713              		.fpu fpv4-sp-d16
 4714              		.type	AsebaSetRandomSeed, %function
 4715              	AsebaSetRandomSeed:
 4716              	.LFB27:
 4717              		.loc 1 1106 0
 4718              		.cfi_startproc
 4719              		@ args = 0, pretend = 0, frame = 8
 4720              		@ frame_needed = 0, uses_anonymous_args = 0
 4721              	.LVL456:
 4722 0000 00B5     		push	{lr}
 4723              		.cfi_def_cfa_offset 4
 4724              		.cfi_offset 14, -4
 4725 0002 074B     		ldr	r3, .L390
 4726              		.loc 1 1107 0
 4727 0004 0749     		ldr	r1, .L390+4
 4728              		.loc 1 1106 0
 4729 0006 1A68     		ldr	r2, [r3]
 4730              		.loc 1 1107 0
 4731 0008 0880     		strh	r0, [r1]	@ movhi
ARM GAS  /var/folders/d2/nstgp4h54kz7g1l847x_b8wc0000gn/T//cccORz8f.s 			page 84


 4732              		.loc 1 1106 0
 4733 000a 83B0     		sub	sp, sp, #12
 4734              		.cfi_def_cfa_offset 16
 4735              		.loc 1 1106 0
 4736 000c 0192     		str	r2, [sp, #4]
 4737              		.loc 1 1108 0
 4738 000e 019A     		ldr	r2, [sp, #4]
 4739 0010 1B68     		ldr	r3, [r3]
 4740 0012 9A42     		cmp	r2, r3
 4741 0014 02D1     		bne	.L389
 4742 0016 03B0     		add	sp, sp, #12
 4743              		.cfi_remember_state
 4744              		.cfi_def_cfa_offset 4
 4745              		@ sp needed
 4746 0018 5DF804FB 		ldr	pc, [sp], #4
 4747              	.L389:
 4748              		.cfi_restore_state
 4749 001c FFF7FEFF 		bl	__stack_chk_fail
 4750              	.LVL457:
 4751              	.L391:
 4752              		.align	2
 4753              	.L390:
 4754 0020 00000000 		.word	__stack_chk_guard
 4755 0024 00000000 		.word	.LANCHOR2
 4756              		.cfi_endproc
 4757              	.LFE27:
 4758              		.size	AsebaSetRandomSeed, .-AsebaSetRandomSeed
 4759              		.section	.text.AsebaGetRandom,"ax",%progbits
 4760              		.align	1
 4761              		.p2align 4,,15
 4762              		.global	AsebaGetRandom
 4763              		.syntax unified
 4764              		.thumb
 4765              		.thumb_func
 4766              		.fpu fpv4-sp-d16
 4767              		.type	AsebaGetRandom, %function
 4768              	AsebaGetRandom:
 4769              	.LFB28:
 4770              		.loc 1 1111 0
 4771              		.cfi_startproc
 4772              		@ args = 0, pretend = 0, frame = 8
 4773              		@ frame_needed = 0, uses_anonymous_args = 0
 4774 0000 10B5     		push	{r4, lr}
 4775              		.cfi_def_cfa_offset 8
 4776              		.cfi_offset 4, -8
 4777              		.cfi_offset 14, -4
 4778              		.loc 1 1112 0
 4779 0002 0E4A     		ldr	r2, .L396
 4780              		.loc 1 1111 0
 4781 0004 0E49     		ldr	r1, .L396+4
 4782              		.loc 1 1112 0
 4783 0006 1088     		ldrh	r0, [r2]
 4784              		.loc 1 1111 0
 4785 0008 0B68     		ldr	r3, [r1]
 4786 000a 82B0     		sub	sp, sp, #8
 4787              		.cfi_def_cfa_offset 16
 4788              		.loc 1 1111 0
ARM GAS  /var/folders/d2/nstgp4h54kz7g1l847x_b8wc0000gn/T//cccORz8f.s 			page 85


 4789 000c 0193     		str	r3, [sp, #4]
 4790              		.loc 1 1112 0
 4791 000e C0EBC003 		rsb	r3, r0, r0, lsl #3
 4792 0012 00EB8303 		add	r3, r0, r3, lsl #2
 4793 0016 C3EBC303 		rsb	r3, r3, r3, lsl #3
 4794 001a C3EB4313 		rsb	r3, r3, r3, lsl #5
 4795 001e 00EB8300 		add	r0, r0, r3, lsl #2
 4796              		.loc 1 1114 0
 4797 0022 019C     		ldr	r4, [sp, #4]
 4798 0024 0B68     		ldr	r3, [r1]
 4799              		.loc 1 1112 0
 4800 0026 00F55850 		add	r0, r0, #13824
 4801 002a 1930     		adds	r0, r0, #25
 4802 002c 80B2     		uxth	r0, r0
 4803              		.loc 1 1114 0
 4804 002e 9C42     		cmp	r4, r3
 4805              		.loc 1 1112 0
 4806 0030 1080     		strh	r0, [r2]	@ movhi
 4807              		.loc 1 1114 0
 4808 0032 01D1     		bne	.L395
 4809 0034 02B0     		add	sp, sp, #8
 4810              		.cfi_remember_state
 4811              		.cfi_def_cfa_offset 8
 4812              		@ sp needed
 4813 0036 10BD     		pop	{r4, pc}
 4814              	.L395:
 4815              		.cfi_restore_state
 4816 0038 FFF7FEFF 		bl	__stack_chk_fail
 4817              	.LVL458:
 4818              	.L397:
 4819              		.align	2
 4820              	.L396:
 4821 003c 00000000 		.word	.LANCHOR2
 4822 0040 00000000 		.word	__stack_chk_guard
 4823              		.cfi_endproc
 4824              	.LFE28:
 4825              		.size	AsebaGetRandom, .-AsebaGetRandom
 4826              		.section	.text.AsebaNative_rand,"ax",%progbits
 4827              		.align	1
 4828              		.p2align 4,,15
 4829              		.global	AsebaNative_rand
 4830              		.syntax unified
 4831              		.thumb
 4832              		.thumb_func
 4833              		.fpu fpv4-sp-d16
 4834              		.type	AsebaNative_rand, %function
 4835              	AsebaNative_rand:
 4836              	.LFB29:
 4837              		.loc 1 1117 0
 4838              		.cfi_startproc
 4839              		@ args = 0, pretend = 0, frame = 8
 4840              		@ frame_needed = 0, uses_anonymous_args = 0
 4841              	.LVL459:
 4842              	.LBB729:
 4843              	.LBB730:
 4844              		.loc 2 90 0
 4845 0000 B0F91C10 		ldrsh	r1, [r0, #28]
ARM GAS  /var/folders/d2/nstgp4h54kz7g1l847x_b8wc0000gn/T//cccORz8f.s 			page 86


 4846              	.LBE730:
 4847              	.LBE729:
 4848              		.loc 1 1117 0
 4849 0004 F0B5     		push	{r4, r5, r6, r7, lr}
 4850              		.cfi_def_cfa_offset 20
 4851              		.cfi_offset 4, -20
 4852              		.cfi_offset 5, -16
 4853              		.cfi_offset 6, -12
 4854              		.cfi_offset 7, -8
 4855              		.cfi_offset 14, -4
 4856              	.LBB732:
 4857              	.LBB731:
 4858              		.loc 2 90 0
 4859 0006 8AB2     		uxth	r2, r1
 4860 0008 531E     		subs	r3, r2, #1
 4861 000a 1BB2     		sxth	r3, r3
 4862 000c 4469     		ldr	r4, [r0, #20]
 4863              	.LVL460:
 4864 000e 8383     		strh	r3, [r0, #28]	@ movhi
 4865              	.LBE731:
 4866              	.LBE732:
 4867              	.LBB733:
 4868              	.LBB734:
 4869 0010 023A     		subs	r2, r2, #2
 4870              	.LBE734:
 4871              	.LBE733:
 4872              		.loc 1 1119 0
 4873 0012 34F81110 		ldrh	r1, [r4, r1, lsl #1]
 4874              	.LVL461:
 4875              		.loc 1 1117 0
 4876 0016 164E     		ldr	r6, .L408
 4877              	.LBB736:
 4878              	.LBB735:
 4879              		.loc 2 90 0
 4880 0018 8283     		strh	r2, [r0, #28]	@ movhi
 4881              	.LBE735:
 4882              	.LBE736:
 4883              		.loc 1 1117 0
 4884 001a 83B0     		sub	sp, sp, #12
 4885              		.cfi_def_cfa_offset 32
 4886              		.loc 1 1122 0
 4887 001c 34F81340 		ldrh	r4, [r4, r3, lsl #1]
 4888              	.LVL462:
 4889              		.loc 1 1117 0
 4890 0020 3368     		ldr	r3, [r6]
 4891 0022 0193     		str	r3, [sp, #4]
 4892              		.loc 1 1125 0
 4893 0024 DCB1     		cbz	r4, .L398
 4894 0026 134F     		ldr	r7, .L408+4
 4895 0028 0C44     		add	r4, r4, r1
 4896              	.LVL463:
 4897 002a 3B88     		ldrh	r3, [r7]
 4898 002c A4B2     		uxth	r4, r4
 4899              	.LBB737:
 4900              	.LBB738:
 4901              		.loc 1 1112 0
 4902 002e 43F21965 		movw	r5, #13849
ARM GAS  /var/folders/d2/nstgp4h54kz7g1l847x_b8wc0000gn/T//cccORz8f.s 			page 87


 4903              	.LVL464:
 4904              	.L400:
 4905 0032 C3EBC302 		rsb	r2, r3, r3, lsl #3
 4906 0036 03EB8202 		add	r2, r3, r2, lsl #2
 4907 003a C2EBC202 		rsb	r2, r2, r2, lsl #3
 4908 003e C2EB4212 		rsb	r2, r2, r2, lsl #5
 4909 0042 03EB8203 		add	r3, r3, r2, lsl #2
 4910 0046 2B44     		add	r3, r3, r5
 4911              	.LBE738:
 4912              	.LBE737:
 4913              		.loc 1 1127 0
 4914 0048 C268     		ldr	r2, [r0, #12]
 4915              	.LBB740:
 4916              	.LBB739:
 4917              		.loc 1 1112 0
 4918 004a 9BB2     		uxth	r3, r3
 4919              	.LBE739:
 4920              	.LBE740:
 4921              		.loc 1 1127 0
 4922 004c 01F1010C 		add	ip, r1, #1
 4923              	.LVL465:
 4924 0050 22F81130 		strh	r3, [r2, r1, lsl #1]	@ movhi
 4925 0054 1FFA8CF1 		uxth	r1, ip
 4926              		.loc 1 1125 0
 4927 0058 A142     		cmp	r1, r4
 4928 005a EAD1     		bne	.L400
 4929 005c 3B80     		strh	r3, [r7]	@ movhi
 4930              	.LVL466:
 4931              	.L398:
 4932              		.loc 1 1129 0
 4933 005e 019A     		ldr	r2, [sp, #4]
 4934 0060 3368     		ldr	r3, [r6]
 4935 0062 9A42     		cmp	r2, r3
 4936 0064 01D1     		bne	.L407
 4937 0066 03B0     		add	sp, sp, #12
 4938              		.cfi_remember_state
 4939              		.cfi_def_cfa_offset 20
 4940              		@ sp needed
 4941 0068 F0BD     		pop	{r4, r5, r6, r7, pc}
 4942              	.L407:
 4943              		.cfi_restore_state
 4944 006a FFF7FEFF 		bl	__stack_chk_fail
 4945              	.LVL467:
 4946              	.L409:
 4947 006e 00BF     		.align	2
 4948              	.L408:
 4949 0070 00000000 		.word	__stack_chk_guard
 4950 0074 00000000 		.word	.LANCHOR2
 4951              		.cfi_endproc
 4952              	.LFE29:
 4953              		.size	AsebaNative_rand, .-AsebaNative_rand
 4954              		.global	AsebaNativeDescription_rand
 4955              		.global	AsebaNativeDescription_vecnonzerosequence
 4956              		.global	AsebaNativeDescription_mathsqrt
 4957              		.global	AsebaNativeDescription_mathrot2
 4958              		.global	AsebaNativeDescription_mathcos
 4959              		.global	AsebaNativeDescription_mathsin
ARM GAS  /var/folders/d2/nstgp4h54kz7g1l847x_b8wc0000gn/T//cccORz8f.s 			page 88


 4960              		.global	AsebaNativeDescription_mathatan2
 4961              		.global	AsebaNativeDescription_mathmuldiv
 4962              		.global	AsebaNativeDescription_vecsort
 4963              		.global	AsebaNativeDescription_vecargbounds
 4964              		.global	AsebaNativeDescription_vecstat
 4965              		.global	AsebaNativeDescription_vecdot
 4966              		.global	AsebaNativeDescription_vecclamp
 4967              		.global	AsebaNativeDescription_vecmax
 4968              		.global	AsebaNativeDescription_vecmin
 4969              		.global	AsebaNativeDescription_vecdiv
 4970              		.global	AsebaNativeDescription_vecmul
 4971              		.global	AsebaNativeDescription_vecsub
 4972              		.global	AsebaNativeDescription_vecadd
 4973              		.global	AsebaNativeDescription_vecaddscalar
 4974              		.global	AsebaNativeDescription_vecfill
 4975              		.global	AsebaNativeDescription_veccopy
 4976              		.section	.bss.rnd_state,"aw",%nobits
 4977              		.align	1
 4978              		.set	.LANCHOR2,. + 0
 4979              		.type	rnd_state, %object
 4980              		.size	rnd_state, 2
 4981              	rnd_state:
 4982 0000 0000     		.space	2
 4983              		.section	.rodata.AsebaNativeDescription_mathatan2,"a",%progbits
 4984              		.align	2
 4985              		.type	AsebaNativeDescription_mathatan2, %object
 4986              		.size	AsebaNativeDescription_mathatan2, 40
 4987              	AsebaNativeDescription_mathatan2:
 4988 0000 B4010000 		.word	.LC18
 4989 0004 C0010000 		.word	.LC19
 4990 0008 FFFF     		.short	-1
 4991 000a 0000     		.space	2
 4992 000c 2C000000 		.word	.LC2
 4993 0010 FFFF     		.short	-1
 4994 0012 0000     		.space	2
 4995 0014 F0010000 		.word	.LC20
 4996 0018 FFFF     		.short	-1
 4997 001a 0000     		.space	2
 4998 001c 0C010000 		.word	.LC9
 4999 0020 0000     		.short	0
 5000 0022 0000     		.space	2
 5001 0024 00000000 		.word	0
 5002              		.section	.rodata.AsebaNativeDescription_mathcos,"a",%progbits
 5003              		.align	2
 5004              		.type	AsebaNativeDescription_mathcos, %object
 5005              		.size	AsebaNativeDescription_mathcos, 32
 5006              	AsebaNativeDescription_mathcos:
 5007 0000 44010000 		.word	.LC14
 5008 0004 50010000 		.word	.LC15
 5009 0008 FFFF     		.short	-1
 5010 000a 0000     		.space	2
 5011 000c 2C000000 		.word	.LC2
 5012 0010 FFFF     		.short	-1
 5013 0012 0000     		.space	2
 5014 0014 0C010000 		.word	.LC9
 5015 0018 0000     		.short	0
 5016 001a 0000     		.space	2
ARM GAS  /var/folders/d2/nstgp4h54kz7g1l847x_b8wc0000gn/T//cccORz8f.s 			page 89


 5017 001c 00000000 		.word	0
 5018              		.section	.rodata.AsebaNativeDescription_mathmuldiv,"a",%progbits
 5019              		.align	2
 5020              		.type	AsebaNativeDescription_mathmuldiv, %object
 5021              		.size	AsebaNativeDescription_mathmuldiv, 48
 5022              	AsebaNativeDescription_mathmuldiv:
 5023 0000 F4010000 		.word	.LC21
 5024 0004 00020000 		.word	.LC22
 5025 0008 FFFF     		.short	-1
 5026 000a 0000     		.space	2
 5027 000c 2C000000 		.word	.LC2
 5028 0010 FFFF     		.short	-1
 5029 0012 0000     		.space	2
 5030 0014 40010000 		.word	.LC13
 5031 0018 FFFF     		.short	-1
 5032 001a 0000     		.space	2
 5033 001c 38020000 		.word	.LC23
 5034 0020 FFFF     		.short	-1
 5035 0022 0000     		.space	2
 5036 0024 3C020000 		.word	.LC24
 5037 0028 0000     		.short	0
 5038 002a 0000     		.space	2
 5039 002c 00000000 		.word	0
 5040              		.section	.rodata.AsebaNativeDescription_mathrot2,"a",%progbits
 5041              		.align	2
 5042              		.type	AsebaNativeDescription_mathrot2, %object
 5043              		.size	AsebaNativeDescription_mathrot2, 40
 5044              	AsebaNativeDescription_mathrot2:
 5045 0000 10010000 		.word	.LC10
 5046 0004 1C010000 		.word	.LC11
 5047 0008 0200     		.short	2
 5048 000a 0000     		.space	2
 5049 000c 2C000000 		.word	.LC2
 5050 0010 0200     		.short	2
 5051 0012 0000     		.space	2
 5052 0014 3C010000 		.word	.LC12
 5053 0018 0100     		.short	1
 5054 001a 0000     		.space	2
 5055 001c 40010000 		.word	.LC13
 5056 0020 0000     		.short	0
 5057 0022 0000     		.space	2
 5058 0024 00000000 		.word	0
 5059              		.section	.rodata.AsebaNativeDescription_mathsin,"a",%progbits
 5060              		.align	2
 5061              		.type	AsebaNativeDescription_mathsin, %object
 5062              		.size	AsebaNativeDescription_mathsin, 32
 5063              	AsebaNativeDescription_mathsin:
 5064 0000 7C010000 		.word	.LC16
 5065 0004 88010000 		.word	.LC17
 5066 0008 FFFF     		.short	-1
 5067 000a 0000     		.space	2
 5068 000c 2C000000 		.word	.LC2
 5069 0010 FFFF     		.short	-1
 5070 0012 0000     		.space	2
 5071 0014 0C010000 		.word	.LC9
 5072 0018 0000     		.short	0
 5073 001a 0000     		.space	2
ARM GAS  /var/folders/d2/nstgp4h54kz7g1l847x_b8wc0000gn/T//cccORz8f.s 			page 90


 5074 001c 00000000 		.word	0
 5075              		.section	.rodata.AsebaNativeDescription_mathsqrt,"a",%progbits
 5076              		.align	2
 5077              		.type	AsebaNativeDescription_mathsqrt, %object
 5078              		.size	AsebaNativeDescription_mathsqrt, 32
 5079              	AsebaNativeDescription_mathsqrt:
 5080 0000 D4000000 		.word	.LC7
 5081 0004 E0000000 		.word	.LC8
 5082 0008 FFFF     		.short	-1
 5083 000a 0000     		.space	2
 5084 000c 2C000000 		.word	.LC2
 5085 0010 FFFF     		.short	-1
 5086 0012 0000     		.space	2
 5087 0014 0C010000 		.word	.LC9
 5088 0018 0000     		.short	0
 5089 001a 0000     		.space	2
 5090 001c 00000000 		.word	0
 5091              		.section	.rodata.AsebaNativeDescription_rand,"a",%progbits
 5092              		.align	2
 5093              		.type	AsebaNativeDescription_rand, %object
 5094              		.size	AsebaNativeDescription_rand, 24
 5095              	AsebaNativeDescription_rand:
 5096 0000 00000000 		.word	.LC0
 5097 0004 0C000000 		.word	.LC1
 5098 0008 FFFF     		.short	-1
 5099 000a 0000     		.space	2
 5100 000c 2C000000 		.word	.LC2
 5101 0010 0000     		.short	0
 5102 0012 0000     		.space	2
 5103 0014 00000000 		.word	0
 5104              		.section	.rodata.AsebaNativeDescription_vecadd,"a",%progbits
 5105              		.align	2
 5106              		.type	AsebaNativeDescription_vecadd, %object
 5107              		.size	AsebaNativeDescription_vecadd, 40
 5108              	AsebaNativeDescription_vecadd:
 5109 0000 14050000 		.word	.LC56
 5110 0004 20050000 		.word	.LC57
 5111 0008 FFFF     		.short	-1
 5112 000a 0000     		.space	2
 5113 000c 2C000000 		.word	.LC2
 5114 0010 FFFF     		.short	-1
 5115 0012 0000     		.space	2
 5116 0014 48030000 		.word	.LC39
 5117 0018 FFFF     		.short	-1
 5118 001a 0000     		.space	2
 5119 001c 50030000 		.word	.LC40
 5120 0020 0000     		.short	0
 5121 0022 0000     		.space	2
 5122 0024 00000000 		.word	0
 5123              		.section	.rodata.AsebaNativeDescription_vecaddscalar,"a",%progbits
 5124              		.align	2
 5125              		.type	AsebaNativeDescription_vecaddscalar, %object
 5126              		.size	AsebaNativeDescription_vecaddscalar, 40
 5127              	AsebaNativeDescription_vecaddscalar:
 5128 0000 50050000 		.word	.LC58
 5129 0004 60050000 		.word	.LC59
 5130 0008 FFFF     		.short	-1
ARM GAS  /var/folders/d2/nstgp4h54kz7g1l847x_b8wc0000gn/T//cccORz8f.s 			page 91


 5131 000a 0000     		.space	2
 5132 000c 2C000000 		.word	.LC2
 5133 0010 FFFF     		.short	-1
 5134 0012 0000     		.space	2
 5135 0014 C4000000 		.word	.LC5
 5136 0018 0100     		.short	1
 5137 001a 0000     		.space	2
 5138 001c 9C050000 		.word	.LC60
 5139 0020 0000     		.short	0
 5140 0022 0000     		.space	2
 5141 0024 00000000 		.word	0
 5142              		.section	.rodata.AsebaNativeDescription_vecargbounds,"a",%progbits
 5143              		.align	2
 5144              		.type	AsebaNativeDescription_vecargbounds, %object
 5145              		.size	AsebaNativeDescription_vecargbounds, 40
 5146              	AsebaNativeDescription_vecargbounds:
 5147 0000 68020000 		.word	.LC28
 5148 0004 78020000 		.word	.LC29
 5149 0008 FFFF     		.short	-1
 5150 000a 0000     		.space	2
 5151 000c C4000000 		.word	.LC5
 5152 0010 0100     		.short	1
 5153 0012 0000     		.space	2
 5154 0014 B4020000 		.word	.LC30
 5155 0018 0100     		.short	1
 5156 001a 0000     		.space	2
 5157 001c BC020000 		.word	.LC31
 5158 0020 0000     		.short	0
 5159 0022 0000     		.space	2
 5160 0024 00000000 		.word	0
 5161              		.section	.rodata.AsebaNativeDescription_vecclamp,"a",%progbits
 5162              		.align	2
 5163              		.type	AsebaNativeDescription_vecclamp, %object
 5164              		.size	AsebaNativeDescription_vecclamp, 48
 5165              	AsebaNativeDescription_vecclamp:
 5166 0000 60030000 		.word	.LC42
 5167 0004 6C030000 		.word	.LC43
 5168 0008 FFFF     		.short	-1
 5169 000a 0000     		.space	2
 5170 000c 2C000000 		.word	.LC2
 5171 0010 FFFF     		.short	-1
 5172 0012 0000     		.space	2
 5173 0014 C4000000 		.word	.LC5
 5174 0018 FFFF     		.short	-1
 5175 001a 0000     		.space	2
 5176 001c A8030000 		.word	.LC44
 5177 0020 FFFF     		.short	-1
 5178 0022 0000     		.space	2
 5179 0024 AC030000 		.word	.LC45
 5180 0028 0000     		.short	0
 5181 002a 0000     		.space	2
 5182 002c 00000000 		.word	0
 5183              		.section	.rodata.AsebaNativeDescription_veccopy,"a",%progbits
 5184              		.align	2
 5185              		.type	AsebaNativeDescription_veccopy, %object
 5186              		.size	AsebaNativeDescription_veccopy, 32
 5187              	AsebaNativeDescription_veccopy:
ARM GAS  /var/folders/d2/nstgp4h54kz7g1l847x_b8wc0000gn/T//cccORz8f.s 			page 92


 5188 0000 D8050000 		.word	.LC64
 5189 0004 E4050000 		.word	.LC65
 5190 0008 FFFF     		.short	-1
 5191 000a 0000     		.space	2
 5192 000c 2C000000 		.word	.LC2
 5193 0010 FFFF     		.short	-1
 5194 0012 0000     		.space	2
 5195 0014 C4000000 		.word	.LC5
 5196 0018 0000     		.short	0
 5197 001a 0000     		.space	2
 5198 001c 00000000 		.word	0
 5199              		.section	.rodata.AsebaNativeDescription_vecdiv,"a",%progbits
 5200              		.align	2
 5201              		.type	AsebaNativeDescription_vecdiv, %object
 5202              		.size	AsebaNativeDescription_vecdiv, 40
 5203              	AsebaNativeDescription_vecdiv:
 5204 0000 4C040000 		.word	.LC50
 5205 0004 58040000 		.word	.LC51
 5206 0008 FFFF     		.short	-1
 5207 000a 0000     		.space	2
 5208 000c 2C000000 		.word	.LC2
 5209 0010 FFFF     		.short	-1
 5210 0012 0000     		.space	2
 5211 0014 48030000 		.word	.LC39
 5212 0018 FFFF     		.short	-1
 5213 001a 0000     		.space	2
 5214 001c 50030000 		.word	.LC40
 5215 0020 0000     		.short	0
 5216 0022 0000     		.space	2
 5217 0024 00000000 		.word	0
 5218              		.section	.rodata.AsebaNativeDescription_vecdot,"a",%progbits
 5219              		.align	2
 5220              		.type	AsebaNativeDescription_vecdot, %object
 5221              		.size	AsebaNativeDescription_vecdot, 48
 5222              	AsebaNativeDescription_vecdot:
 5223 0000 FC020000 		.word	.LC37
 5224 0004 08030000 		.word	.LC38
 5225 0008 0100     		.short	1
 5226 000a 0000     		.space	2
 5227 000c 2C000000 		.word	.LC2
 5228 0010 FFFF     		.short	-1
 5229 0012 0000     		.space	2
 5230 0014 48030000 		.word	.LC39
 5231 0018 FFFF     		.short	-1
 5232 001a 0000     		.space	2
 5233 001c 50030000 		.word	.LC40
 5234 0020 0100     		.short	1
 5235 0022 0000     		.space	2
 5236 0024 58030000 		.word	.LC41
 5237 0028 0000     		.short	0
 5238 002a 0000     		.space	2
 5239 002c 00000000 		.word	0
 5240              		.section	.rodata.AsebaNativeDescription_vecfill,"a",%progbits
 5241              		.align	2
 5242              		.type	AsebaNativeDescription_vecfill, %object
 5243              		.size	AsebaNativeDescription_vecfill, 32
 5244              	AsebaNativeDescription_vecfill:
ARM GAS  /var/folders/d2/nstgp4h54kz7g1l847x_b8wc0000gn/T//cccORz8f.s 			page 93


 5245 0000 A4050000 		.word	.LC61
 5246 0004 B0050000 		.word	.LC62
 5247 0008 FFFF     		.short	-1
 5248 000a 0000     		.space	2
 5249 000c 2C000000 		.word	.LC2
 5250 0010 0100     		.short	1
 5251 0012 0000     		.space	2
 5252 0014 D0050000 		.word	.LC63
 5253 0018 0000     		.short	0
 5254 001a 0000     		.space	2
 5255 001c 00000000 		.word	0
 5256              		.section	.rodata.AsebaNativeDescription_vecmax,"a",%progbits
 5257              		.align	2
 5258              		.type	AsebaNativeDescription_vecmax, %object
 5259              		.size	AsebaNativeDescription_vecmax, 40
 5260              	AsebaNativeDescription_vecmax:
 5261 0000 B4030000 		.word	.LC46
 5262 0004 C0030000 		.word	.LC47
 5263 0008 FFFF     		.short	-1
 5264 000a 0000     		.space	2
 5265 000c 2C000000 		.word	.LC2
 5266 0010 FFFF     		.short	-1
 5267 0012 0000     		.space	2
 5268 0014 48030000 		.word	.LC39
 5269 0018 FFFF     		.short	-1
 5270 001a 0000     		.space	2
 5271 001c 50030000 		.word	.LC40
 5272 0020 0000     		.short	0
 5273 0022 0000     		.space	2
 5274 0024 00000000 		.word	0
 5275              		.section	.rodata.AsebaNativeDescription_vecmin,"a",%progbits
 5276              		.align	2
 5277              		.type	AsebaNativeDescription_vecmin, %object
 5278              		.size	AsebaNativeDescription_vecmin, 40
 5279              	AsebaNativeDescription_vecmin:
 5280 0000 00040000 		.word	.LC48
 5281 0004 0C040000 		.word	.LC49
 5282 0008 FFFF     		.short	-1
 5283 000a 0000     		.space	2
 5284 000c 2C000000 		.word	.LC2
 5285 0010 FFFF     		.short	-1
 5286 0012 0000     		.space	2
 5287 0014 48030000 		.word	.LC39
 5288 0018 FFFF     		.short	-1
 5289 001a 0000     		.space	2
 5290 001c 50030000 		.word	.LC40
 5291 0020 0000     		.short	0
 5292 0022 0000     		.space	2
 5293 0024 00000000 		.word	0
 5294              		.section	.rodata.AsebaNativeDescription_vecmul,"a",%progbits
 5295              		.align	2
 5296              		.type	AsebaNativeDescription_vecmul, %object
 5297              		.size	AsebaNativeDescription_vecmul, 40
 5298              	AsebaNativeDescription_vecmul:
 5299 0000 8C040000 		.word	.LC52
 5300 0004 98040000 		.word	.LC53
 5301 0008 FFFF     		.short	-1
ARM GAS  /var/folders/d2/nstgp4h54kz7g1l847x_b8wc0000gn/T//cccORz8f.s 			page 94


 5302 000a 0000     		.space	2
 5303 000c 2C000000 		.word	.LC2
 5304 0010 FFFF     		.short	-1
 5305 0012 0000     		.space	2
 5306 0014 48030000 		.word	.LC39
 5307 0018 FFFF     		.short	-1
 5308 001a 0000     		.space	2
 5309 001c 50030000 		.word	.LC40
 5310 0020 0000     		.short	0
 5311 0022 0000     		.space	2
 5312 0024 00000000 		.word	0
 5313              		.section	.rodata.AsebaNativeDescription_vecnonzerosequence,"a",%progbits
 5314              		.align	2
 5315              		.type	AsebaNativeDescription_vecnonzerosequence, %object
 5316              		.size	AsebaNativeDescription_vecnonzerosequence, 40
 5317              	AsebaNativeDescription_vecnonzerosequence:
 5318 0000 34000000 		.word	.LC3
 5319 0004 40000000 		.word	.LC4
 5320 0008 0100     		.short	1
 5321 000a 0000     		.space	2
 5322 000c 2C000000 		.word	.LC2
 5323 0010 FFFF     		.short	-1
 5324 0012 0000     		.space	2
 5325 0014 C4000000 		.word	.LC5
 5326 0018 0100     		.short	1
 5327 001a 0000     		.space	2
 5328 001c C8000000 		.word	.LC6
 5329 0020 0000     		.short	0
 5330 0022 0000     		.space	2
 5331 0024 00000000 		.word	0
 5332              		.section	.rodata.AsebaNativeDescription_vecsort,"a",%progbits
 5333              		.align	2
 5334              		.type	AsebaNativeDescription_vecsort, %object
 5335              		.size	AsebaNativeDescription_vecsort, 24
 5336              	AsebaNativeDescription_vecsort:
 5337 0000 40020000 		.word	.LC25
 5338 0004 4C020000 		.word	.LC26
 5339 0008 FFFF     		.short	-1
 5340 000a 0000     		.space	2
 5341 000c 60020000 		.word	.LC27
 5342 0010 0000     		.short	0
 5343 0012 0000     		.space	2
 5344 0014 00000000 		.word	0
 5345              		.section	.rodata.AsebaNativeDescription_vecstat,"a",%progbits
 5346              		.align	2
 5347              		.type	AsebaNativeDescription_vecstat, %object
 5348              		.size	AsebaNativeDescription_vecstat, 48
 5349              	AsebaNativeDescription_vecstat:
 5350 0000 C4020000 		.word	.LC32
 5351 0004 D0020000 		.word	.LC33
 5352 0008 FFFF     		.short	-1
 5353 000a 0000     		.space	2
 5354 000c C4000000 		.word	.LC5
 5355 0010 0100     		.short	1
 5356 0012 0000     		.space	2
 5357 0014 EC020000 		.word	.LC34
 5358 0018 0100     		.short	1
ARM GAS  /var/folders/d2/nstgp4h54kz7g1l847x_b8wc0000gn/T//cccORz8f.s 			page 95


 5359 001a 0000     		.space	2
 5360 001c F0020000 		.word	.LC35
 5361 0020 0100     		.short	1
 5362 0022 0000     		.space	2
 5363 0024 F4020000 		.word	.LC36
 5364 0028 0000     		.short	0
 5365 002a 0000     		.space	2
 5366 002c 00000000 		.word	0
 5367              		.section	.rodata.AsebaNativeDescription_vecsub,"a",%progbits
 5368              		.align	2
 5369              		.type	AsebaNativeDescription_vecsub, %object
 5370              		.size	AsebaNativeDescription_vecsub, 40
 5371              	AsebaNativeDescription_vecsub:
 5372 0000 D0040000 		.word	.LC54
 5373 0004 DC040000 		.word	.LC55
 5374 0008 FFFF     		.short	-1
 5375 000a 0000     		.space	2
 5376 000c 2C000000 		.word	.LC2
 5377 0010 FFFF     		.short	-1
 5378 0012 0000     		.space	2
 5379 0014 48030000 		.word	.LC39
 5380 0018 FFFF     		.short	-1
 5381 001a 0000     		.space	2
 5382 001c 50030000 		.word	.LC40
 5383 0020 0000     		.short	0
 5384 0022 0000     		.space	2
 5385 0024 00000000 		.word	0
 5386              		.section	.rodata.aseba_atan_table,"a",%progbits
 5387              		.align	2
 5388              		.set	.LANCHOR0,. + 0
 5389              		.type	aseba_atan_table, %object
 5390              		.size	aseba_atan_table, 322
 5391              	aseba_atan_table:
 5392 0000 8C02     		.short	652
 5393 0002 DF02     		.short	735
 5394 0004 3003     		.short	816
 5395 0006 8003     		.short	896
 5396 0008 D103     		.short	977
 5397 000a 2204     		.short	1058
 5398 000c 7304     		.short	1139
 5399 000e C204     		.short	1218
 5400 0010 1405     		.short	1300
 5401 0012 B305     		.short	1459
 5402 0014 5406     		.short	1620
 5403 0016 F106     		.short	1777
 5404 0018 8F07     		.short	1935
 5405 001a 2D08     		.short	2093
 5406 001c CA08     		.short	2250
 5407 001e 6309     		.short	2403
 5408 0020 FC09     		.short	2556
 5409 0022 340B     		.short	2868
 5410 0024 5C0C     		.short	3164
 5411 0026 820D     		.short	3458
 5412 0028 A40E     		.short	3748
 5413 002a BD0F     		.short	4029
 5414 002c D310     		.short	4307
 5415 002e E211     		.short	4578
ARM GAS  /var/folders/d2/nstgp4h54kz7g1l847x_b8wc0000gn/T//cccORz8f.s 			page 96


 5416 0030 E712     		.short	4839
 5417 0032 EF14     		.short	5359
 5418 0034 CC16     		.short	5836
 5419 0036 9218     		.short	6290
 5420 0038 401A     		.short	6720
 5421 003a D61B     		.short	7126
 5422 003c 531D     		.short	7507
 5423 003e B51E     		.short	7861
 5424 0040 0B20     		.short	8203
 5425 0042 7922     		.short	8825
 5426 0044 8D24     		.short	9357
 5427 0046 6F26     		.short	9839
 5428 0048 1428     		.short	10260
 5429 004a 9029     		.short	10640
 5430 004c E02A     		.short	10976
 5431 004e 112C     		.short	11281
 5432 0050 252D     		.short	11557
 5433 0052 052F     		.short	12037
 5434 0054 8930     		.short	12425
 5435 0056 D331     		.short	12755
 5436 0058 EC32     		.short	13036
 5437 005a DD33     		.short	13277
 5438 005c AE34     		.short	13486
 5439 005e 6735     		.short	13671
 5440 0060 0D36     		.short	13837
 5441 0062 2037     		.short	14112
 5442 0064 FB37     		.short	14331
 5443 0066 B238     		.short	14514
 5444 0068 4A39     		.short	14666
 5445 006a CC39     		.short	14796
 5446 006c 3B3A     		.short	14907
 5447 006e 9B3A     		.short	15003
 5448 0070 F33A     		.short	15091
 5449 0072 833B     		.short	15235
 5450 0074 F43B     		.short	15348
 5451 0076 513C     		.short	15441
 5452 0078 9F3C     		.short	15519
 5453 007a E13C     		.short	15585
 5454 007c 1A3D     		.short	15642
 5455 007e 4B3D     		.short	15691
 5456 0080 783D     		.short	15736
 5457 0082 C03D     		.short	15808
 5458 0084 F93D     		.short	15865
 5459 0086 283E     		.short	15912
 5460 0088 4F3E     		.short	15951
 5461 008a 703E     		.short	15984
 5462 008c 8D3E     		.short	16013
 5463 008e A53E     		.short	16037
 5464 0090 BC3E     		.short	16060
 5465 0092 E03E     		.short	16096
 5466 0094 FD3E     		.short	16125
 5467 0096 143F     		.short	16148
 5468 0098 283F     		.short	16168
 5469 009a 383F     		.short	16184
 5470 009c 473F     		.short	16199
 5471 009e 533F     		.short	16211
 5472 00a0 5E3F     		.short	16222
ARM GAS  /var/folders/d2/nstgp4h54kz7g1l847x_b8wc0000gn/T//cccORz8f.s 			page 97


 5473 00a2 703F     		.short	16240
 5474 00a4 7F3F     		.short	16255
 5475 00a6 8A3F     		.short	16266
 5476 00a8 943F     		.short	16276
 5477 00aa 9C3F     		.short	16284
 5478 00ac A43F     		.short	16292
 5479 00ae AA3F     		.short	16298
 5480 00b0 AF3F     		.short	16303
 5481 00b2 B83F     		.short	16312
 5482 00b4 C03F     		.short	16320
 5483 00b6 C53F     		.short	16325
 5484 00b8 CB3F     		.short	16331
 5485 00ba CE3F     		.short	16334
 5486 00bc D23F     		.short	16338
 5487 00be D53F     		.short	16341
 5488 00c0 D83F     		.short	16344
 5489 00c2 DC3F     		.short	16348
 5490 00c4 E03F     		.short	16352
 5491 00c6 E33F     		.short	16355
 5492 00c8 E53F     		.short	16357
 5493 00ca E83F     		.short	16360
 5494 00cc E93F     		.short	16361
 5495 00ce EB3F     		.short	16363
 5496 00d0 EC3F     		.short	16364
 5497 00d2 EE3F     		.short	16366
 5498 00d4 F13F     		.short	16369
 5499 00d6 F13F     		.short	16369
 5500 00d8 F33F     		.short	16371
 5501 00da F43F     		.short	16372
 5502 00dc F53F     		.short	16373
 5503 00de F53F     		.short	16373
 5504 00e0 F73F     		.short	16375
 5505 00e2 F73F     		.short	16375
 5506 00e4 F93F     		.short	16377
 5507 00e6 F83F     		.short	16376
 5508 00e8 FA3F     		.short	16378
 5509 00ea FA3F     		.short	16378
 5510 00ec FA3F     		.short	16378
 5511 00ee FB3F     		.short	16379
 5512 00f0 FB3F     		.short	16379
 5513 00f2 FC3F     		.short	16380
 5514 00f4 FC3F     		.short	16380
 5515 00f6 FC3F     		.short	16380
 5516 00f8 FE3F     		.short	16382
 5517 00fa FD3F     		.short	16381
 5518 00fc FD3F     		.short	16381
 5519 00fe FD3F     		.short	16381
 5520 0100 FE3F     		.short	16382
 5521 0102 FE3F     		.short	16382
 5522 0104 FE3F     		.short	16382
 5523 0106 FE3F     		.short	16382
 5524 0108 FE3F     		.short	16382
 5525 010a FE3F     		.short	16382
 5526 010c 0040     		.short	16384
 5527 010e FF3F     		.short	16383
 5528 0110 FF3F     		.short	16383
 5529 0112 FF3F     		.short	16383
ARM GAS  /var/folders/d2/nstgp4h54kz7g1l847x_b8wc0000gn/T//cccORz8f.s 			page 98


 5530 0114 FF3F     		.short	16383
 5531 0116 FF3F     		.short	16383
 5532 0118 FF3F     		.short	16383
 5533 011a FF3F     		.short	16383
 5534 011c FF3F     		.short	16383
 5535 011e FF3F     		.short	16383
 5536 0120 FF3F     		.short	16383
 5537 0122 FF3F     		.short	16383
 5538 0124 0040     		.short	16384
 5539 0126 0040     		.short	16384
 5540 0128 0040     		.short	16384
 5541 012a 0040     		.short	16384
 5542 012c 0040     		.short	16384
 5543 012e 0040     		.short	16384
 5544 0130 0040     		.short	16384
 5545 0132 0040     		.short	16384
 5546 0134 0040     		.short	16384
 5547 0136 0040     		.short	16384
 5548 0138 0040     		.short	16384
 5549 013a 0040     		.short	16384
 5550 013c 0040     		.short	16384
 5551 013e 0040     		.short	16384
 5552 0140 0040     		.short	16384
 5553              		.section	.rodata.aseba_sin_table,"a",%progbits
 5554              		.align	2
 5555              		.set	.LANCHOR1,. + 0
 5556              		.type	aseba_sin_table, %object
 5557              		.size	aseba_sin_table, 258
 5558              	aseba_sin_table:
 5559 0000 0000     		.short	0
 5560 0002 9301     		.short	403
 5561 0004 2403     		.short	804
 5562 0006 B704     		.short	1207
 5563 0008 4806     		.short	1608
 5564 000a DA07     		.short	2010
 5565 000c 6B09     		.short	2411
 5566 000e FC0A     		.short	2812
 5567 0010 8C0C     		.short	3212
 5568 0012 1C0E     		.short	3612
 5569 0014 AB0F     		.short	4011
 5570 0016 3B11     		.short	4411
 5571 0018 C812     		.short	4808
 5572 001a 5614     		.short	5206
 5573 001c E315     		.short	5603
 5574 001e 6E17     		.short	5998
 5575 0020 F918     		.short	6393
 5576 0022 831A     		.short	6787
 5577 0024 0C1C     		.short	7180
 5578 0026 941D     		.short	7572
 5579 0028 1A1F     		.short	7962
 5580 002a A020     		.short	8352
 5581 002c 2422     		.short	8740
 5582 002e A723     		.short	9127
 5583 0030 2925     		.short	9513
 5584 0032 A826     		.short	9896
 5585 0034 2728     		.short	10279
 5586 0036 A429     		.short	10660
ARM GAS  /var/folders/d2/nstgp4h54kz7g1l847x_b8wc0000gn/T//cccORz8f.s 			page 99


 5587 0038 202B     		.short	11040
 5588 003a 992C     		.short	11417
 5589 003c 122E     		.short	11794
 5590 003e 872F     		.short	12167
 5591 0040 FC30     		.short	12540
 5592 0042 6F32     		.short	12911
 5593 0044 DF33     		.short	13279
 5594 0046 4E35     		.short	13646
 5595 0048 BA36     		.short	14010
 5596 004a 2538     		.short	14373
 5597 004c 8D39     		.short	14733
 5598 004e F33A     		.short	15091
 5599 0050 573C     		.short	15447
 5600 0052 B93D     		.short	15801
 5601 0054 173F     		.short	16151
 5602 0056 7440     		.short	16500
 5603 0058 CE41     		.short	16846
 5604 005a 2643     		.short	17190
 5605 005c 7B44     		.short	17531
 5606 005e CD45     		.short	17869
 5607 0060 1D47     		.short	18205
 5608 0062 6A48     		.short	18538
 5609 0064 B449     		.short	18868
 5610 0066 FC4A     		.short	19196
 5611 0068 404C     		.short	19520
 5612 006a 824D     		.short	19842
 5613 006c C04E     		.short	20160
 5614 006e FC4F     		.short	20476
 5615 0070 3451     		.short	20788
 5616 0072 6952     		.short	21097
 5617 0074 9B53     		.short	21403
 5618 0076 CA54     		.short	21706
 5619 0078 F655     		.short	22006
 5620 007a 1E57     		.short	22302
 5621 007c 4358     		.short	22595
 5622 007e 6459     		.short	22884
 5623 0080 835A     		.short	23171
 5624 0082 9D5B     		.short	23453
 5625 0084 B45C     		.short	23732
 5626 0086 C85D     		.short	24008
 5627 0088 D75E     		.short	24279
 5628 008a E45F     		.short	24548
 5629 008c EC60     		.short	24812
 5630 008e F161     		.short	25073
 5631 0090 F262     		.short	25330
 5632 0092 EF63     		.short	25583
 5633 0094 E964     		.short	25833
 5634 0096 DE65     		.short	26078
 5635 0098 D066     		.short	26320
 5636 009a BD67     		.short	26557
 5637 009c A768     		.short	26791
 5638 009e 8C69     		.short	27020
 5639 00a0 6E6A     		.short	27246
 5640 00a2 4B6B     		.short	27467
 5641 00a4 246C     		.short	27684
 5642 00a6 F96C     		.short	27897
 5643 00a8 CA6D     		.short	28106
ARM GAS  /var/folders/d2/nstgp4h54kz7g1l847x_b8wc0000gn/T//cccORz8f.s 			page 100


 5644 00aa 976E     		.short	28311
 5645 00ac 5F6F     		.short	28511
 5646 00ae 2370     		.short	28707
 5647 00b0 E370     		.short	28899
 5648 00b2 9E71     		.short	29086
 5649 00b4 5572     		.short	29269
 5650 00b6 0873     		.short	29448
 5651 00b8 B673     		.short	29622
 5652 00ba 6074     		.short	29792
 5653 00bc 0575     		.short	29957
 5654 00be A575     		.short	30117
 5655 00c0 4276     		.short	30274
 5656 00c2 D976     		.short	30425
 5657 00c4 6C77     		.short	30572
 5658 00c6 FB77     		.short	30715
 5659 00c8 8478     		.short	30852
 5660 00ca 0979     		.short	30985
 5661 00cc 8A79     		.short	31114
 5662 00ce 067A     		.short	31238
 5663 00d0 7D7A     		.short	31357
 5664 00d2 EF7A     		.short	31471
 5665 00d4 5D7B     		.short	31581
 5666 00d6 C67B     		.short	31686
 5667 00d8 2A7C     		.short	31786
 5668 00da 897C     		.short	31881
 5669 00dc E47C     		.short	31972
 5670 00de 397D     		.short	32057
 5671 00e0 8A7D     		.short	32138
 5672 00e2 D77D     		.short	32215
 5673 00e4 1D7E     		.short	32285
 5674 00e6 607E     		.short	32352
 5675 00e8 9D7E     		.short	32413
 5676 00ea D67E     		.short	32470
 5677 00ec 097F     		.short	32521
 5678 00ee 397F     		.short	32569
 5679 00f0 627F     		.short	32610
 5680 00f2 877F     		.short	32647
 5681 00f4 A77F     		.short	32679
 5682 00f6 C27F     		.short	32706
 5683 00f8 D87F     		.short	32728
 5684 00fa EA7F     		.short	32746
 5685 00fc F67F     		.short	32758
 5686 00fe FE7F     		.short	32766
 5687 0100 FF7F     		.short	32767
 5688              		.section	.rodata.str1.4,"aMS",%progbits,1
 5689              		.align	2
 5690              	.LC0:
 5691 0000 6D617468 		.ascii	"math.rand\000"
 5691      2E72616E 
 5691      6400
 5692 000a 0000     		.space	2
 5693              	.LC1:
 5694 000c 66696C6C 		.ascii	"fill array with random values\000"
 5694      20617272 
 5694      61792077 
 5694      69746820 
 5694      72616E64 
ARM GAS  /var/folders/d2/nstgp4h54kz7g1l847x_b8wc0000gn/T//cccORz8f.s 			page 101


 5695 002a 0000     		.space	2
 5696              	.LC2:
 5697 002c 64657374 		.ascii	"dest\000"
 5697      00
 5698 0031 000000   		.space	3
 5699              	.LC3:
 5700 0034 6D617468 		.ascii	"math.nzseq\000"
 5700      2E6E7A73 
 5700      657100
 5701 003f 00       		.space	1
 5702              	.LC4:
 5703 0040 77726974 		.ascii	"write to dest the middle index of the largest seque"
 5703      6520746F 
 5703      20646573 
 5703      74207468 
 5703      65206D69 
 5704 0073 6E636520 		.ascii	"nce of non-zero elements from src, -1 if not found "
 5704      6F66206E 
 5704      6F6E2D7A 
 5704      65726F20 
 5704      656C656D 
 5705 00a6 6F722069 		.ascii	"or if smaller than minLength\000"
 5705      6620736D 
 5705      616C6C65 
 5705      72207468 
 5705      616E206D 
 5706 00c3 00       		.space	1
 5707              	.LC5:
 5708 00c4 73726300 		.ascii	"src\000"
 5709              	.LC6:
 5710 00c8 6D696E4C 		.ascii	"minLength\000"
 5710      656E6774 
 5710      6800
 5711 00d2 0000     		.space	2
 5712              	.LC7:
 5713 00d4 6D617468 		.ascii	"math.sqrt\000"
 5713      2E737172 
 5713      7400
 5714 00de 0000     		.space	2
 5715              	.LC8:
 5716 00e0 70657266 		.ascii	"performs dest = sqrt(x) element by element\000"
 5716      6F726D73 
 5716      20646573 
 5716      74203D20 
 5716      73717274 
 5717 010b 00       		.space	1
 5718              	.LC9:
 5719 010c 7800     		.ascii	"x\000"
 5720 010e 0000     		.space	2
 5721              	.LC10:
 5722 0110 6D617468 		.ascii	"math.rot2\000"
 5722      2E726F74 
 5722      3200
 5723 011a 0000     		.space	2
 5724              	.LC11:
 5725 011c 726F7461 		.ascii	"rotates v of angle a to dest\000"
 5725      74657320 
ARM GAS  /var/folders/d2/nstgp4h54kz7g1l847x_b8wc0000gn/T//cccORz8f.s 			page 102


 5725      76206F66 
 5725      20616E67 
 5725      6C652061 
 5726 0139 000000   		.space	3
 5727              	.LC12:
 5728 013c 7600     		.ascii	"v\000"
 5729 013e 0000     		.space	2
 5730              	.LC13:
 5731 0140 6100     		.ascii	"a\000"
 5732 0142 0000     		.space	2
 5733              	.LC14:
 5734 0144 6D617468 		.ascii	"math.cos\000"
 5734      2E636F73 
 5734      00
 5735 014d 000000   		.space	3
 5736              	.LC15:
 5737 0150 70657266 		.ascii	"performs dest = cos(x) element by element\000"
 5737      6F726D73 
 5737      20646573 
 5737      74203D20 
 5737      636F7328 
 5738 017a 0000     		.space	2
 5739              	.LC16:
 5740 017c 6D617468 		.ascii	"math.sin\000"
 5740      2E73696E 
 5740      00
 5741 0185 000000   		.space	3
 5742              	.LC17:
 5743 0188 70657266 		.ascii	"performs dest = sin(x) element by element\000"
 5743      6F726D73 
 5743      20646573 
 5743      74203D20 
 5743      73696E28 
 5744 01b2 0000     		.space	2
 5745              	.LC18:
 5746 01b4 6D617468 		.ascii	"math.atan2\000"
 5746      2E617461 
 5746      6E3200
 5747 01bf 00       		.space	1
 5748              	.LC19:
 5749 01c0 70657266 		.ascii	"performs dest = atan2(y,x) element by element\000"
 5749      6F726D73 
 5749      20646573 
 5749      74203D20 
 5749      6174616E 
 5750 01ee 0000     		.space	2
 5751              	.LC20:
 5752 01f0 7900     		.ascii	"y\000"
 5753 01f2 0000     		.space	2
 5754              	.LC21:
 5755 01f4 6D617468 		.ascii	"math.muldiv\000"
 5755      2E6D756C 
 5755      64697600 
 5756              	.LC22:
 5757 0200 70657266 		.ascii	"performs dest = (a*b)/c in 32 bits element by eleme"
 5757      6F726D73 
 5757      20646573 
ARM GAS  /var/folders/d2/nstgp4h54kz7g1l847x_b8wc0000gn/T//cccORz8f.s 			page 103


 5757      74203D20 
 5757      28612A62 
 5758 0233 6E7400   		.ascii	"nt\000"
 5759 0236 0000     		.space	2
 5760              	.LC23:
 5761 0238 6200     		.ascii	"b\000"
 5762 023a 0000     		.space	2
 5763              	.LC24:
 5764 023c 6300     		.ascii	"c\000"
 5765 023e 0000     		.space	2
 5766              	.LC25:
 5767 0240 6D617468 		.ascii	"math.sort\000"
 5767      2E736F72 
 5767      7400
 5768 024a 0000     		.space	2
 5769              	.LC26:
 5770 024c 736F7274 		.ascii	"sort array in place\000"
 5770      20617272 
 5770      61792069 
 5770      6E20706C 
 5770      61636500 
 5771              	.LC27:
 5772 0260 61727261 		.ascii	"array\000"
 5772      7900
 5773 0266 0000     		.space	2
 5774              	.LC28:
 5775 0268 6D617468 		.ascii	"math.argbounds\000"
 5775      2E617267 
 5775      626F756E 
 5775      647300
 5776 0277 00       		.space	1
 5777              	.LC29:
 5778 0278 67657420 		.ascii	"get the indices (argmin, argmax) of the limit value"
 5778      74686520 
 5778      696E6469 
 5778      63657320 
 5778      28617267 
 5779 02ab 73206F66 		.ascii	"s of src\000"
 5779      20737263 
 5779      00
 5780              	.LC30:
 5781 02b4 6172676D 		.ascii	"argmin\000"
 5781      696E00
 5782 02bb 00       		.space	1
 5783              	.LC31:
 5784 02bc 6172676D 		.ascii	"argmax\000"
 5784      617800
 5785 02c3 00       		.space	1
 5786              	.LC32:
 5787 02c4 6D617468 		.ascii	"math.stat\000"
 5787      2E737461 
 5787      7400
 5788 02ce 0000     		.space	2
 5789              	.LC33:
 5790 02d0 70657266 		.ascii	"performs statistics on src\000"
 5790      6F726D73 
 5790      20737461 
ARM GAS  /var/folders/d2/nstgp4h54kz7g1l847x_b8wc0000gn/T//cccORz8f.s 			page 104


 5790      74697374 
 5790      69637320 
 5791 02eb 00       		.space	1
 5792              	.LC34:
 5793 02ec 6D696E00 		.ascii	"min\000"
 5794              	.LC35:
 5795 02f0 6D617800 		.ascii	"max\000"
 5796              	.LC36:
 5797 02f4 6D65616E 		.ascii	"mean\000"
 5797      00
 5798 02f9 000000   		.space	3
 5799              	.LC37:
 5800 02fc 6D617468 		.ascii	"math.dot\000"
 5800      2E646F74 
 5800      00
 5801 0305 000000   		.space	3
 5802              	.LC38:
 5803 0308 77726974 		.ascii	"writes the dot product of src1 and src2 to dest, af"
 5803      65732074 
 5803      68652064 
 5803      6F742070 
 5803      726F6475 
 5804 033b 74657220 		.ascii	"ter a shift\000"
 5804      61207368 
 5804      69667400 
 5805 0347 00       		.space	1
 5806              	.LC39:
 5807 0348 73726331 		.ascii	"src1\000"
 5807      00
 5808 034d 000000   		.space	3
 5809              	.LC40:
 5810 0350 73726332 		.ascii	"src2\000"
 5810      00
 5811 0355 000000   		.space	3
 5812              	.LC41:
 5813 0358 73686966 		.ascii	"shift\000"
 5813      7400
 5814 035e 0000     		.space	2
 5815              	.LC42:
 5816 0360 6D617468 		.ascii	"math.clamp\000"
 5816      2E636C61 
 5816      6D7000
 5817 036b 00       		.space	1
 5818              	.LC43:
 5819 036c 636C616D 		.ascii	"clamp src to low/high bounds into dest, element by "
 5819      70207372 
 5819      6320746F 
 5819      206C6F77 
 5819      2F686967 
 5820 039f 656C656D 		.ascii	"element\000"
 5820      656E7400 
 5821 03a7 00       		.space	1
 5822              	.LC44:
 5823 03a8 6C6F7700 		.ascii	"low\000"
 5824              	.LC45:
 5825 03ac 68696768 		.ascii	"high\000"
 5825      00
ARM GAS  /var/folders/d2/nstgp4h54kz7g1l847x_b8wc0000gn/T//cccORz8f.s 			page 105


 5826 03b1 000000   		.space	3
 5827              	.LC46:
 5828 03b4 6D617468 		.ascii	"math.max\000"
 5828      2E6D6178 
 5828      00
 5829 03bd 000000   		.space	3
 5830              	.LC47:
 5831 03c0 77726974 		.ascii	"writes the maximum of src1 and src2 to dest, elemen"
 5831      65732074 
 5831      6865206D 
 5831      6178696D 
 5831      756D206F 
 5832 03f3 74206279 		.ascii	"t by element\000"
 5832      20656C65 
 5832      6D656E74 
 5832      00
 5833              	.LC48:
 5834 0400 6D617468 		.ascii	"math.min\000"
 5834      2E6D696E 
 5834      00
 5835 0409 000000   		.space	3
 5836              	.LC49:
 5837 040c 77726974 		.ascii	"writes the minimum of src1 and src2 to dest, elemen"
 5837      65732074 
 5837      6865206D 
 5837      696E696D 
 5837      756D206F 
 5838 043f 74206279 		.ascii	"t by element\000"
 5838      20656C65 
 5838      6D656E74 
 5838      00
 5839              	.LC50:
 5840 044c 6D617468 		.ascii	"math.div\000"
 5840      2E646976 
 5840      00
 5841 0455 000000   		.space	3
 5842              	.LC51:
 5843 0458 64697669 		.ascii	"divides src1 by src2 to dest, element by element\000"
 5843      64657320 
 5843      73726331 
 5843      20627920 
 5843      73726332 
 5844 0489 000000   		.space	3
 5845              	.LC52:
 5846 048c 6D617468 		.ascii	"math.mul\000"
 5846      2E6D756C 
 5846      00
 5847 0495 000000   		.space	3
 5848              	.LC53:
 5849 0498 6D756C74 		.ascii	"multiplies src1 and src2 to dest, element by elemen"
 5849      69706C69 
 5849      65732073 
 5849      72633120 
 5849      616E6420 
 5850 04cb 7400     		.ascii	"t\000"
 5851 04cd 000000   		.space	3
 5852              	.LC54:
ARM GAS  /var/folders/d2/nstgp4h54kz7g1l847x_b8wc0000gn/T//cccORz8f.s 			page 106


 5853 04d0 6D617468 		.ascii	"math.sub\000"
 5853      2E737562 
 5853      00
 5854 04d9 000000   		.space	3
 5855              	.LC55:
 5856 04dc 73756273 		.ascii	"substracts src2 from src1 to dest, element by eleme"
 5856      74726163 
 5856      74732073 
 5856      72633220 
 5856      66726F6D 
 5857 050f 6E7400   		.ascii	"nt\000"
 5858 0512 0000     		.space	2
 5859              	.LC56:
 5860 0514 6D617468 		.ascii	"math.add\000"
 5860      2E616464 
 5860      00
 5861 051d 000000   		.space	3
 5862              	.LC57:
 5863 0520 61646473 		.ascii	"adds src1 and src2 to dest, element by element\000"
 5863      20737263 
 5863      3120616E 
 5863      64207372 
 5863      63322074 
 5864 054f 00       		.space	1
 5865              	.LC58:
 5866 0550 6D617468 		.ascii	"math.addscalar\000"
 5866      2E616464 
 5866      7363616C 
 5866      617200
 5867 055f 00       		.space	1
 5868              	.LC59:
 5869 0560 61646420 		.ascii	"add scalar to each element of src and store result "
 5869      7363616C 
 5869      61722074 
 5869      6F206561 
 5869      63682065 
 5870 0593 746F2064 		.ascii	"to dest\000"
 5870      65737400 
 5871 059b 00       		.space	1
 5872              	.LC60:
 5873 059c 7363616C 		.ascii	"scalar\000"
 5873      617200
 5874 05a3 00       		.space	1
 5875              	.LC61:
 5876 05a4 6D617468 		.ascii	"math.fill\000"
 5876      2E66696C 
 5876      6C00
 5877 05ae 0000     		.space	2
 5878              	.LC62:
 5879 05b0 66696C6C 		.ascii	"fills dest with constant value\000"
 5879      73206465 
 5879      73742077 
 5879      69746820 
 5879      636F6E73 
 5880 05cf 00       		.space	1
 5881              	.LC63:
 5882 05d0 76616C75 		.ascii	"value\000"
ARM GAS  /var/folders/d2/nstgp4h54kz7g1l847x_b8wc0000gn/T//cccORz8f.s 			page 107


 5882      6500
 5883 05d6 0000     		.space	2
 5884              	.LC64:
 5885 05d8 6D617468 		.ascii	"math.copy\000"
 5885      2E636F70 
 5885      7900
 5886 05e2 0000     		.space	2
 5887              	.LC65:
 5888 05e4 636F7069 		.ascii	"copies src to dest element by element\000"
 5888      65732073 
 5888      72632074 
 5888      6F206465 
 5888      73742065 
 5889              		.text
 5890              	.Letext0:
 5891              		.file 3 "../e-puck2_main-processor/aseba/vm/../common/consts.h"
 5892              		.file 4 "/Applications/Eclipse_e-puck2.app/Contents/Eclipse_e-puck2/Tools/gcc-arm-none-eabi-7-2017
 5893              		.file 5 "/Applications/Eclipse_e-puck2.app/Contents/Eclipse_e-puck2/Tools/gcc-arm-none-eabi-7-2017
 5894              		.file 6 "/Applications/Eclipse_e-puck2.app/Contents/Eclipse_e-puck2/Tools/gcc-arm-none-eabi-7-2017
 5895              		.file 7 "/Applications/Eclipse_e-puck2.app/Contents/Eclipse_e-puck2/Tools/gcc-arm-none-eabi-7-2017
 5896              		.file 8 "/Applications/Eclipse_e-puck2.app/Contents/Eclipse_e-puck2/Tools/gcc-arm-none-eabi-7-2017
 5897              		.file 9 "../e-puck2_main-processor/aseba/vm/../common/types.h"
 5898              		.file 10 "../e-puck2_main-processor/aseba/vm/vm.h"