ARM GAS  /var/folders/d2/nstgp4h54kz7g1l847x_b8wc0000gn/T//cccORz8f.s 			page 1


   1              		.cpu cortex-m4
   2              		.eabi_attribute 27, 1
   3              		.eabi_attribute 28, 1
   4              		.eabi_attribute 20, 1
   5              		.eabi_attribute 21, 1
   6              		.eabi_attribute 23, 3
   7              		.eabi_attribute 24, 1
   8              		.eabi_attribute 25, 1
   9              		.eabi_attribute 26, 1
  10              		.eabi_attribute 30, 2
  11              		.eabi_attribute 34, 1
  12              		.eabi_attribute 18, 4
  13              		.file	"natives.c"
  14              		.text
  15              	.Ltext0:
  16              		.cfi_sections	.debug_frame
  17              		.section	.text.aseba_atan2.part.1,"ax",%progbits
  18              		.align	1
  19              		.p2align 4,,15
  20              		.syntax unified
  21              		.thumb
  22              		.thumb_func
  23              		.fpu fpv4-sp-d16
  24              		.type	aseba_atan2.part.1, %function
  25              	aseba_atan2.part.1:
  26              	.LFB31:
  27              		.file 1 "../e-puck2_main-processor/aseba/vm/natives.c"
  28              		.loc 1 69 0
  29              		.cfi_startproc
  30              		@ args = 0, pretend = 0, frame = 8
  31              		@ frame_needed = 0, uses_anonymous_args = 0
  32              	.LVL0:
  33 0000 F0B5     		push	{r4, r5, r6, r7, lr}
  34              		.cfi_def_cfa_offset 20
  35              		.cfi_offset 4, -20
  36              		.cfi_offset 5, -16
  37              		.cfi_offset 6, -12
  38              		.cfi_offset 7, -8
  39              		.cfi_offset 14, -4
  40 0002 2C4E     		ldr	r6, .L17
  41 0004 83B0     		sub	sp, sp, #12
  42              		.cfi_def_cfa_offset 32
  43              		.loc 1 69 0
  44 0006 3368     		ldr	r3, [r6]
  45 0008 0193     		str	r3, [sp, #4]
  46              	.LVL1:
  47              	.LBB190:
  48              		.loc 1 83 0
  49 000a 0029     		cmp	r1, #0
  50 000c 3CD0     		beq	.L9
  51              	.LBB191:
  52              		.loc 1 128 0
  53 000e 0023     		movs	r3, #0
  54              	.LBE191:
  55              		.loc 1 82 0
  56 0010 80EAE075 		eor	r5, r0, r0, asr #31
  57              		.loc 1 81 0
ARM GAS  /var/folders/d2/nstgp4h54kz7g1l847x_b8wc0000gn/T//cccORz8f.s 			page 2


  58 0014 81EAE174 		eor	r4, r1, r1, asr #31
  59              		.loc 1 82 0
  60 0018 A5EBE075 		sub	r5, r5, r0, asr #31
  61              		.loc 1 81 0
  62 001c A4EBE174 		sub	r4, r4, r1, asr #31
  63              	.LBB195:
  64              		.loc 1 129 0
  65 0020 1A46     		mov	r2, r3
  66              		.loc 1 128 0
  67 0022 2D04     		lsls	r5, r5, #16
  68 0024 24B2     		sxth	r4, r4
  69 0026 95FBF4F5 		sdiv	r5, r5, r4
  70              	.LVL2:
  71              	.L4:
  72              		.loc 1 133 0
  73 002a 55FA03F4 		asrs	r4, r5, r3
  74 002e 1CB2     		sxth	r4, r3
  75              	.LVL3:
  76 0030 03F10103 		add	r3, r3, #1
  77 0034 18BF     		it	ne
  78 0036 2246     		movne	r2, r4
  79              	.LVL4:
  80              		.loc 1 132 0
  81 0038 202B     		cmp	r3, #32
  82 003a F6D1     		bne	.L4
  83              	.LBB192:
  84              		.loc 1 138 0
  85 003c 94B2     		uxth	r4, r2
  86 003e A4F10C07 		sub	r7, r4, #12
  87 0042 3FB2     		sxth	r7, r7
  88              	.LVL5:
  89              		.loc 1 139 0
  90 0044 002F     		cmp	r7, #0
  91 0046 2CDB     		blt	.L15
  92              	.LVL6:
  93              	.LBB193:
  94              		.loc 1 146 0
  95 0048 0123     		movs	r3, #1
  96 004a 9340     		lsls	r3, r3, r2
  97              		.loc 1 147 0
  98 004c 083C     		subs	r4, r4, #8
  99              	.LVL7:
 100              		.loc 1 148 0
 101 004e 24B2     		sxth	r4, r4
 102              	.LVL8:
 103              		.loc 1 146 0
 104 0050 EB1A     		subs	r3, r5, r3
 105              		.loc 1 148 0
 106 0052 2341     		asrs	r3, r3, r4
 107 0054 1BB2     		sxth	r3, r3
 108              	.LVL9:
 109              		.loc 1 151 0
 110 0056 5A11     		asrs	r2, r3, #5
 111              	.LVL10:
 112 0058 02EBC707 		add	r7, r2, r7, lsl #3
 113              	.LVL11:
 114 005c 7C1C     		adds	r4, r7, #1
ARM GAS  /var/folders/d2/nstgp4h54kz7g1l847x_b8wc0000gn/T//cccORz8f.s 			page 3


 115 005e 164A     		ldr	r2, .L17+4
 116 0060 32F81440 		ldrh	r4, [r2, r4, lsl #1]
 117 0064 32F91720 		ldrsh	r2, [r2, r7, lsl #1]
 118              		.loc 1 150 0
 119 0068 03F01F03 		and	r3, r3, #31
 120              	.LVL12:
 121              		.loc 1 151 0
 122 006c 14FB03F4 		smulbb	r4, r4, r3
 123 0070 C3F12003 		rsb	r3, r3, #32
 124              	.LVL13:
 125 0074 03FB0243 		mla	r3, r3, r2, r4
 126 0078 43F34F13 		sbfx	r3, r3, #5, #16
 127              	.LVL14:
 128              	.L6:
 129              	.LBE193:
 130              		.loc 1 155 0
 131 007c 0029     		cmp	r1, #0
 132 007e 05DA     		bge	.L2
 133              		.loc 1 156 0
 134 0080 C3F50043 		rsb	r3, r3, #32768
 135              	.LVL15:
 136 0084 1BB2     		sxth	r3, r3
 137              	.LVL16:
 138 0086 01E0     		b	.L2
 139              	.LVL17:
 140              	.L9:
 141              	.LBE192:
 142              	.LBE195:
 143              		.loc 1 85 0
 144 0088 4FF48043 		mov	r3, #16384
 145              	.L2:
 146              	.LVL18:
 147              		.loc 1 160 0
 148 008c 0028     		cmp	r0, #0
 149              	.LBE190:
 150              		.loc 1 165 0
 151 008e 0199     		ldr	r1, [sp, #4]
 152              	.LVL19:
 153 0090 3268     		ldr	r2, [r6]
 154              	.LBB197:
 155              		.loc 1 163 0
 156 0092 DCBF     		itt	le
 157 0094 5B42     		rsble	r3, r3, #0
 158              	.LVL20:
 159 0096 1BB2     		sxthle	r3, r3
 160              	.LBE197:
 161              		.loc 1 165 0
 162 0098 9142     		cmp	r1, r2
 163 009a 1846     		mov	r0, r3
 164              	.LVL21:
 165 009c 08D1     		bne	.L16
 166 009e 03B0     		add	sp, sp, #12
 167              		.cfi_remember_state
 168              		.cfi_def_cfa_offset 20
 169              		@ sp needed
 170 00a0 F0BD     		pop	{r4, r5, r6, r7, pc}
 171              	.LVL22:
ARM GAS  /var/folders/d2/nstgp4h54kz7g1l847x_b8wc0000gn/T//cccORz8f.s 			page 4


 172              	.L15:
 173              		.cfi_restore_state
 174              	.LBB198:
 175              	.LBB196:
 176              	.LBB194:
 177              		.loc 1 142 0
 178 00a2 4FF42373 		mov	r3, #652
 179 00a6 03FB05F3 		mul	r3, r3, r5
 180 00aa 43F30F33 		sbfx	r3, r3, #12, #16
 181              	.LVL23:
 182 00ae E5E7     		b	.L6
 183              	.LVL24:
 184              	.L16:
 185              	.LBE194:
 186              	.LBE196:
 187              	.LBE198:
 188              		.loc 1 165 0
 189 00b0 FFF7FEFF 		bl	__stack_chk_fail
 190              	.LVL25:
 191              	.L18:
 192              		.align	2
 193              	.L17:
 194 00b4 00000000 		.word	__stack_chk_guard
 195 00b8 00000000 		.word	.LANCHOR0
 196              		.cfi_endproc
 197              	.LFE31:
 198              		.size	aseba_atan2.part.1, .-aseba_atan2.part.1
 199              		.section	.text.aseba_atan2,"ax",%progbits
 200              		.align	1
 201              		.p2align 4,,15
 202              		.global	aseba_atan2
 203              		.syntax unified
 204              		.thumb
 205              		.thumb_func
 206              		.fpu fpv4-sp-d16
 207              		.type	aseba_atan2, %function
 208              	aseba_atan2:
 209              	.LFB1:
 210              		.loc 1 70 0
 211              		.cfi_startproc
 212              		@ args = 0, pretend = 0, frame = 8
 213              		@ frame_needed = 0, uses_anonymous_args = 0
 214              	.LVL26:
 215 0000 00B5     		push	{lr}
 216              		.cfi_def_cfa_offset 4
 217              		.cfi_offset 14, -4
 218 0002 0E4B     		ldr	r3, .L27
 219 0004 83B0     		sub	sp, sp, #12
 220              		.cfi_def_cfa_offset 16
 221              		.loc 1 70 0
 222 0006 1A68     		ldr	r2, [r3]
 223 0008 0192     		str	r2, [sp, #4]
 224              		.loc 1 71 0
 225 000a 60B9     		cbnz	r0, .L20
 226 000c 0A46     		mov	r2, r1
 227              		.loc 1 165 0
 228 000e 0199     		ldr	r1, [sp, #4]
ARM GAS  /var/folders/d2/nstgp4h54kz7g1l847x_b8wc0000gn/T//cccORz8f.s 			page 5


 229              	.LVL27:
 230 0010 1B68     		ldr	r3, [r3]
 231              		.loc 1 73 0
 232 0012 002A     		cmp	r2, #0
 233              		.loc 1 76 0
 234 0014 A0F50040 		sub	r0, r0, #32768
 235              	.LVL28:
 236              		.loc 1 165 0
 237 0018 A8BF     		it	ge
 238 001a 0020     		movge	r0, #0
 239 001c 9942     		cmp	r1, r3
 240 001e 0BD1     		bne	.L25
 241 0020 03B0     		add	sp, sp, #12
 242              		.cfi_remember_state
 243              		.cfi_def_cfa_offset 4
 244              		@ sp needed
 245 0022 5DF804FB 		ldr	pc, [sp], #4
 246              	.LVL29:
 247              	.L20:
 248              		.cfi_restore_state
 249 0026 019A     		ldr	r2, [sp, #4]
 250 0028 1B68     		ldr	r3, [r3]
 251 002a 9A42     		cmp	r2, r3
 252 002c 04D1     		bne	.L25
 253 002e 03B0     		add	sp, sp, #12
 254              		.cfi_remember_state
 255              		.cfi_def_cfa_offset 4
 256              		@ sp needed
 257 0030 5DF804EB 		ldr	lr, [sp], #4
 258              		.cfi_restore 14
 259              		.cfi_def_cfa_offset 0
 260 0034 FFF7FEBF 		b	aseba_atan2.part.1
 261              	.LVL30:
 262              	.L25:
 263              		.cfi_restore_state
 264 0038 FFF7FEFF 		bl	__stack_chk_fail
 265              	.LVL31:
 266              	.L28:
 267              		.align	2
 268              	.L27:
 269 003c 00000000 		.word	__stack_chk_guard
 270              		.cfi_endproc
 271              	.LFE1:
 272              		.size	aseba_atan2, .-aseba_atan2
 273              		.section	.text.aseba_sin,"ax",%progbits
 274              		.align	1
 275              		.p2align 4,,15
 276              		.global	aseba_sin
 277              		.syntax unified
 278              		.thumb
 279              		.thumb_func
 280              		.fpu fpv4-sp-d16
 281              		.type	aseba_sin, %function
 282              	aseba_sin:
 283              	.LFB2:
 284              		.loc 1 181 0
 285              		.cfi_startproc
ARM GAS  /var/folders/d2/nstgp4h54kz7g1l847x_b8wc0000gn/T//cccORz8f.s 			page 6


 286              		@ args = 0, pretend = 0, frame = 8
 287              		@ frame_needed = 0, uses_anonymous_args = 0
 288              	.LVL32:
 289 0000 30B5     		push	{r4, r5, lr}
 290              		.cfi_def_cfa_offset 12
 291              		.cfi_offset 4, -12
 292              		.cfi_offset 5, -8
 293              		.cfi_offset 14, -4
 294 0002 1E49     		ldr	r1, .L45
 295 0004 83B0     		sub	sp, sp, #12
 296              		.cfi_def_cfa_offset 24
 297              		.loc 1 181 0
 298 0006 0B68     		ldr	r3, [r1]
 299 0008 0193     		str	r3, [sp, #4]
 300              		.loc 1 186 0
 301 000a 0028     		cmp	r0, #0
 302              	.LVL33:
 303 000c 22DB     		blt	.L41
 304              		.loc 1 198 0
 305 000e B0F5804F 		cmp	r0, #16384
 306 0012 1ADC     		bgt	.L42
 307              		.loc 1 200 0
 308 0014 2BD0     		beq	.L38
 309              		.loc 1 204 0
 310 0016 0025     		movs	r5, #0
 311              	.L32:
 312              	.LVL34:
 313              	.LBB199:
 314              		.loc 1 211 0
 315 0018 C411     		asrs	r4, r0, #7
 316 001a 194B     		ldr	r3, .L45+4
 317 001c 621C     		adds	r2, r4, #1
 318              	.LBE199:
 319              		.loc 1 208 0
 320 001e 00F07F00 		and	r0, r0, #127
 321              	.LVL35:
 322              	.LBB200:
 323              		.loc 1 211 0
 324 0022 33F81220 		ldrh	r2, [r3, r2, lsl #1]
 325 0026 33F91430 		ldrsh	r3, [r3, r4, lsl #1]
 326 002a 12FB00F2 		smulbb	r2, r2, r0
 327 002e C0F18000 		rsb	r0, r0, #128
 328              	.LVL36:
 329 0032 00FB0320 		mla	r0, r0, r3, r2
 330 0036 C011     		asrs	r0, r0, #7
 331              	.LVL37:
 332              		.loc 1 213 0
 333 0038 05B1     		cbz	r5, .L40
 334              		.loc 1 214 0
 335 003a 4042     		negs	r0, r0
 336              	.LVL38:
 337              	.L40:
 338 003c 00B2     		sxth	r0, r0
 339              	.LVL39:
 340              	.L33:
 341              	.LBE200:
 342              		.loc 1 218 0
ARM GAS  /var/folders/d2/nstgp4h54kz7g1l847x_b8wc0000gn/T//cccORz8f.s 			page 7


 343 003e 019A     		ldr	r2, [sp, #4]
 344 0040 0B68     		ldr	r3, [r1]
 345 0042 9A42     		cmp	r2, r3
 346 0044 18D1     		bne	.L43
 347 0046 03B0     		add	sp, sp, #12
 348              		.cfi_remember_state
 349              		.cfi_def_cfa_offset 12
 350              		@ sp needed
 351 0048 30BD     		pop	{r4, r5, pc}
 352              	.L42:
 353              		.cfi_restore_state
 354              		.loc 1 199 0
 355 004a C0F50040 		rsb	r0, r0, #32768
 356 004e 00B2     		sxth	r0, r0
 357              	.LVL40:
 358              		.loc 1 204 0
 359 0050 0025     		movs	r5, #0
 360 0052 E1E7     		b	.L32
 361              	.LVL41:
 362              	.L41:
 363              		.loc 1 188 0
 364 0054 10F5804F 		cmn	r0, #16384
 365 0058 04DB     		blt	.L44
 366              		.loc 1 190 0
 367 005a 0BD0     		beq	.L37
 368              		.loc 1 191 0
 369 005c 4042     		negs	r0, r0
 370 005e 00B2     		sxth	r0, r0
 371              	.LVL42:
 372              		.loc 1 194 0
 373 0060 0125     		movs	r5, #1
 374 0062 D9E7     		b	.L32
 375              	.LVL43:
 376              	.L44:
 377              		.loc 1 189 0
 378 0064 A0F50040 		sub	r0, r0, #32768
 379 0068 00B2     		sxth	r0, r0
 380              	.LVL44:
 381              		.loc 1 194 0
 382 006a 0125     		movs	r5, #1
 383 006c D4E7     		b	.L32
 384              	.LVL45:
 385              	.L38:
 386              		.loc 1 203 0
 387 006e 47F6FF70 		movw	r0, #32767
 388 0072 E4E7     		b	.L33
 389              	.L37:
 390              		.loc 1 193 0
 391 0074 0348     		ldr	r0, .L45+8
 392 0076 E2E7     		b	.L33
 393              	.L43:
 394              		.loc 1 218 0
 395 0078 FFF7FEFF 		bl	__stack_chk_fail
 396              	.LVL46:
 397              	.L46:
 398              		.align	2
 399              	.L45:
ARM GAS  /var/folders/d2/nstgp4h54kz7g1l847x_b8wc0000gn/T//cccORz8f.s 			page 8


 400 007c 00000000 		.word	__stack_chk_guard
 401 0080 00000000 		.word	.LANCHOR1
 402 0084 0180FFFF 		.word	-32767
 403              		.cfi_endproc
 404              	.LFE2:
 405              		.size	aseba_sin, .-aseba_sin
 406              		.section	.text.aseba_cos,"ax",%progbits
 407              		.align	1
 408              		.p2align 4,,15
 409              		.global	aseba_cos
 410              		.syntax unified
 411              		.thumb
 412              		.thumb_func
 413              		.fpu fpv4-sp-d16
 414              		.type	aseba_cos, %function
 415              	aseba_cos:
 416              	.LFB3:
 417              		.loc 1 222 0
 418              		.cfi_startproc
 419              		@ args = 0, pretend = 0, frame = 8
 420              		@ frame_needed = 0, uses_anonymous_args = 0
 421              	.LVL47:
 422 0000 00B5     		push	{lr}
 423              		.cfi_def_cfa_offset 4
 424              		.cfi_offset 14, -4
 425 0002 094B     		ldr	r3, .L52
 426 0004 83B0     		sub	sp, sp, #12
 427              		.cfi_def_cfa_offset 16
 428              		.loc 1 222 0
 429 0006 1A68     		ldr	r2, [r3]
 430 0008 0192     		str	r2, [sp, #4]
 431              		.loc 1 223 0
 432 000a 019A     		ldr	r2, [sp, #4]
 433 000c 1B68     		ldr	r3, [r3]
 434 000e 9A42     		cmp	r2, r3
 435 0010 07D1     		bne	.L51
 436 0012 00F58040 		add	r0, r0, #16384
 437              	.LVL48:
 438 0016 00B2     		sxth	r0, r0
 439              		.loc 1 224 0
 440 0018 03B0     		add	sp, sp, #12
 441              		.cfi_remember_state
 442              		.cfi_def_cfa_offset 4
 443              		@ sp needed
 444 001a 5DF804EB 		ldr	lr, [sp], #4
 445              		.cfi_restore 14
 446              		.cfi_def_cfa_offset 0
 447              		.loc 1 223 0
 448 001e FFF7FEBF 		b	aseba_sin
 449              	.LVL49:
 450              	.L51:
 451              		.cfi_restore_state
 452 0022 FFF7FEFF 		bl	__stack_chk_fail
 453              	.LVL50:
 454              	.L53:
 455 0026 00BF     		.align	2
 456              	.L52:
ARM GAS  /var/folders/d2/nstgp4h54kz7g1l847x_b8wc0000gn/T//cccORz8f.s 			page 9


 457 0028 00000000 		.word	__stack_chk_guard
 458              		.cfi_endproc
 459              	.LFE3:
 460              		.size	aseba_cos, .-aseba_cos
 461              		.section	.text.aseba_sqrt,"ax",%progbits
 462              		.align	1
 463              		.p2align 4,,15
 464              		.global	aseba_sqrt
 465              		.syntax unified
 466              		.thumb
 467              		.thumb_func
 468              		.fpu fpv4-sp-d16
 469              		.type	aseba_sqrt, %function
 470              	aseba_sqrt:
 471              	.LFB4:
 472              		.loc 1 228 0
 473              		.cfi_startproc
 474              		@ args = 0, pretend = 0, frame = 8
 475              		@ frame_needed = 0, uses_anonymous_args = 0
 476              	.LVL51:
 477 0000 30B5     		push	{r4, r5, lr}
 478              		.cfi_def_cfa_offset 12
 479              		.cfi_offset 4, -12
 480              		.cfi_offset 5, -8
 481              		.cfi_offset 14, -4
 482 0002 154D     		ldr	r5, .L70
 483 0004 83B0     		sub	sp, sp, #12
 484              		.cfi_def_cfa_offset 24
 485              		.loc 1 228 0
 486 0006 2B68     		ldr	r3, [r5]
 487 0008 0193     		str	r3, [sp, #4]
 488              	.LVL52:
 489              		.loc 1 233 0
 490 000a B0F5804F 		cmp	r0, #16384
 491              		.loc 1 231 0
 492 000e 4FF48043 		mov	r3, #16384
 493              		.loc 1 233 0
 494 0012 03DA     		bge	.L55
 495              	.LVL53:
 496              	.L56:
 497              		.loc 1 234 0
 498 0014 9B10     		asrs	r3, r3, #2
 499              	.LVL54:
 500              		.loc 1 233 0
 501 0016 9842     		cmp	r0, r3
 502 0018 FCDB     		blt	.L56
 503              		.loc 1 236 0
 504 001a CBB1     		cbz	r3, .L67
 505              	.LVL55:
 506              	.L55:
 507              		.loc 1 231 0
 508 001c 0022     		movs	r2, #0
 509 001e 08E0     		b	.L59
 510              	.LVL56:
 511              	.L68:
 512              		.loc 1 240 0
 513 0020 99B2     		uxth	r1, r3
ARM GAS  /var/folders/d2/nstgp4h54kz7g1l847x_b8wc0000gn/T//cccORz8f.s 			page 10


 514 0022 0A44     		add	r2, r2, r1
 515              	.LVL57:
 516 0024 801A     		subs	r0, r0, r2
 517              	.LVL58:
 518              		.loc 1 236 0
 519 0026 9B10     		asrs	r3, r3, #2
 520              	.LVL59:
 521              		.loc 1 241 0
 522 0028 01EB0402 		add	r2, r1, r4
 523              		.loc 1 240 0
 524 002c 00B2     		sxth	r0, r0
 525              	.LVL60:
 526              		.loc 1 241 0
 527 002e 12B2     		sxth	r2, r2
 528              	.LVL61:
 529              		.loc 1 236 0
 530 0030 07D0     		beq	.L57
 531              	.LVL62:
 532              	.L59:
 533              		.loc 1 238 0
 534 0032 D118     		adds	r1, r2, r3
 535 0034 8842     		cmp	r0, r1
 536 0036 4FEA6204 		asr	r4, r2, #1
 537 003a F1DA     		bge	.L68
 538              		.loc 1 236 0
 539 003c 9B10     		asrs	r3, r3, #2
 540              	.LVL63:
 541              		.loc 1 245 0
 542 003e 2246     		mov	r2, r4
 543              	.LVL64:
 544              		.loc 1 236 0
 545 0040 F7D1     		bne	.L59
 546              	.LVL65:
 547              	.L57:
 548              		.loc 1 250 0
 549 0042 0199     		ldr	r1, [sp, #4]
 550 0044 2B68     		ldr	r3, [r5]
 551 0046 9942     		cmp	r1, r3
 552 0048 1046     		mov	r0, r2
 553              	.LVL66:
 554 004a 03D1     		bne	.L69
 555 004c 03B0     		add	sp, sp, #12
 556              		.cfi_remember_state
 557              		.cfi_def_cfa_offset 12
 558              		@ sp needed
 559 004e 30BD     		pop	{r4, r5, pc}
 560              	.LVL67:
 561              	.L67:
 562              		.cfi_restore_state
 563              		.loc 1 230 0
 564 0050 1A46     		mov	r2, r3
 565 0052 F6E7     		b	.L57
 566              	.LVL68:
 567              	.L69:
 568              		.loc 1 250 0
 569 0054 FFF7FEFF 		bl	__stack_chk_fail
 570              	.LVL69:
ARM GAS  /var/folders/d2/nstgp4h54kz7g1l847x_b8wc0000gn/T//cccORz8f.s 			page 11


 571              	.L71:
 572              		.align	2
 573              	.L70:
 574 0058 00000000 		.word	__stack_chk_guard
 575              		.cfi_endproc
 576              	.LFE4:
 577              		.size	aseba_sqrt, .-aseba_sqrt
 578              		.section	.text.aseba_comb_sort,"ax",%progbits
 579              		.align	1
 580              		.p2align 4,,15
 581              		.global	aseba_comb_sort
 582              		.syntax unified
 583              		.thumb
 584              		.thumb_func
 585              		.fpu fpv4-sp-d16
 586              		.type	aseba_comb_sort, %function
 587              	aseba_comb_sort:
 588              	.LFB5:
 589              		.loc 1 254 0
 590              		.cfi_startproc
 591              		@ args = 0, pretend = 0, frame = 8
 592              		@ frame_needed = 0, uses_anonymous_args = 0
 593              	.LVL70:
 594 0000 2DE9F043 		push	{r4, r5, r6, r7, r8, r9, lr}
 595              		.cfi_def_cfa_offset 28
 596              		.cfi_offset 4, -28
 597              		.cfi_offset 5, -24
 598              		.cfi_offset 6, -20
 599              		.cfi_offset 7, -16
 600              		.cfi_offset 8, -12
 601              		.cfi_offset 9, -8
 602              		.cfi_offset 14, -4
 603 0004 DFF880E0 		ldr	lr, .L91
 604              		.loc 1 266 0
 605 0008 DFF880C0 		ldr	ip, .L91+4
 606              		.loc 1 254 0
 607 000c DEF80030 		ldr	r3, [lr]
 608 0010 83B0     		sub	sp, sp, #12
 609              		.cfi_def_cfa_offset 40
 610              		.loc 1 255 0
 611 0012 0F46     		mov	r7, r1
 612              		.loc 1 259 0
 613 0014 012F     		cmp	r7, #1
 614              		.loc 1 254 0
 615 0016 0193     		str	r3, [sp, #4]
 616              	.LVL71:
 617              		.loc 1 256 0
 618 0018 4FF00009 		mov	r9, #0
 619              	.LVL72:
 620              		.loc 1 259 0
 621 001c 1FD9     		bls	.L89
 622              	.LVL73:
 623              	.L77:
 624              		.loc 1 266 0
 625 001e BF00     		lsls	r7, r7, #2
 626              	.LVL74:
 627 0020 ACFB0737 		umull	r3, r7, ip, r7
ARM GAS  /var/folders/d2/nstgp4h54kz7g1l847x_b8wc0000gn/T//cccORz8f.s 			page 12


 628 0024 BF08     		lsrs	r7, r7, #2
 629              		.loc 1 272 0
 630 0026 3A46     		mov	r2, r7
 631 0028 8A42     		cmp	r2, r1
 632              		.loc 1 266 0
 633 002a BFB2     		uxth	r7, r7
 634              	.LVL75:
 635              		.loc 1 272 0
 636 002c 1FDA     		bge	.L74
 637 002e 9046     		mov	r8, r2
 638              	.L80:
 639 0030 0023     		movs	r3, #0
 640 0032 9946     		mov	r9, r3
 641              	.LVL76:
 642              	.L76:
 643              		.loc 1 274 0
 644 0034 30F91340 		ldrsh	r4, [r0, r3, lsl #1]
 645 0038 30F91250 		ldrsh	r5, [r0, r2, lsl #1]
 646 003c 661B     		subs	r6, r4, r5
 647 003e 002E     		cmp	r6, #0
 648 0040 05DD     		ble	.L75
 649              	.LVL77:
 650              	.LBB201:
 651              		.loc 1 277 0
 652 0042 20F81350 		strh	r5, [r0, r3, lsl #1]	@ movhi
 653              		.loc 1 278 0
 654 0046 20F81240 		strh	r4, [r0, r2, lsl #1]	@ movhi
 655              	.LVL78:
 656              		.loc 1 279 0
 657 004a 4FF00109 		mov	r9, #1
 658              	.LVL79:
 659              	.L75:
 660              	.LBE201:
 661              		.loc 1 272 0 discriminator 2
 662 004e 0133     		adds	r3, r3, #1
 663              	.LVL80:
 664 0050 9BB2     		uxth	r3, r3
 665              	.LVL81:
 666 0052 03EB0802 		add	r2, r3, r8
 667 0056 8A42     		cmp	r2, r1
 668 0058 ECDB     		blt	.L76
 669              	.LVL82:
 670              		.loc 1 259 0
 671 005a 012F     		cmp	r7, #1
 672 005c DFD8     		bhi	.L77
 673              	.LVL83:
 674              	.L89:
 675              		.loc 1 259 0 is_stmt 0 discriminator 1
 676 005e B9F1000F 		cmp	r9, #0
 677 0062 06D0     		beq	.L72
 678              	.LVL84:
 679              		.loc 1 272 0 is_stmt 1
 680 0064 8F42     		cmp	r7, r1
 681 0066 3A46     		mov	r2, r7
 682 0068 03DA     		bge	.L72
 683 006a B846     		mov	r8, r7
 684 006c E0E7     		b	.L80
ARM GAS  /var/folders/d2/nstgp4h54kz7g1l847x_b8wc0000gn/T//cccORz8f.s 			page 13


 685              	.L74:
 686              		.loc 1 259 0
 687 006e 012F     		cmp	r7, #1
 688 0070 D5D1     		bne	.L77
 689              	.LVL85:
 690              	.L72:
 691              		.loc 1 283 0
 692 0072 019A     		ldr	r2, [sp, #4]
 693 0074 DEF80030 		ldr	r3, [lr]
 694 0078 9A42     		cmp	r2, r3
 695 007a 02D1     		bne	.L90
 696 007c 03B0     		add	sp, sp, #12
 697              		.cfi_remember_state
 698              		.cfi_def_cfa_offset 28
 699              		@ sp needed
 700 007e BDE8F083 		pop	{r4, r5, r6, r7, r8, r9, pc}
 701              	.LVL86:
 702              	.L90:
 703              		.cfi_restore_state
 704 0082 FFF7FEFF 		bl	__stack_chk_fail
 705              	.LVL87:
 706              	.L92:
 707 0086 00BF     		.align	2
 708              	.L91:
 709 0088 00000000 		.word	__stack_chk_guard
 710 008c CDCCCCCC 		.word	-858993459
 711              		.cfi_endproc
 712              	.LFE5:
 713              		.size	aseba_comb_sort, .-aseba_comb_sort
 714              		.section	.text.AsebaNative_veccopy,"ax",%progbits
 715              		.align	1
 716              		.p2align 4,,15
 717              		.global	AsebaNative_veccopy
 718              		.syntax unified
 719              		.thumb
 720              		.thumb_func
 721              		.fpu fpv4-sp-d16
 722              		.type	AsebaNative_veccopy, %function
 723              	AsebaNative_veccopy:
 724              	.LFB6:
 725              		.loc 1 289 0
 726              		.cfi_startproc
 727              		@ args = 0, pretend = 0, frame = 8
 728              		@ frame_needed = 0, uses_anonymous_args = 0
 729              	.LVL88:
 730              	.LBB202:
 731              	.LBB203:
 732              		.file 2 "../e-puck2_main-processor/aseba/vm/natives.h"
 733              		.loc 2 90 0
 734 0000 B0F91C20 		ldrsh	r2, [r0, #28]
 735              	.LBE203:
 736              	.LBE202:
 737              		.loc 1 289 0
 738 0004 F0B5     		push	{r4, r5, r6, r7, lr}
 739              		.cfi_def_cfa_offset 20
 740              		.cfi_offset 4, -20
 741              		.cfi_offset 5, -16
ARM GAS  /var/folders/d2/nstgp4h54kz7g1l847x_b8wc0000gn/T//cccORz8f.s 			page 14


 742              		.cfi_offset 6, -12
 743              		.cfi_offset 7, -8
 744              		.cfi_offset 14, -4
 745              	.LBB207:
 746              	.LBB204:
 747              		.loc 2 90 0
 748 0006 93B2     		uxth	r3, r2
 749 0008 5C1E     		subs	r4, r3, #1
 750 000a 4569     		ldr	r5, [r0, #20]
 751              	.LVL89:
 752              	.LBE204:
 753              	.LBE207:
 754              		.loc 1 289 0
 755 000c 134F     		ldr	r7, .L103
 756              	.LBB208:
 757              	.LBB205:
 758              		.loc 2 90 0
 759 000e 24B2     		sxth	r4, r4
 760              	.LBE205:
 761              	.LBE208:
 762              	.LBB209:
 763              	.LBB210:
 764 0010 991E     		subs	r1, r3, #2
 765              	.LBE210:
 766              	.LBE209:
 767              	.LBB213:
 768              	.LBB206:
 769 0012 8483     		strh	r4, [r0, #28]	@ movhi
 770              	.LBE206:
 771              	.LBE213:
 772              	.LBB214:
 773              	.LBB211:
 774 0014 09B2     		sxth	r1, r1
 775              	.LBE211:
 776              	.LBE214:
 777              		.loc 1 291 0
 778 0016 35F81260 		ldrh	r6, [r5, r2, lsl #1]
 779              	.LVL90:
 780              	.LBB215:
 781              	.LBB212:
 782              		.loc 2 90 0
 783 001a 8183     		strh	r1, [r0, #28]	@ movhi
 784              	.LBE212:
 785              	.LBE215:
 786              	.LBB216:
 787              	.LBB217:
 788 001c DA1E     		subs	r2, r3, #3
 789              	.LBE217:
 790              	.LBE216:
 791              		.loc 1 292 0
 792 001e 35F81430 		ldrh	r3, [r5, r4, lsl #1]
 793              	.LVL91:
 794              	.LBB219:
 795              	.LBB218:
 796              		.loc 2 90 0
 797 0022 8283     		strh	r2, [r0, #28]	@ movhi
 798              	.LBE218:
ARM GAS  /var/folders/d2/nstgp4h54kz7g1l847x_b8wc0000gn/T//cccORz8f.s 			page 15


 799              	.LBE219:
 800              		.loc 1 289 0
 801 0024 83B0     		sub	sp, sp, #12
 802              		.cfi_def_cfa_offset 32
 803              		.loc 1 295 0
 804 0026 35F81150 		ldrh	r5, [r5, r1, lsl #1]
 805              	.LVL92:
 806              		.loc 1 289 0
 807 002a 3A68     		ldr	r2, [r7]
 808 002c 0192     		str	r2, [sp, #4]
 809              		.loc 1 299 0
 810 002e 6DB1     		cbz	r5, .L93
 811 0030 1D44     		add	r5, r5, r3
 812              	.LVL93:
 813 0032 ADB2     		uxth	r5, r5
 814 0034 F61A     		subs	r6, r6, r3
 815              	.LVL94:
 816              	.L95:
 817              		.loc 1 301 0 discriminator 3
 818 0036 C168     		ldr	r1, [r0, #12]
 819 0038 9A19     		adds	r2, r3, r6
 820 003a 92B2     		uxth	r2, r2
 821 003c 5C1C     		adds	r4, r3, #1
 822              	.LVL95:
 823 003e 31F91330 		ldrsh	r3, [r1, r3, lsl #1]
 824 0042 21F81230 		strh	r3, [r1, r2, lsl #1]	@ movhi
 825 0046 A3B2     		uxth	r3, r4
 826              		.loc 1 299 0 discriminator 3
 827 0048 AB42     		cmp	r3, r5
 828 004a F4D1     		bne	.L95
 829              	.LVL96:
 830              	.L93:
 831              		.loc 1 303 0
 832 004c 019A     		ldr	r2, [sp, #4]
 833 004e 3B68     		ldr	r3, [r7]
 834 0050 9A42     		cmp	r2, r3
 835 0052 01D1     		bne	.L102
 836 0054 03B0     		add	sp, sp, #12
 837              		.cfi_remember_state
 838              		.cfi_def_cfa_offset 20
 839              		@ sp needed
 840 0056 F0BD     		pop	{r4, r5, r6, r7, pc}
 841              	.L102:
 842              		.cfi_restore_state
 843 0058 FFF7FEFF 		bl	__stack_chk_fail
 844              	.LVL97:
 845              	.L104:
 846              		.align	2
 847              	.L103:
 848 005c 00000000 		.word	__stack_chk_guard
 849              		.cfi_endproc
 850              	.LFE6:
 851              		.size	AsebaNative_veccopy, .-AsebaNative_veccopy
 852              		.section	.text.AsebaNative_vecfill,"ax",%progbits
 853              		.align	1
 854              		.p2align 4,,15
 855              		.global	AsebaNative_vecfill
ARM GAS  /var/folders/d2/nstgp4h54kz7g1l847x_b8wc0000gn/T//cccORz8f.s 			page 16


 856              		.syntax unified
 857              		.thumb
 858              		.thumb_func
 859              		.fpu fpv4-sp-d16
 860              		.type	AsebaNative_vecfill, %function
 861              	AsebaNative_vecfill:
 862              	.LFB7:
 863              		.loc 1 318 0
 864              		.cfi_startproc
 865              		@ args = 0, pretend = 0, frame = 8
 866              		@ frame_needed = 0, uses_anonymous_args = 0
 867              	.LVL98:
 868              	.LBB220:
 869              	.LBB221:
 870              		.loc 2 90 0
 871 0000 B0F91C30 		ldrsh	r3, [r0, #28]
 872              	.LBE221:
 873              	.LBE220:
 874              		.loc 1 318 0
 875 0004 F0B5     		push	{r4, r5, r6, r7, lr}
 876              		.cfi_def_cfa_offset 20
 877              		.cfi_offset 4, -20
 878              		.cfi_offset 5, -16
 879              		.cfi_offset 6, -12
 880              		.cfi_offset 7, -8
 881              		.cfi_offset 14, -4
 882              	.LBB225:
 883              	.LBB222:
 884              		.loc 2 90 0
 885 0006 9AB2     		uxth	r2, r3
 886 0008 541E     		subs	r4, r2, #1
 887 000a 4569     		ldr	r5, [r0, #20]
 888              	.LVL99:
 889              	.LBE222:
 890              	.LBE225:
 891              		.loc 1 318 0
 892 000c 124F     		ldr	r7, .L115
 893              	.LBB226:
 894              	.LBB223:
 895              		.loc 2 90 0
 896 000e 24B2     		sxth	r4, r4
 897              	.LBE223:
 898              	.LBE226:
 899              	.LBB227:
 900              	.LBB228:
 901 0010 911E     		subs	r1, r2, #2
 902              	.LBE228:
 903              	.LBE227:
 904              	.LBB231:
 905              	.LBB224:
 906 0012 8483     		strh	r4, [r0, #28]	@ movhi
 907              	.LBE224:
 908              	.LBE231:
 909              	.LBB232:
 910              	.LBB229:
 911 0014 09B2     		sxth	r1, r1
 912              	.LBE229:
ARM GAS  /var/folders/d2/nstgp4h54kz7g1l847x_b8wc0000gn/T//cccORz8f.s 			page 17


 913              	.LBE232:
 914              		.loc 1 320 0
 915 0016 35F81330 		ldrh	r3, [r5, r3, lsl #1]
 916              	.LVL100:
 917              	.LBB233:
 918              	.LBB230:
 919              		.loc 2 90 0
 920 001a 8183     		strh	r1, [r0, #28]	@ movhi
 921              	.LBE230:
 922              	.LBE233:
 923              	.LBB234:
 924              	.LBB235:
 925 001c 033A     		subs	r2, r2, #3
 926              	.LBE235:
 927              	.LBE234:
 928              		.loc 1 321 0
 929 001e 35F81460 		ldrh	r6, [r5, r4, lsl #1]
 930              	.LVL101:
 931              	.LBB237:
 932              	.LBB236:
 933              		.loc 2 90 0
 934 0022 8283     		strh	r2, [r0, #28]	@ movhi
 935              	.LBE236:
 936              	.LBE237:
 937              		.loc 1 318 0
 938 0024 83B0     		sub	sp, sp, #12
 939              		.cfi_def_cfa_offset 32
 940              		.loc 1 324 0
 941 0026 35F81150 		ldrh	r5, [r5, r1, lsl #1]
 942              	.LVL102:
 943              		.loc 1 318 0
 944 002a 3A68     		ldr	r2, [r7]
 945 002c 0192     		str	r2, [sp, #4]
 946              		.loc 1 328 0
 947 002e 55B1     		cbz	r5, .L105
 948 0030 1D44     		add	r5, r5, r3
 949              	.LVL103:
 950 0032 ADB2     		uxth	r5, r5
 951              		.loc 1 330 0
 952 0034 7600     		lsls	r6, r6, #1
 953              	.LVL104:
 954              	.L107:
 955              		.loc 1 330 0 is_stmt 0 discriminator 3
 956 0036 C268     		ldr	r2, [r0, #12]
 957 0038 591C     		adds	r1, r3, #1
 958              	.LVL105:
 959 003a 945F     		ldrsh	r4, [r2, r6]
 960 003c 22F81340 		strh	r4, [r2, r3, lsl #1]	@ movhi
 961 0040 8BB2     		uxth	r3, r1
 962              		.loc 1 328 0 is_stmt 1 discriminator 3
 963 0042 AB42     		cmp	r3, r5
 964 0044 F7D1     		bne	.L107
 965              	.LVL106:
 966              	.L105:
 967              		.loc 1 332 0
 968 0046 019A     		ldr	r2, [sp, #4]
 969 0048 3B68     		ldr	r3, [r7]
ARM GAS  /var/folders/d2/nstgp4h54kz7g1l847x_b8wc0000gn/T//cccORz8f.s 			page 18


 970 004a 9A42     		cmp	r2, r3
 971 004c 01D1     		bne	.L114
 972 004e 03B0     		add	sp, sp, #12
 973              		.cfi_remember_state
 974              		.cfi_def_cfa_offset 20
 975              		@ sp needed
 976 0050 F0BD     		pop	{r4, r5, r6, r7, pc}
 977              	.L114:
 978              		.cfi_restore_state
 979 0052 FFF7FEFF 		bl	__stack_chk_fail
 980              	.LVL107:
 981              	.L116:
 982 0056 00BF     		.align	2
 983              	.L115:
 984 0058 00000000 		.word	__stack_chk_guard
 985              		.cfi_endproc
 986              	.LFE7:
 987              		.size	AsebaNative_vecfill, .-AsebaNative_vecfill
 988              		.section	.text.AsebaNative_vecaddscalar,"ax",%progbits
 989              		.align	1
 990              		.p2align 4,,15
 991              		.global	AsebaNative_vecaddscalar
 992              		.syntax unified
 993              		.thumb
 994              		.thumb_func
 995              		.fpu fpv4-sp-d16
 996              		.type	AsebaNative_vecaddscalar, %function
 997              	AsebaNative_vecaddscalar:
 998              	.LFB8:
 999              		.loc 1 347 0
 1000              		.cfi_startproc
 1001              		@ args = 0, pretend = 0, frame = 8
 1002              		@ frame_needed = 0, uses_anonymous_args = 0
 1003              	.LVL108:
 1004              	.LBB238:
 1005              	.LBB239:
 1006              		.loc 2 90 0
 1007 0000 B0F91CC0 		ldrsh	ip, [r0, #28]
 1008 0004 4169     		ldr	r1, [r0, #20]
 1009              	.LVL109:
 1010              	.LBE239:
 1011              	.LBE238:
 1012              		.loc 1 347 0
 1013 0006 F0B5     		push	{r4, r5, r6, r7, lr}
 1014              		.cfi_def_cfa_offset 20
 1015              		.cfi_offset 4, -20
 1016              		.cfi_offset 5, -16
 1017              		.cfi_offset 6, -12
 1018              		.cfi_offset 7, -8
 1019              		.cfi_offset 14, -4
 1020              	.LBB242:
 1021              	.LBB240:
 1022              		.loc 2 90 0
 1023 0008 1FFA8CF2 		uxth	r2, ip
 1024 000c 531E     		subs	r3, r2, #1
 1025 000e 1BB2     		sxth	r3, r3
 1026              	.LBE240:
ARM GAS  /var/folders/d2/nstgp4h54kz7g1l847x_b8wc0000gn/T//cccORz8f.s 			page 19


 1027              	.LBE242:
 1028              	.LBB243:
 1029              	.LBB244:
 1030 0010 961E     		subs	r6, r2, #2
 1031              	.LBE244:
 1032              	.LBE243:
 1033              	.LBB247:
 1034              	.LBB241:
 1035 0012 8383     		strh	r3, [r0, #28]	@ movhi
 1036              	.LBE241:
 1037              	.LBE247:
 1038              	.LBB248:
 1039              	.LBB245:
 1040 0014 36B2     		sxth	r6, r6
 1041              	.LBE245:
 1042              	.LBE248:
 1043              	.LBB249:
 1044              	.LBB250:
 1045 0016 D51E     		subs	r5, r2, #3
 1046              	.LBE250:
 1047              	.LBE249:
 1048              		.loc 1 349 0
 1049 0018 31F81CC0 		ldrh	ip, [r1, ip, lsl #1]
 1050              	.LVL110:
 1051              	.LBB253:
 1052              	.LBB246:
 1053              		.loc 2 90 0
 1054 001c 8683     		strh	r6, [r0, #28]	@ movhi
 1055              	.LBE246:
 1056              	.LBE253:
 1057              	.LBB254:
 1058              	.LBB251:
 1059 001e 2DB2     		sxth	r5, r5
 1060              	.LBE251:
 1061              	.LBE254:
 1062              		.loc 1 350 0
 1063 0020 31F81330 		ldrh	r3, [r1, r3, lsl #1]
 1064              	.LVL111:
 1065              	.LBB255:
 1066              	.LBB252:
 1067              		.loc 2 90 0
 1068 0024 8583     		strh	r5, [r0, #28]	@ movhi
 1069              	.LBE252:
 1070              	.LBE255:
 1071              	.LBB256:
 1072              	.LBB257:
 1073 0026 043A     		subs	r2, r2, #4
 1074              	.LBE257:
 1075              	.LBE256:
 1076              		.loc 1 351 0
 1077 0028 31F81660 		ldrh	r6, [r1, r6, lsl #1]
 1078              	.LVL112:
 1079              		.loc 1 347 0
 1080 002c 124F     		ldr	r7, .L127
 1081              	.LBB259:
 1082              	.LBB258:
 1083              		.loc 2 90 0
ARM GAS  /var/folders/d2/nstgp4h54kz7g1l847x_b8wc0000gn/T//cccORz8f.s 			page 20


 1084 002e 8283     		strh	r2, [r0, #28]	@ movhi
 1085              	.LBE258:
 1086              	.LBE259:
 1087              		.loc 1 347 0
 1088 0030 83B0     		sub	sp, sp, #12
 1089              		.cfi_def_cfa_offset 32
 1090              		.loc 1 356 0
 1091 0032 C468     		ldr	r4, [r0, #12]
 1092              		.loc 1 354 0
 1093 0034 31F81550 		ldrh	r5, [r1, r5, lsl #1]
 1094              	.LVL113:
 1095              		.loc 1 347 0
 1096 0038 3A68     		ldr	r2, [r7]
 1097              		.loc 1 356 0
 1098 003a 34F91660 		ldrsh	r6, [r4, r6, lsl #1]
 1099              	.LVL114:
 1100              		.loc 1 347 0
 1101 003e 0192     		str	r2, [sp, #4]
 1102              		.loc 1 358 0
 1103 0040 95B1     		cbz	r5, .L117
 1104 0042 1D44     		add	r5, r5, r3
 1105              	.LVL115:
 1106 0044 ADB2     		uxth	r5, r5
 1107 0046 ACEB030C 		sub	ip, ip, r3
 1108              	.LVL116:
 1109 004a B6B2     		uxth	r6, r6
 1110 004c 00E0     		b	.L119
 1111              	.LVL117:
 1112              	.L125:
 1113 004e C468     		ldr	r4, [r0, #12]
 1114              	.LVL118:
 1115              	.L119:
 1116              		.loc 1 360 0 discriminator 3
 1117 0050 34F81310 		ldrh	r1, [r4, r3, lsl #1]
 1118 0054 03EB0C02 		add	r2, r3, ip
 1119 0058 0133     		adds	r3, r3, #1
 1120              	.LVL119:
 1121 005a 92B2     		uxth	r2, r2
 1122 005c 9BB2     		uxth	r3, r3
 1123              	.LVL120:
 1124 005e 3144     		add	r1, r1, r6
 1125              		.loc 1 358 0 discriminator 3
 1126 0060 AB42     		cmp	r3, r5
 1127              		.loc 1 360 0 discriminator 3
 1128 0062 24F81210 		strh	r1, [r4, r2, lsl #1]	@ movhi
 1129              		.loc 1 358 0 discriminator 3
 1130 0066 F2D1     		bne	.L125
 1131              	.LVL121:
 1132              	.L117:
 1133              		.loc 1 362 0
 1134 0068 019A     		ldr	r2, [sp, #4]
 1135 006a 3B68     		ldr	r3, [r7]
 1136 006c 9A42     		cmp	r2, r3
 1137 006e 01D1     		bne	.L126
 1138 0070 03B0     		add	sp, sp, #12
 1139              		.cfi_remember_state
 1140              		.cfi_def_cfa_offset 20
ARM GAS  /var/folders/d2/nstgp4h54kz7g1l847x_b8wc0000gn/T//cccORz8f.s 			page 21


 1141              		@ sp needed
 1142 0072 F0BD     		pop	{r4, r5, r6, r7, pc}
 1143              	.L126:
 1144              		.cfi_restore_state
 1145 0074 FFF7FEFF 		bl	__stack_chk_fail
 1146              	.LVL122:
 1147              	.L128:
 1148              		.align	2
 1149              	.L127:
 1150 0078 00000000 		.word	__stack_chk_guard
 1151              		.cfi_endproc
 1152              	.LFE8:
 1153              		.size	AsebaNative_vecaddscalar, .-AsebaNative_vecaddscalar
 1154              		.section	.text.AsebaNative_vecadd,"ax",%progbits
 1155              		.align	1
 1156              		.p2align 4,,15
 1157              		.global	AsebaNative_vecadd
 1158              		.syntax unified
 1159              		.thumb
 1160              		.thumb_func
 1161              		.fpu fpv4-sp-d16
 1162              		.type	AsebaNative_vecadd, %function
 1163              	AsebaNative_vecadd:
 1164              	.LFB9:
 1165              		.loc 1 378 0
 1166              		.cfi_startproc
 1167              		@ args = 0, pretend = 0, frame = 8
 1168              		@ frame_needed = 0, uses_anonymous_args = 0
 1169              	.LVL123:
 1170 0000 F0B5     		push	{r4, r5, r6, r7, lr}
 1171              		.cfi_def_cfa_offset 20
 1172              		.cfi_offset 4, -20
 1173              		.cfi_offset 5, -16
 1174              		.cfi_offset 6, -12
 1175              		.cfi_offset 7, -8
 1176              		.cfi_offset 14, -4
 1177              	.LBB260:
 1178              	.LBB261:
 1179              		.loc 2 90 0
 1180 0002 B0F91C60 		ldrsh	r6, [r0, #28]
 1181 0006 4169     		ldr	r1, [r0, #20]
 1182              	.LVL124:
 1183              	.LBE261:
 1184              	.LBE260:
 1185              		.loc 1 378 0
 1186 0008 DFF86CC0 		ldr	ip, .L139
 1187              	.LBB264:
 1188              	.LBB262:
 1189              		.loc 2 90 0
 1190 000c B2B2     		uxth	r2, r6
 1191 000e 531E     		subs	r3, r2, #1
 1192 0010 1BB2     		sxth	r3, r3
 1193              	.LBE262:
 1194              	.LBE264:
 1195              	.LBB265:
 1196              	.LBB266:
 1197 0012 951E     		subs	r5, r2, #2
ARM GAS  /var/folders/d2/nstgp4h54kz7g1l847x_b8wc0000gn/T//cccORz8f.s 			page 22


 1198              	.LBE266:
 1199              	.LBE265:
 1200              	.LBB269:
 1201              	.LBB263:
 1202 0014 8383     		strh	r3, [r0, #28]	@ movhi
 1203              	.LBE263:
 1204              	.LBE269:
 1205              	.LBB270:
 1206              	.LBB267:
 1207 0016 2DB2     		sxth	r5, r5
 1208              	.LBE267:
 1209              	.LBE270:
 1210              	.LBB271:
 1211              	.LBB272:
 1212 0018 D41E     		subs	r4, r2, #3
 1213              	.LBE272:
 1214              	.LBE271:
 1215              		.loc 1 380 0
 1216 001a 31F81670 		ldrh	r7, [r1, r6, lsl #1]
 1217              	.LVL125:
 1218              	.LBB275:
 1219              	.LBB268:
 1220              		.loc 2 90 0
 1221 001e 8583     		strh	r5, [r0, #28]	@ movhi
 1222              	.LBE268:
 1223              	.LBE275:
 1224              	.LBB276:
 1225              	.LBB273:
 1226 0020 24B2     		sxth	r4, r4
 1227              	.LBE273:
 1228              	.LBE276:
 1229              		.loc 1 381 0
 1230 0022 31F81330 		ldrh	r3, [r1, r3, lsl #1]
 1231              	.LVL126:
 1232              	.LBB277:
 1233              	.LBB274:
 1234              		.loc 2 90 0
 1235 0026 8483     		strh	r4, [r0, #28]	@ movhi
 1236              	.LBE274:
 1237              	.LBE277:
 1238              	.LBB278:
 1239              	.LBB279:
 1240 0028 043A     		subs	r2, r2, #4
 1241              	.LBE279:
 1242              	.LBE278:
 1243              		.loc 1 382 0
 1244 002a 31F81560 		ldrh	r6, [r1, r5, lsl #1]
 1245              	.LVL127:
 1246              	.LBB281:
 1247              	.LBB280:
 1248              		.loc 2 90 0
 1249 002e 8283     		strh	r2, [r0, #28]	@ movhi
 1250              	.LBE280:
 1251              	.LBE281:
 1252              		.loc 1 378 0
 1253 0030 83B0     		sub	sp, sp, #12
 1254              		.cfi_def_cfa_offset 32
ARM GAS  /var/folders/d2/nstgp4h54kz7g1l847x_b8wc0000gn/T//cccORz8f.s 			page 23


 1255              		.loc 1 385 0
 1256 0032 31F81450 		ldrh	r5, [r1, r4, lsl #1]
 1257              	.LVL128:
 1258              		.loc 1 378 0
 1259 0036 DCF80020 		ldr	r2, [ip]
 1260 003a 0192     		str	r2, [sp, #4]
 1261              		.loc 1 388 0
 1262 003c 9DB1     		cbz	r5, .L129
 1263 003e 1D44     		add	r5, r5, r3
 1264              	.LVL129:
 1265 0040 ADB2     		uxth	r5, r5
 1266 0042 FF1A     		subs	r7, r7, r3
 1267              	.LVL130:
 1268 0044 F61A     		subs	r6, r6, r3
 1269              	.LVL131:
 1270              	.L131:
 1271              		.loc 1 390 0 discriminator 3
 1272 0046 9C19     		adds	r4, r3, r6
 1273 0048 C268     		ldr	r2, [r0, #12]
 1274 004a A4B2     		uxth	r4, r4
 1275 004c 32F813E0 		ldrh	lr, [r2, r3, lsl #1]
 1276 0050 32F81440 		ldrh	r4, [r2, r4, lsl #1]
 1277 0054 D919     		adds	r1, r3, r7
 1278 0056 0133     		adds	r3, r3, #1
 1279              	.LVL132:
 1280 0058 89B2     		uxth	r1, r1
 1281 005a 9BB2     		uxth	r3, r3
 1282 005c 7444     		add	r4, r4, lr
 1283              		.loc 1 388 0 discriminator 3
 1284 005e AB42     		cmp	r3, r5
 1285              		.loc 1 390 0 discriminator 3
 1286 0060 22F81140 		strh	r4, [r2, r1, lsl #1]	@ movhi
 1287              	.LVL133:
 1288              		.loc 1 388 0 discriminator 3
 1289 0064 EFD1     		bne	.L131
 1290              	.L129:
 1291              		.loc 1 392 0
 1292 0066 019A     		ldr	r2, [sp, #4]
 1293 0068 DCF80030 		ldr	r3, [ip]
 1294 006c 9A42     		cmp	r2, r3
 1295 006e 01D1     		bne	.L138
 1296 0070 03B0     		add	sp, sp, #12
 1297              		.cfi_remember_state
 1298              		.cfi_def_cfa_offset 20
 1299              		@ sp needed
 1300 0072 F0BD     		pop	{r4, r5, r6, r7, pc}
 1301              	.L138:
 1302              		.cfi_restore_state
 1303 0074 FFF7FEFF 		bl	__stack_chk_fail
 1304              	.LVL134:
 1305              	.L140:
 1306              		.align	2
 1307              	.L139:
 1308 0078 00000000 		.word	__stack_chk_guard
 1309              		.cfi_endproc
 1310              	.LFE9:
 1311              		.size	AsebaNative_vecadd, .-AsebaNative_vecadd
ARM GAS  /var/folders/d2/nstgp4h54kz7g1l847x_b8wc0000gn/T//cccORz8f.s 			page 24


 1312              		.section	.text.AsebaNative_vecsub,"ax",%progbits
 1313              		.align	1
 1314              		.p2align 4,,15
 1315              		.global	AsebaNative_vecsub
 1316              		.syntax unified
 1317              		.thumb
 1318              		.thumb_func
 1319              		.fpu fpv4-sp-d16
 1320              		.type	AsebaNative_vecsub, %function
 1321              	AsebaNative_vecsub:
 1322              	.LFB10:
 1323              		.loc 1 408 0
 1324              		.cfi_startproc
 1325              		@ args = 0, pretend = 0, frame = 8
 1326              		@ frame_needed = 0, uses_anonymous_args = 0
 1327              	.LVL135:
 1328 0000 F0B5     		push	{r4, r5, r6, r7, lr}
 1329              		.cfi_def_cfa_offset 20
 1330              		.cfi_offset 4, -20
 1331              		.cfi_offset 5, -16
 1332              		.cfi_offset 6, -12
 1333              		.cfi_offset 7, -8
 1334              		.cfi_offset 14, -4
 1335              	.LBB282:
 1336              	.LBB283:
 1337              		.loc 2 90 0
 1338 0002 B0F91C60 		ldrsh	r6, [r0, #28]
 1339 0006 4169     		ldr	r1, [r0, #20]
 1340              	.LVL136:
 1341              	.LBE283:
 1342              	.LBE282:
 1343              		.loc 1 408 0
 1344 0008 DFF870C0 		ldr	ip, .L151
 1345              	.LBB286:
 1346              	.LBB284:
 1347              		.loc 2 90 0
 1348 000c B2B2     		uxth	r2, r6
 1349 000e 531E     		subs	r3, r2, #1
 1350 0010 1BB2     		sxth	r3, r3
 1351              	.LBE284:
 1352              	.LBE286:
 1353              	.LBB287:
 1354              	.LBB288:
 1355 0012 951E     		subs	r5, r2, #2
 1356              	.LBE288:
 1357              	.LBE287:
 1358              	.LBB291:
 1359              	.LBB285:
 1360 0014 8383     		strh	r3, [r0, #28]	@ movhi
 1361              	.LBE285:
 1362              	.LBE291:
 1363              	.LBB292:
 1364              	.LBB289:
 1365 0016 2DB2     		sxth	r5, r5
 1366              	.LBE289:
 1367              	.LBE292:
 1368              	.LBB293:
ARM GAS  /var/folders/d2/nstgp4h54kz7g1l847x_b8wc0000gn/T//cccORz8f.s 			page 25


 1369              	.LBB294:
 1370 0018 D41E     		subs	r4, r2, #3
 1371              	.LBE294:
 1372              	.LBE293:
 1373              		.loc 1 410 0
 1374 001a 31F81670 		ldrh	r7, [r1, r6, lsl #1]
 1375              	.LVL137:
 1376              	.LBB297:
 1377              	.LBB290:
 1378              		.loc 2 90 0
 1379 001e 8583     		strh	r5, [r0, #28]	@ movhi
 1380              	.LBE290:
 1381              	.LBE297:
 1382              	.LBB298:
 1383              	.LBB295:
 1384 0020 24B2     		sxth	r4, r4
 1385              	.LBE295:
 1386              	.LBE298:
 1387              		.loc 1 411 0
 1388 0022 31F81330 		ldrh	r3, [r1, r3, lsl #1]
 1389              	.LVL138:
 1390              	.LBB299:
 1391              	.LBB296:
 1392              		.loc 2 90 0
 1393 0026 8483     		strh	r4, [r0, #28]	@ movhi
 1394              	.LBE296:
 1395              	.LBE299:
 1396              	.LBB300:
 1397              	.LBB301:
 1398 0028 043A     		subs	r2, r2, #4
 1399              	.LBE301:
 1400              	.LBE300:
 1401              		.loc 1 412 0
 1402 002a 31F81560 		ldrh	r6, [r1, r5, lsl #1]
 1403              	.LVL139:
 1404              	.LBB303:
 1405              	.LBB302:
 1406              		.loc 2 90 0
 1407 002e 8283     		strh	r2, [r0, #28]	@ movhi
 1408              	.LBE302:
 1409              	.LBE303:
 1410              		.loc 1 408 0
 1411 0030 83B0     		sub	sp, sp, #12
 1412              		.cfi_def_cfa_offset 32
 1413              		.loc 1 415 0
 1414 0032 31F81450 		ldrh	r5, [r1, r4, lsl #1]
 1415              	.LVL140:
 1416              		.loc 1 408 0
 1417 0036 DCF80020 		ldr	r2, [ip]
 1418 003a 0192     		str	r2, [sp, #4]
 1419              		.loc 1 418 0
 1420 003c A5B1     		cbz	r5, .L141
 1421 003e 1D44     		add	r5, r5, r3
 1422              	.LVL141:
 1423 0040 ADB2     		uxth	r5, r5
 1424 0042 FF1A     		subs	r7, r7, r3
 1425              	.LVL142:
ARM GAS  /var/folders/d2/nstgp4h54kz7g1l847x_b8wc0000gn/T//cccORz8f.s 			page 26


 1426 0044 F61A     		subs	r6, r6, r3
 1427              	.LVL143:
 1428              	.L143:
 1429              		.loc 1 420 0 discriminator 3
 1430 0046 9C19     		adds	r4, r3, r6
 1431 0048 C268     		ldr	r2, [r0, #12]
 1432 004a A4B2     		uxth	r4, r4
 1433 004c D919     		adds	r1, r3, r7
 1434 004e 32F814E0 		ldrh	lr, [r2, r4, lsl #1]
 1435 0052 32F81340 		ldrh	r4, [r2, r3, lsl #1]
 1436 0056 0133     		adds	r3, r3, #1
 1437              	.LVL144:
 1438 0058 89B2     		uxth	r1, r1
 1439 005a 9BB2     		uxth	r3, r3
 1440 005c A4EB0E04 		sub	r4, r4, lr
 1441              		.loc 1 418 0 discriminator 3
 1442 0060 AB42     		cmp	r3, r5
 1443              		.loc 1 420 0 discriminator 3
 1444 0062 22F81140 		strh	r4, [r2, r1, lsl #1]	@ movhi
 1445              	.LVL145:
 1446              		.loc 1 418 0 discriminator 3
 1447 0066 EED1     		bne	.L143
 1448              	.L141:
 1449              		.loc 1 422 0
 1450 0068 019A     		ldr	r2, [sp, #4]
 1451 006a DCF80030 		ldr	r3, [ip]
 1452 006e 9A42     		cmp	r2, r3
 1453 0070 01D1     		bne	.L150
 1454 0072 03B0     		add	sp, sp, #12
 1455              		.cfi_remember_state
 1456              		.cfi_def_cfa_offset 20
 1457              		@ sp needed
 1458 0074 F0BD     		pop	{r4, r5, r6, r7, pc}
 1459              	.L150:
 1460              		.cfi_restore_state
 1461 0076 FFF7FEFF 		bl	__stack_chk_fail
 1462              	.LVL146:
 1463              	.L152:
 1464 007a 00BF     		.align	2
 1465              	.L151:
 1466 007c 00000000 		.word	__stack_chk_guard
 1467              		.cfi_endproc
 1468              	.LFE10:
 1469              		.size	AsebaNative_vecsub, .-AsebaNative_vecsub
 1470              		.section	.text.AsebaNative_vecmul,"ax",%progbits
 1471              		.align	1
 1472              		.p2align 4,,15
 1473              		.global	AsebaNative_vecmul
 1474              		.syntax unified
 1475              		.thumb
 1476              		.thumb_func
 1477              		.fpu fpv4-sp-d16
 1478              		.type	AsebaNative_vecmul, %function
 1479              	AsebaNative_vecmul:
 1480              	.LFB11:
 1481              		.loc 1 438 0
 1482              		.cfi_startproc
ARM GAS  /var/folders/d2/nstgp4h54kz7g1l847x_b8wc0000gn/T//cccORz8f.s 			page 27


 1483              		@ args = 0, pretend = 0, frame = 8
 1484              		@ frame_needed = 0, uses_anonymous_args = 0
 1485              	.LVL147:
 1486 0000 F0B5     		push	{r4, r5, r6, r7, lr}
 1487              		.cfi_def_cfa_offset 20
 1488              		.cfi_offset 4, -20
 1489              		.cfi_offset 5, -16
 1490              		.cfi_offset 6, -12
 1491              		.cfi_offset 7, -8
 1492              		.cfi_offset 14, -4
 1493              	.LBB304:
 1494              	.LBB305:
 1495              		.loc 2 90 0
 1496 0002 B0F91C60 		ldrsh	r6, [r0, #28]
 1497 0006 4169     		ldr	r1, [r0, #20]
 1498              	.LVL148:
 1499              	.LBE305:
 1500              	.LBE304:
 1501              		.loc 1 438 0
 1502 0008 DFF870C0 		ldr	ip, .L163
 1503              	.LBB308:
 1504              	.LBB306:
 1505              		.loc 2 90 0
 1506 000c B2B2     		uxth	r2, r6
 1507 000e 531E     		subs	r3, r2, #1
 1508 0010 1BB2     		sxth	r3, r3
 1509              	.LBE306:
 1510              	.LBE308:
 1511              	.LBB309:
 1512              	.LBB310:
 1513 0012 951E     		subs	r5, r2, #2
 1514              	.LBE310:
 1515              	.LBE309:
 1516              	.LBB313:
 1517              	.LBB307:
 1518 0014 8383     		strh	r3, [r0, #28]	@ movhi
 1519              	.LBE307:
 1520              	.LBE313:
 1521              	.LBB314:
 1522              	.LBB311:
 1523 0016 2DB2     		sxth	r5, r5
 1524              	.LBE311:
 1525              	.LBE314:
 1526              	.LBB315:
 1527              	.LBB316:
 1528 0018 D41E     		subs	r4, r2, #3
 1529              	.LBE316:
 1530              	.LBE315:
 1531              		.loc 1 440 0
 1532 001a 31F81670 		ldrh	r7, [r1, r6, lsl #1]
 1533              	.LVL149:
 1534              	.LBB319:
 1535              	.LBB312:
 1536              		.loc 2 90 0
 1537 001e 8583     		strh	r5, [r0, #28]	@ movhi
 1538              	.LBE312:
 1539              	.LBE319:
ARM GAS  /var/folders/d2/nstgp4h54kz7g1l847x_b8wc0000gn/T//cccORz8f.s 			page 28


 1540              	.LBB320:
 1541              	.LBB317:
 1542 0020 24B2     		sxth	r4, r4
 1543              	.LBE317:
 1544              	.LBE320:
 1545              		.loc 1 441 0
 1546 0022 31F81330 		ldrh	r3, [r1, r3, lsl #1]
 1547              	.LVL150:
 1548              	.LBB321:
 1549              	.LBB318:
 1550              		.loc 2 90 0
 1551 0026 8483     		strh	r4, [r0, #28]	@ movhi
 1552              	.LBE318:
 1553              	.LBE321:
 1554              	.LBB322:
 1555              	.LBB323:
 1556 0028 043A     		subs	r2, r2, #4
 1557              	.LBE323:
 1558              	.LBE322:
 1559              		.loc 1 442 0
 1560 002a 31F81560 		ldrh	r6, [r1, r5, lsl #1]
 1561              	.LVL151:
 1562              	.LBB325:
 1563              	.LBB324:
 1564              		.loc 2 90 0
 1565 002e 8283     		strh	r2, [r0, #28]	@ movhi
 1566              	.LBE324:
 1567              	.LBE325:
 1568              		.loc 1 438 0
 1569 0030 83B0     		sub	sp, sp, #12
 1570              		.cfi_def_cfa_offset 32
 1571              		.loc 1 445 0
 1572 0032 31F81450 		ldrh	r5, [r1, r4, lsl #1]
 1573              	.LVL152:
 1574              		.loc 1 438 0
 1575 0036 DCF80020 		ldr	r2, [ip]
 1576 003a 0192     		str	r2, [sp, #4]
 1577              		.loc 1 448 0
 1578 003c A5B1     		cbz	r5, .L153
 1579 003e 1D44     		add	r5, r5, r3
 1580              	.LVL153:
 1581 0040 ADB2     		uxth	r5, r5
 1582 0042 FF1A     		subs	r7, r7, r3
 1583              	.LVL154:
 1584 0044 F61A     		subs	r6, r6, r3
 1585              	.LVL155:
 1586              	.L155:
 1587              		.loc 1 450 0 discriminator 3
 1588 0046 9C19     		adds	r4, r3, r6
 1589 0048 C268     		ldr	r2, [r0, #12]
 1590 004a A4B2     		uxth	r4, r4
 1591 004c 32F813E0 		ldrh	lr, [r2, r3, lsl #1]
 1592 0050 32F81440 		ldrh	r4, [r2, r4, lsl #1]
 1593 0054 D919     		adds	r1, r3, r7
 1594 0056 0133     		adds	r3, r3, #1
 1595              	.LVL156:
 1596 0058 89B2     		uxth	r1, r1
ARM GAS  /var/folders/d2/nstgp4h54kz7g1l847x_b8wc0000gn/T//cccORz8f.s 			page 29


 1597 005a 9BB2     		uxth	r3, r3
 1598 005c 14FB0EF4 		smulbb	r4, r4, lr
 1599              		.loc 1 448 0 discriminator 3
 1600 0060 AB42     		cmp	r3, r5
 1601              		.loc 1 450 0 discriminator 3
 1602 0062 22F81140 		strh	r4, [r2, r1, lsl #1]	@ movhi
 1603              	.LVL157:
 1604              		.loc 1 448 0 discriminator 3
 1605 0066 EED1     		bne	.L155
 1606              	.L153:
 1607              		.loc 1 452 0
 1608 0068 019A     		ldr	r2, [sp, #4]
 1609 006a DCF80030 		ldr	r3, [ip]
 1610 006e 9A42     		cmp	r2, r3
 1611 0070 01D1     		bne	.L162
 1612 0072 03B0     		add	sp, sp, #12
 1613              		.cfi_remember_state
 1614              		.cfi_def_cfa_offset 20
 1615              		@ sp needed
 1616 0074 F0BD     		pop	{r4, r5, r6, r7, pc}
 1617              	.L162:
 1618              		.cfi_restore_state
 1619 0076 FFF7FEFF 		bl	__stack_chk_fail
 1620              	.LVL158:
 1621              	.L164:
 1622 007a 00BF     		.align	2
 1623              	.L163:
 1624 007c 00000000 		.word	__stack_chk_guard
 1625              		.cfi_endproc
 1626              	.LFE11:
 1627              		.size	AsebaNative_vecmul, .-AsebaNative_vecmul
 1628              		.section	.text.AsebaNative_vecdiv,"ax",%progbits
 1629              		.align	1
 1630              		.p2align 4,,15
 1631              		.global	AsebaNative_vecdiv
 1632              		.syntax unified
 1633              		.thumb
 1634              		.thumb_func
 1635              		.fpu fpv4-sp-d16
 1636              		.type	AsebaNative_vecdiv, %function
 1637              	AsebaNative_vecdiv:
 1638              	.LFB12:
 1639              		.loc 1 468 0
 1640              		.cfi_startproc
 1641              		@ args = 0, pretend = 0, frame = 8
 1642              		@ frame_needed = 0, uses_anonymous_args = 0
 1643              	.LVL159:
 1644 0000 2DE9F041 		push	{r4, r5, r6, r7, r8, lr}
 1645              		.cfi_def_cfa_offset 24
 1646              		.cfi_offset 4, -24
 1647              		.cfi_offset 5, -20
 1648              		.cfi_offset 6, -16
 1649              		.cfi_offset 7, -12
 1650              		.cfi_offset 8, -8
 1651              		.cfi_offset 14, -4
 1652              	.LBB326:
 1653              	.LBB327:
ARM GAS  /var/folders/d2/nstgp4h54kz7g1l847x_b8wc0000gn/T//cccORz8f.s 			page 30


 1654              		.loc 2 90 0
 1655 0004 B0F91C60 		ldrsh	r6, [r0, #28]
 1656 0008 4169     		ldr	r1, [r0, #20]
 1657              	.LVL160:
 1658              	.LBE327:
 1659              	.LBE326:
 1660              		.loc 1 468 0
 1661 000a DFF8B4E0 		ldr	lr, .L181
 1662              	.LBB330:
 1663              	.LBB328:
 1664              		.loc 2 90 0
 1665 000e B3B2     		uxth	r3, r6
 1666 0010 5A1E     		subs	r2, r3, #1
 1667 0012 12B2     		sxth	r2, r2
 1668              	.LBE328:
 1669              	.LBE330:
 1670              	.LBB331:
 1671              	.LBB332:
 1672 0014 9D1E     		subs	r5, r3, #2
 1673              	.LBE332:
 1674              	.LBE331:
 1675              	.LBB335:
 1676              	.LBB329:
 1677 0016 8283     		strh	r2, [r0, #28]	@ movhi
 1678              	.LBE329:
 1679              	.LBE335:
 1680              	.LBB336:
 1681              	.LBB333:
 1682 0018 2DB2     		sxth	r5, r5
 1683              	.LBE333:
 1684              	.LBE336:
 1685              	.LBB337:
 1686              	.LBB338:
 1687 001a DC1E     		subs	r4, r3, #3
 1688              	.LBE338:
 1689              	.LBE337:
 1690              		.loc 1 470 0
 1691 001c 31F81670 		ldrh	r7, [r1, r6, lsl #1]
 1692              	.LVL161:
 1693              	.LBB341:
 1694              	.LBB334:
 1695              		.loc 2 90 0
 1696 0020 8583     		strh	r5, [r0, #28]	@ movhi
 1697              	.LBE334:
 1698              	.LBE341:
 1699              	.LBB342:
 1700              	.LBB339:
 1701 0022 24B2     		sxth	r4, r4
 1702              	.LBE339:
 1703              	.LBE342:
 1704              		.loc 1 471 0
 1705 0024 31F81220 		ldrh	r2, [r1, r2, lsl #1]
 1706              	.LVL162:
 1707              	.LBB343:
 1708              	.LBB340:
 1709              		.loc 2 90 0
 1710 0028 8483     		strh	r4, [r0, #28]	@ movhi
ARM GAS  /var/folders/d2/nstgp4h54kz7g1l847x_b8wc0000gn/T//cccORz8f.s 			page 31


 1711              	.LBE340:
 1712              	.LBE343:
 1713              	.LBB344:
 1714              	.LBB345:
 1715 002a 043B     		subs	r3, r3, #4
 1716              	.LBE345:
 1717              	.LBE344:
 1718              		.loc 1 472 0
 1719 002c 31F815C0 		ldrh	ip, [r1, r5, lsl #1]
 1720              	.LVL163:
 1721              	.LBB347:
 1722              	.LBB346:
 1723              		.loc 2 90 0
 1724 0030 8383     		strh	r3, [r0, #28]	@ movhi
 1725              	.LBE346:
 1726              	.LBE347:
 1727              		.loc 1 468 0
 1728 0032 82B0     		sub	sp, sp, #8
 1729              		.cfi_def_cfa_offset 32
 1730              		.loc 1 475 0
 1731 0034 31F81460 		ldrh	r6, [r1, r4, lsl #1]
 1732              	.LVL164:
 1733              		.loc 1 468 0
 1734 0038 DEF80030 		ldr	r3, [lr]
 1735 003c 0193     		str	r3, [sp, #4]
 1736              		.loc 1 478 0
 1737 003e 2EB3     		cbz	r6, .L165
 1738              	.LBB348:
 1739              		.loc 1 480 0
 1740 0040 C568     		ldr	r5, [r0, #12]
 1741              		.loc 1 481 0
 1742 0042 35F91C80 		ldrsh	r8, [r5, ip, lsl #1]
 1743              		.loc 1 480 0
 1744 0046 35F91210 		ldrsh	r1, [r5, r2, lsl #1]
 1745 004a 531C     		adds	r3, r2, #1
 1746 004c 9BB2     		uxth	r3, r3
 1747              	.LVL165:
 1748              		.loc 1 483 0
 1749 004e B8F1000F 		cmp	r8, #0
 1750 0052 23D0     		beq	.L168
 1751 0054 1644     		add	r6, r6, r2
 1752              	.LVL166:
 1753 0056 013F     		subs	r7, r7, #1
 1754              	.LVL167:
 1755 0058 B6B2     		uxth	r6, r6
 1756              		.loc 1 485 0
 1757 005a BF1A     		subs	r7, r7, r2
 1758              	.LVL168:
 1759 005c ACEB020C 		sub	ip, ip, r2
 1760              	.LVL169:
 1761 0060 09E0     		b	.L171
 1762              	.LVL170:
 1763              	.L169:
 1764              		.loc 1 480 0
 1765 0062 C568     		ldr	r5, [r0, #12]
 1766              		.loc 1 481 0
 1767 0064 35F91280 		ldrsh	r8, [r5, r2, lsl #1]
ARM GAS  /var/folders/d2/nstgp4h54kz7g1l847x_b8wc0000gn/T//cccORz8f.s 			page 32


 1768              	.LVL171:
 1769              		.loc 1 480 0
 1770 0068 35F91310 		ldrsh	r1, [r5, r3, lsl #1]
 1771 006c 0133     		adds	r3, r3, #1
 1772              	.LVL172:
 1773 006e 9BB2     		uxth	r3, r3
 1774              	.LVL173:
 1775              		.loc 1 483 0
 1776 0070 B8F1000F 		cmp	r8, #0
 1777 0074 12D0     		beq	.L168
 1778              	.L171:
 1779              		.loc 1 485 0
 1780 0076 DC19     		adds	r4, r3, r7
 1781 0078 A4B2     		uxth	r4, r4
 1782 007a 03EB0C02 		add	r2, r3, ip
 1783              	.LBE348:
 1784              		.loc 1 478 0
 1785 007e 9E42     		cmp	r6, r3
 1786              	.LBB349:
 1787              		.loc 1 485 0
 1788 0080 91FBF8F1 		sdiv	r1, r1, r8
 1789              	.LVL174:
 1790 0084 92B2     		uxth	r2, r2
 1791              	.LVL175:
 1792 0086 25F81410 		strh	r1, [r5, r4, lsl #1]	@ movhi
 1793              	.LBE349:
 1794              		.loc 1 478 0
 1795 008a EAD1     		bne	.L169
 1796              	.LVL176:
 1797              	.L165:
 1798              		.loc 1 494 0
 1799 008c 019A     		ldr	r2, [sp, #4]
 1800 008e DEF80030 		ldr	r3, [lr]
 1801 0092 9A42     		cmp	r2, r3
 1802 0094 12D1     		bne	.L180
 1803 0096 02B0     		add	sp, sp, #8
 1804              		.cfi_remember_state
 1805              		.cfi_def_cfa_offset 24
 1806              		@ sp needed
 1807 0098 BDE8F081 		pop	{r4, r5, r6, r7, r8, pc}
 1808              	.LVL177:
 1809              	.L168:
 1810              		.cfi_restore_state
 1811              	.LBB350:
 1812              		.loc 1 490 0
 1813 009c 0199     		ldr	r1, [sp, #4]
 1814              	.LVL178:
 1815 009e DEF80020 		ldr	r2, [lr]
 1816              		.loc 1 489 0
 1817 00a2 0223     		movs	r3, #2
 1818              	.LVL179:
 1819              		.loc 1 490 0
 1820 00a4 9142     		cmp	r1, r2
 1821              		.loc 1 489 0
 1822 00a6 0383     		strh	r3, [r0, #24]	@ movhi
 1823              		.loc 1 490 0
 1824 00a8 08D1     		bne	.L180
ARM GAS  /var/folders/d2/nstgp4h54kz7g1l847x_b8wc0000gn/T//cccORz8f.s 			page 33


 1825 00aa 00F11A02 		add	r2, r0, #26
 1826 00ae 49F20701 		movw	r1, #36871
 1827              	.LBE350:
 1828              		.loc 1 494 0
 1829 00b2 02B0     		add	sp, sp, #8
 1830              		.cfi_remember_state
 1831              		.cfi_def_cfa_offset 24
 1832              		@ sp needed
 1833 00b4 BDE8F041 		pop	{r4, r5, r6, r7, r8, lr}
 1834              		.cfi_restore 14
 1835              		.cfi_restore 8
 1836              		.cfi_restore 7
 1837              		.cfi_restore 6
 1838              		.cfi_restore 5
 1839              		.cfi_restore 4
 1840              		.cfi_def_cfa_offset 0
 1841              	.LVL180:
 1842              	.LBB351:
 1843              		.loc 1 490 0
 1844 00b8 FFF7FEBF 		b	AsebaSendMessage
 1845              	.LVL181:
 1846              	.L180:
 1847              		.cfi_restore_state
 1848              	.LBE351:
 1849              		.loc 1 494 0
 1850 00bc FFF7FEFF 		bl	__stack_chk_fail
 1851              	.LVL182:
 1852              	.L182:
 1853              		.align	2
 1854              	.L181:
 1855 00c0 00000000 		.word	__stack_chk_guard
 1856              		.cfi_endproc
 1857              	.LFE12:
 1858              		.size	AsebaNative_vecdiv, .-AsebaNative_vecdiv
 1859              		.section	.text.AsebaNative_vecmin,"ax",%progbits
 1860              		.align	1
 1861              		.p2align 4,,15
 1862              		.global	AsebaNative_vecmin
 1863              		.syntax unified
 1864              		.thumb
 1865              		.thumb_func
 1866              		.fpu fpv4-sp-d16
 1867              		.type	AsebaNative_vecmin, %function
 1868              	AsebaNative_vecmin:
 1869              	.LFB13:
 1870              		.loc 1 510 0
 1871              		.cfi_startproc
 1872              		@ args = 0, pretend = 0, frame = 8
 1873              		@ frame_needed = 0, uses_anonymous_args = 0
 1874              	.LVL183:
 1875 0000 F0B5     		push	{r4, r5, r6, r7, lr}
 1876              		.cfi_def_cfa_offset 20
 1877              		.cfi_offset 4, -20
 1878              		.cfi_offset 5, -16
 1879              		.cfi_offset 6, -12
 1880              		.cfi_offset 7, -8
 1881              		.cfi_offset 14, -4
ARM GAS  /var/folders/d2/nstgp4h54kz7g1l847x_b8wc0000gn/T//cccORz8f.s 			page 34


 1882              	.LBB352:
 1883              	.LBB353:
 1884              		.loc 2 90 0
 1885 0002 B0F91C60 		ldrsh	r6, [r0, #28]
 1886 0006 4169     		ldr	r1, [r0, #20]
 1887              	.LVL184:
 1888              	.LBE353:
 1889              	.LBE352:
 1890              		.loc 1 510 0
 1891 0008 DFF870C0 		ldr	ip, .L193
 1892              	.LBB356:
 1893              	.LBB354:
 1894              		.loc 2 90 0
 1895 000c B2B2     		uxth	r2, r6
 1896 000e 531E     		subs	r3, r2, #1
 1897 0010 1BB2     		sxth	r3, r3
 1898              	.LBE354:
 1899              	.LBE356:
 1900              	.LBB357:
 1901              	.LBB358:
 1902 0012 951E     		subs	r5, r2, #2
 1903              	.LBE358:
 1904              	.LBE357:
 1905              	.LBB361:
 1906              	.LBB355:
 1907 0014 8383     		strh	r3, [r0, #28]	@ movhi
 1908              	.LBE355:
 1909              	.LBE361:
 1910              	.LBB362:
 1911              	.LBB359:
 1912 0016 2DB2     		sxth	r5, r5
 1913              	.LBE359:
 1914              	.LBE362:
 1915              	.LBB363:
 1916              	.LBB364:
 1917 0018 D41E     		subs	r4, r2, #3
 1918              	.LBE364:
 1919              	.LBE363:
 1920              		.loc 1 512 0
 1921 001a 31F81670 		ldrh	r7, [r1, r6, lsl #1]
 1922              	.LVL185:
 1923              	.LBB367:
 1924              	.LBB360:
 1925              		.loc 2 90 0
 1926 001e 8583     		strh	r5, [r0, #28]	@ movhi
 1927              	.LBE360:
 1928              	.LBE367:
 1929              	.LBB368:
 1930              	.LBB365:
 1931 0020 24B2     		sxth	r4, r4
 1932              	.LBE365:
 1933              	.LBE368:
 1934              		.loc 1 513 0
 1935 0022 31F81330 		ldrh	r3, [r1, r3, lsl #1]
 1936              	.LVL186:
 1937              	.LBB369:
 1938              	.LBB366:
ARM GAS  /var/folders/d2/nstgp4h54kz7g1l847x_b8wc0000gn/T//cccORz8f.s 			page 35


 1939              		.loc 2 90 0
 1940 0026 8483     		strh	r4, [r0, #28]	@ movhi
 1941              	.LBE366:
 1942              	.LBE369:
 1943              	.LBB370:
 1944              	.LBB371:
 1945 0028 043A     		subs	r2, r2, #4
 1946              	.LBE371:
 1947              	.LBE370:
 1948              		.loc 1 514 0
 1949 002a 31F81560 		ldrh	r6, [r1, r5, lsl #1]
 1950              	.LVL187:
 1951              	.LBB373:
 1952              	.LBB372:
 1953              		.loc 2 90 0
 1954 002e 8283     		strh	r2, [r0, #28]	@ movhi
 1955              	.LBE372:
 1956              	.LBE373:
 1957              		.loc 1 510 0
 1958 0030 83B0     		sub	sp, sp, #12
 1959              		.cfi_def_cfa_offset 32
 1960              		.loc 1 517 0
 1961 0032 31F81450 		ldrh	r5, [r1, r4, lsl #1]
 1962              	.LVL188:
 1963              		.loc 1 510 0
 1964 0036 DCF80020 		ldr	r2, [ip]
 1965 003a 0192     		str	r2, [sp, #4]
 1966              		.loc 1 520 0
 1967 003c ADB1     		cbz	r5, .L183
 1968 003e 1D44     		add	r5, r5, r3
 1969              	.LVL189:
 1970 0040 ADB2     		uxth	r5, r5
 1971 0042 FF1A     		subs	r7, r7, r3
 1972              	.LVL190:
 1973 0044 F61A     		subs	r6, r6, r3
 1974              	.LVL191:
 1975              	.L185:
 1976              	.LBB374:
 1977              		.loc 1 523 0 discriminator 3
 1978 0046 9C19     		adds	r4, r3, r6
 1979              		.loc 1 522 0 discriminator 3
 1980 0048 C268     		ldr	r2, [r0, #12]
 1981              		.loc 1 523 0 discriminator 3
 1982 004a A4B2     		uxth	r4, r4
 1983              		.loc 1 524 0 discriminator 3
 1984 004c 32F913E0 		ldrsh	lr, [r2, r3, lsl #1]
 1985 0050 32F91440 		ldrsh	r4, [r2, r4, lsl #1]
 1986              		.loc 1 525 0 discriminator 3
 1987 0054 D919     		adds	r1, r3, r7
 1988              		.loc 1 522 0 discriminator 3
 1989 0056 0133     		adds	r3, r3, #1
 1990              	.LVL192:
 1991              		.loc 1 524 0 discriminator 3
 1992 0058 7445     		cmp	r4, lr
 1993              		.loc 1 525 0 discriminator 3
 1994 005a 89B2     		uxth	r1, r1
 1995              	.LVL193:
ARM GAS  /var/folders/d2/nstgp4h54kz7g1l847x_b8wc0000gn/T//cccORz8f.s 			page 36


 1996 005c 9BB2     		uxth	r3, r3
 1997              		.loc 1 524 0 discriminator 3
 1998 005e A8BF     		it	ge
 1999 0060 7446     		movge	r4, lr
 2000              	.LBE374:
 2001              		.loc 1 520 0 discriminator 3
 2002 0062 AB42     		cmp	r3, r5
 2003              	.LBB375:
 2004              		.loc 1 525 0 discriminator 3
 2005 0064 22F81140 		strh	r4, [r2, r1, lsl #1]	@ movhi
 2006              	.LVL194:
 2007              	.LBE375:
 2008              		.loc 1 520 0 discriminator 3
 2009 0068 EDD1     		bne	.L185
 2010              	.L183:
 2011              		.loc 1 527 0
 2012 006a 019A     		ldr	r2, [sp, #4]
 2013 006c DCF80030 		ldr	r3, [ip]
 2014 0070 9A42     		cmp	r2, r3
 2015 0072 01D1     		bne	.L192
 2016 0074 03B0     		add	sp, sp, #12
 2017              		.cfi_remember_state
 2018              		.cfi_def_cfa_offset 20
 2019              		@ sp needed
 2020 0076 F0BD     		pop	{r4, r5, r6, r7, pc}
 2021              	.L192:
 2022              		.cfi_restore_state
 2023 0078 FFF7FEFF 		bl	__stack_chk_fail
 2024              	.LVL195:
 2025              	.L194:
 2026              		.align	2
 2027              	.L193:
 2028 007c 00000000 		.word	__stack_chk_guard
 2029              		.cfi_endproc
 2030              	.LFE13:
 2031              		.size	AsebaNative_vecmin, .-AsebaNative_vecmin
 2032              		.section	.text.AsebaNative_vecmax,"ax",%progbits
 2033              		.align	1
 2034              		.p2align 4,,15
 2035              		.global	AsebaNative_vecmax
 2036              		.syntax unified
 2037              		.thumb
 2038              		.thumb_func
 2039              		.fpu fpv4-sp-d16
 2040              		.type	AsebaNative_vecmax, %function
 2041              	AsebaNative_vecmax:
 2042              	.LFB14:
 2043              		.loc 1 543 0
 2044              		.cfi_startproc
 2045              		@ args = 0, pretend = 0, frame = 8
 2046              		@ frame_needed = 0, uses_anonymous_args = 0
 2047              	.LVL196:
 2048 0000 F0B5     		push	{r4, r5, r6, r7, lr}
 2049              		.cfi_def_cfa_offset 20
 2050              		.cfi_offset 4, -20
 2051              		.cfi_offset 5, -16
 2052              		.cfi_offset 6, -12
ARM GAS  /var/folders/d2/nstgp4h54kz7g1l847x_b8wc0000gn/T//cccORz8f.s 			page 37


 2053              		.cfi_offset 7, -8
 2054              		.cfi_offset 14, -4
 2055              	.LBB376:
 2056              	.LBB377:
 2057              		.loc 2 90 0
 2058 0002 B0F91C60 		ldrsh	r6, [r0, #28]
 2059 0006 4169     		ldr	r1, [r0, #20]
 2060              	.LVL197:
 2061              	.LBE377:
 2062              	.LBE376:
 2063              		.loc 1 543 0
 2064 0008 DFF870C0 		ldr	ip, .L205
 2065              	.LBB380:
 2066              	.LBB378:
 2067              		.loc 2 90 0
 2068 000c B2B2     		uxth	r2, r6
 2069 000e 531E     		subs	r3, r2, #1
 2070 0010 1BB2     		sxth	r3, r3
 2071              	.LBE378:
 2072              	.LBE380:
 2073              	.LBB381:
 2074              	.LBB382:
 2075 0012 951E     		subs	r5, r2, #2
 2076              	.LBE382:
 2077              	.LBE381:
 2078              	.LBB385:
 2079              	.LBB379:
 2080 0014 8383     		strh	r3, [r0, #28]	@ movhi
 2081              	.LBE379:
 2082              	.LBE385:
 2083              	.LBB386:
 2084              	.LBB383:
 2085 0016 2DB2     		sxth	r5, r5
 2086              	.LBE383:
 2087              	.LBE386:
 2088              	.LBB387:
 2089              	.LBB388:
 2090 0018 D41E     		subs	r4, r2, #3
 2091              	.LBE388:
 2092              	.LBE387:
 2093              		.loc 1 545 0
 2094 001a 31F81670 		ldrh	r7, [r1, r6, lsl #1]
 2095              	.LVL198:
 2096              	.LBB391:
 2097              	.LBB384:
 2098              		.loc 2 90 0
 2099 001e 8583     		strh	r5, [r0, #28]	@ movhi
 2100              	.LBE384:
 2101              	.LBE391:
 2102              	.LBB392:
 2103              	.LBB389:
 2104 0020 24B2     		sxth	r4, r4
 2105              	.LBE389:
 2106              	.LBE392:
 2107              		.loc 1 546 0
 2108 0022 31F81330 		ldrh	r3, [r1, r3, lsl #1]
 2109              	.LVL199:
ARM GAS  /var/folders/d2/nstgp4h54kz7g1l847x_b8wc0000gn/T//cccORz8f.s 			page 38


 2110              	.LBB393:
 2111              	.LBB390:
 2112              		.loc 2 90 0
 2113 0026 8483     		strh	r4, [r0, #28]	@ movhi
 2114              	.LBE390:
 2115              	.LBE393:
 2116              	.LBB394:
 2117              	.LBB395:
 2118 0028 043A     		subs	r2, r2, #4
 2119              	.LBE395:
 2120              	.LBE394:
 2121              		.loc 1 547 0
 2122 002a 31F81560 		ldrh	r6, [r1, r5, lsl #1]
 2123              	.LVL200:
 2124              	.LBB397:
 2125              	.LBB396:
 2126              		.loc 2 90 0
 2127 002e 8283     		strh	r2, [r0, #28]	@ movhi
 2128              	.LBE396:
 2129              	.LBE397:
 2130              		.loc 1 543 0
 2131 0030 83B0     		sub	sp, sp, #12
 2132              		.cfi_def_cfa_offset 32
 2133              		.loc 1 550 0
 2134 0032 31F81450 		ldrh	r5, [r1, r4, lsl #1]
 2135              	.LVL201:
 2136              		.loc 1 543 0
 2137 0036 DCF80020 		ldr	r2, [ip]
 2138 003a 0192     		str	r2, [sp, #4]
 2139              		.loc 1 553 0
 2140 003c ADB1     		cbz	r5, .L195
 2141 003e 1D44     		add	r5, r5, r3
 2142              	.LVL202:
 2143 0040 ADB2     		uxth	r5, r5
 2144 0042 FF1A     		subs	r7, r7, r3
 2145              	.LVL203:
 2146 0044 F61A     		subs	r6, r6, r3
 2147              	.LVL204:
 2148              	.L197:
 2149              	.LBB398:
 2150              		.loc 1 556 0 discriminator 3
 2151 0046 9C19     		adds	r4, r3, r6
 2152              		.loc 1 555 0 discriminator 3
 2153 0048 C268     		ldr	r2, [r0, #12]
 2154              		.loc 1 556 0 discriminator 3
 2155 004a A4B2     		uxth	r4, r4
 2156              		.loc 1 557 0 discriminator 3
 2157 004c 32F913E0 		ldrsh	lr, [r2, r3, lsl #1]
 2158 0050 32F91440 		ldrsh	r4, [r2, r4, lsl #1]
 2159              		.loc 1 558 0 discriminator 3
 2160 0054 D919     		adds	r1, r3, r7
 2161              		.loc 1 555 0 discriminator 3
 2162 0056 0133     		adds	r3, r3, #1
 2163              	.LVL205:
 2164              		.loc 1 557 0 discriminator 3
 2165 0058 7445     		cmp	r4, lr
 2166              		.loc 1 558 0 discriminator 3
ARM GAS  /var/folders/d2/nstgp4h54kz7g1l847x_b8wc0000gn/T//cccORz8f.s 			page 39


 2167 005a 89B2     		uxth	r1, r1
 2168              	.LVL206:
 2169 005c 9BB2     		uxth	r3, r3
 2170              		.loc 1 557 0 discriminator 3
 2171 005e B8BF     		it	lt
 2172 0060 7446     		movlt	r4, lr
 2173              	.LBE398:
 2174              		.loc 1 553 0 discriminator 3
 2175 0062 AB42     		cmp	r3, r5
 2176              	.LBB399:
 2177              		.loc 1 558 0 discriminator 3
 2178 0064 22F81140 		strh	r4, [r2, r1, lsl #1]	@ movhi
 2179              	.LVL207:
 2180              	.LBE399:
 2181              		.loc 1 553 0 discriminator 3
 2182 0068 EDD1     		bne	.L197
 2183              	.L195:
 2184              		.loc 1 560 0
 2185 006a 019A     		ldr	r2, [sp, #4]
 2186 006c DCF80030 		ldr	r3, [ip]
 2187 0070 9A42     		cmp	r2, r3
 2188 0072 01D1     		bne	.L204
 2189 0074 03B0     		add	sp, sp, #12
 2190              		.cfi_remember_state
 2191              		.cfi_def_cfa_offset 20
 2192              		@ sp needed
 2193 0076 F0BD     		pop	{r4, r5, r6, r7, pc}
 2194              	.L204:
 2195              		.cfi_restore_state
 2196 0078 FFF7FEFF 		bl	__stack_chk_fail
 2197              	.LVL208:
 2198              	.L206:
 2199              		.align	2
 2200              	.L205:
 2201 007c 00000000 		.word	__stack_chk_guard
 2202              		.cfi_endproc
 2203              	.LFE14:
 2204              		.size	AsebaNative_vecmax, .-AsebaNative_vecmax
 2205              		.section	.text.AsebaNative_vecclamp,"ax",%progbits
 2206              		.align	1
 2207              		.p2align 4,,15
 2208              		.global	AsebaNative_vecclamp
 2209              		.syntax unified
 2210              		.thumb
 2211              		.thumb_func
 2212              		.fpu fpv4-sp-d16
 2213              		.type	AsebaNative_vecclamp, %function
 2214              	AsebaNative_vecclamp:
 2215              	.LFB15:
 2216              		.loc 1 575 0
 2217              		.cfi_startproc
 2218              		@ args = 0, pretend = 0, frame = 8
 2219              		@ frame_needed = 0, uses_anonymous_args = 0
 2220              	.LVL209:
 2221 0000 2DE9F043 		push	{r4, r5, r6, r7, r8, r9, lr}
 2222              		.cfi_def_cfa_offset 28
 2223              		.cfi_offset 4, -28
ARM GAS  /var/folders/d2/nstgp4h54kz7g1l847x_b8wc0000gn/T//cccORz8f.s 			page 40


 2224              		.cfi_offset 5, -24
 2225              		.cfi_offset 6, -20
 2226              		.cfi_offset 7, -16
 2227              		.cfi_offset 8, -12
 2228              		.cfi_offset 9, -8
 2229              		.cfi_offset 14, -4
 2230              	.LBB400:
 2231              	.LBB401:
 2232              		.loc 2 90 0
 2233 0004 B0F91C40 		ldrsh	r4, [r0, #28]
 2234 0008 4169     		ldr	r1, [r0, #20]
 2235              	.LVL210:
 2236              	.LBE401:
 2237              	.LBE400:
 2238              		.loc 1 575 0
 2239 000a DFF89C80 		ldr	r8, .L218
 2240              	.LBB404:
 2241              	.LBB402:
 2242              		.loc 2 90 0
 2243 000e A2B2     		uxth	r2, r4
 2244 0010 531E     		subs	r3, r2, #1
 2245 0012 1BB2     		sxth	r3, r3
 2246              	.LBE402:
 2247              	.LBE404:
 2248              	.LBB405:
 2249              	.LBB406:
 2250 0014 961E     		subs	r6, r2, #2
 2251              	.LBE406:
 2252              	.LBE405:
 2253              	.LBB409:
 2254              	.LBB403:
 2255 0016 8383     		strh	r3, [r0, #28]	@ movhi
 2256              	.LBE403:
 2257              	.LBE409:
 2258              	.LBB410:
 2259              	.LBB407:
 2260 0018 36B2     		sxth	r6, r6
 2261              	.LBE407:
 2262              	.LBE410:
 2263              	.LBB411:
 2264              	.LBB412:
 2265 001a D51E     		subs	r5, r2, #3
 2266              	.LBE412:
 2267              	.LBE411:
 2268              		.loc 1 577 0
 2269 001c 31F814E0 		ldrh	lr, [r1, r4, lsl #1]
 2270              	.LVL211:
 2271              	.LBB415:
 2272              	.LBB408:
 2273              		.loc 2 90 0
 2274 0020 8683     		strh	r6, [r0, #28]	@ movhi
 2275              	.LBE408:
 2276              	.LBE415:
 2277              	.LBB416:
 2278              	.LBB413:
 2279 0022 2DB2     		sxth	r5, r5
 2280              	.LBE413:
ARM GAS  /var/folders/d2/nstgp4h54kz7g1l847x_b8wc0000gn/T//cccORz8f.s 			page 41


 2281              	.LBE416:
 2282              	.LBB417:
 2283              	.LBB418:
 2284 0024 141F     		subs	r4, r2, #4
 2285              	.LBE418:
 2286              	.LBE417:
 2287              		.loc 1 578 0
 2288 0026 31F81330 		ldrh	r3, [r1, r3, lsl #1]
 2289              	.LVL212:
 2290              	.LBB421:
 2291              	.LBB414:
 2292              		.loc 2 90 0
 2293 002a 8583     		strh	r5, [r0, #28]	@ movhi
 2294              	.LBE414:
 2295              	.LBE421:
 2296              	.LBB422:
 2297              	.LBB419:
 2298 002c 24B2     		sxth	r4, r4
 2299              	.LBE419:
 2300              	.LBE422:
 2301              		.loc 1 579 0
 2302 002e 31F816C0 		ldrh	ip, [r1, r6, lsl #1]
 2303              	.LVL213:
 2304              	.LBB423:
 2305              	.LBB420:
 2306              		.loc 2 90 0
 2307 0032 8483     		strh	r4, [r0, #28]	@ movhi
 2308              	.LBE420:
 2309              	.LBE423:
 2310              	.LBB424:
 2311              	.LBB425:
 2312 0034 053A     		subs	r2, r2, #5
 2313              	.LBE425:
 2314              	.LBE424:
 2315              		.loc 1 580 0
 2316 0036 31F81570 		ldrh	r7, [r1, r5, lsl #1]
 2317              	.LVL214:
 2318              	.LBB427:
 2319              	.LBB426:
 2320              		.loc 2 90 0
 2321 003a 8283     		strh	r2, [r0, #28]	@ movhi
 2322              	.LBE426:
 2323              	.LBE427:
 2324              		.loc 1 575 0
 2325 003c 83B0     		sub	sp, sp, #12
 2326              		.cfi_def_cfa_offset 40
 2327              		.loc 1 583 0
 2328 003e 31F81460 		ldrh	r6, [r1, r4, lsl #1]
 2329              	.LVL215:
 2330              		.loc 1 575 0
 2331 0042 D8F80020 		ldr	r2, [r8]
 2332 0046 0192     		str	r2, [sp, #4]
 2333              		.loc 1 586 0
 2334 0048 1EB3     		cbz	r6, .L207
 2335 004a 1E44     		add	r6, r6, r3
 2336              	.LVL216:
 2337 004c B6B2     		uxth	r6, r6
ARM GAS  /var/folders/d2/nstgp4h54kz7g1l847x_b8wc0000gn/T//cccORz8f.s 			page 42


 2338 004e AEEB030E 		sub	lr, lr, r3
 2339              	.LVL217:
 2340 0052 ACEB030C 		sub	ip, ip, r3
 2341              	.LVL218:
 2342 0056 FF1A     		subs	r7, r7, r3
 2343              	.LVL219:
 2344              	.L210:
 2345              	.LBB428:
 2346              		.loc 1 590 0
 2347 0058 DA19     		adds	r2, r3, r7
 2348              		.loc 1 588 0
 2349 005a C168     		ldr	r1, [r0, #12]
 2350              		.loc 1 590 0
 2351 005c 92B2     		uxth	r2, r2
 2352              		.loc 1 589 0
 2353 005e 03EB0C09 		add	r9, r3, ip
 2354              		.loc 1 590 0
 2355 0062 31F91240 		ldrsh	r4, [r1, r2, lsl #1]
 2356              		.loc 1 588 0
 2357 0066 31F91350 		ldrsh	r5, [r1, r3, lsl #1]
 2358              		.loc 1 589 0
 2359 006a 1FFA89F9 		uxth	r9, r9
 2360 006e 03EB0E02 		add	r2, r3, lr
 2361              		.loc 1 591 0
 2362 0072 A542     		cmp	r5, r4
 2363              		.loc 1 588 0
 2364 0074 03F10103 		add	r3, r3, #1
 2365              		.loc 1 589 0
 2366 0078 31F91990 		ldrsh	r9, [r1, r9, lsl #1]
 2367 007c 92B2     		uxth	r2, r2
 2368              	.LVL220:
 2369              		.loc 1 588 0
 2370 007e 9BB2     		uxth	r3, r3
 2371              	.LVL221:
 2372              		.loc 1 591 0
 2373 0080 03DC     		bgt	.L209
 2374              		.loc 1 591 0 is_stmt 0 discriminator 1
 2375 0082 4D45     		cmp	r5, r9
 2376 0084 2C46     		mov	r4, r5
 2377              	.LVL222:
 2378 0086 B8BF     		it	lt
 2379 0088 4C46     		movlt	r4, r9
 2380              	.L209:
 2381              	.LVL223:
 2382              	.LBE428:
 2383              		.loc 1 586 0 is_stmt 1 discriminator 4
 2384 008a B342     		cmp	r3, r6
 2385              	.LBB429:
 2386              		.loc 1 592 0 discriminator 4
 2387 008c 21F81240 		strh	r4, [r1, r2, lsl #1]	@ movhi
 2388              	.LBE429:
 2389              		.loc 1 586 0 discriminator 4
 2390 0090 E2D1     		bne	.L210
 2391              	.LVL224:
 2392              	.L207:
 2393              		.loc 1 594 0
 2394 0092 019A     		ldr	r2, [sp, #4]
ARM GAS  /var/folders/d2/nstgp4h54kz7g1l847x_b8wc0000gn/T//cccORz8f.s 			page 43


 2395 0094 D8F80030 		ldr	r3, [r8]
 2396 0098 9A42     		cmp	r2, r3
 2397 009a 02D1     		bne	.L217
 2398 009c 03B0     		add	sp, sp, #12
 2399              		.cfi_remember_state
 2400              		.cfi_def_cfa_offset 28
 2401              		@ sp needed
 2402 009e BDE8F083 		pop	{r4, r5, r6, r7, r8, r9, pc}
 2403              	.L217:
 2404              		.cfi_restore_state
 2405 00a2 FFF7FEFF 		bl	__stack_chk_fail
 2406              	.LVL225:
 2407              	.L219:
 2408 00a6 00BF     		.align	2
 2409              	.L218:
 2410 00a8 00000000 		.word	__stack_chk_guard
 2411              		.cfi_endproc
 2412              	.LFE15:
 2413              		.size	AsebaNative_vecclamp, .-AsebaNative_vecclamp
 2414              		.section	.text.AsebaNative_vecdot,"ax",%progbits
 2415              		.align	1
 2416              		.p2align 4,,15
 2417              		.global	AsebaNative_vecdot
 2418              		.syntax unified
 2419              		.thumb
 2420              		.thumb_func
 2421              		.fpu fpv4-sp-d16
 2422              		.type	AsebaNative_vecdot, %function
 2423              	AsebaNative_vecdot:
 2424              	.LFB16:
 2425              		.loc 1 610 0
 2426              		.cfi_startproc
 2427              		@ args = 0, pretend = 0, frame = 8
 2428              		@ frame_needed = 0, uses_anonymous_args = 0
 2429              	.LVL226:
 2430 0000 2DE9F041 		push	{r4, r5, r6, r7, r8, lr}
 2431              		.cfi_def_cfa_offset 24
 2432              		.cfi_offset 4, -24
 2433              		.cfi_offset 5, -20
 2434              		.cfi_offset 6, -16
 2435              		.cfi_offset 7, -12
 2436              		.cfi_offset 8, -8
 2437              		.cfi_offset 14, -4
 2438              	.LBB430:
 2439              	.LBB431:
 2440              		.loc 2 90 0
 2441 0004 B0F91C60 		ldrsh	r6, [r0, #28]
 2442 0008 4169     		ldr	r1, [r0, #20]
 2443              	.LVL227:
 2444              	.LBE431:
 2445              	.LBE430:
 2446              		.loc 1 615 0
 2447 000a C468     		ldr	r4, [r0, #12]
 2448              		.loc 1 610 0
 2449 000c 284D     		ldr	r5, .L230
 2450              	.LBB434:
 2451              	.LBB432:
ARM GAS  /var/folders/d2/nstgp4h54kz7g1l847x_b8wc0000gn/T//cccORz8f.s 			page 44


 2452              		.loc 2 90 0
 2453 000e B2B2     		uxth	r2, r6
 2454 0010 531E     		subs	r3, r2, #1
 2455 0012 1BB2     		sxth	r3, r3
 2456              	.LBE432:
 2457              	.LBE434:
 2458              	.LBB435:
 2459              	.LBB436:
 2460 0014 A2F1020C 		sub	ip, r2, #2
 2461              	.LBE436:
 2462              	.LBE435:
 2463              	.LBB440:
 2464              	.LBB433:
 2465 0018 8383     		strh	r3, [r0, #28]	@ movhi
 2466              	.LBE433:
 2467              	.LBE440:
 2468              	.LBB441:
 2469              	.LBB437:
 2470 001a 0FFA8CFC 		sxth	ip, ip
 2471              	.LBE437:
 2472              	.LBE441:
 2473              	.LBB442:
 2474              	.LBB443:
 2475 001e D71E     		subs	r7, r2, #3
 2476              	.LBE443:
 2477              	.LBE442:
 2478              		.loc 1 612 0
 2479 0020 31F81660 		ldrh	r6, [r1, r6, lsl #1]
 2480              	.LVL228:
 2481              	.LBB447:
 2482              	.LBB438:
 2483              		.loc 2 90 0
 2484 0024 A0F81CC0 		strh	ip, [r0, #28]	@ movhi
 2485              	.LBE438:
 2486              	.LBE447:
 2487              	.LBB448:
 2488              	.LBB444:
 2489 0028 3FB2     		sxth	r7, r7
 2490              	.LBE444:
 2491              	.LBE448:
 2492              	.LBB449:
 2493              	.LBB450:
 2494 002a A2F1040E 		sub	lr, r2, #4
 2495              	.LBE450:
 2496              	.LBE449:
 2497              	.LBB453:
 2498              	.LBB439:
 2499 002e 31F91330 		ldrsh	r3, [r1, r3, lsl #1]
 2500              	.LVL229:
 2501              	.LBE439:
 2502              	.LBE453:
 2503              	.LBB454:
 2504              	.LBB445:
 2505 0032 8783     		strh	r7, [r0, #28]	@ movhi
 2506              	.LBE445:
 2507              	.LBE454:
 2508              	.LBB455:
ARM GAS  /var/folders/d2/nstgp4h54kz7g1l847x_b8wc0000gn/T//cccORz8f.s 			page 45


 2509              	.LBB451:
 2510 0034 0FFA8EFE 		sxth	lr, lr
 2511              	.LBE451:
 2512              	.LBE455:
 2513              	.LBB456:
 2514              	.LBB446:
 2515 0038 31F91CC0 		ldrsh	ip, [r1, ip, lsl #1]
 2516              	.LVL230:
 2517              	.LBE446:
 2518              	.LBE456:
 2519              	.LBB457:
 2520              	.LBB452:
 2521 003c A0F81CE0 		strh	lr, [r0, #28]	@ movhi
 2522              	.LBE452:
 2523              	.LBE457:
 2524              		.loc 1 615 0
 2525 0040 31F91770 		ldrsh	r7, [r1, r7, lsl #1]
 2526              		.loc 1 610 0
 2527 0044 D5F80080 		ldr	r8, [r5]
 2528              		.loc 1 615 0
 2529 0048 34F91770 		ldrsh	r7, [r4, r7, lsl #1]
 2530              	.LVL231:
 2531              		.loc 1 610 0
 2532 004c 82B0     		sub	sp, sp, #8
 2533              		.cfi_def_cfa_offset 32
 2534              	.LBB458:
 2535              	.LBB459:
 2536              		.loc 2 90 0
 2537 004e 053A     		subs	r2, r2, #5
 2538              	.LBE459:
 2539              	.LBE458:
 2540              		.loc 1 622 0
 2541 0050 202F     		cmp	r7, #32
 2542              		.loc 1 610 0
 2543 0052 CDF80480 		str	r8, [sp, #4]
 2544              	.LBB461:
 2545              	.LBB460:
 2546              		.loc 2 90 0
 2547 0056 8283     		strh	r2, [r0, #28]	@ movhi
 2548              	.LVL232:
 2549              	.LBE460:
 2550              	.LBE461:
 2551              		.loc 1 622 0
 2552 0058 23DC     		bgt	.L221
 2553              		.loc 1 618 0
 2554 005a 31F81E10 		ldrh	r1, [r1, lr, lsl #1]
 2555              	.LVL233:
 2556              		.loc 1 662 0
 2557 005e B9B1     		cbz	r1, .L223
 2558              		.loc 1 613 0
 2559 0060 9BB2     		uxth	r3, r3
 2560              	.LVL234:
 2561 0062 1944     		add	r1, r1, r3
 2562              		.loc 1 614 0
 2563 0064 1FFA8CFC 		uxth	ip, ip
 2564              	.LVL235:
 2565 0068 1FFA81FE 		uxth	lr, r1
ARM GAS  /var/folders/d2/nstgp4h54kz7g1l847x_b8wc0000gn/T//cccORz8f.s 			page 46


 2566              	.LVL236:
 2567 006c ACEB030C 		sub	ip, ip, r3
 2568              		.loc 1 619 0
 2569 0070 0021     		movs	r1, #0
 2570              	.LVL237:
 2571              	.L225:
 2572              		.loc 1 664 0 discriminator 3
 2573 0072 03EB0C02 		add	r2, r3, ip
 2574 0076 92B2     		uxth	r2, r2
 2575 0078 34F81300 		ldrh	r0, [r4, r3, lsl #1]
 2576 007c 34F81220 		ldrh	r2, [r4, r2, lsl #1]
 2577 0080 0133     		adds	r3, r3, #1
 2578              	.LVL238:
 2579 0082 9BB2     		uxth	r3, r3
 2580              		.loc 1 662 0 discriminator 3
 2581 0084 7345     		cmp	r3, lr
 2582              		.loc 1 664 0 discriminator 3
 2583 0086 10FB0211 		smlabb	r1, r0, r2, r1
 2584              	.LVL239:
 2585              		.loc 1 662 0 discriminator 3
 2586 008a F2D1     		bne	.L225
 2587 008c 3941     		asrs	r1, r1, r7
 2588              	.LVL240:
 2589 008e 09B2     		sxth	r1, r1
 2590              	.L223:
 2591              		.loc 1 667 0
 2592 0090 24F81610 		strh	r1, [r4, r6, lsl #1]	@ movhi
 2593              	.L220:
 2594              		.loc 1 669 0
 2595 0094 019A     		ldr	r2, [sp, #4]
 2596 0096 2B68     		ldr	r3, [r5]
 2597 0098 9A42     		cmp	r2, r3
 2598 009a 06D1     		bne	.L229
 2599 009c 02B0     		add	sp, sp, #8
 2600              		.cfi_remember_state
 2601              		.cfi_def_cfa_offset 24
 2602              		@ sp needed
 2603 009e BDE8F081 		pop	{r4, r5, r6, r7, r8, pc}
 2604              	.LVL241:
 2605              	.L221:
 2606              		.cfi_restore_state
 2607              		.loc 1 623 0
 2608 00a2 0023     		movs	r3, #0
 2609              	.LVL242:
 2610 00a4 24F81630 		strh	r3, [r4, r6, lsl #1]	@ movhi
 2611              	.LVL243:
 2612              		.loc 1 624 0
 2613 00a8 F4E7     		b	.L220
 2614              	.LVL244:
 2615              	.L229:
 2616              		.loc 1 669 0
 2617 00aa FFF7FEFF 		bl	__stack_chk_fail
 2618              	.LVL245:
 2619              	.L231:
 2620 00ae 00BF     		.align	2
 2621              	.L230:
 2622 00b0 00000000 		.word	__stack_chk_guard
ARM GAS  /var/folders/d2/nstgp4h54kz7g1l847x_b8wc0000gn/T//cccORz8f.s 			page 47


 2623              		.cfi_endproc
 2624              	.LFE16:
 2625              		.size	AsebaNative_vecdot, .-AsebaNative_vecdot
 2626              		.section	.text.AsebaNative_vecstat,"ax",%progbits
 2627              		.align	1
 2628              		.p2align 4,,15
 2629              		.global	AsebaNative_vecstat
 2630              		.syntax unified
 2631              		.thumb
 2632              		.thumb_func
 2633              		.fpu fpv4-sp-d16
 2634              		.type	AsebaNative_vecstat, %function
 2635              	AsebaNative_vecstat:
 2636              	.LFB17:
 2637              		.loc 1 686 0
 2638              		.cfi_startproc
 2639              		@ args = 0, pretend = 0, frame = 8
 2640              		@ frame_needed = 0, uses_anonymous_args = 0
 2641              	.LVL246:
 2642              	.LBB462:
 2643              	.LBB463:
 2644              		.loc 2 90 0
 2645 0000 B0F91C10 		ldrsh	r1, [r0, #28]
 2646 0004 4269     		ldr	r2, [r0, #20]
 2647              	.LVL247:
 2648              	.LBE463:
 2649              	.LBE462:
 2650              		.loc 1 686 0
 2651 0006 DFF8C4C0 		ldr	ip, .L246
 2652 000a 2DE9F043 		push	{r4, r5, r6, r7, r8, r9, lr}
 2653              		.cfi_def_cfa_offset 28
 2654              		.cfi_offset 4, -28
 2655              		.cfi_offset 5, -24
 2656              		.cfi_offset 6, -20
 2657              		.cfi_offset 7, -16
 2658              		.cfi_offset 8, -12
 2659              		.cfi_offset 9, -8
 2660              		.cfi_offset 14, -4
 2661              	.LBB467:
 2662              	.LBB464:
 2663              		.loc 2 90 0
 2664 000e 8BB2     		uxth	r3, r1
 2665 0010 5D1E     		subs	r5, r3, #1
 2666 0012 2DB2     		sxth	r5, r5
 2667              	.LBE464:
 2668              	.LBE467:
 2669              	.LBB468:
 2670              	.LBB469:
 2671 0014 9E1E     		subs	r6, r3, #2
 2672              	.LBE469:
 2673              	.LBE468:
 2674              	.LBB473:
 2675              	.LBB465:
 2676 0016 8583     		strh	r5, [r0, #28]	@ movhi
 2677              	.LBE465:
 2678              	.LBE473:
 2679              	.LBB474:
ARM GAS  /var/folders/d2/nstgp4h54kz7g1l847x_b8wc0000gn/T//cccORz8f.s 			page 48


 2680              	.LBB470:
 2681 0018 36B2     		sxth	r6, r6
 2682              	.LBE470:
 2683              	.LBE474:
 2684              	.LBB475:
 2685              	.LBB476:
 2686 001a DC1E     		subs	r4, r3, #3
 2687              	.LBE476:
 2688              	.LBE475:
 2689              	.LBB480:
 2690              	.LBB466:
 2691 001c 32F91170 		ldrsh	r7, [r2, r1, lsl #1]
 2692              	.LVL248:
 2693              	.LBE466:
 2694              	.LBE480:
 2695              	.LBB481:
 2696              	.LBB471:
 2697 0020 8683     		strh	r6, [r0, #28]	@ movhi
 2698              	.LBE471:
 2699              	.LBE481:
 2700              	.LBB482:
 2701              	.LBB477:
 2702 0022 24B2     		sxth	r4, r4
 2703              	.LBE477:
 2704              	.LBE482:
 2705              	.LBB483:
 2706              	.LBB484:
 2707 0024 191F     		subs	r1, r3, #4
 2708              	.LBE484:
 2709              	.LBE483:
 2710              	.LBB488:
 2711              	.LBB472:
 2712 0026 32F91550 		ldrsh	r5, [r2, r5, lsl #1]
 2713              	.LVL249:
 2714              	.LBE472:
 2715              	.LBE488:
 2716              	.LBB489:
 2717              	.LBB478:
 2718 002a 8483     		strh	r4, [r0, #28]	@ movhi
 2719              	.LBE478:
 2720              	.LBE489:
 2721              	.LBB490:
 2722              	.LBB485:
 2723 002c 09B2     		sxth	r1, r1
 2724              	.LBE485:
 2725              	.LBE490:
 2726              	.LBB491:
 2727              	.LBB479:
 2728 002e 32F91660 		ldrsh	r6, [r2, r6, lsl #1]
 2729              	.LVL250:
 2730              	.LBE479:
 2731              	.LBE491:
 2732              	.LBB492:
 2733              	.LBB486:
 2734 0032 8183     		strh	r1, [r0, #28]	@ movhi
 2735              	.LBE486:
 2736              	.LBE492:
ARM GAS  /var/folders/d2/nstgp4h54kz7g1l847x_b8wc0000gn/T//cccORz8f.s 			page 49


 2737              	.LBB493:
 2738              	.LBB494:
 2739 0034 053B     		subs	r3, r3, #5
 2740              	.LBE494:
 2741              	.LBE493:
 2742              	.LBB496:
 2743              	.LBB487:
 2744 0036 32F914E0 		ldrsh	lr, [r2, r4, lsl #1]
 2745              	.LVL251:
 2746              	.LBE487:
 2747              	.LBE496:
 2748              	.LBB497:
 2749              	.LBB495:
 2750 003a 8383     		strh	r3, [r0, #28]	@ movhi
 2751              	.LBE495:
 2752              	.LBE497:
 2753              		.loc 1 686 0
 2754 003c 83B0     		sub	sp, sp, #12
 2755              		.cfi_def_cfa_offset 40
 2756              		.loc 1 694 0
 2757 003e 32F81180 		ldrh	r8, [r2, r1, lsl #1]
 2758              	.LVL252:
 2759              		.loc 1 686 0
 2760 0042 DCF80030 		ldr	r3, [ip]
 2761 0046 0193     		str	r3, [sp, #4]
 2762              		.loc 1 699 0
 2763 0048 B8F1000F 		cmp	r8, #0
 2764 004c 31D0     		beq	.L232
 2765              		.loc 1 701 0
 2766 004e C368     		ldr	r3, [r0, #12]
 2767              		.loc 1 688 0
 2768 0050 BFB2     		uxth	r7, r7
 2769              	.LVL253:
 2770              		.loc 1 703 0
 2771 0052 ADB2     		uxth	r5, r5
 2772              		.loc 1 701 0
 2773 0054 33F91740 		ldrsh	r4, [r3, r7, lsl #1]
 2774              		.loc 1 703 0
 2775 0058 23F81540 		strh	r4, [r3, r5, lsl #1]	@ movhi
 2776              		.loc 1 704 0
 2777 005c B6B2     		uxth	r6, r6
 2778 005e C268     		ldr	r2, [r0, #12]
 2779              		.loc 1 701 0
 2780 0060 7B1C     		adds	r3, r7, #1
 2781              		.loc 1 706 0
 2782 0062 B8F1010F 		cmp	r8, #1
 2783              		.loc 1 704 0
 2784 0066 22F81640 		strh	r4, [r2, r6, lsl #1]	@ movhi
 2785              		.loc 1 703 0
 2786 006a 4FEA4505 		lsl	r5, r5, #1
 2787              	.LVL254:
 2788              		.loc 1 704 0
 2789 006e 4FEA4606 		lsl	r6, r6, #1
 2790              	.LVL255:
 2791              		.loc 1 701 0
 2792 0072 9BB2     		uxth	r3, r3
 2793              	.LVL256:
ARM GAS  /var/folders/d2/nstgp4h54kz7g1l847x_b8wc0000gn/T//cccORz8f.s 			page 50


 2794              		.loc 1 706 0
 2795 0074 25D0     		beq	.L234
 2796 0076 4744     		add	r7, r7, r8
 2797 0078 C268     		ldr	r2, [r0, #12]
 2798 007a BFB2     		uxth	r7, r7
 2799              	.LVL257:
 2800              	.L237:
 2801              		.loc 1 708 0
 2802 007c 32F91310 		ldrsh	r1, [r2, r3, lsl #1]
 2803              		.loc 1 709 0
 2804 0080 32F90590 		ldrsh	r9, [r2, r5]
 2805 0084 8945     		cmp	r9, r1
 2806              		.loc 1 710 0
 2807 0086 C4BF     		itt	gt
 2808 0088 5153     		strhgt	r1, [r2, r5]	@ movhi
 2809 008a C268     		ldrgt	r2, [r0, #12]
 2810              		.loc 1 711 0
 2811 008c 32F90690 		ldrsh	r9, [r2, r6]
 2812 0090 8945     		cmp	r9, r1
 2813              		.loc 1 712 0
 2814 0092 B8BF     		it	lt
 2815 0094 9153     		strhlt	r1, [r2, r6]	@ movhi
 2816              		.loc 1 708 0
 2817 0096 03F10103 		add	r3, r3, #1
 2818              	.LVL258:
 2819 009a 9BB2     		uxth	r3, r3
 2820              	.LVL259:
 2821 009c B8BF     		it	lt
 2822 009e C268     		ldrlt	r2, [r0, #12]
 2823              		.loc 1 706 0
 2824 00a0 BB42     		cmp	r3, r7
 2825              		.loc 1 713 0
 2826 00a2 0C44     		add	r4, r4, r1
 2827              	.LVL260:
 2828              		.loc 1 706 0
 2829 00a4 EAD1     		bne	.L237
 2830              	.LVL261:
 2831              	.L238:
 2832              		.loc 1 716 0
 2833 00a6 94FBF8F4 		sdiv	r4, r4, r8
 2834              	.LVL262:
 2835 00aa 1FFA8EFE 		uxth	lr, lr
 2836 00ae 22F81E40 		strh	r4, [r2, lr, lsl #1]	@ movhi
 2837              	.LVL263:
 2838              	.L232:
 2839              		.loc 1 718 0
 2840 00b2 019A     		ldr	r2, [sp, #4]
 2841 00b4 DCF80030 		ldr	r3, [ip]
 2842 00b8 9A42     		cmp	r2, r3
 2843 00ba 04D1     		bne	.L245
 2844 00bc 03B0     		add	sp, sp, #12
 2845              		.cfi_remember_state
 2846              		.cfi_def_cfa_offset 28
 2847              		@ sp needed
 2848 00be BDE8F083 		pop	{r4, r5, r6, r7, r8, r9, pc}
 2849              	.LVL264:
 2850              	.L234:
ARM GAS  /var/folders/d2/nstgp4h54kz7g1l847x_b8wc0000gn/T//cccORz8f.s 			page 51


 2851              		.cfi_restore_state
 2852 00c2 C268     		ldr	r2, [r0, #12]
 2853 00c4 EFE7     		b	.L238
 2854              	.LVL265:
 2855              	.L245:
 2856 00c6 FFF7FEFF 		bl	__stack_chk_fail
 2857              	.LVL266:
 2858              	.L247:
 2859 00ca 00BF     		.align	2
 2860              	.L246:
 2861 00cc 00000000 		.word	__stack_chk_guard
 2862              		.cfi_endproc
 2863              	.LFE17:
 2864              		.size	AsebaNative_vecstat, .-AsebaNative_vecstat
 2865              		.section	.text.AsebaNative_vecargbounds,"ax",%progbits
 2866              		.align	1
 2867              		.p2align 4,,15
 2868              		.global	AsebaNative_vecargbounds
 2869              		.syntax unified
 2870              		.thumb
 2871              		.thumb_func
 2872              		.fpu fpv4-sp-d16
 2873              		.type	AsebaNative_vecargbounds, %function
 2874              	AsebaNative_vecargbounds:
 2875              	.LFB18:
 2876              		.loc 1 735 0
 2877              		.cfi_startproc
 2878              		@ args = 0, pretend = 0, frame = 8
 2879              		@ frame_needed = 0, uses_anonymous_args = 0
 2880              	.LVL267:
 2881              	.LBB498:
 2882              	.LBB499:
 2883              		.loc 2 90 0
 2884 0000 B0F91C30 		ldrsh	r3, [r0, #28]
 2885              	.LBE499:
 2886              	.LBE498:
 2887              		.loc 1 735 0
 2888 0004 2DE9F041 		push	{r4, r5, r6, r7, r8, lr}
 2889              		.cfi_def_cfa_offset 24
 2890              		.cfi_offset 4, -24
 2891              		.cfi_offset 5, -20
 2892              		.cfi_offset 6, -16
 2893              		.cfi_offset 7, -12
 2894              		.cfi_offset 8, -8
 2895              		.cfi_offset 14, -4
 2896              	.LBB504:
 2897              	.LBB500:
 2898              		.loc 2 90 0
 2899 0008 9AB2     		uxth	r2, r3
 2900 000a 551E     		subs	r5, r2, #1
 2901 000c 4769     		ldr	r7, [r0, #20]
 2902              	.LVL268:
 2903              	.LBE500:
 2904              	.LBE504:
 2905              		.loc 1 735 0
 2906 000e 234E     		ldr	r6, .L260
 2907              	.LBB505:
ARM GAS  /var/folders/d2/nstgp4h54kz7g1l847x_b8wc0000gn/T//cccORz8f.s 			page 52


 2908              	.LBB501:
 2909              		.loc 2 90 0
 2910 0010 2DB2     		sxth	r5, r5
 2911              	.LBE501:
 2912              	.LBE505:
 2913              	.LBB506:
 2914              	.LBB507:
 2915 0012 941E     		subs	r4, r2, #2
 2916              	.LBE507:
 2917              	.LBE506:
 2918              	.LBB511:
 2919              	.LBB502:
 2920 0014 8583     		strh	r5, [r0, #28]	@ movhi
 2921              	.LBE502:
 2922              	.LBE511:
 2923              	.LBB512:
 2924              	.LBB508:
 2925 0016 24B2     		sxth	r4, r4
 2926              	.LBE508:
 2927              	.LBE512:
 2928              	.LBB513:
 2929              	.LBB514:
 2930 0018 D11E     		subs	r1, r2, #3
 2931              	.LBE514:
 2932              	.LBE513:
 2933              	.LBB518:
 2934              	.LBB503:
 2935 001a 37F91330 		ldrsh	r3, [r7, r3, lsl #1]
 2936              	.LVL269:
 2937              	.LBE503:
 2938              	.LBE518:
 2939              	.LBB519:
 2940              	.LBB509:
 2941 001e 8483     		strh	r4, [r0, #28]	@ movhi
 2942              	.LBE509:
 2943              	.LBE519:
 2944              	.LBB520:
 2945              	.LBB515:
 2946 0020 09B2     		sxth	r1, r1
 2947              	.LBE515:
 2948              	.LBE520:
 2949              	.LBB521:
 2950              	.LBB510:
 2951 0022 37F915E0 		ldrsh	lr, [r7, r5, lsl #1]
 2952              	.LVL270:
 2953              	.LBE510:
 2954              	.LBE521:
 2955              	.LBB522:
 2956              	.LBB516:
 2957 0026 8183     		strh	r1, [r0, #28]	@ movhi
 2958              	.LBE516:
 2959              	.LBE522:
 2960              	.LBB523:
 2961              	.LBB524:
 2962 0028 043A     		subs	r2, r2, #4
 2963              	.LBE524:
 2964              	.LBE523:
ARM GAS  /var/folders/d2/nstgp4h54kz7g1l847x_b8wc0000gn/T//cccORz8f.s 			page 53


 2965              	.LBB526:
 2966              	.LBB517:
 2967 002a 37F914C0 		ldrsh	ip, [r7, r4, lsl #1]
 2968              	.LVL271:
 2969              	.LBE517:
 2970              	.LBE526:
 2971              	.LBB527:
 2972              	.LBB525:
 2973 002e 8283     		strh	r2, [r0, #28]	@ movhi
 2974              	.LBE525:
 2975              	.LBE527:
 2976              		.loc 1 735 0
 2977 0030 82B0     		sub	sp, sp, #8
 2978              		.cfi_def_cfa_offset 32
 2979              		.loc 1 742 0
 2980 0032 37F81120 		ldrh	r2, [r7, r1, lsl #1]
 2981              	.LVL272:
 2982              		.loc 1 735 0
 2983 0036 3168     		ldr	r1, [r6]
 2984 0038 0191     		str	r1, [sp, #4]
 2985              		.loc 1 748 0
 2986 003a 2AB3     		cbz	r2, .L248
 2987              		.loc 1 737 0
 2988 003c 9BB2     		uxth	r3, r3
 2989              	.LVL273:
 2990 003e 1A44     		add	r2, r2, r3
 2991              	.LVL274:
 2992              		.loc 1 756 0
 2993 0040 1FFA8EFE 		uxth	lr, lr
 2994              		.loc 1 761 0
 2995 0044 1FFA8CFC 		uxth	ip, ip
 2996              		.loc 1 744 0
 2997 0048 154F     		ldr	r7, .L260+4
 2998 004a 94B2     		uxth	r4, r2
 2999              		.loc 1 756 0
 3000 004c 4FEA4E0E 		lsl	lr, lr, #1
 3001              	.LVL275:
 3002              		.loc 1 761 0
 3003 0050 4FEA4C0C 		lsl	ip, ip, #1
 3004              	.LVL276:
 3005              		.loc 1 756 0
 3006 0054 6FEA0308 		mvn	r8, r3
 3007              		.loc 1 743 0
 3008 0058 47F6FF75 		movw	r5, #32767
 3009              	.LVL277:
 3010              	.L252:
 3011              		.loc 1 752 0
 3012 005c C268     		ldr	r2, [r0, #12]
 3013 005e 32F91310 		ldrsh	r1, [r2, r3, lsl #1]
 3014 0062 0133     		adds	r3, r3, #1
 3015              	.LVL278:
 3016              		.loc 1 753 0
 3017 0064 A942     		cmp	r1, r5
 3018              		.loc 1 752 0
 3019 0066 9BB2     		uxth	r3, r3
 3020              	.LVL279:
 3021              		.loc 1 753 0
ARM GAS  /var/folders/d2/nstgp4h54kz7g1l847x_b8wc0000gn/T//cccORz8f.s 			page 54


 3022 0068 04DA     		bge	.L250
 3023              	.LVL280:
 3024              		.loc 1 756 0
 3025 006a 03EB0805 		add	r5, r3, r8
 3026 006e 22F80E50 		strh	r5, [r2, lr]	@ movhi
 3027 0072 0D46     		mov	r5, r1
 3028              	.LVL281:
 3029              	.L250:
 3030              		.loc 1 758 0
 3031 0074 B942     		cmp	r1, r7
 3032 0076 05DD     		ble	.L251
 3033              	.LVL282:
 3034              		.loc 1 761 0
 3035 0078 C268     		ldr	r2, [r0, #12]
 3036 007a 03EB0807 		add	r7, r3, r8
 3037 007e 22F80C70 		strh	r7, [r2, ip]	@ movhi
 3038 0082 0F46     		mov	r7, r1
 3039              	.LVL283:
 3040              	.L251:
 3041              		.loc 1 750 0 discriminator 2
 3042 0084 A342     		cmp	r3, r4
 3043 0086 E9D1     		bne	.L252
 3044              	.LVL284:
 3045              	.L248:
 3046              		.loc 1 765 0
 3047 0088 019A     		ldr	r2, [sp, #4]
 3048 008a 3368     		ldr	r3, [r6]
 3049 008c 9A42     		cmp	r2, r3
 3050 008e 02D1     		bne	.L259
 3051 0090 02B0     		add	sp, sp, #8
 3052              		.cfi_remember_state
 3053              		.cfi_def_cfa_offset 24
 3054              		@ sp needed
 3055 0092 BDE8F081 		pop	{r4, r5, r6, r7, r8, pc}
 3056              	.L259:
 3057              		.cfi_restore_state
 3058 0096 FFF7FEFF 		bl	__stack_chk_fail
 3059              	.LVL285:
 3060              	.L261:
 3061 009a 00BF     		.align	2
 3062              	.L260:
 3063 009c 00000000 		.word	__stack_chk_guard
 3064 00a0 0080FFFF 		.word	-32768
 3065              		.cfi_endproc
 3066              	.LFE18:
 3067              		.size	AsebaNative_vecargbounds, .-AsebaNative_vecargbounds
 3068              		.section	.text.AsebaNative_vecsort,"ax",%progbits
 3069              		.align	1
 3070              		.p2align 4,,15
 3071              		.global	AsebaNative_vecsort
 3072              		.syntax unified
 3073              		.thumb
 3074              		.thumb_func
 3075              		.fpu fpv4-sp-d16
 3076              		.type	AsebaNative_vecsort, %function
 3077              	AsebaNative_vecsort:
 3078              	.LFB19:
ARM GAS  /var/folders/d2/nstgp4h54kz7g1l847x_b8wc0000gn/T//cccORz8f.s 			page 55


 3079              		.loc 1 781 0
 3080              		.cfi_startproc
 3081              		@ args = 0, pretend = 0, frame = 8
 3082              		@ frame_needed = 0, uses_anonymous_args = 0
 3083              	.LVL286:
 3084 0000 F0B5     		push	{r4, r5, r6, r7, lr}
 3085              		.cfi_def_cfa_offset 20
 3086              		.cfi_offset 4, -20
 3087              		.cfi_offset 5, -16
 3088              		.cfi_offset 6, -12
 3089              		.cfi_offset 7, -8
 3090              		.cfi_offset 14, -4
 3091 0002 0F4C     		ldr	r4, .L267
 3092              	.LBB528:
 3093              	.LBB529:
 3094              		.loc 2 90 0
 3095 0004 B0F91C10 		ldrsh	r1, [r0, #28]
 3096              	.LBE529:
 3097              	.LBE528:
 3098              		.loc 1 781 0
 3099 0008 2368     		ldr	r3, [r4]
 3100 000a 4569     		ldr	r5, [r0, #20]
 3101              	.LVL287:
 3102 000c 83B0     		sub	sp, sp, #12
 3103              		.cfi_def_cfa_offset 32
 3104              		.loc 1 781 0
 3105 000e 0193     		str	r3, [sp, #4]
 3106              	.LBB532:
 3107              	.LBB530:
 3108              		.loc 2 90 0
 3109 0010 8BB2     		uxth	r3, r1
 3110 0012 5A1E     		subs	r2, r3, #1
 3111              	.LBE530:
 3112              	.LBE532:
 3113              		.loc 1 788 0
 3114 0014 019E     		ldr	r6, [sp, #4]
 3115 0016 2468     		ldr	r4, [r4]
 3116              	.LBB533:
 3117              	.LBB531:
 3118              		.loc 2 90 0
 3119 0018 12B2     		sxth	r2, r2
 3120 001a 8283     		strh	r2, [r0, #28]	@ movhi
 3121              	.LBE531:
 3122              	.LBE533:
 3123              	.LBB534:
 3124              	.LBB535:
 3125 001c 023B     		subs	r3, r3, #2
 3126              	.LBE535:
 3127              	.LBE534:
 3128              		.loc 1 788 0
 3129 001e A642     		cmp	r6, r4
 3130              		.loc 1 783 0
 3131 0020 35F81170 		ldrh	r7, [r5, r1, lsl #1]
 3132              	.LVL288:
 3133              	.LBB537:
 3134              	.LBB536:
 3135              		.loc 2 90 0
ARM GAS  /var/folders/d2/nstgp4h54kz7g1l847x_b8wc0000gn/T//cccORz8f.s 			page 56


 3136 0024 8383     		strh	r3, [r0, #28]	@ movhi
 3137              	.LVL289:
 3138              	.LBE536:
 3139              	.LBE537:
 3140              		.loc 1 788 0
 3141 0026 09D1     		bne	.L266
 3142 0028 C068     		ldr	r0, [r0, #12]
 3143              	.LVL290:
 3144 002a 35F81210 		ldrh	r1, [r5, r2, lsl #1]
 3145 002e 00EB4700 		add	r0, r0, r7, lsl #1
 3146              		.loc 1 789 0
 3147 0032 03B0     		add	sp, sp, #12
 3148              		.cfi_remember_state
 3149              		.cfi_def_cfa_offset 20
 3150              		@ sp needed
 3151 0034 BDE8F040 		pop	{r4, r5, r6, r7, lr}
 3152              		.cfi_restore 14
 3153              		.cfi_restore 7
 3154              		.cfi_restore 6
 3155              		.cfi_restore 5
 3156              		.cfi_restore 4
 3157              		.cfi_def_cfa_offset 0
 3158              	.LVL291:
 3159              		.loc 1 788 0
 3160 0038 FFF7FEBF 		b	aseba_comb_sort
 3161              	.LVL292:
 3162              	.L266:
 3163              		.cfi_restore_state
 3164 003c FFF7FEFF 		bl	__stack_chk_fail
 3165              	.LVL293:
 3166              	.L268:
 3167              		.align	2
 3168              	.L267:
 3169 0040 00000000 		.word	__stack_chk_guard
 3170              		.cfi_endproc
 3171              	.LFE19:
 3172              		.size	AsebaNative_vecsort, .-AsebaNative_vecsort
 3173              		.section	.text.AsebaNative_mathmuldiv,"ax",%progbits
 3174              		.align	1
 3175              		.p2align 4,,15
 3176              		.global	AsebaNative_mathmuldiv
 3177              		.syntax unified
 3178              		.thumb
 3179              		.thumb_func
 3180              		.fpu fpv4-sp-d16
 3181              		.type	AsebaNative_mathmuldiv, %function
 3182              	AsebaNative_mathmuldiv:
 3183              	.LFB20:
 3184              		.loc 1 803 0
 3185              		.cfi_startproc
 3186              		@ args = 0, pretend = 0, frame = 8
 3187              		@ frame_needed = 0, uses_anonymous_args = 0
 3188              	.LVL294:
 3189 0000 2DE9F047 		push	{r4, r5, r6, r7, r8, r9, r10, lr}
 3190              		.cfi_def_cfa_offset 32
 3191              		.cfi_offset 4, -32
 3192              		.cfi_offset 5, -28
ARM GAS  /var/folders/d2/nstgp4h54kz7g1l847x_b8wc0000gn/T//cccORz8f.s 			page 57


 3193              		.cfi_offset 6, -24
 3194              		.cfi_offset 7, -20
 3195              		.cfi_offset 8, -16
 3196              		.cfi_offset 9, -12
 3197              		.cfi_offset 10, -8
 3198              		.cfi_offset 14, -4
 3199              	.LBB538:
 3200              	.LBB539:
 3201              		.loc 2 90 0
 3202 0004 B0F91C40 		ldrsh	r4, [r0, #28]
 3203 0008 4269     		ldr	r2, [r0, #20]
 3204              	.LVL295:
 3205              	.LBE539:
 3206              	.LBE538:
 3207              		.loc 1 803 0
 3208 000a DFF8D0E0 		ldr	lr, .L285
 3209              	.LBB542:
 3210              	.LBB540:
 3211              		.loc 2 90 0
 3212 000e A3B2     		uxth	r3, r4
 3213 0010 591E     		subs	r1, r3, #1
 3214 0012 09B2     		sxth	r1, r1
 3215              	.LBE540:
 3216              	.LBE542:
 3217              	.LBB543:
 3218              	.LBB544:
 3219 0014 9F1E     		subs	r7, r3, #2
 3220              	.LBE544:
 3221              	.LBE543:
 3222              	.LBB547:
 3223              	.LBB541:
 3224 0016 8183     		strh	r1, [r0, #28]	@ movhi
 3225              	.LBE541:
 3226              	.LBE547:
 3227              	.LBB548:
 3228              	.LBB545:
 3229 0018 3FB2     		sxth	r7, r7
 3230              	.LBE545:
 3231              	.LBE548:
 3232              	.LBB549:
 3233              	.LBB550:
 3234 001a DD1E     		subs	r5, r3, #3
 3235              	.LBE550:
 3236              	.LBE549:
 3237              		.loc 1 805 0
 3238 001c 32F81460 		ldrh	r6, [r2, r4, lsl #1]
 3239              	.LVL296:
 3240              	.LBB553:
 3241              	.LBB546:
 3242              		.loc 2 90 0
 3243 0020 8783     		strh	r7, [r0, #28]	@ movhi
 3244              	.LBE546:
 3245              	.LBE553:
 3246              	.LBB554:
 3247              	.LBB551:
 3248 0022 2DB2     		sxth	r5, r5
 3249              	.LBE551:
ARM GAS  /var/folders/d2/nstgp4h54kz7g1l847x_b8wc0000gn/T//cccORz8f.s 			page 58


 3250              	.LBE554:
 3251              	.LBB555:
 3252              	.LBB556:
 3253 0024 1C1F     		subs	r4, r3, #4
 3254              	.LBE556:
 3255              	.LBE555:
 3256              		.loc 1 806 0
 3257 0026 32F81110 		ldrh	r1, [r2, r1, lsl #1]
 3258              	.LVL297:
 3259              	.LBB559:
 3260              	.LBB552:
 3261              		.loc 2 90 0
 3262 002a 8583     		strh	r5, [r0, #28]	@ movhi
 3263              	.LBE552:
 3264              	.LBE559:
 3265              	.LBB560:
 3266              	.LBB557:
 3267 002c 24B2     		sxth	r4, r4
 3268              	.LBE557:
 3269              	.LBE560:
 3270              		.loc 1 807 0
 3271 002e 32F81770 		ldrh	r7, [r2, r7, lsl #1]
 3272              	.LVL298:
 3273              	.LBB561:
 3274              	.LBB558:
 3275              		.loc 2 90 0
 3276 0032 8483     		strh	r4, [r0, #28]	@ movhi
 3277              	.LBE558:
 3278              	.LBE561:
 3279              	.LBB562:
 3280              	.LBB563:
 3281 0034 053B     		subs	r3, r3, #5
 3282              	.LBE563:
 3283              	.LBE562:
 3284              		.loc 1 808 0
 3285 0036 32F815C0 		ldrh	ip, [r2, r5, lsl #1]
 3286              	.LVL299:
 3287              	.LBB565:
 3288              	.LBB564:
 3289              		.loc 2 90 0
 3290 003a 8383     		strh	r3, [r0, #28]	@ movhi
 3291              	.LBE564:
 3292              	.LBE565:
 3293              		.loc 1 803 0
 3294 003c 82B0     		sub	sp, sp, #8
 3295              		.cfi_def_cfa_offset 40
 3296              		.loc 1 811 0
 3297 003e 32F81450 		ldrh	r5, [r2, r4, lsl #1]
 3298              	.LVL300:
 3299              		.loc 1 803 0
 3300 0042 DEF80030 		ldr	r3, [lr]
 3301 0046 0193     		str	r3, [sp, #4]
 3302              		.loc 1 814 0
 3303 0048 75B3     		cbz	r5, .L269
 3304              	.LBB566:
 3305              		.loc 1 816 0
 3306 004a D0F80C80 		ldr	r8, [r0, #12]
ARM GAS  /var/folders/d2/nstgp4h54kz7g1l847x_b8wc0000gn/T//cccORz8f.s 			page 59


 3307              		.loc 1 818 0
 3308 004e 38F91C40 		ldrsh	r4, [r8, ip, lsl #1]
 3309              		.loc 1 816 0
 3310 0052 38F91120 		ldrsh	r2, [r8, r1, lsl #1]
 3311              		.loc 1 817 0
 3312 0056 38F917A0 		ldrsh	r10, [r8, r7, lsl #1]
 3313              		.loc 1 816 0
 3314 005a 4B1C     		adds	r3, r1, #1
 3315 005c 9BB2     		uxth	r3, r3
 3316              	.LVL301:
 3317              		.loc 1 819 0
 3318 005e 5CB3     		cbz	r4, .L272
 3319 0060 0D44     		add	r5, r5, r1
 3320              	.LVL302:
 3321 0062 013E     		subs	r6, r6, #1
 3322              	.LVL303:
 3323 0064 ADB2     		uxth	r5, r5
 3324              		.loc 1 821 0
 3325 0066 761A     		subs	r6, r6, r1
 3326              	.LVL304:
 3327 0068 ACEB010C 		sub	ip, ip, r1
 3328              	.LVL305:
 3329 006c 7F1A     		subs	r7, r7, r1
 3330              	.LVL306:
 3331 006e 0AE0     		b	.L275
 3332              	.LVL307:
 3333              	.L273:
 3334              		.loc 1 816 0
 3335 0070 D0F80C80 		ldr	r8, [r0, #12]
 3336              		.loc 1 818 0
 3337 0074 38F91140 		ldrsh	r4, [r8, r1, lsl #1]
 3338              		.loc 1 817 0
 3339 0078 38F912A0 		ldrsh	r10, [r8, r2, lsl #1]
 3340              		.loc 1 816 0
 3341 007c 38F91320 		ldrsh	r2, [r8, r3, lsl #1]
 3342              	.LVL308:
 3343 0080 0133     		adds	r3, r3, #1
 3344              	.LVL309:
 3345 0082 9BB2     		uxth	r3, r3
 3346              	.LVL310:
 3347              		.loc 1 819 0
 3348 0084 C4B1     		cbz	r4, .L272
 3349              	.L275:
 3350              		.loc 1 821 0
 3351 0086 03EB0609 		add	r9, r3, r6
 3352 008a 1FFA89F9 		uxth	r9, r9
 3353 008e 0AFB02FA 		mul	r10, r10, r2
 3354              	.LVL311:
 3355 0092 03EB0C01 		add	r1, r3, ip
 3356 0096 DA19     		adds	r2, r3, r7
 3357              	.LVL312:
 3358              	.LBE566:
 3359              		.loc 1 814 0
 3360 0098 9D42     		cmp	r5, r3
 3361              	.LBB567:
 3362              		.loc 1 821 0
 3363 009a 9AFBF4F4 		sdiv	r4, r10, r4
ARM GAS  /var/folders/d2/nstgp4h54kz7g1l847x_b8wc0000gn/T//cccORz8f.s 			page 60


 3364              	.LVL313:
 3365 009e 89B2     		uxth	r1, r1
 3366 00a0 28F81940 		strh	r4, [r8, r9, lsl #1]	@ movhi
 3367 00a4 92B2     		uxth	r2, r2
 3368              	.LVL314:
 3369              	.LBE567:
 3370              		.loc 1 814 0
 3371 00a6 E3D1     		bne	.L273
 3372              	.LVL315:
 3373              	.L269:
 3374              		.loc 1 830 0
 3375 00a8 019A     		ldr	r2, [sp, #4]
 3376 00aa DEF80030 		ldr	r3, [lr]
 3377 00ae 9A42     		cmp	r2, r3
 3378 00b0 12D1     		bne	.L284
 3379 00b2 02B0     		add	sp, sp, #8
 3380              		.cfi_remember_state
 3381              		.cfi_def_cfa_offset 32
 3382              		@ sp needed
 3383 00b4 BDE8F087 		pop	{r4, r5, r6, r7, r8, r9, r10, pc}
 3384              	.LVL316:
 3385              	.L272:
 3386              		.cfi_restore_state
 3387              	.LBB568:
 3388              		.loc 1 826 0
 3389 00b8 0199     		ldr	r1, [sp, #4]
 3390 00ba DEF80020 		ldr	r2, [lr]
 3391              	.LVL317:
 3392              		.loc 1 825 0
 3393 00be 0223     		movs	r3, #2
 3394              	.LVL318:
 3395              		.loc 1 826 0
 3396 00c0 9142     		cmp	r1, r2
 3397              		.loc 1 825 0
 3398 00c2 0383     		strh	r3, [r0, #24]	@ movhi
 3399              		.loc 1 826 0
 3400 00c4 08D1     		bne	.L284
 3401 00c6 00F11A02 		add	r2, r0, #26
 3402 00ca 49F20701 		movw	r1, #36871
 3403              	.LBE568:
 3404              		.loc 1 830 0
 3405 00ce 02B0     		add	sp, sp, #8
 3406              		.cfi_remember_state
 3407              		.cfi_def_cfa_offset 32
 3408              		@ sp needed
 3409 00d0 BDE8F047 		pop	{r4, r5, r6, r7, r8, r9, r10, lr}
 3410              		.cfi_restore 14
 3411              		.cfi_restore 10
 3412              		.cfi_restore 9
 3413              		.cfi_restore 8
 3414              		.cfi_restore 7
 3415              		.cfi_restore 6
 3416              		.cfi_restore 5
 3417              		.cfi_restore 4
 3418              		.cfi_def_cfa_offset 0
 3419              	.LVL319:
 3420              	.LBB569:
ARM GAS  /var/folders/d2/nstgp4h54kz7g1l847x_b8wc0000gn/T//cccORz8f.s 			page 61


 3421              		.loc 1 826 0
 3422 00d4 FFF7FEBF 		b	AsebaSendMessage
 3423              	.LVL320:
 3424              	.L284:
 3425              		.cfi_restore_state
 3426              	.LBE569:
 3427              		.loc 1 830 0
 3428 00d8 FFF7FEFF 		bl	__stack_chk_fail
 3429              	.LVL321:
 3430              	.L286:
 3431              		.align	2
 3432              	.L285:
 3433 00dc 00000000 		.word	__stack_chk_guard
 3434              		.cfi_endproc
 3435              	.LFE20:
 3436              		.size	AsebaNative_mathmuldiv, .-AsebaNative_mathmuldiv
 3437              		.section	.text.AsebaNative_mathatan2,"ax",%progbits
 3438              		.align	1
 3439              		.p2align 4,,15
 3440              		.global	AsebaNative_mathatan2
 3441              		.syntax unified
 3442              		.thumb
 3443              		.thumb_func
 3444              		.fpu fpv4-sp-d16
 3445              		.type	AsebaNative_mathatan2, %function
 3446              	AsebaNative_mathatan2:
 3447              	.LFB21:
 3448              		.loc 1 846 0
 3449              		.cfi_startproc
 3450              		@ args = 0, pretend = 0, frame = 8
 3451              		@ frame_needed = 0, uses_anonymous_args = 0
 3452              	.LVL322:
 3453 0000 2DE9F04F 		push	{r4, r5, r6, r7, r8, r9, r10, fp, lr}
 3454              		.cfi_def_cfa_offset 36
 3455              		.cfi_offset 4, -36
 3456              		.cfi_offset 5, -32
 3457              		.cfi_offset 6, -28
 3458              		.cfi_offset 7, -24
 3459              		.cfi_offset 8, -20
 3460              		.cfi_offset 9, -16
 3461              		.cfi_offset 10, -12
 3462              		.cfi_offset 11, -8
 3463              		.cfi_offset 14, -4
 3464              	.LBB570:
 3465              	.LBB571:
 3466              		.loc 2 90 0
 3467 0004 B0F91C30 		ldrsh	r3, [r0, #28]
 3468 0008 99B2     		uxth	r1, r3
 3469              	.LBE571:
 3470              	.LBE570:
 3471              		.loc 1 846 0
 3472 000a 0646     		mov	r6, r0
 3473              	.LBB574:
 3474              	.LBB572:
 3475              		.loc 2 90 0
 3476 000c 4A1E     		subs	r2, r1, #1
 3477 000e 4069     		ldr	r0, [r0, #20]
ARM GAS  /var/folders/d2/nstgp4h54kz7g1l847x_b8wc0000gn/T//cccORz8f.s 			page 62


 3478              	.LVL323:
 3479 0010 12B2     		sxth	r2, r2
 3480              	.LBE572:
 3481              	.LBE574:
 3482              	.LBB575:
 3483              	.LBB576:
 3484 0012 8D1E     		subs	r5, r1, #2
 3485              	.LBE576:
 3486              	.LBE575:
 3487              	.LBB580:
 3488              	.LBB573:
 3489 0014 B283     		strh	r2, [r6, #28]	@ movhi
 3490              	.LBE573:
 3491              	.LBE580:
 3492              	.LBB581:
 3493              	.LBB577:
 3494 0016 2DB2     		sxth	r5, r5
 3495              	.LBE577:
 3496              	.LBE581:
 3497              	.LBB582:
 3498              	.LBB583:
 3499 0018 CC1E     		subs	r4, r1, #3
 3500              	.LBE583:
 3501              	.LBE582:
 3502              		.loc 1 848 0
 3503 001a 30F81330 		ldrh	r3, [r0, r3, lsl #1]
 3504              	.LVL324:
 3505              	.LBB587:
 3506              	.LBB578:
 3507              		.loc 2 90 0
 3508 001e B583     		strh	r5, [r6, #28]	@ movhi
 3509              	.LBE578:
 3510              	.LBE587:
 3511              	.LBB588:
 3512              	.LBB584:
 3513 0020 24B2     		sxth	r4, r4
 3514              	.LBE584:
 3515              	.LBE588:
 3516              	.LBB589:
 3517              	.LBB579:
 3518 0022 30F91220 		ldrsh	r2, [r0, r2, lsl #1]
 3519              	.LVL325:
 3520              	.LBE579:
 3521              	.LBE589:
 3522              	.LBB590:
 3523              	.LBB585:
 3524 0026 B483     		strh	r4, [r6, #28]	@ movhi
 3525              	.LBE585:
 3526              	.LBE590:
 3527              	.LBB591:
 3528              	.LBB592:
 3529 0028 0439     		subs	r1, r1, #4
 3530              	.LBE592:
 3531              	.LBE591:
 3532              	.LBB594:
 3533              	.LBB586:
 3534 002a 30F915B0 		ldrsh	fp, [r0, r5, lsl #1]
ARM GAS  /var/folders/d2/nstgp4h54kz7g1l847x_b8wc0000gn/T//cccORz8f.s 			page 63


 3535              	.LVL326:
 3536              	.LBE586:
 3537              	.LBE594:
 3538              	.LBB595:
 3539              	.LBB593:
 3540 002e B183     		strh	r1, [r6, #28]	@ movhi
 3541              	.LBE593:
 3542              	.LBE595:
 3543              		.loc 1 853 0
 3544 0030 30F81410 		ldrh	r1, [r0, r4, lsl #1]
 3545              	.LVL327:
 3546              		.loc 1 846 0
 3547 0034 1B48     		ldr	r0, .L300
 3548 0036 83B0     		sub	sp, sp, #12
 3549              		.cfi_def_cfa_offset 48
 3550              		.loc 1 846 0
 3551 0038 0068     		ldr	r0, [r0]
 3552 003a 0190     		str	r0, [sp, #4]
 3553              		.loc 1 856 0
 3554 003c 41B3     		cbz	r1, .L287
 3555 003e 03EB0108 		add	r8, r3, r1
 3556              	.LBB596:
 3557              	.LBB597:
 3558              	.LBB598:
 3559              		.loc 1 76 0
 3560 0042 DFF86490 		ldr	r9, .L300+4
 3561 0046 1FFA88F8 		uxth	r8, r8
 3562 004a A2EB030A 		sub	r10, r2, r3
 3563 004e ABEB030B 		sub	fp, fp, r3
 3564              	.LVL328:
 3565 0052 07E0     		b	.L291
 3566              	.LVL329:
 3567              	.L298:
 3568 0054 30EA2100 		bics	r0, r0, r1, asr #32
 3569 0058 28BF     		it	cs
 3570 005a 4846     		movcs	r0, r9
 3571              	.LVL330:
 3572              	.LBE598:
 3573              	.LBE597:
 3574              	.LBE596:
 3575              		.loc 1 856 0
 3576 005c 4545     		cmp	r5, r8
 3577 005e 2B46     		mov	r3, r5
 3578              	.LVL331:
 3579              	.LBB601:
 3580              		.loc 1 860 0
 3581 0060 E053     		strh	r0, [r4, r7]	@ movhi
 3582              	.LVL332:
 3583              	.LBE601:
 3584              		.loc 1 856 0
 3585 0062 15D0     		beq	.L287
 3586              	.LVL333:
 3587              	.L291:
 3588              	.LBB602:
 3589              		.loc 1 858 0 discriminator 3
 3590 0064 03EB0A00 		add	r0, r3, r10
 3591 0068 F468     		ldr	r4, [r6, #12]
ARM GAS  /var/folders/d2/nstgp4h54kz7g1l847x_b8wc0000gn/T//cccORz8f.s 			page 64


 3592 006a 00B2     		sxth	r0, r0
 3593              		.loc 1 859 0 discriminator 3
 3594 006c 03EB0B01 		add	r1, r3, fp
 3595 0070 09B2     		sxth	r1, r1
 3596              		.loc 1 858 0 discriminator 3
 3597 0072 34F91000 		ldrsh	r0, [r4, r0, lsl #1]
 3598              	.LVL334:
 3599              		.loc 1 859 0 discriminator 3
 3600 0076 34F91110 		ldrsh	r1, [r4, r1, lsl #1]
 3601              	.LVL335:
 3602              		.loc 1 860 0 discriminator 3
 3603 007a 5D1C     		adds	r5, r3, #1
 3604 007c ADB2     		uxth	r5, r5
 3605              	.LVL336:
 3606 007e 5F00     		lsls	r7, r3, #1
 3607              	.LVL337:
 3608              	.LBB600:
 3609              	.LBB599:
 3610              		.loc 1 71 0 discriminator 3
 3611 0080 0028     		cmp	r0, #0
 3612 0082 E7D0     		beq	.L298
 3613 0084 FFF7FEFF 		bl	aseba_atan2.part.1
 3614              	.LVL338:
 3615              	.LBE599:
 3616              	.LBE600:
 3617              	.LBE602:
 3618              		.loc 1 856 0
 3619 0088 4545     		cmp	r5, r8
 3620 008a 2B46     		mov	r3, r5
 3621              	.LBB603:
 3622              		.loc 1 860 0
 3623 008c E053     		strh	r0, [r4, r7]	@ movhi
 3624              	.LVL339:
 3625              	.LBE603:
 3626              		.loc 1 856 0
 3627 008e E9D1     		bne	.L291
 3628              	.LVL340:
 3629              	.L287:
 3630              		.loc 1 862 0
 3631 0090 044B     		ldr	r3, .L300
 3632 0092 019A     		ldr	r2, [sp, #4]
 3633 0094 1B68     		ldr	r3, [r3]
 3634 0096 9A42     		cmp	r2, r3
 3635 0098 02D1     		bne	.L299
 3636 009a 03B0     		add	sp, sp, #12
 3637              		.cfi_remember_state
 3638              		.cfi_def_cfa_offset 36
 3639              		@ sp needed
 3640 009c BDE8F08F 		pop	{r4, r5, r6, r7, r8, r9, r10, fp, pc}
 3641              	.LVL341:
 3642              	.L299:
 3643              		.cfi_restore_state
 3644 00a0 FFF7FEFF 		bl	__stack_chk_fail
 3645              	.LVL342:
 3646              	.L301:
 3647              		.align	2
 3648              	.L300:
ARM GAS  /var/folders/d2/nstgp4h54kz7g1l847x_b8wc0000gn/T//cccORz8f.s 			page 65


 3649 00a4 00000000 		.word	__stack_chk_guard
 3650 00a8 0080FFFF 		.word	-32768
 3651              		.cfi_endproc
 3652              	.LFE21:
 3653              		.size	AsebaNative_mathatan2, .-AsebaNative_mathatan2
 3654              		.section	.text.AsebaNative_mathsin,"ax",%progbits
 3655              		.align	1
 3656              		.p2align 4,,15
 3657              		.global	AsebaNative_mathsin
 3658              		.syntax unified
 3659              		.thumb
 3660              		.thumb_func
 3661              		.fpu fpv4-sp-d16
 3662              		.type	AsebaNative_mathsin, %function
 3663              	AsebaNative_mathsin:
 3664              	.LFB22:
 3665              		.loc 1 877 0
 3666              		.cfi_startproc
 3667              		@ args = 0, pretend = 0, frame = 8
 3668              		@ frame_needed = 0, uses_anonymous_args = 0
 3669              	.LVL343:
 3670 0000 2DE9F047 		push	{r4, r5, r6, r7, r8, r9, r10, lr}
 3671              		.cfi_def_cfa_offset 32
 3672              		.cfi_offset 4, -32
 3673              		.cfi_offset 5, -28
 3674              		.cfi_offset 6, -24
 3675              		.cfi_offset 7, -20
 3676              		.cfi_offset 8, -16
 3677              		.cfi_offset 9, -12
 3678              		.cfi_offset 10, -8
 3679              		.cfi_offset 14, -4
 3680              	.LBB604:
 3681              	.LBB605:
 3682              		.loc 2 90 0
 3683 0004 B0F91C40 		ldrsh	r4, [r0, #28]
 3684              	.LBE605:
 3685              	.LBE604:
 3686              		.loc 1 877 0
 3687 0008 DFF86C80 		ldr	r8, .L312
 3688              	.LBB609:
 3689              	.LBB606:
 3690              		.loc 2 90 0
 3691 000c A3B2     		uxth	r3, r4
 3692              	.LBE606:
 3693              	.LBE609:
 3694              		.loc 1 877 0
 3695 000e 8246     		mov	r10, r0
 3696              	.LBB610:
 3697              	.LBB607:
 3698              		.loc 2 90 0
 3699 0010 591E     		subs	r1, r3, #1
 3700 0012 4069     		ldr	r0, [r0, #20]
 3701              	.LVL344:
 3702 0014 09B2     		sxth	r1, r1
 3703              	.LBE607:
 3704              	.LBE610:
 3705              	.LBB611:
ARM GAS  /var/folders/d2/nstgp4h54kz7g1l847x_b8wc0000gn/T//cccORz8f.s 			page 66


 3706              	.LBB612:
 3707 0016 9A1E     		subs	r2, r3, #2
 3708              	.LBE612:
 3709              	.LBE611:
 3710              	.LBB616:
 3711              	.LBB608:
 3712 0018 AAF81C10 		strh	r1, [r10, #28]	@ movhi
 3713              	.LBE608:
 3714              	.LBE616:
 3715              	.LBB617:
 3716              	.LBB613:
 3717 001c 12B2     		sxth	r2, r2
 3718              	.LBE613:
 3719              	.LBE617:
 3720              		.loc 1 879 0
 3721 001e 30F81440 		ldrh	r4, [r0, r4, lsl #1]
 3722              	.LVL345:
 3723              	.LBB618:
 3724              	.LBB614:
 3725              		.loc 2 90 0
 3726 0022 AAF81C20 		strh	r2, [r10, #28]	@ movhi
 3727              	.LBE614:
 3728              	.LBE618:
 3729              	.LBB619:
 3730              	.LBB620:
 3731 0026 033B     		subs	r3, r3, #3
 3732              	.LBE620:
 3733              	.LBE619:
 3734              	.LBB622:
 3735              	.LBB615:
 3736 0028 30F91170 		ldrsh	r7, [r0, r1, lsl #1]
 3737              	.LVL346:
 3738              	.LBE615:
 3739              	.LBE622:
 3740              	.LBB623:
 3741              	.LBB621:
 3742 002c AAF81C30 		strh	r3, [r10, #28]	@ movhi
 3743              	.LBE621:
 3744              	.LBE623:
 3745              		.loc 1 877 0
 3746 0030 82B0     		sub	sp, sp, #8
 3747              		.cfi_def_cfa_offset 40
 3748              		.loc 1 883 0
 3749 0032 30F81260 		ldrh	r6, [r0, r2, lsl #1]
 3750              	.LVL347:
 3751              		.loc 1 877 0
 3752 0036 D8F80030 		ldr	r3, [r8]
 3753 003a 0193     		str	r3, [sp, #4]
 3754              		.loc 1 886 0
 3755 003c 8EB1     		cbz	r6, .L302
 3756 003e 2644     		add	r6, r6, r4
 3757              	.LVL348:
 3758 0040 B6B2     		uxth	r6, r6
 3759 0042 3F1B     		subs	r7, r7, r4
 3760              	.LVL349:
 3761              	.L304:
 3762              	.LBB624:
ARM GAS  /var/folders/d2/nstgp4h54kz7g1l847x_b8wc0000gn/T//cccORz8f.s 			page 67


 3763              		.loc 1 888 0 discriminator 3
 3764 0044 E319     		adds	r3, r4, r7
 3765 0046 1BB2     		sxth	r3, r3
 3766 0048 DAF80C90 		ldr	r9, [r10, #12]
 3767              	.LVL350:
 3768              		.loc 1 889 0 discriminator 3
 3769 004c 39F91300 		ldrsh	r0, [r9, r3, lsl #1]
 3770 0050 651C     		adds	r5, r4, #1
 3771 0052 FFF7FEFF 		bl	aseba_sin
 3772              	.LVL351:
 3773 0056 ADB2     		uxth	r5, r5
 3774              	.LVL352:
 3775              	.LBE624:
 3776              		.loc 1 886 0 discriminator 3
 3777 0058 B542     		cmp	r5, r6
 3778              	.LBB625:
 3779              		.loc 1 889 0 discriminator 3
 3780 005a 29F81400 		strh	r0, [r9, r4, lsl #1]	@ movhi
 3781 005e 2C46     		mov	r4, r5
 3782              	.LBE625:
 3783              		.loc 1 886 0 discriminator 3
 3784 0060 F0D1     		bne	.L304
 3785              	.LVL353:
 3786              	.L302:
 3787              		.loc 1 891 0
 3788 0062 019A     		ldr	r2, [sp, #4]
 3789 0064 D8F80030 		ldr	r3, [r8]
 3790 0068 9A42     		cmp	r2, r3
 3791 006a 02D1     		bne	.L311
 3792 006c 02B0     		add	sp, sp, #8
 3793              		.cfi_remember_state
 3794              		.cfi_def_cfa_offset 32
 3795              		@ sp needed
 3796 006e BDE8F087 		pop	{r4, r5, r6, r7, r8, r9, r10, pc}
 3797              	.LVL354:
 3798              	.L311:
 3799              		.cfi_restore_state
 3800 0072 FFF7FEFF 		bl	__stack_chk_fail
 3801              	.LVL355:
 3802              	.L313:
 3803 0076 00BF     		.align	2
 3804              	.L312:
 3805 0078 00000000 		.word	__stack_chk_guard
 3806              		.cfi_endproc
 3807              	.LFE22:
 3808              		.size	AsebaNative_mathsin, .-AsebaNative_mathsin
 3809              		.section	.text.AsebaNative_mathcos,"ax",%progbits
 3810              		.align	1
 3811              		.p2align 4,,15
 3812              		.global	AsebaNative_mathcos
 3813              		.syntax unified
 3814              		.thumb
 3815              		.thumb_func
 3816              		.fpu fpv4-sp-d16
 3817              		.type	AsebaNative_mathcos, %function
 3818              	AsebaNative_mathcos:
 3819              	.LFB23:
ARM GAS  /var/folders/d2/nstgp4h54kz7g1l847x_b8wc0000gn/T//cccORz8f.s 			page 68


 3820              		.loc 1 905 0
 3821              		.cfi_startproc
 3822              		@ args = 0, pretend = 0, frame = 8
 3823              		@ frame_needed = 0, uses_anonymous_args = 0
 3824              	.LVL356:
 3825 0000 2DE9F047 		push	{r4, r5, r6, r7, r8, r9, r10, lr}
 3826              		.cfi_def_cfa_offset 32
 3827              		.cfi_offset 4, -32
 3828              		.cfi_offset 5, -28
 3829              		.cfi_offset 6, -24
 3830              		.cfi_offset 7, -20
 3831              		.cfi_offset 8, -16
 3832              		.cfi_offset 9, -12
 3833              		.cfi_offset 10, -8
 3834              		.cfi_offset 14, -4
 3835              	.LBB626:
 3836              	.LBB627:
 3837              		.loc 2 90 0
 3838 0004 B0F91C40 		ldrsh	r4, [r0, #28]
 3839              	.LBE627:
 3840              	.LBE626:
 3841              		.loc 1 905 0
 3842 0008 DFF87080 		ldr	r8, .L324
 3843              	.LBB631:
 3844              	.LBB628:
 3845              		.loc 2 90 0
 3846 000c A3B2     		uxth	r3, r4
 3847              	.LBE628:
 3848              	.LBE631:
 3849              		.loc 1 905 0
 3850 000e 8146     		mov	r9, r0
 3851              	.LBB632:
 3852              	.LBB629:
 3853              		.loc 2 90 0
 3854 0010 591E     		subs	r1, r3, #1
 3855 0012 4069     		ldr	r0, [r0, #20]
 3856              	.LVL357:
 3857 0014 09B2     		sxth	r1, r1
 3858              	.LBE629:
 3859              	.LBE632:
 3860              	.LBB633:
 3861              	.LBB634:
 3862 0016 9A1E     		subs	r2, r3, #2
 3863              	.LBE634:
 3864              	.LBE633:
 3865              	.LBB638:
 3866              	.LBB630:
 3867 0018 A9F81C10 		strh	r1, [r9, #28]	@ movhi
 3868              	.LBE630:
 3869              	.LBE638:
 3870              	.LBB639:
 3871              	.LBB635:
 3872 001c 12B2     		sxth	r2, r2
 3873              	.LBE635:
 3874              	.LBE639:
 3875              		.loc 1 907 0
 3876 001e 30F81440 		ldrh	r4, [r0, r4, lsl #1]
ARM GAS  /var/folders/d2/nstgp4h54kz7g1l847x_b8wc0000gn/T//cccORz8f.s 			page 69


 3877              	.LVL358:
 3878              	.LBB640:
 3879              	.LBB636:
 3880              		.loc 2 90 0
 3881 0022 A9F81C20 		strh	r2, [r9, #28]	@ movhi
 3882              	.LBE636:
 3883              	.LBE640:
 3884              	.LBB641:
 3885              	.LBB642:
 3886 0026 033B     		subs	r3, r3, #3
 3887              	.LBE642:
 3888              	.LBE641:
 3889              	.LBB644:
 3890              	.LBB637:
 3891 0028 30F91170 		ldrsh	r7, [r0, r1, lsl #1]
 3892              	.LVL359:
 3893              	.LBE637:
 3894              	.LBE644:
 3895              	.LBB645:
 3896              	.LBB643:
 3897 002c A9F81C30 		strh	r3, [r9, #28]	@ movhi
 3898              	.LBE643:
 3899              	.LBE645:
 3900              		.loc 1 905 0
 3901 0030 82B0     		sub	sp, sp, #8
 3902              		.cfi_def_cfa_offset 40
 3903              		.loc 1 911 0
 3904 0032 30F81260 		ldrh	r6, [r0, r2, lsl #1]
 3905              	.LVL360:
 3906              		.loc 1 905 0
 3907 0036 D8F80030 		ldr	r3, [r8]
 3908 003a 0193     		str	r3, [sp, #4]
 3909              		.loc 1 914 0
 3910 003c A6B1     		cbz	r6, .L314
 3911 003e 2644     		add	r6, r6, r4
 3912              	.LVL361:
 3913 0040 B6B2     		uxth	r6, r6
 3914 0042 3F1B     		subs	r7, r7, r4
 3915              	.LVL362:
 3916              	.L316:
 3917              	.LBB646:
 3918              		.loc 1 916 0 discriminator 3
 3919 0044 E319     		adds	r3, r4, r7
 3920 0046 1BB2     		sxth	r3, r3
 3921 0048 D9F80CA0 		ldr	r10, [r9, #12]
 3922              	.LVL363:
 3923              	.LBB647:
 3924              	.LBB648:
 3925              		.loc 1 223 0 discriminator 3
 3926 004c 3AF81300 		ldrh	r0, [r10, r3, lsl #1]
 3927 0050 00F58040 		add	r0, r0, #16384
 3928 0054 00B2     		sxth	r0, r0
 3929              	.LBE648:
 3930              	.LBE647:
 3931              		.loc 1 917 0 discriminator 3
 3932 0056 651C     		adds	r5, r4, #1
 3933              	.LBB650:
ARM GAS  /var/folders/d2/nstgp4h54kz7g1l847x_b8wc0000gn/T//cccORz8f.s 			page 70


 3934              	.LBB649:
 3935              		.loc 1 223 0 discriminator 3
 3936 0058 FFF7FEFF 		bl	aseba_sin
 3937              	.LVL364:
 3938              	.LBE649:
 3939              	.LBE650:
 3940              		.loc 1 917 0 discriminator 3
 3941 005c ADB2     		uxth	r5, r5
 3942              	.LVL365:
 3943              	.LBE646:
 3944              		.loc 1 914 0 discriminator 3
 3945 005e B542     		cmp	r5, r6
 3946              	.LBB651:
 3947              		.loc 1 917 0 discriminator 3
 3948 0060 2AF81400 		strh	r0, [r10, r4, lsl #1]	@ movhi
 3949 0064 2C46     		mov	r4, r5
 3950              	.LBE651:
 3951              		.loc 1 914 0 discriminator 3
 3952 0066 EDD1     		bne	.L316
 3953              	.LVL366:
 3954              	.L314:
 3955              		.loc 1 919 0
 3956 0068 019A     		ldr	r2, [sp, #4]
 3957 006a D8F80030 		ldr	r3, [r8]
 3958 006e 9A42     		cmp	r2, r3
 3959 0070 02D1     		bne	.L323
 3960 0072 02B0     		add	sp, sp, #8
 3961              		.cfi_remember_state
 3962              		.cfi_def_cfa_offset 32
 3963              		@ sp needed
 3964 0074 BDE8F087 		pop	{r4, r5, r6, r7, r8, r9, r10, pc}
 3965              	.LVL367:
 3966              	.L323:
 3967              		.cfi_restore_state
 3968 0078 FFF7FEFF 		bl	__stack_chk_fail
 3969              	.LVL368:
 3970              	.L325:
 3971              		.align	2
 3972              	.L324:
 3973 007c 00000000 		.word	__stack_chk_guard
 3974              		.cfi_endproc
 3975              	.LFE23:
 3976              		.size	AsebaNative_mathcos, .-AsebaNative_mathcos
 3977              		.section	.text.AsebaNative_mathrot2,"ax",%progbits
 3978              		.align	1
 3979              		.p2align 4,,15
 3980              		.global	AsebaNative_mathrot2
 3981              		.syntax unified
 3982              		.thumb
 3983              		.thumb_func
 3984              		.fpu fpv4-sp-d16
 3985              		.type	AsebaNative_mathrot2, %function
 3986              	AsebaNative_mathrot2:
 3987              	.LFB24:
 3988              		.loc 1 933 0
 3989              		.cfi_startproc
 3990              		@ args = 0, pretend = 0, frame = 8
ARM GAS  /var/folders/d2/nstgp4h54kz7g1l847x_b8wc0000gn/T//cccORz8f.s 			page 71


 3991              		@ frame_needed = 0, uses_anonymous_args = 0
 3992              	.LVL369:
 3993 0000 2DE9F04F 		push	{r4, r5, r6, r7, r8, r9, r10, fp, lr}
 3994              		.cfi_def_cfa_offset 36
 3995              		.cfi_offset 4, -36
 3996              		.cfi_offset 5, -32
 3997              		.cfi_offset 6, -28
 3998              		.cfi_offset 7, -24
 3999              		.cfi_offset 8, -20
 4000              		.cfi_offset 9, -16
 4001              		.cfi_offset 10, -12
 4002              		.cfi_offset 11, -8
 4003              		.cfi_offset 14, -4
 4004 0004 214F     		ldr	r7, .L330
 4005              	.LBB652:
 4006              	.LBB653:
 4007              		.loc 2 90 0
 4008 0006 B0F91C50 		ldrsh	r5, [r0, #28]
 4009              	.LBE653:
 4010              	.LBE652:
 4011              		.loc 1 933 0
 4012 000a 3B68     		ldr	r3, [r7]
 4013 000c 83B0     		sub	sp, sp, #12
 4014              		.cfi_def_cfa_offset 48
 4015              		.loc 1 933 0
 4016 000e 0446     		mov	r4, r0
 4017 0010 0193     		str	r3, [sp, #4]
 4018              	.LBB657:
 4019              	.LBB654:
 4020              		.loc 2 90 0
 4021 0012 ABB2     		uxth	r3, r5
 4022 0014 5A1E     		subs	r2, r3, #1
 4023 0016 4069     		ldr	r0, [r0, #20]
 4024              	.LVL370:
 4025              	.LBE654:
 4026              	.LBE657:
 4027              		.loc 1 940 0
 4028 0018 D4F80C90 		ldr	r9, [r4, #12]
 4029              	.LBB658:
 4030              	.LBB655:
 4031              		.loc 2 90 0
 4032 001c 12B2     		sxth	r2, r2
 4033              	.LBE655:
 4034              	.LBE658:
 4035              	.LBB659:
 4036              	.LBB660:
 4037 001e 991E     		subs	r1, r3, #2
 4038              	.LBE660:
 4039              	.LBE659:
 4040              	.LBB663:
 4041              	.LBB656:
 4042 0020 A283     		strh	r2, [r4, #28]	@ movhi
 4043              	.LBE656:
 4044              	.LBE663:
 4045              	.LBB664:
 4046              	.LBB661:
 4047 0022 09B2     		sxth	r1, r1
ARM GAS  /var/folders/d2/nstgp4h54kz7g1l847x_b8wc0000gn/T//cccORz8f.s 			page 72


 4048              	.LBE661:
 4049              	.LBE664:
 4050              		.loc 1 935 0
 4051 0024 30F81580 		ldrh	r8, [r0, r5, lsl #1]
 4052              	.LVL371:
 4053              	.LBB665:
 4054              	.LBB662:
 4055              		.loc 2 90 0
 4056 0028 A183     		strh	r1, [r4, #28]	@ movhi
 4057              	.LBE662:
 4058              	.LBE665:
 4059              	.LBB666:
 4060              	.LBB667:
 4061 002a 033B     		subs	r3, r3, #3
 4062              	.LBE667:
 4063              	.LBE666:
 4064              		.loc 1 936 0
 4065 002c 30F81220 		ldrh	r2, [r0, r2, lsl #1]
 4066              	.LVL372:
 4067              	.LBB669:
 4068              	.LBB668:
 4069              		.loc 2 90 0
 4070 0030 A383     		strh	r3, [r4, #28]	@ movhi
 4071              	.LVL373:
 4072              	.LBE668:
 4073              	.LBE669:
 4074              		.loc 1 942 0
 4075 0032 30F81130 		ldrh	r3, [r0, r1, lsl #1]
 4076              		.loc 1 940 0
 4077 0036 39F91260 		ldrsh	r6, [r9, r2, lsl #1]
 4078              	.LVL374:
 4079              		.loc 1 942 0
 4080 003a 39F913B0 		ldrsh	fp, [r9, r3, lsl #1]
 4081              		.loc 1 941 0
 4082 003e 09EB4202 		add	r2, r9, r2, lsl #1
 4083              	.LVL375:
 4084              	.LBB670:
 4085              	.LBB671:
 4086              		.loc 1 223 0
 4087 0042 0BF58040 		add	r0, fp, #16384
 4088              	.LVL376:
 4089 0046 00B2     		sxth	r0, r0
 4090              	.LBE671:
 4091              	.LBE670:
 4092              		.loc 1 941 0
 4093 0048 B2F90250 		ldrsh	r5, [r2, #2]
 4094              	.LVL377:
 4095              	.LBB673:
 4096              	.LBB672:
 4097              		.loc 1 223 0
 4098 004c FFF7FEFF 		bl	aseba_sin
 4099              	.LVL378:
 4100 0050 8246     		mov	r10, r0
 4101              	.LVL379:
 4102              	.LBE672:
 4103              	.LBE673:
 4104              		.loc 1 945 0
ARM GAS  /var/folders/d2/nstgp4h54kz7g1l847x_b8wc0000gn/T//cccORz8f.s 			page 73


 4105 0052 5846     		mov	r0, fp
 4106 0054 FFF7FEFF 		bl	aseba_sin
 4107              	.LVL380:
 4108              		.loc 1 947 0
 4109 0058 0AFB06F3 		mul	r3, r10, r6
 4110 005c 00FB1533 		mls	r3, r0, r5, r3
 4111 0060 DB13     		asrs	r3, r3, #15
 4112 0062 29F81830 		strh	r3, [r9, r8, lsl #1]	@ movhi
 4113              		.loc 1 951 0
 4114 0066 E368     		ldr	r3, [r4, #12]
 4115              		.loc 1 952 0
 4116 0068 019A     		ldr	r2, [sp, #4]
 4117              		.loc 1 948 0
 4118 006a 06FB00F6 		mul	r6, r6, r0
 4119              	.LVL381:
 4120              		.loc 1 951 0
 4121 006e 03EB4808 		add	r8, r3, r8, lsl #1
 4122              	.LVL382:
 4123              		.loc 1 948 0
 4124 0072 0AFB0565 		mla	r5, r10, r5, r6
 4125              	.LVL383:
 4126 0076 ED13     		asrs	r5, r5, #15
 4127 0078 A8F80250 		strh	r5, [r8, #2]	@ movhi
 4128              		.loc 1 952 0
 4129 007c 3B68     		ldr	r3, [r7]
 4130 007e 9A42     		cmp	r2, r3
 4131 0080 02D1     		bne	.L329
 4132 0082 03B0     		add	sp, sp, #12
 4133              		.cfi_remember_state
 4134              		.cfi_def_cfa_offset 36
 4135              		@ sp needed
 4136 0084 BDE8F08F 		pop	{r4, r5, r6, r7, r8, r9, r10, fp, pc}
 4137              	.LVL384:
 4138              	.L329:
 4139              		.cfi_restore_state
 4140 0088 FFF7FEFF 		bl	__stack_chk_fail
 4141              	.LVL385:
 4142              	.L331:
 4143              		.align	2
 4144              	.L330:
 4145 008c 00000000 		.word	__stack_chk_guard
 4146              		.cfi_endproc
 4147              	.LFE24:
 4148              		.size	AsebaNative_mathrot2, .-AsebaNative_mathrot2
 4149              		.section	.text.AsebaNative_mathsqrt,"ax",%progbits
 4150              		.align	1
 4151              		.p2align 4,,15
 4152              		.global	AsebaNative_mathsqrt
 4153              		.syntax unified
 4154              		.thumb
 4155              		.thumb_func
 4156              		.fpu fpv4-sp-d16
 4157              		.type	AsebaNative_mathsqrt, %function
 4158              	AsebaNative_mathsqrt:
 4159              	.LFB25:
 4160              		.loc 1 967 0
 4161              		.cfi_startproc
ARM GAS  /var/folders/d2/nstgp4h54kz7g1l847x_b8wc0000gn/T//cccORz8f.s 			page 74


 4162              		@ args = 0, pretend = 0, frame = 8
 4163              		@ frame_needed = 0, uses_anonymous_args = 0
 4164              	.LVL386:
 4165              	.LBB674:
 4166              	.LBB675:
 4167              		.loc 2 90 0
 4168 0000 B0F91C30 		ldrsh	r3, [r0, #28]
 4169              	.LBE675:
 4170              	.LBE674:
 4171              		.loc 1 967 0
 4172 0004 2DE9F043 		push	{r4, r5, r6, r7, r8, r9, lr}
 4173              		.cfi_def_cfa_offset 28
 4174              		.cfi_offset 4, -28
 4175              		.cfi_offset 5, -24
 4176              		.cfi_offset 6, -20
 4177              		.cfi_offset 7, -16
 4178              		.cfi_offset 8, -12
 4179              		.cfi_offset 9, -8
 4180              		.cfi_offset 14, -4
 4181              	.LBB679:
 4182              	.LBB676:
 4183              		.loc 2 90 0
 4184 0008 9AB2     		uxth	r2, r3
 4185 000a 541E     		subs	r4, r2, #1
 4186 000c 4569     		ldr	r5, [r0, #20]
 4187              	.LVL387:
 4188              	.LBE676:
 4189              	.LBE679:
 4190              		.loc 1 967 0
 4191 000e DFF8A480 		ldr	r8, .L354
 4192              	.LBB680:
 4193              	.LBB677:
 4194              		.loc 2 90 0
 4195 0012 24B2     		sxth	r4, r4
 4196              	.LBE677:
 4197              	.LBE680:
 4198              	.LBB681:
 4199              	.LBB682:
 4200 0014 911E     		subs	r1, r2, #2
 4201              	.LBE682:
 4202              	.LBE681:
 4203              	.LBB686:
 4204              	.LBB678:
 4205 0016 8483     		strh	r4, [r0, #28]	@ movhi
 4206              	.LBE678:
 4207              	.LBE686:
 4208              	.LBB687:
 4209              	.LBB683:
 4210 0018 09B2     		sxth	r1, r1
 4211              	.LBE683:
 4212              	.LBE687:
 4213              		.loc 1 969 0
 4214 001a 35F81330 		ldrh	r3, [r5, r3, lsl #1]
 4215              	.LVL388:
 4216              	.LBB688:
 4217              	.LBB684:
 4218              		.loc 2 90 0
ARM GAS  /var/folders/d2/nstgp4h54kz7g1l847x_b8wc0000gn/T//cccORz8f.s 			page 75


 4219 001e 8183     		strh	r1, [r0, #28]	@ movhi
 4220              	.LBE684:
 4221              	.LBE688:
 4222              	.LBB689:
 4223              	.LBB690:
 4224 0020 033A     		subs	r2, r2, #3
 4225              	.LBE690:
 4226              	.LBE689:
 4227              	.LBB692:
 4228              	.LBB685:
 4229 0022 35F914E0 		ldrsh	lr, [r5, r4, lsl #1]
 4230              	.LVL389:
 4231              	.LBE685:
 4232              	.LBE692:
 4233              	.LBB693:
 4234              	.LBB691:
 4235 0026 8283     		strh	r2, [r0, #28]	@ movhi
 4236              	.LBE691:
 4237              	.LBE693:
 4238              		.loc 1 967 0
 4239 0028 83B0     		sub	sp, sp, #12
 4240              		.cfi_def_cfa_offset 40
 4241              		.loc 1 973 0
 4242 002a 35F81120 		ldrh	r2, [r5, r1, lsl #1]
 4243              	.LVL390:
 4244              		.loc 1 967 0
 4245 002e D8F80010 		ldr	r1, [r8]
 4246 0032 0191     		str	r1, [sp, #4]
 4247              		.loc 1 976 0
 4248 0034 72B3     		cbz	r2, .L332
 4249 0036 03EB020C 		add	ip, r3, r2
 4250 003a 1FFA8CFC 		uxth	ip, ip
 4251 003e AEEB030E 		sub	lr, lr, r3
 4252              	.LVL391:
 4253              	.L339:
 4254              	.LBB694:
 4255              		.loc 1 978 0 discriminator 3
 4256 0042 03EB0E02 		add	r2, r3, lr
 4257 0046 12B2     		sxth	r2, r2
 4258 0048 C668     		ldr	r6, [r0, #12]
 4259 004a 36F91240 		ldrsh	r4, [r6, r2, lsl #1]
 4260              	.LVL392:
 4261              		.loc 1 979 0 discriminator 3
 4262 004e 5D1C     		adds	r5, r3, #1
 4263              	.LBB695:
 4264              	.LBB696:
 4265              		.loc 1 233 0 discriminator 3
 4266 0050 B4F5804F 		cmp	r4, #16384
 4267              	.LBE696:
 4268              	.LBE695:
 4269              		.loc 1 979 0 discriminator 3
 4270 0054 4FEA4307 		lsl	r7, r3, #1
 4271 0058 ADB2     		uxth	r5, r5
 4272              	.LVL393:
 4273              	.LBB699:
 4274              	.LBB697:
 4275              		.loc 1 231 0 discriminator 3
ARM GAS  /var/folders/d2/nstgp4h54kz7g1l847x_b8wc0000gn/T//cccORz8f.s 			page 76


 4276 005a 4FF48043 		mov	r3, #16384
 4277              		.loc 1 233 0 discriminator 3
 4278 005e 03DA     		bge	.L334
 4279              	.LVL394:
 4280              	.L335:
 4281              		.loc 1 234 0
 4282 0060 9B10     		asrs	r3, r3, #2
 4283              	.LVL395:
 4284              		.loc 1 233 0
 4285 0062 9C42     		cmp	r4, r3
 4286 0064 FCDB     		blt	.L335
 4287              		.loc 1 236 0
 4288 0066 EBB1     		cbz	r3, .L351
 4289              	.LVL396:
 4290              	.L334:
 4291              		.loc 1 231 0
 4292 0068 0022     		movs	r2, #0
 4293 006a 07E0     		b	.L338
 4294              	.LVL397:
 4295              	.L352:
 4296              		.loc 1 240 0
 4297 006c 99B2     		uxth	r1, r3
 4298 006e 0A44     		add	r2, r2, r1
 4299              	.LVL398:
 4300 0070 A41A     		subs	r4, r4, r2
 4301              	.LVL399:
 4302              		.loc 1 241 0
 4303 0072 4944     		add	r1, r1, r9
 4304              		.loc 1 236 0
 4305 0074 9B10     		asrs	r3, r3, #2
 4306              	.LVL400:
 4307              		.loc 1 240 0
 4308 0076 24B2     		sxth	r4, r4
 4309              	.LVL401:
 4310              		.loc 1 241 0
 4311 0078 0AB2     		sxth	r2, r1
 4312              	.LVL402:
 4313              		.loc 1 236 0
 4314 007a 07D0     		beq	.L336
 4315              	.LVL403:
 4316              	.L338:
 4317              		.loc 1 238 0
 4318 007c D118     		adds	r1, r2, r3
 4319 007e 8C42     		cmp	r4, r1
 4320 0080 4FEA6209 		asr	r9, r2, #1
 4321 0084 F2DA     		bge	.L352
 4322              		.loc 1 236 0
 4323 0086 9B10     		asrs	r3, r3, #2
 4324              	.LVL404:
 4325              		.loc 1 245 0
 4326 0088 4A46     		mov	r2, r9
 4327              	.LVL405:
 4328              		.loc 1 236 0
 4329 008a F7D1     		bne	.L338
 4330              	.L336:
 4331              	.LVL406:
 4332              	.LBE697:
ARM GAS  /var/folders/d2/nstgp4h54kz7g1l847x_b8wc0000gn/T//cccORz8f.s 			page 77


 4333              	.LBE699:
 4334              	.LBE694:
 4335              		.loc 1 976 0
 4336 008c 6545     		cmp	r5, ip
 4337 008e 2B46     		mov	r3, r5
 4338              	.LBB701:
 4339              		.loc 1 979 0
 4340 0090 F253     		strh	r2, [r6, r7]	@ movhi
 4341              	.LVL407:
 4342              	.LBE701:
 4343              		.loc 1 976 0
 4344 0092 D6D1     		bne	.L339
 4345              	.LVL408:
 4346              	.L332:
 4347              		.loc 1 981 0
 4348 0094 019A     		ldr	r2, [sp, #4]
 4349 0096 D8F80030 		ldr	r3, [r8]
 4350 009a 9A42     		cmp	r2, r3
 4351 009c 08D1     		bne	.L353
 4352 009e 03B0     		add	sp, sp, #12
 4353              		.cfi_remember_state
 4354              		.cfi_def_cfa_offset 28
 4355              		@ sp needed
 4356 00a0 BDE8F083 		pop	{r4, r5, r6, r7, r8, r9, pc}
 4357              	.LVL409:
 4358              	.L351:
 4359              		.cfi_restore_state
 4360              	.LBB702:
 4361              	.LBB700:
 4362              	.LBB698:
 4363              		.loc 1 230 0
 4364 00a4 1A46     		mov	r2, r3
 4365              	.LVL410:
 4366              	.LBE698:
 4367              	.LBE700:
 4368              	.LBE702:
 4369              		.loc 1 976 0
 4370 00a6 6545     		cmp	r5, ip
 4371 00a8 2B46     		mov	r3, r5
 4372              	.LBB703:
 4373              		.loc 1 979 0
 4374 00aa F253     		strh	r2, [r6, r7]	@ movhi
 4375              	.LVL411:
 4376              	.LBE703:
 4377              		.loc 1 976 0
 4378 00ac C9D1     		bne	.L339
 4379 00ae F1E7     		b	.L332
 4380              	.LVL412:
 4381              	.L353:
 4382              		.loc 1 981 0
 4383 00b0 FFF7FEFF 		bl	__stack_chk_fail
 4384              	.LVL413:
 4385              	.L355:
 4386              		.align	2
 4387              	.L354:
 4388 00b4 00000000 		.word	__stack_chk_guard
 4389              		.cfi_endproc
ARM GAS  /var/folders/d2/nstgp4h54kz7g1l847x_b8wc0000gn/T//cccORz8f.s 			page 78


 4390              	.LFE25:
 4391              		.size	AsebaNative_mathsqrt, .-AsebaNative_mathsqrt
 4392              		.section	.text.AsebaNative_vecnonzerosequence,"ax",%progbits
 4393              		.align	1
 4394              		.p2align 4,,15
 4395              		.global	AsebaNative_vecnonzerosequence
 4396              		.syntax unified
 4397              		.thumb
 4398              		.thumb_func
 4399              		.fpu fpv4-sp-d16
 4400              		.type	AsebaNative_vecnonzerosequence, %function
 4401              	AsebaNative_vecnonzerosequence:
 4402              	.LFB26:
 4403              		.loc 1 995 0
 4404              		.cfi_startproc
 4405              		@ args = 0, pretend = 0, frame = 8
 4406              		@ frame_needed = 0, uses_anonymous_args = 0
 4407              	.LVL414:
 4408 0000 2DE9F047 		push	{r4, r5, r6, r7, r8, r9, r10, lr}
 4409              		.cfi_def_cfa_offset 32
 4410              		.cfi_offset 4, -32
 4411              		.cfi_offset 5, -28
 4412              		.cfi_offset 6, -24
 4413              		.cfi_offset 7, -20
 4414              		.cfi_offset 8, -16
 4415              		.cfi_offset 9, -12
 4416              		.cfi_offset 10, -8
 4417              		.cfi_offset 14, -4
 4418 0004 524F     		ldr	r7, .L384
 4419              	.LBB704:
 4420              	.LBB705:
 4421              		.loc 2 90 0
 4422 0006 B0F91C60 		ldrsh	r6, [r0, #28]
 4423              	.LBE705:
 4424              	.LBE704:
 4425              		.loc 1 995 0
 4426 000a 3B68     		ldr	r3, [r7]
 4427 000c 4169     		ldr	r1, [r0, #20]
 4428              	.LVL415:
 4429 000e 82B0     		sub	sp, sp, #8
 4430              		.cfi_def_cfa_offset 40
 4431              		.loc 1 995 0
 4432 0010 0193     		str	r3, [sp, #4]
 4433              	.LBB708:
 4434              	.LBB706:
 4435              		.loc 2 90 0
 4436 0012 B3B2     		uxth	r3, r6
 4437 0014 5D1E     		subs	r5, r3, #1
 4438 0016 2DB2     		sxth	r5, r5
 4439              	.LBE706:
 4440              	.LBE708:
 4441              	.LBB709:
 4442              	.LBB710:
 4443 0018 9A1E     		subs	r2, r3, #2
 4444              	.LBE710:
 4445              	.LBE709:
 4446              	.LBB713:
ARM GAS  /var/folders/d2/nstgp4h54kz7g1l847x_b8wc0000gn/T//cccORz8f.s 			page 79


 4447              	.LBB707:
 4448 001a 8583     		strh	r5, [r0, #28]	@ movhi
 4449              	.LBE707:
 4450              	.LBE713:
 4451              	.LBB714:
 4452              	.LBB711:
 4453 001c 12B2     		sxth	r2, r2
 4454              	.LBE711:
 4455              	.LBE714:
 4456              	.LBB715:
 4457              	.LBB716:
 4458 001e DC1E     		subs	r4, r3, #3
 4459              	.LBE716:
 4460              	.LBE715:
 4461              		.loc 1 997 0
 4462 0020 31F816E0 		ldrh	lr, [r1, r6, lsl #1]
 4463              	.LVL416:
 4464              	.LBB720:
 4465              	.LBB712:
 4466              		.loc 2 90 0
 4467 0024 8283     		strh	r2, [r0, #28]	@ movhi
 4468              	.LBE712:
 4469              	.LBE720:
 4470              	.LBB721:
 4471              	.LBB717:
 4472 0026 24B2     		sxth	r4, r4
 4473              	.LBE717:
 4474              	.LBE721:
 4475              		.loc 1 998 0
 4476 0028 31F81550 		ldrh	r5, [r1, r5, lsl #1]
 4477              	.LVL417:
 4478              	.LBB722:
 4479              	.LBB718:
 4480              		.loc 2 90 0
 4481 002c 8483     		strh	r4, [r0, #28]	@ movhi
 4482              	.LBE718:
 4483              	.LBE722:
 4484              	.LBB723:
 4485              	.LBB724:
 4486 002e 043B     		subs	r3, r3, #4
 4487              	.LBE724:
 4488              	.LBE723:
 4489              	.LBB726:
 4490              	.LBB719:
 4491 0030 31F912C0 		ldrsh	ip, [r1, r2, lsl #1]
 4492              	.LVL418:
 4493              	.LBE719:
 4494              	.LBE726:
 4495              	.LBB727:
 4496              	.LBB725:
 4497 0034 8383     		strh	r3, [r0, #28]	@ movhi
 4498              	.LBE725:
 4499              	.LBE727:
 4500              		.loc 1 1015 0
 4501 0036 0022     		movs	r2, #0
 4502              		.loc 1 1002 0
 4503 0038 31F81430 		ldrh	r3, [r1, r4, lsl #1]
ARM GAS  /var/folders/d2/nstgp4h54kz7g1l847x_b8wc0000gn/T//cccORz8f.s 			page 80


 4504              	.LVL419:
 4505              		.loc 1 1003 0
 4506 003c C468     		ldr	r4, [r0, #12]
 4507              	.LVL420:
 4508 003e 1146     		mov	r1, r2
 4509              		.loc 1 1015 0
 4510 0040 03E0     		b	.L357
 4511              	.LVL421:
 4512              	.L359:
 4513 0042 0132     		adds	r2, r2, #1
 4514              		.loc 1 1018 0
 4515 0044 91B2     		uxth	r1, r2
 4516 0046 8B42     		cmp	r3, r1
 4517 0048 4ED3     		bcc	.L381
 4518              	.LVL422:
 4519              	.L357:
 4520              		.loc 1 1015 0
 4521 004a 90B2     		uxth	r0, r2
 4522              	.LVL423:
 4523 004c 4619     		adds	r6, r0, r5
 4524 004e 34F91660 		ldrsh	r6, [r4, r6, lsl #1]
 4525 0052 002E     		cmp	r6, #0
 4526 0054 F5D1     		bne	.L359
 4527              		.loc 1 1003 0
 4528 0056 1FFA8CFC 		uxth	ip, ip
 4529 005a 0A46     		mov	r2, r1
 4530 005c 34F91C80 		ldrsh	r8, [r4, ip, lsl #1]
 4531              	.LVL424:
 4532              	.L363:
 4533              		.loc 1 1027 0
 4534 0060 0132     		adds	r2, r2, #1
 4535              	.LVL425:
 4536 0062 92B2     		uxth	r2, r2
 4537              	.LVL426:
 4538              		.loc 1 1028 0
 4539 0064 9342     		cmp	r3, r2
 4540 0066 57D3     		bcc	.L382
 4541              		.loc 1 1025 0
 4542 0068 02EB050C 		add	ip, r2, r5
 4543 006c 34F91CC0 		ldrsh	ip, [r4, ip, lsl #1]
 4544 0070 BCF1000F 		cmp	ip, #0
 4545 0074 F4D0     		beq	.L363
 4546 0076 92FBF3F1 		sdiv	r1, r2, r3
 4547 007a 03FB1121 		mls	r1, r3, r1, r2
 4548 007e 2944     		add	r1, r1, r5
 4549              		.loc 1 1048 0
 4550 0080 4FF0000C 		mov	ip, #0
 4551 0084 34F911A0 		ldrsh	r10, [r4, r1, lsl #1]
 4552              		.loc 1 1046 0
 4553 0088 6046     		mov	r0, ip
 4554              	.L371:
 4555              	.LVL427:
 4556              		.loc 1 1054 0
 4557 008a 8146     		mov	r9, r0
 4558 008c 0EE0     		b	.L364
 4559              	.LVL428:
 4560              	.L366:
ARM GAS  /var/folders/d2/nstgp4h54kz7g1l847x_b8wc0000gn/T//cccORz8f.s 			page 81


 4561 008e 0131     		adds	r1, r1, #1
 4562 0090 89B2     		uxth	r1, r1
 4563 0092 0FFA81F9 		sxth	r9, r1
 4564              	.LVL429:
 4565              		.loc 1 1057 0
 4566 0096 9945     		cmp	r9, r3
 4567 0098 30DA     		bge	.L365
 4568 009a 02EB090A 		add	r10, r2, r9
 4569 009e 9AFBF3F1 		sdiv	r1, r10, r3
 4570 00a2 03FB11A1 		mls	r1, r3, r1, r10
 4571 00a6 2944     		add	r1, r1, r5
 4572 00a8 34F911A0 		ldrsh	r10, [r4, r1, lsl #1]
 4573              	.LVL430:
 4574              	.L364:
 4575 00ac 1FFA89F1 		uxth	r1, r9
 4576              		.loc 1 1054 0
 4577 00b0 BAF1000F 		cmp	r10, #0
 4578 00b4 EBD1     		bne	.L366
 4579              		.loc 1 1061 0
 4580 00b6 091A     		subs	r1, r1, r0
 4581 00b8 09B2     		sxth	r1, r1
 4582              	.LVL431:
 4583              		.loc 1 1062 0
 4584 00ba 8E42     		cmp	r6, r1
 4585 00bc 32DB     		blt	.L373
 4586 00be 4846     		mov	r0, r9
 4587              	.LVL432:
 4588              	.L367:
 4589              		.loc 1 1067 0
 4590 00c0 4B45     		cmp	r3, r9
 4591 00c2 04DC     		bgt	.L369
 4592 00c4 1EE0     		b	.L368
 4593              	.LVL433:
 4594              	.L370:
 4595 00c6 0130     		adds	r0, r0, #1
 4596              	.LVL434:
 4597 00c8 00B2     		sxth	r0, r0
 4598              	.LVL435:
 4599              		.loc 1 1074 0
 4600 00ca 9842     		cmp	r0, r3
 4601 00cc 1ADA     		bge	.L368
 4602              	.LVL436:
 4603              	.L369:
 4604              		.loc 1 1071 0
 4605 00ce 00EB0209 		add	r9, r0, r2
 4606 00d2 99FBF3F1 		sdiv	r1, r9, r3
 4607 00d6 03FB1191 		mls	r1, r3, r1, r9
 4608 00da 2944     		add	r1, r1, r5
 4609 00dc 34F911A0 		ldrsh	r10, [r4, r1, lsl #1]
 4610 00e0 BAF1000F 		cmp	r10, #0
 4611 00e4 EFD0     		beq	.L370
 4612 00e6 D0E7     		b	.L371
 4613              	.LVL437:
 4614              	.L381:
 4615              		.loc 1 1020 0
 4616 00e8 0023     		movs	r3, #0
 4617              	.LVL438:
ARM GAS  /var/folders/d2/nstgp4h54kz7g1l847x_b8wc0000gn/T//cccORz8f.s 			page 82


 4618 00ea 24F81E30 		strh	r3, [r4, lr, lsl #1]	@ movhi
 4619              	.LVL439:
 4620              	.L356:
 4621              		.loc 1 1088 0
 4622 00ee 019A     		ldr	r2, [sp, #4]
 4623 00f0 3B68     		ldr	r3, [r7]
 4624 00f2 9A42     		cmp	r2, r3
 4625 00f4 29D1     		bne	.L383
 4626 00f6 02B0     		add	sp, sp, #8
 4627              		.cfi_remember_state
 4628              		.cfi_def_cfa_offset 32
 4629              		@ sp needed
 4630 00f8 BDE8F087 		pop	{r4, r5, r6, r7, r8, r9, r10, pc}
 4631              	.LVL440:
 4632              	.L365:
 4633              		.cfi_restore_state
 4634              		.loc 1 1061 0
 4635 00fc 091A     		subs	r1, r1, r0
 4636 00fe 09B2     		sxth	r1, r1
 4637              	.LVL441:
 4638              		.loc 1 1062 0
 4639 0100 8E42     		cmp	r6, r1
 4640 0102 0FDB     		blt	.L373
 4641              	.LVL442:
 4642              	.L368:
 4643              		.loc 1 1080 0
 4644 0104 B045     		cmp	r8, r6
 4645 0106 08DC     		bgt	.L380
 4646              		.loc 1 1086 0
 4647 0108 6244     		add	r2, r2, ip
 4648              	.LVL443:
 4649 010a 92FBF3F1 		sdiv	r1, r2, r3
 4650 010e 03FB1123 		mls	r3, r3, r1, r2
 4651              	.LVL444:
 4652 0112 24F81E30 		strh	r3, [r4, lr, lsl #1]	@ movhi
 4653 0116 EAE7     		b	.L356
 4654              	.LVL445:
 4655              	.L382:
 4656              		.loc 1 1030 0
 4657 0118 61B9     		cbnz	r1, .L361
 4658              	.L380:
 4659              		.loc 1 1082 0
 4660 011a 4FF6FF73 		movw	r3, #65535
 4661              	.LVL446:
 4662 011e 24F81E30 		strh	r3, [r4, lr, lsl #1]	@ movhi
 4663 0122 E4E7     		b	.L356
 4664              	.LVL447:
 4665              	.L373:
 4666              		.loc 1 1065 0
 4667 0124 4844     		add	r0, r0, r9
 4668              	.LVL448:
 4669 0126 00EBD070 		add	r0, r0, r0, lsr #31
 4670 012a 40F34F0C 		sbfx	ip, r0, #1, #16
 4671              	.LVL449:
 4672 012e 0E46     		mov	r6, r1
 4673 0130 4846     		mov	r0, r9
 4674 0132 C5E7     		b	.L367
ARM GAS  /var/folders/d2/nstgp4h54kz7g1l847x_b8wc0000gn/T//cccORz8f.s 			page 83


 4675              	.LVL450:
 4676              	.L361:
 4677              	.LBB728:
 4678              		.loc 1 1036 0
 4679 0134 0139     		subs	r1, r1, #1
 4680              		.loc 1 1037 0
 4681 0136 89B2     		uxth	r1, r1
 4682 0138 4145     		cmp	r1, r8
 4683 013a EEDB     		blt	.L380
 4684              		.loc 1 1040 0
 4685 013c 0138     		subs	r0, r0, #1
 4686              	.LVL451:
 4687 013e 00EBD070 		add	r0, r0, r0, lsr #31
 4688              	.LVL452:
 4689 0142 4310     		asrs	r3, r0, #1
 4690              	.LVL453:
 4691 0144 24F81E30 		strh	r3, [r4, lr, lsl #1]	@ movhi
 4692 0148 D1E7     		b	.L356
 4693              	.LVL454:
 4694              	.L383:
 4695              	.LBE728:
 4696              		.loc 1 1088 0
 4697 014a FFF7FEFF 		bl	__stack_chk_fail
 4698              	.LVL455:
 4699              	.L385:
 4700 014e 00BF     		.align	2
 4701              	.L384:
 4702 0150 00000000 		.word	__stack_chk_guard
 4703              		.cfi_endproc
 4704              	.LFE26:
 4705              		.size	AsebaNative_vecnonzerosequence, .-AsebaNative_vecnonzerosequence
 4706              		.section	.text.AsebaSetRandomSeed,"ax",%progbits
 4707              		.align	1
 4708              		.p2align 4,,15
 4709              		.global	AsebaSetRandomSeed
 4710              		.syntax unified
 4711              		.thumb
 4712              		.thumb_func
 4713              		.fpu fpv4-sp-d16
 4714              		.type	AsebaSetRandomSeed, %function
 4715              	AsebaSetRandomSeed:
 4716              	.LFB27:
 4717              		.loc 1 1106 0
 4718              		.cfi_startproc
 4719              		@ args = 0, pretend = 0, frame = 8
 4720              		@ frame_needed = 0, uses_anonymous_args = 0
 4721              	.LVL456:
 4722 0000 00B5     		push	{lr}
 4723              		.cfi_def_cfa_offset 4
 4724              		.cfi_offset 14, -4
 4725 0002 074B     		ldr	r3, .L390
 4726              		.loc 1 1107 0
 4727 0004 0749     		ldr	r1, .L390+4
 4728              		.loc 1 1106 0
 4729 0006 1A68     		ldr	r2, [r3]
 4730              		.loc 1 1107 0
 4731 0008 0880     		strh	r0, [r1]	@ movhi
ARM GAS  /var/folders/d2/nstgp4h54kz7g1l847x_b8wc0000gn/T//cccORz8f.s 			page 84


 4732              		.loc 1 1106 0
 4733 000a 83B0     		sub	sp, sp, #12
 4734              		.cfi_def_cfa_offset 16
 4735              		.loc 1 1106 0
 4736 000c 0192     		str	r2, [sp, #4]
 4737              		.loc 1 1108 0
 4738 000e 019A     		ldr	r2, [sp, #4]
 4739 0010 1B68     		ldr	r3, [r3]
 4740 0012 9A42     		cmp	r2, r3
 4741 0014 02D1     		bne	.L389
 4742 0016 03B0     		add	sp, sp, #12
 4743              		.cfi_remember_state
 4744              		.cfi_def_cfa_offset 4
 4745              		@ sp needed
 4746 0018 5DF804FB 		ldr	pc, [sp], #4
 4747              	.L389:
 4748              		.cfi_restore_state
 4749 001c FFF7FEFF 		bl	__stack_chk_fail
 4750              	.LVL457:
 4751              	.L391:
 4752              		.align	2
 4753              	.L390:
 4754 0020 00000000 		.word	__stack_chk_guard
 4755 0024 00000000 		.word	.LANCHOR2
 4756              		.cfi_endproc
 4757              	.LFE27:
 4758              		.size	AsebaSetRandomSeed, .-AsebaSetRandomSeed
 4759              		.section	.text.AsebaGetRandom,"ax",%progbits
 4760              		.align	1
 4761              		.p2align 4,,15
 4762              		.global	AsebaGetRandom
 4763              		.syntax unified
 4764              		.thumb
 4765              		.thumb_func
 4766              		.fpu fpv4-sp-d16
 4767              		.type	AsebaGetRandom, %function
 4768              	AsebaGetRandom:
 4769              	.LFB28:
 4770              		.loc 1 1111 0
 4771              		.cfi_startproc
 4772              		@ args = 0, pretend = 0, frame = 8
 4773              		@ frame_needed = 0, uses_anonymous_args = 0
 4774 0000 10B5     		push	{r4, lr}
 4775              		.cfi_def_cfa_offset 8
 4776              		.cfi_offset 4, -8
 4777              		.cfi_offset 14, -4
 4778              		.loc 1 1112 0
 4779 0002 0E4A     		ldr	r2, .L396
 4780              		.loc 1 1111 0
 4781 0004 0E49     		ldr	r1, .L396+4
 4782              		.loc 1 1112 0
 4783 0006 1088     		ldrh	r0, [r2]
 4784              		.loc 1 1111 0
 4785 0008 0B68     		ldr	r3, [r1]
 4786 000a 82B0     		sub	sp, sp, #8
 4787              		.cfi_def_cfa_offset 16
 4788              		.loc 1 1111 0
ARM GAS  /var/folders/d2/nstgp4h54kz7g1l847x_b8wc0000gn/T//cccORz8f.s 			page 85


 4789 000c 0193     		str	r3, [sp, #4]
 4790              		.loc 1 1112 0
 4791 000e C0EBC003 		rsb	r3, r0, r0, lsl #3
 4792 0012 00EB8303 		add	r3, r0, r3, lsl #2
 4793 0016 C3EBC303 		rsb	r3, r3, r3, lsl #3
 4794 001a C3EB4313 		rsb	r3, r3, r3, lsl #5
 4795 001e 00EB8300 		add	r0, r0, r3, lsl #2
 4796              		.loc 1 1114 0
 4797 0022 019C     		ldr	r4, [sp, #4]
 4798 0024 0B68     		ldr	r3, [r1]
 4799              		.loc 1 1112 0
 4800 0026 00F55850 		add	r0, r0, #13824
 4801 002a 1930     		adds	r0, r0, #25
 4802 002c 80B2     		uxth	r0, r0
 4803              		.loc 1 1114 0
 4804 002e 9C42     		cmp	r4, r3
 4805              		.loc 1 1112 0
 4806 0030 1080     		strh	r0, [r2]	@ movhi
 4807              		.loc 1 1114 0
 4808 0032 01D1     		bne	.L395
 4809 0034 02B0     		add	sp, sp, #8
 4810              		.cfi_remember_state
 4811              		.cfi_def_cfa_offset 8
 4812              		@ sp needed
 4813 0036 10BD     		pop	{r4, pc}
 4814              	.L395:
 4815              		.cfi_restore_state
 4816 0038 FFF7FEFF 		bl	__stack_chk_fail
 4817              	.LVL458:
 4818              	.L397:
 4819              		.align	2
 4820              	.L396:
 4821 003c 00000000 		.word	.LANCHOR2
 4822 0040 00000000 		.word	__stack_chk_guard
 4823              		.cfi_endproc
 4824              	.LFE28:
 4825              		.size	AsebaGetRandom, .-AsebaGetRandom
 4826              		.section	.text.AsebaNative_rand,"ax",%progbits
 4827              		.align	1
 4828              		.p2align 4,,15
 4829              		.global	AsebaNative_rand
 4830              		.syntax unified
 4831              		.thumb
 4832              		.thumb_func
 4833              		.fpu fpv4-sp-d16
 4834              		.type	AsebaNative_rand, %function
 4835              	AsebaNative_rand:
 4836              	.LFB29:
 4837              		.loc 1 1117 0
 4838              		.cfi_startproc
 4839              		@ args = 0, pretend = 0, frame = 8
 4840              		@ frame_needed = 0, uses_anonymous_args = 0
 4841              	.LVL459:
 4842              	.LBB729:
 4843              	.LBB730:
 4844              		.loc 2 90 0
 4845 0000 B0F91C10 		ldrsh	r1, [r0, #28]
ARM GAS  /var/folders/d2/nstgp4h54kz7g1l847x_b8wc0000gn/T//cccORz8f.s 			page 86


 4846              	.LBE730:
 4847              	.LBE729:
 4848              		.loc 1 1117 0
 4849 0004 F0B5     		push	{r4, r5, r6, r7, lr}
 4850              		.cfi_def_cfa_offset 20
 4851              		.cfi_offset 4, -20
 4852              		.cfi_offset 5, -16
 4853              		.cfi_offset 6, -12
 4854              		.cfi_offset 7, -8
 4855              		.cfi_offset 14, -4
 4856              	.LBB732:
 4857              	.LBB731:
 4858              		.loc 2 90 0
 4859 0006 8AB2     		uxth	r2, r1
 4860 0008 531E     		subs	r3, r2, #1
 4861 000a 1BB2     		sxth	r3, r3
 4862 000c 4469     		ldr	r4, [r0, #20]
 4863              	.LVL460:
 4864 000e 8383     		strh	r3, [r0, #28]	@ movhi
 4865              	.LBE731:
 4866              	.LBE732:
 4867              	.LBB733:
 4868              	.LBB734:
 4869 0010 023A     		subs	r2, r2, #2
 4870              	.LBE734:
 4871              	.LBE733:
 4872              		.loc 1 1119 0
 4873 0012 34F81110 		ldrh	r1, [r4, r1, lsl #1]
 4874              	.LVL461:
 4875              		.loc 1 1117 0
 4876 0016 164E     		ldr	r6, .L408
 4877              	.LBB736:
 4878              	.LBB735:
 4879              		.loc 2 90 0
 4880 0018 8283     		strh	r2, [r0, #28]	@ movhi
 4881              	.LBE735:
 4882              	.LBE736:
 4883              		.loc 1 1117 0
 4884 001a 83B0     		sub	sp, sp, #12
 4885              		.cfi_def_cfa_offset 32
 4886              		.loc 1 1122 0
 4887 001c 34F81340 		ldrh	r4, [r4, r3, lsl #1]
 4888              	.LVL462:
 4889              		.loc 1 1117 0
 4890 0020 3368     		ldr	r3, [r6]
 4891 0022 0193     		str	r3, [sp, #4]
 4892              		.loc 1 1125 0
 4893 0024 DCB1     		cbz	r4, .L398
 4894 0026 134F     		ldr	r7, .L408+4
 4895 0028 0C44     		add	r4, r4, r1
 4896              	.LVL463:
 4897 002a 3B88     		ldrh	r3, [r7]
 4898 002c A4B2     		uxth	r4, r4
 4899              	.LBB737:
 4900              	.LBB738:
 4901              		.loc 1 1112 0
 4902 002e 43F21965 		movw	r5, #13849
ARM GAS  /var/folders/d2/nstgp4h54kz7g1l847x_b8wc0000gn/T//cccORz8f.s 			page 87


 4903              	.LVL464:
 4904              	.L400:
 4905 0032 C3EBC302 		rsb	r2, r3, r3, lsl #3
 4906 0036 03EB8202 		add	r2, r3, r2, lsl #2
 4907 003a C2EBC202 		rsb	r2, r2, r2, lsl #3
 4908 003e C2EB4212 		rsb	r2, r2, r2, lsl #5
 4909 0042 03EB8203 		add	r3, r3, r2, lsl #2
 4910 0046 2B44     		add	r3, r3, r5
 4911              	.LBE738:
 4912              	.LBE737:
 4913              		.loc 1 1127 0
 4914 0048 C268     		ldr	r2, [r0, #12]
 4915              	.LBB740:
 4916              	.LBB739:
 4917              		.loc 1 1112 0
 4918 004a 9BB2     		uxth	r3, r3
 4919              	.LBE739:
 4920              	.LBE740:
 4921              		.loc 1 1127 0
 4922 004c 01F1010C 		add	ip, r1, #1
 4923              	.LVL465:
 4924 0050 22F81130 		strh	r3, [r2, r1, lsl #1]	@ movhi
 4925 0054 1FFA8CF1 		uxth	r1, ip
 4926              		.loc 1 1125 0
 4927 0058 A142     		cmp	r1, r4
 4928 005a EAD1     		bne	.L400
 4929 005c 3B80     		strh	r3, [r7]	@ movhi
 4930              	.LVL466:
 4931              	.L398:
 4932              		.loc 1 1129 0
 4933 005e 019A     		ldr	r2, [sp, #4]
 4934 0060 3368     		ldr	r3, [r6]
 4935 0062 9A42     		cmp	r2, r3
 4936 0064 01D1     		bne	.L407
 4937 0066 03B0     		add	sp, sp, #12
 4938              		.cfi_remember_state
 4939              		.cfi_def_cfa_offset 20
 4940              		@ sp needed
 4941 0068 F0BD     		pop	{r4, r5, r6, r7, pc}
 4942              	.L407:
 4943              		.cfi_restore_state
 4944 006a FFF7FEFF 		bl	__stack_chk_fail
 4945              	.LVL467:
 4946              	.L409:
 4947 006e 00BF     		.align	2
 4948              	.L408:
 4949 0070 00000000 		.word	__stack_chk_guard
 4950 0074 00000000 		.word	.LANCHOR2
 4951              		.cfi_endproc
 4952              	.LFE29:
 4953              		.size	AsebaNative_rand, .-AsebaNative_rand
 4954              		.global	AsebaNativeDescription_rand
 4955              		.global	AsebaNativeDescription_vecnonzerosequence
 4956              		.global	AsebaNativeDescription_mathsqrt
 4957              		.global	AsebaNativeDescription_mathrot2
 4958              		.global	AsebaNativeDescription_mathcos
 4959              		.global	AsebaNativeDescription_mathsin
ARM GAS  /var/folders/d2/nstgp4h54kz7g1l847x_b8wc0000gn/T//cccORz8f.s 			page 88


 4960              		.global	AsebaNativeDescription_mathatan2
 4961              		.global	AsebaNativeDescription_mathmuldiv
 4962              		.global	AsebaNativeDescription_vecsort
 4963              		.global	AsebaNativeDescription_vecargbounds
 4964              		.global	AsebaNativeDescription_vecstat
 4965              		.global	AsebaNativeDescription_vecdot
 4966              		.global	AsebaNativeDescription_vecclamp
 4967              		.global	AsebaNativeDescription_vecmax
 4968              		.global	AsebaNativeDescription_vecmin
 4969              		.global	AsebaNativeDescription_vecdiv
 4970              		.global	AsebaNativeDescription_vecmul
 4971              		.global	AsebaNativeDescription_vecsub
 4972              		.global	AsebaNativeDescription_vecadd
 4973              		.global	AsebaNativeDescription_vecaddscalar
 4974              		.global	AsebaNativeDescription_vecfill
 4975              		.global	AsebaNativeDescription_veccopy
 4976              		.section	.bss.rnd_state,"aw",%nobits
 4977              		.align	1
 4978              		.set	.LANCHOR2,. + 0
 4979              		.type	rnd_state, %object
 4980              		.size	rnd_state, 2
 4981              	rnd_state:
 4982 0000 0000     		.space	2
 4983              		.section	.rodata.AsebaNativeDescription_mathatan2,"a",%progbits
 4984              		.align	2
 4985              		.type	AsebaNativeDescription_mathatan2, %object
 4986              		.size	AsebaNativeDescription_mathatan2, 40
 4987              	AsebaNativeDescription_mathatan2:
 4988 0000 B4010000 		.word	.LC18
 4989 0004 C0010000 		.word	.LC19
 4990 0008 FFFF     		.short	-1
 4991 000a 0000     		.space	2
 4992 000c 2C000000 		.word	.LC2
 4993 0010 FFFF     		.short	-1
 4994 0012 0000     		.space	2
 4995 0014 F0010000 		.word	.LC20
 4996 0018 FFFF     		.short	-1
 4997 001a 0000     		.space	2
 4998 001c 0C010000 		.word	.LC9
 4999 0020 0000     		.short	0
 5000 0022 0000     		.space	2
 5001 0024 00000000 		.word	0
 5002              		.section	.rodata.AsebaNativeDescription_mathcos,"a",%progbits
 5003              		.align	2
 5004              		.type	AsebaNativeDescription_mathcos, %object
 5005              		.size	AsebaNativeDescription_mathcos, 32
 5006              	AsebaNativeDescription_mathcos:
 5007 0000 44010000 		.word	.LC14
 5008 0004 50010000 		.word	.LC15
 5009 0008 FFFF     		.short	-1
 5010 000a 0000     		.space	2
 5011 000c 2C000000 		.word	.LC2
 5012 0010 FFFF     		.short	-1
 5013 0012 0000     		.space	2
 5014 0014 0C010000 		.word	.LC9
 5015 0018 0000     		.short	0
 5016 001a 0000     		.space	2
ARM GAS  /var/folders/d2/nstgp4h54kz7g1l847x_b8wc0000gn/T//cccORz8f.s 			page 89


 5017 001c 00000000 		.word	0
 5018              		.section	.rodata.AsebaNativeDescription_mathmuldiv,"a",%progbits
 5019              		.align	2
 5020              		.type	AsebaNativeDescription_mathmuldiv, %object
 5021              		.size	AsebaNativeDescription_mathmuldiv, 48
 5022              	AsebaNativeDescription_mathmuldiv:
 5023 0000 F4010000 		.word	.LC21
 5024 0004 00020000 		.word	.LC22
 5025 0008 FFFF     		.short	-1
 5026 000a 0000     		.space	2
 5027 000c 2C000000 		.word	.LC2
 5028 0010 FFFF     		.short	-1
 5029 0012 0000     		.space	2
 5030 0014 40010000 		.word	.LC13
 5031 0018 FFFF     		.short	-1
 5032 001a 0000     		.space	2
 5033 001c 38020000 		.word	.LC23
 5034 0020 FFFF     		.short	-1
 5035 0022 0000     		.space	2
 5036 0024 3C020000 		.word	.LC24
 5037 0028 0000     		.short	0
 5038 002a 0000     		.space	2
 5039 002c 00000000 		.word	0
 5040              		.section	.rodata.AsebaNativeDescription_mathrot2,"a",%progbits
 5041              		.align	2
 5042              		.type	AsebaNativeDescription_mathrot2, %object
 5043              		.size	AsebaNativeDescription_mathrot2, 40
 5044              	AsebaNativeDescription_mathrot2:
 5045 0000 10010000 		.word	.LC10
 5046 0004 1C010000 		.word	.LC11
 5047 0008 0200     		.short	2
 5048 000a 0000     		.space	2
 5049 000c 2C000000 		.word	.LC2
 5050 0010 0200     		.short	2
 5051 0012 0000     		.space	2
 5052 0014 3C010000 		.word	.LC12
 5053 0018 0100     		.short	1
 5054 001a 0000     		.space	2
 5055 001c 40010000 		.word	.LC13
 5056 0020 0000     		.short	0
 5057 0022 0000     		.space	2
 5058 0024 00000000 		.word	0
 5059              		.section	.rodata.AsebaNativeDescription_mathsin,"a",%progbits
 5060              		.align	2
 5061              		.type	AsebaNativeDescription_mathsin, %object
 5062              		.size	AsebaNativeDescription_mathsin, 32
 5063              	AsebaNativeDescription_mathsin:
 5064 0000 7C010000 		.word	.LC16
 5065 0004 88010000 		.word	.LC17
 5066 0008 FFFF     		.short	-1
 5067 000a 0000     		.space	2
 5068 000c 2C000000 		.word	.LC2
 5069 0010 FFFF     		.short	-1
 5070 0012 0000     		.space	2
 5071 0014 0C010000 		.word	.LC9
 5072 0018 0000     		.short	0
 5073 001a 0000     		.space	2
ARM GAS  /var/folders/d2/nstgp4h54kz7g1l847x_b8wc0000gn/T//cccORz8f.s 			page 90


 5074 001c 00000000 		.word	0
 5075              		.section	.rodata.AsebaNativeDescription_mathsqrt,"a",%progbits
 5076              		.align	2
 5077              		.type	AsebaNativeDescription_mathsqrt, %object
 5078              		.size	AsebaNativeDescription_mathsqrt, 32
 5079              	AsebaNativeDescription_mathsqrt:
 5080 0000 D4000000 		.word	.LC7
 5081 0004 E0000000 		.word	.LC8
 5082 0008 FFFF     		.short	-1
 5083 000a 0000     		.space	2
 5084 000c 2C000000 		.word	.LC2
 5085 0010 FFFF     		.short	-1
 5086 0012 0000     		.space	2
 5087 0014 0C010000 		.word	.LC9
 5088 0018 0000     		.short	0
 5089 001a 0000     		.space	2
 5090 001c 00000000 		.word	0
 5091              		.section	.rodata.AsebaNativeDescription_rand,"a",%progbits
 5092              		.align	2
 5093              		.type	AsebaNativeDescription_rand, %object
 5094              		.size	AsebaNativeDescription_rand, 24
 5095              	AsebaNativeDescription_rand:
 5096 0000 00000000 		.word	.LC0
 5097 0004 0C000000 		.word	.LC1
 5098 0008 FFFF     		.short	-1
 5099 000a 0000     		.space	2
 5100 000c 2C000000 		.word	.LC2
 5101 0010 0000     		.short	0
 5102 0012 0000     		.space	2
 5103 0014 00000000 		.word	0
 5104              		.section	.rodata.AsebaNativeDescription_vecadd,"a",%progbits
 5105              		.align	2
 5106              		.type	AsebaNativeDescription_vecadd, %object
 5107              		.size	AsebaNativeDescription_vecadd, 40
 5108              	AsebaNativeDescription_vecadd:
 5109 0000 14050000 		.word	.LC56
 5110 0004 20050000 		.word	.LC57
 5111 0008 FFFF     		.short	-1
 5112 000a 0000     		.space	2
 5113 000c 2C000000 		.word	.LC2
 5114 0010 FFFF     		.short	-1
 5115 0012 0000     		.space	2
 5116 0014 48030000 		.word	.LC39
 5117 0018 FFFF     		.short	-1
 5118 001a 0000     		.space	2
 5119 001c 50030000 		.word	.LC40
 5120 0020 0000     		.short	0
 5121 0022 0000     		.space	2
 5122 0024 00000000 		.word	0
 5123              		.section	.rodata.AsebaNativeDescription_vecaddscalar,"a",%progbits
 5124              		.align	2
 5125              		.type	AsebaNativeDescription_vecaddscalar, %object
 5126              		.size	AsebaNativeDescription_vecaddscalar, 40
 5127              	AsebaNativeDescription_vecaddscalar:
 5128 0000 50050000 		.word	.LC58
 5129 0004 60050000 		.word	.LC59
 5130 0008 FFFF     		.short	-1
ARM GAS  /var/folders/d2/nstgp4h54kz7g1l847x_b8wc0000gn/T//cccORz8f.s 			page 91


 5131 000a 0000     		.space	2
 5132 000c 2C000000 		.word	.LC2
 5133 0010 FFFF     		.short	-1
 5134 0012 0000     		.space	2
 5135 0014 C4000000 		.word	.LC5
 5136 0018 0100     		.short	1
 5137 001a 0000     		.space	2
 5138 001c 9C050000 		.word	.LC60
 5139 0020 0000     		.short	0
 5140 0022 0000     		.space	2
 5141 0024 00000000 		.word	0
 5142              		.section	.rodata.AsebaNativeDescription_vecargbounds,"a",%progbits
 5143              		.align	2
 5144              		.type	AsebaNativeDescription_vecargbounds, %object
 5145              		.size	AsebaNativeDescription_vecargbounds, 40
 5146              	AsebaNativeDescription_vecargbounds:
 5147 0000 68020000 		.word	.LC28
 5148 0004 78020000 		.word	.LC29
 5149 0008 FFFF     		.short	-1
 5150 000a 0000     		.space	2
 5151 000c C4000000 		.word	.LC5
 5152 0010 0100     		.short	1
 5153 0012 0000     		.space	2
 5154 0014 B4020000 		.word	.LC30
 5155 0018 0100     		.short	1
 5156 001a 0000     		.space	2
 5157 001c BC020000 		.word	.LC31
 5158 0020 0000     		.short	0
 5159 0022 0000     		.space	2
 5160 0024 00000000 		.word	0
 5161              		.section	.rodata.AsebaNativeDescription_vecclamp,"a",%progbits
 5162              		.align	2
 5163              		.type	AsebaNativeDescription_vecclamp, %object
 5164              		.size	AsebaNativeDescription_vecclamp, 48
 5165              	AsebaNativeDescription_vecclamp:
 5166 0000 60030000 		.word	.LC42
 5167 0004 6C030000 		.word	.LC43
 5168 0008 FFFF     		.short	-1
 5169 000a 0000     		.space	2
 5170 000c 2C000000 		.word	.LC2
 5171 0010 FFFF     		.short	-1
 5172 0012 0000     		.space	2
 5173 0014 C4000000 		.word	.LC5
 5174 0018 FFFF     		.short	-1
 5175 001a 0000     		.space	2
 5176 001c A8030000 		.word	.LC44
 5177 0020 FFFF     		.short	-1
 5178 0022 0000     		.space	2
 5179 0024 AC030000 		.word	.LC45
 5180 0028 0000     		.short	0
 5181 002a 0000     		.space	2
 5182 002c 00000000 		.word	0
 5183              		.section	.rodata.AsebaNativeDescription_veccopy,"a",%progbits
 5184              		.align	2
 5185              		.type	AsebaNativeDescription_veccopy, %object
 5186              		.size	AsebaNativeDescription_veccopy, 32
 5187              	AsebaNativeDescription_veccopy:
ARM GAS  /var/folders/d2/nstgp4h54kz7g1l847x_b8wc0000gn/T//cccORz8f.s 			page 92


 5188 0000 D8050000 		.word	.LC64
 5189 0004 E4050000 		.word	.LC65
 5190 0008 FFFF     		.short	-1
 5191 000a 0000     		.space	2
 5192 000c 2C000000 		.word	.LC2
 5193 0010 FFFF     		.short	-1
 5194 0012 0000     		.space	2
 5195 0014 C4000000 		.word	.LC5
 5196 0018 0000     		.short	0
 5197 001a 0000     		.space	2
 5198 001c 00000000 		.word	0
 5199              		.section	.rodata.AsebaNativeDescription_vecdiv,"a",%progbits
 5200              		.align	2
 5201              		.type	AsebaNativeDescription_vecdiv, %object
 5202              		.size	AsebaNativeDescription_vecdiv, 40
 5203              	AsebaNativeDescription_vecdiv:
 5204 0000 4C040000 		.word	.LC50
 5205 0004 58040000 		.word	.LC51
 5206 0008 FFFF     		.short	-1
 5207 000a 0000     		.space	2
 5208 000c 2C000000 		.word	.LC2
 5209 0010 FFFF     		.short	-1
 5210 0012 0000     		.space	2
 5211 0014 48030000 		.word	.LC39
 5212 0018 FFFF     		.short	-1
 5213 001a 0000     		.space	2
 5214 001c 50030000 		.word	.LC40
 5215 0020 0000     		.short	0
 5216 0022 0000     		.space	2
 5217 0024 00000000 		.word	0
 5218              		.section	.rodata.AsebaNativeDescription_vecdot,"a",%progbits
 5219              		.align	2
 5220              		.type	AsebaNativeDescription_vecdot, %object
 5221              		.size	AsebaNativeDescription_vecdot, 48
 5222              	AsebaNativeDescription_vecdot:
 5223 0000 FC020000 		.word	.LC37
 5224 0004 08030000 		.word	.LC38
 5225 0008 0100     		.short	1
 5226 000a 0000     		.space	2
 5227 000c 2C000000 		.word	.LC2
 5228 0010 FFFF     		.short	-1
 5229 0012 0000     		.space	2
 5230 0014 48030000 		.word	.LC39
 5231 0018 FFFF     		.short	-1
 5232 001a 0000     		.space	2
 5233 001c 50030000 		.word	.LC40
 5234 0020 0100     		.short	1
 5235 0022 0000     		.space	2
 5236 0024 58030000 		.word	.LC41
 5237 0028 0000     		.short	0
 5238 002a 0000     		.space	2
 5239 002c 00000000 		.word	0
 5240              		.section	.rodata.AsebaNativeDescription_vecfill,"a",%progbits
 5241              		.align	2
 5242              		.type	AsebaNativeDescription_vecfill, %object
 5243              		.size	AsebaNativeDescription_vecfill, 32
 5244              	AsebaNativeDescription_vecfill:
ARM GAS  /var/folders/d2/nstgp4h54kz7g1l847x_b8wc0000gn/T//cccORz8f.s 			page 93


 5245 0000 A4050000 		.word	.LC61
 5246 0004 B0050000 		.word	.LC62
 5247 0008 FFFF     		.short	-1
 5248 000a 0000     		.space	2
 5249 000c 2C000000 		.word	.LC2
 5250 0010 0100     		.short	1
 5251 0012 0000     		.space	2
 5252 0014 D0050000 		.word	.LC63
 5253 0018 0000     		.short	0
 5254 001a 0000     		.space	2
 5255 001c 00000000 		.word	0
 5256              		.section	.rodata.AsebaNativeDescription_vecmax,"a",%progbits
 5257              		.align	2
 5258              		.type	AsebaNativeDescription_vecmax, %object
 5259              		.size	AsebaNativeDescription_vecmax, 40
 5260              	AsebaNativeDescription_vecmax:
 5261 0000 B4030000 		.word	.LC46
 5262 0004 C0030000 		.word	.LC47
 5263 0008 FFFF     		.short	-1
 5264 000a 0000     		.space	2
 5265 000c 2C000000 		.word	.LC2
 5266 0010 FFFF     		.short	-1
 5267 0012 0000     		.space	2
 5268 0014 48030000 		.word	.LC39
 5269 0018 FFFF     		.short	-1
 5270 001a 0000     		.space	2
 5271 001c 50030000 		.word	.LC40
 5272 0020 0000     		.short	0
 5273 0022 0000     		.space	2
 5274 0024 00000000 		.word	0
 5275              		.section	.rodata.AsebaNativeDescription_vecmin,"a",%progbits
 5276              		.align	2
 5277              		.type	AsebaNativeDescription_vecmin, %object
 5278              		.size	AsebaNativeDescription_vecmin, 40
 5279              	AsebaNativeDescription_vecmin:
 5280 0000 00040000 		.word	.LC48
 5281 0004 0C040000 		.word	.LC49
 5282 0008 FFFF     		.short	-1
 5283 000a 0000     		.space	2
 5284 000c 2C000000 		.word	.LC2
 5285 0010 FFFF     		.short	-1
 5286 0012 0000     		.space	2
 5287 0014 48030000 		.word	.LC39
 5288 0018 FFFF     		.short	-1
 5289 001a 0000     		.space	2
 5290 001c 50030000 		.word	.LC40
 5291 0020 0000     		.short	0
 5292 0022 0000     		.space	2
 5293 0024 00000000 		.word	0
 5294              		.section	.rodata.AsebaNativeDescription_vecmul,"a",%progbits
 5295              		.align	2
 5296              		.type	AsebaNativeDescription_vecmul, %object
 5297              		.size	AsebaNativeDescription_vecmul, 40
 5298              	AsebaNativeDescription_vecmul:
 5299 0000 8C040000 		.word	.LC52
 5300 0004 98040000 		.word	.LC53
 5301 0008 FFFF     		.short	-1
ARM GAS  /var/folders/d2/nstgp4h54kz7g1l847x_b8wc0000gn/T//cccORz8f.s 			page 94


 5302 000a 0000     		.space	2
 5303 000c 2C000000 		.word	.LC2
 5304 0010 FFFF     		.short	-1
 5305 0012 0000     		.space	2
 5306 0014 48030000 		.word	.LC39
 5307 0018 FFFF     		.short	-1
 5308 001a 0000     		.space	2
 5309 001c 50030000 		.word	.LC40
 5310 0020 0000     		.short	0
 5311 0022 0000     		.space	2
 5312 0024 00000000 		.word	0
 5313              		.section	.rodata.AsebaNativeDescription_vecnonzerosequence,"a",%progbits
 5314              		.align	2
 5315              		.type	AsebaNativeDescription_vecnonzerosequence, %object
 5316              		.size	AsebaNativeDescription_vecnonzerosequence, 40
 5317              	AsebaNativeDescription_vecnonzerosequence:
 5318 0000 34000000 		.word	.LC3
 5319 0004 40000000 		.word	.LC4
 5320 0008 0100     		.short	1
 5321 000a 0000     		.space	2
 5322 000c 2C000000 		.word	.LC2
 5323 0010 FFFF     		.short	-1
 5324 0012 0000     		.space	2
 5325 0014 C4000000 		.word	.LC5
 5326 0018 0100     		.short	1
 5327 001a 0000     		.space	2
 5328 001c C8000000 		.word	.LC6
 5329 0020 0000     		.short	0
 5330 0022 0000     		.space	2
 5331 0024 00000000 		.word	0
 5332              		.section	.rodata.AsebaNativeDescription_vecsort,"a",%progbits
 5333              		.align	2
 5334              		.type	AsebaNativeDescription_vecsort, %object
 5335              		.size	AsebaNativeDescription_vecsort, 24
 5336              	AsebaNativeDescription_vecsort:
 5337 0000 40020000 		.word	.LC25
 5338 0004 4C020000 		.word	.LC26
 5339 0008 FFFF     		.short	-1
 5340 000a 0000     		.space	2
 5341 000c 60020000 		.word	.LC27
 5342 0010 0000     		.short	0
 5343 0012 0000     		.space	2
 5344 0014 00000000 		.word	0
 5345              		.section	.rodata.AsebaNativeDescription_vecstat,"a",%progbits
 5346              		.align	2
 5347              		.type	AsebaNativeDescription_vecstat, %object
 5348              		.size	AsebaNativeDescription_vecstat, 48
 5349              	AsebaNativeDescription_vecstat:
 5350 0000 C4020000 		.word	.LC32
 5351 0004 D0020000 		.word	.LC33
 5352 0008 FFFF     		.short	-1
 5353 000a 0000     		.space	2
 5354 000c C4000000 		.word	.LC5
 5355 0010 0100     		.short	1
 5356 0012 0000     		.space	2
 5357 0014 EC020000 		.word	.LC34
 5358 0018 0100     		.short	1
ARM GAS  /var/folders/d2/nstgp4h54kz7g1l847x_b8wc0000gn/T//cccORz8f.s 			page 95


 5359 001a 0000     		.space	2
 5360 001c F0020000 		.word	.LC35
 5361 0020 0100     		.short	1
 5362 0022 0000     		.space	2
 5363 0024 F4020000 		.word	.LC36
 5364 0028 0000     		.short	0
 5365 002a 0000     		.space	2
 5366 002c 00000000 		.word	0
 5367              		.section	.rodata.AsebaNativeDescription_vecsub,"a",%progbits
 5368              		.align	2
 5369              		.type	AsebaNativeDescription_vecsub, %object
 5370              		.size	AsebaNativeDescription_vecsub, 40
 5371              	AsebaNativeDescription_vecsub:
 5372 0000 D0040000 		.word	.LC54
 5373 0004 DC040000 		.word	.LC55
 5374 0008 FFFF     		.short	-1
 5375 000a 0000     		.space	2
 5376 000c 2C000000 		.word	.LC2
 5377 0010 FFFF     		.short	-1
 5378 0012 0000     		.space	2
 5379 0014 48030000 		.word	.LC39
 5380 0018 FFFF     		.short	-1
 5381 001a 0000     		.space	2
 5382 001c 50030000 		.word	.LC40
 5383 0020 0000     		.short	0
 5384 0022 0000     		.space	2
 5385 0024 00000000 		.word	0
 5386              		.section	.rodata.aseba_atan_table,"a",%progbits
 5387              		.align	2
 5388              		.set	.LANCHOR0,. + 0
 5389              		.type	aseba_atan_table, %object
 5390              		.size	aseba_atan_table, 322
 5391              	aseba_atan_table:
 5392 0000 8C02     		.short	652
 5393 0002 DF02     		.short	735
 5394 0004 3003     		.short	816
 5395 0006 8003     		.short	896
 5396 0008 D103     		.short	977
 5397 000a 2204     		.short	1058
 5398 000c 7304     		.short	1139
 5399 000e C204     		.short	1218
 5400 0010 1405     		.short	1300
 5401 0012 B305     		.short	1459
 5402 0014 5406     		.short	1620
 5403 0016 F106     		.short	1777
 5404 0018 8F07     		.short	1935
 5405 001a 2D08     		.short	2093
 5406 001c CA08     		.short	2250
 5407 001e 6309     		.short	2403
 5408 0020 FC09     		.short	2556
 5409 0022 340B     		.short	2868
 5410 0024 5C0C     		.short	3164
 5411 0026 820D     		.short	3458
 5412 0028 A40E     		.short	3748
 5413 002a BD0F     		.short	4029
 5414 002c D310     		.short	4307
 5415 002e E211     		.short	4578
ARM GAS  /var/folders/d2/nstgp4h54kz7g1l847x_b8wc0000gn/T//cccORz8f.s 			page 96


 5416 0030 E712     		.short	4839
 5417 0032 EF14     		.short	5359
 5418 0034 CC16     		.short	5836
 5419 0036 9218     		.short	6290
 5420 0038 401A     		.short	6720
 5421 003a D61B     		.short	7126
 5422 003c 531D     		.short	7507
 5423 003e B51E     		.short	7861
 5424 0040 0B20     		.short	8203
 5425 0042 7922     		.short	8825
 5426 0044 8D24     		.short	9357
 5427 0046 6F26     		.short	9839
 5428 0048 1428     		.short	10260
 5429 004a 9029     		.short	10640
 5430 004c E02A     		.short	10976
 5431 004e 112C     		.short	11281
 5432 0050 252D     		.short	11557
 5433 0052 052F     		.short	12037
 5434 0054 8930     		.short	12425
 5435 0056 D331     		.short	12755
 5436 0058 EC32     		.short	13036
 5437 005a DD33     		.short	13277
 5438 005c AE34     		.short	13486
 5439 005e 6735     		.short	13671
 5440 0060 0D36     		.short	13837
 5441 0062 2037     		.short	14112
 5442 0064 FB37     		.short	14331
 5443 0066 B238     		.short	14514
 5444 0068 4A39     		.short	14666
 5445 006a CC39     		.short	14796
 5446 006c 3B3A     		.short	14907
 5447 006e 9B3A     		.short	15003
 5448 0070 F33A     		.short	15091
 5449 0072 833B     		.short	15235
 5450 0074 F43B     		.short	15348
 5451 0076 513C     		.short	15441
 5452 0078 9F3C     		.short	15519
 5453 007a E13C     		.short	15585
 5454 007c 1A3D     		.short	15642
 5455 007e 4B3D     		.short	15691
 5456 0080 783D     		.short	15736
 5457 0082 C03D     		.short	15808
 5458 0084 F93D     		.short	15865
 5459 0086 283E     		.short	15912
 5460 0088 4F3E     		.short	15951
 5461 008a 703E     		.short	15984
 5462 008c 8D3E     		.short	16013
 5463 008e A53E     		.short	16037
 5464 0090 BC3E     		.short	16060
 5465 0092 E03E     		.short	16096
 5466 0094 FD3E     		.short	16125
 5467 0096 143F     		.short	16148
 5468 0098 283F     		.short	16168
 5469 009a 383F     		.short	16184
 5470 009c 473F     		.short	16199
 5471 009e 533F     		.short	16211
 5472 00a0 5E3F     		.short	16222
ARM GAS  /var/folders/d2/nstgp4h54kz7g1l847x_b8wc0000gn/T//cccORz8f.s 			page 97


 5473 00a2 703F     		.short	16240
 5474 00a4 7F3F     		.short	16255
 5475 00a6 8A3F     		.short	16266
 5476 00a8 943F     		.short	16276
 5477 00aa 9C3F     		.short	16284
 5478 00ac A43F     		.short	16292
 5479 00ae AA3F     		.short	16298
 5480 00b0 AF3F     		.short	16303
 5481 00b2 B83F     		.short	16312
 5482 00b4 C03F     		.short	16320
 5483 00b6 C53F     		.short	16325
 5484 00b8 CB3F     		.short	16331
 5485 00ba CE3F     		.short	16334
 5486 00bc D23F     		.short	16338
 5487 00be D53F     		.short	16341
 5488 00c0 D83F     		.short	16344
 5489 00c2 DC3F     		.short	16348
 5490 00c4 E03F     		.short	16352
 5491 00c6 E33F     		.short	16355
 5492 00c8 E53F     		.short	16357
 5493 00ca E83F     		.short	16360
 5494 00cc E93F     		.short	16361
 5495 00ce EB3F     		.short	16363
 5496 00d0 EC3F     		.short	16364
 5497 00d2 EE3F     		.short	16366
 5498 00d4 F13F     		.short	16369
 5499 00d6 F13F     		.short	16369
 5500 00d8 F33F     		.short	16371
 5501 00da F43F     		.short	16372
 5502 00dc F53F     		.short	16373
 5503 00de F53F     		.short	16373
 5504 00e0 F73F     		.short	16375
 5505 00e2 F73F     		.short	16375
 5506 00e4 F93F     		.short	16377
 5507 00e6 F83F     		.short	16376
 5508 00e8 FA3F     		.short	16378
 5509 00ea FA3F     		.short	16378
 5510 00ec FA3F     		.short	16378
 5511 00ee FB3F     		.short	16379
 5512 00f0 FB3F     		.short	16379
 5513 00f2 FC3F     		.short	16380
 5514 00f4 FC3F     		.short	16380
 5515 00f6 FC3F     		.short	16380
 5516 00f8 FE3F     		.short	16382
 5517 00fa FD3F     		.short	16381
 5518 00fc FD3F     		.short	16381
 5519 00fe FD3F     		.short	16381
 5520 0100 FE3F     		.short	16382
 5521 0102 FE3F     		.short	16382
 5522 0104 FE3F     		.short	16382
 5523 0106 FE3F     		.short	16382
 5524 0108 FE3F     		.short	16382
 5525 010a FE3F     		.short	16382
 5526 010c 0040     		.short	16384
 5527 010e FF3F     		.short	16383
 5528 0110 FF3F     		.short	16383
 5529 0112 FF3F     		.short	16383
ARM GAS  /var/folders/d2/nstgp4h54kz7g1l847x_b8wc0000gn/T//cccORz8f.s 			page 98


 5530 0114 FF3F     		.short	16383
 5531 0116 FF3F     		.short	16383
 5532 0118 FF3F     		.short	16383
 5533 011a FF3F     		.short	16383
 5534 011c FF3F     		.short	16383
 5535 011e FF3F     		.short	16383
 5536 0120 FF3F     		.short	16383
 5537 0122 FF3F     		.short	16383
 5538 0124 0040     		.short	16384
 5539 0126 0040     		.short	16384
 5540 0128 0040     		.short	16384
 5541 012a 0040     		.short	16384
 5542 012c 0040     		.short	16384
 5543 012e 0040     		.short	16384
 5544 0130 0040     		.short	16384
 5545 0132 0040     		.short	16384
 5546 0134 0040     		.short	16384
 5547 0136 0040     		.short	16384
 5548 0138 0040     		.short	16384
 5549 013a 0040     		.short	16384
 5550 013c 0040     		.short	16384
 5551 013e 0040     		.short	16384
 5552 0140 0040     		.short	16384
 5553              		.section	.rodata.aseba_sin_table,"a",%progbits
 5554              		.align	2
 5555              		.set	.LANCHOR1,. + 0
 5556              		.type	aseba_sin_table, %object
 5557              		.size	aseba_sin_table, 258
 5558              	aseba_sin_table:
 5559 0000 0000     		.short	0
 5560 0002 9301     		.short	403
 5561 0004 2403     		.short	804
 5562 0006 B704     		.short	1207
 5563 0008 4806     		.short	1608
 5564 000a DA07     		.short	2010
 5565 000c 6B09     		.short	2411
 5566 000e FC0A     		.short	2812
 5567 0010 8C0C     		.short	3212
 5568 0012 1C0E     		.short	3612
 5569 0014 AB0F     		.short	4011
 5570 0016 3B11     		.short	4411
 5571 0018 C812     		.short	4808
 5572 001a 5614     		.short	5206
 5573 001c E315     		.short	5603
 5574 001e 6E17     		.short	5998
 5575 0020 F918     		.short	6393
 5576 0022 831A     		.short	6787
 5577 0024 0C1C     		.short	7180
 5578 0026 941D     		.short	7572
 5579 0028 1A1F     		.short	7962
 5580 002a A020     		.short	8352
 5581 002c 2422     		.short	8740
 5582 002e A723     		.short	9127
 5583 0030 2925     		.short	9513
 5584 0032 A826     		.short	9896
 5585 0034 2728     		.short	10279
 5586 0036 A429     		.short	10660
ARM GAS  /var/folders/d2/nstgp4h54kz7g1l847x_b8wc0000gn/T//cccORz8f.s 			page 99


 5587 0038 202B     		.short	11040
 5588 003a 992C     		.short	11417
 5589 003c 122E     		.short	11794
 5590 003e 872F     		.short	12167
 5591 0040 FC30     		.short	12540
 5592 0042 6F32     		.short	12911
 5593 0044 DF33     		.short	13279
 5594 0046 4E35     		.short	13646
 5595 0048 BA36     		.short	14010
 5596 004a 2538     		.short	14373
 5597 004c 8D39     		.short	14733
 5598 004e F33A     		.short	15091
 5599 0050 573C     		.short	15447
 5600 0052 B93D     		.short	15801
 5601 0054 173F     		.short	16151
 5602 0056 7440     		.short	16500
 5603 0058 CE41     		.short	16846
 5604 005a 2643     		.short	17190
 5605 005c 7B44     		.short	17531
 5606 005e CD45     		.short	17869
 5607 0060 1D47     		.short	18205
 5608 0062 6A48     		.short	18538
 5609 0064 B449     		.short	18868
 5610 0066 FC4A     		.short	19196
 5611 0068 404C     		.short	19520
 5612 006a 824D     		.short	19842
 5613 006c C04E     		.short	20160
 5614 006e FC4F     		.short	20476
 5615 0070 3451     		.short	20788
 5616 0072 6952     		.short	21097
 5617 0074 9B53     		.short	21403
 5618 0076 CA54     		.short	21706
 5619 0078 F655     		.short	22006
 5620 007a 1E57     		.short	22302
 5621 007c 4358     		.short	22595
 5622 007e 6459     		.short	22884
 5623 0080 835A     		.short	23171
 5624 0082 9D5B     		.short	23453
 5625 0084 B45C     		.short	23732
 5626 0086 C85D     		.short	24008
 5627 0088 D75E     		.short	24279
 5628 008a E45F     		.short	24548
 5629 008c EC60     		.short	24812
 5630 008e F161     		.short	25073
 5631 0090 F262     		.short	25330
 5632 0092 EF63     		.short	25583
 5633 0094 E964     		.short	25833
 5634 0096 DE65     		.short	26078
 5635 0098 D066     		.short	26320
 5636 009a BD67     		.short	26557
 5637 009c A768     		.short	26791
 5638 009e 8C69     		.short	27020
 5639 00a0 6E6A     		.short	27246
 5640 00a2 4B6B     		.short	27467
 5641 00a4 246C     		.short	27684
 5642 00a6 F96C     		.short	27897
 5643 00a8 CA6D     		.short	28106
ARM GAS  /var/folders/d2/nstgp4h54kz7g1l847x_b8wc0000gn/T//cccORz8f.s 			page 100


 5644 00aa 976E     		.short	28311
 5645 00ac 5F6F     		.short	28511
 5646 00ae 2370     		.short	28707
 5647 00b0 E370     		.short	28899
 5648 00b2 9E71     		.short	29086
 5649 00b4 5572     		.short	29269
 5650 00b6 0873     		.short	29448
 5651 00b8 B673     		.short	29622
 5652 00ba 6074     		.short	29792
 5653 00bc 0575     		.short	29957
 5654 00be A575     		.short	30117
 5655 00c0 4276     		.short	30274
 5656 00c2 D976     		.short	30425
 5657 00c4 6C77     		.short	30572
 5658 00c6 FB77     		.short	30715
 5659 00c8 8478     		.short	30852
 5660 00ca 0979     		.short	30985
 5661 00cc 8A79     		.short	31114
 5662 00ce 067A     		.short	31238
 5663 00d0 7D7A     		.short	31357
 5664 00d2 EF7A     		.short	31471
 5665 00d4 5D7B     		.short	31581
 5666 00d6 C67B     		.short	31686
 5667 00d8 2A7C     		.short	31786
 5668 00da 897C     		.short	31881
 5669 00dc E47C     		.short	31972
 5670 00de 397D     		.short	32057
 5671 00e0 8A7D     		.short	32138
 5672 00e2 D77D     		.short	32215
 5673 00e4 1D7E     		.short	32285
 5674 00e6 607E     		.short	32352
 5675 00e8 9D7E     		.short	32413
 5676 00ea D67E     		.short	32470
 5677 00ec 097F     		.short	32521
 5678 00ee 397F     		.short	32569
 5679 00f0 627F     		.short	32610
 5680 00f2 877F     		.short	32647
 5681 00f4 A77F     		.short	32679
 5682 00f6 C27F     		.short	32706
 5683 00f8 D87F     		.short	32728
 5684 00fa EA7F     		.short	32746
 5685 00fc F67F     		.short	32758
 5686 00fe FE7F     		.short	32766
 5687 0100 FF7F     		.short	32767
 5688              		.section	.rodata.str1.4,"aMS",%progbits,1
 5689              		.align	2
 5690              	.LC0:
 5691 0000 6D617468 		.ascii	"math.rand\000"
 5691      2E72616E 
 5691      6400
 5692 000a 0000     		.space	2
 5693              	.LC1:
 5694 000c 66696C6C 		.ascii	"fill array with random values\000"
 5694      20617272 
 5694      61792077 
 5694      69746820 
 5694      72616E64 
ARM GAS  /var/folders/d2/nstgp4h54kz7g1l847x_b8wc0000gn/T//cccORz8f.s 			page 101


 5695 002a 0000     		.space	2
 5696              	.LC2:
 5697 002c 64657374 		.ascii	"dest\000"
 5697      00
 5698 0031 000000   		.space	3
 5699              	.LC3:
 5700 0034 6D617468 		.ascii	"math.nzseq\000"
 5700      2E6E7A73 
 5700      657100
 5701 003f 00       		.space	1
 5702              	.LC4:
 5703 0040 77726974 		.ascii	"write to dest the middle index of the largest seque"
 5703      6520746F 
 5703      20646573 
 5703      74207468 
 5703      65206D69 
 5704 0073 6E636520 		.ascii	"nce of non-zero elements from src, -1 if not found "
 5704      6F66206E 
 5704      6F6E2D7A 
 5704      65726F20 
 5704      656C656D 
 5705 00a6 6F722069 		.ascii	"or if smaller than minLength\000"
 5705      6620736D 
 5705      616C6C65 
 5705      72207468 
 5705      616E206D 
 5706 00c3 00       		.space	1
 5707              	.LC5:
 5708 00c4 73726300 		.ascii	"src\000"
 5709              	.LC6:
 5710 00c8 6D696E4C 		.ascii	"minLength\000"
 5710      656E6774 
 5710      6800
 5711 00d2 0000     		.space	2
 5712              	.LC7:
 5713 00d4 6D617468 		.ascii	"math.sqrt\000"
 5713      2E737172 
 5713      7400
 5714 00de 0000     		.space	2
 5715              	.LC8:
 5716 00e0 70657266 		.ascii	"performs dest = sqrt(x) element by element\000"
 5716      6F726D73 
 5716      20646573 
 5716      74203D20 
 5716      73717274 
 5717 010b 00       		.space	1
 5718              	.LC9:
 5719 010c 7800     		.ascii	"x\000"
 5720 010e 0000     		.space	2
 5721              	.LC10:
 5722 0110 6D617468 		.ascii	"math.rot2\000"
 5722      2E726F74 
 5722      3200
 5723 011a 0000     		.space	2
 5724              	.LC11:
 5725 011c 726F7461 		.ascii	"rotates v of angle a to dest\000"
 5725      74657320 
ARM GAS  /var/folders/d2/nstgp4h54kz7g1l847x_b8wc0000gn/T//cccORz8f.s 			page 102


 5725      76206F66 
 5725      20616E67 
 5725      6C652061 
 5726 0139 000000   		.space	3
 5727              	.LC12:
 5728 013c 7600     		.ascii	"v\000"
 5729 013e 0000     		.space	2
 5730              	.LC13:
 5731 0140 6100     		.ascii	"a\000"
 5732 0142 0000     		.space	2
 5733              	.LC14:
 5734 0144 6D617468 		.ascii	"math.cos\000"
 5734      2E636F73 
 5734      00
 5735 014d 000000   		.space	3
 5736              	.LC15:
 5737 0150 70657266 		.ascii	"performs dest = cos(x) element by element\000"
 5737      6F726D73 
 5737      20646573 
 5737      74203D20 
 5737      636F7328 
 5738 017a 0000     		.space	2
 5739              	.LC16:
 5740 017c 6D617468 		.ascii	"math.sin\000"
 5740      2E73696E 
 5740      00
 5741 0185 000000   		.space	3
 5742              	.LC17:
 5743 0188 70657266 		.ascii	"performs dest = sin(x) element by element\000"
 5743      6F726D73 
 5743      20646573 
 5743      74203D20 
 5743      73696E28 
 5744 01b2 0000     		.space	2
 5745              	.LC18:
 5746 01b4 6D617468 		.ascii	"math.atan2\000"
 5746      2E617461 
 5746      6E3200
 5747 01bf 00       		.space	1
 5748              	.LC19:
 5749 01c0 70657266 		.ascii	"performs dest = atan2(y,x) element by element\000"
 5749      6F726D73 
 5749      20646573 
 5749      74203D20 
 5749      6174616E 
 5750 01ee 0000     		.space	2
 5751              	.LC20:
 5752 01f0 7900     		.ascii	"y\000"
 5753 01f2 0000     		.space	2
 5754              	.LC21:
 5755 01f4 6D617468 		.ascii	"math.muldiv\000"
 5755      2E6D756C 
 5755      64697600 
 5756              	.LC22:
 5757 0200 70657266 		.ascii	"performs dest = (a*b)/c in 32 bits element by eleme"
 5757      6F726D73 
 5757      20646573 
ARM GAS  /var/folders/d2/nstgp4h54kz7g1l847x_b8wc0000gn/T//cccORz8f.s 			page 103


 5757      74203D20 
 5757      28612A62 
 5758 0233 6E7400   		.ascii	"nt\000"
 5759 0236 0000     		.space	2
 5760              	.LC23:
 5761 0238 6200     		.ascii	"b\000"
 5762 023a 0000     		.space	2
 5763              	.LC24:
 5764 023c 6300     		.ascii	"c\000"
 5765 023e 0000     		.space	2
 5766              	.LC25:
 5767 0240 6D617468 		.ascii	"math.sort\000"
 5767      2E736F72 
 5767      7400
 5768 024a 0000     		.space	2
 5769              	.LC26:
 5770 024c 736F7274 		.ascii	"sort array in place\000"
 5770      20617272 
 5770      61792069 
 5770      6E20706C 
 5770      61636500 
 5771              	.LC27:
 5772 0260 61727261 		.ascii	"array\000"
 5772      7900
 5773 0266 0000     		.space	2
 5774              	.LC28:
 5775 0268 6D617468 		.ascii	"math.argbounds\000"
 5775      2E617267 
 5775      626F756E 
 5775      647300
 5776 0277 00       		.space	1
 5777              	.LC29:
 5778 0278 67657420 		.ascii	"get the indices (argmin, argmax) of the limit value"
 5778      74686520 
 5778      696E6469 
 5778      63657320 
 5778      28617267 
 5779 02ab 73206F66 		.ascii	"s of src\000"
 5779      20737263 
 5779      00
 5780              	.LC30:
 5781 02b4 6172676D 		.ascii	"argmin\000"
 5781      696E00
 5782 02bb 00       		.space	1
 5783              	.LC31:
 5784 02bc 6172676D 		.ascii	"argmax\000"
 5784      617800
 5785 02c3 00       		.space	1
 5786              	.LC32:
 5787 02c4 6D617468 		.ascii	"math.stat\000"
 5787      2E737461 
 5787      7400
 5788 02ce 0000     		.space	2
 5789              	.LC33:
 5790 02d0 70657266 		.ascii	"performs statistics on src\000"
 5790      6F726D73 
 5790      20737461 
ARM GAS  /var/folders/d2/nstgp4h54kz7g1l847x_b8wc0000gn/T//cccORz8f.s 			page 104


 5790      74697374 
 5790      69637320 
 5791 02eb 00       		.space	1
 5792              	.LC34:
 5793 02ec 6D696E00 		.ascii	"min\000"
 5794              	.LC35:
 5795 02f0 6D617800 		.ascii	"max\000"
 5796              	.LC36:
 5797 02f4 6D65616E 		.ascii	"mean\000"
 5797      00
 5798 02f9 000000   		.space	3
 5799              	.LC37:
 5800 02fc 6D617468 		.ascii	"math.dot\000"
 5800      2E646F74 
 5800      00
 5801 0305 000000   		.space	3
 5802              	.LC38:
 5803 0308 77726974 		.ascii	"writes the dot product of src1 and src2 to dest, af"
 5803      65732074 
 5803      68652064 
 5803      6F742070 
 5803      726F6475 
 5804 033b 74657220 		.ascii	"ter a shift\000"
 5804      61207368 
 5804      69667400 
 5805 0347 00       		.space	1
 5806              	.LC39:
 5807 0348 73726331 		.ascii	"src1\000"
 5807      00
 5808 034d 000000   		.space	3
 5809              	.LC40:
 5810 0350 73726332 		.ascii	"src2\000"
 5810      00
 5811 0355 000000   		.space	3
 5812              	.LC41:
 5813 0358 73686966 		.ascii	"shift\000"
 5813      7400
 5814 035e 0000     		.space	2
 5815              	.LC42:
 5816 0360 6D617468 		.ascii	"math.clamp\000"
 5816      2E636C61 
 5816      6D7000
 5817 036b 00       		.space	1
 5818              	.LC43:
 5819 036c 636C616D 		.ascii	"clamp src to low/high bounds into dest, element by "
 5819      70207372 
 5819      6320746F 
 5819      206C6F77 
 5819      2F686967 
 5820 039f 656C656D 		.ascii	"element\000"
 5820      656E7400 
 5821 03a7 00       		.space	1
 5822              	.LC44:
 5823 03a8 6C6F7700 		.ascii	"low\000"
 5824              	.LC45:
 5825 03ac 68696768 		.ascii	"high\000"
 5825      00
ARM GAS  /var/folders/d2/nstgp4h54kz7g1l847x_b8wc0000gn/T//cccORz8f.s 			page 105


 5826 03b1 000000   		.space	3
 5827              	.LC46:
 5828 03b4 6D617468 		.ascii	"math.max\000"
 5828      2E6D6178 
 5828      00
 5829 03bd 000000   		.space	3
 5830              	.LC47:
 5831 03c0 77726974 		.ascii	"writes the maximum of src1 and src2 to dest, elemen"
 5831      65732074 
 5831      6865206D 
 5831      6178696D 
 5831      756D206F 
 5832 03f3 74206279 		.ascii	"t by element\000"
 5832      20656C65 
 5832      6D656E74 
 5832      00
 5833              	.LC48:
 5834 0400 6D617468 		.ascii	"math.min\000"
 5834      2E6D696E 
 5834      00
 5835 0409 000000   		.space	3
 5836              	.LC49:
 5837 040c 77726974 		.ascii	"writes the minimum of src1 and src2 to dest, elemen"
 5837      65732074 
 5837      6865206D 
 5837      696E696D 
 5837      756D206F 
 5838 043f 74206279 		.ascii	"t by element\000"
 5838      20656C65 
 5838      6D656E74 
 5838      00
 5839              	.LC50:
 5840 044c 6D617468 		.ascii	"math.div\000"
 5840      2E646976 
 5840      00
 5841 0455 000000   		.space	3
 5842              	.LC51:
 5843 0458 64697669 		.ascii	"divides src1 by src2 to dest, element by element\000"
 5843      64657320 
 5843      73726331 
 5843      20627920 
 5843      73726332 
 5844 0489 000000   		.space	3
 5845              	.LC52:
 5846 048c 6D617468 		.ascii	"math.mul\000"
 5846      2E6D756C 
 5846      00
 5847 0495 000000   		.space	3
 5848              	.LC53:
 5849 0498 6D756C74 		.ascii	"multiplies src1 and src2 to dest, element by elemen"
 5849      69706C69 
 5849      65732073 
 5849      72633120 
 5849      616E6420 
 5850 04cb 7400     		.ascii	"t\000"
 5851 04cd 000000   		.space	3
 5852              	.LC54:
ARM GAS  /var/folders/d2/nstgp4h54kz7g1l847x_b8wc0000gn/T//cccORz8f.s 			page 106


 5853 04d0 6D617468 		.ascii	"math.sub\000"
 5853      2E737562 
 5853      00
 5854 04d9 000000   		.space	3
 5855              	.LC55:
 5856 04dc 73756273 		.ascii	"substracts src2 from src1 to dest, element by eleme"
 5856      74726163 
 5856      74732073 
 5856      72633220 
 5856      66726F6D 
 5857 050f 6E7400   		.ascii	"nt\000"
 5858 0512 0000     		.space	2
 5859              	.LC56:
 5860 0514 6D617468 		.ascii	"math.add\000"
 5860      2E616464 
 5860      00
 5861 051d 000000   		.space	3
 5862              	.LC57:
 5863 0520 61646473 		.ascii	"adds src1 and src2 to dest, element by element\000"
 5863      20737263 
 5863      3120616E 
 5863      64207372 
 5863      63322074 
 5864 054f 00       		.space	1
 5865              	.LC58:
 5866 0550 6D617468 		.ascii	"math.addscalar\000"
 5866      2E616464 
 5866      7363616C 
 5866      617200
 5867 055f 00       		.space	1
 5868              	.LC59:
 5869 0560 61646420 		.ascii	"add scalar to each element of src and store result "
 5869      7363616C 
 5869      61722074 
 5869      6F206561 
 5869      63682065 
 5870 0593 746F2064 		.ascii	"to dest\000"
 5870      65737400 
 5871 059b 00       		.space	1
 5872              	.LC60:
 5873 059c 7363616C 		.ascii	"scalar\000"
 5873      617200
 5874 05a3 00       		.space	1
 5875              	.LC61:
 5876 05a4 6D617468 		.ascii	"math.fill\000"
 5876      2E66696C 
 5876      6C00
 5877 05ae 0000     		.space	2
 5878              	.LC62:
 5879 05b0 66696C6C 		.ascii	"fills dest with constant value\000"
 5879      73206465 
 5879      73742077 
 5879      69746820 
 5879      636F6E73 
 5880 05cf 00       		.space	1
 5881              	.LC63:
 5882 05d0 76616C75 		.ascii	"value\000"
ARM GAS  /var/folders/d2/nstgp4h54kz7g1l847x_b8wc0000gn/T//cccORz8f.s 			page 107


 5882      6500
 5883 05d6 0000     		.space	2
 5884              	.LC64:
 5885 05d8 6D617468 		.ascii	"math.copy\000"
 5885      2E636F70 
 5885      7900
 5886 05e2 0000     		.space	2
 5887              	.LC65:
 5888 05e4 636F7069 		.ascii	"copies src to dest element by element\000"
 5888      65732073 
 5888      72632074 
 5888      6F206465 
 5888      73742065 
 5889              		.text
 5890              	.Letext0:
 5891              		.file 3 "../e-puck2_main-processor/aseba/vm/../common/consts.h"
 5892              		.file 4 "/Applications/Eclipse_e-puck2.app/Contents/Eclipse_e-puck2/Tools/gcc-arm-none-eabi-7-2017
 5893              		.file 5 "/Applications/Eclipse_e-puck2.app/Contents/Eclipse_e-puck2/Tools/gcc-arm-none-eabi-7-2017
 5894              		.file 6 "/Applications/Eclipse_e-puck2.app/Contents/Eclipse_e-puck2/Tools/gcc-arm-none-eabi-7-2017
 5895              		.file 7 "/Applications/Eclipse_e-puck2.app/Contents/Eclipse_e-puck2/Tools/gcc-arm-none-eabi-7-2017
 5896              		.file 8 "/Applications/Eclipse_e-puck2.app/Contents/Eclipse_e-puck2/Tools/gcc-arm-none-eabi-7-2017
 5897              		.file 9 "../e-puck2_main-processor/aseba/vm/../common/types.h"
 5898              		.file 10 "../e-puck2_main-processor/aseba/vm/vm.h"
 5899              		.section	.debug_info,"",%progbits
 5900              	.Ldebug_info0:
 5901 0000 662C0000 		.4byte	0x2c66
 5902 0004 0400     		.2byte	0x4
 5903 0006 00000000 		.4byte	.Ldebug_abbrev0
 5904 000a 04       		.byte	0x4
 5905 000b 01       		.uleb128 0x1
 5906 000c 620E0000 		.4byte	.LASF285
 5907 0010 0C       		.byte	0xc
 5908 0011 AB020000 		.4byte	.LASF286
 5909 0015 3E120000 		.4byte	.LASF287
 5910 0019 400C0000 		.4byte	.Ldebug_ranges0+0xc40
 5911 001d 00000000 		.4byte	0
 5912 0021 00000000 		.4byte	.Ldebug_line0
 5913 0025 02       		.uleb128 0x2
 5914 0026 01       		.byte	0x1
 5915 0027 08       		.byte	0x8
 5916 0028 AE0F0000 		.4byte	.LASF3
 5917 002c 03       		.uleb128 0x3
 5918 002d 07       		.byte	0x7
 5919 002e 01       		.byte	0x1
 5920 002f 25000000 		.4byte	0x25
 5921 0033 03       		.byte	0x3
 5922 0034 7B       		.byte	0x7b
 5923 0035 4C000000 		.4byte	0x4c
 5924 0039 04       		.uleb128 0x4
 5925 003a 350A0000 		.4byte	.LASF0
 5926 003e 01       		.byte	0x1
 5927 003f 04       		.uleb128 0x4
 5928 0040 4B020000 		.4byte	.LASF1
 5929 0044 02       		.byte	0x2
 5930 0045 04       		.uleb128 0x4
 5931 0046 8A070000 		.4byte	.LASF2
 5932 004a 04       		.byte	0x4
ARM GAS  /var/folders/d2/nstgp4h54kz7g1l847x_b8wc0000gn/T//cccORz8f.s 			page 108


 5933 004b 00       		.byte	0
 5934 004c 02       		.uleb128 0x2
 5935 004d 02       		.byte	0x2
 5936 004e 07       		.byte	0x7
 5937 004f 34110000 		.4byte	.LASF4
 5938 0053 03       		.uleb128 0x3
 5939 0054 07       		.byte	0x7
 5940 0055 02       		.byte	0x2
 5941 0056 4C000000 		.4byte	0x4c
 5942 005a 03       		.byte	0x3
 5943 005b 90       		.byte	0x90
 5944 005c 72010000 		.4byte	0x172
 5945 0060 05       		.uleb128 0x5
 5946 0061 B4040000 		.4byte	.LASF5
 5947 0065 0080     		.2byte	0x8000
 5948 0067 05       		.uleb128 0x5
 5949 0068 BD050000 		.4byte	.LASF6
 5950 006c 0180     		.2byte	0x8001
 5951 006e 05       		.uleb128 0x5
 5952 006f 88030000 		.4byte	.LASF7
 5953 0073 0280     		.2byte	0x8002
 5954 0075 05       		.uleb128 0x5
 5955 0076 3B010000 		.4byte	.LASF8
 5956 007a 0380     		.2byte	0x8003
 5957 007c 05       		.uleb128 0x5
 5958 007d BF070000 		.4byte	.LASF9
 5959 0081 0480     		.2byte	0x8004
 5960 0083 05       		.uleb128 0x5
 5961 0084 0D080000 		.4byte	.LASF10
 5962 0088 0580     		.2byte	0x8005
 5963 008a 05       		.uleb128 0x5
 5964 008b 500B0000 		.4byte	.LASF11
 5965 008f 0680     		.2byte	0x8006
 5966 0091 05       		.uleb128 0x5
 5967 0092 F9010000 		.4byte	.LASF12
 5968 0096 0090     		.2byte	0x9000
 5969 0098 05       		.uleb128 0x5
 5970 0099 D8020000 		.4byte	.LASF13
 5971 009d 0190     		.2byte	0x9001
 5972 009f 05       		.uleb128 0x5
 5973 00a0 01030000 		.4byte	.LASF14
 5974 00a4 0290     		.2byte	0x9002
 5975 00a6 05       		.uleb128 0x5
 5976 00a7 840C0000 		.4byte	.LASF15
 5977 00ab 0390     		.2byte	0x9003
 5978 00ad 05       		.uleb128 0x5
 5979 00ae D8100000 		.4byte	.LASF16
 5980 00b2 0490     		.2byte	0x9004
 5981 00b4 05       		.uleb128 0x5
 5982 00b5 FB100000 		.4byte	.LASF17
 5983 00b9 0590     		.2byte	0x9005
 5984 00bb 05       		.uleb128 0x5
 5985 00bc EC0A0000 		.4byte	.LASF18
 5986 00c0 0690     		.2byte	0x9006
 5987 00c2 05       		.uleb128 0x5
 5988 00c3 93110000 		.4byte	.LASF19
 5989 00c7 0790     		.2byte	0x9007
ARM GAS  /var/folders/d2/nstgp4h54kz7g1l847x_b8wc0000gn/T//cccORz8f.s 			page 109


 5990 00c9 05       		.uleb128 0x5
 5991 00ca A7120000 		.4byte	.LASF20
 5992 00ce 0890     		.2byte	0x9008
 5993 00d0 05       		.uleb128 0x5
 5994 00d1 9C010000 		.4byte	.LASF21
 5995 00d5 0990     		.2byte	0x9009
 5996 00d7 05       		.uleb128 0x5
 5997 00d8 05130000 		.4byte	.LASF22
 5998 00dc 0A90     		.2byte	0x900a
 5999 00de 05       		.uleb128 0x5
 6000 00df 20020000 		.4byte	.LASF23
 6001 00e3 0B90     		.2byte	0x900b
 6002 00e5 05       		.uleb128 0x5
 6003 00e6 C4090000 		.4byte	.LASF24
 6004 00ea 0C90     		.2byte	0x900c
 6005 00ec 05       		.uleb128 0x5
 6006 00ed C50B0000 		.4byte	.LASF25
 6007 00f1 00A0     		.2byte	0xa000
 6008 00f3 05       		.uleb128 0x5
 6009 00f4 7A010000 		.4byte	.LASF26
 6010 00f8 01A0     		.2byte	0xa001
 6011 00fa 05       		.uleb128 0x5
 6012 00fb 4C090000 		.4byte	.LASF27
 6013 00ff 02A0     		.2byte	0xa002
 6014 0101 05       		.uleb128 0x5
 6015 0102 D7120000 		.4byte	.LASF28
 6016 0106 03A0     		.2byte	0xa003
 6017 0108 05       		.uleb128 0x5
 6018 0109 CF0A0000 		.4byte	.LASF29
 6019 010d 04A0     		.2byte	0xa004
 6020 010f 05       		.uleb128 0x5
 6021 0110 4E040000 		.4byte	.LASF30
 6022 0114 05A0     		.2byte	0xa005
 6023 0116 05       		.uleb128 0x5
 6024 0117 80100000 		.4byte	.LASF31
 6025 011b 06A0     		.2byte	0xa006
 6026 011d 05       		.uleb128 0x5
 6027 011e 89020000 		.4byte	.LASF32
 6028 0122 07A0     		.2byte	0xa007
 6029 0124 05       		.uleb128 0x5
 6030 0125 3E100000 		.4byte	.LASF33
 6031 0129 08A0     		.2byte	0xa008
 6032 012b 05       		.uleb128 0x5
 6033 012c 47110000 		.4byte	.LASF34
 6034 0130 09A0     		.2byte	0xa009
 6035 0132 05       		.uleb128 0x5
 6036 0133 E3000000 		.4byte	.LASF35
 6037 0137 0AA0     		.2byte	0xa00a
 6038 0139 05       		.uleb128 0x5
 6039 013a 9D090000 		.4byte	.LASF36
 6040 013e 0BA0     		.2byte	0xa00b
 6041 0140 05       		.uleb128 0x5
 6042 0141 76080000 		.4byte	.LASF37
 6043 0145 0CA0     		.2byte	0xa00c
 6044 0147 05       		.uleb128 0x5
 6045 0148 210D0000 		.4byte	.LASF38
 6046 014c 0DA0     		.2byte	0xa00d
ARM GAS  /var/folders/d2/nstgp4h54kz7g1l847x_b8wc0000gn/T//cccORz8f.s 			page 110


 6047 014e 05       		.uleb128 0x5
 6048 014f 260E0000 		.4byte	.LASF39
 6049 0153 0EA0     		.2byte	0xa00e
 6050 0155 05       		.uleb128 0x5
 6051 0156 30060000 		.4byte	.LASF40
 6052 015a 0FA0     		.2byte	0xa00f
 6053 015c 05       		.uleb128 0x5
 6054 015d E9110000 		.4byte	.LASF41
 6055 0161 10A0     		.2byte	0xa010
 6056 0163 05       		.uleb128 0x5
 6057 0164 BE010000 		.4byte	.LASF42
 6058 0168 11A0     		.2byte	0xa011
 6059 016a 05       		.uleb128 0x5
 6060 016b CD000000 		.4byte	.LASF43
 6061 016f FFFF     		.2byte	0xffff
 6062 0171 00       		.byte	0
 6063 0172 02       		.uleb128 0x2
 6064 0173 04       		.byte	0x4
 6065 0174 07       		.byte	0x7
 6066 0175 12010000 		.4byte	.LASF44
 6067 0179 06       		.uleb128 0x6
 6068 017a 04       		.byte	0x4
 6069 017b 05       		.byte	0x5
 6070 017c 696E7400 		.ascii	"int\000"
 6071 0180 02       		.uleb128 0x2
 6072 0181 08       		.byte	0x8
 6073 0182 05       		.byte	0x5
 6074 0183 E1080000 		.4byte	.LASF45
 6075 0187 02       		.uleb128 0x2
 6076 0188 08       		.byte	0x8
 6077 0189 04       		.byte	0x4
 6078 018a 3C0B0000 		.4byte	.LASF46
 6079 018e 02       		.uleb128 0x2
 6080 018f 01       		.byte	0x1
 6081 0190 06       		.byte	0x6
 6082 0191 1B110000 		.4byte	.LASF47
 6083 0195 02       		.uleb128 0x2
 6084 0196 02       		.byte	0x2
 6085 0197 05       		.byte	0x5
 6086 0198 BB0B0000 		.4byte	.LASF48
 6087 019c 02       		.uleb128 0x2
 6088 019d 04       		.byte	0x4
 6089 019e 05       		.byte	0x5
 6090 019f F50B0000 		.4byte	.LASF49
 6091 01a3 02       		.uleb128 0x2
 6092 01a4 04       		.byte	0x4
 6093 01a5 07       		.byte	0x7
 6094 01a6 060E0000 		.4byte	.LASF50
 6095 01aa 02       		.uleb128 0x2
 6096 01ab 08       		.byte	0x8
 6097 01ac 07       		.byte	0x7
 6098 01ad DD040000 		.4byte	.LASF51
 6099 01b1 07       		.uleb128 0x7
 6100 01b2 480B0000 		.4byte	.LASF52
 6101 01b6 04       		.byte	0x4
 6102 01b7 22       		.byte	0x22
 6103 01b8 BC010000 		.4byte	0x1bc
ARM GAS  /var/folders/d2/nstgp4h54kz7g1l847x_b8wc0000gn/T//cccORz8f.s 			page 111


 6104 01bc 08       		.uleb128 0x8
 6105 01bd 04       		.byte	0x4
 6106 01be C2010000 		.4byte	0x1c2
 6107 01c2 09       		.uleb128 0x9
 6108 01c3 5B0E0000 		.4byte	.LASF159
 6109 01c7 07       		.uleb128 0x7
 6110 01c8 CF110000 		.4byte	.LASF53
 6111 01cc 05       		.byte	0x5
 6112 01cd 2C       		.byte	0x2c
 6113 01ce 9C010000 		.4byte	0x19c
 6114 01d2 07       		.uleb128 0x7
 6115 01d3 67030000 		.4byte	.LASF54
 6116 01d7 05       		.byte	0x5
 6117 01d8 72       		.byte	0x72
 6118 01d9 9C010000 		.4byte	0x19c
 6119 01dd 0A       		.uleb128 0xa
 6120 01de 1F0E0000 		.4byte	.LASF55
 6121 01e2 06       		.byte	0x6
 6122 01e3 6501     		.2byte	0x165
 6123 01e5 72010000 		.4byte	0x172
 6124 01e9 0B       		.uleb128 0xb
 6125 01ea 04       		.byte	0x4
 6126 01eb 05       		.byte	0x5
 6127 01ec A6       		.byte	0xa6
 6128 01ed 08020000 		.4byte	0x208
 6129 01f1 0C       		.uleb128 0xc
 6130 01f2 3C080000 		.4byte	.LASF56
 6131 01f6 05       		.byte	0x5
 6132 01f7 A8       		.byte	0xa8
 6133 01f8 DD010000 		.4byte	0x1dd
 6134 01fc 0C       		.uleb128 0xc
 6135 01fd B40C0000 		.4byte	.LASF57
 6136 0201 05       		.byte	0x5
 6137 0202 A9       		.byte	0xa9
 6138 0203 08020000 		.4byte	0x208
 6139 0207 00       		.byte	0
 6140 0208 0D       		.uleb128 0xd
 6141 0209 25000000 		.4byte	0x25
 6142 020d 18020000 		.4byte	0x218
 6143 0211 0E       		.uleb128 0xe
 6144 0212 72010000 		.4byte	0x172
 6145 0216 03       		.byte	0x3
 6146 0217 00       		.byte	0
 6147 0218 0F       		.uleb128 0xf
 6148 0219 08       		.byte	0x8
 6149 021a 05       		.byte	0x5
 6150 021b A3       		.byte	0xa3
 6151 021c 39020000 		.4byte	0x239
 6152 0220 10       		.uleb128 0x10
 6153 0221 24040000 		.4byte	.LASF58
 6154 0225 05       		.byte	0x5
 6155 0226 A5       		.byte	0xa5
 6156 0227 79010000 		.4byte	0x179
 6157 022b 00       		.byte	0
 6158 022c 10       		.uleb128 0x10
 6159 022d C8060000 		.4byte	.LASF59
 6160 0231 05       		.byte	0x5
ARM GAS  /var/folders/d2/nstgp4h54kz7g1l847x_b8wc0000gn/T//cccORz8f.s 			page 112


 6161 0232 AA       		.byte	0xaa
 6162 0233 E9010000 		.4byte	0x1e9
 6163 0237 04       		.byte	0x4
 6164 0238 00       		.byte	0
 6165 0239 07       		.uleb128 0x7
 6166 023a B9090000 		.4byte	.LASF60
 6167 023e 05       		.byte	0x5
 6168 023f AB       		.byte	0xab
 6169 0240 18020000 		.4byte	0x218
 6170 0244 07       		.uleb128 0x7
 6171 0245 EB070000 		.4byte	.LASF61
 6172 0249 05       		.byte	0x5
 6173 024a AF       		.byte	0xaf
 6174 024b B1010000 		.4byte	0x1b1
 6175 024f 11       		.uleb128 0x11
 6176 0250 04       		.byte	0x4
 6177 0251 08       		.uleb128 0x8
 6178 0252 04       		.byte	0x4
 6179 0253 57020000 		.4byte	0x257
 6180 0257 02       		.uleb128 0x2
 6181 0258 01       		.byte	0x1
 6182 0259 08       		.byte	0x8
 6183 025a 1E070000 		.4byte	.LASF62
 6184 025e 12       		.uleb128 0x12
 6185 025f 57020000 		.4byte	0x257
 6186 0263 07       		.uleb128 0x7
 6187 0264 24090000 		.4byte	.LASF63
 6188 0268 07       		.byte	0x7
 6189 0269 16       		.byte	0x16
 6190 026a A3010000 		.4byte	0x1a3
 6191 026e 13       		.uleb128 0x13
 6192 026f B3030000 		.4byte	.LASF68
 6193 0273 18       		.byte	0x18
 6194 0274 07       		.byte	0x7
 6195 0275 2F       		.byte	0x2f
 6196 0276 C1020000 		.4byte	0x2c1
 6197 027a 10       		.uleb128 0x10
 6198 027b 4D060000 		.4byte	.LASF64
 6199 027f 07       		.byte	0x7
 6200 0280 31       		.byte	0x31
 6201 0281 C1020000 		.4byte	0x2c1
 6202 0285 00       		.byte	0
 6203 0286 14       		.uleb128 0x14
 6204 0287 5F6B00   		.ascii	"_k\000"
 6205 028a 07       		.byte	0x7
 6206 028b 32       		.byte	0x32
 6207 028c 79010000 		.4byte	0x179
 6208 0290 04       		.byte	0x4
 6209 0291 10       		.uleb128 0x10
 6210 0292 950D0000 		.4byte	.LASF65
 6211 0296 07       		.byte	0x7
 6212 0297 32       		.byte	0x32
 6213 0298 79010000 		.4byte	0x179
 6214 029c 08       		.byte	0x8
 6215 029d 10       		.uleb128 0x10
 6216 029e 6B0C0000 		.4byte	.LASF66
 6217 02a2 07       		.byte	0x7
ARM GAS  /var/folders/d2/nstgp4h54kz7g1l847x_b8wc0000gn/T//cccORz8f.s 			page 113


 6218 02a3 32       		.byte	0x32
 6219 02a4 79010000 		.4byte	0x179
 6220 02a8 0C       		.byte	0xc
 6221 02a9 10       		.uleb128 0x10
 6222 02aa 09050000 		.4byte	.LASF67
 6223 02ae 07       		.byte	0x7
 6224 02af 32       		.byte	0x32
 6225 02b0 79010000 		.4byte	0x179
 6226 02b4 10       		.byte	0x10
 6227 02b5 14       		.uleb128 0x14
 6228 02b6 5F7800   		.ascii	"_x\000"
 6229 02b9 07       		.byte	0x7
 6230 02ba 33       		.byte	0x33
 6231 02bb C7020000 		.4byte	0x2c7
 6232 02bf 14       		.byte	0x14
 6233 02c0 00       		.byte	0
 6234 02c1 08       		.uleb128 0x8
 6235 02c2 04       		.byte	0x4
 6236 02c3 6E020000 		.4byte	0x26e
 6237 02c7 0D       		.uleb128 0xd
 6238 02c8 63020000 		.4byte	0x263
 6239 02cc D7020000 		.4byte	0x2d7
 6240 02d0 0E       		.uleb128 0xe
 6241 02d1 72010000 		.4byte	0x172
 6242 02d5 00       		.byte	0
 6243 02d6 00       		.byte	0
 6244 02d7 13       		.uleb128 0x13
 6245 02d8 E80D0000 		.4byte	.LASF69
 6246 02dc 24       		.byte	0x24
 6247 02dd 07       		.byte	0x7
 6248 02de 37       		.byte	0x37
 6249 02df 50030000 		.4byte	0x350
 6250 02e3 10       		.uleb128 0x10
 6251 02e4 E0050000 		.4byte	.LASF70
 6252 02e8 07       		.byte	0x7
 6253 02e9 39       		.byte	0x39
 6254 02ea 79010000 		.4byte	0x179
 6255 02ee 00       		.byte	0
 6256 02ef 10       		.uleb128 0x10
 6257 02f0 61040000 		.4byte	.LASF71
 6258 02f4 07       		.byte	0x7
 6259 02f5 3A       		.byte	0x3a
 6260 02f6 79010000 		.4byte	0x179
 6261 02fa 04       		.byte	0x4
 6262 02fb 10       		.uleb128 0x10
 6263 02fc FB030000 		.4byte	.LASF72
 6264 0300 07       		.byte	0x7
 6265 0301 3B       		.byte	0x3b
 6266 0302 79010000 		.4byte	0x179
 6267 0306 08       		.byte	0x8
 6268 0307 10       		.uleb128 0x10
 6269 0308 23070000 		.4byte	.LASF73
 6270 030c 07       		.byte	0x7
 6271 030d 3C       		.byte	0x3c
 6272 030e 79010000 		.4byte	0x179
 6273 0312 0C       		.byte	0xc
 6274 0313 10       		.uleb128 0x10
ARM GAS  /var/folders/d2/nstgp4h54kz7g1l847x_b8wc0000gn/T//cccORz8f.s 			page 114


 6275 0314 E30A0000 		.4byte	.LASF74
 6276 0318 07       		.byte	0x7
 6277 0319 3D       		.byte	0x3d
 6278 031a 79010000 		.4byte	0x179
 6279 031e 10       		.byte	0x10
 6280 031f 10       		.uleb128 0x10
 6281 0320 0B0D0000 		.4byte	.LASF75
 6282 0324 07       		.byte	0x7
 6283 0325 3E       		.byte	0x3e
 6284 0326 79010000 		.4byte	0x179
 6285 032a 14       		.byte	0x14
 6286 032b 10       		.uleb128 0x10
 6287 032c D1030000 		.4byte	.LASF76
 6288 0330 07       		.byte	0x7
 6289 0331 3F       		.byte	0x3f
 6290 0332 79010000 		.4byte	0x179
 6291 0336 18       		.byte	0x18
 6292 0337 10       		.uleb128 0x10
 6293 0338 F3050000 		.4byte	.LASF77
 6294 033c 07       		.byte	0x7
 6295 033d 40       		.byte	0x40
 6296 033e 79010000 		.4byte	0x179
 6297 0342 1C       		.byte	0x1c
 6298 0343 10       		.uleb128 0x10
 6299 0344 2A0A0000 		.4byte	.LASF78
 6300 0348 07       		.byte	0x7
 6301 0349 41       		.byte	0x41
 6302 034a 79010000 		.4byte	0x179
 6303 034e 20       		.byte	0x20
 6304 034f 00       		.byte	0
 6305 0350 15       		.uleb128 0x15
 6306 0351 48000000 		.4byte	.LASF79
 6307 0355 0801     		.2byte	0x108
 6308 0357 07       		.byte	0x7
 6309 0358 4A       		.byte	0x4a
 6310 0359 90030000 		.4byte	0x390
 6311 035d 10       		.uleb128 0x10
 6312 035e 13110000 		.4byte	.LASF80
 6313 0362 07       		.byte	0x7
 6314 0363 4B       		.byte	0x4b
 6315 0364 90030000 		.4byte	0x390
 6316 0368 00       		.byte	0
 6317 0369 10       		.uleb128 0x10
 6318 036a 430E0000 		.4byte	.LASF81
 6319 036e 07       		.byte	0x7
 6320 036f 4C       		.byte	0x4c
 6321 0370 90030000 		.4byte	0x390
 6322 0374 80       		.byte	0x80
 6323 0375 16       		.uleb128 0x16
 6324 0376 66110000 		.4byte	.LASF82
 6325 037a 07       		.byte	0x7
 6326 037b 4E       		.byte	0x4e
 6327 037c 63020000 		.4byte	0x263
 6328 0380 0001     		.2byte	0x100
 6329 0382 16       		.uleb128 0x16
 6330 0383 2D120000 		.4byte	.LASF83
 6331 0387 07       		.byte	0x7
ARM GAS  /var/folders/d2/nstgp4h54kz7g1l847x_b8wc0000gn/T//cccORz8f.s 			page 115


 6332 0388 51       		.byte	0x51
 6333 0389 63020000 		.4byte	0x263
 6334 038d 0401     		.2byte	0x104
 6335 038f 00       		.byte	0
 6336 0390 0D       		.uleb128 0xd
 6337 0391 4F020000 		.4byte	0x24f
 6338 0395 A0030000 		.4byte	0x3a0
 6339 0399 0E       		.uleb128 0xe
 6340 039a 72010000 		.4byte	0x172
 6341 039e 1F       		.byte	0x1f
 6342 039f 00       		.byte	0
 6343 03a0 15       		.uleb128 0x15
 6344 03a1 980B0000 		.4byte	.LASF84
 6345 03a5 9001     		.2byte	0x190
 6346 03a7 07       		.byte	0x7
 6347 03a8 5D       		.byte	0x5d
 6348 03a9 DE030000 		.4byte	0x3de
 6349 03ad 10       		.uleb128 0x10
 6350 03ae 4D060000 		.4byte	.LASF64
 6351 03b2 07       		.byte	0x7
 6352 03b3 5E       		.byte	0x5e
 6353 03b4 DE030000 		.4byte	0x3de
 6354 03b8 00       		.byte	0
 6355 03b9 10       		.uleb128 0x10
 6356 03ba 02060000 		.4byte	.LASF85
 6357 03be 07       		.byte	0x7
 6358 03bf 5F       		.byte	0x5f
 6359 03c0 79010000 		.4byte	0x179
 6360 03c4 04       		.byte	0x4
 6361 03c5 10       		.uleb128 0x10
 6362 03c6 6F030000 		.4byte	.LASF86
 6363 03ca 07       		.byte	0x7
 6364 03cb 61       		.byte	0x61
 6365 03cc E4030000 		.4byte	0x3e4
 6366 03d0 08       		.byte	0x8
 6367 03d1 10       		.uleb128 0x10
 6368 03d2 48000000 		.4byte	.LASF79
 6369 03d6 07       		.byte	0x7
 6370 03d7 62       		.byte	0x62
 6371 03d8 50030000 		.4byte	0x350
 6372 03dc 88       		.byte	0x88
 6373 03dd 00       		.byte	0
 6374 03de 08       		.uleb128 0x8
 6375 03df 04       		.byte	0x4
 6376 03e0 A0030000 		.4byte	0x3a0
 6377 03e4 0D       		.uleb128 0xd
 6378 03e5 F4030000 		.4byte	0x3f4
 6379 03e9 F4030000 		.4byte	0x3f4
 6380 03ed 0E       		.uleb128 0xe
 6381 03ee 72010000 		.4byte	0x172
 6382 03f2 1F       		.byte	0x1f
 6383 03f3 00       		.byte	0
 6384 03f4 08       		.uleb128 0x8
 6385 03f5 04       		.byte	0x4
 6386 03f6 FA030000 		.4byte	0x3fa
 6387 03fa 17       		.uleb128 0x17
 6388 03fb 13       		.uleb128 0x13
ARM GAS  /var/folders/d2/nstgp4h54kz7g1l847x_b8wc0000gn/T//cccORz8f.s 			page 116


 6389 03fc 6E100000 		.4byte	.LASF87
 6390 0400 08       		.byte	0x8
 6391 0401 07       		.byte	0x7
 6392 0402 75       		.byte	0x75
 6393 0403 20040000 		.4byte	0x420
 6394 0407 10       		.uleb128 0x10
 6395 0408 0E090000 		.4byte	.LASF88
 6396 040c 07       		.byte	0x7
 6397 040d 76       		.byte	0x76
 6398 040e 20040000 		.4byte	0x420
 6399 0412 00       		.byte	0
 6400 0413 10       		.uleb128 0x10
 6401 0414 8D110000 		.4byte	.LASF89
 6402 0418 07       		.byte	0x7
 6403 0419 77       		.byte	0x77
 6404 041a 79010000 		.4byte	0x179
 6405 041e 04       		.byte	0x4
 6406 041f 00       		.byte	0
 6407 0420 08       		.uleb128 0x8
 6408 0421 04       		.byte	0x4
 6409 0422 25000000 		.4byte	0x25
 6410 0426 13       		.uleb128 0x13
 6411 0427 01050000 		.4byte	.LASF90
 6412 042b 68       		.byte	0x68
 6413 042c 07       		.byte	0x7
 6414 042d B5       		.byte	0xb5
 6415 042e 50050000 		.4byte	0x550
 6416 0432 14       		.uleb128 0x14
 6417 0433 5F7000   		.ascii	"_p\000"
 6418 0436 07       		.byte	0x7
 6419 0437 B6       		.byte	0xb6
 6420 0438 20040000 		.4byte	0x420
 6421 043c 00       		.byte	0
 6422 043d 14       		.uleb128 0x14
 6423 043e 5F7200   		.ascii	"_r\000"
 6424 0441 07       		.byte	0x7
 6425 0442 B7       		.byte	0xb7
 6426 0443 79010000 		.4byte	0x179
 6427 0447 04       		.byte	0x4
 6428 0448 14       		.uleb128 0x14
 6429 0449 5F7700   		.ascii	"_w\000"
 6430 044c 07       		.byte	0x7
 6431 044d B8       		.byte	0xb8
 6432 044e 79010000 		.4byte	0x179
 6433 0452 08       		.byte	0x8
 6434 0453 10       		.uleb128 0x10
 6435 0454 6D010000 		.4byte	.LASF91
 6436 0458 07       		.byte	0x7
 6437 0459 B9       		.byte	0xb9
 6438 045a 95010000 		.4byte	0x195
 6439 045e 0C       		.byte	0xc
 6440 045f 10       		.uleb128 0x10
 6441 0460 6F090000 		.4byte	.LASF92
 6442 0464 07       		.byte	0x7
 6443 0465 BA       		.byte	0xba
 6444 0466 95010000 		.4byte	0x195
 6445 046a 0E       		.byte	0xe
ARM GAS  /var/folders/d2/nstgp4h54kz7g1l847x_b8wc0000gn/T//cccORz8f.s 			page 117


 6446 046b 14       		.uleb128 0x14
 6447 046c 5F626600 		.ascii	"_bf\000"
 6448 0470 07       		.byte	0x7
 6449 0471 BB       		.byte	0xbb
 6450 0472 FB030000 		.4byte	0x3fb
 6451 0476 10       		.byte	0x10
 6452 0477 10       		.uleb128 0x10
 6453 0478 64010000 		.4byte	.LASF93
 6454 047c 07       		.byte	0x7
 6455 047d BC       		.byte	0xbc
 6456 047e 79010000 		.4byte	0x179
 6457 0482 18       		.byte	0x18
 6458 0483 10       		.uleb128 0x10
 6459 0484 74030000 		.4byte	.LASF94
 6460 0488 07       		.byte	0x7
 6461 0489 C3       		.byte	0xc3
 6462 048a 4F020000 		.4byte	0x24f
 6463 048e 1C       		.byte	0x1c
 6464 048f 10       		.uleb128 0x10
 6465 0490 38100000 		.4byte	.LASF95
 6466 0494 07       		.byte	0x7
 6467 0495 C5       		.byte	0xc5
 6468 0496 AB060000 		.4byte	0x6ab
 6469 049a 20       		.byte	0x20
 6470 049b 10       		.uleb128 0x10
 6471 049c 6D0B0000 		.4byte	.LASF96
 6472 04a0 07       		.byte	0x7
 6473 04a1 C7       		.byte	0xc7
 6474 04a2 D5060000 		.4byte	0x6d5
 6475 04a6 24       		.byte	0x24
 6476 04a7 10       		.uleb128 0x10
 6477 04a8 D1120000 		.4byte	.LASF97
 6478 04ac 07       		.byte	0x7
 6479 04ad CA       		.byte	0xca
 6480 04ae F9060000 		.4byte	0x6f9
 6481 04b2 28       		.byte	0x28
 6482 04b3 10       		.uleb128 0x10
 6483 04b4 55080000 		.4byte	.LASF98
 6484 04b8 07       		.byte	0x7
 6485 04b9 CB       		.byte	0xcb
 6486 04ba 13070000 		.4byte	0x713
 6487 04be 2C       		.byte	0x2c
 6488 04bf 14       		.uleb128 0x14
 6489 04c0 5F756200 		.ascii	"_ub\000"
 6490 04c4 07       		.byte	0x7
 6491 04c5 CE       		.byte	0xce
 6492 04c6 FB030000 		.4byte	0x3fb
 6493 04ca 30       		.byte	0x30
 6494 04cb 14       		.uleb128 0x14
 6495 04cc 5F757000 		.ascii	"_up\000"
 6496 04d0 07       		.byte	0x7
 6497 04d1 CF       		.byte	0xcf
 6498 04d2 20040000 		.4byte	0x420
 6499 04d6 38       		.byte	0x38
 6500 04d7 14       		.uleb128 0x14
 6501 04d8 5F757200 		.ascii	"_ur\000"
 6502 04dc 07       		.byte	0x7
ARM GAS  /var/folders/d2/nstgp4h54kz7g1l847x_b8wc0000gn/T//cccORz8f.s 			page 118


 6503 04dd D0       		.byte	0xd0
 6504 04de 79010000 		.4byte	0x179
 6505 04e2 3C       		.byte	0x3c
 6506 04e3 10       		.uleb128 0x10
 6507 04e4 FF120000 		.4byte	.LASF99
 6508 04e8 07       		.byte	0x7
 6509 04e9 D3       		.byte	0xd3
 6510 04ea 19070000 		.4byte	0x719
 6511 04ee 40       		.byte	0x40
 6512 04ef 10       		.uleb128 0x10
 6513 04f0 D6110000 		.4byte	.LASF100
 6514 04f4 07       		.byte	0x7
 6515 04f5 D4       		.byte	0xd4
 6516 04f6 29070000 		.4byte	0x729
 6517 04fa 43       		.byte	0x43
 6518 04fb 14       		.uleb128 0x14
 6519 04fc 5F6C6200 		.ascii	"_lb\000"
 6520 0500 07       		.byte	0x7
 6521 0501 D7       		.byte	0xd7
 6522 0502 FB030000 		.4byte	0x3fb
 6523 0506 44       		.byte	0x44
 6524 0507 10       		.uleb128 0x10
 6525 0508 DF0D0000 		.4byte	.LASF101
 6526 050c 07       		.byte	0x7
 6527 050d DA       		.byte	0xda
 6528 050e 79010000 		.4byte	0x179
 6529 0512 4C       		.byte	0x4c
 6530 0513 10       		.uleb128 0x10
 6531 0514 2C050000 		.4byte	.LASF102
 6532 0518 07       		.byte	0x7
 6533 0519 DB       		.byte	0xdb
 6534 051a C7010000 		.4byte	0x1c7
 6535 051e 50       		.byte	0x50
 6536 051f 10       		.uleb128 0x10
 6537 0520 AE0C0000 		.4byte	.LASF103
 6538 0524 07       		.byte	0x7
 6539 0525 DE       		.byte	0xde
 6540 0526 6E050000 		.4byte	0x56e
 6541 052a 54       		.byte	0x54
 6542 052b 10       		.uleb128 0x10
 6543 052c 000E0000 		.4byte	.LASF104
 6544 0530 07       		.byte	0x7
 6545 0531 E2       		.byte	0xe2
 6546 0532 44020000 		.4byte	0x244
 6547 0536 58       		.byte	0x58
 6548 0537 10       		.uleb128 0x10
 6549 0538 66020000 		.4byte	.LASF105
 6550 053c 07       		.byte	0x7
 6551 053d E4       		.byte	0xe4
 6552 053e 39020000 		.4byte	0x239
 6553 0542 5C       		.byte	0x5c
 6554 0543 10       		.uleb128 0x10
 6555 0544 25120000 		.4byte	.LASF106
 6556 0548 07       		.byte	0x7
 6557 0549 E5       		.byte	0xe5
 6558 054a 79010000 		.4byte	0x179
 6559 054e 64       		.byte	0x64
ARM GAS  /var/folders/d2/nstgp4h54kz7g1l847x_b8wc0000gn/T//cccORz8f.s 			page 119


 6560 054f 00       		.byte	0
 6561 0550 18       		.uleb128 0x18
 6562 0551 79010000 		.4byte	0x179
 6563 0555 6E050000 		.4byte	0x56e
 6564 0559 19       		.uleb128 0x19
 6565 055a 6E050000 		.4byte	0x56e
 6566 055e 19       		.uleb128 0x19
 6567 055f 4F020000 		.4byte	0x24f
 6568 0563 19       		.uleb128 0x19
 6569 0564 51020000 		.4byte	0x251
 6570 0568 19       		.uleb128 0x19
 6571 0569 79010000 		.4byte	0x179
 6572 056d 00       		.byte	0
 6573 056e 08       		.uleb128 0x8
 6574 056f 04       		.byte	0x4
 6575 0570 79050000 		.4byte	0x579
 6576 0574 12       		.uleb128 0x12
 6577 0575 6E050000 		.4byte	0x56e
 6578 0579 1A       		.uleb128 0x1a
 6579 057a 2D110000 		.4byte	.LASF107
 6580 057e 2804     		.2byte	0x428
 6581 0580 07       		.byte	0x7
 6582 0581 3902     		.2byte	0x239
 6583 0583 AB060000 		.4byte	0x6ab
 6584 0587 1B       		.uleb128 0x1b
 6585 0588 95010000 		.4byte	.LASF108
 6586 058c 07       		.byte	0x7
 6587 058d 3B02     		.2byte	0x23b
 6588 058f 79010000 		.4byte	0x179
 6589 0593 00       		.byte	0
 6590 0594 1B       		.uleb128 0x1b
 6591 0595 CB080000 		.4byte	.LASF109
 6592 0599 07       		.byte	0x7
 6593 059a 4002     		.2byte	0x240
 6594 059c 80070000 		.4byte	0x780
 6595 05a0 04       		.byte	0x4
 6596 05a1 1B       		.uleb128 0x1b
 6597 05a2 5F030000 		.4byte	.LASF110
 6598 05a6 07       		.byte	0x7
 6599 05a7 4002     		.2byte	0x240
 6600 05a9 80070000 		.4byte	0x780
 6601 05ad 08       		.byte	0x8
 6602 05ae 1B       		.uleb128 0x1b
 6603 05af EE120000 		.4byte	.LASF111
 6604 05b3 07       		.byte	0x7
 6605 05b4 4002     		.2byte	0x240
 6606 05b6 80070000 		.4byte	0x780
 6607 05ba 0C       		.byte	0xc
 6608 05bb 1B       		.uleb128 0x1b
 6609 05bc FD050000 		.4byte	.LASF112
 6610 05c0 07       		.byte	0x7
 6611 05c1 4202     		.2byte	0x242
 6612 05c3 79010000 		.4byte	0x179
 6613 05c7 10       		.byte	0x10
 6614 05c8 1B       		.uleb128 0x1b
 6615 05c9 4E050000 		.4byte	.LASF113
 6616 05cd 07       		.byte	0x7
ARM GAS  /var/folders/d2/nstgp4h54kz7g1l847x_b8wc0000gn/T//cccORz8f.s 			page 120


 6617 05ce 4302     		.2byte	0x243
 6618 05d0 62090000 		.4byte	0x962
 6619 05d4 14       		.byte	0x14
 6620 05d5 1B       		.uleb128 0x1b
 6621 05d6 0C120000 		.4byte	.LASF114
 6622 05da 07       		.byte	0x7
 6623 05db 4602     		.2byte	0x246
 6624 05dd 79010000 		.4byte	0x179
 6625 05e1 30       		.byte	0x30
 6626 05e2 1B       		.uleb128 0x1b
 6627 05e3 F3100000 		.4byte	.LASF115
 6628 05e7 07       		.byte	0x7
 6629 05e8 4702     		.2byte	0x247
 6630 05ea 77090000 		.4byte	0x977
 6631 05ee 34       		.byte	0x34
 6632 05ef 1B       		.uleb128 0x1b
 6633 05f0 66080000 		.4byte	.LASF116
 6634 05f4 07       		.byte	0x7
 6635 05f5 4902     		.2byte	0x249
 6636 05f7 79010000 		.4byte	0x179
 6637 05fb 38       		.byte	0x38
 6638 05fc 1B       		.uleb128 0x1b
 6639 05fd 93090000 		.4byte	.LASF117
 6640 0601 07       		.byte	0x7
 6641 0602 4B02     		.2byte	0x24b
 6642 0604 88090000 		.4byte	0x988
 6643 0608 3C       		.byte	0x3c
 6644 0609 1B       		.uleb128 0x1b
 6645 060a E2030000 		.4byte	.LASF118
 6646 060e 07       		.byte	0x7
 6647 060f 4E02     		.2byte	0x24e
 6648 0611 C1020000 		.4byte	0x2c1
 6649 0615 40       		.byte	0x40
 6650 0616 1B       		.uleb128 0x1b
 6651 0617 D3040000 		.4byte	.LASF119
 6652 061b 07       		.byte	0x7
 6653 061c 4F02     		.2byte	0x24f
 6654 061e 79010000 		.4byte	0x179
 6655 0622 44       		.byte	0x44
 6656 0623 1B       		.uleb128 0x1b
 6657 0624 E3060000 		.4byte	.LASF120
 6658 0628 07       		.byte	0x7
 6659 0629 5002     		.2byte	0x250
 6660 062b C1020000 		.4byte	0x2c1
 6661 062f 48       		.byte	0x48
 6662 0630 1B       		.uleb128 0x1b
 6663 0631 14090000 		.4byte	.LASF121
 6664 0635 07       		.byte	0x7
 6665 0636 5102     		.2byte	0x251
 6666 0638 8E090000 		.4byte	0x98e
 6667 063c 4C       		.byte	0x4c
 6668 063d 1B       		.uleb128 0x1b
 6669 063e 8D0D0000 		.4byte	.LASF122
 6670 0642 07       		.byte	0x7
 6671 0643 5402     		.2byte	0x254
 6672 0645 79010000 		.4byte	0x179
 6673 0649 50       		.byte	0x50
ARM GAS  /var/folders/d2/nstgp4h54kz7g1l847x_b8wc0000gn/T//cccORz8f.s 			page 121


 6674 064a 1B       		.uleb128 0x1b
 6675 064b A60F0000 		.4byte	.LASF123
 6676 064f 07       		.byte	0x7
 6677 0650 5502     		.2byte	0x255
 6678 0652 51020000 		.4byte	0x251
 6679 0656 54       		.byte	0x54
 6680 0657 1B       		.uleb128 0x1b
 6681 0658 880D0000 		.4byte	.LASF124
 6682 065c 07       		.byte	0x7
 6683 065d 7802     		.2byte	0x278
 6684 065f 40090000 		.4byte	0x940
 6685 0663 58       		.byte	0x58
 6686 0664 1C       		.uleb128 0x1c
 6687 0665 980B0000 		.4byte	.LASF84
 6688 0669 07       		.byte	0x7
 6689 066a 7C02     		.2byte	0x27c
 6690 066c DE030000 		.4byte	0x3de
 6691 0670 4801     		.2byte	0x148
 6692 0672 1C       		.uleb128 0x1c
 6693 0673 46070000 		.4byte	.LASF125
 6694 0677 07       		.byte	0x7
 6695 0678 7D02     		.2byte	0x27d
 6696 067a A0030000 		.4byte	0x3a0
 6697 067e 4C01     		.2byte	0x14c
 6698 0680 1C       		.uleb128 0x1c
 6699 0681 2D070000 		.4byte	.LASF126
 6700 0685 07       		.byte	0x7
 6701 0686 8102     		.2byte	0x281
 6702 0688 9F090000 		.4byte	0x99f
 6703 068c DC02     		.2byte	0x2dc
 6704 068e 1C       		.uleb128 0x1c
 6705 068f A5100000 		.4byte	.LASF127
 6706 0693 07       		.byte	0x7
 6707 0694 8602     		.2byte	0x286
 6708 0696 45070000 		.4byte	0x745
 6709 069a E002     		.2byte	0x2e0
 6710 069c 1C       		.uleb128 0x1c
 6711 069d 660C0000 		.4byte	.LASF128
 6712 06a1 07       		.byte	0x7
 6713 06a2 8802     		.2byte	0x288
 6714 06a4 AB090000 		.4byte	0x9ab
 6715 06a8 EC02     		.2byte	0x2ec
 6716 06aa 00       		.byte	0
 6717 06ab 08       		.uleb128 0x8
 6718 06ac 04       		.byte	0x4
 6719 06ad 50050000 		.4byte	0x550
 6720 06b1 18       		.uleb128 0x18
 6721 06b2 79010000 		.4byte	0x179
 6722 06b6 CF060000 		.4byte	0x6cf
 6723 06ba 19       		.uleb128 0x19
 6724 06bb 6E050000 		.4byte	0x56e
 6725 06bf 19       		.uleb128 0x19
 6726 06c0 4F020000 		.4byte	0x24f
 6727 06c4 19       		.uleb128 0x19
 6728 06c5 CF060000 		.4byte	0x6cf
 6729 06c9 19       		.uleb128 0x19
 6730 06ca 79010000 		.4byte	0x179
ARM GAS  /var/folders/d2/nstgp4h54kz7g1l847x_b8wc0000gn/T//cccORz8f.s 			page 122


 6731 06ce 00       		.byte	0
 6732 06cf 08       		.uleb128 0x8
 6733 06d0 04       		.byte	0x4
 6734 06d1 5E020000 		.4byte	0x25e
 6735 06d5 08       		.uleb128 0x8
 6736 06d6 04       		.byte	0x4
 6737 06d7 B1060000 		.4byte	0x6b1
 6738 06db 18       		.uleb128 0x18
 6739 06dc D2010000 		.4byte	0x1d2
 6740 06e0 F9060000 		.4byte	0x6f9
 6741 06e4 19       		.uleb128 0x19
 6742 06e5 6E050000 		.4byte	0x56e
 6743 06e9 19       		.uleb128 0x19
 6744 06ea 4F020000 		.4byte	0x24f
 6745 06ee 19       		.uleb128 0x19
 6746 06ef D2010000 		.4byte	0x1d2
 6747 06f3 19       		.uleb128 0x19
 6748 06f4 79010000 		.4byte	0x179
 6749 06f8 00       		.byte	0
 6750 06f9 08       		.uleb128 0x8
 6751 06fa 04       		.byte	0x4
 6752 06fb DB060000 		.4byte	0x6db
 6753 06ff 18       		.uleb128 0x18
 6754 0700 79010000 		.4byte	0x179
 6755 0704 13070000 		.4byte	0x713
 6756 0708 19       		.uleb128 0x19
 6757 0709 6E050000 		.4byte	0x56e
 6758 070d 19       		.uleb128 0x19
 6759 070e 4F020000 		.4byte	0x24f
 6760 0712 00       		.byte	0
 6761 0713 08       		.uleb128 0x8
 6762 0714 04       		.byte	0x4
 6763 0715 FF060000 		.4byte	0x6ff
 6764 0719 0D       		.uleb128 0xd
 6765 071a 25000000 		.4byte	0x25
 6766 071e 29070000 		.4byte	0x729
 6767 0722 0E       		.uleb128 0xe
 6768 0723 72010000 		.4byte	0x172
 6769 0727 02       		.byte	0x2
 6770 0728 00       		.byte	0
 6771 0729 0D       		.uleb128 0xd
 6772 072a 25000000 		.4byte	0x25
 6773 072e 39070000 		.4byte	0x739
 6774 0732 0E       		.uleb128 0xe
 6775 0733 72010000 		.4byte	0x172
 6776 0737 00       		.byte	0
 6777 0738 00       		.byte	0
 6778 0739 0A       		.uleb128 0xa
 6779 073a 1A050000 		.4byte	.LASF129
 6780 073e 07       		.byte	0x7
 6781 073f 1F01     		.2byte	0x11f
 6782 0741 26040000 		.4byte	0x426
 6783 0745 1D       		.uleb128 0x1d
 6784 0746 93100000 		.4byte	.LASF130
 6785 074a 0C       		.byte	0xc
 6786 074b 07       		.byte	0x7
 6787 074c 2301     		.2byte	0x123
ARM GAS  /var/folders/d2/nstgp4h54kz7g1l847x_b8wc0000gn/T//cccORz8f.s 			page 123


 6788 074e 7A070000 		.4byte	0x77a
 6789 0752 1B       		.uleb128 0x1b
 6790 0753 4D060000 		.4byte	.LASF64
 6791 0757 07       		.byte	0x7
 6792 0758 2501     		.2byte	0x125
 6793 075a 7A070000 		.4byte	0x77a
 6794 075e 00       		.byte	0
 6795 075f 1B       		.uleb128 0x1b
 6796 0760 180E0000 		.4byte	.LASF131
 6797 0764 07       		.byte	0x7
 6798 0765 2601     		.2byte	0x126
 6799 0767 79010000 		.4byte	0x179
 6800 076b 04       		.byte	0x4
 6801 076c 1B       		.uleb128 0x1b
 6802 076d 42080000 		.4byte	.LASF132
 6803 0771 07       		.byte	0x7
 6804 0772 2701     		.2byte	0x127
 6805 0774 80070000 		.4byte	0x780
 6806 0778 08       		.byte	0x8
 6807 0779 00       		.byte	0
 6808 077a 08       		.uleb128 0x8
 6809 077b 04       		.byte	0x4
 6810 077c 45070000 		.4byte	0x745
 6811 0780 08       		.uleb128 0x8
 6812 0781 04       		.byte	0x4
 6813 0782 39070000 		.4byte	0x739
 6814 0786 1D       		.uleb128 0x1d
 6815 0787 9E040000 		.4byte	.LASF133
 6816 078b 0E       		.byte	0xe
 6817 078c 07       		.byte	0x7
 6818 078d 3F01     		.2byte	0x13f
 6819 078f BB070000 		.4byte	0x7bb
 6820 0793 1B       		.uleb128 0x1b
 6821 0794 96120000 		.4byte	.LASF134
 6822 0798 07       		.byte	0x7
 6823 0799 4001     		.2byte	0x140
 6824 079b BB070000 		.4byte	0x7bb
 6825 079f 00       		.byte	0
 6826 07a0 1B       		.uleb128 0x1b
 6827 07a1 1E090000 		.4byte	.LASF135
 6828 07a5 07       		.byte	0x7
 6829 07a6 4101     		.2byte	0x141
 6830 07a8 BB070000 		.4byte	0x7bb
 6831 07ac 06       		.byte	0x6
 6832 07ad 1B       		.uleb128 0x1b
 6833 07ae 33100000 		.4byte	.LASF136
 6834 07b2 07       		.byte	0x7
 6835 07b3 4201     		.2byte	0x142
 6836 07b5 4C000000 		.4byte	0x4c
 6837 07b9 0C       		.byte	0xc
 6838 07ba 00       		.byte	0
 6839 07bb 0D       		.uleb128 0xd
 6840 07bc 4C000000 		.4byte	0x4c
 6841 07c0 CB070000 		.4byte	0x7cb
 6842 07c4 0E       		.uleb128 0xe
 6843 07c5 72010000 		.4byte	0x172
 6844 07c9 02       		.byte	0x2
ARM GAS  /var/folders/d2/nstgp4h54kz7g1l847x_b8wc0000gn/T//cccORz8f.s 			page 124


 6845 07ca 00       		.byte	0
 6846 07cb 1E       		.uleb128 0x1e
 6847 07cc D0       		.byte	0xd0
 6848 07cd 07       		.byte	0x7
 6849 07ce 5902     		.2byte	0x259
 6850 07d0 CC080000 		.4byte	0x8cc
 6851 07d4 1B       		.uleb128 0x1b
 6852 07d5 DC110000 		.4byte	.LASF137
 6853 07d9 07       		.byte	0x7
 6854 07da 5B02     		.2byte	0x25b
 6855 07dc 72010000 		.4byte	0x172
 6856 07e0 00       		.byte	0
 6857 07e1 1B       		.uleb128 0x1b
 6858 07e2 AD100000 		.4byte	.LASF138
 6859 07e6 07       		.byte	0x7
 6860 07e7 5C02     		.2byte	0x25c
 6861 07e9 51020000 		.4byte	0x251
 6862 07ed 04       		.byte	0x4
 6863 07ee 1B       		.uleb128 0x1b
 6864 07ef F4040000 		.4byte	.LASF139
 6865 07f3 07       		.byte	0x7
 6866 07f4 5D02     		.2byte	0x25d
 6867 07f6 CC080000 		.4byte	0x8cc
 6868 07fa 08       		.byte	0x8
 6869 07fb 1B       		.uleb128 0x1b
 6870 07fc 510D0000 		.4byte	.LASF140
 6871 0800 07       		.byte	0x7
 6872 0801 5E02     		.2byte	0x25e
 6873 0803 D7020000 		.4byte	0x2d7
 6874 0807 24       		.byte	0x24
 6875 0808 1B       		.uleb128 0x1b
 6876 0809 D2080000 		.4byte	.LASF141
 6877 080d 07       		.byte	0x7
 6878 080e 5F02     		.2byte	0x25f
 6879 0810 79010000 		.4byte	0x179
 6880 0814 48       		.byte	0x48
 6881 0815 1B       		.uleb128 0x1b
 6882 0816 9C120000 		.4byte	.LASF142
 6883 081a 07       		.byte	0x7
 6884 081b 6002     		.2byte	0x260
 6885 081d AA010000 		.4byte	0x1aa
 6886 0821 50       		.byte	0x50
 6887 0822 1B       		.uleb128 0x1b
 6888 0823 AC000000 		.4byte	.LASF143
 6889 0827 07       		.byte	0x7
 6890 0828 6102     		.2byte	0x261
 6891 082a 86070000 		.4byte	0x786
 6892 082e 58       		.byte	0x58
 6893 082f 1B       		.uleb128 0x1b
 6894 0830 11070000 		.4byte	.LASF144
 6895 0834 07       		.byte	0x7
 6896 0835 6202     		.2byte	0x262
 6897 0837 39020000 		.4byte	0x239
 6898 083b 68       		.byte	0x68
 6899 083c 1B       		.uleb128 0x1b
 6900 083d BA100000 		.4byte	.LASF145
 6901 0841 07       		.byte	0x7
ARM GAS  /var/folders/d2/nstgp4h54kz7g1l847x_b8wc0000gn/T//cccORz8f.s 			page 125


 6902 0842 6302     		.2byte	0x263
 6903 0844 39020000 		.4byte	0x239
 6904 0848 70       		.byte	0x70
 6905 0849 1B       		.uleb128 0x1b
 6906 084a 6A000000 		.4byte	.LASF146
 6907 084e 07       		.byte	0x7
 6908 084f 6402     		.2byte	0x264
 6909 0851 39020000 		.4byte	0x239
 6910 0855 78       		.byte	0x78
 6911 0856 1B       		.uleb128 0x1b
 6912 0857 9D0D0000 		.4byte	.LASF147
 6913 085b 07       		.byte	0x7
 6914 085c 6502     		.2byte	0x265
 6915 085e DC080000 		.4byte	0x8dc
 6916 0862 80       		.byte	0x80
 6917 0863 1B       		.uleb128 0x1b
 6918 0864 06010000 		.4byte	.LASF148
 6919 0868 07       		.byte	0x7
 6920 0869 6602     		.2byte	0x266
 6921 086b EC080000 		.4byte	0x8ec
 6922 086f 88       		.byte	0x88
 6923 0870 1B       		.uleb128 0x1b
 6924 0871 DA0F0000 		.4byte	.LASF149
 6925 0875 07       		.byte	0x7
 6926 0876 6702     		.2byte	0x267
 6927 0878 79010000 		.4byte	0x179
 6928 087c A0       		.byte	0xa0
 6929 087d 1B       		.uleb128 0x1b
 6930 087e 6B0A0000 		.4byte	.LASF150
 6931 0882 07       		.byte	0x7
 6932 0883 6802     		.2byte	0x268
 6933 0885 39020000 		.4byte	0x239
 6934 0889 A4       		.byte	0xa4
 6935 088a 1B       		.uleb128 0x1b
 6936 088b 37070000 		.4byte	.LASF151
 6937 088f 07       		.byte	0x7
 6938 0890 6902     		.2byte	0x269
 6939 0892 39020000 		.4byte	0x239
 6940 0896 AC       		.byte	0xac
 6941 0897 1B       		.uleb128 0x1b
 6942 0898 5C060000 		.4byte	.LASF152
 6943 089c 07       		.byte	0x7
 6944 089d 6A02     		.2byte	0x26a
 6945 089f 39020000 		.4byte	0x239
 6946 08a3 B4       		.byte	0xb4
 6947 08a4 1B       		.uleb128 0x1b
 6948 08a5 60090000 		.4byte	.LASF153
 6949 08a9 07       		.byte	0x7
 6950 08aa 6B02     		.2byte	0x26b
 6951 08ac 39020000 		.4byte	0x239
 6952 08b0 BC       		.byte	0xbc
 6953 08b1 1B       		.uleb128 0x1b
 6954 08b2 00070000 		.4byte	.LASF154
 6955 08b6 07       		.byte	0x7
 6956 08b7 6C02     		.2byte	0x26c
 6957 08b9 39020000 		.4byte	0x239
 6958 08bd C4       		.byte	0xc4
ARM GAS  /var/folders/d2/nstgp4h54kz7g1l847x_b8wc0000gn/T//cccORz8f.s 			page 126


 6959 08be 1B       		.uleb128 0x1b
 6960 08bf 830A0000 		.4byte	.LASF155
 6961 08c3 07       		.byte	0x7
 6962 08c4 6D02     		.2byte	0x26d
 6963 08c6 79010000 		.4byte	0x179
 6964 08ca CC       		.byte	0xcc
 6965 08cb 00       		.byte	0
 6966 08cc 0D       		.uleb128 0xd
 6967 08cd 57020000 		.4byte	0x257
 6968 08d1 DC080000 		.4byte	0x8dc
 6969 08d5 0E       		.uleb128 0xe
 6970 08d6 72010000 		.4byte	0x172
 6971 08da 19       		.byte	0x19
 6972 08db 00       		.byte	0
 6973 08dc 0D       		.uleb128 0xd
 6974 08dd 57020000 		.4byte	0x257
 6975 08e1 EC080000 		.4byte	0x8ec
 6976 08e5 0E       		.uleb128 0xe
 6977 08e6 72010000 		.4byte	0x172
 6978 08ea 07       		.byte	0x7
 6979 08eb 00       		.byte	0
 6980 08ec 0D       		.uleb128 0xd
 6981 08ed 57020000 		.4byte	0x257
 6982 08f1 FC080000 		.4byte	0x8fc
 6983 08f5 0E       		.uleb128 0xe
 6984 08f6 72010000 		.4byte	0x172
 6985 08fa 17       		.byte	0x17
 6986 08fb 00       		.byte	0
 6987 08fc 1E       		.uleb128 0x1e
 6988 08fd F0       		.byte	0xf0
 6989 08fe 07       		.byte	0x7
 6990 08ff 7202     		.2byte	0x272
 6991 0901 20090000 		.4byte	0x920
 6992 0905 1B       		.uleb128 0x1b
 6993 0906 76040000 		.4byte	.LASF156
 6994 090a 07       		.byte	0x7
 6995 090b 7502     		.2byte	0x275
 6996 090d 20090000 		.4byte	0x920
 6997 0911 00       		.byte	0
 6998 0912 1B       		.uleb128 0x1b
 6999 0913 F6120000 		.4byte	.LASF157
 7000 0917 07       		.byte	0x7
 7001 0918 7602     		.2byte	0x276
 7002 091a 30090000 		.4byte	0x930
 7003 091e 78       		.byte	0x78
 7004 091f 00       		.byte	0
 7005 0920 0D       		.uleb128 0xd
 7006 0921 20040000 		.4byte	0x420
 7007 0925 30090000 		.4byte	0x930
 7008 0929 0E       		.uleb128 0xe
 7009 092a 72010000 		.4byte	0x172
 7010 092e 1D       		.byte	0x1d
 7011 092f 00       		.byte	0
 7012 0930 0D       		.uleb128 0xd
 7013 0931 72010000 		.4byte	0x172
 7014 0935 40090000 		.4byte	0x940
 7015 0939 0E       		.uleb128 0xe
ARM GAS  /var/folders/d2/nstgp4h54kz7g1l847x_b8wc0000gn/T//cccORz8f.s 			page 127


 7016 093a 72010000 		.4byte	0x172
 7017 093e 1D       		.byte	0x1d
 7018 093f 00       		.byte	0
 7019 0940 1F       		.uleb128 0x1f
 7020 0941 F0       		.byte	0xf0
 7021 0942 07       		.byte	0x7
 7022 0943 5702     		.2byte	0x257
 7023 0945 62090000 		.4byte	0x962
 7024 0949 20       		.uleb128 0x20
 7025 094a 2D110000 		.4byte	.LASF107
 7026 094e 07       		.byte	0x7
 7027 094f 6E02     		.2byte	0x26e
 7028 0951 CB070000 		.4byte	0x7cb
 7029 0955 20       		.uleb128 0x20
 7030 0956 600D0000 		.4byte	.LASF158
 7031 095a 07       		.byte	0x7
 7032 095b 7702     		.2byte	0x277
 7033 095d FC080000 		.4byte	0x8fc
 7034 0961 00       		.byte	0
 7035 0962 0D       		.uleb128 0xd
 7036 0963 57020000 		.4byte	0x257
 7037 0967 72090000 		.4byte	0x972
 7038 096b 0E       		.uleb128 0xe
 7039 096c 72010000 		.4byte	0x172
 7040 0970 18       		.byte	0x18
 7041 0971 00       		.byte	0
 7042 0972 09       		.uleb128 0x9
 7043 0973 21050000 		.4byte	.LASF160
 7044 0977 08       		.uleb128 0x8
 7045 0978 04       		.byte	0x4
 7046 0979 72090000 		.4byte	0x972
 7047 097d 21       		.uleb128 0x21
 7048 097e 88090000 		.4byte	0x988
 7049 0982 19       		.uleb128 0x19
 7050 0983 6E050000 		.4byte	0x56e
 7051 0987 00       		.byte	0
 7052 0988 08       		.uleb128 0x8
 7053 0989 04       		.byte	0x4
 7054 098a 7D090000 		.4byte	0x97d
 7055 098e 08       		.uleb128 0x8
 7056 098f 04       		.byte	0x4
 7057 0990 C1020000 		.4byte	0x2c1
 7058 0994 21       		.uleb128 0x21
 7059 0995 9F090000 		.4byte	0x99f
 7060 0999 19       		.uleb128 0x19
 7061 099a 79010000 		.4byte	0x179
 7062 099e 00       		.byte	0
 7063 099f 08       		.uleb128 0x8
 7064 09a0 04       		.byte	0x4
 7065 09a1 A5090000 		.4byte	0x9a5
 7066 09a5 08       		.uleb128 0x8
 7067 09a6 04       		.byte	0x4
 7068 09a7 94090000 		.4byte	0x994
 7069 09ab 0D       		.uleb128 0xd
 7070 09ac 39070000 		.4byte	0x739
 7071 09b0 BB090000 		.4byte	0x9bb
 7072 09b4 0E       		.uleb128 0xe
ARM GAS  /var/folders/d2/nstgp4h54kz7g1l847x_b8wc0000gn/T//cccORz8f.s 			page 128


 7073 09b5 72010000 		.4byte	0x172
 7074 09b9 02       		.byte	0x2
 7075 09ba 00       		.byte	0
 7076 09bb 22       		.uleb128 0x22
 7077 09bc 6A040000 		.4byte	.LASF161
 7078 09c0 07       		.byte	0x7
 7079 09c1 0703     		.2byte	0x307
 7080 09c3 6E050000 		.4byte	0x56e
 7081 09c7 22       		.uleb128 0x22
 7082 09c8 BB0C0000 		.4byte	.LASF162
 7083 09cc 07       		.byte	0x7
 7084 09cd 0803     		.2byte	0x308
 7085 09cf 74050000 		.4byte	0x574
 7086 09d3 23       		.uleb128 0x23
 7087 09d4 E9050000 		.4byte	.LASF163
 7088 09d8 08       		.byte	0x8
 7089 09d9 63       		.byte	0x63
 7090 09da 51020000 		.4byte	0x251
 7091 09de 07       		.uleb128 0x7
 7092 09df F9060000 		.4byte	.LASF164
 7093 09e3 09       		.byte	0x9
 7094 09e4 21       		.byte	0x21
 7095 09e5 9C010000 		.4byte	0x19c
 7096 09e9 07       		.uleb128 0x7
 7097 09ea 230A0000 		.4byte	.LASF165
 7098 09ee 09       		.byte	0x9
 7099 09ef 22       		.byte	0x22
 7100 09f0 A3010000 		.4byte	0x1a3
 7101 09f4 07       		.uleb128 0x7
 7102 09f5 13050000 		.4byte	.LASF166
 7103 09f9 09       		.byte	0x9
 7104 09fa 23       		.byte	0x23
 7105 09fb 95010000 		.4byte	0x195
 7106 09ff 12       		.uleb128 0x12
 7107 0a00 F4090000 		.4byte	0x9f4
 7108 0a04 07       		.uleb128 0x7
 7109 0a05 E4070000 		.4byte	.LASF167
 7110 0a09 09       		.byte	0x9
 7111 0a0a 24       		.byte	0x24
 7112 0a0b 4C000000 		.4byte	0x4c
 7113 0a0f 03       		.uleb128 0x3
 7114 0a10 07       		.byte	0x7
 7115 0a11 01       		.byte	0x1
 7116 0a12 25000000 		.4byte	0x25
 7117 0a16 0A       		.byte	0xa
 7118 0a17 37       		.byte	0x37
 7119 0a18 230A0000 		.4byte	0xa23
 7120 0a1c 04       		.uleb128 0x4
 7121 0a1d BB030000 		.4byte	.LASF168
 7122 0a21 10       		.byte	0x10
 7123 0a22 00       		.byte	0
 7124 0a23 0F       		.uleb128 0xf
 7125 0a24 40       		.byte	0x40
 7126 0a25 0A       		.byte	0xa
 7127 0a26 45       		.byte	0x45
 7128 0a27 BA0A0000 		.4byte	0xaba
 7129 0a2b 10       		.uleb128 0x10
ARM GAS  /var/folders/d2/nstgp4h54kz7g1l847x_b8wc0000gn/T//cccORz8f.s 			page 129


 7130 0a2c 27030000 		.4byte	.LASF169
 7131 0a30 0A       		.byte	0xa
 7132 0a31 48       		.byte	0x48
 7133 0a32 040A0000 		.4byte	0xa04
 7134 0a36 00       		.byte	0
 7135 0a37 10       		.uleb128 0x10
 7136 0a38 C20A0000 		.4byte	.LASF170
 7137 0a3c 0A       		.byte	0xa
 7138 0a3d 4B       		.byte	0x4b
 7139 0a3e 040A0000 		.4byte	0xa04
 7140 0a42 02       		.byte	0x2
 7141 0a43 10       		.uleb128 0x10
 7142 0a44 35120000 		.4byte	.LASF171
 7143 0a48 0A       		.byte	0xa
 7144 0a49 4C       		.byte	0x4c
 7145 0a4a BA0A0000 		.4byte	0xaba
 7146 0a4e 04       		.byte	0x4
 7147 0a4f 10       		.uleb128 0x10
 7148 0a50 9E000000 		.4byte	.LASF172
 7149 0a54 0A       		.byte	0xa
 7150 0a55 4F       		.byte	0x4f
 7151 0a56 040A0000 		.4byte	0xa04
 7152 0a5a 08       		.byte	0x8
 7153 0a5b 10       		.uleb128 0x10
 7154 0a5c 610A0000 		.4byte	.LASF173
 7155 0a60 0A       		.byte	0xa
 7156 0a61 50       		.byte	0x50
 7157 0a62 C00A0000 		.4byte	0xac0
 7158 0a66 0C       		.byte	0xc
 7159 0a67 10       		.uleb128 0x10
 7160 0a68 DF090000 		.4byte	.LASF174
 7161 0a6c 0A       		.byte	0xa
 7162 0a6d 53       		.byte	0x53
 7163 0a6e 040A0000 		.4byte	0xa04
 7164 0a72 10       		.byte	0x10
 7165 0a73 10       		.uleb128 0x10
 7166 0a74 BB0D0000 		.4byte	.LASF175
 7167 0a78 0A       		.byte	0xa
 7168 0a79 54       		.byte	0x54
 7169 0a7a C00A0000 		.4byte	0xac0
 7170 0a7e 14       		.byte	0x14
 7171 0a7f 10       		.uleb128 0x10
 7172 0a80 98000000 		.4byte	.LASF176
 7173 0a84 0A       		.byte	0xa
 7174 0a85 57       		.byte	0x57
 7175 0a86 040A0000 		.4byte	0xa04
 7176 0a8a 18       		.byte	0x18
 7177 0a8b 14       		.uleb128 0x14
 7178 0a8c 706300   		.ascii	"pc\000"
 7179 0a8f 0A       		.byte	0xa
 7180 0a90 58       		.byte	0x58
 7181 0a91 040A0000 		.4byte	0xa04
 7182 0a95 1A       		.byte	0x1a
 7183 0a96 14       		.uleb128 0x14
 7184 0a97 737000   		.ascii	"sp\000"
 7185 0a9a 0A       		.byte	0xa
 7186 0a9b 59       		.byte	0x59
ARM GAS  /var/folders/d2/nstgp4h54kz7g1l847x_b8wc0000gn/T//cccORz8f.s 			page 130


 7187 0a9c F4090000 		.4byte	0x9f4
 7188 0aa0 1C       		.byte	0x1c
 7189 0aa1 10       		.uleb128 0x10
 7190 0aa2 4F0E0000 		.4byte	.LASF177
 7191 0aa6 0A       		.byte	0xa
 7192 0aa7 5C       		.byte	0x5c
 7193 0aa8 C60A0000 		.4byte	0xac6
 7194 0aac 1E       		.byte	0x1e
 7195 0aad 10       		.uleb128 0x10
 7196 0aae 2A010000 		.4byte	.LASF178
 7197 0ab2 0A       		.byte	0xa
 7198 0ab3 5D       		.byte	0x5d
 7199 0ab4 040A0000 		.4byte	0xa04
 7200 0ab8 3E       		.byte	0x3e
 7201 0ab9 00       		.byte	0
 7202 0aba 08       		.uleb128 0x8
 7203 0abb 04       		.byte	0x4
 7204 0abc 040A0000 		.4byte	0xa04
 7205 0ac0 08       		.uleb128 0x8
 7206 0ac1 04       		.byte	0x4
 7207 0ac2 F4090000 		.4byte	0x9f4
 7208 0ac6 0D       		.uleb128 0xd
 7209 0ac7 040A0000 		.4byte	0xa04
 7210 0acb D60A0000 		.4byte	0xad6
 7211 0acf 0E       		.uleb128 0xe
 7212 0ad0 72010000 		.4byte	0x172
 7213 0ad4 0F       		.byte	0xf
 7214 0ad5 00       		.byte	0
 7215 0ad6 07       		.uleb128 0x7
 7216 0ad7 13020000 		.4byte	.LASF179
 7217 0adb 0A       		.byte	0xa
 7218 0adc 5E       		.byte	0x5e
 7219 0add 230A0000 		.4byte	0xa23
 7220 0ae1 08       		.uleb128 0x8
 7221 0ae2 04       		.byte	0x4
 7222 0ae3 D60A0000 		.4byte	0xad6
 7223 0ae7 0F       		.uleb128 0xf
 7224 0ae8 08       		.byte	0x8
 7225 0ae9 02       		.byte	0x2
 7226 0aea 47       		.byte	0x47
 7227 0aeb 080B0000 		.4byte	0xb08
 7228 0aef 10       		.uleb128 0x10
 7229 0af0 E9090000 		.4byte	.LASF180
 7230 0af4 02       		.byte	0x2
 7231 0af5 49       		.byte	0x49
 7232 0af6 F4090000 		.4byte	0x9f4
 7233 0afa 00       		.byte	0
 7234 0afb 10       		.uleb128 0x10
 7235 0afc 00000000 		.4byte	.LASF181
 7236 0b00 02       		.byte	0x2
 7237 0b01 4A       		.byte	0x4a
 7238 0b02 CF060000 		.4byte	0x6cf
 7239 0b06 04       		.byte	0x4
 7240 0b07 00       		.byte	0
 7241 0b08 07       		.uleb128 0x7
 7242 0b09 150B0000 		.4byte	.LASF182
 7243 0b0d 02       		.byte	0x2
ARM GAS  /var/folders/d2/nstgp4h54kz7g1l847x_b8wc0000gn/T//cccORz8f.s 			page 131


 7244 0b0e 4B       		.byte	0x4b
 7245 0b0f E70A0000 		.4byte	0xae7
 7246 0b13 0F       		.uleb128 0xf
 7247 0b14 08       		.byte	0x8
 7248 0b15 02       		.byte	0x2
 7249 0b16 4E       		.byte	0x4e
 7250 0b17 400B0000 		.4byte	0xb40
 7251 0b1b 10       		.uleb128 0x10
 7252 0b1c 00000000 		.4byte	.LASF181
 7253 0b20 02       		.byte	0x2
 7254 0b21 50       		.byte	0x50
 7255 0b22 CF060000 		.4byte	0x6cf
 7256 0b26 00       		.byte	0
 7257 0b27 14       		.uleb128 0x14
 7258 0b28 646F6300 		.ascii	"doc\000"
 7259 0b2c 02       		.byte	0x2
 7260 0b2d 51       		.byte	0x51
 7261 0b2e CF060000 		.4byte	0x6cf
 7262 0b32 04       		.byte	0x4
 7263 0b33 10       		.uleb128 0x10
 7264 0b34 E70F0000 		.4byte	.LASF183
 7265 0b38 02       		.byte	0x2
 7266 0b39 52       		.byte	0x52
 7267 0b3a 400B0000 		.4byte	0xb40
 7268 0b3e 08       		.byte	0x8
 7269 0b3f 00       		.byte	0
 7270 0b40 0D       		.uleb128 0xd
 7271 0b41 080B0000 		.4byte	0xb08
 7272 0b45 4F0B0000 		.4byte	0xb4f
 7273 0b49 24       		.uleb128 0x24
 7274 0b4a 72010000 		.4byte	0x172
 7275 0b4e 00       		.byte	0
 7276 0b4f 07       		.uleb128 0x7
 7277 0b50 29000000 		.4byte	.LASF184
 7278 0b54 02       		.byte	0x2
 7279 0b55 53       		.byte	0x53
 7280 0b56 130B0000 		.4byte	0xb13
 7281 0b5a 12       		.uleb128 0x12
 7282 0b5b 4F0B0000 		.4byte	0xb4f
 7283 0b5f 23       		.uleb128 0x23
 7284 0b60 EF080000 		.4byte	.LASF185
 7285 0b64 02       		.byte	0x2
 7286 0b65 62       		.byte	0x62
 7287 0b66 5A0B0000 		.4byte	0xb5a
 7288 0b6a 23       		.uleb128 0x23
 7289 0b6b A9060000 		.4byte	.LASF186
 7290 0b6f 02       		.byte	0x2
 7291 0b70 67       		.byte	0x67
 7292 0b71 5A0B0000 		.4byte	0xb5a
 7293 0b75 23       		.uleb128 0x23
 7294 0b76 FF090000 		.4byte	.LASF187
 7295 0b7a 02       		.byte	0x2
 7296 0b7b 6C       		.byte	0x6c
 7297 0b7c 5A0B0000 		.4byte	0xb5a
 7298 0b80 23       		.uleb128 0x23
 7299 0b81 BC0F0000 		.4byte	.LASF188
 7300 0b85 02       		.byte	0x2
ARM GAS  /var/folders/d2/nstgp4h54kz7g1l847x_b8wc0000gn/T//cccORz8f.s 			page 132


 7301 0b86 71       		.byte	0x71
 7302 0b87 5A0B0000 		.4byte	0xb5a
 7303 0b8b 23       		.uleb128 0x23
 7304 0b8c 7A0B0000 		.4byte	.LASF189
 7305 0b90 02       		.byte	0x2
 7306 0b91 76       		.byte	0x76
 7307 0b92 5A0B0000 		.4byte	0xb5a
 7308 0b96 23       		.uleb128 0x23
 7309 0b97 ED0C0000 		.4byte	.LASF190
 7310 0b9b 02       		.byte	0x2
 7311 0b9c 7B       		.byte	0x7b
 7312 0b9d 5A0B0000 		.4byte	0xb5a
 7313 0ba1 23       		.uleb128 0x23
 7314 0ba2 8B060000 		.4byte	.LASF191
 7315 0ba6 02       		.byte	0x2
 7316 0ba7 80       		.byte	0x80
 7317 0ba8 5A0B0000 		.4byte	0xb5a
 7318 0bac 23       		.uleb128 0x23
 7319 0bad 6F110000 		.4byte	.LASF192
 7320 0bb1 02       		.byte	0x2
 7321 0bb2 85       		.byte	0x85
 7322 0bb3 5A0B0000 		.4byte	0xb5a
 7323 0bb7 23       		.uleb128 0x23
 7324 0bb8 63070000 		.4byte	.LASF193
 7325 0bbc 02       		.byte	0x2
 7326 0bbd 8A       		.byte	0x8a
 7327 0bbe 5A0B0000 		.4byte	0xb5a
 7328 0bc2 23       		.uleb128 0x23
 7329 0bc3 2C090000 		.4byte	.LASF194
 7330 0bc7 02       		.byte	0x2
 7331 0bc8 8F       		.byte	0x8f
 7332 0bc9 5A0B0000 		.4byte	0xb5a
 7333 0bcd 23       		.uleb128 0x23
 7334 0bce C10D0000 		.4byte	.LASF195
 7335 0bd2 02       		.byte	0x2
 7336 0bd3 94       		.byte	0x94
 7337 0bd4 5A0B0000 		.4byte	0xb5a
 7338 0bd8 23       		.uleb128 0x23
 7339 0bd9 CE0C0000 		.4byte	.LASF196
 7340 0bdd 02       		.byte	0x2
 7341 0bde 99       		.byte	0x99
 7342 0bdf 5A0B0000 		.4byte	0xb5a
 7343 0be3 23       		.uleb128 0x23
 7344 0be4 99050000 		.4byte	.LASF197
 7345 0be8 02       		.byte	0x2
 7346 0be9 9E       		.byte	0x9e
 7347 0bea 5A0B0000 		.4byte	0xb5a
 7348 0bee 23       		.uleb128 0x23
 7349 0bef 04100000 		.4byte	.LASF198
 7350 0bf3 02       		.byte	0x2
 7351 0bf4 A3       		.byte	0xa3
 7352 0bf5 5A0B0000 		.4byte	0xb5a
 7353 0bf9 23       		.uleb128 0x23
 7354 0bfa D7010000 		.4byte	.LASF199
 7355 0bfe 02       		.byte	0x2
 7356 0bff A8       		.byte	0xa8
 7357 0c00 5A0B0000 		.4byte	0xb5a
ARM GAS  /var/folders/d2/nstgp4h54kz7g1l847x_b8wc0000gn/T//cccORz8f.s 			page 133


 7358 0c04 23       		.uleb128 0x23
 7359 0c05 A10A0000 		.4byte	.LASF200
 7360 0c09 02       		.byte	0x2
 7361 0c0a AD       		.byte	0xad
 7362 0c0b 5A0B0000 		.4byte	0xb5a
 7363 0c0f 23       		.uleb128 0x23
 7364 0c10 2E030000 		.4byte	.LASF201
 7365 0c14 02       		.byte	0x2
 7366 0c15 B2       		.byte	0xb2
 7367 0c16 5A0B0000 		.4byte	0xb5a
 7368 0c1a 23       		.uleb128 0x23
 7369 0c1b 05040000 		.4byte	.LASF202
 7370 0c1f 02       		.byte	0x2
 7371 0c20 B7       		.byte	0xb7
 7372 0c21 5A0B0000 		.4byte	0xb5a
 7373 0c25 23       		.uleb128 0x23
 7374 0c26 680D0000 		.4byte	.LASF203
 7375 0c2a 02       		.byte	0x2
 7376 0c2b BC       		.byte	0xbc
 7377 0c2c 5A0B0000 		.4byte	0xb5a
 7378 0c30 23       		.uleb128 0x23
 7379 0c31 78000000 		.4byte	.LASF204
 7380 0c35 02       		.byte	0x2
 7381 0c36 C1       		.byte	0xc1
 7382 0c37 5A0B0000 		.4byte	0xb5a
 7383 0c3b 23       		.uleb128 0x23
 7384 0c3c A1080000 		.4byte	.LASF205
 7385 0c40 02       		.byte	0x2
 7386 0c41 C6       		.byte	0xc6
 7387 0c42 5A0B0000 		.4byte	0xb5a
 7388 0c46 23       		.uleb128 0x23
 7389 0c47 2C040000 		.4byte	.LASF206
 7390 0c4b 02       		.byte	0x2
 7391 0c4c CF       		.byte	0xcf
 7392 0c4d 5A0B0000 		.4byte	0xb5a
 7393 0c51 0D       		.uleb128 0xd
 7394 0c52 FF090000 		.4byte	0x9ff
 7395 0c56 610C0000 		.4byte	0xc61
 7396 0c5a 0E       		.uleb128 0xe
 7397 0c5b 72010000 		.4byte	0x172
 7398 0c5f A0       		.byte	0xa0
 7399 0c60 00       		.byte	0
 7400 0c61 12       		.uleb128 0x12
 7401 0c62 510C0000 		.4byte	0xc51
 7402 0c66 25       		.uleb128 0x25
 7403 0c67 500A0000 		.4byte	.LASF207
 7404 0c6b 01       		.byte	0x1
 7405 0c6c 33       		.byte	0x33
 7406 0c6d 610C0000 		.4byte	0xc61
 7407 0c71 05       		.uleb128 0x5
 7408 0c72 03       		.byte	0x3
 7409 0c73 00000000 		.4byte	aseba_atan_table
 7410 0c77 0D       		.uleb128 0xd
 7411 0c78 FF090000 		.4byte	0x9ff
 7412 0c7c 870C0000 		.4byte	0xc87
 7413 0c80 0E       		.uleb128 0xe
 7414 0c81 72010000 		.4byte	0x172
ARM GAS  /var/folders/d2/nstgp4h54kz7g1l847x_b8wc0000gn/T//cccORz8f.s 			page 134


 7415 0c85 80       		.byte	0x80
 7416 0c86 00       		.byte	0
 7417 0c87 12       		.uleb128 0x12
 7418 0c88 770C0000 		.4byte	0xc77
 7419 0c8c 25       		.uleb128 0x25
 7420 0c8d 23100000 		.4byte	.LASF208
 7421 0c91 01       		.byte	0x1
 7422 0c92 A8       		.byte	0xa8
 7423 0c93 870C0000 		.4byte	0xc87
 7424 0c97 05       		.uleb128 0x5
 7425 0c98 03       		.byte	0x3
 7426 0c99 00000000 		.4byte	aseba_sin_table
 7427 0c9d 26       		.uleb128 0x26
 7428 0c9e 5F0B0000 		.4byte	0xb5f
 7429 0ca2 01       		.byte	0x1
 7430 0ca3 3101     		.2byte	0x131
 7431 0ca5 05       		.uleb128 0x5
 7432 0ca6 03       		.byte	0x3
 7433 0ca7 00000000 		.4byte	AsebaNativeDescription_veccopy
 7434 0cab 26       		.uleb128 0x26
 7435 0cac 6A0B0000 		.4byte	0xb6a
 7436 0cb0 01       		.byte	0x1
 7437 0cb1 4E01     		.2byte	0x14e
 7438 0cb3 05       		.uleb128 0x5
 7439 0cb4 03       		.byte	0x3
 7440 0cb5 00000000 		.4byte	AsebaNativeDescription_vecfill
 7441 0cb9 26       		.uleb128 0x26
 7442 0cba 750B0000 		.4byte	0xb75
 7443 0cbe 01       		.byte	0x1
 7444 0cbf 6C01     		.2byte	0x16c
 7445 0cc1 05       		.uleb128 0x5
 7446 0cc2 03       		.byte	0x3
 7447 0cc3 00000000 		.4byte	AsebaNativeDescription_vecaddscalar
 7448 0cc7 26       		.uleb128 0x26
 7449 0cc8 800B0000 		.4byte	0xb80
 7450 0ccc 01       		.byte	0x1
 7451 0ccd 8A01     		.2byte	0x18a
 7452 0ccf 05       		.uleb128 0x5
 7453 0cd0 03       		.byte	0x3
 7454 0cd1 00000000 		.4byte	AsebaNativeDescription_vecadd
 7455 0cd5 26       		.uleb128 0x26
 7456 0cd6 8B0B0000 		.4byte	0xb8b
 7457 0cda 01       		.byte	0x1
 7458 0cdb A801     		.2byte	0x1a8
 7459 0cdd 05       		.uleb128 0x5
 7460 0cde 03       		.byte	0x3
 7461 0cdf 00000000 		.4byte	AsebaNativeDescription_vecsub
 7462 0ce3 26       		.uleb128 0x26
 7463 0ce4 960B0000 		.4byte	0xb96
 7464 0ce8 01       		.byte	0x1
 7465 0ce9 C601     		.2byte	0x1c6
 7466 0ceb 05       		.uleb128 0x5
 7467 0cec 03       		.byte	0x3
 7468 0ced 00000000 		.4byte	AsebaNativeDescription_vecmul
 7469 0cf1 26       		.uleb128 0x26
 7470 0cf2 A10B0000 		.4byte	0xba1
 7471 0cf6 01       		.byte	0x1
ARM GAS  /var/folders/d2/nstgp4h54kz7g1l847x_b8wc0000gn/T//cccORz8f.s 			page 135


 7472 0cf7 F001     		.2byte	0x1f0
 7473 0cf9 05       		.uleb128 0x5
 7474 0cfa 03       		.byte	0x3
 7475 0cfb 00000000 		.4byte	AsebaNativeDescription_vecdiv
 7476 0cff 26       		.uleb128 0x26
 7477 0d00 AC0B0000 		.4byte	0xbac
 7478 0d04 01       		.byte	0x1
 7479 0d05 1102     		.2byte	0x211
 7480 0d07 05       		.uleb128 0x5
 7481 0d08 03       		.byte	0x3
 7482 0d09 00000000 		.4byte	AsebaNativeDescription_vecmin
 7483 0d0d 26       		.uleb128 0x26
 7484 0d0e B70B0000 		.4byte	0xbb7
 7485 0d12 01       		.byte	0x1
 7486 0d13 3202     		.2byte	0x232
 7487 0d15 05       		.uleb128 0x5
 7488 0d16 03       		.byte	0x3
 7489 0d17 00000000 		.4byte	AsebaNativeDescription_vecmax
 7490 0d1b 26       		.uleb128 0x26
 7491 0d1c C20B0000 		.4byte	0xbc2
 7492 0d20 01       		.byte	0x1
 7493 0d21 5402     		.2byte	0x254
 7494 0d23 05       		.uleb128 0x5
 7495 0d24 03       		.byte	0x3
 7496 0d25 00000000 		.4byte	AsebaNativeDescription_vecclamp
 7497 0d29 26       		.uleb128 0x26
 7498 0d2a CD0B0000 		.4byte	0xbcd
 7499 0d2e 01       		.byte	0x1
 7500 0d2f 9F02     		.2byte	0x29f
 7501 0d31 05       		.uleb128 0x5
 7502 0d32 03       		.byte	0x3
 7503 0d33 00000000 		.4byte	AsebaNativeDescription_vecdot
 7504 0d37 26       		.uleb128 0x26
 7505 0d38 D80B0000 		.4byte	0xbd8
 7506 0d3c 01       		.byte	0x1
 7507 0d3d D002     		.2byte	0x2d0
 7508 0d3f 05       		.uleb128 0x5
 7509 0d40 03       		.byte	0x3
 7510 0d41 00000000 		.4byte	AsebaNativeDescription_vecstat
 7511 0d45 26       		.uleb128 0x26
 7512 0d46 E30B0000 		.4byte	0xbe3
 7513 0d4a 01       		.byte	0x1
 7514 0d4b FF02     		.2byte	0x2ff
 7515 0d4d 05       		.uleb128 0x5
 7516 0d4e 03       		.byte	0x3
 7517 0d4f 00000000 		.4byte	AsebaNativeDescription_vecargbounds
 7518 0d53 26       		.uleb128 0x26
 7519 0d54 EE0B0000 		.4byte	0xbee
 7520 0d58 01       		.byte	0x1
 7521 0d59 1703     		.2byte	0x317
 7522 0d5b 05       		.uleb128 0x5
 7523 0d5c 03       		.byte	0x3
 7524 0d5d 00000000 		.4byte	AsebaNativeDescription_vecsort
 7525 0d61 26       		.uleb128 0x26
 7526 0d62 F90B0000 		.4byte	0xbf9
 7527 0d66 01       		.byte	0x1
 7528 0d67 4003     		.2byte	0x340
ARM GAS  /var/folders/d2/nstgp4h54kz7g1l847x_b8wc0000gn/T//cccORz8f.s 			page 136


 7529 0d69 05       		.uleb128 0x5
 7530 0d6a 03       		.byte	0x3
 7531 0d6b 00000000 		.4byte	AsebaNativeDescription_mathmuldiv
 7532 0d6f 26       		.uleb128 0x26
 7533 0d70 040C0000 		.4byte	0xc04
 7534 0d74 01       		.byte	0x1
 7535 0d75 6003     		.2byte	0x360
 7536 0d77 05       		.uleb128 0x5
 7537 0d78 03       		.byte	0x3
 7538 0d79 00000000 		.4byte	AsebaNativeDescription_mathatan2
 7539 0d7d 26       		.uleb128 0x26
 7540 0d7e 0F0C0000 		.4byte	0xc0f
 7541 0d82 01       		.byte	0x1
 7542 0d83 7D03     		.2byte	0x37d
 7543 0d85 05       		.uleb128 0x5
 7544 0d86 03       		.byte	0x3
 7545 0d87 00000000 		.4byte	AsebaNativeDescription_mathsin
 7546 0d8b 26       		.uleb128 0x26
 7547 0d8c 1A0C0000 		.4byte	0xc1a
 7548 0d90 01       		.byte	0x1
 7549 0d91 9903     		.2byte	0x399
 7550 0d93 05       		.uleb128 0x5
 7551 0d94 03       		.byte	0x3
 7552 0d95 00000000 		.4byte	AsebaNativeDescription_mathcos
 7553 0d99 26       		.uleb128 0x26
 7554 0d9a 250C0000 		.4byte	0xc25
 7555 0d9e 01       		.byte	0x1
 7556 0d9f BA03     		.2byte	0x3ba
 7557 0da1 05       		.uleb128 0x5
 7558 0da2 03       		.byte	0x3
 7559 0da3 00000000 		.4byte	AsebaNativeDescription_mathrot2
 7560 0da7 26       		.uleb128 0x26
 7561 0da8 300C0000 		.4byte	0xc30
 7562 0dac 01       		.byte	0x1
 7563 0dad D703     		.2byte	0x3d7
 7564 0daf 05       		.uleb128 0x5
 7565 0db0 03       		.byte	0x3
 7566 0db1 00000000 		.4byte	AsebaNativeDescription_mathsqrt
 7567 0db5 26       		.uleb128 0x26
 7568 0db6 3B0C0000 		.4byte	0xc3b
 7569 0dba 01       		.byte	0x1
 7570 0dbb 4304     		.2byte	0x443
 7571 0dbd 05       		.uleb128 0x5
 7572 0dbe 03       		.byte	0x3
 7573 0dbf 00000000 		.4byte	AsebaNativeDescription_vecnonzerosequence
 7574 0dc3 27       		.uleb128 0x27
 7575 0dc4 B2110000 		.4byte	.LASF209
 7576 0dc8 01       		.byte	0x1
 7577 0dc9 4F04     		.2byte	0x44f
 7578 0dcb 040A0000 		.4byte	0xa04
 7579 0dcf 05       		.uleb128 0x5
 7580 0dd0 03       		.byte	0x3
 7581 0dd1 00000000 		.4byte	rnd_state
 7582 0dd5 26       		.uleb128 0x26
 7583 0dd6 460C0000 		.4byte	0xc46
 7584 0dda 01       		.byte	0x1
 7585 0ddb 6B04     		.2byte	0x46b
ARM GAS  /var/folders/d2/nstgp4h54kz7g1l847x_b8wc0000gn/T//cccORz8f.s 			page 137


 7586 0ddd 05       		.uleb128 0x5
 7587 0dde 03       		.byte	0x3
 7588 0ddf 00000000 		.4byte	AsebaNativeDescription_rand
 7589 0de3 28       		.uleb128 0x28
 7590 0de4 EE090000 		.4byte	.LASF212
 7591 0de8 01       		.byte	0x1
 7592 0de9 5C04     		.2byte	0x45c
 7593 0deb 00000000 		.4byte	.LFB29
 7594 0def 78000000 		.4byte	.LFE29-.LFB29
 7595 0df3 01       		.uleb128 0x1
 7596 0df4 9C       		.byte	0x9c
 7597 0df5 9E0E0000 		.4byte	0xe9e
 7598 0df9 29       		.uleb128 0x29
 7599 0dfa 766D00   		.ascii	"vm\000"
 7600 0dfd 01       		.byte	0x1
 7601 0dfe 5C04     		.2byte	0x45c
 7602 0e00 E10A0000 		.4byte	0xae1
 7603 0e04 00000000 		.4byte	.LLST318
 7604 0e08 2A       		.uleb128 0x2a
 7605 0e09 F1030000 		.4byte	.LASF210
 7606 0e0d 01       		.byte	0x1
 7607 0e0e 5F04     		.2byte	0x45f
 7608 0e10 040A0000 		.4byte	0xa04
 7609 0e14 21000000 		.4byte	.LLST319
 7610 0e18 2A       		.uleb128 0x2a
 7611 0e19 300C0000 		.4byte	.LASF211
 7612 0e1d 01       		.byte	0x1
 7613 0e1e 6204     		.2byte	0x462
 7614 0e20 040A0000 		.4byte	0xa04
 7615 0e24 3F000000 		.4byte	.LLST320
 7616 0e28 2B       		.uleb128 0x2b
 7617 0e29 6900     		.ascii	"i\000"
 7618 0e2b 01       		.byte	0x1
 7619 0e2c 6404     		.2byte	0x464
 7620 0e2e 040A0000 		.4byte	0xa04
 7621 0e32 68000000 		.4byte	.LLST321
 7622 0e36 2C       		.uleb128 0x2c
 7623 0e37 AA2A0000 		.4byte	0x2aaa
 7624 0e3b 00000000 		.4byte	.LBB729
 7625 0e3f F80B0000 		.4byte	.Ldebug_ranges0+0xbf8
 7626 0e43 01       		.byte	0x1
 7627 0e44 5F04     		.2byte	0x45f
 7628 0e46 5D0E0000 		.4byte	0xe5d
 7629 0e4a 2D       		.uleb128 0x2d
 7630 0e4b BA2A0000 		.4byte	0x2aba
 7631 0e4f 7C000000 		.4byte	.LLST322
 7632 0e53 2D       		.uleb128 0x2d
 7633 0e54 BA2A0000 		.4byte	0x2aba
 7634 0e58 9D000000 		.4byte	.LLST323
 7635 0e5c 00       		.byte	0
 7636 0e5d 2C       		.uleb128 0x2c
 7637 0e5e AA2A0000 		.4byte	0x2aaa
 7638 0e62 10000000 		.4byte	.LBB733
 7639 0e66 100C0000 		.4byte	.Ldebug_ranges0+0xc10
 7640 0e6a 01       		.byte	0x1
 7641 0e6b 6204     		.2byte	0x462
 7642 0e6d 840E0000 		.4byte	0xe84
ARM GAS  /var/folders/d2/nstgp4h54kz7g1l847x_b8wc0000gn/T//cccORz8f.s 			page 138


 7643 0e71 2D       		.uleb128 0x2d
 7644 0e72 BA2A0000 		.4byte	0x2aba
 7645 0e76 BE000000 		.4byte	.LLST324
 7646 0e7a 2D       		.uleb128 0x2d
 7647 0e7b BA2A0000 		.4byte	0x2aba
 7648 0e7f DF000000 		.4byte	.LLST325
 7649 0e83 00       		.byte	0
 7650 0e84 2E       		.uleb128 0x2e
 7651 0e85 9E0E0000 		.4byte	0xe9e
 7652 0e89 2E000000 		.4byte	.LBB737
 7653 0e8d 280C0000 		.4byte	.Ldebug_ranges0+0xc28
 7654 0e91 01       		.byte	0x1
 7655 0e92 6704     		.2byte	0x467
 7656 0e94 2F       		.uleb128 0x2f
 7657 0e95 6E000000 		.4byte	.LVL467
 7658 0e99 552C0000 		.4byte	0x2c55
 7659 0e9d 00       		.byte	0
 7660 0e9e 30       		.uleb128 0x30
 7661 0e9f 92080000 		.4byte	.LASF288
 7662 0ea3 01       		.byte	0x1
 7663 0ea4 5604     		.2byte	0x456
 7664 0ea6 040A0000 		.4byte	0xa04
 7665 0eaa 01       		.byte	0x1
 7666 0eab 28       		.uleb128 0x28
 7667 0eac 710C0000 		.4byte	.LASF213
 7668 0eb0 01       		.byte	0x1
 7669 0eb1 5104     		.2byte	0x451
 7670 0eb3 00000000 		.4byte	.LFB27
 7671 0eb7 28000000 		.4byte	.LFE27-.LFB27
 7672 0ebb 01       		.uleb128 0x1
 7673 0ebc 9C       		.byte	0x9c
 7674 0ebd DB0E0000 		.4byte	0xedb
 7675 0ec1 31       		.uleb128 0x31
 7676 0ec2 AF040000 		.4byte	.LASF214
 7677 0ec6 01       		.byte	0x1
 7678 0ec7 5104     		.2byte	0x451
 7679 0ec9 040A0000 		.4byte	0xa04
 7680 0ecd 00010000 		.4byte	.LLST317
 7681 0ed1 2F       		.uleb128 0x2f
 7682 0ed2 20000000 		.4byte	.LVL457
 7683 0ed6 552C0000 		.4byte	0x2c55
 7684 0eda 00       		.byte	0
 7685 0edb 28       		.uleb128 0x28
 7686 0edc 11060000 		.4byte	.LASF215
 7687 0ee0 01       		.byte	0x1
 7688 0ee1 E203     		.2byte	0x3e2
 7689 0ee3 00000000 		.4byte	.LFB26
 7690 0ee7 54010000 		.4byte	.LFE26-.LFB26
 7691 0eeb 01       		.uleb128 0x1
 7692 0eec 9C       		.byte	0x9c
 7693 0eed 8A100000 		.4byte	0x108a
 7694 0ef1 29       		.uleb128 0x29
 7695 0ef2 766D00   		.ascii	"vm\000"
 7696 0ef5 01       		.byte	0x1
 7697 0ef6 E203     		.2byte	0x3e2
 7698 0ef8 E10A0000 		.4byte	0xae1
 7699 0efc 21010000 		.4byte	.LLST297
ARM GAS  /var/folders/d2/nstgp4h54kz7g1l847x_b8wc0000gn/T//cccORz8f.s 			page 139


 7700 0f00 2A       		.uleb128 0x2a
 7701 0f01 CC120000 		.4byte	.LASF216
 7702 0f05 01       		.byte	0x1
 7703 0f06 E503     		.2byte	0x3e5
 7704 0f08 040A0000 		.4byte	0xa04
 7705 0f0c 42010000 		.4byte	.LLST298
 7706 0f10 32       		.uleb128 0x32
 7707 0f11 73726300 		.ascii	"src\000"
 7708 0f15 01       		.byte	0x1
 7709 0f16 E603     		.2byte	0x3e6
 7710 0f18 040A0000 		.4byte	0xa04
 7711 0f1c 01       		.uleb128 0x1
 7712 0f1d 55       		.byte	0x55
 7713 0f1e 2A       		.uleb128 0x2a
 7714 0f1f 300C0000 		.4byte	.LASF211
 7715 0f23 01       		.byte	0x1
 7716 0f24 E703     		.2byte	0x3e7
 7717 0f26 040A0000 		.4byte	0xa04
 7718 0f2a 55010000 		.4byte	.LLST299
 7719 0f2e 2A       		.uleb128 0x2a
 7720 0f2f 99100000 		.4byte	.LASF217
 7721 0f33 01       		.byte	0x1
 7722 0f34 EA03     		.2byte	0x3ea
 7723 0f36 040A0000 		.4byte	0xa04
 7724 0f3a 73010000 		.4byte	.LLST300
 7725 0f3e 2A       		.uleb128 0x2a
 7726 0f3f 790A0000 		.4byte	.LASF218
 7727 0f43 01       		.byte	0x1
 7728 0f44 EB03     		.2byte	0x3eb
 7729 0f46 F4090000 		.4byte	0x9f4
 7730 0f4a A7010000 		.4byte	.LLST301
 7731 0f4e 33       		.uleb128 0x33
 7732 0f4f 7C030000 		.4byte	.LASF231
 7733 0f53 01       		.byte	0x1
 7734 0f54 EE03     		.2byte	0x3ee
 7735 0f56 040A0000 		.4byte	0xa04
 7736 0f5a 2A       		.uleb128 0x2a
 7737 0f5b 74010000 		.4byte	.LASF219
 7738 0f5f 01       		.byte	0x1
 7739 0f60 EF03     		.2byte	0x3ef
 7740 0f62 F4090000 		.4byte	0x9f4
 7741 0f66 D9010000 		.4byte	.LLST302
 7742 0f6a 2A       		.uleb128 0x2a
 7743 0f6b 82060000 		.4byte	.LASF220
 7744 0f6f 01       		.byte	0x1
 7745 0f70 F003     		.2byte	0x3f0
 7746 0f72 F4090000 		.4byte	0x9f4
 7747 0f76 23020000 		.4byte	.LLST303
 7748 0f7a 2A       		.uleb128 0x2a
 7749 0f7b 6F020000 		.4byte	.LASF221
 7750 0f7f 01       		.byte	0x1
 7751 0f80 F103     		.2byte	0x3f1
 7752 0f82 F4090000 		.4byte	0x9f4
 7753 0f86 4C020000 		.4byte	.LLST304
 7754 0f8a 2A       		.uleb128 0x2a
 7755 0f8b 91040000 		.4byte	.LASF222
 7756 0f8f 01       		.byte	0x1
ARM GAS  /var/folders/d2/nstgp4h54kz7g1l847x_b8wc0000gn/T//cccORz8f.s 			page 140


 7757 0f90 F203     		.2byte	0x3f2
 7758 0f92 F4090000 		.4byte	0x9f4
 7759 0f96 75020000 		.4byte	.LLST305
 7760 0f9a 2A       		.uleb128 0x2a
 7761 0f9b 89090000 		.4byte	.LASF223
 7762 0f9f 01       		.byte	0x1
 7763 0fa0 F303     		.2byte	0x3f3
 7764 0fa2 F4090000 		.4byte	0x9f4
 7765 0fa6 88020000 		.4byte	.LLST306
 7766 0faa 2A       		.uleb128 0x2a
 7767 0fab 75090000 		.4byte	.LASF224
 7768 0faf 01       		.byte	0x1
 7769 0fb0 F603     		.2byte	0x3f6
 7770 0fb2 040A0000 		.4byte	0xa04
 7771 0fb6 B1020000 		.4byte	.LLST307
 7772 0fba 34       		.uleb128 0x34
 7773 0fbb 150D0000 		.4byte	.LASF289
 7774 0fbf 01       		.byte	0x1
 7775 0fc0 3704     		.2byte	0x437
 7776 0fc2 04010000 		.4byte	.L368
 7777 0fc6 35       		.uleb128 0x35
 7778 0fc7 34010000 		.4byte	.LBB728
 7779 0fcb 16000000 		.4byte	.LBE728-.LBB728
 7780 0fcf E40F0000 		.4byte	0xfe4
 7781 0fd3 2A       		.uleb128 0x2a
 7782 0fd4 89090000 		.4byte	.LASF223
 7783 0fd8 01       		.byte	0x1
 7784 0fd9 0C04     		.2byte	0x40c
 7785 0fdb 040A0000 		.4byte	0xa04
 7786 0fdf 21030000 		.4byte	.LLST316
 7787 0fe3 00       		.byte	0
 7788 0fe4 2C       		.uleb128 0x2c
 7789 0fe5 AA2A0000 		.4byte	0x2aaa
 7790 0fe9 06000000 		.4byte	.LBB704
 7791 0fed 780B0000 		.4byte	.Ldebug_ranges0+0xb78
 7792 0ff1 01       		.byte	0x1
 7793 0ff2 E503     		.2byte	0x3e5
 7794 0ff4 0B100000 		.4byte	0x100b
 7795 0ff8 2D       		.uleb128 0x2d
 7796 0ff9 BA2A0000 		.4byte	0x2aba
 7797 0ffd 43030000 		.4byte	.LLST308
 7798 1001 2D       		.uleb128 0x2d
 7799 1002 BA2A0000 		.4byte	0x2aba
 7800 1006 64030000 		.4byte	.LLST309
 7801 100a 00       		.byte	0
 7802 100b 2C       		.uleb128 0x2c
 7803 100c AA2A0000 		.4byte	0x2aaa
 7804 1010 18000000 		.4byte	.LBB709
 7805 1014 980B0000 		.4byte	.Ldebug_ranges0+0xb98
 7806 1018 01       		.byte	0x1
 7807 1019 E603     		.2byte	0x3e6
 7808 101b 32100000 		.4byte	0x1032
 7809 101f 2D       		.uleb128 0x2d
 7810 1020 BA2A0000 		.4byte	0x2aba
 7811 1024 85030000 		.4byte	.LLST310
 7812 1028 2D       		.uleb128 0x2d
 7813 1029 BA2A0000 		.4byte	0x2aba
ARM GAS  /var/folders/d2/nstgp4h54kz7g1l847x_b8wc0000gn/T//cccORz8f.s 			page 141


 7814 102d A6030000 		.4byte	.LLST311
 7815 1031 00       		.byte	0
 7816 1032 2C       		.uleb128 0x2c
 7817 1033 AA2A0000 		.4byte	0x2aaa
 7818 1037 1E000000 		.4byte	.LBB715
 7819 103b B80B0000 		.4byte	.Ldebug_ranges0+0xbb8
 7820 103f 01       		.byte	0x1
 7821 1040 E703     		.2byte	0x3e7
 7822 1042 59100000 		.4byte	0x1059
 7823 1046 2D       		.uleb128 0x2d
 7824 1047 BA2A0000 		.4byte	0x2aba
 7825 104b C7030000 		.4byte	.LLST312
 7826 104f 2D       		.uleb128 0x2d
 7827 1050 BA2A0000 		.4byte	0x2aba
 7828 1054 E8030000 		.4byte	.LLST313
 7829 1058 00       		.byte	0
 7830 1059 2C       		.uleb128 0x2c
 7831 105a AA2A0000 		.4byte	0x2aaa
 7832 105e 2E000000 		.4byte	.LBB723
 7833 1062 E00B0000 		.4byte	.Ldebug_ranges0+0xbe0
 7834 1066 01       		.byte	0x1
 7835 1067 EA03     		.2byte	0x3ea
 7836 1069 80100000 		.4byte	0x1080
 7837 106d 2D       		.uleb128 0x2d
 7838 106e BA2A0000 		.4byte	0x2aba
 7839 1072 09040000 		.4byte	.LLST314
 7840 1076 2D       		.uleb128 0x2d
 7841 1077 BA2A0000 		.4byte	0x2aba
 7842 107b 2A040000 		.4byte	.LLST315
 7843 107f 00       		.byte	0
 7844 1080 2F       		.uleb128 0x2f
 7845 1081 4E010000 		.4byte	.LVL455
 7846 1085 552C0000 		.4byte	0x2c55
 7847 1089 00       		.byte	0
 7848 108a 28       		.uleb128 0x28
 7849 108b 6D060000 		.4byte	.LASF225
 7850 108f 01       		.byte	0x1
 7851 1090 C603     		.2byte	0x3c6
 7852 1092 00000000 		.4byte	.LFB25
 7853 1096 B8000000 		.4byte	.LFE25-.LFB25
 7854 109a 01       		.uleb128 0x1
 7855 109b 9C       		.byte	0x9c
 7856 109c B3110000 		.4byte	0x11b3
 7857 10a0 29       		.uleb128 0x29
 7858 10a1 766D00   		.ascii	"vm\000"
 7859 10a4 01       		.byte	0x1
 7860 10a5 C603     		.2byte	0x3c6
 7861 10a7 E10A0000 		.4byte	0xae1
 7862 10ab 4B040000 		.4byte	.LLST284
 7863 10af 2A       		.uleb128 0x2a
 7864 10b0 F1030000 		.4byte	.LASF210
 7865 10b4 01       		.byte	0x1
 7866 10b5 C903     		.2byte	0x3c9
 7867 10b7 040A0000 		.4byte	0xa04
 7868 10bb 6C040000 		.4byte	.LLST285
 7869 10bf 2A       		.uleb128 0x2a
 7870 10c0 82090000 		.4byte	.LASF226
ARM GAS  /var/folders/d2/nstgp4h54kz7g1l847x_b8wc0000gn/T//cccORz8f.s 			page 142


 7871 10c4 01       		.byte	0x1
 7872 10c5 CA03     		.2byte	0x3ca
 7873 10c7 F4090000 		.4byte	0x9f4
 7874 10cb AB040000 		.4byte	.LLST286
 7875 10cf 2A       		.uleb128 0x2a
 7876 10d0 300C0000 		.4byte	.LASF211
 7877 10d4 01       		.byte	0x1
 7878 10d5 CD03     		.2byte	0x3cd
 7879 10d7 040A0000 		.4byte	0xa04
 7880 10db BE040000 		.4byte	.LLST287
 7881 10df 2B       		.uleb128 0x2b
 7882 10e0 6900     		.ascii	"i\000"
 7883 10e2 01       		.byte	0x1
 7884 10e3 CF03     		.2byte	0x3cf
 7885 10e5 040A0000 		.4byte	0xa04
 7886 10e9 D1040000 		.4byte	.LLST288
 7887 10ed 36       		.uleb128 0x36
 7888 10ee 300B0000 		.4byte	.Ldebug_ranges0+0xb30
 7889 10f2 34110000 		.4byte	0x1134
 7890 10f6 2B       		.uleb128 0x2b
 7891 10f7 7800     		.ascii	"x\000"
 7892 10f9 01       		.byte	0x1
 7893 10fa D203     		.2byte	0x3d2
 7894 10fc F4090000 		.4byte	0x9f4
 7895 1100 E5040000 		.4byte	.LLST295
 7896 1104 37       		.uleb128 0x37
 7897 1105 1E290000 		.4byte	0x291e
 7898 1109 50000000 		.4byte	.LBB695
 7899 110d 580B0000 		.4byte	.Ldebug_ranges0+0xb58
 7900 1111 01       		.byte	0x1
 7901 1112 D303     		.2byte	0x3d3
 7902 1114 2D       		.uleb128 0x2d
 7903 1115 2E290000 		.4byte	0x292e
 7904 1119 03050000 		.4byte	.LLST296
 7905 111d 38       		.uleb128 0x38
 7906 111e 580B0000 		.4byte	.Ldebug_ranges0+0xb58
 7907 1122 39       		.uleb128 0x39
 7908 1123 132C0000 		.4byte	0x2c13
 7909 1127 39       		.uleb128 0x39
 7910 1128 1C2C0000 		.4byte	0x2c1c
 7911 112c 39       		.uleb128 0x39
 7912 112d 252C0000 		.4byte	0x2c25
 7913 1131 00       		.byte	0
 7914 1132 00       		.byte	0
 7915 1133 00       		.byte	0
 7916 1134 2C       		.uleb128 0x2c
 7917 1135 AA2A0000 		.4byte	0x2aaa
 7918 1139 00000000 		.4byte	.LBB674
 7919 113d C80A0000 		.4byte	.Ldebug_ranges0+0xac8
 7920 1141 01       		.byte	0x1
 7921 1142 C903     		.2byte	0x3c9
 7922 1144 5B110000 		.4byte	0x115b
 7923 1148 2D       		.uleb128 0x2d
 7924 1149 BA2A0000 		.4byte	0x2aba
 7925 114d 21050000 		.4byte	.LLST289
 7926 1151 2D       		.uleb128 0x2d
 7927 1152 BA2A0000 		.4byte	0x2aba
ARM GAS  /var/folders/d2/nstgp4h54kz7g1l847x_b8wc0000gn/T//cccORz8f.s 			page 143


 7928 1156 42050000 		.4byte	.LLST290
 7929 115a 00       		.byte	0
 7930 115b 2C       		.uleb128 0x2c
 7931 115c AA2A0000 		.4byte	0x2aaa
 7932 1160 14000000 		.4byte	.LBB681
 7933 1164 F00A0000 		.4byte	.Ldebug_ranges0+0xaf0
 7934 1168 01       		.byte	0x1
 7935 1169 CA03     		.2byte	0x3ca
 7936 116b 82110000 		.4byte	0x1182
 7937 116f 2D       		.uleb128 0x2d
 7938 1170 BA2A0000 		.4byte	0x2aba
 7939 1174 63050000 		.4byte	.LLST291
 7940 1178 2D       		.uleb128 0x2d
 7941 1179 BA2A0000 		.4byte	0x2aba
 7942 117d 84050000 		.4byte	.LLST292
 7943 1181 00       		.byte	0
 7944 1182 2C       		.uleb128 0x2c
 7945 1183 AA2A0000 		.4byte	0x2aaa
 7946 1187 20000000 		.4byte	.LBB689
 7947 118b 180B0000 		.4byte	.Ldebug_ranges0+0xb18
 7948 118f 01       		.byte	0x1
 7949 1190 CD03     		.2byte	0x3cd
 7950 1192 A9110000 		.4byte	0x11a9
 7951 1196 2D       		.uleb128 0x2d
 7952 1197 BA2A0000 		.4byte	0x2aba
 7953 119b A5050000 		.4byte	.LLST293
 7954 119f 2D       		.uleb128 0x2d
 7955 11a0 BA2A0000 		.4byte	0x2aba
 7956 11a4 C6050000 		.4byte	.LLST294
 7957 11a8 00       		.byte	0
 7958 11a9 2F       		.uleb128 0x2f
 7959 11aa B4000000 		.4byte	.LVL413
 7960 11ae 552C0000 		.4byte	0x2c55
 7961 11b2 00       		.byte	0
 7962 11b3 28       		.uleb128 0x28
 7963 11b4 B1000000 		.4byte	.LASF227
 7964 11b8 01       		.byte	0x1
 7965 11b9 A403     		.2byte	0x3a4
 7966 11bb 00000000 		.4byte	.LFB24
 7967 11bf 90000000 		.4byte	.LFE24-.LFB24
 7968 11c3 01       		.uleb128 0x1
 7969 11c4 9C       		.byte	0x9c
 7970 11c5 21130000 		.4byte	0x1321
 7971 11c9 29       		.uleb128 0x29
 7972 11ca 766D00   		.ascii	"vm\000"
 7973 11cd 01       		.byte	0x1
 7974 11ce A403     		.2byte	0x3a4
 7975 11d0 E10A0000 		.4byte	0xae1
 7976 11d4 E7050000 		.4byte	.LLST274
 7977 11d8 2A       		.uleb128 0x2a
 7978 11d9 48080000 		.4byte	.LASF228
 7979 11dd 01       		.byte	0x1
 7980 11de A703     		.2byte	0x3a7
 7981 11e0 040A0000 		.4byte	0xa04
 7982 11e4 05060000 		.4byte	.LLST275
 7983 11e8 2A       		.uleb128 0x2a
 7984 11e9 75100000 		.4byte	.LASF229
ARM GAS  /var/folders/d2/nstgp4h54kz7g1l847x_b8wc0000gn/T//cccORz8f.s 			page 144


 7985 11ed 01       		.byte	0x1
 7986 11ee A803     		.2byte	0x3a8
 7987 11f0 040A0000 		.4byte	0xa04
 7988 11f4 18060000 		.4byte	.LLST276
 7989 11f8 2A       		.uleb128 0x2a
 7990 11f9 1F010000 		.4byte	.LASF230
 7991 11fd 01       		.byte	0x1
 7992 11fe A903     		.2byte	0x3a9
 7993 1200 040A0000 		.4byte	0xa04
 7994 1204 2B060000 		.4byte	.LLST277
 7995 1208 2B       		.uleb128 0x2b
 7996 1209 7800     		.ascii	"x\000"
 7997 120b 01       		.byte	0x1
 7998 120c AC03     		.2byte	0x3ac
 7999 120e F4090000 		.4byte	0x9f4
 8000 1212 5E060000 		.4byte	.LLST278
 8001 1216 2B       		.uleb128 0x2b
 8002 1217 7900     		.ascii	"y\000"
 8003 1219 01       		.byte	0x1
 8004 121a AD03     		.2byte	0x3ad
 8005 121c F4090000 		.4byte	0x9f4
 8006 1220 71060000 		.4byte	.LLST279
 8007 1224 32       		.uleb128 0x32
 8008 1225 6100     		.ascii	"a\000"
 8009 1227 01       		.byte	0x1
 8010 1228 AE03     		.2byte	0x3ae
 8011 122a F4090000 		.4byte	0x9f4
 8012 122e 01       		.uleb128 0x1
 8013 122f 5B       		.byte	0x5b
 8014 1230 33       		.uleb128 0x33
 8015 1231 A6070000 		.4byte	.LASF232
 8016 1235 01       		.byte	0x1
 8017 1236 B003     		.2byte	0x3b0
 8018 1238 F4090000 		.4byte	0x9f4
 8019 123c 2A       		.uleb128 0x2a
 8020 123d 6C050000 		.4byte	.LASF233
 8021 1241 01       		.byte	0x1
 8022 1242 B103     		.2byte	0x3b1
 8023 1244 F4090000 		.4byte	0x9f4
 8024 1248 84060000 		.4byte	.LLST280
 8025 124c 2B       		.uleb128 0x2b
 8026 124d 787000   		.ascii	"xp\000"
 8027 1250 01       		.byte	0x1
 8028 1251 B303     		.2byte	0x3b3
 8029 1253 F4090000 		.4byte	0x9f4
 8030 1257 97060000 		.4byte	.LLST281
 8031 125b 2B       		.uleb128 0x2b
 8032 125c 797000   		.ascii	"yp\000"
 8033 125f 01       		.byte	0x1
 8034 1260 B403     		.2byte	0x3b4
 8035 1262 F4090000 		.4byte	0x9f4
 8036 1266 C7060000 		.4byte	.LLST282
 8037 126a 2C       		.uleb128 0x2c
 8038 126b AA2A0000 		.4byte	0x2aaa
 8039 126f 06000000 		.4byte	.LBB652
 8040 1273 500A0000 		.4byte	.Ldebug_ranges0+0xa50
 8041 1277 01       		.byte	0x1
ARM GAS  /var/folders/d2/nstgp4h54kz7g1l847x_b8wc0000gn/T//cccORz8f.s 			page 145


 8042 1278 A703     		.2byte	0x3a7
 8043 127a 8D120000 		.4byte	0x128d
 8044 127e 3A       		.uleb128 0x3a
 8045 127f BA2A0000 		.4byte	0x2aba
 8046 1283 01       		.uleb128 0x1
 8047 1284 54       		.byte	0x54
 8048 1285 3A       		.uleb128 0x3a
 8049 1286 BA2A0000 		.4byte	0x2aba
 8050 128a 01       		.uleb128 0x1
 8051 128b 54       		.byte	0x54
 8052 128c 00       		.byte	0
 8053 128d 2C       		.uleb128 0x2c
 8054 128e AA2A0000 		.4byte	0x2aaa
 8055 1292 1E000000 		.4byte	.LBB659
 8056 1296 780A0000 		.4byte	.Ldebug_ranges0+0xa78
 8057 129a 01       		.byte	0x1
 8058 129b A803     		.2byte	0x3a8
 8059 129d B0120000 		.4byte	0x12b0
 8060 12a1 3A       		.uleb128 0x3a
 8061 12a2 BA2A0000 		.4byte	0x2aba
 8062 12a6 01       		.uleb128 0x1
 8063 12a7 54       		.byte	0x54
 8064 12a8 3A       		.uleb128 0x3a
 8065 12a9 BA2A0000 		.4byte	0x2aba
 8066 12ad 01       		.uleb128 0x1
 8067 12ae 54       		.byte	0x54
 8068 12af 00       		.byte	0
 8069 12b0 2C       		.uleb128 0x2c
 8070 12b1 AA2A0000 		.4byte	0x2aaa
 8071 12b5 2A000000 		.4byte	.LBB666
 8072 12b9 980A0000 		.4byte	.Ldebug_ranges0+0xa98
 8073 12bd 01       		.byte	0x1
 8074 12be A903     		.2byte	0x3a9
 8075 12c0 D3120000 		.4byte	0x12d3
 8076 12c4 3A       		.uleb128 0x3a
 8077 12c5 BA2A0000 		.4byte	0x2aba
 8078 12c9 01       		.uleb128 0x1
 8079 12ca 54       		.byte	0x54
 8080 12cb 3A       		.uleb128 0x3a
 8081 12cc BA2A0000 		.4byte	0x2aba
 8082 12d0 01       		.uleb128 0x1
 8083 12d1 54       		.byte	0x54
 8084 12d2 00       		.byte	0
 8085 12d3 2C       		.uleb128 0x2c
 8086 12d4 5A290000 		.4byte	0x295a
 8087 12d8 42000000 		.4byte	.LBB670
 8088 12dc B00A0000 		.4byte	.Ldebug_ranges0+0xab0
 8089 12e0 01       		.byte	0x1
 8090 12e1 B003     		.2byte	0x3b0
 8091 12e3 03130000 		.4byte	0x1303
 8092 12e7 2D       		.uleb128 0x2d
 8093 12e8 6A290000 		.4byte	0x296a
 8094 12ec F7060000 		.4byte	.LLST283
 8095 12f0 3B       		.uleb128 0x3b
 8096 12f1 50000000 		.4byte	.LVL378
 8097 12f5 76290000 		.4byte	0x2976
 8098 12f9 3C       		.uleb128 0x3c
ARM GAS  /var/folders/d2/nstgp4h54kz7g1l847x_b8wc0000gn/T//cccORz8f.s 			page 146


 8099 12fa 01       		.uleb128 0x1
 8100 12fb 50       		.byte	0x50
 8101 12fc 04       		.uleb128 0x4
 8102 12fd 7B       		.byte	0x7b
 8103 12fe 808001   		.sleb128 16384
 8104 1301 00       		.byte	0
 8105 1302 00       		.byte	0
 8106 1303 3D       		.uleb128 0x3d
 8107 1304 58000000 		.4byte	.LVL380
 8108 1308 76290000 		.4byte	0x2976
 8109 130c 17130000 		.4byte	0x1317
 8110 1310 3C       		.uleb128 0x3c
 8111 1311 01       		.uleb128 0x1
 8112 1312 50       		.byte	0x50
 8113 1313 02       		.uleb128 0x2
 8114 1314 7B       		.byte	0x7b
 8115 1315 00       		.sleb128 0
 8116 1316 00       		.byte	0
 8117 1317 2F       		.uleb128 0x2f
 8118 1318 8C000000 		.4byte	.LVL385
 8119 131c 552C0000 		.4byte	0x2c55
 8120 1320 00       		.byte	0
 8121 1321 28       		.uleb128 0x28
 8122 1322 34050000 		.4byte	.LASF234
 8123 1326 01       		.byte	0x1
 8124 1327 8803     		.2byte	0x388
 8125 1329 00000000 		.4byte	.LFB23
 8126 132d 80000000 		.4byte	.LFE23-.LFB23
 8127 1331 01       		.uleb128 0x1
 8128 1332 9C       		.byte	0x9c
 8129 1333 2A140000 		.4byte	0x142a
 8130 1337 29       		.uleb128 0x29
 8131 1338 766D00   		.ascii	"vm\000"
 8132 133b 01       		.byte	0x1
 8133 133c 8803     		.2byte	0x388
 8134 133e E10A0000 		.4byte	0xae1
 8135 1342 0A070000 		.4byte	.LLST269
 8136 1346 2A       		.uleb128 0x2a
 8137 1347 F1030000 		.4byte	.LASF210
 8138 134b 01       		.byte	0x1
 8139 134c 8B03     		.2byte	0x38b
 8140 134e 040A0000 		.4byte	0xa04
 8141 1352 28070000 		.4byte	.LLST270
 8142 1356 2A       		.uleb128 0x2a
 8143 1357 82090000 		.4byte	.LASF226
 8144 135b 01       		.byte	0x1
 8145 135c 8C03     		.2byte	0x38c
 8146 135e F4090000 		.4byte	0x9f4
 8147 1362 46070000 		.4byte	.LLST271
 8148 1366 2A       		.uleb128 0x2a
 8149 1367 300C0000 		.4byte	.LASF211
 8150 136b 01       		.byte	0x1
 8151 136c 8F03     		.2byte	0x38f
 8152 136e 040A0000 		.4byte	0xa04
 8153 1372 59070000 		.4byte	.LLST272
 8154 1376 2B       		.uleb128 0x2b
 8155 1377 6900     		.ascii	"i\000"
ARM GAS  /var/folders/d2/nstgp4h54kz7g1l847x_b8wc0000gn/T//cccORz8f.s 			page 147


 8156 1379 01       		.byte	0x1
 8157 137a 9103     		.2byte	0x391
 8158 137c 040A0000 		.4byte	0xa04
 8159 1380 7D070000 		.4byte	.LLST273
 8160 1384 36       		.uleb128 0x36
 8161 1385 200A0000 		.4byte	.Ldebug_ranges0+0xa20
 8162 1389 B7130000 		.4byte	0x13b7
 8163 138d 3E       		.uleb128 0x3e
 8164 138e 7800     		.ascii	"x\000"
 8165 1390 01       		.byte	0x1
 8166 1391 9403     		.2byte	0x394
 8167 1393 F4090000 		.4byte	0x9f4
 8168 1397 37       		.uleb128 0x37
 8169 1398 5A290000 		.4byte	0x295a
 8170 139c 4C000000 		.4byte	.LBB647
 8171 13a0 380A0000 		.4byte	.Ldebug_ranges0+0xa38
 8172 13a4 01       		.byte	0x1
 8173 13a5 9503     		.2byte	0x395
 8174 13a7 3F       		.uleb128 0x3f
 8175 13a8 6A290000 		.4byte	0x296a
 8176 13ac 2F       		.uleb128 0x2f
 8177 13ad 5C000000 		.4byte	.LVL364
 8178 13b1 76290000 		.4byte	0x2976
 8179 13b5 00       		.byte	0
 8180 13b6 00       		.byte	0
 8181 13b7 2C       		.uleb128 0x2c
 8182 13b8 AA2A0000 		.4byte	0x2aaa
 8183 13bc 04000000 		.4byte	.LBB626
 8184 13c0 B8090000 		.4byte	.Ldebug_ranges0+0x9b8
 8185 13c4 01       		.byte	0x1
 8186 13c5 8B03     		.2byte	0x38b
 8187 13c7 DA130000 		.4byte	0x13da
 8188 13cb 3A       		.uleb128 0x3a
 8189 13cc BA2A0000 		.4byte	0x2aba
 8190 13d0 01       		.uleb128 0x1
 8191 13d1 59       		.byte	0x59
 8192 13d2 3A       		.uleb128 0x3a
 8193 13d3 BA2A0000 		.4byte	0x2aba
 8194 13d7 01       		.uleb128 0x1
 8195 13d8 59       		.byte	0x59
 8196 13d9 00       		.byte	0
 8197 13da 2C       		.uleb128 0x2c
 8198 13db AA2A0000 		.4byte	0x2aaa
 8199 13df 16000000 		.4byte	.LBB633
 8200 13e3 E0090000 		.4byte	.Ldebug_ranges0+0x9e0
 8201 13e7 01       		.byte	0x1
 8202 13e8 8C03     		.2byte	0x38c
 8203 13ea FD130000 		.4byte	0x13fd
 8204 13ee 3A       		.uleb128 0x3a
 8205 13ef BA2A0000 		.4byte	0x2aba
 8206 13f3 01       		.uleb128 0x1
 8207 13f4 59       		.byte	0x59
 8208 13f5 3A       		.uleb128 0x3a
 8209 13f6 BA2A0000 		.4byte	0x2aba
 8210 13fa 01       		.uleb128 0x1
 8211 13fb 59       		.byte	0x59
 8212 13fc 00       		.byte	0
ARM GAS  /var/folders/d2/nstgp4h54kz7g1l847x_b8wc0000gn/T//cccORz8f.s 			page 148


 8213 13fd 2C       		.uleb128 0x2c
 8214 13fe AA2A0000 		.4byte	0x2aaa
 8215 1402 26000000 		.4byte	.LBB641
 8216 1406 080A0000 		.4byte	.Ldebug_ranges0+0xa08
 8217 140a 01       		.byte	0x1
 8218 140b 8F03     		.2byte	0x38f
 8219 140d 20140000 		.4byte	0x1420
 8220 1411 3A       		.uleb128 0x3a
 8221 1412 BA2A0000 		.4byte	0x2aba
 8222 1416 01       		.uleb128 0x1
 8223 1417 59       		.byte	0x59
 8224 1418 3A       		.uleb128 0x3a
 8225 1419 BA2A0000 		.4byte	0x2aba
 8226 141d 01       		.uleb128 0x1
 8227 141e 59       		.byte	0x59
 8228 141f 00       		.byte	0
 8229 1420 2F       		.uleb128 0x2f
 8230 1421 7C000000 		.4byte	.LVL368
 8231 1425 552C0000 		.4byte	0x2c55
 8232 1429 00       		.byte	0
 8233 142a 28       		.uleb128 0x28
 8234 142b 7D040000 		.4byte	.LASF235
 8235 142f 01       		.byte	0x1
 8236 1430 6C03     		.2byte	0x36c
 8237 1432 00000000 		.4byte	.LFB22
 8238 1436 7C000000 		.4byte	.LFE22-.LFB22
 8239 143a 01       		.uleb128 0x1
 8240 143b 9C       		.byte	0x9c
 8241 143c 1D150000 		.4byte	0x151d
 8242 1440 29       		.uleb128 0x29
 8243 1441 766D00   		.ascii	"vm\000"
 8244 1444 01       		.byte	0x1
 8245 1445 6C03     		.2byte	0x36c
 8246 1447 E10A0000 		.4byte	0xae1
 8247 144b 91070000 		.4byte	.LLST264
 8248 144f 2A       		.uleb128 0x2a
 8249 1450 F1030000 		.4byte	.LASF210
 8250 1454 01       		.byte	0x1
 8251 1455 6F03     		.2byte	0x36f
 8252 1457 040A0000 		.4byte	0xa04
 8253 145b AF070000 		.4byte	.LLST265
 8254 145f 2A       		.uleb128 0x2a
 8255 1460 82090000 		.4byte	.LASF226
 8256 1464 01       		.byte	0x1
 8257 1465 7003     		.2byte	0x370
 8258 1467 F4090000 		.4byte	0x9f4
 8259 146b CD070000 		.4byte	.LLST266
 8260 146f 2A       		.uleb128 0x2a
 8261 1470 300C0000 		.4byte	.LASF211
 8262 1474 01       		.byte	0x1
 8263 1475 7303     		.2byte	0x373
 8264 1477 040A0000 		.4byte	0xa04
 8265 147b E0070000 		.4byte	.LLST267
 8266 147f 2B       		.uleb128 0x2b
 8267 1480 6900     		.ascii	"i\000"
 8268 1482 01       		.byte	0x1
 8269 1483 7503     		.2byte	0x375
ARM GAS  /var/folders/d2/nstgp4h54kz7g1l847x_b8wc0000gn/T//cccORz8f.s 			page 149


 8270 1485 040A0000 		.4byte	0xa04
 8271 1489 04080000 		.4byte	.LLST268
 8272 148d 36       		.uleb128 0x36
 8273 148e A0090000 		.4byte	.Ldebug_ranges0+0x9a0
 8274 1492 AA140000 		.4byte	0x14aa
 8275 1496 3E       		.uleb128 0x3e
 8276 1497 7800     		.ascii	"x\000"
 8277 1499 01       		.byte	0x1
 8278 149a 7803     		.2byte	0x378
 8279 149c F4090000 		.4byte	0x9f4
 8280 14a0 2F       		.uleb128 0x2f
 8281 14a1 56000000 		.4byte	.LVL351
 8282 14a5 76290000 		.4byte	0x2976
 8283 14a9 00       		.byte	0
 8284 14aa 2C       		.uleb128 0x2c
 8285 14ab AA2A0000 		.4byte	0x2aaa
 8286 14af 04000000 		.4byte	.LBB604
 8287 14b3 38090000 		.4byte	.Ldebug_ranges0+0x938
 8288 14b7 01       		.byte	0x1
 8289 14b8 6F03     		.2byte	0x36f
 8290 14ba CD140000 		.4byte	0x14cd
 8291 14be 3A       		.uleb128 0x3a
 8292 14bf BA2A0000 		.4byte	0x2aba
 8293 14c3 01       		.uleb128 0x1
 8294 14c4 5A       		.byte	0x5a
 8295 14c5 3A       		.uleb128 0x3a
 8296 14c6 BA2A0000 		.4byte	0x2aba
 8297 14ca 01       		.uleb128 0x1
 8298 14cb 5A       		.byte	0x5a
 8299 14cc 00       		.byte	0
 8300 14cd 2C       		.uleb128 0x2c
 8301 14ce AA2A0000 		.4byte	0x2aaa
 8302 14d2 16000000 		.4byte	.LBB611
 8303 14d6 60090000 		.4byte	.Ldebug_ranges0+0x960
 8304 14da 01       		.byte	0x1
 8305 14db 7003     		.2byte	0x370
 8306 14dd F0140000 		.4byte	0x14f0
 8307 14e1 3A       		.uleb128 0x3a
 8308 14e2 BA2A0000 		.4byte	0x2aba
 8309 14e6 01       		.uleb128 0x1
 8310 14e7 5A       		.byte	0x5a
 8311 14e8 3A       		.uleb128 0x3a
 8312 14e9 BA2A0000 		.4byte	0x2aba
 8313 14ed 01       		.uleb128 0x1
 8314 14ee 5A       		.byte	0x5a
 8315 14ef 00       		.byte	0
 8316 14f0 2C       		.uleb128 0x2c
 8317 14f1 AA2A0000 		.4byte	0x2aaa
 8318 14f5 26000000 		.4byte	.LBB619
 8319 14f9 88090000 		.4byte	.Ldebug_ranges0+0x988
 8320 14fd 01       		.byte	0x1
 8321 14fe 7303     		.2byte	0x373
 8322 1500 13150000 		.4byte	0x1513
 8323 1504 3A       		.uleb128 0x3a
 8324 1505 BA2A0000 		.4byte	0x2aba
 8325 1509 01       		.uleb128 0x1
 8326 150a 5A       		.byte	0x5a
ARM GAS  /var/folders/d2/nstgp4h54kz7g1l847x_b8wc0000gn/T//cccORz8f.s 			page 150


 8327 150b 3A       		.uleb128 0x3a
 8328 150c BA2A0000 		.4byte	0x2aba
 8329 1510 01       		.uleb128 0x1
 8330 1511 5A       		.byte	0x5a
 8331 1512 00       		.byte	0
 8332 1513 2F       		.uleb128 0x2f
 8333 1514 76000000 		.4byte	.LVL355
 8334 1518 552C0000 		.4byte	0x2c55
 8335 151c 00       		.byte	0
 8336 151d 28       		.uleb128 0x28
 8337 151e 83050000 		.4byte	.LASF236
 8338 1522 01       		.byte	0x1
 8339 1523 4D03     		.2byte	0x34d
 8340 1525 00000000 		.4byte	.LFB21
 8341 1529 AC000000 		.4byte	.LFE21-.LFB21
 8342 152d 01       		.uleb128 0x1
 8343 152e 9C       		.byte	0x9c
 8344 152f 78160000 		.4byte	0x1678
 8345 1533 29       		.uleb128 0x29
 8346 1534 766D00   		.ascii	"vm\000"
 8347 1537 01       		.byte	0x1
 8348 1538 4D03     		.2byte	0x34d
 8349 153a E10A0000 		.4byte	0xae1
 8350 153e 18080000 		.4byte	.LLST254
 8351 1542 2A       		.uleb128 0x2a
 8352 1543 F1030000 		.4byte	.LASF210
 8353 1547 01       		.byte	0x1
 8354 1548 5003     		.2byte	0x350
 8355 154a 040A0000 		.4byte	0xa04
 8356 154e 36080000 		.4byte	.LLST255
 8357 1552 2A       		.uleb128 0x2a
 8358 1553 AC030000 		.4byte	.LASF237
 8359 1557 01       		.byte	0x1
 8360 1558 5103     		.2byte	0x351
 8361 155a F4090000 		.4byte	0x9f4
 8362 155e 75080000 		.4byte	.LLST256
 8363 1562 2A       		.uleb128 0x2a
 8364 1563 82090000 		.4byte	.LASF226
 8365 1567 01       		.byte	0x1
 8366 1568 5203     		.2byte	0x352
 8367 156a F4090000 		.4byte	0x9f4
 8368 156e 88080000 		.4byte	.LLST257
 8369 1572 2A       		.uleb128 0x2a
 8370 1573 300C0000 		.4byte	.LASF211
 8371 1577 01       		.byte	0x1
 8372 1578 5503     		.2byte	0x355
 8373 157a 040A0000 		.4byte	0xa04
 8374 157e 9B080000 		.4byte	.LLST258
 8375 1582 2B       		.uleb128 0x2b
 8376 1583 6900     		.ascii	"i\000"
 8377 1585 01       		.byte	0x1
 8378 1586 5703     		.2byte	0x357
 8379 1588 040A0000 		.4byte	0xa04
 8380 158c AE080000 		.4byte	.LLST259
 8381 1590 36       		.uleb128 0x36
 8382 1591 F8080000 		.4byte	.Ldebug_ranges0+0x8f8
 8383 1595 E2150000 		.4byte	0x15e2
ARM GAS  /var/folders/d2/nstgp4h54kz7g1l847x_b8wc0000gn/T//cccORz8f.s 			page 151


 8384 1599 2B       		.uleb128 0x2b
 8385 159a 7900     		.ascii	"y\000"
 8386 159c 01       		.byte	0x1
 8387 159d 5A03     		.2byte	0x35a
 8388 159f F4090000 		.4byte	0x9f4
 8389 15a3 C2080000 		.4byte	.LLST260
 8390 15a7 2B       		.uleb128 0x2b
 8391 15a8 7800     		.ascii	"x\000"
 8392 15aa 01       		.byte	0x1
 8393 15ab 5B03     		.2byte	0x35b
 8394 15ad F4090000 		.4byte	0x9f4
 8395 15b1 F8080000 		.4byte	.LLST261
 8396 15b5 37       		.uleb128 0x37
 8397 15b6 FD290000 		.4byte	0x29fd
 8398 15ba 42000000 		.4byte	.LBB597
 8399 15be 20090000 		.4byte	.Ldebug_ranges0+0x920
 8400 15c2 01       		.byte	0x1
 8401 15c3 5C03     		.2byte	0x35c
 8402 15c5 2D       		.uleb128 0x2d
 8403 15c6 162A0000 		.4byte	0x2a16
 8404 15ca 16090000 		.4byte	.LLST262
 8405 15ce 2D       		.uleb128 0x2d
 8406 15cf 0D2A0000 		.4byte	0x2a0d
 8407 15d3 34090000 		.4byte	.LLST263
 8408 15d7 2F       		.uleb128 0x2f
 8409 15d8 88000000 		.4byte	.LVL338
 8410 15dc C52A0000 		.4byte	0x2ac5
 8411 15e0 00       		.byte	0
 8412 15e1 00       		.byte	0
 8413 15e2 2C       		.uleb128 0x2c
 8414 15e3 AA2A0000 		.4byte	0x2aaa
 8415 15e7 04000000 		.4byte	.LBB570
 8416 15eb 70080000 		.4byte	.Ldebug_ranges0+0x870
 8417 15ef 01       		.byte	0x1
 8418 15f0 5003     		.2byte	0x350
 8419 15f2 05160000 		.4byte	0x1605
 8420 15f6 3A       		.uleb128 0x3a
 8421 15f7 BA2A0000 		.4byte	0x2aba
 8422 15fb 01       		.uleb128 0x1
 8423 15fc 56       		.byte	0x56
 8424 15fd 3A       		.uleb128 0x3a
 8425 15fe BA2A0000 		.4byte	0x2aba
 8426 1602 01       		.uleb128 0x1
 8427 1603 56       		.byte	0x56
 8428 1604 00       		.byte	0
 8429 1605 2C       		.uleb128 0x2c
 8430 1606 AA2A0000 		.4byte	0x2aaa
 8431 160a 12000000 		.4byte	.LBB575
 8432 160e 90080000 		.4byte	.Ldebug_ranges0+0x890
 8433 1612 01       		.byte	0x1
 8434 1613 5103     		.2byte	0x351
 8435 1615 28160000 		.4byte	0x1628
 8436 1619 3A       		.uleb128 0x3a
 8437 161a BA2A0000 		.4byte	0x2aba
 8438 161e 01       		.uleb128 0x1
 8439 161f 56       		.byte	0x56
 8440 1620 3A       		.uleb128 0x3a
ARM GAS  /var/folders/d2/nstgp4h54kz7g1l847x_b8wc0000gn/T//cccORz8f.s 			page 152


 8441 1621 BA2A0000 		.4byte	0x2aba
 8442 1625 01       		.uleb128 0x1
 8443 1626 56       		.byte	0x56
 8444 1627 00       		.byte	0
 8445 1628 2C       		.uleb128 0x2c
 8446 1629 AA2A0000 		.4byte	0x2aaa
 8447 162d 18000000 		.4byte	.LBB582
 8448 1631 B8080000 		.4byte	.Ldebug_ranges0+0x8b8
 8449 1635 01       		.byte	0x1
 8450 1636 5203     		.2byte	0x352
 8451 1638 4B160000 		.4byte	0x164b
 8452 163c 3A       		.uleb128 0x3a
 8453 163d BA2A0000 		.4byte	0x2aba
 8454 1641 01       		.uleb128 0x1
 8455 1642 56       		.byte	0x56
 8456 1643 3A       		.uleb128 0x3a
 8457 1644 BA2A0000 		.4byte	0x2aba
 8458 1648 01       		.uleb128 0x1
 8459 1649 56       		.byte	0x56
 8460 164a 00       		.byte	0
 8461 164b 2C       		.uleb128 0x2c
 8462 164c AA2A0000 		.4byte	0x2aaa
 8463 1650 28000000 		.4byte	.LBB591
 8464 1654 E0080000 		.4byte	.Ldebug_ranges0+0x8e0
 8465 1658 01       		.byte	0x1
 8466 1659 5503     		.2byte	0x355
 8467 165b 6E160000 		.4byte	0x166e
 8468 165f 3A       		.uleb128 0x3a
 8469 1660 BA2A0000 		.4byte	0x2aba
 8470 1664 01       		.uleb128 0x1
 8471 1665 56       		.byte	0x56
 8472 1666 3A       		.uleb128 0x3a
 8473 1667 BA2A0000 		.4byte	0x2aba
 8474 166b 01       		.uleb128 0x1
 8475 166c 56       		.byte	0x56
 8476 166d 00       		.byte	0
 8477 166e 2F       		.uleb128 0x2f
 8478 166f A4000000 		.4byte	.LVL342
 8479 1673 552C0000 		.4byte	0x2c55
 8480 1677 00       		.byte	0
 8481 1678 28       		.uleb128 0x28
 8482 1679 370C0000 		.4byte	.LASF238
 8483 167d 01       		.byte	0x1
 8484 167e 2203     		.2byte	0x322
 8485 1680 00000000 		.4byte	.LFB20
 8486 1684 E0000000 		.4byte	.LFE20-.LFB20
 8487 1688 01       		.uleb128 0x1
 8488 1689 9C       		.byte	0x9c
 8489 168a 22180000 		.4byte	0x1822
 8490 168e 29       		.uleb128 0x29
 8491 168f 766D00   		.ascii	"vm\000"
 8492 1692 01       		.byte	0x1
 8493 1693 2203     		.2byte	0x322
 8494 1695 E10A0000 		.4byte	0xae1
 8495 1699 52090000 		.4byte	.LLST234
 8496 169d 2A       		.uleb128 0x2a
 8497 169e F1030000 		.4byte	.LASF210
ARM GAS  /var/folders/d2/nstgp4h54kz7g1l847x_b8wc0000gn/T//cccORz8f.s 			page 153


 8498 16a2 01       		.byte	0x1
 8499 16a3 2503     		.2byte	0x325
 8500 16a5 040A0000 		.4byte	0xa04
 8501 16a9 8C090000 		.4byte	.LLST235
 8502 16ad 2A       		.uleb128 0x2a
 8503 16ae 4E0C0000 		.4byte	.LASF239
 8504 16b2 01       		.byte	0x1
 8505 16b3 2603     		.2byte	0x326
 8506 16b5 040A0000 		.4byte	0xa04
 8507 16b9 AC090000 		.4byte	.LLST236
 8508 16bd 2A       		.uleb128 0x2a
 8509 16be C6000000 		.4byte	.LASF240
 8510 16c2 01       		.byte	0x1
 8511 16c3 2703     		.2byte	0x327
 8512 16c5 040A0000 		.4byte	0xa04
 8513 16c9 E0090000 		.4byte	.LLST237
 8514 16cd 2A       		.uleb128 0x2a
 8515 16ce 5B100000 		.4byte	.LASF241
 8516 16d2 01       		.byte	0x1
 8517 16d3 2803     		.2byte	0x328
 8518 16d5 040A0000 		.4byte	0xa04
 8519 16d9 380A0000 		.4byte	.LLST238
 8520 16dd 2A       		.uleb128 0x2a
 8521 16de 300C0000 		.4byte	.LASF211
 8522 16e2 01       		.byte	0x1
 8523 16e3 2B03     		.2byte	0x32b
 8524 16e5 040A0000 		.4byte	0xa04
 8525 16e9 6E0A0000 		.4byte	.LLST239
 8526 16ed 2B       		.uleb128 0x2b
 8527 16ee 6900     		.ascii	"i\000"
 8528 16f0 01       		.byte	0x1
 8529 16f1 2D03     		.2byte	0x32d
 8530 16f3 040A0000 		.4byte	0xa04
 8531 16f7 810A0000 		.4byte	.LLST240
 8532 16fb 36       		.uleb128 0x36
 8533 16fc 48080000 		.4byte	.Ldebug_ranges0+0x848
 8534 1700 55170000 		.4byte	0x1755
 8535 1704 2B       		.uleb128 0x2b
 8536 1705 6100     		.ascii	"a\000"
 8537 1707 01       		.byte	0x1
 8538 1708 3003     		.2byte	0x330
 8539 170a DE090000 		.4byte	0x9de
 8540 170e 950A0000 		.4byte	.LLST251
 8541 1712 2B       		.uleb128 0x2b
 8542 1713 6200     		.ascii	"b\000"
 8543 1715 01       		.byte	0x1
 8544 1716 3103     		.2byte	0x331
 8545 1718 DE090000 		.4byte	0x9de
 8546 171c BE0A0000 		.4byte	.LLST252
 8547 1720 2B       		.uleb128 0x2b
 8548 1721 6300     		.ascii	"c\000"
 8549 1723 01       		.byte	0x1
 8550 1724 3203     		.2byte	0x332
 8551 1726 DE090000 		.4byte	0x9de
 8552 172a E70A0000 		.4byte	.LLST253
 8553 172e 40       		.uleb128 0x40
 8554 172f D8000000 		.4byte	.LVL320
ARM GAS  /var/folders/d2/nstgp4h54kz7g1l847x_b8wc0000gn/T//cccORz8f.s 			page 154


 8555 1733 5E2C0000 		.4byte	0x2c5e
 8556 1737 3C       		.uleb128 0x3c
 8557 1738 01       		.uleb128 0x1
 8558 1739 50       		.byte	0x50
 8559 173a 03       		.uleb128 0x3
 8560 173b F3       		.byte	0xf3
 8561 173c 01       		.uleb128 0x1
 8562 173d 50       		.byte	0x50
 8563 173e 3C       		.uleb128 0x3c
 8564 173f 01       		.uleb128 0x1
 8565 1740 51       		.byte	0x51
 8566 1741 03       		.uleb128 0x3
 8567 1742 0B       		.byte	0xb
 8568 1743 0790     		.2byte	0x9007
 8569 1745 3C       		.uleb128 0x3c
 8570 1746 01       		.uleb128 0x1
 8571 1747 52       		.byte	0x52
 8572 1748 05       		.uleb128 0x5
 8573 1749 F3       		.byte	0xf3
 8574 174a 01       		.uleb128 0x1
 8575 174b 50       		.byte	0x50
 8576 174c 23       		.byte	0x23
 8577 174d 1A       		.uleb128 0x1a
 8578 174e 3C       		.uleb128 0x3c
 8579 174f 01       		.uleb128 0x1
 8580 1750 53       		.byte	0x53
 8581 1751 01       		.uleb128 0x1
 8582 1752 32       		.byte	0x32
 8583 1753 00       		.byte	0
 8584 1754 00       		.byte	0
 8585 1755 2C       		.uleb128 0x2c
 8586 1756 AA2A0000 		.4byte	0x2aaa
 8587 175a 04000000 		.4byte	.LBB538
 8588 175e B0070000 		.4byte	.Ldebug_ranges0+0x7b0
 8589 1762 01       		.byte	0x1
 8590 1763 2503     		.2byte	0x325
 8591 1765 7C170000 		.4byte	0x177c
 8592 1769 2D       		.uleb128 0x2d
 8593 176a BA2A0000 		.4byte	0x2aba
 8594 176e 100B0000 		.4byte	.LLST241
 8595 1772 2D       		.uleb128 0x2d
 8596 1773 BA2A0000 		.4byte	0x2aba
 8597 1777 4A0B0000 		.4byte	.LLST242
 8598 177b 00       		.byte	0
 8599 177c 2C       		.uleb128 0x2c
 8600 177d AA2A0000 		.4byte	0x2aaa
 8601 1781 14000000 		.4byte	.LBB543
 8602 1785 D0070000 		.4byte	.Ldebug_ranges0+0x7d0
 8603 1789 01       		.byte	0x1
 8604 178a 2603     		.2byte	0x326
 8605 178c A3170000 		.4byte	0x17a3
 8606 1790 2D       		.uleb128 0x2d
 8607 1791 BA2A0000 		.4byte	0x2aba
 8608 1795 840B0000 		.4byte	.LLST243
 8609 1799 2D       		.uleb128 0x2d
 8610 179a BA2A0000 		.4byte	0x2aba
 8611 179e BE0B0000 		.4byte	.LLST244
ARM GAS  /var/folders/d2/nstgp4h54kz7g1l847x_b8wc0000gn/T//cccORz8f.s 			page 155


 8612 17a2 00       		.byte	0
 8613 17a3 2C       		.uleb128 0x2c
 8614 17a4 AA2A0000 		.4byte	0x2aaa
 8615 17a8 1A000000 		.4byte	.LBB549
 8616 17ac F0070000 		.4byte	.Ldebug_ranges0+0x7f0
 8617 17b0 01       		.byte	0x1
 8618 17b1 2703     		.2byte	0x327
 8619 17b3 CA170000 		.4byte	0x17ca
 8620 17b7 2D       		.uleb128 0x2d
 8621 17b8 BA2A0000 		.4byte	0x2aba
 8622 17bc F80B0000 		.4byte	.LLST245
 8623 17c0 2D       		.uleb128 0x2d
 8624 17c1 BA2A0000 		.4byte	0x2aba
 8625 17c5 320C0000 		.4byte	.LLST246
 8626 17c9 00       		.byte	0
 8627 17ca 2C       		.uleb128 0x2c
 8628 17cb AA2A0000 		.4byte	0x2aaa
 8629 17cf 24000000 		.4byte	.LBB555
 8630 17d3 10080000 		.4byte	.Ldebug_ranges0+0x810
 8631 17d7 01       		.byte	0x1
 8632 17d8 2803     		.2byte	0x328
 8633 17da F1170000 		.4byte	0x17f1
 8634 17de 2D       		.uleb128 0x2d
 8635 17df BA2A0000 		.4byte	0x2aba
 8636 17e3 6C0C0000 		.4byte	.LLST247
 8637 17e7 2D       		.uleb128 0x2d
 8638 17e8 BA2A0000 		.4byte	0x2aba
 8639 17ec A60C0000 		.4byte	.LLST248
 8640 17f0 00       		.byte	0
 8641 17f1 2C       		.uleb128 0x2c
 8642 17f2 AA2A0000 		.4byte	0x2aaa
 8643 17f6 34000000 		.4byte	.LBB562
 8644 17fa 30080000 		.4byte	.Ldebug_ranges0+0x830
 8645 17fe 01       		.byte	0x1
 8646 17ff 2B03     		.2byte	0x32b
 8647 1801 18180000 		.4byte	0x1818
 8648 1805 2D       		.uleb128 0x2d
 8649 1806 BA2A0000 		.4byte	0x2aba
 8650 180a E00C0000 		.4byte	.LLST249
 8651 180e 2D       		.uleb128 0x2d
 8652 180f BA2A0000 		.4byte	0x2aba
 8653 1813 1A0D0000 		.4byte	.LLST250
 8654 1817 00       		.byte	0
 8655 1818 2F       		.uleb128 0x2f
 8656 1819 DC000000 		.4byte	.LVL321
 8657 181d 552C0000 		.4byte	0x2c55
 8658 1821 00       		.byte	0
 8659 1822 28       		.uleb128 0x28
 8660 1823 56000000 		.4byte	.LASF242
 8661 1827 01       		.byte	0x1
 8662 1828 0C03     		.2byte	0x30c
 8663 182a 00000000 		.4byte	.LFB19
 8664 182e 44000000 		.4byte	.LFE19-.LFB19
 8665 1832 01       		.uleb128 0x1
 8666 1833 9C       		.byte	0x9c
 8667 1834 C8180000 		.4byte	0x18c8
 8668 1838 29       		.uleb128 0x29
ARM GAS  /var/folders/d2/nstgp4h54kz7g1l847x_b8wc0000gn/T//cccORz8f.s 			page 156


 8669 1839 766D00   		.ascii	"vm\000"
 8670 183c 01       		.byte	0x1
 8671 183d 0C03     		.2byte	0x30c
 8672 183f E10A0000 		.4byte	0xae1
 8673 1843 540D0000 		.4byte	.LLST227
 8674 1847 2B       		.uleb128 0x2b
 8675 1848 73726300 		.ascii	"src\000"
 8676 184c 01       		.byte	0x1
 8677 184d 0F03     		.2byte	0x30f
 8678 184f 040A0000 		.4byte	0xa04
 8679 1853 8E0D0000 		.4byte	.LLST228
 8680 1857 2A       		.uleb128 0x2a
 8681 1858 300C0000 		.4byte	.LASF211
 8682 185c 01       		.byte	0x1
 8683 185d 1203     		.2byte	0x312
 8684 185f 040A0000 		.4byte	0xa04
 8685 1863 AC0D0000 		.4byte	.LLST229
 8686 1867 2C       		.uleb128 0x2c
 8687 1868 AA2A0000 		.4byte	0x2aaa
 8688 186c 04000000 		.4byte	.LBB528
 8689 1870 78070000 		.4byte	.Ldebug_ranges0+0x778
 8690 1874 01       		.byte	0x1
 8691 1875 0F03     		.2byte	0x30f
 8692 1877 8E180000 		.4byte	0x188e
 8693 187b 2D       		.uleb128 0x2d
 8694 187c BA2A0000 		.4byte	0x2aba
 8695 1880 F70D0000 		.4byte	.LLST230
 8696 1884 2D       		.uleb128 0x2d
 8697 1885 BA2A0000 		.4byte	0x2aba
 8698 1889 310E0000 		.4byte	.LLST231
 8699 188d 00       		.byte	0
 8700 188e 2C       		.uleb128 0x2c
 8701 188f AA2A0000 		.4byte	0x2aaa
 8702 1893 1C000000 		.4byte	.LBB534
 8703 1897 98070000 		.4byte	.Ldebug_ranges0+0x798
 8704 189b 01       		.byte	0x1
 8705 189c 1203     		.2byte	0x312
 8706 189e B5180000 		.4byte	0x18b5
 8707 18a2 2D       		.uleb128 0x2d
 8708 18a3 BA2A0000 		.4byte	0x2aba
 8709 18a7 6B0E0000 		.4byte	.LLST232
 8710 18ab 2D       		.uleb128 0x2d
 8711 18ac BA2A0000 		.4byte	0x2aba
 8712 18b0 A50E0000 		.4byte	.LLST233
 8713 18b4 00       		.byte	0
 8714 18b5 41       		.uleb128 0x41
 8715 18b6 3C000000 		.4byte	.LVL292
 8716 18ba 96280000 		.4byte	0x2896
 8717 18be 2F       		.uleb128 0x2f
 8718 18bf 40000000 		.4byte	.LVL293
 8719 18c3 552C0000 		.4byte	0x2c55
 8720 18c7 00       		.byte	0
 8721 18c8 28       		.uleb128 0x28
 8722 18c9 05000000 		.4byte	.LASF243
 8723 18cd 01       		.byte	0x1
 8724 18ce DE02     		.2byte	0x2de
 8725 18d0 00000000 		.4byte	.LFB18
ARM GAS  /var/folders/d2/nstgp4h54kz7g1l847x_b8wc0000gn/T//cccORz8f.s 			page 157


 8726 18d4 A4000000 		.4byte	.LFE18-.LFB18
 8727 18d8 01       		.uleb128 0x1
 8728 18d9 9C       		.byte	0x9c
 8729 18da 0D1A0000 		.4byte	0x1a0d
 8730 18de 29       		.uleb128 0x29
 8731 18df 766D00   		.ascii	"vm\000"
 8732 18e2 01       		.byte	0x1
 8733 18e3 DE02     		.2byte	0x2de
 8734 18e5 E10A0000 		.4byte	0xae1
 8735 18e9 DF0E0000 		.4byte	.LLST211
 8736 18ed 2B       		.uleb128 0x2b
 8737 18ee 73726300 		.ascii	"src\000"
 8738 18f2 01       		.byte	0x1
 8739 18f3 E102     		.2byte	0x2e1
 8740 18f5 040A0000 		.4byte	0xa04
 8741 18f9 000F0000 		.4byte	.LLST212
 8742 18fd 2A       		.uleb128 0x2a
 8743 18fe DB030000 		.4byte	.LASF244
 8744 1902 01       		.byte	0x1
 8745 1903 E202     		.2byte	0x2e2
 8746 1905 040A0000 		.4byte	0xa04
 8747 1909 290F0000 		.4byte	.LLST213
 8748 190d 2A       		.uleb128 0x2a
 8749 190e B40B0000 		.4byte	.LASF245
 8750 1912 01       		.byte	0x1
 8751 1913 E302     		.2byte	0x2e3
 8752 1915 040A0000 		.4byte	0xa04
 8753 1919 3C0F0000 		.4byte	.LLST214
 8754 191d 2A       		.uleb128 0x2a
 8755 191e 300C0000 		.4byte	.LASF211
 8756 1922 01       		.byte	0x1
 8757 1923 E602     		.2byte	0x2e6
 8758 1925 040A0000 		.4byte	0xa04
 8759 1929 4F0F0000 		.4byte	.LLST215
 8760 192d 2B       		.uleb128 0x2b
 8761 192e 6D696E00 		.ascii	"min\000"
 8762 1932 01       		.byte	0x1
 8763 1933 E702     		.2byte	0x2e7
 8764 1935 F4090000 		.4byte	0x9f4
 8765 1939 620F0000 		.4byte	.LLST216
 8766 193d 2B       		.uleb128 0x2b
 8767 193e 6D617800 		.ascii	"max\000"
 8768 1942 01       		.byte	0x1
 8769 1943 E802     		.2byte	0x2e8
 8770 1945 F4090000 		.4byte	0x9f4
 8771 1949 990F0000 		.4byte	.LLST217
 8772 194d 2B       		.uleb128 0x2b
 8773 194e 76616C00 		.ascii	"val\000"
 8774 1952 01       		.byte	0x1
 8775 1953 E902     		.2byte	0x2e9
 8776 1955 F4090000 		.4byte	0x9f4
 8777 1959 D00F0000 		.4byte	.LLST218
 8778 195d 3E       		.uleb128 0x3e
 8779 195e 6900     		.ascii	"i\000"
 8780 1960 01       		.byte	0x1
 8781 1961 EA02     		.2byte	0x2ea
 8782 1963 040A0000 		.4byte	0xa04
ARM GAS  /var/folders/d2/nstgp4h54kz7g1l847x_b8wc0000gn/T//cccORz8f.s 			page 158


 8783 1967 2C       		.uleb128 0x2c
 8784 1968 AA2A0000 		.4byte	0x2aaa
 8785 196c 00000000 		.4byte	.LBB498
 8786 1970 E0060000 		.4byte	.Ldebug_ranges0+0x6e0
 8787 1974 01       		.byte	0x1
 8788 1975 E102     		.2byte	0x2e1
 8789 1977 8E190000 		.4byte	0x198e
 8790 197b 2D       		.uleb128 0x2d
 8791 197c BA2A0000 		.4byte	0x2aba
 8792 1980 E30F0000 		.4byte	.LLST219
 8793 1984 2D       		.uleb128 0x2d
 8794 1985 BA2A0000 		.4byte	0x2aba
 8795 1989 04100000 		.4byte	.LLST220
 8796 198d 00       		.byte	0
 8797 198e 2C       		.uleb128 0x2c
 8798 198f AA2A0000 		.4byte	0x2aaa
 8799 1993 12000000 		.4byte	.LBB506
 8800 1997 10070000 		.4byte	.Ldebug_ranges0+0x710
 8801 199b 01       		.byte	0x1
 8802 199c E202     		.2byte	0x2e2
 8803 199e B5190000 		.4byte	0x19b5
 8804 19a2 2D       		.uleb128 0x2d
 8805 19a3 BA2A0000 		.4byte	0x2aba
 8806 19a7 25100000 		.4byte	.LLST221
 8807 19ab 2D       		.uleb128 0x2d
 8808 19ac BA2A0000 		.4byte	0x2aba
 8809 19b0 46100000 		.4byte	.LLST222
 8810 19b4 00       		.byte	0
 8811 19b5 2C       		.uleb128 0x2c
 8812 19b6 AA2A0000 		.4byte	0x2aaa
 8813 19ba 18000000 		.4byte	.LBB513
 8814 19be 38070000 		.4byte	.Ldebug_ranges0+0x738
 8815 19c2 01       		.byte	0x1
 8816 19c3 E302     		.2byte	0x2e3
 8817 19c5 DC190000 		.4byte	0x19dc
 8818 19c9 2D       		.uleb128 0x2d
 8819 19ca BA2A0000 		.4byte	0x2aba
 8820 19ce 67100000 		.4byte	.LLST223
 8821 19d2 2D       		.uleb128 0x2d
 8822 19d3 BA2A0000 		.4byte	0x2aba
 8823 19d7 88100000 		.4byte	.LLST224
 8824 19db 00       		.byte	0
 8825 19dc 2C       		.uleb128 0x2c
 8826 19dd AA2A0000 		.4byte	0x2aaa
 8827 19e1 28000000 		.4byte	.LBB523
 8828 19e5 60070000 		.4byte	.Ldebug_ranges0+0x760
 8829 19e9 01       		.byte	0x1
 8830 19ea E602     		.2byte	0x2e6
 8831 19ec 031A0000 		.4byte	0x1a03
 8832 19f0 2D       		.uleb128 0x2d
 8833 19f1 BA2A0000 		.4byte	0x2aba
 8834 19f5 A9100000 		.4byte	.LLST225
 8835 19f9 2D       		.uleb128 0x2d
 8836 19fa BA2A0000 		.4byte	0x2aba
 8837 19fe CA100000 		.4byte	.LLST226
 8838 1a02 00       		.byte	0
 8839 1a03 2F       		.uleb128 0x2f
ARM GAS  /var/folders/d2/nstgp4h54kz7g1l847x_b8wc0000gn/T//cccORz8f.s 			page 159


 8840 1a04 9A000000 		.4byte	.LVL285
 8841 1a08 552C0000 		.4byte	0x2c55
 8842 1a0c 00       		.byte	0
 8843 1a0d 28       		.uleb128 0x28
 8844 1a0e 4F070000 		.4byte	.LASF246
 8845 1a12 01       		.byte	0x1
 8846 1a13 AD02     		.2byte	0x2ad
 8847 1a15 00000000 		.4byte	.LFB17
 8848 1a19 D0000000 		.4byte	.LFE17-.LFB17
 8849 1a1d 01       		.uleb128 0x1
 8850 1a1e 9C       		.byte	0x9c
 8851 1a1f 7B1B0000 		.4byte	0x1b7b
 8852 1a23 29       		.uleb128 0x29
 8853 1a24 766D00   		.ascii	"vm\000"
 8854 1a27 01       		.byte	0x1
 8855 1a28 AD02     		.2byte	0x2ad
 8856 1a2a E10A0000 		.4byte	0xae1
 8857 1a2e EB100000 		.4byte	.LLST193
 8858 1a32 2B       		.uleb128 0x2b
 8859 1a33 73726300 		.ascii	"src\000"
 8860 1a37 01       		.byte	0x1
 8861 1a38 B002     		.2byte	0x2b0
 8862 1a3a 040A0000 		.4byte	0xa04
 8863 1a3e 0C110000 		.4byte	.LLST194
 8864 1a42 2B       		.uleb128 0x2b
 8865 1a43 6D696E00 		.ascii	"min\000"
 8866 1a47 01       		.byte	0x1
 8867 1a48 B102     		.2byte	0x2b1
 8868 1a4a 040A0000 		.4byte	0xa04
 8869 1a4e 40110000 		.4byte	.LLST195
 8870 1a52 2B       		.uleb128 0x2b
 8871 1a53 6D617800 		.ascii	"max\000"
 8872 1a57 01       		.byte	0x1
 8873 1a58 B202     		.2byte	0x2b2
 8874 1a5a 040A0000 		.4byte	0xa04
 8875 1a5e 53110000 		.4byte	.LLST196
 8876 1a62 2A       		.uleb128 0x2a
 8877 1a63 E9120000 		.4byte	.LASF247
 8878 1a67 01       		.byte	0x1
 8879 1a68 B302     		.2byte	0x2b3
 8880 1a6a 040A0000 		.4byte	0xa04
 8881 1a6e 66110000 		.4byte	.LLST197
 8882 1a72 27       		.uleb128 0x27
 8883 1a73 300C0000 		.4byte	.LASF211
 8884 1a77 01       		.byte	0x1
 8885 1a78 B602     		.2byte	0x2b6
 8886 1a7a 040A0000 		.4byte	0xa04
 8887 1a7e 01       		.uleb128 0x1
 8888 1a7f 58       		.byte	0x58
 8889 1a80 2B       		.uleb128 0x2b
 8890 1a81 76616C00 		.ascii	"val\000"
 8891 1a85 01       		.byte	0x1
 8892 1a86 B702     		.2byte	0x2b7
 8893 1a88 F4090000 		.4byte	0x9f4
 8894 1a8c 84110000 		.4byte	.LLST198
 8895 1a90 2B       		.uleb128 0x2b
 8896 1a91 61636300 		.ascii	"acc\000"
ARM GAS  /var/folders/d2/nstgp4h54kz7g1l847x_b8wc0000gn/T//cccORz8f.s 			page 160


 8897 1a95 01       		.byte	0x1
 8898 1a96 B802     		.2byte	0x2b8
 8899 1a98 DE090000 		.4byte	0x9de
 8900 1a9c 97110000 		.4byte	.LLST199
 8901 1aa0 2B       		.uleb128 0x2b
 8902 1aa1 6900     		.ascii	"i\000"
 8903 1aa3 01       		.byte	0x1
 8904 1aa4 B902     		.2byte	0x2b9
 8905 1aa6 040A0000 		.4byte	0xa04
 8906 1aaa B5110000 		.4byte	.LLST200
 8907 1aae 2C       		.uleb128 0x2c
 8908 1aaf AA2A0000 		.4byte	0x2aaa
 8909 1ab3 00000000 		.4byte	.LBB462
 8910 1ab7 28060000 		.4byte	.Ldebug_ranges0+0x628
 8911 1abb 01       		.byte	0x1
 8912 1abc B002     		.2byte	0x2b0
 8913 1abe D51A0000 		.4byte	0x1ad5
 8914 1ac2 2D       		.uleb128 0x2d
 8915 1ac3 BA2A0000 		.4byte	0x2aba
 8916 1ac7 D5110000 		.4byte	.LLST201
 8917 1acb 2D       		.uleb128 0x2d
 8918 1acc BA2A0000 		.4byte	0x2aba
 8919 1ad0 F6110000 		.4byte	.LLST202
 8920 1ad4 00       		.byte	0
 8921 1ad5 2C       		.uleb128 0x2c
 8922 1ad6 AA2A0000 		.4byte	0x2aaa
 8923 1ada 14000000 		.4byte	.LBB468
 8924 1ade 50060000 		.4byte	.Ldebug_ranges0+0x650
 8925 1ae2 01       		.byte	0x1
 8926 1ae3 B102     		.2byte	0x2b1
 8927 1ae5 FC1A0000 		.4byte	0x1afc
 8928 1ae9 2D       		.uleb128 0x2d
 8929 1aea BA2A0000 		.4byte	0x2aba
 8930 1aee 17120000 		.4byte	.LLST203
 8931 1af2 2D       		.uleb128 0x2d
 8932 1af3 BA2A0000 		.4byte	0x2aba
 8933 1af7 38120000 		.4byte	.LLST204
 8934 1afb 00       		.byte	0
 8935 1afc 2C       		.uleb128 0x2c
 8936 1afd AA2A0000 		.4byte	0x2aaa
 8937 1b01 1A000000 		.4byte	.LBB475
 8938 1b05 78060000 		.4byte	.Ldebug_ranges0+0x678
 8939 1b09 01       		.byte	0x1
 8940 1b0a B202     		.2byte	0x2b2
 8941 1b0c 231B0000 		.4byte	0x1b23
 8942 1b10 2D       		.uleb128 0x2d
 8943 1b11 BA2A0000 		.4byte	0x2aba
 8944 1b15 59120000 		.4byte	.LLST205
 8945 1b19 2D       		.uleb128 0x2d
 8946 1b1a BA2A0000 		.4byte	0x2aba
 8947 1b1e 7A120000 		.4byte	.LLST206
 8948 1b22 00       		.byte	0
 8949 1b23 2C       		.uleb128 0x2c
 8950 1b24 AA2A0000 		.4byte	0x2aaa
 8951 1b28 24000000 		.4byte	.LBB483
 8952 1b2c A0060000 		.4byte	.Ldebug_ranges0+0x6a0
 8953 1b30 01       		.byte	0x1
ARM GAS  /var/folders/d2/nstgp4h54kz7g1l847x_b8wc0000gn/T//cccORz8f.s 			page 161


 8954 1b31 B302     		.2byte	0x2b3
 8955 1b33 4A1B0000 		.4byte	0x1b4a
 8956 1b37 2D       		.uleb128 0x2d
 8957 1b38 BA2A0000 		.4byte	0x2aba
 8958 1b3c 9B120000 		.4byte	.LLST207
 8959 1b40 2D       		.uleb128 0x2d
 8960 1b41 BA2A0000 		.4byte	0x2aba
 8961 1b45 BC120000 		.4byte	.LLST208
 8962 1b49 00       		.byte	0
 8963 1b4a 2C       		.uleb128 0x2c
 8964 1b4b AA2A0000 		.4byte	0x2aaa
 8965 1b4f 34000000 		.4byte	.LBB493
 8966 1b53 C8060000 		.4byte	.Ldebug_ranges0+0x6c8
 8967 1b57 01       		.byte	0x1
 8968 1b58 B602     		.2byte	0x2b6
 8969 1b5a 711B0000 		.4byte	0x1b71
 8970 1b5e 2D       		.uleb128 0x2d
 8971 1b5f BA2A0000 		.4byte	0x2aba
 8972 1b63 DD120000 		.4byte	.LLST209
 8973 1b67 2D       		.uleb128 0x2d
 8974 1b68 BA2A0000 		.4byte	0x2aba
 8975 1b6c FE120000 		.4byte	.LLST210
 8976 1b70 00       		.byte	0
 8977 1b71 2F       		.uleb128 0x2f
 8978 1b72 CA000000 		.4byte	.LVL266
 8979 1b76 552C0000 		.4byte	0x2c55
 8980 1b7a 00       		.byte	0
 8981 1b7b 28       		.uleb128 0x28
 8982 1b7c ED0D0000 		.4byte	.LASF248
 8983 1b80 01       		.byte	0x1
 8984 1b81 6102     		.2byte	0x261
 8985 1b83 00000000 		.4byte	.LFB16
 8986 1b87 B4000000 		.4byte	.LFE16-.LFB16
 8987 1b8b 01       		.uleb128 0x1
 8988 1b8c 9C       		.byte	0x9c
 8989 1b8d D71C0000 		.4byte	0x1cd7
 8990 1b91 29       		.uleb128 0x29
 8991 1b92 766D00   		.ascii	"vm\000"
 8992 1b95 01       		.byte	0x1
 8993 1b96 6102     		.2byte	0x261
 8994 1b98 E10A0000 		.4byte	0xae1
 8995 1b9c 1F130000 		.4byte	.LLST177
 8996 1ba0 27       		.uleb128 0x27
 8997 1ba1 CC120000 		.4byte	.LASF216
 8998 1ba5 01       		.byte	0x1
 8999 1ba6 6402     		.2byte	0x264
 9000 1ba8 040A0000 		.4byte	0xa04
 9001 1bac 01       		.uleb128 0x1
 9002 1bad 56       		.byte	0x56
 9003 1bae 2A       		.uleb128 0x2a
 9004 1baf 1E000000 		.4byte	.LASF249
 9005 1bb3 01       		.byte	0x1
 9006 1bb4 6502     		.2byte	0x265
 9007 1bb6 040A0000 		.4byte	0xa04
 9008 1bba 59130000 		.4byte	.LLST178
 9009 1bbe 2A       		.uleb128 0x2a
 9010 1bbf 72050000 		.4byte	.LASF250
ARM GAS  /var/folders/d2/nstgp4h54kz7g1l847x_b8wc0000gn/T//cccORz8f.s 			page 162


 9011 1bc3 01       		.byte	0x1
 9012 1bc4 6602     		.2byte	0x266
 9013 1bc6 040A0000 		.4byte	0xa04
 9014 1bca 82130000 		.4byte	.LLST179
 9015 1bce 27       		.uleb128 0x27
 9016 1bcf 48040000 		.4byte	.LASF251
 9017 1bd3 01       		.byte	0x1
 9018 1bd4 6702     		.2byte	0x267
 9019 1bd6 F4090000 		.4byte	0x9f4
 9020 1bda 01       		.uleb128 0x1
 9021 1bdb 57       		.byte	0x57
 9022 1bdc 2A       		.uleb128 0x2a
 9023 1bdd 300C0000 		.4byte	.LASF211
 9024 1be1 01       		.byte	0x1
 9025 1be2 6A02     		.2byte	0x26a
 9026 1be4 040A0000 		.4byte	0xa04
 9027 1be8 A0130000 		.4byte	.LLST180
 9028 1bec 2B       		.uleb128 0x2b
 9029 1bed 72657300 		.ascii	"res\000"
 9030 1bf1 01       		.byte	0x1
 9031 1bf2 6B02     		.2byte	0x26b
 9032 1bf4 DE090000 		.4byte	0x9de
 9033 1bf8 FE130000 		.4byte	.LLST181
 9034 1bfc 2B       		.uleb128 0x2b
 9035 1bfd 6900     		.ascii	"i\000"
 9036 1bff 01       		.byte	0x1
 9037 1c00 6C02     		.2byte	0x26c
 9038 1c02 040A0000 		.4byte	0xa04
 9039 1c06 29140000 		.4byte	.LLST182
 9040 1c0a 2C       		.uleb128 0x2c
 9041 1c0b AA2A0000 		.4byte	0x2aaa
 9042 1c0f 04000000 		.4byte	.LBB430
 9043 1c13 80050000 		.4byte	.Ldebug_ranges0+0x580
 9044 1c17 01       		.byte	0x1
 9045 1c18 6402     		.2byte	0x264
 9046 1c1a 311C0000 		.4byte	0x1c31
 9047 1c1e 2D       		.uleb128 0x2d
 9048 1c1f BA2A0000 		.4byte	0x2aba
 9049 1c23 3D140000 		.4byte	.LLST183
 9050 1c27 2D       		.uleb128 0x2d
 9051 1c28 BA2A0000 		.4byte	0x2aba
 9052 1c2c 77140000 		.4byte	.LLST184
 9053 1c30 00       		.byte	0
 9054 1c31 2C       		.uleb128 0x2c
 9055 1c32 AA2A0000 		.4byte	0x2aaa
 9056 1c36 14000000 		.4byte	.LBB435
 9057 1c3a A0050000 		.4byte	.Ldebug_ranges0+0x5a0
 9058 1c3e 01       		.byte	0x1
 9059 1c3f 6502     		.2byte	0x265
 9060 1c41 581C0000 		.4byte	0x1c58
 9061 1c45 2D       		.uleb128 0x2d
 9062 1c46 BA2A0000 		.4byte	0x2aba
 9063 1c4a B1140000 		.4byte	.LLST185
 9064 1c4e 2D       		.uleb128 0x2d
 9065 1c4f BA2A0000 		.4byte	0x2aba
 9066 1c53 EB140000 		.4byte	.LLST186
 9067 1c57 00       		.byte	0
ARM GAS  /var/folders/d2/nstgp4h54kz7g1l847x_b8wc0000gn/T//cccORz8f.s 			page 163


 9068 1c58 2C       		.uleb128 0x2c
 9069 1c59 AA2A0000 		.4byte	0x2aaa
 9070 1c5d 1E000000 		.4byte	.LBB442
 9071 1c61 C8050000 		.4byte	.Ldebug_ranges0+0x5c8
 9072 1c65 01       		.byte	0x1
 9073 1c66 6602     		.2byte	0x266
 9074 1c68 7F1C0000 		.4byte	0x1c7f
 9075 1c6c 2D       		.uleb128 0x2d
 9076 1c6d BA2A0000 		.4byte	0x2aba
 9077 1c71 25150000 		.4byte	.LLST187
 9078 1c75 2D       		.uleb128 0x2d
 9079 1c76 BA2A0000 		.4byte	0x2aba
 9080 1c7a 5F150000 		.4byte	.LLST188
 9081 1c7e 00       		.byte	0
 9082 1c7f 2C       		.uleb128 0x2c
 9083 1c80 AA2A0000 		.4byte	0x2aaa
 9084 1c84 2A000000 		.4byte	.LBB449
 9085 1c88 F0050000 		.4byte	.Ldebug_ranges0+0x5f0
 9086 1c8c 01       		.byte	0x1
 9087 1c8d 6702     		.2byte	0x267
 9088 1c8f A61C0000 		.4byte	0x1ca6
 9089 1c93 2D       		.uleb128 0x2d
 9090 1c94 BA2A0000 		.4byte	0x2aba
 9091 1c98 99150000 		.4byte	.LLST189
 9092 1c9c 2D       		.uleb128 0x2d
 9093 1c9d BA2A0000 		.4byte	0x2aba
 9094 1ca1 D3150000 		.4byte	.LLST190
 9095 1ca5 00       		.byte	0
 9096 1ca6 2C       		.uleb128 0x2c
 9097 1ca7 AA2A0000 		.4byte	0x2aaa
 9098 1cab 4E000000 		.4byte	.LBB458
 9099 1caf 10060000 		.4byte	.Ldebug_ranges0+0x610
 9100 1cb3 01       		.byte	0x1
 9101 1cb4 6A02     		.2byte	0x26a
 9102 1cb6 CD1C0000 		.4byte	0x1ccd
 9103 1cba 2D       		.uleb128 0x2d
 9104 1cbb BA2A0000 		.4byte	0x2aba
 9105 1cbf 0D160000 		.4byte	.LLST191
 9106 1cc3 2D       		.uleb128 0x2d
 9107 1cc4 BA2A0000 		.4byte	0x2aba
 9108 1cc8 47160000 		.4byte	.LLST192
 9109 1ccc 00       		.byte	0
 9110 1ccd 2F       		.uleb128 0x2f
 9111 1cce AE000000 		.4byte	.LVL245
 9112 1cd2 552C0000 		.4byte	0x2c55
 9113 1cd6 00       		.byte	0
 9114 1cd7 28       		.uleb128 0x28
 9115 1cd8 8C0A0000 		.4byte	.LASF252
 9116 1cdc 01       		.byte	0x1
 9117 1cdd 3E02     		.2byte	0x23e
 9118 1cdf 00000000 		.4byte	.LFB15
 9119 1ce3 AC000000 		.4byte	.LFE15-.LFB15
 9120 1ce7 01       		.uleb128 0x1
 9121 1ce8 9C       		.byte	0x9c
 9122 1ce9 6B1E0000 		.4byte	0x1e6b
 9123 1ced 29       		.uleb128 0x29
 9124 1cee 766D00   		.ascii	"vm\000"
ARM GAS  /var/folders/d2/nstgp4h54kz7g1l847x_b8wc0000gn/T//cccORz8f.s 			page 164


 9125 1cf1 01       		.byte	0x1
 9126 1cf2 3E02     		.2byte	0x23e
 9127 1cf4 E10A0000 		.4byte	0xae1
 9128 1cf8 81160000 		.4byte	.LLST156
 9129 1cfc 2A       		.uleb128 0x2a
 9130 1cfd CC120000 		.4byte	.LASF216
 9131 1d01 01       		.byte	0x1
 9132 1d02 4102     		.2byte	0x241
 9133 1d04 040A0000 		.4byte	0xa04
 9134 1d08 A2160000 		.4byte	.LLST157
 9135 1d0c 2B       		.uleb128 0x2b
 9136 1d0d 73726300 		.ascii	"src\000"
 9137 1d11 01       		.byte	0x1
 9138 1d12 4202     		.2byte	0x242
 9139 1d14 040A0000 		.4byte	0xa04
 9140 1d18 C0160000 		.4byte	.LLST158
 9141 1d1c 2B       		.uleb128 0x2b
 9142 1d1d 6C6F7700 		.ascii	"low\000"
 9143 1d21 01       		.byte	0x1
 9144 1d22 4302     		.2byte	0x243
 9145 1d24 040A0000 		.4byte	0xa04
 9146 1d28 EB160000 		.4byte	.LLST159
 9147 1d2c 2A       		.uleb128 0x2a
 9148 1d2d 0E050000 		.4byte	.LASF253
 9149 1d31 01       		.byte	0x1
 9150 1d32 4402     		.2byte	0x244
 9151 1d34 040A0000 		.4byte	0xa04
 9152 1d38 FE160000 		.4byte	.LLST160
 9153 1d3c 2A       		.uleb128 0x2a
 9154 1d3d 300C0000 		.4byte	.LASF211
 9155 1d41 01       		.byte	0x1
 9156 1d42 4702     		.2byte	0x247
 9157 1d44 040A0000 		.4byte	0xa04
 9158 1d48 11170000 		.4byte	.LLST161
 9159 1d4c 2B       		.uleb128 0x2b
 9160 1d4d 6900     		.ascii	"i\000"
 9161 1d4f 01       		.byte	0x1
 9162 1d50 4902     		.2byte	0x249
 9163 1d52 040A0000 		.4byte	0xa04
 9164 1d56 35170000 		.4byte	.LLST162
 9165 1d5a 36       		.uleb128 0x36
 9166 1d5b 68050000 		.4byte	.Ldebug_ranges0+0x568
 9167 1d5f 9E1D0000 		.4byte	0x1d9e
 9168 1d63 2B       		.uleb128 0x2b
 9169 1d64 7600     		.ascii	"v\000"
 9170 1d66 01       		.byte	0x1
 9171 1d67 4C02     		.2byte	0x24c
 9172 1d69 F4090000 		.4byte	0x9f4
 9173 1d6d 49170000 		.4byte	.LLST173
 9174 1d71 2B       		.uleb128 0x2b
 9175 1d72 6C00     		.ascii	"l\000"
 9176 1d74 01       		.byte	0x1
 9177 1d75 4D02     		.2byte	0x24d
 9178 1d77 F4090000 		.4byte	0x9f4
 9179 1d7b 5C170000 		.4byte	.LLST174
 9180 1d7f 2B       		.uleb128 0x2b
 9181 1d80 6800     		.ascii	"h\000"
ARM GAS  /var/folders/d2/nstgp4h54kz7g1l847x_b8wc0000gn/T//cccORz8f.s 			page 165


 9182 1d82 01       		.byte	0x1
 9183 1d83 4E02     		.2byte	0x24e
 9184 1d85 F4090000 		.4byte	0x9f4
 9185 1d89 6F170000 		.4byte	.LLST175
 9186 1d8d 2B       		.uleb128 0x2b
 9187 1d8e 72657300 		.ascii	"res\000"
 9188 1d92 01       		.byte	0x1
 9189 1d93 4F02     		.2byte	0x24f
 9190 1d95 F4090000 		.4byte	0x9f4
 9191 1d99 82170000 		.4byte	.LLST176
 9192 1d9d 00       		.byte	0
 9193 1d9e 2C       		.uleb128 0x2c
 9194 1d9f AA2A0000 		.4byte	0x2aaa
 9195 1da3 04000000 		.4byte	.LBB400
 9196 1da7 D0040000 		.4byte	.Ldebug_ranges0+0x4d0
 9197 1dab 01       		.byte	0x1
 9198 1dac 4102     		.2byte	0x241
 9199 1dae C51D0000 		.4byte	0x1dc5
 9200 1db2 2D       		.uleb128 0x2d
 9201 1db3 BA2A0000 		.4byte	0x2aba
 9202 1db7 95170000 		.4byte	.LLST163
 9203 1dbb 2D       		.uleb128 0x2d
 9204 1dbc BA2A0000 		.4byte	0x2aba
 9205 1dc0 B6170000 		.4byte	.LLST164
 9206 1dc4 00       		.byte	0
 9207 1dc5 2C       		.uleb128 0x2c
 9208 1dc6 AA2A0000 		.4byte	0x2aaa
 9209 1dca 14000000 		.4byte	.LBB405
 9210 1dce F0040000 		.4byte	.Ldebug_ranges0+0x4f0
 9211 1dd2 01       		.byte	0x1
 9212 1dd3 4202     		.2byte	0x242
 9213 1dd5 EC1D0000 		.4byte	0x1dec
 9214 1dd9 2D       		.uleb128 0x2d
 9215 1dda BA2A0000 		.4byte	0x2aba
 9216 1dde D7170000 		.4byte	.LLST165
 9217 1de2 2D       		.uleb128 0x2d
 9218 1de3 BA2A0000 		.4byte	0x2aba
 9219 1de7 F8170000 		.4byte	.LLST166
 9220 1deb 00       		.byte	0
 9221 1dec 2C       		.uleb128 0x2c
 9222 1ded AA2A0000 		.4byte	0x2aaa
 9223 1df1 1A000000 		.4byte	.LBB411
 9224 1df5 10050000 		.4byte	.Ldebug_ranges0+0x510
 9225 1df9 01       		.byte	0x1
 9226 1dfa 4302     		.2byte	0x243
 9227 1dfc 131E0000 		.4byte	0x1e13
 9228 1e00 2D       		.uleb128 0x2d
 9229 1e01 BA2A0000 		.4byte	0x2aba
 9230 1e05 19180000 		.4byte	.LLST167
 9231 1e09 2D       		.uleb128 0x2d
 9232 1e0a BA2A0000 		.4byte	0x2aba
 9233 1e0e 3A180000 		.4byte	.LLST168
 9234 1e12 00       		.byte	0
 9235 1e13 2C       		.uleb128 0x2c
 9236 1e14 AA2A0000 		.4byte	0x2aaa
 9237 1e18 24000000 		.4byte	.LBB417
 9238 1e1c 30050000 		.4byte	.Ldebug_ranges0+0x530
ARM GAS  /var/folders/d2/nstgp4h54kz7g1l847x_b8wc0000gn/T//cccORz8f.s 			page 166


 9239 1e20 01       		.byte	0x1
 9240 1e21 4402     		.2byte	0x244
 9241 1e23 3A1E0000 		.4byte	0x1e3a
 9242 1e27 2D       		.uleb128 0x2d
 9243 1e28 BA2A0000 		.4byte	0x2aba
 9244 1e2c 5B180000 		.4byte	.LLST169
 9245 1e30 2D       		.uleb128 0x2d
 9246 1e31 BA2A0000 		.4byte	0x2aba
 9247 1e35 7C180000 		.4byte	.LLST170
 9248 1e39 00       		.byte	0
 9249 1e3a 2C       		.uleb128 0x2c
 9250 1e3b AA2A0000 		.4byte	0x2aaa
 9251 1e3f 34000000 		.4byte	.LBB424
 9252 1e43 50050000 		.4byte	.Ldebug_ranges0+0x550
 9253 1e47 01       		.byte	0x1
 9254 1e48 4702     		.2byte	0x247
 9255 1e4a 611E0000 		.4byte	0x1e61
 9256 1e4e 2D       		.uleb128 0x2d
 9257 1e4f BA2A0000 		.4byte	0x2aba
 9258 1e53 9D180000 		.4byte	.LLST171
 9259 1e57 2D       		.uleb128 0x2d
 9260 1e58 BA2A0000 		.4byte	0x2aba
 9261 1e5c BE180000 		.4byte	.LLST172
 9262 1e60 00       		.byte	0
 9263 1e61 2F       		.uleb128 0x2f
 9264 1e62 A6000000 		.4byte	.LVL225
 9265 1e66 552C0000 		.4byte	0x2c55
 9266 1e6a 00       		.byte	0
 9267 1e6b 28       		.uleb128 0x28
 9268 1e6c AC070000 		.4byte	.LASF254
 9269 1e70 01       		.byte	0x1
 9270 1e71 1E02     		.2byte	0x21e
 9271 1e73 00000000 		.4byte	.LFB14
 9272 1e77 80000000 		.4byte	.LFE14-.LFB14
 9273 1e7b 01       		.uleb128 0x1
 9274 1e7c 9C       		.byte	0x9c
 9275 1e7d B01F0000 		.4byte	0x1fb0
 9276 1e81 29       		.uleb128 0x29
 9277 1e82 766D00   		.ascii	"vm\000"
 9278 1e85 01       		.byte	0x1
 9279 1e86 1E02     		.2byte	0x21e
 9280 1e88 E10A0000 		.4byte	0xae1
 9281 1e8c DF180000 		.4byte	.LLST142
 9282 1e90 2A       		.uleb128 0x2a
 9283 1e91 CC120000 		.4byte	.LASF216
 9284 1e95 01       		.byte	0x1
 9285 1e96 2102     		.2byte	0x221
 9286 1e98 040A0000 		.4byte	0xa04
 9287 1e9c 00190000 		.4byte	.LLST143
 9288 1ea0 2A       		.uleb128 0x2a
 9289 1ea1 1E000000 		.4byte	.LASF249
 9290 1ea5 01       		.byte	0x1
 9291 1ea6 2202     		.2byte	0x222
 9292 1ea8 040A0000 		.4byte	0xa04
 9293 1eac 13190000 		.4byte	.LLST144
 9294 1eb0 2A       		.uleb128 0x2a
 9295 1eb1 72050000 		.4byte	.LASF250
ARM GAS  /var/folders/d2/nstgp4h54kz7g1l847x_b8wc0000gn/T//cccORz8f.s 			page 167


 9296 1eb5 01       		.byte	0x1
 9297 1eb6 2302     		.2byte	0x223
 9298 1eb8 040A0000 		.4byte	0xa04
 9299 1ebc 31190000 		.4byte	.LLST145
 9300 1ec0 2A       		.uleb128 0x2a
 9301 1ec1 300C0000 		.4byte	.LASF211
 9302 1ec5 01       		.byte	0x1
 9303 1ec6 2602     		.2byte	0x226
 9304 1ec8 040A0000 		.4byte	0xa04
 9305 1ecc 44190000 		.4byte	.LLST146
 9306 1ed0 2B       		.uleb128 0x2b
 9307 1ed1 6900     		.ascii	"i\000"
 9308 1ed3 01       		.byte	0x1
 9309 1ed4 2802     		.2byte	0x228
 9310 1ed6 040A0000 		.4byte	0xa04
 9311 1eda 68190000 		.4byte	.LLST147
 9312 1ede 36       		.uleb128 0x36
 9313 1edf B8040000 		.4byte	.Ldebug_ranges0+0x4b8
 9314 1ee3 0A1F0000 		.4byte	0x1f0a
 9315 1ee7 3E       		.uleb128 0x3e
 9316 1ee8 763100   		.ascii	"v1\000"
 9317 1eeb 01       		.byte	0x1
 9318 1eec 2B02     		.2byte	0x22b
 9319 1eee F4090000 		.4byte	0x9f4
 9320 1ef2 3E       		.uleb128 0x3e
 9321 1ef3 763200   		.ascii	"v2\000"
 9322 1ef6 01       		.byte	0x1
 9323 1ef7 2C02     		.2byte	0x22c
 9324 1ef9 F4090000 		.4byte	0x9f4
 9325 1efd 3E       		.uleb128 0x3e
 9326 1efe 72657300 		.ascii	"res\000"
 9327 1f02 01       		.byte	0x1
 9328 1f03 2D02     		.2byte	0x22d
 9329 1f05 F4090000 		.4byte	0x9f4
 9330 1f09 00       		.byte	0
 9331 1f0a 2C       		.uleb128 0x2c
 9332 1f0b AA2A0000 		.4byte	0x2aaa
 9333 1f0f 02000000 		.4byte	.LBB376
 9334 1f13 40040000 		.4byte	.Ldebug_ranges0+0x440
 9335 1f17 01       		.byte	0x1
 9336 1f18 2102     		.2byte	0x221
 9337 1f1a 311F0000 		.4byte	0x1f31
 9338 1f1e 2D       		.uleb128 0x2d
 9339 1f1f BA2A0000 		.4byte	0x2aba
 9340 1f23 7C190000 		.4byte	.LLST148
 9341 1f27 2D       		.uleb128 0x2d
 9342 1f28 BA2A0000 		.4byte	0x2aba
 9343 1f2c 9D190000 		.4byte	.LLST149
 9344 1f30 00       		.byte	0
 9345 1f31 2C       		.uleb128 0x2c
 9346 1f32 AA2A0000 		.4byte	0x2aaa
 9347 1f36 12000000 		.4byte	.LBB381
 9348 1f3a 60040000 		.4byte	.Ldebug_ranges0+0x460
 9349 1f3e 01       		.byte	0x1
 9350 1f3f 2202     		.2byte	0x222
 9351 1f41 581F0000 		.4byte	0x1f58
 9352 1f45 2D       		.uleb128 0x2d
ARM GAS  /var/folders/d2/nstgp4h54kz7g1l847x_b8wc0000gn/T//cccORz8f.s 			page 168


 9353 1f46 BA2A0000 		.4byte	0x2aba
 9354 1f4a BE190000 		.4byte	.LLST150
 9355 1f4e 2D       		.uleb128 0x2d
 9356 1f4f BA2A0000 		.4byte	0x2aba
 9357 1f53 DF190000 		.4byte	.LLST151
 9358 1f57 00       		.byte	0
 9359 1f58 2C       		.uleb128 0x2c
 9360 1f59 AA2A0000 		.4byte	0x2aaa
 9361 1f5d 18000000 		.4byte	.LBB387
 9362 1f61 80040000 		.4byte	.Ldebug_ranges0+0x480
 9363 1f65 01       		.byte	0x1
 9364 1f66 2302     		.2byte	0x223
 9365 1f68 7F1F0000 		.4byte	0x1f7f
 9366 1f6c 2D       		.uleb128 0x2d
 9367 1f6d BA2A0000 		.4byte	0x2aba
 9368 1f71 001A0000 		.4byte	.LLST152
 9369 1f75 2D       		.uleb128 0x2d
 9370 1f76 BA2A0000 		.4byte	0x2aba
 9371 1f7a 211A0000 		.4byte	.LLST153
 9372 1f7e 00       		.byte	0
 9373 1f7f 2C       		.uleb128 0x2c
 9374 1f80 AA2A0000 		.4byte	0x2aaa
 9375 1f84 28000000 		.4byte	.LBB394
 9376 1f88 A0040000 		.4byte	.Ldebug_ranges0+0x4a0
 9377 1f8c 01       		.byte	0x1
 9378 1f8d 2602     		.2byte	0x226
 9379 1f8f A61F0000 		.4byte	0x1fa6
 9380 1f93 2D       		.uleb128 0x2d
 9381 1f94 BA2A0000 		.4byte	0x2aba
 9382 1f98 421A0000 		.4byte	.LLST154
 9383 1f9c 2D       		.uleb128 0x2d
 9384 1f9d BA2A0000 		.4byte	0x2aba
 9385 1fa1 631A0000 		.4byte	.LLST155
 9386 1fa5 00       		.byte	0
 9387 1fa6 2F       		.uleb128 0x2f
 9388 1fa7 7C000000 		.4byte	.LVL208
 9389 1fab 552C0000 		.4byte	0x2c55
 9390 1faf 00       		.byte	0
 9391 1fb0 28       		.uleb128 0x28
 9392 1fb1 BC110000 		.4byte	.LASF255
 9393 1fb5 01       		.byte	0x1
 9394 1fb6 FD01     		.2byte	0x1fd
 9395 1fb8 00000000 		.4byte	.LFB13
 9396 1fbc 80000000 		.4byte	.LFE13-.LFB13
 9397 1fc0 01       		.uleb128 0x1
 9398 1fc1 9C       		.byte	0x9c
 9399 1fc2 F5200000 		.4byte	0x20f5
 9400 1fc6 29       		.uleb128 0x29
 9401 1fc7 766D00   		.ascii	"vm\000"
 9402 1fca 01       		.byte	0x1
 9403 1fcb FD01     		.2byte	0x1fd
 9404 1fcd E10A0000 		.4byte	0xae1
 9405 1fd1 841A0000 		.4byte	.LLST128
 9406 1fd5 2A       		.uleb128 0x2a
 9407 1fd6 CC120000 		.4byte	.LASF216
 9408 1fda 01       		.byte	0x1
 9409 1fdb 0002     		.2byte	0x200
ARM GAS  /var/folders/d2/nstgp4h54kz7g1l847x_b8wc0000gn/T//cccORz8f.s 			page 169


 9410 1fdd 040A0000 		.4byte	0xa04
 9411 1fe1 A51A0000 		.4byte	.LLST129
 9412 1fe5 2A       		.uleb128 0x2a
 9413 1fe6 1E000000 		.4byte	.LASF249
 9414 1fea 01       		.byte	0x1
 9415 1feb 0102     		.2byte	0x201
 9416 1fed 040A0000 		.4byte	0xa04
 9417 1ff1 B81A0000 		.4byte	.LLST130
 9418 1ff5 2A       		.uleb128 0x2a
 9419 1ff6 72050000 		.4byte	.LASF250
 9420 1ffa 01       		.byte	0x1
 9421 1ffb 0202     		.2byte	0x202
 9422 1ffd 040A0000 		.4byte	0xa04
 9423 2001 D61A0000 		.4byte	.LLST131
 9424 2005 2A       		.uleb128 0x2a
 9425 2006 300C0000 		.4byte	.LASF211
 9426 200a 01       		.byte	0x1
 9427 200b 0502     		.2byte	0x205
 9428 200d 040A0000 		.4byte	0xa04
 9429 2011 E91A0000 		.4byte	.LLST132
 9430 2015 2B       		.uleb128 0x2b
 9431 2016 6900     		.ascii	"i\000"
 9432 2018 01       		.byte	0x1
 9433 2019 0702     		.2byte	0x207
 9434 201b 040A0000 		.4byte	0xa04
 9435 201f 0D1B0000 		.4byte	.LLST133
 9436 2023 36       		.uleb128 0x36
 9437 2024 28040000 		.4byte	.Ldebug_ranges0+0x428
 9438 2028 4F200000 		.4byte	0x204f
 9439 202c 3E       		.uleb128 0x3e
 9440 202d 763100   		.ascii	"v1\000"
 9441 2030 01       		.byte	0x1
 9442 2031 0A02     		.2byte	0x20a
 9443 2033 F4090000 		.4byte	0x9f4
 9444 2037 3E       		.uleb128 0x3e
 9445 2038 763200   		.ascii	"v2\000"
 9446 203b 01       		.byte	0x1
 9447 203c 0B02     		.2byte	0x20b
 9448 203e F4090000 		.4byte	0x9f4
 9449 2042 3E       		.uleb128 0x3e
 9450 2043 72657300 		.ascii	"res\000"
 9451 2047 01       		.byte	0x1
 9452 2048 0C02     		.2byte	0x20c
 9453 204a F4090000 		.4byte	0x9f4
 9454 204e 00       		.byte	0
 9455 204f 2C       		.uleb128 0x2c
 9456 2050 AA2A0000 		.4byte	0x2aaa
 9457 2054 02000000 		.4byte	.LBB352
 9458 2058 B0030000 		.4byte	.Ldebug_ranges0+0x3b0
 9459 205c 01       		.byte	0x1
 9460 205d 0002     		.2byte	0x200
 9461 205f 76200000 		.4byte	0x2076
 9462 2063 2D       		.uleb128 0x2d
 9463 2064 BA2A0000 		.4byte	0x2aba
 9464 2068 211B0000 		.4byte	.LLST134
 9465 206c 2D       		.uleb128 0x2d
 9466 206d BA2A0000 		.4byte	0x2aba
ARM GAS  /var/folders/d2/nstgp4h54kz7g1l847x_b8wc0000gn/T//cccORz8f.s 			page 170


 9467 2071 421B0000 		.4byte	.LLST135
 9468 2075 00       		.byte	0
 9469 2076 2C       		.uleb128 0x2c
 9470 2077 AA2A0000 		.4byte	0x2aaa
 9471 207b 12000000 		.4byte	.LBB357
 9472 207f D0030000 		.4byte	.Ldebug_ranges0+0x3d0
 9473 2083 01       		.byte	0x1
 9474 2084 0102     		.2byte	0x201
 9475 2086 9D200000 		.4byte	0x209d
 9476 208a 2D       		.uleb128 0x2d
 9477 208b BA2A0000 		.4byte	0x2aba
 9478 208f 631B0000 		.4byte	.LLST136
 9479 2093 2D       		.uleb128 0x2d
 9480 2094 BA2A0000 		.4byte	0x2aba
 9481 2098 841B0000 		.4byte	.LLST137
 9482 209c 00       		.byte	0
 9483 209d 2C       		.uleb128 0x2c
 9484 209e AA2A0000 		.4byte	0x2aaa
 9485 20a2 18000000 		.4byte	.LBB363
 9486 20a6 F0030000 		.4byte	.Ldebug_ranges0+0x3f0
 9487 20aa 01       		.byte	0x1
 9488 20ab 0202     		.2byte	0x202
 9489 20ad C4200000 		.4byte	0x20c4
 9490 20b1 2D       		.uleb128 0x2d
 9491 20b2 BA2A0000 		.4byte	0x2aba
 9492 20b6 A51B0000 		.4byte	.LLST138
 9493 20ba 2D       		.uleb128 0x2d
 9494 20bb BA2A0000 		.4byte	0x2aba
 9495 20bf C61B0000 		.4byte	.LLST139
 9496 20c3 00       		.byte	0
 9497 20c4 2C       		.uleb128 0x2c
 9498 20c5 AA2A0000 		.4byte	0x2aaa
 9499 20c9 28000000 		.4byte	.LBB370
 9500 20cd 10040000 		.4byte	.Ldebug_ranges0+0x410
 9501 20d1 01       		.byte	0x1
 9502 20d2 0502     		.2byte	0x205
 9503 20d4 EB200000 		.4byte	0x20eb
 9504 20d8 2D       		.uleb128 0x2d
 9505 20d9 BA2A0000 		.4byte	0x2aba
 9506 20dd E71B0000 		.4byte	.LLST140
 9507 20e1 2D       		.uleb128 0x2d
 9508 20e2 BA2A0000 		.4byte	0x2aba
 9509 20e6 081C0000 		.4byte	.LLST141
 9510 20ea 00       		.byte	0
 9511 20eb 2F       		.uleb128 0x2f
 9512 20ec 7C000000 		.4byte	.LVL195
 9513 20f0 552C0000 		.4byte	0x2c55
 9514 20f4 00       		.byte	0
 9515 20f5 28       		.uleb128 0x28
 9516 20f6 D0060000 		.4byte	.LASF256
 9517 20fa 01       		.byte	0x1
 9518 20fb D301     		.2byte	0x1d3
 9519 20fd 00000000 		.4byte	.LFB12
 9520 2101 C4000000 		.4byte	.LFE12-.LFB12
 9521 2105 01       		.uleb128 0x1
 9522 2106 9C       		.byte	0x9c
 9523 2107 5E220000 		.4byte	0x225e
ARM GAS  /var/folders/d2/nstgp4h54kz7g1l847x_b8wc0000gn/T//cccORz8f.s 			page 171


 9524 210b 29       		.uleb128 0x29
 9525 210c 766D00   		.ascii	"vm\000"
 9526 210f 01       		.byte	0x1
 9527 2110 D301     		.2byte	0x1d3
 9528 2112 E10A0000 		.4byte	0xae1
 9529 2116 291C0000 		.4byte	.LLST112
 9530 211a 2A       		.uleb128 0x2a
 9531 211b CC120000 		.4byte	.LASF216
 9532 211f 01       		.byte	0x1
 9533 2120 D601     		.2byte	0x1d6
 9534 2122 040A0000 		.4byte	0xa04
 9535 2126 631C0000 		.4byte	.LLST113
 9536 212a 2A       		.uleb128 0x2a
 9537 212b 1E000000 		.4byte	.LASF249
 9538 212f 01       		.byte	0x1
 9539 2130 D701     		.2byte	0x1d7
 9540 2132 040A0000 		.4byte	0xa04
 9541 2136 831C0000 		.4byte	.LLST114
 9542 213a 2A       		.uleb128 0x2a
 9543 213b 72050000 		.4byte	.LASF250
 9544 213f 01       		.byte	0x1
 9545 2140 D801     		.2byte	0x1d8
 9546 2142 040A0000 		.4byte	0xa04
 9547 2146 B71C0000 		.4byte	.LLST115
 9548 214a 2A       		.uleb128 0x2a
 9549 214b 300C0000 		.4byte	.LASF211
 9550 214f 01       		.byte	0x1
 9551 2150 DB01     		.2byte	0x1db
 9552 2152 040A0000 		.4byte	0xa04
 9553 2156 ED1C0000 		.4byte	.LLST116
 9554 215a 2B       		.uleb128 0x2b
 9555 215b 6900     		.ascii	"i\000"
 9556 215d 01       		.byte	0x1
 9557 215e DD01     		.2byte	0x1dd
 9558 2160 040A0000 		.4byte	0xa04
 9559 2164 121D0000 		.4byte	.LLST117
 9560 2168 36       		.uleb128 0x36
 9561 2169 88030000 		.4byte	.Ldebug_ranges0+0x388
 9562 216d B8210000 		.4byte	0x21b8
 9563 2171 2A       		.uleb128 0x2a
 9564 2172 81070000 		.4byte	.LASF257
 9565 2176 01       		.byte	0x1
 9566 2177 E001     		.2byte	0x1e0
 9567 2179 DE090000 		.4byte	0x9de
 9568 217d 261D0000 		.4byte	.LLST126
 9569 2181 2A       		.uleb128 0x2a
 9570 2182 3B0E0000 		.4byte	.LASF258
 9571 2186 01       		.byte	0x1
 9572 2187 E101     		.2byte	0x1e1
 9573 2189 DE090000 		.4byte	0x9de
 9574 218d 4F1D0000 		.4byte	.LLST127
 9575 2191 40       		.uleb128 0x40
 9576 2192 BC000000 		.4byte	.LVL181
 9577 2196 5E2C0000 		.4byte	0x2c5e
 9578 219a 3C       		.uleb128 0x3c
 9579 219b 01       		.uleb128 0x1
 9580 219c 50       		.byte	0x50
ARM GAS  /var/folders/d2/nstgp4h54kz7g1l847x_b8wc0000gn/T//cccORz8f.s 			page 172


 9581 219d 03       		.uleb128 0x3
 9582 219e F3       		.byte	0xf3
 9583 219f 01       		.uleb128 0x1
 9584 21a0 50       		.byte	0x50
 9585 21a1 3C       		.uleb128 0x3c
 9586 21a2 01       		.uleb128 0x1
 9587 21a3 51       		.byte	0x51
 9588 21a4 03       		.uleb128 0x3
 9589 21a5 0B       		.byte	0xb
 9590 21a6 0790     		.2byte	0x9007
 9591 21a8 3C       		.uleb128 0x3c
 9592 21a9 01       		.uleb128 0x1
 9593 21aa 52       		.byte	0x52
 9594 21ab 05       		.uleb128 0x5
 9595 21ac F3       		.byte	0xf3
 9596 21ad 01       		.uleb128 0x1
 9597 21ae 50       		.byte	0x50
 9598 21af 23       		.byte	0x23
 9599 21b0 1A       		.uleb128 0x1a
 9600 21b1 3C       		.uleb128 0x3c
 9601 21b2 01       		.uleb128 0x1
 9602 21b3 53       		.byte	0x53
 9603 21b4 01       		.uleb128 0x1
 9604 21b5 32       		.byte	0x32
 9605 21b6 00       		.byte	0
 9606 21b7 00       		.byte	0
 9607 21b8 2C       		.uleb128 0x2c
 9608 21b9 AA2A0000 		.4byte	0x2aaa
 9609 21bd 04000000 		.4byte	.LBB326
 9610 21c1 10030000 		.4byte	.Ldebug_ranges0+0x310
 9611 21c5 01       		.byte	0x1
 9612 21c6 D601     		.2byte	0x1d6
 9613 21c8 DF210000 		.4byte	0x21df
 9614 21cc 2D       		.uleb128 0x2d
 9615 21cd BA2A0000 		.4byte	0x2aba
 9616 21d1 781D0000 		.4byte	.LLST118
 9617 21d5 2D       		.uleb128 0x2d
 9618 21d6 BA2A0000 		.4byte	0x2aba
 9619 21da B21D0000 		.4byte	.LLST119
 9620 21de 00       		.byte	0
 9621 21df 2C       		.uleb128 0x2c
 9622 21e0 AA2A0000 		.4byte	0x2aaa
 9623 21e4 14000000 		.4byte	.LBB331
 9624 21e8 30030000 		.4byte	.Ldebug_ranges0+0x330
 9625 21ec 01       		.byte	0x1
 9626 21ed D701     		.2byte	0x1d7
 9627 21ef 06220000 		.4byte	0x2206
 9628 21f3 2D       		.uleb128 0x2d
 9629 21f4 BA2A0000 		.4byte	0x2aba
 9630 21f8 EC1D0000 		.4byte	.LLST120
 9631 21fc 2D       		.uleb128 0x2d
 9632 21fd BA2A0000 		.4byte	0x2aba
 9633 2201 261E0000 		.4byte	.LLST121
 9634 2205 00       		.byte	0
 9635 2206 2C       		.uleb128 0x2c
 9636 2207 AA2A0000 		.4byte	0x2aaa
 9637 220b 1A000000 		.4byte	.LBB337
ARM GAS  /var/folders/d2/nstgp4h54kz7g1l847x_b8wc0000gn/T//cccORz8f.s 			page 173


 9638 220f 50030000 		.4byte	.Ldebug_ranges0+0x350
 9639 2213 01       		.byte	0x1
 9640 2214 D801     		.2byte	0x1d8
 9641 2216 2D220000 		.4byte	0x222d
 9642 221a 2D       		.uleb128 0x2d
 9643 221b BA2A0000 		.4byte	0x2aba
 9644 221f 601E0000 		.4byte	.LLST122
 9645 2223 2D       		.uleb128 0x2d
 9646 2224 BA2A0000 		.4byte	0x2aba
 9647 2228 9A1E0000 		.4byte	.LLST123
 9648 222c 00       		.byte	0
 9649 222d 2C       		.uleb128 0x2c
 9650 222e AA2A0000 		.4byte	0x2aaa
 9651 2232 2A000000 		.4byte	.LBB344
 9652 2236 70030000 		.4byte	.Ldebug_ranges0+0x370
 9653 223a 01       		.byte	0x1
 9654 223b DB01     		.2byte	0x1db
 9655 223d 54220000 		.4byte	0x2254
 9656 2241 2D       		.uleb128 0x2d
 9657 2242 BA2A0000 		.4byte	0x2aba
 9658 2246 D41E0000 		.4byte	.LLST124
 9659 224a 2D       		.uleb128 0x2d
 9660 224b BA2A0000 		.4byte	0x2aba
 9661 224f 0E1F0000 		.4byte	.LLST125
 9662 2253 00       		.byte	0
 9663 2254 2F       		.uleb128 0x2f
 9664 2255 C0000000 		.4byte	.LVL182
 9665 2259 552C0000 		.4byte	0x2c55
 9666 225d 00       		.byte	0
 9667 225e 28       		.uleb128 0x28
 9668 225f 3E0D0000 		.4byte	.LASF259
 9669 2263 01       		.byte	0x1
 9670 2264 B501     		.2byte	0x1b5
 9671 2266 00000000 		.4byte	.LFB11
 9672 226a 80000000 		.4byte	.LFE11-.LFB11
 9673 226e 01       		.uleb128 0x1
 9674 226f 9C       		.byte	0x9c
 9675 2270 77230000 		.4byte	0x2377
 9676 2274 29       		.uleb128 0x29
 9677 2275 766D00   		.ascii	"vm\000"
 9678 2278 01       		.byte	0x1
 9679 2279 B501     		.2byte	0x1b5
 9680 227b E10A0000 		.4byte	0xae1
 9681 227f 481F0000 		.4byte	.LLST98
 9682 2283 2A       		.uleb128 0x2a
 9683 2284 CC120000 		.4byte	.LASF216
 9684 2288 01       		.byte	0x1
 9685 2289 B801     		.2byte	0x1b8
 9686 228b 040A0000 		.4byte	0xa04
 9687 228f 691F0000 		.4byte	.LLST99
 9688 2293 2A       		.uleb128 0x2a
 9689 2294 1E000000 		.4byte	.LASF249
 9690 2298 01       		.byte	0x1
 9691 2299 B901     		.2byte	0x1b9
 9692 229b 040A0000 		.4byte	0xa04
 9693 229f 7C1F0000 		.4byte	.LLST100
 9694 22a3 2A       		.uleb128 0x2a
ARM GAS  /var/folders/d2/nstgp4h54kz7g1l847x_b8wc0000gn/T//cccORz8f.s 			page 174


 9695 22a4 72050000 		.4byte	.LASF250
 9696 22a8 01       		.byte	0x1
 9697 22a9 BA01     		.2byte	0x1ba
 9698 22ab 040A0000 		.4byte	0xa04
 9699 22af 8F1F0000 		.4byte	.LLST101
 9700 22b3 2A       		.uleb128 0x2a
 9701 22b4 300C0000 		.4byte	.LASF211
 9702 22b8 01       		.byte	0x1
 9703 22b9 BD01     		.2byte	0x1bd
 9704 22bb 040A0000 		.4byte	0xa04
 9705 22bf A21F0000 		.4byte	.LLST102
 9706 22c3 2B       		.uleb128 0x2b
 9707 22c4 6900     		.ascii	"i\000"
 9708 22c6 01       		.byte	0x1
 9709 22c7 BF01     		.2byte	0x1bf
 9710 22c9 040A0000 		.4byte	0xa04
 9711 22cd C61F0000 		.4byte	.LLST103
 9712 22d1 2C       		.uleb128 0x2c
 9713 22d2 AA2A0000 		.4byte	0x2aaa
 9714 22d6 02000000 		.4byte	.LBB304
 9715 22da 98020000 		.4byte	.Ldebug_ranges0+0x298
 9716 22de 01       		.byte	0x1
 9717 22df B801     		.2byte	0x1b8
 9718 22e1 F8220000 		.4byte	0x22f8
 9719 22e5 2D       		.uleb128 0x2d
 9720 22e6 BA2A0000 		.4byte	0x2aba
 9721 22ea DA1F0000 		.4byte	.LLST104
 9722 22ee 2D       		.uleb128 0x2d
 9723 22ef BA2A0000 		.4byte	0x2aba
 9724 22f3 FB1F0000 		.4byte	.LLST105
 9725 22f7 00       		.byte	0
 9726 22f8 2C       		.uleb128 0x2c
 9727 22f9 AA2A0000 		.4byte	0x2aaa
 9728 22fd 12000000 		.4byte	.LBB309
 9729 2301 B8020000 		.4byte	.Ldebug_ranges0+0x2b8
 9730 2305 01       		.byte	0x1
 9731 2306 B901     		.2byte	0x1b9
 9732 2308 1F230000 		.4byte	0x231f
 9733 230c 2D       		.uleb128 0x2d
 9734 230d BA2A0000 		.4byte	0x2aba
 9735 2311 1C200000 		.4byte	.LLST106
 9736 2315 2D       		.uleb128 0x2d
 9737 2316 BA2A0000 		.4byte	0x2aba
 9738 231a 3D200000 		.4byte	.LLST107
 9739 231e 00       		.byte	0
 9740 231f 2C       		.uleb128 0x2c
 9741 2320 AA2A0000 		.4byte	0x2aaa
 9742 2324 18000000 		.4byte	.LBB315
 9743 2328 D8020000 		.4byte	.Ldebug_ranges0+0x2d8
 9744 232c 01       		.byte	0x1
 9745 232d BA01     		.2byte	0x1ba
 9746 232f 46230000 		.4byte	0x2346
 9747 2333 2D       		.uleb128 0x2d
 9748 2334 BA2A0000 		.4byte	0x2aba
 9749 2338 5E200000 		.4byte	.LLST108
 9750 233c 2D       		.uleb128 0x2d
 9751 233d BA2A0000 		.4byte	0x2aba
ARM GAS  /var/folders/d2/nstgp4h54kz7g1l847x_b8wc0000gn/T//cccORz8f.s 			page 175


 9752 2341 7F200000 		.4byte	.LLST109
 9753 2345 00       		.byte	0
 9754 2346 2C       		.uleb128 0x2c
 9755 2347 AA2A0000 		.4byte	0x2aaa
 9756 234b 28000000 		.4byte	.LBB322
 9757 234f F8020000 		.4byte	.Ldebug_ranges0+0x2f8
 9758 2353 01       		.byte	0x1
 9759 2354 BD01     		.2byte	0x1bd
 9760 2356 6D230000 		.4byte	0x236d
 9761 235a 2D       		.uleb128 0x2d
 9762 235b BA2A0000 		.4byte	0x2aba
 9763 235f A0200000 		.4byte	.LLST110
 9764 2363 2D       		.uleb128 0x2d
 9765 2364 BA2A0000 		.4byte	0x2aba
 9766 2368 C1200000 		.4byte	.LLST111
 9767 236c 00       		.byte	0
 9768 236d 2F       		.uleb128 0x2f
 9769 236e 7A000000 		.4byte	.LVL158
 9770 2372 552C0000 		.4byte	0x2c55
 9771 2376 00       		.byte	0
 9772 2377 28       		.uleb128 0x28
 9773 2378 59050000 		.4byte	.LASF260
 9774 237c 01       		.byte	0x1
 9775 237d 9701     		.2byte	0x197
 9776 237f 00000000 		.4byte	.LFB10
 9777 2383 80000000 		.4byte	.LFE10-.LFB10
 9778 2387 01       		.uleb128 0x1
 9779 2388 9C       		.byte	0x9c
 9780 2389 90240000 		.4byte	0x2490
 9781 238d 29       		.uleb128 0x29
 9782 238e 766D00   		.ascii	"vm\000"
 9783 2391 01       		.byte	0x1
 9784 2392 9701     		.2byte	0x197
 9785 2394 E10A0000 		.4byte	0xae1
 9786 2398 E2200000 		.4byte	.LLST84
 9787 239c 2A       		.uleb128 0x2a
 9788 239d CC120000 		.4byte	.LASF216
 9789 23a1 01       		.byte	0x1
 9790 23a2 9A01     		.2byte	0x19a
 9791 23a4 040A0000 		.4byte	0xa04
 9792 23a8 03210000 		.4byte	.LLST85
 9793 23ac 2A       		.uleb128 0x2a
 9794 23ad 1E000000 		.4byte	.LASF249
 9795 23b1 01       		.byte	0x1
 9796 23b2 9B01     		.2byte	0x19b
 9797 23b4 040A0000 		.4byte	0xa04
 9798 23b8 16210000 		.4byte	.LLST86
 9799 23bc 2A       		.uleb128 0x2a
 9800 23bd 72050000 		.4byte	.LASF250
 9801 23c1 01       		.byte	0x1
 9802 23c2 9C01     		.2byte	0x19c
 9803 23c4 040A0000 		.4byte	0xa04
 9804 23c8 29210000 		.4byte	.LLST87
 9805 23cc 2A       		.uleb128 0x2a
 9806 23cd 300C0000 		.4byte	.LASF211
 9807 23d1 01       		.byte	0x1
 9808 23d2 9F01     		.2byte	0x19f
ARM GAS  /var/folders/d2/nstgp4h54kz7g1l847x_b8wc0000gn/T//cccORz8f.s 			page 176


 9809 23d4 040A0000 		.4byte	0xa04
 9810 23d8 3C210000 		.4byte	.LLST88
 9811 23dc 2B       		.uleb128 0x2b
 9812 23dd 6900     		.ascii	"i\000"
 9813 23df 01       		.byte	0x1
 9814 23e0 A101     		.2byte	0x1a1
 9815 23e2 040A0000 		.4byte	0xa04
 9816 23e6 60210000 		.4byte	.LLST89
 9817 23ea 2C       		.uleb128 0x2c
 9818 23eb AA2A0000 		.4byte	0x2aaa
 9819 23ef 02000000 		.4byte	.LBB282
 9820 23f3 20020000 		.4byte	.Ldebug_ranges0+0x220
 9821 23f7 01       		.byte	0x1
 9822 23f8 9A01     		.2byte	0x19a
 9823 23fa 11240000 		.4byte	0x2411
 9824 23fe 2D       		.uleb128 0x2d
 9825 23ff BA2A0000 		.4byte	0x2aba
 9826 2403 74210000 		.4byte	.LLST90
 9827 2407 2D       		.uleb128 0x2d
 9828 2408 BA2A0000 		.4byte	0x2aba
 9829 240c 95210000 		.4byte	.LLST91
 9830 2410 00       		.byte	0
 9831 2411 2C       		.uleb128 0x2c
 9832 2412 AA2A0000 		.4byte	0x2aaa
 9833 2416 12000000 		.4byte	.LBB287
 9834 241a 40020000 		.4byte	.Ldebug_ranges0+0x240
 9835 241e 01       		.byte	0x1
 9836 241f 9B01     		.2byte	0x19b
 9837 2421 38240000 		.4byte	0x2438
 9838 2425 2D       		.uleb128 0x2d
 9839 2426 BA2A0000 		.4byte	0x2aba
 9840 242a B6210000 		.4byte	.LLST92
 9841 242e 2D       		.uleb128 0x2d
 9842 242f BA2A0000 		.4byte	0x2aba
 9843 2433 D7210000 		.4byte	.LLST93
 9844 2437 00       		.byte	0
 9845 2438 2C       		.uleb128 0x2c
 9846 2439 AA2A0000 		.4byte	0x2aaa
 9847 243d 18000000 		.4byte	.LBB293
 9848 2441 60020000 		.4byte	.Ldebug_ranges0+0x260
 9849 2445 01       		.byte	0x1
 9850 2446 9C01     		.2byte	0x19c
 9851 2448 5F240000 		.4byte	0x245f
 9852 244c 2D       		.uleb128 0x2d
 9853 244d BA2A0000 		.4byte	0x2aba
 9854 2451 F8210000 		.4byte	.LLST94
 9855 2455 2D       		.uleb128 0x2d
 9856 2456 BA2A0000 		.4byte	0x2aba
 9857 245a 19220000 		.4byte	.LLST95
 9858 245e 00       		.byte	0
 9859 245f 2C       		.uleb128 0x2c
 9860 2460 AA2A0000 		.4byte	0x2aaa
 9861 2464 28000000 		.4byte	.LBB300
 9862 2468 80020000 		.4byte	.Ldebug_ranges0+0x280
 9863 246c 01       		.byte	0x1
 9864 246d 9F01     		.2byte	0x19f
 9865 246f 86240000 		.4byte	0x2486
ARM GAS  /var/folders/d2/nstgp4h54kz7g1l847x_b8wc0000gn/T//cccORz8f.s 			page 177


 9866 2473 2D       		.uleb128 0x2d
 9867 2474 BA2A0000 		.4byte	0x2aba
 9868 2478 3A220000 		.4byte	.LLST96
 9869 247c 2D       		.uleb128 0x2d
 9870 247d BA2A0000 		.4byte	0x2aba
 9871 2481 5B220000 		.4byte	.LLST97
 9872 2485 00       		.byte	0
 9873 2486 2F       		.uleb128 0x2f
 9874 2487 7A000000 		.4byte	.LVL146
 9875 248b 552C0000 		.4byte	0x2c55
 9876 248f 00       		.byte	0
 9877 2490 28       		.uleb128 0x28
 9878 2491 F10F0000 		.4byte	.LASF261
 9879 2495 01       		.byte	0x1
 9880 2496 7901     		.2byte	0x179
 9881 2498 00000000 		.4byte	.LFB9
 9882 249c 7C000000 		.4byte	.LFE9-.LFB9
 9883 24a0 01       		.uleb128 0x1
 9884 24a1 9C       		.byte	0x9c
 9885 24a2 A9250000 		.4byte	0x25a9
 9886 24a6 29       		.uleb128 0x29
 9887 24a7 766D00   		.ascii	"vm\000"
 9888 24aa 01       		.byte	0x1
 9889 24ab 7901     		.2byte	0x179
 9890 24ad E10A0000 		.4byte	0xae1
 9891 24b1 7C220000 		.4byte	.LLST70
 9892 24b5 2A       		.uleb128 0x2a
 9893 24b6 CC120000 		.4byte	.LASF216
 9894 24ba 01       		.byte	0x1
 9895 24bb 7C01     		.2byte	0x17c
 9896 24bd 040A0000 		.4byte	0xa04
 9897 24c1 9D220000 		.4byte	.LLST71
 9898 24c5 2A       		.uleb128 0x2a
 9899 24c6 1E000000 		.4byte	.LASF249
 9900 24ca 01       		.byte	0x1
 9901 24cb 7D01     		.2byte	0x17d
 9902 24cd 040A0000 		.4byte	0xa04
 9903 24d1 B0220000 		.4byte	.LLST72
 9904 24d5 2A       		.uleb128 0x2a
 9905 24d6 72050000 		.4byte	.LASF250
 9906 24da 01       		.byte	0x1
 9907 24db 7E01     		.2byte	0x17e
 9908 24dd 040A0000 		.4byte	0xa04
 9909 24e1 C3220000 		.4byte	.LLST73
 9910 24e5 2A       		.uleb128 0x2a
 9911 24e6 300C0000 		.4byte	.LASF211
 9912 24ea 01       		.byte	0x1
 9913 24eb 8101     		.2byte	0x181
 9914 24ed 040A0000 		.4byte	0xa04
 9915 24f1 D6220000 		.4byte	.LLST74
 9916 24f5 2B       		.uleb128 0x2b
 9917 24f6 6900     		.ascii	"i\000"
 9918 24f8 01       		.byte	0x1
 9919 24f9 8301     		.2byte	0x183
 9920 24fb 040A0000 		.4byte	0xa04
 9921 24ff FA220000 		.4byte	.LLST75
 9922 2503 2C       		.uleb128 0x2c
ARM GAS  /var/folders/d2/nstgp4h54kz7g1l847x_b8wc0000gn/T//cccORz8f.s 			page 178


 9923 2504 AA2A0000 		.4byte	0x2aaa
 9924 2508 02000000 		.4byte	.LBB260
 9925 250c A8010000 		.4byte	.Ldebug_ranges0+0x1a8
 9926 2510 01       		.byte	0x1
 9927 2511 7C01     		.2byte	0x17c
 9928 2513 2A250000 		.4byte	0x252a
 9929 2517 2D       		.uleb128 0x2d
 9930 2518 BA2A0000 		.4byte	0x2aba
 9931 251c 0E230000 		.4byte	.LLST76
 9932 2520 2D       		.uleb128 0x2d
 9933 2521 BA2A0000 		.4byte	0x2aba
 9934 2525 2F230000 		.4byte	.LLST77
 9935 2529 00       		.byte	0
 9936 252a 2C       		.uleb128 0x2c
 9937 252b AA2A0000 		.4byte	0x2aaa
 9938 252f 12000000 		.4byte	.LBB265
 9939 2533 C8010000 		.4byte	.Ldebug_ranges0+0x1c8
 9940 2537 01       		.byte	0x1
 9941 2538 7D01     		.2byte	0x17d
 9942 253a 51250000 		.4byte	0x2551
 9943 253e 2D       		.uleb128 0x2d
 9944 253f BA2A0000 		.4byte	0x2aba
 9945 2543 50230000 		.4byte	.LLST78
 9946 2547 2D       		.uleb128 0x2d
 9947 2548 BA2A0000 		.4byte	0x2aba
 9948 254c 71230000 		.4byte	.LLST79
 9949 2550 00       		.byte	0
 9950 2551 2C       		.uleb128 0x2c
 9951 2552 AA2A0000 		.4byte	0x2aaa
 9952 2556 18000000 		.4byte	.LBB271
 9953 255a E8010000 		.4byte	.Ldebug_ranges0+0x1e8
 9954 255e 01       		.byte	0x1
 9955 255f 7E01     		.2byte	0x17e
 9956 2561 78250000 		.4byte	0x2578
 9957 2565 2D       		.uleb128 0x2d
 9958 2566 BA2A0000 		.4byte	0x2aba
 9959 256a 92230000 		.4byte	.LLST80
 9960 256e 2D       		.uleb128 0x2d
 9961 256f BA2A0000 		.4byte	0x2aba
 9962 2573 B3230000 		.4byte	.LLST81
 9963 2577 00       		.byte	0
 9964 2578 2C       		.uleb128 0x2c
 9965 2579 AA2A0000 		.4byte	0x2aaa
 9966 257d 28000000 		.4byte	.LBB278
 9967 2581 08020000 		.4byte	.Ldebug_ranges0+0x208
 9968 2585 01       		.byte	0x1
 9969 2586 8101     		.2byte	0x181
 9970 2588 9F250000 		.4byte	0x259f
 9971 258c 2D       		.uleb128 0x2d
 9972 258d BA2A0000 		.4byte	0x2aba
 9973 2591 D4230000 		.4byte	.LLST82
 9974 2595 2D       		.uleb128 0x2d
 9975 2596 BA2A0000 		.4byte	0x2aba
 9976 259a F5230000 		.4byte	.LLST83
 9977 259e 00       		.byte	0
 9978 259f 2F       		.uleb128 0x2f
 9979 25a0 78000000 		.4byte	.LVL134
ARM GAS  /var/folders/d2/nstgp4h54kz7g1l847x_b8wc0000gn/T//cccORz8f.s 			page 179


 9980 25a4 552C0000 		.4byte	0x2c55
 9981 25a8 00       		.byte	0
 9982 25a9 28       		.uleb128 0x28
 9983 25aa F4070000 		.4byte	.LASF262
 9984 25ae 01       		.byte	0x1
 9985 25af 5A01     		.2byte	0x15a
 9986 25b1 00000000 		.4byte	.LFB8
 9987 25b5 7C000000 		.4byte	.LFE8-.LFB8
 9988 25b9 01       		.uleb128 0x1
 9989 25ba 9C       		.byte	0x9c
 9990 25bb D2260000 		.4byte	0x26d2
 9991 25bf 29       		.uleb128 0x29
 9992 25c0 766D00   		.ascii	"vm\000"
 9993 25c3 01       		.byte	0x1
 9994 25c4 5A01     		.2byte	0x15a
 9995 25c6 E10A0000 		.4byte	0xae1
 9996 25ca 16240000 		.4byte	.LLST55
 9997 25ce 2A       		.uleb128 0x2a
 9998 25cf CC120000 		.4byte	.LASF216
 9999 25d3 01       		.byte	0x1
 10000 25d4 5D01     		.2byte	0x15d
 10001 25d6 040A0000 		.4byte	0xa04
 10002 25da 37240000 		.4byte	.LLST56
 10003 25de 2B       		.uleb128 0x2b
 10004 25df 73726300 		.ascii	"src\000"
 10005 25e3 01       		.byte	0x1
 10006 25e4 5E01     		.2byte	0x15e
 10007 25e6 040A0000 		.4byte	0xa04
 10008 25ea 4A240000 		.4byte	.LLST57
 10009 25ee 2A       		.uleb128 0x2a
 10010 25ef 44020000 		.4byte	.LASF263
 10011 25f3 01       		.byte	0x1
 10012 25f4 5F01     		.2byte	0x15f
 10013 25f6 040A0000 		.4byte	0xa04
 10014 25fa 68240000 		.4byte	.LLST58
 10015 25fe 2A       		.uleb128 0x2a
 10016 25ff 300C0000 		.4byte	.LASF211
 10017 2603 01       		.byte	0x1
 10018 2604 6201     		.2byte	0x162
 10019 2606 040A0000 		.4byte	0xa04
 10020 260a 7B240000 		.4byte	.LLST59
 10021 260e 2A       		.uleb128 0x2a
 10022 260f 7D020000 		.4byte	.LASF264
 10023 2613 01       		.byte	0x1
 10024 2614 6401     		.2byte	0x164
 10025 2616 FF090000 		.4byte	0x9ff
 10026 261a 8E240000 		.4byte	.LLST60
 10027 261e 2B       		.uleb128 0x2b
 10028 261f 6900     		.ascii	"i\000"
 10029 2621 01       		.byte	0x1
 10030 2622 6501     		.2byte	0x165
 10031 2624 040A0000 		.4byte	0xa04
 10032 2628 A1240000 		.4byte	.LLST61
 10033 262c 2C       		.uleb128 0x2c
 10034 262d AA2A0000 		.4byte	0x2aaa
 10035 2631 00000000 		.4byte	.LBB238
 10036 2635 30010000 		.4byte	.Ldebug_ranges0+0x130
ARM GAS  /var/folders/d2/nstgp4h54kz7g1l847x_b8wc0000gn/T//cccORz8f.s 			page 180


 10037 2639 01       		.byte	0x1
 10038 263a 5D01     		.2byte	0x15d
 10039 263c 53260000 		.4byte	0x2653
 10040 2640 2D       		.uleb128 0x2d
 10041 2641 BA2A0000 		.4byte	0x2aba
 10042 2645 B5240000 		.4byte	.LLST62
 10043 2649 2D       		.uleb128 0x2d
 10044 264a BA2A0000 		.4byte	0x2aba
 10045 264e D6240000 		.4byte	.LLST63
 10046 2652 00       		.byte	0
 10047 2653 2C       		.uleb128 0x2c
 10048 2654 AA2A0000 		.4byte	0x2aaa
 10049 2658 10000000 		.4byte	.LBB243
 10050 265c 50010000 		.4byte	.Ldebug_ranges0+0x150
 10051 2660 01       		.byte	0x1
 10052 2661 5E01     		.2byte	0x15e
 10053 2663 7A260000 		.4byte	0x267a
 10054 2667 2D       		.uleb128 0x2d
 10055 2668 BA2A0000 		.4byte	0x2aba
 10056 266c F7240000 		.4byte	.LLST64
 10057 2670 2D       		.uleb128 0x2d
 10058 2671 BA2A0000 		.4byte	0x2aba
 10059 2675 18250000 		.4byte	.LLST65
 10060 2679 00       		.byte	0
 10061 267a 2C       		.uleb128 0x2c
 10062 267b AA2A0000 		.4byte	0x2aaa
 10063 267f 16000000 		.4byte	.LBB249
 10064 2683 70010000 		.4byte	.Ldebug_ranges0+0x170
 10065 2687 01       		.byte	0x1
 10066 2688 5F01     		.2byte	0x15f
 10067 268a A1260000 		.4byte	0x26a1
 10068 268e 2D       		.uleb128 0x2d
 10069 268f BA2A0000 		.4byte	0x2aba
 10070 2693 39250000 		.4byte	.LLST66
 10071 2697 2D       		.uleb128 0x2d
 10072 2698 BA2A0000 		.4byte	0x2aba
 10073 269c 5A250000 		.4byte	.LLST67
 10074 26a0 00       		.byte	0
 10075 26a1 2C       		.uleb128 0x2c
 10076 26a2 AA2A0000 		.4byte	0x2aaa
 10077 26a6 26000000 		.4byte	.LBB256
 10078 26aa 90010000 		.4byte	.Ldebug_ranges0+0x190
 10079 26ae 01       		.byte	0x1
 10080 26af 6201     		.2byte	0x162
 10081 26b1 C8260000 		.4byte	0x26c8
 10082 26b5 2D       		.uleb128 0x2d
 10083 26b6 BA2A0000 		.4byte	0x2aba
 10084 26ba 7B250000 		.4byte	.LLST68
 10085 26be 2D       		.uleb128 0x2d
 10086 26bf BA2A0000 		.4byte	0x2aba
 10087 26c3 9C250000 		.4byte	.LLST69
 10088 26c7 00       		.byte	0
 10089 26c8 2F       		.uleb128 0x2f
 10090 26c9 78000000 		.4byte	.LVL122
 10091 26cd 552C0000 		.4byte	0x2c55
 10092 26d1 00       		.byte	0
 10093 26d2 28       		.uleb128 0x28
ARM GAS  /var/folders/d2/nstgp4h54kz7g1l847x_b8wc0000gn/T//cccORz8f.s 			page 181


 10094 26d3 A70D0000 		.4byte	.LASF265
 10095 26d7 01       		.byte	0x1
 10096 26d8 3D01     		.2byte	0x13d
 10097 26da 00000000 		.4byte	.LFB7
 10098 26de 5C000000 		.4byte	.LFE7-.LFB7
 10099 26e2 01       		.uleb128 0x1
 10100 26e3 9C       		.byte	0x9c
 10101 26e4 B4270000 		.4byte	0x27b4
 10102 26e8 29       		.uleb128 0x29
 10103 26e9 766D00   		.ascii	"vm\000"
 10104 26ec 01       		.byte	0x1
 10105 26ed 3D01     		.2byte	0x13d
 10106 26ef E10A0000 		.4byte	0xae1
 10107 26f3 BD250000 		.4byte	.LLST44
 10108 26f7 2A       		.uleb128 0x2a
 10109 26f8 CC120000 		.4byte	.LASF216
 10110 26fc 01       		.byte	0x1
 10111 26fd 4001     		.2byte	0x140
 10112 26ff 040A0000 		.4byte	0xa04
 10113 2703 DE250000 		.4byte	.LLST45
 10114 2707 2A       		.uleb128 0x2a
 10115 2708 48050000 		.4byte	.LASF266
 10116 270c 01       		.byte	0x1
 10117 270d 4101     		.2byte	0x141
 10118 270f 040A0000 		.4byte	0xa04
 10119 2713 FC250000 		.4byte	.LLST46
 10120 2717 2A       		.uleb128 0x2a
 10121 2718 300C0000 		.4byte	.LASF211
 10122 271c 01       		.byte	0x1
 10123 271d 4401     		.2byte	0x144
 10124 271f 040A0000 		.4byte	0xa04
 10125 2723 0F260000 		.4byte	.LLST47
 10126 2727 2B       		.uleb128 0x2b
 10127 2728 6900     		.ascii	"i\000"
 10128 272a 01       		.byte	0x1
 10129 272b 4601     		.2byte	0x146
 10130 272d 040A0000 		.4byte	0xa04
 10131 2731 34260000 		.4byte	.LLST48
 10132 2735 2C       		.uleb128 0x2c
 10133 2736 AA2A0000 		.4byte	0x2aaa
 10134 273a 00000000 		.4byte	.LBB220
 10135 273e D0000000 		.4byte	.Ldebug_ranges0+0xd0
 10136 2742 01       		.byte	0x1
 10137 2743 4001     		.2byte	0x140
 10138 2745 5C270000 		.4byte	0x275c
 10139 2749 2D       		.uleb128 0x2d
 10140 274a BA2A0000 		.4byte	0x2aba
 10141 274e 48260000 		.4byte	.LLST49
 10142 2752 2D       		.uleb128 0x2d
 10143 2753 BA2A0000 		.4byte	0x2aba
 10144 2757 69260000 		.4byte	.LLST50
 10145 275b 00       		.byte	0
 10146 275c 2C       		.uleb128 0x2c
 10147 275d AA2A0000 		.4byte	0x2aaa
 10148 2761 10000000 		.4byte	.LBB227
 10149 2765 F8000000 		.4byte	.Ldebug_ranges0+0xf8
 10150 2769 01       		.byte	0x1
ARM GAS  /var/folders/d2/nstgp4h54kz7g1l847x_b8wc0000gn/T//cccORz8f.s 			page 182


 10151 276a 4101     		.2byte	0x141
 10152 276c 83270000 		.4byte	0x2783
 10153 2770 2D       		.uleb128 0x2d
 10154 2771 BA2A0000 		.4byte	0x2aba
 10155 2775 8A260000 		.4byte	.LLST51
 10156 2779 2D       		.uleb128 0x2d
 10157 277a BA2A0000 		.4byte	0x2aba
 10158 277e AB260000 		.4byte	.LLST52
 10159 2782 00       		.byte	0
 10160 2783 2C       		.uleb128 0x2c
 10161 2784 AA2A0000 		.4byte	0x2aaa
 10162 2788 1C000000 		.4byte	.LBB234
 10163 278c 18010000 		.4byte	.Ldebug_ranges0+0x118
 10164 2790 01       		.byte	0x1
 10165 2791 4401     		.2byte	0x144
 10166 2793 AA270000 		.4byte	0x27aa
 10167 2797 2D       		.uleb128 0x2d
 10168 2798 BA2A0000 		.4byte	0x2aba
 10169 279c CC260000 		.4byte	.LLST53
 10170 27a0 2D       		.uleb128 0x2d
 10171 27a1 BA2A0000 		.4byte	0x2aba
 10172 27a5 ED260000 		.4byte	.LLST54
 10173 27a9 00       		.byte	0
 10174 27aa 2F       		.uleb128 0x2f
 10175 27ab 56000000 		.4byte	.LVL107
 10176 27af 552C0000 		.4byte	0x2c55
 10177 27b3 00       		.byte	0
 10178 27b4 28       		.uleb128 0x28
 10179 27b5 FE0B0000 		.4byte	.LASF267
 10180 27b9 01       		.byte	0x1
 10181 27ba 2001     		.2byte	0x120
 10182 27bc 00000000 		.4byte	.LFB6
 10183 27c0 60000000 		.4byte	.LFE6-.LFB6
 10184 27c4 01       		.uleb128 0x1
 10185 27c5 9C       		.byte	0x9c
 10186 27c6 96280000 		.4byte	0x2896
 10187 27ca 29       		.uleb128 0x29
 10188 27cb 766D00   		.ascii	"vm\000"
 10189 27ce 01       		.byte	0x1
 10190 27cf 2001     		.2byte	0x120
 10191 27d1 E10A0000 		.4byte	0xae1
 10192 27d5 0E270000 		.4byte	.LLST33
 10193 27d9 2A       		.uleb128 0x2a
 10194 27da CC120000 		.4byte	.LASF216
 10195 27de 01       		.byte	0x1
 10196 27df 2301     		.2byte	0x123
 10197 27e1 040A0000 		.4byte	0xa04
 10198 27e5 2F270000 		.4byte	.LLST34
 10199 27e9 2B       		.uleb128 0x2b
 10200 27ea 73726300 		.ascii	"src\000"
 10201 27ee 01       		.byte	0x1
 10202 27ef 2401     		.2byte	0x124
 10203 27f1 040A0000 		.4byte	0xa04
 10204 27f5 42270000 		.4byte	.LLST35
 10205 27f9 2A       		.uleb128 0x2a
 10206 27fa 300C0000 		.4byte	.LASF211
 10207 27fe 01       		.byte	0x1
ARM GAS  /var/folders/d2/nstgp4h54kz7g1l847x_b8wc0000gn/T//cccORz8f.s 			page 183


 10208 27ff 2701     		.2byte	0x127
 10209 2801 040A0000 		.4byte	0xa04
 10210 2805 60270000 		.4byte	.LLST36
 10211 2809 2B       		.uleb128 0x2b
 10212 280a 6900     		.ascii	"i\000"
 10213 280c 01       		.byte	0x1
 10214 280d 2901     		.2byte	0x129
 10215 280f 040A0000 		.4byte	0xa04
 10216 2813 85270000 		.4byte	.LLST37
 10217 2817 2C       		.uleb128 0x2c
 10218 2818 AA2A0000 		.4byte	0x2aaa
 10219 281c 00000000 		.4byte	.LBB202
 10220 2820 70000000 		.4byte	.Ldebug_ranges0+0x70
 10221 2824 01       		.byte	0x1
 10222 2825 2301     		.2byte	0x123
 10223 2827 3E280000 		.4byte	0x283e
 10224 282b 2D       		.uleb128 0x2d
 10225 282c BA2A0000 		.4byte	0x2aba
 10226 2830 99270000 		.4byte	.LLST38
 10227 2834 2D       		.uleb128 0x2d
 10228 2835 BA2A0000 		.4byte	0x2aba
 10229 2839 BA270000 		.4byte	.LLST39
 10230 283d 00       		.byte	0
 10231 283e 2C       		.uleb128 0x2c
 10232 283f AA2A0000 		.4byte	0x2aaa
 10233 2843 10000000 		.4byte	.LBB209
 10234 2847 98000000 		.4byte	.Ldebug_ranges0+0x98
 10235 284b 01       		.byte	0x1
 10236 284c 2401     		.2byte	0x124
 10237 284e 65280000 		.4byte	0x2865
 10238 2852 2D       		.uleb128 0x2d
 10239 2853 BA2A0000 		.4byte	0x2aba
 10240 2857 DB270000 		.4byte	.LLST40
 10241 285b 2D       		.uleb128 0x2d
 10242 285c BA2A0000 		.4byte	0x2aba
 10243 2860 FC270000 		.4byte	.LLST41
 10244 2864 00       		.byte	0
 10245 2865 2C       		.uleb128 0x2c
 10246 2866 AA2A0000 		.4byte	0x2aaa
 10247 286a 1C000000 		.4byte	.LBB216
 10248 286e B8000000 		.4byte	.Ldebug_ranges0+0xb8
 10249 2872 01       		.byte	0x1
 10250 2873 2701     		.2byte	0x127
 10251 2875 8C280000 		.4byte	0x288c
 10252 2879 2D       		.uleb128 0x2d
 10253 287a BA2A0000 		.4byte	0x2aba
 10254 287e 1D280000 		.4byte	.LLST42
 10255 2882 2D       		.uleb128 0x2d
 10256 2883 BA2A0000 		.4byte	0x2aba
 10257 2887 3E280000 		.4byte	.LLST43
 10258 288b 00       		.byte	0
 10259 288c 2F       		.uleb128 0x2f
 10260 288d 5C000000 		.4byte	.LVL97
 10261 2891 552C0000 		.4byte	0x2c55
 10262 2895 00       		.byte	0
 10263 2896 42       		.uleb128 0x42
 10264 2897 C8100000 		.4byte	.LASF268
ARM GAS  /var/folders/d2/nstgp4h54kz7g1l847x_b8wc0000gn/T//cccORz8f.s 			page 184


 10265 289b 01       		.byte	0x1
 10266 289c FD       		.byte	0xfd
 10267 289d 00000000 		.4byte	.LFB5
 10268 28a1 90000000 		.4byte	.LFE5-.LFB5
 10269 28a5 01       		.uleb128 0x1
 10270 28a6 9C       		.byte	0x9c
 10271 28a7 1E290000 		.4byte	0x291e
 10272 28ab 43       		.uleb128 0x43
 10273 28ac 23000000 		.4byte	.LASF269
 10274 28b0 01       		.byte	0x1
 10275 28b1 FD       		.byte	0xfd
 10276 28b2 C00A0000 		.4byte	0xac0
 10277 28b6 5F280000 		.4byte	.LLST27
 10278 28ba 43       		.uleb128 0x43
 10279 28bb E9090000 		.4byte	.LASF180
 10280 28bf 01       		.byte	0x1
 10281 28c0 FD       		.byte	0xfd
 10282 28c1 040A0000 		.4byte	0xa04
 10283 28c5 80280000 		.4byte	.LLST28
 10284 28c9 44       		.uleb128 0x44
 10285 28ca 67617000 		.ascii	"gap\000"
 10286 28ce 01       		.byte	0x1
 10287 28cf FF       		.byte	0xff
 10288 28d0 040A0000 		.4byte	0xa04
 10289 28d4 A1280000 		.4byte	.LLST29
 10290 28d8 2A       		.uleb128 0x2a
 10291 28d9 AC0B0000 		.4byte	.LASF270
 10292 28dd 01       		.byte	0x1
 10293 28de 0001     		.2byte	0x100
 10294 28e0 040A0000 		.4byte	0xa04
 10295 28e4 CA280000 		.4byte	.LLST30
 10296 28e8 2B       		.uleb128 0x2b
 10297 28e9 6900     		.ascii	"i\000"
 10298 28eb 01       		.byte	0x1
 10299 28ec 0101     		.2byte	0x101
 10300 28ee 040A0000 		.4byte	0xa04
 10301 28f2 18290000 		.4byte	.LLST31
 10302 28f6 35       		.uleb128 0x35
 10303 28f7 42000000 		.4byte	.LBB201
 10304 28fb 0C000000 		.4byte	.LBE201-.LBB201
 10305 28ff 14290000 		.4byte	0x2914
 10306 2903 2A       		.uleb128 0x2a
 10307 2904 71080000 		.4byte	.LASF271
 10308 2908 01       		.byte	0x1
 10309 2909 1401     		.2byte	0x114
 10310 290b F4090000 		.4byte	0x9f4
 10311 290f 4E290000 		.4byte	.LLST32
 10312 2913 00       		.byte	0
 10313 2914 2F       		.uleb128 0x2f
 10314 2915 86000000 		.4byte	.LVL87
 10315 2919 552C0000 		.4byte	0x2c55
 10316 291d 00       		.byte	0
 10317 291e 45       		.uleb128 0x45
 10318 291f 250C0000 		.4byte	.LASF272
 10319 2923 01       		.byte	0x1
 10320 2924 E3       		.byte	0xe3
 10321 2925 F4090000 		.4byte	0x9f4
ARM GAS  /var/folders/d2/nstgp4h54kz7g1l847x_b8wc0000gn/T//cccORz8f.s 			page 185


 10322 2929 01       		.byte	0x1
 10323 292a 5A290000 		.4byte	0x295a
 10324 292e 46       		.uleb128 0x46
 10325 292f 6E756D00 		.ascii	"num\000"
 10326 2933 01       		.byte	0x1
 10327 2934 E3       		.byte	0xe3
 10328 2935 F4090000 		.4byte	0x9f4
 10329 2939 47       		.uleb128 0x47
 10330 293a 6F7000   		.ascii	"op\000"
 10331 293d 01       		.byte	0x1
 10332 293e E5       		.byte	0xe5
 10333 293f F4090000 		.4byte	0x9f4
 10334 2943 47       		.uleb128 0x47
 10335 2944 72657300 		.ascii	"res\000"
 10336 2948 01       		.byte	0x1
 10337 2949 E6       		.byte	0xe6
 10338 294a F4090000 		.4byte	0x9f4
 10339 294e 47       		.uleb128 0x47
 10340 294f 6F6E6500 		.ascii	"one\000"
 10341 2953 01       		.byte	0x1
 10342 2954 E7       		.byte	0xe7
 10343 2955 F4090000 		.4byte	0x9f4
 10344 2959 00       		.byte	0
 10345 295a 45       		.uleb128 0x45
 10346 295b 07060000 		.4byte	.LASF273
 10347 295f 01       		.byte	0x1
 10348 2960 DD       		.byte	0xdd
 10349 2961 F4090000 		.4byte	0x9f4
 10350 2965 01       		.byte	0x1
 10351 2966 76290000 		.4byte	0x2976
 10352 296a 48       		.uleb128 0x48
 10353 296b 740B0000 		.4byte	.LASF274
 10354 296f 01       		.byte	0x1
 10355 2970 DD       		.byte	0xdd
 10356 2971 F4090000 		.4byte	0x9f4
 10357 2975 00       		.byte	0
 10358 2976 49       		.uleb128 0x49
 10359 2977 5C080000 		.4byte	.LASF290
 10360 297b 01       		.byte	0x1
 10361 297c B4       		.byte	0xb4
 10362 297d F4090000 		.4byte	0x9f4
 10363 2981 00000000 		.4byte	.LFB2
 10364 2985 88000000 		.4byte	.LFE2-.LFB2
 10365 2989 01       		.uleb128 0x1
 10366 298a 9C       		.byte	0x9c
 10367 298b FD290000 		.4byte	0x29fd
 10368 298f 43       		.uleb128 0x43
 10369 2990 740B0000 		.4byte	.LASF274
 10370 2994 01       		.byte	0x1
 10371 2995 B4       		.byte	0xb4
 10372 2996 F4090000 		.4byte	0x9f4
 10373 299a 61290000 		.4byte	.LLST16
 10374 299e 4A       		.uleb128 0x4a
 10375 299f 74010000 		.4byte	.LASF219
 10376 29a3 01       		.byte	0x1
 10377 29a4 B6       		.byte	0xb6
 10378 29a5 F4090000 		.4byte	0x9f4
ARM GAS  /var/folders/d2/nstgp4h54kz7g1l847x_b8wc0000gn/T//cccORz8f.s 			page 186


 10379 29a9 82290000 		.4byte	.LLST17
 10380 29ad 4A       		.uleb128 0x4a
 10381 29ae A6040000 		.4byte	.LASF275
 10382 29b2 01       		.byte	0x1
 10383 29b3 B7       		.byte	0xb7
 10384 29b4 F4090000 		.4byte	0x9f4
 10385 29b8 99290000 		.4byte	.LLST18
 10386 29bc 4A       		.uleb128 0x4a
 10387 29bd 35080000 		.4byte	.LASF276
 10388 29c1 01       		.byte	0x1
 10389 29c2 B8       		.byte	0xb8
 10390 29c3 F4090000 		.4byte	0x9f4
 10391 29c7 AC290000 		.4byte	.LLST19
 10392 29cb 4A       		.uleb128 0x4a
 10393 29cc A00B0000 		.4byte	.LASF277
 10394 29d0 01       		.byte	0x1
 10395 29d1 B9       		.byte	0xb9
 10396 29d2 F4090000 		.4byte	0x9f4
 10397 29d6 BF290000 		.4byte	.LLST20
 10398 29da 36       		.uleb128 0x36
 10399 29db 58000000 		.4byte	.Ldebug_ranges0+0x58
 10400 29df F3290000 		.4byte	0x29f3
 10401 29e3 4A       		.uleb128 0x4a
 10402 29e4 EA030000 		.4byte	.LASF278
 10403 29e8 01       		.byte	0x1
 10404 29e9 D3       		.byte	0xd3
 10405 29ea F4090000 		.4byte	0x9f4
 10406 29ee F3290000 		.4byte	.LLST21
 10407 29f2 00       		.byte	0
 10408 29f3 2F       		.uleb128 0x2f
 10409 29f4 7C000000 		.4byte	.LVL46
 10410 29f8 552C0000 		.4byte	0x2c55
 10411 29fc 00       		.byte	0
 10412 29fd 45       		.uleb128 0x45
 10413 29fe 77050000 		.4byte	.LASF279
 10414 2a02 01       		.byte	0x1
 10415 2a03 45       		.byte	0x45
 10416 2a04 F4090000 		.4byte	0x9f4
 10417 2a08 01       		.byte	0x1
 10418 2a09 AA2A0000 		.4byte	0x2aaa
 10419 2a0d 46       		.uleb128 0x46
 10420 2a0e 7900     		.ascii	"y\000"
 10421 2a10 01       		.byte	0x1
 10422 2a11 45       		.byte	0x45
 10423 2a12 F4090000 		.4byte	0x9f4
 10424 2a16 46       		.uleb128 0x46
 10425 2a17 7800     		.ascii	"x\000"
 10426 2a19 01       		.byte	0x1
 10427 2a1a 45       		.byte	0x45
 10428 2a1b F4090000 		.4byte	0x9f4
 10429 2a1f 4B       		.uleb128 0x4b
 10430 2a20 47       		.uleb128 0x47
 10431 2a21 72657300 		.ascii	"res\000"
 10432 2a25 01       		.byte	0x1
 10433 2a26 50       		.byte	0x50
 10434 2a27 F4090000 		.4byte	0x9f4
 10435 2a2b 47       		.uleb128 0x47
ARM GAS  /var/folders/d2/nstgp4h54kz7g1l847x_b8wc0000gn/T//cccORz8f.s 			page 187


 10436 2a2c 617800   		.ascii	"ax\000"
 10437 2a2f 01       		.byte	0x1
 10438 2a30 51       		.byte	0x51
 10439 2a31 F4090000 		.4byte	0x9f4
 10440 2a35 47       		.uleb128 0x47
 10441 2a36 617900   		.ascii	"ay\000"
 10442 2a39 01       		.byte	0x1
 10443 2a3a 52       		.byte	0x52
 10444 2a3b F4090000 		.4byte	0x9f4
 10445 2a3f 4B       		.uleb128 0x4b
 10446 2a40 4C       		.uleb128 0x4c
 10447 2a41 48050000 		.4byte	.LASF266
 10448 2a45 01       		.byte	0x1
 10449 2a46 80       		.byte	0x80
 10450 2a47 DE090000 		.4byte	0x9de
 10451 2a4b 47       		.uleb128 0x47
 10452 2a4c 66623100 		.ascii	"fb1\000"
 10453 2a50 01       		.byte	0x1
 10454 2a51 81       		.byte	0x81
 10455 2a52 F4090000 		.4byte	0x9f4
 10456 2a56 4C       		.uleb128 0x4c
 10457 2a57 62100000 		.4byte	.LASF280
 10458 2a5b 01       		.byte	0x1
 10459 2a5c 83       		.byte	0x83
 10460 2a5d F4090000 		.4byte	0x9f4
 10461 2a61 4B       		.uleb128 0x4b
 10462 2a62 4C       		.uleb128 0x4c
 10463 2a63 74010000 		.4byte	.LASF219
 10464 2a67 01       		.byte	0x1
 10465 2a68 8A       		.byte	0x8a
 10466 2a69 F4090000 		.4byte	0x9f4
 10467 2a6d 4B       		.uleb128 0x4b
 10468 2a6e 4C       		.uleb128 0x4c
 10469 2a6f 4D030000 		.4byte	.LASF281
 10470 2a73 01       		.byte	0x1
 10471 2a74 92       		.byte	0x92
 10472 2a75 DE090000 		.4byte	0x9de
 10473 2a79 4C       		.uleb128 0x4c
 10474 2a7a 53060000 		.4byte	.LASF282
 10475 2a7e 01       		.byte	0x1
 10476 2a7f 93       		.byte	0x93
 10477 2a80 F4090000 		.4byte	0x9f4
 10478 2a84 4C       		.uleb128 0x4c
 10479 2a85 120C0000 		.4byte	.LASF283
 10480 2a89 01       		.byte	0x1
 10481 2a8a 94       		.byte	0x94
 10482 2a8b F4090000 		.4byte	0x9f4
 10483 2a8f 47       		.uleb128 0x47
 10484 2a90 62696E00 		.ascii	"bin\000"
 10485 2a94 01       		.byte	0x1
 10486 2a95 95       		.byte	0x95
 10487 2a96 F4090000 		.4byte	0x9f4
 10488 2a9a 4C       		.uleb128 0x4c
 10489 2a9b 27110000 		.4byte	.LASF284
 10490 2a9f 01       		.byte	0x1
 10491 2aa0 96       		.byte	0x96
 10492 2aa1 F4090000 		.4byte	0x9f4
ARM GAS  /var/folders/d2/nstgp4h54kz7g1l847x_b8wc0000gn/T//cccORz8f.s 			page 188


 10493 2aa5 00       		.byte	0
 10494 2aa6 00       		.byte	0
 10495 2aa7 00       		.byte	0
 10496 2aa8 00       		.byte	0
 10497 2aa9 00       		.byte	0
 10498 2aaa 4D       		.uleb128 0x4d
 10499 2aab E30B0000 		.4byte	.LASF291
 10500 2aaf 02       		.byte	0x2
 10501 2ab0 58       		.byte	0x58
 10502 2ab1 F4090000 		.4byte	0x9f4
 10503 2ab5 03       		.byte	0x3
 10504 2ab6 C52A0000 		.4byte	0x2ac5
 10505 2aba 46       		.uleb128 0x46
 10506 2abb 766D00   		.ascii	"vm\000"
 10507 2abe 02       		.byte	0x2
 10508 2abf 58       		.byte	0x58
 10509 2ac0 E10A0000 		.4byte	0xae1
 10510 2ac4 00       		.byte	0
 10511 2ac5 4E       		.uleb128 0x4e
 10512 2ac6 FD290000 		.4byte	0x29fd
 10513 2aca 00000000 		.4byte	.LFB31
 10514 2ace BC000000 		.4byte	.LFE31-.LFB31
 10515 2ad2 01       		.uleb128 0x1
 10516 2ad3 9C       		.byte	0x9c
 10517 2ad4 902B0000 		.4byte	0x2b90
 10518 2ad8 2D       		.uleb128 0x2d
 10519 2ad9 0D2A0000 		.4byte	0x2a0d
 10520 2add 062A0000 		.4byte	.LLST0
 10521 2ae1 2D       		.uleb128 0x2d
 10522 2ae2 162A0000 		.4byte	0x2a16
 10523 2ae6 402A0000 		.4byte	.LLST1
 10524 2aea 4F       		.uleb128 0x4f
 10525 2aeb 1F2A0000 		.4byte	0x2a1f
 10526 2aef 00000000 		.4byte	.Ldebug_ranges0+0
 10527 2af3 862B0000 		.4byte	0x2b86
 10528 2af7 50       		.uleb128 0x50
 10529 2af8 202A0000 		.4byte	0x2a20
 10530 2afc 7A2A0000 		.4byte	.LLST2
 10531 2b00 50       		.uleb128 0x50
 10532 2b01 2B2A0000 		.4byte	0x2a2b
 10533 2b05 AE2A0000 		.4byte	.LLST3
 10534 2b09 50       		.uleb128 0x50
 10535 2b0a 352A0000 		.4byte	0x2a35
 10536 2b0e F02A0000 		.4byte	.LLST4
 10537 2b12 51       		.uleb128 0x51
 10538 2b13 3F2A0000 		.4byte	0x2a3f
 10539 2b17 20000000 		.4byte	.Ldebug_ranges0+0x20
 10540 2b1b 50       		.uleb128 0x50
 10541 2b1c 402A0000 		.4byte	0x2a40
 10542 2b20 322B0000 		.4byte	.LLST5
 10543 2b24 50       		.uleb128 0x50
 10544 2b25 4B2A0000 		.4byte	0x2a4b
 10545 2b29 502B0000 		.4byte	.LLST6
 10546 2b2d 50       		.uleb128 0x50
 10547 2b2e 562A0000 		.4byte	0x2a56
 10548 2b32 6E2B0000 		.4byte	.LLST7
 10549 2b36 51       		.uleb128 0x51
ARM GAS  /var/folders/d2/nstgp4h54kz7g1l847x_b8wc0000gn/T//cccORz8f.s 			page 189


 10550 2b37 612A0000 		.4byte	0x2a61
 10551 2b3b 40000000 		.4byte	.Ldebug_ranges0+0x40
 10552 2b3f 50       		.uleb128 0x50
 10553 2b40 622A0000 		.4byte	0x2a62
 10554 2b44 812B0000 		.4byte	.LLST8
 10555 2b48 52       		.uleb128 0x52
 10556 2b49 6D2A0000 		.4byte	0x2a6d
 10557 2b4d 48000000 		.4byte	.LBB193
 10558 2b51 34000000 		.4byte	.LBE193-.LBB193
 10559 2b55 50       		.uleb128 0x50
 10560 2b56 6E2A0000 		.4byte	0x2a6e
 10561 2b5a 9F2B0000 		.4byte	.LLST9
 10562 2b5e 50       		.uleb128 0x50
 10563 2b5f 792A0000 		.4byte	0x2a79
 10564 2b63 BD2B0000 		.4byte	.LLST10
 10565 2b67 50       		.uleb128 0x50
 10566 2b68 842A0000 		.4byte	0x2a84
 10567 2b6c EC2B0000 		.4byte	.LLST11
 10568 2b70 50       		.uleb128 0x50
 10569 2b71 8F2A0000 		.4byte	0x2a8f
 10570 2b75 FF2B0000 		.4byte	.LLST12
 10571 2b79 50       		.uleb128 0x50
 10572 2b7a 9A2A0000 		.4byte	0x2a9a
 10573 2b7e 162C0000 		.4byte	.LLST13
 10574 2b82 00       		.byte	0
 10575 2b83 00       		.byte	0
 10576 2b84 00       		.byte	0
 10577 2b85 00       		.byte	0
 10578 2b86 2F       		.uleb128 0x2f
 10579 2b87 B4000000 		.4byte	.LVL25
 10580 2b8b 552C0000 		.4byte	0x2c55
 10581 2b8f 00       		.byte	0
 10582 2b90 4E       		.uleb128 0x4e
 10583 2b91 FD290000 		.4byte	0x29fd
 10584 2b95 00000000 		.4byte	.LFB1
 10585 2b99 40000000 		.4byte	.LFE1-.LFB1
 10586 2b9d 01       		.uleb128 0x1
 10587 2b9e 9C       		.byte	0x9c
 10588 2b9f C82B0000 		.4byte	0x2bc8
 10589 2ba3 2D       		.uleb128 0x2d
 10590 2ba4 0D2A0000 		.4byte	0x2a0d
 10591 2ba8 292C0000 		.4byte	.LLST14
 10592 2bac 2D       		.uleb128 0x2d
 10593 2bad 162A0000 		.4byte	0x2a16
 10594 2bb1 632C0000 		.4byte	.LLST15
 10595 2bb5 41       		.uleb128 0x41
 10596 2bb6 38000000 		.4byte	.LVL30
 10597 2bba C52A0000 		.4byte	0x2ac5
 10598 2bbe 2F       		.uleb128 0x2f
 10599 2bbf 3C000000 		.4byte	.LVL31
 10600 2bc3 552C0000 		.4byte	0x2c55
 10601 2bc7 00       		.byte	0
 10602 2bc8 4E       		.uleb128 0x4e
 10603 2bc9 5A290000 		.4byte	0x295a
 10604 2bcd 00000000 		.4byte	.LFB3
 10605 2bd1 2C000000 		.4byte	.LFE3-.LFB3
 10606 2bd5 01       		.uleb128 0x1
ARM GAS  /var/folders/d2/nstgp4h54kz7g1l847x_b8wc0000gn/T//cccORz8f.s 			page 190


 10607 2bd6 9C       		.byte	0x9c
 10608 2bd7 F72B0000 		.4byte	0x2bf7
 10609 2bdb 2D       		.uleb128 0x2d
 10610 2bdc 6A290000 		.4byte	0x296a
 10611 2be0 9D2C0000 		.4byte	.LLST22
 10612 2be4 41       		.uleb128 0x41
 10613 2be5 22000000 		.4byte	.LVL49
 10614 2be9 76290000 		.4byte	0x2976
 10615 2bed 2F       		.uleb128 0x2f
 10616 2bee 26000000 		.4byte	.LVL50
 10617 2bf2 552C0000 		.4byte	0x2c55
 10618 2bf6 00       		.byte	0
 10619 2bf7 4E       		.uleb128 0x4e
 10620 2bf8 1E290000 		.4byte	0x291e
 10621 2bfc 00000000 		.4byte	.LFB4
 10622 2c00 5C000000 		.4byte	.LFE4-.LFB4
 10623 2c04 01       		.uleb128 0x1
 10624 2c05 9C       		.byte	0x9c
 10625 2c06 382C0000 		.4byte	0x2c38
 10626 2c0a 2D       		.uleb128 0x2d
 10627 2c0b 2E290000 		.4byte	0x292e
 10628 2c0f D72C0000 		.4byte	.LLST23
 10629 2c13 50       		.uleb128 0x50
 10630 2c14 39290000 		.4byte	0x2939
 10631 2c18 112D0000 		.4byte	.LLST24
 10632 2c1c 50       		.uleb128 0x50
 10633 2c1d 43290000 		.4byte	0x2943
 10634 2c21 3A2D0000 		.4byte	.LLST25
 10635 2c25 50       		.uleb128 0x50
 10636 2c26 4E290000 		.4byte	0x294e
 10637 2c2a 702D0000 		.4byte	.LLST26
 10638 2c2e 2F       		.uleb128 0x2f
 10639 2c2f 58000000 		.4byte	.LVL69
 10640 2c33 552C0000 		.4byte	0x2c55
 10641 2c37 00       		.byte	0
 10642 2c38 4E       		.uleb128 0x4e
 10643 2c39 9E0E0000 		.4byte	0xe9e
 10644 2c3d 00000000 		.4byte	.LFB28
 10645 2c41 44000000 		.4byte	.LFE28-.LFB28
 10646 2c45 01       		.uleb128 0x1
 10647 2c46 9C       		.byte	0x9c
 10648 2c47 552C0000 		.4byte	0x2c55
 10649 2c4b 2F       		.uleb128 0x2f
 10650 2c4c 3C000000 		.4byte	.LVL458
 10651 2c50 552C0000 		.4byte	0x2c55
 10652 2c54 00       		.byte	0
 10653 2c55 53       		.uleb128 0x53
 10654 2c56 550C0000 		.4byte	.LASF292
 10655 2c5a 550C0000 		.4byte	.LASF292
 10656 2c5e 54       		.uleb128 0x54
 10657 2c5f E8060000 		.4byte	.LASF293
 10658 2c63 E8060000 		.4byte	.LASF293
 10659 2c67 0A       		.byte	0xa
 10660 2c68 92       		.byte	0x92
 10661 2c69 00       		.byte	0
 10662              		.section	.debug_abbrev,"",%progbits
 10663              	.Ldebug_abbrev0:
ARM GAS  /var/folders/d2/nstgp4h54kz7g1l847x_b8wc0000gn/T//cccORz8f.s 			page 191


 10664 0000 01       		.uleb128 0x1
 10665 0001 11       		.uleb128 0x11
 10666 0002 01       		.byte	0x1
 10667 0003 25       		.uleb128 0x25
 10668 0004 0E       		.uleb128 0xe
 10669 0005 13       		.uleb128 0x13
 10670 0006 0B       		.uleb128 0xb
 10671 0007 03       		.uleb128 0x3
 10672 0008 0E       		.uleb128 0xe
 10673 0009 1B       		.uleb128 0x1b
 10674 000a 0E       		.uleb128 0xe
 10675 000b 55       		.uleb128 0x55
 10676 000c 17       		.uleb128 0x17
 10677 000d 11       		.uleb128 0x11
 10678 000e 01       		.uleb128 0x1
 10679 000f 10       		.uleb128 0x10
 10680 0010 17       		.uleb128 0x17
 10681 0011 00       		.byte	0
 10682 0012 00       		.byte	0
 10683 0013 02       		.uleb128 0x2
 10684 0014 24       		.uleb128 0x24
 10685 0015 00       		.byte	0
 10686 0016 0B       		.uleb128 0xb
 10687 0017 0B       		.uleb128 0xb
 10688 0018 3E       		.uleb128 0x3e
 10689 0019 0B       		.uleb128 0xb
 10690 001a 03       		.uleb128 0x3
 10691 001b 0E       		.uleb128 0xe
 10692 001c 00       		.byte	0
 10693 001d 00       		.byte	0
 10694 001e 03       		.uleb128 0x3
 10695 001f 04       		.uleb128 0x4
 10696 0020 01       		.byte	0x1
 10697 0021 3E       		.uleb128 0x3e
 10698 0022 0B       		.uleb128 0xb
 10699 0023 0B       		.uleb128 0xb
 10700 0024 0B       		.uleb128 0xb
 10701 0025 49       		.uleb128 0x49
 10702 0026 13       		.uleb128 0x13
 10703 0027 3A       		.uleb128 0x3a
 10704 0028 0B       		.uleb128 0xb
 10705 0029 3B       		.uleb128 0x3b
 10706 002a 0B       		.uleb128 0xb
 10707 002b 01       		.uleb128 0x1
 10708 002c 13       		.uleb128 0x13
 10709 002d 00       		.byte	0
 10710 002e 00       		.byte	0
 10711 002f 04       		.uleb128 0x4
 10712 0030 28       		.uleb128 0x28
 10713 0031 00       		.byte	0
 10714 0032 03       		.uleb128 0x3
 10715 0033 0E       		.uleb128 0xe
 10716 0034 1C       		.uleb128 0x1c
 10717 0035 0B       		.uleb128 0xb
 10718 0036 00       		.byte	0
 10719 0037 00       		.byte	0
 10720 0038 05       		.uleb128 0x5
ARM GAS  /var/folders/d2/nstgp4h54kz7g1l847x_b8wc0000gn/T//cccORz8f.s 			page 192


 10721 0039 28       		.uleb128 0x28
 10722 003a 00       		.byte	0
 10723 003b 03       		.uleb128 0x3
 10724 003c 0E       		.uleb128 0xe
 10725 003d 1C       		.uleb128 0x1c
 10726 003e 05       		.uleb128 0x5
 10727 003f 00       		.byte	0
 10728 0040 00       		.byte	0
 10729 0041 06       		.uleb128 0x6
 10730 0042 24       		.uleb128 0x24
 10731 0043 00       		.byte	0
 10732 0044 0B       		.uleb128 0xb
 10733 0045 0B       		.uleb128 0xb
 10734 0046 3E       		.uleb128 0x3e
 10735 0047 0B       		.uleb128 0xb
 10736 0048 03       		.uleb128 0x3
 10737 0049 08       		.uleb128 0x8
 10738 004a 00       		.byte	0
 10739 004b 00       		.byte	0
 10740 004c 07       		.uleb128 0x7
 10741 004d 16       		.uleb128 0x16
 10742 004e 00       		.byte	0
 10743 004f 03       		.uleb128 0x3
 10744 0050 0E       		.uleb128 0xe
 10745 0051 3A       		.uleb128 0x3a
 10746 0052 0B       		.uleb128 0xb
 10747 0053 3B       		.uleb128 0x3b
 10748 0054 0B       		.uleb128 0xb
 10749 0055 49       		.uleb128 0x49
 10750 0056 13       		.uleb128 0x13
 10751 0057 00       		.byte	0
 10752 0058 00       		.byte	0
 10753 0059 08       		.uleb128 0x8
 10754 005a 0F       		.uleb128 0xf
 10755 005b 00       		.byte	0
 10756 005c 0B       		.uleb128 0xb
 10757 005d 0B       		.uleb128 0xb
 10758 005e 49       		.uleb128 0x49
 10759 005f 13       		.uleb128 0x13
 10760 0060 00       		.byte	0
 10761 0061 00       		.byte	0
 10762 0062 09       		.uleb128 0x9
 10763 0063 13       		.uleb128 0x13
 10764 0064 00       		.byte	0
 10765 0065 03       		.uleb128 0x3
 10766 0066 0E       		.uleb128 0xe
 10767 0067 3C       		.uleb128 0x3c
 10768 0068 19       		.uleb128 0x19
 10769 0069 00       		.byte	0
 10770 006a 00       		.byte	0
 10771 006b 0A       		.uleb128 0xa
 10772 006c 16       		.uleb128 0x16
 10773 006d 00       		.byte	0
 10774 006e 03       		.uleb128 0x3
 10775 006f 0E       		.uleb128 0xe
 10776 0070 3A       		.uleb128 0x3a
 10777 0071 0B       		.uleb128 0xb
ARM GAS  /var/folders/d2/nstgp4h54kz7g1l847x_b8wc0000gn/T//cccORz8f.s 			page 193


 10778 0072 3B       		.uleb128 0x3b
 10779 0073 05       		.uleb128 0x5
 10780 0074 49       		.uleb128 0x49
 10781 0075 13       		.uleb128 0x13
 10782 0076 00       		.byte	0
 10783 0077 00       		.byte	0
 10784 0078 0B       		.uleb128 0xb
 10785 0079 17       		.uleb128 0x17
 10786 007a 01       		.byte	0x1
 10787 007b 0B       		.uleb128 0xb
 10788 007c 0B       		.uleb128 0xb
 10789 007d 3A       		.uleb128 0x3a
 10790 007e 0B       		.uleb128 0xb
 10791 007f 3B       		.uleb128 0x3b
 10792 0080 0B       		.uleb128 0xb
 10793 0081 01       		.uleb128 0x1
 10794 0082 13       		.uleb128 0x13
 10795 0083 00       		.byte	0
 10796 0084 00       		.byte	0
 10797 0085 0C       		.uleb128 0xc
 10798 0086 0D       		.uleb128 0xd
 10799 0087 00       		.byte	0
 10800 0088 03       		.uleb128 0x3
 10801 0089 0E       		.uleb128 0xe
 10802 008a 3A       		.uleb128 0x3a
 10803 008b 0B       		.uleb128 0xb
 10804 008c 3B       		.uleb128 0x3b
 10805 008d 0B       		.uleb128 0xb
 10806 008e 49       		.uleb128 0x49
 10807 008f 13       		.uleb128 0x13
 10808 0090 00       		.byte	0
 10809 0091 00       		.byte	0
 10810 0092 0D       		.uleb128 0xd
 10811 0093 01       		.uleb128 0x1
 10812 0094 01       		.byte	0x1
 10813 0095 49       		.uleb128 0x49
 10814 0096 13       		.uleb128 0x13
 10815 0097 01       		.uleb128 0x1
 10816 0098 13       		.uleb128 0x13
 10817 0099 00       		.byte	0
 10818 009a 00       		.byte	0
 10819 009b 0E       		.uleb128 0xe
 10820 009c 21       		.uleb128 0x21
 10821 009d 00       		.byte	0
 10822 009e 49       		.uleb128 0x49
 10823 009f 13       		.uleb128 0x13
 10824 00a0 2F       		.uleb128 0x2f
 10825 00a1 0B       		.uleb128 0xb
 10826 00a2 00       		.byte	0
 10827 00a3 00       		.byte	0
 10828 00a4 0F       		.uleb128 0xf
 10829 00a5 13       		.uleb128 0x13
 10830 00a6 01       		.byte	0x1
 10831 00a7 0B       		.uleb128 0xb
 10832 00a8 0B       		.uleb128 0xb
 10833 00a9 3A       		.uleb128 0x3a
 10834 00aa 0B       		.uleb128 0xb
ARM GAS  /var/folders/d2/nstgp4h54kz7g1l847x_b8wc0000gn/T//cccORz8f.s 			page 194


 10835 00ab 3B       		.uleb128 0x3b
 10836 00ac 0B       		.uleb128 0xb
 10837 00ad 01       		.uleb128 0x1
 10838 00ae 13       		.uleb128 0x13
 10839 00af 00       		.byte	0
 10840 00b0 00       		.byte	0
 10841 00b1 10       		.uleb128 0x10
 10842 00b2 0D       		.uleb128 0xd
 10843 00b3 00       		.byte	0
 10844 00b4 03       		.uleb128 0x3
 10845 00b5 0E       		.uleb128 0xe
 10846 00b6 3A       		.uleb128 0x3a
 10847 00b7 0B       		.uleb128 0xb
 10848 00b8 3B       		.uleb128 0x3b
 10849 00b9 0B       		.uleb128 0xb
 10850 00ba 49       		.uleb128 0x49
 10851 00bb 13       		.uleb128 0x13
 10852 00bc 38       		.uleb128 0x38
 10853 00bd 0B       		.uleb128 0xb
 10854 00be 00       		.byte	0
 10855 00bf 00       		.byte	0
 10856 00c0 11       		.uleb128 0x11
 10857 00c1 0F       		.uleb128 0xf
 10858 00c2 00       		.byte	0
 10859 00c3 0B       		.uleb128 0xb
 10860 00c4 0B       		.uleb128 0xb
 10861 00c5 00       		.byte	0
 10862 00c6 00       		.byte	0
 10863 00c7 12       		.uleb128 0x12
 10864 00c8 26       		.uleb128 0x26
 10865 00c9 00       		.byte	0
 10866 00ca 49       		.uleb128 0x49
 10867 00cb 13       		.uleb128 0x13
 10868 00cc 00       		.byte	0
 10869 00cd 00       		.byte	0
 10870 00ce 13       		.uleb128 0x13
 10871 00cf 13       		.uleb128 0x13
 10872 00d0 01       		.byte	0x1
 10873 00d1 03       		.uleb128 0x3
 10874 00d2 0E       		.uleb128 0xe
 10875 00d3 0B       		.uleb128 0xb
 10876 00d4 0B       		.uleb128 0xb
 10877 00d5 3A       		.uleb128 0x3a
 10878 00d6 0B       		.uleb128 0xb
 10879 00d7 3B       		.uleb128 0x3b
 10880 00d8 0B       		.uleb128 0xb
 10881 00d9 01       		.uleb128 0x1
 10882 00da 13       		.uleb128 0x13
 10883 00db 00       		.byte	0
 10884 00dc 00       		.byte	0
 10885 00dd 14       		.uleb128 0x14
 10886 00de 0D       		.uleb128 0xd
 10887 00df 00       		.byte	0
 10888 00e0 03       		.uleb128 0x3
 10889 00e1 08       		.uleb128 0x8
 10890 00e2 3A       		.uleb128 0x3a
 10891 00e3 0B       		.uleb128 0xb
ARM GAS  /var/folders/d2/nstgp4h54kz7g1l847x_b8wc0000gn/T//cccORz8f.s 			page 195


 10892 00e4 3B       		.uleb128 0x3b
 10893 00e5 0B       		.uleb128 0xb
 10894 00e6 49       		.uleb128 0x49
 10895 00e7 13       		.uleb128 0x13
 10896 00e8 38       		.uleb128 0x38
 10897 00e9 0B       		.uleb128 0xb
 10898 00ea 00       		.byte	0
 10899 00eb 00       		.byte	0
 10900 00ec 15       		.uleb128 0x15
 10901 00ed 13       		.uleb128 0x13
 10902 00ee 01       		.byte	0x1
 10903 00ef 03       		.uleb128 0x3
 10904 00f0 0E       		.uleb128 0xe
 10905 00f1 0B       		.uleb128 0xb
 10906 00f2 05       		.uleb128 0x5
 10907 00f3 3A       		.uleb128 0x3a
 10908 00f4 0B       		.uleb128 0xb
 10909 00f5 3B       		.uleb128 0x3b
 10910 00f6 0B       		.uleb128 0xb
 10911 00f7 01       		.uleb128 0x1
 10912 00f8 13       		.uleb128 0x13
 10913 00f9 00       		.byte	0
 10914 00fa 00       		.byte	0
 10915 00fb 16       		.uleb128 0x16
 10916 00fc 0D       		.uleb128 0xd
 10917 00fd 00       		.byte	0
 10918 00fe 03       		.uleb128 0x3
 10919 00ff 0E       		.uleb128 0xe
 10920 0100 3A       		.uleb128 0x3a
 10921 0101 0B       		.uleb128 0xb
 10922 0102 3B       		.uleb128 0x3b
 10923 0103 0B       		.uleb128 0xb
 10924 0104 49       		.uleb128 0x49
 10925 0105 13       		.uleb128 0x13
 10926 0106 38       		.uleb128 0x38
 10927 0107 05       		.uleb128 0x5
 10928 0108 00       		.byte	0
 10929 0109 00       		.byte	0
 10930 010a 17       		.uleb128 0x17
 10931 010b 15       		.uleb128 0x15
 10932 010c 00       		.byte	0
 10933 010d 27       		.uleb128 0x27
 10934 010e 19       		.uleb128 0x19
 10935 010f 00       		.byte	0
 10936 0110 00       		.byte	0
 10937 0111 18       		.uleb128 0x18
 10938 0112 15       		.uleb128 0x15
 10939 0113 01       		.byte	0x1
 10940 0114 27       		.uleb128 0x27
 10941 0115 19       		.uleb128 0x19
 10942 0116 49       		.uleb128 0x49
 10943 0117 13       		.uleb128 0x13
 10944 0118 01       		.uleb128 0x1
 10945 0119 13       		.uleb128 0x13
 10946 011a 00       		.byte	0
 10947 011b 00       		.byte	0
 10948 011c 19       		.uleb128 0x19
ARM GAS  /var/folders/d2/nstgp4h54kz7g1l847x_b8wc0000gn/T//cccORz8f.s 			page 196


 10949 011d 05       		.uleb128 0x5
 10950 011e 00       		.byte	0
 10951 011f 49       		.uleb128 0x49
 10952 0120 13       		.uleb128 0x13
 10953 0121 00       		.byte	0
 10954 0122 00       		.byte	0
 10955 0123 1A       		.uleb128 0x1a
 10956 0124 13       		.uleb128 0x13
 10957 0125 01       		.byte	0x1
 10958 0126 03       		.uleb128 0x3
 10959 0127 0E       		.uleb128 0xe
 10960 0128 0B       		.uleb128 0xb
 10961 0129 05       		.uleb128 0x5
 10962 012a 3A       		.uleb128 0x3a
 10963 012b 0B       		.uleb128 0xb
 10964 012c 3B       		.uleb128 0x3b
 10965 012d 05       		.uleb128 0x5
 10966 012e 01       		.uleb128 0x1
 10967 012f 13       		.uleb128 0x13
 10968 0130 00       		.byte	0
 10969 0131 00       		.byte	0
 10970 0132 1B       		.uleb128 0x1b
 10971 0133 0D       		.uleb128 0xd
 10972 0134 00       		.byte	0
 10973 0135 03       		.uleb128 0x3
 10974 0136 0E       		.uleb128 0xe
 10975 0137 3A       		.uleb128 0x3a
 10976 0138 0B       		.uleb128 0xb
 10977 0139 3B       		.uleb128 0x3b
 10978 013a 05       		.uleb128 0x5
 10979 013b 49       		.uleb128 0x49
 10980 013c 13       		.uleb128 0x13
 10981 013d 38       		.uleb128 0x38
 10982 013e 0B       		.uleb128 0xb
 10983 013f 00       		.byte	0
 10984 0140 00       		.byte	0
 10985 0141 1C       		.uleb128 0x1c
 10986 0142 0D       		.uleb128 0xd
 10987 0143 00       		.byte	0
 10988 0144 03       		.uleb128 0x3
 10989 0145 0E       		.uleb128 0xe
 10990 0146 3A       		.uleb128 0x3a
 10991 0147 0B       		.uleb128 0xb
 10992 0148 3B       		.uleb128 0x3b
 10993 0149 05       		.uleb128 0x5
 10994 014a 49       		.uleb128 0x49
 10995 014b 13       		.uleb128 0x13
 10996 014c 38       		.uleb128 0x38
 10997 014d 05       		.uleb128 0x5
 10998 014e 00       		.byte	0
 10999 014f 00       		.byte	0
 11000 0150 1D       		.uleb128 0x1d
 11001 0151 13       		.uleb128 0x13
 11002 0152 01       		.byte	0x1
 11003 0153 03       		.uleb128 0x3
 11004 0154 0E       		.uleb128 0xe
 11005 0155 0B       		.uleb128 0xb
ARM GAS  /var/folders/d2/nstgp4h54kz7g1l847x_b8wc0000gn/T//cccORz8f.s 			page 197


 11006 0156 0B       		.uleb128 0xb
 11007 0157 3A       		.uleb128 0x3a
 11008 0158 0B       		.uleb128 0xb
 11009 0159 3B       		.uleb128 0x3b
 11010 015a 05       		.uleb128 0x5
 11011 015b 01       		.uleb128 0x1
 11012 015c 13       		.uleb128 0x13
 11013 015d 00       		.byte	0
 11014 015e 00       		.byte	0
 11015 015f 1E       		.uleb128 0x1e
 11016 0160 13       		.uleb128 0x13
 11017 0161 01       		.byte	0x1
 11018 0162 0B       		.uleb128 0xb
 11019 0163 0B       		.uleb128 0xb
 11020 0164 3A       		.uleb128 0x3a
 11021 0165 0B       		.uleb128 0xb
 11022 0166 3B       		.uleb128 0x3b
 11023 0167 05       		.uleb128 0x5
 11024 0168 01       		.uleb128 0x1
 11025 0169 13       		.uleb128 0x13
 11026 016a 00       		.byte	0
 11027 016b 00       		.byte	0
 11028 016c 1F       		.uleb128 0x1f
 11029 016d 17       		.uleb128 0x17
 11030 016e 01       		.byte	0x1
 11031 016f 0B       		.uleb128 0xb
 11032 0170 0B       		.uleb128 0xb
 11033 0171 3A       		.uleb128 0x3a
 11034 0172 0B       		.uleb128 0xb
 11035 0173 3B       		.uleb128 0x3b
 11036 0174 05       		.uleb128 0x5
 11037 0175 01       		.uleb128 0x1
 11038 0176 13       		.uleb128 0x13
 11039 0177 00       		.byte	0
 11040 0178 00       		.byte	0
 11041 0179 20       		.uleb128 0x20
 11042 017a 0D       		.uleb128 0xd
 11043 017b 00       		.byte	0
 11044 017c 03       		.uleb128 0x3
 11045 017d 0E       		.uleb128 0xe
 11046 017e 3A       		.uleb128 0x3a
 11047 017f 0B       		.uleb128 0xb
 11048 0180 3B       		.uleb128 0x3b
 11049 0181 05       		.uleb128 0x5
 11050 0182 49       		.uleb128 0x49
 11051 0183 13       		.uleb128 0x13
 11052 0184 00       		.byte	0
 11053 0185 00       		.byte	0
 11054 0186 21       		.uleb128 0x21
 11055 0187 15       		.uleb128 0x15
 11056 0188 01       		.byte	0x1
 11057 0189 27       		.uleb128 0x27
 11058 018a 19       		.uleb128 0x19
 11059 018b 01       		.uleb128 0x1
 11060 018c 13       		.uleb128 0x13
 11061 018d 00       		.byte	0
 11062 018e 00       		.byte	0
ARM GAS  /var/folders/d2/nstgp4h54kz7g1l847x_b8wc0000gn/T//cccORz8f.s 			page 198


 11063 018f 22       		.uleb128 0x22
 11064 0190 34       		.uleb128 0x34
 11065 0191 00       		.byte	0
 11066 0192 03       		.uleb128 0x3
 11067 0193 0E       		.uleb128 0xe
 11068 0194 3A       		.uleb128 0x3a
 11069 0195 0B       		.uleb128 0xb
 11070 0196 3B       		.uleb128 0x3b
 11071 0197 05       		.uleb128 0x5
 11072 0198 49       		.uleb128 0x49
 11073 0199 13       		.uleb128 0x13
 11074 019a 3F       		.uleb128 0x3f
 11075 019b 19       		.uleb128 0x19
 11076 019c 3C       		.uleb128 0x3c
 11077 019d 19       		.uleb128 0x19
 11078 019e 00       		.byte	0
 11079 019f 00       		.byte	0
 11080 01a0 23       		.uleb128 0x23
 11081 01a1 34       		.uleb128 0x34
 11082 01a2 00       		.byte	0
 11083 01a3 03       		.uleb128 0x3
 11084 01a4 0E       		.uleb128 0xe
 11085 01a5 3A       		.uleb128 0x3a
 11086 01a6 0B       		.uleb128 0xb
 11087 01a7 3B       		.uleb128 0x3b
 11088 01a8 0B       		.uleb128 0xb
 11089 01a9 49       		.uleb128 0x49
 11090 01aa 13       		.uleb128 0x13
 11091 01ab 3F       		.uleb128 0x3f
 11092 01ac 19       		.uleb128 0x19
 11093 01ad 3C       		.uleb128 0x3c
 11094 01ae 19       		.uleb128 0x19
 11095 01af 00       		.byte	0
 11096 01b0 00       		.byte	0
 11097 01b1 24       		.uleb128 0x24
 11098 01b2 21       		.uleb128 0x21
 11099 01b3 00       		.byte	0
 11100 01b4 49       		.uleb128 0x49
 11101 01b5 13       		.uleb128 0x13
 11102 01b6 00       		.byte	0
 11103 01b7 00       		.byte	0
 11104 01b8 25       		.uleb128 0x25
 11105 01b9 34       		.uleb128 0x34
 11106 01ba 00       		.byte	0
 11107 01bb 03       		.uleb128 0x3
 11108 01bc 0E       		.uleb128 0xe
 11109 01bd 3A       		.uleb128 0x3a
 11110 01be 0B       		.uleb128 0xb
 11111 01bf 3B       		.uleb128 0x3b
 11112 01c0 0B       		.uleb128 0xb
 11113 01c1 49       		.uleb128 0x49
 11114 01c2 13       		.uleb128 0x13
 11115 01c3 02       		.uleb128 0x2
 11116 01c4 18       		.uleb128 0x18
 11117 01c5 00       		.byte	0
 11118 01c6 00       		.byte	0
 11119 01c7 26       		.uleb128 0x26
ARM GAS  /var/folders/d2/nstgp4h54kz7g1l847x_b8wc0000gn/T//cccORz8f.s 			page 199


 11120 01c8 34       		.uleb128 0x34
 11121 01c9 00       		.byte	0
 11122 01ca 47       		.uleb128 0x47
 11123 01cb 13       		.uleb128 0x13
 11124 01cc 3A       		.uleb128 0x3a
 11125 01cd 0B       		.uleb128 0xb
 11126 01ce 3B       		.uleb128 0x3b
 11127 01cf 05       		.uleb128 0x5
 11128 01d0 02       		.uleb128 0x2
 11129 01d1 18       		.uleb128 0x18
 11130 01d2 00       		.byte	0
 11131 01d3 00       		.byte	0
 11132 01d4 27       		.uleb128 0x27
 11133 01d5 34       		.uleb128 0x34
 11134 01d6 00       		.byte	0
 11135 01d7 03       		.uleb128 0x3
 11136 01d8 0E       		.uleb128 0xe
 11137 01d9 3A       		.uleb128 0x3a
 11138 01da 0B       		.uleb128 0xb
 11139 01db 3B       		.uleb128 0x3b
 11140 01dc 05       		.uleb128 0x5
 11141 01dd 49       		.uleb128 0x49
 11142 01de 13       		.uleb128 0x13
 11143 01df 02       		.uleb128 0x2
 11144 01e0 18       		.uleb128 0x18
 11145 01e1 00       		.byte	0
 11146 01e2 00       		.byte	0
 11147 01e3 28       		.uleb128 0x28
 11148 01e4 2E       		.uleb128 0x2e
 11149 01e5 01       		.byte	0x1
 11150 01e6 3F       		.uleb128 0x3f
 11151 01e7 19       		.uleb128 0x19
 11152 01e8 03       		.uleb128 0x3
 11153 01e9 0E       		.uleb128 0xe
 11154 01ea 3A       		.uleb128 0x3a
 11155 01eb 0B       		.uleb128 0xb
 11156 01ec 3B       		.uleb128 0x3b
 11157 01ed 05       		.uleb128 0x5
 11158 01ee 27       		.uleb128 0x27
 11159 01ef 19       		.uleb128 0x19
 11160 01f0 11       		.uleb128 0x11
 11161 01f1 01       		.uleb128 0x1
 11162 01f2 12       		.uleb128 0x12
 11163 01f3 06       		.uleb128 0x6
 11164 01f4 40       		.uleb128 0x40
 11165 01f5 18       		.uleb128 0x18
 11166 01f6 9742     		.uleb128 0x2117
 11167 01f8 19       		.uleb128 0x19
 11168 01f9 01       		.uleb128 0x1
 11169 01fa 13       		.uleb128 0x13
 11170 01fb 00       		.byte	0
 11171 01fc 00       		.byte	0
 11172 01fd 29       		.uleb128 0x29
 11173 01fe 05       		.uleb128 0x5
 11174 01ff 00       		.byte	0
 11175 0200 03       		.uleb128 0x3
 11176 0201 08       		.uleb128 0x8
ARM GAS  /var/folders/d2/nstgp4h54kz7g1l847x_b8wc0000gn/T//cccORz8f.s 			page 200


 11177 0202 3A       		.uleb128 0x3a
 11178 0203 0B       		.uleb128 0xb
 11179 0204 3B       		.uleb128 0x3b
 11180 0205 05       		.uleb128 0x5
 11181 0206 49       		.uleb128 0x49
 11182 0207 13       		.uleb128 0x13
 11183 0208 02       		.uleb128 0x2
 11184 0209 17       		.uleb128 0x17
 11185 020a 00       		.byte	0
 11186 020b 00       		.byte	0
 11187 020c 2A       		.uleb128 0x2a
 11188 020d 34       		.uleb128 0x34
 11189 020e 00       		.byte	0
 11190 020f 03       		.uleb128 0x3
 11191 0210 0E       		.uleb128 0xe
 11192 0211 3A       		.uleb128 0x3a
 11193 0212 0B       		.uleb128 0xb
 11194 0213 3B       		.uleb128 0x3b
 11195 0214 05       		.uleb128 0x5
 11196 0215 49       		.uleb128 0x49
 11197 0216 13       		.uleb128 0x13
 11198 0217 02       		.uleb128 0x2
 11199 0218 17       		.uleb128 0x17
 11200 0219 00       		.byte	0
 11201 021a 00       		.byte	0
 11202 021b 2B       		.uleb128 0x2b
 11203 021c 34       		.uleb128 0x34
 11204 021d 00       		.byte	0
 11205 021e 03       		.uleb128 0x3
 11206 021f 08       		.uleb128 0x8
 11207 0220 3A       		.uleb128 0x3a
 11208 0221 0B       		.uleb128 0xb
 11209 0222 3B       		.uleb128 0x3b
 11210 0223 05       		.uleb128 0x5
 11211 0224 49       		.uleb128 0x49
 11212 0225 13       		.uleb128 0x13
 11213 0226 02       		.uleb128 0x2
 11214 0227 17       		.uleb128 0x17
 11215 0228 00       		.byte	0
 11216 0229 00       		.byte	0
 11217 022a 2C       		.uleb128 0x2c
 11218 022b 1D       		.uleb128 0x1d
 11219 022c 01       		.byte	0x1
 11220 022d 31       		.uleb128 0x31
 11221 022e 13       		.uleb128 0x13
 11222 022f 52       		.uleb128 0x52
 11223 0230 01       		.uleb128 0x1
 11224 0231 55       		.uleb128 0x55
 11225 0232 17       		.uleb128 0x17
 11226 0233 58       		.uleb128 0x58
 11227 0234 0B       		.uleb128 0xb
 11228 0235 59       		.uleb128 0x59
 11229 0236 05       		.uleb128 0x5
 11230 0237 01       		.uleb128 0x1
 11231 0238 13       		.uleb128 0x13
 11232 0239 00       		.byte	0
 11233 023a 00       		.byte	0
ARM GAS  /var/folders/d2/nstgp4h54kz7g1l847x_b8wc0000gn/T//cccORz8f.s 			page 201


 11234 023b 2D       		.uleb128 0x2d
 11235 023c 05       		.uleb128 0x5
 11236 023d 00       		.byte	0
 11237 023e 31       		.uleb128 0x31
 11238 023f 13       		.uleb128 0x13
 11239 0240 02       		.uleb128 0x2
 11240 0241 17       		.uleb128 0x17
 11241 0242 00       		.byte	0
 11242 0243 00       		.byte	0
 11243 0244 2E       		.uleb128 0x2e
 11244 0245 1D       		.uleb128 0x1d
 11245 0246 00       		.byte	0
 11246 0247 31       		.uleb128 0x31
 11247 0248 13       		.uleb128 0x13
 11248 0249 52       		.uleb128 0x52
 11249 024a 01       		.uleb128 0x1
 11250 024b 55       		.uleb128 0x55
 11251 024c 17       		.uleb128 0x17
 11252 024d 58       		.uleb128 0x58
 11253 024e 0B       		.uleb128 0xb
 11254 024f 59       		.uleb128 0x59
 11255 0250 05       		.uleb128 0x5
 11256 0251 00       		.byte	0
 11257 0252 00       		.byte	0
 11258 0253 2F       		.uleb128 0x2f
 11259 0254 898201   		.uleb128 0x4109
 11260 0257 00       		.byte	0
 11261 0258 11       		.uleb128 0x11
 11262 0259 01       		.uleb128 0x1
 11263 025a 31       		.uleb128 0x31
 11264 025b 13       		.uleb128 0x13
 11265 025c 00       		.byte	0
 11266 025d 00       		.byte	0
 11267 025e 30       		.uleb128 0x30
 11268 025f 2E       		.uleb128 0x2e
 11269 0260 00       		.byte	0
 11270 0261 3F       		.uleb128 0x3f
 11271 0262 19       		.uleb128 0x19
 11272 0263 03       		.uleb128 0x3
 11273 0264 0E       		.uleb128 0xe
 11274 0265 3A       		.uleb128 0x3a
 11275 0266 0B       		.uleb128 0xb
 11276 0267 3B       		.uleb128 0x3b
 11277 0268 05       		.uleb128 0x5
 11278 0269 27       		.uleb128 0x27
 11279 026a 19       		.uleb128 0x19
 11280 026b 49       		.uleb128 0x49
 11281 026c 13       		.uleb128 0x13
 11282 026d 20       		.uleb128 0x20
 11283 026e 0B       		.uleb128 0xb
 11284 026f 00       		.byte	0
 11285 0270 00       		.byte	0
 11286 0271 31       		.uleb128 0x31
 11287 0272 05       		.uleb128 0x5
 11288 0273 00       		.byte	0
 11289 0274 03       		.uleb128 0x3
 11290 0275 0E       		.uleb128 0xe
ARM GAS  /var/folders/d2/nstgp4h54kz7g1l847x_b8wc0000gn/T//cccORz8f.s 			page 202


 11291 0276 3A       		.uleb128 0x3a
 11292 0277 0B       		.uleb128 0xb
 11293 0278 3B       		.uleb128 0x3b
 11294 0279 05       		.uleb128 0x5
 11295 027a 49       		.uleb128 0x49
 11296 027b 13       		.uleb128 0x13
 11297 027c 02       		.uleb128 0x2
 11298 027d 17       		.uleb128 0x17
 11299 027e 00       		.byte	0
 11300 027f 00       		.byte	0
 11301 0280 32       		.uleb128 0x32
 11302 0281 34       		.uleb128 0x34
 11303 0282 00       		.byte	0
 11304 0283 03       		.uleb128 0x3
 11305 0284 08       		.uleb128 0x8
 11306 0285 3A       		.uleb128 0x3a
 11307 0286 0B       		.uleb128 0xb
 11308 0287 3B       		.uleb128 0x3b
 11309 0288 05       		.uleb128 0x5
 11310 0289 49       		.uleb128 0x49
 11311 028a 13       		.uleb128 0x13
 11312 028b 02       		.uleb128 0x2
 11313 028c 18       		.uleb128 0x18
 11314 028d 00       		.byte	0
 11315 028e 00       		.byte	0
 11316 028f 33       		.uleb128 0x33
 11317 0290 34       		.uleb128 0x34
 11318 0291 00       		.byte	0
 11319 0292 03       		.uleb128 0x3
 11320 0293 0E       		.uleb128 0xe
 11321 0294 3A       		.uleb128 0x3a
 11322 0295 0B       		.uleb128 0xb
 11323 0296 3B       		.uleb128 0x3b
 11324 0297 05       		.uleb128 0x5
 11325 0298 49       		.uleb128 0x49
 11326 0299 13       		.uleb128 0x13
 11327 029a 00       		.byte	0
 11328 029b 00       		.byte	0
 11329 029c 34       		.uleb128 0x34
 11330 029d 0A       		.uleb128 0xa
 11331 029e 00       		.byte	0
 11332 029f 03       		.uleb128 0x3
 11333 02a0 0E       		.uleb128 0xe
 11334 02a1 3A       		.uleb128 0x3a
 11335 02a2 0B       		.uleb128 0xb
 11336 02a3 3B       		.uleb128 0x3b
 11337 02a4 05       		.uleb128 0x5
 11338 02a5 11       		.uleb128 0x11
 11339 02a6 01       		.uleb128 0x1
 11340 02a7 00       		.byte	0
 11341 02a8 00       		.byte	0
 11342 02a9 35       		.uleb128 0x35
 11343 02aa 0B       		.uleb128 0xb
 11344 02ab 01       		.byte	0x1
 11345 02ac 11       		.uleb128 0x11
 11346 02ad 01       		.uleb128 0x1
 11347 02ae 12       		.uleb128 0x12
ARM GAS  /var/folders/d2/nstgp4h54kz7g1l847x_b8wc0000gn/T//cccORz8f.s 			page 203


 11348 02af 06       		.uleb128 0x6
 11349 02b0 01       		.uleb128 0x1
 11350 02b1 13       		.uleb128 0x13
 11351 02b2 00       		.byte	0
 11352 02b3 00       		.byte	0
 11353 02b4 36       		.uleb128 0x36
 11354 02b5 0B       		.uleb128 0xb
 11355 02b6 01       		.byte	0x1
 11356 02b7 55       		.uleb128 0x55
 11357 02b8 17       		.uleb128 0x17
 11358 02b9 01       		.uleb128 0x1
 11359 02ba 13       		.uleb128 0x13
 11360 02bb 00       		.byte	0
 11361 02bc 00       		.byte	0
 11362 02bd 37       		.uleb128 0x37
 11363 02be 1D       		.uleb128 0x1d
 11364 02bf 01       		.byte	0x1
 11365 02c0 31       		.uleb128 0x31
 11366 02c1 13       		.uleb128 0x13
 11367 02c2 52       		.uleb128 0x52
 11368 02c3 01       		.uleb128 0x1
 11369 02c4 55       		.uleb128 0x55
 11370 02c5 17       		.uleb128 0x17
 11371 02c6 58       		.uleb128 0x58
 11372 02c7 0B       		.uleb128 0xb
 11373 02c8 59       		.uleb128 0x59
 11374 02c9 05       		.uleb128 0x5
 11375 02ca 00       		.byte	0
 11376 02cb 00       		.byte	0
 11377 02cc 38       		.uleb128 0x38
 11378 02cd 0B       		.uleb128 0xb
 11379 02ce 01       		.byte	0x1
 11380 02cf 55       		.uleb128 0x55
 11381 02d0 17       		.uleb128 0x17
 11382 02d1 00       		.byte	0
 11383 02d2 00       		.byte	0
 11384 02d3 39       		.uleb128 0x39
 11385 02d4 34       		.uleb128 0x34
 11386 02d5 00       		.byte	0
 11387 02d6 31       		.uleb128 0x31
 11388 02d7 13       		.uleb128 0x13
 11389 02d8 00       		.byte	0
 11390 02d9 00       		.byte	0
 11391 02da 3A       		.uleb128 0x3a
 11392 02db 05       		.uleb128 0x5
 11393 02dc 00       		.byte	0
 11394 02dd 31       		.uleb128 0x31
 11395 02de 13       		.uleb128 0x13
 11396 02df 02       		.uleb128 0x2
 11397 02e0 18       		.uleb128 0x18
 11398 02e1 00       		.byte	0
 11399 02e2 00       		.byte	0
 11400 02e3 3B       		.uleb128 0x3b
 11401 02e4 898201   		.uleb128 0x4109
 11402 02e7 01       		.byte	0x1
 11403 02e8 11       		.uleb128 0x11
 11404 02e9 01       		.uleb128 0x1
ARM GAS  /var/folders/d2/nstgp4h54kz7g1l847x_b8wc0000gn/T//cccORz8f.s 			page 204


 11405 02ea 31       		.uleb128 0x31
 11406 02eb 13       		.uleb128 0x13
 11407 02ec 00       		.byte	0
 11408 02ed 00       		.byte	0
 11409 02ee 3C       		.uleb128 0x3c
 11410 02ef 8A8201   		.uleb128 0x410a
 11411 02f2 00       		.byte	0
 11412 02f3 02       		.uleb128 0x2
 11413 02f4 18       		.uleb128 0x18
 11414 02f5 9142     		.uleb128 0x2111
 11415 02f7 18       		.uleb128 0x18
 11416 02f8 00       		.byte	0
 11417 02f9 00       		.byte	0
 11418 02fa 3D       		.uleb128 0x3d
 11419 02fb 898201   		.uleb128 0x4109
 11420 02fe 01       		.byte	0x1
 11421 02ff 11       		.uleb128 0x11
 11422 0300 01       		.uleb128 0x1
 11423 0301 31       		.uleb128 0x31
 11424 0302 13       		.uleb128 0x13
 11425 0303 01       		.uleb128 0x1
 11426 0304 13       		.uleb128 0x13
 11427 0305 00       		.byte	0
 11428 0306 00       		.byte	0
 11429 0307 3E       		.uleb128 0x3e
 11430 0308 34       		.uleb128 0x34
 11431 0309 00       		.byte	0
 11432 030a 03       		.uleb128 0x3
 11433 030b 08       		.uleb128 0x8
 11434 030c 3A       		.uleb128 0x3a
 11435 030d 0B       		.uleb128 0xb
 11436 030e 3B       		.uleb128 0x3b
 11437 030f 05       		.uleb128 0x5
 11438 0310 49       		.uleb128 0x49
 11439 0311 13       		.uleb128 0x13
 11440 0312 00       		.byte	0
 11441 0313 00       		.byte	0
 11442 0314 3F       		.uleb128 0x3f
 11443 0315 05       		.uleb128 0x5
 11444 0316 00       		.byte	0
 11445 0317 31       		.uleb128 0x31
 11446 0318 13       		.uleb128 0x13
 11447 0319 00       		.byte	0
 11448 031a 00       		.byte	0
 11449 031b 40       		.uleb128 0x40
 11450 031c 898201   		.uleb128 0x4109
 11451 031f 01       		.byte	0x1
 11452 0320 11       		.uleb128 0x11
 11453 0321 01       		.uleb128 0x1
 11454 0322 9542     		.uleb128 0x2115
 11455 0324 19       		.uleb128 0x19
 11456 0325 31       		.uleb128 0x31
 11457 0326 13       		.uleb128 0x13
 11458 0327 00       		.byte	0
 11459 0328 00       		.byte	0
 11460 0329 41       		.uleb128 0x41
 11461 032a 898201   		.uleb128 0x4109
ARM GAS  /var/folders/d2/nstgp4h54kz7g1l847x_b8wc0000gn/T//cccORz8f.s 			page 205


 11462 032d 00       		.byte	0
 11463 032e 11       		.uleb128 0x11
 11464 032f 01       		.uleb128 0x1
 11465 0330 9542     		.uleb128 0x2115
 11466 0332 19       		.uleb128 0x19
 11467 0333 31       		.uleb128 0x31
 11468 0334 13       		.uleb128 0x13
 11469 0335 00       		.byte	0
 11470 0336 00       		.byte	0
 11471 0337 42       		.uleb128 0x42
 11472 0338 2E       		.uleb128 0x2e
 11473 0339 01       		.byte	0x1
 11474 033a 3F       		.uleb128 0x3f
 11475 033b 19       		.uleb128 0x19
 11476 033c 03       		.uleb128 0x3
 11477 033d 0E       		.uleb128 0xe
 11478 033e 3A       		.uleb128 0x3a
 11479 033f 0B       		.uleb128 0xb
 11480 0340 3B       		.uleb128 0x3b
 11481 0341 0B       		.uleb128 0xb
 11482 0342 27       		.uleb128 0x27
 11483 0343 19       		.uleb128 0x19
 11484 0344 11       		.uleb128 0x11
 11485 0345 01       		.uleb128 0x1
 11486 0346 12       		.uleb128 0x12
 11487 0347 06       		.uleb128 0x6
 11488 0348 40       		.uleb128 0x40
 11489 0349 18       		.uleb128 0x18
 11490 034a 9742     		.uleb128 0x2117
 11491 034c 19       		.uleb128 0x19
 11492 034d 01       		.uleb128 0x1
 11493 034e 13       		.uleb128 0x13
 11494 034f 00       		.byte	0
 11495 0350 00       		.byte	0
 11496 0351 43       		.uleb128 0x43
 11497 0352 05       		.uleb128 0x5
 11498 0353 00       		.byte	0
 11499 0354 03       		.uleb128 0x3
 11500 0355 0E       		.uleb128 0xe
 11501 0356 3A       		.uleb128 0x3a
 11502 0357 0B       		.uleb128 0xb
 11503 0358 3B       		.uleb128 0x3b
 11504 0359 0B       		.uleb128 0xb
 11505 035a 49       		.uleb128 0x49
 11506 035b 13       		.uleb128 0x13
 11507 035c 02       		.uleb128 0x2
 11508 035d 17       		.uleb128 0x17
 11509 035e 00       		.byte	0
 11510 035f 00       		.byte	0
 11511 0360 44       		.uleb128 0x44
 11512 0361 34       		.uleb128 0x34
 11513 0362 00       		.byte	0
 11514 0363 03       		.uleb128 0x3
 11515 0364 08       		.uleb128 0x8
 11516 0365 3A       		.uleb128 0x3a
 11517 0366 0B       		.uleb128 0xb
 11518 0367 3B       		.uleb128 0x3b
ARM GAS  /var/folders/d2/nstgp4h54kz7g1l847x_b8wc0000gn/T//cccORz8f.s 			page 206


 11519 0368 0B       		.uleb128 0xb
 11520 0369 49       		.uleb128 0x49
 11521 036a 13       		.uleb128 0x13
 11522 036b 02       		.uleb128 0x2
 11523 036c 17       		.uleb128 0x17
 11524 036d 00       		.byte	0
 11525 036e 00       		.byte	0
 11526 036f 45       		.uleb128 0x45
 11527 0370 2E       		.uleb128 0x2e
 11528 0371 01       		.byte	0x1
 11529 0372 3F       		.uleb128 0x3f
 11530 0373 19       		.uleb128 0x19
 11531 0374 03       		.uleb128 0x3
 11532 0375 0E       		.uleb128 0xe
 11533 0376 3A       		.uleb128 0x3a
 11534 0377 0B       		.uleb128 0xb
 11535 0378 3B       		.uleb128 0x3b
 11536 0379 0B       		.uleb128 0xb
 11537 037a 27       		.uleb128 0x27
 11538 037b 19       		.uleb128 0x19
 11539 037c 49       		.uleb128 0x49
 11540 037d 13       		.uleb128 0x13
 11541 037e 20       		.uleb128 0x20
 11542 037f 0B       		.uleb128 0xb
 11543 0380 01       		.uleb128 0x1
 11544 0381 13       		.uleb128 0x13
 11545 0382 00       		.byte	0
 11546 0383 00       		.byte	0
 11547 0384 46       		.uleb128 0x46
 11548 0385 05       		.uleb128 0x5
 11549 0386 00       		.byte	0
 11550 0387 03       		.uleb128 0x3
 11551 0388 08       		.uleb128 0x8
 11552 0389 3A       		.uleb128 0x3a
 11553 038a 0B       		.uleb128 0xb
 11554 038b 3B       		.uleb128 0x3b
 11555 038c 0B       		.uleb128 0xb
 11556 038d 49       		.uleb128 0x49
 11557 038e 13       		.uleb128 0x13
 11558 038f 00       		.byte	0
 11559 0390 00       		.byte	0
 11560 0391 47       		.uleb128 0x47
 11561 0392 34       		.uleb128 0x34
 11562 0393 00       		.byte	0
 11563 0394 03       		.uleb128 0x3
 11564 0395 08       		.uleb128 0x8
 11565 0396 3A       		.uleb128 0x3a
 11566 0397 0B       		.uleb128 0xb
 11567 0398 3B       		.uleb128 0x3b
 11568 0399 0B       		.uleb128 0xb
 11569 039a 49       		.uleb128 0x49
 11570 039b 13       		.uleb128 0x13
 11571 039c 00       		.byte	0
 11572 039d 00       		.byte	0
 11573 039e 48       		.uleb128 0x48
 11574 039f 05       		.uleb128 0x5
 11575 03a0 00       		.byte	0
ARM GAS  /var/folders/d2/nstgp4h54kz7g1l847x_b8wc0000gn/T//cccORz8f.s 			page 207


 11576 03a1 03       		.uleb128 0x3
 11577 03a2 0E       		.uleb128 0xe
 11578 03a3 3A       		.uleb128 0x3a
 11579 03a4 0B       		.uleb128 0xb
 11580 03a5 3B       		.uleb128 0x3b
 11581 03a6 0B       		.uleb128 0xb
 11582 03a7 49       		.uleb128 0x49
 11583 03a8 13       		.uleb128 0x13
 11584 03a9 00       		.byte	0
 11585 03aa 00       		.byte	0
 11586 03ab 49       		.uleb128 0x49
 11587 03ac 2E       		.uleb128 0x2e
 11588 03ad 01       		.byte	0x1
 11589 03ae 3F       		.uleb128 0x3f
 11590 03af 19       		.uleb128 0x19
 11591 03b0 03       		.uleb128 0x3
 11592 03b1 0E       		.uleb128 0xe
 11593 03b2 3A       		.uleb128 0x3a
 11594 03b3 0B       		.uleb128 0xb
 11595 03b4 3B       		.uleb128 0x3b
 11596 03b5 0B       		.uleb128 0xb
 11597 03b6 27       		.uleb128 0x27
 11598 03b7 19       		.uleb128 0x19
 11599 03b8 49       		.uleb128 0x49
 11600 03b9 13       		.uleb128 0x13
 11601 03ba 11       		.uleb128 0x11
 11602 03bb 01       		.uleb128 0x1
 11603 03bc 12       		.uleb128 0x12
 11604 03bd 06       		.uleb128 0x6
 11605 03be 40       		.uleb128 0x40
 11606 03bf 18       		.uleb128 0x18
 11607 03c0 9742     		.uleb128 0x2117
 11608 03c2 19       		.uleb128 0x19
 11609 03c3 01       		.uleb128 0x1
 11610 03c4 13       		.uleb128 0x13
 11611 03c5 00       		.byte	0
 11612 03c6 00       		.byte	0
 11613 03c7 4A       		.uleb128 0x4a
 11614 03c8 34       		.uleb128 0x34
 11615 03c9 00       		.byte	0
 11616 03ca 03       		.uleb128 0x3
 11617 03cb 0E       		.uleb128 0xe
 11618 03cc 3A       		.uleb128 0x3a
 11619 03cd 0B       		.uleb128 0xb
 11620 03ce 3B       		.uleb128 0x3b
 11621 03cf 0B       		.uleb128 0xb
 11622 03d0 49       		.uleb128 0x49
 11623 03d1 13       		.uleb128 0x13
 11624 03d2 02       		.uleb128 0x2
 11625 03d3 17       		.uleb128 0x17
 11626 03d4 00       		.byte	0
 11627 03d5 00       		.byte	0
 11628 03d6 4B       		.uleb128 0x4b
 11629 03d7 0B       		.uleb128 0xb
 11630 03d8 01       		.byte	0x1
 11631 03d9 00       		.byte	0
 11632 03da 00       		.byte	0
ARM GAS  /var/folders/d2/nstgp4h54kz7g1l847x_b8wc0000gn/T//cccORz8f.s 			page 208


 11633 03db 4C       		.uleb128 0x4c
 11634 03dc 34       		.uleb128 0x34
 11635 03dd 00       		.byte	0
 11636 03de 03       		.uleb128 0x3
 11637 03df 0E       		.uleb128 0xe
 11638 03e0 3A       		.uleb128 0x3a
 11639 03e1 0B       		.uleb128 0xb
 11640 03e2 3B       		.uleb128 0x3b
 11641 03e3 0B       		.uleb128 0xb
 11642 03e4 49       		.uleb128 0x49
 11643 03e5 13       		.uleb128 0x13
 11644 03e6 00       		.byte	0
 11645 03e7 00       		.byte	0
 11646 03e8 4D       		.uleb128 0x4d
 11647 03e9 2E       		.uleb128 0x2e
 11648 03ea 01       		.byte	0x1
 11649 03eb 03       		.uleb128 0x3
 11650 03ec 0E       		.uleb128 0xe
 11651 03ed 3A       		.uleb128 0x3a
 11652 03ee 0B       		.uleb128 0xb
 11653 03ef 3B       		.uleb128 0x3b
 11654 03f0 0B       		.uleb128 0xb
 11655 03f1 27       		.uleb128 0x27
 11656 03f2 19       		.uleb128 0x19
 11657 03f3 49       		.uleb128 0x49
 11658 03f4 13       		.uleb128 0x13
 11659 03f5 20       		.uleb128 0x20
 11660 03f6 0B       		.uleb128 0xb
 11661 03f7 01       		.uleb128 0x1
 11662 03f8 13       		.uleb128 0x13
 11663 03f9 00       		.byte	0
 11664 03fa 00       		.byte	0
 11665 03fb 4E       		.uleb128 0x4e
 11666 03fc 2E       		.uleb128 0x2e
 11667 03fd 01       		.byte	0x1
 11668 03fe 31       		.uleb128 0x31
 11669 03ff 13       		.uleb128 0x13
 11670 0400 11       		.uleb128 0x11
 11671 0401 01       		.uleb128 0x1
 11672 0402 12       		.uleb128 0x12
 11673 0403 06       		.uleb128 0x6
 11674 0404 40       		.uleb128 0x40
 11675 0405 18       		.uleb128 0x18
 11676 0406 9742     		.uleb128 0x2117
 11677 0408 19       		.uleb128 0x19
 11678 0409 01       		.uleb128 0x1
 11679 040a 13       		.uleb128 0x13
 11680 040b 00       		.byte	0
 11681 040c 00       		.byte	0
 11682 040d 4F       		.uleb128 0x4f
 11683 040e 0B       		.uleb128 0xb
 11684 040f 01       		.byte	0x1
 11685 0410 31       		.uleb128 0x31
 11686 0411 13       		.uleb128 0x13
 11687 0412 55       		.uleb128 0x55
 11688 0413 17       		.uleb128 0x17
 11689 0414 01       		.uleb128 0x1
ARM GAS  /var/folders/d2/nstgp4h54kz7g1l847x_b8wc0000gn/T//cccORz8f.s 			page 209


 11690 0415 13       		.uleb128 0x13
 11691 0416 00       		.byte	0
 11692 0417 00       		.byte	0
 11693 0418 50       		.uleb128 0x50
 11694 0419 34       		.uleb128 0x34
 11695 041a 00       		.byte	0
 11696 041b 31       		.uleb128 0x31
 11697 041c 13       		.uleb128 0x13
 11698 041d 02       		.uleb128 0x2
 11699 041e 17       		.uleb128 0x17
 11700 041f 00       		.byte	0
 11701 0420 00       		.byte	0
 11702 0421 51       		.uleb128 0x51
 11703 0422 0B       		.uleb128 0xb
 11704 0423 01       		.byte	0x1
 11705 0424 31       		.uleb128 0x31
 11706 0425 13       		.uleb128 0x13
 11707 0426 55       		.uleb128 0x55
 11708 0427 17       		.uleb128 0x17
 11709 0428 00       		.byte	0
 11710 0429 00       		.byte	0
 11711 042a 52       		.uleb128 0x52
 11712 042b 0B       		.uleb128 0xb
 11713 042c 01       		.byte	0x1
 11714 042d 31       		.uleb128 0x31
 11715 042e 13       		.uleb128 0x13
 11716 042f 11       		.uleb128 0x11
 11717 0430 01       		.uleb128 0x1
 11718 0431 12       		.uleb128 0x12
 11719 0432 06       		.uleb128 0x6
 11720 0433 00       		.byte	0
 11721 0434 00       		.byte	0
 11722 0435 53       		.uleb128 0x53
 11723 0436 2E       		.uleb128 0x2e
 11724 0437 00       		.byte	0
 11725 0438 3F       		.uleb128 0x3f
 11726 0439 19       		.uleb128 0x19
 11727 043a 3C       		.uleb128 0x3c
 11728 043b 19       		.uleb128 0x19
 11729 043c 6E       		.uleb128 0x6e
 11730 043d 0E       		.uleb128 0xe
 11731 043e 03       		.uleb128 0x3
 11732 043f 0E       		.uleb128 0xe
 11733 0440 00       		.byte	0
 11734 0441 00       		.byte	0
 11735 0442 54       		.uleb128 0x54
 11736 0443 2E       		.uleb128 0x2e
 11737 0444 00       		.byte	0
 11738 0445 3F       		.uleb128 0x3f
 11739 0446 19       		.uleb128 0x19
 11740 0447 3C       		.uleb128 0x3c
 11741 0448 19       		.uleb128 0x19
 11742 0449 6E       		.uleb128 0x6e
 11743 044a 0E       		.uleb128 0xe
 11744 044b 03       		.uleb128 0x3
 11745 044c 0E       		.uleb128 0xe
 11746 044d 3A       		.uleb128 0x3a
ARM GAS  /var/folders/d2/nstgp4h54kz7g1l847x_b8wc0000gn/T//cccORz8f.s 			page 210


 11747 044e 0B       		.uleb128 0xb
 11748 044f 3B       		.uleb128 0x3b
 11749 0450 0B       		.uleb128 0xb
 11750 0451 00       		.byte	0
 11751 0452 00       		.byte	0
 11752 0453 00       		.byte	0
 11753              		.section	.debug_loc,"",%progbits
 11754              	.Ldebug_loc0:
 11755              	.LLST318:
 11756 0000 00000000 		.4byte	.LVL459
 11757 0004 6D000000 		.4byte	.LVL467-1
 11758 0008 0100     		.2byte	0x1
 11759 000a 50       		.byte	0x50
 11760 000b 6D000000 		.4byte	.LVL467-1
 11761 000f 78000000 		.4byte	.LFE29
 11762 0013 0400     		.2byte	0x4
 11763 0015 F3       		.byte	0xf3
 11764 0016 01       		.uleb128 0x1
 11765 0017 50       		.byte	0x50
 11766 0018 9F       		.byte	0x9f
 11767 0019 00000000 		.4byte	0
 11768 001d 00000000 		.4byte	0
 11769              	.LLST319:
 11770 0021 16000000 		.4byte	.LVL461
 11771 0025 50000000 		.4byte	.LVL465
 11772 0029 0100     		.2byte	0x1
 11773 002b 51       		.byte	0x51
 11774 002c 50000000 		.4byte	.LVL465
 11775 0030 5E000000 		.4byte	.LVL466
 11776 0034 0100     		.2byte	0x1
 11777 0036 5C       		.byte	0x5c
 11778 0037 00000000 		.4byte	0
 11779 003b 00000000 		.4byte	0
 11780              	.LLST320:
 11781 003f 20000000 		.4byte	.LVL462
 11782 0043 2A000000 		.4byte	.LVL463
 11783 0047 0100     		.2byte	0x1
 11784 0049 54       		.byte	0x54
 11785 004a 2A000000 		.4byte	.LVL463
 11786 004e 32000000 		.4byte	.LVL464
 11787 0052 0C00     		.2byte	0xc
 11788 0054 72       		.byte	0x72
 11789 0055 01       		.sleb128 1
 11790 0056 40       		.byte	0x40
 11791 0057 24       		.byte	0x24
 11792 0058 40       		.byte	0x40
 11793 0059 26       		.byte	0x26
 11794 005a 31       		.byte	0x31
 11795 005b 24       		.byte	0x24
 11796 005c 70       		.byte	0x70
 11797 005d 14       		.sleb128 20
 11798 005e 06       		.byte	0x6
 11799 005f 22       		.byte	0x22
 11800 0060 00000000 		.4byte	0
 11801 0064 00000000 		.4byte	0
 11802              	.LLST321:
 11803 0068 20000000 		.4byte	.LVL462
ARM GAS  /var/folders/d2/nstgp4h54kz7g1l847x_b8wc0000gn/T//cccORz8f.s 			page 211


 11804 006c 32000000 		.4byte	.LVL464
 11805 0070 0200     		.2byte	0x2
 11806 0072 30       		.byte	0x30
 11807 0073 9F       		.byte	0x9f
 11808 0074 00000000 		.4byte	0
 11809 0078 00000000 		.4byte	0
 11810              	.LLST322:
 11811 007c 0E000000 		.4byte	.LVL460
 11812 0080 6D000000 		.4byte	.LVL467-1
 11813 0084 0100     		.2byte	0x1
 11814 0086 50       		.byte	0x50
 11815 0087 6D000000 		.4byte	.LVL467-1
 11816 008b 78000000 		.4byte	.LFE29
 11817 008f 0400     		.2byte	0x4
 11818 0091 F3       		.byte	0xf3
 11819 0092 01       		.uleb128 0x1
 11820 0093 50       		.byte	0x50
 11821 0094 9F       		.byte	0x9f
 11822 0095 00000000 		.4byte	0
 11823 0099 00000000 		.4byte	0
 11824              	.LLST323:
 11825 009d 0E000000 		.4byte	.LVL460
 11826 00a1 6D000000 		.4byte	.LVL467-1
 11827 00a5 0100     		.2byte	0x1
 11828 00a7 50       		.byte	0x50
 11829 00a8 6D000000 		.4byte	.LVL467-1
 11830 00ac 78000000 		.4byte	.LFE29
 11831 00b0 0400     		.2byte	0x4
 11832 00b2 F3       		.byte	0xf3
 11833 00b3 01       		.uleb128 0x1
 11834 00b4 50       		.byte	0x50
 11835 00b5 9F       		.byte	0x9f
 11836 00b6 00000000 		.4byte	0
 11837 00ba 00000000 		.4byte	0
 11838              	.LLST324:
 11839 00be 16000000 		.4byte	.LVL461
 11840 00c2 6D000000 		.4byte	.LVL467-1
 11841 00c6 0100     		.2byte	0x1
 11842 00c8 50       		.byte	0x50
 11843 00c9 6D000000 		.4byte	.LVL467-1
 11844 00cd 78000000 		.4byte	.LFE29
 11845 00d1 0400     		.2byte	0x4
 11846 00d3 F3       		.byte	0xf3
 11847 00d4 01       		.uleb128 0x1
 11848 00d5 50       		.byte	0x50
 11849 00d6 9F       		.byte	0x9f
 11850 00d7 00000000 		.4byte	0
 11851 00db 00000000 		.4byte	0
 11852              	.LLST325:
 11853 00df 16000000 		.4byte	.LVL461
 11854 00e3 6D000000 		.4byte	.LVL467-1
 11855 00e7 0100     		.2byte	0x1
 11856 00e9 50       		.byte	0x50
 11857 00ea 6D000000 		.4byte	.LVL467-1
 11858 00ee 78000000 		.4byte	.LFE29
 11859 00f2 0400     		.2byte	0x4
 11860 00f4 F3       		.byte	0xf3
ARM GAS  /var/folders/d2/nstgp4h54kz7g1l847x_b8wc0000gn/T//cccORz8f.s 			page 212


 11861 00f5 01       		.uleb128 0x1
 11862 00f6 50       		.byte	0x50
 11863 00f7 9F       		.byte	0x9f
 11864 00f8 00000000 		.4byte	0
 11865 00fc 00000000 		.4byte	0
 11866              	.LLST317:
 11867 0100 00000000 		.4byte	.LVL456
 11868 0104 1F000000 		.4byte	.LVL457-1
 11869 0108 0100     		.2byte	0x1
 11870 010a 50       		.byte	0x50
 11871 010b 1F000000 		.4byte	.LVL457-1
 11872 010f 28000000 		.4byte	.LFE27
 11873 0113 0400     		.2byte	0x4
 11874 0115 F3       		.byte	0xf3
 11875 0116 01       		.uleb128 0x1
 11876 0117 50       		.byte	0x50
 11877 0118 9F       		.byte	0x9f
 11878 0119 00000000 		.4byte	0
 11879 011d 00000000 		.4byte	0
 11880              	.LLST297:
 11881 0121 00000000 		.4byte	.LVL414
 11882 0125 42000000 		.4byte	.LVL421
 11883 0129 0100     		.2byte	0x1
 11884 012b 50       		.byte	0x50
 11885 012c 42000000 		.4byte	.LVL421
 11886 0130 54010000 		.4byte	.LFE26
 11887 0134 0400     		.2byte	0x4
 11888 0136 F3       		.byte	0xf3
 11889 0137 01       		.uleb128 0x1
 11890 0138 50       		.byte	0x50
 11891 0139 9F       		.byte	0x9f
 11892 013a 00000000 		.4byte	0
 11893 013e 00000000 		.4byte	0
 11894              	.LLST298:
 11895 0142 24000000 		.4byte	.LVL416
 11896 0146 4D010000 		.4byte	.LVL455-1
 11897 014a 0100     		.2byte	0x1
 11898 014c 5E       		.byte	0x5e
 11899 014d 00000000 		.4byte	0
 11900 0151 00000000 		.4byte	0
 11901              	.LLST299:
 11902 0155 34000000 		.4byte	.LVL418
 11903 0159 60000000 		.4byte	.LVL424
 11904 015d 0100     		.2byte	0x1
 11905 015f 5C       		.byte	0x5c
 11906 0160 E8000000 		.4byte	.LVL437
 11907 0164 EE000000 		.4byte	.LVL439
 11908 0168 0100     		.2byte	0x1
 11909 016a 5C       		.byte	0x5c
 11910 016b 00000000 		.4byte	0
 11911 016f 00000000 		.4byte	0
 11912              	.LLST300:
 11913 0173 3C000000 		.4byte	.LVL419
 11914 0177 EA000000 		.4byte	.LVL438
 11915 017b 0100     		.2byte	0x1
 11916 017d 53       		.byte	0x53
 11917 017e FC000000 		.4byte	.LVL440
ARM GAS  /var/folders/d2/nstgp4h54kz7g1l847x_b8wc0000gn/T//cccORz8f.s 			page 213


 11918 0182 12010000 		.4byte	.LVL444
 11919 0186 0100     		.2byte	0x1
 11920 0188 53       		.byte	0x53
 11921 0189 18010000 		.4byte	.LVL445
 11922 018d 1E010000 		.4byte	.LVL446
 11923 0191 0100     		.2byte	0x1
 11924 0193 53       		.byte	0x53
 11925 0194 24010000 		.4byte	.LVL447
 11926 0198 44010000 		.4byte	.LVL453
 11927 019c 0100     		.2byte	0x1
 11928 019e 53       		.byte	0x53
 11929 019f 00000000 		.4byte	0
 11930 01a3 00000000 		.4byte	0
 11931              	.LLST301:
 11932 01a7 3E000000 		.4byte	.LVL420
 11933 01ab 60000000 		.4byte	.LVL424
 11934 01af 0B00     		.2byte	0xb
 11935 01b1 7C       		.byte	0x7c
 11936 01b2 00       		.sleb128 0
 11937 01b3 0A       		.byte	0xa
 11938 01b4 FFFF     		.2byte	0xffff
 11939 01b6 1A       		.byte	0x1a
 11940 01b7 31       		.byte	0x31
 11941 01b8 24       		.byte	0x24
 11942 01b9 74       		.byte	0x74
 11943 01ba 00       		.sleb128 0
 11944 01bb 22       		.byte	0x22
 11945 01bc E8000000 		.4byte	.LVL437
 11946 01c0 EE000000 		.4byte	.LVL439
 11947 01c4 0B00     		.2byte	0xb
 11948 01c6 7C       		.byte	0x7c
 11949 01c7 00       		.sleb128 0
 11950 01c8 0A       		.byte	0xa
 11951 01c9 FFFF     		.2byte	0xffff
 11952 01cb 1A       		.byte	0x1a
 11953 01cc 31       		.byte	0x31
 11954 01cd 24       		.byte	0x24
 11955 01ce 74       		.byte	0x74
 11956 01cf 00       		.sleb128 0
 11957 01d0 22       		.byte	0x22
 11958 01d1 00000000 		.4byte	0
 11959 01d5 00000000 		.4byte	0
 11960              	.LLST302:
 11961 01d9 8A000000 		.4byte	.LVL427
 11962 01dd 8E000000 		.4byte	.LVL428
 11963 01e1 0100     		.2byte	0x1
 11964 01e3 50       		.byte	0x50
 11965 01e4 8E000000 		.4byte	.LVL428
 11966 01e8 C6000000 		.4byte	.LVL433
 11967 01ec 0100     		.2byte	0x1
 11968 01ee 59       		.byte	0x59
 11969 01ef C6000000 		.4byte	.LVL433
 11970 01f3 C8000000 		.4byte	.LVL434
 11971 01f7 0100     		.2byte	0x1
 11972 01f9 50       		.byte	0x50
 11973 01fa CA000000 		.4byte	.LVL435
 11974 01fe E8000000 		.4byte	.LVL437
ARM GAS  /var/folders/d2/nstgp4h54kz7g1l847x_b8wc0000gn/T//cccORz8f.s 			page 214


 11975 0202 0100     		.2byte	0x1
 11976 0204 50       		.byte	0x50
 11977 0205 FC000000 		.4byte	.LVL440
 11978 0209 04010000 		.4byte	.LVL442
 11979 020d 0100     		.2byte	0x1
 11980 020f 59       		.byte	0x59
 11981 0210 24010000 		.4byte	.LVL447
 11982 0214 34010000 		.4byte	.LVL450
 11983 0218 0100     		.2byte	0x1
 11984 021a 59       		.byte	0x59
 11985 021b 00000000 		.4byte	0
 11986 021f 00000000 		.4byte	0
 11987              	.LLST303:
 11988 0223 8A000000 		.4byte	.LVL427
 11989 0227 C0000000 		.4byte	.LVL432
 11990 022b 0100     		.2byte	0x1
 11991 022d 50       		.byte	0x50
 11992 022e FC000000 		.4byte	.LVL440
 11993 0232 04010000 		.4byte	.LVL442
 11994 0236 0100     		.2byte	0x1
 11995 0238 50       		.byte	0x50
 11996 0239 24010000 		.4byte	.LVL447
 11997 023d 26010000 		.4byte	.LVL448
 11998 0241 0100     		.2byte	0x1
 11999 0243 50       		.byte	0x50
 12000 0244 00000000 		.4byte	0
 12001 0248 00000000 		.4byte	0
 12002              	.LLST304:
 12003 024c 8A000000 		.4byte	.LVL427
 12004 0250 E8000000 		.4byte	.LVL437
 12005 0254 0100     		.2byte	0x1
 12006 0256 56       		.byte	0x56
 12007 0257 FC000000 		.4byte	.LVL440
 12008 025b 18010000 		.4byte	.LVL445
 12009 025f 0100     		.2byte	0x1
 12010 0261 56       		.byte	0x56
 12011 0262 24010000 		.4byte	.LVL447
 12012 0266 34010000 		.4byte	.LVL450
 12013 026a 0100     		.2byte	0x1
 12014 026c 51       		.byte	0x51
 12015 026d 00000000 		.4byte	0
 12016 0271 00000000 		.4byte	0
 12017              	.LLST305:
 12018 0275 2E010000 		.4byte	.LVL449
 12019 0279 34010000 		.4byte	.LVL450
 12020 027d 0100     		.2byte	0x1
 12021 027f 5C       		.byte	0x5c
 12022 0280 00000000 		.4byte	0
 12023 0284 00000000 		.4byte	0
 12024              	.LLST306:
 12025 0288 BA000000 		.4byte	.LVL431
 12026 028c C6000000 		.4byte	.LVL433
 12027 0290 0100     		.2byte	0x1
 12028 0292 51       		.byte	0x51
 12029 0293 00010000 		.4byte	.LVL441
 12030 0297 04010000 		.4byte	.LVL442
 12031 029b 0100     		.2byte	0x1
ARM GAS  /var/folders/d2/nstgp4h54kz7g1l847x_b8wc0000gn/T//cccORz8f.s 			page 215


 12032 029d 51       		.byte	0x51
 12033 029e 24010000 		.4byte	.LVL447
 12034 02a2 34010000 		.4byte	.LVL450
 12035 02a6 0100     		.2byte	0x1
 12036 02a8 51       		.byte	0x51
 12037 02a9 00000000 		.4byte	0
 12038 02ad 00000000 		.4byte	0
 12039              	.LLST307:
 12040 02b1 3E000000 		.4byte	.LVL420
 12041 02b5 42000000 		.4byte	.LVL421
 12042 02b9 0200     		.2byte	0x2
 12043 02bb 30       		.byte	0x30
 12044 02bc 9F       		.byte	0x9f
 12045 02bd 42000000 		.4byte	.LVL421
 12046 02c1 4A000000 		.4byte	.LVL422
 12047 02c5 0300     		.2byte	0x3
 12048 02c7 70       		.byte	0x70
 12049 02c8 01       		.sleb128 1
 12050 02c9 9F       		.byte	0x9f
 12051 02ca 4A000000 		.4byte	.LVL422
 12052 02ce 4C000000 		.4byte	.LVL423
 12053 02d2 0100     		.2byte	0x1
 12054 02d4 52       		.byte	0x52
 12055 02d5 4C000000 		.4byte	.LVL423
 12056 02d9 60000000 		.4byte	.LVL424
 12057 02dd 0100     		.2byte	0x1
 12058 02df 50       		.byte	0x50
 12059 02e0 60000000 		.4byte	.LVL424
 12060 02e4 62000000 		.4byte	.LVL425
 12061 02e8 0100     		.2byte	0x1
 12062 02ea 52       		.byte	0x52
 12063 02eb 64000000 		.4byte	.LVL426
 12064 02ef E8000000 		.4byte	.LVL437
 12065 02f3 0100     		.2byte	0x1
 12066 02f5 52       		.byte	0x52
 12067 02f6 E8000000 		.4byte	.LVL437
 12068 02fa EE000000 		.4byte	.LVL439
 12069 02fe 0300     		.2byte	0x3
 12070 0300 70       		.byte	0x70
 12071 0301 01       		.sleb128 1
 12072 0302 9F       		.byte	0x9f
 12073 0303 FC000000 		.4byte	.LVL440
 12074 0307 0A010000 		.4byte	.LVL443
 12075 030b 0100     		.2byte	0x1
 12076 030d 52       		.byte	0x52
 12077 030e 18010000 		.4byte	.LVL445
 12078 0312 4A010000 		.4byte	.LVL454
 12079 0316 0100     		.2byte	0x1
 12080 0318 52       		.byte	0x52
 12081 0319 00000000 		.4byte	0
 12082 031d 00000000 		.4byte	0
 12083              	.LLST316:
 12084 0321 34010000 		.4byte	.LVL450
 12085 0325 3E010000 		.4byte	.LVL451
 12086 0329 0300     		.2byte	0x3
 12087 032b 70       		.byte	0x70
 12088 032c 7F       		.sleb128 -1
ARM GAS  /var/folders/d2/nstgp4h54kz7g1l847x_b8wc0000gn/T//cccORz8f.s 			page 216


 12089 032d 9F       		.byte	0x9f
 12090 032e 3E010000 		.4byte	.LVL451
 12091 0332 42010000 		.4byte	.LVL452
 12092 0336 0300     		.2byte	0x3
 12093 0338 70       		.byte	0x70
 12094 0339 00       		.sleb128 0
 12095 033a 9F       		.byte	0x9f
 12096 033b 00000000 		.4byte	0
 12097 033f 00000000 		.4byte	0
 12098              	.LLST308:
 12099 0343 0E000000 		.4byte	.LVL415
 12100 0347 42000000 		.4byte	.LVL421
 12101 034b 0100     		.2byte	0x1
 12102 034d 50       		.byte	0x50
 12103 034e 42000000 		.4byte	.LVL421
 12104 0352 54010000 		.4byte	.LFE26
 12105 0356 0400     		.2byte	0x4
 12106 0358 F3       		.byte	0xf3
 12107 0359 01       		.uleb128 0x1
 12108 035a 50       		.byte	0x50
 12109 035b 9F       		.byte	0x9f
 12110 035c 00000000 		.4byte	0
 12111 0360 00000000 		.4byte	0
 12112              	.LLST309:
 12113 0364 0E000000 		.4byte	.LVL415
 12114 0368 42000000 		.4byte	.LVL421
 12115 036c 0100     		.2byte	0x1
 12116 036e 50       		.byte	0x50
 12117 036f 42000000 		.4byte	.LVL421
 12118 0373 54010000 		.4byte	.LFE26
 12119 0377 0400     		.2byte	0x4
 12120 0379 F3       		.byte	0xf3
 12121 037a 01       		.uleb128 0x1
 12122 037b 50       		.byte	0x50
 12123 037c 9F       		.byte	0x9f
 12124 037d 00000000 		.4byte	0
 12125 0381 00000000 		.4byte	0
 12126              	.LLST310:
 12127 0385 24000000 		.4byte	.LVL416
 12128 0389 42000000 		.4byte	.LVL421
 12129 038d 0100     		.2byte	0x1
 12130 038f 50       		.byte	0x50
 12131 0390 42000000 		.4byte	.LVL421
 12132 0394 54010000 		.4byte	.LFE26
 12133 0398 0400     		.2byte	0x4
 12134 039a F3       		.byte	0xf3
 12135 039b 01       		.uleb128 0x1
 12136 039c 50       		.byte	0x50
 12137 039d 9F       		.byte	0x9f
 12138 039e 00000000 		.4byte	0
 12139 03a2 00000000 		.4byte	0
 12140              	.LLST311:
 12141 03a6 24000000 		.4byte	.LVL416
 12142 03aa 42000000 		.4byte	.LVL421
 12143 03ae 0100     		.2byte	0x1
 12144 03b0 50       		.byte	0x50
 12145 03b1 42000000 		.4byte	.LVL421
ARM GAS  /var/folders/d2/nstgp4h54kz7g1l847x_b8wc0000gn/T//cccORz8f.s 			page 217


 12146 03b5 54010000 		.4byte	.LFE26
 12147 03b9 0400     		.2byte	0x4
 12148 03bb F3       		.byte	0xf3
 12149 03bc 01       		.uleb128 0x1
 12150 03bd 50       		.byte	0x50
 12151 03be 9F       		.byte	0x9f
 12152 03bf 00000000 		.4byte	0
 12153 03c3 00000000 		.4byte	0
 12154              	.LLST312:
 12155 03c7 2C000000 		.4byte	.LVL417
 12156 03cb 42000000 		.4byte	.LVL421
 12157 03cf 0100     		.2byte	0x1
 12158 03d1 50       		.byte	0x50
 12159 03d2 42000000 		.4byte	.LVL421
 12160 03d6 54010000 		.4byte	.LFE26
 12161 03da 0400     		.2byte	0x4
 12162 03dc F3       		.byte	0xf3
 12163 03dd 01       		.uleb128 0x1
 12164 03de 50       		.byte	0x50
 12165 03df 9F       		.byte	0x9f
 12166 03e0 00000000 		.4byte	0
 12167 03e4 00000000 		.4byte	0
 12168              	.LLST313:
 12169 03e8 2C000000 		.4byte	.LVL417
 12170 03ec 42000000 		.4byte	.LVL421
 12171 03f0 0100     		.2byte	0x1
 12172 03f2 50       		.byte	0x50
 12173 03f3 42000000 		.4byte	.LVL421
 12174 03f7 54010000 		.4byte	.LFE26
 12175 03fb 0400     		.2byte	0x4
 12176 03fd F3       		.byte	0xf3
 12177 03fe 01       		.uleb128 0x1
 12178 03ff 50       		.byte	0x50
 12179 0400 9F       		.byte	0x9f
 12180 0401 00000000 		.4byte	0
 12181 0405 00000000 		.4byte	0
 12182              	.LLST314:
 12183 0409 34000000 		.4byte	.LVL418
 12184 040d 42000000 		.4byte	.LVL421
 12185 0411 0100     		.2byte	0x1
 12186 0413 50       		.byte	0x50
 12187 0414 42000000 		.4byte	.LVL421
 12188 0418 54010000 		.4byte	.LFE26
 12189 041c 0400     		.2byte	0x4
 12190 041e F3       		.byte	0xf3
 12191 041f 01       		.uleb128 0x1
 12192 0420 50       		.byte	0x50
 12193 0421 9F       		.byte	0x9f
 12194 0422 00000000 		.4byte	0
 12195 0426 00000000 		.4byte	0
 12196              	.LLST315:
 12197 042a 34000000 		.4byte	.LVL418
 12198 042e 42000000 		.4byte	.LVL421
 12199 0432 0100     		.2byte	0x1
 12200 0434 50       		.byte	0x50
 12201 0435 42000000 		.4byte	.LVL421
 12202 0439 54010000 		.4byte	.LFE26
ARM GAS  /var/folders/d2/nstgp4h54kz7g1l847x_b8wc0000gn/T//cccORz8f.s 			page 218


 12203 043d 0400     		.2byte	0x4
 12204 043f F3       		.byte	0xf3
 12205 0440 01       		.uleb128 0x1
 12206 0441 50       		.byte	0x50
 12207 0442 9F       		.byte	0x9f
 12208 0443 00000000 		.4byte	0
 12209 0447 00000000 		.4byte	0
 12210              	.LLST284:
 12211 044b 00000000 		.4byte	.LVL386
 12212 044f B3000000 		.4byte	.LVL413-1
 12213 0453 0100     		.2byte	0x1
 12214 0455 50       		.byte	0x50
 12215 0456 B3000000 		.4byte	.LVL413-1
 12216 045a B8000000 		.4byte	.LFE25
 12217 045e 0400     		.2byte	0x4
 12218 0460 F3       		.byte	0xf3
 12219 0461 01       		.uleb128 0x1
 12220 0462 50       		.byte	0x50
 12221 0463 9F       		.byte	0x9f
 12222 0464 00000000 		.4byte	0
 12223 0468 00000000 		.4byte	0
 12224              	.LLST285:
 12225 046c 1E000000 		.4byte	.LVL388
 12226 0470 5A000000 		.4byte	.LVL393
 12227 0474 0100     		.2byte	0x1
 12228 0476 53       		.byte	0x53
 12229 0477 5A000000 		.4byte	.LVL393
 12230 047b 92000000 		.4byte	.LVL407
 12231 047f 0100     		.2byte	0x1
 12232 0481 55       		.byte	0x55
 12233 0482 92000000 		.4byte	.LVL407
 12234 0486 94000000 		.4byte	.LVL408
 12235 048a 0100     		.2byte	0x1
 12236 048c 53       		.byte	0x53
 12237 048d A4000000 		.4byte	.LVL409
 12238 0491 AC000000 		.4byte	.LVL411
 12239 0495 0100     		.2byte	0x1
 12240 0497 55       		.byte	0x55
 12241 0498 AC000000 		.4byte	.LVL411
 12242 049c B0000000 		.4byte	.LVL412
 12243 04a0 0100     		.2byte	0x1
 12244 04a2 53       		.byte	0x53
 12245 04a3 00000000 		.4byte	0
 12246 04a7 00000000 		.4byte	0
 12247              	.LLST286:
 12248 04ab 2E000000 		.4byte	.LVL390
 12249 04af 42000000 		.4byte	.LVL391
 12250 04b3 0100     		.2byte	0x1
 12251 04b5 5E       		.byte	0x5e
 12252 04b6 00000000 		.4byte	0
 12253 04ba 00000000 		.4byte	0
 12254              	.LLST287:
 12255 04be 2E000000 		.4byte	.LVL390
 12256 04c2 42000000 		.4byte	.LVL391
 12257 04c6 0100     		.2byte	0x1
 12258 04c8 52       		.byte	0x52
 12259 04c9 00000000 		.4byte	0
ARM GAS  /var/folders/d2/nstgp4h54kz7g1l847x_b8wc0000gn/T//cccORz8f.s 			page 219


 12260 04cd 00000000 		.4byte	0
 12261              	.LLST288:
 12262 04d1 2E000000 		.4byte	.LVL390
 12263 04d5 42000000 		.4byte	.LVL391
 12264 04d9 0200     		.2byte	0x2
 12265 04db 30       		.byte	0x30
 12266 04dc 9F       		.byte	0x9f
 12267 04dd 00000000 		.4byte	0
 12268 04e1 00000000 		.4byte	0
 12269              	.LLST295:
 12270 04e5 4E000000 		.4byte	.LVL392
 12271 04e9 6C000000 		.4byte	.LVL397
 12272 04ed 0100     		.2byte	0x1
 12273 04ef 54       		.byte	0x54
 12274 04f0 A4000000 		.4byte	.LVL409
 12275 04f4 B0000000 		.4byte	.LVL412
 12276 04f8 0100     		.2byte	0x1
 12277 04fa 54       		.byte	0x54
 12278 04fb 00000000 		.4byte	0
 12279 04ff 00000000 		.4byte	0
 12280              	.LLST296:
 12281 0503 5A000000 		.4byte	.LVL393
 12282 0507 6C000000 		.4byte	.LVL397
 12283 050b 0100     		.2byte	0x1
 12284 050d 54       		.byte	0x54
 12285 050e A4000000 		.4byte	.LVL409
 12286 0512 A6000000 		.4byte	.LVL410
 12287 0516 0100     		.2byte	0x1
 12288 0518 54       		.byte	0x54
 12289 0519 00000000 		.4byte	0
 12290 051d 00000000 		.4byte	0
 12291              	.LLST289:
 12292 0521 0E000000 		.4byte	.LVL387
 12293 0525 B3000000 		.4byte	.LVL413-1
 12294 0529 0100     		.2byte	0x1
 12295 052b 50       		.byte	0x50
 12296 052c B3000000 		.4byte	.LVL413-1
 12297 0530 B8000000 		.4byte	.LFE25
 12298 0534 0400     		.2byte	0x4
 12299 0536 F3       		.byte	0xf3
 12300 0537 01       		.uleb128 0x1
 12301 0538 50       		.byte	0x50
 12302 0539 9F       		.byte	0x9f
 12303 053a 00000000 		.4byte	0
 12304 053e 00000000 		.4byte	0
 12305              	.LLST290:
 12306 0542 0E000000 		.4byte	.LVL387
 12307 0546 B3000000 		.4byte	.LVL413-1
 12308 054a 0100     		.2byte	0x1
 12309 054c 50       		.byte	0x50
 12310 054d B3000000 		.4byte	.LVL413-1
 12311 0551 B8000000 		.4byte	.LFE25
 12312 0555 0400     		.2byte	0x4
 12313 0557 F3       		.byte	0xf3
 12314 0558 01       		.uleb128 0x1
 12315 0559 50       		.byte	0x50
 12316 055a 9F       		.byte	0x9f
ARM GAS  /var/folders/d2/nstgp4h54kz7g1l847x_b8wc0000gn/T//cccORz8f.s 			page 220


 12317 055b 00000000 		.4byte	0
 12318 055f 00000000 		.4byte	0
 12319              	.LLST291:
 12320 0563 1E000000 		.4byte	.LVL388
 12321 0567 B3000000 		.4byte	.LVL413-1
 12322 056b 0100     		.2byte	0x1
 12323 056d 50       		.byte	0x50
 12324 056e B3000000 		.4byte	.LVL413-1
 12325 0572 B8000000 		.4byte	.LFE25
 12326 0576 0400     		.2byte	0x4
 12327 0578 F3       		.byte	0xf3
 12328 0579 01       		.uleb128 0x1
 12329 057a 50       		.byte	0x50
 12330 057b 9F       		.byte	0x9f
 12331 057c 00000000 		.4byte	0
 12332 0580 00000000 		.4byte	0
 12333              	.LLST292:
 12334 0584 1E000000 		.4byte	.LVL388
 12335 0588 B3000000 		.4byte	.LVL413-1
 12336 058c 0100     		.2byte	0x1
 12337 058e 50       		.byte	0x50
 12338 058f B3000000 		.4byte	.LVL413-1
 12339 0593 B8000000 		.4byte	.LFE25
 12340 0597 0400     		.2byte	0x4
 12341 0599 F3       		.byte	0xf3
 12342 059a 01       		.uleb128 0x1
 12343 059b 50       		.byte	0x50
 12344 059c 9F       		.byte	0x9f
 12345 059d 00000000 		.4byte	0
 12346 05a1 00000000 		.4byte	0
 12347              	.LLST293:
 12348 05a5 26000000 		.4byte	.LVL389
 12349 05a9 B3000000 		.4byte	.LVL413-1
 12350 05ad 0100     		.2byte	0x1
 12351 05af 50       		.byte	0x50
 12352 05b0 B3000000 		.4byte	.LVL413-1
 12353 05b4 B8000000 		.4byte	.LFE25
 12354 05b8 0400     		.2byte	0x4
 12355 05ba F3       		.byte	0xf3
 12356 05bb 01       		.uleb128 0x1
 12357 05bc 50       		.byte	0x50
 12358 05bd 9F       		.byte	0x9f
 12359 05be 00000000 		.4byte	0
 12360 05c2 00000000 		.4byte	0
 12361              	.LLST294:
 12362 05c6 26000000 		.4byte	.LVL389
 12363 05ca B3000000 		.4byte	.LVL413-1
 12364 05ce 0100     		.2byte	0x1
 12365 05d0 50       		.byte	0x50
 12366 05d1 B3000000 		.4byte	.LVL413-1
 12367 05d5 B8000000 		.4byte	.LFE25
 12368 05d9 0400     		.2byte	0x4
 12369 05db F3       		.byte	0xf3
 12370 05dc 01       		.uleb128 0x1
 12371 05dd 50       		.byte	0x50
 12372 05de 9F       		.byte	0x9f
 12373 05df 00000000 		.4byte	0
ARM GAS  /var/folders/d2/nstgp4h54kz7g1l847x_b8wc0000gn/T//cccORz8f.s 			page 221


 12374 05e3 00000000 		.4byte	0
 12375              	.LLST274:
 12376 05e7 00000000 		.4byte	.LVL369
 12377 05eb 18000000 		.4byte	.LVL370
 12378 05ef 0100     		.2byte	0x1
 12379 05f1 50       		.byte	0x50
 12380 05f2 18000000 		.4byte	.LVL370
 12381 05f6 90000000 		.4byte	.LFE24
 12382 05fa 0100     		.2byte	0x1
 12383 05fc 54       		.byte	0x54
 12384 05fd 00000000 		.4byte	0
 12385 0601 00000000 		.4byte	0
 12386              	.LLST275:
 12387 0605 28000000 		.4byte	.LVL371
 12388 0609 72000000 		.4byte	.LVL382
 12389 060d 0100     		.2byte	0x1
 12390 060f 58       		.byte	0x58
 12391 0610 00000000 		.4byte	0
 12392 0614 00000000 		.4byte	0
 12393              	.LLST276:
 12394 0618 30000000 		.4byte	.LVL372
 12395 061c 42000000 		.4byte	.LVL375
 12396 0620 0100     		.2byte	0x1
 12397 0622 52       		.byte	0x52
 12398 0623 00000000 		.4byte	0
 12399 0627 00000000 		.4byte	0
 12400              	.LLST277:
 12401 062b 32000000 		.4byte	.LVL373
 12402 062f 46000000 		.4byte	.LVL376
 12403 0633 0B00     		.2byte	0xb
 12404 0635 71       		.byte	0x71
 12405 0636 00       		.sleb128 0
 12406 0637 40       		.byte	0x40
 12407 0638 24       		.byte	0x24
 12408 0639 40       		.byte	0x40
 12409 063a 26       		.byte	0x26
 12410 063b 31       		.byte	0x31
 12411 063c 24       		.byte	0x24
 12412 063d 70       		.byte	0x70
 12413 063e 00       		.sleb128 0
 12414 063f 22       		.byte	0x22
 12415 0640 46000000 		.4byte	.LVL376
 12416 0644 4F000000 		.4byte	.LVL378-1
 12417 0648 0C00     		.2byte	0xc
 12418 064a 71       		.byte	0x71
 12419 064b 00       		.sleb128 0
 12420 064c 40       		.byte	0x40
 12421 064d 24       		.byte	0x24
 12422 064e 40       		.byte	0x40
 12423 064f 26       		.byte	0x26
 12424 0650 31       		.byte	0x31
 12425 0651 24       		.byte	0x24
 12426 0652 74       		.byte	0x74
 12427 0653 14       		.sleb128 20
 12428 0654 06       		.byte	0x6
 12429 0655 22       		.byte	0x22
 12430 0656 00000000 		.4byte	0
ARM GAS  /var/folders/d2/nstgp4h54kz7g1l847x_b8wc0000gn/T//cccORz8f.s 			page 222


 12431 065a 00000000 		.4byte	0
 12432              	.LLST278:
 12433 065e 3A000000 		.4byte	.LVL374
 12434 0662 6E000000 		.4byte	.LVL381
 12435 0666 0100     		.2byte	0x1
 12436 0668 56       		.byte	0x56
 12437 0669 00000000 		.4byte	0
 12438 066d 00000000 		.4byte	0
 12439              	.LLST279:
 12440 0671 4C000000 		.4byte	.LVL377
 12441 0675 76000000 		.4byte	.LVL383
 12442 0679 0100     		.2byte	0x1
 12443 067b 55       		.byte	0x55
 12444 067c 00000000 		.4byte	0
 12445 0680 00000000 		.4byte	0
 12446              	.LLST280:
 12447 0684 58000000 		.4byte	.LVL380
 12448 0688 8B000000 		.4byte	.LVL385-1
 12449 068c 0100     		.2byte	0x1
 12450 068e 50       		.byte	0x50
 12451 068f 00000000 		.4byte	0
 12452 0693 00000000 		.4byte	0
 12453              	.LLST281:
 12454 0697 58000000 		.4byte	.LVL380
 12455 069b 6E000000 		.4byte	.LVL381
 12456 069f 1E00     		.2byte	0x1e
 12457 06a1 7A       		.byte	0x7a
 12458 06a2 00       		.sleb128 0
 12459 06a3 40       		.byte	0x40
 12460 06a4 24       		.byte	0x24
 12461 06a5 40       		.byte	0x40
 12462 06a6 26       		.byte	0x26
 12463 06a7 76       		.byte	0x76
 12464 06a8 00       		.sleb128 0
 12465 06a9 40       		.byte	0x40
 12466 06aa 24       		.byte	0x24
 12467 06ab 40       		.byte	0x40
 12468 06ac 26       		.byte	0x26
 12469 06ad 1E       		.byte	0x1e
 12470 06ae 70       		.byte	0x70
 12471 06af 00       		.sleb128 0
 12472 06b0 40       		.byte	0x40
 12473 06b1 24       		.byte	0x24
 12474 06b2 40       		.byte	0x40
 12475 06b3 26       		.byte	0x26
 12476 06b4 75       		.byte	0x75
 12477 06b5 00       		.sleb128 0
 12478 06b6 40       		.byte	0x40
 12479 06b7 24       		.byte	0x24
 12480 06b8 40       		.byte	0x40
 12481 06b9 26       		.byte	0x26
 12482 06ba 1E       		.byte	0x1e
 12483 06bb 1C       		.byte	0x1c
 12484 06bc 3F       		.byte	0x3f
 12485 06bd 26       		.byte	0x26
 12486 06be 9F       		.byte	0x9f
 12487 06bf 00000000 		.4byte	0
ARM GAS  /var/folders/d2/nstgp4h54kz7g1l847x_b8wc0000gn/T//cccORz8f.s 			page 223


 12488 06c3 00000000 		.4byte	0
 12489              	.LLST282:
 12490 06c7 58000000 		.4byte	.LVL380
 12491 06cb 6E000000 		.4byte	.LVL381
 12492 06cf 1E00     		.2byte	0x1e
 12493 06d1 7A       		.byte	0x7a
 12494 06d2 00       		.sleb128 0
 12495 06d3 40       		.byte	0x40
 12496 06d4 24       		.byte	0x24
 12497 06d5 40       		.byte	0x40
 12498 06d6 26       		.byte	0x26
 12499 06d7 75       		.byte	0x75
 12500 06d8 00       		.sleb128 0
 12501 06d9 40       		.byte	0x40
 12502 06da 24       		.byte	0x24
 12503 06db 40       		.byte	0x40
 12504 06dc 26       		.byte	0x26
 12505 06dd 1E       		.byte	0x1e
 12506 06de 76       		.byte	0x76
 12507 06df 00       		.sleb128 0
 12508 06e0 40       		.byte	0x40
 12509 06e1 24       		.byte	0x24
 12510 06e2 40       		.byte	0x40
 12511 06e3 26       		.byte	0x26
 12512 06e4 70       		.byte	0x70
 12513 06e5 00       		.sleb128 0
 12514 06e6 40       		.byte	0x40
 12515 06e7 24       		.byte	0x24
 12516 06e8 40       		.byte	0x40
 12517 06e9 26       		.byte	0x26
 12518 06ea 1E       		.byte	0x1e
 12519 06eb 22       		.byte	0x22
 12520 06ec 3F       		.byte	0x3f
 12521 06ed 26       		.byte	0x26
 12522 06ee 9F       		.byte	0x9f
 12523 06ef 00000000 		.4byte	0
 12524 06f3 00000000 		.4byte	0
 12525              	.LLST283:
 12526 06f7 4C000000 		.4byte	.LVL377
 12527 06fb 52000000 		.4byte	.LVL379
 12528 06ff 0100     		.2byte	0x1
 12529 0701 5B       		.byte	0x5b
 12530 0702 00000000 		.4byte	0
 12531 0706 00000000 		.4byte	0
 12532              	.LLST269:
 12533 070a 00000000 		.4byte	.LVL356
 12534 070e 14000000 		.4byte	.LVL357
 12535 0712 0100     		.2byte	0x1
 12536 0714 50       		.byte	0x50
 12537 0715 14000000 		.4byte	.LVL357
 12538 0719 80000000 		.4byte	.LFE23
 12539 071d 0100     		.2byte	0x1
 12540 071f 59       		.byte	0x59
 12541 0720 00000000 		.4byte	0
 12542 0724 00000000 		.4byte	0
 12543              	.LLST270:
 12544 0728 22000000 		.4byte	.LVL358
ARM GAS  /var/folders/d2/nstgp4h54kz7g1l847x_b8wc0000gn/T//cccORz8f.s 			page 224


 12545 072c 5E000000 		.4byte	.LVL365
 12546 0730 0100     		.2byte	0x1
 12547 0732 54       		.byte	0x54
 12548 0733 5E000000 		.4byte	.LVL365
 12549 0737 68000000 		.4byte	.LVL366
 12550 073b 0100     		.2byte	0x1
 12551 073d 55       		.byte	0x55
 12552 073e 00000000 		.4byte	0
 12553 0742 00000000 		.4byte	0
 12554              	.LLST271:
 12555 0746 36000000 		.4byte	.LVL360
 12556 074a 44000000 		.4byte	.LVL362
 12557 074e 0100     		.2byte	0x1
 12558 0750 57       		.byte	0x57
 12559 0751 00000000 		.4byte	0
 12560 0755 00000000 		.4byte	0
 12561              	.LLST272:
 12562 0759 36000000 		.4byte	.LVL360
 12563 075d 40000000 		.4byte	.LVL361
 12564 0761 0100     		.2byte	0x1
 12565 0763 56       		.byte	0x56
 12566 0764 40000000 		.4byte	.LVL361
 12567 0768 44000000 		.4byte	.LVL362
 12568 076c 0700     		.2byte	0x7
 12569 076e 72       		.byte	0x72
 12570 076f 00       		.sleb128 0
 12571 0770 31       		.byte	0x31
 12572 0771 24       		.byte	0x24
 12573 0772 70       		.byte	0x70
 12574 0773 00       		.sleb128 0
 12575 0774 22       		.byte	0x22
 12576 0775 00000000 		.4byte	0
 12577 0779 00000000 		.4byte	0
 12578              	.LLST273:
 12579 077d 36000000 		.4byte	.LVL360
 12580 0781 44000000 		.4byte	.LVL362
 12581 0785 0200     		.2byte	0x2
 12582 0787 30       		.byte	0x30
 12583 0788 9F       		.byte	0x9f
 12584 0789 00000000 		.4byte	0
 12585 078d 00000000 		.4byte	0
 12586              	.LLST264:
 12587 0791 00000000 		.4byte	.LVL343
 12588 0795 14000000 		.4byte	.LVL344
 12589 0799 0100     		.2byte	0x1
 12590 079b 50       		.byte	0x50
 12591 079c 14000000 		.4byte	.LVL344
 12592 07a0 7C000000 		.4byte	.LFE22
 12593 07a4 0100     		.2byte	0x1
 12594 07a6 5A       		.byte	0x5a
 12595 07a7 00000000 		.4byte	0
 12596 07ab 00000000 		.4byte	0
 12597              	.LLST265:
 12598 07af 22000000 		.4byte	.LVL345
 12599 07b3 58000000 		.4byte	.LVL352
 12600 07b7 0100     		.2byte	0x1
 12601 07b9 54       		.byte	0x54
ARM GAS  /var/folders/d2/nstgp4h54kz7g1l847x_b8wc0000gn/T//cccORz8f.s 			page 225


 12602 07ba 58000000 		.4byte	.LVL352
 12603 07be 62000000 		.4byte	.LVL353
 12604 07c2 0100     		.2byte	0x1
 12605 07c4 55       		.byte	0x55
 12606 07c5 00000000 		.4byte	0
 12607 07c9 00000000 		.4byte	0
 12608              	.LLST266:
 12609 07cd 36000000 		.4byte	.LVL347
 12610 07d1 44000000 		.4byte	.LVL349
 12611 07d5 0100     		.2byte	0x1
 12612 07d7 57       		.byte	0x57
 12613 07d8 00000000 		.4byte	0
 12614 07dc 00000000 		.4byte	0
 12615              	.LLST267:
 12616 07e0 36000000 		.4byte	.LVL347
 12617 07e4 40000000 		.4byte	.LVL348
 12618 07e8 0100     		.2byte	0x1
 12619 07ea 56       		.byte	0x56
 12620 07eb 40000000 		.4byte	.LVL348
 12621 07ef 44000000 		.4byte	.LVL349
 12622 07f3 0700     		.2byte	0x7
 12623 07f5 72       		.byte	0x72
 12624 07f6 00       		.sleb128 0
 12625 07f7 31       		.byte	0x31
 12626 07f8 24       		.byte	0x24
 12627 07f9 70       		.byte	0x70
 12628 07fa 00       		.sleb128 0
 12629 07fb 22       		.byte	0x22
 12630 07fc 00000000 		.4byte	0
 12631 0800 00000000 		.4byte	0
 12632              	.LLST268:
 12633 0804 36000000 		.4byte	.LVL347
 12634 0808 44000000 		.4byte	.LVL349
 12635 080c 0200     		.2byte	0x2
 12636 080e 30       		.byte	0x30
 12637 080f 9F       		.byte	0x9f
 12638 0810 00000000 		.4byte	0
 12639 0814 00000000 		.4byte	0
 12640              	.LLST254:
 12641 0818 00000000 		.4byte	.LVL322
 12642 081c 10000000 		.4byte	.LVL323
 12643 0820 0100     		.2byte	0x1
 12644 0822 50       		.byte	0x50
 12645 0823 10000000 		.4byte	.LVL323
 12646 0827 AC000000 		.4byte	.LFE21
 12647 082b 0100     		.2byte	0x1
 12648 082d 56       		.byte	0x56
 12649 082e 00000000 		.4byte	0
 12650 0832 00000000 		.4byte	0
 12651              	.LLST255:
 12652 0836 1E000000 		.4byte	.LVL324
 12653 083a 54000000 		.4byte	.LVL329
 12654 083e 0100     		.2byte	0x1
 12655 0840 53       		.byte	0x53
 12656 0841 54000000 		.4byte	.LVL329
 12657 0845 62000000 		.4byte	.LVL332
 12658 0849 0100     		.2byte	0x1
ARM GAS  /var/folders/d2/nstgp4h54kz7g1l847x_b8wc0000gn/T//cccORz8f.s 			page 226


 12659 084b 55       		.byte	0x55
 12660 084c 62000000 		.4byte	.LVL332
 12661 0850 7E000000 		.4byte	.LVL336
 12662 0854 0100     		.2byte	0x1
 12663 0856 53       		.byte	0x53
 12664 0857 7E000000 		.4byte	.LVL336
 12665 085b 8E000000 		.4byte	.LVL339
 12666 085f 0100     		.2byte	0x1
 12667 0861 55       		.byte	0x55
 12668 0862 8E000000 		.4byte	.LVL339
 12669 0866 90000000 		.4byte	.LVL340
 12670 086a 0100     		.2byte	0x1
 12671 086c 53       		.byte	0x53
 12672 086d 00000000 		.4byte	0
 12673 0871 00000000 		.4byte	0
 12674              	.LLST256:
 12675 0875 34000000 		.4byte	.LVL327
 12676 0879 54000000 		.4byte	.LVL329
 12677 087d 0100     		.2byte	0x1
 12678 087f 52       		.byte	0x52
 12679 0880 00000000 		.4byte	0
 12680 0884 00000000 		.4byte	0
 12681              	.LLST257:
 12682 0888 34000000 		.4byte	.LVL327
 12683 088c 52000000 		.4byte	.LVL328
 12684 0890 0100     		.2byte	0x1
 12685 0892 5B       		.byte	0x5b
 12686 0893 00000000 		.4byte	0
 12687 0897 00000000 		.4byte	0
 12688              	.LLST258:
 12689 089b 34000000 		.4byte	.LVL327
 12690 089f 54000000 		.4byte	.LVL329
 12691 08a3 0100     		.2byte	0x1
 12692 08a5 51       		.byte	0x51
 12693 08a6 00000000 		.4byte	0
 12694 08aa 00000000 		.4byte	0
 12695              	.LLST259:
 12696 08ae 34000000 		.4byte	.LVL327
 12697 08b2 54000000 		.4byte	.LVL329
 12698 08b6 0200     		.2byte	0x2
 12699 08b8 30       		.byte	0x30
 12700 08b9 9F       		.byte	0x9f
 12701 08ba 00000000 		.4byte	0
 12702 08be 00000000 		.4byte	0
 12703              	.LLST260:
 12704 08c2 54000000 		.4byte	.LVL329
 12705 08c6 5C000000 		.4byte	.LVL330
 12706 08ca 0100     		.2byte	0x1
 12707 08cc 50       		.byte	0x50
 12708 08cd 5C000000 		.4byte	.LVL330
 12709 08d1 60000000 		.4byte	.LVL331
 12710 08d5 0E00     		.2byte	0xe
 12711 08d7 73       		.byte	0x73
 12712 08d8 00       		.sleb128 0
 12713 08d9 7A       		.byte	0x7a
 12714 08da 00       		.sleb128 0
 12715 08db 22       		.byte	0x22
ARM GAS  /var/folders/d2/nstgp4h54kz7g1l847x_b8wc0000gn/T//cccORz8f.s 			page 227


 12716 08dc 40       		.byte	0x40
 12717 08dd 24       		.byte	0x24
 12718 08de 40       		.byte	0x40
 12719 08df 26       		.byte	0x26
 12720 08e0 31       		.byte	0x31
 12721 08e1 24       		.byte	0x24
 12722 08e2 74       		.byte	0x74
 12723 08e3 00       		.sleb128 0
 12724 08e4 22       		.byte	0x22
 12725 08e5 76000000 		.4byte	.LVL334
 12726 08e9 87000000 		.4byte	.LVL338-1
 12727 08ed 0100     		.2byte	0x1
 12728 08ef 50       		.byte	0x50
 12729 08f0 00000000 		.4byte	0
 12730 08f4 00000000 		.4byte	0
 12731              	.LLST261:
 12732 08f8 54000000 		.4byte	.LVL329
 12733 08fc 64000000 		.4byte	.LVL333
 12734 0900 0100     		.2byte	0x1
 12735 0902 51       		.byte	0x51
 12736 0903 7A000000 		.4byte	.LVL335
 12737 0907 87000000 		.4byte	.LVL338-1
 12738 090b 0100     		.2byte	0x1
 12739 090d 51       		.byte	0x51
 12740 090e 00000000 		.4byte	0
 12741 0912 00000000 		.4byte	0
 12742              	.LLST262:
 12743 0916 54000000 		.4byte	.LVL329
 12744 091a 5C000000 		.4byte	.LVL330
 12745 091e 0100     		.2byte	0x1
 12746 0920 51       		.byte	0x51
 12747 0921 80000000 		.4byte	.LVL337
 12748 0925 87000000 		.4byte	.LVL338-1
 12749 0929 0100     		.2byte	0x1
 12750 092b 51       		.byte	0x51
 12751 092c 00000000 		.4byte	0
 12752 0930 00000000 		.4byte	0
 12753              	.LLST263:
 12754 0934 54000000 		.4byte	.LVL329
 12755 0938 5C000000 		.4byte	.LVL330
 12756 093c 0100     		.2byte	0x1
 12757 093e 50       		.byte	0x50
 12758 093f 80000000 		.4byte	.LVL337
 12759 0943 87000000 		.4byte	.LVL338-1
 12760 0947 0100     		.2byte	0x1
 12761 0949 50       		.byte	0x50
 12762 094a 00000000 		.4byte	0
 12763 094e 00000000 		.4byte	0
 12764              	.LLST234:
 12765 0952 00000000 		.4byte	.LVL294
 12766 0956 D7000000 		.4byte	.LVL320-1
 12767 095a 0100     		.2byte	0x1
 12768 095c 50       		.byte	0x50
 12769 095d D7000000 		.4byte	.LVL320-1
 12770 0961 D8000000 		.4byte	.LVL320
 12771 0965 0400     		.2byte	0x4
 12772 0967 F3       		.byte	0xf3
ARM GAS  /var/folders/d2/nstgp4h54kz7g1l847x_b8wc0000gn/T//cccORz8f.s 			page 228


 12773 0968 01       		.uleb128 0x1
 12774 0969 50       		.byte	0x50
 12775 096a 9F       		.byte	0x9f
 12776 096b D8000000 		.4byte	.LVL320
 12777 096f DB000000 		.4byte	.LVL321-1
 12778 0973 0100     		.2byte	0x1
 12779 0975 50       		.byte	0x50
 12780 0976 DB000000 		.4byte	.LVL321-1
 12781 097a E0000000 		.4byte	.LFE20
 12782 097e 0400     		.2byte	0x4
 12783 0980 F3       		.byte	0xf3
 12784 0981 01       		.uleb128 0x1
 12785 0982 50       		.byte	0x50
 12786 0983 9F       		.byte	0x9f
 12787 0984 00000000 		.4byte	0
 12788 0988 00000000 		.4byte	0
 12789              	.LLST235:
 12790 098c 20000000 		.4byte	.LVL296
 12791 0990 64000000 		.4byte	.LVL303
 12792 0994 0100     		.2byte	0x1
 12793 0996 56       		.byte	0x56
 12794 0997 64000000 		.4byte	.LVL303
 12795 099b 68000000 		.4byte	.LVL304
 12796 099f 0300     		.2byte	0x3
 12797 09a1 76       		.byte	0x76
 12798 09a2 01       		.sleb128 1
 12799 09a3 9F       		.byte	0x9f
 12800 09a4 00000000 		.4byte	0
 12801 09a8 00000000 		.4byte	0
 12802              	.LLST236:
 12803 09ac 2A000000 		.4byte	.LVL297
 12804 09b0 5E000000 		.4byte	.LVL301
 12805 09b4 0100     		.2byte	0x1
 12806 09b6 51       		.byte	0x51
 12807 09b7 5E000000 		.4byte	.LVL301
 12808 09bb 82000000 		.4byte	.LVL309
 12809 09bf 0100     		.2byte	0x1
 12810 09c1 53       		.byte	0x53
 12811 09c2 84000000 		.4byte	.LVL310
 12812 09c6 A8000000 		.4byte	.LVL315
 12813 09ca 0100     		.2byte	0x1
 12814 09cc 53       		.byte	0x53
 12815 09cd B8000000 		.4byte	.LVL316
 12816 09d1 C0000000 		.4byte	.LVL318
 12817 09d5 0100     		.2byte	0x1
 12818 09d7 53       		.byte	0x53
 12819 09d8 00000000 		.4byte	0
 12820 09dc 00000000 		.4byte	0
 12821              	.LLST237:
 12822 09e0 32000000 		.4byte	.LVL298
 12823 09e4 5E000000 		.4byte	.LVL301
 12824 09e8 0100     		.2byte	0x1
 12825 09ea 57       		.byte	0x57
 12826 09eb 5E000000 		.4byte	.LVL301
 12827 09ef 6E000000 		.4byte	.LVL306
 12828 09f3 0300     		.2byte	0x3
 12829 09f5 77       		.byte	0x77
ARM GAS  /var/folders/d2/nstgp4h54kz7g1l847x_b8wc0000gn/T//cccORz8f.s 			page 229


 12830 09f6 01       		.sleb128 1
 12831 09f7 9F       		.byte	0x9f
 12832 09f8 70000000 		.4byte	.LVL307
 12833 09fc 80000000 		.4byte	.LVL308
 12834 0a00 0100     		.2byte	0x1
 12835 0a02 52       		.byte	0x52
 12836 0a03 80000000 		.4byte	.LVL308
 12837 0a07 82000000 		.4byte	.LVL309
 12838 0a0b 0600     		.2byte	0x6
 12839 0a0d 73       		.byte	0x73
 12840 0a0e 00       		.sleb128 0
 12841 0a0f 77       		.byte	0x77
 12842 0a10 00       		.sleb128 0
 12843 0a11 22       		.byte	0x22
 12844 0a12 9F       		.byte	0x9f
 12845 0a13 82000000 		.4byte	.LVL309
 12846 0a17 84000000 		.4byte	.LVL310
 12847 0a1b 0800     		.2byte	0x8
 12848 0a1d 73       		.byte	0x73
 12849 0a1e 00       		.sleb128 0
 12850 0a1f 77       		.byte	0x77
 12851 0a20 00       		.sleb128 0
 12852 0a21 22       		.byte	0x22
 12853 0a22 31       		.byte	0x31
 12854 0a23 1C       		.byte	0x1c
 12855 0a24 9F       		.byte	0x9f
 12856 0a25 A6000000 		.4byte	.LVL314
 12857 0a29 A8000000 		.4byte	.LVL315
 12858 0a2d 0100     		.2byte	0x1
 12859 0a2f 52       		.byte	0x52
 12860 0a30 00000000 		.4byte	0
 12861 0a34 00000000 		.4byte	0
 12862              	.LLST238:
 12863 0a38 3A000000 		.4byte	.LVL299
 12864 0a3c 5E000000 		.4byte	.LVL301
 12865 0a40 0100     		.2byte	0x1
 12866 0a42 5C       		.byte	0x5c
 12867 0a43 5E000000 		.4byte	.LVL301
 12868 0a47 6C000000 		.4byte	.LVL305
 12869 0a4b 0300     		.2byte	0x3
 12870 0a4d 7C       		.byte	0x7c
 12871 0a4e 01       		.sleb128 1
 12872 0a4f 9F       		.byte	0x9f
 12873 0a50 70000000 		.4byte	.LVL307
 12874 0a54 84000000 		.4byte	.LVL310
 12875 0a58 0100     		.2byte	0x1
 12876 0a5a 51       		.byte	0x51
 12877 0a5b A6000000 		.4byte	.LVL314
 12878 0a5f A8000000 		.4byte	.LVL315
 12879 0a63 0100     		.2byte	0x1
 12880 0a65 51       		.byte	0x51
 12881 0a66 00000000 		.4byte	0
 12882 0a6a 00000000 		.4byte	0
 12883              	.LLST239:
 12884 0a6e 42000000 		.4byte	.LVL300
 12885 0a72 62000000 		.4byte	.LVL302
 12886 0a76 0100     		.2byte	0x1
ARM GAS  /var/folders/d2/nstgp4h54kz7g1l847x_b8wc0000gn/T//cccORz8f.s 			page 230


 12887 0a78 55       		.byte	0x55
 12888 0a79 00000000 		.4byte	0
 12889 0a7d 00000000 		.4byte	0
 12890              	.LLST240:
 12891 0a81 42000000 		.4byte	.LVL300
 12892 0a85 70000000 		.4byte	.LVL307
 12893 0a89 0200     		.2byte	0x2
 12894 0a8b 30       		.byte	0x30
 12895 0a8c 9F       		.byte	0x9f
 12896 0a8d 00000000 		.4byte	0
 12897 0a91 00000000 		.4byte	0
 12898              	.LLST251:
 12899 0a95 5E000000 		.4byte	.LVL301
 12900 0a99 70000000 		.4byte	.LVL307
 12901 0a9d 0100     		.2byte	0x1
 12902 0a9f 52       		.byte	0x52
 12903 0aa0 84000000 		.4byte	.LVL310
 12904 0aa4 98000000 		.4byte	.LVL312
 12905 0aa8 0100     		.2byte	0x1
 12906 0aaa 52       		.byte	0x52
 12907 0aab B8000000 		.4byte	.LVL316
 12908 0aaf BE000000 		.4byte	.LVL317
 12909 0ab3 0100     		.2byte	0x1
 12910 0ab5 52       		.byte	0x52
 12911 0ab6 00000000 		.4byte	0
 12912 0aba 00000000 		.4byte	0
 12913              	.LLST252:
 12914 0abe 5E000000 		.4byte	.LVL301
 12915 0ac2 70000000 		.4byte	.LVL307
 12916 0ac6 0100     		.2byte	0x1
 12917 0ac8 5A       		.byte	0x5a
 12918 0ac9 84000000 		.4byte	.LVL310
 12919 0acd 92000000 		.4byte	.LVL311
 12920 0ad1 0100     		.2byte	0x1
 12921 0ad3 5A       		.byte	0x5a
 12922 0ad4 B8000000 		.4byte	.LVL316
 12923 0ad8 D4000000 		.4byte	.LVL319
 12924 0adc 0100     		.2byte	0x1
 12925 0ade 5A       		.byte	0x5a
 12926 0adf 00000000 		.4byte	0
 12927 0ae3 00000000 		.4byte	0
 12928              	.LLST253:
 12929 0ae7 5E000000 		.4byte	.LVL301
 12930 0aeb 70000000 		.4byte	.LVL307
 12931 0aef 0100     		.2byte	0x1
 12932 0af1 54       		.byte	0x54
 12933 0af2 84000000 		.4byte	.LVL310
 12934 0af6 9E000000 		.4byte	.LVL313
 12935 0afa 0100     		.2byte	0x1
 12936 0afc 54       		.byte	0x54
 12937 0afd B8000000 		.4byte	.LVL316
 12938 0b01 D4000000 		.4byte	.LVL319
 12939 0b05 0100     		.2byte	0x1
 12940 0b07 54       		.byte	0x54
 12941 0b08 00000000 		.4byte	0
 12942 0b0c 00000000 		.4byte	0
 12943              	.LLST241:
ARM GAS  /var/folders/d2/nstgp4h54kz7g1l847x_b8wc0000gn/T//cccORz8f.s 			page 231


 12944 0b10 0A000000 		.4byte	.LVL295
 12945 0b14 D7000000 		.4byte	.LVL320-1
 12946 0b18 0100     		.2byte	0x1
 12947 0b1a 50       		.byte	0x50
 12948 0b1b D7000000 		.4byte	.LVL320-1
 12949 0b1f D8000000 		.4byte	.LVL320
 12950 0b23 0400     		.2byte	0x4
 12951 0b25 F3       		.byte	0xf3
 12952 0b26 01       		.uleb128 0x1
 12953 0b27 50       		.byte	0x50
 12954 0b28 9F       		.byte	0x9f
 12955 0b29 D8000000 		.4byte	.LVL320
 12956 0b2d DB000000 		.4byte	.LVL321-1
 12957 0b31 0100     		.2byte	0x1
 12958 0b33 50       		.byte	0x50
 12959 0b34 DB000000 		.4byte	.LVL321-1
 12960 0b38 E0000000 		.4byte	.LFE20
 12961 0b3c 0400     		.2byte	0x4
 12962 0b3e F3       		.byte	0xf3
 12963 0b3f 01       		.uleb128 0x1
 12964 0b40 50       		.byte	0x50
 12965 0b41 9F       		.byte	0x9f
 12966 0b42 00000000 		.4byte	0
 12967 0b46 00000000 		.4byte	0
 12968              	.LLST242:
 12969 0b4a 0A000000 		.4byte	.LVL295
 12970 0b4e D7000000 		.4byte	.LVL320-1
 12971 0b52 0100     		.2byte	0x1
 12972 0b54 50       		.byte	0x50
 12973 0b55 D7000000 		.4byte	.LVL320-1
 12974 0b59 D8000000 		.4byte	.LVL320
 12975 0b5d 0400     		.2byte	0x4
 12976 0b5f F3       		.byte	0xf3
 12977 0b60 01       		.uleb128 0x1
 12978 0b61 50       		.byte	0x50
 12979 0b62 9F       		.byte	0x9f
 12980 0b63 D8000000 		.4byte	.LVL320
 12981 0b67 DB000000 		.4byte	.LVL321-1
 12982 0b6b 0100     		.2byte	0x1
 12983 0b6d 50       		.byte	0x50
 12984 0b6e DB000000 		.4byte	.LVL321-1
 12985 0b72 E0000000 		.4byte	.LFE20
 12986 0b76 0400     		.2byte	0x4
 12987 0b78 F3       		.byte	0xf3
 12988 0b79 01       		.uleb128 0x1
 12989 0b7a 50       		.byte	0x50
 12990 0b7b 9F       		.byte	0x9f
 12991 0b7c 00000000 		.4byte	0
 12992 0b80 00000000 		.4byte	0
 12993              	.LLST243:
 12994 0b84 20000000 		.4byte	.LVL296
 12995 0b88 D7000000 		.4byte	.LVL320-1
 12996 0b8c 0100     		.2byte	0x1
 12997 0b8e 50       		.byte	0x50
 12998 0b8f D7000000 		.4byte	.LVL320-1
 12999 0b93 D8000000 		.4byte	.LVL320
 13000 0b97 0400     		.2byte	0x4
ARM GAS  /var/folders/d2/nstgp4h54kz7g1l847x_b8wc0000gn/T//cccORz8f.s 			page 232


 13001 0b99 F3       		.byte	0xf3
 13002 0b9a 01       		.uleb128 0x1
 13003 0b9b 50       		.byte	0x50
 13004 0b9c 9F       		.byte	0x9f
 13005 0b9d D8000000 		.4byte	.LVL320
 13006 0ba1 DB000000 		.4byte	.LVL321-1
 13007 0ba5 0100     		.2byte	0x1
 13008 0ba7 50       		.byte	0x50
 13009 0ba8 DB000000 		.4byte	.LVL321-1
 13010 0bac E0000000 		.4byte	.LFE20
 13011 0bb0 0400     		.2byte	0x4
 13012 0bb2 F3       		.byte	0xf3
 13013 0bb3 01       		.uleb128 0x1
 13014 0bb4 50       		.byte	0x50
 13015 0bb5 9F       		.byte	0x9f
 13016 0bb6 00000000 		.4byte	0
 13017 0bba 00000000 		.4byte	0
 13018              	.LLST244:
 13019 0bbe 20000000 		.4byte	.LVL296
 13020 0bc2 D7000000 		.4byte	.LVL320-1
 13021 0bc6 0100     		.2byte	0x1
 13022 0bc8 50       		.byte	0x50
 13023 0bc9 D7000000 		.4byte	.LVL320-1
 13024 0bcd D8000000 		.4byte	.LVL320
 13025 0bd1 0400     		.2byte	0x4
 13026 0bd3 F3       		.byte	0xf3
 13027 0bd4 01       		.uleb128 0x1
 13028 0bd5 50       		.byte	0x50
 13029 0bd6 9F       		.byte	0x9f
 13030 0bd7 D8000000 		.4byte	.LVL320
 13031 0bdb DB000000 		.4byte	.LVL321-1
 13032 0bdf 0100     		.2byte	0x1
 13033 0be1 50       		.byte	0x50
 13034 0be2 DB000000 		.4byte	.LVL321-1
 13035 0be6 E0000000 		.4byte	.LFE20
 13036 0bea 0400     		.2byte	0x4
 13037 0bec F3       		.byte	0xf3
 13038 0bed 01       		.uleb128 0x1
 13039 0bee 50       		.byte	0x50
 13040 0bef 9F       		.byte	0x9f
 13041 0bf0 00000000 		.4byte	0
 13042 0bf4 00000000 		.4byte	0
 13043              	.LLST245:
 13044 0bf8 2A000000 		.4byte	.LVL297
 13045 0bfc D7000000 		.4byte	.LVL320-1
 13046 0c00 0100     		.2byte	0x1
 13047 0c02 50       		.byte	0x50
 13048 0c03 D7000000 		.4byte	.LVL320-1
 13049 0c07 D8000000 		.4byte	.LVL320
 13050 0c0b 0400     		.2byte	0x4
 13051 0c0d F3       		.byte	0xf3
 13052 0c0e 01       		.uleb128 0x1
 13053 0c0f 50       		.byte	0x50
 13054 0c10 9F       		.byte	0x9f
 13055 0c11 D8000000 		.4byte	.LVL320
 13056 0c15 DB000000 		.4byte	.LVL321-1
 13057 0c19 0100     		.2byte	0x1
ARM GAS  /var/folders/d2/nstgp4h54kz7g1l847x_b8wc0000gn/T//cccORz8f.s 			page 233


 13058 0c1b 50       		.byte	0x50
 13059 0c1c DB000000 		.4byte	.LVL321-1
 13060 0c20 E0000000 		.4byte	.LFE20
 13061 0c24 0400     		.2byte	0x4
 13062 0c26 F3       		.byte	0xf3
 13063 0c27 01       		.uleb128 0x1
 13064 0c28 50       		.byte	0x50
 13065 0c29 9F       		.byte	0x9f
 13066 0c2a 00000000 		.4byte	0
 13067 0c2e 00000000 		.4byte	0
 13068              	.LLST246:
 13069 0c32 2A000000 		.4byte	.LVL297
 13070 0c36 D7000000 		.4byte	.LVL320-1
 13071 0c3a 0100     		.2byte	0x1
 13072 0c3c 50       		.byte	0x50
 13073 0c3d D7000000 		.4byte	.LVL320-1
 13074 0c41 D8000000 		.4byte	.LVL320
 13075 0c45 0400     		.2byte	0x4
 13076 0c47 F3       		.byte	0xf3
 13077 0c48 01       		.uleb128 0x1
 13078 0c49 50       		.byte	0x50
 13079 0c4a 9F       		.byte	0x9f
 13080 0c4b D8000000 		.4byte	.LVL320
 13081 0c4f DB000000 		.4byte	.LVL321-1
 13082 0c53 0100     		.2byte	0x1
 13083 0c55 50       		.byte	0x50
 13084 0c56 DB000000 		.4byte	.LVL321-1
 13085 0c5a E0000000 		.4byte	.LFE20
 13086 0c5e 0400     		.2byte	0x4
 13087 0c60 F3       		.byte	0xf3
 13088 0c61 01       		.uleb128 0x1
 13089 0c62 50       		.byte	0x50
 13090 0c63 9F       		.byte	0x9f
 13091 0c64 00000000 		.4byte	0
 13092 0c68 00000000 		.4byte	0
 13093              	.LLST247:
 13094 0c6c 32000000 		.4byte	.LVL298
 13095 0c70 D7000000 		.4byte	.LVL320-1
 13096 0c74 0100     		.2byte	0x1
 13097 0c76 50       		.byte	0x50
 13098 0c77 D7000000 		.4byte	.LVL320-1
 13099 0c7b D8000000 		.4byte	.LVL320
 13100 0c7f 0400     		.2byte	0x4
 13101 0c81 F3       		.byte	0xf3
 13102 0c82 01       		.uleb128 0x1
 13103 0c83 50       		.byte	0x50
 13104 0c84 9F       		.byte	0x9f
 13105 0c85 D8000000 		.4byte	.LVL320
 13106 0c89 DB000000 		.4byte	.LVL321-1
 13107 0c8d 0100     		.2byte	0x1
 13108 0c8f 50       		.byte	0x50
 13109 0c90 DB000000 		.4byte	.LVL321-1
 13110 0c94 E0000000 		.4byte	.LFE20
 13111 0c98 0400     		.2byte	0x4
 13112 0c9a F3       		.byte	0xf3
 13113 0c9b 01       		.uleb128 0x1
 13114 0c9c 50       		.byte	0x50
ARM GAS  /var/folders/d2/nstgp4h54kz7g1l847x_b8wc0000gn/T//cccORz8f.s 			page 234


 13115 0c9d 9F       		.byte	0x9f
 13116 0c9e 00000000 		.4byte	0
 13117 0ca2 00000000 		.4byte	0
 13118              	.LLST248:
 13119 0ca6 32000000 		.4byte	.LVL298
 13120 0caa D7000000 		.4byte	.LVL320-1
 13121 0cae 0100     		.2byte	0x1
 13122 0cb0 50       		.byte	0x50
 13123 0cb1 D7000000 		.4byte	.LVL320-1
 13124 0cb5 D8000000 		.4byte	.LVL320
 13125 0cb9 0400     		.2byte	0x4
 13126 0cbb F3       		.byte	0xf3
 13127 0cbc 01       		.uleb128 0x1
 13128 0cbd 50       		.byte	0x50
 13129 0cbe 9F       		.byte	0x9f
 13130 0cbf D8000000 		.4byte	.LVL320
 13131 0cc3 DB000000 		.4byte	.LVL321-1
 13132 0cc7 0100     		.2byte	0x1
 13133 0cc9 50       		.byte	0x50
 13134 0cca DB000000 		.4byte	.LVL321-1
 13135 0cce E0000000 		.4byte	.LFE20
 13136 0cd2 0400     		.2byte	0x4
 13137 0cd4 F3       		.byte	0xf3
 13138 0cd5 01       		.uleb128 0x1
 13139 0cd6 50       		.byte	0x50
 13140 0cd7 9F       		.byte	0x9f
 13141 0cd8 00000000 		.4byte	0
 13142 0cdc 00000000 		.4byte	0
 13143              	.LLST249:
 13144 0ce0 3A000000 		.4byte	.LVL299
 13145 0ce4 D7000000 		.4byte	.LVL320-1
 13146 0ce8 0100     		.2byte	0x1
 13147 0cea 50       		.byte	0x50
 13148 0ceb D7000000 		.4byte	.LVL320-1
 13149 0cef D8000000 		.4byte	.LVL320
 13150 0cf3 0400     		.2byte	0x4
 13151 0cf5 F3       		.byte	0xf3
 13152 0cf6 01       		.uleb128 0x1
 13153 0cf7 50       		.byte	0x50
 13154 0cf8 9F       		.byte	0x9f
 13155 0cf9 D8000000 		.4byte	.LVL320
 13156 0cfd DB000000 		.4byte	.LVL321-1
 13157 0d01 0100     		.2byte	0x1
 13158 0d03 50       		.byte	0x50
 13159 0d04 DB000000 		.4byte	.LVL321-1
 13160 0d08 E0000000 		.4byte	.LFE20
 13161 0d0c 0400     		.2byte	0x4
 13162 0d0e F3       		.byte	0xf3
 13163 0d0f 01       		.uleb128 0x1
 13164 0d10 50       		.byte	0x50
 13165 0d11 9F       		.byte	0x9f
 13166 0d12 00000000 		.4byte	0
 13167 0d16 00000000 		.4byte	0
 13168              	.LLST250:
 13169 0d1a 3A000000 		.4byte	.LVL299
 13170 0d1e D7000000 		.4byte	.LVL320-1
 13171 0d22 0100     		.2byte	0x1
ARM GAS  /var/folders/d2/nstgp4h54kz7g1l847x_b8wc0000gn/T//cccORz8f.s 			page 235


 13172 0d24 50       		.byte	0x50
 13173 0d25 D7000000 		.4byte	.LVL320-1
 13174 0d29 D8000000 		.4byte	.LVL320
 13175 0d2d 0400     		.2byte	0x4
 13176 0d2f F3       		.byte	0xf3
 13177 0d30 01       		.uleb128 0x1
 13178 0d31 50       		.byte	0x50
 13179 0d32 9F       		.byte	0x9f
 13180 0d33 D8000000 		.4byte	.LVL320
 13181 0d37 DB000000 		.4byte	.LVL321-1
 13182 0d3b 0100     		.2byte	0x1
 13183 0d3d 50       		.byte	0x50
 13184 0d3e DB000000 		.4byte	.LVL321-1
 13185 0d42 E0000000 		.4byte	.LFE20
 13186 0d46 0400     		.2byte	0x4
 13187 0d48 F3       		.byte	0xf3
 13188 0d49 01       		.uleb128 0x1
 13189 0d4a 50       		.byte	0x50
 13190 0d4b 9F       		.byte	0x9f
 13191 0d4c 00000000 		.4byte	0
 13192 0d50 00000000 		.4byte	0
 13193              	.LLST227:
 13194 0d54 00000000 		.4byte	.LVL286
 13195 0d58 2A000000 		.4byte	.LVL290
 13196 0d5c 0100     		.2byte	0x1
 13197 0d5e 50       		.byte	0x50
 13198 0d5f 2A000000 		.4byte	.LVL290
 13199 0d63 3C000000 		.4byte	.LVL292
 13200 0d67 0400     		.2byte	0x4
 13201 0d69 F3       		.byte	0xf3
 13202 0d6a 01       		.uleb128 0x1
 13203 0d6b 50       		.byte	0x50
 13204 0d6c 9F       		.byte	0x9f
 13205 0d6d 3C000000 		.4byte	.LVL292
 13206 0d71 3F000000 		.4byte	.LVL293-1
 13207 0d75 0100     		.2byte	0x1
 13208 0d77 50       		.byte	0x50
 13209 0d78 3F000000 		.4byte	.LVL293-1
 13210 0d7c 44000000 		.4byte	.LFE19
 13211 0d80 0400     		.2byte	0x4
 13212 0d82 F3       		.byte	0xf3
 13213 0d83 01       		.uleb128 0x1
 13214 0d84 50       		.byte	0x50
 13215 0d85 9F       		.byte	0x9f
 13216 0d86 00000000 		.4byte	0
 13217 0d8a 00000000 		.4byte	0
 13218              	.LLST228:
 13219 0d8e 24000000 		.4byte	.LVL288
 13220 0d92 38000000 		.4byte	.LVL291
 13221 0d96 0100     		.2byte	0x1
 13222 0d98 57       		.byte	0x57
 13223 0d99 3C000000 		.4byte	.LVL292
 13224 0d9d 44000000 		.4byte	.LFE19
 13225 0da1 0100     		.2byte	0x1
 13226 0da3 57       		.byte	0x57
 13227 0da4 00000000 		.4byte	0
 13228 0da8 00000000 		.4byte	0
ARM GAS  /var/folders/d2/nstgp4h54kz7g1l847x_b8wc0000gn/T//cccORz8f.s 			page 236


 13229              	.LLST229:
 13230 0dac 26000000 		.4byte	.LVL289
 13231 0db0 38000000 		.4byte	.LVL291
 13232 0db4 0B00     		.2byte	0xb
 13233 0db6 72       		.byte	0x72
 13234 0db7 00       		.sleb128 0
 13235 0db8 40       		.byte	0x40
 13236 0db9 24       		.byte	0x24
 13237 0dba 40       		.byte	0x40
 13238 0dbb 26       		.byte	0x26
 13239 0dbc 31       		.byte	0x31
 13240 0dbd 24       		.byte	0x24
 13241 0dbe 75       		.byte	0x75
 13242 0dbf 00       		.sleb128 0
 13243 0dc0 22       		.byte	0x22
 13244 0dc1 38000000 		.4byte	.LVL291
 13245 0dc5 3B000000 		.4byte	.LVL292-1
 13246 0dc9 0F00     		.2byte	0xf
 13247 0dcb 72       		.byte	0x72
 13248 0dcc 00       		.sleb128 0
 13249 0dcd 40       		.byte	0x40
 13250 0dce 24       		.byte	0x24
 13251 0dcf 40       		.byte	0x40
 13252 0dd0 26       		.byte	0x26
 13253 0dd1 31       		.byte	0x31
 13254 0dd2 24       		.byte	0x24
 13255 0dd3 F3       		.byte	0xf3
 13256 0dd4 01       		.uleb128 0x1
 13257 0dd5 50       		.byte	0x50
 13258 0dd6 23       		.byte	0x23
 13259 0dd7 14       		.uleb128 0x14
 13260 0dd8 06       		.byte	0x6
 13261 0dd9 22       		.byte	0x22
 13262 0dda 3C000000 		.4byte	.LVL292
 13263 0dde 3F000000 		.4byte	.LVL293-1
 13264 0de2 0B00     		.2byte	0xb
 13265 0de4 72       		.byte	0x72
 13266 0de5 00       		.sleb128 0
 13267 0de6 40       		.byte	0x40
 13268 0de7 24       		.byte	0x24
 13269 0de8 40       		.byte	0x40
 13270 0de9 26       		.byte	0x26
 13271 0dea 31       		.byte	0x31
 13272 0deb 24       		.byte	0x24
 13273 0dec 75       		.byte	0x75
 13274 0ded 00       		.sleb128 0
 13275 0dee 22       		.byte	0x22
 13276 0def 00000000 		.4byte	0
 13277 0df3 00000000 		.4byte	0
 13278              	.LLST230:
 13279 0df7 0C000000 		.4byte	.LVL287
 13280 0dfb 2A000000 		.4byte	.LVL290
 13281 0dff 0100     		.2byte	0x1
 13282 0e01 50       		.byte	0x50
 13283 0e02 2A000000 		.4byte	.LVL290
 13284 0e06 3C000000 		.4byte	.LVL292
 13285 0e0a 0400     		.2byte	0x4
ARM GAS  /var/folders/d2/nstgp4h54kz7g1l847x_b8wc0000gn/T//cccORz8f.s 			page 237


 13286 0e0c F3       		.byte	0xf3
 13287 0e0d 01       		.uleb128 0x1
 13288 0e0e 50       		.byte	0x50
 13289 0e0f 9F       		.byte	0x9f
 13290 0e10 3C000000 		.4byte	.LVL292
 13291 0e14 3F000000 		.4byte	.LVL293-1
 13292 0e18 0100     		.2byte	0x1
 13293 0e1a 50       		.byte	0x50
 13294 0e1b 3F000000 		.4byte	.LVL293-1
 13295 0e1f 44000000 		.4byte	.LFE19
 13296 0e23 0400     		.2byte	0x4
 13297 0e25 F3       		.byte	0xf3
 13298 0e26 01       		.uleb128 0x1
 13299 0e27 50       		.byte	0x50
 13300 0e28 9F       		.byte	0x9f
 13301 0e29 00000000 		.4byte	0
 13302 0e2d 00000000 		.4byte	0
 13303              	.LLST231:
 13304 0e31 0C000000 		.4byte	.LVL287
 13305 0e35 2A000000 		.4byte	.LVL290
 13306 0e39 0100     		.2byte	0x1
 13307 0e3b 50       		.byte	0x50
 13308 0e3c 2A000000 		.4byte	.LVL290
 13309 0e40 3C000000 		.4byte	.LVL292
 13310 0e44 0400     		.2byte	0x4
 13311 0e46 F3       		.byte	0xf3
 13312 0e47 01       		.uleb128 0x1
 13313 0e48 50       		.byte	0x50
 13314 0e49 9F       		.byte	0x9f
 13315 0e4a 3C000000 		.4byte	.LVL292
 13316 0e4e 3F000000 		.4byte	.LVL293-1
 13317 0e52 0100     		.2byte	0x1
 13318 0e54 50       		.byte	0x50
 13319 0e55 3F000000 		.4byte	.LVL293-1
 13320 0e59 44000000 		.4byte	.LFE19
 13321 0e5d 0400     		.2byte	0x4
 13322 0e5f F3       		.byte	0xf3
 13323 0e60 01       		.uleb128 0x1
 13324 0e61 50       		.byte	0x50
 13325 0e62 9F       		.byte	0x9f
 13326 0e63 00000000 		.4byte	0
 13327 0e67 00000000 		.4byte	0
 13328              	.LLST232:
 13329 0e6b 24000000 		.4byte	.LVL288
 13330 0e6f 2A000000 		.4byte	.LVL290
 13331 0e73 0100     		.2byte	0x1
 13332 0e75 50       		.byte	0x50
 13333 0e76 2A000000 		.4byte	.LVL290
 13334 0e7a 3C000000 		.4byte	.LVL292
 13335 0e7e 0400     		.2byte	0x4
 13336 0e80 F3       		.byte	0xf3
 13337 0e81 01       		.uleb128 0x1
 13338 0e82 50       		.byte	0x50
 13339 0e83 9F       		.byte	0x9f
 13340 0e84 3C000000 		.4byte	.LVL292
 13341 0e88 3F000000 		.4byte	.LVL293-1
 13342 0e8c 0100     		.2byte	0x1
ARM GAS  /var/folders/d2/nstgp4h54kz7g1l847x_b8wc0000gn/T//cccORz8f.s 			page 238


 13343 0e8e 50       		.byte	0x50
 13344 0e8f 3F000000 		.4byte	.LVL293-1
 13345 0e93 44000000 		.4byte	.LFE19
 13346 0e97 0400     		.2byte	0x4
 13347 0e99 F3       		.byte	0xf3
 13348 0e9a 01       		.uleb128 0x1
 13349 0e9b 50       		.byte	0x50
 13350 0e9c 9F       		.byte	0x9f
 13351 0e9d 00000000 		.4byte	0
 13352 0ea1 00000000 		.4byte	0
 13353              	.LLST233:
 13354 0ea5 24000000 		.4byte	.LVL288
 13355 0ea9 2A000000 		.4byte	.LVL290
 13356 0ead 0100     		.2byte	0x1
 13357 0eaf 50       		.byte	0x50
 13358 0eb0 2A000000 		.4byte	.LVL290
 13359 0eb4 3C000000 		.4byte	.LVL292
 13360 0eb8 0400     		.2byte	0x4
 13361 0eba F3       		.byte	0xf3
 13362 0ebb 01       		.uleb128 0x1
 13363 0ebc 50       		.byte	0x50
 13364 0ebd 9F       		.byte	0x9f
 13365 0ebe 3C000000 		.4byte	.LVL292
 13366 0ec2 3F000000 		.4byte	.LVL293-1
 13367 0ec6 0100     		.2byte	0x1
 13368 0ec8 50       		.byte	0x50
 13369 0ec9 3F000000 		.4byte	.LVL293-1
 13370 0ecd 44000000 		.4byte	.LFE19
 13371 0ed1 0400     		.2byte	0x4
 13372 0ed3 F3       		.byte	0xf3
 13373 0ed4 01       		.uleb128 0x1
 13374 0ed5 50       		.byte	0x50
 13375 0ed6 9F       		.byte	0x9f
 13376 0ed7 00000000 		.4byte	0
 13377 0edb 00000000 		.4byte	0
 13378              	.LLST211:
 13379 0edf 00000000 		.4byte	.LVL267
 13380 0ee3 99000000 		.4byte	.LVL285-1
 13381 0ee7 0100     		.2byte	0x1
 13382 0ee9 50       		.byte	0x50
 13383 0eea 99000000 		.4byte	.LVL285-1
 13384 0eee A4000000 		.4byte	.LFE18
 13385 0ef2 0400     		.2byte	0x4
 13386 0ef4 F3       		.byte	0xf3
 13387 0ef5 01       		.uleb128 0x1
 13388 0ef6 50       		.byte	0x50
 13389 0ef7 9F       		.byte	0x9f
 13390 0ef8 00000000 		.4byte	0
 13391 0efc 00000000 		.4byte	0
 13392              	.LLST212:
 13393 0f00 1E000000 		.4byte	.LVL269
 13394 0f04 3E000000 		.4byte	.LVL273
 13395 0f08 0100     		.2byte	0x1
 13396 0f0a 53       		.byte	0x53
 13397 0f0b 5C000000 		.4byte	.LVL277
 13398 0f0f 64000000 		.4byte	.LVL278
 13399 0f13 0100     		.2byte	0x1
ARM GAS  /var/folders/d2/nstgp4h54kz7g1l847x_b8wc0000gn/T//cccORz8f.s 			page 239


 13400 0f15 53       		.byte	0x53
 13401 0f16 68000000 		.4byte	.LVL279
 13402 0f1a 88000000 		.4byte	.LVL284
 13403 0f1e 0100     		.2byte	0x1
 13404 0f20 53       		.byte	0x53
 13405 0f21 00000000 		.4byte	0
 13406 0f25 00000000 		.4byte	0
 13407              	.LLST213:
 13408 0f29 26000000 		.4byte	.LVL270
 13409 0f2d 50000000 		.4byte	.LVL275
 13410 0f31 0100     		.2byte	0x1
 13411 0f33 5E       		.byte	0x5e
 13412 0f34 00000000 		.4byte	0
 13413 0f38 00000000 		.4byte	0
 13414              	.LLST214:
 13415 0f3c 2E000000 		.4byte	.LVL271
 13416 0f40 54000000 		.4byte	.LVL276
 13417 0f44 0100     		.2byte	0x1
 13418 0f46 5C       		.byte	0x5c
 13419 0f47 00000000 		.4byte	0
 13420 0f4b 00000000 		.4byte	0
 13421              	.LLST215:
 13422 0f4f 36000000 		.4byte	.LVL272
 13423 0f53 40000000 		.4byte	.LVL274
 13424 0f57 0100     		.2byte	0x1
 13425 0f59 52       		.byte	0x52
 13426 0f5a 00000000 		.4byte	0
 13427 0f5e 00000000 		.4byte	0
 13428              	.LLST216:
 13429 0f62 36000000 		.4byte	.LVL272
 13430 0f66 5C000000 		.4byte	.LVL277
 13431 0f6a 0400     		.2byte	0x4
 13432 0f6c 0A       		.byte	0xa
 13433 0f6d FF7F     		.2byte	0x7fff
 13434 0f6f 9F       		.byte	0x9f
 13435 0f70 5C000000 		.4byte	.LVL277
 13436 0f74 6A000000 		.4byte	.LVL280
 13437 0f78 0100     		.2byte	0x1
 13438 0f7a 55       		.byte	0x55
 13439 0f7b 6A000000 		.4byte	.LVL280
 13440 0f7f 74000000 		.4byte	.LVL281
 13441 0f83 0100     		.2byte	0x1
 13442 0f85 51       		.byte	0x51
 13443 0f86 74000000 		.4byte	.LVL281
 13444 0f8a 88000000 		.4byte	.LVL284
 13445 0f8e 0100     		.2byte	0x1
 13446 0f90 55       		.byte	0x55
 13447 0f91 00000000 		.4byte	0
 13448 0f95 00000000 		.4byte	0
 13449              	.LLST217:
 13450 0f99 36000000 		.4byte	.LVL272
 13451 0f9d 5C000000 		.4byte	.LVL277
 13452 0fa1 0400     		.2byte	0x4
 13453 0fa3 0B       		.byte	0xb
 13454 0fa4 0080     		.2byte	0x8000
 13455 0fa6 9F       		.byte	0x9f
 13456 0fa7 5C000000 		.4byte	.LVL277
ARM GAS  /var/folders/d2/nstgp4h54kz7g1l847x_b8wc0000gn/T//cccORz8f.s 			page 240


 13457 0fab 78000000 		.4byte	.LVL282
 13458 0faf 0100     		.2byte	0x1
 13459 0fb1 57       		.byte	0x57
 13460 0fb2 78000000 		.4byte	.LVL282
 13461 0fb6 84000000 		.4byte	.LVL283
 13462 0fba 0100     		.2byte	0x1
 13463 0fbc 51       		.byte	0x51
 13464 0fbd 84000000 		.4byte	.LVL283
 13465 0fc1 88000000 		.4byte	.LVL284
 13466 0fc5 0100     		.2byte	0x1
 13467 0fc7 57       		.byte	0x57
 13468 0fc8 00000000 		.4byte	0
 13469 0fcc 00000000 		.4byte	0
 13470              	.LLST218:
 13471 0fd0 68000000 		.4byte	.LVL279
 13472 0fd4 88000000 		.4byte	.LVL284
 13473 0fd8 0100     		.2byte	0x1
 13474 0fda 51       		.byte	0x51
 13475 0fdb 00000000 		.4byte	0
 13476 0fdf 00000000 		.4byte	0
 13477              	.LLST219:
 13478 0fe3 0E000000 		.4byte	.LVL268
 13479 0fe7 99000000 		.4byte	.LVL285-1
 13480 0feb 0100     		.2byte	0x1
 13481 0fed 50       		.byte	0x50
 13482 0fee 99000000 		.4byte	.LVL285-1
 13483 0ff2 A4000000 		.4byte	.LFE18
 13484 0ff6 0400     		.2byte	0x4
 13485 0ff8 F3       		.byte	0xf3
 13486 0ff9 01       		.uleb128 0x1
 13487 0ffa 50       		.byte	0x50
 13488 0ffb 9F       		.byte	0x9f
 13489 0ffc 00000000 		.4byte	0
 13490 1000 00000000 		.4byte	0
 13491              	.LLST220:
 13492 1004 0E000000 		.4byte	.LVL268
 13493 1008 99000000 		.4byte	.LVL285-1
 13494 100c 0100     		.2byte	0x1
 13495 100e 50       		.byte	0x50
 13496 100f 99000000 		.4byte	.LVL285-1
 13497 1013 A4000000 		.4byte	.LFE18
 13498 1017 0400     		.2byte	0x4
 13499 1019 F3       		.byte	0xf3
 13500 101a 01       		.uleb128 0x1
 13501 101b 50       		.byte	0x50
 13502 101c 9F       		.byte	0x9f
 13503 101d 00000000 		.4byte	0
 13504 1021 00000000 		.4byte	0
 13505              	.LLST221:
 13506 1025 1E000000 		.4byte	.LVL269
 13507 1029 99000000 		.4byte	.LVL285-1
 13508 102d 0100     		.2byte	0x1
 13509 102f 50       		.byte	0x50
 13510 1030 99000000 		.4byte	.LVL285-1
 13511 1034 A4000000 		.4byte	.LFE18
 13512 1038 0400     		.2byte	0x4
 13513 103a F3       		.byte	0xf3
ARM GAS  /var/folders/d2/nstgp4h54kz7g1l847x_b8wc0000gn/T//cccORz8f.s 			page 241


 13514 103b 01       		.uleb128 0x1
 13515 103c 50       		.byte	0x50
 13516 103d 9F       		.byte	0x9f
 13517 103e 00000000 		.4byte	0
 13518 1042 00000000 		.4byte	0
 13519              	.LLST222:
 13520 1046 1E000000 		.4byte	.LVL269
 13521 104a 99000000 		.4byte	.LVL285-1
 13522 104e 0100     		.2byte	0x1
 13523 1050 50       		.byte	0x50
 13524 1051 99000000 		.4byte	.LVL285-1
 13525 1055 A4000000 		.4byte	.LFE18
 13526 1059 0400     		.2byte	0x4
 13527 105b F3       		.byte	0xf3
 13528 105c 01       		.uleb128 0x1
 13529 105d 50       		.byte	0x50
 13530 105e 9F       		.byte	0x9f
 13531 105f 00000000 		.4byte	0
 13532 1063 00000000 		.4byte	0
 13533              	.LLST223:
 13534 1067 26000000 		.4byte	.LVL270
 13535 106b 99000000 		.4byte	.LVL285-1
 13536 106f 0100     		.2byte	0x1
 13537 1071 50       		.byte	0x50
 13538 1072 99000000 		.4byte	.LVL285-1
 13539 1076 A4000000 		.4byte	.LFE18
 13540 107a 0400     		.2byte	0x4
 13541 107c F3       		.byte	0xf3
 13542 107d 01       		.uleb128 0x1
 13543 107e 50       		.byte	0x50
 13544 107f 9F       		.byte	0x9f
 13545 1080 00000000 		.4byte	0
 13546 1084 00000000 		.4byte	0
 13547              	.LLST224:
 13548 1088 26000000 		.4byte	.LVL270
 13549 108c 99000000 		.4byte	.LVL285-1
 13550 1090 0100     		.2byte	0x1
 13551 1092 50       		.byte	0x50
 13552 1093 99000000 		.4byte	.LVL285-1
 13553 1097 A4000000 		.4byte	.LFE18
 13554 109b 0400     		.2byte	0x4
 13555 109d F3       		.byte	0xf3
 13556 109e 01       		.uleb128 0x1
 13557 109f 50       		.byte	0x50
 13558 10a0 9F       		.byte	0x9f
 13559 10a1 00000000 		.4byte	0
 13560 10a5 00000000 		.4byte	0
 13561              	.LLST225:
 13562 10a9 2E000000 		.4byte	.LVL271
 13563 10ad 99000000 		.4byte	.LVL285-1
 13564 10b1 0100     		.2byte	0x1
 13565 10b3 50       		.byte	0x50
 13566 10b4 99000000 		.4byte	.LVL285-1
 13567 10b8 A4000000 		.4byte	.LFE18
 13568 10bc 0400     		.2byte	0x4
 13569 10be F3       		.byte	0xf3
 13570 10bf 01       		.uleb128 0x1
ARM GAS  /var/folders/d2/nstgp4h54kz7g1l847x_b8wc0000gn/T//cccORz8f.s 			page 242


 13571 10c0 50       		.byte	0x50
 13572 10c1 9F       		.byte	0x9f
 13573 10c2 00000000 		.4byte	0
 13574 10c6 00000000 		.4byte	0
 13575              	.LLST226:
 13576 10ca 2E000000 		.4byte	.LVL271
 13577 10ce 99000000 		.4byte	.LVL285-1
 13578 10d2 0100     		.2byte	0x1
 13579 10d4 50       		.byte	0x50
 13580 10d5 99000000 		.4byte	.LVL285-1
 13581 10d9 A4000000 		.4byte	.LFE18
 13582 10dd 0400     		.2byte	0x4
 13583 10df F3       		.byte	0xf3
 13584 10e0 01       		.uleb128 0x1
 13585 10e1 50       		.byte	0x50
 13586 10e2 9F       		.byte	0x9f
 13587 10e3 00000000 		.4byte	0
 13588 10e7 00000000 		.4byte	0
 13589              	.LLST193:
 13590 10eb 00000000 		.4byte	.LVL246
 13591 10ef C9000000 		.4byte	.LVL266-1
 13592 10f3 0100     		.2byte	0x1
 13593 10f5 50       		.byte	0x50
 13594 10f6 C9000000 		.4byte	.LVL266-1
 13595 10fa D0000000 		.4byte	.LFE17
 13596 10fe 0400     		.2byte	0x4
 13597 1100 F3       		.byte	0xf3
 13598 1101 01       		.uleb128 0x1
 13599 1102 50       		.byte	0x50
 13600 1103 9F       		.byte	0x9f
 13601 1104 00000000 		.4byte	0
 13602 1108 00000000 		.4byte	0
 13603              	.LLST194:
 13604 110c 20000000 		.4byte	.LVL248
 13605 1110 52000000 		.4byte	.LVL253
 13606 1114 0100     		.2byte	0x1
 13607 1116 57       		.byte	0x57
 13608 1117 74000000 		.4byte	.LVL256
 13609 111b 9A000000 		.4byte	.LVL258
 13610 111f 0100     		.2byte	0x1
 13611 1121 53       		.byte	0x53
 13612 1122 9C000000 		.4byte	.LVL259
 13613 1126 A6000000 		.4byte	.LVL261
 13614 112a 0100     		.2byte	0x1
 13615 112c 53       		.byte	0x53
 13616 112d C2000000 		.4byte	.LVL264
 13617 1131 C6000000 		.4byte	.LVL265
 13618 1135 0100     		.2byte	0x1
 13619 1137 53       		.byte	0x53
 13620 1138 00000000 		.4byte	0
 13621 113c 00000000 		.4byte	0
 13622              	.LLST195:
 13623 1140 2A000000 		.4byte	.LVL249
 13624 1144 6E000000 		.4byte	.LVL254
 13625 1148 0100     		.2byte	0x1
 13626 114a 55       		.byte	0x55
 13627 114b 00000000 		.4byte	0
ARM GAS  /var/folders/d2/nstgp4h54kz7g1l847x_b8wc0000gn/T//cccORz8f.s 			page 243


 13628 114f 00000000 		.4byte	0
 13629              	.LLST196:
 13630 1153 32000000 		.4byte	.LVL250
 13631 1157 72000000 		.4byte	.LVL255
 13632 115b 0100     		.2byte	0x1
 13633 115d 56       		.byte	0x56
 13634 115e 00000000 		.4byte	0
 13635 1162 00000000 		.4byte	0
 13636              	.LLST197:
 13637 1166 3A000000 		.4byte	.LVL251
 13638 116a B2000000 		.4byte	.LVL263
 13639 116e 0100     		.2byte	0x1
 13640 1170 5E       		.byte	0x5e
 13641 1171 C2000000 		.4byte	.LVL264
 13642 1175 C6000000 		.4byte	.LVL265
 13643 1179 0100     		.2byte	0x1
 13644 117b 5E       		.byte	0x5e
 13645 117c 00000000 		.4byte	0
 13646 1180 00000000 		.4byte	0
 13647              	.LLST198:
 13648 1184 9C000000 		.4byte	.LVL259
 13649 1188 A6000000 		.4byte	.LVL261
 13650 118c 0100     		.2byte	0x1
 13651 118e 51       		.byte	0x51
 13652 118f 00000000 		.4byte	0
 13653 1193 00000000 		.4byte	0
 13654              	.LLST199:
 13655 1197 74000000 		.4byte	.LVL256
 13656 119b AA000000 		.4byte	.LVL262
 13657 119f 0100     		.2byte	0x1
 13658 11a1 54       		.byte	0x54
 13659 11a2 C2000000 		.4byte	.LVL264
 13660 11a6 C6000000 		.4byte	.LVL265
 13661 11aa 0100     		.2byte	0x1
 13662 11ac 54       		.byte	0x54
 13663 11ad 00000000 		.4byte	0
 13664 11b1 00000000 		.4byte	0
 13665              	.LLST200:
 13666 11b5 74000000 		.4byte	.LVL256
 13667 11b9 7C000000 		.4byte	.LVL257
 13668 11bd 0200     		.2byte	0x2
 13669 11bf 31       		.byte	0x31
 13670 11c0 9F       		.byte	0x9f
 13671 11c1 C2000000 		.4byte	.LVL264
 13672 11c5 C6000000 		.4byte	.LVL265
 13673 11c9 0200     		.2byte	0x2
 13674 11cb 31       		.byte	0x31
 13675 11cc 9F       		.byte	0x9f
 13676 11cd 00000000 		.4byte	0
 13677 11d1 00000000 		.4byte	0
 13678              	.LLST201:
 13679 11d5 06000000 		.4byte	.LVL247
 13680 11d9 C9000000 		.4byte	.LVL266-1
 13681 11dd 0100     		.2byte	0x1
 13682 11df 50       		.byte	0x50
 13683 11e0 C9000000 		.4byte	.LVL266-1
 13684 11e4 D0000000 		.4byte	.LFE17
ARM GAS  /var/folders/d2/nstgp4h54kz7g1l847x_b8wc0000gn/T//cccORz8f.s 			page 244


 13685 11e8 0400     		.2byte	0x4
 13686 11ea F3       		.byte	0xf3
 13687 11eb 01       		.uleb128 0x1
 13688 11ec 50       		.byte	0x50
 13689 11ed 9F       		.byte	0x9f
 13690 11ee 00000000 		.4byte	0
 13691 11f2 00000000 		.4byte	0
 13692              	.LLST202:
 13693 11f6 06000000 		.4byte	.LVL247
 13694 11fa C9000000 		.4byte	.LVL266-1
 13695 11fe 0100     		.2byte	0x1
 13696 1200 50       		.byte	0x50
 13697 1201 C9000000 		.4byte	.LVL266-1
 13698 1205 D0000000 		.4byte	.LFE17
 13699 1209 0400     		.2byte	0x4
 13700 120b F3       		.byte	0xf3
 13701 120c 01       		.uleb128 0x1
 13702 120d 50       		.byte	0x50
 13703 120e 9F       		.byte	0x9f
 13704 120f 00000000 		.4byte	0
 13705 1213 00000000 		.4byte	0
 13706              	.LLST203:
 13707 1217 20000000 		.4byte	.LVL248
 13708 121b C9000000 		.4byte	.LVL266-1
 13709 121f 0100     		.2byte	0x1
 13710 1221 50       		.byte	0x50
 13711 1222 C9000000 		.4byte	.LVL266-1
 13712 1226 D0000000 		.4byte	.LFE17
 13713 122a 0400     		.2byte	0x4
 13714 122c F3       		.byte	0xf3
 13715 122d 01       		.uleb128 0x1
 13716 122e 50       		.byte	0x50
 13717 122f 9F       		.byte	0x9f
 13718 1230 00000000 		.4byte	0
 13719 1234 00000000 		.4byte	0
 13720              	.LLST204:
 13721 1238 20000000 		.4byte	.LVL248
 13722 123c C9000000 		.4byte	.LVL266-1
 13723 1240 0100     		.2byte	0x1
 13724 1242 50       		.byte	0x50
 13725 1243 C9000000 		.4byte	.LVL266-1
 13726 1247 D0000000 		.4byte	.LFE17
 13727 124b 0400     		.2byte	0x4
 13728 124d F3       		.byte	0xf3
 13729 124e 01       		.uleb128 0x1
 13730 124f 50       		.byte	0x50
 13731 1250 9F       		.byte	0x9f
 13732 1251 00000000 		.4byte	0
 13733 1255 00000000 		.4byte	0
 13734              	.LLST205:
 13735 1259 2A000000 		.4byte	.LVL249
 13736 125d C9000000 		.4byte	.LVL266-1
 13737 1261 0100     		.2byte	0x1
 13738 1263 50       		.byte	0x50
 13739 1264 C9000000 		.4byte	.LVL266-1
 13740 1268 D0000000 		.4byte	.LFE17
 13741 126c 0400     		.2byte	0x4
ARM GAS  /var/folders/d2/nstgp4h54kz7g1l847x_b8wc0000gn/T//cccORz8f.s 			page 245


 13742 126e F3       		.byte	0xf3
 13743 126f 01       		.uleb128 0x1
 13744 1270 50       		.byte	0x50
 13745 1271 9F       		.byte	0x9f
 13746 1272 00000000 		.4byte	0
 13747 1276 00000000 		.4byte	0
 13748              	.LLST206:
 13749 127a 2A000000 		.4byte	.LVL249
 13750 127e C9000000 		.4byte	.LVL266-1
 13751 1282 0100     		.2byte	0x1
 13752 1284 50       		.byte	0x50
 13753 1285 C9000000 		.4byte	.LVL266-1
 13754 1289 D0000000 		.4byte	.LFE17
 13755 128d 0400     		.2byte	0x4
 13756 128f F3       		.byte	0xf3
 13757 1290 01       		.uleb128 0x1
 13758 1291 50       		.byte	0x50
 13759 1292 9F       		.byte	0x9f
 13760 1293 00000000 		.4byte	0
 13761 1297 00000000 		.4byte	0
 13762              	.LLST207:
 13763 129b 32000000 		.4byte	.LVL250
 13764 129f C9000000 		.4byte	.LVL266-1
 13765 12a3 0100     		.2byte	0x1
 13766 12a5 50       		.byte	0x50
 13767 12a6 C9000000 		.4byte	.LVL266-1
 13768 12aa D0000000 		.4byte	.LFE17
 13769 12ae 0400     		.2byte	0x4
 13770 12b0 F3       		.byte	0xf3
 13771 12b1 01       		.uleb128 0x1
 13772 12b2 50       		.byte	0x50
 13773 12b3 9F       		.byte	0x9f
 13774 12b4 00000000 		.4byte	0
 13775 12b8 00000000 		.4byte	0
 13776              	.LLST208:
 13777 12bc 32000000 		.4byte	.LVL250
 13778 12c0 C9000000 		.4byte	.LVL266-1
 13779 12c4 0100     		.2byte	0x1
 13780 12c6 50       		.byte	0x50
 13781 12c7 C9000000 		.4byte	.LVL266-1
 13782 12cb D0000000 		.4byte	.LFE17
 13783 12cf 0400     		.2byte	0x4
 13784 12d1 F3       		.byte	0xf3
 13785 12d2 01       		.uleb128 0x1
 13786 12d3 50       		.byte	0x50
 13787 12d4 9F       		.byte	0x9f
 13788 12d5 00000000 		.4byte	0
 13789 12d9 00000000 		.4byte	0
 13790              	.LLST209:
 13791 12dd 3A000000 		.4byte	.LVL251
 13792 12e1 C9000000 		.4byte	.LVL266-1
 13793 12e5 0100     		.2byte	0x1
 13794 12e7 50       		.byte	0x50
 13795 12e8 C9000000 		.4byte	.LVL266-1
 13796 12ec D0000000 		.4byte	.LFE17
 13797 12f0 0400     		.2byte	0x4
 13798 12f2 F3       		.byte	0xf3
ARM GAS  /var/folders/d2/nstgp4h54kz7g1l847x_b8wc0000gn/T//cccORz8f.s 			page 246


 13799 12f3 01       		.uleb128 0x1
 13800 12f4 50       		.byte	0x50
 13801 12f5 9F       		.byte	0x9f
 13802 12f6 00000000 		.4byte	0
 13803 12fa 00000000 		.4byte	0
 13804              	.LLST210:
 13805 12fe 3A000000 		.4byte	.LVL251
 13806 1302 C9000000 		.4byte	.LVL266-1
 13807 1306 0100     		.2byte	0x1
 13808 1308 50       		.byte	0x50
 13809 1309 C9000000 		.4byte	.LVL266-1
 13810 130d D0000000 		.4byte	.LFE17
 13811 1311 0400     		.2byte	0x4
 13812 1313 F3       		.byte	0xf3
 13813 1314 01       		.uleb128 0x1
 13814 1315 50       		.byte	0x50
 13815 1316 9F       		.byte	0x9f
 13816 1317 00000000 		.4byte	0
 13817 131b 00000000 		.4byte	0
 13818              	.LLST177:
 13819 131f 00000000 		.4byte	.LVL226
 13820 1323 72000000 		.4byte	.LVL237
 13821 1327 0100     		.2byte	0x1
 13822 1329 50       		.byte	0x50
 13823 132a 72000000 		.4byte	.LVL237
 13824 132e A2000000 		.4byte	.LVL241
 13825 1332 0400     		.2byte	0x4
 13826 1334 F3       		.byte	0xf3
 13827 1335 01       		.uleb128 0x1
 13828 1336 50       		.byte	0x50
 13829 1337 9F       		.byte	0x9f
 13830 1338 A2000000 		.4byte	.LVL241
 13831 133c AA000000 		.4byte	.LVL244
 13832 1340 0100     		.2byte	0x1
 13833 1342 50       		.byte	0x50
 13834 1343 AA000000 		.4byte	.LVL244
 13835 1347 B4000000 		.4byte	.LFE16
 13836 134b 0400     		.2byte	0x4
 13837 134d F3       		.byte	0xf3
 13838 134e 01       		.uleb128 0x1
 13839 134f 50       		.byte	0x50
 13840 1350 9F       		.byte	0x9f
 13841 1351 00000000 		.4byte	0
 13842 1355 00000000 		.4byte	0
 13843              	.LLST178:
 13844 1359 32000000 		.4byte	.LVL229
 13845 135d 62000000 		.4byte	.LVL234
 13846 1361 0100     		.2byte	0x1
 13847 1363 53       		.byte	0x53
 13848 1364 72000000 		.4byte	.LVL237
 13849 1368 8A000000 		.4byte	.LVL239
 13850 136c 0100     		.2byte	0x1
 13851 136e 53       		.byte	0x53
 13852 136f A2000000 		.4byte	.LVL241
 13853 1373 A4000000 		.4byte	.LVL242
 13854 1377 0100     		.2byte	0x1
 13855 1379 53       		.byte	0x53
ARM GAS  /var/folders/d2/nstgp4h54kz7g1l847x_b8wc0000gn/T//cccORz8f.s 			page 247


 13856 137a 00000000 		.4byte	0
 13857 137e 00000000 		.4byte	0
 13858              	.LLST179:
 13859 1382 3C000000 		.4byte	.LVL230
 13860 1386 68000000 		.4byte	.LVL235
 13861 138a 0100     		.2byte	0x1
 13862 138c 5C       		.byte	0x5c
 13863 138d A2000000 		.4byte	.LVL241
 13864 1391 AA000000 		.4byte	.LVL244
 13865 1395 0100     		.2byte	0x1
 13866 1397 5C       		.byte	0x5c
 13867 1398 00000000 		.4byte	0
 13868 139c 00000000 		.4byte	0
 13869              	.LLST180:
 13870 13a0 58000000 		.4byte	.LVL232
 13871 13a4 5E000000 		.4byte	.LVL233
 13872 13a8 0B00     		.2byte	0xb
 13873 13aa 7E       		.byte	0x7e
 13874 13ab 00       		.sleb128 0
 13875 13ac 40       		.byte	0x40
 13876 13ad 24       		.byte	0x24
 13877 13ae 40       		.byte	0x40
 13878 13af 26       		.byte	0x26
 13879 13b0 31       		.byte	0x31
 13880 13b1 24       		.byte	0x24
 13881 13b2 71       		.byte	0x71
 13882 13b3 00       		.sleb128 0
 13883 13b4 22       		.byte	0x22
 13884 13b5 5E000000 		.4byte	.LVL233
 13885 13b9 6C000000 		.4byte	.LVL236
 13886 13bd 0C00     		.2byte	0xc
 13887 13bf 7E       		.byte	0x7e
 13888 13c0 00       		.sleb128 0
 13889 13c1 40       		.byte	0x40
 13890 13c2 24       		.byte	0x24
 13891 13c3 40       		.byte	0x40
 13892 13c4 26       		.byte	0x26
 13893 13c5 31       		.byte	0x31
 13894 13c6 24       		.byte	0x24
 13895 13c7 70       		.byte	0x70
 13896 13c8 14       		.sleb128 20
 13897 13c9 06       		.byte	0x6
 13898 13ca 22       		.byte	0x22
 13899 13cb 6C000000 		.4byte	.LVL236
 13900 13cf 72000000 		.4byte	.LVL237
 13901 13d3 0C00     		.2byte	0xc
 13902 13d5 72       		.byte	0x72
 13903 13d6 01       		.sleb128 1
 13904 13d7 40       		.byte	0x40
 13905 13d8 24       		.byte	0x24
 13906 13d9 40       		.byte	0x40
 13907 13da 26       		.byte	0x26
 13908 13db 31       		.byte	0x31
 13909 13dc 24       		.byte	0x24
 13910 13dd 70       		.byte	0x70
 13911 13de 14       		.sleb128 20
 13912 13df 06       		.byte	0x6
ARM GAS  /var/folders/d2/nstgp4h54kz7g1l847x_b8wc0000gn/T//cccORz8f.s 			page 248


 13913 13e0 22       		.byte	0x22
 13914 13e1 A2000000 		.4byte	.LVL241
 13915 13e5 A8000000 		.4byte	.LVL243
 13916 13e9 0B00     		.2byte	0xb
 13917 13eb 7E       		.byte	0x7e
 13918 13ec 00       		.sleb128 0
 13919 13ed 40       		.byte	0x40
 13920 13ee 24       		.byte	0x24
 13921 13ef 40       		.byte	0x40
 13922 13f0 26       		.byte	0x26
 13923 13f1 31       		.byte	0x31
 13924 13f2 24       		.byte	0x24
 13925 13f3 71       		.byte	0x71
 13926 13f4 00       		.sleb128 0
 13927 13f5 22       		.byte	0x22
 13928 13f6 00000000 		.4byte	0
 13929 13fa 00000000 		.4byte	0
 13930              	.LLST181:
 13931 13fe 58000000 		.4byte	.LVL232
 13932 1402 72000000 		.4byte	.LVL237
 13933 1406 0200     		.2byte	0x2
 13934 1408 30       		.byte	0x30
 13935 1409 9F       		.byte	0x9f
 13936 140a 72000000 		.4byte	.LVL237
 13937 140e 8E000000 		.4byte	.LVL240
 13938 1412 0100     		.2byte	0x1
 13939 1414 51       		.byte	0x51
 13940 1415 A2000000 		.4byte	.LVL241
 13941 1419 AA000000 		.4byte	.LVL244
 13942 141d 0200     		.2byte	0x2
 13943 141f 30       		.byte	0x30
 13944 1420 9F       		.byte	0x9f
 13945 1421 00000000 		.4byte	0
 13946 1425 00000000 		.4byte	0
 13947              	.LLST182:
 13948 1429 5E000000 		.4byte	.LVL233
 13949 142d 72000000 		.4byte	.LVL237
 13950 1431 0200     		.2byte	0x2
 13951 1433 30       		.byte	0x30
 13952 1434 9F       		.byte	0x9f
 13953 1435 00000000 		.4byte	0
 13954 1439 00000000 		.4byte	0
 13955              	.LLST183:
 13956 143d 0A000000 		.4byte	.LVL227
 13957 1441 72000000 		.4byte	.LVL237
 13958 1445 0100     		.2byte	0x1
 13959 1447 50       		.byte	0x50
 13960 1448 72000000 		.4byte	.LVL237
 13961 144c A2000000 		.4byte	.LVL241
 13962 1450 0400     		.2byte	0x4
 13963 1452 F3       		.byte	0xf3
 13964 1453 01       		.uleb128 0x1
 13965 1454 50       		.byte	0x50
 13966 1455 9F       		.byte	0x9f
 13967 1456 A2000000 		.4byte	.LVL241
 13968 145a AA000000 		.4byte	.LVL244
 13969 145e 0100     		.2byte	0x1
ARM GAS  /var/folders/d2/nstgp4h54kz7g1l847x_b8wc0000gn/T//cccORz8f.s 			page 249


 13970 1460 50       		.byte	0x50
 13971 1461 AA000000 		.4byte	.LVL244
 13972 1465 B4000000 		.4byte	.LFE16
 13973 1469 0400     		.2byte	0x4
 13974 146b F3       		.byte	0xf3
 13975 146c 01       		.uleb128 0x1
 13976 146d 50       		.byte	0x50
 13977 146e 9F       		.byte	0x9f
 13978 146f 00000000 		.4byte	0
 13979 1473 00000000 		.4byte	0
 13980              	.LLST184:
 13981 1477 0A000000 		.4byte	.LVL227
 13982 147b 72000000 		.4byte	.LVL237
 13983 147f 0100     		.2byte	0x1
 13984 1481 50       		.byte	0x50
 13985 1482 72000000 		.4byte	.LVL237
 13986 1486 A2000000 		.4byte	.LVL241
 13987 148a 0400     		.2byte	0x4
 13988 148c F3       		.byte	0xf3
 13989 148d 01       		.uleb128 0x1
 13990 148e 50       		.byte	0x50
 13991 148f 9F       		.byte	0x9f
 13992 1490 A2000000 		.4byte	.LVL241
 13993 1494 AA000000 		.4byte	.LVL244
 13994 1498 0100     		.2byte	0x1
 13995 149a 50       		.byte	0x50
 13996 149b AA000000 		.4byte	.LVL244
 13997 149f B4000000 		.4byte	.LFE16
 13998 14a3 0400     		.2byte	0x4
 13999 14a5 F3       		.byte	0xf3
 14000 14a6 01       		.uleb128 0x1
 14001 14a7 50       		.byte	0x50
 14002 14a8 9F       		.byte	0x9f
 14003 14a9 00000000 		.4byte	0
 14004 14ad 00000000 		.4byte	0
 14005              	.LLST185:
 14006 14b1 24000000 		.4byte	.LVL228
 14007 14b5 72000000 		.4byte	.LVL237
 14008 14b9 0100     		.2byte	0x1
 14009 14bb 50       		.byte	0x50
 14010 14bc 72000000 		.4byte	.LVL237
 14011 14c0 A2000000 		.4byte	.LVL241
 14012 14c4 0400     		.2byte	0x4
 14013 14c6 F3       		.byte	0xf3
 14014 14c7 01       		.uleb128 0x1
 14015 14c8 50       		.byte	0x50
 14016 14c9 9F       		.byte	0x9f
 14017 14ca A2000000 		.4byte	.LVL241
 14018 14ce AA000000 		.4byte	.LVL244
 14019 14d2 0100     		.2byte	0x1
 14020 14d4 50       		.byte	0x50
 14021 14d5 AA000000 		.4byte	.LVL244
 14022 14d9 B4000000 		.4byte	.LFE16
 14023 14dd 0400     		.2byte	0x4
 14024 14df F3       		.byte	0xf3
 14025 14e0 01       		.uleb128 0x1
 14026 14e1 50       		.byte	0x50
ARM GAS  /var/folders/d2/nstgp4h54kz7g1l847x_b8wc0000gn/T//cccORz8f.s 			page 250


 14027 14e2 9F       		.byte	0x9f
 14028 14e3 00000000 		.4byte	0
 14029 14e7 00000000 		.4byte	0
 14030              	.LLST186:
 14031 14eb 24000000 		.4byte	.LVL228
 14032 14ef 72000000 		.4byte	.LVL237
 14033 14f3 0100     		.2byte	0x1
 14034 14f5 50       		.byte	0x50
 14035 14f6 72000000 		.4byte	.LVL237
 14036 14fa A2000000 		.4byte	.LVL241
 14037 14fe 0400     		.2byte	0x4
 14038 1500 F3       		.byte	0xf3
 14039 1501 01       		.uleb128 0x1
 14040 1502 50       		.byte	0x50
 14041 1503 9F       		.byte	0x9f
 14042 1504 A2000000 		.4byte	.LVL241
 14043 1508 AA000000 		.4byte	.LVL244
 14044 150c 0100     		.2byte	0x1
 14045 150e 50       		.byte	0x50
 14046 150f AA000000 		.4byte	.LVL244
 14047 1513 B4000000 		.4byte	.LFE16
 14048 1517 0400     		.2byte	0x4
 14049 1519 F3       		.byte	0xf3
 14050 151a 01       		.uleb128 0x1
 14051 151b 50       		.byte	0x50
 14052 151c 9F       		.byte	0x9f
 14053 151d 00000000 		.4byte	0
 14054 1521 00000000 		.4byte	0
 14055              	.LLST187:
 14056 1525 32000000 		.4byte	.LVL229
 14057 1529 72000000 		.4byte	.LVL237
 14058 152d 0100     		.2byte	0x1
 14059 152f 50       		.byte	0x50
 14060 1530 72000000 		.4byte	.LVL237
 14061 1534 A2000000 		.4byte	.LVL241
 14062 1538 0400     		.2byte	0x4
 14063 153a F3       		.byte	0xf3
 14064 153b 01       		.uleb128 0x1
 14065 153c 50       		.byte	0x50
 14066 153d 9F       		.byte	0x9f
 14067 153e A2000000 		.4byte	.LVL241
 14068 1542 AA000000 		.4byte	.LVL244
 14069 1546 0100     		.2byte	0x1
 14070 1548 50       		.byte	0x50
 14071 1549 AA000000 		.4byte	.LVL244
 14072 154d B4000000 		.4byte	.LFE16
 14073 1551 0400     		.2byte	0x4
 14074 1553 F3       		.byte	0xf3
 14075 1554 01       		.uleb128 0x1
 14076 1555 50       		.byte	0x50
 14077 1556 9F       		.byte	0x9f
 14078 1557 00000000 		.4byte	0
 14079 155b 00000000 		.4byte	0
 14080              	.LLST188:
 14081 155f 32000000 		.4byte	.LVL229
 14082 1563 72000000 		.4byte	.LVL237
 14083 1567 0100     		.2byte	0x1
ARM GAS  /var/folders/d2/nstgp4h54kz7g1l847x_b8wc0000gn/T//cccORz8f.s 			page 251


 14084 1569 50       		.byte	0x50
 14085 156a 72000000 		.4byte	.LVL237
 14086 156e A2000000 		.4byte	.LVL241
 14087 1572 0400     		.2byte	0x4
 14088 1574 F3       		.byte	0xf3
 14089 1575 01       		.uleb128 0x1
 14090 1576 50       		.byte	0x50
 14091 1577 9F       		.byte	0x9f
 14092 1578 A2000000 		.4byte	.LVL241
 14093 157c AA000000 		.4byte	.LVL244
 14094 1580 0100     		.2byte	0x1
 14095 1582 50       		.byte	0x50
 14096 1583 AA000000 		.4byte	.LVL244
 14097 1587 B4000000 		.4byte	.LFE16
 14098 158b 0400     		.2byte	0x4
 14099 158d F3       		.byte	0xf3
 14100 158e 01       		.uleb128 0x1
 14101 158f 50       		.byte	0x50
 14102 1590 9F       		.byte	0x9f
 14103 1591 00000000 		.4byte	0
 14104 1595 00000000 		.4byte	0
 14105              	.LLST189:
 14106 1599 3C000000 		.4byte	.LVL230
 14107 159d 72000000 		.4byte	.LVL237
 14108 15a1 0100     		.2byte	0x1
 14109 15a3 50       		.byte	0x50
 14110 15a4 72000000 		.4byte	.LVL237
 14111 15a8 A2000000 		.4byte	.LVL241
 14112 15ac 0400     		.2byte	0x4
 14113 15ae F3       		.byte	0xf3
 14114 15af 01       		.uleb128 0x1
 14115 15b0 50       		.byte	0x50
 14116 15b1 9F       		.byte	0x9f
 14117 15b2 A2000000 		.4byte	.LVL241
 14118 15b6 AA000000 		.4byte	.LVL244
 14119 15ba 0100     		.2byte	0x1
 14120 15bc 50       		.byte	0x50
 14121 15bd AA000000 		.4byte	.LVL244
 14122 15c1 B4000000 		.4byte	.LFE16
 14123 15c5 0400     		.2byte	0x4
 14124 15c7 F3       		.byte	0xf3
 14125 15c8 01       		.uleb128 0x1
 14126 15c9 50       		.byte	0x50
 14127 15ca 9F       		.byte	0x9f
 14128 15cb 00000000 		.4byte	0
 14129 15cf 00000000 		.4byte	0
 14130              	.LLST190:
 14131 15d3 3C000000 		.4byte	.LVL230
 14132 15d7 72000000 		.4byte	.LVL237
 14133 15db 0100     		.2byte	0x1
 14134 15dd 50       		.byte	0x50
 14135 15de 72000000 		.4byte	.LVL237
 14136 15e2 A2000000 		.4byte	.LVL241
 14137 15e6 0400     		.2byte	0x4
 14138 15e8 F3       		.byte	0xf3
 14139 15e9 01       		.uleb128 0x1
 14140 15ea 50       		.byte	0x50
ARM GAS  /var/folders/d2/nstgp4h54kz7g1l847x_b8wc0000gn/T//cccORz8f.s 			page 252


 14141 15eb 9F       		.byte	0x9f
 14142 15ec A2000000 		.4byte	.LVL241
 14143 15f0 AA000000 		.4byte	.LVL244
 14144 15f4 0100     		.2byte	0x1
 14145 15f6 50       		.byte	0x50
 14146 15f7 AA000000 		.4byte	.LVL244
 14147 15fb B4000000 		.4byte	.LFE16
 14148 15ff 0400     		.2byte	0x4
 14149 1601 F3       		.byte	0xf3
 14150 1602 01       		.uleb128 0x1
 14151 1603 50       		.byte	0x50
 14152 1604 9F       		.byte	0x9f
 14153 1605 00000000 		.4byte	0
 14154 1609 00000000 		.4byte	0
 14155              	.LLST191:
 14156 160d 4C000000 		.4byte	.LVL231
 14157 1611 72000000 		.4byte	.LVL237
 14158 1615 0100     		.2byte	0x1
 14159 1617 50       		.byte	0x50
 14160 1618 72000000 		.4byte	.LVL237
 14161 161c A2000000 		.4byte	.LVL241
 14162 1620 0400     		.2byte	0x4
 14163 1622 F3       		.byte	0xf3
 14164 1623 01       		.uleb128 0x1
 14165 1624 50       		.byte	0x50
 14166 1625 9F       		.byte	0x9f
 14167 1626 A2000000 		.4byte	.LVL241
 14168 162a AA000000 		.4byte	.LVL244
 14169 162e 0100     		.2byte	0x1
 14170 1630 50       		.byte	0x50
 14171 1631 AA000000 		.4byte	.LVL244
 14172 1635 B4000000 		.4byte	.LFE16
 14173 1639 0400     		.2byte	0x4
 14174 163b F3       		.byte	0xf3
 14175 163c 01       		.uleb128 0x1
 14176 163d 50       		.byte	0x50
 14177 163e 9F       		.byte	0x9f
 14178 163f 00000000 		.4byte	0
 14179 1643 00000000 		.4byte	0
 14180              	.LLST192:
 14181 1647 4C000000 		.4byte	.LVL231
 14182 164b 72000000 		.4byte	.LVL237
 14183 164f 0100     		.2byte	0x1
 14184 1651 50       		.byte	0x50
 14185 1652 72000000 		.4byte	.LVL237
 14186 1656 A2000000 		.4byte	.LVL241
 14187 165a 0400     		.2byte	0x4
 14188 165c F3       		.byte	0xf3
 14189 165d 01       		.uleb128 0x1
 14190 165e 50       		.byte	0x50
 14191 165f 9F       		.byte	0x9f
 14192 1660 A2000000 		.4byte	.LVL241
 14193 1664 AA000000 		.4byte	.LVL244
 14194 1668 0100     		.2byte	0x1
 14195 166a 50       		.byte	0x50
 14196 166b AA000000 		.4byte	.LVL244
 14197 166f B4000000 		.4byte	.LFE16
ARM GAS  /var/folders/d2/nstgp4h54kz7g1l847x_b8wc0000gn/T//cccORz8f.s 			page 253


 14198 1673 0400     		.2byte	0x4
 14199 1675 F3       		.byte	0xf3
 14200 1676 01       		.uleb128 0x1
 14201 1677 50       		.byte	0x50
 14202 1678 9F       		.byte	0x9f
 14203 1679 00000000 		.4byte	0
 14204 167d 00000000 		.4byte	0
 14205              	.LLST156:
 14206 1681 00000000 		.4byte	.LVL209
 14207 1685 A5000000 		.4byte	.LVL225-1
 14208 1689 0100     		.2byte	0x1
 14209 168b 50       		.byte	0x50
 14210 168c A5000000 		.4byte	.LVL225-1
 14211 1690 AC000000 		.4byte	.LFE15
 14212 1694 0400     		.2byte	0x4
 14213 1696 F3       		.byte	0xf3
 14214 1697 01       		.uleb128 0x1
 14215 1698 50       		.byte	0x50
 14216 1699 9F       		.byte	0x9f
 14217 169a 00000000 		.4byte	0
 14218 169e 00000000 		.4byte	0
 14219              	.LLST157:
 14220 16a2 20000000 		.4byte	.LVL211
 14221 16a6 52000000 		.4byte	.LVL217
 14222 16aa 0100     		.2byte	0x1
 14223 16ac 5E       		.byte	0x5e
 14224 16ad 7E000000 		.4byte	.LVL220
 14225 16b1 8A000000 		.4byte	.LVL223
 14226 16b5 0100     		.2byte	0x1
 14227 16b7 52       		.byte	0x52
 14228 16b8 00000000 		.4byte	0
 14229 16bc 00000000 		.4byte	0
 14230              	.LLST158:
 14231 16c0 2A000000 		.4byte	.LVL212
 14232 16c4 58000000 		.4byte	.LVL219
 14233 16c8 0100     		.2byte	0x1
 14234 16ca 53       		.byte	0x53
 14235 16cb 7E000000 		.4byte	.LVL220
 14236 16cf 80000000 		.4byte	.LVL221
 14237 16d3 0300     		.2byte	0x3
 14238 16d5 73       		.byte	0x73
 14239 16d6 7F       		.sleb128 -1
 14240 16d7 9F       		.byte	0x9f
 14241 16d8 80000000 		.4byte	.LVL221
 14242 16dc 92000000 		.4byte	.LVL224
 14243 16e0 0100     		.2byte	0x1
 14244 16e2 53       		.byte	0x53
 14245 16e3 00000000 		.4byte	0
 14246 16e7 00000000 		.4byte	0
 14247              	.LLST159:
 14248 16eb 32000000 		.4byte	.LVL213
 14249 16ef 56000000 		.4byte	.LVL218
 14250 16f3 0100     		.2byte	0x1
 14251 16f5 5C       		.byte	0x5c
 14252 16f6 00000000 		.4byte	0
 14253 16fa 00000000 		.4byte	0
 14254              	.LLST160:
ARM GAS  /var/folders/d2/nstgp4h54kz7g1l847x_b8wc0000gn/T//cccORz8f.s 			page 254


 14255 16fe 3A000000 		.4byte	.LVL214
 14256 1702 58000000 		.4byte	.LVL219
 14257 1706 0100     		.2byte	0x1
 14258 1708 57       		.byte	0x57
 14259 1709 00000000 		.4byte	0
 14260 170d 00000000 		.4byte	0
 14261              	.LLST161:
 14262 1711 42000000 		.4byte	.LVL215
 14263 1715 4C000000 		.4byte	.LVL216
 14264 1719 0100     		.2byte	0x1
 14265 171b 56       		.byte	0x56
 14266 171c 4C000000 		.4byte	.LVL216
 14267 1720 58000000 		.4byte	.LVL219
 14268 1724 0700     		.2byte	0x7
 14269 1726 74       		.byte	0x74
 14270 1727 00       		.sleb128 0
 14271 1728 31       		.byte	0x31
 14272 1729 24       		.byte	0x24
 14273 172a 71       		.byte	0x71
 14274 172b 00       		.sleb128 0
 14275 172c 22       		.byte	0x22
 14276 172d 00000000 		.4byte	0
 14277 1731 00000000 		.4byte	0
 14278              	.LLST162:
 14279 1735 42000000 		.4byte	.LVL215
 14280 1739 58000000 		.4byte	.LVL219
 14281 173d 0200     		.2byte	0x2
 14282 173f 30       		.byte	0x30
 14283 1740 9F       		.byte	0x9f
 14284 1741 00000000 		.4byte	0
 14285 1745 00000000 		.4byte	0
 14286              	.LLST173:
 14287 1749 80000000 		.4byte	.LVL221
 14288 174d 92000000 		.4byte	.LVL224
 14289 1751 0100     		.2byte	0x1
 14290 1753 55       		.byte	0x55
 14291 1754 00000000 		.4byte	0
 14292 1758 00000000 		.4byte	0
 14293              	.LLST174:
 14294 175c 80000000 		.4byte	.LVL221
 14295 1760 92000000 		.4byte	.LVL224
 14296 1764 0100     		.2byte	0x1
 14297 1766 59       		.byte	0x59
 14298 1767 00000000 		.4byte	0
 14299 176b 00000000 		.4byte	0
 14300              	.LLST175:
 14301 176f 80000000 		.4byte	.LVL221
 14302 1773 86000000 		.4byte	.LVL222
 14303 1777 0100     		.2byte	0x1
 14304 1779 54       		.byte	0x54
 14305 177a 00000000 		.4byte	0
 14306 177e 00000000 		.4byte	0
 14307              	.LLST176:
 14308 1782 8A000000 		.4byte	.LVL223
 14309 1786 92000000 		.4byte	.LVL224
 14310 178a 0100     		.2byte	0x1
 14311 178c 54       		.byte	0x54
ARM GAS  /var/folders/d2/nstgp4h54kz7g1l847x_b8wc0000gn/T//cccORz8f.s 			page 255


 14312 178d 00000000 		.4byte	0
 14313 1791 00000000 		.4byte	0
 14314              	.LLST163:
 14315 1795 0A000000 		.4byte	.LVL210
 14316 1799 A5000000 		.4byte	.LVL225-1
 14317 179d 0100     		.2byte	0x1
 14318 179f 50       		.byte	0x50
 14319 17a0 A5000000 		.4byte	.LVL225-1
 14320 17a4 AC000000 		.4byte	.LFE15
 14321 17a8 0400     		.2byte	0x4
 14322 17aa F3       		.byte	0xf3
 14323 17ab 01       		.uleb128 0x1
 14324 17ac 50       		.byte	0x50
 14325 17ad 9F       		.byte	0x9f
 14326 17ae 00000000 		.4byte	0
 14327 17b2 00000000 		.4byte	0
 14328              	.LLST164:
 14329 17b6 0A000000 		.4byte	.LVL210
 14330 17ba A5000000 		.4byte	.LVL225-1
 14331 17be 0100     		.2byte	0x1
 14332 17c0 50       		.byte	0x50
 14333 17c1 A5000000 		.4byte	.LVL225-1
 14334 17c5 AC000000 		.4byte	.LFE15
 14335 17c9 0400     		.2byte	0x4
 14336 17cb F3       		.byte	0xf3
 14337 17cc 01       		.uleb128 0x1
 14338 17cd 50       		.byte	0x50
 14339 17ce 9F       		.byte	0x9f
 14340 17cf 00000000 		.4byte	0
 14341 17d3 00000000 		.4byte	0
 14342              	.LLST165:
 14343 17d7 20000000 		.4byte	.LVL211
 14344 17db A5000000 		.4byte	.LVL225-1
 14345 17df 0100     		.2byte	0x1
 14346 17e1 50       		.byte	0x50
 14347 17e2 A5000000 		.4byte	.LVL225-1
 14348 17e6 AC000000 		.4byte	.LFE15
 14349 17ea 0400     		.2byte	0x4
 14350 17ec F3       		.byte	0xf3
 14351 17ed 01       		.uleb128 0x1
 14352 17ee 50       		.byte	0x50
 14353 17ef 9F       		.byte	0x9f
 14354 17f0 00000000 		.4byte	0
 14355 17f4 00000000 		.4byte	0
 14356              	.LLST166:
 14357 17f8 20000000 		.4byte	.LVL211
 14358 17fc A5000000 		.4byte	.LVL225-1
 14359 1800 0100     		.2byte	0x1
 14360 1802 50       		.byte	0x50
 14361 1803 A5000000 		.4byte	.LVL225-1
 14362 1807 AC000000 		.4byte	.LFE15
 14363 180b 0400     		.2byte	0x4
 14364 180d F3       		.byte	0xf3
 14365 180e 01       		.uleb128 0x1
 14366 180f 50       		.byte	0x50
 14367 1810 9F       		.byte	0x9f
 14368 1811 00000000 		.4byte	0
ARM GAS  /var/folders/d2/nstgp4h54kz7g1l847x_b8wc0000gn/T//cccORz8f.s 			page 256


 14369 1815 00000000 		.4byte	0
 14370              	.LLST167:
 14371 1819 2A000000 		.4byte	.LVL212
 14372 181d A5000000 		.4byte	.LVL225-1
 14373 1821 0100     		.2byte	0x1
 14374 1823 50       		.byte	0x50
 14375 1824 A5000000 		.4byte	.LVL225-1
 14376 1828 AC000000 		.4byte	.LFE15
 14377 182c 0400     		.2byte	0x4
 14378 182e F3       		.byte	0xf3
 14379 182f 01       		.uleb128 0x1
 14380 1830 50       		.byte	0x50
 14381 1831 9F       		.byte	0x9f
 14382 1832 00000000 		.4byte	0
 14383 1836 00000000 		.4byte	0
 14384              	.LLST168:
 14385 183a 2A000000 		.4byte	.LVL212
 14386 183e A5000000 		.4byte	.LVL225-1
 14387 1842 0100     		.2byte	0x1
 14388 1844 50       		.byte	0x50
 14389 1845 A5000000 		.4byte	.LVL225-1
 14390 1849 AC000000 		.4byte	.LFE15
 14391 184d 0400     		.2byte	0x4
 14392 184f F3       		.byte	0xf3
 14393 1850 01       		.uleb128 0x1
 14394 1851 50       		.byte	0x50
 14395 1852 9F       		.byte	0x9f
 14396 1853 00000000 		.4byte	0
 14397 1857 00000000 		.4byte	0
 14398              	.LLST169:
 14399 185b 32000000 		.4byte	.LVL213
 14400 185f A5000000 		.4byte	.LVL225-1
 14401 1863 0100     		.2byte	0x1
 14402 1865 50       		.byte	0x50
 14403 1866 A5000000 		.4byte	.LVL225-1
 14404 186a AC000000 		.4byte	.LFE15
 14405 186e 0400     		.2byte	0x4
 14406 1870 F3       		.byte	0xf3
 14407 1871 01       		.uleb128 0x1
 14408 1872 50       		.byte	0x50
 14409 1873 9F       		.byte	0x9f
 14410 1874 00000000 		.4byte	0
 14411 1878 00000000 		.4byte	0
 14412              	.LLST170:
 14413 187c 32000000 		.4byte	.LVL213
 14414 1880 A5000000 		.4byte	.LVL225-1
 14415 1884 0100     		.2byte	0x1
 14416 1886 50       		.byte	0x50
 14417 1887 A5000000 		.4byte	.LVL225-1
 14418 188b AC000000 		.4byte	.LFE15
 14419 188f 0400     		.2byte	0x4
 14420 1891 F3       		.byte	0xf3
 14421 1892 01       		.uleb128 0x1
 14422 1893 50       		.byte	0x50
 14423 1894 9F       		.byte	0x9f
 14424 1895 00000000 		.4byte	0
 14425 1899 00000000 		.4byte	0
ARM GAS  /var/folders/d2/nstgp4h54kz7g1l847x_b8wc0000gn/T//cccORz8f.s 			page 257


 14426              	.LLST171:
 14427 189d 3A000000 		.4byte	.LVL214
 14428 18a1 A5000000 		.4byte	.LVL225-1
 14429 18a5 0100     		.2byte	0x1
 14430 18a7 50       		.byte	0x50
 14431 18a8 A5000000 		.4byte	.LVL225-1
 14432 18ac AC000000 		.4byte	.LFE15
 14433 18b0 0400     		.2byte	0x4
 14434 18b2 F3       		.byte	0xf3
 14435 18b3 01       		.uleb128 0x1
 14436 18b4 50       		.byte	0x50
 14437 18b5 9F       		.byte	0x9f
 14438 18b6 00000000 		.4byte	0
 14439 18ba 00000000 		.4byte	0
 14440              	.LLST172:
 14441 18be 3A000000 		.4byte	.LVL214
 14442 18c2 A5000000 		.4byte	.LVL225-1
 14443 18c6 0100     		.2byte	0x1
 14444 18c8 50       		.byte	0x50
 14445 18c9 A5000000 		.4byte	.LVL225-1
 14446 18cd AC000000 		.4byte	.LFE15
 14447 18d1 0400     		.2byte	0x4
 14448 18d3 F3       		.byte	0xf3
 14449 18d4 01       		.uleb128 0x1
 14450 18d5 50       		.byte	0x50
 14451 18d6 9F       		.byte	0x9f
 14452 18d7 00000000 		.4byte	0
 14453 18db 00000000 		.4byte	0
 14454              	.LLST142:
 14455 18df 00000000 		.4byte	.LVL196
 14456 18e3 7B000000 		.4byte	.LVL208-1
 14457 18e7 0100     		.2byte	0x1
 14458 18e9 50       		.byte	0x50
 14459 18ea 7B000000 		.4byte	.LVL208-1
 14460 18ee 80000000 		.4byte	.LFE14
 14461 18f2 0400     		.2byte	0x4
 14462 18f4 F3       		.byte	0xf3
 14463 18f5 01       		.uleb128 0x1
 14464 18f6 50       		.byte	0x50
 14465 18f7 9F       		.byte	0x9f
 14466 18f8 00000000 		.4byte	0
 14467 18fc 00000000 		.4byte	0
 14468              	.LLST143:
 14469 1900 1E000000 		.4byte	.LVL198
 14470 1904 44000000 		.4byte	.LVL203
 14471 1908 0100     		.2byte	0x1
 14472 190a 57       		.byte	0x57
 14473 190b 00000000 		.4byte	0
 14474 190f 00000000 		.4byte	0
 14475              	.LLST144:
 14476 1913 26000000 		.4byte	.LVL199
 14477 1917 58000000 		.4byte	.LVL205
 14478 191b 0100     		.2byte	0x1
 14479 191d 53       		.byte	0x53
 14480 191e 5C000000 		.4byte	.LVL206
 14481 1922 68000000 		.4byte	.LVL207
 14482 1926 0100     		.2byte	0x1
ARM GAS  /var/folders/d2/nstgp4h54kz7g1l847x_b8wc0000gn/T//cccORz8f.s 			page 258


 14483 1928 53       		.byte	0x53
 14484 1929 00000000 		.4byte	0
 14485 192d 00000000 		.4byte	0
 14486              	.LLST145:
 14487 1931 2E000000 		.4byte	.LVL200
 14488 1935 46000000 		.4byte	.LVL204
 14489 1939 0100     		.2byte	0x1
 14490 193b 56       		.byte	0x56
 14491 193c 00000000 		.4byte	0
 14492 1940 00000000 		.4byte	0
 14493              	.LLST146:
 14494 1944 36000000 		.4byte	.LVL201
 14495 1948 40000000 		.4byte	.LVL202
 14496 194c 0100     		.2byte	0x1
 14497 194e 55       		.byte	0x55
 14498 194f 40000000 		.4byte	.LVL202
 14499 1953 46000000 		.4byte	.LVL204
 14500 1957 0700     		.2byte	0x7
 14501 1959 74       		.byte	0x74
 14502 195a 00       		.sleb128 0
 14503 195b 31       		.byte	0x31
 14504 195c 24       		.byte	0x24
 14505 195d 71       		.byte	0x71
 14506 195e 00       		.sleb128 0
 14507 195f 22       		.byte	0x22
 14508 1960 00000000 		.4byte	0
 14509 1964 00000000 		.4byte	0
 14510              	.LLST147:
 14511 1968 36000000 		.4byte	.LVL201
 14512 196c 46000000 		.4byte	.LVL204
 14513 1970 0200     		.2byte	0x2
 14514 1972 30       		.byte	0x30
 14515 1973 9F       		.byte	0x9f
 14516 1974 00000000 		.4byte	0
 14517 1978 00000000 		.4byte	0
 14518              	.LLST148:
 14519 197c 08000000 		.4byte	.LVL197
 14520 1980 7B000000 		.4byte	.LVL208-1
 14521 1984 0100     		.2byte	0x1
 14522 1986 50       		.byte	0x50
 14523 1987 7B000000 		.4byte	.LVL208-1
 14524 198b 80000000 		.4byte	.LFE14
 14525 198f 0400     		.2byte	0x4
 14526 1991 F3       		.byte	0xf3
 14527 1992 01       		.uleb128 0x1
 14528 1993 50       		.byte	0x50
 14529 1994 9F       		.byte	0x9f
 14530 1995 00000000 		.4byte	0
 14531 1999 00000000 		.4byte	0
 14532              	.LLST149:
 14533 199d 08000000 		.4byte	.LVL197
 14534 19a1 7B000000 		.4byte	.LVL208-1
 14535 19a5 0100     		.2byte	0x1
 14536 19a7 50       		.byte	0x50
 14537 19a8 7B000000 		.4byte	.LVL208-1
 14538 19ac 80000000 		.4byte	.LFE14
 14539 19b0 0400     		.2byte	0x4
ARM GAS  /var/folders/d2/nstgp4h54kz7g1l847x_b8wc0000gn/T//cccORz8f.s 			page 259


 14540 19b2 F3       		.byte	0xf3
 14541 19b3 01       		.uleb128 0x1
 14542 19b4 50       		.byte	0x50
 14543 19b5 9F       		.byte	0x9f
 14544 19b6 00000000 		.4byte	0
 14545 19ba 00000000 		.4byte	0
 14546              	.LLST150:
 14547 19be 1E000000 		.4byte	.LVL198
 14548 19c2 7B000000 		.4byte	.LVL208-1
 14549 19c6 0100     		.2byte	0x1
 14550 19c8 50       		.byte	0x50
 14551 19c9 7B000000 		.4byte	.LVL208-1
 14552 19cd 80000000 		.4byte	.LFE14
 14553 19d1 0400     		.2byte	0x4
 14554 19d3 F3       		.byte	0xf3
 14555 19d4 01       		.uleb128 0x1
 14556 19d5 50       		.byte	0x50
 14557 19d6 9F       		.byte	0x9f
 14558 19d7 00000000 		.4byte	0
 14559 19db 00000000 		.4byte	0
 14560              	.LLST151:
 14561 19df 1E000000 		.4byte	.LVL198
 14562 19e3 7B000000 		.4byte	.LVL208-1
 14563 19e7 0100     		.2byte	0x1
 14564 19e9 50       		.byte	0x50
 14565 19ea 7B000000 		.4byte	.LVL208-1
 14566 19ee 80000000 		.4byte	.LFE14
 14567 19f2 0400     		.2byte	0x4
 14568 19f4 F3       		.byte	0xf3
 14569 19f5 01       		.uleb128 0x1
 14570 19f6 50       		.byte	0x50
 14571 19f7 9F       		.byte	0x9f
 14572 19f8 00000000 		.4byte	0
 14573 19fc 00000000 		.4byte	0
 14574              	.LLST152:
 14575 1a00 26000000 		.4byte	.LVL199
 14576 1a04 7B000000 		.4byte	.LVL208-1
 14577 1a08 0100     		.2byte	0x1
 14578 1a0a 50       		.byte	0x50
 14579 1a0b 7B000000 		.4byte	.LVL208-1
 14580 1a0f 80000000 		.4byte	.LFE14
 14581 1a13 0400     		.2byte	0x4
 14582 1a15 F3       		.byte	0xf3
 14583 1a16 01       		.uleb128 0x1
 14584 1a17 50       		.byte	0x50
 14585 1a18 9F       		.byte	0x9f
 14586 1a19 00000000 		.4byte	0
 14587 1a1d 00000000 		.4byte	0
 14588              	.LLST153:
 14589 1a21 26000000 		.4byte	.LVL199
 14590 1a25 7B000000 		.4byte	.LVL208-1
 14591 1a29 0100     		.2byte	0x1
 14592 1a2b 50       		.byte	0x50
 14593 1a2c 7B000000 		.4byte	.LVL208-1
 14594 1a30 80000000 		.4byte	.LFE14
 14595 1a34 0400     		.2byte	0x4
 14596 1a36 F3       		.byte	0xf3
ARM GAS  /var/folders/d2/nstgp4h54kz7g1l847x_b8wc0000gn/T//cccORz8f.s 			page 260


 14597 1a37 01       		.uleb128 0x1
 14598 1a38 50       		.byte	0x50
 14599 1a39 9F       		.byte	0x9f
 14600 1a3a 00000000 		.4byte	0
 14601 1a3e 00000000 		.4byte	0
 14602              	.LLST154:
 14603 1a42 2E000000 		.4byte	.LVL200
 14604 1a46 7B000000 		.4byte	.LVL208-1
 14605 1a4a 0100     		.2byte	0x1
 14606 1a4c 50       		.byte	0x50
 14607 1a4d 7B000000 		.4byte	.LVL208-1
 14608 1a51 80000000 		.4byte	.LFE14
 14609 1a55 0400     		.2byte	0x4
 14610 1a57 F3       		.byte	0xf3
 14611 1a58 01       		.uleb128 0x1
 14612 1a59 50       		.byte	0x50
 14613 1a5a 9F       		.byte	0x9f
 14614 1a5b 00000000 		.4byte	0
 14615 1a5f 00000000 		.4byte	0
 14616              	.LLST155:
 14617 1a63 2E000000 		.4byte	.LVL200
 14618 1a67 7B000000 		.4byte	.LVL208-1
 14619 1a6b 0100     		.2byte	0x1
 14620 1a6d 50       		.byte	0x50
 14621 1a6e 7B000000 		.4byte	.LVL208-1
 14622 1a72 80000000 		.4byte	.LFE14
 14623 1a76 0400     		.2byte	0x4
 14624 1a78 F3       		.byte	0xf3
 14625 1a79 01       		.uleb128 0x1
 14626 1a7a 50       		.byte	0x50
 14627 1a7b 9F       		.byte	0x9f
 14628 1a7c 00000000 		.4byte	0
 14629 1a80 00000000 		.4byte	0
 14630              	.LLST128:
 14631 1a84 00000000 		.4byte	.LVL183
 14632 1a88 7B000000 		.4byte	.LVL195-1
 14633 1a8c 0100     		.2byte	0x1
 14634 1a8e 50       		.byte	0x50
 14635 1a8f 7B000000 		.4byte	.LVL195-1
 14636 1a93 80000000 		.4byte	.LFE13
 14637 1a97 0400     		.2byte	0x4
 14638 1a99 F3       		.byte	0xf3
 14639 1a9a 01       		.uleb128 0x1
 14640 1a9b 50       		.byte	0x50
 14641 1a9c 9F       		.byte	0x9f
 14642 1a9d 00000000 		.4byte	0
 14643 1aa1 00000000 		.4byte	0
 14644              	.LLST129:
 14645 1aa5 1E000000 		.4byte	.LVL185
 14646 1aa9 44000000 		.4byte	.LVL190
 14647 1aad 0100     		.2byte	0x1
 14648 1aaf 57       		.byte	0x57
 14649 1ab0 00000000 		.4byte	0
 14650 1ab4 00000000 		.4byte	0
 14651              	.LLST130:
 14652 1ab8 26000000 		.4byte	.LVL186
 14653 1abc 58000000 		.4byte	.LVL192
ARM GAS  /var/folders/d2/nstgp4h54kz7g1l847x_b8wc0000gn/T//cccORz8f.s 			page 261


 14654 1ac0 0100     		.2byte	0x1
 14655 1ac2 53       		.byte	0x53
 14656 1ac3 5C000000 		.4byte	.LVL193
 14657 1ac7 68000000 		.4byte	.LVL194
 14658 1acb 0100     		.2byte	0x1
 14659 1acd 53       		.byte	0x53
 14660 1ace 00000000 		.4byte	0
 14661 1ad2 00000000 		.4byte	0
 14662              	.LLST131:
 14663 1ad6 2E000000 		.4byte	.LVL187
 14664 1ada 46000000 		.4byte	.LVL191
 14665 1ade 0100     		.2byte	0x1
 14666 1ae0 56       		.byte	0x56
 14667 1ae1 00000000 		.4byte	0
 14668 1ae5 00000000 		.4byte	0
 14669              	.LLST132:
 14670 1ae9 36000000 		.4byte	.LVL188
 14671 1aed 40000000 		.4byte	.LVL189
 14672 1af1 0100     		.2byte	0x1
 14673 1af3 55       		.byte	0x55
 14674 1af4 40000000 		.4byte	.LVL189
 14675 1af8 46000000 		.4byte	.LVL191
 14676 1afc 0700     		.2byte	0x7
 14677 1afe 74       		.byte	0x74
 14678 1aff 00       		.sleb128 0
 14679 1b00 31       		.byte	0x31
 14680 1b01 24       		.byte	0x24
 14681 1b02 71       		.byte	0x71
 14682 1b03 00       		.sleb128 0
 14683 1b04 22       		.byte	0x22
 14684 1b05 00000000 		.4byte	0
 14685 1b09 00000000 		.4byte	0
 14686              	.LLST133:
 14687 1b0d 36000000 		.4byte	.LVL188
 14688 1b11 46000000 		.4byte	.LVL191
 14689 1b15 0200     		.2byte	0x2
 14690 1b17 30       		.byte	0x30
 14691 1b18 9F       		.byte	0x9f
 14692 1b19 00000000 		.4byte	0
 14693 1b1d 00000000 		.4byte	0
 14694              	.LLST134:
 14695 1b21 08000000 		.4byte	.LVL184
 14696 1b25 7B000000 		.4byte	.LVL195-1
 14697 1b29 0100     		.2byte	0x1
 14698 1b2b 50       		.byte	0x50
 14699 1b2c 7B000000 		.4byte	.LVL195-1
 14700 1b30 80000000 		.4byte	.LFE13
 14701 1b34 0400     		.2byte	0x4
 14702 1b36 F3       		.byte	0xf3
 14703 1b37 01       		.uleb128 0x1
 14704 1b38 50       		.byte	0x50
 14705 1b39 9F       		.byte	0x9f
 14706 1b3a 00000000 		.4byte	0
 14707 1b3e 00000000 		.4byte	0
 14708              	.LLST135:
 14709 1b42 08000000 		.4byte	.LVL184
 14710 1b46 7B000000 		.4byte	.LVL195-1
ARM GAS  /var/folders/d2/nstgp4h54kz7g1l847x_b8wc0000gn/T//cccORz8f.s 			page 262


 14711 1b4a 0100     		.2byte	0x1
 14712 1b4c 50       		.byte	0x50
 14713 1b4d 7B000000 		.4byte	.LVL195-1
 14714 1b51 80000000 		.4byte	.LFE13
 14715 1b55 0400     		.2byte	0x4
 14716 1b57 F3       		.byte	0xf3
 14717 1b58 01       		.uleb128 0x1
 14718 1b59 50       		.byte	0x50
 14719 1b5a 9F       		.byte	0x9f
 14720 1b5b 00000000 		.4byte	0
 14721 1b5f 00000000 		.4byte	0
 14722              	.LLST136:
 14723 1b63 1E000000 		.4byte	.LVL185
 14724 1b67 7B000000 		.4byte	.LVL195-1
 14725 1b6b 0100     		.2byte	0x1
 14726 1b6d 50       		.byte	0x50
 14727 1b6e 7B000000 		.4byte	.LVL195-1
 14728 1b72 80000000 		.4byte	.LFE13
 14729 1b76 0400     		.2byte	0x4
 14730 1b78 F3       		.byte	0xf3
 14731 1b79 01       		.uleb128 0x1
 14732 1b7a 50       		.byte	0x50
 14733 1b7b 9F       		.byte	0x9f
 14734 1b7c 00000000 		.4byte	0
 14735 1b80 00000000 		.4byte	0
 14736              	.LLST137:
 14737 1b84 1E000000 		.4byte	.LVL185
 14738 1b88 7B000000 		.4byte	.LVL195-1
 14739 1b8c 0100     		.2byte	0x1
 14740 1b8e 50       		.byte	0x50
 14741 1b8f 7B000000 		.4byte	.LVL195-1
 14742 1b93 80000000 		.4byte	.LFE13
 14743 1b97 0400     		.2byte	0x4
 14744 1b99 F3       		.byte	0xf3
 14745 1b9a 01       		.uleb128 0x1
 14746 1b9b 50       		.byte	0x50
 14747 1b9c 9F       		.byte	0x9f
 14748 1b9d 00000000 		.4byte	0
 14749 1ba1 00000000 		.4byte	0
 14750              	.LLST138:
 14751 1ba5 26000000 		.4byte	.LVL186
 14752 1ba9 7B000000 		.4byte	.LVL195-1
 14753 1bad 0100     		.2byte	0x1
 14754 1baf 50       		.byte	0x50
 14755 1bb0 7B000000 		.4byte	.LVL195-1
 14756 1bb4 80000000 		.4byte	.LFE13
 14757 1bb8 0400     		.2byte	0x4
 14758 1bba F3       		.byte	0xf3
 14759 1bbb 01       		.uleb128 0x1
 14760 1bbc 50       		.byte	0x50
 14761 1bbd 9F       		.byte	0x9f
 14762 1bbe 00000000 		.4byte	0
 14763 1bc2 00000000 		.4byte	0
 14764              	.LLST139:
 14765 1bc6 26000000 		.4byte	.LVL186
 14766 1bca 7B000000 		.4byte	.LVL195-1
 14767 1bce 0100     		.2byte	0x1
ARM GAS  /var/folders/d2/nstgp4h54kz7g1l847x_b8wc0000gn/T//cccORz8f.s 			page 263


 14768 1bd0 50       		.byte	0x50
 14769 1bd1 7B000000 		.4byte	.LVL195-1
 14770 1bd5 80000000 		.4byte	.LFE13
 14771 1bd9 0400     		.2byte	0x4
 14772 1bdb F3       		.byte	0xf3
 14773 1bdc 01       		.uleb128 0x1
 14774 1bdd 50       		.byte	0x50
 14775 1bde 9F       		.byte	0x9f
 14776 1bdf 00000000 		.4byte	0
 14777 1be3 00000000 		.4byte	0
 14778              	.LLST140:
 14779 1be7 2E000000 		.4byte	.LVL187
 14780 1beb 7B000000 		.4byte	.LVL195-1
 14781 1bef 0100     		.2byte	0x1
 14782 1bf1 50       		.byte	0x50
 14783 1bf2 7B000000 		.4byte	.LVL195-1
 14784 1bf6 80000000 		.4byte	.LFE13
 14785 1bfa 0400     		.2byte	0x4
 14786 1bfc F3       		.byte	0xf3
 14787 1bfd 01       		.uleb128 0x1
 14788 1bfe 50       		.byte	0x50
 14789 1bff 9F       		.byte	0x9f
 14790 1c00 00000000 		.4byte	0
 14791 1c04 00000000 		.4byte	0
 14792              	.LLST141:
 14793 1c08 2E000000 		.4byte	.LVL187
 14794 1c0c 7B000000 		.4byte	.LVL195-1
 14795 1c10 0100     		.2byte	0x1
 14796 1c12 50       		.byte	0x50
 14797 1c13 7B000000 		.4byte	.LVL195-1
 14798 1c17 80000000 		.4byte	.LFE13
 14799 1c1b 0400     		.2byte	0x4
 14800 1c1d F3       		.byte	0xf3
 14801 1c1e 01       		.uleb128 0x1
 14802 1c1f 50       		.byte	0x50
 14803 1c20 9F       		.byte	0x9f
 14804 1c21 00000000 		.4byte	0
 14805 1c25 00000000 		.4byte	0
 14806              	.LLST112:
 14807 1c29 00000000 		.4byte	.LVL159
 14808 1c2d BB000000 		.4byte	.LVL181-1
 14809 1c31 0100     		.2byte	0x1
 14810 1c33 50       		.byte	0x50
 14811 1c34 BB000000 		.4byte	.LVL181-1
 14812 1c38 BC000000 		.4byte	.LVL181
 14813 1c3c 0400     		.2byte	0x4
 14814 1c3e F3       		.byte	0xf3
 14815 1c3f 01       		.uleb128 0x1
 14816 1c40 50       		.byte	0x50
 14817 1c41 9F       		.byte	0x9f
 14818 1c42 BC000000 		.4byte	.LVL181
 14819 1c46 BF000000 		.4byte	.LVL182-1
 14820 1c4a 0100     		.2byte	0x1
 14821 1c4c 50       		.byte	0x50
 14822 1c4d BF000000 		.4byte	.LVL182-1
 14823 1c51 C4000000 		.4byte	.LFE12
 14824 1c55 0400     		.2byte	0x4
ARM GAS  /var/folders/d2/nstgp4h54kz7g1l847x_b8wc0000gn/T//cccORz8f.s 			page 264


 14825 1c57 F3       		.byte	0xf3
 14826 1c58 01       		.uleb128 0x1
 14827 1c59 50       		.byte	0x50
 14828 1c5a 9F       		.byte	0x9f
 14829 1c5b 00000000 		.4byte	0
 14830 1c5f 00000000 		.4byte	0
 14831              	.LLST113:
 14832 1c63 20000000 		.4byte	.LVL161
 14833 1c67 58000000 		.4byte	.LVL167
 14834 1c6b 0100     		.2byte	0x1
 14835 1c6d 57       		.byte	0x57
 14836 1c6e 58000000 		.4byte	.LVL167
 14837 1c72 5C000000 		.4byte	.LVL168
 14838 1c76 0300     		.2byte	0x3
 14839 1c78 77       		.byte	0x77
 14840 1c79 01       		.sleb128 1
 14841 1c7a 9F       		.byte	0x9f
 14842 1c7b 00000000 		.4byte	0
 14843 1c7f 00000000 		.4byte	0
 14844              	.LLST114:
 14845 1c83 28000000 		.4byte	.LVL162
 14846 1c87 4E000000 		.4byte	.LVL165
 14847 1c8b 0100     		.2byte	0x1
 14848 1c8d 52       		.byte	0x52
 14849 1c8e 4E000000 		.4byte	.LVL165
 14850 1c92 6E000000 		.4byte	.LVL172
 14851 1c96 0100     		.2byte	0x1
 14852 1c98 53       		.byte	0x53
 14853 1c99 70000000 		.4byte	.LVL173
 14854 1c9d 8C000000 		.4byte	.LVL176
 14855 1ca1 0100     		.2byte	0x1
 14856 1ca3 53       		.byte	0x53
 14857 1ca4 9C000000 		.4byte	.LVL177
 14858 1ca8 A4000000 		.4byte	.LVL179
 14859 1cac 0100     		.2byte	0x1
 14860 1cae 53       		.byte	0x53
 14861 1caf 00000000 		.4byte	0
 14862 1cb3 00000000 		.4byte	0
 14863              	.LLST115:
 14864 1cb7 30000000 		.4byte	.LVL163
 14865 1cbb 4E000000 		.4byte	.LVL165
 14866 1cbf 0100     		.2byte	0x1
 14867 1cc1 5C       		.byte	0x5c
 14868 1cc2 4E000000 		.4byte	.LVL165
 14869 1cc6 60000000 		.4byte	.LVL169
 14870 1cca 0300     		.2byte	0x3
 14871 1ccc 7C       		.byte	0x7c
 14872 1ccd 01       		.sleb128 1
 14873 1cce 9F       		.byte	0x9f
 14874 1ccf 62000000 		.4byte	.LVL170
 14875 1cd3 70000000 		.4byte	.LVL173
 14876 1cd7 0100     		.2byte	0x1
 14877 1cd9 52       		.byte	0x52
 14878 1cda 86000000 		.4byte	.LVL175
 14879 1cde 8C000000 		.4byte	.LVL176
 14880 1ce2 0100     		.2byte	0x1
 14881 1ce4 52       		.byte	0x52
ARM GAS  /var/folders/d2/nstgp4h54kz7g1l847x_b8wc0000gn/T//cccORz8f.s 			page 265


 14882 1ce5 00000000 		.4byte	0
 14883 1ce9 00000000 		.4byte	0
 14884              	.LLST116:
 14885 1ced 38000000 		.4byte	.LVL164
 14886 1cf1 56000000 		.4byte	.LVL166
 14887 1cf5 0100     		.2byte	0x1
 14888 1cf7 56       		.byte	0x56
 14889 1cf8 56000000 		.4byte	.LVL166
 14890 1cfc 62000000 		.4byte	.LVL170
 14891 1d00 0800     		.2byte	0x8
 14892 1d02 74       		.byte	0x74
 14893 1d03 00       		.sleb128 0
 14894 1d04 31       		.byte	0x31
 14895 1d05 24       		.byte	0x24
 14896 1d06 70       		.byte	0x70
 14897 1d07 14       		.sleb128 20
 14898 1d08 06       		.byte	0x6
 14899 1d09 22       		.byte	0x22
 14900 1d0a 00000000 		.4byte	0
 14901 1d0e 00000000 		.4byte	0
 14902              	.LLST117:
 14903 1d12 38000000 		.4byte	.LVL164
 14904 1d16 62000000 		.4byte	.LVL170
 14905 1d1a 0200     		.2byte	0x2
 14906 1d1c 30       		.byte	0x30
 14907 1d1d 9F       		.byte	0x9f
 14908 1d1e 00000000 		.4byte	0
 14909 1d22 00000000 		.4byte	0
 14910              	.LLST126:
 14911 1d26 4E000000 		.4byte	.LVL165
 14912 1d2a 62000000 		.4byte	.LVL170
 14913 1d2e 0100     		.2byte	0x1
 14914 1d30 51       		.byte	0x51
 14915 1d31 70000000 		.4byte	.LVL173
 14916 1d35 84000000 		.4byte	.LVL174
 14917 1d39 0100     		.2byte	0x1
 14918 1d3b 51       		.byte	0x51
 14919 1d3c 9C000000 		.4byte	.LVL177
 14920 1d40 9E000000 		.4byte	.LVL178
 14921 1d44 0100     		.2byte	0x1
 14922 1d46 51       		.byte	0x51
 14923 1d47 00000000 		.4byte	0
 14924 1d4b 00000000 		.4byte	0
 14925              	.LLST127:
 14926 1d4f 4E000000 		.4byte	.LVL165
 14927 1d53 68000000 		.4byte	.LVL171
 14928 1d57 0100     		.2byte	0x1
 14929 1d59 58       		.byte	0x58
 14930 1d5a 70000000 		.4byte	.LVL173
 14931 1d5e 8C000000 		.4byte	.LVL176
 14932 1d62 0100     		.2byte	0x1
 14933 1d64 58       		.byte	0x58
 14934 1d65 9C000000 		.4byte	.LVL177
 14935 1d69 B8000000 		.4byte	.LVL180
 14936 1d6d 0100     		.2byte	0x1
 14937 1d6f 58       		.byte	0x58
 14938 1d70 00000000 		.4byte	0
ARM GAS  /var/folders/d2/nstgp4h54kz7g1l847x_b8wc0000gn/T//cccORz8f.s 			page 266


 14939 1d74 00000000 		.4byte	0
 14940              	.LLST118:
 14941 1d78 0A000000 		.4byte	.LVL160
 14942 1d7c BB000000 		.4byte	.LVL181-1
 14943 1d80 0100     		.2byte	0x1
 14944 1d82 50       		.byte	0x50
 14945 1d83 BB000000 		.4byte	.LVL181-1
 14946 1d87 BC000000 		.4byte	.LVL181
 14947 1d8b 0400     		.2byte	0x4
 14948 1d8d F3       		.byte	0xf3
 14949 1d8e 01       		.uleb128 0x1
 14950 1d8f 50       		.byte	0x50
 14951 1d90 9F       		.byte	0x9f
 14952 1d91 BC000000 		.4byte	.LVL181
 14953 1d95 BF000000 		.4byte	.LVL182-1
 14954 1d99 0100     		.2byte	0x1
 14955 1d9b 50       		.byte	0x50
 14956 1d9c BF000000 		.4byte	.LVL182-1
 14957 1da0 C4000000 		.4byte	.LFE12
 14958 1da4 0400     		.2byte	0x4
 14959 1da6 F3       		.byte	0xf3
 14960 1da7 01       		.uleb128 0x1
 14961 1da8 50       		.byte	0x50
 14962 1da9 9F       		.byte	0x9f
 14963 1daa 00000000 		.4byte	0
 14964 1dae 00000000 		.4byte	0
 14965              	.LLST119:
 14966 1db2 0A000000 		.4byte	.LVL160
 14967 1db6 BB000000 		.4byte	.LVL181-1
 14968 1dba 0100     		.2byte	0x1
 14969 1dbc 50       		.byte	0x50
 14970 1dbd BB000000 		.4byte	.LVL181-1
 14971 1dc1 BC000000 		.4byte	.LVL181
 14972 1dc5 0400     		.2byte	0x4
 14973 1dc7 F3       		.byte	0xf3
 14974 1dc8 01       		.uleb128 0x1
 14975 1dc9 50       		.byte	0x50
 14976 1dca 9F       		.byte	0x9f
 14977 1dcb BC000000 		.4byte	.LVL181
 14978 1dcf BF000000 		.4byte	.LVL182-1
 14979 1dd3 0100     		.2byte	0x1
 14980 1dd5 50       		.byte	0x50
 14981 1dd6 BF000000 		.4byte	.LVL182-1
 14982 1dda C4000000 		.4byte	.LFE12
 14983 1dde 0400     		.2byte	0x4
 14984 1de0 F3       		.byte	0xf3
 14985 1de1 01       		.uleb128 0x1
 14986 1de2 50       		.byte	0x50
 14987 1de3 9F       		.byte	0x9f
 14988 1de4 00000000 		.4byte	0
 14989 1de8 00000000 		.4byte	0
 14990              	.LLST120:
 14991 1dec 20000000 		.4byte	.LVL161
 14992 1df0 BB000000 		.4byte	.LVL181-1
 14993 1df4 0100     		.2byte	0x1
 14994 1df6 50       		.byte	0x50
 14995 1df7 BB000000 		.4byte	.LVL181-1
ARM GAS  /var/folders/d2/nstgp4h54kz7g1l847x_b8wc0000gn/T//cccORz8f.s 			page 267


 14996 1dfb BC000000 		.4byte	.LVL181
 14997 1dff 0400     		.2byte	0x4
 14998 1e01 F3       		.byte	0xf3
 14999 1e02 01       		.uleb128 0x1
 15000 1e03 50       		.byte	0x50
 15001 1e04 9F       		.byte	0x9f
 15002 1e05 BC000000 		.4byte	.LVL181
 15003 1e09 BF000000 		.4byte	.LVL182-1
 15004 1e0d 0100     		.2byte	0x1
 15005 1e0f 50       		.byte	0x50
 15006 1e10 BF000000 		.4byte	.LVL182-1
 15007 1e14 C4000000 		.4byte	.LFE12
 15008 1e18 0400     		.2byte	0x4
 15009 1e1a F3       		.byte	0xf3
 15010 1e1b 01       		.uleb128 0x1
 15011 1e1c 50       		.byte	0x50
 15012 1e1d 9F       		.byte	0x9f
 15013 1e1e 00000000 		.4byte	0
 15014 1e22 00000000 		.4byte	0
 15015              	.LLST121:
 15016 1e26 20000000 		.4byte	.LVL161
 15017 1e2a BB000000 		.4byte	.LVL181-1
 15018 1e2e 0100     		.2byte	0x1
 15019 1e30 50       		.byte	0x50
 15020 1e31 BB000000 		.4byte	.LVL181-1
 15021 1e35 BC000000 		.4byte	.LVL181
 15022 1e39 0400     		.2byte	0x4
 15023 1e3b F3       		.byte	0xf3
 15024 1e3c 01       		.uleb128 0x1
 15025 1e3d 50       		.byte	0x50
 15026 1e3e 9F       		.byte	0x9f
 15027 1e3f BC000000 		.4byte	.LVL181
 15028 1e43 BF000000 		.4byte	.LVL182-1
 15029 1e47 0100     		.2byte	0x1
 15030 1e49 50       		.byte	0x50
 15031 1e4a BF000000 		.4byte	.LVL182-1
 15032 1e4e C4000000 		.4byte	.LFE12
 15033 1e52 0400     		.2byte	0x4
 15034 1e54 F3       		.byte	0xf3
 15035 1e55 01       		.uleb128 0x1
 15036 1e56 50       		.byte	0x50
 15037 1e57 9F       		.byte	0x9f
 15038 1e58 00000000 		.4byte	0
 15039 1e5c 00000000 		.4byte	0
 15040              	.LLST122:
 15041 1e60 28000000 		.4byte	.LVL162
 15042 1e64 BB000000 		.4byte	.LVL181-1
 15043 1e68 0100     		.2byte	0x1
 15044 1e6a 50       		.byte	0x50
 15045 1e6b BB000000 		.4byte	.LVL181-1
 15046 1e6f BC000000 		.4byte	.LVL181
 15047 1e73 0400     		.2byte	0x4
 15048 1e75 F3       		.byte	0xf3
 15049 1e76 01       		.uleb128 0x1
 15050 1e77 50       		.byte	0x50
 15051 1e78 9F       		.byte	0x9f
 15052 1e79 BC000000 		.4byte	.LVL181
ARM GAS  /var/folders/d2/nstgp4h54kz7g1l847x_b8wc0000gn/T//cccORz8f.s 			page 268


 15053 1e7d BF000000 		.4byte	.LVL182-1
 15054 1e81 0100     		.2byte	0x1
 15055 1e83 50       		.byte	0x50
 15056 1e84 BF000000 		.4byte	.LVL182-1
 15057 1e88 C4000000 		.4byte	.LFE12
 15058 1e8c 0400     		.2byte	0x4
 15059 1e8e F3       		.byte	0xf3
 15060 1e8f 01       		.uleb128 0x1
 15061 1e90 50       		.byte	0x50
 15062 1e91 9F       		.byte	0x9f
 15063 1e92 00000000 		.4byte	0
 15064 1e96 00000000 		.4byte	0
 15065              	.LLST123:
 15066 1e9a 28000000 		.4byte	.LVL162
 15067 1e9e BB000000 		.4byte	.LVL181-1
 15068 1ea2 0100     		.2byte	0x1
 15069 1ea4 50       		.byte	0x50
 15070 1ea5 BB000000 		.4byte	.LVL181-1
 15071 1ea9 BC000000 		.4byte	.LVL181
 15072 1ead 0400     		.2byte	0x4
 15073 1eaf F3       		.byte	0xf3
 15074 1eb0 01       		.uleb128 0x1
 15075 1eb1 50       		.byte	0x50
 15076 1eb2 9F       		.byte	0x9f
 15077 1eb3 BC000000 		.4byte	.LVL181
 15078 1eb7 BF000000 		.4byte	.LVL182-1
 15079 1ebb 0100     		.2byte	0x1
 15080 1ebd 50       		.byte	0x50
 15081 1ebe BF000000 		.4byte	.LVL182-1
 15082 1ec2 C4000000 		.4byte	.LFE12
 15083 1ec6 0400     		.2byte	0x4
 15084 1ec8 F3       		.byte	0xf3
 15085 1ec9 01       		.uleb128 0x1
 15086 1eca 50       		.byte	0x50
 15087 1ecb 9F       		.byte	0x9f
 15088 1ecc 00000000 		.4byte	0
 15089 1ed0 00000000 		.4byte	0
 15090              	.LLST124:
 15091 1ed4 30000000 		.4byte	.LVL163
 15092 1ed8 BB000000 		.4byte	.LVL181-1
 15093 1edc 0100     		.2byte	0x1
 15094 1ede 50       		.byte	0x50
 15095 1edf BB000000 		.4byte	.LVL181-1
 15096 1ee3 BC000000 		.4byte	.LVL181
 15097 1ee7 0400     		.2byte	0x4
 15098 1ee9 F3       		.byte	0xf3
 15099 1eea 01       		.uleb128 0x1
 15100 1eeb 50       		.byte	0x50
 15101 1eec 9F       		.byte	0x9f
 15102 1eed BC000000 		.4byte	.LVL181
 15103 1ef1 BF000000 		.4byte	.LVL182-1
 15104 1ef5 0100     		.2byte	0x1
 15105 1ef7 50       		.byte	0x50
 15106 1ef8 BF000000 		.4byte	.LVL182-1
 15107 1efc C4000000 		.4byte	.LFE12
 15108 1f00 0400     		.2byte	0x4
 15109 1f02 F3       		.byte	0xf3
ARM GAS  /var/folders/d2/nstgp4h54kz7g1l847x_b8wc0000gn/T//cccORz8f.s 			page 269


 15110 1f03 01       		.uleb128 0x1
 15111 1f04 50       		.byte	0x50
 15112 1f05 9F       		.byte	0x9f
 15113 1f06 00000000 		.4byte	0
 15114 1f0a 00000000 		.4byte	0
 15115              	.LLST125:
 15116 1f0e 30000000 		.4byte	.LVL163
 15117 1f12 BB000000 		.4byte	.LVL181-1
 15118 1f16 0100     		.2byte	0x1
 15119 1f18 50       		.byte	0x50
 15120 1f19 BB000000 		.4byte	.LVL181-1
 15121 1f1d BC000000 		.4byte	.LVL181
 15122 1f21 0400     		.2byte	0x4
 15123 1f23 F3       		.byte	0xf3
 15124 1f24 01       		.uleb128 0x1
 15125 1f25 50       		.byte	0x50
 15126 1f26 9F       		.byte	0x9f
 15127 1f27 BC000000 		.4byte	.LVL181
 15128 1f2b BF000000 		.4byte	.LVL182-1
 15129 1f2f 0100     		.2byte	0x1
 15130 1f31 50       		.byte	0x50
 15131 1f32 BF000000 		.4byte	.LVL182-1
 15132 1f36 C4000000 		.4byte	.LFE12
 15133 1f3a 0400     		.2byte	0x4
 15134 1f3c F3       		.byte	0xf3
 15135 1f3d 01       		.uleb128 0x1
 15136 1f3e 50       		.byte	0x50
 15137 1f3f 9F       		.byte	0x9f
 15138 1f40 00000000 		.4byte	0
 15139 1f44 00000000 		.4byte	0
 15140              	.LLST98:
 15141 1f48 00000000 		.4byte	.LVL147
 15142 1f4c 79000000 		.4byte	.LVL158-1
 15143 1f50 0100     		.2byte	0x1
 15144 1f52 50       		.byte	0x50
 15145 1f53 79000000 		.4byte	.LVL158-1
 15146 1f57 80000000 		.4byte	.LFE11
 15147 1f5b 0400     		.2byte	0x4
 15148 1f5d F3       		.byte	0xf3
 15149 1f5e 01       		.uleb128 0x1
 15150 1f5f 50       		.byte	0x50
 15151 1f60 9F       		.byte	0x9f
 15152 1f61 00000000 		.4byte	0
 15153 1f65 00000000 		.4byte	0
 15154              	.LLST99:
 15155 1f69 1E000000 		.4byte	.LVL149
 15156 1f6d 44000000 		.4byte	.LVL154
 15157 1f71 0100     		.2byte	0x1
 15158 1f73 57       		.byte	0x57
 15159 1f74 00000000 		.4byte	0
 15160 1f78 00000000 		.4byte	0
 15161              	.LLST100:
 15162 1f7c 26000000 		.4byte	.LVL150
 15163 1f80 66000000 		.4byte	.LVL157
 15164 1f84 0100     		.2byte	0x1
 15165 1f86 53       		.byte	0x53
 15166 1f87 00000000 		.4byte	0
ARM GAS  /var/folders/d2/nstgp4h54kz7g1l847x_b8wc0000gn/T//cccORz8f.s 			page 270


 15167 1f8b 00000000 		.4byte	0
 15168              	.LLST101:
 15169 1f8f 2E000000 		.4byte	.LVL151
 15170 1f93 46000000 		.4byte	.LVL155
 15171 1f97 0100     		.2byte	0x1
 15172 1f99 56       		.byte	0x56
 15173 1f9a 00000000 		.4byte	0
 15174 1f9e 00000000 		.4byte	0
 15175              	.LLST102:
 15176 1fa2 36000000 		.4byte	.LVL152
 15177 1fa6 40000000 		.4byte	.LVL153
 15178 1faa 0100     		.2byte	0x1
 15179 1fac 55       		.byte	0x55
 15180 1fad 40000000 		.4byte	.LVL153
 15181 1fb1 46000000 		.4byte	.LVL155
 15182 1fb5 0700     		.2byte	0x7
 15183 1fb7 74       		.byte	0x74
 15184 1fb8 00       		.sleb128 0
 15185 1fb9 31       		.byte	0x31
 15186 1fba 24       		.byte	0x24
 15187 1fbb 71       		.byte	0x71
 15188 1fbc 00       		.sleb128 0
 15189 1fbd 22       		.byte	0x22
 15190 1fbe 00000000 		.4byte	0
 15191 1fc2 00000000 		.4byte	0
 15192              	.LLST103:
 15193 1fc6 36000000 		.4byte	.LVL152
 15194 1fca 46000000 		.4byte	.LVL155
 15195 1fce 0200     		.2byte	0x2
 15196 1fd0 30       		.byte	0x30
 15197 1fd1 9F       		.byte	0x9f
 15198 1fd2 00000000 		.4byte	0
 15199 1fd6 00000000 		.4byte	0
 15200              	.LLST104:
 15201 1fda 08000000 		.4byte	.LVL148
 15202 1fde 79000000 		.4byte	.LVL158-1
 15203 1fe2 0100     		.2byte	0x1
 15204 1fe4 50       		.byte	0x50
 15205 1fe5 79000000 		.4byte	.LVL158-1
 15206 1fe9 80000000 		.4byte	.LFE11
 15207 1fed 0400     		.2byte	0x4
 15208 1fef F3       		.byte	0xf3
 15209 1ff0 01       		.uleb128 0x1
 15210 1ff1 50       		.byte	0x50
 15211 1ff2 9F       		.byte	0x9f
 15212 1ff3 00000000 		.4byte	0
 15213 1ff7 00000000 		.4byte	0
 15214              	.LLST105:
 15215 1ffb 08000000 		.4byte	.LVL148
 15216 1fff 79000000 		.4byte	.LVL158-1
 15217 2003 0100     		.2byte	0x1
 15218 2005 50       		.byte	0x50
 15219 2006 79000000 		.4byte	.LVL158-1
 15220 200a 80000000 		.4byte	.LFE11
 15221 200e 0400     		.2byte	0x4
 15222 2010 F3       		.byte	0xf3
 15223 2011 01       		.uleb128 0x1
ARM GAS  /var/folders/d2/nstgp4h54kz7g1l847x_b8wc0000gn/T//cccORz8f.s 			page 271


 15224 2012 50       		.byte	0x50
 15225 2013 9F       		.byte	0x9f
 15226 2014 00000000 		.4byte	0
 15227 2018 00000000 		.4byte	0
 15228              	.LLST106:
 15229 201c 1E000000 		.4byte	.LVL149
 15230 2020 79000000 		.4byte	.LVL158-1
 15231 2024 0100     		.2byte	0x1
 15232 2026 50       		.byte	0x50
 15233 2027 79000000 		.4byte	.LVL158-1
 15234 202b 80000000 		.4byte	.LFE11
 15235 202f 0400     		.2byte	0x4
 15236 2031 F3       		.byte	0xf3
 15237 2032 01       		.uleb128 0x1
 15238 2033 50       		.byte	0x50
 15239 2034 9F       		.byte	0x9f
 15240 2035 00000000 		.4byte	0
 15241 2039 00000000 		.4byte	0
 15242              	.LLST107:
 15243 203d 1E000000 		.4byte	.LVL149
 15244 2041 79000000 		.4byte	.LVL158-1
 15245 2045 0100     		.2byte	0x1
 15246 2047 50       		.byte	0x50
 15247 2048 79000000 		.4byte	.LVL158-1
 15248 204c 80000000 		.4byte	.LFE11
 15249 2050 0400     		.2byte	0x4
 15250 2052 F3       		.byte	0xf3
 15251 2053 01       		.uleb128 0x1
 15252 2054 50       		.byte	0x50
 15253 2055 9F       		.byte	0x9f
 15254 2056 00000000 		.4byte	0
 15255 205a 00000000 		.4byte	0
 15256              	.LLST108:
 15257 205e 26000000 		.4byte	.LVL150
 15258 2062 79000000 		.4byte	.LVL158-1
 15259 2066 0100     		.2byte	0x1
 15260 2068 50       		.byte	0x50
 15261 2069 79000000 		.4byte	.LVL158-1
 15262 206d 80000000 		.4byte	.LFE11
 15263 2071 0400     		.2byte	0x4
 15264 2073 F3       		.byte	0xf3
 15265 2074 01       		.uleb128 0x1
 15266 2075 50       		.byte	0x50
 15267 2076 9F       		.byte	0x9f
 15268 2077 00000000 		.4byte	0
 15269 207b 00000000 		.4byte	0
 15270              	.LLST109:
 15271 207f 26000000 		.4byte	.LVL150
 15272 2083 79000000 		.4byte	.LVL158-1
 15273 2087 0100     		.2byte	0x1
 15274 2089 50       		.byte	0x50
 15275 208a 79000000 		.4byte	.LVL158-1
 15276 208e 80000000 		.4byte	.LFE11
 15277 2092 0400     		.2byte	0x4
 15278 2094 F3       		.byte	0xf3
 15279 2095 01       		.uleb128 0x1
 15280 2096 50       		.byte	0x50
ARM GAS  /var/folders/d2/nstgp4h54kz7g1l847x_b8wc0000gn/T//cccORz8f.s 			page 272


 15281 2097 9F       		.byte	0x9f
 15282 2098 00000000 		.4byte	0
 15283 209c 00000000 		.4byte	0
 15284              	.LLST110:
 15285 20a0 2E000000 		.4byte	.LVL151
 15286 20a4 79000000 		.4byte	.LVL158-1
 15287 20a8 0100     		.2byte	0x1
 15288 20aa 50       		.byte	0x50
 15289 20ab 79000000 		.4byte	.LVL158-1
 15290 20af 80000000 		.4byte	.LFE11
 15291 20b3 0400     		.2byte	0x4
 15292 20b5 F3       		.byte	0xf3
 15293 20b6 01       		.uleb128 0x1
 15294 20b7 50       		.byte	0x50
 15295 20b8 9F       		.byte	0x9f
 15296 20b9 00000000 		.4byte	0
 15297 20bd 00000000 		.4byte	0
 15298              	.LLST111:
 15299 20c1 2E000000 		.4byte	.LVL151
 15300 20c5 79000000 		.4byte	.LVL158-1
 15301 20c9 0100     		.2byte	0x1
 15302 20cb 50       		.byte	0x50
 15303 20cc 79000000 		.4byte	.LVL158-1
 15304 20d0 80000000 		.4byte	.LFE11
 15305 20d4 0400     		.2byte	0x4
 15306 20d6 F3       		.byte	0xf3
 15307 20d7 01       		.uleb128 0x1
 15308 20d8 50       		.byte	0x50
 15309 20d9 9F       		.byte	0x9f
 15310 20da 00000000 		.4byte	0
 15311 20de 00000000 		.4byte	0
 15312              	.LLST84:
 15313 20e2 00000000 		.4byte	.LVL135
 15314 20e6 79000000 		.4byte	.LVL146-1
 15315 20ea 0100     		.2byte	0x1
 15316 20ec 50       		.byte	0x50
 15317 20ed 79000000 		.4byte	.LVL146-1
 15318 20f1 80000000 		.4byte	.LFE10
 15319 20f5 0400     		.2byte	0x4
 15320 20f7 F3       		.byte	0xf3
 15321 20f8 01       		.uleb128 0x1
 15322 20f9 50       		.byte	0x50
 15323 20fa 9F       		.byte	0x9f
 15324 20fb 00000000 		.4byte	0
 15325 20ff 00000000 		.4byte	0
 15326              	.LLST85:
 15327 2103 1E000000 		.4byte	.LVL137
 15328 2107 44000000 		.4byte	.LVL142
 15329 210b 0100     		.2byte	0x1
 15330 210d 57       		.byte	0x57
 15331 210e 00000000 		.4byte	0
 15332 2112 00000000 		.4byte	0
 15333              	.LLST86:
 15334 2116 26000000 		.4byte	.LVL138
 15335 211a 66000000 		.4byte	.LVL145
 15336 211e 0100     		.2byte	0x1
 15337 2120 53       		.byte	0x53
ARM GAS  /var/folders/d2/nstgp4h54kz7g1l847x_b8wc0000gn/T//cccORz8f.s 			page 273


 15338 2121 00000000 		.4byte	0
 15339 2125 00000000 		.4byte	0
 15340              	.LLST87:
 15341 2129 2E000000 		.4byte	.LVL139
 15342 212d 46000000 		.4byte	.LVL143
 15343 2131 0100     		.2byte	0x1
 15344 2133 56       		.byte	0x56
 15345 2134 00000000 		.4byte	0
 15346 2138 00000000 		.4byte	0
 15347              	.LLST88:
 15348 213c 36000000 		.4byte	.LVL140
 15349 2140 40000000 		.4byte	.LVL141
 15350 2144 0100     		.2byte	0x1
 15351 2146 55       		.byte	0x55
 15352 2147 40000000 		.4byte	.LVL141
 15353 214b 46000000 		.4byte	.LVL143
 15354 214f 0700     		.2byte	0x7
 15355 2151 74       		.byte	0x74
 15356 2152 00       		.sleb128 0
 15357 2153 31       		.byte	0x31
 15358 2154 24       		.byte	0x24
 15359 2155 71       		.byte	0x71
 15360 2156 00       		.sleb128 0
 15361 2157 22       		.byte	0x22
 15362 2158 00000000 		.4byte	0
 15363 215c 00000000 		.4byte	0
 15364              	.LLST89:
 15365 2160 36000000 		.4byte	.LVL140
 15366 2164 46000000 		.4byte	.LVL143
 15367 2168 0200     		.2byte	0x2
 15368 216a 30       		.byte	0x30
 15369 216b 9F       		.byte	0x9f
 15370 216c 00000000 		.4byte	0
 15371 2170 00000000 		.4byte	0
 15372              	.LLST90:
 15373 2174 08000000 		.4byte	.LVL136
 15374 2178 79000000 		.4byte	.LVL146-1
 15375 217c 0100     		.2byte	0x1
 15376 217e 50       		.byte	0x50
 15377 217f 79000000 		.4byte	.LVL146-1
 15378 2183 80000000 		.4byte	.LFE10
 15379 2187 0400     		.2byte	0x4
 15380 2189 F3       		.byte	0xf3
 15381 218a 01       		.uleb128 0x1
 15382 218b 50       		.byte	0x50
 15383 218c 9F       		.byte	0x9f
 15384 218d 00000000 		.4byte	0
 15385 2191 00000000 		.4byte	0
 15386              	.LLST91:
 15387 2195 08000000 		.4byte	.LVL136
 15388 2199 79000000 		.4byte	.LVL146-1
 15389 219d 0100     		.2byte	0x1
 15390 219f 50       		.byte	0x50
 15391 21a0 79000000 		.4byte	.LVL146-1
 15392 21a4 80000000 		.4byte	.LFE10
 15393 21a8 0400     		.2byte	0x4
 15394 21aa F3       		.byte	0xf3
ARM GAS  /var/folders/d2/nstgp4h54kz7g1l847x_b8wc0000gn/T//cccORz8f.s 			page 274


 15395 21ab 01       		.uleb128 0x1
 15396 21ac 50       		.byte	0x50
 15397 21ad 9F       		.byte	0x9f
 15398 21ae 00000000 		.4byte	0
 15399 21b2 00000000 		.4byte	0
 15400              	.LLST92:
 15401 21b6 1E000000 		.4byte	.LVL137
 15402 21ba 79000000 		.4byte	.LVL146-1
 15403 21be 0100     		.2byte	0x1
 15404 21c0 50       		.byte	0x50
 15405 21c1 79000000 		.4byte	.LVL146-1
 15406 21c5 80000000 		.4byte	.LFE10
 15407 21c9 0400     		.2byte	0x4
 15408 21cb F3       		.byte	0xf3
 15409 21cc 01       		.uleb128 0x1
 15410 21cd 50       		.byte	0x50
 15411 21ce 9F       		.byte	0x9f
 15412 21cf 00000000 		.4byte	0
 15413 21d3 00000000 		.4byte	0
 15414              	.LLST93:
 15415 21d7 1E000000 		.4byte	.LVL137
 15416 21db 79000000 		.4byte	.LVL146-1
 15417 21df 0100     		.2byte	0x1
 15418 21e1 50       		.byte	0x50
 15419 21e2 79000000 		.4byte	.LVL146-1
 15420 21e6 80000000 		.4byte	.LFE10
 15421 21ea 0400     		.2byte	0x4
 15422 21ec F3       		.byte	0xf3
 15423 21ed 01       		.uleb128 0x1
 15424 21ee 50       		.byte	0x50
 15425 21ef 9F       		.byte	0x9f
 15426 21f0 00000000 		.4byte	0
 15427 21f4 00000000 		.4byte	0
 15428              	.LLST94:
 15429 21f8 26000000 		.4byte	.LVL138
 15430 21fc 79000000 		.4byte	.LVL146-1
 15431 2200 0100     		.2byte	0x1
 15432 2202 50       		.byte	0x50
 15433 2203 79000000 		.4byte	.LVL146-1
 15434 2207 80000000 		.4byte	.LFE10
 15435 220b 0400     		.2byte	0x4
 15436 220d F3       		.byte	0xf3
 15437 220e 01       		.uleb128 0x1
 15438 220f 50       		.byte	0x50
 15439 2210 9F       		.byte	0x9f
 15440 2211 00000000 		.4byte	0
 15441 2215 00000000 		.4byte	0
 15442              	.LLST95:
 15443 2219 26000000 		.4byte	.LVL138
 15444 221d 79000000 		.4byte	.LVL146-1
 15445 2221 0100     		.2byte	0x1
 15446 2223 50       		.byte	0x50
 15447 2224 79000000 		.4byte	.LVL146-1
 15448 2228 80000000 		.4byte	.LFE10
 15449 222c 0400     		.2byte	0x4
 15450 222e F3       		.byte	0xf3
 15451 222f 01       		.uleb128 0x1
ARM GAS  /var/folders/d2/nstgp4h54kz7g1l847x_b8wc0000gn/T//cccORz8f.s 			page 275


 15452 2230 50       		.byte	0x50
 15453 2231 9F       		.byte	0x9f
 15454 2232 00000000 		.4byte	0
 15455 2236 00000000 		.4byte	0
 15456              	.LLST96:
 15457 223a 2E000000 		.4byte	.LVL139
 15458 223e 79000000 		.4byte	.LVL146-1
 15459 2242 0100     		.2byte	0x1
 15460 2244 50       		.byte	0x50
 15461 2245 79000000 		.4byte	.LVL146-1
 15462 2249 80000000 		.4byte	.LFE10
 15463 224d 0400     		.2byte	0x4
 15464 224f F3       		.byte	0xf3
 15465 2250 01       		.uleb128 0x1
 15466 2251 50       		.byte	0x50
 15467 2252 9F       		.byte	0x9f
 15468 2253 00000000 		.4byte	0
 15469 2257 00000000 		.4byte	0
 15470              	.LLST97:
 15471 225b 2E000000 		.4byte	.LVL139
 15472 225f 79000000 		.4byte	.LVL146-1
 15473 2263 0100     		.2byte	0x1
 15474 2265 50       		.byte	0x50
 15475 2266 79000000 		.4byte	.LVL146-1
 15476 226a 80000000 		.4byte	.LFE10
 15477 226e 0400     		.2byte	0x4
 15478 2270 F3       		.byte	0xf3
 15479 2271 01       		.uleb128 0x1
 15480 2272 50       		.byte	0x50
 15481 2273 9F       		.byte	0x9f
 15482 2274 00000000 		.4byte	0
 15483 2278 00000000 		.4byte	0
 15484              	.LLST70:
 15485 227c 00000000 		.4byte	.LVL123
 15486 2280 77000000 		.4byte	.LVL134-1
 15487 2284 0100     		.2byte	0x1
 15488 2286 50       		.byte	0x50
 15489 2287 77000000 		.4byte	.LVL134-1
 15490 228b 7C000000 		.4byte	.LFE9
 15491 228f 0400     		.2byte	0x4
 15492 2291 F3       		.byte	0xf3
 15493 2292 01       		.uleb128 0x1
 15494 2293 50       		.byte	0x50
 15495 2294 9F       		.byte	0x9f
 15496 2295 00000000 		.4byte	0
 15497 2299 00000000 		.4byte	0
 15498              	.LLST71:
 15499 229d 1E000000 		.4byte	.LVL125
 15500 22a1 44000000 		.4byte	.LVL130
 15501 22a5 0100     		.2byte	0x1
 15502 22a7 57       		.byte	0x57
 15503 22a8 00000000 		.4byte	0
 15504 22ac 00000000 		.4byte	0
 15505              	.LLST72:
 15506 22b0 26000000 		.4byte	.LVL126
 15507 22b4 64000000 		.4byte	.LVL133
 15508 22b8 0100     		.2byte	0x1
ARM GAS  /var/folders/d2/nstgp4h54kz7g1l847x_b8wc0000gn/T//cccORz8f.s 			page 276


 15509 22ba 53       		.byte	0x53
 15510 22bb 00000000 		.4byte	0
 15511 22bf 00000000 		.4byte	0
 15512              	.LLST73:
 15513 22c3 2E000000 		.4byte	.LVL127
 15514 22c7 46000000 		.4byte	.LVL131
 15515 22cb 0100     		.2byte	0x1
 15516 22cd 56       		.byte	0x56
 15517 22ce 00000000 		.4byte	0
 15518 22d2 00000000 		.4byte	0
 15519              	.LLST74:
 15520 22d6 36000000 		.4byte	.LVL128
 15521 22da 40000000 		.4byte	.LVL129
 15522 22de 0100     		.2byte	0x1
 15523 22e0 55       		.byte	0x55
 15524 22e1 40000000 		.4byte	.LVL129
 15525 22e5 46000000 		.4byte	.LVL131
 15526 22e9 0700     		.2byte	0x7
 15527 22eb 74       		.byte	0x74
 15528 22ec 00       		.sleb128 0
 15529 22ed 31       		.byte	0x31
 15530 22ee 24       		.byte	0x24
 15531 22ef 71       		.byte	0x71
 15532 22f0 00       		.sleb128 0
 15533 22f1 22       		.byte	0x22
 15534 22f2 00000000 		.4byte	0
 15535 22f6 00000000 		.4byte	0
 15536              	.LLST75:
 15537 22fa 36000000 		.4byte	.LVL128
 15538 22fe 46000000 		.4byte	.LVL131
 15539 2302 0200     		.2byte	0x2
 15540 2304 30       		.byte	0x30
 15541 2305 9F       		.byte	0x9f
 15542 2306 00000000 		.4byte	0
 15543 230a 00000000 		.4byte	0
 15544              	.LLST76:
 15545 230e 08000000 		.4byte	.LVL124
 15546 2312 77000000 		.4byte	.LVL134-1
 15547 2316 0100     		.2byte	0x1
 15548 2318 50       		.byte	0x50
 15549 2319 77000000 		.4byte	.LVL134-1
 15550 231d 7C000000 		.4byte	.LFE9
 15551 2321 0400     		.2byte	0x4
 15552 2323 F3       		.byte	0xf3
 15553 2324 01       		.uleb128 0x1
 15554 2325 50       		.byte	0x50
 15555 2326 9F       		.byte	0x9f
 15556 2327 00000000 		.4byte	0
 15557 232b 00000000 		.4byte	0
 15558              	.LLST77:
 15559 232f 08000000 		.4byte	.LVL124
 15560 2333 77000000 		.4byte	.LVL134-1
 15561 2337 0100     		.2byte	0x1
 15562 2339 50       		.byte	0x50
 15563 233a 77000000 		.4byte	.LVL134-1
 15564 233e 7C000000 		.4byte	.LFE9
 15565 2342 0400     		.2byte	0x4
ARM GAS  /var/folders/d2/nstgp4h54kz7g1l847x_b8wc0000gn/T//cccORz8f.s 			page 277


 15566 2344 F3       		.byte	0xf3
 15567 2345 01       		.uleb128 0x1
 15568 2346 50       		.byte	0x50
 15569 2347 9F       		.byte	0x9f
 15570 2348 00000000 		.4byte	0
 15571 234c 00000000 		.4byte	0
 15572              	.LLST78:
 15573 2350 1E000000 		.4byte	.LVL125
 15574 2354 77000000 		.4byte	.LVL134-1
 15575 2358 0100     		.2byte	0x1
 15576 235a 50       		.byte	0x50
 15577 235b 77000000 		.4byte	.LVL134-1
 15578 235f 7C000000 		.4byte	.LFE9
 15579 2363 0400     		.2byte	0x4
 15580 2365 F3       		.byte	0xf3
 15581 2366 01       		.uleb128 0x1
 15582 2367 50       		.byte	0x50
 15583 2368 9F       		.byte	0x9f
 15584 2369 00000000 		.4byte	0
 15585 236d 00000000 		.4byte	0
 15586              	.LLST79:
 15587 2371 1E000000 		.4byte	.LVL125
 15588 2375 77000000 		.4byte	.LVL134-1
 15589 2379 0100     		.2byte	0x1
 15590 237b 50       		.byte	0x50
 15591 237c 77000000 		.4byte	.LVL134-1
 15592 2380 7C000000 		.4byte	.LFE9
 15593 2384 0400     		.2byte	0x4
 15594 2386 F3       		.byte	0xf3
 15595 2387 01       		.uleb128 0x1
 15596 2388 50       		.byte	0x50
 15597 2389 9F       		.byte	0x9f
 15598 238a 00000000 		.4byte	0
 15599 238e 00000000 		.4byte	0
 15600              	.LLST80:
 15601 2392 26000000 		.4byte	.LVL126
 15602 2396 77000000 		.4byte	.LVL134-1
 15603 239a 0100     		.2byte	0x1
 15604 239c 50       		.byte	0x50
 15605 239d 77000000 		.4byte	.LVL134-1
 15606 23a1 7C000000 		.4byte	.LFE9
 15607 23a5 0400     		.2byte	0x4
 15608 23a7 F3       		.byte	0xf3
 15609 23a8 01       		.uleb128 0x1
 15610 23a9 50       		.byte	0x50
 15611 23aa 9F       		.byte	0x9f
 15612 23ab 00000000 		.4byte	0
 15613 23af 00000000 		.4byte	0
 15614              	.LLST81:
 15615 23b3 26000000 		.4byte	.LVL126
 15616 23b7 77000000 		.4byte	.LVL134-1
 15617 23bb 0100     		.2byte	0x1
 15618 23bd 50       		.byte	0x50
 15619 23be 77000000 		.4byte	.LVL134-1
 15620 23c2 7C000000 		.4byte	.LFE9
 15621 23c6 0400     		.2byte	0x4
 15622 23c8 F3       		.byte	0xf3
ARM GAS  /var/folders/d2/nstgp4h54kz7g1l847x_b8wc0000gn/T//cccORz8f.s 			page 278


 15623 23c9 01       		.uleb128 0x1
 15624 23ca 50       		.byte	0x50
 15625 23cb 9F       		.byte	0x9f
 15626 23cc 00000000 		.4byte	0
 15627 23d0 00000000 		.4byte	0
 15628              	.LLST82:
 15629 23d4 2E000000 		.4byte	.LVL127
 15630 23d8 77000000 		.4byte	.LVL134-1
 15631 23dc 0100     		.2byte	0x1
 15632 23de 50       		.byte	0x50
 15633 23df 77000000 		.4byte	.LVL134-1
 15634 23e3 7C000000 		.4byte	.LFE9
 15635 23e7 0400     		.2byte	0x4
 15636 23e9 F3       		.byte	0xf3
 15637 23ea 01       		.uleb128 0x1
 15638 23eb 50       		.byte	0x50
 15639 23ec 9F       		.byte	0x9f
 15640 23ed 00000000 		.4byte	0
 15641 23f1 00000000 		.4byte	0
 15642              	.LLST83:
 15643 23f5 2E000000 		.4byte	.LVL127
 15644 23f9 77000000 		.4byte	.LVL134-1
 15645 23fd 0100     		.2byte	0x1
 15646 23ff 50       		.byte	0x50
 15647 2400 77000000 		.4byte	.LVL134-1
 15648 2404 7C000000 		.4byte	.LFE9
 15649 2408 0400     		.2byte	0x4
 15650 240a F3       		.byte	0xf3
 15651 240b 01       		.uleb128 0x1
 15652 240c 50       		.byte	0x50
 15653 240d 9F       		.byte	0x9f
 15654 240e 00000000 		.4byte	0
 15655 2412 00000000 		.4byte	0
 15656              	.LLST55:
 15657 2416 00000000 		.4byte	.LVL108
 15658 241a 77000000 		.4byte	.LVL122-1
 15659 241e 0100     		.2byte	0x1
 15660 2420 50       		.byte	0x50
 15661 2421 77000000 		.4byte	.LVL122-1
 15662 2425 7C000000 		.4byte	.LFE8
 15663 2429 0400     		.2byte	0x4
 15664 242b F3       		.byte	0xf3
 15665 242c 01       		.uleb128 0x1
 15666 242d 50       		.byte	0x50
 15667 242e 9F       		.byte	0x9f
 15668 242f 00000000 		.4byte	0
 15669 2433 00000000 		.4byte	0
 15670              	.LLST56:
 15671 2437 1C000000 		.4byte	.LVL110
 15672 243b 4A000000 		.4byte	.LVL116
 15673 243f 0100     		.2byte	0x1
 15674 2441 5C       		.byte	0x5c
 15675 2442 00000000 		.4byte	0
 15676 2446 00000000 		.4byte	0
 15677              	.LLST57:
 15678 244a 24000000 		.4byte	.LVL111
 15679 244e 5A000000 		.4byte	.LVL119
ARM GAS  /var/folders/d2/nstgp4h54kz7g1l847x_b8wc0000gn/T//cccORz8f.s 			page 279


 15680 2452 0100     		.2byte	0x1
 15681 2454 53       		.byte	0x53
 15682 2455 5E000000 		.4byte	.LVL120
 15683 2459 68000000 		.4byte	.LVL121
 15684 245d 0100     		.2byte	0x1
 15685 245f 53       		.byte	0x53
 15686 2460 00000000 		.4byte	0
 15687 2464 00000000 		.4byte	0
 15688              	.LLST58:
 15689 2468 2C000000 		.4byte	.LVL112
 15690 246c 3E000000 		.4byte	.LVL114
 15691 2470 0100     		.2byte	0x1
 15692 2472 56       		.byte	0x56
 15693 2473 00000000 		.4byte	0
 15694 2477 00000000 		.4byte	0
 15695              	.LLST59:
 15696 247b 38000000 		.4byte	.LVL113
 15697 247f 44000000 		.4byte	.LVL115
 15698 2483 0100     		.2byte	0x1
 15699 2485 55       		.byte	0x55
 15700 2486 00000000 		.4byte	0
 15701 248a 00000000 		.4byte	0
 15702              	.LLST60:
 15703 248e 3E000000 		.4byte	.LVL114
 15704 2492 68000000 		.4byte	.LVL121
 15705 2496 0100     		.2byte	0x1
 15706 2498 56       		.byte	0x56
 15707 2499 00000000 		.4byte	0
 15708 249d 00000000 		.4byte	0
 15709              	.LLST61:
 15710 24a1 3E000000 		.4byte	.LVL114
 15711 24a5 4E000000 		.4byte	.LVL117
 15712 24a9 0200     		.2byte	0x2
 15713 24ab 30       		.byte	0x30
 15714 24ac 9F       		.byte	0x9f
 15715 24ad 00000000 		.4byte	0
 15716 24b1 00000000 		.4byte	0
 15717              	.LLST62:
 15718 24b5 06000000 		.4byte	.LVL109
 15719 24b9 77000000 		.4byte	.LVL122-1
 15720 24bd 0100     		.2byte	0x1
 15721 24bf 50       		.byte	0x50
 15722 24c0 77000000 		.4byte	.LVL122-1
 15723 24c4 7C000000 		.4byte	.LFE8
 15724 24c8 0400     		.2byte	0x4
 15725 24ca F3       		.byte	0xf3
 15726 24cb 01       		.uleb128 0x1
 15727 24cc 50       		.byte	0x50
 15728 24cd 9F       		.byte	0x9f
 15729 24ce 00000000 		.4byte	0
 15730 24d2 00000000 		.4byte	0
 15731              	.LLST63:
 15732 24d6 06000000 		.4byte	.LVL109
 15733 24da 77000000 		.4byte	.LVL122-1
 15734 24de 0100     		.2byte	0x1
 15735 24e0 50       		.byte	0x50
 15736 24e1 77000000 		.4byte	.LVL122-1
ARM GAS  /var/folders/d2/nstgp4h54kz7g1l847x_b8wc0000gn/T//cccORz8f.s 			page 280


 15737 24e5 7C000000 		.4byte	.LFE8
 15738 24e9 0400     		.2byte	0x4
 15739 24eb F3       		.byte	0xf3
 15740 24ec 01       		.uleb128 0x1
 15741 24ed 50       		.byte	0x50
 15742 24ee 9F       		.byte	0x9f
 15743 24ef 00000000 		.4byte	0
 15744 24f3 00000000 		.4byte	0
 15745              	.LLST64:
 15746 24f7 1C000000 		.4byte	.LVL110
 15747 24fb 77000000 		.4byte	.LVL122-1
 15748 24ff 0100     		.2byte	0x1
 15749 2501 50       		.byte	0x50
 15750 2502 77000000 		.4byte	.LVL122-1
 15751 2506 7C000000 		.4byte	.LFE8
 15752 250a 0400     		.2byte	0x4
 15753 250c F3       		.byte	0xf3
 15754 250d 01       		.uleb128 0x1
 15755 250e 50       		.byte	0x50
 15756 250f 9F       		.byte	0x9f
 15757 2510 00000000 		.4byte	0
 15758 2514 00000000 		.4byte	0
 15759              	.LLST65:
 15760 2518 1C000000 		.4byte	.LVL110
 15761 251c 77000000 		.4byte	.LVL122-1
 15762 2520 0100     		.2byte	0x1
 15763 2522 50       		.byte	0x50
 15764 2523 77000000 		.4byte	.LVL122-1
 15765 2527 7C000000 		.4byte	.LFE8
 15766 252b 0400     		.2byte	0x4
 15767 252d F3       		.byte	0xf3
 15768 252e 01       		.uleb128 0x1
 15769 252f 50       		.byte	0x50
 15770 2530 9F       		.byte	0x9f
 15771 2531 00000000 		.4byte	0
 15772 2535 00000000 		.4byte	0
 15773              	.LLST66:
 15774 2539 24000000 		.4byte	.LVL111
 15775 253d 77000000 		.4byte	.LVL122-1
 15776 2541 0100     		.2byte	0x1
 15777 2543 50       		.byte	0x50
 15778 2544 77000000 		.4byte	.LVL122-1
 15779 2548 7C000000 		.4byte	.LFE8
 15780 254c 0400     		.2byte	0x4
 15781 254e F3       		.byte	0xf3
 15782 254f 01       		.uleb128 0x1
 15783 2550 50       		.byte	0x50
 15784 2551 9F       		.byte	0x9f
 15785 2552 00000000 		.4byte	0
 15786 2556 00000000 		.4byte	0
 15787              	.LLST67:
 15788 255a 24000000 		.4byte	.LVL111
 15789 255e 77000000 		.4byte	.LVL122-1
 15790 2562 0100     		.2byte	0x1
 15791 2564 50       		.byte	0x50
 15792 2565 77000000 		.4byte	.LVL122-1
 15793 2569 7C000000 		.4byte	.LFE8
ARM GAS  /var/folders/d2/nstgp4h54kz7g1l847x_b8wc0000gn/T//cccORz8f.s 			page 281


 15794 256d 0400     		.2byte	0x4
 15795 256f F3       		.byte	0xf3
 15796 2570 01       		.uleb128 0x1
 15797 2571 50       		.byte	0x50
 15798 2572 9F       		.byte	0x9f
 15799 2573 00000000 		.4byte	0
 15800 2577 00000000 		.4byte	0
 15801              	.LLST68:
 15802 257b 2C000000 		.4byte	.LVL112
 15803 257f 77000000 		.4byte	.LVL122-1
 15804 2583 0100     		.2byte	0x1
 15805 2585 50       		.byte	0x50
 15806 2586 77000000 		.4byte	.LVL122-1
 15807 258a 7C000000 		.4byte	.LFE8
 15808 258e 0400     		.2byte	0x4
 15809 2590 F3       		.byte	0xf3
 15810 2591 01       		.uleb128 0x1
 15811 2592 50       		.byte	0x50
 15812 2593 9F       		.byte	0x9f
 15813 2594 00000000 		.4byte	0
 15814 2598 00000000 		.4byte	0
 15815              	.LLST69:
 15816 259c 2C000000 		.4byte	.LVL112
 15817 25a0 77000000 		.4byte	.LVL122-1
 15818 25a4 0100     		.2byte	0x1
 15819 25a6 50       		.byte	0x50
 15820 25a7 77000000 		.4byte	.LVL122-1
 15821 25ab 7C000000 		.4byte	.LFE8
 15822 25af 0400     		.2byte	0x4
 15823 25b1 F3       		.byte	0xf3
 15824 25b2 01       		.uleb128 0x1
 15825 25b3 50       		.byte	0x50
 15826 25b4 9F       		.byte	0x9f
 15827 25b5 00000000 		.4byte	0
 15828 25b9 00000000 		.4byte	0
 15829              	.LLST44:
 15830 25bd 00000000 		.4byte	.LVL98
 15831 25c1 55000000 		.4byte	.LVL107-1
 15832 25c5 0100     		.2byte	0x1
 15833 25c7 50       		.byte	0x50
 15834 25c8 55000000 		.4byte	.LVL107-1
 15835 25cc 5C000000 		.4byte	.LFE7
 15836 25d0 0400     		.2byte	0x4
 15837 25d2 F3       		.byte	0xf3
 15838 25d3 01       		.uleb128 0x1
 15839 25d4 50       		.byte	0x50
 15840 25d5 9F       		.byte	0x9f
 15841 25d6 00000000 		.4byte	0
 15842 25da 00000000 		.4byte	0
 15843              	.LLST45:
 15844 25de 1A000000 		.4byte	.LVL100
 15845 25e2 3A000000 		.4byte	.LVL105
 15846 25e6 0100     		.2byte	0x1
 15847 25e8 53       		.byte	0x53
 15848 25e9 3A000000 		.4byte	.LVL105
 15849 25ed 46000000 		.4byte	.LVL106
 15850 25f1 0100     		.2byte	0x1
ARM GAS  /var/folders/d2/nstgp4h54kz7g1l847x_b8wc0000gn/T//cccORz8f.s 			page 282


 15851 25f3 51       		.byte	0x51
 15852 25f4 00000000 		.4byte	0
 15853 25f8 00000000 		.4byte	0
 15854              	.LLST46:
 15855 25fc 22000000 		.4byte	.LVL101
 15856 2600 36000000 		.4byte	.LVL104
 15857 2604 0100     		.2byte	0x1
 15858 2606 56       		.byte	0x56
 15859 2607 00000000 		.4byte	0
 15860 260b 00000000 		.4byte	0
 15861              	.LLST47:
 15862 260f 2A000000 		.4byte	.LVL102
 15863 2613 32000000 		.4byte	.LVL103
 15864 2617 0100     		.2byte	0x1
 15865 2619 55       		.byte	0x55
 15866 261a 32000000 		.4byte	.LVL103
 15867 261e 36000000 		.4byte	.LVL104
 15868 2622 0800     		.2byte	0x8
 15869 2624 71       		.byte	0x71
 15870 2625 00       		.sleb128 0
 15871 2626 31       		.byte	0x31
 15872 2627 24       		.byte	0x24
 15873 2628 70       		.byte	0x70
 15874 2629 14       		.sleb128 20
 15875 262a 06       		.byte	0x6
 15876 262b 22       		.byte	0x22
 15877 262c 00000000 		.4byte	0
 15878 2630 00000000 		.4byte	0
 15879              	.LLST48:
 15880 2634 2A000000 		.4byte	.LVL102
 15881 2638 36000000 		.4byte	.LVL104
 15882 263c 0200     		.2byte	0x2
 15883 263e 30       		.byte	0x30
 15884 263f 9F       		.byte	0x9f
 15885 2640 00000000 		.4byte	0
 15886 2644 00000000 		.4byte	0
 15887              	.LLST49:
 15888 2648 0C000000 		.4byte	.LVL99
 15889 264c 55000000 		.4byte	.LVL107-1
 15890 2650 0100     		.2byte	0x1
 15891 2652 50       		.byte	0x50
 15892 2653 55000000 		.4byte	.LVL107-1
 15893 2657 5C000000 		.4byte	.LFE7
 15894 265b 0400     		.2byte	0x4
 15895 265d F3       		.byte	0xf3
 15896 265e 01       		.uleb128 0x1
 15897 265f 50       		.byte	0x50
 15898 2660 9F       		.byte	0x9f
 15899 2661 00000000 		.4byte	0
 15900 2665 00000000 		.4byte	0
 15901              	.LLST50:
 15902 2669 0C000000 		.4byte	.LVL99
 15903 266d 55000000 		.4byte	.LVL107-1
 15904 2671 0100     		.2byte	0x1
 15905 2673 50       		.byte	0x50
 15906 2674 55000000 		.4byte	.LVL107-1
 15907 2678 5C000000 		.4byte	.LFE7
ARM GAS  /var/folders/d2/nstgp4h54kz7g1l847x_b8wc0000gn/T//cccORz8f.s 			page 283


 15908 267c 0400     		.2byte	0x4
 15909 267e F3       		.byte	0xf3
 15910 267f 01       		.uleb128 0x1
 15911 2680 50       		.byte	0x50
 15912 2681 9F       		.byte	0x9f
 15913 2682 00000000 		.4byte	0
 15914 2686 00000000 		.4byte	0
 15915              	.LLST51:
 15916 268a 1A000000 		.4byte	.LVL100
 15917 268e 55000000 		.4byte	.LVL107-1
 15918 2692 0100     		.2byte	0x1
 15919 2694 50       		.byte	0x50
 15920 2695 55000000 		.4byte	.LVL107-1
 15921 2699 5C000000 		.4byte	.LFE7
 15922 269d 0400     		.2byte	0x4
 15923 269f F3       		.byte	0xf3
 15924 26a0 01       		.uleb128 0x1
 15925 26a1 50       		.byte	0x50
 15926 26a2 9F       		.byte	0x9f
 15927 26a3 00000000 		.4byte	0
 15928 26a7 00000000 		.4byte	0
 15929              	.LLST52:
 15930 26ab 1A000000 		.4byte	.LVL100
 15931 26af 55000000 		.4byte	.LVL107-1
 15932 26b3 0100     		.2byte	0x1
 15933 26b5 50       		.byte	0x50
 15934 26b6 55000000 		.4byte	.LVL107-1
 15935 26ba 5C000000 		.4byte	.LFE7
 15936 26be 0400     		.2byte	0x4
 15937 26c0 F3       		.byte	0xf3
 15938 26c1 01       		.uleb128 0x1
 15939 26c2 50       		.byte	0x50
 15940 26c3 9F       		.byte	0x9f
 15941 26c4 00000000 		.4byte	0
 15942 26c8 00000000 		.4byte	0
 15943              	.LLST53:
 15944 26cc 22000000 		.4byte	.LVL101
 15945 26d0 55000000 		.4byte	.LVL107-1
 15946 26d4 0100     		.2byte	0x1
 15947 26d6 50       		.byte	0x50
 15948 26d7 55000000 		.4byte	.LVL107-1
 15949 26db 5C000000 		.4byte	.LFE7
 15950 26df 0400     		.2byte	0x4
 15951 26e1 F3       		.byte	0xf3
 15952 26e2 01       		.uleb128 0x1
 15953 26e3 50       		.byte	0x50
 15954 26e4 9F       		.byte	0x9f
 15955 26e5 00000000 		.4byte	0
 15956 26e9 00000000 		.4byte	0
 15957              	.LLST54:
 15958 26ed 22000000 		.4byte	.LVL101
 15959 26f1 55000000 		.4byte	.LVL107-1
 15960 26f5 0100     		.2byte	0x1
 15961 26f7 50       		.byte	0x50
 15962 26f8 55000000 		.4byte	.LVL107-1
 15963 26fc 5C000000 		.4byte	.LFE7
 15964 2700 0400     		.2byte	0x4
ARM GAS  /var/folders/d2/nstgp4h54kz7g1l847x_b8wc0000gn/T//cccORz8f.s 			page 284


 15965 2702 F3       		.byte	0xf3
 15966 2703 01       		.uleb128 0x1
 15967 2704 50       		.byte	0x50
 15968 2705 9F       		.byte	0x9f
 15969 2706 00000000 		.4byte	0
 15970 270a 00000000 		.4byte	0
 15971              	.LLST33:
 15972 270e 00000000 		.4byte	.LVL88
 15973 2712 5B000000 		.4byte	.LVL97-1
 15974 2716 0100     		.2byte	0x1
 15975 2718 50       		.byte	0x50
 15976 2719 5B000000 		.4byte	.LVL97-1
 15977 271d 60000000 		.4byte	.LFE6
 15978 2721 0400     		.2byte	0x4
 15979 2723 F3       		.byte	0xf3
 15980 2724 01       		.uleb128 0x1
 15981 2725 50       		.byte	0x50
 15982 2726 9F       		.byte	0x9f
 15983 2727 00000000 		.4byte	0
 15984 272b 00000000 		.4byte	0
 15985              	.LLST34:
 15986 272f 1A000000 		.4byte	.LVL90
 15987 2733 36000000 		.4byte	.LVL94
 15988 2737 0100     		.2byte	0x1
 15989 2739 56       		.byte	0x56
 15990 273a 00000000 		.4byte	0
 15991 273e 00000000 		.4byte	0
 15992              	.LLST35:
 15993 2742 22000000 		.4byte	.LVL91
 15994 2746 3E000000 		.4byte	.LVL95
 15995 274a 0100     		.2byte	0x1
 15996 274c 53       		.byte	0x53
 15997 274d 3E000000 		.4byte	.LVL95
 15998 2751 4C000000 		.4byte	.LVL96
 15999 2755 0100     		.2byte	0x1
 16000 2757 54       		.byte	0x54
 16001 2758 00000000 		.4byte	0
 16002 275c 00000000 		.4byte	0
 16003              	.LLST36:
 16004 2760 2A000000 		.4byte	.LVL92
 16005 2764 32000000 		.4byte	.LVL93
 16006 2768 0100     		.2byte	0x1
 16007 276a 55       		.byte	0x55
 16008 276b 32000000 		.4byte	.LVL93
 16009 276f 36000000 		.4byte	.LVL94
 16010 2773 0800     		.2byte	0x8
 16011 2775 71       		.byte	0x71
 16012 2776 00       		.sleb128 0
 16013 2777 31       		.byte	0x31
 16014 2778 24       		.byte	0x24
 16015 2779 70       		.byte	0x70
 16016 277a 14       		.sleb128 20
 16017 277b 06       		.byte	0x6
 16018 277c 22       		.byte	0x22
 16019 277d 00000000 		.4byte	0
 16020 2781 00000000 		.4byte	0
 16021              	.LLST37:
ARM GAS  /var/folders/d2/nstgp4h54kz7g1l847x_b8wc0000gn/T//cccORz8f.s 			page 285


 16022 2785 2A000000 		.4byte	.LVL92
 16023 2789 36000000 		.4byte	.LVL94
 16024 278d 0200     		.2byte	0x2
 16025 278f 30       		.byte	0x30
 16026 2790 9F       		.byte	0x9f
 16027 2791 00000000 		.4byte	0
 16028 2795 00000000 		.4byte	0
 16029              	.LLST38:
 16030 2799 0C000000 		.4byte	.LVL89
 16031 279d 5B000000 		.4byte	.LVL97-1
 16032 27a1 0100     		.2byte	0x1
 16033 27a3 50       		.byte	0x50
 16034 27a4 5B000000 		.4byte	.LVL97-1
 16035 27a8 60000000 		.4byte	.LFE6
 16036 27ac 0400     		.2byte	0x4
 16037 27ae F3       		.byte	0xf3
 16038 27af 01       		.uleb128 0x1
 16039 27b0 50       		.byte	0x50
 16040 27b1 9F       		.byte	0x9f
 16041 27b2 00000000 		.4byte	0
 16042 27b6 00000000 		.4byte	0
 16043              	.LLST39:
 16044 27ba 0C000000 		.4byte	.LVL89
 16045 27be 5B000000 		.4byte	.LVL97-1
 16046 27c2 0100     		.2byte	0x1
 16047 27c4 50       		.byte	0x50
 16048 27c5 5B000000 		.4byte	.LVL97-1
 16049 27c9 60000000 		.4byte	.LFE6
 16050 27cd 0400     		.2byte	0x4
 16051 27cf F3       		.byte	0xf3
 16052 27d0 01       		.uleb128 0x1
 16053 27d1 50       		.byte	0x50
 16054 27d2 9F       		.byte	0x9f
 16055 27d3 00000000 		.4byte	0
 16056 27d7 00000000 		.4byte	0
 16057              	.LLST40:
 16058 27db 1A000000 		.4byte	.LVL90
 16059 27df 5B000000 		.4byte	.LVL97-1
 16060 27e3 0100     		.2byte	0x1
 16061 27e5 50       		.byte	0x50
 16062 27e6 5B000000 		.4byte	.LVL97-1
 16063 27ea 60000000 		.4byte	.LFE6
 16064 27ee 0400     		.2byte	0x4
 16065 27f0 F3       		.byte	0xf3
 16066 27f1 01       		.uleb128 0x1
 16067 27f2 50       		.byte	0x50
 16068 27f3 9F       		.byte	0x9f
 16069 27f4 00000000 		.4byte	0
 16070 27f8 00000000 		.4byte	0
 16071              	.LLST41:
 16072 27fc 1A000000 		.4byte	.LVL90
 16073 2800 5B000000 		.4byte	.LVL97-1
 16074 2804 0100     		.2byte	0x1
 16075 2806 50       		.byte	0x50
 16076 2807 5B000000 		.4byte	.LVL97-1
 16077 280b 60000000 		.4byte	.LFE6
 16078 280f 0400     		.2byte	0x4
ARM GAS  /var/folders/d2/nstgp4h54kz7g1l847x_b8wc0000gn/T//cccORz8f.s 			page 286


 16079 2811 F3       		.byte	0xf3
 16080 2812 01       		.uleb128 0x1
 16081 2813 50       		.byte	0x50
 16082 2814 9F       		.byte	0x9f
 16083 2815 00000000 		.4byte	0
 16084 2819 00000000 		.4byte	0
 16085              	.LLST42:
 16086 281d 22000000 		.4byte	.LVL91
 16087 2821 5B000000 		.4byte	.LVL97-1
 16088 2825 0100     		.2byte	0x1
 16089 2827 50       		.byte	0x50
 16090 2828 5B000000 		.4byte	.LVL97-1
 16091 282c 60000000 		.4byte	.LFE6
 16092 2830 0400     		.2byte	0x4
 16093 2832 F3       		.byte	0xf3
 16094 2833 01       		.uleb128 0x1
 16095 2834 50       		.byte	0x50
 16096 2835 9F       		.byte	0x9f
 16097 2836 00000000 		.4byte	0
 16098 283a 00000000 		.4byte	0
 16099              	.LLST43:
 16100 283e 22000000 		.4byte	.LVL91
 16101 2842 5B000000 		.4byte	.LVL97-1
 16102 2846 0100     		.2byte	0x1
 16103 2848 50       		.byte	0x50
 16104 2849 5B000000 		.4byte	.LVL97-1
 16105 284d 60000000 		.4byte	.LFE6
 16106 2851 0400     		.2byte	0x4
 16107 2853 F3       		.byte	0xf3
 16108 2854 01       		.uleb128 0x1
 16109 2855 50       		.byte	0x50
 16110 2856 9F       		.byte	0x9f
 16111 2857 00000000 		.4byte	0
 16112 285b 00000000 		.4byte	0
 16113              	.LLST27:
 16114 285f 00000000 		.4byte	.LVL70
 16115 2863 85000000 		.4byte	.LVL87-1
 16116 2867 0100     		.2byte	0x1
 16117 2869 50       		.byte	0x50
 16118 286a 85000000 		.4byte	.LVL87-1
 16119 286e 90000000 		.4byte	.LFE5
 16120 2872 0400     		.2byte	0x4
 16121 2874 F3       		.byte	0xf3
 16122 2875 01       		.uleb128 0x1
 16123 2876 50       		.byte	0x50
 16124 2877 9F       		.byte	0x9f
 16125 2878 00000000 		.4byte	0
 16126 287c 00000000 		.4byte	0
 16127              	.LLST28:
 16128 2880 00000000 		.4byte	.LVL70
 16129 2884 85000000 		.4byte	.LVL87-1
 16130 2888 0100     		.2byte	0x1
 16131 288a 51       		.byte	0x51
 16132 288b 85000000 		.4byte	.LVL87-1
 16133 288f 90000000 		.4byte	.LFE5
 16134 2893 0400     		.2byte	0x4
 16135 2895 F3       		.byte	0xf3
ARM GAS  /var/folders/d2/nstgp4h54kz7g1l847x_b8wc0000gn/T//cccORz8f.s 			page 287


 16136 2896 01       		.uleb128 0x1
 16137 2897 51       		.byte	0x51
 16138 2898 9F       		.byte	0x9f
 16139 2899 00000000 		.4byte	0
 16140 289d 00000000 		.4byte	0
 16141              	.LLST29:
 16142 28a1 18000000 		.4byte	.LVL71
 16143 28a5 1C000000 		.4byte	.LVL72
 16144 28a9 0100     		.2byte	0x1
 16145 28ab 51       		.byte	0x51
 16146 28ac 1C000000 		.4byte	.LVL72
 16147 28b0 20000000 		.4byte	.LVL74
 16148 28b4 0100     		.2byte	0x1
 16149 28b6 57       		.byte	0x57
 16150 28b7 2C000000 		.4byte	.LVL75
 16151 28bb 90000000 		.4byte	.LFE5
 16152 28bf 0100     		.2byte	0x1
 16153 28c1 57       		.byte	0x57
 16154 28c2 00000000 		.4byte	0
 16155 28c6 00000000 		.4byte	0
 16156              	.LLST30:
 16157 28ca 18000000 		.4byte	.LVL71
 16158 28ce 1C000000 		.4byte	.LVL72
 16159 28d2 0200     		.2byte	0x2
 16160 28d4 30       		.byte	0x30
 16161 28d5 9F       		.byte	0x9f
 16162 28d6 1C000000 		.4byte	.LVL72
 16163 28da 1E000000 		.4byte	.LVL73
 16164 28de 0100     		.2byte	0x1
 16165 28e0 59       		.byte	0x59
 16166 28e1 2C000000 		.4byte	.LVL75
 16167 28e5 34000000 		.4byte	.LVL76
 16168 28e9 0200     		.2byte	0x2
 16169 28eb 30       		.byte	0x30
 16170 28ec 9F       		.byte	0x9f
 16171 28ed 4A000000 		.4byte	.LVL78
 16172 28f1 4E000000 		.4byte	.LVL79
 16173 28f5 0200     		.2byte	0x2
 16174 28f7 31       		.byte	0x31
 16175 28f8 9F       		.byte	0x9f
 16176 28f9 5A000000 		.4byte	.LVL82
 16177 28fd 64000000 		.4byte	.LVL84
 16178 2901 0100     		.2byte	0x1
 16179 2903 59       		.byte	0x59
 16180 2904 64000000 		.4byte	.LVL84
 16181 2908 72000000 		.4byte	.LVL85
 16182 290c 0200     		.2byte	0x2
 16183 290e 30       		.byte	0x30
 16184 290f 9F       		.byte	0x9f
 16185 2910 00000000 		.4byte	0
 16186 2914 00000000 		.4byte	0
 16187              	.LLST31:
 16188 2918 2C000000 		.4byte	.LVL75
 16189 291c 34000000 		.4byte	.LVL76
 16190 2920 0200     		.2byte	0x2
 16191 2922 30       		.byte	0x30
 16192 2923 9F       		.byte	0x9f
ARM GAS  /var/folders/d2/nstgp4h54kz7g1l847x_b8wc0000gn/T//cccORz8f.s 			page 288


 16193 2924 34000000 		.4byte	.LVL76
 16194 2928 50000000 		.4byte	.LVL80
 16195 292c 0100     		.2byte	0x1
 16196 292e 53       		.byte	0x53
 16197 292f 52000000 		.4byte	.LVL81
 16198 2933 5E000000 		.4byte	.LVL83
 16199 2937 0100     		.2byte	0x1
 16200 2939 53       		.byte	0x53
 16201 293a 64000000 		.4byte	.LVL84
 16202 293e 72000000 		.4byte	.LVL85
 16203 2942 0200     		.2byte	0x2
 16204 2944 30       		.byte	0x30
 16205 2945 9F       		.byte	0x9f
 16206 2946 00000000 		.4byte	0
 16207 294a 00000000 		.4byte	0
 16208              	.LLST32:
 16209 294e 42000000 		.4byte	.LVL77
 16210 2952 4E000000 		.4byte	.LVL79
 16211 2956 0100     		.2byte	0x1
 16212 2958 54       		.byte	0x54
 16213 2959 00000000 		.4byte	0
 16214 295d 00000000 		.4byte	0
 16215              	.LLST16:
 16216 2961 00000000 		.4byte	.LVL32
 16217 2965 0C000000 		.4byte	.LVL33
 16218 2969 0100     		.2byte	0x1
 16219 296b 50       		.byte	0x50
 16220 296c 0C000000 		.4byte	.LVL33
 16221 2970 88000000 		.4byte	.LFE2
 16222 2974 0400     		.2byte	0x4
 16223 2976 F3       		.byte	0xf3
 16224 2977 01       		.uleb128 0x1
 16225 2978 50       		.byte	0x50
 16226 2979 9F       		.byte	0x9f
 16227 297a 00000000 		.4byte	0
 16228 297e 00000000 		.4byte	0
 16229              	.LLST17:
 16230 2982 18000000 		.4byte	.LVL34
 16231 2986 22000000 		.4byte	.LVL35
 16232 298a 0500     		.2byte	0x5
 16233 298c 70       		.byte	0x70
 16234 298d 00       		.sleb128 0
 16235 298e 37       		.byte	0x37
 16236 298f 26       		.byte	0x26
 16237 2990 9F       		.byte	0x9f
 16238 2991 00000000 		.4byte	0
 16239 2995 00000000 		.4byte	0
 16240              	.LLST18:
 16241 2999 22000000 		.4byte	.LVL35
 16242 299d 32000000 		.4byte	.LVL36
 16243 29a1 0100     		.2byte	0x1
 16244 29a3 50       		.byte	0x50
 16245 29a4 00000000 		.4byte	0
 16246 29a8 00000000 		.4byte	0
 16247              	.LLST19:
 16248 29ac 18000000 		.4byte	.LVL34
 16249 29b0 3E000000 		.4byte	.LVL39
ARM GAS  /var/folders/d2/nstgp4h54kz7g1l847x_b8wc0000gn/T//cccORz8f.s 			page 289


 16250 29b4 0100     		.2byte	0x1
 16251 29b6 55       		.byte	0x55
 16252 29b7 00000000 		.4byte	0
 16253 29bb 00000000 		.4byte	0
 16254              	.LLST20:
 16255 29bf 18000000 		.4byte	.LVL34
 16256 29c3 22000000 		.4byte	.LVL35
 16257 29c7 0100     		.2byte	0x1
 16258 29c9 50       		.byte	0x50
 16259 29ca 50000000 		.4byte	.LVL40
 16260 29ce 54000000 		.4byte	.LVL41
 16261 29d2 0100     		.2byte	0x1
 16262 29d4 50       		.byte	0x50
 16263 29d5 60000000 		.4byte	.LVL42
 16264 29d9 64000000 		.4byte	.LVL43
 16265 29dd 0100     		.2byte	0x1
 16266 29df 50       		.byte	0x50
 16267 29e0 6A000000 		.4byte	.LVL44
 16268 29e4 6E000000 		.4byte	.LVL45
 16269 29e8 0100     		.2byte	0x1
 16270 29ea 50       		.byte	0x50
 16271 29eb 00000000 		.4byte	0
 16272 29ef 00000000 		.4byte	0
 16273              	.LLST21:
 16274 29f3 38000000 		.4byte	.LVL37
 16275 29f7 3C000000 		.4byte	.LVL38
 16276 29fb 0100     		.2byte	0x1
 16277 29fd 50       		.byte	0x50
 16278 29fe 00000000 		.4byte	0
 16279 2a02 00000000 		.4byte	0
 16280              	.LLST0:
 16281 2a06 00000000 		.4byte	.LVL0
 16282 2a0a 9C000000 		.4byte	.LVL21
 16283 2a0e 0100     		.2byte	0x1
 16284 2a10 50       		.byte	0x50
 16285 2a11 9C000000 		.4byte	.LVL21
 16286 2a15 A2000000 		.4byte	.LVL22
 16287 2a19 0400     		.2byte	0x4
 16288 2a1b F3       		.byte	0xf3
 16289 2a1c 01       		.uleb128 0x1
 16290 2a1d 50       		.byte	0x50
 16291 2a1e 9F       		.byte	0x9f
 16292 2a1f A2000000 		.4byte	.LVL22
 16293 2a23 B0000000 		.4byte	.LVL24
 16294 2a27 0100     		.2byte	0x1
 16295 2a29 50       		.byte	0x50
 16296 2a2a B0000000 		.4byte	.LVL24
 16297 2a2e BC000000 		.4byte	.LFE31
 16298 2a32 0400     		.2byte	0x4
 16299 2a34 F3       		.byte	0xf3
 16300 2a35 01       		.uleb128 0x1
 16301 2a36 50       		.byte	0x50
 16302 2a37 9F       		.byte	0x9f
 16303 2a38 00000000 		.4byte	0
 16304 2a3c 00000000 		.4byte	0
 16305              	.LLST1:
 16306 2a40 00000000 		.4byte	.LVL0
ARM GAS  /var/folders/d2/nstgp4h54kz7g1l847x_b8wc0000gn/T//cccORz8f.s 			page 290


 16307 2a44 90000000 		.4byte	.LVL19
 16308 2a48 0100     		.2byte	0x1
 16309 2a4a 51       		.byte	0x51
 16310 2a4b 90000000 		.4byte	.LVL19
 16311 2a4f A2000000 		.4byte	.LVL22
 16312 2a53 0400     		.2byte	0x4
 16313 2a55 F3       		.byte	0xf3
 16314 2a56 01       		.uleb128 0x1
 16315 2a57 51       		.byte	0x51
 16316 2a58 9F       		.byte	0x9f
 16317 2a59 A2000000 		.4byte	.LVL22
 16318 2a5d B0000000 		.4byte	.LVL24
 16319 2a61 0100     		.2byte	0x1
 16320 2a63 51       		.byte	0x51
 16321 2a64 B0000000 		.4byte	.LVL24
 16322 2a68 BC000000 		.4byte	.LFE31
 16323 2a6c 0400     		.2byte	0x4
 16324 2a6e F3       		.byte	0xf3
 16325 2a6f 01       		.uleb128 0x1
 16326 2a70 51       		.byte	0x51
 16327 2a71 9F       		.byte	0x9f
 16328 2a72 00000000 		.4byte	0
 16329 2a76 00000000 		.4byte	0
 16330              	.LLST2:
 16331 2a7a 7C000000 		.4byte	.LVL14
 16332 2a7e 84000000 		.4byte	.LVL15
 16333 2a82 0100     		.2byte	0x1
 16334 2a84 53       		.byte	0x53
 16335 2a85 86000000 		.4byte	.LVL16
 16336 2a89 88000000 		.4byte	.LVL17
 16337 2a8d 0100     		.2byte	0x1
 16338 2a8f 53       		.byte	0x53
 16339 2a90 8C000000 		.4byte	.LVL18
 16340 2a94 96000000 		.4byte	.LVL20
 16341 2a98 0100     		.2byte	0x1
 16342 2a9a 53       		.byte	0x53
 16343 2a9b AE000000 		.4byte	.LVL23
 16344 2a9f B0000000 		.4byte	.LVL24
 16345 2aa3 0100     		.2byte	0x1
 16346 2aa5 53       		.byte	0x53
 16347 2aa6 00000000 		.4byte	0
 16348 2aaa 00000000 		.4byte	0
 16349              	.LLST3:
 16350 2aae 0A000000 		.4byte	.LVL1
 16351 2ab2 90000000 		.4byte	.LVL19
 16352 2ab6 0400     		.2byte	0x4
 16353 2ab8 71       		.byte	0x71
 16354 2ab9 00       		.sleb128 0
 16355 2aba 19       		.byte	0x19
 16356 2abb 9F       		.byte	0x9f
 16357 2abc 90000000 		.4byte	.LVL19
 16358 2ac0 A2000000 		.4byte	.LVL22
 16359 2ac4 0500     		.2byte	0x5
 16360 2ac6 F3       		.byte	0xf3
 16361 2ac7 01       		.uleb128 0x1
 16362 2ac8 51       		.byte	0x51
 16363 2ac9 19       		.byte	0x19
ARM GAS  /var/folders/d2/nstgp4h54kz7g1l847x_b8wc0000gn/T//cccORz8f.s 			page 291


 16364 2aca 9F       		.byte	0x9f
 16365 2acb A2000000 		.4byte	.LVL22
 16366 2acf B0000000 		.4byte	.LVL24
 16367 2ad3 0400     		.2byte	0x4
 16368 2ad5 71       		.byte	0x71
 16369 2ad6 00       		.sleb128 0
 16370 2ad7 19       		.byte	0x19
 16371 2ad8 9F       		.byte	0x9f
 16372 2ad9 B0000000 		.4byte	.LVL24
 16373 2add BC000000 		.4byte	.LFE31
 16374 2ae1 0500     		.2byte	0x5
 16375 2ae3 F3       		.byte	0xf3
 16376 2ae4 01       		.uleb128 0x1
 16377 2ae5 51       		.byte	0x51
 16378 2ae6 19       		.byte	0x19
 16379 2ae7 9F       		.byte	0x9f
 16380 2ae8 00000000 		.4byte	0
 16381 2aec 00000000 		.4byte	0
 16382              	.LLST4:
 16383 2af0 0A000000 		.4byte	.LVL1
 16384 2af4 9C000000 		.4byte	.LVL21
 16385 2af8 0400     		.2byte	0x4
 16386 2afa 70       		.byte	0x70
 16387 2afb 00       		.sleb128 0
 16388 2afc 19       		.byte	0x19
 16389 2afd 9F       		.byte	0x9f
 16390 2afe 9C000000 		.4byte	.LVL21
 16391 2b02 A2000000 		.4byte	.LVL22
 16392 2b06 0500     		.2byte	0x5
 16393 2b08 F3       		.byte	0xf3
 16394 2b09 01       		.uleb128 0x1
 16395 2b0a 50       		.byte	0x50
 16396 2b0b 19       		.byte	0x19
 16397 2b0c 9F       		.byte	0x9f
 16398 2b0d A2000000 		.4byte	.LVL22
 16399 2b11 B0000000 		.4byte	.LVL24
 16400 2b15 0400     		.2byte	0x4
 16401 2b17 70       		.byte	0x70
 16402 2b18 00       		.sleb128 0
 16403 2b19 19       		.byte	0x19
 16404 2b1a 9F       		.byte	0x9f
 16405 2b1b B0000000 		.4byte	.LVL24
 16406 2b1f BC000000 		.4byte	.LFE31
 16407 2b23 0500     		.2byte	0x5
 16408 2b25 F3       		.byte	0xf3
 16409 2b26 01       		.uleb128 0x1
 16410 2b27 50       		.byte	0x50
 16411 2b28 19       		.byte	0x19
 16412 2b29 9F       		.byte	0x9f
 16413 2b2a 00000000 		.4byte	0
 16414 2b2e 00000000 		.4byte	0
 16415              	.LLST5:
 16416 2b32 2A000000 		.4byte	.LVL2
 16417 2b36 88000000 		.4byte	.LVL17
 16418 2b3a 0100     		.2byte	0x1
 16419 2b3c 55       		.byte	0x55
 16420 2b3d A2000000 		.4byte	.LVL22
ARM GAS  /var/folders/d2/nstgp4h54kz7g1l847x_b8wc0000gn/T//cccORz8f.s 			page 292


 16421 2b41 B0000000 		.4byte	.LVL24
 16422 2b45 0100     		.2byte	0x1
 16423 2b47 55       		.byte	0x55
 16424 2b48 00000000 		.4byte	0
 16425 2b4c 00000000 		.4byte	0
 16426              	.LLST6:
 16427 2b50 30000000 		.4byte	.LVL3
 16428 2b54 58000000 		.4byte	.LVL10
 16429 2b58 0100     		.2byte	0x1
 16430 2b5a 52       		.byte	0x52
 16431 2b5b A2000000 		.4byte	.LVL22
 16432 2b5f B0000000 		.4byte	.LVL24
 16433 2b63 0100     		.2byte	0x1
 16434 2b65 52       		.byte	0x52
 16435 2b66 00000000 		.4byte	0
 16436 2b6a 00000000 		.4byte	0
 16437              	.LLST7:
 16438 2b6e 30000000 		.4byte	.LVL3
 16439 2b72 38000000 		.4byte	.LVL4
 16440 2b76 0100     		.2byte	0x1
 16441 2b78 54       		.byte	0x54
 16442 2b79 00000000 		.4byte	0
 16443 2b7d 00000000 		.4byte	0
 16444              	.LLST8:
 16445 2b81 44000000 		.4byte	.LVL5
 16446 2b85 5C000000 		.4byte	.LVL11
 16447 2b89 0100     		.2byte	0x1
 16448 2b8b 57       		.byte	0x57
 16449 2b8c A2000000 		.4byte	.LVL22
 16450 2b90 B0000000 		.4byte	.LVL24
 16451 2b94 0100     		.2byte	0x1
 16452 2b96 57       		.byte	0x57
 16453 2b97 00000000 		.4byte	0
 16454 2b9b 00000000 		.4byte	0
 16455              	.LLST9:
 16456 2b9f 48000000 		.4byte	.LVL6
 16457 2ba3 58000000 		.4byte	.LVL10
 16458 2ba7 0C00     		.2byte	0xc
 16459 2ba9 75       		.byte	0x75
 16460 2baa 00       		.sleb128 0
 16461 2bab 31       		.byte	0x31
 16462 2bac 72       		.byte	0x72
 16463 2bad 00       		.sleb128 0
 16464 2bae 40       		.byte	0x40
 16465 2baf 24       		.byte	0x24
 16466 2bb0 40       		.byte	0x40
 16467 2bb1 26       		.byte	0x26
 16468 2bb2 24       		.byte	0x24
 16469 2bb3 1C       		.byte	0x1c
 16470 2bb4 9F       		.byte	0x9f
 16471 2bb5 00000000 		.4byte	0
 16472 2bb9 00000000 		.4byte	0
 16473              	.LLST10:
 16474 2bbd 48000000 		.4byte	.LVL6
 16475 2bc1 4E000000 		.4byte	.LVL7
 16476 2bc5 0300     		.2byte	0x3
 16477 2bc7 74       		.byte	0x74
ARM GAS  /var/folders/d2/nstgp4h54kz7g1l847x_b8wc0000gn/T//cccORz8f.s 			page 293


 16478 2bc8 78       		.sleb128 -8
 16479 2bc9 9F       		.byte	0x9f
 16480 2bca 4E000000 		.4byte	.LVL7
 16481 2bce 50000000 		.4byte	.LVL8
 16482 2bd2 0300     		.2byte	0x3
 16483 2bd4 74       		.byte	0x74
 16484 2bd5 00       		.sleb128 0
 16485 2bd6 9F       		.byte	0x9f
 16486 2bd7 50000000 		.4byte	.LVL8
 16487 2bdb 58000000 		.4byte	.LVL10
 16488 2bdf 0300     		.2byte	0x3
 16489 2be1 72       		.byte	0x72
 16490 2be2 78       		.sleb128 -8
 16491 2be3 9F       		.byte	0x9f
 16492 2be4 00000000 		.4byte	0
 16493 2be8 00000000 		.4byte	0
 16494              	.LLST11:
 16495 2bec 56000000 		.4byte	.LVL9
 16496 2bf0 6C000000 		.4byte	.LVL12
 16497 2bf4 0100     		.2byte	0x1
 16498 2bf6 53       		.byte	0x53
 16499 2bf7 00000000 		.4byte	0
 16500 2bfb 00000000 		.4byte	0
 16501              	.LLST12:
 16502 2bff 56000000 		.4byte	.LVL9
 16503 2c03 6C000000 		.4byte	.LVL12
 16504 2c07 0500     		.2byte	0x5
 16505 2c09 73       		.byte	0x73
 16506 2c0a 00       		.sleb128 0
 16507 2c0b 35       		.byte	0x35
 16508 2c0c 26       		.byte	0x26
 16509 2c0d 9F       		.byte	0x9f
 16510 2c0e 00000000 		.4byte	0
 16511 2c12 00000000 		.4byte	0
 16512              	.LLST13:
 16513 2c16 6C000000 		.4byte	.LVL12
 16514 2c1a 74000000 		.4byte	.LVL13
 16515 2c1e 0100     		.2byte	0x1
 16516 2c20 53       		.byte	0x53
 16517 2c21 00000000 		.4byte	0
 16518 2c25 00000000 		.4byte	0
 16519              	.LLST14:
 16520 2c29 00000000 		.4byte	.LVL26
 16521 2c2d 18000000 		.4byte	.LVL28
 16522 2c31 0100     		.2byte	0x1
 16523 2c33 50       		.byte	0x50
 16524 2c34 18000000 		.4byte	.LVL28
 16525 2c38 26000000 		.4byte	.LVL29
 16526 2c3c 0400     		.2byte	0x4
 16527 2c3e F3       		.byte	0xf3
 16528 2c3f 01       		.uleb128 0x1
 16529 2c40 50       		.byte	0x50
 16530 2c41 9F       		.byte	0x9f
 16531 2c42 26000000 		.4byte	.LVL29
 16532 2c46 37000000 		.4byte	.LVL30-1
 16533 2c4a 0100     		.2byte	0x1
 16534 2c4c 50       		.byte	0x50
ARM GAS  /var/folders/d2/nstgp4h54kz7g1l847x_b8wc0000gn/T//cccORz8f.s 			page 294


 16535 2c4d 37000000 		.4byte	.LVL30-1
 16536 2c51 40000000 		.4byte	.LFE1
 16537 2c55 0400     		.2byte	0x4
 16538 2c57 F3       		.byte	0xf3
 16539 2c58 01       		.uleb128 0x1
 16540 2c59 50       		.byte	0x50
 16541 2c5a 9F       		.byte	0x9f
 16542 2c5b 00000000 		.4byte	0
 16543 2c5f 00000000 		.4byte	0
 16544              	.LLST15:
 16545 2c63 00000000 		.4byte	.LVL26
 16546 2c67 10000000 		.4byte	.LVL27
 16547 2c6b 0100     		.2byte	0x1
 16548 2c6d 51       		.byte	0x51
 16549 2c6e 10000000 		.4byte	.LVL27
 16550 2c72 26000000 		.4byte	.LVL29
 16551 2c76 0400     		.2byte	0x4
 16552 2c78 F3       		.byte	0xf3
 16553 2c79 01       		.uleb128 0x1
 16554 2c7a 51       		.byte	0x51
 16555 2c7b 9F       		.byte	0x9f
 16556 2c7c 26000000 		.4byte	.LVL29
 16557 2c80 37000000 		.4byte	.LVL30-1
 16558 2c84 0100     		.2byte	0x1
 16559 2c86 51       		.byte	0x51
 16560 2c87 37000000 		.4byte	.LVL30-1
 16561 2c8b 40000000 		.4byte	.LFE1
 16562 2c8f 0400     		.2byte	0x4
 16563 2c91 F3       		.byte	0xf3
 16564 2c92 01       		.uleb128 0x1
 16565 2c93 51       		.byte	0x51
 16566 2c94 9F       		.byte	0x9f
 16567 2c95 00000000 		.4byte	0
 16568 2c99 00000000 		.4byte	0
 16569              	.LLST22:
 16570 2c9d 00000000 		.4byte	.LVL47
 16571 2ca1 16000000 		.4byte	.LVL48
 16572 2ca5 0100     		.2byte	0x1
 16573 2ca7 50       		.byte	0x50
 16574 2ca8 16000000 		.4byte	.LVL48
 16575 2cac 22000000 		.4byte	.LVL49
 16576 2cb0 0400     		.2byte	0x4
 16577 2cb2 F3       		.byte	0xf3
 16578 2cb3 01       		.uleb128 0x1
 16579 2cb4 50       		.byte	0x50
 16580 2cb5 9F       		.byte	0x9f
 16581 2cb6 22000000 		.4byte	.LVL49
 16582 2cba 25000000 		.4byte	.LVL50-1
 16583 2cbe 0100     		.2byte	0x1
 16584 2cc0 50       		.byte	0x50
 16585 2cc1 25000000 		.4byte	.LVL50-1
 16586 2cc5 2C000000 		.4byte	.LFE3
 16587 2cc9 0400     		.2byte	0x4
 16588 2ccb F3       		.byte	0xf3
 16589 2ccc 01       		.uleb128 0x1
 16590 2ccd 50       		.byte	0x50
 16591 2cce 9F       		.byte	0x9f
ARM GAS  /var/folders/d2/nstgp4h54kz7g1l847x_b8wc0000gn/T//cccORz8f.s 			page 295


 16592 2ccf 00000000 		.4byte	0
 16593 2cd3 00000000 		.4byte	0
 16594              	.LLST23:
 16595 2cd7 00000000 		.4byte	.LVL51
 16596 2cdb 20000000 		.4byte	.LVL56
 16597 2cdf 0100     		.2byte	0x1
 16598 2ce1 50       		.byte	0x50
 16599 2ce2 20000000 		.4byte	.LVL56
 16600 2ce6 50000000 		.4byte	.LVL67
 16601 2cea 0400     		.2byte	0x4
 16602 2cec F3       		.byte	0xf3
 16603 2ced 01       		.uleb128 0x1
 16604 2cee 50       		.byte	0x50
 16605 2cef 9F       		.byte	0x9f
 16606 2cf0 50000000 		.4byte	.LVL67
 16607 2cf4 54000000 		.4byte	.LVL68
 16608 2cf8 0100     		.2byte	0x1
 16609 2cfa 50       		.byte	0x50
 16610 2cfb 54000000 		.4byte	.LVL68
 16611 2cff 5C000000 		.4byte	.LFE4
 16612 2d03 0400     		.2byte	0x4
 16613 2d05 F3       		.byte	0xf3
 16614 2d06 01       		.uleb128 0x1
 16615 2d07 50       		.byte	0x50
 16616 2d08 9F       		.byte	0x9f
 16617 2d09 00000000 		.4byte	0
 16618 2d0d 00000000 		.4byte	0
 16619              	.LLST24:
 16620 2d11 0A000000 		.4byte	.LVL52
 16621 2d15 26000000 		.4byte	.LVL58
 16622 2d19 0100     		.2byte	0x1
 16623 2d1b 50       		.byte	0x50
 16624 2d1c 2E000000 		.4byte	.LVL60
 16625 2d20 4A000000 		.4byte	.LVL66
 16626 2d24 0100     		.2byte	0x1
 16627 2d26 50       		.byte	0x50
 16628 2d27 50000000 		.4byte	.LVL67
 16629 2d2b 54000000 		.4byte	.LVL68
 16630 2d2f 0100     		.2byte	0x1
 16631 2d31 50       		.byte	0x50
 16632 2d32 00000000 		.4byte	0
 16633 2d36 00000000 		.4byte	0
 16634              	.LLST25:
 16635 2d3a 0A000000 		.4byte	.LVL52
 16636 2d3e 20000000 		.4byte	.LVL56
 16637 2d42 0200     		.2byte	0x2
 16638 2d44 30       		.byte	0x30
 16639 2d45 9F       		.byte	0x9f
 16640 2d46 20000000 		.4byte	.LVL56
 16641 2d4a 24000000 		.4byte	.LVL57
 16642 2d4e 0100     		.2byte	0x1
 16643 2d50 52       		.byte	0x52
 16644 2d51 30000000 		.4byte	.LVL61
 16645 2d55 42000000 		.4byte	.LVL65
 16646 2d59 0100     		.2byte	0x1
 16647 2d5b 52       		.byte	0x52
 16648 2d5c 50000000 		.4byte	.LVL67
ARM GAS  /var/folders/d2/nstgp4h54kz7g1l847x_b8wc0000gn/T//cccORz8f.s 			page 296


 16649 2d60 54000000 		.4byte	.LVL68
 16650 2d64 0200     		.2byte	0x2
 16651 2d66 30       		.byte	0x30
 16652 2d67 9F       		.byte	0x9f
 16653 2d68 00000000 		.4byte	0
 16654 2d6c 00000000 		.4byte	0
 16655              	.LLST26:
 16656 2d70 0A000000 		.4byte	.LVL52
 16657 2d74 14000000 		.4byte	.LVL53
 16658 2d78 0400     		.2byte	0x4
 16659 2d7a 0A       		.byte	0xa
 16660 2d7b 0040     		.2byte	0x4000
 16661 2d7d 9F       		.byte	0x9f
 16662 2d7e 14000000 		.4byte	.LVL53
 16663 2d82 1C000000 		.4byte	.LVL55
 16664 2d86 0100     		.2byte	0x1
 16665 2d88 53       		.byte	0x53
 16666 2d89 20000000 		.4byte	.LVL56
 16667 2d8d 28000000 		.4byte	.LVL59
 16668 2d91 0100     		.2byte	0x1
 16669 2d93 53       		.byte	0x53
 16670 2d94 28000000 		.4byte	.LVL59
 16671 2d98 30000000 		.4byte	.LVL61
 16672 2d9c 0100     		.2byte	0x1
 16673 2d9e 51       		.byte	0x51
 16674 2d9f 32000000 		.4byte	.LVL62
 16675 2da3 3E000000 		.4byte	.LVL63
 16676 2da7 0100     		.2byte	0x1
 16677 2da9 53       		.byte	0x53
 16678 2daa 50000000 		.4byte	.LVL67
 16679 2dae 54000000 		.4byte	.LVL68
 16680 2db2 0100     		.2byte	0x1
 16681 2db4 53       		.byte	0x53
 16682 2db5 00000000 		.4byte	0
 16683 2db9 00000000 		.4byte	0
 16684              		.section	.debug_aranges,"",%progbits
 16685 0000 04010000 		.4byte	0x104
 16686 0004 0200     		.2byte	0x2
 16687 0006 00000000 		.4byte	.Ldebug_info0
 16688 000a 04       		.byte	0x4
 16689 000b 00       		.byte	0
 16690 000c 0000     		.2byte	0
 16691 000e 0000     		.2byte	0
 16692 0010 00000000 		.4byte	.LFB31
 16693 0014 BC000000 		.4byte	.LFE31-.LFB31
 16694 0018 00000000 		.4byte	.LFB1
 16695 001c 40000000 		.4byte	.LFE1-.LFB1
 16696 0020 00000000 		.4byte	.LFB2
 16697 0024 88000000 		.4byte	.LFE2-.LFB2
 16698 0028 00000000 		.4byte	.LFB3
 16699 002c 2C000000 		.4byte	.LFE3-.LFB3
 16700 0030 00000000 		.4byte	.LFB4
 16701 0034 5C000000 		.4byte	.LFE4-.LFB4
 16702 0038 00000000 		.4byte	.LFB5
 16703 003c 90000000 		.4byte	.LFE5-.LFB5
 16704 0040 00000000 		.4byte	.LFB6
 16705 0044 60000000 		.4byte	.LFE6-.LFB6
ARM GAS  /var/folders/d2/nstgp4h54kz7g1l847x_b8wc0000gn/T//cccORz8f.s 			page 297


 16706 0048 00000000 		.4byte	.LFB7
 16707 004c 5C000000 		.4byte	.LFE7-.LFB7
 16708 0050 00000000 		.4byte	.LFB8
 16709 0054 7C000000 		.4byte	.LFE8-.LFB8
 16710 0058 00000000 		.4byte	.LFB9
 16711 005c 7C000000 		.4byte	.LFE9-.LFB9
 16712 0060 00000000 		.4byte	.LFB10
 16713 0064 80000000 		.4byte	.LFE10-.LFB10
 16714 0068 00000000 		.4byte	.LFB11
 16715 006c 80000000 		.4byte	.LFE11-.LFB11
 16716 0070 00000000 		.4byte	.LFB12
 16717 0074 C4000000 		.4byte	.LFE12-.LFB12
 16718 0078 00000000 		.4byte	.LFB13
 16719 007c 80000000 		.4byte	.LFE13-.LFB13
 16720 0080 00000000 		.4byte	.LFB14
 16721 0084 80000000 		.4byte	.LFE14-.LFB14
 16722 0088 00000000 		.4byte	.LFB15
 16723 008c AC000000 		.4byte	.LFE15-.LFB15
 16724 0090 00000000 		.4byte	.LFB16
 16725 0094 B4000000 		.4byte	.LFE16-.LFB16
 16726 0098 00000000 		.4byte	.LFB17
 16727 009c D0000000 		.4byte	.LFE17-.LFB17
 16728 00a0 00000000 		.4byte	.LFB18
 16729 00a4 A4000000 		.4byte	.LFE18-.LFB18
 16730 00a8 00000000 		.4byte	.LFB19
 16731 00ac 44000000 		.4byte	.LFE19-.LFB19
 16732 00b0 00000000 		.4byte	.LFB20
 16733 00b4 E0000000 		.4byte	.LFE20-.LFB20
 16734 00b8 00000000 		.4byte	.LFB21
 16735 00bc AC000000 		.4byte	.LFE21-.LFB21
 16736 00c0 00000000 		.4byte	.LFB22
 16737 00c4 7C000000 		.4byte	.LFE22-.LFB22
 16738 00c8 00000000 		.4byte	.LFB23
 16739 00cc 80000000 		.4byte	.LFE23-.LFB23
 16740 00d0 00000000 		.4byte	.LFB24
 16741 00d4 90000000 		.4byte	.LFE24-.LFB24
 16742 00d8 00000000 		.4byte	.LFB25
 16743 00dc B8000000 		.4byte	.LFE25-.LFB25
 16744 00e0 00000000 		.4byte	.LFB26
 16745 00e4 54010000 		.4byte	.LFE26-.LFB26
 16746 00e8 00000000 		.4byte	.LFB27
 16747 00ec 28000000 		.4byte	.LFE27-.LFB27
 16748 00f0 00000000 		.4byte	.LFB28
 16749 00f4 44000000 		.4byte	.LFE28-.LFB28
 16750 00f8 00000000 		.4byte	.LFB29
 16751 00fc 78000000 		.4byte	.LFE29-.LFB29
 16752 0100 00000000 		.4byte	0
 16753 0104 00000000 		.4byte	0
 16754              		.section	.debug_ranges,"",%progbits
 16755              	.Ldebug_ranges0:
 16756 0000 0A000000 		.4byte	.LBB190
 16757 0004 8E000000 		.4byte	.LBE190
 16758 0008 92000000 		.4byte	.LBB197
 16759 000c 98000000 		.4byte	.LBE197
 16760 0010 A2000000 		.4byte	.LBB198
 16761 0014 B0000000 		.4byte	.LBE198
 16762 0018 00000000 		.4byte	0
ARM GAS  /var/folders/d2/nstgp4h54kz7g1l847x_b8wc0000gn/T//cccORz8f.s 			page 298


 16763 001c 00000000 		.4byte	0
 16764 0020 0E000000 		.4byte	.LBB191
 16765 0024 10000000 		.4byte	.LBE191
 16766 0028 20000000 		.4byte	.LBB195
 16767 002c 88000000 		.4byte	.LBE195
 16768 0030 A2000000 		.4byte	.LBB196
 16769 0034 B0000000 		.4byte	.LBE196
 16770 0038 00000000 		.4byte	0
 16771 003c 00000000 		.4byte	0
 16772 0040 3C000000 		.4byte	.LBB192
 16773 0044 88000000 		.4byte	.LBE192
 16774 0048 A2000000 		.4byte	.LBB194
 16775 004c B0000000 		.4byte	.LBE194
 16776 0050 00000000 		.4byte	0
 16777 0054 00000000 		.4byte	0
 16778 0058 18000000 		.4byte	.LBB199
 16779 005c 1E000000 		.4byte	.LBE199
 16780 0060 22000000 		.4byte	.LBB200
 16781 0064 3E000000 		.4byte	.LBE200
 16782 0068 00000000 		.4byte	0
 16783 006c 00000000 		.4byte	0
 16784 0070 00000000 		.4byte	.LBB202
 16785 0074 04000000 		.4byte	.LBE202
 16786 0078 06000000 		.4byte	.LBB207
 16787 007c 0C000000 		.4byte	.LBE207
 16788 0080 0E000000 		.4byte	.LBB208
 16789 0084 10000000 		.4byte	.LBE208
 16790 0088 12000000 		.4byte	.LBB213
 16791 008c 14000000 		.4byte	.LBE213
 16792 0090 00000000 		.4byte	0
 16793 0094 00000000 		.4byte	0
 16794 0098 10000000 		.4byte	.LBB209
 16795 009c 12000000 		.4byte	.LBE209
 16796 00a0 14000000 		.4byte	.LBB214
 16797 00a4 16000000 		.4byte	.LBE214
 16798 00a8 1A000000 		.4byte	.LBB215
 16799 00ac 1C000000 		.4byte	.LBE215
 16800 00b0 00000000 		.4byte	0
 16801 00b4 00000000 		.4byte	0
 16802 00b8 1C000000 		.4byte	.LBB216
 16803 00bc 1E000000 		.4byte	.LBE216
 16804 00c0 22000000 		.4byte	.LBB219
 16805 00c4 24000000 		.4byte	.LBE219
 16806 00c8 00000000 		.4byte	0
 16807 00cc 00000000 		.4byte	0
 16808 00d0 00000000 		.4byte	.LBB220
 16809 00d4 04000000 		.4byte	.LBE220
 16810 00d8 06000000 		.4byte	.LBB225
 16811 00dc 0C000000 		.4byte	.LBE225
 16812 00e0 0E000000 		.4byte	.LBB226
 16813 00e4 10000000 		.4byte	.LBE226
 16814 00e8 12000000 		.4byte	.LBB231
 16815 00ec 14000000 		.4byte	.LBE231
 16816 00f0 00000000 		.4byte	0
 16817 00f4 00000000 		.4byte	0
 16818 00f8 10000000 		.4byte	.LBB227
 16819 00fc 12000000 		.4byte	.LBE227
ARM GAS  /var/folders/d2/nstgp4h54kz7g1l847x_b8wc0000gn/T//cccORz8f.s 			page 299


 16820 0100 14000000 		.4byte	.LBB232
 16821 0104 16000000 		.4byte	.LBE232
 16822 0108 1A000000 		.4byte	.LBB233
 16823 010c 1C000000 		.4byte	.LBE233
 16824 0110 00000000 		.4byte	0
 16825 0114 00000000 		.4byte	0
 16826 0118 1C000000 		.4byte	.LBB234
 16827 011c 1E000000 		.4byte	.LBE234
 16828 0120 22000000 		.4byte	.LBB237
 16829 0124 24000000 		.4byte	.LBE237
 16830 0128 00000000 		.4byte	0
 16831 012c 00000000 		.4byte	0
 16832 0130 00000000 		.4byte	.LBB238
 16833 0134 06000000 		.4byte	.LBE238
 16834 0138 08000000 		.4byte	.LBB242
 16835 013c 10000000 		.4byte	.LBE242
 16836 0140 12000000 		.4byte	.LBB247
 16837 0144 14000000 		.4byte	.LBE247
 16838 0148 00000000 		.4byte	0
 16839 014c 00000000 		.4byte	0
 16840 0150 10000000 		.4byte	.LBB243
 16841 0154 12000000 		.4byte	.LBE243
 16842 0158 14000000 		.4byte	.LBB248
 16843 015c 16000000 		.4byte	.LBE248
 16844 0160 1C000000 		.4byte	.LBB253
 16845 0164 1E000000 		.4byte	.LBE253
 16846 0168 00000000 		.4byte	0
 16847 016c 00000000 		.4byte	0
 16848 0170 16000000 		.4byte	.LBB249
 16849 0174 18000000 		.4byte	.LBE249
 16850 0178 1E000000 		.4byte	.LBB254
 16851 017c 20000000 		.4byte	.LBE254
 16852 0180 24000000 		.4byte	.LBB255
 16853 0184 26000000 		.4byte	.LBE255
 16854 0188 00000000 		.4byte	0
 16855 018c 00000000 		.4byte	0
 16856 0190 26000000 		.4byte	.LBB256
 16857 0194 28000000 		.4byte	.LBE256
 16858 0198 2E000000 		.4byte	.LBB259
 16859 019c 30000000 		.4byte	.LBE259
 16860 01a0 00000000 		.4byte	0
 16861 01a4 00000000 		.4byte	0
 16862 01a8 02000000 		.4byte	.LBB260
 16863 01ac 08000000 		.4byte	.LBE260
 16864 01b0 0C000000 		.4byte	.LBB264
 16865 01b4 12000000 		.4byte	.LBE264
 16866 01b8 14000000 		.4byte	.LBB269
 16867 01bc 16000000 		.4byte	.LBE269
 16868 01c0 00000000 		.4byte	0
 16869 01c4 00000000 		.4byte	0
 16870 01c8 12000000 		.4byte	.LBB265
 16871 01cc 14000000 		.4byte	.LBE265
 16872 01d0 16000000 		.4byte	.LBB270
 16873 01d4 18000000 		.4byte	.LBE270
 16874 01d8 1E000000 		.4byte	.LBB275
 16875 01dc 20000000 		.4byte	.LBE275
 16876 01e0 00000000 		.4byte	0
ARM GAS  /var/folders/d2/nstgp4h54kz7g1l847x_b8wc0000gn/T//cccORz8f.s 			page 300


 16877 01e4 00000000 		.4byte	0
 16878 01e8 18000000 		.4byte	.LBB271
 16879 01ec 1A000000 		.4byte	.LBE271
 16880 01f0 20000000 		.4byte	.LBB276
 16881 01f4 22000000 		.4byte	.LBE276
 16882 01f8 26000000 		.4byte	.LBB277
 16883 01fc 28000000 		.4byte	.LBE277
 16884 0200 00000000 		.4byte	0
 16885 0204 00000000 		.4byte	0
 16886 0208 28000000 		.4byte	.LBB278
 16887 020c 2A000000 		.4byte	.LBE278
 16888 0210 2E000000 		.4byte	.LBB281
 16889 0214 30000000 		.4byte	.LBE281
 16890 0218 00000000 		.4byte	0
 16891 021c 00000000 		.4byte	0
 16892 0220 02000000 		.4byte	.LBB282
 16893 0224 08000000 		.4byte	.LBE282
 16894 0228 0C000000 		.4byte	.LBB286
 16895 022c 12000000 		.4byte	.LBE286
 16896 0230 14000000 		.4byte	.LBB291
 16897 0234 16000000 		.4byte	.LBE291
 16898 0238 00000000 		.4byte	0
 16899 023c 00000000 		.4byte	0
 16900 0240 12000000 		.4byte	.LBB287
 16901 0244 14000000 		.4byte	.LBE287
 16902 0248 16000000 		.4byte	.LBB292
 16903 024c 18000000 		.4byte	.LBE292
 16904 0250 1E000000 		.4byte	.LBB297
 16905 0254 20000000 		.4byte	.LBE297
 16906 0258 00000000 		.4byte	0
 16907 025c 00000000 		.4byte	0
 16908 0260 18000000 		.4byte	.LBB293
 16909 0264 1A000000 		.4byte	.LBE293
 16910 0268 20000000 		.4byte	.LBB298
 16911 026c 22000000 		.4byte	.LBE298
 16912 0270 26000000 		.4byte	.LBB299
 16913 0274 28000000 		.4byte	.LBE299
 16914 0278 00000000 		.4byte	0
 16915 027c 00000000 		.4byte	0
 16916 0280 28000000 		.4byte	.LBB300
 16917 0284 2A000000 		.4byte	.LBE300
 16918 0288 2E000000 		.4byte	.LBB303
 16919 028c 30000000 		.4byte	.LBE303
 16920 0290 00000000 		.4byte	0
 16921 0294 00000000 		.4byte	0
 16922 0298 02000000 		.4byte	.LBB304
 16923 029c 08000000 		.4byte	.LBE304
 16924 02a0 0C000000 		.4byte	.LBB308
 16925 02a4 12000000 		.4byte	.LBE308
 16926 02a8 14000000 		.4byte	.LBB313
 16927 02ac 16000000 		.4byte	.LBE313
 16928 02b0 00000000 		.4byte	0
 16929 02b4 00000000 		.4byte	0
 16930 02b8 12000000 		.4byte	.LBB309
 16931 02bc 14000000 		.4byte	.LBE309
 16932 02c0 16000000 		.4byte	.LBB314
 16933 02c4 18000000 		.4byte	.LBE314
ARM GAS  /var/folders/d2/nstgp4h54kz7g1l847x_b8wc0000gn/T//cccORz8f.s 			page 301


 16934 02c8 1E000000 		.4byte	.LBB319
 16935 02cc 20000000 		.4byte	.LBE319
 16936 02d0 00000000 		.4byte	0
 16937 02d4 00000000 		.4byte	0
 16938 02d8 18000000 		.4byte	.LBB315
 16939 02dc 1A000000 		.4byte	.LBE315
 16940 02e0 20000000 		.4byte	.LBB320
 16941 02e4 22000000 		.4byte	.LBE320
 16942 02e8 26000000 		.4byte	.LBB321
 16943 02ec 28000000 		.4byte	.LBE321
 16944 02f0 00000000 		.4byte	0
 16945 02f4 00000000 		.4byte	0
 16946 02f8 28000000 		.4byte	.LBB322
 16947 02fc 2A000000 		.4byte	.LBE322
 16948 0300 2E000000 		.4byte	.LBB325
 16949 0304 30000000 		.4byte	.LBE325
 16950 0308 00000000 		.4byte	0
 16951 030c 00000000 		.4byte	0
 16952 0310 04000000 		.4byte	.LBB326
 16953 0314 0A000000 		.4byte	.LBE326
 16954 0318 0E000000 		.4byte	.LBB330
 16955 031c 14000000 		.4byte	.LBE330
 16956 0320 16000000 		.4byte	.LBB335
 16957 0324 18000000 		.4byte	.LBE335
 16958 0328 00000000 		.4byte	0
 16959 032c 00000000 		.4byte	0
 16960 0330 14000000 		.4byte	.LBB331
 16961 0334 16000000 		.4byte	.LBE331
 16962 0338 18000000 		.4byte	.LBB336
 16963 033c 1A000000 		.4byte	.LBE336
 16964 0340 20000000 		.4byte	.LBB341
 16965 0344 22000000 		.4byte	.LBE341
 16966 0348 00000000 		.4byte	0
 16967 034c 00000000 		.4byte	0
 16968 0350 1A000000 		.4byte	.LBB337
 16969 0354 1C000000 		.4byte	.LBE337
 16970 0358 22000000 		.4byte	.LBB342
 16971 035c 24000000 		.4byte	.LBE342
 16972 0360 28000000 		.4byte	.LBB343
 16973 0364 2A000000 		.4byte	.LBE343
 16974 0368 00000000 		.4byte	0
 16975 036c 00000000 		.4byte	0
 16976 0370 2A000000 		.4byte	.LBB344
 16977 0374 2C000000 		.4byte	.LBE344
 16978 0378 30000000 		.4byte	.LBB347
 16979 037c 32000000 		.4byte	.LBE347
 16980 0380 00000000 		.4byte	0
 16981 0384 00000000 		.4byte	0
 16982 0388 40000000 		.4byte	.LBB348
 16983 038c 7E000000 		.4byte	.LBE348
 16984 0390 80000000 		.4byte	.LBB349
 16985 0394 8A000000 		.4byte	.LBE349
 16986 0398 9C000000 		.4byte	.LBB350
 16987 039c B2000000 		.4byte	.LBE350
 16988 03a0 B8000000 		.4byte	.LBB351
 16989 03a4 BC000000 		.4byte	.LBE351
 16990 03a8 00000000 		.4byte	0
ARM GAS  /var/folders/d2/nstgp4h54kz7g1l847x_b8wc0000gn/T//cccORz8f.s 			page 302


 16991 03ac 00000000 		.4byte	0
 16992 03b0 02000000 		.4byte	.LBB352
 16993 03b4 08000000 		.4byte	.LBE352
 16994 03b8 0C000000 		.4byte	.LBB356
 16995 03bc 12000000 		.4byte	.LBE356
 16996 03c0 14000000 		.4byte	.LBB361
 16997 03c4 16000000 		.4byte	.LBE361
 16998 03c8 00000000 		.4byte	0
 16999 03cc 00000000 		.4byte	0
 17000 03d0 12000000 		.4byte	.LBB357
 17001 03d4 14000000 		.4byte	.LBE357
 17002 03d8 16000000 		.4byte	.LBB362
 17003 03dc 18000000 		.4byte	.LBE362
 17004 03e0 1E000000 		.4byte	.LBB367
 17005 03e4 20000000 		.4byte	.LBE367
 17006 03e8 00000000 		.4byte	0
 17007 03ec 00000000 		.4byte	0
 17008 03f0 18000000 		.4byte	.LBB363
 17009 03f4 1A000000 		.4byte	.LBE363
 17010 03f8 20000000 		.4byte	.LBB368
 17011 03fc 22000000 		.4byte	.LBE368
 17012 0400 26000000 		.4byte	.LBB369
 17013 0404 28000000 		.4byte	.LBE369
 17014 0408 00000000 		.4byte	0
 17015 040c 00000000 		.4byte	0
 17016 0410 28000000 		.4byte	.LBB370
 17017 0414 2A000000 		.4byte	.LBE370
 17018 0418 2E000000 		.4byte	.LBB373
 17019 041c 30000000 		.4byte	.LBE373
 17020 0420 00000000 		.4byte	0
 17021 0424 00000000 		.4byte	0
 17022 0428 46000000 		.4byte	.LBB374
 17023 042c 62000000 		.4byte	.LBE374
 17024 0430 64000000 		.4byte	.LBB375
 17025 0434 68000000 		.4byte	.LBE375
 17026 0438 00000000 		.4byte	0
 17027 043c 00000000 		.4byte	0
 17028 0440 02000000 		.4byte	.LBB376
 17029 0444 08000000 		.4byte	.LBE376
 17030 0448 0C000000 		.4byte	.LBB380
 17031 044c 12000000 		.4byte	.LBE380
 17032 0450 14000000 		.4byte	.LBB385
 17033 0454 16000000 		.4byte	.LBE385
 17034 0458 00000000 		.4byte	0
 17035 045c 00000000 		.4byte	0
 17036 0460 12000000 		.4byte	.LBB381
 17037 0464 14000000 		.4byte	.LBE381
 17038 0468 16000000 		.4byte	.LBB386
 17039 046c 18000000 		.4byte	.LBE386
 17040 0470 1E000000 		.4byte	.LBB391
 17041 0474 20000000 		.4byte	.LBE391
 17042 0478 00000000 		.4byte	0
 17043 047c 00000000 		.4byte	0
 17044 0480 18000000 		.4byte	.LBB387
 17045 0484 1A000000 		.4byte	.LBE387
 17046 0488 20000000 		.4byte	.LBB392
 17047 048c 22000000 		.4byte	.LBE392
ARM GAS  /var/folders/d2/nstgp4h54kz7g1l847x_b8wc0000gn/T//cccORz8f.s 			page 303


 17048 0490 26000000 		.4byte	.LBB393
 17049 0494 28000000 		.4byte	.LBE393
 17050 0498 00000000 		.4byte	0
 17051 049c 00000000 		.4byte	0
 17052 04a0 28000000 		.4byte	.LBB394
 17053 04a4 2A000000 		.4byte	.LBE394
 17054 04a8 2E000000 		.4byte	.LBB397
 17055 04ac 30000000 		.4byte	.LBE397
 17056 04b0 00000000 		.4byte	0
 17057 04b4 00000000 		.4byte	0
 17058 04b8 46000000 		.4byte	.LBB398
 17059 04bc 62000000 		.4byte	.LBE398
 17060 04c0 64000000 		.4byte	.LBB399
 17061 04c4 68000000 		.4byte	.LBE399
 17062 04c8 00000000 		.4byte	0
 17063 04cc 00000000 		.4byte	0
 17064 04d0 04000000 		.4byte	.LBB400
 17065 04d4 0A000000 		.4byte	.LBE400
 17066 04d8 0E000000 		.4byte	.LBB404
 17067 04dc 14000000 		.4byte	.LBE404
 17068 04e0 16000000 		.4byte	.LBB409
 17069 04e4 18000000 		.4byte	.LBE409
 17070 04e8 00000000 		.4byte	0
 17071 04ec 00000000 		.4byte	0
 17072 04f0 14000000 		.4byte	.LBB405
 17073 04f4 16000000 		.4byte	.LBE405
 17074 04f8 18000000 		.4byte	.LBB410
 17075 04fc 1A000000 		.4byte	.LBE410
 17076 0500 20000000 		.4byte	.LBB415
 17077 0504 22000000 		.4byte	.LBE415
 17078 0508 00000000 		.4byte	0
 17079 050c 00000000 		.4byte	0
 17080 0510 1A000000 		.4byte	.LBB411
 17081 0514 1C000000 		.4byte	.LBE411
 17082 0518 22000000 		.4byte	.LBB416
 17083 051c 24000000 		.4byte	.LBE416
 17084 0520 2A000000 		.4byte	.LBB421
 17085 0524 2C000000 		.4byte	.LBE421
 17086 0528 00000000 		.4byte	0
 17087 052c 00000000 		.4byte	0
 17088 0530 24000000 		.4byte	.LBB417
 17089 0534 26000000 		.4byte	.LBE417
 17090 0538 2C000000 		.4byte	.LBB422
 17091 053c 2E000000 		.4byte	.LBE422
 17092 0540 32000000 		.4byte	.LBB423
 17093 0544 34000000 		.4byte	.LBE423
 17094 0548 00000000 		.4byte	0
 17095 054c 00000000 		.4byte	0
 17096 0550 34000000 		.4byte	.LBB424
 17097 0554 36000000 		.4byte	.LBE424
 17098 0558 3A000000 		.4byte	.LBB427
 17099 055c 3C000000 		.4byte	.LBE427
 17100 0560 00000000 		.4byte	0
 17101 0564 00000000 		.4byte	0
 17102 0568 58000000 		.4byte	.LBB428
 17103 056c 8A000000 		.4byte	.LBE428
 17104 0570 8C000000 		.4byte	.LBB429
ARM GAS  /var/folders/d2/nstgp4h54kz7g1l847x_b8wc0000gn/T//cccORz8f.s 			page 304


 17105 0574 90000000 		.4byte	.LBE429
 17106 0578 00000000 		.4byte	0
 17107 057c 00000000 		.4byte	0
 17108 0580 04000000 		.4byte	.LBB430
 17109 0584 0A000000 		.4byte	.LBE430
 17110 0588 0E000000 		.4byte	.LBB434
 17111 058c 14000000 		.4byte	.LBE434
 17112 0590 18000000 		.4byte	.LBB440
 17113 0594 1A000000 		.4byte	.LBE440
 17114 0598 00000000 		.4byte	0
 17115 059c 00000000 		.4byte	0
 17116 05a0 14000000 		.4byte	.LBB435
 17117 05a4 18000000 		.4byte	.LBE435
 17118 05a8 1A000000 		.4byte	.LBB441
 17119 05ac 1E000000 		.4byte	.LBE441
 17120 05b0 24000000 		.4byte	.LBB447
 17121 05b4 28000000 		.4byte	.LBE447
 17122 05b8 2E000000 		.4byte	.LBB453
 17123 05bc 32000000 		.4byte	.LBE453
 17124 05c0 00000000 		.4byte	0
 17125 05c4 00000000 		.4byte	0
 17126 05c8 1E000000 		.4byte	.LBB442
 17127 05cc 20000000 		.4byte	.LBE442
 17128 05d0 28000000 		.4byte	.LBB448
 17129 05d4 2A000000 		.4byte	.LBE448
 17130 05d8 32000000 		.4byte	.LBB454
 17131 05dc 34000000 		.4byte	.LBE454
 17132 05e0 38000000 		.4byte	.LBB456
 17133 05e4 3C000000 		.4byte	.LBE456
 17134 05e8 00000000 		.4byte	0
 17135 05ec 00000000 		.4byte	0
 17136 05f0 2A000000 		.4byte	.LBB449
 17137 05f4 2E000000 		.4byte	.LBE449
 17138 05f8 34000000 		.4byte	.LBB455
 17139 05fc 38000000 		.4byte	.LBE455
 17140 0600 3C000000 		.4byte	.LBB457
 17141 0604 40000000 		.4byte	.LBE457
 17142 0608 00000000 		.4byte	0
 17143 060c 00000000 		.4byte	0
 17144 0610 4E000000 		.4byte	.LBB458
 17145 0614 50000000 		.4byte	.LBE458
 17146 0618 56000000 		.4byte	.LBB461
 17147 061c 58000000 		.4byte	.LBE461
 17148 0620 00000000 		.4byte	0
 17149 0624 00000000 		.4byte	0
 17150 0628 00000000 		.4byte	.LBB462
 17151 062c 06000000 		.4byte	.LBE462
 17152 0630 0E000000 		.4byte	.LBB467
 17153 0634 14000000 		.4byte	.LBE467
 17154 0638 16000000 		.4byte	.LBB473
 17155 063c 18000000 		.4byte	.LBE473
 17156 0640 1C000000 		.4byte	.LBB480
 17157 0644 20000000 		.4byte	.LBE480
 17158 0648 00000000 		.4byte	0
 17159 064c 00000000 		.4byte	0
 17160 0650 14000000 		.4byte	.LBB468
 17161 0654 16000000 		.4byte	.LBE468
ARM GAS  /var/folders/d2/nstgp4h54kz7g1l847x_b8wc0000gn/T//cccORz8f.s 			page 305


 17162 0658 18000000 		.4byte	.LBB474
 17163 065c 1A000000 		.4byte	.LBE474
 17164 0660 20000000 		.4byte	.LBB481
 17165 0664 22000000 		.4byte	.LBE481
 17166 0668 26000000 		.4byte	.LBB488
 17167 066c 2A000000 		.4byte	.LBE488
 17168 0670 00000000 		.4byte	0
 17169 0674 00000000 		.4byte	0
 17170 0678 1A000000 		.4byte	.LBB475
 17171 067c 1C000000 		.4byte	.LBE475
 17172 0680 22000000 		.4byte	.LBB482
 17173 0684 24000000 		.4byte	.LBE482
 17174 0688 2A000000 		.4byte	.LBB489
 17175 068c 2C000000 		.4byte	.LBE489
 17176 0690 2E000000 		.4byte	.LBB491
 17177 0694 32000000 		.4byte	.LBE491
 17178 0698 00000000 		.4byte	0
 17179 069c 00000000 		.4byte	0
 17180 06a0 24000000 		.4byte	.LBB483
 17181 06a4 26000000 		.4byte	.LBE483
 17182 06a8 2C000000 		.4byte	.LBB490
 17183 06ac 2E000000 		.4byte	.LBE490
 17184 06b0 32000000 		.4byte	.LBB492
 17185 06b4 34000000 		.4byte	.LBE492
 17186 06b8 36000000 		.4byte	.LBB496
 17187 06bc 3A000000 		.4byte	.LBE496
 17188 06c0 00000000 		.4byte	0
 17189 06c4 00000000 		.4byte	0
 17190 06c8 34000000 		.4byte	.LBB493
 17191 06cc 36000000 		.4byte	.LBE493
 17192 06d0 3A000000 		.4byte	.LBB497
 17193 06d4 3C000000 		.4byte	.LBE497
 17194 06d8 00000000 		.4byte	0
 17195 06dc 00000000 		.4byte	0
 17196 06e0 00000000 		.4byte	.LBB498
 17197 06e4 04000000 		.4byte	.LBE498
 17198 06e8 08000000 		.4byte	.LBB504
 17199 06ec 0E000000 		.4byte	.LBE504
 17200 06f0 10000000 		.4byte	.LBB505
 17201 06f4 12000000 		.4byte	.LBE505
 17202 06f8 14000000 		.4byte	.LBB511
 17203 06fc 16000000 		.4byte	.LBE511
 17204 0700 1A000000 		.4byte	.LBB518
 17205 0704 1E000000 		.4byte	.LBE518
 17206 0708 00000000 		.4byte	0
 17207 070c 00000000 		.4byte	0
 17208 0710 12000000 		.4byte	.LBB506
 17209 0714 14000000 		.4byte	.LBE506
 17210 0718 16000000 		.4byte	.LBB512
 17211 071c 18000000 		.4byte	.LBE512
 17212 0720 1E000000 		.4byte	.LBB519
 17213 0724 20000000 		.4byte	.LBE519
 17214 0728 22000000 		.4byte	.LBB521
 17215 072c 26000000 		.4byte	.LBE521
 17216 0730 00000000 		.4byte	0
 17217 0734 00000000 		.4byte	0
 17218 0738 18000000 		.4byte	.LBB513
ARM GAS  /var/folders/d2/nstgp4h54kz7g1l847x_b8wc0000gn/T//cccORz8f.s 			page 306


 17219 073c 1A000000 		.4byte	.LBE513
 17220 0740 20000000 		.4byte	.LBB520
 17221 0744 22000000 		.4byte	.LBE520
 17222 0748 26000000 		.4byte	.LBB522
 17223 074c 28000000 		.4byte	.LBE522
 17224 0750 2A000000 		.4byte	.LBB526
 17225 0754 2E000000 		.4byte	.LBE526
 17226 0758 00000000 		.4byte	0
 17227 075c 00000000 		.4byte	0
 17228 0760 28000000 		.4byte	.LBB523
 17229 0764 2A000000 		.4byte	.LBE523
 17230 0768 2E000000 		.4byte	.LBB527
 17231 076c 30000000 		.4byte	.LBE527
 17232 0770 00000000 		.4byte	0
 17233 0774 00000000 		.4byte	0
 17234 0778 04000000 		.4byte	.LBB528
 17235 077c 08000000 		.4byte	.LBE528
 17236 0780 10000000 		.4byte	.LBB532
 17237 0784 14000000 		.4byte	.LBE532
 17238 0788 18000000 		.4byte	.LBB533
 17239 078c 1C000000 		.4byte	.LBE533
 17240 0790 00000000 		.4byte	0
 17241 0794 00000000 		.4byte	0
 17242 0798 1C000000 		.4byte	.LBB534
 17243 079c 1E000000 		.4byte	.LBE534
 17244 07a0 24000000 		.4byte	.LBB537
 17245 07a4 26000000 		.4byte	.LBE537
 17246 07a8 00000000 		.4byte	0
 17247 07ac 00000000 		.4byte	0
 17248 07b0 04000000 		.4byte	.LBB538
 17249 07b4 0A000000 		.4byte	.LBE538
 17250 07b8 0E000000 		.4byte	.LBB542
 17251 07bc 14000000 		.4byte	.LBE542
 17252 07c0 16000000 		.4byte	.LBB547
 17253 07c4 18000000 		.4byte	.LBE547
 17254 07c8 00000000 		.4byte	0
 17255 07cc 00000000 		.4byte	0
 17256 07d0 14000000 		.4byte	.LBB543
 17257 07d4 16000000 		.4byte	.LBE543
 17258 07d8 18000000 		.4byte	.LBB548
 17259 07dc 1A000000 		.4byte	.LBE548
 17260 07e0 20000000 		.4byte	.LBB553
 17261 07e4 22000000 		.4byte	.LBE553
 17262 07e8 00000000 		.4byte	0
 17263 07ec 00000000 		.4byte	0
 17264 07f0 1A000000 		.4byte	.LBB549
 17265 07f4 1C000000 		.4byte	.LBE549
 17266 07f8 22000000 		.4byte	.LBB554
 17267 07fc 24000000 		.4byte	.LBE554
 17268 0800 2A000000 		.4byte	.LBB559
 17269 0804 2C000000 		.4byte	.LBE559
 17270 0808 00000000 		.4byte	0
 17271 080c 00000000 		.4byte	0
 17272 0810 24000000 		.4byte	.LBB555
 17273 0814 26000000 		.4byte	.LBE555
 17274 0818 2C000000 		.4byte	.LBB560
 17275 081c 2E000000 		.4byte	.LBE560
ARM GAS  /var/folders/d2/nstgp4h54kz7g1l847x_b8wc0000gn/T//cccORz8f.s 			page 307


 17276 0820 32000000 		.4byte	.LBB561
 17277 0824 34000000 		.4byte	.LBE561
 17278 0828 00000000 		.4byte	0
 17279 082c 00000000 		.4byte	0
 17280 0830 34000000 		.4byte	.LBB562
 17281 0834 36000000 		.4byte	.LBE562
 17282 0838 3A000000 		.4byte	.LBB565
 17283 083c 3C000000 		.4byte	.LBE565
 17284 0840 00000000 		.4byte	0
 17285 0844 00000000 		.4byte	0
 17286 0848 4A000000 		.4byte	.LBB566
 17287 084c 98000000 		.4byte	.LBE566
 17288 0850 9A000000 		.4byte	.LBB567
 17289 0854 A6000000 		.4byte	.LBE567
 17290 0858 B8000000 		.4byte	.LBB568
 17291 085c CE000000 		.4byte	.LBE568
 17292 0860 D4000000 		.4byte	.LBB569
 17293 0864 D8000000 		.4byte	.LBE569
 17294 0868 00000000 		.4byte	0
 17295 086c 00000000 		.4byte	0
 17296 0870 04000000 		.4byte	.LBB570
 17297 0874 0A000000 		.4byte	.LBE570
 17298 0878 0C000000 		.4byte	.LBB574
 17299 087c 12000000 		.4byte	.LBE574
 17300 0880 14000000 		.4byte	.LBB580
 17301 0884 16000000 		.4byte	.LBE580
 17302 0888 00000000 		.4byte	0
 17303 088c 00000000 		.4byte	0
 17304 0890 12000000 		.4byte	.LBB575
 17305 0894 14000000 		.4byte	.LBE575
 17306 0898 16000000 		.4byte	.LBB581
 17307 089c 18000000 		.4byte	.LBE581
 17308 08a0 1E000000 		.4byte	.LBB587
 17309 08a4 20000000 		.4byte	.LBE587
 17310 08a8 22000000 		.4byte	.LBB589
 17311 08ac 26000000 		.4byte	.LBE589
 17312 08b0 00000000 		.4byte	0
 17313 08b4 00000000 		.4byte	0
 17314 08b8 18000000 		.4byte	.LBB582
 17315 08bc 1A000000 		.4byte	.LBE582
 17316 08c0 20000000 		.4byte	.LBB588
 17317 08c4 22000000 		.4byte	.LBE588
 17318 08c8 26000000 		.4byte	.LBB590
 17319 08cc 28000000 		.4byte	.LBE590
 17320 08d0 2A000000 		.4byte	.LBB594
 17321 08d4 2E000000 		.4byte	.LBE594
 17322 08d8 00000000 		.4byte	0
 17323 08dc 00000000 		.4byte	0
 17324 08e0 28000000 		.4byte	.LBB591
 17325 08e4 2A000000 		.4byte	.LBE591
 17326 08e8 2E000000 		.4byte	.LBB595
 17327 08ec 30000000 		.4byte	.LBE595
 17328 08f0 00000000 		.4byte	0
 17329 08f4 00000000 		.4byte	0
 17330 08f8 42000000 		.4byte	.LBB596
 17331 08fc 5C000000 		.4byte	.LBE596
 17332 0900 60000000 		.4byte	.LBB601
ARM GAS  /var/folders/d2/nstgp4h54kz7g1l847x_b8wc0000gn/T//cccORz8f.s 			page 308


 17333 0904 62000000 		.4byte	.LBE601
 17334 0908 64000000 		.4byte	.LBB602
 17335 090c 88000000 		.4byte	.LBE602
 17336 0910 8C000000 		.4byte	.LBB603
 17337 0914 8E000000 		.4byte	.LBE603
 17338 0918 00000000 		.4byte	0
 17339 091c 00000000 		.4byte	0
 17340 0920 42000000 		.4byte	.LBB597
 17341 0924 5C000000 		.4byte	.LBE597
 17342 0928 80000000 		.4byte	.LBB600
 17343 092c 88000000 		.4byte	.LBE600
 17344 0930 00000000 		.4byte	0
 17345 0934 00000000 		.4byte	0
 17346 0938 04000000 		.4byte	.LBB604
 17347 093c 08000000 		.4byte	.LBE604
 17348 0940 0C000000 		.4byte	.LBB609
 17349 0944 0E000000 		.4byte	.LBE609
 17350 0948 10000000 		.4byte	.LBB610
 17351 094c 16000000 		.4byte	.LBE610
 17352 0950 18000000 		.4byte	.LBB616
 17353 0954 1C000000 		.4byte	.LBE616
 17354 0958 00000000 		.4byte	0
 17355 095c 00000000 		.4byte	0
 17356 0960 16000000 		.4byte	.LBB611
 17357 0964 18000000 		.4byte	.LBE611
 17358 0968 1C000000 		.4byte	.LBB617
 17359 096c 1E000000 		.4byte	.LBE617
 17360 0970 22000000 		.4byte	.LBB618
 17361 0974 26000000 		.4byte	.LBE618
 17362 0978 28000000 		.4byte	.LBB622
 17363 097c 2C000000 		.4byte	.LBE622
 17364 0980 00000000 		.4byte	0
 17365 0984 00000000 		.4byte	0
 17366 0988 26000000 		.4byte	.LBB619
 17367 098c 28000000 		.4byte	.LBE619
 17368 0990 2C000000 		.4byte	.LBB623
 17369 0994 30000000 		.4byte	.LBE623
 17370 0998 00000000 		.4byte	0
 17371 099c 00000000 		.4byte	0
 17372 09a0 44000000 		.4byte	.LBB624
 17373 09a4 58000000 		.4byte	.LBE624
 17374 09a8 5A000000 		.4byte	.LBB625
 17375 09ac 60000000 		.4byte	.LBE625
 17376 09b0 00000000 		.4byte	0
 17377 09b4 00000000 		.4byte	0
 17378 09b8 04000000 		.4byte	.LBB626
 17379 09bc 08000000 		.4byte	.LBE626
 17380 09c0 0C000000 		.4byte	.LBB631
 17381 09c4 0E000000 		.4byte	.LBE631
 17382 09c8 10000000 		.4byte	.LBB632
 17383 09cc 16000000 		.4byte	.LBE632
 17384 09d0 18000000 		.4byte	.LBB638
 17385 09d4 1C000000 		.4byte	.LBE638
 17386 09d8 00000000 		.4byte	0
 17387 09dc 00000000 		.4byte	0
 17388 09e0 16000000 		.4byte	.LBB633
 17389 09e4 18000000 		.4byte	.LBE633
ARM GAS  /var/folders/d2/nstgp4h54kz7g1l847x_b8wc0000gn/T//cccORz8f.s 			page 309


 17390 09e8 1C000000 		.4byte	.LBB639
 17391 09ec 1E000000 		.4byte	.LBE639
 17392 09f0 22000000 		.4byte	.LBB640
 17393 09f4 26000000 		.4byte	.LBE640
 17394 09f8 28000000 		.4byte	.LBB644
 17395 09fc 2C000000 		.4byte	.LBE644
 17396 0a00 00000000 		.4byte	0
 17397 0a04 00000000 		.4byte	0
 17398 0a08 26000000 		.4byte	.LBB641
 17399 0a0c 28000000 		.4byte	.LBE641
 17400 0a10 2C000000 		.4byte	.LBB645
 17401 0a14 30000000 		.4byte	.LBE645
 17402 0a18 00000000 		.4byte	0
 17403 0a1c 00000000 		.4byte	0
 17404 0a20 44000000 		.4byte	.LBB646
 17405 0a24 5E000000 		.4byte	.LBE646
 17406 0a28 60000000 		.4byte	.LBB651
 17407 0a2c 66000000 		.4byte	.LBE651
 17408 0a30 00000000 		.4byte	0
 17409 0a34 00000000 		.4byte	0
 17410 0a38 4C000000 		.4byte	.LBB647
 17411 0a3c 56000000 		.4byte	.LBE647
 17412 0a40 58000000 		.4byte	.LBB650
 17413 0a44 5C000000 		.4byte	.LBE650
 17414 0a48 00000000 		.4byte	0
 17415 0a4c 00000000 		.4byte	0
 17416 0a50 06000000 		.4byte	.LBB652
 17417 0a54 0A000000 		.4byte	.LBE652
 17418 0a58 12000000 		.4byte	.LBB657
 17419 0a5c 18000000 		.4byte	.LBE657
 17420 0a60 1C000000 		.4byte	.LBB658
 17421 0a64 1E000000 		.4byte	.LBE658
 17422 0a68 20000000 		.4byte	.LBB663
 17423 0a6c 22000000 		.4byte	.LBE663
 17424 0a70 00000000 		.4byte	0
 17425 0a74 00000000 		.4byte	0
 17426 0a78 1E000000 		.4byte	.LBB659
 17427 0a7c 20000000 		.4byte	.LBE659
 17428 0a80 22000000 		.4byte	.LBB664
 17429 0a84 24000000 		.4byte	.LBE664
 17430 0a88 28000000 		.4byte	.LBB665
 17431 0a8c 2A000000 		.4byte	.LBE665
 17432 0a90 00000000 		.4byte	0
 17433 0a94 00000000 		.4byte	0
 17434 0a98 2A000000 		.4byte	.LBB666
 17435 0a9c 2C000000 		.4byte	.LBE666
 17436 0aa0 30000000 		.4byte	.LBB669
 17437 0aa4 32000000 		.4byte	.LBE669
 17438 0aa8 00000000 		.4byte	0
 17439 0aac 00000000 		.4byte	0
 17440 0ab0 42000000 		.4byte	.LBB670
 17441 0ab4 48000000 		.4byte	.LBE670
 17442 0ab8 4C000000 		.4byte	.LBB673
 17443 0abc 52000000 		.4byte	.LBE673
 17444 0ac0 00000000 		.4byte	0
 17445 0ac4 00000000 		.4byte	0
 17446 0ac8 00000000 		.4byte	.LBB674
ARM GAS  /var/folders/d2/nstgp4h54kz7g1l847x_b8wc0000gn/T//cccORz8f.s 			page 310


 17447 0acc 04000000 		.4byte	.LBE674
 17448 0ad0 08000000 		.4byte	.LBB679
 17449 0ad4 0E000000 		.4byte	.LBE679
 17450 0ad8 12000000 		.4byte	.LBB680
 17451 0adc 14000000 		.4byte	.LBE680
 17452 0ae0 16000000 		.4byte	.LBB686
 17453 0ae4 18000000 		.4byte	.LBE686
 17454 0ae8 00000000 		.4byte	0
 17455 0aec 00000000 		.4byte	0
 17456 0af0 14000000 		.4byte	.LBB681
 17457 0af4 16000000 		.4byte	.LBE681
 17458 0af8 18000000 		.4byte	.LBB687
 17459 0afc 1A000000 		.4byte	.LBE687
 17460 0b00 1E000000 		.4byte	.LBB688
 17461 0b04 20000000 		.4byte	.LBE688
 17462 0b08 22000000 		.4byte	.LBB692
 17463 0b0c 26000000 		.4byte	.LBE692
 17464 0b10 00000000 		.4byte	0
 17465 0b14 00000000 		.4byte	0
 17466 0b18 20000000 		.4byte	.LBB689
 17467 0b1c 22000000 		.4byte	.LBE689
 17468 0b20 26000000 		.4byte	.LBB693
 17469 0b24 28000000 		.4byte	.LBE693
 17470 0b28 00000000 		.4byte	0
 17471 0b2c 00000000 		.4byte	0
 17472 0b30 42000000 		.4byte	.LBB694
 17473 0b34 8C000000 		.4byte	.LBE694
 17474 0b38 90000000 		.4byte	.LBB701
 17475 0b3c 92000000 		.4byte	.LBE701
 17476 0b40 A4000000 		.4byte	.LBB702
 17477 0b44 A6000000 		.4byte	.LBE702
 17478 0b48 AA000000 		.4byte	.LBB703
 17479 0b4c AC000000 		.4byte	.LBE703
 17480 0b50 00000000 		.4byte	0
 17481 0b54 00000000 		.4byte	0
 17482 0b58 50000000 		.4byte	.LBB695
 17483 0b5c 54000000 		.4byte	.LBE695
 17484 0b60 5A000000 		.4byte	.LBB699
 17485 0b64 8C000000 		.4byte	.LBE699
 17486 0b68 A4000000 		.4byte	.LBB700
 17487 0b6c A6000000 		.4byte	.LBE700
 17488 0b70 00000000 		.4byte	0
 17489 0b74 00000000 		.4byte	0
 17490 0b78 06000000 		.4byte	.LBB704
 17491 0b7c 0A000000 		.4byte	.LBE704
 17492 0b80 12000000 		.4byte	.LBB708
 17493 0b84 18000000 		.4byte	.LBE708
 17494 0b88 1A000000 		.4byte	.LBB713
 17495 0b8c 1C000000 		.4byte	.LBE713
 17496 0b90 00000000 		.4byte	0
 17497 0b94 00000000 		.4byte	0
 17498 0b98 18000000 		.4byte	.LBB709
 17499 0b9c 1A000000 		.4byte	.LBE709
 17500 0ba0 1C000000 		.4byte	.LBB714
 17501 0ba4 1E000000 		.4byte	.LBE714
 17502 0ba8 24000000 		.4byte	.LBB720
 17503 0bac 26000000 		.4byte	.LBE720
ARM GAS  /var/folders/d2/nstgp4h54kz7g1l847x_b8wc0000gn/T//cccORz8f.s 			page 311


 17504 0bb0 00000000 		.4byte	0
 17505 0bb4 00000000 		.4byte	0
 17506 0bb8 1E000000 		.4byte	.LBB715
 17507 0bbc 20000000 		.4byte	.LBE715
 17508 0bc0 26000000 		.4byte	.LBB721
 17509 0bc4 28000000 		.4byte	.LBE721
 17510 0bc8 2C000000 		.4byte	.LBB722
 17511 0bcc 2E000000 		.4byte	.LBE722
 17512 0bd0 30000000 		.4byte	.LBB726
 17513 0bd4 34000000 		.4byte	.LBE726
 17514 0bd8 00000000 		.4byte	0
 17515 0bdc 00000000 		.4byte	0
 17516 0be0 2E000000 		.4byte	.LBB723
 17517 0be4 30000000 		.4byte	.LBE723
 17518 0be8 34000000 		.4byte	.LBB727
 17519 0bec 36000000 		.4byte	.LBE727
 17520 0bf0 00000000 		.4byte	0
 17521 0bf4 00000000 		.4byte	0
 17522 0bf8 00000000 		.4byte	.LBB729
 17523 0bfc 04000000 		.4byte	.LBE729
 17524 0c00 06000000 		.4byte	.LBB732
 17525 0c04 10000000 		.4byte	.LBE732
 17526 0c08 00000000 		.4byte	0
 17527 0c0c 00000000 		.4byte	0
 17528 0c10 10000000 		.4byte	.LBB733
 17529 0c14 12000000 		.4byte	.LBE733
 17530 0c18 18000000 		.4byte	.LBB736
 17531 0c1c 1A000000 		.4byte	.LBE736
 17532 0c20 00000000 		.4byte	0
 17533 0c24 00000000 		.4byte	0
 17534 0c28 2E000000 		.4byte	.LBB737
 17535 0c2c 48000000 		.4byte	.LBE737
 17536 0c30 4A000000 		.4byte	.LBB740
 17537 0c34 4C000000 		.4byte	.LBE740
 17538 0c38 00000000 		.4byte	0
 17539 0c3c 00000000 		.4byte	0
 17540 0c40 00000000 		.4byte	.LFB31
 17541 0c44 BC000000 		.4byte	.LFE31
 17542 0c48 00000000 		.4byte	.LFB1
 17543 0c4c 40000000 		.4byte	.LFE1
 17544 0c50 00000000 		.4byte	.LFB2
 17545 0c54 88000000 		.4byte	.LFE2
 17546 0c58 00000000 		.4byte	.LFB3
 17547 0c5c 2C000000 		.4byte	.LFE3
 17548 0c60 00000000 		.4byte	.LFB4
 17549 0c64 5C000000 		.4byte	.LFE4
 17550 0c68 00000000 		.4byte	.LFB5
 17551 0c6c 90000000 		.4byte	.LFE5
 17552 0c70 00000000 		.4byte	.LFB6
 17553 0c74 60000000 		.4byte	.LFE6
 17554 0c78 00000000 		.4byte	.LFB7
 17555 0c7c 5C000000 		.4byte	.LFE7
 17556 0c80 00000000 		.4byte	.LFB8
 17557 0c84 7C000000 		.4byte	.LFE8
 17558 0c88 00000000 		.4byte	.LFB9
 17559 0c8c 7C000000 		.4byte	.LFE9
 17560 0c90 00000000 		.4byte	.LFB10
ARM GAS  /var/folders/d2/nstgp4h54kz7g1l847x_b8wc0000gn/T//cccORz8f.s 			page 312


 17561 0c94 80000000 		.4byte	.LFE10
 17562 0c98 00000000 		.4byte	.LFB11
 17563 0c9c 80000000 		.4byte	.LFE11
 17564 0ca0 00000000 		.4byte	.LFB12
 17565 0ca4 C4000000 		.4byte	.LFE12
 17566 0ca8 00000000 		.4byte	.LFB13
 17567 0cac 80000000 		.4byte	.LFE13
 17568 0cb0 00000000 		.4byte	.LFB14
 17569 0cb4 80000000 		.4byte	.LFE14
 17570 0cb8 00000000 		.4byte	.LFB15
 17571 0cbc AC000000 		.4byte	.LFE15
 17572 0cc0 00000000 		.4byte	.LFB16
 17573 0cc4 B4000000 		.4byte	.LFE16
 17574 0cc8 00000000 		.4byte	.LFB17
 17575 0ccc D0000000 		.4byte	.LFE17
 17576 0cd0 00000000 		.4byte	.LFB18
 17577 0cd4 A4000000 		.4byte	.LFE18
 17578 0cd8 00000000 		.4byte	.LFB19
 17579 0cdc 44000000 		.4byte	.LFE19
 17580 0ce0 00000000 		.4byte	.LFB20
 17581 0ce4 E0000000 		.4byte	.LFE20
 17582 0ce8 00000000 		.4byte	.LFB21
 17583 0cec AC000000 		.4byte	.LFE21
 17584 0cf0 00000000 		.4byte	.LFB22
 17585 0cf4 7C000000 		.4byte	.LFE22
 17586 0cf8 00000000 		.4byte	.LFB23
 17587 0cfc 80000000 		.4byte	.LFE23
 17588 0d00 00000000 		.4byte	.LFB24
 17589 0d04 90000000 		.4byte	.LFE24
 17590 0d08 00000000 		.4byte	.LFB25
 17591 0d0c B8000000 		.4byte	.LFE25
 17592 0d10 00000000 		.4byte	.LFB26
 17593 0d14 54010000 		.4byte	.LFE26
 17594 0d18 00000000 		.4byte	.LFB27
 17595 0d1c 28000000 		.4byte	.LFE27
 17596 0d20 00000000 		.4byte	.LFB28
 17597 0d24 44000000 		.4byte	.LFE28
 17598 0d28 00000000 		.4byte	.LFB29
 17599 0d2c 78000000 		.4byte	.LFE29
 17600 0d30 00000000 		.4byte	0
 17601 0d34 00000000 		.4byte	0
 17602              		.section	.debug_line,"",%progbits
 17603              	.Ldebug_line0:
 17604 0000 100D0000 		.section	.debug_str,"MS",%progbits,1
 17604      02005202 
 17604      00000201 
 17604      FB0E0D00 
 17604      01010101 
 17605              	.LASF181:
 17606 0000 6E616D65 		.ascii	"name\000"
 17606      00
 17607              	.LASF243:
 17608 0005 41736562 		.ascii	"AsebaNative_vecargbounds\000"
 17608      614E6174 
 17608      6976655F 
 17608      76656361 
 17608      7267626F 
ARM GAS  /var/folders/d2/nstgp4h54kz7g1l847x_b8wc0000gn/T//cccORz8f.s 			page 313


 17609              	.LASF249:
 17610 001e 73726331 		.ascii	"src1\000"
 17610      00
 17611              	.LASF269:
 17612 0023 696E7075 		.ascii	"input\000"
 17612      7400
 17613              	.LASF184:
 17614 0029 41736562 		.ascii	"AsebaNativeFunctionDescription\000"
 17614      614E6174 
 17614      69766546 
 17614      756E6374 
 17614      696F6E44 
 17615              	.LASF79:
 17616 0048 5F6F6E5F 		.ascii	"_on_exit_args\000"
 17616      65786974 
 17616      5F617267 
 17616      7300
 17617              	.LASF242:
 17618 0056 41736562 		.ascii	"AsebaNative_vecsort\000"
 17618      614E6174 
 17618      6976655F 
 17618      76656373 
 17618      6F727400 
 17619              	.LASF146:
 17620 006a 5F776374 		.ascii	"_wctomb_state\000"
 17620      6F6D625F 
 17620      73746174 
 17620      6500
 17621              	.LASF204:
 17622 0078 41736562 		.ascii	"AsebaNativeDescription_mathsqrt\000"
 17622      614E6174 
 17622      69766544 
 17622      65736372 
 17622      69707469 
 17623              	.LASF176:
 17624 0098 666C6167 		.ascii	"flags\000"
 17624      7300
 17625              	.LASF172:
 17626 009e 76617269 		.ascii	"variablesSize\000"
 17626      61626C65 
 17626      7353697A 
 17626      6500
 17627              	.LASF143:
 17628 00ac 5F723438 		.ascii	"_r48\000"
 17628      00
 17629              	.LASF227:
 17630 00b1 41736562 		.ascii	"AsebaNative_mathrot2\000"
 17630      614E6174 
 17630      6976655F 
 17630      6D617468 
 17630      726F7432 
 17631              	.LASF240:
 17632 00c6 62496E64 		.ascii	"bIndex\000"
 17632      657800
 17633              	.LASF43:
 17634 00cd 41534542 		.ascii	"ASEBA_MESSAGE_INVALID\000"
 17634      415F4D45 
ARM GAS  /var/folders/d2/nstgp4h54kz7g1l847x_b8wc0000gn/T//cccORz8f.s 			page 314


 17634      53534147 
 17634      455F494E 
 17634      56414C49 
 17635              	.LASF35:
 17636 00e3 41534542 		.ascii	"ASEBA_MESSAGE_BREAKPOINT_CLEAR_ALL\000"
 17636      415F4D45 
 17636      53534147 
 17636      455F4252 
 17636      45414B50 
 17637              	.LASF148:
 17638 0106 5F736967 		.ascii	"_signal_buf\000"
 17638      6E616C5F 
 17638      62756600 
 17639              	.LASF44:
 17640 0112 756E7369 		.ascii	"unsigned int\000"
 17640      676E6564 
 17640      20696E74 
 17640      00
 17641              	.LASF230:
 17642 011f 616E676C 		.ascii	"angleIndex\000"
 17642      65496E64 
 17642      657800
 17643              	.LASF178:
 17644 012a 62726561 		.ascii	"breakpointsCount\000"
 17644      6B706F69 
 17644      6E747343 
 17644      6F756E74 
 17644      00
 17645              	.LASF8:
 17646 013b 41534542 		.ascii	"ASEBA_MESSAGE_BOOTLOADER_PAGE_DATA_WRITE\000"
 17646      415F4D45 
 17646      53534147 
 17646      455F424F 
 17646      4F544C4F 
 17647              	.LASF93:
 17648 0164 5F6C6266 		.ascii	"_lbfsize\000"
 17648      73697A65 
 17648      00
 17649              	.LASF91:
 17650 016d 5F666C61 		.ascii	"_flags\000"
 17650      677300
 17651              	.LASF219:
 17652 0174 696E6465 		.ascii	"index\000"
 17652      7800
 17653              	.LASF26:
 17654 017a 41534542 		.ascii	"ASEBA_MESSAGE_SET_BYTECODE\000"
 17654      415F4D45 
 17654      53534147 
 17654      455F5345 
 17654      545F4259 
 17655              	.LASF108:
 17656 0195 5F657272 		.ascii	"_errno\000"
 17656      6E6F00
 17657              	.LASF21:
 17658 019c 41534542 		.ascii	"ASEBA_MESSAGE_NODE_SPECIFIC_ERROR\000"
 17658      415F4D45 
 17658      53534147 
ARM GAS  /var/folders/d2/nstgp4h54kz7g1l847x_b8wc0000gn/T//cccORz8f.s 			page 315


 17658      455F4E4F 
 17658      44455F53 
 17659              	.LASF42:
 17660 01be 41534542 		.ascii	"ASEBA_MESSAGE_LIST_NODES\000"
 17660      415F4D45 
 17660      53534147 
 17660      455F4C49 
 17660      53545F4E 
 17661              	.LASF199:
 17662 01d7 41736562 		.ascii	"AsebaNativeDescription_mathmuldiv\000"
 17662      614E6174 
 17662      69766544 
 17662      65736372 
 17662      69707469 
 17663              	.LASF12:
 17664 01f9 41534542 		.ascii	"ASEBA_MESSAGE_DESCRIPTION\000"
 17664      415F4D45 
 17664      53534147 
 17664      455F4445 
 17664      53435249 
 17665              	.LASF179:
 17666 0213 41736562 		.ascii	"AsebaVMState\000"
 17666      61564D53 
 17666      74617465 
 17666      00
 17667              	.LASF23:
 17668 0220 41534542 		.ascii	"ASEBA_MESSAGE_BREAKPOINT_SET_RESULT\000"
 17668      415F4D45 
 17668      53534147 
 17668      455F4252 
 17668      45414B50 
 17669              	.LASF263:
 17670 0244 7363616C 		.ascii	"scalar\000"
 17670      617200
 17671              	.LASF1:
 17672 024b 41534542 		.ascii	"ASEBA_VM_STEP_BY_STEP_MASK\000"
 17672      415F564D 
 17672      5F535445 
 17672      505F4259 
 17672      5F535445 
 17673              	.LASF105:
 17674 0266 5F6D6273 		.ascii	"_mbstate\000"
 17674      74617465 
 17674      00
 17675              	.LASF221:
 17676 026f 62657374 		.ascii	"bestSeqLength\000"
 17676      5365714C 
 17676      656E6774 
 17676      6800
 17677              	.LASF264:
 17678 027d 7363616C 		.ascii	"scalarValue\000"
 17678      61725661 
 17678      6C756500 
 17679              	.LASF32:
 17680 0289 41534542 		.ascii	"ASEBA_MESSAGE_GET_EXECUTION_STATE\000"
 17680      415F4D45 
 17680      53534147 
ARM GAS  /var/folders/d2/nstgp4h54kz7g1l847x_b8wc0000gn/T//cccORz8f.s 			page 316


 17680      455F4745 
 17680      545F4558 
 17681              	.LASF286:
 17682 02ab 2E2E2F65 		.ascii	"../e-puck2_main-processor/aseba/vm/natives.c\000"
 17682      2D707563 
 17682      6B325F6D 
 17682      61696E2D 
 17682      70726F63 
 17683              	.LASF13:
 17684 02d8 41534542 		.ascii	"ASEBA_MESSAGE_NAMED_VARIABLE_DESCRIPTION\000"
 17684      415F4D45 
 17684      53534147 
 17684      455F4E41 
 17684      4D45445F 
 17685              	.LASF14:
 17686 0301 41534542 		.ascii	"ASEBA_MESSAGE_LOCAL_EVENT_DESCRIPTION\000"
 17686      415F4D45 
 17686      53534147 
 17686      455F4C4F 
 17686      43414C5F 
 17687              	.LASF169:
 17688 0327 6E6F6465 		.ascii	"nodeId\000"
 17688      496400
 17689              	.LASF201:
 17690 032e 41736562 		.ascii	"AsebaNativeDescription_mathsin\000"
 17690      614E6174 
 17690      69766544 
 17690      65736372 
 17690      69707469 
 17691              	.LASF281:
 17692 034d 73756270 		.ascii	"subprecision_rest\000"
 17692      72656369 
 17692      73696F6E 
 17692      5F726573 
 17692      7400
 17693              	.LASF110:
 17694 035f 5F737464 		.ascii	"_stdout\000"
 17694      6F757400 
 17695              	.LASF54:
 17696 0367 5F66706F 		.ascii	"_fpos_t\000"
 17696      735F7400 
 17697              	.LASF86:
 17698 036f 5F666E73 		.ascii	"_fns\000"
 17698      00
 17699              	.LASF94:
 17700 0374 5F636F6F 		.ascii	"_cookie\000"
 17700      6B696500 
 17701              	.LASF231:
 17702 037c 6E7A4669 		.ascii	"nzFirstZero\000"
 17702      7273745A 
 17702      65726F00 
 17703              	.LASF7:
 17704 0388 41534542 		.ascii	"ASEBA_MESSAGE_BOOTLOADER_WRITE_PAGE\000"
 17704      415F4D45 
 17704      53534147 
 17704      455F424F 
 17704      4F544C4F 
ARM GAS  /var/folders/d2/nstgp4h54kz7g1l847x_b8wc0000gn/T//cccORz8f.s 			page 317


 17705              	.LASF237:
 17706 03ac 79496E64 		.ascii	"yIndex\000"
 17706      657800
 17707              	.LASF68:
 17708 03b3 5F426967 		.ascii	"_Bigint\000"
 17708      696E7400 
 17709              	.LASF168:
 17710 03bb 41534542 		.ascii	"ASEBA_MAX_BREAKPOINTS\000"
 17710      415F4D41 
 17710      585F4252 
 17710      45414B50 
 17710      4F494E54 
 17711              	.LASF76:
 17712 03d1 5F5F746D 		.ascii	"__tm_wday\000"
 17712      5F776461 
 17712      7900
 17713              	.LASF244:
 17714 03db 6172676D 		.ascii	"argmin\000"
 17714      696E00
 17715              	.LASF118:
 17716 03e2 5F726573 		.ascii	"_result\000"
 17716      756C7400 
 17717              	.LASF278:
 17718 03ea 72657375 		.ascii	"result\000"
 17718      6C7400
 17719              	.LASF210:
 17720 03f1 64657374 		.ascii	"destIndex\000"
 17720      496E6465 
 17720      7800
 17721              	.LASF72:
 17722 03fb 5F5F746D 		.ascii	"__tm_hour\000"
 17722      5F686F75 
 17722      7200
 17723              	.LASF202:
 17724 0405 41736562 		.ascii	"AsebaNativeDescription_mathcos\000"
 17724      614E6174 
 17724      69766544 
 17724      65736372 
 17724      69707469 
 17725              	.LASF58:
 17726 0424 5F5F636F 		.ascii	"__count\000"
 17726      756E7400 
 17727              	.LASF206:
 17728 042c 41736562 		.ascii	"AsebaNativeDescription_rand\000"
 17728      614E6174 
 17728      69766544 
 17728      65736372 
 17728      69707469 
 17729              	.LASF251:
 17730 0448 73686966 		.ascii	"shift\000"
 17730      7400
 17731              	.LASF30:
 17732 044e 41534542 		.ascii	"ASEBA_MESSAGE_STEP\000"
 17732      415F4D45 
 17732      53534147 
 17732      455F5354 
 17732      455000
ARM GAS  /var/folders/d2/nstgp4h54kz7g1l847x_b8wc0000gn/T//cccORz8f.s 			page 318


 17733              	.LASF71:
 17734 0461 5F5F746D 		.ascii	"__tm_min\000"
 17734      5F6D696E 
 17734      00
 17735              	.LASF161:
 17736 046a 5F696D70 		.ascii	"_impure_ptr\000"
 17736      7572655F 
 17736      70747200 
 17737              	.LASF156:
 17738 0476 5F6E6578 		.ascii	"_nextf\000"
 17738      746600
 17739              	.LASF235:
 17740 047d 41736562 		.ascii	"AsebaNative_mathsin\000"
 17740      614E6174 
 17740      6976655F 
 17740      6D617468 
 17740      73696E00 
 17741              	.LASF222:
 17742 0491 62657374 		.ascii	"bestSeqIndex\000"
 17742      53657149 
 17742      6E646578 
 17742      00
 17743              	.LASF133:
 17744 049e 5F72616E 		.ascii	"_rand48\000"
 17744      64343800 
 17745              	.LASF275:
 17746 04a6 73756249 		.ascii	"subIndex\000"
 17746      6E646578 
 17746      00
 17747              	.LASF214:
 17748 04af 73656564 		.ascii	"seed\000"
 17748      00
 17749              	.LASF5:
 17750 04b4 41534542 		.ascii	"ASEBA_MESSAGE_BOOTLOADER_RESET\000"
 17750      415F4D45 
 17750      53534147 
 17750      455F424F 
 17750      4F544C4F 
 17751              	.LASF119:
 17752 04d3 5F726573 		.ascii	"_result_k\000"
 17752      756C745F 
 17752      6B00
 17753              	.LASF51:
 17754 04dd 6C6F6E67 		.ascii	"long long unsigned int\000"
 17754      206C6F6E 
 17754      6720756E 
 17754      7369676E 
 17754      65642069 
 17755              	.LASF139:
 17756 04f4 5F617363 		.ascii	"_asctime_buf\000"
 17756      74696D65 
 17756      5F627566 
 17756      00
 17757              	.LASF90:
 17758 0501 5F5F7346 		.ascii	"__sFILE\000"
 17758      494C4500 
 17759              	.LASF67:
ARM GAS  /var/folders/d2/nstgp4h54kz7g1l847x_b8wc0000gn/T//cccORz8f.s 			page 319


 17760 0509 5F776473 		.ascii	"_wds\000"
 17760      00
 17761              	.LASF253:
 17762 050e 68696768 		.ascii	"high\000"
 17762      00
 17763              	.LASF166:
 17764 0513 73696E74 		.ascii	"sint16\000"
 17764      313600
 17765              	.LASF129:
 17766 051a 5F5F4649 		.ascii	"__FILE\000"
 17766      4C4500
 17767              	.LASF160:
 17768 0521 5F5F6C6F 		.ascii	"__locale_t\000"
 17768      63616C65 
 17768      5F7400
 17769              	.LASF102:
 17770 052c 5F6F6666 		.ascii	"_offset\000"
 17770      73657400 
 17771              	.LASF234:
 17772 0534 41736562 		.ascii	"AsebaNative_mathcos\000"
 17772      614E6174 
 17772      6976655F 
 17772      6D617468 
 17772      636F7300 
 17773              	.LASF266:
 17774 0548 76616C75 		.ascii	"value\000"
 17774      6500
 17775              	.LASF113:
 17776 054e 5F656D65 		.ascii	"_emergency\000"
 17776      7267656E 
 17776      637900
 17777              	.LASF260:
 17778 0559 41736562 		.ascii	"AsebaNative_vecsub\000"
 17778      614E6174 
 17778      6976655F 
 17778      76656373 
 17778      756200
 17779              	.LASF233:
 17780 056c 73696E5F 		.ascii	"sin_a\000"
 17780      6100
 17781              	.LASF250:
 17782 0572 73726332 		.ascii	"src2\000"
 17782      00
 17783              	.LASF279:
 17784 0577 61736562 		.ascii	"aseba_atan2\000"
 17784      615F6174 
 17784      616E3200 
 17785              	.LASF236:
 17786 0583 41736562 		.ascii	"AsebaNative_mathatan2\000"
 17786      614E6174 
 17786      6976655F 
 17786      6D617468 
 17786      6174616E 
 17787              	.LASF197:
 17788 0599 41736562 		.ascii	"AsebaNativeDescription_vecargbounds\000"
 17788      614E6174 
 17788      69766544 
ARM GAS  /var/folders/d2/nstgp4h54kz7g1l847x_b8wc0000gn/T//cccORz8f.s 			page 320


 17788      65736372 
 17788      69707469 
 17789              	.LASF6:
 17790 05bd 41534542 		.ascii	"ASEBA_MESSAGE_BOOTLOADER_READ_PAGE\000"
 17790      415F4D45 
 17790      53534147 
 17790      455F424F 
 17790      4F544C4F 
 17791              	.LASF70:
 17792 05e0 5F5F746D 		.ascii	"__tm_sec\000"
 17792      5F736563 
 17792      00
 17793              	.LASF163:
 17794 05e9 7375626F 		.ascii	"suboptarg\000"
 17794      70746172 
 17794      6700
 17795              	.LASF77:
 17796 05f3 5F5F746D 		.ascii	"__tm_yday\000"
 17796      5F796461 
 17796      7900
 17797              	.LASF112:
 17798 05fd 5F696E63 		.ascii	"_inc\000"
 17798      00
 17799              	.LASF85:
 17800 0602 5F696E64 		.ascii	"_ind\000"
 17800      00
 17801              	.LASF273:
 17802 0607 61736562 		.ascii	"aseba_cos\000"
 17802      615F636F 
 17802      7300
 17803              	.LASF215:
 17804 0611 41736562 		.ascii	"AsebaNative_vecnonzerosequence\000"
 17804      614E6174 
 17804      6976655F 
 17804      7665636E 
 17804      6F6E7A65 
 17805              	.LASF40:
 17806 0630 41534542 		.ascii	"ASEBA_MESSAGE_SUSPEND_TO_RAM\000"
 17806      415F4D45 
 17806      53534147 
 17806      455F5355 
 17806      5350454E 
 17807              	.LASF64:
 17808 064d 5F6E6578 		.ascii	"_next\000"
 17808      7400
 17809              	.LASF282:
 17810 0653 746F5F73 		.ascii	"to_shift\000"
 17810      68696674 
 17810      00
 17811              	.LASF152:
 17812 065c 5F6D6273 		.ascii	"_mbsrtowcs_state\000"
 17812      72746F77 
 17812      63735F73 
 17812      74617465 
 17812      00
 17813              	.LASF225:
 17814 066d 41736562 		.ascii	"AsebaNative_mathsqrt\000"
ARM GAS  /var/folders/d2/nstgp4h54kz7g1l847x_b8wc0000gn/T//cccORz8f.s 			page 321


 17814      614E6174 
 17814      6976655F 
 17814      6D617468 
 17814      73717274 
 17815              	.LASF220:
 17816 0682 73657149 		.ascii	"seqIndex\000"
 17816      6E646578 
 17816      00
 17817              	.LASF191:
 17818 068b 41736562 		.ascii	"AsebaNativeDescription_vecdiv\000"
 17818      614E6174 
 17818      69766544 
 17818      65736372 
 17818      69707469 
 17819              	.LASF186:
 17820 06a9 41736562 		.ascii	"AsebaNativeDescription_vecfill\000"
 17820      614E6174 
 17820      69766544 
 17820      65736372 
 17820      69707469 
 17821              	.LASF59:
 17822 06c8 5F5F7661 		.ascii	"__value\000"
 17822      6C756500 
 17823              	.LASF256:
 17824 06d0 41736562 		.ascii	"AsebaNative_vecdiv\000"
 17824      614E6174 
 17824      6976655F 
 17824      76656364 
 17824      697600
 17825              	.LASF120:
 17826 06e3 5F703573 		.ascii	"_p5s\000"
 17826      00
 17827              	.LASF293:
 17828 06e8 41736562 		.ascii	"AsebaSendMessage\000"
 17828      6153656E 
 17828      644D6573 
 17828      73616765 
 17828      00
 17829              	.LASF164:
 17830 06f9 73696E74 		.ascii	"sint32\000"
 17830      333200
 17831              	.LASF154:
 17832 0700 5F776373 		.ascii	"_wcsrtombs_state\000"
 17832      72746F6D 
 17832      62735F73 
 17832      74617465 
 17832      00
 17833              	.LASF144:
 17834 0711 5F6D626C 		.ascii	"_mblen_state\000"
 17834      656E5F73 
 17834      74617465 
 17834      00
 17835              	.LASF62:
 17836 071e 63686172 		.ascii	"char\000"
 17836      00
 17837              	.LASF73:
 17838 0723 5F5F746D 		.ascii	"__tm_mday\000"
ARM GAS  /var/folders/d2/nstgp4h54kz7g1l847x_b8wc0000gn/T//cccORz8f.s 			page 322


 17838      5F6D6461 
 17838      7900
 17839              	.LASF126:
 17840 072d 5F736967 		.ascii	"_sig_func\000"
 17840      5F66756E 
 17840      6300
 17841              	.LASF151:
 17842 0737 5F6D6272 		.ascii	"_mbrtowc_state\000"
 17842      746F7763 
 17842      5F737461 
 17842      746500
 17843              	.LASF125:
 17844 0746 5F617465 		.ascii	"_atexit0\000"
 17844      78697430 
 17844      00
 17845              	.LASF246:
 17846 074f 41736562 		.ascii	"AsebaNative_vecstat\000"
 17846      614E6174 
 17846      6976655F 
 17846      76656373 
 17846      74617400 
 17847              	.LASF193:
 17848 0763 41736562 		.ascii	"AsebaNativeDescription_vecmax\000"
 17848      614E6174 
 17848      69766544 
 17848      65736372 
 17848      69707469 
 17849              	.LASF257:
 17850 0781 64697669 		.ascii	"dividend\000"
 17850      64656E64 
 17850      00
 17851              	.LASF2:
 17852 078a 41534542 		.ascii	"ASEBA_VM_EVENT_RUNNING_MASK\000"
 17852      415F564D 
 17852      5F455645 
 17852      4E545F52 
 17852      554E4E49 
 17853              	.LASF232:
 17854 07a6 636F735F 		.ascii	"cos_a\000"
 17854      6100
 17855              	.LASF254:
 17856 07ac 41736562 		.ascii	"AsebaNative_vecmax\000"
 17856      614E6174 
 17856      6976655F 
 17856      7665636D 
 17856      617800
 17857              	.LASF9:
 17858 07bf 41534542 		.ascii	"ASEBA_MESSAGE_BOOTLOADER_DESCRIPTION\000"
 17858      415F4D45 
 17858      53534147 
 17858      455F424F 
 17858      4F544C4F 
 17859              	.LASF167:
 17860 07e4 75696E74 		.ascii	"uint16\000"
 17860      313600
 17861              	.LASF61:
 17862 07eb 5F666C6F 		.ascii	"_flock_t\000"
ARM GAS  /var/folders/d2/nstgp4h54kz7g1l847x_b8wc0000gn/T//cccORz8f.s 			page 323


 17862      636B5F74 
 17862      00
 17863              	.LASF262:
 17864 07f4 41736562 		.ascii	"AsebaNative_vecaddscalar\000"
 17864      614E6174 
 17864      6976655F 
 17864      76656361 
 17864      64647363 
 17865              	.LASF10:
 17866 080d 41534542 		.ascii	"ASEBA_MESSAGE_BOOTLOADER_PAGE_DATA_READ\000"
 17866      415F4D45 
 17866      53534147 
 17866      455F424F 
 17866      4F544C4F 
 17867              	.LASF276:
 17868 0835 696E7665 		.ascii	"invert\000"
 17868      727400
 17869              	.LASF56:
 17870 083c 5F5F7763 		.ascii	"__wch\000"
 17870      6800
 17871              	.LASF132:
 17872 0842 5F696F62 		.ascii	"_iobs\000"
 17872      7300
 17873              	.LASF228:
 17874 0848 76656374 		.ascii	"vectOutIndex\000"
 17874      4F757449 
 17874      6E646578 
 17874      00
 17875              	.LASF98:
 17876 0855 5F636C6F 		.ascii	"_close\000"
 17876      736500
 17877              	.LASF290:
 17878 085c 61736562 		.ascii	"aseba_sin\000"
 17878      615F7369 
 17878      6E00
 17879              	.LASF116:
 17880 0866 5F5F7364 		.ascii	"__sdidinit\000"
 17880      6964696E 
 17880      697400
 17881              	.LASF271:
 17882 0871 73776170 		.ascii	"swap\000"
 17882      00
 17883              	.LASF37:
 17884 0876 41534542 		.ascii	"ASEBA_MESSAGE_SET_VARIABLES\000"
 17884      415F4D45 
 17884      53534147 
 17884      455F5345 
 17884      545F5641 
 17885              	.LASF288:
 17886 0892 41736562 		.ascii	"AsebaGetRandom\000"
 17886      61476574 
 17886      52616E64 
 17886      6F6D00
 17887              	.LASF205:
 17888 08a1 41736562 		.ascii	"AsebaNativeDescription_vecnonzerosequence\000"
 17888      614E6174 
 17888      69766544 
ARM GAS  /var/folders/d2/nstgp4h54kz7g1l847x_b8wc0000gn/T//cccORz8f.s 			page 324


 17888      65736372 
 17888      69707469 
 17889              	.LASF109:
 17890 08cb 5F737464 		.ascii	"_stdin\000"
 17890      696E00
 17891              	.LASF141:
 17892 08d2 5F67616D 		.ascii	"_gamma_signgam\000"
 17892      6D615F73 
 17892      69676E67 
 17892      616D00
 17893              	.LASF45:
 17894 08e1 6C6F6E67 		.ascii	"long long int\000"
 17894      206C6F6E 
 17894      6720696E 
 17894      7400
 17895              	.LASF185:
 17896 08ef 41736562 		.ascii	"AsebaNativeDescription_veccopy\000"
 17896      614E6174 
 17896      69766544 
 17896      65736372 
 17896      69707469 
 17897              	.LASF88:
 17898 090e 5F626173 		.ascii	"_base\000"
 17898      6500
 17899              	.LASF121:
 17900 0914 5F667265 		.ascii	"_freelist\000"
 17900      656C6973 
 17900      7400
 17901              	.LASF135:
 17902 091e 5F6D756C 		.ascii	"_mult\000"
 17902      7400
 17903              	.LASF63:
 17904 0924 5F5F554C 		.ascii	"__ULong\000"
 17904      6F6E6700 
 17905              	.LASF194:
 17906 092c 41736562 		.ascii	"AsebaNativeDescription_vecclamp\000"
 17906      614E6174 
 17906      69766544 
 17906      65736372 
 17906      69707469 
 17907              	.LASF27:
 17908 094c 41534542 		.ascii	"ASEBA_MESSAGE_RESET\000"
 17908      415F4D45 
 17908      53534147 
 17908      455F5245 
 17908      53455400 
 17909              	.LASF153:
 17910 0960 5F776372 		.ascii	"_wcrtomb_state\000"
 17910      746F6D62 
 17910      5F737461 
 17910      746500
 17911              	.LASF92:
 17912 096f 5F66696C 		.ascii	"_file\000"
 17912      6500
 17913              	.LASF224:
 17914 0975 6E7A4669 		.ascii	"nzFirstIndex\000"
 17914      72737449 
ARM GAS  /var/folders/d2/nstgp4h54kz7g1l847x_b8wc0000gn/T//cccORz8f.s 			page 325


 17914      6E646578 
 17914      00
 17915              	.LASF226:
 17916 0982 78496E64 		.ascii	"xIndex\000"
 17916      657800
 17917              	.LASF223:
 17918 0989 7365714C 		.ascii	"seqLength\000"
 17918      656E6774 
 17918      6800
 17919              	.LASF117:
 17920 0993 5F5F636C 		.ascii	"__cleanup\000"
 17920      65616E75 
 17920      7000
 17921              	.LASF36:
 17922 099d 41534542 		.ascii	"ASEBA_MESSAGE_GET_VARIABLES\000"
 17922      415F4D45 
 17922      53534147 
 17922      455F4745 
 17922      545F5641 
 17923              	.LASF60:
 17924 09b9 5F6D6273 		.ascii	"_mbstate_t\000"
 17924      74617465 
 17924      5F7400
 17925              	.LASF24:
 17926 09c4 41534542 		.ascii	"ASEBA_MESSAGE_NODE_PRESENT\000"
 17926      415F4D45 
 17926      53534147 
 17926      455F4E4F 
 17926      44455F50 
 17927              	.LASF174:
 17928 09df 73746163 		.ascii	"stackSize\000"
 17928      6B53697A 
 17928      6500
 17929              	.LASF180:
 17930 09e9 73697A65 		.ascii	"size\000"
 17930      00
 17931              	.LASF212:
 17932 09ee 41736562 		.ascii	"AsebaNative_rand\000"
 17932      614E6174 
 17932      6976655F 
 17932      72616E64 
 17932      00
 17933              	.LASF187:
 17934 09ff 41736562 		.ascii	"AsebaNativeDescription_vecaddscalar\000"
 17934      614E6174 
 17934      69766544 
 17934      65736372 
 17934      69707469 
 17935              	.LASF165:
 17936 0a23 75696E74 		.ascii	"uint32\000"
 17936      333200
 17937              	.LASF78:
 17938 0a2a 5F5F746D 		.ascii	"__tm_isdst\000"
 17938      5F697364 
 17938      737400
 17939              	.LASF0:
 17940 0a35 41534542 		.ascii	"ASEBA_VM_EVENT_ACTIVE_MASK\000"
ARM GAS  /var/folders/d2/nstgp4h54kz7g1l847x_b8wc0000gn/T//cccORz8f.s 			page 326


 17940      415F564D 
 17940      5F455645 
 17940      4E545F41 
 17940      43544956 
 17941              	.LASF207:
 17942 0a50 61736562 		.ascii	"aseba_atan_table\000"
 17942      615F6174 
 17942      616E5F74 
 17942      61626C65 
 17942      00
 17943              	.LASF173:
 17944 0a61 76617269 		.ascii	"variables\000"
 17944      61626C65 
 17944      7300
 17945              	.LASF150:
 17946 0a6b 5F6D6272 		.ascii	"_mbrlen_state\000"
 17946      6C656E5F 
 17946      73746174 
 17946      6500
 17947              	.LASF218:
 17948 0a79 6D696E4C 		.ascii	"minLength\000"
 17948      656E6774 
 17948      6800
 17949              	.LASF155:
 17950 0a83 5F685F65 		.ascii	"_h_errno\000"
 17950      72726E6F 
 17950      00
 17951              	.LASF252:
 17952 0a8c 41736562 		.ascii	"AsebaNative_vecclamp\000"
 17952      614E6174 
 17952      6976655F 
 17952      76656363 
 17952      6C616D70 
 17953              	.LASF200:
 17954 0aa1 41736562 		.ascii	"AsebaNativeDescription_mathatan2\000"
 17954      614E6174 
 17954      69766544 
 17954      65736372 
 17954      69707469 
 17955              	.LASF170:
 17956 0ac2 62797465 		.ascii	"bytecodeSize\000"
 17956      636F6465 
 17956      53697A65 
 17956      00
 17957              	.LASF29:
 17958 0acf 41534542 		.ascii	"ASEBA_MESSAGE_PAUSE\000"
 17958      415F4D45 
 17958      53534147 
 17958      455F5041 
 17958      55534500 
 17959              	.LASF74:
 17960 0ae3 5F5F746D 		.ascii	"__tm_mon\000"
 17960      5F6D6F6E 
 17960      00
 17961              	.LASF18:
 17962 0aec 41534542 		.ascii	"ASEBA_MESSAGE_ARRAY_ACCESS_OUT_OF_BOUNDS\000"
 17962      415F4D45 
ARM GAS  /var/folders/d2/nstgp4h54kz7g1l847x_b8wc0000gn/T//cccORz8f.s 			page 327


 17962      53534147 
 17962      455F4152 
 17962      5241595F 
 17963              	.LASF182:
 17964 0b15 41736562 		.ascii	"AsebaNativeFunctionArgumentDescription\000"
 17964      614E6174 
 17964      69766546 
 17964      756E6374 
 17964      696F6E41 
 17965              	.LASF46:
 17966 0b3c 6C6F6E67 		.ascii	"long double\000"
 17966      20646F75 
 17966      626C6500 
 17967              	.LASF52:
 17968 0b48 5F4C4F43 		.ascii	"_LOCK_T\000"
 17968      4B5F5400 
 17969              	.LASF11:
 17970 0b50 41534542 		.ascii	"ASEBA_MESSAGE_BOOTLOADER_ACK\000"
 17970      415F4D45 
 17970      53534147 
 17970      455F424F 
 17970      4F544C4F 
 17971              	.LASF96:
 17972 0b6d 5F777269 		.ascii	"_write\000"
 17972      746500
 17973              	.LASF274:
 17974 0b74 616E676C 		.ascii	"angle\000"
 17974      6500
 17975              	.LASF189:
 17976 0b7a 41736562 		.ascii	"AsebaNativeDescription_vecsub\000"
 17976      614E6174 
 17976      69766544 
 17976      65736372 
 17976      69707469 
 17977              	.LASF84:
 17978 0b98 5F617465 		.ascii	"_atexit\000"
 17978      78697400 
 17979              	.LASF277:
 17980 0ba0 6C6F6F6B 		.ascii	"lookupAngle\000"
 17980      7570416E 
 17980      676C6500 
 17981              	.LASF270:
 17982 0bac 73776170 		.ascii	"swapped\000"
 17982      70656400 
 17983              	.LASF245:
 17984 0bb4 6172676D 		.ascii	"argmax\000"
 17984      617800
 17985              	.LASF48:
 17986 0bbb 73686F72 		.ascii	"short int\000"
 17986      7420696E 
 17986      7400
 17987              	.LASF25:
 17988 0bc5 41534542 		.ascii	"ASEBA_MESSAGE_GET_DESCRIPTION\000"
 17988      415F4D45 
 17988      53534147 
 17988      455F4745 
 17988      545F4445 
ARM GAS  /var/folders/d2/nstgp4h54kz7g1l847x_b8wc0000gn/T//cccORz8f.s 			page 328


 17989              	.LASF291:
 17990 0be3 41736562 		.ascii	"AsebaNativePopArg\000"
 17990      614E6174 
 17990      69766550 
 17990      6F704172 
 17990      6700
 17991              	.LASF49:
 17992 0bf5 6C6F6E67 		.ascii	"long int\000"
 17992      20696E74 
 17992      00
 17993              	.LASF267:
 17994 0bfe 41736562 		.ascii	"AsebaNative_veccopy\000"
 17994      614E6174 
 17994      6976655F 
 17994      76656363 
 17994      6F707900 
 17995              	.LASF283:
 17996 0c12 73756270 		.ascii	"subprecision_index\000"
 17996      72656369 
 17996      73696F6E 
 17996      5F696E64 
 17996      657800
 17997              	.LASF272:
 17998 0c25 61736562 		.ascii	"aseba_sqrt\000"
 17998      615F7371 
 17998      727400
 17999              	.LASF211:
 18000 0c30 6C656E67 		.ascii	"length\000"
 18000      746800
 18001              	.LASF238:
 18002 0c37 41736562 		.ascii	"AsebaNative_mathmuldiv\000"
 18002      614E6174 
 18002      6976655F 
 18002      6D617468 
 18002      6D756C64 
 18003              	.LASF239:
 18004 0c4e 61496E64 		.ascii	"aIndex\000"
 18004      657800
 18005              	.LASF292:
 18006 0c55 5F5F7374 		.ascii	"__stack_chk_fail\000"
 18006      61636B5F 
 18006      63686B5F 
 18006      6661696C 
 18006      00
 18007              	.LASF128:
 18008 0c66 5F5F7366 		.ascii	"__sf\000"
 18008      00
 18009              	.LASF66:
 18010 0c6b 5F736967 		.ascii	"_sign\000"
 18010      6E00
 18011              	.LASF213:
 18012 0c71 41736562 		.ascii	"AsebaSetRandomSeed\000"
 18012      61536574 
 18012      52616E64 
 18012      6F6D5365 
 18012      656400
 18013              	.LASF15:
ARM GAS  /var/folders/d2/nstgp4h54kz7g1l847x_b8wc0000gn/T//cccORz8f.s 			page 329


 18014 0c84 41534542 		.ascii	"ASEBA_MESSAGE_NATIVE_FUNCTION_DESCRIPTION\000"
 18014      415F4D45 
 18014      53534147 
 18014      455F4E41 
 18014      54495645 
 18015              	.LASF103:
 18016 0cae 5F646174 		.ascii	"_data\000"
 18016      6100
 18017              	.LASF57:
 18018 0cb4 5F5F7763 		.ascii	"__wchb\000"
 18018      686200
 18019              	.LASF162:
 18020 0cbb 5F676C6F 		.ascii	"_global_impure_ptr\000"
 18020      62616C5F 
 18020      696D7075 
 18020      72655F70 
 18020      747200
 18021              	.LASF196:
 18022 0cce 41736562 		.ascii	"AsebaNativeDescription_vecstat\000"
 18022      614E6174 
 18022      69766544 
 18022      65736372 
 18022      69707469 
 18023              	.LASF190:
 18024 0ced 41736562 		.ascii	"AsebaNativeDescription_vecmul\000"
 18024      614E6174 
 18024      69766544 
 18024      65736372 
 18024      69707469 
 18025              	.LASF75:
 18026 0d0b 5F5F746D 		.ascii	"__tm_year\000"
 18026      5F796561 
 18026      7200
 18027              	.LASF289:
 18028 0d15 646F7562 		.ascii	"doubleBreak\000"
 18028      6C654272 
 18028      65616B00 
 18029              	.LASF38:
 18030 0d21 41534542 		.ascii	"ASEBA_MESSAGE_WRITE_BYTECODE\000"
 18030      415F4D45 
 18030      53534147 
 18030      455F5752 
 18030      4954455F 
 18031              	.LASF259:
 18032 0d3e 41736562 		.ascii	"AsebaNative_vecmul\000"
 18032      614E6174 
 18032      6976655F 
 18032      7665636D 
 18032      756C00
 18033              	.LASF140:
 18034 0d51 5F6C6F63 		.ascii	"_localtime_buf\000"
 18034      616C7469 
 18034      6D655F62 
 18034      756600
 18035              	.LASF158:
 18036 0d60 5F756E75 		.ascii	"_unused\000"
 18036      73656400 
ARM GAS  /var/folders/d2/nstgp4h54kz7g1l847x_b8wc0000gn/T//cccORz8f.s 			page 330


 18037              	.LASF203:
 18038 0d68 41736562 		.ascii	"AsebaNativeDescription_mathrot2\000"
 18038      614E6174 
 18038      69766544 
 18038      65736372 
 18038      69707469 
 18039              	.LASF124:
 18040 0d88 5F6E6577 		.ascii	"_new\000"
 18040      00
 18041              	.LASF122:
 18042 0d8d 5F637674 		.ascii	"_cvtlen\000"
 18042      6C656E00 
 18043              	.LASF65:
 18044 0d95 5F6D6178 		.ascii	"_maxwds\000"
 18044      77647300 
 18045              	.LASF147:
 18046 0d9d 5F6C3634 		.ascii	"_l64a_buf\000"
 18046      615F6275 
 18046      6600
 18047              	.LASF265:
 18048 0da7 41736562 		.ascii	"AsebaNative_vecfill\000"
 18048      614E6174 
 18048      6976655F 
 18048      76656366 
 18048      696C6C00 
 18049              	.LASF175:
 18050 0dbb 73746163 		.ascii	"stack\000"
 18050      6B00
 18051              	.LASF195:
 18052 0dc1 41736562 		.ascii	"AsebaNativeDescription_vecdot\000"
 18052      614E6174 
 18052      69766544 
 18052      65736372 
 18052      69707469 
 18053              	.LASF101:
 18054 0ddf 5F626C6B 		.ascii	"_blksize\000"
 18054      73697A65 
 18054      00
 18055              	.LASF69:
 18056 0de8 5F5F746D 		.ascii	"__tm\000"
 18056      00
 18057              	.LASF248:
 18058 0ded 41736562 		.ascii	"AsebaNative_vecdot\000"
 18058      614E6174 
 18058      6976655F 
 18058      76656364 
 18058      6F7400
 18059              	.LASF104:
 18060 0e00 5F6C6F63 		.ascii	"_lock\000"
 18060      6B00
 18061              	.LASF50:
 18062 0e06 6C6F6E67 		.ascii	"long unsigned int\000"
 18062      20756E73 
 18062      69676E65 
 18062      6420696E 
 18062      7400
 18063              	.LASF131:
ARM GAS  /var/folders/d2/nstgp4h54kz7g1l847x_b8wc0000gn/T//cccORz8f.s 			page 331


 18064 0e18 5F6E696F 		.ascii	"_niobs\000"
 18064      627300
 18065              	.LASF55:
 18066 0e1f 77696E74 		.ascii	"wint_t\000"
 18066      5F7400
 18067              	.LASF39:
 18068 0e26 41534542 		.ascii	"ASEBA_MESSAGE_REBOOT\000"
 18068      415F4D45 
 18068      53534147 
 18068      455F5245 
 18068      424F4F54 
 18069              	.LASF258:
 18070 0e3b 64697669 		.ascii	"divisor\000"
 18070      736F7200 
 18071              	.LASF81:
 18072 0e43 5F64736F 		.ascii	"_dso_handle\000"
 18072      5F68616E 
 18072      646C6500 
 18073              	.LASF177:
 18074 0e4f 62726561 		.ascii	"breakpoints\000"
 18074      6B706F69 
 18074      6E747300 
 18075              	.LASF159:
 18076 0e5b 5F5F6C6F 		.ascii	"__lock\000"
 18076      636B00
 18077              	.LASF285:
 18078 0e62 474E5520 		.ascii	"GNU C11 7.2.1 20170904 (release) [ARM/embedded-7-br"
 18078      43313120 
 18078      372E322E 
 18078      31203230 
 18078      31373039 
 18079 0e95 616E6368 		.ascii	"anch revision 255204] -mcpu=cortex-m4 -mfloat-abi=h"
 18079      20726576 
 18079      6973696F 
 18079      6E203235 
 18079      35323034 
 18080 0ec8 61726420 		.ascii	"ard -mfpu=fpv4-sp-d16 -mno-thumb-interwork -mthumb "
 18080      2D6D6670 
 18080      753D6670 
 18080      76342D73 
 18080      702D6431 
 18081 0efb 2D676764 		.ascii	"-ggdb -O2 -fomit-frame-pointer -falign-functions=16"
 18081      62202D4F 
 18081      32202D66 
 18081      6F6D6974 
 18081      2D667261 
 18082 0f2e 202D666E 		.ascii	" -fno-strict-aliasing -fstack-protector-all -ffunct"
 18082      6F2D7374 
 18082      72696374 
 18082      2D616C69 
 18082      6173696E 
 18083 0f61 696F6E2D 		.ascii	"ion-sections -fdata-sections -fno-common -fsingle-p"
 18083      73656374 
 18083      696F6E73 
 18083      202D6664 
 18083      6174612D 
 18084 0f94 72656369 		.ascii	"recision-constant\000"
ARM GAS  /var/folders/d2/nstgp4h54kz7g1l847x_b8wc0000gn/T//cccORz8f.s 			page 332


 18084      73696F6E 
 18084      2D636F6E 
 18084      7374616E 
 18084      7400
 18085              	.LASF123:
 18086 0fa6 5F637674 		.ascii	"_cvtbuf\000"
 18086      62756600 
 18087              	.LASF3:
 18088 0fae 756E7369 		.ascii	"unsigned char\000"
 18088      676E6564 
 18088      20636861 
 18088      7200
 18089              	.LASF188:
 18090 0fbc 41736562 		.ascii	"AsebaNativeDescription_vecadd\000"
 18090      614E6174 
 18090      69766544 
 18090      65736372 
 18090      69707469 
 18091              	.LASF149:
 18092 0fda 5F676574 		.ascii	"_getdate_err\000"
 18092      64617465 
 18092      5F657272 
 18092      00
 18093              	.LASF183:
 18094 0fe7 61726775 		.ascii	"arguments\000"
 18094      6D656E74 
 18094      7300
 18095              	.LASF261:
 18096 0ff1 41736562 		.ascii	"AsebaNative_vecadd\000"
 18096      614E6174 
 18096      6976655F 
 18096      76656361 
 18096      646400
 18097              	.LASF198:
 18098 1004 41736562 		.ascii	"AsebaNativeDescription_vecsort\000"
 18098      614E6174 
 18098      69766544 
 18098      65736372 
 18098      69707469 
 18099              	.LASF208:
 18100 1023 61736562 		.ascii	"aseba_sin_table\000"
 18100      615F7369 
 18100      6E5F7461 
 18100      626C6500 
 18101              	.LASF136:
 18102 1033 5F616464 		.ascii	"_add\000"
 18102      00
 18103              	.LASF95:
 18104 1038 5F726561 		.ascii	"_read\000"
 18104      6400
 18105              	.LASF33:
 18106 103e 41534542 		.ascii	"ASEBA_MESSAGE_BREAKPOINT_SET\000"
 18106      415F4D45 
 18106      53534147 
 18106      455F4252 
 18106      45414B50 
 18107              	.LASF241:
ARM GAS  /var/folders/d2/nstgp4h54kz7g1l847x_b8wc0000gn/T//cccORz8f.s 			page 333


 18108 105b 63496E64 		.ascii	"cIndex\000"
 18108      657800
 18109              	.LASF280:
 18110 1062 6662315F 		.ascii	"fb1_counter\000"
 18110      636F756E 
 18110      74657200 
 18111              	.LASF87:
 18112 106e 5F5F7362 		.ascii	"__sbuf\000"
 18112      756600
 18113              	.LASF229:
 18114 1075 76656349 		.ascii	"vecInIndex\000"
 18114      6E496E64 
 18114      657800
 18115              	.LASF31:
 18116 1080 41534542 		.ascii	"ASEBA_MESSAGE_STOP\000"
 18116      415F4D45 
 18116      53534147 
 18116      455F5354 
 18116      4F5000
 18117              	.LASF130:
 18118 1093 5F676C75 		.ascii	"_glue\000"
 18118      6500
 18119              	.LASF217:
 18120 1099 696E7075 		.ascii	"inputLength\000"
 18120      744C656E 
 18120      67746800 
 18121              	.LASF127:
 18122 10a5 5F5F7367 		.ascii	"__sglue\000"
 18122      6C756500 
 18123              	.LASF138:
 18124 10ad 5F737472 		.ascii	"_strtok_last\000"
 18124      746F6B5F 
 18124      6C617374 
 18124      00
 18125              	.LASF145:
 18126 10ba 5F6D6274 		.ascii	"_mbtowc_state\000"
 18126      6F77635F 
 18126      73746174 
 18126      6500
 18127              	.LASF268:
 18128 10c8 61736562 		.ascii	"aseba_comb_sort\000"
 18128      615F636F 
 18128      6D625F73 
 18128      6F727400 
 18129              	.LASF16:
 18130 10d8 41534542 		.ascii	"ASEBA_MESSAGE_DISCONNECTED\000"
 18130      415F4D45 
 18130      53534147 
 18130      455F4449 
 18130      53434F4E 
 18131              	.LASF115:
 18132 10f3 5F6C6F63 		.ascii	"_locale\000"
 18132      616C6500 
 18133              	.LASF17:
 18134 10fb 41534542 		.ascii	"ASEBA_MESSAGE_VARIABLES\000"
 18134      415F4D45 
 18134      53534147 
ARM GAS  /var/folders/d2/nstgp4h54kz7g1l847x_b8wc0000gn/T//cccORz8f.s 			page 334


 18134      455F5641 
 18134      52494142 
 18135              	.LASF80:
 18136 1113 5F666E61 		.ascii	"_fnargs\000"
 18136      72677300 
 18137              	.LASF47:
 18138 111b 7369676E 		.ascii	"signed char\000"
 18138      65642063 
 18138      68617200 
 18139              	.LASF284:
 18140 1127 64656C74 		.ascii	"delta\000"
 18140      6100
 18141              	.LASF107:
 18142 112d 5F726565 		.ascii	"_reent\000"
 18142      6E7400
 18143              	.LASF4:
 18144 1134 73686F72 		.ascii	"short unsigned int\000"
 18144      7420756E 
 18144      7369676E 
 18144      65642069 
 18144      6E7400
 18145              	.LASF34:
 18146 1147 41534542 		.ascii	"ASEBA_MESSAGE_BREAKPOINT_CLEAR\000"
 18146      415F4D45 
 18146      53534147 
 18146      455F4252 
 18146      45414B50 
 18147              	.LASF82:
 18148 1166 5F666E74 		.ascii	"_fntypes\000"
 18148      79706573 
 18148      00
 18149              	.LASF192:
 18150 116f 41736562 		.ascii	"AsebaNativeDescription_vecmin\000"
 18150      614E6174 
 18150      69766544 
 18150      65736372 
 18150      69707469 
 18151              	.LASF89:
 18152 118d 5F73697A 		.ascii	"_size\000"
 18152      6500
 18153              	.LASF19:
 18154 1193 41534542 		.ascii	"ASEBA_MESSAGE_DIVISION_BY_ZERO\000"
 18154      415F4D45 
 18154      53534147 
 18154      455F4449 
 18154      56495349 
 18155              	.LASF209:
 18156 11b2 726E645F 		.ascii	"rnd_state\000"
 18156      73746174 
 18156      6500
 18157              	.LASF255:
 18158 11bc 41736562 		.ascii	"AsebaNative_vecmin\000"
 18158      614E6174 
 18158      6976655F 
 18158      7665636D 
 18158      696E00
 18159              	.LASF53:
ARM GAS  /var/folders/d2/nstgp4h54kz7g1l847x_b8wc0000gn/T//cccORz8f.s 			page 335


 18160 11cf 5F6F6666 		.ascii	"_off_t\000"
 18160      5F7400
 18161              	.LASF100:
 18162 11d6 5F6E6275 		.ascii	"_nbuf\000"
 18162      6600
 18163              	.LASF137:
 18164 11dc 5F756E75 		.ascii	"_unused_rand\000"
 18164      7365645F 
 18164      72616E64 
 18164      00
 18165              	.LASF41:
 18166 11e9 41534542 		.ascii	"ASEBA_MESSAGE_GET_NODE_DESCRIPTION\000"
 18166      415F4D45 
 18166      53534147 
 18166      455F4745 
 18166      545F4E4F 
 18167              	.LASF114:
 18168 120c 5F756E73 		.ascii	"_unspecified_locale_info\000"
 18168      70656369 
 18168      66696564 
 18168      5F6C6F63 
 18168      616C655F 
 18169              	.LASF106:
 18170 1225 5F666C61 		.ascii	"_flags2\000"
 18170      67733200 
 18171              	.LASF83:
 18172 122d 5F69735F 		.ascii	"_is_cxa\000"
 18172      63786100 
 18173              	.LASF171:
 18174 1235 62797465 		.ascii	"bytecode\000"
 18174      636F6465 
 18174      00
 18175              	.LASF287:
 18176 123e 2F557365 		.ascii	"/Users/bharathkeshavamurthy/Workspaces/Talos/src/ma"
 18176      72732F62 
 18176      68617261 
 18176      74686B65 
 18176      73686176 
 18177 1271 696E2F63 		.ascii	"in/cpp/org/purdue/ece/talos/optimize\000"
 18177      70702F6F 
 18177      72672F70 
 18177      75726475 
 18177      652F6563 
 18178              	.LASF134:
 18179 1296 5F736565 		.ascii	"_seed\000"
 18179      6400
 18180              	.LASF142:
 18181 129c 5F72616E 		.ascii	"_rand_next\000"
 18181      645F6E65 
 18181      787400
 18182              	.LASF20:
 18183 12a7 41534542 		.ascii	"ASEBA_MESSAGE_EVENT_EXECUTION_KILLED\000"
 18183      415F4D45 
 18183      53534147 
 18183      455F4556 
 18183      454E545F 
 18184              	.LASF216:
ARM GAS  /var/folders/d2/nstgp4h54kz7g1l847x_b8wc0000gn/T//cccORz8f.s 			page 336


 18185 12cc 64657374 		.ascii	"dest\000"
 18185      00
 18186              	.LASF97:
 18187 12d1 5F736565 		.ascii	"_seek\000"
 18187      6B00
 18188              	.LASF28:
 18189 12d7 41534542 		.ascii	"ASEBA_MESSAGE_RUN\000"
 18189      415F4D45 
 18189      53534147 
 18189      455F5255 
 18189      4E00
 18190              	.LASF247:
 18191 12e9 6D65616E 		.ascii	"mean\000"
 18191      00
 18192              	.LASF111:
 18193 12ee 5F737464 		.ascii	"_stderr\000"
 18193      65727200 
 18194              	.LASF157:
 18195 12f6 5F6E6D61 		.ascii	"_nmalloc\000"
 18195      6C6C6F63 
 18195      00
 18196              	.LASF99:
 18197 12ff 5F756275 		.ascii	"_ubuf\000"
 18197      6600
 18198              	.LASF22:
 18199 1305 41534542 		.ascii	"ASEBA_MESSAGE_EXECUTION_STATE_CHANGED\000"
 18199      415F4D45 
 18199      53534147 
 18199      455F4558 
 18199      45435554 
 18200              		.ident	"GCC: (GNU Tools for Arm Embedded Processors 7-2017-q4-major) 7.2.1 20170904 (release) [ARM
ARM GAS  /var/folders/d2/nstgp4h54kz7g1l847x_b8wc0000gn/T//cccORz8f.s 			page 337


DEFINED SYMBOLS
                            *ABS*:0000000000000000 natives.c
/var/folders/d2/nstgp4h54kz7g1l847x_b8wc0000gn/T//cccORz8f.s:18     .text.aseba_atan2.part.1:0000000000000000 $t
/var/folders/d2/nstgp4h54kz7g1l847x_b8wc0000gn/T//cccORz8f.s:25     .text.aseba_atan2.part.1:0000000000000000 aseba_atan2.part.1
/var/folders/d2/nstgp4h54kz7g1l847x_b8wc0000gn/T//cccORz8f.s:194    .text.aseba_atan2.part.1:00000000000000b4 $d
/var/folders/d2/nstgp4h54kz7g1l847x_b8wc0000gn/T//cccORz8f.s:200    .text.aseba_atan2:0000000000000000 $t
/var/folders/d2/nstgp4h54kz7g1l847x_b8wc0000gn/T//cccORz8f.s:208    .text.aseba_atan2:0000000000000000 aseba_atan2
/var/folders/d2/nstgp4h54kz7g1l847x_b8wc0000gn/T//cccORz8f.s:269    .text.aseba_atan2:000000000000003c $d
/var/folders/d2/nstgp4h54kz7g1l847x_b8wc0000gn/T//cccORz8f.s:274    .text.aseba_sin:0000000000000000 $t
/var/folders/d2/nstgp4h54kz7g1l847x_b8wc0000gn/T//cccORz8f.s:282    .text.aseba_sin:0000000000000000 aseba_sin
/var/folders/d2/nstgp4h54kz7g1l847x_b8wc0000gn/T//cccORz8f.s:400    .text.aseba_sin:000000000000007c $d
/var/folders/d2/nstgp4h54kz7g1l847x_b8wc0000gn/T//cccORz8f.s:407    .text.aseba_cos:0000000000000000 $t
/var/folders/d2/nstgp4h54kz7g1l847x_b8wc0000gn/T//cccORz8f.s:415    .text.aseba_cos:0000000000000000 aseba_cos
/var/folders/d2/nstgp4h54kz7g1l847x_b8wc0000gn/T//cccORz8f.s:457    .text.aseba_cos:0000000000000028 $d
/var/folders/d2/nstgp4h54kz7g1l847x_b8wc0000gn/T//cccORz8f.s:462    .text.aseba_sqrt:0000000000000000 $t
/var/folders/d2/nstgp4h54kz7g1l847x_b8wc0000gn/T//cccORz8f.s:470    .text.aseba_sqrt:0000000000000000 aseba_sqrt
/var/folders/d2/nstgp4h54kz7g1l847x_b8wc0000gn/T//cccORz8f.s:574    .text.aseba_sqrt:0000000000000058 $d
/var/folders/d2/nstgp4h54kz7g1l847x_b8wc0000gn/T//cccORz8f.s:579    .text.aseba_comb_sort:0000000000000000 $t
/var/folders/d2/nstgp4h54kz7g1l847x_b8wc0000gn/T//cccORz8f.s:587    .text.aseba_comb_sort:0000000000000000 aseba_comb_sort
/var/folders/d2/nstgp4h54kz7g1l847x_b8wc0000gn/T//cccORz8f.s:709    .text.aseba_comb_sort:0000000000000088 $d
/var/folders/d2/nstgp4h54kz7g1l847x_b8wc0000gn/T//cccORz8f.s:715    .text.AsebaNative_veccopy:0000000000000000 $t
/var/folders/d2/nstgp4h54kz7g1l847x_b8wc0000gn/T//cccORz8f.s:723    .text.AsebaNative_veccopy:0000000000000000 AsebaNative_veccopy
/var/folders/d2/nstgp4h54kz7g1l847x_b8wc0000gn/T//cccORz8f.s:848    .text.AsebaNative_veccopy:000000000000005c $d
/var/folders/d2/nstgp4h54kz7g1l847x_b8wc0000gn/T//cccORz8f.s:853    .text.AsebaNative_vecfill:0000000000000000 $t
/var/folders/d2/nstgp4h54kz7g1l847x_b8wc0000gn/T//cccORz8f.s:861    .text.AsebaNative_vecfill:0000000000000000 AsebaNative_vecfill
/var/folders/d2/nstgp4h54kz7g1l847x_b8wc0000gn/T//cccORz8f.s:984    .text.AsebaNative_vecfill:0000000000000058 $d
/var/folders/d2/nstgp4h54kz7g1l847x_b8wc0000gn/T//cccORz8f.s:989    .text.AsebaNative_vecaddscalar:0000000000000000 $t
/var/folders/d2/nstgp4h54kz7g1l847x_b8wc0000gn/T//cccORz8f.s:997    .text.AsebaNative_vecaddscalar:0000000000000000 AsebaNative_vecaddscalar
/var/folders/d2/nstgp4h54kz7g1l847x_b8wc0000gn/T//cccORz8f.s:1150   .text.AsebaNative_vecaddscalar:0000000000000078 $d
/var/folders/d2/nstgp4h54kz7g1l847x_b8wc0000gn/T//cccORz8f.s:1155   .text.AsebaNative_vecadd:0000000000000000 $t
/var/folders/d2/nstgp4h54kz7g1l847x_b8wc0000gn/T//cccORz8f.s:1163   .text.AsebaNative_vecadd:0000000000000000 AsebaNative_vecadd
/var/folders/d2/nstgp4h54kz7g1l847x_b8wc0000gn/T//cccORz8f.s:1308   .text.AsebaNative_vecadd:0000000000000078 $d
/var/folders/d2/nstgp4h54kz7g1l847x_b8wc0000gn/T//cccORz8f.s:1313   .text.AsebaNative_vecsub:0000000000000000 $t
/var/folders/d2/nstgp4h54kz7g1l847x_b8wc0000gn/T//cccORz8f.s:1321   .text.AsebaNative_vecsub:0000000000000000 AsebaNative_vecsub
/var/folders/d2/nstgp4h54kz7g1l847x_b8wc0000gn/T//cccORz8f.s:1466   .text.AsebaNative_vecsub:000000000000007c $d
/var/folders/d2/nstgp4h54kz7g1l847x_b8wc0000gn/T//cccORz8f.s:1471   .text.AsebaNative_vecmul:0000000000000000 $t
/var/folders/d2/nstgp4h54kz7g1l847x_b8wc0000gn/T//cccORz8f.s:1479   .text.AsebaNative_vecmul:0000000000000000 AsebaNative_vecmul
/var/folders/d2/nstgp4h54kz7g1l847x_b8wc0000gn/T//cccORz8f.s:1624   .text.AsebaNative_vecmul:000000000000007c $d
/var/folders/d2/nstgp4h54kz7g1l847x_b8wc0000gn/T//cccORz8f.s:1629   .text.AsebaNative_vecdiv:0000000000000000 $t
/var/folders/d2/nstgp4h54kz7g1l847x_b8wc0000gn/T//cccORz8f.s:1637   .text.AsebaNative_vecdiv:0000000000000000 AsebaNative_vecdiv
/var/folders/d2/nstgp4h54kz7g1l847x_b8wc0000gn/T//cccORz8f.s:1855   .text.AsebaNative_vecdiv:00000000000000c0 $d
/var/folders/d2/nstgp4h54kz7g1l847x_b8wc0000gn/T//cccORz8f.s:1860   .text.AsebaNative_vecmin:0000000000000000 $t
/var/folders/d2/nstgp4h54kz7g1l847x_b8wc0000gn/T//cccORz8f.s:1868   .text.AsebaNative_vecmin:0000000000000000 AsebaNative_vecmin
/var/folders/d2/nstgp4h54kz7g1l847x_b8wc0000gn/T//cccORz8f.s:2028   .text.AsebaNative_vecmin:000000000000007c $d
/var/folders/d2/nstgp4h54kz7g1l847x_b8wc0000gn/T//cccORz8f.s:2033   .text.AsebaNative_vecmax:0000000000000000 $t
/var/folders/d2/nstgp4h54kz7g1l847x_b8wc0000gn/T//cccORz8f.s:2041   .text.AsebaNative_vecmax:0000000000000000 AsebaNative_vecmax
/var/folders/d2/nstgp4h54kz7g1l847x_b8wc0000gn/T//cccORz8f.s:2201   .text.AsebaNative_vecmax:000000000000007c $d
/var/folders/d2/nstgp4h54kz7g1l847x_b8wc0000gn/T//cccORz8f.s:2206   .text.AsebaNative_vecclamp:0000000000000000 $t
/var/folders/d2/nstgp4h54kz7g1l847x_b8wc0000gn/T//cccORz8f.s:2214   .text.AsebaNative_vecclamp:0000000000000000 AsebaNative_vecclamp
/var/folders/d2/nstgp4h54kz7g1l847x_b8wc0000gn/T//cccORz8f.s:2410   .text.AsebaNative_vecclamp:00000000000000a8 $d
/var/folders/d2/nstgp4h54kz7g1l847x_b8wc0000gn/T//cccORz8f.s:2415   .text.AsebaNative_vecdot:0000000000000000 $t
/var/folders/d2/nstgp4h54kz7g1l847x_b8wc0000gn/T//cccORz8f.s:2423   .text.AsebaNative_vecdot:0000000000000000 AsebaNative_vecdot
/var/folders/d2/nstgp4h54kz7g1l847x_b8wc0000gn/T//cccORz8f.s:2622   .text.AsebaNative_vecdot:00000000000000b0 $d
/var/folders/d2/nstgp4h54kz7g1l847x_b8wc0000gn/T//cccORz8f.s:2627   .text.AsebaNative_vecstat:0000000000000000 $t
/var/folders/d2/nstgp4h54kz7g1l847x_b8wc0000gn/T//cccORz8f.s:2635   .text.AsebaNative_vecstat:0000000000000000 AsebaNative_vecstat
/var/folders/d2/nstgp4h54kz7g1l847x_b8wc0000gn/T//cccORz8f.s:2861   .text.AsebaNative_vecstat:00000000000000cc $d
/var/folders/d2/nstgp4h54kz7g1l847x_b8wc0000gn/T//cccORz8f.s:2866   .text.AsebaNative_vecargbounds:0000000000000000 $t
ARM GAS  /var/folders/d2/nstgp4h54kz7g1l847x_b8wc0000gn/T//cccORz8f.s 			page 338


/var/folders/d2/nstgp4h54kz7g1l847x_b8wc0000gn/T//cccORz8f.s:2874   .text.AsebaNative_vecargbounds:0000000000000000 AsebaNative_vecargbounds
/var/folders/d2/nstgp4h54kz7g1l847x_b8wc0000gn/T//cccORz8f.s:3063   .text.AsebaNative_vecargbounds:000000000000009c $d
/var/folders/d2/nstgp4h54kz7g1l847x_b8wc0000gn/T//cccORz8f.s:3069   .text.AsebaNative_vecsort:0000000000000000 $t
/var/folders/d2/nstgp4h54kz7g1l847x_b8wc0000gn/T//cccORz8f.s:3077   .text.AsebaNative_vecsort:0000000000000000 AsebaNative_vecsort
/var/folders/d2/nstgp4h54kz7g1l847x_b8wc0000gn/T//cccORz8f.s:3169   .text.AsebaNative_vecsort:0000000000000040 $d
/var/folders/d2/nstgp4h54kz7g1l847x_b8wc0000gn/T//cccORz8f.s:3174   .text.AsebaNative_mathmuldiv:0000000000000000 $t
/var/folders/d2/nstgp4h54kz7g1l847x_b8wc0000gn/T//cccORz8f.s:3182   .text.AsebaNative_mathmuldiv:0000000000000000 AsebaNative_mathmuldiv
/var/folders/d2/nstgp4h54kz7g1l847x_b8wc0000gn/T//cccORz8f.s:3433   .text.AsebaNative_mathmuldiv:00000000000000dc $d
/var/folders/d2/nstgp4h54kz7g1l847x_b8wc0000gn/T//cccORz8f.s:3438   .text.AsebaNative_mathatan2:0000000000000000 $t
/var/folders/d2/nstgp4h54kz7g1l847x_b8wc0000gn/T//cccORz8f.s:3446   .text.AsebaNative_mathatan2:0000000000000000 AsebaNative_mathatan2
/var/folders/d2/nstgp4h54kz7g1l847x_b8wc0000gn/T//cccORz8f.s:3649   .text.AsebaNative_mathatan2:00000000000000a4 $d
/var/folders/d2/nstgp4h54kz7g1l847x_b8wc0000gn/T//cccORz8f.s:3655   .text.AsebaNative_mathsin:0000000000000000 $t
/var/folders/d2/nstgp4h54kz7g1l847x_b8wc0000gn/T//cccORz8f.s:3663   .text.AsebaNative_mathsin:0000000000000000 AsebaNative_mathsin
/var/folders/d2/nstgp4h54kz7g1l847x_b8wc0000gn/T//cccORz8f.s:3805   .text.AsebaNative_mathsin:0000000000000078 $d
/var/folders/d2/nstgp4h54kz7g1l847x_b8wc0000gn/T//cccORz8f.s:3810   .text.AsebaNative_mathcos:0000000000000000 $t
/var/folders/d2/nstgp4h54kz7g1l847x_b8wc0000gn/T//cccORz8f.s:3818   .text.AsebaNative_mathcos:0000000000000000 AsebaNative_mathcos
/var/folders/d2/nstgp4h54kz7g1l847x_b8wc0000gn/T//cccORz8f.s:3973   .text.AsebaNative_mathcos:000000000000007c $d
/var/folders/d2/nstgp4h54kz7g1l847x_b8wc0000gn/T//cccORz8f.s:3978   .text.AsebaNative_mathrot2:0000000000000000 $t
/var/folders/d2/nstgp4h54kz7g1l847x_b8wc0000gn/T//cccORz8f.s:3986   .text.AsebaNative_mathrot2:0000000000000000 AsebaNative_mathrot2
/var/folders/d2/nstgp4h54kz7g1l847x_b8wc0000gn/T//cccORz8f.s:4145   .text.AsebaNative_mathrot2:000000000000008c $d
/var/folders/d2/nstgp4h54kz7g1l847x_b8wc0000gn/T//cccORz8f.s:4150   .text.AsebaNative_mathsqrt:0000000000000000 $t
/var/folders/d2/nstgp4h54kz7g1l847x_b8wc0000gn/T//cccORz8f.s:4158   .text.AsebaNative_mathsqrt:0000000000000000 AsebaNative_mathsqrt
/var/folders/d2/nstgp4h54kz7g1l847x_b8wc0000gn/T//cccORz8f.s:4388   .text.AsebaNative_mathsqrt:00000000000000b4 $d
/var/folders/d2/nstgp4h54kz7g1l847x_b8wc0000gn/T//cccORz8f.s:4393   .text.AsebaNative_vecnonzerosequence:0000000000000000 $t
/var/folders/d2/nstgp4h54kz7g1l847x_b8wc0000gn/T//cccORz8f.s:4401   .text.AsebaNative_vecnonzerosequence:0000000000000000 AsebaNative_vecnonzerosequence
/var/folders/d2/nstgp4h54kz7g1l847x_b8wc0000gn/T//cccORz8f.s:4702   .text.AsebaNative_vecnonzerosequence:0000000000000150 $d
/var/folders/d2/nstgp4h54kz7g1l847x_b8wc0000gn/T//cccORz8f.s:4707   .text.AsebaSetRandomSeed:0000000000000000 $t
/var/folders/d2/nstgp4h54kz7g1l847x_b8wc0000gn/T//cccORz8f.s:4715   .text.AsebaSetRandomSeed:0000000000000000 AsebaSetRandomSeed
/var/folders/d2/nstgp4h54kz7g1l847x_b8wc0000gn/T//cccORz8f.s:4754   .text.AsebaSetRandomSeed:0000000000000020 $d
/var/folders/d2/nstgp4h54kz7g1l847x_b8wc0000gn/T//cccORz8f.s:4760   .text.AsebaGetRandom:0000000000000000 $t
/var/folders/d2/nstgp4h54kz7g1l847x_b8wc0000gn/T//cccORz8f.s:4768   .text.AsebaGetRandom:0000000000000000 AsebaGetRandom
/var/folders/d2/nstgp4h54kz7g1l847x_b8wc0000gn/T//cccORz8f.s:4821   .text.AsebaGetRandom:000000000000003c $d
/var/folders/d2/nstgp4h54kz7g1l847x_b8wc0000gn/T//cccORz8f.s:4827   .text.AsebaNative_rand:0000000000000000 $t
/var/folders/d2/nstgp4h54kz7g1l847x_b8wc0000gn/T//cccORz8f.s:4835   .text.AsebaNative_rand:0000000000000000 AsebaNative_rand
/var/folders/d2/nstgp4h54kz7g1l847x_b8wc0000gn/T//cccORz8f.s:4949   .text.AsebaNative_rand:0000000000000070 $d
/var/folders/d2/nstgp4h54kz7g1l847x_b8wc0000gn/T//cccORz8f.s:5095   .rodata.AsebaNativeDescription_rand:0000000000000000 AsebaNativeDescription_rand
/var/folders/d2/nstgp4h54kz7g1l847x_b8wc0000gn/T//cccORz8f.s:5317   .rodata.AsebaNativeDescription_vecnonzerosequence:0000000000000000 AsebaNativeDescription_vecnonzerosequence
/var/folders/d2/nstgp4h54kz7g1l847x_b8wc0000gn/T//cccORz8f.s:5079   .rodata.AsebaNativeDescription_mathsqrt:0000000000000000 AsebaNativeDescription_mathsqrt
/var/folders/d2/nstgp4h54kz7g1l847x_b8wc0000gn/T//cccORz8f.s:5044   .rodata.AsebaNativeDescription_mathrot2:0000000000000000 AsebaNativeDescription_mathrot2
/var/folders/d2/nstgp4h54kz7g1l847x_b8wc0000gn/T//cccORz8f.s:5006   .rodata.AsebaNativeDescription_mathcos:0000000000000000 AsebaNativeDescription_mathcos
/var/folders/d2/nstgp4h54kz7g1l847x_b8wc0000gn/T//cccORz8f.s:5063   .rodata.AsebaNativeDescription_mathsin:0000000000000000 AsebaNativeDescription_mathsin
/var/folders/d2/nstgp4h54kz7g1l847x_b8wc0000gn/T//cccORz8f.s:4987   .rodata.AsebaNativeDescription_mathatan2:0000000000000000 AsebaNativeDescription_mathatan2
/var/folders/d2/nstgp4h54kz7g1l847x_b8wc0000gn/T//cccORz8f.s:5022   .rodata.AsebaNativeDescription_mathmuldiv:0000000000000000 AsebaNativeDescription_mathmuldiv
/var/folders/d2/nstgp4h54kz7g1l847x_b8wc0000gn/T//cccORz8f.s:5336   .rodata.AsebaNativeDescription_vecsort:0000000000000000 AsebaNativeDescription_vecsort
/var/folders/d2/nstgp4h54kz7g1l847x_b8wc0000gn/T//cccORz8f.s:5146   .rodata.AsebaNativeDescription_vecargbounds:0000000000000000 AsebaNativeDescription_vecargbounds
/var/folders/d2/nstgp4h54kz7g1l847x_b8wc0000gn/T//cccORz8f.s:5349   .rodata.AsebaNativeDescription_vecstat:0000000000000000 AsebaNativeDescription_vecstat
/var/folders/d2/nstgp4h54kz7g1l847x_b8wc0000gn/T//cccORz8f.s:5222   .rodata.AsebaNativeDescription_vecdot:0000000000000000 AsebaNativeDescription_vecdot
/var/folders/d2/nstgp4h54kz7g1l847x_b8wc0000gn/T//cccORz8f.s:5165   .rodata.AsebaNativeDescription_vecclamp:0000000000000000 AsebaNativeDescription_vecclamp
/var/folders/d2/nstgp4h54kz7g1l847x_b8wc0000gn/T//cccORz8f.s:5260   .rodata.AsebaNativeDescription_vecmax:0000000000000000 AsebaNativeDescription_vecmax
/var/folders/d2/nstgp4h54kz7g1l847x_b8wc0000gn/T//cccORz8f.s:5279   .rodata.AsebaNativeDescription_vecmin:0000000000000000 AsebaNativeDescription_vecmin
/var/folders/d2/nstgp4h54kz7g1l847x_b8wc0000gn/T//cccORz8f.s:5203   .rodata.AsebaNativeDescription_vecdiv:0000000000000000 AsebaNativeDescription_vecdiv
/var/folders/d2/nstgp4h54kz7g1l847x_b8wc0000gn/T//cccORz8f.s:5298   .rodata.AsebaNativeDescription_vecmul:0000000000000000 AsebaNativeDescription_vecmul
/var/folders/d2/nstgp4h54kz7g1l847x_b8wc0000gn/T//cccORz8f.s:5371   .rodata.AsebaNativeDescription_vecsub:0000000000000000 AsebaNativeDescription_vecsub
/var/folders/d2/nstgp4h54kz7g1l847x_b8wc0000gn/T//cccORz8f.s:5108   .rodata.AsebaNativeDescription_vecadd:0000000000000000 AsebaNativeDescription_vecadd
/var/folders/d2/nstgp4h54kz7g1l847x_b8wc0000gn/T//cccORz8f.s:5127   .rodata.AsebaNativeDescription_vecaddscalar:0000000000000000 AsebaNativeDescription_vecaddscalar
/var/folders/d2/nstgp4h54kz7g1l847x_b8wc0000gn/T//cccORz8f.s:5244   .rodata.AsebaNativeDescription_vecfill:0000000000000000 AsebaNativeDescription_vecfill
/var/folders/d2/nstgp4h54kz7g1l847x_b8wc0000gn/T//cccORz8f.s:5187   .rodata.AsebaNativeDescription_veccopy:0000000000000000 AsebaNativeDescription_veccopy
ARM GAS  /var/folders/d2/nstgp4h54kz7g1l847x_b8wc0000gn/T//cccORz8f.s 			page 339


/var/folders/d2/nstgp4h54kz7g1l847x_b8wc0000gn/T//cccORz8f.s:4977   .bss.rnd_state:0000000000000000 $d
/var/folders/d2/nstgp4h54kz7g1l847x_b8wc0000gn/T//cccORz8f.s:4981   .bss.rnd_state:0000000000000000 rnd_state
/var/folders/d2/nstgp4h54kz7g1l847x_b8wc0000gn/T//cccORz8f.s:4984   .rodata.AsebaNativeDescription_mathatan2:0000000000000000 $d
/var/folders/d2/nstgp4h54kz7g1l847x_b8wc0000gn/T//cccORz8f.s:5003   .rodata.AsebaNativeDescription_mathcos:0000000000000000 $d
/var/folders/d2/nstgp4h54kz7g1l847x_b8wc0000gn/T//cccORz8f.s:5019   .rodata.AsebaNativeDescription_mathmuldiv:0000000000000000 $d
/var/folders/d2/nstgp4h54kz7g1l847x_b8wc0000gn/T//cccORz8f.s:5041   .rodata.AsebaNativeDescription_mathrot2:0000000000000000 $d
/var/folders/d2/nstgp4h54kz7g1l847x_b8wc0000gn/T//cccORz8f.s:5060   .rodata.AsebaNativeDescription_mathsin:0000000000000000 $d
/var/folders/d2/nstgp4h54kz7g1l847x_b8wc0000gn/T//cccORz8f.s:5076   .rodata.AsebaNativeDescription_mathsqrt:0000000000000000 $d
/var/folders/d2/nstgp4h54kz7g1l847x_b8wc0000gn/T//cccORz8f.s:5092   .rodata.AsebaNativeDescription_rand:0000000000000000 $d
/var/folders/d2/nstgp4h54kz7g1l847x_b8wc0000gn/T//cccORz8f.s:5105   .rodata.AsebaNativeDescription_vecadd:0000000000000000 $d
/var/folders/d2/nstgp4h54kz7g1l847x_b8wc0000gn/T//cccORz8f.s:5124   .rodata.AsebaNativeDescription_vecaddscalar:0000000000000000 $d
/var/folders/d2/nstgp4h54kz7g1l847x_b8wc0000gn/T//cccORz8f.s:5143   .rodata.AsebaNativeDescription_vecargbounds:0000000000000000 $d
/var/folders/d2/nstgp4h54kz7g1l847x_b8wc0000gn/T//cccORz8f.s:5162   .rodata.AsebaNativeDescription_vecclamp:0000000000000000 $d
/var/folders/d2/nstgp4h54kz7g1l847x_b8wc0000gn/T//cccORz8f.s:5184   .rodata.AsebaNativeDescription_veccopy:0000000000000000 $d
/var/folders/d2/nstgp4h54kz7g1l847x_b8wc0000gn/T//cccORz8f.s:5200   .rodata.AsebaNativeDescription_vecdiv:0000000000000000 $d
/var/folders/d2/nstgp4h54kz7g1l847x_b8wc0000gn/T//cccORz8f.s:5219   .rodata.AsebaNativeDescription_vecdot:0000000000000000 $d
/var/folders/d2/nstgp4h54kz7g1l847x_b8wc0000gn/T//cccORz8f.s:5241   .rodata.AsebaNativeDescription_vecfill:0000000000000000 $d
/var/folders/d2/nstgp4h54kz7g1l847x_b8wc0000gn/T//cccORz8f.s:5257   .rodata.AsebaNativeDescription_vecmax:0000000000000000 $d
/var/folders/d2/nstgp4h54kz7g1l847x_b8wc0000gn/T//cccORz8f.s:5276   .rodata.AsebaNativeDescription_vecmin:0000000000000000 $d
/var/folders/d2/nstgp4h54kz7g1l847x_b8wc0000gn/T//cccORz8f.s:5295   .rodata.AsebaNativeDescription_vecmul:0000000000000000 $d
/var/folders/d2/nstgp4h54kz7g1l847x_b8wc0000gn/T//cccORz8f.s:5314   .rodata.AsebaNativeDescription_vecnonzerosequence:0000000000000000 $d
/var/folders/d2/nstgp4h54kz7g1l847x_b8wc0000gn/T//cccORz8f.s:5333   .rodata.AsebaNativeDescription_vecsort:0000000000000000 $d
/var/folders/d2/nstgp4h54kz7g1l847x_b8wc0000gn/T//cccORz8f.s:5346   .rodata.AsebaNativeDescription_vecstat:0000000000000000 $d
/var/folders/d2/nstgp4h54kz7g1l847x_b8wc0000gn/T//cccORz8f.s:5368   .rodata.AsebaNativeDescription_vecsub:0000000000000000 $d
/var/folders/d2/nstgp4h54kz7g1l847x_b8wc0000gn/T//cccORz8f.s:5387   .rodata.aseba_atan_table:0000000000000000 $d
/var/folders/d2/nstgp4h54kz7g1l847x_b8wc0000gn/T//cccORz8f.s:5391   .rodata.aseba_atan_table:0000000000000000 aseba_atan_table
/var/folders/d2/nstgp4h54kz7g1l847x_b8wc0000gn/T//cccORz8f.s:5554   .rodata.aseba_sin_table:0000000000000000 $d
/var/folders/d2/nstgp4h54kz7g1l847x_b8wc0000gn/T//cccORz8f.s:5558   .rodata.aseba_sin_table:0000000000000000 aseba_sin_table
/var/folders/d2/nstgp4h54kz7g1l847x_b8wc0000gn/T//cccORz8f.s:5689   .rodata.str1.4:0000000000000000 $d

UNDEFINED SYMBOLS
__stack_chk_fail
__stack_chk_guard
AsebaSendMessage
