ARM GAS  /var/folders/d2/nstgp4h54kz7g1l847x_b8wc0000gn/T//ccEQVVt7.s 			page 1


   1              		.cpu cortex-m4
   2              		.eabi_attribute 27, 1
   3              		.eabi_attribute 28, 1
   4              		.eabi_attribute 20, 1
   5              		.eabi_attribute 21, 1
   6              		.eabi_attribute 23, 3
   7              		.eabi_attribute 24, 1
   8              		.eabi_attribute 25, 1
   9              		.eabi_attribute 26, 1
  10              		.eabi_attribute 30, 2
  11              		.eabi_attribute 34, 1
  12              		.eabi_attribute 18, 4
  13              		.file	"newlib_syscalls.c"
  14              		.text
  15              	.Ltext0:
  16              		.cfi_sections	.debug_frame
  17              		.section	.text._read_r,"ax",%progbits
  18              		.align	1
  19              		.p2align 4,,15
  20              		.global	_read_r
  21              		.syntax unified
  22              		.thumb
  23              		.thumb_func
  24              		.fpu fpv4-sp-d16
  25              		.type	_read_r, %function
  26              	_read_r:
  27              	.LFB219:
  28              		.file 1 "../e-puck2_main-processor/src/chibios-syscalls/newlib_syscalls.c"
  29              		.loc 1 16 0
  30              		.cfi_startproc
  31              		@ args = 0, pretend = 0, frame = 8
  32              		@ frame_needed = 0, uses_anonymous_args = 0
  33              	.LVL0:
  34 0000 00B5     		push	{lr}
  35              		.cfi_def_cfa_offset 4
  36              		.cfi_offset 14, -4
  37 0002 084B     		ldr	r3, .L6
  38              	.LVL1:
  39 0004 83B0     		sub	sp, sp, #12
  40              		.cfi_def_cfa_offset 16
  41              		.loc 1 16 0
  42 0006 1968     		ldr	r1, [r3]
  43              	.LVL2:
  44 0008 0191     		str	r1, [sp, #4]
  45              		.loc 1 29 0
  46 000a 1622     		movs	r2, #22
  47              	.LVL3:
  48 000c 0260     		str	r2, [r0]
  49              		.loc 1 32 0
  50 000e 019A     		ldr	r2, [sp, #4]
  51 0010 1B68     		ldr	r3, [r3]
  52 0012 9A42     		cmp	r2, r3
  53 0014 04D1     		bne	.L5
  54 0016 4FF0FF30 		mov	r0, #-1
  55              	.LVL4:
  56 001a 03B0     		add	sp, sp, #12
  57              		.cfi_remember_state
ARM GAS  /var/folders/d2/nstgp4h54kz7g1l847x_b8wc0000gn/T//ccEQVVt7.s 			page 2


  58              		.cfi_def_cfa_offset 4
  59              		@ sp needed
  60 001c 5DF804FB 		ldr	pc, [sp], #4
  61              	.LVL5:
  62              	.L5:
  63              		.cfi_restore_state
  64 0020 FFF7FEFF 		bl	__stack_chk_fail
  65              	.LVL6:
  66              	.L7:
  67              		.align	2
  68              	.L6:
  69 0024 00000000 		.word	__stack_chk_guard
  70              		.cfi_endproc
  71              	.LFE219:
  72              		.size	_read_r, .-_read_r
  73              		.section	.text._lseek_r,"ax",%progbits
  74              		.align	1
  75              		.p2align 4,,15
  76              		.global	_lseek_r
  77              		.syntax unified
  78              		.thumb
  79              		.thumb_func
  80              		.fpu fpv4-sp-d16
  81              		.type	_lseek_r, %function
  82              	_lseek_r:
  83              	.LFB220:
  84              		.loc 1 35 0
  85              		.cfi_startproc
  86              		@ args = 0, pretend = 0, frame = 8
  87              		@ frame_needed = 0, uses_anonymous_args = 0
  88              	.LVL7:
  89 0000 00B5     		push	{lr}
  90              		.cfi_def_cfa_offset 4
  91              		.cfi_offset 14, -4
  92 0002 074B     		ldr	r3, .L12
  93              	.LVL8:
  94 0004 83B0     		sub	sp, sp, #12
  95              		.cfi_def_cfa_offset 16
  96              		.loc 1 35 0
  97 0006 1A68     		ldr	r2, [r3]
  98              	.LVL9:
  99 0008 0192     		str	r2, [sp, #4]
 100              		.loc 1 42 0
 101 000a 019A     		ldr	r2, [sp, #4]
 102 000c 1B68     		ldr	r3, [r3]
 103 000e 9A42     		cmp	r2, r3
 104 0010 03D1     		bne	.L11
 105 0012 0020     		movs	r0, #0
 106              	.LVL10:
 107 0014 03B0     		add	sp, sp, #12
 108              		.cfi_remember_state
 109              		.cfi_def_cfa_offset 4
 110              		@ sp needed
 111 0016 5DF804FB 		ldr	pc, [sp], #4
 112              	.LVL11:
 113              	.L11:
 114              		.cfi_restore_state
ARM GAS  /var/folders/d2/nstgp4h54kz7g1l847x_b8wc0000gn/T//ccEQVVt7.s 			page 3


 115 001a FFF7FEFF 		bl	__stack_chk_fail
 116              	.LVL12:
 117              	.L13:
 118 001e 00BF     		.align	2
 119              	.L12:
 120 0020 00000000 		.word	__stack_chk_guard
 121              		.cfi_endproc
 122              	.LFE220:
 123              		.size	_lseek_r, .-_lseek_r
 124              		.section	.text._write_r,"ax",%progbits
 125              		.align	1
 126              		.p2align 4,,15
 127              		.global	_write_r
 128              		.syntax unified
 129              		.thumb
 130              		.thumb_func
 131              		.fpu fpv4-sp-d16
 132              		.type	_write_r, %function
 133              	_write_r:
 134              	.LFB221:
 135              		.loc 1 45 0
 136              		.cfi_startproc
 137              		@ args = 0, pretend = 0, frame = 8
 138              		@ frame_needed = 0, uses_anonymous_args = 0
 139              	.LVL13:
 140 0000 00B5     		push	{lr}
 141              		.cfi_def_cfa_offset 4
 142              		.cfi_offset 14, -4
 143 0002 074A     		ldr	r2, .L18
 144              	.LVL14:
 145 0004 83B0     		sub	sp, sp, #12
 146              		.cfi_def_cfa_offset 16
 147              		.loc 1 45 0
 148 0006 1168     		ldr	r1, [r2]
 149              	.LVL15:
 150 0008 0191     		str	r1, [sp, #4]
 151              		.loc 1 57 0
 152 000a 0199     		ldr	r1, [sp, #4]
 153 000c 1268     		ldr	r2, [r2]
 154 000e 9142     		cmp	r1, r2
 155 0010 03D1     		bne	.L17
 156 0012 1846     		mov	r0, r3
 157              	.LVL16:
 158 0014 03B0     		add	sp, sp, #12
 159              		.cfi_remember_state
 160              		.cfi_def_cfa_offset 4
 161              		@ sp needed
 162 0016 5DF804FB 		ldr	pc, [sp], #4
 163              	.LVL17:
 164              	.L17:
 165              		.cfi_restore_state
 166 001a FFF7FEFF 		bl	__stack_chk_fail
 167              	.LVL18:
 168              	.L19:
 169 001e 00BF     		.align	2
 170              	.L18:
 171 0020 00000000 		.word	__stack_chk_guard
ARM GAS  /var/folders/d2/nstgp4h54kz7g1l847x_b8wc0000gn/T//ccEQVVt7.s 			page 4


 172              		.cfi_endproc
 173              	.LFE221:
 174              		.size	_write_r, .-_write_r
 175              		.section	.text._close_r,"ax",%progbits
 176              		.align	1
 177              		.p2align 4,,15
 178              		.global	_close_r
 179              		.syntax unified
 180              		.thumb
 181              		.thumb_func
 182              		.fpu fpv4-sp-d16
 183              		.type	_close_r, %function
 184              	_close_r:
 185              	.LFB222:
 186              		.loc 1 60 0
 187              		.cfi_startproc
 188              		@ args = 0, pretend = 0, frame = 8
 189              		@ frame_needed = 0, uses_anonymous_args = 0
 190              	.LVL19:
 191 0000 00B5     		push	{lr}
 192              		.cfi_def_cfa_offset 4
 193              		.cfi_offset 14, -4
 194 0002 074B     		ldr	r3, .L24
 195 0004 83B0     		sub	sp, sp, #12
 196              		.cfi_def_cfa_offset 16
 197              		.loc 1 60 0
 198 0006 1A68     		ldr	r2, [r3]
 199 0008 0192     		str	r2, [sp, #4]
 200              		.loc 1 65 0
 201 000a 019A     		ldr	r2, [sp, #4]
 202 000c 1B68     		ldr	r3, [r3]
 203 000e 9A42     		cmp	r2, r3
 204 0010 03D1     		bne	.L23
 205 0012 0020     		movs	r0, #0
 206              	.LVL20:
 207 0014 03B0     		add	sp, sp, #12
 208              		.cfi_remember_state
 209              		.cfi_def_cfa_offset 4
 210              		@ sp needed
 211 0016 5DF804FB 		ldr	pc, [sp], #4
 212              	.LVL21:
 213              	.L23:
 214              		.cfi_restore_state
 215 001a FFF7FEFF 		bl	__stack_chk_fail
 216              	.LVL22:
 217              	.L25:
 218 001e 00BF     		.align	2
 219              	.L24:
 220 0020 00000000 		.word	__stack_chk_guard
 221              		.cfi_endproc
 222              	.LFE222:
 223              		.size	_close_r, .-_close_r
 224              		.section	.text._sbrk_r,"ax",%progbits
 225              		.align	1
 226              		.p2align 4,,15
 227              		.global	_sbrk_r
 228              		.syntax unified
ARM GAS  /var/folders/d2/nstgp4h54kz7g1l847x_b8wc0000gn/T//ccEQVVt7.s 			page 5


 229              		.thumb
 230              		.thumb_func
 231              		.fpu fpv4-sp-d16
 232              		.type	_sbrk_r, %function
 233              	_sbrk_r:
 234              	.LFB223:
 235              		.loc 1 68 0
 236              		.cfi_startproc
 237              		@ args = 0, pretend = 0, frame = 8
 238              		@ frame_needed = 0, uses_anonymous_args = 0
 239              	.LVL23:
 240 0000 70B5     		push	{r4, r5, r6, lr}
 241              		.cfi_def_cfa_offset 16
 242              		.cfi_offset 4, -16
 243              		.cfi_offset 5, -12
 244              		.cfi_offset 6, -8
 245              		.cfi_offset 14, -4
 246 0002 0D4C     		ldr	r4, .L33
 247 0004 82B0     		sub	sp, sp, #8
 248              		.cfi_def_cfa_offset 24
 249              		.loc 1 68 0
 250 0006 2368     		ldr	r3, [r4]
 251 0008 0193     		str	r3, [sp, #4]
 252              		.loc 1 72 0
 253 000a 0D1E     		subs	r5, r1, #0
 254              		.loc 1 68 0
 255 000c 0646     		mov	r6, r0
 256              		.loc 1 72 0
 257 000e 0DDD     		ble	.L31
 258              	.LVL24:
 259              	.L27:
 260              		.loc 1 74 0
 261 0010 2846     		mov	r0, r5
 262 0012 FFF7FEFF 		bl	chCoreAlloc
 263              	.LVL25:
 264              		.loc 1 75 0
 265 0016 18B9     		cbnz	r0, .L26
 266              		.loc 1 76 0
 267 0018 0C23     		movs	r3, #12
 268 001a 3360     		str	r3, [r6]
 269              		.loc 1 77 0
 270 001c 4FF0FF30 		mov	r0, #-1
 271              	.LVL26:
 272              	.L26:
 273              		.loc 1 85 0
 274 0020 019A     		ldr	r2, [sp, #4]
 275 0022 2368     		ldr	r3, [r4]
 276 0024 9A42     		cmp	r2, r3
 277 0026 05D1     		bne	.L32
 278 0028 02B0     		add	sp, sp, #8
 279              		.cfi_remember_state
 280              		.cfi_def_cfa_offset 16
 281              		@ sp needed
 282 002a 70BD     		pop	{r4, r5, r6, pc}
 283              	.LVL27:
 284              	.L31:
 285              		.cfi_restore_state
ARM GAS  /var/folders/d2/nstgp4h54kz7g1l847x_b8wc0000gn/T//ccEQVVt7.s 			page 6


 286              		.loc 1 72 0 discriminator 2
 287 002c 0348     		ldr	r0, .L33+4
 288              	.LVL28:
 289 002e FFF7FEFF 		bl	chSysHalt
 290              	.LVL29:
 291 0032 EDE7     		b	.L27
 292              	.L32:
 293              		.loc 1 85 0
 294 0034 FFF7FEFF 		bl	__stack_chk_fail
 295              	.LVL30:
 296              	.L34:
 297              		.align	2
 298              	.L33:
 299 0038 00000000 		.word	__stack_chk_guard
 300 003c 00000000 		.word	.LANCHOR0
 301              		.cfi_endproc
 302              	.LFE223:
 303              		.size	_sbrk_r, .-_sbrk_r
 304              		.section	.text._fstat_r,"ax",%progbits
 305              		.align	1
 306              		.p2align 4,,15
 307              		.global	_fstat_r
 308              		.syntax unified
 309              		.thumb
 310              		.thumb_func
 311              		.fpu fpv4-sp-d16
 312              		.type	_fstat_r, %function
 313              	_fstat_r:
 314              	.LFB224:
 315              		.loc 1 88 0
 316              		.cfi_startproc
 317              		@ args = 0, pretend = 0, frame = 8
 318              		@ frame_needed = 0, uses_anonymous_args = 0
 319              	.LVL31:
 320 0000 10B5     		push	{r4, lr}
 321              		.cfi_def_cfa_offset 8
 322              		.cfi_offset 4, -8
 323              		.cfi_offset 14, -4
 324 0002 0B4C     		ldr	r4, .L39
 325 0004 82B0     		sub	sp, sp, #8
 326              		.cfi_def_cfa_offset 16
 327              		.loc 1 88 0
 328 0006 1346     		mov	r3, r2
 329 0008 2268     		ldr	r2, [r4]
 330              	.LVL32:
 331 000a 0192     		str	r2, [sp, #4]
 332              		.loc 1 92 0
 333 000c 1846     		mov	r0, r3
 334              	.LVL33:
 335 000e 5822     		movs	r2, #88
 336 0010 0021     		movs	r1, #0
 337              	.LVL34:
 338 0012 FFF7FEFF 		bl	memset
 339              	.LVL35:
 340              		.loc 1 95 0
 341 0016 0199     		ldr	r1, [sp, #4]
 342 0018 2268     		ldr	r2, [r4]
ARM GAS  /var/folders/d2/nstgp4h54kz7g1l847x_b8wc0000gn/T//ccEQVVt7.s 			page 7


 343              		.loc 1 92 0
 344 001a 0346     		mov	r3, r0
 345              		.loc 1 95 0
 346 001c 9142     		cmp	r1, r2
 347              		.loc 1 93 0
 348 001e 4FF40050 		mov	r0, #8192
 349 0022 5860     		str	r0, [r3, #4]
 350              		.loc 1 95 0
 351 0024 02D1     		bne	.L38
 352 0026 0020     		movs	r0, #0
 353 0028 02B0     		add	sp, sp, #8
 354              		.cfi_remember_state
 355              		.cfi_def_cfa_offset 8
 356              		@ sp needed
 357 002a 10BD     		pop	{r4, pc}
 358              	.L38:
 359              		.cfi_restore_state
 360 002c FFF7FEFF 		bl	__stack_chk_fail
 361              	.LVL36:
 362              	.L40:
 363              		.align	2
 364              	.L39:
 365 0030 00000000 		.word	__stack_chk_guard
 366              		.cfi_endproc
 367              	.LFE224:
 368              		.size	_fstat_r, .-_fstat_r
 369              		.section	.text._isatty_r,"ax",%progbits
 370              		.align	1
 371              		.p2align 4,,15
 372              		.global	_isatty_r
 373              		.syntax unified
 374              		.thumb
 375              		.thumb_func
 376              		.fpu fpv4-sp-d16
 377              		.type	_isatty_r, %function
 378              	_isatty_r:
 379              	.LFB225:
 380              		.loc 1 98 0
 381              		.cfi_startproc
 382              		@ args = 0, pretend = 0, frame = 8
 383              		@ frame_needed = 0, uses_anonymous_args = 0
 384              	.LVL37:
 385 0000 00B5     		push	{lr}
 386              		.cfi_def_cfa_offset 4
 387              		.cfi_offset 14, -4
 388 0002 074B     		ldr	r3, .L45
 389 0004 83B0     		sub	sp, sp, #12
 390              		.cfi_def_cfa_offset 16
 391              		.loc 1 98 0
 392 0006 1A68     		ldr	r2, [r3]
 393 0008 0192     		str	r2, [sp, #4]
 394              		.loc 1 103 0
 395 000a 019A     		ldr	r2, [sp, #4]
 396 000c 1B68     		ldr	r3, [r3]
 397 000e 9A42     		cmp	r2, r3
 398 0010 03D1     		bne	.L44
 399 0012 0120     		movs	r0, #1
ARM GAS  /var/folders/d2/nstgp4h54kz7g1l847x_b8wc0000gn/T//ccEQVVt7.s 			page 8


 400              	.LVL38:
 401 0014 03B0     		add	sp, sp, #12
 402              		.cfi_remember_state
 403              		.cfi_def_cfa_offset 4
 404              		@ sp needed
 405 0016 5DF804FB 		ldr	pc, [sp], #4
 406              	.LVL39:
 407              	.L44:
 408              		.cfi_restore_state
 409 001a FFF7FEFF 		bl	__stack_chk_fail
 410              	.LVL40:
 411              	.L46:
 412 001e 00BF     		.align	2
 413              	.L45:
 414 0020 00000000 		.word	__stack_chk_guard
 415              		.cfi_endproc
 416              	.LFE225:
 417              		.size	_isatty_r, .-_isatty_r
 418              		.section	.text._fini,"ax",%progbits
 419              		.align	1
 420              		.p2align 4,,15
 421              		.global	_fini
 422              		.syntax unified
 423              		.thumb
 424              		.thumb_func
 425              		.fpu fpv4-sp-d16
 426              		.type	_fini, %function
 427              	_fini:
 428              	.LFB226:
 429              		.loc 1 107 0
 430              		.cfi_startproc
 431              		@ args = 0, pretend = 0, frame = 8
 432              		@ frame_needed = 0, uses_anonymous_args = 0
 433 0000 00B5     		push	{lr}
 434              		.cfi_def_cfa_offset 4
 435              		.cfi_offset 14, -4
 436 0002 064B     		ldr	r3, .L51
 437 0004 83B0     		sub	sp, sp, #12
 438              		.cfi_def_cfa_offset 16
 439              		.loc 1 107 0
 440 0006 1A68     		ldr	r2, [r3]
 441 0008 0192     		str	r2, [sp, #4]
 442              		.loc 1 109 0
 443 000a 019A     		ldr	r2, [sp, #4]
 444 000c 1B68     		ldr	r3, [r3]
 445 000e 9A42     		cmp	r2, r3
 446 0010 02D1     		bne	.L50
 447 0012 03B0     		add	sp, sp, #12
 448              		.cfi_remember_state
 449              		.cfi_def_cfa_offset 4
 450              		@ sp needed
 451 0014 5DF804FB 		ldr	pc, [sp], #4
 452              	.L50:
 453              		.cfi_restore_state
 454 0018 FFF7FEFF 		bl	__stack_chk_fail
 455              	.LVL41:
 456              	.L52:
ARM GAS  /var/folders/d2/nstgp4h54kz7g1l847x_b8wc0000gn/T//ccEQVVt7.s 			page 9


 457              		.align	2
 458              	.L51:
 459 001c 00000000 		.word	__stack_chk_guard
 460              		.cfi_endproc
 461              	.LFE226:
 462              		.size	_fini, .-_fini
 463              		.section	.rodata.__func__.8929,"a",%progbits
 464              		.align	2
 465              		.set	.LANCHOR0,. + 0
 466              		.type	__func__.8929, %object
 467              		.size	__func__.8929, 8
 468              	__func__.8929:
 469 0000 5F736272 		.ascii	"_sbrk_r\000"
 469      6B5F7200 
 470              		.text
 471              	.Letext0:
 472              		.file 2 "/Applications/Eclipse_e-puck2.app/Contents/Eclipse_e-puck2/Tools/gcc-arm-none-eabi-7-2017
 473              		.file 3 "/Applications/Eclipse_e-puck2.app/Contents/Eclipse_e-puck2/Tools/gcc-arm-none-eabi-7-2017
 474              		.file 4 "/Applications/Eclipse_e-puck2.app/Contents/Eclipse_e-puck2/Tools/gcc-arm-none-eabi-7-2017
 475              		.file 5 "/Applications/Eclipse_e-puck2.app/Contents/Eclipse_e-puck2/Tools/gcc-arm-none-eabi-7-2017
 476              		.file 6 "/Applications/Eclipse_e-puck2.app/Contents/Eclipse_e-puck2/Tools/gcc-arm-none-eabi-7-2017
 477              		.file 7 "/Applications/Eclipse_e-puck2.app/Contents/Eclipse_e-puck2/Tools/gcc-arm-none-eabi-7-2017
 478              		.file 8 "/Applications/Eclipse_e-puck2.app/Contents/Eclipse_e-puck2/Tools/gcc-arm-none-eabi-7-2017
 479              		.file 9 "/Applications/Eclipse_e-puck2.app/Contents/Eclipse_e-puck2/Tools/gcc-arm-none-eabi-7-2017
 480              		.file 10 "/Applications/Eclipse_e-puck2.app/Contents/Eclipse_e-puck2/Tools/gcc-arm-none-eabi-7-201
 481              		.file 11 "/Applications/Eclipse_e-puck2.app/Contents/Eclipse_e-puck2/Tools/gcc-arm-none-eabi-7-201
 482              		.file 12 "/Applications/Eclipse_e-puck2.app/Contents/Eclipse_e-puck2/Tools/gcc-arm-none-eabi-7-201
 483              		.file 13 "/Applications/Eclipse_e-puck2.app/Contents/Eclipse_e-puck2/Tools/gcc-arm-none-eabi-7-201
 484              		.file 14 "../e-puck2_main-processor/ChibiOS//os/rt/ports/ARMCMx/compilers/GCC/chtypes.h"
 485              		.file 15 "../e-puck2_main-processor/ChibiOS//os/rt/include/chsystypes.h"
 486              		.file 16 "../e-puck2_main-processor/ChibiOS//os/rt/include/chschd.h"
 487              		.file 17 "../e-puck2_main-processor/ChibiOS//os/ext/CMSIS/include/core_cm4.h"
 488              		.file 18 "../e-puck2_main-processor/ChibiOS//os/ext/CMSIS/ST/system_stm32f4xx.h"
 489              		.file 19 "../e-puck2_main-processor/ChibiOS//os/rt/ports/ARMCMx/chcore.h"
 490              		.file 20 "../e-puck2_main-processor/ChibiOS//os/rt/ports/ARMCMx/chcore_v7m.h"
 491              		.file 21 "../e-puck2_main-processor/ChibiOS//os/rt/include/chdebug.h"
 492              		.file 22 "../e-puck2_main-processor/ChibiOS//os/rt/include/chtm.h"
 493              		.file 23 "../e-puck2_main-processor/ChibiOS//os/rt/include/chstats.h"
 494              		.file 24 "../e-puck2_main-processor/ChibiOS//os/rt/include/chsem.h"
 495              		.file 25 "../e-puck2_main-processor/ChibiOS//os/rt/include/chmtx.h"
 496              		.file 26 "../e-puck2_main-processor/ChibiOS//os/rt/include/chregistry.h"
 497              		.file 27 "../e-puck2_main-processor/ChibiOS//os/rt/include/chmemcore.h"
 498              		.file 28 "../e-puck2_main-processor/ChibiOS//os/rt/include/chsys.h"
 499              		.file 29 "<built-in>"
 500              		.section	.debug_info,"",%progbits
 501              	.Ldebug_info0:
 502 0000 29170000 		.4byte	0x1729
 503 0004 0400     		.2byte	0x4
 504 0006 00000000 		.4byte	.Ldebug_abbrev0
 505 000a 04       		.byte	0x4
 506 000b 01       		.uleb128 0x1
 507 000c 69000000 		.4byte	.LASF323
 508 0010 0C       		.byte	0xc
 509 0011 6A050000 		.4byte	.LASF324
 510 0015 FF0B0000 		.4byte	.LASF325
 511 0019 00000000 		.4byte	.Ldebug_ranges0+0
 512 001d 00000000 		.4byte	0
ARM GAS  /var/folders/d2/nstgp4h54kz7g1l847x_b8wc0000gn/T//ccEQVVt7.s 			page 10


 513 0021 00000000 		.4byte	.Ldebug_line0
 514 0025 02       		.uleb128 0x2
 515 0026 08000000 		.4byte	.LASF4
 516 002a 02       		.byte	0x2
 517 002b D8       		.byte	0xd8
 518 002c 30000000 		.4byte	0x30
 519 0030 03       		.uleb128 0x3
 520 0031 04       		.byte	0x4
 521 0032 07       		.byte	0x7
 522 0033 C2080000 		.4byte	.LASF0
 523 0037 04       		.uleb128 0x4
 524 0038 04       		.byte	0x4
 525 0039 05       		.byte	0x5
 526 003a 696E7400 		.ascii	"int\000"
 527 003e 03       		.uleb128 0x3
 528 003f 08       		.byte	0x8
 529 0040 05       		.byte	0x5
 530 0041 0C080000 		.4byte	.LASF1
 531 0045 03       		.uleb128 0x3
 532 0046 08       		.byte	0x8
 533 0047 04       		.byte	0x4
 534 0048 ED090000 		.4byte	.LASF2
 535 004c 03       		.uleb128 0x3
 536 004d 01       		.byte	0x1
 537 004e 06       		.byte	0x6
 538 004f FD030000 		.4byte	.LASF3
 539 0053 02       		.uleb128 0x2
 540 0054 DC020000 		.4byte	.LASF5
 541 0058 03       		.byte	0x3
 542 0059 2B       		.byte	0x2b
 543 005a 5E000000 		.4byte	0x5e
 544 005e 03       		.uleb128 0x3
 545 005f 01       		.byte	0x1
 546 0060 08       		.byte	0x8
 547 0061 66040000 		.4byte	.LASF6
 548 0065 03       		.uleb128 0x3
 549 0066 02       		.byte	0x2
 550 0067 05       		.byte	0x5
 551 0068 C00B0000 		.4byte	.LASF7
 552 006c 02       		.uleb128 0x2
 553 006d FD040000 		.4byte	.LASF8
 554 0071 03       		.byte	0x3
 555 0072 39       		.byte	0x39
 556 0073 77000000 		.4byte	0x77
 557 0077 03       		.uleb128 0x3
 558 0078 02       		.byte	0x2
 559 0079 07       		.byte	0x7
 560 007a 460D0000 		.4byte	.LASF9
 561 007e 02       		.uleb128 0x2
 562 007f 9D0D0000 		.4byte	.LASF10
 563 0083 03       		.byte	0x3
 564 0084 4D       		.byte	0x4d
 565 0085 89000000 		.4byte	0x89
 566 0089 03       		.uleb128 0x3
 567 008a 04       		.byte	0x4
 568 008b 05       		.byte	0x5
 569 008c 3D030000 		.4byte	.LASF11
ARM GAS  /var/folders/d2/nstgp4h54kz7g1l847x_b8wc0000gn/T//ccEQVVt7.s 			page 11


 570 0090 02       		.uleb128 0x2
 571 0091 E5070000 		.4byte	.LASF12
 572 0095 03       		.byte	0x3
 573 0096 4F       		.byte	0x4f
 574 0097 9B000000 		.4byte	0x9b
 575 009b 03       		.uleb128 0x3
 576 009c 04       		.byte	0x4
 577 009d 07       		.byte	0x7
 578 009e B1060000 		.4byte	.LASF13
 579 00a2 02       		.uleb128 0x2
 580 00a3 9B060000 		.4byte	.LASF14
 581 00a7 03       		.byte	0x3
 582 00a8 69       		.byte	0x69
 583 00a9 AD000000 		.4byte	0xad
 584 00ad 03       		.uleb128 0x3
 585 00ae 08       		.byte	0x8
 586 00af 07       		.byte	0x7
 587 00b0 770A0000 		.4byte	.LASF15
 588 00b4 02       		.uleb128 0x2
 589 00b5 EF0B0000 		.4byte	.LASF16
 590 00b9 03       		.byte	0x3
 591 00ba C8       		.byte	0xc8
 592 00bb 3E000000 		.4byte	0x3e
 593 00bf 02       		.uleb128 0x2
 594 00c0 C70C0000 		.4byte	.LASF17
 595 00c4 04       		.byte	0x4
 596 00c5 22       		.byte	0x22
 597 00c6 CA000000 		.4byte	0xca
 598 00ca 05       		.uleb128 0x5
 599 00cb 04       		.byte	0x4
 600 00cc D0000000 		.4byte	0xd0
 601 00d0 06       		.uleb128 0x6
 602 00d1 41060000 		.4byte	.LASF133
 603 00d5 02       		.uleb128 0x2
 604 00d6 AA070000 		.4byte	.LASF18
 605 00da 05       		.byte	0x5
 606 00db 1C       		.byte	0x1c
 607 00dc 89000000 		.4byte	0x89
 608 00e0 02       		.uleb128 0x2
 609 00e1 13040000 		.4byte	.LASF19
 610 00e5 05       		.byte	0x5
 611 00e6 20       		.byte	0x20
 612 00e7 89000000 		.4byte	0x89
 613 00eb 02       		.uleb128 0x2
 614 00ec 330D0000 		.4byte	.LASF20
 615 00f0 05       		.byte	0x5
 616 00f1 2C       		.byte	0x2c
 617 00f2 89000000 		.4byte	0x89
 618 00f6 02       		.uleb128 0x2
 619 00f7 E6020000 		.4byte	.LASF21
 620 00fb 05       		.byte	0x5
 621 00fc 36       		.byte	0x36
 622 00fd 65000000 		.4byte	0x65
 623 0101 02       		.uleb128 0x2
 624 0102 DF0C0000 		.4byte	.LASF22
 625 0106 05       		.byte	0x5
 626 0107 3A       		.byte	0x3a
ARM GAS  /var/folders/d2/nstgp4h54kz7g1l847x_b8wc0000gn/T//ccEQVVt7.s 			page 12


 627 0108 77000000 		.4byte	0x77
 628 010c 02       		.uleb128 0x2
 629 010d 37020000 		.4byte	.LASF23
 630 0111 05       		.byte	0x5
 631 0112 3D       		.byte	0x3d
 632 0113 77000000 		.4byte	0x77
 633 0117 02       		.uleb128 0x2
 634 0118 DD070000 		.4byte	.LASF24
 635 011c 05       		.byte	0x5
 636 011d 49       		.byte	0x49
 637 011e 77000000 		.4byte	0x77
 638 0122 02       		.uleb128 0x2
 639 0123 38050000 		.4byte	.LASF25
 640 0127 05       		.byte	0x5
 641 0128 58       		.byte	0x58
 642 0129 90000000 		.4byte	0x90
 643 012d 02       		.uleb128 0x2
 644 012e 9F0A0000 		.4byte	.LASF26
 645 0132 05       		.byte	0x5
 646 0133 64       		.byte	0x64
 647 0134 EB000000 		.4byte	0xeb
 648 0138 02       		.uleb128 0x2
 649 0139 360A0000 		.4byte	.LASF27
 650 013d 05       		.byte	0x5
 651 013e 72       		.byte	0x72
 652 013f 89000000 		.4byte	0x89
 653 0143 07       		.uleb128 0x7
 654 0144 5D0B0000 		.4byte	.LASF28
 655 0148 02       		.byte	0x2
 656 0149 6501     		.2byte	0x165
 657 014b 30000000 		.4byte	0x30
 658 014f 08       		.uleb128 0x8
 659 0150 04       		.byte	0x4
 660 0151 05       		.byte	0x5
 661 0152 A6       		.byte	0xa6
 662 0153 6E010000 		.4byte	0x16e
 663 0157 09       		.uleb128 0x9
 664 0158 CD020000 		.4byte	.LASF29
 665 015c 05       		.byte	0x5
 666 015d A8       		.byte	0xa8
 667 015e 43010000 		.4byte	0x143
 668 0162 09       		.uleb128 0x9
 669 0163 3E0A0000 		.4byte	.LASF30
 670 0167 05       		.byte	0x5
 671 0168 A9       		.byte	0xa9
 672 0169 6E010000 		.4byte	0x16e
 673 016d 00       		.byte	0
 674 016e 0A       		.uleb128 0xa
 675 016f 5E000000 		.4byte	0x5e
 676 0173 7E010000 		.4byte	0x17e
 677 0177 0B       		.uleb128 0xb
 678 0178 30000000 		.4byte	0x30
 679 017c 03       		.byte	0x3
 680 017d 00       		.byte	0
 681 017e 0C       		.uleb128 0xc
 682 017f 08       		.byte	0x8
 683 0180 05       		.byte	0x5
ARM GAS  /var/folders/d2/nstgp4h54kz7g1l847x_b8wc0000gn/T//ccEQVVt7.s 			page 13


 684 0181 A3       		.byte	0xa3
 685 0182 9F010000 		.4byte	0x19f
 686 0186 0D       		.uleb128 0xd
 687 0187 B3090000 		.4byte	.LASF31
 688 018b 05       		.byte	0x5
 689 018c A5       		.byte	0xa5
 690 018d 37000000 		.4byte	0x37
 691 0191 00       		.byte	0
 692 0192 0D       		.uleb128 0xd
 693 0193 1A000000 		.4byte	.LASF32
 694 0197 05       		.byte	0x5
 695 0198 AA       		.byte	0xaa
 696 0199 4F010000 		.4byte	0x14f
 697 019d 04       		.byte	0x4
 698 019e 00       		.byte	0
 699 019f 02       		.uleb128 0x2
 700 01a0 450B0000 		.4byte	.LASF33
 701 01a4 05       		.byte	0x5
 702 01a5 AB       		.byte	0xab
 703 01a6 7E010000 		.4byte	0x17e
 704 01aa 02       		.uleb128 0x2
 705 01ab 300B0000 		.4byte	.LASF34
 706 01af 05       		.byte	0x5
 707 01b0 AF       		.byte	0xaf
 708 01b1 BF000000 		.4byte	0xbf
 709 01b5 0E       		.uleb128 0xe
 710 01b6 04       		.byte	0x4
 711 01b7 02       		.uleb128 0x2
 712 01b8 C00D0000 		.4byte	.LASF35
 713 01bc 05       		.byte	0x5
 714 01bd D2       		.byte	0xd2
 715 01be 77000000 		.4byte	0x77
 716 01c2 05       		.uleb128 0x5
 717 01c3 04       		.byte	0x4
 718 01c4 C8010000 		.4byte	0x1c8
 719 01c8 03       		.uleb128 0x3
 720 01c9 01       		.byte	0x1
 721 01ca 08       		.byte	0x8
 722 01cb D8040000 		.4byte	.LASF36
 723 01cf 0F       		.uleb128 0xf
 724 01d0 C8010000 		.4byte	0x1c8
 725 01d4 02       		.uleb128 0x2
 726 01d5 1A0D0000 		.4byte	.LASF37
 727 01d9 06       		.byte	0x6
 728 01da 16       		.byte	0x16
 729 01db 9B000000 		.4byte	0x9b
 730 01df 10       		.uleb128 0x10
 731 01e0 75070000 		.4byte	.LASF42
 732 01e4 18       		.byte	0x18
 733 01e5 06       		.byte	0x6
 734 01e6 2F       		.byte	0x2f
 735 01e7 32020000 		.4byte	0x232
 736 01eb 0D       		.uleb128 0xd
 737 01ec 640B0000 		.4byte	.LASF38
 738 01f0 06       		.byte	0x6
 739 01f1 31       		.byte	0x31
 740 01f2 32020000 		.4byte	0x232
ARM GAS  /var/folders/d2/nstgp4h54kz7g1l847x_b8wc0000gn/T//ccEQVVt7.s 			page 14


 741 01f6 00       		.byte	0
 742 01f7 11       		.uleb128 0x11
 743 01f8 5F6B00   		.ascii	"_k\000"
 744 01fb 06       		.byte	0x6
 745 01fc 32       		.byte	0x32
 746 01fd 37000000 		.4byte	0x37
 747 0201 04       		.byte	0x4
 748 0202 0D       		.uleb128 0xd
 749 0203 9C070000 		.4byte	.LASF39
 750 0207 06       		.byte	0x6
 751 0208 32       		.byte	0x32
 752 0209 37000000 		.4byte	0x37
 753 020d 08       		.byte	0x8
 754 020e 0D       		.uleb128 0xd
 755 020f 99080000 		.4byte	.LASF40
 756 0213 06       		.byte	0x6
 757 0214 32       		.byte	0x32
 758 0215 37000000 		.4byte	0x37
 759 0219 0C       		.byte	0xc
 760 021a 0D       		.uleb128 0xd
 761 021b 2E060000 		.4byte	.LASF41
 762 021f 06       		.byte	0x6
 763 0220 32       		.byte	0x32
 764 0221 37000000 		.4byte	0x37
 765 0225 10       		.byte	0x10
 766 0226 11       		.uleb128 0x11
 767 0227 5F7800   		.ascii	"_x\000"
 768 022a 06       		.byte	0x6
 769 022b 33       		.byte	0x33
 770 022c 38020000 		.4byte	0x238
 771 0230 14       		.byte	0x14
 772 0231 00       		.byte	0
 773 0232 05       		.uleb128 0x5
 774 0233 04       		.byte	0x4
 775 0234 DF010000 		.4byte	0x1df
 776 0238 0A       		.uleb128 0xa
 777 0239 D4010000 		.4byte	0x1d4
 778 023d 48020000 		.4byte	0x248
 779 0241 0B       		.uleb128 0xb
 780 0242 30000000 		.4byte	0x30
 781 0246 00       		.byte	0
 782 0247 00       		.byte	0
 783 0248 10       		.uleb128 0x10
 784 0249 47020000 		.4byte	.LASF43
 785 024d 24       		.byte	0x24
 786 024e 06       		.byte	0x6
 787 024f 37       		.byte	0x37
 788 0250 C1020000 		.4byte	0x2c1
 789 0254 0D       		.uleb128 0xd
 790 0255 63020000 		.4byte	.LASF44
 791 0259 06       		.byte	0x6
 792 025a 39       		.byte	0x39
 793 025b 37000000 		.4byte	0x37
 794 025f 00       		.byte	0
 795 0260 0D       		.uleb128 0xd
 796 0261 000E0000 		.4byte	.LASF45
 797 0265 06       		.byte	0x6
ARM GAS  /var/folders/d2/nstgp4h54kz7g1l847x_b8wc0000gn/T//ccEQVVt7.s 			page 15


 798 0266 3A       		.byte	0x3a
 799 0267 37000000 		.4byte	0x37
 800 026b 04       		.byte	0x4
 801 026c 0D       		.uleb128 0xd
 802 026d 590D0000 		.4byte	.LASF46
 803 0271 06       		.byte	0x6
 804 0272 3B       		.byte	0x3b
 805 0273 37000000 		.4byte	0x37
 806 0277 08       		.byte	0x8
 807 0278 0D       		.uleb128 0xd
 808 0279 29090000 		.4byte	.LASF47
 809 027d 06       		.byte	0x6
 810 027e 3C       		.byte	0x3c
 811 027f 37000000 		.4byte	0x37
 812 0283 0C       		.byte	0xc
 813 0284 0D       		.uleb128 0xd
 814 0285 E1030000 		.4byte	.LASF48
 815 0289 06       		.byte	0x6
 816 028a 3D       		.byte	0x3d
 817 028b 37000000 		.4byte	0x37
 818 028f 10       		.byte	0x10
 819 0290 0D       		.uleb128 0xd
 820 0291 740C0000 		.4byte	.LASF49
 821 0295 06       		.byte	0x6
 822 0296 3E       		.byte	0x3e
 823 0297 37000000 		.4byte	0x37
 824 029b 14       		.byte	0x14
 825 029c 0D       		.uleb128 0xd
 826 029d D1090000 		.4byte	.LASF50
 827 02a1 06       		.byte	0x6
 828 02a2 3F       		.byte	0x3f
 829 02a3 37000000 		.4byte	0x37
 830 02a7 18       		.byte	0x18
 831 02a8 0D       		.uleb128 0xd
 832 02a9 F9090000 		.4byte	.LASF51
 833 02ad 06       		.byte	0x6
 834 02ae 40       		.byte	0x40
 835 02af 37000000 		.4byte	0x37
 836 02b3 1C       		.byte	0x1c
 837 02b4 0D       		.uleb128 0xd
 838 02b5 D20D0000 		.4byte	.LASF52
 839 02b9 06       		.byte	0x6
 840 02ba 41       		.byte	0x41
 841 02bb 37000000 		.4byte	0x37
 842 02bf 20       		.byte	0x20
 843 02c0 00       		.byte	0
 844 02c1 12       		.uleb128 0x12
 845 02c2 0F030000 		.4byte	.LASF53
 846 02c6 0801     		.2byte	0x108
 847 02c8 06       		.byte	0x6
 848 02c9 4A       		.byte	0x4a
 849 02ca 01030000 		.4byte	0x301
 850 02ce 0D       		.uleb128 0xd
 851 02cf CA0D0000 		.4byte	.LASF54
 852 02d3 06       		.byte	0x6
 853 02d4 4B       		.byte	0x4b
 854 02d5 01030000 		.4byte	0x301
ARM GAS  /var/folders/d2/nstgp4h54kz7g1l847x_b8wc0000gn/T//ccEQVVt7.s 			page 16


 855 02d9 00       		.byte	0
 856 02da 0D       		.uleb128 0xd
 857 02db A70A0000 		.4byte	.LASF55
 858 02df 06       		.byte	0x6
 859 02e0 4C       		.byte	0x4c
 860 02e1 01030000 		.4byte	0x301
 861 02e5 80       		.byte	0x80
 862 02e6 13       		.uleb128 0x13
 863 02e7 E60B0000 		.4byte	.LASF56
 864 02eb 06       		.byte	0x6
 865 02ec 4E       		.byte	0x4e
 866 02ed D4010000 		.4byte	0x1d4
 867 02f1 0001     		.2byte	0x100
 868 02f3 13       		.uleb128 0x13
 869 02f4 BF0C0000 		.4byte	.LASF57
 870 02f8 06       		.byte	0x6
 871 02f9 51       		.byte	0x51
 872 02fa D4010000 		.4byte	0x1d4
 873 02fe 0401     		.2byte	0x104
 874 0300 00       		.byte	0
 875 0301 0A       		.uleb128 0xa
 876 0302 B5010000 		.4byte	0x1b5
 877 0306 11030000 		.4byte	0x311
 878 030a 0B       		.uleb128 0xb
 879 030b 30000000 		.4byte	0x30
 880 030f 1F       		.byte	0x1f
 881 0310 00       		.byte	0
 882 0311 12       		.uleb128 0x12
 883 0312 98090000 		.4byte	.LASF58
 884 0316 9001     		.2byte	0x190
 885 0318 06       		.byte	0x6
 886 0319 5D       		.byte	0x5d
 887 031a 4F030000 		.4byte	0x34f
 888 031e 0D       		.uleb128 0xd
 889 031f 640B0000 		.4byte	.LASF38
 890 0323 06       		.byte	0x6
 891 0324 5E       		.byte	0x5e
 892 0325 4F030000 		.4byte	0x34f
 893 0329 00       		.byte	0
 894 032a 0D       		.uleb128 0xd
 895 032b A00C0000 		.4byte	.LASF59
 896 032f 06       		.byte	0x6
 897 0330 5F       		.byte	0x5f
 898 0331 37000000 		.4byte	0x37
 899 0335 04       		.byte	0x4
 900 0336 0D       		.uleb128 0xd
 901 0337 EA040000 		.4byte	.LASF60
 902 033b 06       		.byte	0x6
 903 033c 61       		.byte	0x61
 904 033d 55030000 		.4byte	0x355
 905 0341 08       		.byte	0x8
 906 0342 0D       		.uleb128 0xd
 907 0343 0F030000 		.4byte	.LASF53
 908 0347 06       		.byte	0x6
 909 0348 62       		.byte	0x62
 910 0349 C1020000 		.4byte	0x2c1
 911 034d 88       		.byte	0x88
ARM GAS  /var/folders/d2/nstgp4h54kz7g1l847x_b8wc0000gn/T//ccEQVVt7.s 			page 17


 912 034e 00       		.byte	0
 913 034f 05       		.uleb128 0x5
 914 0350 04       		.byte	0x4
 915 0351 11030000 		.4byte	0x311
 916 0355 0A       		.uleb128 0xa
 917 0356 65030000 		.4byte	0x365
 918 035a 65030000 		.4byte	0x365
 919 035e 0B       		.uleb128 0xb
 920 035f 30000000 		.4byte	0x30
 921 0363 1F       		.byte	0x1f
 922 0364 00       		.byte	0
 923 0365 05       		.uleb128 0x5
 924 0366 04       		.byte	0x4
 925 0367 6B030000 		.4byte	0x36b
 926 036b 14       		.uleb128 0x14
 927 036c 10       		.uleb128 0x10
 928 036d AF0C0000 		.4byte	.LASF61
 929 0371 08       		.byte	0x8
 930 0372 06       		.byte	0x6
 931 0373 75       		.byte	0x75
 932 0374 91030000 		.4byte	0x391
 933 0378 0D       		.uleb128 0xd
 934 0379 FA0A0000 		.4byte	.LASF62
 935 037d 06       		.byte	0x6
 936 037e 76       		.byte	0x76
 937 037f 91030000 		.4byte	0x391
 938 0383 00       		.byte	0
 939 0384 0D       		.uleb128 0xd
 940 0385 70030000 		.4byte	.LASF63
 941 0389 06       		.byte	0x6
 942 038a 77       		.byte	0x77
 943 038b 37000000 		.4byte	0x37
 944 038f 04       		.byte	0x4
 945 0390 00       		.byte	0
 946 0391 05       		.uleb128 0x5
 947 0392 04       		.byte	0x4
 948 0393 5E000000 		.4byte	0x5e
 949 0397 10       		.uleb128 0x10
 950 0398 CB060000 		.4byte	.LASF64
 951 039c 68       		.byte	0x68
 952 039d 06       		.byte	0x6
 953 039e B5       		.byte	0xb5
 954 039f C1040000 		.4byte	0x4c1
 955 03a3 11       		.uleb128 0x11
 956 03a4 5F7000   		.ascii	"_p\000"
 957 03a7 06       		.byte	0x6
 958 03a8 B6       		.byte	0xb6
 959 03a9 91030000 		.4byte	0x391
 960 03ad 00       		.byte	0
 961 03ae 11       		.uleb128 0x11
 962 03af 5F7200   		.ascii	"_r\000"
 963 03b2 06       		.byte	0x6
 964 03b3 B7       		.byte	0xb7
 965 03b4 37000000 		.4byte	0x37
 966 03b8 04       		.byte	0x4
 967 03b9 11       		.uleb128 0x11
 968 03ba 5F7700   		.ascii	"_w\000"
ARM GAS  /var/folders/d2/nstgp4h54kz7g1l847x_b8wc0000gn/T//ccEQVVt7.s 			page 18


 969 03bd 06       		.byte	0x6
 970 03be B8       		.byte	0xb8
 971 03bf 37000000 		.4byte	0x37
 972 03c3 08       		.byte	0x8
 973 03c4 0D       		.uleb128 0xd
 974 03c5 77090000 		.4byte	.LASF65
 975 03c9 06       		.byte	0x6
 976 03ca B9       		.byte	0xb9
 977 03cb 65000000 		.4byte	0x65
 978 03cf 0C       		.byte	0xc
 979 03d0 0D       		.uleb128 0xd
 980 03d1 FB020000 		.4byte	.LASF66
 981 03d5 06       		.byte	0x6
 982 03d6 BA       		.byte	0xba
 983 03d7 65000000 		.4byte	0x65
 984 03db 0E       		.byte	0xe
 985 03dc 11       		.uleb128 0x11
 986 03dd 5F626600 		.ascii	"_bf\000"
 987 03e1 06       		.byte	0x6
 988 03e2 BB       		.byte	0xbb
 989 03e3 6C030000 		.4byte	0x36c
 990 03e7 10       		.byte	0x10
 991 03e8 0D       		.uleb128 0xd
 992 03e9 8B0C0000 		.4byte	.LASF67
 993 03ed 06       		.byte	0x6
 994 03ee BC       		.byte	0xbc
 995 03ef 37000000 		.4byte	0x37
 996 03f3 18       		.byte	0x18
 997 03f4 0D       		.uleb128 0xd
 998 03f5 F6050000 		.4byte	.LASF68
 999 03f9 06       		.byte	0x6
 1000 03fa C3       		.byte	0xc3
 1001 03fb B5010000 		.4byte	0x1b5
 1002 03ff 1C       		.byte	0x1c
 1003 0400 0D       		.uleb128 0xd
 1004 0401 51000000 		.4byte	.LASF69
 1005 0405 06       		.byte	0x6
 1006 0406 C5       		.byte	0xc5
 1007 0407 1C060000 		.4byte	0x61c
 1008 040b 20       		.byte	0x20
 1009 040c 0D       		.uleb128 0xd
 1010 040d CB010000 		.4byte	.LASF70
 1011 0411 06       		.byte	0x6
 1012 0412 C7       		.byte	0xc7
 1013 0413 50060000 		.4byte	0x650
 1014 0417 24       		.byte	0x24
 1015 0418 0D       		.uleb128 0xd
 1016 0419 200A0000 		.4byte	.LASF71
 1017 041d 06       		.byte	0x6
 1018 041e CA       		.byte	0xca
 1019 041f 74060000 		.4byte	0x674
 1020 0423 28       		.byte	0x28
 1021 0424 0D       		.uleb128 0xd
 1022 0425 EF040000 		.4byte	.LASF72
 1023 0429 06       		.byte	0x6
 1024 042a CB       		.byte	0xcb
 1025 042b 8E060000 		.4byte	0x68e
ARM GAS  /var/folders/d2/nstgp4h54kz7g1l847x_b8wc0000gn/T//ccEQVVt7.s 			page 19


 1026 042f 2C       		.byte	0x2c
 1027 0430 11       		.uleb128 0x11
 1028 0431 5F756200 		.ascii	"_ub\000"
 1029 0435 06       		.byte	0x6
 1030 0436 CE       		.byte	0xce
 1031 0437 6C030000 		.4byte	0x36c
 1032 043b 30       		.byte	0x30
 1033 043c 11       		.uleb128 0x11
 1034 043d 5F757000 		.ascii	"_up\000"
 1035 0441 06       		.byte	0x6
 1036 0442 CF       		.byte	0xcf
 1037 0443 91030000 		.4byte	0x391
 1038 0447 38       		.byte	0x38
 1039 0448 11       		.uleb128 0x11
 1040 0449 5F757200 		.ascii	"_ur\000"
 1041 044d 06       		.byte	0x6
 1042 044e D0       		.byte	0xd0
 1043 044f 37000000 		.4byte	0x37
 1044 0453 3C       		.byte	0x3c
 1045 0454 0D       		.uleb128 0xd
 1046 0455 47090000 		.4byte	.LASF73
 1047 0459 06       		.byte	0x6
 1048 045a D3       		.byte	0xd3
 1049 045b 94060000 		.4byte	0x694
 1050 045f 40       		.byte	0x40
 1051 0460 0D       		.uleb128 0xd
 1052 0461 5D020000 		.4byte	.LASF74
 1053 0465 06       		.byte	0x6
 1054 0466 D4       		.byte	0xd4
 1055 0467 A4060000 		.4byte	0x6a4
 1056 046b 43       		.byte	0x43
 1057 046c 11       		.uleb128 0x11
 1058 046d 5F6C6200 		.ascii	"_lb\000"
 1059 0471 06       		.byte	0x6
 1060 0472 D7       		.byte	0xd7
 1061 0473 6C030000 		.4byte	0x36c
 1062 0477 44       		.byte	0x44
 1063 0478 0D       		.uleb128 0xd
 1064 0479 F10A0000 		.4byte	.LASF75
 1065 047d 06       		.byte	0x6
 1066 047e DA       		.byte	0xda
 1067 047f 37000000 		.4byte	0x37
 1068 0483 4C       		.byte	0x4c
 1069 0484 0D       		.uleb128 0xd
 1070 0485 52060000 		.4byte	.LASF76
 1071 0489 06       		.byte	0x6
 1072 048a DB       		.byte	0xdb
 1073 048b EB000000 		.4byte	0xeb
 1074 048f 50       		.byte	0x50
 1075 0490 0D       		.uleb128 0xd
 1076 0491 6A0B0000 		.4byte	.LASF77
 1077 0495 06       		.byte	0x6
 1078 0496 DE       		.byte	0xde
 1079 0497 DF040000 		.4byte	0x4df
 1080 049b 54       		.byte	0x54
 1081 049c 0D       		.uleb128 0xd
 1082 049d 7D020000 		.4byte	.LASF78
ARM GAS  /var/folders/d2/nstgp4h54kz7g1l847x_b8wc0000gn/T//ccEQVVt7.s 			page 20


 1083 04a1 06       		.byte	0x6
 1084 04a2 E2       		.byte	0xe2
 1085 04a3 AA010000 		.4byte	0x1aa
 1086 04a7 58       		.byte	0x58
 1087 04a8 0D       		.uleb128 0xd
 1088 04a9 63090000 		.4byte	.LASF79
 1089 04ad 06       		.byte	0x6
 1090 04ae E4       		.byte	0xe4
 1091 04af 9F010000 		.4byte	0x19f
 1092 04b3 5C       		.byte	0x5c
 1093 04b4 0D       		.uleb128 0xd
 1094 04b5 DE060000 		.4byte	.LASF80
 1095 04b9 06       		.byte	0x6
 1096 04ba E5       		.byte	0xe5
 1097 04bb 37000000 		.4byte	0x37
 1098 04bf 64       		.byte	0x64
 1099 04c0 00       		.byte	0
 1100 04c1 15       		.uleb128 0x15
 1101 04c2 37000000 		.4byte	0x37
 1102 04c6 DF040000 		.4byte	0x4df
 1103 04ca 16       		.uleb128 0x16
 1104 04cb DF040000 		.4byte	0x4df
 1105 04cf 16       		.uleb128 0x16
 1106 04d0 B5010000 		.4byte	0x1b5
 1107 04d4 16       		.uleb128 0x16
 1108 04d5 C2010000 		.4byte	0x1c2
 1109 04d9 16       		.uleb128 0x16
 1110 04da 37000000 		.4byte	0x37
 1111 04de 00       		.byte	0
 1112 04df 05       		.uleb128 0x5
 1113 04e0 04       		.byte	0x4
 1114 04e1 EA040000 		.4byte	0x4ea
 1115 04e5 0F       		.uleb128 0xf
 1116 04e6 DF040000 		.4byte	0x4df
 1117 04ea 17       		.uleb128 0x17
 1118 04eb A7040000 		.4byte	.LASF81
 1119 04ef 2804     		.2byte	0x428
 1120 04f1 06       		.byte	0x6
 1121 04f2 3902     		.2byte	0x239
 1122 04f4 1C060000 		.4byte	0x61c
 1123 04f8 18       		.uleb128 0x18
 1124 04f9 2B070000 		.4byte	.LASF82
 1125 04fd 06       		.byte	0x6
 1126 04fe 3B02     		.2byte	0x23b
 1127 0500 37000000 		.4byte	0x37
 1128 0504 00       		.byte	0
 1129 0505 18       		.uleb128 0x18
 1130 0506 24050000 		.4byte	.LASF83
 1131 050a 06       		.byte	0x6
 1132 050b 4002     		.2byte	0x240
 1133 050d FB060000 		.4byte	0x6fb
 1134 0511 04       		.byte	0x4
 1135 0512 18       		.uleb128 0x18
 1136 0513 DF0A0000 		.4byte	.LASF84
 1137 0517 06       		.byte	0x6
 1138 0518 4002     		.2byte	0x240
 1139 051a FB060000 		.4byte	0x6fb
ARM GAS  /var/folders/d2/nstgp4h54kz7g1l847x_b8wc0000gn/T//ccEQVVt7.s 			page 21


 1140 051e 08       		.byte	0x8
 1141 051f 18       		.uleb128 0x18
 1142 0520 4D090000 		.4byte	.LASF85
 1143 0524 06       		.byte	0x6
 1144 0525 4002     		.2byte	0x240
 1145 0527 FB060000 		.4byte	0x6fb
 1146 052b 0C       		.byte	0xc
 1147 052c 18       		.uleb128 0x18
 1148 052d 9B0C0000 		.4byte	.LASF86
 1149 0531 06       		.byte	0x6
 1150 0532 4202     		.2byte	0x242
 1151 0534 37000000 		.4byte	0x37
 1152 0538 10       		.byte	0x10
 1153 0539 18       		.uleb128 0x18
 1154 053a F0070000 		.4byte	.LASF87
 1155 053e 06       		.byte	0x6
 1156 053f 4302     		.2byte	0x243
 1157 0541 DD080000 		.4byte	0x8dd
 1158 0545 14       		.byte	0x14
 1159 0546 18       		.uleb128 0x18
 1160 0547 8E040000 		.4byte	.LASF88
 1161 054b 06       		.byte	0x6
 1162 054c 4602     		.2byte	0x246
 1163 054e 37000000 		.4byte	0x37
 1164 0552 30       		.byte	0x30
 1165 0553 18       		.uleb128 0x18
 1166 0554 120D0000 		.4byte	.LASF89
 1167 0558 06       		.byte	0x6
 1168 0559 4702     		.2byte	0x247
 1169 055b F2080000 		.4byte	0x8f2
 1170 055f 34       		.byte	0x34
 1171 0560 18       		.uleb128 0x18
 1172 0561 D3060000 		.4byte	.LASF90
 1173 0565 06       		.byte	0x6
 1174 0566 4902     		.2byte	0x249
 1175 0568 37000000 		.4byte	0x37
 1176 056c 38       		.byte	0x38
 1177 056d 18       		.uleb128 0x18
 1178 056e B6010000 		.4byte	.LASF91
 1179 0572 06       		.byte	0x6
 1180 0573 4B02     		.2byte	0x24b
 1181 0575 03090000 		.4byte	0x903
 1182 0579 3C       		.byte	0x3c
 1183 057a 18       		.uleb128 0x18
 1184 057b 2B0D0000 		.4byte	.LASF92
 1185 057f 06       		.byte	0x6
 1186 0580 4E02     		.2byte	0x24e
 1187 0582 32020000 		.4byte	0x232
 1188 0586 40       		.byte	0x40
 1189 0587 18       		.uleb128 0x18
 1190 0588 59030000 		.4byte	.LASF93
 1191 058c 06       		.byte	0x6
 1192 058d 4F02     		.2byte	0x24f
 1193 058f 37000000 		.4byte	0x37
 1194 0593 44       		.byte	0x44
 1195 0594 18       		.uleb128 0x18
 1196 0595 AC060000 		.4byte	.LASF94
ARM GAS  /var/folders/d2/nstgp4h54kz7g1l847x_b8wc0000gn/T//ccEQVVt7.s 			page 22


 1197 0599 06       		.byte	0x6
 1198 059a 5002     		.2byte	0x250
 1199 059c 32020000 		.4byte	0x232
 1200 05a0 48       		.byte	0x48
 1201 05a1 18       		.uleb128 0x18
 1202 05a2 76080000 		.4byte	.LASF95
 1203 05a6 06       		.byte	0x6
 1204 05a7 5102     		.2byte	0x251
 1205 05a9 09090000 		.4byte	0x909
 1206 05ad 4C       		.byte	0x4c
 1207 05ae 18       		.uleb128 0x18
 1208 05af ED010000 		.4byte	.LASF96
 1209 05b3 06       		.byte	0x6
 1210 05b4 5402     		.2byte	0x254
 1211 05b6 37000000 		.4byte	0x37
 1212 05ba 50       		.byte	0x50
 1213 05bb 18       		.uleb128 0x18
 1214 05bc 5A060000 		.4byte	.LASF97
 1215 05c0 06       		.byte	0x6
 1216 05c1 5502     		.2byte	0x255
 1217 05c3 C2010000 		.4byte	0x1c2
 1218 05c7 54       		.byte	0x54
 1219 05c8 18       		.uleb128 0x18
 1220 05c9 42090000 		.4byte	.LASF98
 1221 05cd 06       		.byte	0x6
 1222 05ce 7802     		.2byte	0x278
 1223 05d0 BB080000 		.4byte	0x8bb
 1224 05d4 58       		.byte	0x58
 1225 05d5 19       		.uleb128 0x19
 1226 05d6 98090000 		.4byte	.LASF58
 1227 05da 06       		.byte	0x6
 1228 05db 7C02     		.2byte	0x27c
 1229 05dd 4F030000 		.4byte	0x34f
 1230 05e1 4801     		.2byte	0x148
 1231 05e3 19       		.uleb128 0x19
 1232 05e4 B5070000 		.4byte	.LASF99
 1233 05e8 06       		.byte	0x6
 1234 05e9 7D02     		.2byte	0x27d
 1235 05eb 11030000 		.4byte	0x311
 1236 05ef 4C01     		.2byte	0x14c
 1237 05f1 19       		.uleb128 0x19
 1238 05f2 48060000 		.4byte	.LASF100
 1239 05f6 06       		.byte	0x6
 1240 05f7 8102     		.2byte	0x281
 1241 05f9 1A090000 		.4byte	0x91a
 1242 05fd DC02     		.2byte	0x2dc
 1243 05ff 19       		.uleb128 0x19
 1244 0600 46080000 		.4byte	.LASF101
 1245 0604 06       		.byte	0x6
 1246 0605 8602     		.2byte	0x286
 1247 0607 C0060000 		.4byte	0x6c0
 1248 060b E002     		.2byte	0x2e0
 1249 060d 19       		.uleb128 0x19
 1250 060e 38000000 		.4byte	.LASF102
 1251 0612 06       		.byte	0x6
 1252 0613 8802     		.2byte	0x288
 1253 0615 26090000 		.4byte	0x926
ARM GAS  /var/folders/d2/nstgp4h54kz7g1l847x_b8wc0000gn/T//ccEQVVt7.s 			page 23


 1254 0619 EC02     		.2byte	0x2ec
 1255 061b 00       		.byte	0
 1256 061c 05       		.uleb128 0x5
 1257 061d 04       		.byte	0x4
 1258 061e C1040000 		.4byte	0x4c1
 1259 0622 15       		.uleb128 0x15
 1260 0623 37000000 		.4byte	0x37
 1261 0627 40060000 		.4byte	0x640
 1262 062b 16       		.uleb128 0x16
 1263 062c DF040000 		.4byte	0x4df
 1264 0630 16       		.uleb128 0x16
 1265 0631 B5010000 		.4byte	0x1b5
 1266 0635 16       		.uleb128 0x16
 1267 0636 40060000 		.4byte	0x640
 1268 063a 16       		.uleb128 0x16
 1269 063b 37000000 		.4byte	0x37
 1270 063f 00       		.byte	0
 1271 0640 05       		.uleb128 0x5
 1272 0641 04       		.byte	0x4
 1273 0642 CF010000 		.4byte	0x1cf
 1274 0646 0F       		.uleb128 0xf
 1275 0647 40060000 		.4byte	0x640
 1276 064b 1A       		.uleb128 0x1a
 1277 064c 40060000 		.4byte	0x640
 1278 0650 05       		.uleb128 0x5
 1279 0651 04       		.byte	0x4
 1280 0652 22060000 		.4byte	0x622
 1281 0656 15       		.uleb128 0x15
 1282 0657 38010000 		.4byte	0x138
 1283 065b 74060000 		.4byte	0x674
 1284 065f 16       		.uleb128 0x16
 1285 0660 DF040000 		.4byte	0x4df
 1286 0664 16       		.uleb128 0x16
 1287 0665 B5010000 		.4byte	0x1b5
 1288 0669 16       		.uleb128 0x16
 1289 066a 38010000 		.4byte	0x138
 1290 066e 16       		.uleb128 0x16
 1291 066f 37000000 		.4byte	0x37
 1292 0673 00       		.byte	0
 1293 0674 05       		.uleb128 0x5
 1294 0675 04       		.byte	0x4
 1295 0676 56060000 		.4byte	0x656
 1296 067a 15       		.uleb128 0x15
 1297 067b 37000000 		.4byte	0x37
 1298 067f 8E060000 		.4byte	0x68e
 1299 0683 16       		.uleb128 0x16
 1300 0684 DF040000 		.4byte	0x4df
 1301 0688 16       		.uleb128 0x16
 1302 0689 B5010000 		.4byte	0x1b5
 1303 068d 00       		.byte	0
 1304 068e 05       		.uleb128 0x5
 1305 068f 04       		.byte	0x4
 1306 0690 7A060000 		.4byte	0x67a
 1307 0694 0A       		.uleb128 0xa
 1308 0695 5E000000 		.4byte	0x5e
 1309 0699 A4060000 		.4byte	0x6a4
 1310 069d 0B       		.uleb128 0xb
ARM GAS  /var/folders/d2/nstgp4h54kz7g1l847x_b8wc0000gn/T//ccEQVVt7.s 			page 24


 1311 069e 30000000 		.4byte	0x30
 1312 06a2 02       		.byte	0x2
 1313 06a3 00       		.byte	0
 1314 06a4 0A       		.uleb128 0xa
 1315 06a5 5E000000 		.4byte	0x5e
 1316 06a9 B4060000 		.4byte	0x6b4
 1317 06ad 0B       		.uleb128 0xb
 1318 06ae 30000000 		.4byte	0x30
 1319 06b2 00       		.byte	0
 1320 06b3 00       		.byte	0
 1321 06b4 07       		.uleb128 0x7
 1322 06b5 390B0000 		.4byte	.LASF103
 1323 06b9 06       		.byte	0x6
 1324 06ba 1F01     		.2byte	0x11f
 1325 06bc 97030000 		.4byte	0x397
 1326 06c0 1B       		.uleb128 0x1b
 1327 06c1 86080000 		.4byte	.LASF104
 1328 06c5 0C       		.byte	0xc
 1329 06c6 06       		.byte	0x6
 1330 06c7 2301     		.2byte	0x123
 1331 06c9 F5060000 		.4byte	0x6f5
 1332 06cd 18       		.uleb128 0x18
 1333 06ce 640B0000 		.4byte	.LASF38
 1334 06d2 06       		.byte	0x6
 1335 06d3 2501     		.2byte	0x125
 1336 06d5 F5060000 		.4byte	0x6f5
 1337 06d9 00       		.byte	0
 1338 06da 18       		.uleb128 0x18
 1339 06db 2D080000 		.4byte	.LASF105
 1340 06df 06       		.byte	0x6
 1341 06e0 2601     		.2byte	0x126
 1342 06e2 37000000 		.4byte	0x37
 1343 06e6 04       		.byte	0x4
 1344 06e7 18       		.uleb128 0x18
 1345 06e8 80080000 		.4byte	.LASF106
 1346 06ec 06       		.byte	0x6
 1347 06ed 2701     		.2byte	0x127
 1348 06ef FB060000 		.4byte	0x6fb
 1349 06f3 08       		.byte	0x8
 1350 06f4 00       		.byte	0
 1351 06f5 05       		.uleb128 0x5
 1352 06f6 04       		.byte	0x4
 1353 06f7 C0060000 		.4byte	0x6c0
 1354 06fb 05       		.uleb128 0x5
 1355 06fc 04       		.byte	0x4
 1356 06fd B4060000 		.4byte	0x6b4
 1357 0701 1B       		.uleb128 0x1b
 1358 0702 CA0A0000 		.4byte	.LASF107
 1359 0706 0E       		.byte	0xe
 1360 0707 06       		.byte	0x6
 1361 0708 3F01     		.2byte	0x13f
 1362 070a 36070000 		.4byte	0x736
 1363 070e 18       		.uleb128 0x18
 1364 070f 1A0A0000 		.4byte	.LASF108
 1365 0713 06       		.byte	0x6
 1366 0714 4001     		.2byte	0x140
 1367 0716 36070000 		.4byte	0x736
ARM GAS  /var/folders/d2/nstgp4h54kz7g1l847x_b8wc0000gn/T//ccEQVVt7.s 			page 25


 1368 071a 00       		.byte	0
 1369 071b 18       		.uleb128 0x18
 1370 071c 97020000 		.4byte	.LASF109
 1371 0720 06       		.byte	0x6
 1372 0721 4101     		.2byte	0x141
 1373 0723 36070000 		.4byte	0x736
 1374 0727 06       		.byte	0x6
 1375 0728 18       		.uleb128 0x18
 1376 0729 410D0000 		.4byte	.LASF110
 1377 072d 06       		.byte	0x6
 1378 072e 4201     		.2byte	0x142
 1379 0730 77000000 		.4byte	0x77
 1380 0734 0C       		.byte	0xc
 1381 0735 00       		.byte	0
 1382 0736 0A       		.uleb128 0xa
 1383 0737 77000000 		.4byte	0x77
 1384 073b 46070000 		.4byte	0x746
 1385 073f 0B       		.uleb128 0xb
 1386 0740 30000000 		.4byte	0x30
 1387 0744 02       		.byte	0x2
 1388 0745 00       		.byte	0
 1389 0746 1C       		.uleb128 0x1c
 1390 0747 D0       		.byte	0xd0
 1391 0748 06       		.byte	0x6
 1392 0749 5902     		.2byte	0x259
 1393 074b 47080000 		.4byte	0x847
 1394 074f 18       		.uleb128 0x18
 1395 0750 F0030000 		.4byte	.LASF111
 1396 0754 06       		.byte	0x6
 1397 0755 5B02     		.2byte	0x25b
 1398 0757 30000000 		.4byte	0x30
 1399 075b 00       		.byte	0
 1400 075c 18       		.uleb128 0x18
 1401 075d 090B0000 		.4byte	.LASF112
 1402 0761 06       		.byte	0x6
 1403 0762 5C02     		.2byte	0x25c
 1404 0764 C2010000 		.4byte	0x1c2
 1405 0768 04       		.byte	0x4
 1406 0769 18       		.uleb128 0x18
 1407 076a E0010000 		.4byte	.LASF113
 1408 076e 06       		.byte	0x6
 1409 076f 5D02     		.2byte	0x25d
 1410 0771 47080000 		.4byte	0x847
 1411 0775 08       		.byte	0x8
 1412 0776 18       		.uleb128 0x18
 1413 0777 8E030000 		.4byte	.LASF114
 1414 077b 06       		.byte	0x6
 1415 077c 5E02     		.2byte	0x25e
 1416 077e 48020000 		.4byte	0x248
 1417 0782 24       		.byte	0x24
 1418 0783 18       		.uleb128 0x18
 1419 0784 5F080000 		.4byte	.LASF115
 1420 0788 06       		.byte	0x6
 1421 0789 5F02     		.2byte	0x25f
 1422 078b 37000000 		.4byte	0x37
 1423 078f 48       		.byte	0x48
 1424 0790 18       		.uleb128 0x18
ARM GAS  /var/folders/d2/nstgp4h54kz7g1l847x_b8wc0000gn/T//ccEQVVt7.s 			page 26


 1425 0791 6C090000 		.4byte	.LASF116
 1426 0795 06       		.byte	0x6
 1427 0796 6002     		.2byte	0x260
 1428 0798 AD000000 		.4byte	0xad
 1429 079c 50       		.byte	0x50
 1430 079d 18       		.uleb128 0x18
 1431 079e 580B0000 		.4byte	.LASF117
 1432 07a2 06       		.byte	0x6
 1433 07a3 6102     		.2byte	0x261
 1434 07a5 01070000 		.4byte	0x701
 1435 07a9 58       		.byte	0x58
 1436 07aa 18       		.uleb128 0x18
 1437 07ab B30B0000 		.4byte	.LASF118
 1438 07af 06       		.byte	0x6
 1439 07b0 6202     		.2byte	0x262
 1440 07b2 9F010000 		.4byte	0x19f
 1441 07b6 68       		.byte	0x68
 1442 07b7 18       		.uleb128 0x18
 1443 07b8 5C0A0000 		.4byte	.LASF119
 1444 07bc 06       		.byte	0x6
 1445 07bd 6302     		.2byte	0x263
 1446 07bf 9F010000 		.4byte	0x19f
 1447 07c3 70       		.byte	0x70
 1448 07c4 18       		.uleb128 0x18
 1449 07c5 55090000 		.4byte	.LASF120
 1450 07c9 06       		.byte	0x6
 1451 07ca 6402     		.2byte	0x264
 1452 07cc 9F010000 		.4byte	0x19f
 1453 07d0 78       		.byte	0x78
 1454 07d1 18       		.uleb128 0x18
 1455 07d2 6C020000 		.4byte	.LASF121
 1456 07d6 06       		.byte	0x6
 1457 07d7 6502     		.2byte	0x265
 1458 07d9 57080000 		.4byte	0x857
 1459 07dd 80       		.byte	0x80
 1460 07de 18       		.uleb128 0x18
 1461 07df 59070000 		.4byte	.LASF122
 1462 07e3 06       		.byte	0x6
 1463 07e4 6602     		.2byte	0x266
 1464 07e6 67080000 		.4byte	0x867
 1465 07ea 88       		.byte	0x88
 1466 07eb 18       		.uleb128 0x18
 1467 07ec 090E0000 		.4byte	.LASF123
 1468 07f0 06       		.byte	0x6
 1469 07f1 6702     		.2byte	0x267
 1470 07f3 37000000 		.4byte	0x37
 1471 07f7 A0       		.byte	0xa0
 1472 07f8 18       		.uleb128 0x18
 1473 07f9 2F030000 		.4byte	.LASF124
 1474 07fd 06       		.byte	0x6
 1475 07fe 6802     		.2byte	0x268
 1476 0800 9F010000 		.4byte	0x19f
 1477 0804 A4       		.byte	0xa4
 1478 0805 18       		.uleb128 0x18
 1479 0806 160B0000 		.4byte	.LASF125
 1480 080a 06       		.byte	0x6
 1481 080b 6902     		.2byte	0x269
ARM GAS  /var/folders/d2/nstgp4h54kz7g1l847x_b8wc0000gn/T//ccEQVVt7.s 			page 27


 1482 080d 9F010000 		.4byte	0x19f
 1483 0811 AC       		.byte	0xac
 1484 0812 18       		.uleb128 0x18
 1485 0813 810D0000 		.4byte	.LASF126
 1486 0817 06       		.byte	0x6
 1487 0818 6A02     		.2byte	0x26a
 1488 081a 9F010000 		.4byte	0x19f
 1489 081e B4       		.byte	0xb4
 1490 081f 18       		.uleb128 0x18
 1491 0820 1A090000 		.4byte	.LASF127
 1492 0824 06       		.byte	0x6
 1493 0825 6B02     		.2byte	0x26b
 1494 0827 9F010000 		.4byte	0x19f
 1495 082b BC       		.byte	0xbc
 1496 082c 18       		.uleb128 0x18
 1497 082d 4C020000 		.4byte	.LASF128
 1498 0831 06       		.byte	0x6
 1499 0832 6C02     		.2byte	0x26c
 1500 0834 9F010000 		.4byte	0x19f
 1501 0838 C4       		.byte	0xc4
 1502 0839 18       		.uleb128 0x18
 1503 083a F9080000 		.4byte	.LASF129
 1504 083e 06       		.byte	0x6
 1505 083f 6D02     		.2byte	0x26d
 1506 0841 37000000 		.4byte	0x37
 1507 0845 CC       		.byte	0xcc
 1508 0846 00       		.byte	0
 1509 0847 0A       		.uleb128 0xa
 1510 0848 C8010000 		.4byte	0x1c8
 1511 084c 57080000 		.4byte	0x857
 1512 0850 0B       		.uleb128 0xb
 1513 0851 30000000 		.4byte	0x30
 1514 0855 19       		.byte	0x19
 1515 0856 00       		.byte	0
 1516 0857 0A       		.uleb128 0xa
 1517 0858 C8010000 		.4byte	0x1c8
 1518 085c 67080000 		.4byte	0x867
 1519 0860 0B       		.uleb128 0xb
 1520 0861 30000000 		.4byte	0x30
 1521 0865 07       		.byte	0x7
 1522 0866 00       		.byte	0
 1523 0867 0A       		.uleb128 0xa
 1524 0868 C8010000 		.4byte	0x1c8
 1525 086c 77080000 		.4byte	0x877
 1526 0870 0B       		.uleb128 0xb
 1527 0871 30000000 		.4byte	0x30
 1528 0875 17       		.byte	0x17
 1529 0876 00       		.byte	0
 1530 0877 1C       		.uleb128 0x1c
 1531 0878 F0       		.byte	0xf0
 1532 0879 06       		.byte	0x6
 1533 087a 7202     		.2byte	0x272
 1534 087c 9B080000 		.4byte	0x89b
 1535 0880 18       		.uleb128 0x18
 1536 0881 E70C0000 		.4byte	.LASF130
 1537 0885 06       		.byte	0x6
 1538 0886 7502     		.2byte	0x275
ARM GAS  /var/folders/d2/nstgp4h54kz7g1l847x_b8wc0000gn/T//ccEQVVt7.s 			page 28


 1539 0888 9B080000 		.4byte	0x89b
 1540 088c 00       		.byte	0
 1541 088d 18       		.uleb128 0x18
 1542 088e 4E080000 		.4byte	.LASF131
 1543 0892 06       		.byte	0x6
 1544 0893 7602     		.2byte	0x276
 1545 0895 AB080000 		.4byte	0x8ab
 1546 0899 78       		.byte	0x78
 1547 089a 00       		.byte	0
 1548 089b 0A       		.uleb128 0xa
 1549 089c 91030000 		.4byte	0x391
 1550 08a0 AB080000 		.4byte	0x8ab
 1551 08a4 0B       		.uleb128 0xb
 1552 08a5 30000000 		.4byte	0x30
 1553 08a9 1D       		.byte	0x1d
 1554 08aa 00       		.byte	0
 1555 08ab 0A       		.uleb128 0xa
 1556 08ac 30000000 		.4byte	0x30
 1557 08b0 BB080000 		.4byte	0x8bb
 1558 08b4 0B       		.uleb128 0xb
 1559 08b5 30000000 		.4byte	0x30
 1560 08b9 1D       		.byte	0x1d
 1561 08ba 00       		.byte	0
 1562 08bb 1D       		.uleb128 0x1d
 1563 08bc F0       		.byte	0xf0
 1564 08bd 06       		.byte	0x6
 1565 08be 5702     		.2byte	0x257
 1566 08c0 DD080000 		.4byte	0x8dd
 1567 08c4 1E       		.uleb128 0x1e
 1568 08c5 A7040000 		.4byte	.LASF81
 1569 08c9 06       		.byte	0x6
 1570 08ca 6E02     		.2byte	0x26e
 1571 08cc 46070000 		.4byte	0x746
 1572 08d0 1E       		.uleb128 0x1e
 1573 08d1 3F020000 		.4byte	.LASF132
 1574 08d5 06       		.byte	0x6
 1575 08d6 7702     		.2byte	0x277
 1576 08d8 77080000 		.4byte	0x877
 1577 08dc 00       		.byte	0
 1578 08dd 0A       		.uleb128 0xa
 1579 08de C8010000 		.4byte	0x1c8
 1580 08e2 ED080000 		.4byte	0x8ed
 1581 08e6 0B       		.uleb128 0xb
 1582 08e7 30000000 		.4byte	0x30
 1583 08eb 18       		.byte	0x18
 1584 08ec 00       		.byte	0
 1585 08ed 06       		.uleb128 0x6
 1586 08ee 0F000000 		.4byte	.LASF134
 1587 08f2 05       		.uleb128 0x5
 1588 08f3 04       		.byte	0x4
 1589 08f4 ED080000 		.4byte	0x8ed
 1590 08f8 1F       		.uleb128 0x1f
 1591 08f9 03090000 		.4byte	0x903
 1592 08fd 16       		.uleb128 0x16
 1593 08fe DF040000 		.4byte	0x4df
 1594 0902 00       		.byte	0
 1595 0903 05       		.uleb128 0x5
ARM GAS  /var/folders/d2/nstgp4h54kz7g1l847x_b8wc0000gn/T//ccEQVVt7.s 			page 29


 1596 0904 04       		.byte	0x4
 1597 0905 F8080000 		.4byte	0x8f8
 1598 0909 05       		.uleb128 0x5
 1599 090a 04       		.byte	0x4
 1600 090b 32020000 		.4byte	0x232
 1601 090f 1F       		.uleb128 0x1f
 1602 0910 1A090000 		.4byte	0x91a
 1603 0914 16       		.uleb128 0x16
 1604 0915 37000000 		.4byte	0x37
 1605 0919 00       		.byte	0
 1606 091a 05       		.uleb128 0x5
 1607 091b 04       		.byte	0x4
 1608 091c 20090000 		.4byte	0x920
 1609 0920 05       		.uleb128 0x5
 1610 0921 04       		.byte	0x4
 1611 0922 0F090000 		.4byte	0x90f
 1612 0926 0A       		.uleb128 0xa
 1613 0927 B4060000 		.4byte	0x6b4
 1614 092b 36090000 		.4byte	0x936
 1615 092f 0B       		.uleb128 0xb
 1616 0930 30000000 		.4byte	0x30
 1617 0934 02       		.byte	0x2
 1618 0935 00       		.byte	0
 1619 0936 20       		.uleb128 0x20
 1620 0937 4D030000 		.4byte	.LASF135
 1621 093b 06       		.byte	0x6
 1622 093c 0703     		.2byte	0x307
 1623 093e DF040000 		.4byte	0x4df
 1624 0942 20       		.uleb128 0x20
 1625 0943 B6040000 		.4byte	.LASF136
 1626 0947 06       		.byte	0x6
 1627 0948 0803     		.2byte	0x308
 1628 094a E5040000 		.4byte	0x4e5
 1629 094e 21       		.uleb128 0x21
 1630 094f DC0B0000 		.4byte	.LASF137
 1631 0953 07       		.byte	0x7
 1632 0954 63       		.byte	0x63
 1633 0955 C2010000 		.4byte	0x1c2
 1634 0959 0A       		.uleb128 0xa
 1635 095a 46060000 		.4byte	0x646
 1636 095e 64090000 		.4byte	0x964
 1637 0962 22       		.uleb128 0x22
 1638 0963 00       		.byte	0
 1639 0964 0F       		.uleb128 0xf
 1640 0965 59090000 		.4byte	0x959
 1641 0969 21       		.uleb128 0x21
 1642 096a 670C0000 		.4byte	.LASF138
 1643 096e 08       		.byte	0x8
 1644 096f 14       		.byte	0x14
 1645 0970 64090000 		.4byte	0x964
 1646 0974 21       		.uleb128 0x21
 1647 0975 1D030000 		.4byte	.LASF139
 1648 0979 08       		.byte	0x8
 1649 097a 15       		.byte	0x15
 1650 097b 37000000 		.4byte	0x37
 1651 097f 02       		.uleb128 0x2
 1652 0980 1F040000 		.4byte	.LASF140
ARM GAS  /var/folders/d2/nstgp4h54kz7g1l847x_b8wc0000gn/T//ccEQVVt7.s 			page 30


 1653 0984 09       		.byte	0x9
 1654 0985 18       		.byte	0x18
 1655 0986 53000000 		.4byte	0x53
 1656 098a 02       		.uleb128 0x2
 1657 098b 960A0000 		.4byte	.LASF141
 1658 098f 09       		.byte	0x9
 1659 0990 24       		.byte	0x24
 1660 0991 6C000000 		.4byte	0x6c
 1661 0995 02       		.uleb128 0x2
 1662 0996 D8010000 		.4byte	.LASF142
 1663 099a 09       		.byte	0x9
 1664 099b 2C       		.byte	0x2c
 1665 099c 7E000000 		.4byte	0x7e
 1666 09a0 1A       		.uleb128 0x1a
 1667 09a1 95090000 		.4byte	0x995
 1668 09a5 02       		.uleb128 0x2
 1669 09a6 220D0000 		.4byte	.LASF143
 1670 09aa 09       		.byte	0x9
 1671 09ab 30       		.byte	0x30
 1672 09ac 90000000 		.4byte	0x90
 1673 09b0 02       		.uleb128 0x2
 1674 09b1 CA0B0000 		.4byte	.LASF144
 1675 09b5 09       		.byte	0x9
 1676 09b6 3C       		.byte	0x3c
 1677 09b7 A2000000 		.4byte	0xa2
 1678 09bb 02       		.uleb128 0x2
 1679 09bc 76020000 		.4byte	.LASF145
 1680 09c0 0A       		.byte	0xa
 1681 09c1 28       		.byte	0x28
 1682 09c2 B4000000 		.4byte	0xb4
 1683 09c6 02       		.uleb128 0x2
 1684 09c7 D8080000 		.4byte	.LASF146
 1685 09cb 0B       		.byte	0xb
 1686 09cc 71       		.byte	0x71
 1687 09cd D5000000 		.4byte	0xd5
 1688 09d1 02       		.uleb128 0x2
 1689 09d2 FE0C0000 		.4byte	.LASF147
 1690 09d6 0B       		.byte	0xb
 1691 09d7 76       		.byte	0x76
 1692 09d8 E0000000 		.4byte	0xe0
 1693 09dc 02       		.uleb128 0x2
 1694 09dd E1080000 		.4byte	.LASF148
 1695 09e1 0B       		.byte	0xb
 1696 09e2 8B       		.byte	0x8b
 1697 09e3 C2010000 		.4byte	0x1c2
 1698 09e7 02       		.uleb128 0x2
 1699 09e8 A6060000 		.4byte	.LASF149
 1700 09ec 0B       		.byte	0xb
 1701 09ed 9B       		.byte	0x9b
 1702 09ee 17010000 		.4byte	0x117
 1703 09f2 02       		.uleb128 0x2
 1704 09f3 C4090000 		.4byte	.LASF150
 1705 09f7 0B       		.byte	0xb
 1706 09f8 AD       		.byte	0xad
 1707 09f9 2D010000 		.4byte	0x12d
 1708 09fd 02       		.uleb128 0x2
 1709 09fe 29020000 		.4byte	.LASF151
ARM GAS  /var/folders/d2/nstgp4h54kz7g1l847x_b8wc0000gn/T//ccEQVVt7.s 			page 31


 1710 0a02 0B       		.byte	0xb
 1711 0a03 B1       		.byte	0xb1
 1712 0a04 F6000000 		.4byte	0xf6
 1713 0a08 02       		.uleb128 0x2
 1714 0a09 F5020000 		.4byte	.LASF152
 1715 0a0d 0B       		.byte	0xb
 1716 0a0e B5       		.byte	0xb5
 1717 0a0f 01010000 		.4byte	0x101
 1718 0a13 02       		.uleb128 0x2
 1719 0a14 EC0D0000 		.4byte	.LASF153
 1720 0a18 0B       		.byte	0xb
 1721 0a19 B9       		.byte	0xb9
 1722 0a1a 0C010000 		.4byte	0x10c
 1723 0a1e 02       		.uleb128 0x2
 1724 0a1f CA090000 		.4byte	.LASF154
 1725 0a23 0B       		.byte	0xb
 1726 0a24 CD       		.byte	0xcd
 1727 0a25 22010000 		.4byte	0x122
 1728 0a29 02       		.uleb128 0x2
 1729 0a2a 2F020000 		.4byte	.LASF155
 1730 0a2e 0B       		.byte	0xb
 1731 0a2f D2       		.byte	0xd2
 1732 0a30 B7010000 		.4byte	0x1b7
 1733 0a34 21       		.uleb128 0x21
 1734 0a35 60050000 		.4byte	.LASF156
 1735 0a39 0C       		.byte	0xc
 1736 0a3a 9A       		.byte	0x9a
 1737 0a3b 89000000 		.4byte	0x89
 1738 0a3f 21       		.uleb128 0x21
 1739 0a40 56050000 		.4byte	.LASF157
 1740 0a44 0C       		.byte	0xc
 1741 0a45 9B       		.byte	0x9b
 1742 0a46 37000000 		.4byte	0x37
 1743 0a4a 0A       		.uleb128 0xa
 1744 0a4b C2010000 		.4byte	0x1c2
 1745 0a4f 5A0A0000 		.4byte	0xa5a
 1746 0a53 0B       		.uleb128 0xb
 1747 0a54 30000000 		.4byte	0x30
 1748 0a58 01       		.byte	0x1
 1749 0a59 00       		.byte	0
 1750 0a5a 21       		.uleb128 0x21
 1751 0a5b EE050000 		.4byte	.LASF158
 1752 0a5f 0C       		.byte	0xc
 1753 0a60 9E       		.byte	0x9e
 1754 0a61 4A0A0000 		.4byte	0xa4a
 1755 0a65 10       		.uleb128 0x10
 1756 0a66 BE070000 		.4byte	.LASF159
 1757 0a6a 58       		.byte	0x58
 1758 0a6b 0D       		.byte	0xd
 1759 0a6c 1B       		.byte	0x1b
 1760 0a6d 3E0B0000 		.4byte	0xb3e
 1761 0a71 0D       		.uleb128 0xd
 1762 0a72 260A0000 		.4byte	.LASF160
 1763 0a76 0D       		.byte	0xd
 1764 0a77 1D       		.byte	0x1d
 1765 0a78 FD090000 		.4byte	0x9fd
 1766 0a7c 00       		.byte	0
ARM GAS  /var/folders/d2/nstgp4h54kz7g1l847x_b8wc0000gn/T//ccEQVVt7.s 			page 32


 1767 0a7d 0D       		.uleb128 0xd
 1768 0a7e AF0D0000 		.4byte	.LASF161
 1769 0a82 0D       		.byte	0xd
 1770 0a83 1E       		.byte	0x1e
 1771 0a84 E7090000 		.4byte	0x9e7
 1772 0a88 02       		.byte	0x2
 1773 0a89 0D       		.uleb128 0xd
 1774 0a8a D70C0000 		.4byte	.LASF162
 1775 0a8e 0D       		.byte	0xd
 1776 0a8f 1F       		.byte	0x1f
 1777 0a90 1E0A0000 		.4byte	0xa1e
 1778 0a94 04       		.byte	0x4
 1779 0a95 0D       		.uleb128 0xd
 1780 0a96 BB090000 		.4byte	.LASF163
 1781 0a9a 0D       		.byte	0xd
 1782 0a9b 20       		.byte	0x20
 1783 0a9c 290A0000 		.4byte	0xa29
 1784 0aa0 08       		.byte	0x8
 1785 0aa1 0D       		.uleb128 0xd
 1786 0aa2 31040000 		.4byte	.LASF164
 1787 0aa6 0D       		.byte	0xd
 1788 0aa7 21       		.byte	0x21
 1789 0aa8 080A0000 		.4byte	0xa08
 1790 0aac 0A       		.byte	0xa
 1791 0aad 0D       		.uleb128 0xd
 1792 0aae 62060000 		.4byte	.LASF165
 1793 0ab2 0D       		.byte	0xd
 1794 0ab3 22       		.byte	0x22
 1795 0ab4 130A0000 		.4byte	0xa13
 1796 0ab8 0C       		.byte	0xc
 1797 0ab9 0D       		.uleb128 0xd
 1798 0aba 74040000 		.4byte	.LASF166
 1799 0abe 0D       		.byte	0xd
 1800 0abf 23       		.byte	0x23
 1801 0ac0 FD090000 		.4byte	0x9fd
 1802 0ac4 0E       		.byte	0xe
 1803 0ac5 0D       		.uleb128 0xd
 1804 0ac6 E6060000 		.4byte	.LASF167
 1805 0aca 0D       		.byte	0xd
 1806 0acb 24       		.byte	0x24
 1807 0acc F2090000 		.4byte	0x9f2
 1808 0ad0 10       		.byte	0x10
 1809 0ad1 0D       		.uleb128 0xd
 1810 0ad2 E4090000 		.4byte	.LASF168
 1811 0ad6 0D       		.byte	0xd
 1812 0ad7 32       		.byte	0x32
 1813 0ad8 BB090000 		.4byte	0x9bb
 1814 0adc 18       		.byte	0x18
 1815 0add 0D       		.uleb128 0xd
 1816 0ade 27040000 		.4byte	.LASF169
 1817 0ae2 0D       		.byte	0xd
 1818 0ae3 33       		.byte	0x33
 1819 0ae4 89000000 		.4byte	0x89
 1820 0ae8 20       		.byte	0x20
 1821 0ae9 0D       		.uleb128 0xd
 1822 0aea 7E0B0000 		.4byte	.LASF170
 1823 0aee 0D       		.byte	0xd
ARM GAS  /var/folders/d2/nstgp4h54kz7g1l847x_b8wc0000gn/T//ccEQVVt7.s 			page 33


 1824 0aef 34       		.byte	0x34
 1825 0af0 BB090000 		.4byte	0x9bb
 1826 0af4 28       		.byte	0x28
 1827 0af5 0D       		.uleb128 0xd
 1828 0af6 4F070000 		.4byte	.LASF171
 1829 0afa 0D       		.byte	0xd
 1830 0afb 35       		.byte	0x35
 1831 0afc 89000000 		.4byte	0x89
 1832 0b00 30       		.byte	0x30
 1833 0b01 0D       		.uleb128 0xd
 1834 0b02 C5050000 		.4byte	.LASF172
 1835 0b06 0D       		.byte	0xd
 1836 0b07 36       		.byte	0x36
 1837 0b08 BB090000 		.4byte	0x9bb
 1838 0b0c 38       		.byte	0x38
 1839 0b0d 0D       		.uleb128 0xd
 1840 0b0e 38040000 		.4byte	.LASF173
 1841 0b12 0D       		.byte	0xd
 1842 0b13 37       		.byte	0x37
 1843 0b14 89000000 		.4byte	0x89
 1844 0b18 40       		.byte	0x40
 1845 0b19 0D       		.uleb128 0xd
 1846 0b1a D2070000 		.4byte	.LASF174
 1847 0b1e 0D       		.byte	0xd
 1848 0b1f 38       		.byte	0x38
 1849 0b20 D1090000 		.4byte	0x9d1
 1850 0b24 44       		.byte	0x44
 1851 0b25 0D       		.uleb128 0xd
 1852 0b26 5F000000 		.4byte	.LASF175
 1853 0b2a 0D       		.byte	0xd
 1854 0b2b 39       		.byte	0x39
 1855 0b2c C6090000 		.4byte	0x9c6
 1856 0b30 48       		.byte	0x48
 1857 0b31 0D       		.uleb128 0xd
 1858 0b32 42040000 		.4byte	.LASF176
 1859 0b36 0D       		.byte	0xd
 1860 0b37 3A       		.byte	0x3a
 1861 0b38 3E0B0000 		.4byte	0xb3e
 1862 0b3c 4C       		.byte	0x4c
 1863 0b3d 00       		.byte	0
 1864 0b3e 0A       		.uleb128 0xa
 1865 0b3f 89000000 		.4byte	0x89
 1866 0b43 4E0B0000 		.4byte	0xb4e
 1867 0b47 0B       		.uleb128 0xb
 1868 0b48 30000000 		.4byte	0x30
 1869 0b4c 01       		.byte	0x1
 1870 0b4d 00       		.byte	0
 1871 0b4e 02       		.uleb128 0x2
 1872 0b4f E9080000 		.4byte	.LASF177
 1873 0b53 0E       		.byte	0xe
 1874 0b54 45       		.byte	0x45
 1875 0b55 A5090000 		.4byte	0x9a5
 1876 0b59 02       		.uleb128 0x2
 1877 0b5a A6030000 		.4byte	.LASF178
 1878 0b5e 0E       		.byte	0xe
 1879 0b5f 46       		.byte	0x46
 1880 0b60 B0090000 		.4byte	0x9b0
ARM GAS  /var/folders/d2/nstgp4h54kz7g1l847x_b8wc0000gn/T//ccEQVVt7.s 			page 34


 1881 0b64 02       		.uleb128 0x2
 1882 0b65 760B0000 		.4byte	.LASF179
 1883 0b69 0E       		.byte	0xe
 1884 0b6a 48       		.byte	0x48
 1885 0b6b 7F090000 		.4byte	0x97f
 1886 0b6f 02       		.uleb128 0x2
 1887 0b70 9D030000 		.4byte	.LASF180
 1888 0b74 0E       		.byte	0xe
 1889 0b75 49       		.byte	0x49
 1890 0b76 7F090000 		.4byte	0x97f
 1891 0b7a 02       		.uleb128 0x2
 1892 0b7b BD050000 		.4byte	.LASF181
 1893 0b7f 0E       		.byte	0xe
 1894 0b80 4A       		.byte	0x4a
 1895 0b81 7F090000 		.4byte	0x97f
 1896 0b85 02       		.uleb128 0x2
 1897 0b86 E70A0000 		.4byte	.LASF182
 1898 0b8a 0E       		.byte	0xe
 1899 0b8b 4B       		.byte	0x4b
 1900 0b8c 7F090000 		.4byte	0x97f
 1901 0b90 02       		.uleb128 0x2
 1902 0b91 57000000 		.4byte	.LASF183
 1903 0b95 0E       		.byte	0xe
 1904 0b96 4C       		.byte	0x4c
 1905 0b97 A5090000 		.4byte	0x9a5
 1906 0b9b 02       		.uleb128 0x2
 1907 0b9c B30A0000 		.4byte	.LASF184
 1908 0ba0 0E       		.byte	0xe
 1909 0ba1 4D       		.byte	0x4d
 1910 0ba2 95090000 		.4byte	0x995
 1911 0ba6 02       		.uleb128 0x2
 1912 0ba7 4C040000 		.4byte	.LASF185
 1913 0bab 0E       		.byte	0xe
 1914 0bac 4F       		.byte	0x4f
 1915 0bad A5090000 		.4byte	0x9a5
 1916 0bb1 02       		.uleb128 0x2
 1917 0bb2 D3050000 		.4byte	.LASF186
 1918 0bb6 0E       		.byte	0xe
 1919 0bb7 51       		.byte	0x51
 1920 0bb8 95090000 		.4byte	0x995
 1921 0bbc 02       		.uleb128 0x2
 1922 0bbd 65070000 		.4byte	.LASF187
 1923 0bc1 0E       		.byte	0xe
 1924 0bc2 52       		.byte	0x52
 1925 0bc3 A5090000 		.4byte	0x9a5
 1926 0bc7 02       		.uleb128 0x2
 1927 0bc8 2E000000 		.4byte	.LASF188
 1928 0bcc 0F       		.byte	0xf
 1929 0bcd 33       		.byte	0x33
 1930 0bce A5090000 		.4byte	0x9a5
 1931 0bd2 1A       		.uleb128 0x1a
 1932 0bd3 C70B0000 		.4byte	0xbc7
 1933 0bd7 02       		.uleb128 0x2
 1934 0bd8 DB090000 		.4byte	.LASF189
 1935 0bdc 0F       		.byte	0xf
 1936 0bdd 3F       		.byte	0x3f
 1937 0bde E20B0000 		.4byte	0xbe2
ARM GAS  /var/folders/d2/nstgp4h54kz7g1l847x_b8wc0000gn/T//ccEQVVt7.s 			page 35


 1938 0be2 10       		.uleb128 0x10
 1939 0be3 0B070000 		.4byte	.LASF190
 1940 0be7 68       		.byte	0x68
 1941 0be8 10       		.byte	0x10
 1942 0be9 C2       		.byte	0xc2
 1943 0bea 000D0000 		.4byte	0xd00
 1944 0bee 0D       		.uleb128 0xd
 1945 0bef 46030000 		.4byte	.LASF191
 1946 0bf3 10       		.byte	0x10
 1947 0bf4 C3       		.byte	0xc3
 1948 0bf5 0B0D0000 		.4byte	0xd0b
 1949 0bf9 00       		.byte	0
 1950 0bfa 0D       		.uleb128 0xd
 1951 0bfb 76030000 		.4byte	.LASF192
 1952 0bff 10       		.byte	0x10
 1953 0c00 C5       		.byte	0xc5
 1954 0c01 0B0D0000 		.4byte	0xd0b
 1955 0c05 04       		.byte	0x4
 1956 0c06 0D       		.uleb128 0xd
 1957 0c07 F6040000 		.4byte	.LASF193
 1958 0c0b 10       		.byte	0x10
 1959 0c0c C7       		.byte	0xc7
 1960 0c0d 900B0000 		.4byte	0xb90
 1961 0c11 08       		.byte	0x8
 1962 0c12 0D       		.uleb128 0xd
 1963 0c13 4B000000 		.4byte	.LASF194
 1964 0c17 10       		.byte	0x10
 1965 0c18 C8       		.byte	0xc8
 1966 0c19 820F0000 		.4byte	0xf82
 1967 0c1d 0C       		.byte	0xc
 1968 0c1e 0D       		.uleb128 0xd
 1969 0c1f 27030000 		.4byte	.LASF195
 1970 0c23 10       		.byte	0x10
 1971 0c24 CA       		.byte	0xca
 1972 0c25 0B0D0000 		.4byte	0xd0b
 1973 0c29 10       		.byte	0x10
 1974 0c2a 0D       		.uleb128 0xd
 1975 0c2b 8E0A0000 		.4byte	.LASF196
 1976 0c2f 10       		.byte	0x10
 1977 0c30 CB       		.byte	0xcb
 1978 0c31 0B0D0000 		.4byte	0xd0b
 1979 0c35 14       		.byte	0x14
 1980 0c36 0D       		.uleb128 0xd
 1981 0c37 E50D0000 		.4byte	.LASF197
 1982 0c3b 10       		.byte	0x10
 1983 0c3c D2       		.byte	0xd2
 1984 0c3d 40060000 		.4byte	0x640
 1985 0c41 18       		.byte	0x18
 1986 0c42 0D       		.uleb128 0xd
 1987 0c43 920D0000 		.4byte	.LASF198
 1988 0c47 10       		.byte	0x10
 1989 0c48 D8       		.byte	0xd8
 1990 0c49 F8120000 		.4byte	0x12f8
 1991 0c4d 1C       		.byte	0x1c
 1992 0c4e 0D       		.uleb128 0xd
 1993 0c4f 2F0E0000 		.4byte	.LASF199
 1994 0c53 10       		.byte	0x10
ARM GAS  /var/folders/d2/nstgp4h54kz7g1l847x_b8wc0000gn/T//ccEQVVt7.s 			page 36


 1995 0c54 DD       		.byte	0xdd
 1996 0c55 6F0B0000 		.4byte	0xb6f
 1997 0c59 20       		.byte	0x20
 1998 0c5a 0D       		.uleb128 0xd
 1999 0c5b C5020000 		.4byte	.LASF200
 2000 0c5f 10       		.byte	0x10
 2001 0c60 E1       		.byte	0xe1
 2002 0c61 640B0000 		.4byte	0xb64
 2003 0c65 21       		.byte	0x21
 2004 0c66 0D       		.uleb128 0xd
 2005 0c67 07090000 		.4byte	.LASF201
 2006 0c6b 10       		.byte	0x10
 2007 0c6c E6       		.byte	0xe6
 2008 0c6d 7A0B0000 		.4byte	0xb7a
 2009 0c71 22       		.byte	0x22
 2010 0c72 0D       		.uleb128 0xd
 2011 0c73 09040000 		.4byte	.LASF202
 2012 0c77 10       		.byte	0x10
 2013 0c78 EC       		.byte	0xec
 2014 0c79 850B0000 		.4byte	0xb85
 2015 0c7d 23       		.byte	0x23
 2016 0c7e 0D       		.uleb128 0xd
 2017 0c7f A0090000 		.4byte	.LASF203
 2018 0c83 10       		.byte	0x10
 2019 0c84 F3       		.byte	0xf3
 2020 0c85 D20B0000 		.4byte	0xbd2
 2021 0c89 24       		.byte	0x24
 2022 0c8a 23       		.uleb128 0x23
 2023 0c8b 705F7500 		.ascii	"p_u\000"
 2024 0c8f 10       		.byte	0x10
 2025 0c90 3101     		.2byte	0x131
 2026 0c92 27120000 		.4byte	0x1227
 2027 0c96 28       		.byte	0x28
 2028 0c97 18       		.uleb128 0x18
 2029 0c98 9F080000 		.4byte	.LASF204
 2030 0c9c 10       		.byte	0x10
 2031 0c9d 3601     		.2byte	0x136
 2032 0c9f 110D0000 		.4byte	0xd11
 2033 0ca3 2C       		.byte	0x2c
 2034 0ca4 18       		.uleb128 0x18
 2035 0ca5 C0010000 		.4byte	.LASF205
 2036 0ca9 10       		.byte	0x10
 2037 0caa 3C01     		.2byte	0x13c
 2038 0cac 350D0000 		.4byte	0xd35
 2039 0cb0 30       		.byte	0x30
 2040 0cb1 18       		.uleb128 0x18
 2041 0cb2 220E0000 		.4byte	.LASF206
 2042 0cb6 10       		.byte	0x10
 2043 0cb7 4001     		.2byte	0x140
 2044 0cb9 9B0B0000 		.4byte	0xb9b
 2045 0cbd 38       		.byte	0x38
 2046 0cbe 18       		.uleb128 0x18
 2047 0cbf 1C060000 		.4byte	.LASF207
 2048 0cc3 10       		.byte	0x10
 2049 0cc4 4601     		.2byte	0x146
 2050 0cc6 A60B0000 		.4byte	0xba6
 2051 0cca 3C       		.byte	0x3c
ARM GAS  /var/folders/d2/nstgp4h54kz7g1l847x_b8wc0000gn/T//ccEQVVt7.s 			page 37


 2052 0ccb 18       		.uleb128 0x18
 2053 0ccc BF030000 		.4byte	.LASF208
 2054 0cd0 10       		.byte	0x10
 2055 0cd1 4D01     		.2byte	0x14d
 2056 0cd3 F2120000 		.4byte	0x12f2
 2057 0cd7 40       		.byte	0x40
 2058 0cd8 18       		.uleb128 0x18
 2059 0cd9 030A0000 		.4byte	.LASF209
 2060 0cdd 10       		.byte	0x10
 2061 0cde 5101     		.2byte	0x151
 2062 0ce0 900B0000 		.4byte	0xb90
 2063 0ce4 44       		.byte	0x44
 2064 0ce5 18       		.uleb128 0x18
 2065 0ce6 F1080000 		.4byte	.LASF210
 2066 0cea 10       		.byte	0x10
 2067 0ceb 5801     		.2byte	0x158
 2068 0ced B5010000 		.4byte	0x1b5
 2069 0cf1 48       		.byte	0x48
 2070 0cf2 18       		.uleb128 0x18
 2071 0cf3 00000000 		.4byte	.LASF211
 2072 0cf7 10       		.byte	0x10
 2073 0cf8 5E01     		.2byte	0x15e
 2074 0cfa D8110000 		.4byte	0x11d8
 2075 0cfe 50       		.byte	0x50
 2076 0cff 00       		.byte	0
 2077 0d00 02       		.uleb128 0x2
 2078 0d01 85090000 		.4byte	.LASF212
 2079 0d05 0F       		.byte	0xf
 2080 0d06 44       		.byte	0x44
 2081 0d07 0B0D0000 		.4byte	0xd0b
 2082 0d0b 05       		.uleb128 0x5
 2083 0d0c 04       		.byte	0x4
 2084 0d0d D70B0000 		.4byte	0xbd7
 2085 0d11 02       		.uleb128 0x2
 2086 0d12 C9030000 		.4byte	.LASF213
 2087 0d16 0F       		.byte	0xf
 2088 0d17 49       		.byte	0x49
 2089 0d18 1C0D0000 		.4byte	0xd1c
 2090 0d1c 10       		.uleb128 0x10
 2091 0d1d 7D070000 		.4byte	.LASF214
 2092 0d21 04       		.byte	0x4
 2093 0d22 10       		.byte	0x10
 2094 0d23 B0       		.byte	0xb0
 2095 0d24 350D0000 		.4byte	0xd35
 2096 0d28 0D       		.uleb128 0xd
 2097 0d29 46030000 		.4byte	.LASF191
 2098 0d2d 10       		.byte	0x10
 2099 0d2e B1       		.byte	0xb1
 2100 0d2f 0B0D0000 		.4byte	0xd0b
 2101 0d33 00       		.byte	0
 2102 0d34 00       		.byte	0
 2103 0d35 02       		.uleb128 0x2
 2104 0d36 AF030000 		.4byte	.LASF215
 2105 0d3a 0F       		.byte	0xf
 2106 0d3b 50       		.byte	0x50
 2107 0d3c 400D0000 		.4byte	0xd40
 2108 0d40 10       		.uleb128 0x10
ARM GAS  /var/folders/d2/nstgp4h54kz7g1l847x_b8wc0000gn/T//ccEQVVt7.s 			page 38


 2109 0d41 B90A0000 		.4byte	.LASF216
 2110 0d45 08       		.byte	0x8
 2111 0d46 10       		.byte	0x10
 2112 0d47 B7       		.byte	0xb7
 2113 0d48 650D0000 		.4byte	0xd65
 2114 0d4c 0D       		.uleb128 0xd
 2115 0d4d 46030000 		.4byte	.LASF191
 2116 0d51 10       		.byte	0x10
 2117 0d52 B8       		.byte	0xb8
 2118 0d53 0B0D0000 		.4byte	0xd0b
 2119 0d57 00       		.byte	0
 2120 0d58 0D       		.uleb128 0xd
 2121 0d59 76030000 		.4byte	.LASF192
 2122 0d5d 10       		.byte	0x10
 2123 0d5e B9       		.byte	0xb9
 2124 0d5f 0B0D0000 		.4byte	0xd0b
 2125 0d63 04       		.byte	0x4
 2126 0d64 00       		.byte	0
 2127 0d65 02       		.uleb128 0x2
 2128 0d66 42070000 		.4byte	.LASF217
 2129 0d6a 0F       		.byte	0xf
 2130 0d6b 57       		.byte	0x57
 2131 0d6c 700D0000 		.4byte	0xd70
 2132 0d70 1B       		.uleb128 0x1b
 2133 0d71 33060000 		.4byte	.LASF218
 2134 0d75 1C       		.byte	0x1c
 2135 0d76 10       		.byte	0x10
 2136 0d77 9001     		.2byte	0x190
 2137 0d79 CC0D0000 		.4byte	0xdcc
 2138 0d7d 18       		.uleb128 0x18
 2139 0d7e 500B0000 		.4byte	.LASF219
 2140 0d82 10       		.byte	0x10
 2141 0d83 9101     		.2byte	0x191
 2142 0d85 350D0000 		.4byte	0xd35
 2143 0d89 00       		.byte	0
 2144 0d8a 18       		.uleb128 0x18
 2145 0d8b 280E0000 		.4byte	.LASF220
 2146 0d8f 10       		.byte	0x10
 2147 0d90 9201     		.2byte	0x192
 2148 0d92 900B0000 		.4byte	0xb90
 2149 0d96 08       		.byte	0x8
 2150 0d97 18       		.uleb128 0x18
 2151 0d98 D2010000 		.4byte	.LASF221
 2152 0d9c 10       		.byte	0x10
 2153 0d9d 9401     		.2byte	0x194
 2154 0d9f 820F0000 		.4byte	0xf82
 2155 0da3 0C       		.byte	0xc
 2156 0da4 18       		.uleb128 0x18
 2157 0da5 AE040000 		.4byte	.LASF222
 2158 0da9 10       		.byte	0x10
 2159 0daa 9701     		.2byte	0x197
 2160 0dac 0B0D0000 		.4byte	0xd0b
 2161 0db0 10       		.byte	0x10
 2162 0db1 18       		.uleb128 0x18
 2163 0db2 920B0000 		.4byte	.LASF223
 2164 0db6 10       		.byte	0x10
 2165 0db7 9801     		.2byte	0x198
ARM GAS  /var/folders/d2/nstgp4h54kz7g1l847x_b8wc0000gn/T//ccEQVVt7.s 			page 39


 2166 0db9 0B0D0000 		.4byte	0xd0b
 2167 0dbd 14       		.byte	0x14
 2168 0dbe 18       		.uleb128 0x18
 2169 0dbf B60D0000 		.4byte	.LASF224
 2170 0dc3 10       		.byte	0x10
 2171 0dc4 9B01     		.2byte	0x19b
 2172 0dc6 0B0D0000 		.4byte	0xd0b
 2173 0dca 18       		.byte	0x18
 2174 0dcb 00       		.byte	0
 2175 0dcc 02       		.uleb128 0x2
 2176 0dcd 00020000 		.4byte	.LASF225
 2177 0dd1 0F       		.byte	0xf
 2178 0dd2 5C       		.byte	0x5c
 2179 0dd3 D70D0000 		.4byte	0xdd7
 2180 0dd7 05       		.uleb128 0x5
 2181 0dd8 04       		.byte	0x4
 2182 0dd9 DD0D0000 		.4byte	0xddd
 2183 0ddd 1F       		.uleb128 0x1f
 2184 0dde E80D0000 		.4byte	0xde8
 2185 0de2 16       		.uleb128 0x16
 2186 0de3 B5010000 		.4byte	0x1b5
 2187 0de7 00       		.byte	0
 2188 0de8 02       		.uleb128 0x2
 2189 0de9 32070000 		.4byte	.LASF226
 2190 0ded 0F       		.byte	0xf
 2191 0dee 61       		.byte	0x61
 2192 0def F30D0000 		.4byte	0xdf3
 2193 0df3 1B       		.uleb128 0x1b
 2194 0df4 450A0000 		.4byte	.LASF227
 2195 0df8 14       		.byte	0x14
 2196 0df9 10       		.byte	0x10
 2197 0dfa 6B01     		.2byte	0x16b
 2198 0dfc 420E0000 		.4byte	0xe42
 2199 0e00 18       		.uleb128 0x18
 2200 0e01 3E080000 		.4byte	.LASF228
 2201 0e05 10       		.byte	0x10
 2202 0e06 6C01     		.2byte	0x16c
 2203 0e08 FE120000 		.4byte	0x12fe
 2204 0e0c 00       		.byte	0
 2205 0e0d 18       		.uleb128 0x18
 2206 0e0e 57080000 		.4byte	.LASF229
 2207 0e12 10       		.byte	0x10
 2208 0e13 6D01     		.2byte	0x16d
 2209 0e15 FE120000 		.4byte	0x12fe
 2210 0e19 04       		.byte	0x4
 2211 0e1a 18       		.uleb128 0x18
 2212 0e1b 2D0A0000 		.4byte	.LASF230
 2213 0e1f 10       		.byte	0x10
 2214 0e20 6E01     		.2byte	0x16e
 2215 0e22 C70B0000 		.4byte	0xbc7
 2216 0e26 08       		.byte	0x8
 2217 0e27 18       		.uleb128 0x18
 2218 0e28 E6050000 		.4byte	.LASF231
 2219 0e2c 10       		.byte	0x10
 2220 0e2d 6F01     		.2byte	0x16f
 2221 0e2f CC0D0000 		.4byte	0xdcc
 2222 0e33 0C       		.byte	0xc
ARM GAS  /var/folders/d2/nstgp4h54kz7g1l847x_b8wc0000gn/T//ccEQVVt7.s 			page 40


 2223 0e34 18       		.uleb128 0x18
 2224 0e35 BE020000 		.4byte	.LASF232
 2225 0e39 10       		.byte	0x10
 2226 0e3a 7101     		.2byte	0x171
 2227 0e3c B5010000 		.4byte	0x1b5
 2228 0e40 10       		.byte	0x10
 2229 0e41 00       		.byte	0
 2230 0e42 02       		.uleb128 0x2
 2231 0e43 15070000 		.4byte	.LASF233
 2232 0e47 0F       		.byte	0xf
 2233 0e48 66       		.byte	0x66
 2234 0e49 4D0E0000 		.4byte	0xe4d
 2235 0e4d 1B       		.uleb128 0x1b
 2236 0e4e 12020000 		.4byte	.LASF234
 2237 0e52 10       		.byte	0x10
 2238 0e53 10       		.byte	0x10
 2239 0e54 7B01     		.2byte	0x17b
 2240 0e56 8F0E0000 		.4byte	0xe8f
 2241 0e5a 18       		.uleb128 0x18
 2242 0e5b 3E080000 		.4byte	.LASF228
 2243 0e5f 10       		.byte	0x10
 2244 0e60 7C01     		.2byte	0x17c
 2245 0e62 FE120000 		.4byte	0x12fe
 2246 0e66 00       		.byte	0
 2247 0e67 18       		.uleb128 0x18
 2248 0e68 57080000 		.4byte	.LASF229
 2249 0e6c 10       		.byte	0x10
 2250 0e6d 7E01     		.2byte	0x17e
 2251 0e6f FE120000 		.4byte	0x12fe
 2252 0e73 04       		.byte	0x4
 2253 0e74 18       		.uleb128 0x18
 2254 0e75 2D0A0000 		.4byte	.LASF230
 2255 0e79 10       		.byte	0x10
 2256 0e7a 8001     		.2byte	0x180
 2257 0e7c C70B0000 		.4byte	0xbc7
 2258 0e80 08       		.byte	0x8
 2259 0e81 18       		.uleb128 0x18
 2260 0e82 870B0000 		.4byte	.LASF235
 2261 0e86 10       		.byte	0x10
 2262 0e87 8201     		.2byte	0x182
 2263 0e89 D20B0000 		.4byte	0xbd2
 2264 0e8d 0C       		.byte	0xc
 2265 0e8e 00       		.byte	0
 2266 0e8f 02       		.uleb128 0x2
 2267 0e90 C9040000 		.4byte	.LASF236
 2268 0e94 0F       		.byte	0xf
 2269 0e95 6B       		.byte	0x6b
 2270 0e96 9A0E0000 		.4byte	0xe9a
 2271 0e9a 17       		.uleb128 0x17
 2272 0e9b 570C0000 		.4byte	.LASF237
 2273 0e9f 1404     		.2byte	0x414
 2274 0ea1 10       		.byte	0x10
 2275 0ea2 A201     		.2byte	0x1a2
 2276 0ea4 DD0E0000 		.4byte	0xedd
 2277 0ea8 18       		.uleb128 0x18
 2278 0ea9 7C040000 		.4byte	.LASF238
 2279 0ead 10       		.byte	0x10
ARM GAS  /var/folders/d2/nstgp4h54kz7g1l847x_b8wc0000gn/T//ccEQVVt7.s 			page 41


 2280 0eae AA01     		.2byte	0x1aa
 2281 0eb0 4B060000 		.4byte	0x64b
 2282 0eb4 00       		.byte	0
 2283 0eb5 18       		.uleb128 0x18
 2284 0eb6 69060000 		.4byte	.LASF239
 2285 0eba 10       		.byte	0x10
 2286 0ebb AF01     		.2byte	0x1af
 2287 0ebd B10B0000 		.4byte	0xbb1
 2288 0ec1 04       		.byte	0x4
 2289 0ec2 18       		.uleb128 0x18
 2290 0ec3 83020000 		.4byte	.LASF240
 2291 0ec7 10       		.byte	0x10
 2292 0ec8 B301     		.2byte	0x1b3
 2293 0eca B10B0000 		.4byte	0xbb1
 2294 0ece 08       		.byte	0x8
 2295 0ecf 18       		.uleb128 0x18
 2296 0ed0 D9050000 		.4byte	.LASF241
 2297 0ed4 10       		.byte	0x10
 2298 0ed5 B901     		.2byte	0x1b9
 2299 0ed7 6A110000 		.4byte	0x116a
 2300 0edb 0C       		.byte	0xc
 2301 0edc 00       		.byte	0
 2302 0edd 02       		.uleb128 0x2
 2303 0ede 630D0000 		.4byte	.LASF242
 2304 0ee2 0F       		.byte	0xf
 2305 0ee3 70       		.byte	0x70
 2306 0ee4 E80E0000 		.4byte	0xee8
 2307 0ee8 17       		.uleb128 0x17
 2308 0ee9 080D0000 		.4byte	.LASF243
 2309 0eed 7006     		.2byte	0x670
 2310 0eef 10       		.byte	0x10
 2311 0ef0 C201     		.2byte	0x1c2
 2312 0ef2 550F0000 		.4byte	0xf55
 2313 0ef6 18       		.uleb128 0x18
 2314 0ef7 700B0000 		.4byte	.LASF244
 2315 0efb 10       		.byte	0x10
 2316 0efc C601     		.2byte	0x1c6
 2317 0efe 650D0000 		.4byte	0xd65
 2318 0f02 00       		.byte	0
 2319 0f03 18       		.uleb128 0x18
 2320 0f04 940C0000 		.4byte	.LASF245
 2321 0f08 10       		.byte	0x10
 2322 0f09 CA01     		.2byte	0x1ca
 2323 0f0b 420E0000 		.4byte	0xe42
 2324 0f0f 1C       		.byte	0x1c
 2325 0f10 23       		.uleb128 0x23
 2326 0f11 64626700 		.ascii	"dbg\000"
 2327 0f15 10       		.byte	0x10
 2328 0f16 CE01     		.2byte	0x1ce
 2329 0f18 8F0E0000 		.4byte	0xe8f
 2330 0f1c 2C       		.byte	0x2c
 2331 0f1d 19       		.uleb128 0x19
 2332 0f1e 250B0000 		.4byte	.LASF246
 2333 0f22 10       		.byte	0x10
 2334 0f23 D201     		.2byte	0x1d2
 2335 0f25 D70B0000 		.4byte	0xbd7
 2336 0f29 4004     		.2byte	0x440
ARM GAS  /var/folders/d2/nstgp4h54kz7g1l847x_b8wc0000gn/T//ccEQVVt7.s 			page 42


 2337 0f2b 24       		.uleb128 0x24
 2338 0f2c 746D00   		.ascii	"tm\000"
 2339 0f2f 10       		.byte	0x10
 2340 0f30 D701     		.2byte	0x1d7
 2341 0f32 8A110000 		.4byte	0x118a
 2342 0f36 A804     		.2byte	0x4a8
 2343 0f38 19       		.uleb128 0x19
 2344 0f39 6A0A0000 		.4byte	.LASF247
 2345 0f3d 10       		.byte	0x10
 2346 0f3e DD01     		.2byte	0x1dd
 2347 0f40 1C120000 		.4byte	0x121c
 2348 0f44 B004     		.2byte	0x4b0
 2349 0f46 19       		.uleb128 0x19
 2350 0f47 B3080000 		.4byte	.LASF248
 2351 0f4b 10       		.byte	0x10
 2352 0f4c E301     		.2byte	0x1e3
 2353 0f4e 04130000 		.4byte	0x1304
 2354 0f52 E804     		.2byte	0x4e8
 2355 0f54 00       		.byte	0
 2356 0f55 20       		.uleb128 0x20
 2357 0f56 8C080000 		.4byte	.LASF249
 2358 0f5a 11       		.byte	0x11
 2359 0f5b A706     		.2byte	0x6a7
 2360 0f5d A0090000 		.4byte	0x9a0
 2361 0f61 21       		.uleb128 0x21
 2362 0f62 EE060000 		.4byte	.LASF250
 2363 0f66 12       		.byte	0x12
 2364 0f67 4C       		.byte	0x4c
 2365 0f68 A5090000 		.4byte	0x9a5
 2366 0f6c 02       		.uleb128 0x2
 2367 0f6d D8030000 		.4byte	.LASF251
 2368 0f71 13       		.byte	0x13
 2369 0f72 65       		.byte	0x65
 2370 0f73 B5010000 		.4byte	0x1b5
 2371 0f77 02       		.uleb128 0x2
 2372 0f78 4B050000 		.4byte	.LASF252
 2373 0f7c 13       		.byte	0x13
 2374 0f7d 6D       		.byte	0x6d
 2375 0f7e B0090000 		.4byte	0x9b0
 2376 0f82 10       		.uleb128 0x10
 2377 0f83 58040000 		.4byte	.LASF253
 2378 0f87 04       		.byte	0x4
 2379 0f88 13       		.byte	0x13
 2380 0f89 89       		.byte	0x89
 2381 0f8a 9B0F0000 		.4byte	0xf9b
 2382 0f8e 11       		.uleb128 0x11
 2383 0f8f 72313300 		.ascii	"r13\000"
 2384 0f93 13       		.byte	0x13
 2385 0f94 8A       		.byte	0x8a
 2386 0f95 DC100000 		.4byte	0x10dc
 2387 0f99 00       		.byte	0
 2388 0f9a 00       		.byte	0
 2389 0f9b 10       		.uleb128 0x10
 2390 0f9c 0E0A0000 		.4byte	.LASF254
 2391 0fa0 64       		.byte	0x64
 2392 0fa1 14       		.byte	0x14
 2393 0fa2 F4       		.byte	0xf4
ARM GAS  /var/folders/d2/nstgp4h54kz7g1l847x_b8wc0000gn/T//ccEQVVt7.s 			page 43


 2394 0fa3 DC100000 		.4byte	0x10dc
 2395 0fa7 11       		.uleb128 0x11
 2396 0fa8 73313600 		.ascii	"s16\000"
 2397 0fac 14       		.byte	0x14
 2398 0fad F6       		.byte	0xf6
 2399 0fae 6C0F0000 		.4byte	0xf6c
 2400 0fb2 00       		.byte	0
 2401 0fb3 11       		.uleb128 0x11
 2402 0fb4 73313700 		.ascii	"s17\000"
 2403 0fb8 14       		.byte	0x14
 2404 0fb9 F7       		.byte	0xf7
 2405 0fba 6C0F0000 		.4byte	0xf6c
 2406 0fbe 04       		.byte	0x4
 2407 0fbf 11       		.uleb128 0x11
 2408 0fc0 73313800 		.ascii	"s18\000"
 2409 0fc4 14       		.byte	0x14
 2410 0fc5 F8       		.byte	0xf8
 2411 0fc6 6C0F0000 		.4byte	0xf6c
 2412 0fca 08       		.byte	0x8
 2413 0fcb 11       		.uleb128 0x11
 2414 0fcc 73313900 		.ascii	"s19\000"
 2415 0fd0 14       		.byte	0x14
 2416 0fd1 F9       		.byte	0xf9
 2417 0fd2 6C0F0000 		.4byte	0xf6c
 2418 0fd6 0C       		.byte	0xc
 2419 0fd7 11       		.uleb128 0x11
 2420 0fd8 73323000 		.ascii	"s20\000"
 2421 0fdc 14       		.byte	0x14
 2422 0fdd FA       		.byte	0xfa
 2423 0fde 6C0F0000 		.4byte	0xf6c
 2424 0fe2 10       		.byte	0x10
 2425 0fe3 11       		.uleb128 0x11
 2426 0fe4 73323100 		.ascii	"s21\000"
 2427 0fe8 14       		.byte	0x14
 2428 0fe9 FB       		.byte	0xfb
 2429 0fea 6C0F0000 		.4byte	0xf6c
 2430 0fee 14       		.byte	0x14
 2431 0fef 11       		.uleb128 0x11
 2432 0ff0 73323200 		.ascii	"s22\000"
 2433 0ff4 14       		.byte	0x14
 2434 0ff5 FC       		.byte	0xfc
 2435 0ff6 6C0F0000 		.4byte	0xf6c
 2436 0ffa 18       		.byte	0x18
 2437 0ffb 11       		.uleb128 0x11
 2438 0ffc 73323300 		.ascii	"s23\000"
 2439 1000 14       		.byte	0x14
 2440 1001 FD       		.byte	0xfd
 2441 1002 6C0F0000 		.4byte	0xf6c
 2442 1006 1C       		.byte	0x1c
 2443 1007 11       		.uleb128 0x11
 2444 1008 73323400 		.ascii	"s24\000"
 2445 100c 14       		.byte	0x14
 2446 100d FE       		.byte	0xfe
 2447 100e 6C0F0000 		.4byte	0xf6c
 2448 1012 20       		.byte	0x20
 2449 1013 11       		.uleb128 0x11
 2450 1014 73323500 		.ascii	"s25\000"
ARM GAS  /var/folders/d2/nstgp4h54kz7g1l847x_b8wc0000gn/T//ccEQVVt7.s 			page 44


 2451 1018 14       		.byte	0x14
 2452 1019 FF       		.byte	0xff
 2453 101a 6C0F0000 		.4byte	0xf6c
 2454 101e 24       		.byte	0x24
 2455 101f 23       		.uleb128 0x23
 2456 1020 73323600 		.ascii	"s26\000"
 2457 1024 14       		.byte	0x14
 2458 1025 0001     		.2byte	0x100
 2459 1027 6C0F0000 		.4byte	0xf6c
 2460 102b 28       		.byte	0x28
 2461 102c 23       		.uleb128 0x23
 2462 102d 73323700 		.ascii	"s27\000"
 2463 1031 14       		.byte	0x14
 2464 1032 0101     		.2byte	0x101
 2465 1034 6C0F0000 		.4byte	0xf6c
 2466 1038 2C       		.byte	0x2c
 2467 1039 23       		.uleb128 0x23
 2468 103a 73323800 		.ascii	"s28\000"
 2469 103e 14       		.byte	0x14
 2470 103f 0201     		.2byte	0x102
 2471 1041 6C0F0000 		.4byte	0xf6c
 2472 1045 30       		.byte	0x30
 2473 1046 23       		.uleb128 0x23
 2474 1047 73323900 		.ascii	"s29\000"
 2475 104b 14       		.byte	0x14
 2476 104c 0301     		.2byte	0x103
 2477 104e 6C0F0000 		.4byte	0xf6c
 2478 1052 34       		.byte	0x34
 2479 1053 23       		.uleb128 0x23
 2480 1054 73333000 		.ascii	"s30\000"
 2481 1058 14       		.byte	0x14
 2482 1059 0401     		.2byte	0x104
 2483 105b 6C0F0000 		.4byte	0xf6c
 2484 105f 38       		.byte	0x38
 2485 1060 23       		.uleb128 0x23
 2486 1061 73333100 		.ascii	"s31\000"
 2487 1065 14       		.byte	0x14
 2488 1066 0501     		.2byte	0x105
 2489 1068 6C0F0000 		.4byte	0xf6c
 2490 106c 3C       		.byte	0x3c
 2491 106d 23       		.uleb128 0x23
 2492 106e 723400   		.ascii	"r4\000"
 2493 1071 14       		.byte	0x14
 2494 1072 0701     		.2byte	0x107
 2495 1074 6C0F0000 		.4byte	0xf6c
 2496 1078 40       		.byte	0x40
 2497 1079 23       		.uleb128 0x23
 2498 107a 723500   		.ascii	"r5\000"
 2499 107d 14       		.byte	0x14
 2500 107e 0801     		.2byte	0x108
 2501 1080 6C0F0000 		.4byte	0xf6c
 2502 1084 44       		.byte	0x44
 2503 1085 23       		.uleb128 0x23
 2504 1086 723600   		.ascii	"r6\000"
 2505 1089 14       		.byte	0x14
 2506 108a 0901     		.2byte	0x109
 2507 108c 6C0F0000 		.4byte	0xf6c
ARM GAS  /var/folders/d2/nstgp4h54kz7g1l847x_b8wc0000gn/T//ccEQVVt7.s 			page 45


 2508 1090 48       		.byte	0x48
 2509 1091 23       		.uleb128 0x23
 2510 1092 723700   		.ascii	"r7\000"
 2511 1095 14       		.byte	0x14
 2512 1096 0A01     		.2byte	0x10a
 2513 1098 6C0F0000 		.4byte	0xf6c
 2514 109c 4C       		.byte	0x4c
 2515 109d 23       		.uleb128 0x23
 2516 109e 723800   		.ascii	"r8\000"
 2517 10a1 14       		.byte	0x14
 2518 10a2 0B01     		.2byte	0x10b
 2519 10a4 6C0F0000 		.4byte	0xf6c
 2520 10a8 50       		.byte	0x50
 2521 10a9 23       		.uleb128 0x23
 2522 10aa 723900   		.ascii	"r9\000"
 2523 10ad 14       		.byte	0x14
 2524 10ae 0C01     		.2byte	0x10c
 2525 10b0 6C0F0000 		.4byte	0xf6c
 2526 10b4 54       		.byte	0x54
 2527 10b5 23       		.uleb128 0x23
 2528 10b6 72313000 		.ascii	"r10\000"
 2529 10ba 14       		.byte	0x14
 2530 10bb 0D01     		.2byte	0x10d
 2531 10bd 6C0F0000 		.4byte	0xf6c
 2532 10c1 58       		.byte	0x58
 2533 10c2 23       		.uleb128 0x23
 2534 10c3 72313100 		.ascii	"r11\000"
 2535 10c7 14       		.byte	0x14
 2536 10c8 0E01     		.2byte	0x10e
 2537 10ca 6C0F0000 		.4byte	0xf6c
 2538 10ce 5C       		.byte	0x5c
 2539 10cf 23       		.uleb128 0x23
 2540 10d0 6C7200   		.ascii	"lr\000"
 2541 10d3 14       		.byte	0x14
 2542 10d4 0F01     		.2byte	0x10f
 2543 10d6 6C0F0000 		.4byte	0xf6c
 2544 10da 60       		.byte	0x60
 2545 10db 00       		.byte	0
 2546 10dc 05       		.uleb128 0x5
 2547 10dd 04       		.byte	0x4
 2548 10de 9B0F0000 		.4byte	0xf9b
 2549 10e2 0C       		.uleb128 0xc
 2550 10e3 10       		.byte	0x10
 2551 10e4 15       		.byte	0x15
 2552 10e5 51       		.byte	0x51
 2553 10e6 1B110000 		.4byte	0x111b
 2554 10ea 0D       		.uleb128 0xd
 2555 10eb DD0D0000 		.4byte	.LASF255
 2556 10ef 15       		.byte	0x15
 2557 10f0 55       		.byte	0x55
 2558 10f1 C70B0000 		.4byte	0xbc7
 2559 10f5 00       		.byte	0
 2560 10f6 0D       		.uleb128 0xd
 2561 10f7 9D020000 		.4byte	.LASF256
 2562 10fb 15       		.byte	0x15
 2563 10fc 59       		.byte	0x59
 2564 10fd 0B0D0000 		.4byte	0xd0b
ARM GAS  /var/folders/d2/nstgp4h54kz7g1l847x_b8wc0000gn/T//ccEQVVt7.s 			page 46


 2565 1101 04       		.byte	0x4
 2566 1102 0D       		.uleb128 0xd
 2567 1103 A9080000 		.4byte	.LASF257
 2568 1107 15       		.byte	0x15
 2569 1108 5D       		.byte	0x5d
 2570 1109 B5010000 		.4byte	0x1b5
 2571 110d 08       		.byte	0x8
 2572 110e 0D       		.uleb128 0xd
 2573 110f 87060000 		.4byte	.LASF258
 2574 1113 15       		.byte	0x15
 2575 1114 61       		.byte	0x61
 2576 1115 7F090000 		.4byte	0x97f
 2577 1119 0C       		.byte	0xc
 2578 111a 00       		.byte	0
 2579 111b 02       		.uleb128 0x2
 2580 111c 8D070000 		.4byte	.LASF259
 2581 1120 15       		.byte	0x15
 2582 1121 62       		.byte	0x62
 2583 1122 E2100000 		.4byte	0x10e2
 2584 1126 25       		.uleb128 0x25
 2585 1127 0804     		.2byte	0x408
 2586 1129 15       		.byte	0x15
 2587 112a 67       		.byte	0x67
 2588 112b 54110000 		.4byte	0x1154
 2589 112f 0D       		.uleb128 0xd
 2590 1130 6E080000 		.4byte	.LASF260
 2591 1134 15       		.byte	0x15
 2592 1135 6B       		.byte	0x6b
 2593 1136 30000000 		.4byte	0x30
 2594 113a 00       		.byte	0
 2595 113b 0D       		.uleb128 0xd
 2596 113c F90D0000 		.4byte	.LASF261
 2597 1140 15       		.byte	0x15
 2598 1141 6F       		.byte	0x6f
 2599 1142 54110000 		.4byte	0x1154
 2600 1146 04       		.byte	0x4
 2601 1147 0D       		.uleb128 0xd
 2602 1148 34080000 		.4byte	.LASF262
 2603 114c 15       		.byte	0x15
 2604 114d 73       		.byte	0x73
 2605 114e 5A110000 		.4byte	0x115a
 2606 1152 08       		.byte	0x8
 2607 1153 00       		.byte	0
 2608 1154 05       		.uleb128 0x5
 2609 1155 04       		.byte	0x4
 2610 1156 1B110000 		.4byte	0x111b
 2611 115a 0A       		.uleb128 0xa
 2612 115b 1B110000 		.4byte	0x111b
 2613 115f 6A110000 		.4byte	0x116a
 2614 1163 0B       		.uleb128 0xb
 2615 1164 30000000 		.4byte	0x30
 2616 1168 3F       		.byte	0x3f
 2617 1169 00       		.byte	0
 2618 116a 02       		.uleb128 0x2
 2619 116b FE050000 		.4byte	.LASF263
 2620 116f 15       		.byte	0x15
 2621 1170 74       		.byte	0x74
ARM GAS  /var/folders/d2/nstgp4h54kz7g1l847x_b8wc0000gn/T//ccEQVVt7.s 			page 47


 2622 1171 26110000 		.4byte	0x1126
 2623 1175 0C       		.uleb128 0xc
 2624 1176 04       		.byte	0x4
 2625 1177 16       		.byte	0x16
 2626 1178 38       		.byte	0x38
 2627 1179 8A110000 		.4byte	0x118a
 2628 117d 0D       		.uleb128 0xd
 2629 117e 7E090000 		.4byte	.LASF264
 2630 1182 16       		.byte	0x16
 2631 1183 3C       		.byte	0x3c
 2632 1184 4E0B0000 		.4byte	0xb4e
 2633 1188 00       		.byte	0
 2634 1189 00       		.byte	0
 2635 118a 02       		.uleb128 0x2
 2636 118b 9A0B0000 		.4byte	.LASF265
 2637 118f 16       		.byte	0x16
 2638 1190 3D       		.byte	0x3d
 2639 1191 75110000 		.4byte	0x1175
 2640 1195 0C       		.uleb128 0xc
 2641 1196 18       		.byte	0x18
 2642 1197 16       		.byte	0x16
 2643 1198 48       		.byte	0x48
 2644 1199 D8110000 		.4byte	0x11d8
 2645 119d 0D       		.uleb128 0xd
 2646 119e 400B0000 		.4byte	.LASF266
 2647 11a2 16       		.byte	0x16
 2648 11a3 49       		.byte	0x49
 2649 11a4 4E0B0000 		.4byte	0xb4e
 2650 11a8 00       		.byte	0
 2651 11a9 0D       		.uleb128 0xd
 2652 11aa B7050000 		.4byte	.LASF267
 2653 11ae 16       		.byte	0x16
 2654 11af 4A       		.byte	0x4a
 2655 11b0 4E0B0000 		.4byte	0xb4e
 2656 11b4 04       		.byte	0x4
 2657 11b5 0D       		.uleb128 0xd
 2658 11b6 1D0E0000 		.4byte	.LASF268
 2659 11ba 16       		.byte	0x16
 2660 11bb 4B       		.byte	0x4b
 2661 11bc 4E0B0000 		.4byte	0xb4e
 2662 11c0 08       		.byte	0x8
 2663 11c1 11       		.uleb128 0x11
 2664 11c2 6E00     		.ascii	"n\000"
 2665 11c4 16       		.byte	0x16
 2666 11c5 4C       		.byte	0x4c
 2667 11c6 BC0B0000 		.4byte	0xbbc
 2668 11ca 0C       		.byte	0xc
 2669 11cb 0D       		.uleb128 0xd
 2670 11cc 71060000 		.4byte	.LASF269
 2671 11d0 16       		.byte	0x16
 2672 11d1 4D       		.byte	0x4d
 2673 11d2 590B0000 		.4byte	0xb59
 2674 11d6 10       		.byte	0x10
 2675 11d7 00       		.byte	0
 2676 11d8 02       		.uleb128 0x2
 2677 11d9 A3020000 		.4byte	.LASF270
 2678 11dd 16       		.byte	0x16
ARM GAS  /var/folders/d2/nstgp4h54kz7g1l847x_b8wc0000gn/T//ccEQVVt7.s 			page 48


 2679 11de 4E       		.byte	0x4e
 2680 11df 95110000 		.4byte	0x1195
 2681 11e3 0C       		.uleb128 0xc
 2682 11e4 38       		.byte	0x38
 2683 11e5 17       		.byte	0x17
 2684 11e6 38       		.byte	0x38
 2685 11e7 1C120000 		.4byte	0x121c
 2686 11eb 0D       		.uleb128 0xd
 2687 11ec A4070000 		.4byte	.LASF271
 2688 11f0 17       		.byte	0x17
 2689 11f1 39       		.byte	0x39
 2690 11f2 BC0B0000 		.4byte	0xbbc
 2691 11f6 00       		.byte	0
 2692 11f7 0D       		.uleb128 0xd
 2693 11f8 1B050000 		.4byte	.LASF272
 2694 11fc 17       		.byte	0x17
 2695 11fd 3A       		.byte	0x3a
 2696 11fe BC0B0000 		.4byte	0xbbc
 2697 1202 04       		.byte	0x4
 2698 1203 0D       		.uleb128 0xd
 2699 1204 90060000 		.4byte	.LASF273
 2700 1208 17       		.byte	0x17
 2701 1209 3B       		.byte	0x3b
 2702 120a D8110000 		.4byte	0x11d8
 2703 120e 08       		.byte	0x8
 2704 120f 0D       		.uleb128 0xd
 2705 1210 7C060000 		.4byte	.LASF274
 2706 1214 17       		.byte	0x17
 2707 1215 3D       		.byte	0x3d
 2708 1216 D8110000 		.4byte	0x11d8
 2709 121a 20       		.byte	0x20
 2710 121b 00       		.byte	0
 2711 121c 02       		.uleb128 0x2
 2712 121d 33090000 		.4byte	.LASF275
 2713 1221 17       		.byte	0x17
 2714 1222 3F       		.byte	0x3f
 2715 1223 E3110000 		.4byte	0x11e3
 2716 1227 08       		.uleb128 0x8
 2717 1228 04       		.byte	0x4
 2718 1229 10       		.byte	0x10
 2719 122a FA       		.byte	0xfa
 2720 122b 84120000 		.4byte	0x1284
 2721 122f 1E       		.uleb128 0x1e
 2722 1230 3A0D0000 		.4byte	.LASF276
 2723 1234 10       		.byte	0x10
 2724 1235 0101     		.2byte	0x101
 2725 1237 9B0B0000 		.4byte	0xb9b
 2726 123b 1E       		.uleb128 0x1e
 2727 123c D3020000 		.4byte	.LASF277
 2728 1240 10       		.byte	0x10
 2729 1241 0801     		.2byte	0x108
 2730 1243 9B0B0000 		.4byte	0xb9b
 2731 1247 1E       		.uleb128 0x1e
 2732 1248 08050000 		.4byte	.LASF278
 2733 124c 10       		.byte	0x10
 2734 124d 0F01     		.2byte	0x10f
 2735 124f B5010000 		.4byte	0x1b5
ARM GAS  /var/folders/d2/nstgp4h54kz7g1l847x_b8wc0000gn/T//ccEQVVt7.s 			page 49


 2736 1253 1E       		.uleb128 0x1e
 2737 1254 60040000 		.4byte	.LASF279
 2738 1258 10       		.byte	0x10
 2739 1259 1601     		.2byte	0x116
 2740 125b 84120000 		.4byte	0x1284
 2741 125f 1E       		.uleb128 0x1e
 2742 1260 160E0000 		.4byte	.LASF280
 2743 1264 10       		.byte	0x10
 2744 1265 1E01     		.2byte	0x11e
 2745 1267 AF120000 		.4byte	0x12af
 2746 126b 1E       		.uleb128 0x1e
 2747 126c 27060000 		.4byte	.LASF281
 2748 1270 10       		.byte	0x10
 2749 1271 2701     		.2byte	0x127
 2750 1273 F2120000 		.4byte	0x12f2
 2751 1277 1E       		.uleb128 0x1e
 2752 1278 EE020000 		.4byte	.LASF282
 2753 127c 10       		.byte	0x10
 2754 127d 2F01     		.2byte	0x12f
 2755 127f A60B0000 		.4byte	0xba6
 2756 1283 00       		.byte	0
 2757 1284 05       		.uleb128 0x5
 2758 1285 04       		.byte	0x4
 2759 1286 000D0000 		.4byte	0xd00
 2760 128a 10       		.uleb128 0x10
 2761 128b FE060000 		.4byte	.LASF283
 2762 128f 0C       		.byte	0xc
 2763 1290 18       		.byte	0x18
 2764 1291 34       		.byte	0x34
 2765 1292 AF120000 		.4byte	0x12af
 2766 1296 0D       		.uleb128 0xd
 2767 1297 AB0B0000 		.4byte	.LASF284
 2768 129b 18       		.byte	0x18
 2769 129c 35       		.byte	0x35
 2770 129d 350D0000 		.4byte	0xd35
 2771 12a1 00       		.byte	0
 2772 12a2 0D       		.uleb128 0xd
 2773 12a3 560A0000 		.4byte	.LASF285
 2774 12a7 18       		.byte	0x18
 2775 12a8 37       		.byte	0x37
 2776 12a9 B10B0000 		.4byte	0xbb1
 2777 12ad 08       		.byte	0x8
 2778 12ae 00       		.byte	0
 2779 12af 05       		.uleb128 0x5
 2780 12b0 04       		.byte	0x4
 2781 12b1 8A120000 		.4byte	0x128a
 2782 12b5 10       		.uleb128 0x10
 2783 12b6 D30B0000 		.4byte	.LASF286
 2784 12ba 14       		.byte	0x14
 2785 12bb 19       		.byte	0x19
 2786 12bc 39       		.byte	0x39
 2787 12bd F2120000 		.4byte	0x12f2
 2788 12c1 0D       		.uleb128 0xd
 2789 12c2 25080000 		.4byte	.LASF287
 2790 12c6 19       		.byte	0x19
 2791 12c7 3A       		.byte	0x3a
 2792 12c8 350D0000 		.4byte	0xd35
ARM GAS  /var/folders/d2/nstgp4h54kz7g1l847x_b8wc0000gn/T//ccEQVVt7.s 			page 50


 2793 12cc 00       		.byte	0
 2794 12cd 0D       		.uleb128 0xd
 2795 12ce B6020000 		.4byte	.LASF288
 2796 12d2 19       		.byte	0x19
 2797 12d3 3C       		.byte	0x3c
 2798 12d4 0B0D0000 		.4byte	0xd0b
 2799 12d8 08       		.byte	0x8
 2800 12d9 0D       		.uleb128 0xd
 2801 12da F20D0000 		.4byte	.LASF289
 2802 12de 19       		.byte	0x19
 2803 12df 3E       		.byte	0x3e
 2804 12e0 36140000 		.4byte	0x1436
 2805 12e4 0C       		.byte	0xc
 2806 12e5 0D       		.uleb128 0xd
 2807 12e6 E4040000 		.4byte	.LASF290
 2808 12ea 19       		.byte	0x19
 2809 12eb 41       		.byte	0x41
 2810 12ec B10B0000 		.4byte	0xbb1
 2811 12f0 10       		.byte	0x10
 2812 12f1 00       		.byte	0
 2813 12f2 05       		.uleb128 0x5
 2814 12f3 04       		.byte	0x4
 2815 12f4 B5120000 		.4byte	0x12b5
 2816 12f8 05       		.uleb128 0x5
 2817 12f9 04       		.byte	0x4
 2818 12fa 770F0000 		.4byte	0xf77
 2819 12fe 05       		.uleb128 0x5
 2820 12ff 04       		.byte	0x4
 2821 1300 E80D0000 		.4byte	0xde8
 2822 1304 0A       		.uleb128 0xa
 2823 1305 770F0000 		.4byte	0xf77
 2824 1309 14130000 		.4byte	0x1314
 2825 130d 0B       		.uleb128 0xb
 2826 130e 30000000 		.4byte	0x30
 2827 1312 30       		.byte	0x30
 2828 1313 00       		.byte	0
 2829 1314 26       		.uleb128 0x26
 2830 1315 636800   		.ascii	"ch\000"
 2831 1318 10       		.byte	0x10
 2832 1319 0902     		.2byte	0x209
 2833 131b DD0E0000 		.4byte	0xedd
 2834 131f 0C       		.uleb128 0xc
 2835 1320 16       		.byte	0x16
 2836 1321 1A       		.byte	0x1a
 2837 1322 34       		.byte	0x34
 2838 1323 00140000 		.4byte	0x1400
 2839 1327 0D       		.uleb128 0xd
 2840 1328 3D000000 		.4byte	.LASF291
 2841 132c 1A       		.byte	0x1a
 2842 132d 35       		.byte	0x35
 2843 132e 00140000 		.4byte	0x1400
 2844 1332 00       		.byte	0
 2845 1333 0D       		.uleb128 0xd
 2846 1334 C3060000 		.4byte	.LASF292
 2847 1338 1A       		.byte	0x1a
 2848 1339 36       		.byte	0x36
 2849 133a 7F090000 		.4byte	0x97f
ARM GAS  /var/folders/d2/nstgp4h54kz7g1l847x_b8wc0000gn/T//ccEQVVt7.s 			page 51


 2850 133e 04       		.byte	0x4
 2851 133f 0D       		.uleb128 0xd
 2852 1340 790D0000 		.4byte	.LASF293
 2853 1344 1A       		.byte	0x1a
 2854 1345 37       		.byte	0x37
 2855 1346 7F090000 		.4byte	0x97f
 2856 134a 05       		.byte	0x5
 2857 134b 0D       		.uleb128 0xd
 2858 134c 1A080000 		.4byte	.LASF294
 2859 1350 1A       		.byte	0x1a
 2860 1351 38       		.byte	0x38
 2861 1352 8A090000 		.4byte	0x98a
 2862 1356 06       		.byte	0x6
 2863 1357 0D       		.uleb128 0xd
 2864 1358 8C020000 		.4byte	.LASF295
 2865 135c 1A       		.byte	0x1a
 2866 135d 39       		.byte	0x39
 2867 135e 7F090000 		.4byte	0x97f
 2868 1362 08       		.byte	0x8
 2869 1363 0D       		.uleb128 0xd
 2870 1364 0E090000 		.4byte	.LASF296
 2871 1368 1A       		.byte	0x1a
 2872 1369 3A       		.byte	0x3a
 2873 136a 7F090000 		.4byte	0x97f
 2874 136e 09       		.byte	0x9
 2875 136f 0D       		.uleb128 0xd
 2876 1370 01030000 		.4byte	.LASF297
 2877 1374 1A       		.byte	0x1a
 2878 1375 3B       		.byte	0x3b
 2879 1376 7F090000 		.4byte	0x97f
 2880 137a 0A       		.byte	0xa
 2881 137b 0D       		.uleb128 0xd
 2882 137c AB050000 		.4byte	.LASF298
 2883 1380 1A       		.byte	0x1a
 2884 1381 3C       		.byte	0x3c
 2885 1382 7F090000 		.4byte	0x97f
 2886 1386 0B       		.byte	0xb
 2887 1387 0D       		.uleb128 0xd
 2888 1388 F5010000 		.4byte	.LASF299
 2889 138c 1A       		.byte	0x1a
 2890 138d 3D       		.byte	0x3d
 2891 138e 7F090000 		.4byte	0x97f
 2892 1392 0C       		.byte	0xc
 2893 1393 0D       		.uleb128 0xd
 2894 1394 2B050000 		.4byte	.LASF300
 2895 1398 1A       		.byte	0x1a
 2896 1399 3E       		.byte	0x3e
 2897 139a 7F090000 		.4byte	0x97f
 2898 139e 0D       		.byte	0xd
 2899 139f 0D       		.uleb128 0xd
 2900 13a0 7E0C0000 		.4byte	.LASF301
 2901 13a4 1A       		.byte	0x1a
 2902 13a5 3F       		.byte	0x3f
 2903 13a6 7F090000 		.4byte	0x97f
 2904 13aa 0E       		.byte	0xe
 2905 13ab 0D       		.uleb128 0xd
 2906 13ac 22000000 		.4byte	.LASF302
ARM GAS  /var/folders/d2/nstgp4h54kz7g1l847x_b8wc0000gn/T//ccEQVVt7.s 			page 52


 2907 13b0 1A       		.byte	0x1a
 2908 13b1 40       		.byte	0x40
 2909 13b2 7F090000 		.4byte	0x97f
 2910 13b6 0F       		.byte	0xf
 2911 13b7 0D       		.uleb128 0xd
 2912 13b8 EE0C0000 		.4byte	.LASF303
 2913 13bc 1A       		.byte	0x1a
 2914 13bd 41       		.byte	0x41
 2915 13be 7F090000 		.4byte	0x97f
 2916 13c2 10       		.byte	0x10
 2917 13c3 0D       		.uleb128 0xd
 2918 13c4 63030000 		.4byte	.LASF304
 2919 13c8 1A       		.byte	0x1a
 2920 13c9 43       		.byte	0x43
 2921 13ca 7F090000 		.4byte	0x97f
 2922 13ce 11       		.byte	0x11
 2923 13cf 0D       		.uleb128 0xd
 2924 13d0 D20A0000 		.4byte	.LASF305
 2925 13d4 1A       		.byte	0x1a
 2926 13d5 44       		.byte	0x44
 2927 13d6 7F090000 		.4byte	0x97f
 2928 13da 12       		.byte	0x12
 2929 13db 0D       		.uleb128 0xd
 2930 13dc A7090000 		.4byte	.LASF306
 2931 13e0 1A       		.byte	0x1a
 2932 13e1 45       		.byte	0x45
 2933 13e2 7F090000 		.4byte	0x97f
 2934 13e6 13       		.byte	0x13
 2935 13e7 0D       		.uleb128 0xd
 2936 13e8 C3070000 		.4byte	.LASF307
 2937 13ec 1A       		.byte	0x1a
 2938 13ed 46       		.byte	0x46
 2939 13ee 7F090000 		.4byte	0x97f
 2940 13f2 14       		.byte	0x14
 2941 13f3 0D       		.uleb128 0xd
 2942 13f4 0F050000 		.4byte	.LASF308
 2943 13f8 1A       		.byte	0x1a
 2944 13f9 48       		.byte	0x48
 2945 13fa 7F090000 		.4byte	0x97f
 2946 13fe 15       		.byte	0x15
 2947 13ff 00       		.byte	0
 2948 1400 0A       		.uleb128 0xa
 2949 1401 C8010000 		.4byte	0x1c8
 2950 1405 10140000 		.4byte	0x1410
 2951 1409 0B       		.uleb128 0xb
 2952 140a 30000000 		.4byte	0x30
 2953 140e 03       		.byte	0x3
 2954 140f 00       		.byte	0
 2955 1410 02       		.uleb128 0x2
 2956 1411 6F0D0000 		.4byte	.LASF309
 2957 1415 1A       		.byte	0x1a
 2958 1416 49       		.byte	0x49
 2959 1417 1F130000 		.4byte	0x131f
 2960 141b 0F       		.uleb128 0xf
 2961 141c 10140000 		.4byte	0x1410
 2962 1420 21       		.uleb128 0x21
 2963 1421 AD010000 		.4byte	.LASF310
ARM GAS  /var/folders/d2/nstgp4h54kz7g1l847x_b8wc0000gn/T//ccEQVVt7.s 			page 53


 2964 1425 1A       		.byte	0x1a
 2965 1426 6E       		.byte	0x6e
 2966 1427 1B140000 		.4byte	0x141b
 2967 142b 02       		.uleb128 0x2
 2968 142c CF0C0000 		.4byte	.LASF311
 2969 1430 19       		.byte	0x19
 2970 1431 34       		.byte	0x34
 2971 1432 B5120000 		.4byte	0x12b5
 2972 1436 05       		.uleb128 0x5
 2973 1437 04       		.byte	0x4
 2974 1438 2B140000 		.4byte	0x142b
 2975 143c 27       		.uleb128 0x27
 2976 143d EA030000 		.4byte	.LASF326
 2977 1441 01       		.byte	0x1
 2978 1442 6A       		.byte	0x6a
 2979 1443 00000000 		.4byte	.LFB226
 2980 1447 20000000 		.4byte	.LFE226-.LFB226
 2981 144b 01       		.uleb128 0x1
 2982 144c 9C       		.byte	0x9c
 2983 144d 5B140000 		.4byte	0x145b
 2984 1451 28       		.uleb128 0x28
 2985 1452 1C000000 		.4byte	.LVL41
 2986 1456 FD160000 		.4byte	0x16fd
 2987 145a 00       		.byte	0
 2988 145b 29       		.uleb128 0x29
 2989 145c 41050000 		.4byte	.LASF312
 2990 1460 01       		.byte	0x1
 2991 1461 61       		.byte	0x61
 2992 1462 37000000 		.4byte	0x37
 2993 1466 00000000 		.4byte	.LFB225
 2994 146a 24000000 		.4byte	.LFE225-.LFB225
 2995 146e 01       		.uleb128 0x1
 2996 146f 9C       		.byte	0x9c
 2997 1470 99140000 		.4byte	0x1499
 2998 1474 2A       		.uleb128 0x2a
 2999 1475 7200     		.ascii	"r\000"
 3000 1477 01       		.byte	0x1
 3001 1478 61       		.byte	0x61
 3002 1479 DF040000 		.4byte	0x4df
 3003 147d 00000000 		.4byte	.LLST20
 3004 1481 2A       		.uleb128 0x2a
 3005 1482 666400   		.ascii	"fd\000"
 3006 1485 01       		.byte	0x1
 3007 1486 61       		.byte	0x61
 3008 1487 37000000 		.4byte	0x37
 3009 148b 3A000000 		.4byte	.LLST21
 3010 148f 28       		.uleb128 0x28
 3011 1490 1E000000 		.4byte	.LVL40
 3012 1494 FD160000 		.4byte	0x16fd
 3013 1498 00       		.byte	0
 3014 1499 29       		.uleb128 0x29
 3015 149a 000B0000 		.4byte	.LASF313
 3016 149e 01       		.byte	0x1
 3017 149f 57       		.byte	0x57
 3018 14a0 37000000 		.4byte	0x37
 3019 14a4 00000000 		.4byte	.LFB224
 3020 14a8 34000000 		.4byte	.LFE224-.LFB224
ARM GAS  /var/folders/d2/nstgp4h54kz7g1l847x_b8wc0000gn/T//ccEQVVt7.s 			page 54


 3021 14ac 01       		.uleb128 0x1
 3022 14ad 9C       		.byte	0x9c
 3023 14ae 06150000 		.4byte	0x1506
 3024 14b2 2A       		.uleb128 0x2a
 3025 14b3 7200     		.ascii	"r\000"
 3026 14b5 01       		.byte	0x1
 3027 14b6 57       		.byte	0x57
 3028 14b7 DF040000 		.4byte	0x4df
 3029 14bb 5B000000 		.4byte	.LLST17
 3030 14bf 2B       		.uleb128 0x2b
 3031 14c0 CE050000 		.4byte	.LASF314
 3032 14c4 01       		.byte	0x1
 3033 14c5 57       		.byte	0x57
 3034 14c6 37000000 		.4byte	0x37
 3035 14ca 7C000000 		.4byte	.LLST18
 3036 14ce 2A       		.uleb128 0x2a
 3037 14cf 737400   		.ascii	"st\000"
 3038 14d2 01       		.byte	0x1
 3039 14d3 57       		.byte	0x57
 3040 14d4 06150000 		.4byte	0x1506
 3041 14d8 9D000000 		.4byte	.LLST19
 3042 14dc 2C       		.uleb128 0x2c
 3043 14dd 16000000 		.4byte	.LVL35
 3044 14e1 06170000 		.4byte	0x1706
 3045 14e5 FC140000 		.4byte	0x14fc
 3046 14e9 2D       		.uleb128 0x2d
 3047 14ea 01       		.uleb128 0x1
 3048 14eb 50       		.byte	0x50
 3049 14ec 03       		.uleb128 0x3
 3050 14ed F3       		.byte	0xf3
 3051 14ee 01       		.uleb128 0x1
 3052 14ef 52       		.byte	0x52
 3053 14f0 2D       		.uleb128 0x2d
 3054 14f1 01       		.uleb128 0x1
 3055 14f2 51       		.byte	0x51
 3056 14f3 01       		.uleb128 0x1
 3057 14f4 30       		.byte	0x30
 3058 14f5 2D       		.uleb128 0x2d
 3059 14f6 01       		.uleb128 0x1
 3060 14f7 52       		.byte	0x52
 3061 14f8 02       		.uleb128 0x2
 3062 14f9 08       		.byte	0x8
 3063 14fa 58       		.byte	0x58
 3064 14fb 00       		.byte	0
 3065 14fc 28       		.uleb128 0x28
 3066 14fd 30000000 		.4byte	.LVL36
 3067 1501 FD160000 		.4byte	0x16fd
 3068 1505 00       		.byte	0
 3069 1506 05       		.uleb128 0x5
 3070 1507 04       		.byte	0x4
 3071 1508 650A0000 		.4byte	0xa65
 3072 150c 29       		.uleb128 0x29
 3073 150d 86040000 		.4byte	.LASF315
 3074 1511 01       		.byte	0x1
 3075 1512 43       		.byte	0x43
 3076 1513 DC090000 		.4byte	0x9dc
 3077 1517 00000000 		.4byte	.LFB223
ARM GAS  /var/folders/d2/nstgp4h54kz7g1l847x_b8wc0000gn/T//ccEQVVt7.s 			page 55


 3078 151b 40000000 		.4byte	.LFE223-.LFB223
 3079 151f 01       		.uleb128 0x1
 3080 1520 9C       		.byte	0x9c
 3081 1521 92150000 		.4byte	0x1592
 3082 1525 2A       		.uleb128 0x2a
 3083 1526 7200     		.ascii	"r\000"
 3084 1528 01       		.byte	0x1
 3085 1529 43       		.byte	0x43
 3086 152a DF040000 		.4byte	0x4df
 3087 152e C9000000 		.4byte	.LLST14
 3088 1532 2B       		.uleb128 0x2b
 3089 1533 02090000 		.4byte	.LASF316
 3090 1537 01       		.byte	0x1
 3091 1538 43       		.byte	0x43
 3092 1539 37000000 		.4byte	0x37
 3093 153d FD000000 		.4byte	.LLST15
 3094 1541 2E       		.uleb128 0x2e
 3095 1542 7000     		.ascii	"p\000"
 3096 1544 01       		.byte	0x1
 3097 1545 46       		.byte	0x46
 3098 1546 B5010000 		.4byte	0x1b5
 3099 154a 31010000 		.4byte	.LLST16
 3100 154e 2F       		.uleb128 0x2f
 3101 154f 09020000 		.4byte	.LASF327
 3102 1553 A2150000 		.4byte	0x15a2
 3103 1557 05       		.uleb128 0x5
 3104 1558 03       		.byte	0x3
 3105 1559 00000000 		.4byte	__func__.8929
 3106 155d 2C       		.uleb128 0x2c
 3107 155e 16000000 		.4byte	.LVL25
 3108 1562 15170000 		.4byte	0x1715
 3109 1566 71150000 		.4byte	0x1571
 3110 156a 2D       		.uleb128 0x2d
 3111 156b 01       		.uleb128 0x1
 3112 156c 50       		.byte	0x50
 3113 156d 02       		.uleb128 0x2
 3114 156e 75       		.byte	0x75
 3115 156f 00       		.sleb128 0
 3116 1570 00       		.byte	0
 3117 1571 2C       		.uleb128 0x2c
 3118 1572 32000000 		.4byte	.LVL29
 3119 1576 20170000 		.4byte	0x1720
 3120 157a 88150000 		.4byte	0x1588
 3121 157e 2D       		.uleb128 0x2d
 3122 157f 01       		.uleb128 0x1
 3123 1580 50       		.byte	0x50
 3124 1581 05       		.uleb128 0x5
 3125 1582 03       		.byte	0x3
 3126 1583 00000000 		.4byte	.LANCHOR0
 3127 1587 00       		.byte	0
 3128 1588 28       		.uleb128 0x28
 3129 1589 38000000 		.4byte	.LVL30
 3130 158d FD160000 		.4byte	0x16fd
 3131 1591 00       		.byte	0
 3132 1592 0A       		.uleb128 0xa
 3133 1593 CF010000 		.4byte	0x1cf
 3134 1597 A2150000 		.4byte	0x15a2
ARM GAS  /var/folders/d2/nstgp4h54kz7g1l847x_b8wc0000gn/T//ccEQVVt7.s 			page 56


 3135 159b 0B       		.uleb128 0xb
 3136 159c 30000000 		.4byte	0x30
 3137 15a0 07       		.byte	0x7
 3138 15a1 00       		.byte	0
 3139 15a2 0F       		.uleb128 0xf
 3140 15a3 92150000 		.4byte	0x1592
 3141 15a7 29       		.uleb128 0x29
 3142 15a8 6C070000 		.4byte	.LASF317
 3143 15ac 01       		.byte	0x1
 3144 15ad 3B       		.byte	0x3b
 3145 15ae 37000000 		.4byte	0x37
 3146 15b2 00000000 		.4byte	.LFB222
 3147 15b6 24000000 		.4byte	.LFE222-.LFB222
 3148 15ba 01       		.uleb128 0x1
 3149 15bb 9C       		.byte	0x9c
 3150 15bc E6150000 		.4byte	0x15e6
 3151 15c0 2A       		.uleb128 0x2a
 3152 15c1 7200     		.ascii	"r\000"
 3153 15c3 01       		.byte	0x1
 3154 15c4 3B       		.byte	0x3b
 3155 15c5 DF040000 		.4byte	0x4df
 3156 15c9 44010000 		.4byte	.LLST12
 3157 15cd 2B       		.uleb128 0x2b
 3158 15ce CE050000 		.4byte	.LASF314
 3159 15d2 01       		.byte	0x1
 3160 15d3 3B       		.byte	0x3b
 3161 15d4 37000000 		.4byte	0x37
 3162 15d8 7E010000 		.4byte	.LLST13
 3163 15dc 28       		.uleb128 0x28
 3164 15dd 1E000000 		.4byte	.LVL22
 3165 15e1 FD160000 		.4byte	0x16fd
 3166 15e5 00       		.byte	0
 3167 15e6 29       		.uleb128 0x29
 3168 15e7 CF080000 		.4byte	.LASF318
 3169 15eb 01       		.byte	0x1
 3170 15ec 2C       		.byte	0x2c
 3171 15ed 37000000 		.4byte	0x37
 3172 15f1 00000000 		.4byte	.LFB221
 3173 15f5 24000000 		.4byte	.LFE221-.LFB221
 3174 15f9 01       		.uleb128 0x1
 3175 15fa 9C       		.byte	0x9c
 3176 15fb 43160000 		.4byte	0x1643
 3177 15ff 2A       		.uleb128 0x2a
 3178 1600 7200     		.ascii	"r\000"
 3179 1602 01       		.byte	0x1
 3180 1603 2C       		.byte	0x2c
 3181 1604 DF040000 		.4byte	0x4df
 3182 1608 9F010000 		.4byte	.LLST8
 3183 160c 2B       		.uleb128 0x2b
 3184 160d CE050000 		.4byte	.LASF314
 3185 1611 01       		.byte	0x1
 3186 1612 2C       		.byte	0x2c
 3187 1613 37000000 		.4byte	0x37
 3188 1617 D9010000 		.4byte	.LLST9
 3189 161b 2A       		.uleb128 0x2a
 3190 161c 70747200 		.ascii	"ptr\000"
 3191 1620 01       		.byte	0x1
ARM GAS  /var/folders/d2/nstgp4h54kz7g1l847x_b8wc0000gn/T//ccEQVVt7.s 			page 57


 3192 1621 2C       		.byte	0x2c
 3193 1622 C2010000 		.4byte	0x1c2
 3194 1626 FA010000 		.4byte	.LLST10
 3195 162a 2A       		.uleb128 0x2a
 3196 162b 6C656E00 		.ascii	"len\000"
 3197 162f 01       		.byte	0x1
 3198 1630 2C       		.byte	0x2c
 3199 1631 37000000 		.4byte	0x37
 3200 1635 1B020000 		.4byte	.LLST11
 3201 1639 28       		.uleb128 0x28
 3202 163a 1E000000 		.4byte	.LVL18
 3203 163e FD160000 		.4byte	0x16fd
 3204 1642 00       		.byte	0
 3205 1643 29       		.uleb128 0x29
 3206 1644 B60C0000 		.4byte	.LASF319
 3207 1648 01       		.byte	0x1
 3208 1649 22       		.byte	0x22
 3209 164a 37000000 		.4byte	0x37
 3210 164e 00000000 		.4byte	.LFB220
 3211 1652 24000000 		.4byte	.LFE220-.LFB220
 3212 1656 01       		.uleb128 0x1
 3213 1657 9C       		.byte	0x9c
 3214 1658 A0160000 		.4byte	0x16a0
 3215 165c 2A       		.uleb128 0x2a
 3216 165d 7200     		.ascii	"r\000"
 3217 165f 01       		.byte	0x1
 3218 1660 22       		.byte	0x22
 3219 1661 DF040000 		.4byte	0x4df
 3220 1665 3C020000 		.4byte	.LLST4
 3221 1669 2B       		.uleb128 0x2b
 3222 166a CE050000 		.4byte	.LASF314
 3223 166e 01       		.byte	0x1
 3224 166f 22       		.byte	0x22
 3225 1670 37000000 		.4byte	0x37
 3226 1674 76020000 		.4byte	.LLST5
 3227 1678 2A       		.uleb128 0x2a
 3228 1679 70747200 		.ascii	"ptr\000"
 3229 167d 01       		.byte	0x1
 3230 167e 22       		.byte	0x22
 3231 167f 37000000 		.4byte	0x37
 3232 1683 97020000 		.4byte	.LLST6
 3233 1687 2A       		.uleb128 0x2a
 3234 1688 64697200 		.ascii	"dir\000"
 3235 168c 01       		.byte	0x1
 3236 168d 22       		.byte	0x22
 3237 168e 37000000 		.4byte	0x37
 3238 1692 B8020000 		.4byte	.LLST7
 3239 1696 28       		.uleb128 0x28
 3240 1697 1E000000 		.4byte	.LVL12
 3241 169b FD160000 		.4byte	0x16fd
 3242 169f 00       		.byte	0
 3243 16a0 29       		.uleb128 0x29
 3244 16a1 A70D0000 		.4byte	.LASF320
 3245 16a5 01       		.byte	0x1
 3246 16a6 0F       		.byte	0xf
 3247 16a7 37000000 		.4byte	0x37
 3248 16ab 00000000 		.4byte	.LFB219
ARM GAS  /var/folders/d2/nstgp4h54kz7g1l847x_b8wc0000gn/T//ccEQVVt7.s 			page 58


 3249 16af 28000000 		.4byte	.LFE219-.LFB219
 3250 16b3 01       		.uleb128 0x1
 3251 16b4 9C       		.byte	0x9c
 3252 16b5 FD160000 		.4byte	0x16fd
 3253 16b9 2A       		.uleb128 0x2a
 3254 16ba 7200     		.ascii	"r\000"
 3255 16bc 01       		.byte	0x1
 3256 16bd 0F       		.byte	0xf
 3257 16be DF040000 		.4byte	0x4df
 3258 16c2 D9020000 		.4byte	.LLST0
 3259 16c6 2B       		.uleb128 0x2b
 3260 16c7 CE050000 		.4byte	.LASF314
 3261 16cb 01       		.byte	0x1
 3262 16cc 0F       		.byte	0xf
 3263 16cd 37000000 		.4byte	0x37
 3264 16d1 13030000 		.4byte	.LLST1
 3265 16d5 2A       		.uleb128 0x2a
 3266 16d6 70747200 		.ascii	"ptr\000"
 3267 16da 01       		.byte	0x1
 3268 16db 0F       		.byte	0xf
 3269 16dc C2010000 		.4byte	0x1c2
 3270 16e0 34030000 		.4byte	.LLST2
 3271 16e4 2A       		.uleb128 0x2a
 3272 16e5 6C656E00 		.ascii	"len\000"
 3273 16e9 01       		.byte	0x1
 3274 16ea 0F       		.byte	0xf
 3275 16eb 37000000 		.4byte	0x37
 3276 16ef 55030000 		.4byte	.LLST3
 3277 16f3 28       		.uleb128 0x28
 3278 16f4 24000000 		.4byte	.LVL6
 3279 16f8 FD160000 		.4byte	0x16fd
 3280 16fc 00       		.byte	0
 3281 16fd 30       		.uleb128 0x30
 3282 16fe FB070000 		.4byte	.LASF328
 3283 1702 FB070000 		.4byte	.LASF328
 3284 1706 31       		.uleb128 0x31
 3285 1707 DD040000 		.4byte	.LASF329
 3286 170b 7D030000 		.4byte	.LASF330
 3287 170f 1D       		.byte	0x1d
 3288 1710 00       		.byte	0
 3289 1711 DD040000 		.4byte	.LASF329
 3290 1715 32       		.uleb128 0x32
 3291 1716 10060000 		.4byte	.LASF321
 3292 171a 10060000 		.4byte	.LASF321
 3293 171e 1B       		.byte	0x1b
 3294 171f 62       		.byte	0x62
 3295 1720 33       		.uleb128 0x33
 3296 1721 A50C0000 		.4byte	.LASF322
 3297 1725 A50C0000 		.4byte	.LASF322
 3298 1729 1C       		.byte	0x1c
 3299 172a 1601     		.2byte	0x116
 3300 172c 00       		.byte	0
 3301              		.section	.debug_abbrev,"",%progbits
 3302              	.Ldebug_abbrev0:
 3303 0000 01       		.uleb128 0x1
 3304 0001 11       		.uleb128 0x11
 3305 0002 01       		.byte	0x1
ARM GAS  /var/folders/d2/nstgp4h54kz7g1l847x_b8wc0000gn/T//ccEQVVt7.s 			page 59


 3306 0003 25       		.uleb128 0x25
 3307 0004 0E       		.uleb128 0xe
 3308 0005 13       		.uleb128 0x13
 3309 0006 0B       		.uleb128 0xb
 3310 0007 03       		.uleb128 0x3
 3311 0008 0E       		.uleb128 0xe
 3312 0009 1B       		.uleb128 0x1b
 3313 000a 0E       		.uleb128 0xe
 3314 000b 55       		.uleb128 0x55
 3315 000c 17       		.uleb128 0x17
 3316 000d 11       		.uleb128 0x11
 3317 000e 01       		.uleb128 0x1
 3318 000f 10       		.uleb128 0x10
 3319 0010 17       		.uleb128 0x17
 3320 0011 00       		.byte	0
 3321 0012 00       		.byte	0
 3322 0013 02       		.uleb128 0x2
 3323 0014 16       		.uleb128 0x16
 3324 0015 00       		.byte	0
 3325 0016 03       		.uleb128 0x3
 3326 0017 0E       		.uleb128 0xe
 3327 0018 3A       		.uleb128 0x3a
 3328 0019 0B       		.uleb128 0xb
 3329 001a 3B       		.uleb128 0x3b
 3330 001b 0B       		.uleb128 0xb
 3331 001c 49       		.uleb128 0x49
 3332 001d 13       		.uleb128 0x13
 3333 001e 00       		.byte	0
 3334 001f 00       		.byte	0
 3335 0020 03       		.uleb128 0x3
 3336 0021 24       		.uleb128 0x24
 3337 0022 00       		.byte	0
 3338 0023 0B       		.uleb128 0xb
 3339 0024 0B       		.uleb128 0xb
 3340 0025 3E       		.uleb128 0x3e
 3341 0026 0B       		.uleb128 0xb
 3342 0027 03       		.uleb128 0x3
 3343 0028 0E       		.uleb128 0xe
 3344 0029 00       		.byte	0
 3345 002a 00       		.byte	0
 3346 002b 04       		.uleb128 0x4
 3347 002c 24       		.uleb128 0x24
 3348 002d 00       		.byte	0
 3349 002e 0B       		.uleb128 0xb
 3350 002f 0B       		.uleb128 0xb
 3351 0030 3E       		.uleb128 0x3e
 3352 0031 0B       		.uleb128 0xb
 3353 0032 03       		.uleb128 0x3
 3354 0033 08       		.uleb128 0x8
 3355 0034 00       		.byte	0
 3356 0035 00       		.byte	0
 3357 0036 05       		.uleb128 0x5
 3358 0037 0F       		.uleb128 0xf
 3359 0038 00       		.byte	0
 3360 0039 0B       		.uleb128 0xb
 3361 003a 0B       		.uleb128 0xb
 3362 003b 49       		.uleb128 0x49
ARM GAS  /var/folders/d2/nstgp4h54kz7g1l847x_b8wc0000gn/T//ccEQVVt7.s 			page 60


 3363 003c 13       		.uleb128 0x13
 3364 003d 00       		.byte	0
 3365 003e 00       		.byte	0
 3366 003f 06       		.uleb128 0x6
 3367 0040 13       		.uleb128 0x13
 3368 0041 00       		.byte	0
 3369 0042 03       		.uleb128 0x3
 3370 0043 0E       		.uleb128 0xe
 3371 0044 3C       		.uleb128 0x3c
 3372 0045 19       		.uleb128 0x19
 3373 0046 00       		.byte	0
 3374 0047 00       		.byte	0
 3375 0048 07       		.uleb128 0x7
 3376 0049 16       		.uleb128 0x16
 3377 004a 00       		.byte	0
 3378 004b 03       		.uleb128 0x3
 3379 004c 0E       		.uleb128 0xe
 3380 004d 3A       		.uleb128 0x3a
 3381 004e 0B       		.uleb128 0xb
 3382 004f 3B       		.uleb128 0x3b
 3383 0050 05       		.uleb128 0x5
 3384 0051 49       		.uleb128 0x49
 3385 0052 13       		.uleb128 0x13
 3386 0053 00       		.byte	0
 3387 0054 00       		.byte	0
 3388 0055 08       		.uleb128 0x8
 3389 0056 17       		.uleb128 0x17
 3390 0057 01       		.byte	0x1
 3391 0058 0B       		.uleb128 0xb
 3392 0059 0B       		.uleb128 0xb
 3393 005a 3A       		.uleb128 0x3a
 3394 005b 0B       		.uleb128 0xb
 3395 005c 3B       		.uleb128 0x3b
 3396 005d 0B       		.uleb128 0xb
 3397 005e 01       		.uleb128 0x1
 3398 005f 13       		.uleb128 0x13
 3399 0060 00       		.byte	0
 3400 0061 00       		.byte	0
 3401 0062 09       		.uleb128 0x9
 3402 0063 0D       		.uleb128 0xd
 3403 0064 00       		.byte	0
 3404 0065 03       		.uleb128 0x3
 3405 0066 0E       		.uleb128 0xe
 3406 0067 3A       		.uleb128 0x3a
 3407 0068 0B       		.uleb128 0xb
 3408 0069 3B       		.uleb128 0x3b
 3409 006a 0B       		.uleb128 0xb
 3410 006b 49       		.uleb128 0x49
 3411 006c 13       		.uleb128 0x13
 3412 006d 00       		.byte	0
 3413 006e 00       		.byte	0
 3414 006f 0A       		.uleb128 0xa
 3415 0070 01       		.uleb128 0x1
 3416 0071 01       		.byte	0x1
 3417 0072 49       		.uleb128 0x49
 3418 0073 13       		.uleb128 0x13
 3419 0074 01       		.uleb128 0x1
ARM GAS  /var/folders/d2/nstgp4h54kz7g1l847x_b8wc0000gn/T//ccEQVVt7.s 			page 61


 3420 0075 13       		.uleb128 0x13
 3421 0076 00       		.byte	0
 3422 0077 00       		.byte	0
 3423 0078 0B       		.uleb128 0xb
 3424 0079 21       		.uleb128 0x21
 3425 007a 00       		.byte	0
 3426 007b 49       		.uleb128 0x49
 3427 007c 13       		.uleb128 0x13
 3428 007d 2F       		.uleb128 0x2f
 3429 007e 0B       		.uleb128 0xb
 3430 007f 00       		.byte	0
 3431 0080 00       		.byte	0
 3432 0081 0C       		.uleb128 0xc
 3433 0082 13       		.uleb128 0x13
 3434 0083 01       		.byte	0x1
 3435 0084 0B       		.uleb128 0xb
 3436 0085 0B       		.uleb128 0xb
 3437 0086 3A       		.uleb128 0x3a
 3438 0087 0B       		.uleb128 0xb
 3439 0088 3B       		.uleb128 0x3b
 3440 0089 0B       		.uleb128 0xb
 3441 008a 01       		.uleb128 0x1
 3442 008b 13       		.uleb128 0x13
 3443 008c 00       		.byte	0
 3444 008d 00       		.byte	0
 3445 008e 0D       		.uleb128 0xd
 3446 008f 0D       		.uleb128 0xd
 3447 0090 00       		.byte	0
 3448 0091 03       		.uleb128 0x3
 3449 0092 0E       		.uleb128 0xe
 3450 0093 3A       		.uleb128 0x3a
 3451 0094 0B       		.uleb128 0xb
 3452 0095 3B       		.uleb128 0x3b
 3453 0096 0B       		.uleb128 0xb
 3454 0097 49       		.uleb128 0x49
 3455 0098 13       		.uleb128 0x13
 3456 0099 38       		.uleb128 0x38
 3457 009a 0B       		.uleb128 0xb
 3458 009b 00       		.byte	0
 3459 009c 00       		.byte	0
 3460 009d 0E       		.uleb128 0xe
 3461 009e 0F       		.uleb128 0xf
 3462 009f 00       		.byte	0
 3463 00a0 0B       		.uleb128 0xb
 3464 00a1 0B       		.uleb128 0xb
 3465 00a2 00       		.byte	0
 3466 00a3 00       		.byte	0
 3467 00a4 0F       		.uleb128 0xf
 3468 00a5 26       		.uleb128 0x26
 3469 00a6 00       		.byte	0
 3470 00a7 49       		.uleb128 0x49
 3471 00a8 13       		.uleb128 0x13
 3472 00a9 00       		.byte	0
 3473 00aa 00       		.byte	0
 3474 00ab 10       		.uleb128 0x10
 3475 00ac 13       		.uleb128 0x13
 3476 00ad 01       		.byte	0x1
ARM GAS  /var/folders/d2/nstgp4h54kz7g1l847x_b8wc0000gn/T//ccEQVVt7.s 			page 62


 3477 00ae 03       		.uleb128 0x3
 3478 00af 0E       		.uleb128 0xe
 3479 00b0 0B       		.uleb128 0xb
 3480 00b1 0B       		.uleb128 0xb
 3481 00b2 3A       		.uleb128 0x3a
 3482 00b3 0B       		.uleb128 0xb
 3483 00b4 3B       		.uleb128 0x3b
 3484 00b5 0B       		.uleb128 0xb
 3485 00b6 01       		.uleb128 0x1
 3486 00b7 13       		.uleb128 0x13
 3487 00b8 00       		.byte	0
 3488 00b9 00       		.byte	0
 3489 00ba 11       		.uleb128 0x11
 3490 00bb 0D       		.uleb128 0xd
 3491 00bc 00       		.byte	0
 3492 00bd 03       		.uleb128 0x3
 3493 00be 08       		.uleb128 0x8
 3494 00bf 3A       		.uleb128 0x3a
 3495 00c0 0B       		.uleb128 0xb
 3496 00c1 3B       		.uleb128 0x3b
 3497 00c2 0B       		.uleb128 0xb
 3498 00c3 49       		.uleb128 0x49
 3499 00c4 13       		.uleb128 0x13
 3500 00c5 38       		.uleb128 0x38
 3501 00c6 0B       		.uleb128 0xb
 3502 00c7 00       		.byte	0
 3503 00c8 00       		.byte	0
 3504 00c9 12       		.uleb128 0x12
 3505 00ca 13       		.uleb128 0x13
 3506 00cb 01       		.byte	0x1
 3507 00cc 03       		.uleb128 0x3
 3508 00cd 0E       		.uleb128 0xe
 3509 00ce 0B       		.uleb128 0xb
 3510 00cf 05       		.uleb128 0x5
 3511 00d0 3A       		.uleb128 0x3a
 3512 00d1 0B       		.uleb128 0xb
 3513 00d2 3B       		.uleb128 0x3b
 3514 00d3 0B       		.uleb128 0xb
 3515 00d4 01       		.uleb128 0x1
 3516 00d5 13       		.uleb128 0x13
 3517 00d6 00       		.byte	0
 3518 00d7 00       		.byte	0
 3519 00d8 13       		.uleb128 0x13
 3520 00d9 0D       		.uleb128 0xd
 3521 00da 00       		.byte	0
 3522 00db 03       		.uleb128 0x3
 3523 00dc 0E       		.uleb128 0xe
 3524 00dd 3A       		.uleb128 0x3a
 3525 00de 0B       		.uleb128 0xb
 3526 00df 3B       		.uleb128 0x3b
 3527 00e0 0B       		.uleb128 0xb
 3528 00e1 49       		.uleb128 0x49
 3529 00e2 13       		.uleb128 0x13
 3530 00e3 38       		.uleb128 0x38
 3531 00e4 05       		.uleb128 0x5
 3532 00e5 00       		.byte	0
 3533 00e6 00       		.byte	0
ARM GAS  /var/folders/d2/nstgp4h54kz7g1l847x_b8wc0000gn/T//ccEQVVt7.s 			page 63


 3534 00e7 14       		.uleb128 0x14
 3535 00e8 15       		.uleb128 0x15
 3536 00e9 00       		.byte	0
 3537 00ea 27       		.uleb128 0x27
 3538 00eb 19       		.uleb128 0x19
 3539 00ec 00       		.byte	0
 3540 00ed 00       		.byte	0
 3541 00ee 15       		.uleb128 0x15
 3542 00ef 15       		.uleb128 0x15
 3543 00f0 01       		.byte	0x1
 3544 00f1 27       		.uleb128 0x27
 3545 00f2 19       		.uleb128 0x19
 3546 00f3 49       		.uleb128 0x49
 3547 00f4 13       		.uleb128 0x13
 3548 00f5 01       		.uleb128 0x1
 3549 00f6 13       		.uleb128 0x13
 3550 00f7 00       		.byte	0
 3551 00f8 00       		.byte	0
 3552 00f9 16       		.uleb128 0x16
 3553 00fa 05       		.uleb128 0x5
 3554 00fb 00       		.byte	0
 3555 00fc 49       		.uleb128 0x49
 3556 00fd 13       		.uleb128 0x13
 3557 00fe 00       		.byte	0
 3558 00ff 00       		.byte	0
 3559 0100 17       		.uleb128 0x17
 3560 0101 13       		.uleb128 0x13
 3561 0102 01       		.byte	0x1
 3562 0103 03       		.uleb128 0x3
 3563 0104 0E       		.uleb128 0xe
 3564 0105 0B       		.uleb128 0xb
 3565 0106 05       		.uleb128 0x5
 3566 0107 3A       		.uleb128 0x3a
 3567 0108 0B       		.uleb128 0xb
 3568 0109 3B       		.uleb128 0x3b
 3569 010a 05       		.uleb128 0x5
 3570 010b 01       		.uleb128 0x1
 3571 010c 13       		.uleb128 0x13
 3572 010d 00       		.byte	0
 3573 010e 00       		.byte	0
 3574 010f 18       		.uleb128 0x18
 3575 0110 0D       		.uleb128 0xd
 3576 0111 00       		.byte	0
 3577 0112 03       		.uleb128 0x3
 3578 0113 0E       		.uleb128 0xe
 3579 0114 3A       		.uleb128 0x3a
 3580 0115 0B       		.uleb128 0xb
 3581 0116 3B       		.uleb128 0x3b
 3582 0117 05       		.uleb128 0x5
 3583 0118 49       		.uleb128 0x49
 3584 0119 13       		.uleb128 0x13
 3585 011a 38       		.uleb128 0x38
 3586 011b 0B       		.uleb128 0xb
 3587 011c 00       		.byte	0
 3588 011d 00       		.byte	0
 3589 011e 19       		.uleb128 0x19
 3590 011f 0D       		.uleb128 0xd
ARM GAS  /var/folders/d2/nstgp4h54kz7g1l847x_b8wc0000gn/T//ccEQVVt7.s 			page 64


 3591 0120 00       		.byte	0
 3592 0121 03       		.uleb128 0x3
 3593 0122 0E       		.uleb128 0xe
 3594 0123 3A       		.uleb128 0x3a
 3595 0124 0B       		.uleb128 0xb
 3596 0125 3B       		.uleb128 0x3b
 3597 0126 05       		.uleb128 0x5
 3598 0127 49       		.uleb128 0x49
 3599 0128 13       		.uleb128 0x13
 3600 0129 38       		.uleb128 0x38
 3601 012a 05       		.uleb128 0x5
 3602 012b 00       		.byte	0
 3603 012c 00       		.byte	0
 3604 012d 1A       		.uleb128 0x1a
 3605 012e 35       		.uleb128 0x35
 3606 012f 00       		.byte	0
 3607 0130 49       		.uleb128 0x49
 3608 0131 13       		.uleb128 0x13
 3609 0132 00       		.byte	0
 3610 0133 00       		.byte	0
 3611 0134 1B       		.uleb128 0x1b
 3612 0135 13       		.uleb128 0x13
 3613 0136 01       		.byte	0x1
 3614 0137 03       		.uleb128 0x3
 3615 0138 0E       		.uleb128 0xe
 3616 0139 0B       		.uleb128 0xb
 3617 013a 0B       		.uleb128 0xb
 3618 013b 3A       		.uleb128 0x3a
 3619 013c 0B       		.uleb128 0xb
 3620 013d 3B       		.uleb128 0x3b
 3621 013e 05       		.uleb128 0x5
 3622 013f 01       		.uleb128 0x1
 3623 0140 13       		.uleb128 0x13
 3624 0141 00       		.byte	0
 3625 0142 00       		.byte	0
 3626 0143 1C       		.uleb128 0x1c
 3627 0144 13       		.uleb128 0x13
 3628 0145 01       		.byte	0x1
 3629 0146 0B       		.uleb128 0xb
 3630 0147 0B       		.uleb128 0xb
 3631 0148 3A       		.uleb128 0x3a
 3632 0149 0B       		.uleb128 0xb
 3633 014a 3B       		.uleb128 0x3b
 3634 014b 05       		.uleb128 0x5
 3635 014c 01       		.uleb128 0x1
 3636 014d 13       		.uleb128 0x13
 3637 014e 00       		.byte	0
 3638 014f 00       		.byte	0
 3639 0150 1D       		.uleb128 0x1d
 3640 0151 17       		.uleb128 0x17
 3641 0152 01       		.byte	0x1
 3642 0153 0B       		.uleb128 0xb
 3643 0154 0B       		.uleb128 0xb
 3644 0155 3A       		.uleb128 0x3a
 3645 0156 0B       		.uleb128 0xb
 3646 0157 3B       		.uleb128 0x3b
 3647 0158 05       		.uleb128 0x5
ARM GAS  /var/folders/d2/nstgp4h54kz7g1l847x_b8wc0000gn/T//ccEQVVt7.s 			page 65


 3648 0159 01       		.uleb128 0x1
 3649 015a 13       		.uleb128 0x13
 3650 015b 00       		.byte	0
 3651 015c 00       		.byte	0
 3652 015d 1E       		.uleb128 0x1e
 3653 015e 0D       		.uleb128 0xd
 3654 015f 00       		.byte	0
 3655 0160 03       		.uleb128 0x3
 3656 0161 0E       		.uleb128 0xe
 3657 0162 3A       		.uleb128 0x3a
 3658 0163 0B       		.uleb128 0xb
 3659 0164 3B       		.uleb128 0x3b
 3660 0165 05       		.uleb128 0x5
 3661 0166 49       		.uleb128 0x49
 3662 0167 13       		.uleb128 0x13
 3663 0168 00       		.byte	0
 3664 0169 00       		.byte	0
 3665 016a 1F       		.uleb128 0x1f
 3666 016b 15       		.uleb128 0x15
 3667 016c 01       		.byte	0x1
 3668 016d 27       		.uleb128 0x27
 3669 016e 19       		.uleb128 0x19
 3670 016f 01       		.uleb128 0x1
 3671 0170 13       		.uleb128 0x13
 3672 0171 00       		.byte	0
 3673 0172 00       		.byte	0
 3674 0173 20       		.uleb128 0x20
 3675 0174 34       		.uleb128 0x34
 3676 0175 00       		.byte	0
 3677 0176 03       		.uleb128 0x3
 3678 0177 0E       		.uleb128 0xe
 3679 0178 3A       		.uleb128 0x3a
 3680 0179 0B       		.uleb128 0xb
 3681 017a 3B       		.uleb128 0x3b
 3682 017b 05       		.uleb128 0x5
 3683 017c 49       		.uleb128 0x49
 3684 017d 13       		.uleb128 0x13
 3685 017e 3F       		.uleb128 0x3f
 3686 017f 19       		.uleb128 0x19
 3687 0180 3C       		.uleb128 0x3c
 3688 0181 19       		.uleb128 0x19
 3689 0182 00       		.byte	0
 3690 0183 00       		.byte	0
 3691 0184 21       		.uleb128 0x21
 3692 0185 34       		.uleb128 0x34
 3693 0186 00       		.byte	0
 3694 0187 03       		.uleb128 0x3
 3695 0188 0E       		.uleb128 0xe
 3696 0189 3A       		.uleb128 0x3a
 3697 018a 0B       		.uleb128 0xb
 3698 018b 3B       		.uleb128 0x3b
 3699 018c 0B       		.uleb128 0xb
 3700 018d 49       		.uleb128 0x49
 3701 018e 13       		.uleb128 0x13
 3702 018f 3F       		.uleb128 0x3f
 3703 0190 19       		.uleb128 0x19
 3704 0191 3C       		.uleb128 0x3c
ARM GAS  /var/folders/d2/nstgp4h54kz7g1l847x_b8wc0000gn/T//ccEQVVt7.s 			page 66


 3705 0192 19       		.uleb128 0x19
 3706 0193 00       		.byte	0
 3707 0194 00       		.byte	0
 3708 0195 22       		.uleb128 0x22
 3709 0196 21       		.uleb128 0x21
 3710 0197 00       		.byte	0
 3711 0198 00       		.byte	0
 3712 0199 00       		.byte	0
 3713 019a 23       		.uleb128 0x23
 3714 019b 0D       		.uleb128 0xd
 3715 019c 00       		.byte	0
 3716 019d 03       		.uleb128 0x3
 3717 019e 08       		.uleb128 0x8
 3718 019f 3A       		.uleb128 0x3a
 3719 01a0 0B       		.uleb128 0xb
 3720 01a1 3B       		.uleb128 0x3b
 3721 01a2 05       		.uleb128 0x5
 3722 01a3 49       		.uleb128 0x49
 3723 01a4 13       		.uleb128 0x13
 3724 01a5 38       		.uleb128 0x38
 3725 01a6 0B       		.uleb128 0xb
 3726 01a7 00       		.byte	0
 3727 01a8 00       		.byte	0
 3728 01a9 24       		.uleb128 0x24
 3729 01aa 0D       		.uleb128 0xd
 3730 01ab 00       		.byte	0
 3731 01ac 03       		.uleb128 0x3
 3732 01ad 08       		.uleb128 0x8
 3733 01ae 3A       		.uleb128 0x3a
 3734 01af 0B       		.uleb128 0xb
 3735 01b0 3B       		.uleb128 0x3b
 3736 01b1 05       		.uleb128 0x5
 3737 01b2 49       		.uleb128 0x49
 3738 01b3 13       		.uleb128 0x13
 3739 01b4 38       		.uleb128 0x38
 3740 01b5 05       		.uleb128 0x5
 3741 01b6 00       		.byte	0
 3742 01b7 00       		.byte	0
 3743 01b8 25       		.uleb128 0x25
 3744 01b9 13       		.uleb128 0x13
 3745 01ba 01       		.byte	0x1
 3746 01bb 0B       		.uleb128 0xb
 3747 01bc 05       		.uleb128 0x5
 3748 01bd 3A       		.uleb128 0x3a
 3749 01be 0B       		.uleb128 0xb
 3750 01bf 3B       		.uleb128 0x3b
 3751 01c0 0B       		.uleb128 0xb
 3752 01c1 01       		.uleb128 0x1
 3753 01c2 13       		.uleb128 0x13
 3754 01c3 00       		.byte	0
 3755 01c4 00       		.byte	0
 3756 01c5 26       		.uleb128 0x26
 3757 01c6 34       		.uleb128 0x34
 3758 01c7 00       		.byte	0
 3759 01c8 03       		.uleb128 0x3
 3760 01c9 08       		.uleb128 0x8
 3761 01ca 3A       		.uleb128 0x3a
ARM GAS  /var/folders/d2/nstgp4h54kz7g1l847x_b8wc0000gn/T//ccEQVVt7.s 			page 67


 3762 01cb 0B       		.uleb128 0xb
 3763 01cc 3B       		.uleb128 0x3b
 3764 01cd 05       		.uleb128 0x5
 3765 01ce 49       		.uleb128 0x49
 3766 01cf 13       		.uleb128 0x13
 3767 01d0 3F       		.uleb128 0x3f
 3768 01d1 19       		.uleb128 0x19
 3769 01d2 3C       		.uleb128 0x3c
 3770 01d3 19       		.uleb128 0x19
 3771 01d4 00       		.byte	0
 3772 01d5 00       		.byte	0
 3773 01d6 27       		.uleb128 0x27
 3774 01d7 2E       		.uleb128 0x2e
 3775 01d8 01       		.byte	0x1
 3776 01d9 3F       		.uleb128 0x3f
 3777 01da 19       		.uleb128 0x19
 3778 01db 03       		.uleb128 0x3
 3779 01dc 0E       		.uleb128 0xe
 3780 01dd 3A       		.uleb128 0x3a
 3781 01de 0B       		.uleb128 0xb
 3782 01df 3B       		.uleb128 0x3b
 3783 01e0 0B       		.uleb128 0xb
 3784 01e1 27       		.uleb128 0x27
 3785 01e2 19       		.uleb128 0x19
 3786 01e3 11       		.uleb128 0x11
 3787 01e4 01       		.uleb128 0x1
 3788 01e5 12       		.uleb128 0x12
 3789 01e6 06       		.uleb128 0x6
 3790 01e7 40       		.uleb128 0x40
 3791 01e8 18       		.uleb128 0x18
 3792 01e9 9742     		.uleb128 0x2117
 3793 01eb 19       		.uleb128 0x19
 3794 01ec 01       		.uleb128 0x1
 3795 01ed 13       		.uleb128 0x13
 3796 01ee 00       		.byte	0
 3797 01ef 00       		.byte	0
 3798 01f0 28       		.uleb128 0x28
 3799 01f1 898201   		.uleb128 0x4109
 3800 01f4 00       		.byte	0
 3801 01f5 11       		.uleb128 0x11
 3802 01f6 01       		.uleb128 0x1
 3803 01f7 31       		.uleb128 0x31
 3804 01f8 13       		.uleb128 0x13
 3805 01f9 00       		.byte	0
 3806 01fa 00       		.byte	0
 3807 01fb 29       		.uleb128 0x29
 3808 01fc 2E       		.uleb128 0x2e
 3809 01fd 01       		.byte	0x1
 3810 01fe 3F       		.uleb128 0x3f
 3811 01ff 19       		.uleb128 0x19
 3812 0200 03       		.uleb128 0x3
 3813 0201 0E       		.uleb128 0xe
 3814 0202 3A       		.uleb128 0x3a
 3815 0203 0B       		.uleb128 0xb
 3816 0204 3B       		.uleb128 0x3b
 3817 0205 0B       		.uleb128 0xb
 3818 0206 27       		.uleb128 0x27
ARM GAS  /var/folders/d2/nstgp4h54kz7g1l847x_b8wc0000gn/T//ccEQVVt7.s 			page 68


 3819 0207 19       		.uleb128 0x19
 3820 0208 49       		.uleb128 0x49
 3821 0209 13       		.uleb128 0x13
 3822 020a 11       		.uleb128 0x11
 3823 020b 01       		.uleb128 0x1
 3824 020c 12       		.uleb128 0x12
 3825 020d 06       		.uleb128 0x6
 3826 020e 40       		.uleb128 0x40
 3827 020f 18       		.uleb128 0x18
 3828 0210 9742     		.uleb128 0x2117
 3829 0212 19       		.uleb128 0x19
 3830 0213 01       		.uleb128 0x1
 3831 0214 13       		.uleb128 0x13
 3832 0215 00       		.byte	0
 3833 0216 00       		.byte	0
 3834 0217 2A       		.uleb128 0x2a
 3835 0218 05       		.uleb128 0x5
 3836 0219 00       		.byte	0
 3837 021a 03       		.uleb128 0x3
 3838 021b 08       		.uleb128 0x8
 3839 021c 3A       		.uleb128 0x3a
 3840 021d 0B       		.uleb128 0xb
 3841 021e 3B       		.uleb128 0x3b
 3842 021f 0B       		.uleb128 0xb
 3843 0220 49       		.uleb128 0x49
 3844 0221 13       		.uleb128 0x13
 3845 0222 02       		.uleb128 0x2
 3846 0223 17       		.uleb128 0x17
 3847 0224 00       		.byte	0
 3848 0225 00       		.byte	0
 3849 0226 2B       		.uleb128 0x2b
 3850 0227 05       		.uleb128 0x5
 3851 0228 00       		.byte	0
 3852 0229 03       		.uleb128 0x3
 3853 022a 0E       		.uleb128 0xe
 3854 022b 3A       		.uleb128 0x3a
 3855 022c 0B       		.uleb128 0xb
 3856 022d 3B       		.uleb128 0x3b
 3857 022e 0B       		.uleb128 0xb
 3858 022f 49       		.uleb128 0x49
 3859 0230 13       		.uleb128 0x13
 3860 0231 02       		.uleb128 0x2
 3861 0232 17       		.uleb128 0x17
 3862 0233 00       		.byte	0
 3863 0234 00       		.byte	0
 3864 0235 2C       		.uleb128 0x2c
 3865 0236 898201   		.uleb128 0x4109
 3866 0239 01       		.byte	0x1
 3867 023a 11       		.uleb128 0x11
 3868 023b 01       		.uleb128 0x1
 3869 023c 31       		.uleb128 0x31
 3870 023d 13       		.uleb128 0x13
 3871 023e 01       		.uleb128 0x1
 3872 023f 13       		.uleb128 0x13
 3873 0240 00       		.byte	0
 3874 0241 00       		.byte	0
 3875 0242 2D       		.uleb128 0x2d
ARM GAS  /var/folders/d2/nstgp4h54kz7g1l847x_b8wc0000gn/T//ccEQVVt7.s 			page 69


 3876 0243 8A8201   		.uleb128 0x410a
 3877 0246 00       		.byte	0
 3878 0247 02       		.uleb128 0x2
 3879 0248 18       		.uleb128 0x18
 3880 0249 9142     		.uleb128 0x2111
 3881 024b 18       		.uleb128 0x18
 3882 024c 00       		.byte	0
 3883 024d 00       		.byte	0
 3884 024e 2E       		.uleb128 0x2e
 3885 024f 34       		.uleb128 0x34
 3886 0250 00       		.byte	0
 3887 0251 03       		.uleb128 0x3
 3888 0252 08       		.uleb128 0x8
 3889 0253 3A       		.uleb128 0x3a
 3890 0254 0B       		.uleb128 0xb
 3891 0255 3B       		.uleb128 0x3b
 3892 0256 0B       		.uleb128 0xb
 3893 0257 49       		.uleb128 0x49
 3894 0258 13       		.uleb128 0x13
 3895 0259 02       		.uleb128 0x2
 3896 025a 17       		.uleb128 0x17
 3897 025b 00       		.byte	0
 3898 025c 00       		.byte	0
 3899 025d 2F       		.uleb128 0x2f
 3900 025e 34       		.uleb128 0x34
 3901 025f 00       		.byte	0
 3902 0260 03       		.uleb128 0x3
 3903 0261 0E       		.uleb128 0xe
 3904 0262 49       		.uleb128 0x49
 3905 0263 13       		.uleb128 0x13
 3906 0264 34       		.uleb128 0x34
 3907 0265 19       		.uleb128 0x19
 3908 0266 02       		.uleb128 0x2
 3909 0267 18       		.uleb128 0x18
 3910 0268 00       		.byte	0
 3911 0269 00       		.byte	0
 3912 026a 30       		.uleb128 0x30
 3913 026b 2E       		.uleb128 0x2e
 3914 026c 00       		.byte	0
 3915 026d 3F       		.uleb128 0x3f
 3916 026e 19       		.uleb128 0x19
 3917 026f 3C       		.uleb128 0x3c
 3918 0270 19       		.uleb128 0x19
 3919 0271 6E       		.uleb128 0x6e
 3920 0272 0E       		.uleb128 0xe
 3921 0273 03       		.uleb128 0x3
 3922 0274 0E       		.uleb128 0xe
 3923 0275 00       		.byte	0
 3924 0276 00       		.byte	0
 3925 0277 31       		.uleb128 0x31
 3926 0278 2E       		.uleb128 0x2e
 3927 0279 00       		.byte	0
 3928 027a 3F       		.uleb128 0x3f
 3929 027b 19       		.uleb128 0x19
 3930 027c 3C       		.uleb128 0x3c
 3931 027d 19       		.uleb128 0x19
 3932 027e 6E       		.uleb128 0x6e
ARM GAS  /var/folders/d2/nstgp4h54kz7g1l847x_b8wc0000gn/T//ccEQVVt7.s 			page 70


 3933 027f 0E       		.uleb128 0xe
 3934 0280 03       		.uleb128 0x3
 3935 0281 0E       		.uleb128 0xe
 3936 0282 3A       		.uleb128 0x3a
 3937 0283 0B       		.uleb128 0xb
 3938 0284 3B       		.uleb128 0x3b
 3939 0285 0B       		.uleb128 0xb
 3940 0286 6E       		.uleb128 0x6e
 3941 0287 0E       		.uleb128 0xe
 3942 0288 00       		.byte	0
 3943 0289 00       		.byte	0
 3944 028a 32       		.uleb128 0x32
 3945 028b 2E       		.uleb128 0x2e
 3946 028c 00       		.byte	0
 3947 028d 3F       		.uleb128 0x3f
 3948 028e 19       		.uleb128 0x19
 3949 028f 3C       		.uleb128 0x3c
 3950 0290 19       		.uleb128 0x19
 3951 0291 6E       		.uleb128 0x6e
 3952 0292 0E       		.uleb128 0xe
 3953 0293 03       		.uleb128 0x3
 3954 0294 0E       		.uleb128 0xe
 3955 0295 3A       		.uleb128 0x3a
 3956 0296 0B       		.uleb128 0xb
 3957 0297 3B       		.uleb128 0x3b
 3958 0298 0B       		.uleb128 0xb
 3959 0299 00       		.byte	0
 3960 029a 00       		.byte	0
 3961 029b 33       		.uleb128 0x33
 3962 029c 2E       		.uleb128 0x2e
 3963 029d 00       		.byte	0
 3964 029e 3F       		.uleb128 0x3f
 3965 029f 19       		.uleb128 0x19
 3966 02a0 3C       		.uleb128 0x3c
 3967 02a1 19       		.uleb128 0x19
 3968 02a2 6E       		.uleb128 0x6e
 3969 02a3 0E       		.uleb128 0xe
 3970 02a4 03       		.uleb128 0x3
 3971 02a5 0E       		.uleb128 0xe
 3972 02a6 3A       		.uleb128 0x3a
 3973 02a7 0B       		.uleb128 0xb
 3974 02a8 3B       		.uleb128 0x3b
 3975 02a9 05       		.uleb128 0x5
 3976 02aa 00       		.byte	0
 3977 02ab 00       		.byte	0
 3978 02ac 00       		.byte	0
 3979              		.section	.debug_loc,"",%progbits
 3980              	.Ldebug_loc0:
 3981              	.LLST20:
 3982 0000 00000000 		.4byte	.LVL37
 3983 0004 14000000 		.4byte	.LVL38
 3984 0008 0100     		.2byte	0x1
 3985 000a 50       		.byte	0x50
 3986 000b 14000000 		.4byte	.LVL38
 3987 000f 1A000000 		.4byte	.LVL39
 3988 0013 0400     		.2byte	0x4
 3989 0015 F3       		.byte	0xf3
ARM GAS  /var/folders/d2/nstgp4h54kz7g1l847x_b8wc0000gn/T//ccEQVVt7.s 			page 71


 3990 0016 01       		.uleb128 0x1
 3991 0017 50       		.byte	0x50
 3992 0018 9F       		.byte	0x9f
 3993 0019 1A000000 		.4byte	.LVL39
 3994 001d 1D000000 		.4byte	.LVL40-1
 3995 0021 0100     		.2byte	0x1
 3996 0023 50       		.byte	0x50
 3997 0024 1D000000 		.4byte	.LVL40-1
 3998 0028 24000000 		.4byte	.LFE225
 3999 002c 0400     		.2byte	0x4
 4000 002e F3       		.byte	0xf3
 4001 002f 01       		.uleb128 0x1
 4002 0030 50       		.byte	0x50
 4003 0031 9F       		.byte	0x9f
 4004 0032 00000000 		.4byte	0
 4005 0036 00000000 		.4byte	0
 4006              	.LLST21:
 4007 003a 00000000 		.4byte	.LVL37
 4008 003e 1D000000 		.4byte	.LVL40-1
 4009 0042 0100     		.2byte	0x1
 4010 0044 51       		.byte	0x51
 4011 0045 1D000000 		.4byte	.LVL40-1
 4012 0049 24000000 		.4byte	.LFE225
 4013 004d 0400     		.2byte	0x4
 4014 004f F3       		.byte	0xf3
 4015 0050 01       		.uleb128 0x1
 4016 0051 51       		.byte	0x51
 4017 0052 9F       		.byte	0x9f
 4018 0053 00000000 		.4byte	0
 4019 0057 00000000 		.4byte	0
 4020              	.LLST17:
 4021 005b 00000000 		.4byte	.LVL31
 4022 005f 0E000000 		.4byte	.LVL33
 4023 0063 0100     		.2byte	0x1
 4024 0065 50       		.byte	0x50
 4025 0066 0E000000 		.4byte	.LVL33
 4026 006a 34000000 		.4byte	.LFE224
 4027 006e 0400     		.2byte	0x4
 4028 0070 F3       		.byte	0xf3
 4029 0071 01       		.uleb128 0x1
 4030 0072 50       		.byte	0x50
 4031 0073 9F       		.byte	0x9f
 4032 0074 00000000 		.4byte	0
 4033 0078 00000000 		.4byte	0
 4034              	.LLST18:
 4035 007c 00000000 		.4byte	.LVL31
 4036 0080 12000000 		.4byte	.LVL34
 4037 0084 0100     		.2byte	0x1
 4038 0086 51       		.byte	0x51
 4039 0087 12000000 		.4byte	.LVL34
 4040 008b 34000000 		.4byte	.LFE224
 4041 008f 0400     		.2byte	0x4
 4042 0091 F3       		.byte	0xf3
 4043 0092 01       		.uleb128 0x1
 4044 0093 51       		.byte	0x51
 4045 0094 9F       		.byte	0x9f
 4046 0095 00000000 		.4byte	0
ARM GAS  /var/folders/d2/nstgp4h54kz7g1l847x_b8wc0000gn/T//ccEQVVt7.s 			page 72


 4047 0099 00000000 		.4byte	0
 4048              	.LLST19:
 4049 009d 00000000 		.4byte	.LVL31
 4050 00a1 0A000000 		.4byte	.LVL32
 4051 00a5 0100     		.2byte	0x1
 4052 00a7 52       		.byte	0x52
 4053 00a8 0A000000 		.4byte	.LVL32
 4054 00ac 15000000 		.4byte	.LVL35-1
 4055 00b0 0100     		.2byte	0x1
 4056 00b2 53       		.byte	0x53
 4057 00b3 15000000 		.4byte	.LVL35-1
 4058 00b7 34000000 		.4byte	.LFE224
 4059 00bb 0400     		.2byte	0x4
 4060 00bd F3       		.byte	0xf3
 4061 00be 01       		.uleb128 0x1
 4062 00bf 52       		.byte	0x52
 4063 00c0 9F       		.byte	0x9f
 4064 00c1 00000000 		.4byte	0
 4065 00c5 00000000 		.4byte	0
 4066              	.LLST14:
 4067 00c9 00000000 		.4byte	.LVL23
 4068 00cd 10000000 		.4byte	.LVL24
 4069 00d1 0100     		.2byte	0x1
 4070 00d3 50       		.byte	0x50
 4071 00d4 10000000 		.4byte	.LVL24
 4072 00d8 2C000000 		.4byte	.LVL27
 4073 00dc 0100     		.2byte	0x1
 4074 00de 56       		.byte	0x56
 4075 00df 2C000000 		.4byte	.LVL27
 4076 00e3 2E000000 		.4byte	.LVL28
 4077 00e7 0100     		.2byte	0x1
 4078 00e9 50       		.byte	0x50
 4079 00ea 2E000000 		.4byte	.LVL28
 4080 00ee 40000000 		.4byte	.LFE223
 4081 00f2 0100     		.2byte	0x1
 4082 00f4 56       		.byte	0x56
 4083 00f5 00000000 		.4byte	0
 4084 00f9 00000000 		.4byte	0
 4085              	.LLST15:
 4086 00fd 00000000 		.4byte	.LVL23
 4087 0101 10000000 		.4byte	.LVL24
 4088 0105 0100     		.2byte	0x1
 4089 0107 51       		.byte	0x51
 4090 0108 10000000 		.4byte	.LVL24
 4091 010c 2C000000 		.4byte	.LVL27
 4092 0110 0100     		.2byte	0x1
 4093 0112 55       		.byte	0x55
 4094 0113 2C000000 		.4byte	.LVL27
 4095 0117 31000000 		.4byte	.LVL29-1
 4096 011b 0100     		.2byte	0x1
 4097 011d 51       		.byte	0x51
 4098 011e 31000000 		.4byte	.LVL29-1
 4099 0122 40000000 		.4byte	.LFE223
 4100 0126 0100     		.2byte	0x1
 4101 0128 55       		.byte	0x55
 4102 0129 00000000 		.4byte	0
 4103 012d 00000000 		.4byte	0
ARM GAS  /var/folders/d2/nstgp4h54kz7g1l847x_b8wc0000gn/T//ccEQVVt7.s 			page 73


 4104              	.LLST16:
 4105 0131 16000000 		.4byte	.LVL25
 4106 0135 20000000 		.4byte	.LVL26
 4107 0139 0100     		.2byte	0x1
 4108 013b 50       		.byte	0x50
 4109 013c 00000000 		.4byte	0
 4110 0140 00000000 		.4byte	0
 4111              	.LLST12:
 4112 0144 00000000 		.4byte	.LVL19
 4113 0148 14000000 		.4byte	.LVL20
 4114 014c 0100     		.2byte	0x1
 4115 014e 50       		.byte	0x50
 4116 014f 14000000 		.4byte	.LVL20
 4117 0153 1A000000 		.4byte	.LVL21
 4118 0157 0400     		.2byte	0x4
 4119 0159 F3       		.byte	0xf3
 4120 015a 01       		.uleb128 0x1
 4121 015b 50       		.byte	0x50
 4122 015c 9F       		.byte	0x9f
 4123 015d 1A000000 		.4byte	.LVL21
 4124 0161 1D000000 		.4byte	.LVL22-1
 4125 0165 0100     		.2byte	0x1
 4126 0167 50       		.byte	0x50
 4127 0168 1D000000 		.4byte	.LVL22-1
 4128 016c 24000000 		.4byte	.LFE222
 4129 0170 0400     		.2byte	0x4
 4130 0172 F3       		.byte	0xf3
 4131 0173 01       		.uleb128 0x1
 4132 0174 50       		.byte	0x50
 4133 0175 9F       		.byte	0x9f
 4134 0176 00000000 		.4byte	0
 4135 017a 00000000 		.4byte	0
 4136              	.LLST13:
 4137 017e 00000000 		.4byte	.LVL19
 4138 0182 1D000000 		.4byte	.LVL22-1
 4139 0186 0100     		.2byte	0x1
 4140 0188 51       		.byte	0x51
 4141 0189 1D000000 		.4byte	.LVL22-1
 4142 018d 24000000 		.4byte	.LFE222
 4143 0191 0400     		.2byte	0x4
 4144 0193 F3       		.byte	0xf3
 4145 0194 01       		.uleb128 0x1
 4146 0195 51       		.byte	0x51
 4147 0196 9F       		.byte	0x9f
 4148 0197 00000000 		.4byte	0
 4149 019b 00000000 		.4byte	0
 4150              	.LLST8:
 4151 019f 00000000 		.4byte	.LVL13
 4152 01a3 14000000 		.4byte	.LVL16
 4153 01a7 0100     		.2byte	0x1
 4154 01a9 50       		.byte	0x50
 4155 01aa 14000000 		.4byte	.LVL16
 4156 01ae 1A000000 		.4byte	.LVL17
 4157 01b2 0400     		.2byte	0x4
 4158 01b4 F3       		.byte	0xf3
 4159 01b5 01       		.uleb128 0x1
 4160 01b6 50       		.byte	0x50
ARM GAS  /var/folders/d2/nstgp4h54kz7g1l847x_b8wc0000gn/T//ccEQVVt7.s 			page 74


 4161 01b7 9F       		.byte	0x9f
 4162 01b8 1A000000 		.4byte	.LVL17
 4163 01bc 1D000000 		.4byte	.LVL18-1
 4164 01c0 0100     		.2byte	0x1
 4165 01c2 50       		.byte	0x50
 4166 01c3 1D000000 		.4byte	.LVL18-1
 4167 01c7 24000000 		.4byte	.LFE221
 4168 01cb 0400     		.2byte	0x4
 4169 01cd F3       		.byte	0xf3
 4170 01ce 01       		.uleb128 0x1
 4171 01cf 50       		.byte	0x50
 4172 01d0 9F       		.byte	0x9f
 4173 01d1 00000000 		.4byte	0
 4174 01d5 00000000 		.4byte	0
 4175              	.LLST9:
 4176 01d9 00000000 		.4byte	.LVL13
 4177 01dd 08000000 		.4byte	.LVL15
 4178 01e1 0100     		.2byte	0x1
 4179 01e3 51       		.byte	0x51
 4180 01e4 08000000 		.4byte	.LVL15
 4181 01e8 24000000 		.4byte	.LFE221
 4182 01ec 0400     		.2byte	0x4
 4183 01ee F3       		.byte	0xf3
 4184 01ef 01       		.uleb128 0x1
 4185 01f0 51       		.byte	0x51
 4186 01f1 9F       		.byte	0x9f
 4187 01f2 00000000 		.4byte	0
 4188 01f6 00000000 		.4byte	0
 4189              	.LLST10:
 4190 01fa 00000000 		.4byte	.LVL13
 4191 01fe 04000000 		.4byte	.LVL14
 4192 0202 0100     		.2byte	0x1
 4193 0204 52       		.byte	0x52
 4194 0205 04000000 		.4byte	.LVL14
 4195 0209 24000000 		.4byte	.LFE221
 4196 020d 0400     		.2byte	0x4
 4197 020f F3       		.byte	0xf3
 4198 0210 01       		.uleb128 0x1
 4199 0211 52       		.byte	0x52
 4200 0212 9F       		.byte	0x9f
 4201 0213 00000000 		.4byte	0
 4202 0217 00000000 		.4byte	0
 4203              	.LLST11:
 4204 021b 00000000 		.4byte	.LVL13
 4205 021f 1D000000 		.4byte	.LVL18-1
 4206 0223 0100     		.2byte	0x1
 4207 0225 53       		.byte	0x53
 4208 0226 1D000000 		.4byte	.LVL18-1
 4209 022a 24000000 		.4byte	.LFE221
 4210 022e 0400     		.2byte	0x4
 4211 0230 F3       		.byte	0xf3
 4212 0231 01       		.uleb128 0x1
 4213 0232 53       		.byte	0x53
 4214 0233 9F       		.byte	0x9f
 4215 0234 00000000 		.4byte	0
 4216 0238 00000000 		.4byte	0
 4217              	.LLST4:
ARM GAS  /var/folders/d2/nstgp4h54kz7g1l847x_b8wc0000gn/T//ccEQVVt7.s 			page 75


 4218 023c 00000000 		.4byte	.LVL7
 4219 0240 14000000 		.4byte	.LVL10
 4220 0244 0100     		.2byte	0x1
 4221 0246 50       		.byte	0x50
 4222 0247 14000000 		.4byte	.LVL10
 4223 024b 1A000000 		.4byte	.LVL11
 4224 024f 0400     		.2byte	0x4
 4225 0251 F3       		.byte	0xf3
 4226 0252 01       		.uleb128 0x1
 4227 0253 50       		.byte	0x50
 4228 0254 9F       		.byte	0x9f
 4229 0255 1A000000 		.4byte	.LVL11
 4230 0259 1D000000 		.4byte	.LVL12-1
 4231 025d 0100     		.2byte	0x1
 4232 025f 50       		.byte	0x50
 4233 0260 1D000000 		.4byte	.LVL12-1
 4234 0264 24000000 		.4byte	.LFE220
 4235 0268 0400     		.2byte	0x4
 4236 026a F3       		.byte	0xf3
 4237 026b 01       		.uleb128 0x1
 4238 026c 50       		.byte	0x50
 4239 026d 9F       		.byte	0x9f
 4240 026e 00000000 		.4byte	0
 4241 0272 00000000 		.4byte	0
 4242              	.LLST5:
 4243 0276 00000000 		.4byte	.LVL7
 4244 027a 1D000000 		.4byte	.LVL12-1
 4245 027e 0100     		.2byte	0x1
 4246 0280 51       		.byte	0x51
 4247 0281 1D000000 		.4byte	.LVL12-1
 4248 0285 24000000 		.4byte	.LFE220
 4249 0289 0400     		.2byte	0x4
 4250 028b F3       		.byte	0xf3
 4251 028c 01       		.uleb128 0x1
 4252 028d 51       		.byte	0x51
 4253 028e 9F       		.byte	0x9f
 4254 028f 00000000 		.4byte	0
 4255 0293 00000000 		.4byte	0
 4256              	.LLST6:
 4257 0297 00000000 		.4byte	.LVL7
 4258 029b 08000000 		.4byte	.LVL9
 4259 029f 0100     		.2byte	0x1
 4260 02a1 52       		.byte	0x52
 4261 02a2 08000000 		.4byte	.LVL9
 4262 02a6 24000000 		.4byte	.LFE220
 4263 02aa 0400     		.2byte	0x4
 4264 02ac F3       		.byte	0xf3
 4265 02ad 01       		.uleb128 0x1
 4266 02ae 52       		.byte	0x52
 4267 02af 9F       		.byte	0x9f
 4268 02b0 00000000 		.4byte	0
 4269 02b4 00000000 		.4byte	0
 4270              	.LLST7:
 4271 02b8 00000000 		.4byte	.LVL7
 4272 02bc 04000000 		.4byte	.LVL8
 4273 02c0 0100     		.2byte	0x1
 4274 02c2 53       		.byte	0x53
ARM GAS  /var/folders/d2/nstgp4h54kz7g1l847x_b8wc0000gn/T//ccEQVVt7.s 			page 76


 4275 02c3 04000000 		.4byte	.LVL8
 4276 02c7 24000000 		.4byte	.LFE220
 4277 02cb 0400     		.2byte	0x4
 4278 02cd F3       		.byte	0xf3
 4279 02ce 01       		.uleb128 0x1
 4280 02cf 53       		.byte	0x53
 4281 02d0 9F       		.byte	0x9f
 4282 02d1 00000000 		.4byte	0
 4283 02d5 00000000 		.4byte	0
 4284              	.LLST0:
 4285 02d9 00000000 		.4byte	.LVL0
 4286 02dd 1A000000 		.4byte	.LVL4
 4287 02e1 0100     		.2byte	0x1
 4288 02e3 50       		.byte	0x50
 4289 02e4 1A000000 		.4byte	.LVL4
 4290 02e8 20000000 		.4byte	.LVL5
 4291 02ec 0400     		.2byte	0x4
 4292 02ee F3       		.byte	0xf3
 4293 02ef 01       		.uleb128 0x1
 4294 02f0 50       		.byte	0x50
 4295 02f1 9F       		.byte	0x9f
 4296 02f2 20000000 		.4byte	.LVL5
 4297 02f6 23000000 		.4byte	.LVL6-1
 4298 02fa 0100     		.2byte	0x1
 4299 02fc 50       		.byte	0x50
 4300 02fd 23000000 		.4byte	.LVL6-1
 4301 0301 28000000 		.4byte	.LFE219
 4302 0305 0400     		.2byte	0x4
 4303 0307 F3       		.byte	0xf3
 4304 0308 01       		.uleb128 0x1
 4305 0309 50       		.byte	0x50
 4306 030a 9F       		.byte	0x9f
 4307 030b 00000000 		.4byte	0
 4308 030f 00000000 		.4byte	0
 4309              	.LLST1:
 4310 0313 00000000 		.4byte	.LVL0
 4311 0317 08000000 		.4byte	.LVL2
 4312 031b 0100     		.2byte	0x1
 4313 031d 51       		.byte	0x51
 4314 031e 08000000 		.4byte	.LVL2
 4315 0322 28000000 		.4byte	.LFE219
 4316 0326 0400     		.2byte	0x4
 4317 0328 F3       		.byte	0xf3
 4318 0329 01       		.uleb128 0x1
 4319 032a 51       		.byte	0x51
 4320 032b 9F       		.byte	0x9f
 4321 032c 00000000 		.4byte	0
 4322 0330 00000000 		.4byte	0
 4323              	.LLST2:
 4324 0334 00000000 		.4byte	.LVL0
 4325 0338 0C000000 		.4byte	.LVL3
 4326 033c 0100     		.2byte	0x1
 4327 033e 52       		.byte	0x52
 4328 033f 0C000000 		.4byte	.LVL3
 4329 0343 28000000 		.4byte	.LFE219
 4330 0347 0400     		.2byte	0x4
 4331 0349 F3       		.byte	0xf3
ARM GAS  /var/folders/d2/nstgp4h54kz7g1l847x_b8wc0000gn/T//ccEQVVt7.s 			page 77


 4332 034a 01       		.uleb128 0x1
 4333 034b 52       		.byte	0x52
 4334 034c 9F       		.byte	0x9f
 4335 034d 00000000 		.4byte	0
 4336 0351 00000000 		.4byte	0
 4337              	.LLST3:
 4338 0355 00000000 		.4byte	.LVL0
 4339 0359 04000000 		.4byte	.LVL1
 4340 035d 0100     		.2byte	0x1
 4341 035f 53       		.byte	0x53
 4342 0360 04000000 		.4byte	.LVL1
 4343 0364 28000000 		.4byte	.LFE219
 4344 0368 0400     		.2byte	0x4
 4345 036a F3       		.byte	0xf3
 4346 036b 01       		.uleb128 0x1
 4347 036c 53       		.byte	0x53
 4348 036d 9F       		.byte	0x9f
 4349 036e 00000000 		.4byte	0
 4350 0372 00000000 		.4byte	0
 4351              		.section	.debug_aranges,"",%progbits
 4352 0000 54000000 		.4byte	0x54
 4353 0004 0200     		.2byte	0x2
 4354 0006 00000000 		.4byte	.Ldebug_info0
 4355 000a 04       		.byte	0x4
 4356 000b 00       		.byte	0
 4357 000c 0000     		.2byte	0
 4358 000e 0000     		.2byte	0
 4359 0010 00000000 		.4byte	.LFB219
 4360 0014 28000000 		.4byte	.LFE219-.LFB219
 4361 0018 00000000 		.4byte	.LFB220
 4362 001c 24000000 		.4byte	.LFE220-.LFB220
 4363 0020 00000000 		.4byte	.LFB221
 4364 0024 24000000 		.4byte	.LFE221-.LFB221
 4365 0028 00000000 		.4byte	.LFB222
 4366 002c 24000000 		.4byte	.LFE222-.LFB222
 4367 0030 00000000 		.4byte	.LFB223
 4368 0034 40000000 		.4byte	.LFE223-.LFB223
 4369 0038 00000000 		.4byte	.LFB224
 4370 003c 34000000 		.4byte	.LFE224-.LFB224
 4371 0040 00000000 		.4byte	.LFB225
 4372 0044 24000000 		.4byte	.LFE225-.LFB225
 4373 0048 00000000 		.4byte	.LFB226
 4374 004c 20000000 		.4byte	.LFE226-.LFB226
 4375 0050 00000000 		.4byte	0
 4376 0054 00000000 		.4byte	0
 4377              		.section	.debug_ranges,"",%progbits
 4378              	.Ldebug_ranges0:
 4379 0000 00000000 		.4byte	.LFB219
 4380 0004 28000000 		.4byte	.LFE219
 4381 0008 00000000 		.4byte	.LFB220
 4382 000c 24000000 		.4byte	.LFE220
 4383 0010 00000000 		.4byte	.LFB221
 4384 0014 24000000 		.4byte	.LFE221
 4385 0018 00000000 		.4byte	.LFB222
 4386 001c 24000000 		.4byte	.LFE222
 4387 0020 00000000 		.4byte	.LFB223
 4388 0024 40000000 		.4byte	.LFE223
ARM GAS  /var/folders/d2/nstgp4h54kz7g1l847x_b8wc0000gn/T//ccEQVVt7.s 			page 78


 4389 0028 00000000 		.4byte	.LFB224
 4390 002c 34000000 		.4byte	.LFE224
 4391 0030 00000000 		.4byte	.LFB225
 4392 0034 24000000 		.4byte	.LFE225
 4393 0038 00000000 		.4byte	.LFB226
 4394 003c 20000000 		.4byte	.LFE226
 4395 0040 00000000 		.4byte	0
 4396 0044 00000000 		.4byte	0
 4397              		.section	.debug_line,"",%progbits
 4398              	.Ldebug_line0:
 4399 0000 85050000 		.section	.debug_str,"MS",%progbits,1
 4399      0200D804 
 4399      00000201 
 4399      FB0E0D00 
 4399      01010101 
 4400              	.LASF211:
 4401 0000 705F7374 		.ascii	"p_stats\000"
 4401      61747300 
 4402              	.LASF4:
 4403 0008 73697A65 		.ascii	"size_t\000"
 4403      5F7400
 4404              	.LASF134:
 4405 000f 5F5F6C6F 		.ascii	"__locale_t\000"
 4405      63616C65 
 4405      5F7400
 4406              	.LASF32:
 4407 001a 5F5F7661 		.ascii	"__value\000"
 4407      6C756500 
 4408              	.LASF302:
 4409 0022 63665F6F 		.ascii	"cf_off_name\000"
 4409      66665F6E 
 4409      616D6500 
 4410              	.LASF188:
 4411 002e 73797374 		.ascii	"systime_t\000"
 4411      696D655F 
 4411      7400
 4412              	.LASF102:
 4413 0038 5F5F7366 		.ascii	"__sf\000"
 4413      00
 4414              	.LASF291:
 4415 003d 63685F69 		.ascii	"ch_identifier\000"
 4415      64656E74 
 4415      69666965 
 4415      7200
 4416              	.LASF194:
 4417 004b 705F6374 		.ascii	"p_ctx\000"
 4417      7800
 4418              	.LASF69:
 4419 0051 5F726561 		.ascii	"_read\000"
 4419      6400
 4420              	.LASF183:
 4421 0057 74707269 		.ascii	"tprio_t\000"
 4421      6F5F7400 
 4422              	.LASF175:
 4423 005f 73745F62 		.ascii	"st_blocks\000"
 4423      6C6F636B 
 4423      7300
ARM GAS  /var/folders/d2/nstgp4h54kz7g1l847x_b8wc0000gn/T//ccEQVVt7.s 			page 79


 4424              	.LASF323:
 4425 0069 474E5520 		.ascii	"GNU C11 7.2.1 20170904 (release) [ARM/embedded-7-br"
 4425      43313120 
 4425      372E322E 
 4425      31203230 
 4425      31373039 
 4426 009c 616E6368 		.ascii	"anch revision 255204] -mcpu=cortex-m4 -mfloat-abi=h"
 4426      20726576 
 4426      6973696F 
 4426      6E203235 
 4426      35323034 
 4427 00cf 61726420 		.ascii	"ard -mfpu=fpv4-sp-d16 -mno-thumb-interwork -mthumb "
 4427      2D6D6670 
 4427      753D6670 
 4427      76342D73 
 4427      702D6431 
 4428 0102 2D676764 		.ascii	"-ggdb -O2 -fomit-frame-pointer -falign-functions=16"
 4428      62202D4F 
 4428      32202D66 
 4428      6F6D6974 
 4428      2D667261 
 4429 0135 202D666E 		.ascii	" -fno-strict-aliasing -fstack-protector-all -ffunct"
 4429      6F2D7374 
 4429      72696374 
 4429      2D616C69 
 4429      6173696E 
 4430 0168 696F6E2D 		.ascii	"ion-sections -fdata-sections -fno-common -fsingle-p"
 4430      73656374 
 4430      696F6E73 
 4430      202D6664 
 4430      6174612D 
 4431 019b 72656369 		.ascii	"recision-constant\000"
 4431      73696F6E 
 4431      2D636F6E 
 4431      7374616E 
 4431      7400
 4432              	.LASF310:
 4433 01ad 63685F64 		.ascii	"ch_debug\000"
 4433      65627567 
 4433      00
 4434              	.LASF91:
 4435 01b6 5F5F636C 		.ascii	"__cleanup\000"
 4435      65616E75 
 4435      7000
 4436              	.LASF205:
 4437 01c0 705F6D73 		.ascii	"p_msgqueue\000"
 4437      67717565 
 4437      756500
 4438              	.LASF70:
 4439 01cb 5F777269 		.ascii	"_write\000"
 4439      746500
 4440              	.LASF221:
 4441 01d2 725F6374 		.ascii	"r_ctx\000"
 4441      7800
 4442              	.LASF142:
 4443 01d8 696E7433 		.ascii	"int32_t\000"
 4443      325F7400 
ARM GAS  /var/folders/d2/nstgp4h54kz7g1l847x_b8wc0000gn/T//ccEQVVt7.s 			page 80


 4444              	.LASF113:
 4445 01e0 5F617363 		.ascii	"_asctime_buf\000"
 4445      74696D65 
 4445      5F627566 
 4445      00
 4446              	.LASF96:
 4447 01ed 5F637674 		.ascii	"_cvtlen\000"
 4447      6C656E00 
 4448              	.LASF299:
 4449 01f5 63665F6F 		.ascii	"cf_off_ctx\000"
 4449      66665F63 
 4449      747800
 4450              	.LASF225:
 4451 0200 76746675 		.ascii	"vtfunc_t\000"
 4451      6E635F74 
 4451      00
 4452              	.LASF327:
 4453 0209 5F5F6675 		.ascii	"__func__\000"
 4453      6E635F5F 
 4453      00
 4454              	.LASF234:
 4455 0212 63685F76 		.ascii	"ch_virtual_timers_list\000"
 4455      69727475 
 4455      616C5F74 
 4455      696D6572 
 4455      735F6C69 
 4456              	.LASF151:
 4457 0229 6465765F 		.ascii	"dev_t\000"
 4457      7400
 4458              	.LASF155:
 4459 022f 6E6C696E 		.ascii	"nlink_t\000"
 4459      6B5F7400 
 4460              	.LASF23:
 4461 0237 5F5F6769 		.ascii	"__gid_t\000"
 4461      645F7400 
 4462              	.LASF132:
 4463 023f 5F756E75 		.ascii	"_unused\000"
 4463      73656400 
 4464              	.LASF43:
 4465 0247 5F5F746D 		.ascii	"__tm\000"
 4465      00
 4466              	.LASF128:
 4467 024c 5F776373 		.ascii	"_wcsrtombs_state\000"
 4467      72746F6D 
 4467      62735F73 
 4467      74617465 
 4467      00
 4468              	.LASF74:
 4469 025d 5F6E6275 		.ascii	"_nbuf\000"
 4469      6600
 4470              	.LASF44:
 4471 0263 5F5F746D 		.ascii	"__tm_sec\000"
 4471      5F736563 
 4471      00
 4472              	.LASF121:
 4473 026c 5F6C3634 		.ascii	"_l64a_buf\000"
 4473      615F6275 
ARM GAS  /var/folders/d2/nstgp4h54kz7g1l847x_b8wc0000gn/T//ccEQVVt7.s 			page 81


 4473      6600
 4474              	.LASF145:
 4475 0276 74696D65 		.ascii	"time_t\000"
 4475      5F7400
 4476              	.LASF78:
 4477 027d 5F6C6F63 		.ascii	"_lock\000"
 4477      6B00
 4478              	.LASF240:
 4479 0283 6C6F636B 		.ascii	"lock_cnt\000"
 4479      5F636E74 
 4479      00
 4480              	.LASF295:
 4481 028c 63685F70 		.ascii	"ch_ptrsize\000"
 4481      74727369 
 4481      7A6500
 4482              	.LASF109:
 4483 0297 5F6D756C 		.ascii	"_mult\000"
 4483      7400
 4484              	.LASF256:
 4485 029d 73655F74 		.ascii	"se_tp\000"
 4485      7000
 4486              	.LASF270:
 4487 02a3 74696D65 		.ascii	"time_measurement_t\000"
 4487      5F6D6561 
 4487      73757265 
 4487      6D656E74 
 4487      5F7400
 4488              	.LASF288:
 4489 02b6 6D5F6F77 		.ascii	"m_owner\000"
 4489      6E657200 
 4490              	.LASF232:
 4491 02be 76745F70 		.ascii	"vt_par\000"
 4491      617200
 4492              	.LASF200:
 4493 02c5 705F666C 		.ascii	"p_flags\000"
 4493      61677300 
 4494              	.LASF29:
 4495 02cd 5F5F7763 		.ascii	"__wch\000"
 4495      6800
 4496              	.LASF277:
 4497 02d3 65786974 		.ascii	"exitcode\000"
 4497      636F6465 
 4497      00
 4498              	.LASF5:
 4499 02dc 5F5F7569 		.ascii	"__uint8_t\000"
 4499      6E74385F 
 4499      7400
 4500              	.LASF21:
 4501 02e6 5F5F6465 		.ascii	"__dev_t\000"
 4501      765F7400 
 4502              	.LASF282:
 4503 02ee 65776D61 		.ascii	"ewmask\000"
 4503      736B00
 4504              	.LASF152:
 4505 02f5 7569645F 		.ascii	"uid_t\000"
 4505      7400
 4506              	.LASF66:
ARM GAS  /var/folders/d2/nstgp4h54kz7g1l847x_b8wc0000gn/T//ccEQVVt7.s 			page 82


 4507 02fb 5F66696C 		.ascii	"_file\000"
 4507      6500
 4508              	.LASF297:
 4509 0301 63685F74 		.ascii	"ch_threadsize\000"
 4509      68726561 
 4509      6473697A 
 4509      6500
 4510              	.LASF53:
 4511 030f 5F6F6E5F 		.ascii	"_on_exit_args\000"
 4511      65786974 
 4511      5F617267 
 4511      7300
 4512              	.LASF139:
 4513 031d 5F737973 		.ascii	"_sys_nerr\000"
 4513      5F6E6572 
 4513      7200
 4514              	.LASF195:
 4515 0327 705F6E65 		.ascii	"p_newer\000"
 4515      77657200 
 4516              	.LASF124:
 4517 032f 5F6D6272 		.ascii	"_mbrlen_state\000"
 4517      6C656E5F 
 4517      73746174 
 4517      6500
 4518              	.LASF11:
 4519 033d 6C6F6E67 		.ascii	"long int\000"
 4519      20696E74 
 4519      00
 4520              	.LASF191:
 4521 0346 705F6E65 		.ascii	"p_next\000"
 4521      787400
 4522              	.LASF135:
 4523 034d 5F696D70 		.ascii	"_impure_ptr\000"
 4523      7572655F 
 4523      70747200 
 4524              	.LASF93:
 4525 0359 5F726573 		.ascii	"_result_k\000"
 4525      756C745F 
 4525      6B00
 4526              	.LASF304:
 4527 0363 63665F6F 		.ascii	"cf_off_state\000"
 4527      66665F73 
 4527      74617465 
 4527      00
 4528              	.LASF63:
 4529 0370 5F73697A 		.ascii	"_size\000"
 4529      6500
 4530              	.LASF192:
 4531 0376 705F7072 		.ascii	"p_prev\000"
 4531      657600
 4532              	.LASF330:
 4533 037d 5F5F6275 		.ascii	"__builtin_memset\000"
 4533      696C7469 
 4533      6E5F6D65 
 4533      6D736574 
 4533      00
 4534              	.LASF114:
ARM GAS  /var/folders/d2/nstgp4h54kz7g1l847x_b8wc0000gn/T//ccEQVVt7.s 			page 83


 4535 038e 5F6C6F63 		.ascii	"_localtime_buf\000"
 4535      616C7469 
 4535      6D655F62 
 4535      756600
 4536              	.LASF180:
 4537 039d 74737461 		.ascii	"tstate_t\000"
 4537      74655F74 
 4537      00
 4538              	.LASF178:
 4539 03a6 72747469 		.ascii	"rttime_t\000"
 4539      6D655F74 
 4539      00
 4540              	.LASF215:
 4541 03af 74687265 		.ascii	"threads_queue_t\000"
 4541      6164735F 
 4541      71756575 
 4541      655F7400 
 4542              	.LASF208:
 4543 03bf 705F6D74 		.ascii	"p_mtxlist\000"
 4543      786C6973 
 4543      7400
 4544              	.LASF213:
 4545 03c9 74687265 		.ascii	"threads_list_t\000"
 4545      6164735F 
 4545      6C697374 
 4545      5F7400
 4546              	.LASF251:
 4547 03d8 72656761 		.ascii	"regarm_t\000"
 4547      726D5F74 
 4547      00
 4548              	.LASF48:
 4549 03e1 5F5F746D 		.ascii	"__tm_mon\000"
 4549      5F6D6F6E 
 4549      00
 4550              	.LASF326:
 4551 03ea 5F66696E 		.ascii	"_fini\000"
 4551      6900
 4552              	.LASF111:
 4553 03f0 5F756E75 		.ascii	"_unused_rand\000"
 4553      7365645F 
 4553      72616E64 
 4553      00
 4554              	.LASF3:
 4555 03fd 7369676E 		.ascii	"signed char\000"
 4555      65642063 
 4555      68617200 
 4556              	.LASF202:
 4557 0409 705F7072 		.ascii	"p_preempt\000"
 4557      65656D70 
 4557      7400
 4558              	.LASF19:
 4559 0413 5F5F626C 		.ascii	"__blksize_t\000"
 4559      6B73697A 
 4559      655F7400 
 4560              	.LASF140:
 4561 041f 75696E74 		.ascii	"uint8_t\000"
 4561      385F7400 
ARM GAS  /var/folders/d2/nstgp4h54kz7g1l847x_b8wc0000gn/T//ccEQVVt7.s 			page 84


 4562              	.LASF169:
 4563 0427 73745F73 		.ascii	"st_spare1\000"
 4563      70617265 
 4563      3100
 4564              	.LASF164:
 4565 0431 73745F75 		.ascii	"st_uid\000"
 4565      696400
 4566              	.LASF173:
 4567 0438 73745F73 		.ascii	"st_spare3\000"
 4567      70617265 
 4567      3300
 4568              	.LASF176:
 4569 0442 73745F73 		.ascii	"st_spare4\000"
 4569      70617265 
 4569      3400
 4570              	.LASF185:
 4571 044c 6576656E 		.ascii	"eventmask_t\000"
 4571      746D6173 
 4571      6B5F7400 
 4572              	.LASF253:
 4573 0458 636F6E74 		.ascii	"context\000"
 4573      65787400 
 4574              	.LASF279:
 4575 0460 77747472 		.ascii	"wttrp\000"
 4575      7000
 4576              	.LASF6:
 4577 0466 756E7369 		.ascii	"unsigned char\000"
 4577      676E6564 
 4577      20636861 
 4577      7200
 4578              	.LASF166:
 4579 0474 73745F72 		.ascii	"st_rdev\000"
 4579      64657600 
 4580              	.LASF238:
 4581 047c 70616E69 		.ascii	"panic_msg\000"
 4581      635F6D73 
 4581      6700
 4582              	.LASF315:
 4583 0486 5F736272 		.ascii	"_sbrk_r\000"
 4583      6B5F7200 
 4584              	.LASF88:
 4585 048e 5F756E73 		.ascii	"_unspecified_locale_info\000"
 4585      70656369 
 4585      66696564 
 4585      5F6C6F63 
 4585      616C655F 
 4586              	.LASF81:
 4587 04a7 5F726565 		.ascii	"_reent\000"
 4587      6E7400
 4588              	.LASF222:
 4589 04ae 725F6E65 		.ascii	"r_newer\000"
 4589      77657200 
 4590              	.LASF136:
 4591 04b6 5F676C6F 		.ascii	"_global_impure_ptr\000"
 4591      62616C5F 
 4591      696D7075 
 4591      72655F70 
ARM GAS  /var/folders/d2/nstgp4h54kz7g1l847x_b8wc0000gn/T//ccEQVVt7.s 			page 85


 4591      747200
 4592              	.LASF236:
 4593 04c9 73797374 		.ascii	"system_debug_t\000"
 4593      656D5F64 
 4593      65627567 
 4593      5F7400
 4594              	.LASF36:
 4595 04d8 63686172 		.ascii	"char\000"
 4595      00
 4596              	.LASF329:
 4597 04dd 6D656D73 		.ascii	"memset\000"
 4597      657400
 4598              	.LASF290:
 4599 04e4 6D5F636E 		.ascii	"m_cnt\000"
 4599      7400
 4600              	.LASF60:
 4601 04ea 5F666E73 		.ascii	"_fns\000"
 4601      00
 4602              	.LASF72:
 4603 04ef 5F636C6F 		.ascii	"_close\000"
 4603      736500
 4604              	.LASF193:
 4605 04f6 705F7072 		.ascii	"p_prio\000"
 4605      696F00
 4606              	.LASF8:
 4607 04fd 5F5F7569 		.ascii	"__uint16_t\000"
 4607      6E743136 
 4607      5F7400
 4608              	.LASF278:
 4609 0508 77746F62 		.ascii	"wtobjp\000"
 4609      6A7000
 4610              	.LASF308:
 4611 050f 63665F6F 		.ascii	"cf_off_time\000"
 4611      66665F74 
 4611      696D6500 
 4612              	.LASF272:
 4613 051b 6E5F6374 		.ascii	"n_ctxswc\000"
 4613      78737763 
 4613      00
 4614              	.LASF83:
 4615 0524 5F737464 		.ascii	"_stdin\000"
 4615      696E00
 4616              	.LASF300:
 4617 052b 63665F6F 		.ascii	"cf_off_newer\000"
 4617      66665F6E 
 4617      65776572 
 4617      00
 4618              	.LASF25:
 4619 0538 5F5F6D6F 		.ascii	"__mode_t\000"
 4619      64655F74 
 4619      00
 4620              	.LASF312:
 4621 0541 5F697361 		.ascii	"_isatty_r\000"
 4621      7474795F 
 4621      7200
 4622              	.LASF252:
 4623 054b 73746B61 		.ascii	"stkalign_t\000"
ARM GAS  /var/folders/d2/nstgp4h54kz7g1l847x_b8wc0000gn/T//ccEQVVt7.s 			page 86


 4623      6C69676E 
 4623      5F7400
 4624              	.LASF157:
 4625 0556 5F646179 		.ascii	"_daylight\000"
 4625      6C696768 
 4625      7400
 4626              	.LASF156:
 4627 0560 5F74696D 		.ascii	"_timezone\000"
 4627      657A6F6E 
 4627      6500
 4628              	.LASF324:
 4629 056a 2E2E2F65 		.ascii	"../e-puck2_main-processor/src/chibios-syscalls/newl"
 4629      2D707563 
 4629      6B325F6D 
 4629      61696E2D 
 4629      70726F63 
 4630 059d 69625F73 		.ascii	"ib_syscalls.c\000"
 4630      79736361 
 4630      6C6C732E 
 4630      6300
 4631              	.LASF298:
 4632 05ab 63665F6F 		.ascii	"cf_off_prio\000"
 4632      66665F70 
 4632      72696F00 
 4633              	.LASF267:
 4634 05b7 776F7273 		.ascii	"worst\000"
 4634      7400
 4635              	.LASF181:
 4636 05bd 74726566 		.ascii	"trefs_t\000"
 4636      735F7400 
 4637              	.LASF172:
 4638 05c5 73745F63 		.ascii	"st_ctime\000"
 4638      74696D65 
 4638      00
 4639              	.LASF314:
 4640 05ce 66696C65 		.ascii	"file\000"
 4640      00
 4641              	.LASF186:
 4642 05d3 636E745F 		.ascii	"cnt_t\000"
 4642      7400
 4643              	.LASF241:
 4644 05d9 74726163 		.ascii	"trace_buffer\000"
 4644      655F6275 
 4644      66666572 
 4644      00
 4645              	.LASF231:
 4646 05e6 76745F66 		.ascii	"vt_func\000"
 4646      756E6300 
 4647              	.LASF158:
 4648 05ee 5F747A6E 		.ascii	"_tzname\000"
 4648      616D6500 
 4649              	.LASF68:
 4650 05f6 5F636F6F 		.ascii	"_cookie\000"
 4650      6B696500 
 4651              	.LASF263:
 4652 05fe 63685F74 		.ascii	"ch_trace_buffer_t\000"
 4652      72616365 
ARM GAS  /var/folders/d2/nstgp4h54kz7g1l847x_b8wc0000gn/T//ccEQVVt7.s 			page 87


 4652      5F627566 
 4652      6665725F 
 4652      7400
 4653              	.LASF321:
 4654 0610 6368436F 		.ascii	"chCoreAlloc\000"
 4654      7265416C 
 4654      6C6F6300 
 4655              	.LASF207:
 4656 061c 705F6570 		.ascii	"p_epending\000"
 4656      656E6469 
 4656      6E6700
 4657              	.LASF281:
 4658 0627 77746D74 		.ascii	"wtmtxp\000"
 4658      787000
 4659              	.LASF41:
 4660 062e 5F776473 		.ascii	"_wds\000"
 4660      00
 4661              	.LASF218:
 4662 0633 63685F72 		.ascii	"ch_ready_list\000"
 4662      65616479 
 4662      5F6C6973 
 4662      7400
 4663              	.LASF133:
 4664 0641 5F5F6C6F 		.ascii	"__lock\000"
 4664      636B00
 4665              	.LASF100:
 4666 0648 5F736967 		.ascii	"_sig_func\000"
 4666      5F66756E 
 4666      6300
 4667              	.LASF76:
 4668 0652 5F6F6666 		.ascii	"_offset\000"
 4668      73657400 
 4669              	.LASF97:
 4670 065a 5F637674 		.ascii	"_cvtbuf\000"
 4670      62756600 
 4671              	.LASF165:
 4672 0662 73745F67 		.ascii	"st_gid\000"
 4672      696400
 4673              	.LASF239:
 4674 0669 6973725F 		.ascii	"isr_cnt\000"
 4674      636E7400 
 4675              	.LASF269:
 4676 0671 63756D75 		.ascii	"cumulative\000"
 4676      6C617469 
 4676      766500
 4677              	.LASF274:
 4678 067c 6D5F6372 		.ascii	"m_crit_isr\000"
 4678      69745F69 
 4678      737200
 4679              	.LASF258:
 4680 0687 73655F73 		.ascii	"se_state\000"
 4680      74617465 
 4680      00
 4681              	.LASF273:
 4682 0690 6D5F6372 		.ascii	"m_crit_thd\000"
 4682      69745F74 
 4682      686400
ARM GAS  /var/folders/d2/nstgp4h54kz7g1l847x_b8wc0000gn/T//ccEQVVt7.s 			page 88


 4683              	.LASF14:
 4684 069b 5F5F7569 		.ascii	"__uint64_t\000"
 4684      6E743634 
 4684      5F7400
 4685              	.LASF149:
 4686 06a6 696E6F5F 		.ascii	"ino_t\000"
 4686      7400
 4687              	.LASF94:
 4688 06ac 5F703573 		.ascii	"_p5s\000"
 4688      00
 4689              	.LASF13:
 4690 06b1 6C6F6E67 		.ascii	"long unsigned int\000"
 4690      20756E73 
 4690      69676E65 
 4690      6420696E 
 4690      7400
 4691              	.LASF292:
 4692 06c3 63685F7A 		.ascii	"ch_zero\000"
 4692      65726F00 
 4693              	.LASF64:
 4694 06cb 5F5F7346 		.ascii	"__sFILE\000"
 4694      494C4500 
 4695              	.LASF90:
 4696 06d3 5F5F7364 		.ascii	"__sdidinit\000"
 4696      6964696E 
 4696      697400
 4697              	.LASF80:
 4698 06de 5F666C61 		.ascii	"_flags2\000"
 4698      67733200 
 4699              	.LASF167:
 4700 06e6 73745F73 		.ascii	"st_size\000"
 4700      697A6500 
 4701              	.LASF250:
 4702 06ee 53797374 		.ascii	"SystemCoreClock\000"
 4702      656D436F 
 4702      7265436C 
 4702      6F636B00 
 4703              	.LASF283:
 4704 06fe 63685F73 		.ascii	"ch_semaphore\000"
 4704      656D6170 
 4704      686F7265 
 4704      00
 4705              	.LASF190:
 4706 070b 63685F74 		.ascii	"ch_thread\000"
 4706      68726561 
 4706      6400
 4707              	.LASF233:
 4708 0715 76697274 		.ascii	"virtual_timers_list_t\000"
 4708      75616C5F 
 4708      74696D65 
 4708      72735F6C 
 4708      6973745F 
 4709              	.LASF82:
 4710 072b 5F657272 		.ascii	"_errno\000"
 4710      6E6F00
 4711              	.LASF226:
 4712 0732 76697274 		.ascii	"virtual_timer_t\000"
ARM GAS  /var/folders/d2/nstgp4h54kz7g1l847x_b8wc0000gn/T//ccEQVVt7.s 			page 89


 4712      75616C5F 
 4712      74696D65 
 4712      725F7400 
 4713              	.LASF217:
 4714 0742 72656164 		.ascii	"ready_list_t\000"
 4714      795F6C69 
 4714      73745F74 
 4714      00
 4715              	.LASF171:
 4716 074f 73745F73 		.ascii	"st_spare2\000"
 4716      70617265 
 4716      3200
 4717              	.LASF122:
 4718 0759 5F736967 		.ascii	"_signal_buf\000"
 4718      6E616C5F 
 4718      62756600 
 4719              	.LASF187:
 4720 0765 75636E74 		.ascii	"ucnt_t\000"
 4720      5F7400
 4721              	.LASF317:
 4722 076c 5F636C6F 		.ascii	"_close_r\000"
 4722      73655F72 
 4722      00
 4723              	.LASF42:
 4724 0775 5F426967 		.ascii	"_Bigint\000"
 4724      696E7400 
 4725              	.LASF214:
 4726 077d 63685F74 		.ascii	"ch_threads_list\000"
 4726      68726561 
 4726      64735F6C 
 4726      69737400 
 4727              	.LASF259:
 4728 078d 63685F73 		.ascii	"ch_swc_event_t\000"
 4728      77635F65 
 4728      76656E74 
 4728      5F7400
 4729              	.LASF39:
 4730 079c 5F6D6178 		.ascii	"_maxwds\000"
 4730      77647300 
 4731              	.LASF271:
 4732 07a4 6E5F6972 		.ascii	"n_irq\000"
 4732      7100
 4733              	.LASF18:
 4734 07aa 5F5F626C 		.ascii	"__blkcnt_t\000"
 4734      6B636E74 
 4734      5F7400
 4735              	.LASF99:
 4736 07b5 5F617465 		.ascii	"_atexit0\000"
 4736      78697430 
 4736      00
 4737              	.LASF159:
 4738 07be 73746174 		.ascii	"stat\000"
 4738      00
 4739              	.LASF307:
 4740 07c3 63665F6F 		.ascii	"cf_off_preempt\000"
 4740      66665F70 
 4740      7265656D 
ARM GAS  /var/folders/d2/nstgp4h54kz7g1l847x_b8wc0000gn/T//ccEQVVt7.s 			page 90


 4740      707400
 4741              	.LASF174:
 4742 07d2 73745F62 		.ascii	"st_blksize\000"
 4742      6C6B7369 
 4742      7A6500
 4743              	.LASF24:
 4744 07dd 5F5F696E 		.ascii	"__ino_t\000"
 4744      6F5F7400 
 4745              	.LASF12:
 4746 07e5 5F5F7569 		.ascii	"__uint32_t\000"
 4746      6E743332 
 4746      5F7400
 4747              	.LASF87:
 4748 07f0 5F656D65 		.ascii	"_emergency\000"
 4748      7267656E 
 4748      637900
 4749              	.LASF328:
 4750 07fb 5F5F7374 		.ascii	"__stack_chk_fail\000"
 4750      61636B5F 
 4750      63686B5F 
 4750      6661696C 
 4750      00
 4751              	.LASF1:
 4752 080c 6C6F6E67 		.ascii	"long long int\000"
 4752      206C6F6E 
 4752      6720696E 
 4752      7400
 4753              	.LASF294:
 4754 081a 63685F76 		.ascii	"ch_version\000"
 4754      65727369 
 4754      6F6E00
 4755              	.LASF287:
 4756 0825 6D5F7175 		.ascii	"m_queue\000"
 4756      65756500 
 4757              	.LASF105:
 4758 082d 5F6E696F 		.ascii	"_niobs\000"
 4758      627300
 4759              	.LASF262:
 4760 0834 74625F62 		.ascii	"tb_buffer\000"
 4760      75666665 
 4760      7200
 4761              	.LASF228:
 4762 083e 76745F6E 		.ascii	"vt_next\000"
 4762      65787400 
 4763              	.LASF101:
 4764 0846 5F5F7367 		.ascii	"__sglue\000"
 4764      6C756500 
 4765              	.LASF131:
 4766 084e 5F6E6D61 		.ascii	"_nmalloc\000"
 4766      6C6C6F63 
 4766      00
 4767              	.LASF229:
 4768 0857 76745F70 		.ascii	"vt_prev\000"
 4768      72657600 
 4769              	.LASF115:
 4770 085f 5F67616D 		.ascii	"_gamma_signgam\000"
 4770      6D615F73 
ARM GAS  /var/folders/d2/nstgp4h54kz7g1l847x_b8wc0000gn/T//ccEQVVt7.s 			page 91


 4770      69676E67 
 4770      616D00
 4771              	.LASF260:
 4772 086e 74625F73 		.ascii	"tb_size\000"
 4772      697A6500 
 4773              	.LASF95:
 4774 0876 5F667265 		.ascii	"_freelist\000"
 4774      656C6973 
 4774      7400
 4775              	.LASF106:
 4776 0880 5F696F62 		.ascii	"_iobs\000"
 4776      7300
 4777              	.LASF104:
 4778 0886 5F676C75 		.ascii	"_glue\000"
 4778      6500
 4779              	.LASF249:
 4780 088c 49544D5F 		.ascii	"ITM_RxBuffer\000"
 4780      52784275 
 4780      66666572 
 4780      00
 4781              	.LASF40:
 4782 0899 5F736967 		.ascii	"_sign\000"
 4782      6E00
 4783              	.LASF204:
 4784 089f 705F7761 		.ascii	"p_waiting\000"
 4784      6974696E 
 4784      6700
 4785              	.LASF257:
 4786 08a9 73655F77 		.ascii	"se_wtobjp\000"
 4786      746F626A 
 4786      7000
 4787              	.LASF248:
 4788 08b3 69646C65 		.ascii	"idle_thread_wa\000"
 4788      5F746872 
 4788      6561645F 
 4788      776100
 4789              	.LASF0:
 4790 08c2 756E7369 		.ascii	"unsigned int\000"
 4790      676E6564 
 4790      20696E74 
 4790      00
 4791              	.LASF318:
 4792 08cf 5F777269 		.ascii	"_write_r\000"
 4792      74655F72 
 4792      00
 4793              	.LASF146:
 4794 08d8 626C6B63 		.ascii	"blkcnt_t\000"
 4794      6E745F74 
 4794      00
 4795              	.LASF148:
 4796 08e1 63616464 		.ascii	"caddr_t\000"
 4796      725F7400 
 4797              	.LASF177:
 4798 08e9 7274636E 		.ascii	"rtcnt_t\000"
 4798      745F7400 
 4799              	.LASF210:
 4800 08f1 705F6D70 		.ascii	"p_mpool\000"
ARM GAS  /var/folders/d2/nstgp4h54kz7g1l847x_b8wc0000gn/T//ccEQVVt7.s 			page 92


 4800      6F6F6C00 
 4801              	.LASF129:
 4802 08f9 5F685F65 		.ascii	"_h_errno\000"
 4802      72726E6F 
 4802      00
 4803              	.LASF316:
 4804 0902 696E6372 		.ascii	"incr\000"
 4804      00
 4805              	.LASF201:
 4806 0907 705F7265 		.ascii	"p_refs\000"
 4806      667300
 4807              	.LASF296:
 4808 090e 63685F74 		.ascii	"ch_timesize\000"
 4808      696D6573 
 4808      697A6500 
 4809              	.LASF127:
 4810 091a 5F776372 		.ascii	"_wcrtomb_state\000"
 4810      746F6D62 
 4810      5F737461 
 4810      746500
 4811              	.LASF47:
 4812 0929 5F5F746D 		.ascii	"__tm_mday\000"
 4812      5F6D6461 
 4812      7900
 4813              	.LASF275:
 4814 0933 6B65726E 		.ascii	"kernel_stats_t\000"
 4814      656C5F73 
 4814      74617473 
 4814      5F7400
 4815              	.LASF98:
 4816 0942 5F6E6577 		.ascii	"_new\000"
 4816      00
 4817              	.LASF73:
 4818 0947 5F756275 		.ascii	"_ubuf\000"
 4818      6600
 4819              	.LASF85:
 4820 094d 5F737464 		.ascii	"_stderr\000"
 4820      65727200 
 4821              	.LASF120:
 4822 0955 5F776374 		.ascii	"_wctomb_state\000"
 4822      6F6D625F 
 4822      73746174 
 4822      6500
 4823              	.LASF79:
 4824 0963 5F6D6273 		.ascii	"_mbstate\000"
 4824      74617465 
 4824      00
 4825              	.LASF116:
 4826 096c 5F72616E 		.ascii	"_rand_next\000"
 4826      645F6E65 
 4826      787400
 4827              	.LASF65:
 4828 0977 5F666C61 		.ascii	"_flags\000"
 4828      677300
 4829              	.LASF264:
 4830 097e 6F666673 		.ascii	"offset\000"
 4830      657400
ARM GAS  /var/folders/d2/nstgp4h54kz7g1l847x_b8wc0000gn/T//ccEQVVt7.s 			page 93


 4831              	.LASF212:
 4832 0985 74687265 		.ascii	"thread_reference_t\000"
 4832      61645F72 
 4832      65666572 
 4832      656E6365 
 4832      5F7400
 4833              	.LASF58:
 4834 0998 5F617465 		.ascii	"_atexit\000"
 4834      78697400 
 4835              	.LASF203:
 4836 09a0 705F7469 		.ascii	"p_time\000"
 4836      6D6500
 4837              	.LASF306:
 4838 09a7 63665F6F 		.ascii	"cf_off_refs\000"
 4838      66665F72 
 4838      65667300 
 4839              	.LASF31:
 4840 09b3 5F5F636F 		.ascii	"__count\000"
 4840      756E7400 
 4841              	.LASF163:
 4842 09bb 73745F6E 		.ascii	"st_nlink\000"
 4842      6C696E6B 
 4842      00
 4843              	.LASF150:
 4844 09c4 6F66665F 		.ascii	"off_t\000"
 4844      7400
 4845              	.LASF154:
 4846 09ca 6D6F6465 		.ascii	"mode_t\000"
 4846      5F7400
 4847              	.LASF50:
 4848 09d1 5F5F746D 		.ascii	"__tm_wday\000"
 4848      5F776461 
 4848      7900
 4849              	.LASF189:
 4850 09db 74687265 		.ascii	"thread_t\000"
 4850      61645F74 
 4850      00
 4851              	.LASF168:
 4852 09e4 73745F61 		.ascii	"st_atime\000"
 4852      74696D65 
 4852      00
 4853              	.LASF2:
 4854 09ed 6C6F6E67 		.ascii	"long double\000"
 4854      20646F75 
 4854      626C6500 
 4855              	.LASF51:
 4856 09f9 5F5F746D 		.ascii	"__tm_yday\000"
 4856      5F796461 
 4856      7900
 4857              	.LASF209:
 4858 0a03 705F7265 		.ascii	"p_realprio\000"
 4858      616C7072 
 4858      696F00
 4859              	.LASF254:
 4860 0a0e 706F7274 		.ascii	"port_intctx\000"
 4860      5F696E74 
 4860      63747800 
ARM GAS  /var/folders/d2/nstgp4h54kz7g1l847x_b8wc0000gn/T//ccEQVVt7.s 			page 94


 4861              	.LASF108:
 4862 0a1a 5F736565 		.ascii	"_seed\000"
 4862      6400
 4863              	.LASF71:
 4864 0a20 5F736565 		.ascii	"_seek\000"
 4864      6B00
 4865              	.LASF160:
 4866 0a26 73745F64 		.ascii	"st_dev\000"
 4866      657600
 4867              	.LASF230:
 4868 0a2d 76745F64 		.ascii	"vt_delta\000"
 4868      656C7461 
 4868      00
 4869              	.LASF27:
 4870 0a36 5F66706F 		.ascii	"_fpos_t\000"
 4870      735F7400 
 4871              	.LASF30:
 4872 0a3e 5F5F7763 		.ascii	"__wchb\000"
 4872      686200
 4873              	.LASF227:
 4874 0a45 63685F76 		.ascii	"ch_virtual_timer\000"
 4874      69727475 
 4874      616C5F74 
 4874      696D6572 
 4874      00
 4875              	.LASF285:
 4876 0a56 735F636E 		.ascii	"s_cnt\000"
 4876      7400
 4877              	.LASF119:
 4878 0a5c 5F6D6274 		.ascii	"_mbtowc_state\000"
 4878      6F77635F 
 4878      73746174 
 4878      6500
 4879              	.LASF247:
 4880 0a6a 6B65726E 		.ascii	"kernel_stats\000"
 4880      656C5F73 
 4880      74617473 
 4880      00
 4881              	.LASF15:
 4882 0a77 6C6F6E67 		.ascii	"long long unsigned int\000"
 4882      206C6F6E 
 4882      6720756E 
 4882      7369676E 
 4882      65642069 
 4883              	.LASF196:
 4884 0a8e 705F6F6C 		.ascii	"p_older\000"
 4884      64657200 
 4885              	.LASF141:
 4886 0a96 75696E74 		.ascii	"uint16_t\000"
 4886      31365F74 
 4886      00
 4887              	.LASF26:
 4888 0a9f 5F5F6F66 		.ascii	"__off_t\000"
 4888      665F7400 
 4889              	.LASF55:
 4890 0aa7 5F64736F 		.ascii	"_dso_handle\000"
 4890      5F68616E 
ARM GAS  /var/folders/d2/nstgp4h54kz7g1l847x_b8wc0000gn/T//ccEQVVt7.s 			page 95


 4890      646C6500 
 4891              	.LASF184:
 4892 0ab3 6D73675F 		.ascii	"msg_t\000"
 4892      7400
 4893              	.LASF216:
 4894 0ab9 63685F74 		.ascii	"ch_threads_queue\000"
 4894      68726561 
 4894      64735F71 
 4894      75657565 
 4894      00
 4895              	.LASF107:
 4896 0aca 5F72616E 		.ascii	"_rand48\000"
 4896      64343800 
 4897              	.LASF305:
 4898 0ad2 63665F6F 		.ascii	"cf_off_flags\000"
 4898      66665F66 
 4898      6C616773 
 4898      00
 4899              	.LASF84:
 4900 0adf 5F737464 		.ascii	"_stdout\000"
 4900      6F757400 
 4901              	.LASF182:
 4902 0ae7 74736C69 		.ascii	"tslices_t\000"
 4902      6365735F 
 4902      7400
 4903              	.LASF75:
 4904 0af1 5F626C6B 		.ascii	"_blksize\000"
 4904      73697A65 
 4904      00
 4905              	.LASF62:
 4906 0afa 5F626173 		.ascii	"_base\000"
 4906      6500
 4907              	.LASF313:
 4908 0b00 5F667374 		.ascii	"_fstat_r\000"
 4908      61745F72 
 4908      00
 4909              	.LASF112:
 4910 0b09 5F737472 		.ascii	"_strtok_last\000"
 4910      746F6B5F 
 4910      6C617374 
 4910      00
 4911              	.LASF125:
 4912 0b16 5F6D6272 		.ascii	"_mbrtowc_state\000"
 4912      746F7763 
 4912      5F737461 
 4912      746500
 4913              	.LASF246:
 4914 0b25 6D61696E 		.ascii	"mainthread\000"
 4914      74687265 
 4914      616400
 4915              	.LASF34:
 4916 0b30 5F666C6F 		.ascii	"_flock_t\000"
 4916      636B5F74 
 4916      00
 4917              	.LASF103:
 4918 0b39 5F5F4649 		.ascii	"__FILE\000"
 4918      4C4500
ARM GAS  /var/folders/d2/nstgp4h54kz7g1l847x_b8wc0000gn/T//ccEQVVt7.s 			page 96


 4919              	.LASF266:
 4920 0b40 62657374 		.ascii	"best\000"
 4920      00
 4921              	.LASF33:
 4922 0b45 5F6D6273 		.ascii	"_mbstate_t\000"
 4922      74617465 
 4922      5F7400
 4923              	.LASF219:
 4924 0b50 725F7175 		.ascii	"r_queue\000"
 4924      65756500 
 4925              	.LASF117:
 4926 0b58 5F723438 		.ascii	"_r48\000"
 4926      00
 4927              	.LASF28:
 4928 0b5d 77696E74 		.ascii	"wint_t\000"
 4928      5F7400
 4929              	.LASF38:
 4930 0b64 5F6E6578 		.ascii	"_next\000"
 4930      7400
 4931              	.LASF77:
 4932 0b6a 5F646174 		.ascii	"_data\000"
 4932      6100
 4933              	.LASF244:
 4934 0b70 726C6973 		.ascii	"rlist\000"
 4934      7400
 4935              	.LASF179:
 4936 0b76 746D6F64 		.ascii	"tmode_t\000"
 4936      655F7400 
 4937              	.LASF170:
 4938 0b7e 73745F6D 		.ascii	"st_mtime\000"
 4938      74696D65 
 4938      00
 4939              	.LASF235:
 4940 0b87 76745F73 		.ascii	"vt_systime\000"
 4940      79737469 
 4940      6D6500
 4941              	.LASF223:
 4942 0b92 725F6F6C 		.ascii	"r_older\000"
 4942      64657200 
 4943              	.LASF265:
 4944 0b9a 746D5F63 		.ascii	"tm_calibration_t\000"
 4944      616C6962 
 4944      72617469 
 4944      6F6E5F74 
 4944      00
 4945              	.LASF284:
 4946 0bab 735F7175 		.ascii	"s_queue\000"
 4946      65756500 
 4947              	.LASF118:
 4948 0bb3 5F6D626C 		.ascii	"_mblen_state\000"
 4948      656E5F73 
 4948      74617465 
 4948      00
 4949              	.LASF7:
 4950 0bc0 73686F72 		.ascii	"short int\000"
 4950      7420696E 
 4950      7400
ARM GAS  /var/folders/d2/nstgp4h54kz7g1l847x_b8wc0000gn/T//ccEQVVt7.s 			page 97


 4951              	.LASF144:
 4952 0bca 75696E74 		.ascii	"uint64_t\000"
 4952      36345F74 
 4952      00
 4953              	.LASF286:
 4954 0bd3 63685F6D 		.ascii	"ch_mutex\000"
 4954      75746578 
 4954      00
 4955              	.LASF137:
 4956 0bdc 7375626F 		.ascii	"suboptarg\000"
 4956      70746172 
 4956      6700
 4957              	.LASF56:
 4958 0be6 5F666E74 		.ascii	"_fntypes\000"
 4958      79706573 
 4958      00
 4959              	.LASF16:
 4960 0bef 5F5F696E 		.ascii	"__int_least64_t\000"
 4960      745F6C65 
 4960      61737436 
 4960      345F7400 
 4961              	.LASF325:
 4962 0bff 2F557365 		.ascii	"/Users/bharathkeshavamurthy/Workspaces/Talos/src/ma"
 4962      72732F62 
 4962      68617261 
 4962      74686B65 
 4962      73686176 
 4963 0c32 696E2F63 		.ascii	"in/cpp/org/purdue/ece/talos/optimize\000"
 4963      70702F6F 
 4963      72672F70 
 4963      75726475 
 4963      652F6563 
 4964              	.LASF237:
 4965 0c57 63685F73 		.ascii	"ch_system_debug\000"
 4965      79737465 
 4965      6D5F6465 
 4965      62756700 
 4966              	.LASF138:
 4967 0c67 5F737973 		.ascii	"_sys_errlist\000"
 4967      5F657272 
 4967      6C697374 
 4967      00
 4968              	.LASF49:
 4969 0c74 5F5F746D 		.ascii	"__tm_year\000"
 4969      5F796561 
 4969      7200
 4970              	.LASF301:
 4971 0c7e 63665F6F 		.ascii	"cf_off_older\000"
 4971      66665F6F 
 4971      6C646572 
 4971      00
 4972              	.LASF67:
 4973 0c8b 5F6C6266 		.ascii	"_lbfsize\000"
 4973      73697A65 
 4973      00
 4974              	.LASF245:
 4975 0c94 76746C69 		.ascii	"vtlist\000"
ARM GAS  /var/folders/d2/nstgp4h54kz7g1l847x_b8wc0000gn/T//ccEQVVt7.s 			page 98


 4975      737400
 4976              	.LASF86:
 4977 0c9b 5F696E63 		.ascii	"_inc\000"
 4977      00
 4978              	.LASF59:
 4979 0ca0 5F696E64 		.ascii	"_ind\000"
 4979      00
 4980              	.LASF322:
 4981 0ca5 63685379 		.ascii	"chSysHalt\000"
 4981      7348616C 
 4981      7400
 4982              	.LASF61:
 4983 0caf 5F5F7362 		.ascii	"__sbuf\000"
 4983      756600
 4984              	.LASF319:
 4985 0cb6 5F6C7365 		.ascii	"_lseek_r\000"
 4985      656B5F72 
 4985      00
 4986              	.LASF57:
 4987 0cbf 5F69735F 		.ascii	"_is_cxa\000"
 4987      63786100 
 4988              	.LASF17:
 4989 0cc7 5F4C4F43 		.ascii	"_LOCK_T\000"
 4989      4B5F5400 
 4990              	.LASF311:
 4991 0ccf 6D757465 		.ascii	"mutex_t\000"
 4991      785F7400 
 4992              	.LASF162:
 4993 0cd7 73745F6D 		.ascii	"st_mode\000"
 4993      6F646500 
 4994              	.LASF22:
 4995 0cdf 5F5F7569 		.ascii	"__uid_t\000"
 4995      645F7400 
 4996              	.LASF130:
 4997 0ce7 5F6E6578 		.ascii	"_nextf\000"
 4997      746600
 4998              	.LASF303:
 4999 0cee 63665F6F 		.ascii	"cf_off_stklimit\000"
 4999      66665F73 
 4999      746B6C69 
 4999      6D697400 
 5000              	.LASF147:
 5001 0cfe 626C6B73 		.ascii	"blksize_t\000"
 5001      697A655F 
 5001      7400
 5002              	.LASF243:
 5003 0d08 63685F73 		.ascii	"ch_system\000"
 5003      79737465 
 5003      6D00
 5004              	.LASF89:
 5005 0d12 5F6C6F63 		.ascii	"_locale\000"
 5005      616C6500 
 5006              	.LASF37:
 5007 0d1a 5F5F554C 		.ascii	"__ULong\000"
 5007      6F6E6700 
 5008              	.LASF143:
 5009 0d22 75696E74 		.ascii	"uint32_t\000"
ARM GAS  /var/folders/d2/nstgp4h54kz7g1l847x_b8wc0000gn/T//ccEQVVt7.s 			page 99


 5009      33325F74 
 5009      00
 5010              	.LASF92:
 5011 0d2b 5F726573 		.ascii	"_result\000"
 5011      756C7400 
 5012              	.LASF20:
 5013 0d33 5F6F6666 		.ascii	"_off_t\000"
 5013      5F7400
 5014              	.LASF276:
 5015 0d3a 7264796D 		.ascii	"rdymsg\000"
 5015      736700
 5016              	.LASF110:
 5017 0d41 5F616464 		.ascii	"_add\000"
 5017      00
 5018              	.LASF9:
 5019 0d46 73686F72 		.ascii	"short unsigned int\000"
 5019      7420756E 
 5019      7369676E 
 5019      65642069 
 5019      6E7400
 5020              	.LASF46:
 5021 0d59 5F5F746D 		.ascii	"__tm_hour\000"
 5021      5F686F75 
 5021      7200
 5022              	.LASF242:
 5023 0d63 63685F73 		.ascii	"ch_system_t\000"
 5023      79737465 
 5023      6D5F7400 
 5024              	.LASF309:
 5025 0d6f 63686465 		.ascii	"chdebug_t\000"
 5025      6275675F 
 5025      7400
 5026              	.LASF293:
 5027 0d79 63685F73 		.ascii	"ch_size\000"
 5027      697A6500 
 5028              	.LASF126:
 5029 0d81 5F6D6273 		.ascii	"_mbsrtowcs_state\000"
 5029      72746F77 
 5029      63735F73 
 5029      74617465 
 5029      00
 5030              	.LASF198:
 5031 0d92 705F7374 		.ascii	"p_stklimit\000"
 5031      6B6C696D 
 5031      697400
 5032              	.LASF10:
 5033 0d9d 5F5F696E 		.ascii	"__int32_t\000"
 5033      7433325F 
 5033      7400
 5034              	.LASF320:
 5035 0da7 5F726561 		.ascii	"_read_r\000"
 5035      645F7200 
 5036              	.LASF161:
 5037 0daf 73745F69 		.ascii	"st_ino\000"
 5037      6E6F00
 5038              	.LASF224:
 5039 0db6 725F6375 		.ascii	"r_current\000"
ARM GAS  /var/folders/d2/nstgp4h54kz7g1l847x_b8wc0000gn/T//ccEQVVt7.s 			page 100


 5039      7272656E 
 5039      7400
 5040              	.LASF35:
 5041 0dc0 5F5F6E6C 		.ascii	"__nlink_t\000"
 5041      696E6B5F 
 5041      7400
 5042              	.LASF54:
 5043 0dca 5F666E61 		.ascii	"_fnargs\000"
 5043      72677300 
 5044              	.LASF52:
 5045 0dd2 5F5F746D 		.ascii	"__tm_isdst\000"
 5045      5F697364 
 5045      737400
 5046              	.LASF255:
 5047 0ddd 73655F74 		.ascii	"se_time\000"
 5047      696D6500 
 5048              	.LASF197:
 5049 0de5 705F6E61 		.ascii	"p_name\000"
 5049      6D6500
 5050              	.LASF153:
 5051 0dec 6769645F 		.ascii	"gid_t\000"
 5051      7400
 5052              	.LASF289:
 5053 0df2 6D5F6E65 		.ascii	"m_next\000"
 5053      787400
 5054              	.LASF261:
 5055 0df9 74625F70 		.ascii	"tb_ptr\000"
 5055      747200
 5056              	.LASF45:
 5057 0e00 5F5F746D 		.ascii	"__tm_min\000"
 5057      5F6D696E 
 5057      00
 5058              	.LASF123:
 5059 0e09 5F676574 		.ascii	"_getdate_err\000"
 5059      64617465 
 5059      5F657272 
 5059      00
 5060              	.LASF280:
 5061 0e16 77747365 		.ascii	"wtsemp\000"
 5061      6D7000
 5062              	.LASF268:
 5063 0e1d 6C617374 		.ascii	"last\000"
 5063      00
 5064              	.LASF206:
 5065 0e22 705F6D73 		.ascii	"p_msg\000"
 5065      6700
 5066              	.LASF220:
 5067 0e28 725F7072 		.ascii	"r_prio\000"
 5067      696F00
 5068              	.LASF199:
 5069 0e2f 705F7374 		.ascii	"p_state\000"
 5069      61746500 
 5070              		.ident	"GCC: (GNU Tools for Arm Embedded Processors 7-2017-q4-major) 7.2.1 20170904 (release) [ARM
ARM GAS  /var/folders/d2/nstgp4h54kz7g1l847x_b8wc0000gn/T//ccEQVVt7.s 			page 101


DEFINED SYMBOLS
                            *ABS*:0000000000000000 newlib_syscalls.c
/var/folders/d2/nstgp4h54kz7g1l847x_b8wc0000gn/T//ccEQVVt7.s:18     .text._read_r:0000000000000000 $t
/var/folders/d2/nstgp4h54kz7g1l847x_b8wc0000gn/T//ccEQVVt7.s:26     .text._read_r:0000000000000000 _read_r
/var/folders/d2/nstgp4h54kz7g1l847x_b8wc0000gn/T//ccEQVVt7.s:69     .text._read_r:0000000000000024 $d
/var/folders/d2/nstgp4h54kz7g1l847x_b8wc0000gn/T//ccEQVVt7.s:74     .text._lseek_r:0000000000000000 $t
/var/folders/d2/nstgp4h54kz7g1l847x_b8wc0000gn/T//ccEQVVt7.s:82     .text._lseek_r:0000000000000000 _lseek_r
/var/folders/d2/nstgp4h54kz7g1l847x_b8wc0000gn/T//ccEQVVt7.s:120    .text._lseek_r:0000000000000020 $d
/var/folders/d2/nstgp4h54kz7g1l847x_b8wc0000gn/T//ccEQVVt7.s:125    .text._write_r:0000000000000000 $t
/var/folders/d2/nstgp4h54kz7g1l847x_b8wc0000gn/T//ccEQVVt7.s:133    .text._write_r:0000000000000000 _write_r
/var/folders/d2/nstgp4h54kz7g1l847x_b8wc0000gn/T//ccEQVVt7.s:171    .text._write_r:0000000000000020 $d
/var/folders/d2/nstgp4h54kz7g1l847x_b8wc0000gn/T//ccEQVVt7.s:176    .text._close_r:0000000000000000 $t
/var/folders/d2/nstgp4h54kz7g1l847x_b8wc0000gn/T//ccEQVVt7.s:184    .text._close_r:0000000000000000 _close_r
/var/folders/d2/nstgp4h54kz7g1l847x_b8wc0000gn/T//ccEQVVt7.s:220    .text._close_r:0000000000000020 $d
/var/folders/d2/nstgp4h54kz7g1l847x_b8wc0000gn/T//ccEQVVt7.s:225    .text._sbrk_r:0000000000000000 $t
/var/folders/d2/nstgp4h54kz7g1l847x_b8wc0000gn/T//ccEQVVt7.s:233    .text._sbrk_r:0000000000000000 _sbrk_r
/var/folders/d2/nstgp4h54kz7g1l847x_b8wc0000gn/T//ccEQVVt7.s:299    .text._sbrk_r:0000000000000038 $d
/var/folders/d2/nstgp4h54kz7g1l847x_b8wc0000gn/T//ccEQVVt7.s:305    .text._fstat_r:0000000000000000 $t
/var/folders/d2/nstgp4h54kz7g1l847x_b8wc0000gn/T//ccEQVVt7.s:313    .text._fstat_r:0000000000000000 _fstat_r
/var/folders/d2/nstgp4h54kz7g1l847x_b8wc0000gn/T//ccEQVVt7.s:365    .text._fstat_r:0000000000000030 $d
/var/folders/d2/nstgp4h54kz7g1l847x_b8wc0000gn/T//ccEQVVt7.s:370    .text._isatty_r:0000000000000000 $t
/var/folders/d2/nstgp4h54kz7g1l847x_b8wc0000gn/T//ccEQVVt7.s:378    .text._isatty_r:0000000000000000 _isatty_r
/var/folders/d2/nstgp4h54kz7g1l847x_b8wc0000gn/T//ccEQVVt7.s:414    .text._isatty_r:0000000000000020 $d
/var/folders/d2/nstgp4h54kz7g1l847x_b8wc0000gn/T//ccEQVVt7.s:419    .text._fini:0000000000000000 $t
/var/folders/d2/nstgp4h54kz7g1l847x_b8wc0000gn/T//ccEQVVt7.s:427    .text._fini:0000000000000000 _fini
/var/folders/d2/nstgp4h54kz7g1l847x_b8wc0000gn/T//ccEQVVt7.s:459    .text._fini:000000000000001c $d
/var/folders/d2/nstgp4h54kz7g1l847x_b8wc0000gn/T//ccEQVVt7.s:464    .rodata.__func__.8929:0000000000000000 $d
/var/folders/d2/nstgp4h54kz7g1l847x_b8wc0000gn/T//ccEQVVt7.s:468    .rodata.__func__.8929:0000000000000000 __func__.8929

UNDEFINED SYMBOLS
__stack_chk_fail
__stack_chk_guard
chCoreAlloc
chSysHalt
memset
