ARM GAS  /var/folders/d2/nstgp4h54kz7g1l847x_b8wc0000gn/T//ccEQVVt7.s 			page 1


   1              		.cpu cortex-m4
   2              		.eabi_attribute 27, 1
   3              		.eabi_attribute 28, 1
   4              		.eabi_attribute 20, 1
   5              		.eabi_attribute 21, 1
   6              		.eabi_attribute 23, 3
   7              		.eabi_attribute 24, 1
   8              		.eabi_attribute 25, 1
   9              		.eabi_attribute 26, 1
  10              		.eabi_attribute 30, 2
  11              		.eabi_attribute 34, 1
  12              		.eabi_attribute 18, 4
  13              		.file	"newlib_syscalls.c"
  14              		.text
  15              	.Ltext0:
  16              		.cfi_sections	.debug_frame
  17              		.section	.text._read_r,"ax",%progbits
  18              		.align	1
  19              		.p2align 4,,15
  20              		.global	_read_r
  21              		.syntax unified
  22              		.thumb
  23              		.thumb_func
  24              		.fpu fpv4-sp-d16
  25              		.type	_read_r, %function
  26              	_read_r:
  27              	.LFB219:
  28              		.file 1 "../e-puck2_main-processor/src/chibios-syscalls/newlib_syscalls.c"
  29              		.loc 1 16 0
  30              		.cfi_startproc
  31              		@ args = 0, pretend = 0, frame = 8
  32              		@ frame_needed = 0, uses_anonymous_args = 0
  33              	.LVL0:
  34 0000 00B5     		push	{lr}
  35              		.cfi_def_cfa_offset 4
  36              		.cfi_offset 14, -4
  37 0002 084B     		ldr	r3, .L6
  38              	.LVL1:
  39 0004 83B0     		sub	sp, sp, #12
  40              		.cfi_def_cfa_offset 16
  41              		.loc 1 16 0
  42 0006 1968     		ldr	r1, [r3]
  43              	.LVL2:
  44 0008 0191     		str	r1, [sp, #4]
  45              		.loc 1 29 0
  46 000a 1622     		movs	r2, #22
  47              	.LVL3:
  48 000c 0260     		str	r2, [r0]
  49              		.loc 1 32 0
  50 000e 019A     		ldr	r2, [sp, #4]
  51 0010 1B68     		ldr	r3, [r3]
  52 0012 9A42     		cmp	r2, r3
  53 0014 04D1     		bne	.L5
  54 0016 4FF0FF30 		mov	r0, #-1
  55              	.LVL4:
  56 001a 03B0     		add	sp, sp, #12
  57              		.cfi_remember_state
ARM GAS  /var/folders/d2/nstgp4h54kz7g1l847x_b8wc0000gn/T//ccEQVVt7.s 			page 2


  58              		.cfi_def_cfa_offset 4
  59              		@ sp needed
  60 001c 5DF804FB 		ldr	pc, [sp], #4
  61              	.LVL5:
  62              	.L5:
  63              		.cfi_restore_state
  64 0020 FFF7FEFF 		bl	__stack_chk_fail
  65              	.LVL6:
  66              	.L7:
  67              		.align	2
  68              	.L6:
  69 0024 00000000 		.word	__stack_chk_guard
  70              		.cfi_endproc
  71              	.LFE219:
  72              		.size	_read_r, .-_read_r
  73              		.section	.text._lseek_r,"ax",%progbits
  74              		.align	1
  75              		.p2align 4,,15
  76              		.global	_lseek_r
  77              		.syntax unified
  78              		.thumb
  79              		.thumb_func
  80              		.fpu fpv4-sp-d16
  81              		.type	_lseek_r, %function
  82              	_lseek_r:
  83              	.LFB220:
  84              		.loc 1 35 0
  85              		.cfi_startproc
  86              		@ args = 0, pretend = 0, frame = 8
  87              		@ frame_needed = 0, uses_anonymous_args = 0
  88              	.LVL7:
  89 0000 00B5     		push	{lr}
  90              		.cfi_def_cfa_offset 4
  91              		.cfi_offset 14, -4
  92 0002 074B     		ldr	r3, .L12
  93              	.LVL8:
  94 0004 83B0     		sub	sp, sp, #12
  95              		.cfi_def_cfa_offset 16
  96              		.loc 1 35 0
  97 0006 1A68     		ldr	r2, [r3]
  98              	.LVL9:
  99 0008 0192     		str	r2, [sp, #4]
 100              		.loc 1 42 0
 101 000a 019A     		ldr	r2, [sp, #4]
 102 000c 1B68     		ldr	r3, [r3]
 103 000e 9A42     		cmp	r2, r3
 104 0010 03D1     		bne	.L11
 105 0012 0020     		movs	r0, #0
 106              	.LVL10:
 107 0014 03B0     		add	sp, sp, #12
 108              		.cfi_remember_state
 109              		.cfi_def_cfa_offset 4
 110              		@ sp needed
 111 0016 5DF804FB 		ldr	pc, [sp], #4
 112              	.LVL11:
 113              	.L11:
 114              		.cfi_restore_state
ARM GAS  /var/folders/d2/nstgp4h54kz7g1l847x_b8wc0000gn/T//ccEQVVt7.s 			page 3


 115 001a FFF7FEFF 		bl	__stack_chk_fail
 116              	.LVL12:
 117              	.L13:
 118 001e 00BF     		.align	2
 119              	.L12:
 120 0020 00000000 		.word	__stack_chk_guard
 121              		.cfi_endproc
 122              	.LFE220:
 123              		.size	_lseek_r, .-_lseek_r
 124              		.section	.text._write_r,"ax",%progbits
 125              		.align	1
 126              		.p2align 4,,15
 127              		.global	_write_r
 128              		.syntax unified
 129              		.thumb
 130              		.thumb_func
 131              		.fpu fpv4-sp-d16
 132              		.type	_write_r, %function
 133              	_write_r:
 134              	.LFB221:
 135              		.loc 1 45 0
 136              		.cfi_startproc
 137              		@ args = 0, pretend = 0, frame = 8
 138              		@ frame_needed = 0, uses_anonymous_args = 0
 139              	.LVL13:
 140 0000 00B5     		push	{lr}
 141              		.cfi_def_cfa_offset 4
 142              		.cfi_offset 14, -4
 143 0002 074A     		ldr	r2, .L18
 144              	.LVL14:
 145 0004 83B0     		sub	sp, sp, #12
 146              		.cfi_def_cfa_offset 16
 147              		.loc 1 45 0
 148 0006 1168     		ldr	r1, [r2]
 149              	.LVL15:
 150 0008 0191     		str	r1, [sp, #4]
 151              		.loc 1 57 0
 152 000a 0199     		ldr	r1, [sp, #4]
 153 000c 1268     		ldr	r2, [r2]
 154 000e 9142     		cmp	r1, r2
 155 0010 03D1     		bne	.L17
 156 0012 1846     		mov	r0, r3
 157              	.LVL16:
 158 0014 03B0     		add	sp, sp, #12
 159              		.cfi_remember_state
 160              		.cfi_def_cfa_offset 4
 161              		@ sp needed
 162 0016 5DF804FB 		ldr	pc, [sp], #4
 163              	.LVL17:
 164              	.L17:
 165              		.cfi_restore_state
 166 001a FFF7FEFF 		bl	__stack_chk_fail
 167              	.LVL18:
 168              	.L19:
 169 001e 00BF     		.align	2
 170              	.L18:
 171 0020 00000000 		.word	__stack_chk_guard
ARM GAS  /var/folders/d2/nstgp4h54kz7g1l847x_b8wc0000gn/T//ccEQVVt7.s 			page 4


 172              		.cfi_endproc
 173              	.LFE221:
 174              		.size	_write_r, .-_write_r
 175              		.section	.text._close_r,"ax",%progbits
 176              		.align	1
 177              		.p2align 4,,15
 178              		.global	_close_r
 179              		.syntax unified
 180              		.thumb
 181              		.thumb_func
 182              		.fpu fpv4-sp-d16
 183              		.type	_close_r, %function
 184              	_close_r:
 185              	.LFB222:
 186              		.loc 1 60 0
 187              		.cfi_startproc
 188              		@ args = 0, pretend = 0, frame = 8
 189              		@ frame_needed = 0, uses_anonymous_args = 0
 190              	.LVL19:
 191 0000 00B5     		push	{lr}
 192              		.cfi_def_cfa_offset 4
 193              		.cfi_offset 14, -4
 194 0002 074B     		ldr	r3, .L24
 195 0004 83B0     		sub	sp, sp, #12
 196              		.cfi_def_cfa_offset 16
 197              		.loc 1 60 0
 198 0006 1A68     		ldr	r2, [r3]
 199 0008 0192     		str	r2, [sp, #4]
 200              		.loc 1 65 0
 201 000a 019A     		ldr	r2, [sp, #4]
 202 000c 1B68     		ldr	r3, [r3]
 203 000e 9A42     		cmp	r2, r3
 204 0010 03D1     		bne	.L23
 205 0012 0020     		movs	r0, #0
 206              	.LVL20:
 207 0014 03B0     		add	sp, sp, #12
 208              		.cfi_remember_state
 209              		.cfi_def_cfa_offset 4
 210              		@ sp needed
 211 0016 5DF804FB 		ldr	pc, [sp], #4
 212              	.LVL21:
 213              	.L23:
 214              		.cfi_restore_state
 215 001a FFF7FEFF 		bl	__stack_chk_fail
 216              	.LVL22:
 217              	.L25:
 218 001e 00BF     		.align	2
 219              	.L24:
 220 0020 00000000 		.word	__stack_chk_guard
 221              		.cfi_endproc
 222              	.LFE222:
 223              		.size	_close_r, .-_close_r
 224              		.section	.text._sbrk_r,"ax",%progbits
 225              		.align	1
 226              		.p2align 4,,15
 227              		.global	_sbrk_r
 228              		.syntax unified
ARM GAS  /var/folders/d2/nstgp4h54kz7g1l847x_b8wc0000gn/T//ccEQVVt7.s 			page 5


 229              		.thumb
 230              		.thumb_func
 231              		.fpu fpv4-sp-d16
 232              		.type	_sbrk_r, %function
 233              	_sbrk_r:
 234              	.LFB223:
 235              		.loc 1 68 0
 236              		.cfi_startproc
 237              		@ args = 0, pretend = 0, frame = 8
 238              		@ frame_needed = 0, uses_anonymous_args = 0
 239              	.LVL23:
 240 0000 70B5     		push	{r4, r5, r6, lr}
 241              		.cfi_def_cfa_offset 16
 242              		.cfi_offset 4, -16
 243              		.cfi_offset 5, -12
 244              		.cfi_offset 6, -8
 245              		.cfi_offset 14, -4
 246 0002 0D4C     		ldr	r4, .L33
 247 0004 82B0     		sub	sp, sp, #8
 248              		.cfi_def_cfa_offset 24
 249              		.loc 1 68 0
 250 0006 2368     		ldr	r3, [r4]
 251 0008 0193     		str	r3, [sp, #4]
 252              		.loc 1 72 0
 253 000a 0D1E     		subs	r5, r1, #0
 254              		.loc 1 68 0
 255 000c 0646     		mov	r6, r0
 256              		.loc 1 72 0
 257 000e 0DDD     		ble	.L31
 258              	.LVL24:
 259              	.L27:
 260              		.loc 1 74 0
 261 0010 2846     		mov	r0, r5
 262 0012 FFF7FEFF 		bl	chCoreAlloc
 263              	.LVL25:
 264              		.loc 1 75 0
 265 0016 18B9     		cbnz	r0, .L26
 266              		.loc 1 76 0
 267 0018 0C23     		movs	r3, #12
 268 001a 3360     		str	r3, [r6]
 269              		.loc 1 77 0
 270 001c 4FF0FF30 		mov	r0, #-1
 271              	.LVL26:
 272              	.L26:
 273              		.loc 1 85 0
 274 0020 019A     		ldr	r2, [sp, #4]
 275 0022 2368     		ldr	r3, [r4]
 276 0024 9A42     		cmp	r2, r3
 277 0026 05D1     		bne	.L32
 278 0028 02B0     		add	sp, sp, #8
 279              		.cfi_remember_state
 280              		.cfi_def_cfa_offset 16
 281              		@ sp needed
 282 002a 70BD     		pop	{r4, r5, r6, pc}
 283              	.LVL27:
 284              	.L31:
 285              		.cfi_restore_state
ARM GAS  /var/folders/d2/nstgp4h54kz7g1l847x_b8wc0000gn/T//ccEQVVt7.s 			page 6


 286              		.loc 1 72 0 discriminator 2
 287 002c 0348     		ldr	r0, .L33+4
 288              	.LVL28:
 289 002e FFF7FEFF 		bl	chSysHalt
 290              	.LVL29:
 291 0032 EDE7     		b	.L27
 292              	.L32:
 293              		.loc 1 85 0
 294 0034 FFF7FEFF 		bl	__stack_chk_fail
 295              	.LVL30:
 296              	.L34:
 297              		.align	2
 298              	.L33:
 299 0038 00000000 		.word	__stack_chk_guard
 300 003c 00000000 		.word	.LANCHOR0
 301              		.cfi_endproc
 302              	.LFE223:
 303              		.size	_sbrk_r, .-_sbrk_r
 304              		.section	.text._fstat_r,"ax",%progbits
 305              		.align	1
 306              		.p2align 4,,15
 307              		.global	_fstat_r
 308              		.syntax unified
 309              		.thumb
 310              		.thumb_func
 311              		.fpu fpv4-sp-d16
 312              		.type	_fstat_r, %function
 313              	_fstat_r:
 314              	.LFB224:
 315              		.loc 1 88 0
 316              		.cfi_startproc
 317              		@ args = 0, pretend = 0, frame = 8
 318              		@ frame_needed = 0, uses_anonymous_args = 0
 319              	.LVL31:
 320 0000 10B5     		push	{r4, lr}
 321              		.cfi_def_cfa_offset 8
 322              		.cfi_offset 4, -8
 323              		.cfi_offset 14, -4
 324 0002 0B4C     		ldr	r4, .L39
 325 0004 82B0     		sub	sp, sp, #8
 326              		.cfi_def_cfa_offset 16
 327              		.loc 1 88 0
 328 0006 1346     		mov	r3, r2
 329 0008 2268     		ldr	r2, [r4]
 330              	.LVL32:
 331 000a 0192     		str	r2, [sp, #4]
 332              		.loc 1 92 0
 333 000c 1846     		mov	r0, r3
 334              	.LVL33:
 335 000e 5822     		movs	r2, #88
 336 0010 0021     		movs	r1, #0
 337              	.LVL34:
 338 0012 FFF7FEFF 		bl	memset
 339              	.LVL35:
 340              		.loc 1 95 0
 341 0016 0199     		ldr	r1, [sp, #4]
 342 0018 2268     		ldr	r2, [r4]
ARM GAS  /var/folders/d2/nstgp4h54kz7g1l847x_b8wc0000gn/T//ccEQVVt7.s 			page 7


 343              		.loc 1 92 0
 344 001a 0346     		mov	r3, r0
 345              		.loc 1 95 0
 346 001c 9142     		cmp	r1, r2
 347              		.loc 1 93 0
 348 001e 4FF40050 		mov	r0, #8192
 349 0022 5860     		str	r0, [r3, #4]
 350              		.loc 1 95 0
 351 0024 02D1     		bne	.L38
 352 0026 0020     		movs	r0, #0
 353 0028 02B0     		add	sp, sp, #8
 354              		.cfi_remember_state
 355              		.cfi_def_cfa_offset 8
 356              		@ sp needed
 357 002a 10BD     		pop	{r4, pc}
 358              	.L38:
 359              		.cfi_restore_state
 360 002c FFF7FEFF 		bl	__stack_chk_fail
 361              	.LVL36:
 362              	.L40:
 363              		.align	2
 364              	.L39:
 365 0030 00000000 		.word	__stack_chk_guard
 366              		.cfi_endproc
 367              	.LFE224:
 368              		.size	_fstat_r, .-_fstat_r
 369              		.section	.text._isatty_r,"ax",%progbits
 370              		.align	1
 371              		.p2align 4,,15
 372              		.global	_isatty_r
 373              		.syntax unified
 374              		.thumb
 375              		.thumb_func
 376              		.fpu fpv4-sp-d16
 377              		.type	_isatty_r, %function
 378              	_isatty_r:
 379              	.LFB225:
 380              		.loc 1 98 0
 381              		.cfi_startproc
 382              		@ args = 0, pretend = 0, frame = 8
 383              		@ frame_needed = 0, uses_anonymous_args = 0
 384              	.LVL37:
 385 0000 00B5     		push	{lr}
 386              		.cfi_def_cfa_offset 4
 387              		.cfi_offset 14, -4
 388 0002 074B     		ldr	r3, .L45
 389 0004 83B0     		sub	sp, sp, #12
 390              		.cfi_def_cfa_offset 16
 391              		.loc 1 98 0
 392 0006 1A68     		ldr	r2, [r3]
 393 0008 0192     		str	r2, [sp, #4]
 394              		.loc 1 103 0
 395 000a 019A     		ldr	r2, [sp, #4]
 396 000c 1B68     		ldr	r3, [r3]
 397 000e 9A42     		cmp	r2, r3
 398 0010 03D1     		bne	.L44
 399 0012 0120     		movs	r0, #1
ARM GAS  /var/folders/d2/nstgp4h54kz7g1l847x_b8wc0000gn/T//ccEQVVt7.s 			page 8


 400              	.LVL38:
 401 0014 03B0     		add	sp, sp, #12
 402              		.cfi_remember_state
 403              		.cfi_def_cfa_offset 4
 404              		@ sp needed
 405 0016 5DF804FB 		ldr	pc, [sp], #4
 406              	.LVL39:
 407              	.L44:
 408              		.cfi_restore_state
 409 001a FFF7FEFF 		bl	__stack_chk_fail
 410              	.LVL40:
 411              	.L46:
 412 001e 00BF     		.align	2
 413              	.L45:
 414 0020 00000000 		.word	__stack_chk_guard
 415              		.cfi_endproc
 416              	.LFE225:
 417              		.size	_isatty_r, .-_isatty_r
 418              		.section	.text._fini,"ax",%progbits
 419              		.align	1
 420              		.p2align 4,,15
 421              		.global	_fini
 422              		.syntax unified
 423              		.thumb
 424              		.thumb_func
 425              		.fpu fpv4-sp-d16
 426              		.type	_fini, %function
 427              	_fini:
 428              	.LFB226:
 429              		.loc 1 107 0
 430              		.cfi_startproc
 431              		@ args = 0, pretend = 0, frame = 8
 432              		@ frame_needed = 0, uses_anonymous_args = 0
 433 0000 00B5     		push	{lr}
 434              		.cfi_def_cfa_offset 4
 435              		.cfi_offset 14, -4
 436 0002 064B     		ldr	r3, .L51
 437 0004 83B0     		sub	sp, sp, #12
 438              		.cfi_def_cfa_offset 16
 439              		.loc 1 107 0
 440 0006 1A68     		ldr	r2, [r3]
 441 0008 0192     		str	r2, [sp, #4]
 442              		.loc 1 109 0
 443 000a 019A     		ldr	r2, [sp, #4]
 444 000c 1B68     		ldr	r3, [r3]
 445 000e 9A42     		cmp	r2, r3
 446 0010 02D1     		bne	.L50
 447 0012 03B0     		add	sp, sp, #12
 448              		.cfi_remember_state
 449              		.cfi_def_cfa_offset 4
 450              		@ sp needed
 451 0014 5DF804FB 		ldr	pc, [sp], #4
 452              	.L50:
 453              		.cfi_restore_state
 454 0018 FFF7FEFF 		bl	__stack_chk_fail
 455              	.LVL41:
 456              	.L52:
ARM GAS  /var/folders/d2/nstgp4h54kz7g1l847x_b8wc0000gn/T//ccEQVVt7.s 			page 9


 457              		.align	2
 458              	.L51:
 459 001c 00000000 		.word	__stack_chk_guard
 460              		.cfi_endproc
 461              	.LFE226:
 462              		.size	_fini, .-_fini
 463              		.section	.rodata.__func__.8929,"a",%progbits
 464              		.align	2
 465              		.set	.LANCHOR0,. + 0
 466              		.type	__func__.8929, %object
 467              		.size	__func__.8929, 8
 468              	__func__.8929:
 469 0000 5F736272 		.ascii	"_sbrk_r\000"
 469      6B5F7200 
 470              		.text
 471              	.Letext0:
 472              		.file 2 "/Applications/Eclipse_e-puck2.app/Contents/Eclipse_e-puck2/Tools/gcc-arm-none-eabi-7-2017
 473              		.file 3 "/Applications/Eclipse_e-puck2.app/Contents/Eclipse_e-puck2/Tools/gcc-arm-none-eabi-7-2017
 474              		.file 4 "/Applications/Eclipse_e-puck2.app/Contents/Eclipse_e-puck2/Tools/gcc-arm-none-eabi-7-2017
 475              		.file 5 "/Applications/Eclipse_e-puck2.app/Contents/Eclipse_e-puck2/Tools/gcc-arm-none-eabi-7-2017
 476              		.file 6 "/Applications/Eclipse_e-puck2.app/Contents/Eclipse_e-puck2/Tools/gcc-arm-none-eabi-7-2017
 477              		.file 7 "/Applications/Eclipse_e-puck2.app/Contents/Eclipse_e-puck2/Tools/gcc-arm-none-eabi-7-2017
 478              		.file 8 "/Applications/Eclipse_e-puck2.app/Contents/Eclipse_e-puck2/Tools/gcc-arm-none-eabi-7-2017
 479              		.file 9 "/Applications/Eclipse_e-puck2.app/Contents/Eclipse_e-puck2/Tools/gcc-arm-none-eabi-7-2017
 480              		.file 10 "/Applications/Eclipse_e-puck2.app/Contents/Eclipse_e-puck2/Tools/gcc-arm-none-eabi-7-201
 481              		.file 11 "/Applications/Eclipse_e-puck2.app/Contents/Eclipse_e-puck2/Tools/gcc-arm-none-eabi-7-201
 482              		.file 12 "/Applications/Eclipse_e-puck2.app/Contents/Eclipse_e-puck2/Tools/gcc-arm-none-eabi-7-201
 483              		.file 13 "/Applications/Eclipse_e-puck2.app/Contents/Eclipse_e-puck2/Tools/gcc-arm-none-eabi-7-201
 484              		.file 14 "../e-puck2_main-processor/ChibiOS//os/rt/ports/ARMCMx/compilers/GCC/chtypes.h"
 485              		.file 15 "../e-puck2_main-processor/ChibiOS//os/rt/include/chsystypes.h"
 486              		.file 16 "../e-puck2_main-processor/ChibiOS//os/rt/include/chschd.h"
 487              		.file 17 "../e-puck2_main-processor/ChibiOS//os/ext/CMSIS/include/core_cm4.h"
 488              		.file 18 "../e-puck2_main-processor/ChibiOS//os/ext/CMSIS/ST/system_stm32f4xx.h"
 489              		.file 19 "../e-puck2_main-processor/ChibiOS//os/rt/ports/ARMCMx/chcore.h"
 490              		.file 20 "../e-puck2_main-processor/ChibiOS//os/rt/ports/ARMCMx/chcore_v7m.h"
 491              		.file 21 "../e-puck2_main-processor/ChibiOS//os/rt/include/chdebug.h"
 492              		.file 22 "../e-puck2_main-processor/ChibiOS//os/rt/include/chtm.h"
 493              		.file 23 "../e-puck2_main-processor/ChibiOS//os/rt/include/chstats.h"
 494              		.file 24 "../e-puck2_main-processor/ChibiOS//os/rt/include/chsem.h"
 495              		.file 25 "../e-puck2_main-processor/ChibiOS//os/rt/include/chmtx.h"
 496              		.file 26 "../e-puck2_main-processor/ChibiOS//os/rt/include/chregistry.h"
 497              		.file 27 "../e-puck2_main-processor/ChibiOS//os/rt/include/chmemcore.h"
 498              		.file 28 "../e-puck2_main-processor/ChibiOS//os/rt/include/chsys.h"
 499              		.file 29 "<built-in>"