ARM GAS  /var/folders/d2/nstgp4h54kz7g1l847x_b8wc0000gn/T//ccTH2KOE.s 			page 1


   1              		.cpu cortex-m4
   2              		.eabi_attribute 27, 1
   3              		.eabi_attribute 28, 1
   4              		.eabi_attribute 20, 1
   5              		.eabi_attribute 21, 1
   6              		.eabi_attribute 23, 3
   7              		.eabi_attribute 24, 1
   8              		.eabi_attribute 25, 1
   9              		.eabi_attribute 26, 1
  10              		.eabi_attribute 30, 6
  11              		.eabi_attribute 34, 1
  12              		.eabi_attribute 18, 4
  13              		.file	"nvic.c"
  14              		.section	.text.nvicEnableVector,"ax",%progbits
  15              		.align	1
  16              		.global	nvicEnableVector
  17              		.syntax unified
  18              		.thumb
  19              		.thumb_func
  20              		.fpu fpv4-sp-d16
  21              		.type	nvicEnableVector, %function
  22              	nvicEnableVector:
  23              		@ args = 0, pretend = 0, frame = 8
  24              		@ frame_needed = 1, uses_anonymous_args = 0
  25              		@ link register save eliminated.
  26 0000 80B4     		push	{r7}
  27 0002 83B0     		sub	sp, sp, #12
  28 0004 00AF     		add	r7, sp, #0
  29 0006 7860     		str	r0, [r7, #4]
  30 0008 3960     		str	r1, [r7]
  31 000a 3B68     		ldr	r3, [r7]
  32 000c DBB2     		uxtb	r3, r3
  33 000e 134A     		ldr	r2, .L2
  34 0010 1B01     		lsls	r3, r3, #4
  35 0012 D9B2     		uxtb	r1, r3
  36 0014 7B68     		ldr	r3, [r7, #4]
  37 0016 1344     		add	r3, r3, r2
  38 0018 03F54073 		add	r3, r3, #768
  39 001c 0A46     		mov	r2, r1
  40 001e 1A70     		strb	r2, [r3]
  41 0020 7B68     		ldr	r3, [r7, #4]
  42 0022 03F01F03 		and	r3, r3, #31
  43 0026 0122     		movs	r2, #1
  44 0028 02FA03F1 		lsl	r1, r2, r3
  45 002c 0B4A     		ldr	r2, .L2
  46 002e 7B68     		ldr	r3, [r7, #4]
  47 0030 5B09     		lsrs	r3, r3, #5
  48 0032 6033     		adds	r3, r3, #96
  49 0034 42F82310 		str	r1, [r2, r3, lsl #2]
  50 0038 7B68     		ldr	r3, [r7, #4]
  51 003a 03F01F03 		and	r3, r3, #31
  52 003e 0122     		movs	r2, #1
  53 0040 02FA03F1 		lsl	r1, r2, r3
  54 0044 054A     		ldr	r2, .L2
  55 0046 7B68     		ldr	r3, [r7, #4]
  56 0048 5B09     		lsrs	r3, r3, #5
  57 004a 42F82310 		str	r1, [r2, r3, lsl #2]
ARM GAS  /var/folders/d2/nstgp4h54kz7g1l847x_b8wc0000gn/T//ccTH2KOE.s 			page 2


  58 004e 00BF     		nop
  59 0050 0C37     		adds	r7, r7, #12
  60 0052 BD46     		mov	sp, r7
  61              		@ sp needed
  62 0054 5DF8047B 		ldr	r7, [sp], #4
  63 0058 7047     		bx	lr
  64              	.L3:
  65 005a 00BF     		.align	2
  66              	.L2:
  67 005c 00E100E0 		.word	-536813312
  68              		.size	nvicEnableVector, .-nvicEnableVector
  69              		.section	.text.nvicDisableVector,"ax",%progbits
  70              		.align	1
  71              		.global	nvicDisableVector
  72              		.syntax unified
  73              		.thumb
  74              		.thumb_func
  75              		.fpu fpv4-sp-d16
  76              		.type	nvicDisableVector, %function
  77              	nvicDisableVector:
  78              		@ args = 0, pretend = 0, frame = 8
  79              		@ frame_needed = 1, uses_anonymous_args = 0
  80              		@ link register save eliminated.
  81 0000 80B4     		push	{r7}
  82 0002 83B0     		sub	sp, sp, #12
  83 0004 00AF     		add	r7, sp, #0
  84 0006 7860     		str	r0, [r7, #4]
  85 0008 7B68     		ldr	r3, [r7, #4]
  86 000a 03F01F03 		and	r3, r3, #31
  87 000e 0122     		movs	r2, #1
  88 0010 02FA03F1 		lsl	r1, r2, r3
  89 0014 094A     		ldr	r2, .L5
  90 0016 7B68     		ldr	r3, [r7, #4]
  91 0018 5B09     		lsrs	r3, r3, #5
  92 001a 2033     		adds	r3, r3, #32
  93 001c 42F82310 		str	r1, [r2, r3, lsl #2]
  94 0020 064A     		ldr	r2, .L5
  95 0022 7B68     		ldr	r3, [r7, #4]
  96 0024 1344     		add	r3, r3, r2
  97 0026 03F54073 		add	r3, r3, #768
  98 002a 0022     		movs	r2, #0
  99 002c 1A70     		strb	r2, [r3]
 100 002e 00BF     		nop
 101 0030 0C37     		adds	r7, r7, #12
 102 0032 BD46     		mov	sp, r7
 103              		@ sp needed
 104 0034 5DF8047B 		ldr	r7, [sp], #4
 105 0038 7047     		bx	lr
 106              	.L6:
 107 003a 00BF     		.align	2
 108              	.L5:
 109 003c 00E100E0 		.word	-536813312
 110              		.size	nvicDisableVector, .-nvicDisableVector
 111              		.section	.text.nvicSetSystemHandlerPriority,"ax",%progbits
 112              		.align	1
 113              		.global	nvicSetSystemHandlerPriority
 114              		.syntax unified
ARM GAS  /var/folders/d2/nstgp4h54kz7g1l847x_b8wc0000gn/T//ccTH2KOE.s 			page 3


 115              		.thumb
 116              		.thumb_func
 117              		.fpu fpv4-sp-d16
 118              		.type	nvicSetSystemHandlerPriority, %function
 119              	nvicSetSystemHandlerPriority:
 120              		@ args = 0, pretend = 0, frame = 8
 121              		@ frame_needed = 1, uses_anonymous_args = 0
 122 0000 80B5     		push	{r7, lr}
 123 0002 82B0     		sub	sp, sp, #8
 124 0004 00AF     		add	r7, sp, #0
 125 0006 7860     		str	r0, [r7, #4]
 126 0008 3960     		str	r1, [r7]
 127 000a 7B68     		ldr	r3, [r7, #4]
 128 000c 0C2B     		cmp	r3, #12
 129 000e 02D9     		bls	.L8
 130 0010 0848     		ldr	r0, .L9
 131 0012 FFF7FEFF 		bl	chSysHalt
 132              	.L8:
 133 0016 3B68     		ldr	r3, [r7]
 134 0018 DBB2     		uxtb	r3, r3
 135 001a 074A     		ldr	r2, .L9+4
 136 001c 1B01     		lsls	r3, r3, #4
 137 001e D9B2     		uxtb	r1, r3
 138 0020 7B68     		ldr	r3, [r7, #4]
 139 0022 1344     		add	r3, r3, r2
 140 0024 1833     		adds	r3, r3, #24
 141 0026 0A46     		mov	r2, r1
 142 0028 1A70     		strb	r2, [r3]
 143 002a 00BF     		nop
 144 002c 0837     		adds	r7, r7, #8
 145 002e BD46     		mov	sp, r7
 146              		@ sp needed
 147 0030 80BD     		pop	{r7, pc}
 148              	.L10:
 149 0032 00BF     		.align	2
 150              	.L9:
 151 0034 00000000 		.word	__func__.9849
 152 0038 00ED00E0 		.word	-536810240
 153              		.size	nvicSetSystemHandlerPriority, .-nvicSetSystemHandlerPriority
 154              		.section	.text.nvicClearPending,"ax",%progbits
 155              		.align	1
 156              		.global	nvicClearPending
 157              		.syntax unified
 158              		.thumb
 159              		.thumb_func
 160              		.fpu fpv4-sp-d16
 161              		.type	nvicClearPending, %function
 162              	nvicClearPending:
 163              		@ args = 0, pretend = 0, frame = 8
 164              		@ frame_needed = 1, uses_anonymous_args = 0
 165              		@ link register save eliminated.
 166 0000 80B4     		push	{r7}
 167 0002 83B0     		sub	sp, sp, #12
 168 0004 00AF     		add	r7, sp, #0
 169 0006 7860     		str	r0, [r7, #4]
 170 0008 7B68     		ldr	r3, [r7, #4]
 171 000a 03F01F03 		and	r3, r3, #31
ARM GAS  /var/folders/d2/nstgp4h54kz7g1l847x_b8wc0000gn/T//ccTH2KOE.s 			page 4


 172 000e 0122     		movs	r2, #1
 173 0010 02FA03F1 		lsl	r1, r2, r3
 174 0014 054A     		ldr	r2, .L12
 175 0016 7B68     		ldr	r3, [r7, #4]
 176 0018 5B09     		lsrs	r3, r3, #5
 177 001a 6033     		adds	r3, r3, #96
 178 001c 42F82310 		str	r1, [r2, r3, lsl #2]
 179 0020 00BF     		nop
 180 0022 0C37     		adds	r7, r7, #12
 181 0024 BD46     		mov	sp, r7
 182              		@ sp needed
 183 0026 5DF8047B 		ldr	r7, [sp], #4
 184 002a 7047     		bx	lr
 185              	.L13:
 186              		.align	2
 187              	.L12:
 188 002c 00E100E0 		.word	-536813312
 189              		.size	nvicClearPending, .-nvicClearPending
 190              		.section	.rodata.__func__.9849,"a",%progbits
 191              		.align	2
 192              		.type	__func__.9849, %object
 193              		.size	__func__.9849, 29
 194              	__func__.9849:
 195 0000 6E766963 		.ascii	"nvicSetSystemHandlerPriority\000"
 195      53657453 
 195      79737465 
 195      6D48616E 
 195      646C6572 
 196              		.ident	"GCC: (GNU Tools for Arm Embedded Processors 7-2017-q4-major) 7.2.1 20170904 (release) [ARM
ARM GAS  /var/folders/d2/nstgp4h54kz7g1l847x_b8wc0000gn/T//ccTH2KOE.s 			page 5

