ARM GAS  /var/folders/d2/nstgp4h54kz7g1l847x_b8wc0000gn/T//ccBxDR0r.s 			page 1


   1              		.cpu cortex-m4
   2              		.eabi_attribute 27, 1
   3              		.eabi_attribute 28, 1
   4              		.eabi_attribute 20, 1
   5              		.eabi_attribute 21, 1
   6              		.eabi_attribute 23, 3
   7              		.eabi_attribute 24, 1
   8              		.eabi_attribute 25, 1
   9              		.eabi_attribute 26, 1
  10              		.eabi_attribute 30, 2
  11              		.eabi_attribute 34, 1
  12              		.eabi_attribute 18, 4
  13              		.file	"parameter_print.c"
  14              		.text
  15              	.Ltext0:
  16              		.cfi_sections	.debug_frame
  17              		.global	__aeabi_f2d
  18              		.section	.text.print_array,"ax",%progbits
  19              		.align	1
  20              		.p2align 4,,15
  21              		.syntax unified
  22              		.thumb
  23              		.thumb_func
  24              		.fpu fpv4-sp-d16
  25              		.type	print_array, %function
  26              	print_array:
  27              	.LFB1:
  28              		.file 1 "../e-puck2_main-processor/src/parameter/parameter_print.c"
  29              		.loc 1 22 0
  30              		.cfi_startproc
  31              		@ args = 0, pretend = 0, frame = 8
  32              		@ frame_needed = 0, uses_anonymous_args = 0
  33              	.LVL0:
  34 0000 2DE9F04F 		push	{r4, r5, r6, r7, r8, r9, r10, fp, lr}
  35              		.cfi_def_cfa_offset 36
  36              		.cfi_offset 4, -36
  37              		.cfi_offset 5, -32
  38              		.cfi_offset 6, -28
  39              		.cfi_offset 7, -24
  40              		.cfi_offset 8, -20
  41              		.cfi_offset 9, -16
  42              		.cfi_offset 10, -12
  43              		.cfi_offset 11, -8
  44              		.cfi_offset 14, -4
  45 0004 DFF86CB0 		ldr	fp, .L15+12
  46 0008 83B0     		sub	sp, sp, #12
  47              		.cfi_def_cfa_offset 48
  48              		.loc 1 22 0
  49 000a 1F46     		mov	r7, r3
  50 000c DBF80030 		ldr	r3, [fp]
  51              	.LVL1:
  52 0010 0193     		str	r3, [sp, #4]
  53 0012 8846     		mov	r8, r1
  54 0014 0546     		mov	r5, r0
  55              		.loc 1 23 0
  56 0016 1449     		ldr	r1, .L15
  57              	.LVL2:
ARM GAS  /var/folders/d2/nstgp4h54kz7g1l847x_b8wc0000gn/T//ccBxDR0r.s 			page 2


  58 0018 3846     		mov	r0, r7
  59              	.LVL3:
  60              		.loc 1 22 0
  61 001a 1646     		mov	r6, r2
  62              		.loc 1 23 0
  63 001c 9047     		blx	r2
  64              	.LVL4:
  65              		.loc 1 25 0
  66 001e B8F1000F 		cmp	r8, #0
  67 0022 13D0     		beq	.L2
  68              		.loc 1 29 0
  69 0024 DFF850A0 		ldr	r10, .L15+16
  70 0028 08F1FF39 		add	r9, r8, #-1
  71              		.loc 1 25 0
  72 002c 0024     		movs	r4, #0
  73              	.LVL5:
  74              	.L5:
  75 002e 55F8040B 		ldr	r0, [r5], #4	@ float
  76 0032 FFF7FEFF 		bl	__aeabi_f2d
  77              	.LVL6:
  78              		.loc 1 26 0
  79 0036 4C45     		cmp	r4, r9
  80              		.loc 1 27 0
  81 0038 0B46     		mov	r3, r1
  82 003a 0246     		mov	r2, r0
  83 003c 0CBF     		ite	eq
  84 003e 0B49     		ldreq	r1, .L15+4
  85              		.loc 1 29 0
  86 0040 5146     		movne	r1, r10
  87 0042 3846     		mov	r0, r7
  88              		.loc 1 25 0
  89 0044 0134     		adds	r4, r4, #1
  90              	.LVL7:
  91              		.loc 1 29 0
  92 0046 B047     		blx	r6
  93              	.LVL8:
  94              		.loc 1 25 0
  95 0048 A045     		cmp	r8, r4
  96 004a F0D1     		bne	.L5
  97              	.LVL9:
  98              	.L2:
  99              		.loc 1 32 0
 100 004c 019A     		ldr	r2, [sp, #4]
 101 004e DBF80030 		ldr	r3, [fp]
 102 0052 9A42     		cmp	r2, r3
 103 0054 06D1     		bne	.L14
 104 0056 0649     		ldr	r1, .L15+8
 105 0058 3846     		mov	r0, r7
 106 005a 3346     		mov	r3, r6
 107              		.loc 1 33 0
 108 005c 03B0     		add	sp, sp, #12
 109              		.cfi_remember_state
 110              		.cfi_def_cfa_offset 36
 111              		@ sp needed
 112 005e BDE8F04F 		pop	{r4, r5, r6, r7, r8, r9, r10, fp, lr}
 113              		.cfi_restore 14
 114              		.cfi_restore 11
ARM GAS  /var/folders/d2/nstgp4h54kz7g1l847x_b8wc0000gn/T//ccBxDR0r.s 			page 3


 115              		.cfi_restore 10
 116              		.cfi_restore 9
 117              		.cfi_restore 8
 118              		.cfi_restore 7
 119              		.cfi_restore 6
 120              		.cfi_restore 5
 121              		.cfi_restore 4
 122              		.cfi_def_cfa_offset 0
 123              	.LVL10:
 124              		.loc 1 32 0
 125 0062 1847     		bx	r3
 126              	.LVL11:
 127              	.L14:
 128              		.cfi_restore_state
 129 0064 FFF7FEFF 		bl	__stack_chk_fail
 130              	.LVL12:
 131              	.L16:
 132              		.align	2
 133              	.L15:
 134 0068 00000000 		.word	.LC0
 135 006c 04000000 		.word	.LC1
 136 0070 10000000 		.word	.LC3
 137 0074 00000000 		.word	__stack_chk_guard
 138 0078 08000000 		.word	.LC2
 139              		.cfi_endproc
 140              	.LFE1:
 141              		.size	print_array, .-print_array
 142              		.section	.text.param_ns_print.isra.0,"ax",%progbits
 143              		.align	1
 144              		.p2align 4,,15
 145              		.syntax unified
 146              		.thumb
 147              		.thumb_func
 148              		.fpu fpv4-sp-d16
 149              		.type	param_ns_print.isra.0, %function
 150              	param_ns_print.isra.0:
 151              	.LFB5:
 152              		.loc 1 100 0
 153              		.cfi_startproc
 154              		@ args = 4, pretend = 0, frame = 16
 155              		@ frame_needed = 0, uses_anonymous_args = 0
 156              	.LVL13:
 157 0000 2DE9F04F 		push	{r4, r5, r6, r7, r8, r9, r10, fp, lr}
 158              		.cfi_def_cfa_offset 36
 159              		.cfi_offset 4, -36
 160              		.cfi_offset 5, -32
 161              		.cfi_offset 6, -28
 162              		.cfi_offset 7, -24
 163              		.cfi_offset 8, -20
 164              		.cfi_offset 9, -16
 165              		.cfi_offset 10, -12
 166              		.cfi_offset 11, -8
 167              		.cfi_offset 14, -4
 168 0004 684C     		ldr	r4, .L65
 169 0006 87B0     		sub	sp, sp, #28
 170              		.cfi_def_cfa_offset 64
 171              		.loc 1 100 0
ARM GAS  /var/folders/d2/nstgp4h54kz7g1l847x_b8wc0000gn/T//ccBxDR0r.s 			page 4


 172 0008 2468     		ldr	r4, [r4]
 173 000a 0594     		str	r4, [sp, #20]
 174              	.LVL14:
 175 000c 109D     		ldr	r5, [sp, #64]
 176 000e 8346     		mov	fp, r0
 177 0010 1646     		mov	r6, r2
 178 0012 1C46     		mov	r4, r3
 179              		.loc 1 106 0
 180 0014 01B3     		cbz	r1, .L19
 181              	.LBB20:
 182              	.LBB21:
 183              	.LBB22:
 184              	.LBB23:
 185              		.loc 1 13 0
 186 0016 654F     		ldr	r7, .L65+4
 187              	.LBE23:
 188              	.LBE22:
 189              		.loc 1 42 0
 190 0018 DFF8BC91 		ldr	r9, .L65+48
 191 001c 8846     		mov	r8, r1
 192              	.LVL15:
 193              	.L18:
 194              	.LBB25:
 195              	.LBB24:
 196              		.loc 1 12 0
 197 001e 002E     		cmp	r6, #0
 198 0020 08DD     		ble	.L33
 199 0022 4FF0000A 		mov	r10, #0
 200              	.LVL16:
 201              	.L20:
 202 0026 0AF1010A 		add	r10, r10, #1
 203              	.LVL17:
 204              		.loc 1 13 0
 205 002a 3946     		mov	r1, r7
 206 002c 2846     		mov	r0, r5
 207 002e A047     		blx	r4
 208              	.LVL18:
 209              		.loc 1 12 0
 210 0030 5645     		cmp	r6, r10
 211 0032 F8D1     		bne	.L20
 212              	.LVL19:
 213              	.L33:
 214              	.LBE24:
 215              	.LBE25:
 216              		.loc 1 42 0
 217 0034 D8F80020 		ldr	r2, [r8]
 218 0038 4946     		mov	r1, r9
 219 003a 2846     		mov	r0, r5
 220 003c A047     		blx	r4
 221              	.LVL20:
 222              		.loc 1 43 0
 223 003e 4046     		mov	r0, r8
 224 0040 FFF7FEFF 		bl	parameter_defined
 225              	.LVL21:
 226 0044 0028     		cmp	r0, #0
 227 0046 32D1     		bne	.L21
 228              		.loc 1 44 0
ARM GAS  /var/folders/d2/nstgp4h54kz7g1l847x_b8wc0000gn/T//ccBxDR0r.s 			page 5


 229 0048 5949     		ldr	r1, .L65+8
 230 004a 2846     		mov	r0, r5
 231 004c A047     		blx	r4
 232              	.LVL22:
 233              	.L22:
 234              	.LBE21:
 235              	.LBE20:
 236              		.loc 1 108 0
 237 004e D8F80880 		ldr	r8, [r8, #8]
 238              	.LVL23:
 239              		.loc 1 106 0
 240 0052 B8F1000F 		cmp	r8, #0
 241 0056 E2D1     		bne	.L18
 242              	.LVL24:
 243              	.L19:
 244              		.loc 1 110 0
 245 0058 DBF80070 		ldr	r7, [fp]
 246              	.LVL25:
 247              		.loc 1 111 0
 248 005c FFB1     		cbz	r7, .L17
 249              	.LBB33:
 250              	.LBB34:
 251              		.loc 1 13 0
 252 005e DFF84C81 		ldr	r8, .L65+4
 253              	.LBE34:
 254              	.LBE33:
 255              		.loc 1 113 0
 256 0062 DFF87891 		ldr	r9, .L65+52
 257 0066 06F1010A 		add	r10, r6, #1
 258              	.L35:
 259              	.LVL26:
 260              	.LBB36:
 261              	.LBB35:
 262              		.loc 1 12 0
 263 006a 002E     		cmp	r6, #0
 264 006c 08DD     		ble	.L37
 265 006e 4FF0000B 		mov	fp, #0
 266              	.LVL27:
 267              	.L36:
 268 0072 0BF1010B 		add	fp, fp, #1
 269              	.LVL28:
 270              		.loc 1 13 0
 271 0076 4146     		mov	r1, r8
 272 0078 2846     		mov	r0, r5
 273 007a A047     		blx	r4
 274              	.LVL29:
 275              		.loc 1 12 0
 276 007c 5E45     		cmp	r6, fp
 277 007e F8D1     		bne	.L36
 278              	.LVL30:
 279              	.L37:
 280              	.LBE35:
 281              	.LBE36:
 282              		.loc 1 113 0
 283 0080 3A68     		ldr	r2, [r7]
 284 0082 4946     		mov	r1, r9
 285 0084 2846     		mov	r0, r5
ARM GAS  /var/folders/d2/nstgp4h54kz7g1l847x_b8wc0000gn/T//ccBxDR0r.s 			page 6


 286 0086 A047     		blx	r4
 287              	.LVL31:
 288              		.loc 1 114 0
 289 0088 7969     		ldr	r1, [r7, #20]
 290 008a 0095     		str	r5, [sp]
 291 008c 07F10C00 		add	r0, r7, #12
 292 0090 2346     		mov	r3, r4
 293 0092 5246     		mov	r2, r10
 294 0094 FFF7B4FF 		bl	param_ns_print.isra.0
 295              	.LVL32:
 296              		.loc 1 115 0
 297 0098 3F69     		ldr	r7, [r7, #16]
 298              	.LVL33:
 299              		.loc 1 111 0
 300 009a 002F     		cmp	r7, #0
 301 009c E5D1     		bne	.L35
 302              	.L17:
 303              		.loc 1 117 0
 304 009e 424B     		ldr	r3, .L65
 305 00a0 059A     		ldr	r2, [sp, #20]
 306 00a2 1B68     		ldr	r3, [r3]
 307 00a4 9A42     		cmp	r2, r3
 308 00a6 7DD1     		bne	.L62
 309 00a8 07B0     		add	sp, sp, #28
 310              		.cfi_remember_state
 311              		.cfi_def_cfa_offset 36
 312              		@ sp needed
 313 00aa BDE8F08F 		pop	{r4, r5, r6, r7, r8, r9, r10, fp, pc}
 314              	.LVL34:
 315              	.L21:
 316              		.cfi_restore_state
 317              	.LBB37:
 318              	.LBB32:
 319              		.loc 1 47 0
 320 00ae 98F80E30 		ldrb	r3, [r8, #14]	@ zero_extendqisi2
 321 00b2 013B     		subs	r3, r3, #1
 322 00b4 052B     		cmp	r3, #5
 323 00b6 CAD8     		bhi	.L22
 324 00b8 DFE803F0 		tbb	[pc, r3]
 325              	.L24:
 326 00bc 11       		.byte	(.L23-.L24)/2
 327 00bd 1E       		.byte	(.L25-.L24)/2
 328 00be 2A       		.byte	(.L26-.L24)/2
 329 00bf 32       		.byte	(.L27-.L24)/2
 330 00c0 3E       		.byte	(.L28-.L24)/2
 331 00c1 03       		.byte	(.L29-.L24)/2
 332              		.p2align 1
 333              	.L29:
 334              	.LBB26:
 335              		.loc 1 85 0
 336 00c2 4046     		mov	r0, r8
 337 00c4 FFF7FEFF 		bl	parameter_variable_vector_max_dim
 338              	.LVL35:
 339              		.loc 1 86 0
 340 00c8 8000     		lsls	r0, r0, #2
 341              	.LVL36:
 342 00ca FFF7FEFF 		bl	malloc
ARM GAS  /var/folders/d2/nstgp4h54kz7g1l847x_b8wc0000gn/T//ccBxDR0r.s 			page 7


 343              	.LVL37:
 344              		.loc 1 87 0
 345 00ce 8246     		mov	r10, r0
 346 00d0 0028     		cmp	r0, #0
 347 00d2 59D1     		bne	.L63
 348              	.LVL38:
 349              	.L32:
 350              	.LBE26:
 351              	.LBB27:
 352              		.loc 1 80 0
 353 00d4 374A     		ldr	r2, .L65+12
 354 00d6 3849     		ldr	r1, .L65+16
 355 00d8 2846     		mov	r0, r5
 356 00da A047     		blx	r4
 357              	.LVL39:
 358 00dc B7E7     		b	.L22
 359              	.L23:
 360              	.LBE27:
 361              		.loc 1 49 0
 362 00de 4046     		mov	r0, r8
 363 00e0 FFF7FEFF 		bl	parameter_scalar_read
 364              	.LVL40:
 365 00e4 10EE100A 		vmov	r0, s0
 366 00e8 FFF7FEFF 		bl	__aeabi_f2d
 367              	.LVL41:
 368 00ec 0246     		mov	r2, r0
 369 00ee 0B46     		mov	r3, r1
 370 00f0 2846     		mov	r0, r5
 371 00f2 3249     		ldr	r1, .L65+20
 372 00f4 A047     		blx	r4
 373              	.LVL42:
 374 00f6 AAE7     		b	.L22
 375              	.L25:
 376              		.loc 1 57 0
 377 00f8 4046     		mov	r0, r8
 378 00fa FFF7FEFF 		bl	parameter_boolean_read
 379              	.LVL43:
 380 00fe 304B     		ldr	r3, .L65+24
 381 0100 304A     		ldr	r2, .L65+28
 382 0102 3149     		ldr	r1, .L65+32
 383 0104 0028     		cmp	r0, #0
 384 0106 18BF     		it	ne
 385 0108 1A46     		movne	r2, r3
 386 010a 2846     		mov	r0, r5
 387 010c A047     		blx	r4
 388              	.LVL44:
 389 010e 9EE7     		b	.L22
 390              	.L26:
 391              		.loc 1 53 0
 392 0110 4046     		mov	r0, r8
 393 0112 FFF7FEFF 		bl	parameter_integer_read
 394              	.LVL45:
 395 0116 2D49     		ldr	r1, .L65+36
 396 0118 0246     		mov	r2, r0
 397 011a 2846     		mov	r0, r5
 398 011c A047     		blx	r4
 399              	.LVL46:
ARM GAS  /var/folders/d2/nstgp4h54kz7g1l847x_b8wc0000gn/T//ccBxDR0r.s 			page 8


 400 011e 96E7     		b	.L22
 401              	.L27:
 402              	.LBB28:
 403              		.loc 1 61 0
 404 0120 4046     		mov	r0, r8
 405 0122 FFF7FEFF 		bl	parameter_string_max_len
 406              	.LVL47:
 407 0126 8246     		mov	r10, r0
 408              	.LVL48:
 409              		.loc 1 62 0
 410 0128 FFF7FEFF 		bl	malloc
 411              	.LVL49:
 412              		.loc 1 63 0
 413 012c E0B9     		cbnz	r0, .L64
 414              		.loc 1 68 0
 415 012e 214A     		ldr	r2, .L65+12
 416 0130 2749     		ldr	r1, .L65+40
 417 0132 2846     		mov	r0, r5
 418              	.LVL50:
 419 0134 A047     		blx	r4
 420              	.LVL51:
 421 0136 8AE7     		b	.L22
 422              	.LVL52:
 423              	.L28:
 424              	.LBE28:
 425              	.LBB29:
 426              		.loc 1 73 0
 427 0138 4046     		mov	r0, r8
 428 013a FFF7FEFF 		bl	parameter_vector_dim
 429              	.LVL53:
 430 013e 0390     		str	r0, [sp, #12]
 431              	.LVL54:
 432              		.loc 1 74 0
 433 0140 8000     		lsls	r0, r0, #2
 434              	.LVL55:
 435 0142 FFF7FEFF 		bl	malloc
 436              	.LVL56:
 437              		.loc 1 75 0
 438 0146 8246     		mov	r10, r0
 439 0148 0028     		cmp	r0, #0
 440 014a C3D0     		beq	.L32
 441              		.loc 1 76 0
 442 014c 0146     		mov	r1, r0
 443 014e 4046     		mov	r0, r8
 444              	.LVL57:
 445 0150 FFF7FEFF 		bl	parameter_vector_read
 446              	.LVL58:
 447              		.loc 1 77 0
 448 0154 5046     		mov	r0, r10
 449 0156 2B46     		mov	r3, r5
 450 0158 2246     		mov	r2, r4
 451 015a 0399     		ldr	r1, [sp, #12]
 452 015c FFF7FEFF 		bl	print_array
 453              	.LVL59:
 454              		.loc 1 78 0
 455 0160 5046     		mov	r0, r10
 456 0162 FFF7FEFF 		bl	free
ARM GAS  /var/folders/d2/nstgp4h54kz7g1l847x_b8wc0000gn/T//ccBxDR0r.s 			page 9


 457              	.LVL60:
 458 0166 72E7     		b	.L22
 459              	.LVL61:
 460              	.L64:
 461              	.LBE29:
 462              	.LBB30:
 463              		.loc 1 64 0
 464 0168 5246     		mov	r2, r10
 465 016a 0146     		mov	r1, r0
 466 016c 0390     		str	r0, [sp, #12]
 467 016e 4046     		mov	r0, r8
 468              	.LVL62:
 469 0170 FFF7FEFF 		bl	parameter_string_read
 470              	.LVL63:
 471              		.loc 1 65 0
 472 0174 039B     		ldr	r3, [sp, #12]
 473 0176 1749     		ldr	r1, .L65+44
 474 0178 1A46     		mov	r2, r3
 475 017a 2846     		mov	r0, r5
 476 017c A047     		blx	r4
 477              	.LVL64:
 478              		.loc 1 66 0
 479 017e 039B     		ldr	r3, [sp, #12]
 480 0180 1846     		mov	r0, r3
 481 0182 FFF7FEFF 		bl	free
 482              	.LVL65:
 483 0186 62E7     		b	.L22
 484              	.LVL66:
 485              	.L63:
 486              	.LBE30:
 487              	.LBB31:
 488              		.loc 1 88 0
 489 0188 0146     		mov	r1, r0
 490 018a 4046     		mov	r0, r8
 491              	.LVL67:
 492 018c FFF7FEFF 		bl	parameter_variable_vector_read
 493              	.LVL68:
 494              		.loc 1 89 0
 495 0190 2B46     		mov	r3, r5
 496 0192 0146     		mov	r1, r0
 497 0194 2246     		mov	r2, r4
 498 0196 5046     		mov	r0, r10
 499              	.LVL69:
 500 0198 FFF7FEFF 		bl	print_array
 501              	.LVL70:
 502              		.loc 1 90 0
 503 019c 5046     		mov	r0, r10
 504 019e FFF7FEFF 		bl	free
 505              	.LVL71:
 506 01a2 54E7     		b	.L22
 507              	.LVL72:
 508              	.L62:
 509              	.LBE31:
 510              	.LBE32:
 511              	.LBE37:
 512              		.loc 1 117 0
 513 01a4 FFF7FEFF 		bl	__stack_chk_fail
ARM GAS  /var/folders/d2/nstgp4h54kz7g1l847x_b8wc0000gn/T//ccBxDR0r.s 			page 10


 514              	.LVL73:
 515              	.L66:
 516              		.align	2
 517              	.L65:
 518 01a8 00000000 		.word	__stack_chk_guard
 519 01ac 10000000 		.word	.LC6
 520 01b0 1C000000 		.word	.LC8
 521 01b4 34000000 		.word	.LC13
 522 01b8 6C000000 		.word	.LC15
 523 01bc 20000000 		.word	.LC9
 524 01c0 00000000 		.word	.LC4
 525 01c4 08000000 		.word	.LC5
 526 01c8 28000000 		.word	.LC11
 527 01cc 24000000 		.word	.LC10
 528 01d0 64000000 		.word	.LC14
 529 01d4 2C000000 		.word	.LC12
 530 01d8 14000000 		.word	.LC7
 531 01dc 74000000 		.word	.LC16
 532              		.cfi_endproc
 533              	.LFE5:
 534              		.size	param_ns_print.isra.0, .-param_ns_print.isra.0
 535              		.section	.text.parameter_print,"ax",%progbits
 536              		.align	1
 537              		.p2align 4,,15
 538              		.global	parameter_print
 539              		.syntax unified
 540              		.thumb
 541              		.thumb_func
 542              		.fpu fpv4-sp-d16
 543              		.type	parameter_print, %function
 544              	parameter_print:
 545              	.LFB4:
 546              		.loc 1 123 0
 547              		.cfi_startproc
 548              		@ args = 0, pretend = 0, frame = 8
 549              		@ frame_needed = 0, uses_anonymous_args = 0
 550              	.LVL74:
 551 0000 30B5     		push	{r4, r5, lr}
 552              		.cfi_def_cfa_offset 12
 553              		.cfi_offset 4, -12
 554              		.cfi_offset 5, -8
 555              		.cfi_offset 14, -4
 556 0002 0A4C     		ldr	r4, .L71
 557              		.loc 1 124 0
 558 0004 4569     		ldr	r5, [r0, #20]
 559              		.loc 1 123 0
 560 0006 85B0     		sub	sp, sp, #20
 561              		.cfi_def_cfa_offset 32
 562              		.loc 1 124 0
 563 0008 0B46     		mov	r3, r1
 564 000a 0092     		str	r2, [sp]
 565              		.loc 1 123 0
 566 000c 2268     		ldr	r2, [r4]
 567              	.LVL75:
 568 000e 0392     		str	r2, [sp, #12]
 569              		.loc 1 124 0
 570 0010 0C30     		adds	r0, r0, #12
ARM GAS  /var/folders/d2/nstgp4h54kz7g1l847x_b8wc0000gn/T//ccBxDR0r.s 			page 11


 571              	.LVL76:
 572 0012 0022     		movs	r2, #0
 573 0014 2946     		mov	r1, r5
 574              	.LVL77:
 575 0016 FFF7FEFF 		bl	param_ns_print.isra.0
 576              	.LVL78:
 577              		.loc 1 125 0
 578 001a 039A     		ldr	r2, [sp, #12]
 579 001c 2368     		ldr	r3, [r4]
 580 001e 9A42     		cmp	r2, r3
 581 0020 01D1     		bne	.L70
 582 0022 05B0     		add	sp, sp, #20
 583              		.cfi_remember_state
 584              		.cfi_def_cfa_offset 12
 585              		@ sp needed
 586 0024 30BD     		pop	{r4, r5, pc}
 587              	.L70:
 588              		.cfi_restore_state
 589 0026 FFF7FEFF 		bl	__stack_chk_fail
 590              	.LVL79:
 591              	.L72:
 592 002a 00BF     		.align	2
 593              	.L71:
 594 002c 00000000 		.word	__stack_chk_guard
 595              		.cfi_endproc
 596              	.LFE4:
 597              		.size	parameter_print, .-parameter_print
 598              		.section	.rodata.param_ns_print.isra.0.str1.4,"aMS",%progbits,1
 599              		.align	2
 600              	.LC4:
 601 0000 74727565 		.ascii	"true\000"
 601      00
 602 0005 000000   		.space	3
 603              	.LC5:
 604 0008 66616C73 		.ascii	"false\000"
 604      6500
 605 000e 0000     		.space	2
 606              	.LC6:
 607 0010 202000   		.ascii	"  \000"
 608 0013 00       		.space	1
 609              	.LC7:
 610 0014 25733A20 		.ascii	"%s: \000"
 610      00
 611 0019 000000   		.space	3
 612              	.LC8:
 613 001c 7E0A00   		.ascii	"~\012\000"
 614 001f 00       		.space	1
 615              	.LC9:
 616 0020 25660A00 		.ascii	"%f\012\000"
 617              	.LC10:
 618 0024 25640A00 		.ascii	"%d\012\000"
 619              	.LC11:
 620 0028 25730A00 		.ascii	"%s\012\000"
 621              	.LC12:
 622 002c 22257322 		.ascii	"\"%s\"\012\000"
 622      0A00
 623 0032 0000     		.space	2
ARM GAS  /var/folders/d2/nstgp4h54kz7g1l847x_b8wc0000gn/T//ccBxDR0r.s 			page 12


 624              	.LC13:
 625 0034 23207761 		.ascii	"# warning: malloc failed during serialization!\000"
 625      726E696E 
 625      673A206D 
 625      616C6C6F 
 625      63206661 
 626 0063 00       		.space	1
 627              	.LC14:
 628 0064 22222025 		.ascii	"\"\" %s\012\000"
 628      730A00
 629 006b 00       		.space	1
 630              	.LC15:
 631 006c 5B5D2025 		.ascii	"[] %s\012\000"
 631      730A00
 632 0073 00       		.space	1
 633              	.LC16:
 634 0074 25733A0A 		.ascii	"%s:\012\000"
 634      00
 635              		.section	.rodata.print_array.str1.4,"aMS",%progbits,1
 636              		.align	2
 637              	.LC0:
 638 0000 5B00     		.ascii	"[\000"
 639 0002 0000     		.space	2
 640              	.LC1:
 641 0004 256600   		.ascii	"%f\000"
 642 0007 00       		.space	1
 643              	.LC2:
 644 0008 25662C20 		.ascii	"%f, \000"
 644      00
 645 000d 000000   		.space	3
 646              	.LC3:
 647 0010 5D0A00   		.ascii	"]\012\000"
 648              		.text
 649              	.Letext0:
 650              		.file 2 "/Applications/Eclipse_e-puck2.app/Contents/Eclipse_e-puck2/Tools/gcc-arm-none-eabi-7-2017
 651              		.file 3 "/Applications/Eclipse_e-puck2.app/Contents/Eclipse_e-puck2/Tools/gcc-arm-none-eabi-7-2017
 652              		.file 4 "/Applications/Eclipse_e-puck2.app/Contents/Eclipse_e-puck2/Tools/gcc-arm-none-eabi-7-2017
 653              		.file 5 "/Applications/Eclipse_e-puck2.app/Contents/Eclipse_e-puck2/Tools/gcc-arm-none-eabi-7-2017
 654              		.file 6 "/Applications/Eclipse_e-puck2.app/Contents/Eclipse_e-puck2/Tools/gcc-arm-none-eabi-7-2017
 655              		.file 7 "/Applications/Eclipse_e-puck2.app/Contents/Eclipse_e-puck2/Tools/gcc-arm-none-eabi-7-2017
 656              		.file 8 "/Applications/Eclipse_e-puck2.app/Contents/Eclipse_e-puck2/Tools/gcc-arm-none-eabi-7-2017
 657              		.file 9 "../e-puck2_main-processor/src/parameter/parameter.h"
 658              		.file 10 "../e-puck2_main-processor/src/parameter/parameter_print.h"
 659              		.section	.debug_info,"",%progbits
 660              	.Ldebug_info0:
 661 0000 95110000 		.4byte	0x1195
 662 0004 0400     		.2byte	0x4
 663 0006 00000000 		.4byte	.Ldebug_abbrev0
 664 000a 04       		.byte	0x4
 665 000b 01       		.uleb128 0x1
 666 000c 76030000 		.4byte	.LASF168
 667 0010 0C       		.byte	0xc
 668 0011 54010000 		.4byte	.LASF169
 669 0015 0C000000 		.4byte	.LASF170
 670 0019 90000000 		.4byte	.Ldebug_ranges0+0x90
 671 001d 00000000 		.4byte	0
 672 0021 00000000 		.4byte	.Ldebug_line0
ARM GAS  /var/folders/d2/nstgp4h54kz7g1l847x_b8wc0000gn/T//ccBxDR0r.s 			page 13


 673 0025 02       		.uleb128 0x2
 674 0026 01       		.byte	0x1
 675 0027 06       		.byte	0x6
 676 0028 C1010000 		.4byte	.LASF0
 677 002c 03       		.uleb128 0x3
 678 002d 8B000000 		.4byte	.LASF3
 679 0031 02       		.byte	0x2
 680 0032 2B       		.byte	0x2b
 681 0033 37000000 		.4byte	0x37
 682 0037 02       		.uleb128 0x2
 683 0038 01       		.byte	0x1
 684 0039 08       		.byte	0x8
 685 003a 4B060000 		.4byte	.LASF1
 686 003e 02       		.uleb128 0x2
 687 003f 02       		.byte	0x2
 688 0040 05       		.byte	0x5
 689 0041 7D060000 		.4byte	.LASF2
 690 0045 03       		.uleb128 0x3
 691 0046 AF070000 		.4byte	.LASF4
 692 004a 02       		.byte	0x2
 693 004b 39       		.byte	0x39
 694 004c 50000000 		.4byte	0x50
 695 0050 02       		.uleb128 0x2
 696 0051 02       		.byte	0x2
 697 0052 07       		.byte	0x7
 698 0053 06050000 		.4byte	.LASF5
 699 0057 03       		.uleb128 0x3
 700 0058 BF070000 		.4byte	.LASF6
 701 005c 02       		.byte	0x2
 702 005d 4D       		.byte	0x4d
 703 005e 62000000 		.4byte	0x62
 704 0062 02       		.uleb128 0x2
 705 0063 04       		.byte	0x4
 706 0064 05       		.byte	0x5
 707 0065 2E020000 		.4byte	.LASF7
 708 0069 02       		.uleb128 0x2
 709 006a 04       		.byte	0x4
 710 006b 07       		.byte	0x7
 711 006c D1040000 		.4byte	.LASF8
 712 0070 02       		.uleb128 0x2
 713 0071 08       		.byte	0x8
 714 0072 05       		.byte	0x5
 715 0073 B3010000 		.4byte	.LASF9
 716 0077 02       		.uleb128 0x2
 717 0078 08       		.byte	0x8
 718 0079 07       		.byte	0x7
 719 007a 1D010000 		.4byte	.LASF10
 720 007e 04       		.uleb128 0x4
 721 007f 04       		.byte	0x4
 722 0080 05       		.byte	0x5
 723 0081 696E7400 		.ascii	"int\000"
 724 0085 02       		.uleb128 0x2
 725 0086 04       		.byte	0x4
 726 0087 07       		.byte	0x7
 727 0088 69030000 		.4byte	.LASF11
 728 008c 03       		.uleb128 0x3
 729 008d 60080000 		.4byte	.LASF12
ARM GAS  /var/folders/d2/nstgp4h54kz7g1l847x_b8wc0000gn/T//ccBxDR0r.s 			page 14


 730 0091 03       		.byte	0x3
 731 0092 18       		.byte	0x18
 732 0093 2C000000 		.4byte	0x2c
 733 0097 03       		.uleb128 0x3
 734 0098 6F020000 		.4byte	.LASF13
 735 009c 03       		.byte	0x3
 736 009d 24       		.byte	0x24
 737 009e 45000000 		.4byte	0x45
 738 00a2 03       		.uleb128 0x3
 739 00a3 43060000 		.4byte	.LASF14
 740 00a7 03       		.byte	0x3
 741 00a8 2C       		.byte	0x2c
 742 00a9 57000000 		.4byte	0x57
 743 00ad 02       		.uleb128 0x2
 744 00ae 08       		.byte	0x8
 745 00af 04       		.byte	0x4
 746 00b0 A7050000 		.4byte	.LASF15
 747 00b4 03       		.uleb128 0x3
 748 00b5 5E050000 		.4byte	.LASF16
 749 00b9 04       		.byte	0x4
 750 00ba 22       		.byte	0x22
 751 00bb BF000000 		.4byte	0xbf
 752 00bf 05       		.uleb128 0x5
 753 00c0 04       		.byte	0x4
 754 00c1 C5000000 		.4byte	0xc5
 755 00c5 06       		.uleb128 0x6
 756 00c6 5A070000 		.4byte	.LASF123
 757 00ca 03       		.uleb128 0x3
 758 00cb 09060000 		.4byte	.LASF17
 759 00cf 05       		.byte	0x5
 760 00d0 2C       		.byte	0x2c
 761 00d1 62000000 		.4byte	0x62
 762 00d5 03       		.uleb128 0x3
 763 00d6 92070000 		.4byte	.LASF18
 764 00da 05       		.byte	0x5
 765 00db 72       		.byte	0x72
 766 00dc 62000000 		.4byte	0x62
 767 00e0 07       		.uleb128 0x7
 768 00e1 66050000 		.4byte	.LASF19
 769 00e5 06       		.byte	0x6
 770 00e6 6501     		.2byte	0x165
 771 00e8 85000000 		.4byte	0x85
 772 00ec 08       		.uleb128 0x8
 773 00ed 04       		.byte	0x4
 774 00ee 05       		.byte	0x5
 775 00ef A6       		.byte	0xa6
 776 00f0 0B010000 		.4byte	0x10b
 777 00f4 09       		.uleb128 0x9
 778 00f5 58050000 		.4byte	.LASF20
 779 00f9 05       		.byte	0x5
 780 00fa A8       		.byte	0xa8
 781 00fb E0000000 		.4byte	0xe0
 782 00ff 09       		.uleb128 0x9
 783 0100 BA040000 		.4byte	.LASF21
 784 0104 05       		.byte	0x5
 785 0105 A9       		.byte	0xa9
 786 0106 0B010000 		.4byte	0x10b
ARM GAS  /var/folders/d2/nstgp4h54kz7g1l847x_b8wc0000gn/T//ccBxDR0r.s 			page 15


 787 010a 00       		.byte	0
 788 010b 0A       		.uleb128 0xa
 789 010c 37000000 		.4byte	0x37
 790 0110 1B010000 		.4byte	0x11b
 791 0114 0B       		.uleb128 0xb
 792 0115 85000000 		.4byte	0x85
 793 0119 03       		.byte	0x3
 794 011a 00       		.byte	0
 795 011b 0C       		.uleb128 0xc
 796 011c 08       		.byte	0x8
 797 011d 05       		.byte	0x5
 798 011e A3       		.byte	0xa3
 799 011f 3C010000 		.4byte	0x13c
 800 0123 0D       		.uleb128 0xd
 801 0124 52070000 		.4byte	.LASF22
 802 0128 05       		.byte	0x5
 803 0129 A5       		.byte	0xa5
 804 012a 7E000000 		.4byte	0x7e
 805 012e 00       		.byte	0
 806 012f 0D       		.uleb128 0xd
 807 0130 61070000 		.4byte	.LASF23
 808 0134 05       		.byte	0x5
 809 0135 AA       		.byte	0xaa
 810 0136 EC000000 		.4byte	0xec
 811 013a 04       		.byte	0x4
 812 013b 00       		.byte	0
 813 013c 03       		.uleb128 0x3
 814 013d B9060000 		.4byte	.LASF24
 815 0141 05       		.byte	0x5
 816 0142 AB       		.byte	0xab
 817 0143 1B010000 		.4byte	0x11b
 818 0147 03       		.uleb128 0x3
 819 0148 02030000 		.4byte	.LASF25
 820 014c 05       		.byte	0x5
 821 014d AF       		.byte	0xaf
 822 014e B4000000 		.4byte	0xb4
 823 0152 0E       		.uleb128 0xe
 824 0153 04       		.byte	0x4
 825 0154 05       		.uleb128 0x5
 826 0155 04       		.byte	0x4
 827 0156 5A010000 		.4byte	0x15a
 828 015a 02       		.uleb128 0x2
 829 015b 01       		.byte	0x1
 830 015c 08       		.byte	0x8
 831 015d A1070000 		.4byte	.LASF26
 832 0161 0F       		.uleb128 0xf
 833 0162 5A010000 		.4byte	0x15a
 834 0166 03       		.uleb128 0x3
 835 0167 01080000 		.4byte	.LASF27
 836 016b 07       		.byte	0x7
 837 016c 16       		.byte	0x16
 838 016d 69000000 		.4byte	0x69
 839 0171 10       		.uleb128 0x10
 840 0172 13030000 		.4byte	.LASF32
 841 0176 18       		.byte	0x18
 842 0177 07       		.byte	0x7
 843 0178 2F       		.byte	0x2f
ARM GAS  /var/folders/d2/nstgp4h54kz7g1l847x_b8wc0000gn/T//ccBxDR0r.s 			page 16


 844 0179 C4010000 		.4byte	0x1c4
 845 017d 0D       		.uleb128 0xd
 846 017e CF070000 		.4byte	.LASF28
 847 0182 07       		.byte	0x7
 848 0183 31       		.byte	0x31
 849 0184 C4010000 		.4byte	0x1c4
 850 0188 00       		.byte	0
 851 0189 11       		.uleb128 0x11
 852 018a 5F6B00   		.ascii	"_k\000"
 853 018d 07       		.byte	0x7
 854 018e 32       		.byte	0x32
 855 018f 7E000000 		.4byte	0x7e
 856 0193 04       		.byte	0x4
 857 0194 0D       		.uleb128 0xd
 858 0195 3D070000 		.4byte	.LASF29
 859 0199 07       		.byte	0x7
 860 019a 32       		.byte	0x32
 861 019b 7E000000 		.4byte	0x7e
 862 019f 08       		.byte	0x8
 863 01a0 0D       		.uleb128 0xd
 864 01a1 FC020000 		.4byte	.LASF30
 865 01a5 07       		.byte	0x7
 866 01a6 32       		.byte	0x32
 867 01a7 7E000000 		.4byte	0x7e
 868 01ab 0C       		.byte	0xc
 869 01ac 0D       		.uleb128 0xd
 870 01ad 4B080000 		.4byte	.LASF31
 871 01b1 07       		.byte	0x7
 872 01b2 32       		.byte	0x32
 873 01b3 7E000000 		.4byte	0x7e
 874 01b7 10       		.byte	0x10
 875 01b8 11       		.uleb128 0x11
 876 01b9 5F7800   		.ascii	"_x\000"
 877 01bc 07       		.byte	0x7
 878 01bd 33       		.byte	0x33
 879 01be CA010000 		.4byte	0x1ca
 880 01c2 14       		.byte	0x14
 881 01c3 00       		.byte	0
 882 01c4 05       		.uleb128 0x5
 883 01c5 04       		.byte	0x4
 884 01c6 71010000 		.4byte	0x171
 885 01ca 0A       		.uleb128 0xa
 886 01cb 66010000 		.4byte	0x166
 887 01cf DA010000 		.4byte	0x1da
 888 01d3 0B       		.uleb128 0xb
 889 01d4 85000000 		.4byte	0x85
 890 01d8 00       		.byte	0
 891 01d9 00       		.byte	0
 892 01da 10       		.uleb128 0x10
 893 01db 4E030000 		.4byte	.LASF33
 894 01df 24       		.byte	0x24
 895 01e0 07       		.byte	0x7
 896 01e1 37       		.byte	0x37
 897 01e2 53020000 		.4byte	0x253
 898 01e6 0D       		.uleb128 0xd
 899 01e7 AA010000 		.4byte	.LASF34
 900 01eb 07       		.byte	0x7
ARM GAS  /var/folders/d2/nstgp4h54kz7g1l847x_b8wc0000gn/T//ccBxDR0r.s 			page 17


 901 01ec 39       		.byte	0x39
 902 01ed 7E000000 		.4byte	0x7e
 903 01f1 00       		.byte	0
 904 01f2 0D       		.uleb128 0xd
 905 01f3 A6070000 		.4byte	.LASF35
 906 01f7 07       		.byte	0x7
 907 01f8 3A       		.byte	0x3a
 908 01f9 7E000000 		.4byte	0x7e
 909 01fd 04       		.byte	0x4
 910 01fe 0D       		.uleb128 0xd
 911 01ff E9010000 		.4byte	.LASF36
 912 0203 07       		.byte	0x7
 913 0204 3B       		.byte	0x3b
 914 0205 7E000000 		.4byte	0x7e
 915 0209 08       		.byte	0x8
 916 020a 0D       		.uleb128 0xd
 917 020b EF080000 		.4byte	.LASF37
 918 020f 07       		.byte	0x7
 919 0210 3C       		.byte	0x3c
 920 0211 7E000000 		.4byte	0x7e
 921 0215 0C       		.byte	0xc
 922 0216 0D       		.uleb128 0xd
 923 0217 E3050000 		.4byte	.LASF38
 924 021b 07       		.byte	0x7
 925 021c 3D       		.byte	0x3d
 926 021d 7E000000 		.4byte	0x7e
 927 0221 10       		.byte	0x10
 928 0222 0D       		.uleb128 0xd
 929 0223 94050000 		.4byte	.LASF39
 930 0227 07       		.byte	0x7
 931 0228 3E       		.byte	0x3e
 932 0229 7E000000 		.4byte	0x7e
 933 022d 14       		.byte	0x14
 934 022e 0D       		.uleb128 0xd
 935 022f 50080000 		.4byte	.LASF40
 936 0233 07       		.byte	0x7
 937 0234 3F       		.byte	0x3f
 938 0235 7E000000 		.4byte	0x7e
 939 0239 18       		.byte	0x18
 940 023a 0D       		.uleb128 0xd
 941 023b 87060000 		.4byte	.LASF41
 942 023f 07       		.byte	0x7
 943 0240 40       		.byte	0x40
 944 0241 7E000000 		.4byte	0x7e
 945 0245 1C       		.byte	0x1c
 946 0246 0D       		.uleb128 0xd
 947 0247 B6080000 		.4byte	.LASF42
 948 024b 07       		.byte	0x7
 949 024c 41       		.byte	0x41
 950 024d 7E000000 		.4byte	0x7e
 951 0251 20       		.byte	0x20
 952 0252 00       		.byte	0
 953 0253 12       		.uleb128 0x12
 954 0254 F8010000 		.4byte	.LASF43
 955 0258 0801     		.2byte	0x108
 956 025a 07       		.byte	0x7
 957 025b 4A       		.byte	0x4a
ARM GAS  /var/folders/d2/nstgp4h54kz7g1l847x_b8wc0000gn/T//ccBxDR0r.s 			page 18


 958 025c 93020000 		.4byte	0x293
 959 0260 0D       		.uleb128 0xd
 960 0261 BE020000 		.4byte	.LASF44
 961 0265 07       		.byte	0x7
 962 0266 4B       		.byte	0x4b
 963 0267 93020000 		.4byte	0x293
 964 026b 00       		.byte	0
 965 026c 0D       		.uleb128 0xd
 966 026d 00000000 		.4byte	.LASF45
 967 0271 07       		.byte	0x7
 968 0272 4C       		.byte	0x4c
 969 0273 93020000 		.4byte	0x293
 970 0277 80       		.byte	0x80
 971 0278 13       		.uleb128 0x13
 972 0279 E2070000 		.4byte	.LASF46
 973 027d 07       		.byte	0x7
 974 027e 4E       		.byte	0x4e
 975 027f 66010000 		.4byte	0x166
 976 0283 0001     		.2byte	0x100
 977 0285 13       		.uleb128 0x13
 978 0286 3E020000 		.4byte	.LASF47
 979 028a 07       		.byte	0x7
 980 028b 51       		.byte	0x51
 981 028c 66010000 		.4byte	0x166
 982 0290 0401     		.2byte	0x104
 983 0292 00       		.byte	0
 984 0293 0A       		.uleb128 0xa
 985 0294 52010000 		.4byte	0x152
 986 0298 A3020000 		.4byte	0x2a3
 987 029c 0B       		.uleb128 0xb
 988 029d 85000000 		.4byte	0x85
 989 02a1 1F       		.byte	0x1f
 990 02a2 00       		.byte	0
 991 02a3 12       		.uleb128 0x12
 992 02a4 EC050000 		.4byte	.LASF48
 993 02a8 9001     		.2byte	0x190
 994 02aa 07       		.byte	0x7
 995 02ab 5D       		.byte	0x5d
 996 02ac E1020000 		.4byte	0x2e1
 997 02b0 0D       		.uleb128 0xd
 998 02b1 CF070000 		.4byte	.LASF28
 999 02b5 07       		.byte	0x7
 1000 02b6 5E       		.byte	0x5e
 1001 02b7 E1020000 		.4byte	0x2e1
 1002 02bb 00       		.byte	0
 1003 02bc 0D       		.uleb128 0xd
 1004 02bd FC060000 		.4byte	.LASF49
 1005 02c1 07       		.byte	0x7
 1006 02c2 5F       		.byte	0x5f
 1007 02c3 7E000000 		.4byte	0x7e
 1008 02c7 04       		.byte	0x4
 1009 02c8 0D       		.uleb128 0xd
 1010 02c9 E5020000 		.4byte	.LASF50
 1011 02cd 07       		.byte	0x7
 1012 02ce 61       		.byte	0x61
 1013 02cf E7020000 		.4byte	0x2e7
 1014 02d3 08       		.byte	0x8
ARM GAS  /var/folders/d2/nstgp4h54kz7g1l847x_b8wc0000gn/T//ccBxDR0r.s 			page 19


 1015 02d4 0D       		.uleb128 0xd
 1016 02d5 F8010000 		.4byte	.LASF43
 1017 02d9 07       		.byte	0x7
 1018 02da 62       		.byte	0x62
 1019 02db 53020000 		.4byte	0x253
 1020 02df 88       		.byte	0x88
 1021 02e0 00       		.byte	0
 1022 02e1 05       		.uleb128 0x5
 1023 02e2 04       		.byte	0x4
 1024 02e3 A3020000 		.4byte	0x2a3
 1025 02e7 0A       		.uleb128 0xa
 1026 02e8 F7020000 		.4byte	0x2f7
 1027 02ec F7020000 		.4byte	0x2f7
 1028 02f0 0B       		.uleb128 0xb
 1029 02f1 85000000 		.4byte	0x85
 1030 02f5 1F       		.byte	0x1f
 1031 02f6 00       		.byte	0
 1032 02f7 05       		.uleb128 0x5
 1033 02f8 04       		.byte	0x4
 1034 02f9 FD020000 		.4byte	0x2fd
 1035 02fd 14       		.uleb128 0x14
 1036 02fe 10       		.uleb128 0x10
 1037 02ff 91060000 		.4byte	.LASF51
 1038 0303 08       		.byte	0x8
 1039 0304 07       		.byte	0x7
 1040 0305 75       		.byte	0x75
 1041 0306 23030000 		.4byte	0x323
 1042 030a 0D       		.uleb128 0xd
 1043 030b E3010000 		.4byte	.LASF52
 1044 030f 07       		.byte	0x7
 1045 0310 76       		.byte	0x76
 1046 0311 23030000 		.4byte	0x323
 1047 0315 00       		.byte	0
 1048 0316 0D       		.uleb128 0xd
 1049 0317 72000000 		.4byte	.LASF53
 1050 031b 07       		.byte	0x7
 1051 031c 77       		.byte	0x77
 1052 031d 7E000000 		.4byte	0x7e
 1053 0321 04       		.byte	0x4
 1054 0322 00       		.byte	0
 1055 0323 05       		.uleb128 0x5
 1056 0324 04       		.byte	0x4
 1057 0325 37000000 		.4byte	0x37
 1058 0329 10       		.uleb128 0x10
 1059 032a C4060000 		.4byte	.LASF54
 1060 032e 68       		.byte	0x68
 1061 032f 07       		.byte	0x7
 1062 0330 B5       		.byte	0xb5
 1063 0331 53040000 		.4byte	0x453
 1064 0335 11       		.uleb128 0x11
 1065 0336 5F7000   		.ascii	"_p\000"
 1066 0339 07       		.byte	0x7
 1067 033a B6       		.byte	0xb6
 1068 033b 23030000 		.4byte	0x323
 1069 033f 00       		.byte	0
 1070 0340 11       		.uleb128 0x11
 1071 0341 5F7200   		.ascii	"_r\000"
ARM GAS  /var/folders/d2/nstgp4h54kz7g1l847x_b8wc0000gn/T//ccBxDR0r.s 			page 20


 1072 0344 07       		.byte	0x7
 1073 0345 B7       		.byte	0xb7
 1074 0346 7E000000 		.4byte	0x7e
 1075 034a 04       		.byte	0x4
 1076 034b 11       		.uleb128 0x11
 1077 034c 5F7700   		.ascii	"_w\000"
 1078 034f 07       		.byte	0x7
 1079 0350 B8       		.byte	0xb8
 1080 0351 7E000000 		.4byte	0x7e
 1081 0355 08       		.byte	0x8
 1082 0356 0D       		.uleb128 0xd
 1083 0357 37020000 		.4byte	.LASF55
 1084 035b 07       		.byte	0x7
 1085 035c B9       		.byte	0xb9
 1086 035d 3E000000 		.4byte	0x3e
 1087 0361 0C       		.byte	0xc
 1088 0362 0D       		.uleb128 0xd
 1089 0363 E3040000 		.4byte	.LASF56
 1090 0367 07       		.byte	0x7
 1091 0368 BA       		.byte	0xba
 1092 0369 3E000000 		.4byte	0x3e
 1093 036d 0E       		.byte	0xe
 1094 036e 11       		.uleb128 0x11
 1095 036f 5F626600 		.ascii	"_bf\000"
 1096 0373 07       		.byte	0x7
 1097 0374 BB       		.byte	0xbb
 1098 0375 FE020000 		.4byte	0x2fe
 1099 0379 10       		.byte	0x10
 1100 037a 0D       		.uleb128 0xd
 1101 037b 34010000 		.4byte	.LASF57
 1102 037f 07       		.byte	0x7
 1103 0380 BC       		.byte	0xbc
 1104 0381 7E000000 		.4byte	0x7e
 1105 0385 18       		.byte	0x18
 1106 0386 0D       		.uleb128 0xd
 1107 0387 17020000 		.4byte	.LASF58
 1108 038b 07       		.byte	0x7
 1109 038c C3       		.byte	0xc3
 1110 038d 52010000 		.4byte	0x152
 1111 0391 1C       		.byte	0x1c
 1112 0392 0D       		.uleb128 0xd
 1113 0393 3E030000 		.4byte	.LASF59
 1114 0397 07       		.byte	0x7
 1115 0398 C5       		.byte	0xc5
 1116 0399 AE050000 		.4byte	0x5ae
 1117 039d 20       		.byte	0x20
 1118 039e 0D       		.uleb128 0xd
 1119 039f 8D050000 		.4byte	.LASF60
 1120 03a3 07       		.byte	0x7
 1121 03a4 C7       		.byte	0xc7
 1122 03a5 D8050000 		.4byte	0x5d8
 1123 03a9 24       		.byte	0x24
 1124 03aa 0D       		.uleb128 0xd
 1125 03ab 69070000 		.4byte	.LASF61
 1126 03af 07       		.byte	0x7
 1127 03b0 CA       		.byte	0xca
 1128 03b1 FC050000 		.4byte	0x5fc
ARM GAS  /var/folders/d2/nstgp4h54kz7g1l847x_b8wc0000gn/T//ccBxDR0r.s 			page 21


 1129 03b5 28       		.byte	0x28
 1130 03b6 0D       		.uleb128 0xd
 1131 03b7 D0080000 		.4byte	.LASF62
 1132 03bb 07       		.byte	0x7
 1133 03bc CB       		.byte	0xcb
 1134 03bd 16060000 		.4byte	0x616
 1135 03c1 2C       		.byte	0x2c
 1136 03c2 11       		.uleb128 0x11
 1137 03c3 5F756200 		.ascii	"_ub\000"
 1138 03c7 07       		.byte	0x7
 1139 03c8 CE       		.byte	0xce
 1140 03c9 FE020000 		.4byte	0x2fe
 1141 03cd 30       		.byte	0x30
 1142 03ce 11       		.uleb128 0x11
 1143 03cf 5F757000 		.ascii	"_up\000"
 1144 03d3 07       		.byte	0x7
 1145 03d4 CF       		.byte	0xcf
 1146 03d5 23030000 		.4byte	0x323
 1147 03d9 38       		.byte	0x38
 1148 03da 11       		.uleb128 0x11
 1149 03db 5F757200 		.ascii	"_ur\000"
 1150 03df 07       		.byte	0x7
 1151 03e0 D0       		.byte	0xd0
 1152 03e1 7E000000 		.4byte	0x7e
 1153 03e5 3C       		.byte	0x3c
 1154 03e6 0D       		.uleb128 0xd
 1155 03e7 D5010000 		.4byte	.LASF63
 1156 03eb 07       		.byte	0x7
 1157 03ec D3       		.byte	0xd3
 1158 03ed 1C060000 		.4byte	0x61c
 1159 03f1 40       		.byte	0x40
 1160 03f2 0D       		.uleb128 0xd
 1161 03f3 98080000 		.4byte	.LASF64
 1162 03f7 07       		.byte	0x7
 1163 03f8 D4       		.byte	0xd4
 1164 03f9 2C060000 		.4byte	0x62c
 1165 03fd 43       		.byte	0x43
 1166 03fe 11       		.uleb128 0x11
 1167 03ff 5F6C6200 		.ascii	"_lb\000"
 1168 0403 07       		.byte	0x7
 1169 0404 D7       		.byte	0xd7
 1170 0405 FE020000 		.4byte	0x2fe
 1171 0409 44       		.byte	0x44
 1172 040a 0D       		.uleb128 0xd
 1173 040b 66020000 		.4byte	.LASF65
 1174 040f 07       		.byte	0x7
 1175 0410 DA       		.byte	0xda
 1176 0411 7E000000 		.4byte	0x7e
 1177 0415 4C       		.byte	0x4c
 1178 0416 0D       		.uleb128 0xd
 1179 0417 97020000 		.4byte	.LASF66
 1180 041b 07       		.byte	0x7
 1181 041c DB       		.byte	0xdb
 1182 041d CA000000 		.4byte	0xca
 1183 0421 50       		.byte	0x50
 1184 0422 0D       		.uleb128 0xd
 1185 0423 BA000000 		.4byte	.LASF67
ARM GAS  /var/folders/d2/nstgp4h54kz7g1l847x_b8wc0000gn/T//ccBxDR0r.s 			page 22


 1186 0427 07       		.byte	0x7
 1187 0428 DE       		.byte	0xde
 1188 0429 71040000 		.4byte	0x471
 1189 042d 54       		.byte	0x54
 1190 042e 0D       		.uleb128 0xd
 1191 042f 6D050000 		.4byte	.LASF68
 1192 0433 07       		.byte	0x7
 1193 0434 E2       		.byte	0xe2
 1194 0435 47010000 		.4byte	0x147
 1195 0439 58       		.byte	0x58
 1196 043a 0D       		.uleb128 0xd
 1197 043b CC060000 		.4byte	.LASF69
 1198 043f 07       		.byte	0x7
 1199 0440 E4       		.byte	0xe4
 1200 0441 3C010000 		.4byte	0x13c
 1201 0445 5C       		.byte	0x5c
 1202 0446 0D       		.uleb128 0xd
 1203 0447 7A050000 		.4byte	.LASF70
 1204 044b 07       		.byte	0x7
 1205 044c E5       		.byte	0xe5
 1206 044d 7E000000 		.4byte	0x7e
 1207 0451 64       		.byte	0x64
 1208 0452 00       		.byte	0
 1209 0453 15       		.uleb128 0x15
 1210 0454 7E000000 		.4byte	0x7e
 1211 0458 71040000 		.4byte	0x471
 1212 045c 16       		.uleb128 0x16
 1213 045d 71040000 		.4byte	0x471
 1214 0461 16       		.uleb128 0x16
 1215 0462 52010000 		.4byte	0x152
 1216 0466 16       		.uleb128 0x16
 1217 0467 54010000 		.4byte	0x154
 1218 046b 16       		.uleb128 0x16
 1219 046c 7E000000 		.4byte	0x7e
 1220 0470 00       		.byte	0
 1221 0471 05       		.uleb128 0x5
 1222 0472 04       		.byte	0x4
 1223 0473 7C040000 		.4byte	0x47c
 1224 0477 0F       		.uleb128 0xf
 1225 0478 71040000 		.4byte	0x471
 1226 047c 17       		.uleb128 0x17
 1227 047d 45070000 		.4byte	.LASF71
 1228 0481 2804     		.2byte	0x428
 1229 0483 07       		.byte	0x7
 1230 0484 3902     		.2byte	0x239
 1231 0486 AE050000 		.4byte	0x5ae
 1232 048a 18       		.uleb128 0x18
 1233 048b 9A070000 		.4byte	.LASF72
 1234 048f 07       		.byte	0x7
 1235 0490 3B02     		.2byte	0x23b
 1236 0492 7E000000 		.4byte	0x7e
 1237 0496 00       		.byte	0
 1238 0497 18       		.uleb128 0x18
 1239 0498 46020000 		.4byte	.LASF73
 1240 049c 07       		.byte	0x7
 1241 049d 4002     		.2byte	0x240
 1242 049f 83060000 		.4byte	0x683
ARM GAS  /var/folders/d2/nstgp4h54kz7g1l847x_b8wc0000gn/T//ccBxDR0r.s 			page 23


 1243 04a3 04       		.byte	0x4
 1244 04a4 18       		.uleb128 0x18
 1245 04a5 C1040000 		.4byte	.LASF74
 1246 04a9 07       		.byte	0x7
 1247 04aa 4002     		.2byte	0x240
 1248 04ac 83060000 		.4byte	0x683
 1249 04b0 08       		.byte	0x8
 1250 04b1 18       		.uleb128 0x18
 1251 04b2 0B030000 		.4byte	.LASF75
 1252 04b6 07       		.byte	0x7
 1253 04b7 4002     		.2byte	0x240
 1254 04b9 83060000 		.4byte	0x683
 1255 04bd 0C       		.byte	0xc
 1256 04be 18       		.uleb128 0x18
 1257 04bf F7060000 		.4byte	.LASF76
 1258 04c3 07       		.byte	0x7
 1259 04c4 4202     		.2byte	0x242
 1260 04c6 7E000000 		.4byte	0x7e
 1261 04ca 10       		.byte	0x10
 1262 04cb 18       		.uleb128 0x18
 1263 04cc 80000000 		.4byte	.LASF77
 1264 04d0 07       		.byte	0x7
 1265 04d1 4302     		.2byte	0x243
 1266 04d3 65080000 		.4byte	0x865
 1267 04d7 14       		.byte	0x14
 1268 04d8 18       		.uleb128 0x18
 1269 04d9 13070000 		.4byte	.LASF78
 1270 04dd 07       		.byte	0x7
 1271 04de 4602     		.2byte	0x246
 1272 04e0 7E000000 		.4byte	0x7e
 1273 04e4 30       		.byte	0x30
 1274 04e5 18       		.uleb128 0x18
 1275 04e6 01070000 		.4byte	.LASF79
 1276 04ea 07       		.byte	0x7
 1277 04eb 4702     		.2byte	0x247
 1278 04ed 7A080000 		.4byte	0x87a
 1279 04f1 34       		.byte	0x34
 1280 04f2 18       		.uleb128 0x18
 1281 04f3 FE050000 		.4byte	.LASF80
 1282 04f7 07       		.byte	0x7
 1283 04f8 4902     		.2byte	0x249
 1284 04fa 7E000000 		.4byte	0x7e
 1285 04fe 38       		.byte	0x38
 1286 04ff 18       		.uleb128 0x18
 1287 0500 09070000 		.4byte	.LASF81
 1288 0504 07       		.byte	0x7
 1289 0505 4B02     		.2byte	0x24b
 1290 0507 8B080000 		.4byte	0x88b
 1291 050b 3C       		.byte	0x3c
 1292 050c 18       		.uleb128 0x18
 1293 050d 50050000 		.4byte	.LASF82
 1294 0511 07       		.byte	0x7
 1295 0512 4E02     		.2byte	0x24e
 1296 0514 C4010000 		.4byte	0x1c4
 1297 0518 40       		.byte	0x40
 1298 0519 18       		.uleb128 0x18
 1299 051a 44030000 		.4byte	.LASF83
ARM GAS  /var/folders/d2/nstgp4h54kz7g1l847x_b8wc0000gn/T//ccBxDR0r.s 			page 24


 1300 051e 07       		.byte	0x7
 1301 051f 4F02     		.2byte	0x24f
 1302 0521 7E000000 		.4byte	0x7e
 1303 0525 44       		.byte	0x44
 1304 0526 18       		.uleb128 0x18
 1305 0527 EA080000 		.4byte	.LASF84
 1306 052b 07       		.byte	0x7
 1307 052c 5002     		.2byte	0x250
 1308 052e C4010000 		.4byte	0x1c4
 1309 0532 48       		.byte	0x48
 1310 0533 18       		.uleb128 0x18
 1311 0534 16060000 		.4byte	.LASF85
 1312 0538 07       		.byte	0x7
 1313 0539 5102     		.2byte	0x251
 1314 053b 91080000 		.4byte	0x891
 1315 053f 4C       		.byte	0x4c
 1316 0540 18       		.uleb128 0x18
 1317 0541 C9040000 		.4byte	.LASF86
 1318 0545 07       		.byte	0x7
 1319 0546 5402     		.2byte	0x254
 1320 0548 7E000000 		.4byte	0x7e
 1321 054c 50       		.byte	0x50
 1322 054d 18       		.uleb128 0x18
 1323 054e 8F020000 		.4byte	.LASF87
 1324 0552 07       		.byte	0x7
 1325 0553 5502     		.2byte	0x255
 1326 0555 54010000 		.4byte	0x154
 1327 0559 54       		.byte	0x54
 1328 055a 18       		.uleb128 0x18
 1329 055b 59060000 		.4byte	.LASF88
 1330 055f 07       		.byte	0x7
 1331 0560 7802     		.2byte	0x278
 1332 0562 43080000 		.4byte	0x843
 1333 0566 58       		.byte	0x58
 1334 0567 19       		.uleb128 0x19
 1335 0568 EC050000 		.4byte	.LASF48
 1336 056c 07       		.byte	0x7
 1337 056d 7C02     		.2byte	0x27c
 1338 056f E1020000 		.4byte	0x2e1
 1339 0573 4801     		.2byte	0x148
 1340 0575 19       		.uleb128 0x19
 1341 0576 19050000 		.4byte	.LASF89
 1342 057a 07       		.byte	0x7
 1343 057b 7D02     		.2byte	0x27d
 1344 057d A3020000 		.4byte	0x2a3
 1345 0581 4C01     		.2byte	0x14c
 1346 0583 19       		.uleb128 0x19
 1347 0584 72080000 		.4byte	.LASF90
 1348 0588 07       		.byte	0x7
 1349 0589 8102     		.2byte	0x281
 1350 058b A2080000 		.4byte	0x8a2
 1351 058f DC02     		.2byte	0x2dc
 1352 0591 19       		.uleb128 0x19
 1353 0592 26020000 		.4byte	.LASF91
 1354 0596 07       		.byte	0x7
 1355 0597 8602     		.2byte	0x286
 1356 0599 48060000 		.4byte	0x648
ARM GAS  /var/folders/d2/nstgp4h54kz7g1l847x_b8wc0000gn/T//ccBxDR0r.s 			page 25


 1357 059d E002     		.2byte	0x2e0
 1358 059f 19       		.uleb128 0x19
 1359 05a0 F3010000 		.4byte	.LASF92
 1360 05a4 07       		.byte	0x7
 1361 05a5 8802     		.2byte	0x288
 1362 05a7 AE080000 		.4byte	0x8ae
 1363 05ab EC02     		.2byte	0x2ec
 1364 05ad 00       		.byte	0
 1365 05ae 05       		.uleb128 0x5
 1366 05af 04       		.byte	0x4
 1367 05b0 53040000 		.4byte	0x453
 1368 05b4 15       		.uleb128 0x15
 1369 05b5 7E000000 		.4byte	0x7e
 1370 05b9 D2050000 		.4byte	0x5d2
 1371 05bd 16       		.uleb128 0x16
 1372 05be 71040000 		.4byte	0x471
 1373 05c2 16       		.uleb128 0x16
 1374 05c3 52010000 		.4byte	0x152
 1375 05c7 16       		.uleb128 0x16
 1376 05c8 D2050000 		.4byte	0x5d2
 1377 05cc 16       		.uleb128 0x16
 1378 05cd 7E000000 		.4byte	0x7e
 1379 05d1 00       		.byte	0
 1380 05d2 05       		.uleb128 0x5
 1381 05d3 04       		.byte	0x4
 1382 05d4 61010000 		.4byte	0x161
 1383 05d8 05       		.uleb128 0x5
 1384 05d9 04       		.byte	0x4
 1385 05da B4050000 		.4byte	0x5b4
 1386 05de 15       		.uleb128 0x15
 1387 05df D5000000 		.4byte	0xd5
 1388 05e3 FC050000 		.4byte	0x5fc
 1389 05e7 16       		.uleb128 0x16
 1390 05e8 71040000 		.4byte	0x471
 1391 05ec 16       		.uleb128 0x16
 1392 05ed 52010000 		.4byte	0x152
 1393 05f1 16       		.uleb128 0x16
 1394 05f2 D5000000 		.4byte	0xd5
 1395 05f6 16       		.uleb128 0x16
 1396 05f7 7E000000 		.4byte	0x7e
 1397 05fb 00       		.byte	0
 1398 05fc 05       		.uleb128 0x5
 1399 05fd 04       		.byte	0x4
 1400 05fe DE050000 		.4byte	0x5de
 1401 0602 15       		.uleb128 0x15
 1402 0603 7E000000 		.4byte	0x7e
 1403 0607 16060000 		.4byte	0x616
 1404 060b 16       		.uleb128 0x16
 1405 060c 71040000 		.4byte	0x471
 1406 0610 16       		.uleb128 0x16
 1407 0611 52010000 		.4byte	0x152
 1408 0615 00       		.byte	0
 1409 0616 05       		.uleb128 0x5
 1410 0617 04       		.byte	0x4
 1411 0618 02060000 		.4byte	0x602
 1412 061c 0A       		.uleb128 0xa
 1413 061d 37000000 		.4byte	0x37
ARM GAS  /var/folders/d2/nstgp4h54kz7g1l847x_b8wc0000gn/T//ccBxDR0r.s 			page 26


 1414 0621 2C060000 		.4byte	0x62c
 1415 0625 0B       		.uleb128 0xb
 1416 0626 85000000 		.4byte	0x85
 1417 062a 02       		.byte	0x2
 1418 062b 00       		.byte	0
 1419 062c 0A       		.uleb128 0xa
 1420 062d 37000000 		.4byte	0x37
 1421 0631 3C060000 		.4byte	0x63c
 1422 0635 0B       		.uleb128 0xb
 1423 0636 85000000 		.4byte	0x85
 1424 063a 00       		.byte	0
 1425 063b 00       		.byte	0
 1426 063c 07       		.uleb128 0x7
 1427 063d B2060000 		.4byte	.LASF93
 1428 0641 07       		.byte	0x7
 1429 0642 1F01     		.2byte	0x11f
 1430 0644 29030000 		.4byte	0x329
 1431 0648 1A       		.uleb128 0x1a
 1432 0649 5A080000 		.4byte	.LASF94
 1433 064d 0C       		.byte	0xc
 1434 064e 07       		.byte	0x7
 1435 064f 2301     		.2byte	0x123
 1436 0651 7D060000 		.4byte	0x67d
 1437 0655 18       		.uleb128 0x18
 1438 0656 CF070000 		.4byte	.LASF28
 1439 065a 07       		.byte	0x7
 1440 065b 2501     		.2byte	0x125
 1441 065d 7D060000 		.4byte	0x67d
 1442 0661 00       		.byte	0
 1443 0662 18       		.uleb128 0x18
 1444 0663 FF040000 		.4byte	.LASF95
 1445 0667 07       		.byte	0x7
 1446 0668 2601     		.2byte	0x126
 1447 066a 7E000000 		.4byte	0x7e
 1448 066e 04       		.byte	0x4
 1449 066f 18       		.uleb128 0x18
 1450 0670 AC060000 		.4byte	.LASF96
 1451 0674 07       		.byte	0x7
 1452 0675 2701     		.2byte	0x127
 1453 0677 83060000 		.4byte	0x683
 1454 067b 08       		.byte	0x8
 1455 067c 00       		.byte	0
 1456 067d 05       		.uleb128 0x5
 1457 067e 04       		.byte	0x4
 1458 067f 48060000 		.4byte	0x648
 1459 0683 05       		.uleb128 0x5
 1460 0684 04       		.byte	0x4
 1461 0685 3C060000 		.4byte	0x63c
 1462 0689 1A       		.uleb128 0x1a
 1463 068a 78000000 		.4byte	.LASF97
 1464 068e 0E       		.byte	0xe
 1465 068f 07       		.byte	0x7
 1466 0690 3F01     		.2byte	0x13f
 1467 0692 BE060000 		.4byte	0x6be
 1468 0696 18       		.uleb128 0x18
 1469 0697 4C070000 		.4byte	.LASF98
 1470 069b 07       		.byte	0x7
ARM GAS  /var/folders/d2/nstgp4h54kz7g1l847x_b8wc0000gn/T//ccBxDR0r.s 			page 27


 1471 069c 4001     		.2byte	0x140
 1472 069e BE060000 		.4byte	0x6be
 1473 06a2 00       		.byte	0
 1474 06a3 18       		.uleb128 0x18
 1475 06a4 C9070000 		.4byte	.LASF99
 1476 06a8 07       		.byte	0x7
 1477 06a9 4101     		.2byte	0x141
 1478 06ab BE060000 		.4byte	0x6be
 1479 06af 06       		.byte	0x6
 1480 06b0 18       		.uleb128 0x18
 1481 06b1 FC070000 		.4byte	.LASF100
 1482 06b5 07       		.byte	0x7
 1483 06b6 4201     		.2byte	0x142
 1484 06b8 50000000 		.4byte	0x50
 1485 06bc 0C       		.byte	0xc
 1486 06bd 00       		.byte	0
 1487 06be 0A       		.uleb128 0xa
 1488 06bf 50000000 		.4byte	0x50
 1489 06c3 CE060000 		.4byte	0x6ce
 1490 06c7 0B       		.uleb128 0xb
 1491 06c8 85000000 		.4byte	0x85
 1492 06cc 02       		.byte	0x2
 1493 06cd 00       		.byte	0
 1494 06ce 1B       		.uleb128 0x1b
 1495 06cf D0       		.byte	0xd0
 1496 06d0 07       		.byte	0x7
 1497 06d1 5902     		.2byte	0x259
 1498 06d3 CF070000 		.4byte	0x7cf
 1499 06d7 18       		.uleb128 0x18
 1500 06d8 1C080000 		.4byte	.LASF101
 1501 06dc 07       		.byte	0x7
 1502 06dd 5B02     		.2byte	0x25b
 1503 06df 85000000 		.4byte	0x85
 1504 06e3 00       		.byte	0
 1505 06e4 18       		.uleb128 0x18
 1506 06e5 D5070000 		.4byte	.LASF102
 1507 06e9 07       		.byte	0x7
 1508 06ea 5C02     		.2byte	0x25c
 1509 06ec 54010000 		.4byte	0x154
 1510 06f0 04       		.byte	0x4
 1511 06f1 18       		.uleb128 0x18
 1512 06f2 2E050000 		.4byte	.LASF103
 1513 06f6 07       		.byte	0x7
 1514 06f7 5D02     		.2byte	0x25d
 1515 06f9 CF070000 		.4byte	0x7cf
 1516 06fd 08       		.byte	0x8
 1517 06fe 18       		.uleb128 0x18
 1518 06ff C1080000 		.4byte	.LASF104
 1519 0703 07       		.byte	0x7
 1520 0704 5E02     		.2byte	0x25e
 1521 0706 DA010000 		.4byte	0x1da
 1522 070a 24       		.byte	0x24
 1523 070b 18       		.uleb128 0x18
 1524 070c 1B030000 		.4byte	.LASF105
 1525 0710 07       		.byte	0x7
 1526 0711 5F02     		.2byte	0x25f
 1527 0713 7E000000 		.4byte	0x7e
ARM GAS  /var/folders/d2/nstgp4h54kz7g1l847x_b8wc0000gn/T//ccBxDR0r.s 			page 28


 1528 0717 48       		.byte	0x48
 1529 0718 18       		.uleb128 0x18
 1530 0719 D5060000 		.4byte	.LASF106
 1531 071d 07       		.byte	0x7
 1532 071e 6002     		.2byte	0x260
 1533 0720 77000000 		.4byte	0x77
 1534 0724 50       		.byte	0x50
 1535 0725 18       		.uleb128 0x18
 1536 0726 D7080000 		.4byte	.LASF107
 1537 072a 07       		.byte	0x7
 1538 072b 6102     		.2byte	0x261
 1539 072d 89060000 		.4byte	0x689
 1540 0731 58       		.byte	0x58
 1541 0732 18       		.uleb128 0x18
 1542 0733 EA060000 		.4byte	.LASF108
 1543 0737 07       		.byte	0x7
 1544 0738 6202     		.2byte	0x262
 1545 073a 3C010000 		.4byte	0x13c
 1546 073e 68       		.byte	0x68
 1547 073f 18       		.uleb128 0x18
 1548 0740 DC080000 		.4byte	.LASF109
 1549 0744 07       		.byte	0x7
 1550 0745 6302     		.2byte	0x263
 1551 0747 3C010000 		.4byte	0x13c
 1552 074b 70       		.byte	0x70
 1553 074c 18       		.uleb128 0x18
 1554 074d 2F060000 		.4byte	.LASF110
 1555 0751 07       		.byte	0x7
 1556 0752 6402     		.2byte	0x264
 1557 0754 3C010000 		.4byte	0x13c
 1558 0758 78       		.byte	0x78
 1559 0759 18       		.uleb128 0x18
 1560 075a 68080000 		.4byte	.LASF111
 1561 075e 07       		.byte	0x7
 1562 075f 6502     		.2byte	0x265
 1563 0761 DF070000 		.4byte	0x7df
 1564 0765 80       		.byte	0x80
 1565 0766 18       		.uleb128 0x18
 1566 0767 22050000 		.4byte	.LASF112
 1567 076b 07       		.byte	0x7
 1568 076c 6602     		.2byte	0x266
 1569 076e EF070000 		.4byte	0x7ef
 1570 0772 88       		.byte	0x88
 1571 0773 18       		.uleb128 0x18
 1572 0774 AD000000 		.4byte	.LASF113
 1573 0778 07       		.byte	0x7
 1574 0779 6702     		.2byte	0x267
 1575 077b 7E000000 		.4byte	0x7e
 1576 077f A0       		.byte	0xa0
 1577 0780 18       		.uleb128 0x18
 1578 0781 B0020000 		.4byte	.LASF114
 1579 0785 07       		.byte	0x7
 1580 0786 6802     		.2byte	0x268
 1581 0788 3C010000 		.4byte	0x13c
 1582 078c A4       		.byte	0xa4
 1583 078d 18       		.uleb128 0x18
 1584 078e 96010000 		.4byte	.LASF115
ARM GAS  /var/folders/d2/nstgp4h54kz7g1l847x_b8wc0000gn/T//ccBxDR0r.s 			page 29


 1585 0792 07       		.byte	0x7
 1586 0793 6902     		.2byte	0x269
 1587 0795 3C010000 		.4byte	0x13c
 1588 0799 AC       		.byte	0xac
 1589 079a 18       		.uleb128 0x18
 1590 079b 9F020000 		.4byte	.LASF116
 1591 079f 07       		.byte	0x7
 1592 07a0 6A02     		.2byte	0x26a
 1593 07a2 3C010000 		.4byte	0x13c
 1594 07a6 B4       		.byte	0xb4
 1595 07a7 18       		.uleb128 0x18
 1596 07a8 F1000000 		.4byte	.LASF117
 1597 07ac 07       		.byte	0x7
 1598 07ad 6B02     		.2byte	0x26b
 1599 07af 3C010000 		.4byte	0x13c
 1600 07b3 BC       		.byte	0xbc
 1601 07b4 18       		.uleb128 0x18
 1602 07b5 0C010000 		.4byte	.LASF118
 1603 07b9 07       		.byte	0x7
 1604 07ba 6C02     		.2byte	0x26c
 1605 07bc 3C010000 		.4byte	0x13c
 1606 07c0 C4       		.byte	0xc4
 1607 07c1 18       		.uleb128 0x18
 1608 07c2 74060000 		.4byte	.LASF119
 1609 07c6 07       		.byte	0x7
 1610 07c7 6D02     		.2byte	0x26d
 1611 07c9 7E000000 		.4byte	0x7e
 1612 07cd CC       		.byte	0xcc
 1613 07ce 00       		.byte	0
 1614 07cf 0A       		.uleb128 0xa
 1615 07d0 5A010000 		.4byte	0x15a
 1616 07d4 DF070000 		.4byte	0x7df
 1617 07d8 0B       		.uleb128 0xb
 1618 07d9 85000000 		.4byte	0x85
 1619 07dd 19       		.byte	0x19
 1620 07de 00       		.byte	0
 1621 07df 0A       		.uleb128 0xa
 1622 07e0 5A010000 		.4byte	0x15a
 1623 07e4 EF070000 		.4byte	0x7ef
 1624 07e8 0B       		.uleb128 0xb
 1625 07e9 85000000 		.4byte	0x85
 1626 07ed 07       		.byte	0x7
 1627 07ee 00       		.byte	0
 1628 07ef 0A       		.uleb128 0xa
 1629 07f0 5A010000 		.4byte	0x15a
 1630 07f4 FF070000 		.4byte	0x7ff
 1631 07f8 0B       		.uleb128 0xb
 1632 07f9 85000000 		.4byte	0x85
 1633 07fd 17       		.byte	0x17
 1634 07fe 00       		.byte	0
 1635 07ff 1B       		.uleb128 0x1b
 1636 0800 F0       		.byte	0xf0
 1637 0801 07       		.byte	0x7
 1638 0802 7202     		.2byte	0x272
 1639 0804 23080000 		.4byte	0x823
 1640 0808 18       		.uleb128 0x18
 1641 0809 B3050000 		.4byte	.LASF120
ARM GAS  /var/folders/d2/nstgp4h54kz7g1l847x_b8wc0000gn/T//ccBxDR0r.s 			page 30


 1642 080d 07       		.byte	0x7
 1643 080e 7502     		.2byte	0x275
 1644 0810 23080000 		.4byte	0x823
 1645 0814 00       		.byte	0
 1646 0815 18       		.uleb128 0x18
 1647 0816 9E050000 		.4byte	.LASF121
 1648 081a 07       		.byte	0x7
 1649 081b 7602     		.2byte	0x276
 1650 081d 33080000 		.4byte	0x833
 1651 0821 78       		.byte	0x78
 1652 0822 00       		.byte	0
 1653 0823 0A       		.uleb128 0xa
 1654 0824 23030000 		.4byte	0x323
 1655 0828 33080000 		.4byte	0x833
 1656 082c 0B       		.uleb128 0xb
 1657 082d 85000000 		.4byte	0x85
 1658 0831 1D       		.byte	0x1d
 1659 0832 00       		.byte	0
 1660 0833 0A       		.uleb128 0xa
 1661 0834 85000000 		.4byte	0x85
 1662 0838 43080000 		.4byte	0x843
 1663 083c 0B       		.uleb128 0xb
 1664 083d 85000000 		.4byte	0x85
 1665 0841 1D       		.byte	0x1d
 1666 0842 00       		.byte	0
 1667 0843 1C       		.uleb128 0x1c
 1668 0844 F0       		.byte	0xf0
 1669 0845 07       		.byte	0x7
 1670 0846 5702     		.2byte	0x257
 1671 0848 65080000 		.4byte	0x865
 1672 084c 1D       		.uleb128 0x1d
 1673 084d 45070000 		.4byte	.LASF71
 1674 0851 07       		.byte	0x7
 1675 0852 6E02     		.2byte	0x26e
 1676 0854 CE060000 		.4byte	0x6ce
 1677 0858 1D       		.uleb128 0x1d
 1678 0859 9E080000 		.4byte	.LASF122
 1679 085d 07       		.byte	0x7
 1680 085e 7702     		.2byte	0x277
 1681 0860 FF070000 		.4byte	0x7ff
 1682 0864 00       		.byte	0
 1683 0865 0A       		.uleb128 0xa
 1684 0866 5A010000 		.4byte	0x15a
 1685 086a 75080000 		.4byte	0x875
 1686 086e 0B       		.uleb128 0xb
 1687 086f 85000000 		.4byte	0x85
 1688 0873 18       		.byte	0x18
 1689 0874 00       		.byte	0
 1690 0875 06       		.uleb128 0x6
 1691 0876 3D010000 		.4byte	.LASF124
 1692 087a 05       		.uleb128 0x5
 1693 087b 04       		.byte	0x4
 1694 087c 75080000 		.4byte	0x875
 1695 0880 1E       		.uleb128 0x1e
 1696 0881 8B080000 		.4byte	0x88b
 1697 0885 16       		.uleb128 0x16
 1698 0886 71040000 		.4byte	0x471
ARM GAS  /var/folders/d2/nstgp4h54kz7g1l847x_b8wc0000gn/T//ccBxDR0r.s 			page 31


 1699 088a 00       		.byte	0
 1700 088b 05       		.uleb128 0x5
 1701 088c 04       		.byte	0x4
 1702 088d 80080000 		.4byte	0x880
 1703 0891 05       		.uleb128 0x5
 1704 0892 04       		.byte	0x4
 1705 0893 C4010000 		.4byte	0x1c4
 1706 0897 1E       		.uleb128 0x1e
 1707 0898 A2080000 		.4byte	0x8a2
 1708 089c 16       		.uleb128 0x16
 1709 089d 7E000000 		.4byte	0x7e
 1710 08a1 00       		.byte	0
 1711 08a2 05       		.uleb128 0x5
 1712 08a3 04       		.byte	0x4
 1713 08a4 A8080000 		.4byte	0x8a8
 1714 08a8 05       		.uleb128 0x5
 1715 08a9 04       		.byte	0x4
 1716 08aa 97080000 		.4byte	0x897
 1717 08ae 0A       		.uleb128 0xa
 1718 08af 3C060000 		.4byte	0x63c
 1719 08b3 BE080000 		.4byte	0x8be
 1720 08b7 0B       		.uleb128 0xb
 1721 08b8 85000000 		.4byte	0x85
 1722 08bc 02       		.byte	0x2
 1723 08bd 00       		.byte	0
 1724 08be 1F       		.uleb128 0x1f
 1725 08bf 86070000 		.4byte	.LASF125
 1726 08c3 07       		.byte	0x7
 1727 08c4 0703     		.2byte	0x307
 1728 08c6 71040000 		.4byte	0x471
 1729 08ca 1F       		.uleb128 0x1f
 1730 08cb 09080000 		.4byte	.LASF126
 1731 08cf 07       		.byte	0x7
 1732 08d0 0803     		.2byte	0x308
 1733 08d2 77040000 		.4byte	0x477
 1734 08d6 20       		.uleb128 0x20
 1735 08d7 F4050000 		.4byte	.LASF127
 1736 08db 08       		.byte	0x8
 1737 08dc 63       		.byte	0x63
 1738 08dd 54010000 		.4byte	0x154
 1739 08e1 03       		.uleb128 0x3
 1740 08e2 DB000000 		.4byte	.LASF128
 1741 08e6 09       		.byte	0x9
 1742 08e7 08       		.byte	0x8
 1743 08e8 EC080000 		.4byte	0x8ec
 1744 08ec 10       		.uleb128 0x10
 1745 08ed C5000000 		.4byte	.LASF129
 1746 08f1 18       		.byte	0x18
 1747 08f2 09       		.byte	0x9
 1748 08f3 0B       		.byte	0xb
 1749 08f4 40090000 		.4byte	0x940
 1750 08f8 11       		.uleb128 0x11
 1751 08f9 696400   		.ascii	"id\000"
 1752 08fc 09       		.byte	0x9
 1753 08fd 0C       		.byte	0xc
 1754 08fe D2050000 		.4byte	0x5d2
 1755 0902 00       		.byte	0
ARM GAS  /var/folders/d2/nstgp4h54kz7g1l847x_b8wc0000gn/T//ccBxDR0r.s 			page 32


 1756 0903 0D       		.uleb128 0xd
 1757 0904 F0070000 		.4byte	.LASF130
 1758 0908 09       		.byte	0x9
 1759 0909 0D       		.byte	0xd
 1760 090a A2000000 		.4byte	0xa2
 1761 090e 04       		.byte	0x4
 1762 090f 0D       		.uleb128 0xd
 1763 0910 1F020000 		.4byte	.LASF131
 1764 0914 09       		.byte	0x9
 1765 0915 0E       		.byte	0xe
 1766 0916 AA090000 		.4byte	0x9aa
 1767 091a 08       		.byte	0x8
 1768 091b 0D       		.uleb128 0xd
 1769 091c E0060000 		.4byte	.LASF132
 1770 0920 09       		.byte	0x9
 1771 0921 0F       		.byte	0xf
 1772 0922 AA090000 		.4byte	0x9aa
 1773 0926 0C       		.byte	0xc
 1774 0927 0D       		.uleb128 0xd
 1775 0928 A5010000 		.4byte	.LASF133
 1776 092c 09       		.byte	0x9
 1777 092d 10       		.byte	0x10
 1778 092e AA090000 		.4byte	0x9aa
 1779 0932 10       		.byte	0x10
 1780 0933 0D       		.uleb128 0xd
 1781 0934 80020000 		.4byte	.LASF134
 1782 0938 09       		.byte	0x9
 1783 0939 11       		.byte	0x11
 1784 093a B0090000 		.4byte	0x9b0
 1785 093e 14       		.byte	0x14
 1786 093f 00       		.byte	0
 1787 0940 03       		.uleb128 0x3
 1788 0941 48010000 		.4byte	.LASF135
 1789 0945 09       		.byte	0x9
 1790 0946 09       		.byte	0x9
 1791 0947 4B090000 		.4byte	0x94b
 1792 094b 10       		.uleb128 0x10
 1793 094c 00010000 		.4byte	.LASF136
 1794 0950 18       		.byte	0x18
 1795 0951 09       		.byte	0x9
 1796 0952 2E       		.byte	0x2e
 1797 0953 AA090000 		.4byte	0x9aa
 1798 0957 11       		.uleb128 0x11
 1799 0958 696400   		.ascii	"id\000"
 1800 095b 09       		.byte	0x9
 1801 095c 2F       		.byte	0x2f
 1802 095d D2050000 		.4byte	0x5d2
 1803 0961 00       		.byte	0
 1804 0962 11       		.uleb128 0x11
 1805 0963 6E7300   		.ascii	"ns\000"
 1806 0966 09       		.byte	0x9
 1807 0967 30       		.byte	0x30
 1808 0968 AA090000 		.4byte	0x9aa
 1809 096c 04       		.byte	0x4
 1810 096d 0D       		.uleb128 0xd
 1811 096e A5010000 		.4byte	.LASF133
 1812 0972 09       		.byte	0x9
ARM GAS  /var/folders/d2/nstgp4h54kz7g1l847x_b8wc0000gn/T//ccBxDR0r.s 			page 33


 1813 0973 31       		.byte	0x31
 1814 0974 B0090000 		.4byte	0x9b0
 1815 0978 08       		.byte	0x8
 1816 0979 0D       		.uleb128 0xd
 1817 097a DB010000 		.4byte	.LASF137
 1818 097e 09       		.byte	0x9
 1819 097f 32       		.byte	0x32
 1820 0980 970A0000 		.4byte	0xa97
 1821 0984 0C       		.byte	0xc
 1822 0985 0D       		.uleb128 0xd
 1823 0986 78020000 		.4byte	.LASF138
 1824 098a 09       		.byte	0x9
 1825 098b 33       		.byte	0x33
 1826 098c 970A0000 		.4byte	0xa97
 1827 0990 0D       		.byte	0xd
 1828 0991 0D       		.uleb128 0xd
 1829 0992 C0000000 		.4byte	.LASF139
 1830 0996 09       		.byte	0x9
 1831 0997 34       		.byte	0x34
 1832 0998 8C000000 		.4byte	0x8c
 1833 099c 0E       		.byte	0xe
 1834 099d 0D       		.uleb128 0xd
 1835 099e 6C000000 		.4byte	.LASF140
 1836 09a2 09       		.byte	0x9
 1837 09a3 3C       		.byte	0x3c
 1838 09a4 520A0000 		.4byte	0xa52
 1839 09a8 10       		.byte	0x10
 1840 09a9 00       		.byte	0
 1841 09aa 05       		.uleb128 0x5
 1842 09ab 04       		.byte	0x4
 1843 09ac E1080000 		.4byte	0x8e1
 1844 09b0 05       		.uleb128 0x5
 1845 09b1 04       		.byte	0x4
 1846 09b2 40090000 		.4byte	0x940
 1847 09b6 10       		.uleb128 0x10
 1848 09b7 06020000 		.4byte	.LASF141
 1849 09bb 08       		.byte	0x8
 1850 09bc 09       		.byte	0x9
 1851 09bd 14       		.byte	0x14
 1852 09be E7090000 		.4byte	0x9e7
 1853 09c2 11       		.uleb128 0x11
 1854 09c3 62756600 		.ascii	"buf\000"
 1855 09c7 09       		.byte	0x9
 1856 09c8 15       		.byte	0x15
 1857 09c9 54010000 		.4byte	0x154
 1858 09cd 00       		.byte	0
 1859 09ce 0D       		.uleb128 0xd
 1860 09cf CD010000 		.4byte	.LASF142
 1861 09d3 09       		.byte	0x9
 1862 09d4 16       		.byte	0x16
 1863 09d5 97000000 		.4byte	0x97
 1864 09d9 04       		.byte	0x4
 1865 09da 11       		.uleb128 0x11
 1866 09db 6C656E00 		.ascii	"len\000"
 1867 09df 09       		.byte	0x9
 1868 09e0 17       		.byte	0x17
 1869 09e1 97000000 		.4byte	0x97
ARM GAS  /var/folders/d2/nstgp4h54kz7g1l847x_b8wc0000gn/T//ccBxDR0r.s 			page 34


 1870 09e5 06       		.byte	0x6
 1871 09e6 00       		.byte	0
 1872 09e7 10       		.uleb128 0x10
 1873 09e8 98060000 		.4byte	.LASF143
 1874 09ec 08       		.byte	0x8
 1875 09ed 09       		.byte	0x9
 1876 09ee 1A       		.byte	0x1a
 1877 09ef 180A0000 		.4byte	0xa18
 1878 09f3 11       		.uleb128 0x11
 1879 09f4 62756600 		.ascii	"buf\000"
 1880 09f8 09       		.byte	0x9
 1881 09f9 1B       		.byte	0x1b
 1882 09fa 180A0000 		.4byte	0xa18
 1883 09fe 00       		.byte	0
 1884 09ff 0D       		.uleb128 0xd
 1885 0a00 8E010000 		.4byte	.LASF144
 1886 0a04 09       		.byte	0x9
 1887 0a05 1C       		.byte	0x1c
 1888 0a06 97000000 		.4byte	0x97
 1889 0a0a 04       		.byte	0x4
 1890 0a0b 11       		.uleb128 0x11
 1891 0a0c 64696D00 		.ascii	"dim\000"
 1892 0a10 09       		.byte	0x9
 1893 0a11 1D       		.byte	0x1d
 1894 0a12 97000000 		.4byte	0x97
 1895 0a16 06       		.byte	0x6
 1896 0a17 00       		.byte	0
 1897 0a18 05       		.uleb128 0x5
 1898 0a19 04       		.byte	0x4
 1899 0a1a 1E0A0000 		.4byte	0xa1e
 1900 0a1e 02       		.uleb128 0x2
 1901 0a1f 04       		.byte	0x4
 1902 0a20 04       		.byte	0x4
 1903 0a21 10060000 		.4byte	.LASF145
 1904 0a25 10       		.uleb128 0x10
 1905 0a26 2A030000 		.4byte	.LASF146
 1906 0a2a 08       		.byte	0x8
 1907 0a2b 09       		.byte	0x9
 1908 0a2c 20       		.byte	0x20
 1909 0a2d 520A0000 		.4byte	0xa52
 1910 0a31 11       		.uleb128 0x11
 1911 0a32 62756600 		.ascii	"buf\000"
 1912 0a36 09       		.byte	0x9
 1913 0a37 21       		.byte	0x21
 1914 0a38 180A0000 		.4byte	0xa18
 1915 0a3c 00       		.byte	0
 1916 0a3d 11       		.uleb128 0x11
 1917 0a3e 6E00     		.ascii	"n\000"
 1918 0a40 09       		.byte	0x9
 1919 0a41 22       		.byte	0x22
 1920 0a42 97000000 		.4byte	0x97
 1921 0a46 04       		.byte	0x4
 1922 0a47 11       		.uleb128 0x11
 1923 0a48 6D00     		.ascii	"m\000"
 1924 0a4a 09       		.byte	0x9
 1925 0a4b 23       		.byte	0x23
 1926 0a4c 97000000 		.4byte	0x97
ARM GAS  /var/folders/d2/nstgp4h54kz7g1l847x_b8wc0000gn/T//ccBxDR0r.s 			page 35


 1927 0a50 06       		.byte	0x6
 1928 0a51 00       		.byte	0
 1929 0a52 08       		.uleb128 0x8
 1930 0a53 08       		.byte	0x8
 1931 0a54 09       		.byte	0x9
 1932 0a55 35       		.byte	0x35
 1933 0a56 970A0000 		.4byte	0xa97
 1934 0a5a 21       		.uleb128 0x21
 1935 0a5b 6200     		.ascii	"b\000"
 1936 0a5d 09       		.byte	0x9
 1937 0a5e 36       		.byte	0x36
 1938 0a5f 970A0000 		.4byte	0xa97
 1939 0a63 21       		.uleb128 0x21
 1940 0a64 7300     		.ascii	"s\000"
 1941 0a66 09       		.byte	0x9
 1942 0a67 37       		.byte	0x37
 1943 0a68 1E0A0000 		.4byte	0xa1e
 1944 0a6c 21       		.uleb128 0x21
 1945 0a6d 6900     		.ascii	"i\000"
 1946 0a6f 09       		.byte	0x9
 1947 0a70 38       		.byte	0x38
 1948 0a71 A2000000 		.4byte	0xa2
 1949 0a75 21       		.uleb128 0x21
 1950 0a76 73747200 		.ascii	"str\000"
 1951 0a7a 09       		.byte	0x9
 1952 0a7b 39       		.byte	0x39
 1953 0a7c B6090000 		.4byte	0x9b6
 1954 0a80 09       		.uleb128 0x9
 1955 0a81 BA070000 		.4byte	.LASF147
 1956 0a85 09       		.byte	0x9
 1957 0a86 3A       		.byte	0x3a
 1958 0a87 E7090000 		.4byte	0x9e7
 1959 0a8b 21       		.uleb128 0x21
 1960 0a8c 6D617400 		.ascii	"mat\000"
 1961 0a90 09       		.byte	0x9
 1962 0a91 3B       		.byte	0x3b
 1963 0a92 250A0000 		.4byte	0xa25
 1964 0a96 00       		.byte	0
 1965 0a97 02       		.uleb128 0x2
 1966 0a98 01       		.byte	0x1
 1967 0a99 02       		.byte	0x2
 1968 0a9a 3D060000 		.4byte	.LASF148
 1969 0a9e 03       		.uleb128 0x3
 1970 0a9f 84080000 		.4byte	.LASF149
 1971 0aa3 0A       		.byte	0xa
 1972 0aa4 0A       		.byte	0xa
 1973 0aa5 A90A0000 		.4byte	0xaa9
 1974 0aa9 05       		.uleb128 0x5
 1975 0aaa 04       		.byte	0x4
 1976 0aab AF0A0000 		.4byte	0xaaf
 1977 0aaf 15       		.uleb128 0x15
 1978 0ab0 7E000000 		.4byte	0x7e
 1979 0ab4 C40A0000 		.4byte	0xac4
 1980 0ab8 16       		.uleb128 0x16
 1981 0ab9 52010000 		.4byte	0x152
 1982 0abd 16       		.uleb128 0x16
 1983 0abe D2050000 		.4byte	0x5d2
ARM GAS  /var/folders/d2/nstgp4h54kz7g1l847x_b8wc0000gn/T//ccBxDR0r.s 			page 36


 1984 0ac2 22       		.uleb128 0x22
 1985 0ac3 00       		.byte	0
 1986 0ac4 23       		.uleb128 0x23
 1987 0ac5 A6080000 		.4byte	.LASF171
 1988 0ac9 01       		.byte	0x1
 1989 0aca 78       		.byte	0x78
 1990 0acb 00000000 		.4byte	.LFB4
 1991 0acf 30000000 		.4byte	.LFE4-.LFB4
 1992 0ad3 01       		.uleb128 0x1
 1993 0ad4 9C       		.byte	0x9c
 1994 0ad5 490B0000 		.4byte	0xb49
 1995 0ad9 24       		.uleb128 0x24
 1996 0ada 6E7300   		.ascii	"ns\000"
 1997 0add 01       		.byte	0x1
 1998 0ade 78       		.byte	0x78
 1999 0adf AA090000 		.4byte	0x9aa
 2000 0ae3 00000000 		.4byte	.LLST18
 2001 0ae7 25       		.uleb128 0x25
 2002 0ae8 7C080000 		.4byte	.LASF150
 2003 0aec 01       		.byte	0x1
 2004 0aed 79       		.byte	0x79
 2005 0aee 9E0A0000 		.4byte	0xa9e
 2006 0af2 2E000000 		.4byte	.LLST19
 2007 0af6 25       		.uleb128 0x25
 2008 0af7 95000000 		.4byte	.LASF151
 2009 0afb 01       		.byte	0x1
 2010 0afc 7A       		.byte	0x7a
 2011 0afd 52010000 		.4byte	0x152
 2012 0b01 5A000000 		.4byte	.LLST20
 2013 0b05 26       		.uleb128 0x26
 2014 0b06 1A000000 		.4byte	.LVL78
 2015 0b0a FB0C0000 		.4byte	0xcfb
 2016 0b0e 3F0B0000 		.4byte	0xb3f
 2017 0b12 27       		.uleb128 0x27
 2018 0b13 01       		.uleb128 0x1
 2019 0b14 50       		.byte	0x50
 2020 0b15 05       		.uleb128 0x5
 2021 0b16 F3       		.byte	0xf3
 2022 0b17 01       		.uleb128 0x1
 2023 0b18 50       		.byte	0x50
 2024 0b19 23       		.byte	0x23
 2025 0b1a 0C       		.uleb128 0xc
 2026 0b1b 27       		.uleb128 0x27
 2027 0b1c 01       		.uleb128 0x1
 2028 0b1d 51       		.byte	0x51
 2029 0b1e 02       		.uleb128 0x2
 2030 0b1f 75       		.byte	0x75
 2031 0b20 00       		.sleb128 0
 2032 0b21 27       		.uleb128 0x27
 2033 0b22 01       		.uleb128 0x1
 2034 0b23 52       		.byte	0x52
 2035 0b24 01       		.uleb128 0x1
 2036 0b25 30       		.byte	0x30
 2037 0b26 27       		.uleb128 0x27
 2038 0b27 01       		.uleb128 0x1
 2039 0b28 53       		.byte	0x53
 2040 0b29 03       		.uleb128 0x3
ARM GAS  /var/folders/d2/nstgp4h54kz7g1l847x_b8wc0000gn/T//ccBxDR0r.s 			page 37


 2041 0b2a F3       		.byte	0xf3
 2042 0b2b 01       		.uleb128 0x1
 2043 0b2c 51       		.byte	0x51
 2044 0b2d 27       		.uleb128 0x27
 2045 0b2e 02       		.uleb128 0x2
 2046 0b2f 7D       		.byte	0x7d
 2047 0b30 00       		.sleb128 0
 2048 0b31 03       		.uleb128 0x3
 2049 0b32 F3       		.byte	0xf3
 2050 0b33 01       		.uleb128 0x1
 2051 0b34 52       		.byte	0x52
 2052 0b35 28       		.uleb128 0x28
 2053 0b36 550B0000 		.4byte	0xb55
 2054 0b3a 03       		.uleb128 0x3
 2055 0b3b F3       		.byte	0xf3
 2056 0b3c 01       		.uleb128 0x1
 2057 0b3d 50       		.byte	0x50
 2058 0b3e 00       		.byte	0
 2059 0b3f 29       		.uleb128 0x29
 2060 0b40 2A000000 		.4byte	.LVL79
 2061 0b44 0B110000 		.4byte	0x110b
 2062 0b48 00       		.byte	0
 2063 0b49 2A       		.uleb128 0x2a
 2064 0b4a 20060000 		.4byte	.LASF153
 2065 0b4e 01       		.byte	0x1
 2066 0b4f 64       		.byte	0x64
 2067 0b50 01       		.byte	0x1
 2068 0b51 930B0000 		.4byte	0xb93
 2069 0b55 2B       		.uleb128 0x2b
 2070 0b56 6E7300   		.ascii	"ns\000"
 2071 0b59 01       		.byte	0x1
 2072 0b5a 64       		.byte	0x64
 2073 0b5b AA090000 		.4byte	0x9aa
 2074 0b5f 2C       		.uleb128 0x2c
 2075 0b60 82050000 		.4byte	.LASF152
 2076 0b64 01       		.byte	0x1
 2077 0b65 65       		.byte	0x65
 2078 0b66 7E000000 		.4byte	0x7e
 2079 0b6a 2C       		.uleb128 0x2c
 2080 0b6b 7C080000 		.4byte	.LASF150
 2081 0b6f 01       		.byte	0x1
 2082 0b70 66       		.byte	0x66
 2083 0b71 9E0A0000 		.4byte	0xa9e
 2084 0b75 2C       		.uleb128 0x2c
 2085 0b76 95000000 		.4byte	.LASF151
 2086 0b7a 01       		.byte	0x1
 2087 0b7b 67       		.byte	0x67
 2088 0b7c 52010000 		.4byte	0x152
 2089 0b80 2D       		.uleb128 0x2d
 2090 0b81 7000     		.ascii	"p\000"
 2091 0b83 01       		.byte	0x1
 2092 0b84 69       		.byte	0x69
 2093 0b85 B0090000 		.4byte	0x9b0
 2094 0b89 2D       		.uleb128 0x2d
 2095 0b8a 6E00     		.ascii	"n\000"
 2096 0b8c 01       		.byte	0x1
 2097 0b8d 6E       		.byte	0x6e
ARM GAS  /var/folders/d2/nstgp4h54kz7g1l847x_b8wc0000gn/T//ccBxDR0r.s 			page 38


 2098 0b8e AA090000 		.4byte	0x9aa
 2099 0b92 00       		.byte	0
 2100 0b93 2A       		.uleb128 0x2a
 2101 0b94 BA050000 		.4byte	.LASF154
 2102 0b98 01       		.byte	0x1
 2103 0b99 24       		.byte	0x24
 2104 0b9a 01       		.byte	0x1
 2105 0b9b 140C0000 		.4byte	0xc14
 2106 0b9f 2B       		.uleb128 0x2b
 2107 0ba0 7000     		.ascii	"p\000"
 2108 0ba2 01       		.byte	0x1
 2109 0ba3 24       		.byte	0x24
 2110 0ba4 B0090000 		.4byte	0x9b0
 2111 0ba8 2C       		.uleb128 0x2c
 2112 0ba9 82050000 		.4byte	.LASF152
 2113 0bad 01       		.byte	0x1
 2114 0bae 25       		.byte	0x25
 2115 0baf 7E000000 		.4byte	0x7e
 2116 0bb3 2C       		.uleb128 0x2c
 2117 0bb4 7C080000 		.4byte	.LASF150
 2118 0bb8 01       		.byte	0x1
 2119 0bb9 26       		.byte	0x26
 2120 0bba 9E0A0000 		.4byte	0xa9e
 2121 0bbe 2C       		.uleb128 0x2c
 2122 0bbf 95000000 		.4byte	.LASF151
 2123 0bc3 01       		.byte	0x1
 2124 0bc4 27       		.byte	0x27
 2125 0bc5 52010000 		.4byte	0x152
 2126 0bc9 2E       		.uleb128 0x2e
 2127 0bca E30B0000 		.4byte	0xbe3
 2128 0bce 2D       		.uleb128 0x2d
 2129 0bcf 6C656E00 		.ascii	"len\000"
 2130 0bd3 01       		.byte	0x1
 2131 0bd4 3D       		.byte	0x3d
 2132 0bd5 7E000000 		.4byte	0x7e
 2133 0bd9 2D       		.uleb128 0x2d
 2134 0bda 7300     		.ascii	"s\000"
 2135 0bdc 01       		.byte	0x1
 2136 0bdd 3E       		.byte	0x3e
 2137 0bde 54010000 		.4byte	0x154
 2138 0be2 00       		.byte	0
 2139 0be3 2E       		.uleb128 0x2e
 2140 0be4 FD0B0000 		.4byte	0xbfd
 2141 0be8 2D       		.uleb128 0x2d
 2142 0be9 64696D00 		.ascii	"dim\000"
 2143 0bed 01       		.byte	0x1
 2144 0bee 49       		.byte	0x49
 2145 0bef 7E000000 		.4byte	0x7e
 2146 0bf3 2D       		.uleb128 0x2d
 2147 0bf4 7600     		.ascii	"v\000"
 2148 0bf6 01       		.byte	0x1
 2149 0bf7 4A       		.byte	0x4a
 2150 0bf8 180A0000 		.4byte	0xa18
 2151 0bfc 00       		.byte	0
 2152 0bfd 2F       		.uleb128 0x2f
 2153 0bfe 2D       		.uleb128 0x2d
 2154 0bff 64696D00 		.ascii	"dim\000"
ARM GAS  /var/folders/d2/nstgp4h54kz7g1l847x_b8wc0000gn/T//ccBxDR0r.s 			page 39


 2155 0c03 01       		.byte	0x1
 2156 0c04 55       		.byte	0x55
 2157 0c05 7E000000 		.4byte	0x7e
 2158 0c09 2D       		.uleb128 0x2d
 2159 0c0a 7600     		.ascii	"v\000"
 2160 0c0c 01       		.byte	0x1
 2161 0c0d 56       		.byte	0x56
 2162 0c0e 180A0000 		.4byte	0xa18
 2163 0c12 00       		.byte	0
 2164 0c13 00       		.byte	0
 2165 0c14 30       		.uleb128 0x30
 2166 0c15 A1000000 		.4byte	.LASF172
 2167 0c19 01       		.byte	0x1
 2168 0c1a 12       		.byte	0x12
 2169 0c1b 00000000 		.4byte	.LFB1
 2170 0c1f 7C000000 		.4byte	.LFE1-.LFB1
 2171 0c23 01       		.uleb128 0x1
 2172 0c24 9C       		.byte	0x9c
 2173 0c25 C40C0000 		.4byte	0xcc4
 2174 0c29 24       		.uleb128 0x24
 2175 0c2a 6100     		.ascii	"a\000"
 2176 0c2c 01       		.byte	0x1
 2177 0c2d 12       		.byte	0x12
 2178 0c2e 180A0000 		.4byte	0xa18
 2179 0c32 87000000 		.4byte	.LLST0
 2180 0c36 24       		.uleb128 0x24
 2181 0c37 6C656E00 		.ascii	"len\000"
 2182 0c3b 01       		.byte	0x1
 2183 0c3c 13       		.byte	0x13
 2184 0c3d 7E000000 		.4byte	0x7e
 2185 0c41 B3000000 		.4byte	.LLST1
 2186 0c45 25       		.uleb128 0x25
 2187 0c46 7C080000 		.4byte	.LASF150
 2188 0c4a 01       		.byte	0x1
 2189 0c4b 14       		.byte	0x14
 2190 0c4c 9E0A0000 		.4byte	0xa9e
 2191 0c50 EA000000 		.4byte	.LLST2
 2192 0c54 25       		.uleb128 0x25
 2193 0c55 95000000 		.4byte	.LASF151
 2194 0c59 01       		.byte	0x1
 2195 0c5a 15       		.byte	0x15
 2196 0c5b 52010000 		.4byte	0x152
 2197 0c5f 2C010000 		.4byte	.LLST3
 2198 0c63 31       		.uleb128 0x31
 2199 0c64 6900     		.ascii	"i\000"
 2200 0c66 01       		.byte	0x1
 2201 0c67 18       		.byte	0x18
 2202 0c68 7E000000 		.4byte	0x7e
 2203 0c6c 6E010000 		.4byte	.LLST4
 2204 0c70 32       		.uleb128 0x32
 2205 0c71 1E000000 		.4byte	.LVL4
 2206 0c75 02       		.uleb128 0x2
 2207 0c76 76       		.byte	0x76
 2208 0c77 00       		.sleb128 0
 2209 0c78 8C0C0000 		.4byte	0xc8c
 2210 0c7c 27       		.uleb128 0x27
 2211 0c7d 01       		.uleb128 0x1
ARM GAS  /var/folders/d2/nstgp4h54kz7g1l847x_b8wc0000gn/T//ccBxDR0r.s 			page 40


 2212 0c7e 50       		.byte	0x50
 2213 0c7f 02       		.uleb128 0x2
 2214 0c80 77       		.byte	0x77
 2215 0c81 00       		.sleb128 0
 2216 0c82 27       		.uleb128 0x27
 2217 0c83 01       		.uleb128 0x1
 2218 0c84 51       		.byte	0x51
 2219 0c85 05       		.uleb128 0x5
 2220 0c86 03       		.byte	0x3
 2221 0c87 00000000 		.4byte	.LC0
 2222 0c8b 00       		.byte	0
 2223 0c8c 33       		.uleb128 0x33
 2224 0c8d 48000000 		.4byte	.LVL8
 2225 0c91 9C0C0000 		.4byte	0xc9c
 2226 0c95 27       		.uleb128 0x27
 2227 0c96 01       		.uleb128 0x1
 2228 0c97 50       		.byte	0x50
 2229 0c98 02       		.uleb128 0x2
 2230 0c99 77       		.byte	0x77
 2231 0c9a 00       		.sleb128 0
 2232 0c9b 00       		.byte	0
 2233 0c9c 34       		.uleb128 0x34
 2234 0c9d 64000000 		.4byte	.LVL11
 2235 0ca1 03       		.uleb128 0x3
 2236 0ca2 F3       		.byte	0xf3
 2237 0ca3 01       		.uleb128 0x1
 2238 0ca4 52       		.byte	0x52
 2239 0ca5 BA0C0000 		.4byte	0xcba
 2240 0ca9 27       		.uleb128 0x27
 2241 0caa 01       		.uleb128 0x1
 2242 0cab 50       		.byte	0x50
 2243 0cac 03       		.uleb128 0x3
 2244 0cad F3       		.byte	0xf3
 2245 0cae 01       		.uleb128 0x1
 2246 0caf 53       		.byte	0x53
 2247 0cb0 27       		.uleb128 0x27
 2248 0cb1 01       		.uleb128 0x1
 2249 0cb2 51       		.byte	0x51
 2250 0cb3 05       		.uleb128 0x5
 2251 0cb4 03       		.byte	0x3
 2252 0cb5 10000000 		.4byte	.LC3
 2253 0cb9 00       		.byte	0
 2254 0cba 29       		.uleb128 0x29
 2255 0cbb 68000000 		.4byte	.LVL12
 2256 0cbf 0B110000 		.4byte	0x110b
 2257 0cc3 00       		.byte	0
 2258 0cc4 2A       		.uleb128 0x2a
 2259 0cc5 73050000 		.4byte	.LASF155
 2260 0cc9 01       		.byte	0x1
 2261 0cca 07       		.byte	0x7
 2262 0ccb 01       		.byte	0x1
 2263 0ccc FB0C0000 		.4byte	0xcfb
 2264 0cd0 2C       		.uleb128 0x2c
 2265 0cd1 82050000 		.4byte	.LASF152
 2266 0cd5 01       		.byte	0x1
 2267 0cd6 07       		.byte	0x7
 2268 0cd7 7E000000 		.4byte	0x7e
ARM GAS  /var/folders/d2/nstgp4h54kz7g1l847x_b8wc0000gn/T//ccBxDR0r.s 			page 41


 2269 0cdb 2C       		.uleb128 0x2c
 2270 0cdc 7C080000 		.4byte	.LASF150
 2271 0ce0 01       		.byte	0x1
 2272 0ce1 08       		.byte	0x8
 2273 0ce2 9E0A0000 		.4byte	0xa9e
 2274 0ce6 2C       		.uleb128 0x2c
 2275 0ce7 95000000 		.4byte	.LASF151
 2276 0ceb 01       		.byte	0x1
 2277 0cec 09       		.byte	0x9
 2278 0ced 52010000 		.4byte	0x152
 2279 0cf1 2D       		.uleb128 0x2d
 2280 0cf2 6900     		.ascii	"i\000"
 2281 0cf4 01       		.byte	0x1
 2282 0cf5 0B       		.byte	0xb
 2283 0cf6 7E000000 		.4byte	0x7e
 2284 0cfa 00       		.byte	0
 2285 0cfb 35       		.uleb128 0x35
 2286 0cfc 490B0000 		.4byte	0xb49
 2287 0d00 00000000 		.4byte	.LFB5
 2288 0d04 E0010000 		.4byte	.LFE5-.LFB5
 2289 0d08 01       		.uleb128 0x1
 2290 0d09 9C       		.byte	0x9c
 2291 0d0a 0B110000 		.4byte	0x110b
 2292 0d0e 36       		.uleb128 0x36
 2293 0d0f 5F0B0000 		.4byte	0xb5f
 2294 0d13 A5010000 		.4byte	.LLST5
 2295 0d17 36       		.uleb128 0x36
 2296 0d18 6A0B0000 		.4byte	0xb6a
 2297 0d1c C3010000 		.4byte	.LLST6
 2298 0d20 36       		.uleb128 0x36
 2299 0d21 750B0000 		.4byte	0xb75
 2300 0d25 E1010000 		.4byte	.LLST7
 2301 0d29 37       		.uleb128 0x37
 2302 0d2a 550B0000 		.4byte	0xb55
 2303 0d2e 37       		.uleb128 0x37
 2304 0d2f 550B0000 		.4byte	0xb55
 2305 0d33 38       		.uleb128 0x38
 2306 0d34 800B0000 		.4byte	0xb80
 2307 0d38 01020000 		.4byte	.LLST8
 2308 0d3c 38       		.uleb128 0x38
 2309 0d3d 890B0000 		.4byte	0xb89
 2310 0d41 2A020000 		.4byte	.LLST9
 2311 0d45 39       		.uleb128 0x39
 2312 0d46 930B0000 		.4byte	0xb93
 2313 0d4a 16000000 		.4byte	.LBB20
 2314 0d4e 00000000 		.4byte	.Ldebug_ranges0+0
 2315 0d52 01       		.byte	0x1
 2316 0d53 6B       		.byte	0x6b
 2317 0d54 78100000 		.4byte	0x1078
 2318 0d58 37       		.uleb128 0x37
 2319 0d59 BE0B0000 		.4byte	0xbbe
 2320 0d5d 37       		.uleb128 0x37
 2321 0d5e B30B0000 		.4byte	0xbb3
 2322 0d62 37       		.uleb128 0x37
 2323 0d63 A80B0000 		.4byte	0xba8
 2324 0d67 37       		.uleb128 0x37
 2325 0d68 9F0B0000 		.4byte	0xb9f
ARM GAS  /var/folders/d2/nstgp4h54kz7g1l847x_b8wc0000gn/T//ccBxDR0r.s 			page 42


 2326 0d6c 39       		.uleb128 0x39
 2327 0d6d C40C0000 		.4byte	0xcc4
 2328 0d71 16000000 		.4byte	.LBB22
 2329 0d75 18000000 		.4byte	.Ldebug_ranges0+0x18
 2330 0d79 01       		.byte	0x1
 2331 0d7a 29       		.byte	0x29
 2332 0d7b B00D0000 		.4byte	0xdb0
 2333 0d7f 37       		.uleb128 0x37
 2334 0d80 E60C0000 		.4byte	0xce6
 2335 0d84 37       		.uleb128 0x37
 2336 0d85 DB0C0000 		.4byte	0xcdb
 2337 0d89 37       		.uleb128 0x37
 2338 0d8a D00C0000 		.4byte	0xcd0
 2339 0d8e 3A       		.uleb128 0x3a
 2340 0d8f 18000000 		.4byte	.Ldebug_ranges0+0x18
 2341 0d93 38       		.uleb128 0x38
 2342 0d94 F10C0000 		.4byte	0xcf1
 2343 0d98 48020000 		.4byte	.LLST10
 2344 0d9c 3B       		.uleb128 0x3b
 2345 0d9d 30000000 		.4byte	.LVL18
 2346 0da1 27       		.uleb128 0x27
 2347 0da2 01       		.uleb128 0x1
 2348 0da3 50       		.byte	0x50
 2349 0da4 02       		.uleb128 0x2
 2350 0da5 75       		.byte	0x75
 2351 0da6 00       		.sleb128 0
 2352 0da7 27       		.uleb128 0x27
 2353 0da8 01       		.uleb128 0x1
 2354 0da9 51       		.byte	0x51
 2355 0daa 02       		.uleb128 0x2
 2356 0dab 77       		.byte	0x77
 2357 0dac 00       		.sleb128 0
 2358 0dad 00       		.byte	0
 2359 0dae 00       		.byte	0
 2360 0daf 00       		.byte	0
 2361 0db0 3C       		.uleb128 0x3c
 2362 0db1 FD0B0000 		.4byte	0xbfd
 2363 0db5 30000000 		.4byte	.Ldebug_ranges0+0x30
 2364 0db9 370E0000 		.4byte	0xe37
 2365 0dbd 38       		.uleb128 0x38
 2366 0dbe FE0B0000 		.4byte	0xbfe
 2367 0dc2 7F020000 		.4byte	.LLST11
 2368 0dc6 38       		.uleb128 0x38
 2369 0dc7 090C0000 		.4byte	0xc09
 2370 0dcb A9020000 		.4byte	.LLST12
 2371 0dcf 26       		.uleb128 0x26
 2372 0dd0 C8000000 		.4byte	.LVL35
 2373 0dd4 14110000 		.4byte	0x1114
 2374 0dd8 E30D0000 		.4byte	0xde3
 2375 0ddc 27       		.uleb128 0x27
 2376 0ddd 01       		.uleb128 0x1
 2377 0dde 50       		.byte	0x50
 2378 0ddf 02       		.uleb128 0x2
 2379 0de0 78       		.byte	0x78
 2380 0de1 00       		.sleb128 0
 2381 0de2 00       		.byte	0
 2382 0de3 29       		.uleb128 0x29
ARM GAS  /var/folders/d2/nstgp4h54kz7g1l847x_b8wc0000gn/T//ccBxDR0r.s 			page 43


 2383 0de4 CE000000 		.4byte	.LVL37
 2384 0de8 1F110000 		.4byte	0x111f
 2385 0dec 26       		.uleb128 0x26
 2386 0ded 90010000 		.4byte	.LVL68
 2387 0df1 2A110000 		.4byte	0x112a
 2388 0df5 060E0000 		.4byte	0xe06
 2389 0df9 27       		.uleb128 0x27
 2390 0dfa 01       		.uleb128 0x1
 2391 0dfb 50       		.byte	0x50
 2392 0dfc 02       		.uleb128 0x2
 2393 0dfd 78       		.byte	0x78
 2394 0dfe 00       		.sleb128 0
 2395 0dff 27       		.uleb128 0x27
 2396 0e00 01       		.uleb128 0x1
 2397 0e01 51       		.byte	0x51
 2398 0e02 02       		.uleb128 0x2
 2399 0e03 7A       		.byte	0x7a
 2400 0e04 00       		.sleb128 0
 2401 0e05 00       		.byte	0
 2402 0e06 26       		.uleb128 0x26
 2403 0e07 9C010000 		.4byte	.LVL70
 2404 0e0b 140C0000 		.4byte	0xc14
 2405 0e0f 260E0000 		.4byte	0xe26
 2406 0e13 27       		.uleb128 0x27
 2407 0e14 01       		.uleb128 0x1
 2408 0e15 50       		.byte	0x50
 2409 0e16 02       		.uleb128 0x2
 2410 0e17 7A       		.byte	0x7a
 2411 0e18 00       		.sleb128 0
 2412 0e19 27       		.uleb128 0x27
 2413 0e1a 01       		.uleb128 0x1
 2414 0e1b 52       		.byte	0x52
 2415 0e1c 02       		.uleb128 0x2
 2416 0e1d 74       		.byte	0x74
 2417 0e1e 00       		.sleb128 0
 2418 0e1f 27       		.uleb128 0x27
 2419 0e20 01       		.uleb128 0x1
 2420 0e21 53       		.byte	0x53
 2421 0e22 02       		.uleb128 0x2
 2422 0e23 75       		.byte	0x75
 2423 0e24 00       		.sleb128 0
 2424 0e25 00       		.byte	0
 2425 0e26 3D       		.uleb128 0x3d
 2426 0e27 A2010000 		.4byte	.LVL71
 2427 0e2b 35110000 		.4byte	0x1135
 2428 0e2f 27       		.uleb128 0x27
 2429 0e30 01       		.uleb128 0x1
 2430 0e31 50       		.byte	0x50
 2431 0e32 02       		.uleb128 0x2
 2432 0e33 7A       		.byte	0x7a
 2433 0e34 00       		.sleb128 0
 2434 0e35 00       		.byte	0
 2435 0e36 00       		.byte	0
 2436 0e37 3C       		.uleb128 0x3c
 2437 0e38 E30B0000 		.4byte	0xbe3
 2438 0e3c 48000000 		.4byte	.Ldebug_ranges0+0x48
 2439 0e40 F50E0000 		.4byte	0xef5
ARM GAS  /var/folders/d2/nstgp4h54kz7g1l847x_b8wc0000gn/T//ccBxDR0r.s 			page 44


 2440 0e44 38       		.uleb128 0x38
 2441 0e45 E80B0000 		.4byte	0xbe8
 2442 0e49 D2020000 		.4byte	.LLST13
 2443 0e4d 38       		.uleb128 0x38
 2444 0e4e F30B0000 		.4byte	0xbf3
 2445 0e52 FE020000 		.4byte	.LLST14
 2446 0e56 33       		.uleb128 0x33
 2447 0e57 DC000000 		.4byte	.LVL39
 2448 0e5b 780E0000 		.4byte	0xe78
 2449 0e5f 27       		.uleb128 0x27
 2450 0e60 01       		.uleb128 0x1
 2451 0e61 50       		.byte	0x50
 2452 0e62 02       		.uleb128 0x2
 2453 0e63 75       		.byte	0x75
 2454 0e64 00       		.sleb128 0
 2455 0e65 27       		.uleb128 0x27
 2456 0e66 01       		.uleb128 0x1
 2457 0e67 51       		.byte	0x51
 2458 0e68 05       		.uleb128 0x5
 2459 0e69 03       		.byte	0x3
 2460 0e6a 6C000000 		.4byte	.LC15
 2461 0e6e 27       		.uleb128 0x27
 2462 0e6f 01       		.uleb128 0x1
 2463 0e70 52       		.byte	0x52
 2464 0e71 05       		.uleb128 0x5
 2465 0e72 03       		.byte	0x3
 2466 0e73 34000000 		.4byte	.LC13
 2467 0e77 00       		.byte	0
 2468 0e78 26       		.uleb128 0x26
 2469 0e79 3E010000 		.4byte	.LVL53
 2470 0e7d 40110000 		.4byte	0x1140
 2471 0e81 8C0E0000 		.4byte	0xe8c
 2472 0e85 27       		.uleb128 0x27
 2473 0e86 01       		.uleb128 0x1
 2474 0e87 50       		.byte	0x50
 2475 0e88 02       		.uleb128 0x2
 2476 0e89 78       		.byte	0x78
 2477 0e8a 00       		.sleb128 0
 2478 0e8b 00       		.byte	0
 2479 0e8c 26       		.uleb128 0x26
 2480 0e8d 46010000 		.4byte	.LVL56
 2481 0e91 1F110000 		.4byte	0x111f
 2482 0e95 A30E0000 		.4byte	0xea3
 2483 0e99 27       		.uleb128 0x27
 2484 0e9a 01       		.uleb128 0x1
 2485 0e9b 50       		.byte	0x50
 2486 0e9c 05       		.uleb128 0x5
 2487 0e9d 91       		.byte	0x91
 2488 0e9e 4C       		.sleb128 -52
 2489 0e9f 06       		.byte	0x6
 2490 0ea0 32       		.byte	0x32
 2491 0ea1 24       		.byte	0x24
 2492 0ea2 00       		.byte	0
 2493 0ea3 26       		.uleb128 0x26
 2494 0ea4 54010000 		.4byte	.LVL58
 2495 0ea8 4B110000 		.4byte	0x114b
 2496 0eac BD0E0000 		.4byte	0xebd
ARM GAS  /var/folders/d2/nstgp4h54kz7g1l847x_b8wc0000gn/T//ccBxDR0r.s 			page 45


 2497 0eb0 27       		.uleb128 0x27
 2498 0eb1 01       		.uleb128 0x1
 2499 0eb2 50       		.byte	0x50
 2500 0eb3 02       		.uleb128 0x2
 2501 0eb4 78       		.byte	0x78
 2502 0eb5 00       		.sleb128 0
 2503 0eb6 27       		.uleb128 0x27
 2504 0eb7 01       		.uleb128 0x1
 2505 0eb8 51       		.byte	0x51
 2506 0eb9 02       		.uleb128 0x2
 2507 0eba 7A       		.byte	0x7a
 2508 0ebb 00       		.sleb128 0
 2509 0ebc 00       		.byte	0
 2510 0ebd 26       		.uleb128 0x26
 2511 0ebe 60010000 		.4byte	.LVL59
 2512 0ec2 140C0000 		.4byte	0xc14
 2513 0ec6 E40E0000 		.4byte	0xee4
 2514 0eca 27       		.uleb128 0x27
 2515 0ecb 01       		.uleb128 0x1
 2516 0ecc 50       		.byte	0x50
 2517 0ecd 02       		.uleb128 0x2
 2518 0ece 7A       		.byte	0x7a
 2519 0ecf 00       		.sleb128 0
 2520 0ed0 27       		.uleb128 0x27
 2521 0ed1 01       		.uleb128 0x1
 2522 0ed2 51       		.byte	0x51
 2523 0ed3 03       		.uleb128 0x3
 2524 0ed4 91       		.byte	0x91
 2525 0ed5 4C       		.sleb128 -52
 2526 0ed6 06       		.byte	0x6
 2527 0ed7 27       		.uleb128 0x27
 2528 0ed8 01       		.uleb128 0x1
 2529 0ed9 52       		.byte	0x52
 2530 0eda 02       		.uleb128 0x2
 2531 0edb 74       		.byte	0x74
 2532 0edc 00       		.sleb128 0
 2533 0edd 27       		.uleb128 0x27
 2534 0ede 01       		.uleb128 0x1
 2535 0edf 53       		.byte	0x53
 2536 0ee0 02       		.uleb128 0x2
 2537 0ee1 75       		.byte	0x75
 2538 0ee2 00       		.sleb128 0
 2539 0ee3 00       		.byte	0
 2540 0ee4 3D       		.uleb128 0x3d
 2541 0ee5 66010000 		.4byte	.LVL60
 2542 0ee9 35110000 		.4byte	0x1135
 2543 0eed 27       		.uleb128 0x27
 2544 0eee 01       		.uleb128 0x1
 2545 0eef 50       		.byte	0x50
 2546 0ef0 02       		.uleb128 0x2
 2547 0ef1 7A       		.byte	0x7a
 2548 0ef2 00       		.sleb128 0
 2549 0ef3 00       		.byte	0
 2550 0ef4 00       		.byte	0
 2551 0ef5 3C       		.uleb128 0x3c
 2552 0ef6 C90B0000 		.4byte	0xbc9
 2553 0efa 60000000 		.4byte	.Ldebug_ranges0+0x60
ARM GAS  /var/folders/d2/nstgp4h54kz7g1l847x_b8wc0000gn/T//ccBxDR0r.s 			page 46


 2554 0efe B10F0000 		.4byte	0xfb1
 2555 0f02 38       		.uleb128 0x38
 2556 0f03 CE0B0000 		.4byte	0xbce
 2557 0f07 27030000 		.4byte	.LLST15
 2558 0f0b 38       		.uleb128 0x38
 2559 0f0c D90B0000 		.4byte	0xbd9
 2560 0f10 51030000 		.4byte	.LLST16
 2561 0f14 26       		.uleb128 0x26
 2562 0f15 26010000 		.4byte	.LVL47
 2563 0f19 56110000 		.4byte	0x1156
 2564 0f1d 280F0000 		.4byte	0xf28
 2565 0f21 27       		.uleb128 0x27
 2566 0f22 01       		.uleb128 0x1
 2567 0f23 50       		.byte	0x50
 2568 0f24 02       		.uleb128 0x2
 2569 0f25 78       		.byte	0x78
 2570 0f26 00       		.sleb128 0
 2571 0f27 00       		.byte	0
 2572 0f28 26       		.uleb128 0x26
 2573 0f29 2C010000 		.4byte	.LVL49
 2574 0f2d 1F110000 		.4byte	0x111f
 2575 0f31 3C0F0000 		.4byte	0xf3c
 2576 0f35 27       		.uleb128 0x27
 2577 0f36 01       		.uleb128 0x1
 2578 0f37 50       		.byte	0x50
 2579 0f38 02       		.uleb128 0x2
 2580 0f39 7A       		.byte	0x7a
 2581 0f3a 00       		.sleb128 0
 2582 0f3b 00       		.byte	0
 2583 0f3c 33       		.uleb128 0x33
 2584 0f3d 36010000 		.4byte	.LVL51
 2585 0f41 5E0F0000 		.4byte	0xf5e
 2586 0f45 27       		.uleb128 0x27
 2587 0f46 01       		.uleb128 0x1
 2588 0f47 50       		.byte	0x50
 2589 0f48 02       		.uleb128 0x2
 2590 0f49 75       		.byte	0x75
 2591 0f4a 00       		.sleb128 0
 2592 0f4b 27       		.uleb128 0x27
 2593 0f4c 01       		.uleb128 0x1
 2594 0f4d 51       		.byte	0x51
 2595 0f4e 05       		.uleb128 0x5
 2596 0f4f 03       		.byte	0x3
 2597 0f50 64000000 		.4byte	.LC14
 2598 0f54 27       		.uleb128 0x27
 2599 0f55 01       		.uleb128 0x1
 2600 0f56 52       		.byte	0x52
 2601 0f57 05       		.uleb128 0x5
 2602 0f58 03       		.byte	0x3
 2603 0f59 34000000 		.4byte	.LC13
 2604 0f5d 00       		.byte	0
 2605 0f5e 26       		.uleb128 0x26
 2606 0f5f 74010000 		.4byte	.LVL63
 2607 0f63 61110000 		.4byte	0x1161
 2608 0f67 7F0F0000 		.4byte	0xf7f
 2609 0f6b 27       		.uleb128 0x27
 2610 0f6c 01       		.uleb128 0x1
ARM GAS  /var/folders/d2/nstgp4h54kz7g1l847x_b8wc0000gn/T//ccBxDR0r.s 			page 47


 2611 0f6d 50       		.byte	0x50
 2612 0f6e 02       		.uleb128 0x2
 2613 0f6f 78       		.byte	0x78
 2614 0f70 00       		.sleb128 0
 2615 0f71 27       		.uleb128 0x27
 2616 0f72 01       		.uleb128 0x1
 2617 0f73 51       		.byte	0x51
 2618 0f74 03       		.uleb128 0x3
 2619 0f75 91       		.byte	0x91
 2620 0f76 4C       		.sleb128 -52
 2621 0f77 06       		.byte	0x6
 2622 0f78 27       		.uleb128 0x27
 2623 0f79 01       		.uleb128 0x1
 2624 0f7a 52       		.byte	0x52
 2625 0f7b 02       		.uleb128 0x2
 2626 0f7c 7A       		.byte	0x7a
 2627 0f7d 00       		.sleb128 0
 2628 0f7e 00       		.byte	0
 2629 0f7f 33       		.uleb128 0x33
 2630 0f80 7E010000 		.4byte	.LVL64
 2631 0f84 9F0F0000 		.4byte	0xf9f
 2632 0f88 27       		.uleb128 0x27
 2633 0f89 01       		.uleb128 0x1
 2634 0f8a 50       		.byte	0x50
 2635 0f8b 02       		.uleb128 0x2
 2636 0f8c 75       		.byte	0x75
 2637 0f8d 00       		.sleb128 0
 2638 0f8e 27       		.uleb128 0x27
 2639 0f8f 01       		.uleb128 0x1
 2640 0f90 51       		.byte	0x51
 2641 0f91 05       		.uleb128 0x5
 2642 0f92 03       		.byte	0x3
 2643 0f93 2C000000 		.4byte	.LC12
 2644 0f97 27       		.uleb128 0x27
 2645 0f98 01       		.uleb128 0x1
 2646 0f99 52       		.byte	0x52
 2647 0f9a 03       		.uleb128 0x3
 2648 0f9b 91       		.byte	0x91
 2649 0f9c 4C       		.sleb128 -52
 2650 0f9d 06       		.byte	0x6
 2651 0f9e 00       		.byte	0
 2652 0f9f 3D       		.uleb128 0x3d
 2653 0fa0 86010000 		.4byte	.LVL65
 2654 0fa4 35110000 		.4byte	0x1135
 2655 0fa8 27       		.uleb128 0x27
 2656 0fa9 01       		.uleb128 0x1
 2657 0faa 50       		.byte	0x50
 2658 0fab 03       		.uleb128 0x3
 2659 0fac 91       		.byte	0x91
 2660 0fad 4C       		.sleb128 -52
 2661 0fae 06       		.byte	0x6
 2662 0faf 00       		.byte	0
 2663 0fb0 00       		.byte	0
 2664 0fb1 33       		.uleb128 0x33
 2665 0fb2 3E000000 		.4byte	.LVL20
 2666 0fb6 C70F0000 		.4byte	0xfc7
 2667 0fba 27       		.uleb128 0x27
ARM GAS  /var/folders/d2/nstgp4h54kz7g1l847x_b8wc0000gn/T//ccBxDR0r.s 			page 48


 2668 0fbb 01       		.uleb128 0x1
 2669 0fbc 50       		.byte	0x50
 2670 0fbd 02       		.uleb128 0x2
 2671 0fbe 75       		.byte	0x75
 2672 0fbf 00       		.sleb128 0
 2673 0fc0 27       		.uleb128 0x27
 2674 0fc1 01       		.uleb128 0x1
 2675 0fc2 51       		.byte	0x51
 2676 0fc3 02       		.uleb128 0x2
 2677 0fc4 79       		.byte	0x79
 2678 0fc5 00       		.sleb128 0
 2679 0fc6 00       		.byte	0
 2680 0fc7 26       		.uleb128 0x26
 2681 0fc8 44000000 		.4byte	.LVL21
 2682 0fcc 6C110000 		.4byte	0x116c
 2683 0fd0 DB0F0000 		.4byte	0xfdb
 2684 0fd4 27       		.uleb128 0x27
 2685 0fd5 01       		.uleb128 0x1
 2686 0fd6 50       		.byte	0x50
 2687 0fd7 02       		.uleb128 0x2
 2688 0fd8 78       		.byte	0x78
 2689 0fd9 00       		.sleb128 0
 2690 0fda 00       		.byte	0
 2691 0fdb 33       		.uleb128 0x33
 2692 0fdc 4E000000 		.4byte	.LVL22
 2693 0fe0 F40F0000 		.4byte	0xff4
 2694 0fe4 27       		.uleb128 0x27
 2695 0fe5 01       		.uleb128 0x1
 2696 0fe6 50       		.byte	0x50
 2697 0fe7 02       		.uleb128 0x2
 2698 0fe8 75       		.byte	0x75
 2699 0fe9 00       		.sleb128 0
 2700 0fea 27       		.uleb128 0x27
 2701 0feb 01       		.uleb128 0x1
 2702 0fec 51       		.byte	0x51
 2703 0fed 05       		.uleb128 0x5
 2704 0fee 03       		.byte	0x3
 2705 0fef 1C000000 		.4byte	.LC8
 2706 0ff3 00       		.byte	0
 2707 0ff4 26       		.uleb128 0x26
 2708 0ff5 E4000000 		.4byte	.LVL40
 2709 0ff9 77110000 		.4byte	0x1177
 2710 0ffd 08100000 		.4byte	0x1008
 2711 1001 27       		.uleb128 0x27
 2712 1002 01       		.uleb128 0x1
 2713 1003 50       		.byte	0x50
 2714 1004 02       		.uleb128 0x2
 2715 1005 78       		.byte	0x78
 2716 1006 00       		.sleb128 0
 2717 1007 00       		.byte	0
 2718 1008 33       		.uleb128 0x33
 2719 1009 F6000000 		.4byte	.LVL42
 2720 100d 21100000 		.4byte	0x1021
 2721 1011 27       		.uleb128 0x27
 2722 1012 01       		.uleb128 0x1
 2723 1013 50       		.byte	0x50
 2724 1014 02       		.uleb128 0x2
ARM GAS  /var/folders/d2/nstgp4h54kz7g1l847x_b8wc0000gn/T//ccBxDR0r.s 			page 49


 2725 1015 75       		.byte	0x75
 2726 1016 00       		.sleb128 0
 2727 1017 27       		.uleb128 0x27
 2728 1018 01       		.uleb128 0x1
 2729 1019 51       		.byte	0x51
 2730 101a 05       		.uleb128 0x5
 2731 101b 03       		.byte	0x3
 2732 101c 20000000 		.4byte	.LC9
 2733 1020 00       		.byte	0
 2734 1021 26       		.uleb128 0x26
 2735 1022 FE000000 		.4byte	.LVL43
 2736 1026 82110000 		.4byte	0x1182
 2737 102a 35100000 		.4byte	0x1035
 2738 102e 27       		.uleb128 0x27
 2739 102f 01       		.uleb128 0x1
 2740 1030 50       		.byte	0x50
 2741 1031 02       		.uleb128 0x2
 2742 1032 78       		.byte	0x78
 2743 1033 00       		.sleb128 0
 2744 1034 00       		.byte	0
 2745 1035 33       		.uleb128 0x33
 2746 1036 0E010000 		.4byte	.LVL44
 2747 103a 4E100000 		.4byte	0x104e
 2748 103e 27       		.uleb128 0x27
 2749 103f 01       		.uleb128 0x1
 2750 1040 50       		.byte	0x50
 2751 1041 02       		.uleb128 0x2
 2752 1042 75       		.byte	0x75
 2753 1043 00       		.sleb128 0
 2754 1044 27       		.uleb128 0x27
 2755 1045 01       		.uleb128 0x1
 2756 1046 51       		.byte	0x51
 2757 1047 05       		.uleb128 0x5
 2758 1048 03       		.byte	0x3
 2759 1049 28000000 		.4byte	.LC11
 2760 104d 00       		.byte	0
 2761 104e 26       		.uleb128 0x26
 2762 104f 16010000 		.4byte	.LVL45
 2763 1053 8D110000 		.4byte	0x118d
 2764 1057 62100000 		.4byte	0x1062
 2765 105b 27       		.uleb128 0x27
 2766 105c 01       		.uleb128 0x1
 2767 105d 50       		.byte	0x50
 2768 105e 02       		.uleb128 0x2
 2769 105f 78       		.byte	0x78
 2770 1060 00       		.sleb128 0
 2771 1061 00       		.byte	0
 2772 1062 3B       		.uleb128 0x3b
 2773 1063 1E010000 		.4byte	.LVL46
 2774 1067 27       		.uleb128 0x27
 2775 1068 01       		.uleb128 0x1
 2776 1069 50       		.byte	0x50
 2777 106a 02       		.uleb128 0x2
 2778 106b 75       		.byte	0x75
 2779 106c 00       		.sleb128 0
 2780 106d 27       		.uleb128 0x27
 2781 106e 01       		.uleb128 0x1
ARM GAS  /var/folders/d2/nstgp4h54kz7g1l847x_b8wc0000gn/T//ccBxDR0r.s 			page 50


 2782 106f 51       		.byte	0x51
 2783 1070 05       		.uleb128 0x5
 2784 1071 03       		.byte	0x3
 2785 1072 24000000 		.4byte	.LC10
 2786 1076 00       		.byte	0
 2787 1077 00       		.byte	0
 2788 1078 39       		.uleb128 0x39
 2789 1079 C40C0000 		.4byte	0xcc4
 2790 107d 5E000000 		.4byte	.LBB33
 2791 1081 78000000 		.4byte	.Ldebug_ranges0+0x78
 2792 1085 01       		.byte	0x1
 2793 1086 70       		.byte	0x70
 2794 1087 BC100000 		.4byte	0x10bc
 2795 108b 37       		.uleb128 0x37
 2796 108c E60C0000 		.4byte	0xce6
 2797 1090 37       		.uleb128 0x37
 2798 1091 DB0C0000 		.4byte	0xcdb
 2799 1095 37       		.uleb128 0x37
 2800 1096 D00C0000 		.4byte	0xcd0
 2801 109a 3A       		.uleb128 0x3a
 2802 109b 78000000 		.4byte	.Ldebug_ranges0+0x78
 2803 109f 38       		.uleb128 0x38
 2804 10a0 F10C0000 		.4byte	0xcf1
 2805 10a4 86030000 		.4byte	.LLST17
 2806 10a8 3B       		.uleb128 0x3b
 2807 10a9 7C000000 		.4byte	.LVL29
 2808 10ad 27       		.uleb128 0x27
 2809 10ae 01       		.uleb128 0x1
 2810 10af 50       		.byte	0x50
 2811 10b0 02       		.uleb128 0x2
 2812 10b1 75       		.byte	0x75
 2813 10b2 00       		.sleb128 0
 2814 10b3 27       		.uleb128 0x27
 2815 10b4 01       		.uleb128 0x1
 2816 10b5 51       		.byte	0x51
 2817 10b6 02       		.uleb128 0x2
 2818 10b7 78       		.byte	0x78
 2819 10b8 00       		.sleb128 0
 2820 10b9 00       		.byte	0
 2821 10ba 00       		.byte	0
 2822 10bb 00       		.byte	0
 2823 10bc 33       		.uleb128 0x33
 2824 10bd 88000000 		.4byte	.LVL31
 2825 10c1 D2100000 		.4byte	0x10d2
 2826 10c5 27       		.uleb128 0x27
 2827 10c6 01       		.uleb128 0x1
 2828 10c7 50       		.byte	0x50
 2829 10c8 02       		.uleb128 0x2
 2830 10c9 75       		.byte	0x75
 2831 10ca 00       		.sleb128 0
 2832 10cb 27       		.uleb128 0x27
 2833 10cc 01       		.uleb128 0x1
 2834 10cd 51       		.byte	0x51
 2835 10ce 02       		.uleb128 0x2
 2836 10cf 79       		.byte	0x79
 2837 10d0 00       		.sleb128 0
 2838 10d1 00       		.byte	0
ARM GAS  /var/folders/d2/nstgp4h54kz7g1l847x_b8wc0000gn/T//ccBxDR0r.s 			page 51


 2839 10d2 26       		.uleb128 0x26
 2840 10d3 98000000 		.4byte	.LVL32
 2841 10d7 FB0C0000 		.4byte	0xcfb
 2842 10db 01110000 		.4byte	0x1101
 2843 10df 27       		.uleb128 0x27
 2844 10e0 01       		.uleb128 0x1
 2845 10e1 50       		.byte	0x50
 2846 10e2 02       		.uleb128 0x2
 2847 10e3 77       		.byte	0x77
 2848 10e4 0C       		.sleb128 12
 2849 10e5 27       		.uleb128 0x27
 2850 10e6 01       		.uleb128 0x1
 2851 10e7 52       		.byte	0x52
 2852 10e8 02       		.uleb128 0x2
 2853 10e9 7A       		.byte	0x7a
 2854 10ea 00       		.sleb128 0
 2855 10eb 27       		.uleb128 0x27
 2856 10ec 01       		.uleb128 0x1
 2857 10ed 53       		.byte	0x53
 2858 10ee 02       		.uleb128 0x2
 2859 10ef 74       		.byte	0x74
 2860 10f0 00       		.sleb128 0
 2861 10f1 27       		.uleb128 0x27
 2862 10f2 02       		.uleb128 0x2
 2863 10f3 7D       		.byte	0x7d
 2864 10f4 00       		.sleb128 0
 2865 10f5 02       		.uleb128 0x2
 2866 10f6 75       		.byte	0x75
 2867 10f7 00       		.sleb128 0
 2868 10f8 28       		.uleb128 0x28
 2869 10f9 550B0000 		.4byte	0xb55
 2870 10fd 02       		.uleb128 0x2
 2871 10fe 77       		.byte	0x77
 2872 10ff 00       		.sleb128 0
 2873 1100 00       		.byte	0
 2874 1101 29       		.uleb128 0x29
 2875 1102 A8010000 		.4byte	.LVL73
 2876 1106 0B110000 		.4byte	0x110b
 2877 110a 00       		.byte	0
 2878 110b 3E       		.uleb128 0x3e
 2879 110c 2C070000 		.4byte	.LASF173
 2880 1110 2C070000 		.4byte	.LASF173
 2881 1114 3F       		.uleb128 0x3f
 2882 1115 29080000 		.4byte	.LASF156
 2883 1119 29080000 		.4byte	.LASF156
 2884 111d 09       		.byte	0x9
 2885 111e C8       		.byte	0xc8
 2886 111f 3F       		.uleb128 0x3f
 2887 1120 65000000 		.4byte	.LASF157
 2888 1124 65000000 		.4byte	.LASF157
 2889 1128 08       		.byte	0x8
 2890 1129 68       		.byte	0x68
 2891 112a 3F       		.uleb128 0x3f
 2892 112b C6020000 		.4byte	.LASF158
 2893 112f C6020000 		.4byte	.LASF158
 2894 1133 09       		.byte	0x9
 2895 1134 CA       		.byte	0xca
ARM GAS  /var/folders/d2/nstgp4h54kz7g1l847x_b8wc0000gn/T//ccBxDR0r.s 			page 52


 2896 1135 3F       		.uleb128 0x3f
 2897 1136 EB070000 		.4byte	.LASF159
 2898 113a EB070000 		.4byte	.LASF159
 2899 113e 08       		.byte	0x8
 2900 113f 5D       		.byte	0x5d
 2901 1140 3F       		.uleb128 0x3f
 2902 1141 3B050000 		.4byte	.LASF160
 2903 1145 3B050000 		.4byte	.LASF160
 2904 1149 09       		.byte	0x9
 2905 114a B4       		.byte	0xb4
 2906 114b 3F       		.uleb128 0x3f
 2907 114c E9040000 		.4byte	.LASF161
 2908 1150 E9040000 		.4byte	.LASF161
 2909 1154 09       		.byte	0x9
 2910 1155 B6       		.byte	0xb6
 2911 1156 3F       		.uleb128 0x3f
 2912 1157 4D020000 		.4byte	.LASF162
 2913 115b 4D020000 		.4byte	.LASF162
 2914 115f 09       		.byte	0x9
 2915 1160 DE       		.byte	0xde
 2916 1161 3F       		.uleb128 0x3f
 2917 1162 5E060000 		.4byte	.LASF163
 2918 1166 5E060000 		.4byte	.LASF163
 2919 116a 09       		.byte	0x9
 2920 116b E1       		.byte	0xe1
 2921 116c 3F       		.uleb128 0x3f
 2922 116d EA020000 		.4byte	.LASF164
 2923 1171 EA020000 		.4byte	.LASF164
 2924 1175 09       		.byte	0x9
 2925 1176 65       		.byte	0x65
 2926 1177 3F       		.uleb128 0x3f
 2927 1178 53030000 		.4byte	.LASF165
 2928 117c 53030000 		.4byte	.LASF165
 2929 1180 09       		.byte	0x9
 2930 1181 8C       		.byte	0x8c
 2931 1182 3F       		.uleb128 0x3f
 2932 1183 CC050000 		.4byte	.LASF166
 2933 1187 CC050000 		.4byte	.LASF166
 2934 118b 09       		.byte	0x9
 2935 118c A7       		.byte	0xa7
 2936 118d 3F       		.uleb128 0x3f
 2937 118e 6F070000 		.4byte	.LASF167
 2938 1192 6F070000 		.4byte	.LASF167
 2939 1196 09       		.byte	0x9
 2940 1197 9A       		.byte	0x9a
 2941 1198 00       		.byte	0
 2942              		.section	.debug_abbrev,"",%progbits
 2943              	.Ldebug_abbrev0:
 2944 0000 01       		.uleb128 0x1
 2945 0001 11       		.uleb128 0x11
 2946 0002 01       		.byte	0x1
 2947 0003 25       		.uleb128 0x25
 2948 0004 0E       		.uleb128 0xe
 2949 0005 13       		.uleb128 0x13
 2950 0006 0B       		.uleb128 0xb
 2951 0007 03       		.uleb128 0x3
 2952 0008 0E       		.uleb128 0xe
ARM GAS  /var/folders/d2/nstgp4h54kz7g1l847x_b8wc0000gn/T//ccBxDR0r.s 			page 53


 2953 0009 1B       		.uleb128 0x1b
 2954 000a 0E       		.uleb128 0xe
 2955 000b 55       		.uleb128 0x55
 2956 000c 17       		.uleb128 0x17
 2957 000d 11       		.uleb128 0x11
 2958 000e 01       		.uleb128 0x1
 2959 000f 10       		.uleb128 0x10
 2960 0010 17       		.uleb128 0x17
 2961 0011 00       		.byte	0
 2962 0012 00       		.byte	0
 2963 0013 02       		.uleb128 0x2
 2964 0014 24       		.uleb128 0x24
 2965 0015 00       		.byte	0
 2966 0016 0B       		.uleb128 0xb
 2967 0017 0B       		.uleb128 0xb
 2968 0018 3E       		.uleb128 0x3e
 2969 0019 0B       		.uleb128 0xb
 2970 001a 03       		.uleb128 0x3
 2971 001b 0E       		.uleb128 0xe
 2972 001c 00       		.byte	0
 2973 001d 00       		.byte	0
 2974 001e 03       		.uleb128 0x3
 2975 001f 16       		.uleb128 0x16
 2976 0020 00       		.byte	0
 2977 0021 03       		.uleb128 0x3
 2978 0022 0E       		.uleb128 0xe
 2979 0023 3A       		.uleb128 0x3a
 2980 0024 0B       		.uleb128 0xb
 2981 0025 3B       		.uleb128 0x3b
 2982 0026 0B       		.uleb128 0xb
 2983 0027 49       		.uleb128 0x49
 2984 0028 13       		.uleb128 0x13
 2985 0029 00       		.byte	0
 2986 002a 00       		.byte	0
 2987 002b 04       		.uleb128 0x4
 2988 002c 24       		.uleb128 0x24
 2989 002d 00       		.byte	0
 2990 002e 0B       		.uleb128 0xb
 2991 002f 0B       		.uleb128 0xb
 2992 0030 3E       		.uleb128 0x3e
 2993 0031 0B       		.uleb128 0xb
 2994 0032 03       		.uleb128 0x3
 2995 0033 08       		.uleb128 0x8
 2996 0034 00       		.byte	0
 2997 0035 00       		.byte	0
 2998 0036 05       		.uleb128 0x5
 2999 0037 0F       		.uleb128 0xf
 3000 0038 00       		.byte	0
 3001 0039 0B       		.uleb128 0xb
 3002 003a 0B       		.uleb128 0xb
 3003 003b 49       		.uleb128 0x49
 3004 003c 13       		.uleb128 0x13
 3005 003d 00       		.byte	0
 3006 003e 00       		.byte	0
 3007 003f 06       		.uleb128 0x6
 3008 0040 13       		.uleb128 0x13
 3009 0041 00       		.byte	0
ARM GAS  /var/folders/d2/nstgp4h54kz7g1l847x_b8wc0000gn/T//ccBxDR0r.s 			page 54


 3010 0042 03       		.uleb128 0x3
 3011 0043 0E       		.uleb128 0xe
 3012 0044 3C       		.uleb128 0x3c
 3013 0045 19       		.uleb128 0x19
 3014 0046 00       		.byte	0
 3015 0047 00       		.byte	0
 3016 0048 07       		.uleb128 0x7
 3017 0049 16       		.uleb128 0x16
 3018 004a 00       		.byte	0
 3019 004b 03       		.uleb128 0x3
 3020 004c 0E       		.uleb128 0xe
 3021 004d 3A       		.uleb128 0x3a
 3022 004e 0B       		.uleb128 0xb
 3023 004f 3B       		.uleb128 0x3b
 3024 0050 05       		.uleb128 0x5
 3025 0051 49       		.uleb128 0x49
 3026 0052 13       		.uleb128 0x13
 3027 0053 00       		.byte	0
 3028 0054 00       		.byte	0
 3029 0055 08       		.uleb128 0x8
 3030 0056 17       		.uleb128 0x17
 3031 0057 01       		.byte	0x1
 3032 0058 0B       		.uleb128 0xb
 3033 0059 0B       		.uleb128 0xb
 3034 005a 3A       		.uleb128 0x3a
 3035 005b 0B       		.uleb128 0xb
 3036 005c 3B       		.uleb128 0x3b
 3037 005d 0B       		.uleb128 0xb
 3038 005e 01       		.uleb128 0x1
 3039 005f 13       		.uleb128 0x13
 3040 0060 00       		.byte	0
 3041 0061 00       		.byte	0
 3042 0062 09       		.uleb128 0x9
 3043 0063 0D       		.uleb128 0xd
 3044 0064 00       		.byte	0
 3045 0065 03       		.uleb128 0x3
 3046 0066 0E       		.uleb128 0xe
 3047 0067 3A       		.uleb128 0x3a
 3048 0068 0B       		.uleb128 0xb
 3049 0069 3B       		.uleb128 0x3b
 3050 006a 0B       		.uleb128 0xb
 3051 006b 49       		.uleb128 0x49
 3052 006c 13       		.uleb128 0x13
 3053 006d 00       		.byte	0
 3054 006e 00       		.byte	0
 3055 006f 0A       		.uleb128 0xa
 3056 0070 01       		.uleb128 0x1
 3057 0071 01       		.byte	0x1
 3058 0072 49       		.uleb128 0x49
 3059 0073 13       		.uleb128 0x13
 3060 0074 01       		.uleb128 0x1
 3061 0075 13       		.uleb128 0x13
 3062 0076 00       		.byte	0
 3063 0077 00       		.byte	0
 3064 0078 0B       		.uleb128 0xb
 3065 0079 21       		.uleb128 0x21
 3066 007a 00       		.byte	0
ARM GAS  /var/folders/d2/nstgp4h54kz7g1l847x_b8wc0000gn/T//ccBxDR0r.s 			page 55


 3067 007b 49       		.uleb128 0x49
 3068 007c 13       		.uleb128 0x13
 3069 007d 2F       		.uleb128 0x2f
 3070 007e 0B       		.uleb128 0xb
 3071 007f 00       		.byte	0
 3072 0080 00       		.byte	0
 3073 0081 0C       		.uleb128 0xc
 3074 0082 13       		.uleb128 0x13
 3075 0083 01       		.byte	0x1
 3076 0084 0B       		.uleb128 0xb
 3077 0085 0B       		.uleb128 0xb
 3078 0086 3A       		.uleb128 0x3a
 3079 0087 0B       		.uleb128 0xb
 3080 0088 3B       		.uleb128 0x3b
 3081 0089 0B       		.uleb128 0xb
 3082 008a 01       		.uleb128 0x1
 3083 008b 13       		.uleb128 0x13
 3084 008c 00       		.byte	0
 3085 008d 00       		.byte	0
 3086 008e 0D       		.uleb128 0xd
 3087 008f 0D       		.uleb128 0xd
 3088 0090 00       		.byte	0
 3089 0091 03       		.uleb128 0x3
 3090 0092 0E       		.uleb128 0xe
 3091 0093 3A       		.uleb128 0x3a
 3092 0094 0B       		.uleb128 0xb
 3093 0095 3B       		.uleb128 0x3b
 3094 0096 0B       		.uleb128 0xb
 3095 0097 49       		.uleb128 0x49
 3096 0098 13       		.uleb128 0x13
 3097 0099 38       		.uleb128 0x38
 3098 009a 0B       		.uleb128 0xb
 3099 009b 00       		.byte	0
 3100 009c 00       		.byte	0
 3101 009d 0E       		.uleb128 0xe
 3102 009e 0F       		.uleb128 0xf
 3103 009f 00       		.byte	0
 3104 00a0 0B       		.uleb128 0xb
 3105 00a1 0B       		.uleb128 0xb
 3106 00a2 00       		.byte	0
 3107 00a3 00       		.byte	0
 3108 00a4 0F       		.uleb128 0xf
 3109 00a5 26       		.uleb128 0x26
 3110 00a6 00       		.byte	0
 3111 00a7 49       		.uleb128 0x49
 3112 00a8 13       		.uleb128 0x13
 3113 00a9 00       		.byte	0
 3114 00aa 00       		.byte	0
 3115 00ab 10       		.uleb128 0x10
 3116 00ac 13       		.uleb128 0x13
 3117 00ad 01       		.byte	0x1
 3118 00ae 03       		.uleb128 0x3
 3119 00af 0E       		.uleb128 0xe
 3120 00b0 0B       		.uleb128 0xb
 3121 00b1 0B       		.uleb128 0xb
 3122 00b2 3A       		.uleb128 0x3a
 3123 00b3 0B       		.uleb128 0xb
ARM GAS  /var/folders/d2/nstgp4h54kz7g1l847x_b8wc0000gn/T//ccBxDR0r.s 			page 56


 3124 00b4 3B       		.uleb128 0x3b
 3125 00b5 0B       		.uleb128 0xb
 3126 00b6 01       		.uleb128 0x1
 3127 00b7 13       		.uleb128 0x13
 3128 00b8 00       		.byte	0
 3129 00b9 00       		.byte	0
 3130 00ba 11       		.uleb128 0x11
 3131 00bb 0D       		.uleb128 0xd
 3132 00bc 00       		.byte	0
 3133 00bd 03       		.uleb128 0x3
 3134 00be 08       		.uleb128 0x8
 3135 00bf 3A       		.uleb128 0x3a
 3136 00c0 0B       		.uleb128 0xb
 3137 00c1 3B       		.uleb128 0x3b
 3138 00c2 0B       		.uleb128 0xb
 3139 00c3 49       		.uleb128 0x49
 3140 00c4 13       		.uleb128 0x13
 3141 00c5 38       		.uleb128 0x38
 3142 00c6 0B       		.uleb128 0xb
 3143 00c7 00       		.byte	0
 3144 00c8 00       		.byte	0
 3145 00c9 12       		.uleb128 0x12
 3146 00ca 13       		.uleb128 0x13
 3147 00cb 01       		.byte	0x1
 3148 00cc 03       		.uleb128 0x3
 3149 00cd 0E       		.uleb128 0xe
 3150 00ce 0B       		.uleb128 0xb
 3151 00cf 05       		.uleb128 0x5
 3152 00d0 3A       		.uleb128 0x3a
 3153 00d1 0B       		.uleb128 0xb
 3154 00d2 3B       		.uleb128 0x3b
 3155 00d3 0B       		.uleb128 0xb
 3156 00d4 01       		.uleb128 0x1
 3157 00d5 13       		.uleb128 0x13
 3158 00d6 00       		.byte	0
 3159 00d7 00       		.byte	0
 3160 00d8 13       		.uleb128 0x13
 3161 00d9 0D       		.uleb128 0xd
 3162 00da 00       		.byte	0
 3163 00db 03       		.uleb128 0x3
 3164 00dc 0E       		.uleb128 0xe
 3165 00dd 3A       		.uleb128 0x3a
 3166 00de 0B       		.uleb128 0xb
 3167 00df 3B       		.uleb128 0x3b
 3168 00e0 0B       		.uleb128 0xb
 3169 00e1 49       		.uleb128 0x49
 3170 00e2 13       		.uleb128 0x13
 3171 00e3 38       		.uleb128 0x38
 3172 00e4 05       		.uleb128 0x5
 3173 00e5 00       		.byte	0
 3174 00e6 00       		.byte	0
 3175 00e7 14       		.uleb128 0x14
 3176 00e8 15       		.uleb128 0x15
 3177 00e9 00       		.byte	0
 3178 00ea 27       		.uleb128 0x27
 3179 00eb 19       		.uleb128 0x19
 3180 00ec 00       		.byte	0
ARM GAS  /var/folders/d2/nstgp4h54kz7g1l847x_b8wc0000gn/T//ccBxDR0r.s 			page 57


 3181 00ed 00       		.byte	0
 3182 00ee 15       		.uleb128 0x15
 3183 00ef 15       		.uleb128 0x15
 3184 00f0 01       		.byte	0x1
 3185 00f1 27       		.uleb128 0x27
 3186 00f2 19       		.uleb128 0x19
 3187 00f3 49       		.uleb128 0x49
 3188 00f4 13       		.uleb128 0x13
 3189 00f5 01       		.uleb128 0x1
 3190 00f6 13       		.uleb128 0x13
 3191 00f7 00       		.byte	0
 3192 00f8 00       		.byte	0
 3193 00f9 16       		.uleb128 0x16
 3194 00fa 05       		.uleb128 0x5
 3195 00fb 00       		.byte	0
 3196 00fc 49       		.uleb128 0x49
 3197 00fd 13       		.uleb128 0x13
 3198 00fe 00       		.byte	0
 3199 00ff 00       		.byte	0
 3200 0100 17       		.uleb128 0x17
 3201 0101 13       		.uleb128 0x13
 3202 0102 01       		.byte	0x1
 3203 0103 03       		.uleb128 0x3
 3204 0104 0E       		.uleb128 0xe
 3205 0105 0B       		.uleb128 0xb
 3206 0106 05       		.uleb128 0x5
 3207 0107 3A       		.uleb128 0x3a
 3208 0108 0B       		.uleb128 0xb
 3209 0109 3B       		.uleb128 0x3b
 3210 010a 05       		.uleb128 0x5
 3211 010b 01       		.uleb128 0x1
 3212 010c 13       		.uleb128 0x13
 3213 010d 00       		.byte	0
 3214 010e 00       		.byte	0
 3215 010f 18       		.uleb128 0x18
 3216 0110 0D       		.uleb128 0xd
 3217 0111 00       		.byte	0
 3218 0112 03       		.uleb128 0x3
 3219 0113 0E       		.uleb128 0xe
 3220 0114 3A       		.uleb128 0x3a
 3221 0115 0B       		.uleb128 0xb
 3222 0116 3B       		.uleb128 0x3b
 3223 0117 05       		.uleb128 0x5
 3224 0118 49       		.uleb128 0x49
 3225 0119 13       		.uleb128 0x13
 3226 011a 38       		.uleb128 0x38
 3227 011b 0B       		.uleb128 0xb
 3228 011c 00       		.byte	0
 3229 011d 00       		.byte	0
 3230 011e 19       		.uleb128 0x19
 3231 011f 0D       		.uleb128 0xd
 3232 0120 00       		.byte	0
 3233 0121 03       		.uleb128 0x3
 3234 0122 0E       		.uleb128 0xe
 3235 0123 3A       		.uleb128 0x3a
 3236 0124 0B       		.uleb128 0xb
 3237 0125 3B       		.uleb128 0x3b
ARM GAS  /var/folders/d2/nstgp4h54kz7g1l847x_b8wc0000gn/T//ccBxDR0r.s 			page 58


 3238 0126 05       		.uleb128 0x5
 3239 0127 49       		.uleb128 0x49
 3240 0128 13       		.uleb128 0x13
 3241 0129 38       		.uleb128 0x38
 3242 012a 05       		.uleb128 0x5
 3243 012b 00       		.byte	0
 3244 012c 00       		.byte	0
 3245 012d 1A       		.uleb128 0x1a
 3246 012e 13       		.uleb128 0x13
 3247 012f 01       		.byte	0x1
 3248 0130 03       		.uleb128 0x3
 3249 0131 0E       		.uleb128 0xe
 3250 0132 0B       		.uleb128 0xb
 3251 0133 0B       		.uleb128 0xb
 3252 0134 3A       		.uleb128 0x3a
 3253 0135 0B       		.uleb128 0xb
 3254 0136 3B       		.uleb128 0x3b
 3255 0137 05       		.uleb128 0x5
 3256 0138 01       		.uleb128 0x1
 3257 0139 13       		.uleb128 0x13
 3258 013a 00       		.byte	0
 3259 013b 00       		.byte	0
 3260 013c 1B       		.uleb128 0x1b
 3261 013d 13       		.uleb128 0x13
 3262 013e 01       		.byte	0x1
 3263 013f 0B       		.uleb128 0xb
 3264 0140 0B       		.uleb128 0xb
 3265 0141 3A       		.uleb128 0x3a
 3266 0142 0B       		.uleb128 0xb
 3267 0143 3B       		.uleb128 0x3b
 3268 0144 05       		.uleb128 0x5
 3269 0145 01       		.uleb128 0x1
 3270 0146 13       		.uleb128 0x13
 3271 0147 00       		.byte	0
 3272 0148 00       		.byte	0
 3273 0149 1C       		.uleb128 0x1c
 3274 014a 17       		.uleb128 0x17
 3275 014b 01       		.byte	0x1
 3276 014c 0B       		.uleb128 0xb
 3277 014d 0B       		.uleb128 0xb
 3278 014e 3A       		.uleb128 0x3a
 3279 014f 0B       		.uleb128 0xb
 3280 0150 3B       		.uleb128 0x3b
 3281 0151 05       		.uleb128 0x5
 3282 0152 01       		.uleb128 0x1
 3283 0153 13       		.uleb128 0x13
 3284 0154 00       		.byte	0
 3285 0155 00       		.byte	0
 3286 0156 1D       		.uleb128 0x1d
 3287 0157 0D       		.uleb128 0xd
 3288 0158 00       		.byte	0
 3289 0159 03       		.uleb128 0x3
 3290 015a 0E       		.uleb128 0xe
 3291 015b 3A       		.uleb128 0x3a
 3292 015c 0B       		.uleb128 0xb
 3293 015d 3B       		.uleb128 0x3b
 3294 015e 05       		.uleb128 0x5
ARM GAS  /var/folders/d2/nstgp4h54kz7g1l847x_b8wc0000gn/T//ccBxDR0r.s 			page 59


 3295 015f 49       		.uleb128 0x49
 3296 0160 13       		.uleb128 0x13
 3297 0161 00       		.byte	0
 3298 0162 00       		.byte	0
 3299 0163 1E       		.uleb128 0x1e
 3300 0164 15       		.uleb128 0x15
 3301 0165 01       		.byte	0x1
 3302 0166 27       		.uleb128 0x27
 3303 0167 19       		.uleb128 0x19
 3304 0168 01       		.uleb128 0x1
 3305 0169 13       		.uleb128 0x13
 3306 016a 00       		.byte	0
 3307 016b 00       		.byte	0
 3308 016c 1F       		.uleb128 0x1f
 3309 016d 34       		.uleb128 0x34
 3310 016e 00       		.byte	0
 3311 016f 03       		.uleb128 0x3
 3312 0170 0E       		.uleb128 0xe
 3313 0171 3A       		.uleb128 0x3a
 3314 0172 0B       		.uleb128 0xb
 3315 0173 3B       		.uleb128 0x3b
 3316 0174 05       		.uleb128 0x5
 3317 0175 49       		.uleb128 0x49
 3318 0176 13       		.uleb128 0x13
 3319 0177 3F       		.uleb128 0x3f
 3320 0178 19       		.uleb128 0x19
 3321 0179 3C       		.uleb128 0x3c
 3322 017a 19       		.uleb128 0x19
 3323 017b 00       		.byte	0
 3324 017c 00       		.byte	0
 3325 017d 20       		.uleb128 0x20
 3326 017e 34       		.uleb128 0x34
 3327 017f 00       		.byte	0
 3328 0180 03       		.uleb128 0x3
 3329 0181 0E       		.uleb128 0xe
 3330 0182 3A       		.uleb128 0x3a
 3331 0183 0B       		.uleb128 0xb
 3332 0184 3B       		.uleb128 0x3b
 3333 0185 0B       		.uleb128 0xb
 3334 0186 49       		.uleb128 0x49
 3335 0187 13       		.uleb128 0x13
 3336 0188 3F       		.uleb128 0x3f
 3337 0189 19       		.uleb128 0x19
 3338 018a 3C       		.uleb128 0x3c
 3339 018b 19       		.uleb128 0x19
 3340 018c 00       		.byte	0
 3341 018d 00       		.byte	0
 3342 018e 21       		.uleb128 0x21
 3343 018f 0D       		.uleb128 0xd
 3344 0190 00       		.byte	0
 3345 0191 03       		.uleb128 0x3
 3346 0192 08       		.uleb128 0x8
 3347 0193 3A       		.uleb128 0x3a
 3348 0194 0B       		.uleb128 0xb
 3349 0195 3B       		.uleb128 0x3b
 3350 0196 0B       		.uleb128 0xb
 3351 0197 49       		.uleb128 0x49
ARM GAS  /var/folders/d2/nstgp4h54kz7g1l847x_b8wc0000gn/T//ccBxDR0r.s 			page 60


 3352 0198 13       		.uleb128 0x13
 3353 0199 00       		.byte	0
 3354 019a 00       		.byte	0
 3355 019b 22       		.uleb128 0x22
 3356 019c 18       		.uleb128 0x18
 3357 019d 00       		.byte	0
 3358 019e 00       		.byte	0
 3359 019f 00       		.byte	0
 3360 01a0 23       		.uleb128 0x23
 3361 01a1 2E       		.uleb128 0x2e
 3362 01a2 01       		.byte	0x1
 3363 01a3 3F       		.uleb128 0x3f
 3364 01a4 19       		.uleb128 0x19
 3365 01a5 03       		.uleb128 0x3
 3366 01a6 0E       		.uleb128 0xe
 3367 01a7 3A       		.uleb128 0x3a
 3368 01a8 0B       		.uleb128 0xb
 3369 01a9 3B       		.uleb128 0x3b
 3370 01aa 0B       		.uleb128 0xb
 3371 01ab 27       		.uleb128 0x27
 3372 01ac 19       		.uleb128 0x19
 3373 01ad 11       		.uleb128 0x11
 3374 01ae 01       		.uleb128 0x1
 3375 01af 12       		.uleb128 0x12
 3376 01b0 06       		.uleb128 0x6
 3377 01b1 40       		.uleb128 0x40
 3378 01b2 18       		.uleb128 0x18
 3379 01b3 9742     		.uleb128 0x2117
 3380 01b5 19       		.uleb128 0x19
 3381 01b6 01       		.uleb128 0x1
 3382 01b7 13       		.uleb128 0x13
 3383 01b8 00       		.byte	0
 3384 01b9 00       		.byte	0
 3385 01ba 24       		.uleb128 0x24
 3386 01bb 05       		.uleb128 0x5
 3387 01bc 00       		.byte	0
 3388 01bd 03       		.uleb128 0x3
 3389 01be 08       		.uleb128 0x8
 3390 01bf 3A       		.uleb128 0x3a
 3391 01c0 0B       		.uleb128 0xb
 3392 01c1 3B       		.uleb128 0x3b
 3393 01c2 0B       		.uleb128 0xb
 3394 01c3 49       		.uleb128 0x49
 3395 01c4 13       		.uleb128 0x13
 3396 01c5 02       		.uleb128 0x2
 3397 01c6 17       		.uleb128 0x17
 3398 01c7 00       		.byte	0
 3399 01c8 00       		.byte	0
 3400 01c9 25       		.uleb128 0x25
 3401 01ca 05       		.uleb128 0x5
 3402 01cb 00       		.byte	0
 3403 01cc 03       		.uleb128 0x3
 3404 01cd 0E       		.uleb128 0xe
 3405 01ce 3A       		.uleb128 0x3a
 3406 01cf 0B       		.uleb128 0xb
 3407 01d0 3B       		.uleb128 0x3b
 3408 01d1 0B       		.uleb128 0xb
ARM GAS  /var/folders/d2/nstgp4h54kz7g1l847x_b8wc0000gn/T//ccBxDR0r.s 			page 61


 3409 01d2 49       		.uleb128 0x49
 3410 01d3 13       		.uleb128 0x13
 3411 01d4 02       		.uleb128 0x2
 3412 01d5 17       		.uleb128 0x17
 3413 01d6 00       		.byte	0
 3414 01d7 00       		.byte	0
 3415 01d8 26       		.uleb128 0x26
 3416 01d9 898201   		.uleb128 0x4109
 3417 01dc 01       		.byte	0x1
 3418 01dd 11       		.uleb128 0x11
 3419 01de 01       		.uleb128 0x1
 3420 01df 31       		.uleb128 0x31
 3421 01e0 13       		.uleb128 0x13
 3422 01e1 01       		.uleb128 0x1
 3423 01e2 13       		.uleb128 0x13
 3424 01e3 00       		.byte	0
 3425 01e4 00       		.byte	0
 3426 01e5 27       		.uleb128 0x27
 3427 01e6 8A8201   		.uleb128 0x410a
 3428 01e9 00       		.byte	0
 3429 01ea 02       		.uleb128 0x2
 3430 01eb 18       		.uleb128 0x18
 3431 01ec 9142     		.uleb128 0x2111
 3432 01ee 18       		.uleb128 0x18
 3433 01ef 00       		.byte	0
 3434 01f0 00       		.byte	0
 3435 01f1 28       		.uleb128 0x28
 3436 01f2 8A8201   		.uleb128 0x410a
 3437 01f5 00       		.byte	0
 3438 01f6 31       		.uleb128 0x31
 3439 01f7 13       		.uleb128 0x13
 3440 01f8 9142     		.uleb128 0x2111
 3441 01fa 18       		.uleb128 0x18
 3442 01fb 00       		.byte	0
 3443 01fc 00       		.byte	0
 3444 01fd 29       		.uleb128 0x29
 3445 01fe 898201   		.uleb128 0x4109
 3446 0201 00       		.byte	0
 3447 0202 11       		.uleb128 0x11
 3448 0203 01       		.uleb128 0x1
 3449 0204 31       		.uleb128 0x31
 3450 0205 13       		.uleb128 0x13
 3451 0206 00       		.byte	0
 3452 0207 00       		.byte	0
 3453 0208 2A       		.uleb128 0x2a
 3454 0209 2E       		.uleb128 0x2e
 3455 020a 01       		.byte	0x1
 3456 020b 03       		.uleb128 0x3
 3457 020c 0E       		.uleb128 0xe
 3458 020d 3A       		.uleb128 0x3a
 3459 020e 0B       		.uleb128 0xb
 3460 020f 3B       		.uleb128 0x3b
 3461 0210 0B       		.uleb128 0xb
 3462 0211 27       		.uleb128 0x27
 3463 0212 19       		.uleb128 0x19
 3464 0213 20       		.uleb128 0x20
 3465 0214 0B       		.uleb128 0xb
ARM GAS  /var/folders/d2/nstgp4h54kz7g1l847x_b8wc0000gn/T//ccBxDR0r.s 			page 62


 3466 0215 01       		.uleb128 0x1
 3467 0216 13       		.uleb128 0x13
 3468 0217 00       		.byte	0
 3469 0218 00       		.byte	0
 3470 0219 2B       		.uleb128 0x2b
 3471 021a 05       		.uleb128 0x5
 3472 021b 00       		.byte	0
 3473 021c 03       		.uleb128 0x3
 3474 021d 08       		.uleb128 0x8
 3475 021e 3A       		.uleb128 0x3a
 3476 021f 0B       		.uleb128 0xb
 3477 0220 3B       		.uleb128 0x3b
 3478 0221 0B       		.uleb128 0xb
 3479 0222 49       		.uleb128 0x49
 3480 0223 13       		.uleb128 0x13
 3481 0224 00       		.byte	0
 3482 0225 00       		.byte	0
 3483 0226 2C       		.uleb128 0x2c
 3484 0227 05       		.uleb128 0x5
 3485 0228 00       		.byte	0
 3486 0229 03       		.uleb128 0x3
 3487 022a 0E       		.uleb128 0xe
 3488 022b 3A       		.uleb128 0x3a
 3489 022c 0B       		.uleb128 0xb
 3490 022d 3B       		.uleb128 0x3b
 3491 022e 0B       		.uleb128 0xb
 3492 022f 49       		.uleb128 0x49
 3493 0230 13       		.uleb128 0x13
 3494 0231 00       		.byte	0
 3495 0232 00       		.byte	0
 3496 0233 2D       		.uleb128 0x2d
 3497 0234 34       		.uleb128 0x34
 3498 0235 00       		.byte	0
 3499 0236 03       		.uleb128 0x3
 3500 0237 08       		.uleb128 0x8
 3501 0238 3A       		.uleb128 0x3a
 3502 0239 0B       		.uleb128 0xb
 3503 023a 3B       		.uleb128 0x3b
 3504 023b 0B       		.uleb128 0xb
 3505 023c 49       		.uleb128 0x49
 3506 023d 13       		.uleb128 0x13
 3507 023e 00       		.byte	0
 3508 023f 00       		.byte	0
 3509 0240 2E       		.uleb128 0x2e
 3510 0241 0B       		.uleb128 0xb
 3511 0242 01       		.byte	0x1
 3512 0243 01       		.uleb128 0x1
 3513 0244 13       		.uleb128 0x13
 3514 0245 00       		.byte	0
 3515 0246 00       		.byte	0
 3516 0247 2F       		.uleb128 0x2f
 3517 0248 0B       		.uleb128 0xb
 3518 0249 01       		.byte	0x1
 3519 024a 00       		.byte	0
 3520 024b 00       		.byte	0
 3521 024c 30       		.uleb128 0x30
 3522 024d 2E       		.uleb128 0x2e
ARM GAS  /var/folders/d2/nstgp4h54kz7g1l847x_b8wc0000gn/T//ccBxDR0r.s 			page 63


 3523 024e 01       		.byte	0x1
 3524 024f 03       		.uleb128 0x3
 3525 0250 0E       		.uleb128 0xe
 3526 0251 3A       		.uleb128 0x3a
 3527 0252 0B       		.uleb128 0xb
 3528 0253 3B       		.uleb128 0x3b
 3529 0254 0B       		.uleb128 0xb
 3530 0255 27       		.uleb128 0x27
 3531 0256 19       		.uleb128 0x19
 3532 0257 11       		.uleb128 0x11
 3533 0258 01       		.uleb128 0x1
 3534 0259 12       		.uleb128 0x12
 3535 025a 06       		.uleb128 0x6
 3536 025b 40       		.uleb128 0x40
 3537 025c 18       		.uleb128 0x18
 3538 025d 9642     		.uleb128 0x2116
 3539 025f 19       		.uleb128 0x19
 3540 0260 01       		.uleb128 0x1
 3541 0261 13       		.uleb128 0x13
 3542 0262 00       		.byte	0
 3543 0263 00       		.byte	0
 3544 0264 31       		.uleb128 0x31
 3545 0265 34       		.uleb128 0x34
 3546 0266 00       		.byte	0
 3547 0267 03       		.uleb128 0x3
 3548 0268 08       		.uleb128 0x8
 3549 0269 3A       		.uleb128 0x3a
 3550 026a 0B       		.uleb128 0xb
 3551 026b 3B       		.uleb128 0x3b
 3552 026c 0B       		.uleb128 0xb
 3553 026d 49       		.uleb128 0x49
 3554 026e 13       		.uleb128 0x13
 3555 026f 02       		.uleb128 0x2
 3556 0270 17       		.uleb128 0x17
 3557 0271 00       		.byte	0
 3558 0272 00       		.byte	0
 3559 0273 32       		.uleb128 0x32
 3560 0274 898201   		.uleb128 0x4109
 3561 0277 01       		.byte	0x1
 3562 0278 11       		.uleb128 0x11
 3563 0279 01       		.uleb128 0x1
 3564 027a 9342     		.uleb128 0x2113
 3565 027c 18       		.uleb128 0x18
 3566 027d 01       		.uleb128 0x1
 3567 027e 13       		.uleb128 0x13
 3568 027f 00       		.byte	0
 3569 0280 00       		.byte	0
 3570 0281 33       		.uleb128 0x33
 3571 0282 898201   		.uleb128 0x4109
 3572 0285 01       		.byte	0x1
 3573 0286 11       		.uleb128 0x11
 3574 0287 01       		.uleb128 0x1
 3575 0288 01       		.uleb128 0x1
 3576 0289 13       		.uleb128 0x13
 3577 028a 00       		.byte	0
 3578 028b 00       		.byte	0
 3579 028c 34       		.uleb128 0x34
ARM GAS  /var/folders/d2/nstgp4h54kz7g1l847x_b8wc0000gn/T//ccBxDR0r.s 			page 64


 3580 028d 898201   		.uleb128 0x4109
 3581 0290 01       		.byte	0x1
 3582 0291 11       		.uleb128 0x11
 3583 0292 01       		.uleb128 0x1
 3584 0293 9542     		.uleb128 0x2115
 3585 0295 19       		.uleb128 0x19
 3586 0296 9342     		.uleb128 0x2113
 3587 0298 18       		.uleb128 0x18
 3588 0299 01       		.uleb128 0x1
 3589 029a 13       		.uleb128 0x13
 3590 029b 00       		.byte	0
 3591 029c 00       		.byte	0
 3592 029d 35       		.uleb128 0x35
 3593 029e 2E       		.uleb128 0x2e
 3594 029f 01       		.byte	0x1
 3595 02a0 31       		.uleb128 0x31
 3596 02a1 13       		.uleb128 0x13
 3597 02a2 11       		.uleb128 0x11
 3598 02a3 01       		.uleb128 0x1
 3599 02a4 12       		.uleb128 0x12
 3600 02a5 06       		.uleb128 0x6
 3601 02a6 40       		.uleb128 0x40
 3602 02a7 18       		.uleb128 0x18
 3603 02a8 9642     		.uleb128 0x2116
 3604 02aa 19       		.uleb128 0x19
 3605 02ab 01       		.uleb128 0x1
 3606 02ac 13       		.uleb128 0x13
 3607 02ad 00       		.byte	0
 3608 02ae 00       		.byte	0
 3609 02af 36       		.uleb128 0x36
 3610 02b0 05       		.uleb128 0x5
 3611 02b1 00       		.byte	0
 3612 02b2 31       		.uleb128 0x31
 3613 02b3 13       		.uleb128 0x13
 3614 02b4 02       		.uleb128 0x2
 3615 02b5 17       		.uleb128 0x17
 3616 02b6 00       		.byte	0
 3617 02b7 00       		.byte	0
 3618 02b8 37       		.uleb128 0x37
 3619 02b9 05       		.uleb128 0x5
 3620 02ba 00       		.byte	0
 3621 02bb 31       		.uleb128 0x31
 3622 02bc 13       		.uleb128 0x13
 3623 02bd 00       		.byte	0
 3624 02be 00       		.byte	0
 3625 02bf 38       		.uleb128 0x38
 3626 02c0 34       		.uleb128 0x34
 3627 02c1 00       		.byte	0
 3628 02c2 31       		.uleb128 0x31
 3629 02c3 13       		.uleb128 0x13
 3630 02c4 02       		.uleb128 0x2
 3631 02c5 17       		.uleb128 0x17
 3632 02c6 00       		.byte	0
 3633 02c7 00       		.byte	0
 3634 02c8 39       		.uleb128 0x39
 3635 02c9 1D       		.uleb128 0x1d
 3636 02ca 01       		.byte	0x1
ARM GAS  /var/folders/d2/nstgp4h54kz7g1l847x_b8wc0000gn/T//ccBxDR0r.s 			page 65


 3637 02cb 31       		.uleb128 0x31
 3638 02cc 13       		.uleb128 0x13
 3639 02cd 52       		.uleb128 0x52
 3640 02ce 01       		.uleb128 0x1
 3641 02cf 55       		.uleb128 0x55
 3642 02d0 17       		.uleb128 0x17
 3643 02d1 58       		.uleb128 0x58
 3644 02d2 0B       		.uleb128 0xb
 3645 02d3 59       		.uleb128 0x59
 3646 02d4 0B       		.uleb128 0xb
 3647 02d5 01       		.uleb128 0x1
 3648 02d6 13       		.uleb128 0x13
 3649 02d7 00       		.byte	0
 3650 02d8 00       		.byte	0
 3651 02d9 3A       		.uleb128 0x3a
 3652 02da 0B       		.uleb128 0xb
 3653 02db 01       		.byte	0x1
 3654 02dc 55       		.uleb128 0x55
 3655 02dd 17       		.uleb128 0x17
 3656 02de 00       		.byte	0
 3657 02df 00       		.byte	0
 3658 02e0 3B       		.uleb128 0x3b
 3659 02e1 898201   		.uleb128 0x4109
 3660 02e4 01       		.byte	0x1
 3661 02e5 11       		.uleb128 0x11
 3662 02e6 01       		.uleb128 0x1
 3663 02e7 00       		.byte	0
 3664 02e8 00       		.byte	0
 3665 02e9 3C       		.uleb128 0x3c
 3666 02ea 0B       		.uleb128 0xb
 3667 02eb 01       		.byte	0x1
 3668 02ec 31       		.uleb128 0x31
 3669 02ed 13       		.uleb128 0x13
 3670 02ee 55       		.uleb128 0x55
 3671 02ef 17       		.uleb128 0x17
 3672 02f0 01       		.uleb128 0x1
 3673 02f1 13       		.uleb128 0x13
 3674 02f2 00       		.byte	0
 3675 02f3 00       		.byte	0
 3676 02f4 3D       		.uleb128 0x3d
 3677 02f5 898201   		.uleb128 0x4109
 3678 02f8 01       		.byte	0x1
 3679 02f9 11       		.uleb128 0x11
 3680 02fa 01       		.uleb128 0x1
 3681 02fb 31       		.uleb128 0x31
 3682 02fc 13       		.uleb128 0x13
 3683 02fd 00       		.byte	0
 3684 02fe 00       		.byte	0
 3685 02ff 3E       		.uleb128 0x3e
 3686 0300 2E       		.uleb128 0x2e
 3687 0301 00       		.byte	0
 3688 0302 3F       		.uleb128 0x3f
 3689 0303 19       		.uleb128 0x19
 3690 0304 3C       		.uleb128 0x3c
 3691 0305 19       		.uleb128 0x19
 3692 0306 6E       		.uleb128 0x6e
 3693 0307 0E       		.uleb128 0xe
ARM GAS  /var/folders/d2/nstgp4h54kz7g1l847x_b8wc0000gn/T//ccBxDR0r.s 			page 66


 3694 0308 03       		.uleb128 0x3
 3695 0309 0E       		.uleb128 0xe
 3696 030a 00       		.byte	0
 3697 030b 00       		.byte	0
 3698 030c 3F       		.uleb128 0x3f
 3699 030d 2E       		.uleb128 0x2e
 3700 030e 00       		.byte	0
 3701 030f 3F       		.uleb128 0x3f
 3702 0310 19       		.uleb128 0x19
 3703 0311 3C       		.uleb128 0x3c
 3704 0312 19       		.uleb128 0x19
 3705 0313 6E       		.uleb128 0x6e
 3706 0314 0E       		.uleb128 0xe
 3707 0315 03       		.uleb128 0x3
 3708 0316 0E       		.uleb128 0xe
 3709 0317 3A       		.uleb128 0x3a
 3710 0318 0B       		.uleb128 0xb
 3711 0319 3B       		.uleb128 0x3b
 3712 031a 0B       		.uleb128 0xb
 3713 031b 00       		.byte	0
 3714 031c 00       		.byte	0
 3715 031d 00       		.byte	0
 3716              		.section	.debug_loc,"",%progbits
 3717              	.Ldebug_loc0:
 3718              	.LLST18:
 3719 0000 00000000 		.4byte	.LVL74
 3720 0004 12000000 		.4byte	.LVL76
 3721 0008 0100     		.2byte	0x1
 3722 000a 50       		.byte	0x50
 3723 000b 12000000 		.4byte	.LVL76
 3724 000f 19000000 		.4byte	.LVL78-1
 3725 0013 0300     		.2byte	0x3
 3726 0015 70       		.byte	0x70
 3727 0016 74       		.sleb128 -12
 3728 0017 9F       		.byte	0x9f
 3729 0018 19000000 		.4byte	.LVL78-1
 3730 001c 30000000 		.4byte	.LFE4
 3731 0020 0400     		.2byte	0x4
 3732 0022 F3       		.byte	0xf3
 3733 0023 01       		.uleb128 0x1
 3734 0024 50       		.byte	0x50
 3735 0025 9F       		.byte	0x9f
 3736 0026 00000000 		.4byte	0
 3737 002a 00000000 		.4byte	0
 3738              	.LLST19:
 3739 002e 00000000 		.4byte	.LVL74
 3740 0032 16000000 		.4byte	.LVL77
 3741 0036 0100     		.2byte	0x1
 3742 0038 51       		.byte	0x51
 3743 0039 16000000 		.4byte	.LVL77
 3744 003d 19000000 		.4byte	.LVL78-1
 3745 0041 0100     		.2byte	0x1
 3746 0043 53       		.byte	0x53
 3747 0044 19000000 		.4byte	.LVL78-1
 3748 0048 30000000 		.4byte	.LFE4
 3749 004c 0400     		.2byte	0x4
 3750 004e F3       		.byte	0xf3
ARM GAS  /var/folders/d2/nstgp4h54kz7g1l847x_b8wc0000gn/T//ccBxDR0r.s 			page 67


 3751 004f 01       		.uleb128 0x1
 3752 0050 51       		.byte	0x51
 3753 0051 9F       		.byte	0x9f
 3754 0052 00000000 		.4byte	0
 3755 0056 00000000 		.4byte	0
 3756              	.LLST20:
 3757 005a 00000000 		.4byte	.LVL74
 3758 005e 0E000000 		.4byte	.LVL75
 3759 0062 0100     		.2byte	0x1
 3760 0064 52       		.byte	0x52
 3761 0065 0E000000 		.4byte	.LVL75
 3762 0069 19000000 		.4byte	.LVL78-1
 3763 006d 0200     		.2byte	0x2
 3764 006f 7D       		.byte	0x7d
 3765 0070 00       		.sleb128 0
 3766 0071 19000000 		.4byte	.LVL78-1
 3767 0075 30000000 		.4byte	.LFE4
 3768 0079 0400     		.2byte	0x4
 3769 007b F3       		.byte	0xf3
 3770 007c 01       		.uleb128 0x1
 3771 007d 52       		.byte	0x52
 3772 007e 9F       		.byte	0x9f
 3773 007f 00000000 		.4byte	0
 3774 0083 00000000 		.4byte	0
 3775              	.LLST0:
 3776 0087 00000000 		.4byte	.LVL0
 3777 008b 1A000000 		.4byte	.LVL3
 3778 008f 0100     		.2byte	0x1
 3779 0091 50       		.byte	0x50
 3780 0092 1A000000 		.4byte	.LVL3
 3781 0096 2E000000 		.4byte	.LVL5
 3782 009a 0100     		.2byte	0x1
 3783 009c 55       		.byte	0x55
 3784 009d 2E000000 		.4byte	.LVL5
 3785 00a1 7C000000 		.4byte	.LFE1
 3786 00a5 0400     		.2byte	0x4
 3787 00a7 F3       		.byte	0xf3
 3788 00a8 01       		.uleb128 0x1
 3789 00a9 50       		.byte	0x50
 3790 00aa 9F       		.byte	0x9f
 3791 00ab 00000000 		.4byte	0
 3792 00af 00000000 		.4byte	0
 3793              	.LLST1:
 3794 00b3 00000000 		.4byte	.LVL0
 3795 00b7 18000000 		.4byte	.LVL2
 3796 00bb 0100     		.2byte	0x1
 3797 00bd 51       		.byte	0x51
 3798 00be 18000000 		.4byte	.LVL2
 3799 00c2 62000000 		.4byte	.LVL10
 3800 00c6 0100     		.2byte	0x1
 3801 00c8 58       		.byte	0x58
 3802 00c9 62000000 		.4byte	.LVL10
 3803 00cd 64000000 		.4byte	.LVL11
 3804 00d1 0400     		.2byte	0x4
 3805 00d3 F3       		.byte	0xf3
 3806 00d4 01       		.uleb128 0x1
 3807 00d5 51       		.byte	0x51
ARM GAS  /var/folders/d2/nstgp4h54kz7g1l847x_b8wc0000gn/T//ccBxDR0r.s 			page 68


 3808 00d6 9F       		.byte	0x9f
 3809 00d7 64000000 		.4byte	.LVL11
 3810 00db 7C000000 		.4byte	.LFE1
 3811 00df 0100     		.2byte	0x1
 3812 00e1 58       		.byte	0x58
 3813 00e2 00000000 		.4byte	0
 3814 00e6 00000000 		.4byte	0
 3815              	.LLST2:
 3816 00ea 00000000 		.4byte	.LVL0
 3817 00ee 1D000000 		.4byte	.LVL4-1
 3818 00f2 0100     		.2byte	0x1
 3819 00f4 52       		.byte	0x52
 3820 00f5 1D000000 		.4byte	.LVL4-1
 3821 00f9 62000000 		.4byte	.LVL10
 3822 00fd 0100     		.2byte	0x1
 3823 00ff 56       		.byte	0x56
 3824 0100 62000000 		.4byte	.LVL10
 3825 0104 63000000 		.4byte	.LVL11-1
 3826 0108 0100     		.2byte	0x1
 3827 010a 53       		.byte	0x53
 3828 010b 63000000 		.4byte	.LVL11-1
 3829 010f 64000000 		.4byte	.LVL11
 3830 0113 0400     		.2byte	0x4
 3831 0115 F3       		.byte	0xf3
 3832 0116 01       		.uleb128 0x1
 3833 0117 52       		.byte	0x52
 3834 0118 9F       		.byte	0x9f
 3835 0119 64000000 		.4byte	.LVL11
 3836 011d 7C000000 		.4byte	.LFE1
 3837 0121 0100     		.2byte	0x1
 3838 0123 56       		.byte	0x56
 3839 0124 00000000 		.4byte	0
 3840 0128 00000000 		.4byte	0
 3841              	.LLST3:
 3842 012c 00000000 		.4byte	.LVL0
 3843 0130 10000000 		.4byte	.LVL1
 3844 0134 0100     		.2byte	0x1
 3845 0136 53       		.byte	0x53
 3846 0137 10000000 		.4byte	.LVL1
 3847 013b 62000000 		.4byte	.LVL10
 3848 013f 0100     		.2byte	0x1
 3849 0141 57       		.byte	0x57
 3850 0142 62000000 		.4byte	.LVL10
 3851 0146 63000000 		.4byte	.LVL11-1
 3852 014a 0100     		.2byte	0x1
 3853 014c 50       		.byte	0x50
 3854 014d 63000000 		.4byte	.LVL11-1
 3855 0151 64000000 		.4byte	.LVL11
 3856 0155 0400     		.2byte	0x4
 3857 0157 F3       		.byte	0xf3
 3858 0158 01       		.uleb128 0x1
 3859 0159 53       		.byte	0x53
 3860 015a 9F       		.byte	0x9f
 3861 015b 64000000 		.4byte	.LVL11
 3862 015f 7C000000 		.4byte	.LFE1
 3863 0163 0100     		.2byte	0x1
 3864 0165 57       		.byte	0x57
ARM GAS  /var/folders/d2/nstgp4h54kz7g1l847x_b8wc0000gn/T//ccBxDR0r.s 			page 69


 3865 0166 00000000 		.4byte	0
 3866 016a 00000000 		.4byte	0
 3867              	.LLST4:
 3868 016e 1E000000 		.4byte	.LVL4
 3869 0172 2E000000 		.4byte	.LVL5
 3870 0176 0200     		.2byte	0x2
 3871 0178 30       		.byte	0x30
 3872 0179 9F       		.byte	0x9f
 3873 017a 2E000000 		.4byte	.LVL5
 3874 017e 46000000 		.4byte	.LVL7
 3875 0182 0100     		.2byte	0x1
 3876 0184 54       		.byte	0x54
 3877 0185 46000000 		.4byte	.LVL7
 3878 0189 48000000 		.4byte	.LVL8
 3879 018d 0300     		.2byte	0x3
 3880 018f 74       		.byte	0x74
 3881 0190 7F       		.sleb128 -1
 3882 0191 9F       		.byte	0x9f
 3883 0192 48000000 		.4byte	.LVL8
 3884 0196 4C000000 		.4byte	.LVL9
 3885 019a 0100     		.2byte	0x1
 3886 019c 54       		.byte	0x54
 3887 019d 00000000 		.4byte	0
 3888 01a1 00000000 		.4byte	0
 3889              	.LLST5:
 3890 01a5 00000000 		.4byte	.LVL13
 3891 01a9 1E000000 		.4byte	.LVL15
 3892 01ad 0100     		.2byte	0x1
 3893 01af 52       		.byte	0x52
 3894 01b0 1E000000 		.4byte	.LVL15
 3895 01b4 E0010000 		.4byte	.LFE5
 3896 01b8 0100     		.2byte	0x1
 3897 01ba 56       		.byte	0x56
 3898 01bb 00000000 		.4byte	0
 3899 01bf 00000000 		.4byte	0
 3900              	.LLST6:
 3901 01c3 00000000 		.4byte	.LVL13
 3902 01c7 1E000000 		.4byte	.LVL15
 3903 01cb 0100     		.2byte	0x1
 3904 01cd 53       		.byte	0x53
 3905 01ce 1E000000 		.4byte	.LVL15
 3906 01d2 E0010000 		.4byte	.LFE5
 3907 01d6 0100     		.2byte	0x1
 3908 01d8 54       		.byte	0x54
 3909 01d9 00000000 		.4byte	0
 3910 01dd 00000000 		.4byte	0
 3911              	.LLST7:
 3912 01e1 00000000 		.4byte	.LVL13
 3913 01e5 AE000000 		.4byte	.LVL34
 3914 01e9 0200     		.2byte	0x2
 3915 01eb 91       		.byte	0x91
 3916 01ec 00       		.sleb128 0
 3917 01ed AE000000 		.4byte	.LVL34
 3918 01f1 E0010000 		.4byte	.LFE5
 3919 01f5 0200     		.2byte	0x2
 3920 01f7 91       		.byte	0x91
 3921 01f8 00       		.sleb128 0
ARM GAS  /var/folders/d2/nstgp4h54kz7g1l847x_b8wc0000gn/T//ccBxDR0r.s 			page 70


 3922 01f9 00000000 		.4byte	0
 3923 01fd 00000000 		.4byte	0
 3924              	.LLST8:
 3925 0201 0C000000 		.4byte	.LVL14
 3926 0205 1E000000 		.4byte	.LVL15
 3927 0209 0100     		.2byte	0x1
 3928 020b 51       		.byte	0x51
 3929 020c 1E000000 		.4byte	.LVL15
 3930 0210 58000000 		.4byte	.LVL24
 3931 0214 0100     		.2byte	0x1
 3932 0216 58       		.byte	0x58
 3933 0217 AE000000 		.4byte	.LVL34
 3934 021b A4010000 		.4byte	.LVL72
 3935 021f 0100     		.2byte	0x1
 3936 0221 58       		.byte	0x58
 3937 0222 00000000 		.4byte	0
 3938 0226 00000000 		.4byte	0
 3939              	.LLST9:
 3940 022a 5C000000 		.4byte	.LVL25
 3941 022e AE000000 		.4byte	.LVL34
 3942 0232 0100     		.2byte	0x1
 3943 0234 57       		.byte	0x57
 3944 0235 A4010000 		.4byte	.LVL72
 3945 0239 E0010000 		.4byte	.LFE5
 3946 023d 0100     		.2byte	0x1
 3947 023f 57       		.byte	0x57
 3948 0240 00000000 		.4byte	0
 3949 0244 00000000 		.4byte	0
 3950              	.LLST10:
 3951 0248 1E000000 		.4byte	.LVL15
 3952 024c 26000000 		.4byte	.LVL16
 3953 0250 0200     		.2byte	0x2
 3954 0252 30       		.byte	0x30
 3955 0253 9F       		.byte	0x9f
 3956 0254 26000000 		.4byte	.LVL16
 3957 0258 2A000000 		.4byte	.LVL17
 3958 025c 0100     		.2byte	0x1
 3959 025e 5A       		.byte	0x5a
 3960 025f 2A000000 		.4byte	.LVL17
 3961 0263 30000000 		.4byte	.LVL18
 3962 0267 0300     		.2byte	0x3
 3963 0269 7A       		.byte	0x7a
 3964 026a 7F       		.sleb128 -1
 3965 026b 9F       		.byte	0x9f
 3966 026c 30000000 		.4byte	.LVL18
 3967 0270 34000000 		.4byte	.LVL19
 3968 0274 0100     		.2byte	0x1
 3969 0276 5A       		.byte	0x5a
 3970 0277 00000000 		.4byte	0
 3971 027b 00000000 		.4byte	0
 3972              	.LLST11:
 3973 027f C8000000 		.4byte	.LVL35
 3974 0283 CA000000 		.4byte	.LVL36
 3975 0287 0700     		.2byte	0x7
 3976 0289 70       		.byte	0x70
 3977 028a 00       		.sleb128 0
 3978 028b 0A       		.byte	0xa
ARM GAS  /var/folders/d2/nstgp4h54kz7g1l847x_b8wc0000gn/T//ccBxDR0r.s 			page 71


 3979 028c FFFF     		.2byte	0xffff
 3980 028e 1A       		.byte	0x1a
 3981 028f 9F       		.byte	0x9f
 3982 0290 90010000 		.4byte	.LVL68
 3983 0294 98010000 		.4byte	.LVL69
 3984 0298 0700     		.2byte	0x7
 3985 029a 70       		.byte	0x70
 3986 029b 00       		.sleb128 0
 3987 029c 0A       		.byte	0xa
 3988 029d FFFF     		.2byte	0xffff
 3989 029f 1A       		.byte	0x1a
 3990 02a0 9F       		.byte	0x9f
 3991 02a1 00000000 		.4byte	0
 3992 02a5 00000000 		.4byte	0
 3993              	.LLST12:
 3994 02a9 CE000000 		.4byte	.LVL37
 3995 02ad D4000000 		.4byte	.LVL38
 3996 02b1 0100     		.2byte	0x1
 3997 02b3 50       		.byte	0x50
 3998 02b4 88010000 		.4byte	.LVL66
 3999 02b8 8C010000 		.4byte	.LVL67
 4000 02bc 0100     		.2byte	0x1
 4001 02be 50       		.byte	0x50
 4002 02bf 8C010000 		.4byte	.LVL67
 4003 02c3 A4010000 		.4byte	.LVL72
 4004 02c7 0100     		.2byte	0x1
 4005 02c9 5A       		.byte	0x5a
 4006 02ca 00000000 		.4byte	0
 4007 02ce 00000000 		.4byte	0
 4008              	.LLST13:
 4009 02d2 40010000 		.4byte	.LVL54
 4010 02d6 42010000 		.4byte	.LVL55
 4011 02da 0700     		.2byte	0x7
 4012 02dc 70       		.byte	0x70
 4013 02dd 00       		.sleb128 0
 4014 02de 0A       		.byte	0xa
 4015 02df FFFF     		.2byte	0xffff
 4016 02e1 1A       		.byte	0x1a
 4017 02e2 9F       		.byte	0x9f
 4018 02e3 42010000 		.4byte	.LVL55
 4019 02e7 68010000 		.4byte	.LVL61
 4020 02eb 0900     		.2byte	0x9
 4021 02ed 91       		.byte	0x91
 4022 02ee 4C       		.sleb128 -52
 4023 02ef 94       		.byte	0x94
 4024 02f0 02       		.byte	0x2
 4025 02f1 0A       		.byte	0xa
 4026 02f2 FFFF     		.2byte	0xffff
 4027 02f4 1A       		.byte	0x1a
 4028 02f5 9F       		.byte	0x9f
 4029 02f6 00000000 		.4byte	0
 4030 02fa 00000000 		.4byte	0
 4031              	.LLST14:
 4032 02fe 46010000 		.4byte	.LVL56
 4033 0302 50010000 		.4byte	.LVL57
 4034 0306 0100     		.2byte	0x1
 4035 0308 50       		.byte	0x50
ARM GAS  /var/folders/d2/nstgp4h54kz7g1l847x_b8wc0000gn/T//ccBxDR0r.s 			page 72


 4036 0309 50010000 		.4byte	.LVL57
 4037 030d 53010000 		.4byte	.LVL58-1
 4038 0311 0100     		.2byte	0x1
 4039 0313 51       		.byte	0x51
 4040 0314 53010000 		.4byte	.LVL58-1
 4041 0318 68010000 		.4byte	.LVL61
 4042 031c 0100     		.2byte	0x1
 4043 031e 5A       		.byte	0x5a
 4044 031f 00000000 		.4byte	0
 4045 0323 00000000 		.4byte	0
 4046              	.LLST15:
 4047 0327 28010000 		.4byte	.LVL48
 4048 032b 38010000 		.4byte	.LVL52
 4049 032f 0700     		.2byte	0x7
 4050 0331 7A       		.byte	0x7a
 4051 0332 00       		.sleb128 0
 4052 0333 0A       		.byte	0xa
 4053 0334 FFFF     		.2byte	0xffff
 4054 0336 1A       		.byte	0x1a
 4055 0337 9F       		.byte	0x9f
 4056 0338 68010000 		.4byte	.LVL61
 4057 033c 88010000 		.4byte	.LVL66
 4058 0340 0700     		.2byte	0x7
 4059 0342 7A       		.byte	0x7a
 4060 0343 00       		.sleb128 0
 4061 0344 0A       		.byte	0xa
 4062 0345 FFFF     		.2byte	0xffff
 4063 0347 1A       		.byte	0x1a
 4064 0348 9F       		.byte	0x9f
 4065 0349 00000000 		.4byte	0
 4066 034d 00000000 		.4byte	0
 4067              	.LLST16:
 4068 0351 2C010000 		.4byte	.LVL49
 4069 0355 34010000 		.4byte	.LVL50
 4070 0359 0100     		.2byte	0x1
 4071 035b 50       		.byte	0x50
 4072 035c 68010000 		.4byte	.LVL61
 4073 0360 70010000 		.4byte	.LVL62
 4074 0364 0100     		.2byte	0x1
 4075 0366 50       		.byte	0x50
 4076 0367 70010000 		.4byte	.LVL62
 4077 036b 73010000 		.4byte	.LVL63-1
 4078 036f 0100     		.2byte	0x1
 4079 0371 51       		.byte	0x51
 4080 0372 73010000 		.4byte	.LVL63-1
 4081 0376 88010000 		.4byte	.LVL66
 4082 037a 0200     		.2byte	0x2
 4083 037c 91       		.byte	0x91
 4084 037d 4C       		.sleb128 -52
 4085 037e 00000000 		.4byte	0
 4086 0382 00000000 		.4byte	0
 4087              	.LLST17:
 4088 0386 6A000000 		.4byte	.LVL26
 4089 038a 72000000 		.4byte	.LVL27
 4090 038e 0200     		.2byte	0x2
 4091 0390 30       		.byte	0x30
 4092 0391 9F       		.byte	0x9f
ARM GAS  /var/folders/d2/nstgp4h54kz7g1l847x_b8wc0000gn/T//ccBxDR0r.s 			page 73


 4093 0392 72000000 		.4byte	.LVL27
 4094 0396 76000000 		.4byte	.LVL28
 4095 039a 0100     		.2byte	0x1
 4096 039c 5B       		.byte	0x5b
 4097 039d 76000000 		.4byte	.LVL28
 4098 03a1 7C000000 		.4byte	.LVL29
 4099 03a5 0300     		.2byte	0x3
 4100 03a7 7B       		.byte	0x7b
 4101 03a8 7F       		.sleb128 -1
 4102 03a9 9F       		.byte	0x9f
 4103 03aa 7C000000 		.4byte	.LVL29
 4104 03ae 80000000 		.4byte	.LVL30
 4105 03b2 0100     		.2byte	0x1
 4106 03b4 5B       		.byte	0x5b
 4107 03b5 00000000 		.4byte	0
 4108 03b9 00000000 		.4byte	0
 4109              		.section	.debug_aranges,"",%progbits
 4110 0000 2C000000 		.4byte	0x2c
 4111 0004 0200     		.2byte	0x2
 4112 0006 00000000 		.4byte	.Ldebug_info0
 4113 000a 04       		.byte	0x4
 4114 000b 00       		.byte	0
 4115 000c 0000     		.2byte	0
 4116 000e 0000     		.2byte	0
 4117 0010 00000000 		.4byte	.LFB1
 4118 0014 7C000000 		.4byte	.LFE1-.LFB1
 4119 0018 00000000 		.4byte	.LFB5
 4120 001c E0010000 		.4byte	.LFE5-.LFB5
 4121 0020 00000000 		.4byte	.LFB4
 4122 0024 30000000 		.4byte	.LFE4-.LFB4
 4123 0028 00000000 		.4byte	0
 4124 002c 00000000 		.4byte	0
 4125              		.section	.debug_ranges,"",%progbits
 4126              	.Ldebug_ranges0:
 4127 0000 16000000 		.4byte	.LBB20
 4128 0004 4E000000 		.4byte	.LBE20
 4129 0008 AE000000 		.4byte	.LBB37
 4130 000c A4010000 		.4byte	.LBE37
 4131 0010 00000000 		.4byte	0
 4132 0014 00000000 		.4byte	0
 4133 0018 16000000 		.4byte	.LBB22
 4134 001c 18000000 		.4byte	.LBE22
 4135 0020 1E000000 		.4byte	.LBB25
 4136 0024 34000000 		.4byte	.LBE25
 4137 0028 00000000 		.4byte	0
 4138 002c 00000000 		.4byte	0
 4139 0030 C2000000 		.4byte	.LBB26
 4140 0034 D4000000 		.4byte	.LBE26
 4141 0038 88010000 		.4byte	.LBB31
 4142 003c A4010000 		.4byte	.LBE31
 4143 0040 00000000 		.4byte	0
 4144 0044 00000000 		.4byte	0
 4145 0048 D4000000 		.4byte	.LBB27
 4146 004c DE000000 		.4byte	.LBE27
 4147 0050 38010000 		.4byte	.LBB29
 4148 0054 68010000 		.4byte	.LBE29
 4149 0058 00000000 		.4byte	0
ARM GAS  /var/folders/d2/nstgp4h54kz7g1l847x_b8wc0000gn/T//ccBxDR0r.s 			page 74


 4150 005c 00000000 		.4byte	0
 4151 0060 20010000 		.4byte	.LBB28
 4152 0064 38010000 		.4byte	.LBE28
 4153 0068 68010000 		.4byte	.LBB30
 4154 006c 88010000 		.4byte	.LBE30
 4155 0070 00000000 		.4byte	0
 4156 0074 00000000 		.4byte	0
 4157 0078 5E000000 		.4byte	.LBB33
 4158 007c 62000000 		.4byte	.LBE33
 4159 0080 6A000000 		.4byte	.LBB36
 4160 0084 80000000 		.4byte	.LBE36
 4161 0088 00000000 		.4byte	0
 4162 008c 00000000 		.4byte	0
 4163 0090 00000000 		.4byte	.LFB1
 4164 0094 7C000000 		.4byte	.LFE1
 4165 0098 00000000 		.4byte	.LFB5
 4166 009c E0010000 		.4byte	.LFE5
 4167 00a0 00000000 		.4byte	.LFB4
 4168 00a4 30000000 		.4byte	.LFE4
 4169 00a8 00000000 		.4byte	0
 4170 00ac 00000000 		.4byte	0
 4171              		.section	.debug_line,"",%progbits
 4172              	.Ldebug_line0:
 4173 0000 6F030000 		.section	.debug_str,"MS",%progbits,1
 4173      0200CC02 
 4173      00000201 
 4173      FB0E0D00 
 4173      01010101 
 4174              	.LASF45:
 4175 0000 5F64736F 		.ascii	"_dso_handle\000"
 4175      5F68616E 
 4175      646C6500 
 4176              	.LASF170:
 4177 000c 2F557365 		.ascii	"/Users/bharathkeshavamurthy/Workspaces/Talos/src/ma"
 4177      72732F62 
 4177      68617261 
 4177      74686B65 
 4177      73686176 
 4178 003f 696E2F63 		.ascii	"in/cpp/org/purdue/ece/talos/optimize/\000"
 4178      70702F6F 
 4178      72672F70 
 4178      75726475 
 4178      652F6563 
 4179              	.LASF157:
 4180 0065 6D616C6C 		.ascii	"malloc\000"
 4180      6F6300
 4181              	.LASF140:
 4182 006c 76616C75 		.ascii	"value\000"
 4182      6500
 4183              	.LASF53:
 4184 0072 5F73697A 		.ascii	"_size\000"
 4184      6500
 4185              	.LASF97:
 4186 0078 5F72616E 		.ascii	"_rand48\000"
 4186      64343800 
 4187              	.LASF77:
 4188 0080 5F656D65 		.ascii	"_emergency\000"
ARM GAS  /var/folders/d2/nstgp4h54kz7g1l847x_b8wc0000gn/T//ccBxDR0r.s 			page 75


 4188      7267656E 
 4188      637900
 4189              	.LASF3:
 4190 008b 5F5F7569 		.ascii	"__uint8_t\000"
 4190      6E74385F 
 4190      7400
 4191              	.LASF151:
 4192 0095 7072696E 		.ascii	"printfn_arg\000"
 4192      74666E5F 
 4192      61726700 
 4193              	.LASF172:
 4194 00a1 7072696E 		.ascii	"print_array\000"
 4194      745F6172 
 4194      72617900 
 4195              	.LASF113:
 4196 00ad 5F676574 		.ascii	"_getdate_err\000"
 4196      64617465 
 4196      5F657272 
 4196      00
 4197              	.LASF67:
 4198 00ba 5F646174 		.ascii	"_data\000"
 4198      6100
 4199              	.LASF139:
 4200 00c0 74797065 		.ascii	"type\000"
 4200      00
 4201              	.LASF129:
 4202 00c5 70617261 		.ascii	"parameter_namespace_s\000"
 4202      6D657465 
 4202      725F6E61 
 4202      6D657370 
 4202      6163655F 
 4203              	.LASF128:
 4204 00db 70617261 		.ascii	"parameter_namespace_t\000"
 4204      6D657465 
 4204      725F6E61 
 4204      6D657370 
 4204      6163655F 
 4205              	.LASF117:
 4206 00f1 5F776372 		.ascii	"_wcrtomb_state\000"
 4206      746F6D62 
 4206      5F737461 
 4206      746500
 4207              	.LASF136:
 4208 0100 70617261 		.ascii	"parameter_s\000"
 4208      6D657465 
 4208      725F7300 
 4209              	.LASF118:
 4210 010c 5F776373 		.ascii	"_wcsrtombs_state\000"
 4210      72746F6D 
 4210      62735F73 
 4210      74617465 
 4210      00
 4211              	.LASF10:
 4212 011d 6C6F6E67 		.ascii	"long long unsigned int\000"
 4212      206C6F6E 
 4212      6720756E 
 4212      7369676E 
ARM GAS  /var/folders/d2/nstgp4h54kz7g1l847x_b8wc0000gn/T//ccBxDR0r.s 			page 76


 4212      65642069 
 4213              	.LASF57:
 4214 0134 5F6C6266 		.ascii	"_lbfsize\000"
 4214      73697A65 
 4214      00
 4215              	.LASF124:
 4216 013d 5F5F6C6F 		.ascii	"__locale_t\000"
 4216      63616C65 
 4216      5F7400
 4217              	.LASF135:
 4218 0148 70617261 		.ascii	"parameter_t\000"
 4218      6D657465 
 4218      725F7400 
 4219              	.LASF169:
 4220 0154 2E2E2F65 		.ascii	"../e-puck2_main-processor/src/parameter/parameter_p"
 4220      2D707563 
 4220      6B325F6D 
 4220      61696E2D 
 4220      70726F63 
 4221 0187 72696E74 		.ascii	"rint.c\000"
 4221      2E6300
 4222              	.LASF144:
 4223 018e 6275665F 		.ascii	"buf_dim\000"
 4223      64696D00 
 4224              	.LASF115:
 4225 0196 5F6D6272 		.ascii	"_mbrtowc_state\000"
 4225      746F7763 
 4225      5F737461 
 4225      746500
 4226              	.LASF133:
 4227 01a5 6E657874 		.ascii	"next\000"
 4227      00
 4228              	.LASF34:
 4229 01aa 5F5F746D 		.ascii	"__tm_sec\000"
 4229      5F736563 
 4229      00
 4230              	.LASF9:
 4231 01b3 6C6F6E67 		.ascii	"long long int\000"
 4231      206C6F6E 
 4231      6720696E 
 4231      7400
 4232              	.LASF0:
 4233 01c1 7369676E 		.ascii	"signed char\000"
 4233      65642063 
 4233      68617200 
 4234              	.LASF142:
 4235 01cd 6275665F 		.ascii	"buf_len\000"
 4235      6C656E00 
 4236              	.LASF63:
 4237 01d5 5F756275 		.ascii	"_ubuf\000"
 4237      6600
 4238              	.LASF137:
 4239 01db 6368616E 		.ascii	"changed\000"
 4239      67656400 
 4240              	.LASF52:
 4241 01e3 5F626173 		.ascii	"_base\000"
 4241      6500
ARM GAS  /var/folders/d2/nstgp4h54kz7g1l847x_b8wc0000gn/T//ccBxDR0r.s 			page 77


 4242              	.LASF36:
 4243 01e9 5F5F746D 		.ascii	"__tm_hour\000"
 4243      5F686F75 
 4243      7200
 4244              	.LASF92:
 4245 01f3 5F5F7366 		.ascii	"__sf\000"
 4245      00
 4246              	.LASF43:
 4247 01f8 5F6F6E5F 		.ascii	"_on_exit_args\000"
 4247      65786974 
 4247      5F617267 
 4247      7300
 4248              	.LASF141:
 4249 0206 5F706172 		.ascii	"_param_val_str_s\000"
 4249      616D5F76 
 4249      616C5F73 
 4249      74725F73 
 4249      00
 4250              	.LASF58:
 4251 0217 5F636F6F 		.ascii	"_cookie\000"
 4251      6B696500 
 4252              	.LASF131:
 4253 021f 70617265 		.ascii	"parent\000"
 4253      6E7400
 4254              	.LASF91:
 4255 0226 5F5F7367 		.ascii	"__sglue\000"
 4255      6C756500 
 4256              	.LASF7:
 4257 022e 6C6F6E67 		.ascii	"long int\000"
 4257      20696E74 
 4257      00
 4258              	.LASF55:
 4259 0237 5F666C61 		.ascii	"_flags\000"
 4259      677300
 4260              	.LASF47:
 4261 023e 5F69735F 		.ascii	"_is_cxa\000"
 4261      63786100 
 4262              	.LASF73:
 4263 0246 5F737464 		.ascii	"_stdin\000"
 4263      696E00
 4264              	.LASF162:
 4265 024d 70617261 		.ascii	"parameter_string_max_len\000"
 4265      6D657465 
 4265      725F7374 
 4265      72696E67 
 4265      5F6D6178 
 4266              	.LASF65:
 4267 0266 5F626C6B 		.ascii	"_blksize\000"
 4267      73697A65 
 4267      00
 4268              	.LASF13:
 4269 026f 75696E74 		.ascii	"uint16_t\000"
 4269      31365F74 
 4269      00
 4270              	.LASF138:
 4271 0278 64656669 		.ascii	"defined\000"
 4271      6E656400 
ARM GAS  /var/folders/d2/nstgp4h54kz7g1l847x_b8wc0000gn/T//ccBxDR0r.s 			page 78


 4272              	.LASF134:
 4273 0280 70617261 		.ascii	"parameter_list\000"
 4273      6D657465 
 4273      725F6C69 
 4273      737400
 4274              	.LASF87:
 4275 028f 5F637674 		.ascii	"_cvtbuf\000"
 4275      62756600 
 4276              	.LASF66:
 4277 0297 5F6F6666 		.ascii	"_offset\000"
 4277      73657400 
 4278              	.LASF116:
 4279 029f 5F6D6273 		.ascii	"_mbsrtowcs_state\000"
 4279      72746F77 
 4279      63735F73 
 4279      74617465 
 4279      00
 4280              	.LASF114:
 4281 02b0 5F6D6272 		.ascii	"_mbrlen_state\000"
 4281      6C656E5F 
 4281      73746174 
 4281      6500
 4282              	.LASF44:
 4283 02be 5F666E61 		.ascii	"_fnargs\000"
 4283      72677300 
 4284              	.LASF158:
 4285 02c6 70617261 		.ascii	"parameter_variable_vector_read\000"
 4285      6D657465 
 4285      725F7661 
 4285      72696162 
 4285      6C655F76 
 4286              	.LASF50:
 4287 02e5 5F666E73 		.ascii	"_fns\000"
 4287      00
 4288              	.LASF164:
 4289 02ea 70617261 		.ascii	"parameter_defined\000"
 4289      6D657465 
 4289      725F6465 
 4289      66696E65 
 4289      6400
 4290              	.LASF30:
 4291 02fc 5F736967 		.ascii	"_sign\000"
 4291      6E00
 4292              	.LASF25:
 4293 0302 5F666C6F 		.ascii	"_flock_t\000"
 4293      636B5F74 
 4293      00
 4294              	.LASF75:
 4295 030b 5F737464 		.ascii	"_stderr\000"
 4295      65727200 
 4296              	.LASF32:
 4297 0313 5F426967 		.ascii	"_Bigint\000"
 4297      696E7400 
 4298              	.LASF105:
 4299 031b 5F67616D 		.ascii	"_gamma_signgam\000"
 4299      6D615F73 
 4299      69676E67 
ARM GAS  /var/folders/d2/nstgp4h54kz7g1l847x_b8wc0000gn/T//ccBxDR0r.s 			page 79


 4299      616D00
 4300              	.LASF146:
 4301 032a 5F706172 		.ascii	"_param_val_matrix_s\000"
 4301      616D5F76 
 4301      616C5F6D 
 4301      61747269 
 4301      785F7300 
 4302              	.LASF59:
 4303 033e 5F726561 		.ascii	"_read\000"
 4303      6400
 4304              	.LASF83:
 4305 0344 5F726573 		.ascii	"_result_k\000"
 4305      756C745F 
 4305      6B00
 4306              	.LASF33:
 4307 034e 5F5F746D 		.ascii	"__tm\000"
 4307      00
 4308              	.LASF165:
 4309 0353 70617261 		.ascii	"parameter_scalar_read\000"
 4309      6D657465 
 4309      725F7363 
 4309      616C6172 
 4309      5F726561 
 4310              	.LASF11:
 4311 0369 756E7369 		.ascii	"unsigned int\000"
 4311      676E6564 
 4311      20696E74 
 4311      00
 4312              	.LASF168:
 4313 0376 474E5520 		.ascii	"GNU C11 7.2.1 20170904 (release) [ARM/embedded-7-br"
 4313      43313120 
 4313      372E322E 
 4313      31203230 
 4313      31373039 
 4314 03a9 616E6368 		.ascii	"anch revision 255204] -mcpu=cortex-m4 -mfloat-abi=h"
 4314      20726576 
 4314      6973696F 
 4314      6E203235 
 4314      35323034 
 4315 03dc 61726420 		.ascii	"ard -mfpu=fpv4-sp-d16 -mno-thumb-interwork -mthumb "
 4315      2D6D6670 
 4315      753D6670 
 4315      76342D73 
 4315      702D6431 
 4316 040f 2D676764 		.ascii	"-ggdb -O2 -fomit-frame-pointer -falign-functions=16"
 4316      62202D4F 
 4316      32202D66 
 4316      6F6D6974 
 4316      2D667261 
 4317 0442 202D666E 		.ascii	" -fno-strict-aliasing -fstack-protector-all -ffunct"
 4317      6F2D7374 
 4317      72696374 
 4317      2D616C69 
 4317      6173696E 
 4318 0475 696F6E2D 		.ascii	"ion-sections -fdata-sections -fno-common -fsingle-p"
 4318      73656374 
 4318      696F6E73 
ARM GAS  /var/folders/d2/nstgp4h54kz7g1l847x_b8wc0000gn/T//ccBxDR0r.s 			page 80


 4318      202D6664 
 4318      6174612D 
 4319 04a8 72656369 		.ascii	"recision-constant\000"
 4319      73696F6E 
 4319      2D636F6E 
 4319      7374616E 
 4319      7400
 4320              	.LASF21:
 4321 04ba 5F5F7763 		.ascii	"__wchb\000"
 4321      686200
 4322              	.LASF74:
 4323 04c1 5F737464 		.ascii	"_stdout\000"
 4323      6F757400 
 4324              	.LASF86:
 4325 04c9 5F637674 		.ascii	"_cvtlen\000"
 4325      6C656E00 
 4326              	.LASF8:
 4327 04d1 6C6F6E67 		.ascii	"long unsigned int\000"
 4327      20756E73 
 4327      69676E65 
 4327      6420696E 
 4327      7400
 4328              	.LASF56:
 4329 04e3 5F66696C 		.ascii	"_file\000"
 4329      6500
 4330              	.LASF161:
 4331 04e9 70617261 		.ascii	"parameter_vector_read\000"
 4331      6D657465 
 4331      725F7665 
 4331      63746F72 
 4331      5F726561 
 4332              	.LASF95:
 4333 04ff 5F6E696F 		.ascii	"_niobs\000"
 4333      627300
 4334              	.LASF5:
 4335 0506 73686F72 		.ascii	"short unsigned int\000"
 4335      7420756E 
 4335      7369676E 
 4335      65642069 
 4335      6E7400
 4336              	.LASF89:
 4337 0519 5F617465 		.ascii	"_atexit0\000"
 4337      78697430 
 4337      00
 4338              	.LASF112:
 4339 0522 5F736967 		.ascii	"_signal_buf\000"
 4339      6E616C5F 
 4339      62756600 
 4340              	.LASF103:
 4341 052e 5F617363 		.ascii	"_asctime_buf\000"
 4341      74696D65 
 4341      5F627566 
 4341      00
 4342              	.LASF160:
 4343 053b 70617261 		.ascii	"parameter_vector_dim\000"
 4343      6D657465 
 4343      725F7665 
ARM GAS  /var/folders/d2/nstgp4h54kz7g1l847x_b8wc0000gn/T//ccBxDR0r.s 			page 81


 4343      63746F72 
 4343      5F64696D 
 4344              	.LASF82:
 4345 0550 5F726573 		.ascii	"_result\000"
 4345      756C7400 
 4346              	.LASF20:
 4347 0558 5F5F7763 		.ascii	"__wch\000"
 4347      6800
 4348              	.LASF16:
 4349 055e 5F4C4F43 		.ascii	"_LOCK_T\000"
 4349      4B5F5400 
 4350              	.LASF19:
 4351 0566 77696E74 		.ascii	"wint_t\000"
 4351      5F7400
 4352              	.LASF68:
 4353 056d 5F6C6F63 		.ascii	"_lock\000"
 4353      6B00
 4354              	.LASF155:
 4355 0573 696E6465 		.ascii	"indent\000"
 4355      6E7400
 4356              	.LASF70:
 4357 057a 5F666C61 		.ascii	"_flags2\000"
 4357      67733200 
 4358              	.LASF152:
 4359 0582 696E6465 		.ascii	"indent_lvl\000"
 4359      6E745F6C 
 4359      766C00
 4360              	.LASF60:
 4361 058d 5F777269 		.ascii	"_write\000"
 4361      746500
 4362              	.LASF39:
 4363 0594 5F5F746D 		.ascii	"__tm_year\000"
 4363      5F796561 
 4363      7200
 4364              	.LASF121:
 4365 059e 5F6E6D61 		.ascii	"_nmalloc\000"
 4365      6C6C6F63 
 4365      00
 4366              	.LASF15:
 4367 05a7 6C6F6E67 		.ascii	"long double\000"
 4367      20646F75 
 4367      626C6500 
 4368              	.LASF120:
 4369 05b3 5F6E6578 		.ascii	"_nextf\000"
 4369      746600
 4370              	.LASF154:
 4371 05ba 70617261 		.ascii	"param_entry_print\000"
 4371      6D5F656E 
 4371      7472795F 
 4371      7072696E 
 4371      7400
 4372              	.LASF166:
 4373 05cc 70617261 		.ascii	"parameter_boolean_read\000"
 4373      6D657465 
 4373      725F626F 
 4373      6F6C6561 
 4373      6E5F7265 
ARM GAS  /var/folders/d2/nstgp4h54kz7g1l847x_b8wc0000gn/T//ccBxDR0r.s 			page 82


 4374              	.LASF38:
 4375 05e3 5F5F746D 		.ascii	"__tm_mon\000"
 4375      5F6D6F6E 
 4375      00
 4376              	.LASF48:
 4377 05ec 5F617465 		.ascii	"_atexit\000"
 4377      78697400 
 4378              	.LASF127:
 4379 05f4 7375626F 		.ascii	"suboptarg\000"
 4379      70746172 
 4379      6700
 4380              	.LASF80:
 4381 05fe 5F5F7364 		.ascii	"__sdidinit\000"
 4381      6964696E 
 4381      697400
 4382              	.LASF17:
 4383 0609 5F6F6666 		.ascii	"_off_t\000"
 4383      5F7400
 4384              	.LASF145:
 4385 0610 666C6F61 		.ascii	"float\000"
 4385      7400
 4386              	.LASF85:
 4387 0616 5F667265 		.ascii	"_freelist\000"
 4387      656C6973 
 4387      7400
 4388              	.LASF153:
 4389 0620 70617261 		.ascii	"param_ns_print\000"
 4389      6D5F6E73 
 4389      5F707269 
 4389      6E7400
 4390              	.LASF110:
 4391 062f 5F776374 		.ascii	"_wctomb_state\000"
 4391      6F6D625F 
 4391      73746174 
 4391      6500
 4392              	.LASF148:
 4393 063d 5F426F6F 		.ascii	"_Bool\000"
 4393      6C00
 4394              	.LASF14:
 4395 0643 696E7433 		.ascii	"int32_t\000"
 4395      325F7400 
 4396              	.LASF1:
 4397 064b 756E7369 		.ascii	"unsigned char\000"
 4397      676E6564 
 4397      20636861 
 4397      7200
 4398              	.LASF88:
 4399 0659 5F6E6577 		.ascii	"_new\000"
 4399      00
 4400              	.LASF163:
 4401 065e 70617261 		.ascii	"parameter_string_read\000"
 4401      6D657465 
 4401      725F7374 
 4401      72696E67 
 4401      5F726561 
 4402              	.LASF119:
 4403 0674 5F685F65 		.ascii	"_h_errno\000"
ARM GAS  /var/folders/d2/nstgp4h54kz7g1l847x_b8wc0000gn/T//ccBxDR0r.s 			page 83


 4403      72726E6F 
 4403      00
 4404              	.LASF2:
 4405 067d 73686F72 		.ascii	"short int\000"
 4405      7420696E 
 4405      7400
 4406              	.LASF41:
 4407 0687 5F5F746D 		.ascii	"__tm_yday\000"
 4407      5F796461 
 4407      7900
 4408              	.LASF51:
 4409 0691 5F5F7362 		.ascii	"__sbuf\000"
 4409      756600
 4410              	.LASF143:
 4411 0698 5F706172 		.ascii	"_param_val_vector_s\000"
 4411      616D5F76 
 4411      616C5F76 
 4411      6563746F 
 4411      725F7300 
 4412              	.LASF96:
 4413 06ac 5F696F62 		.ascii	"_iobs\000"
 4413      7300
 4414              	.LASF93:
 4415 06b2 5F5F4649 		.ascii	"__FILE\000"
 4415      4C4500
 4416              	.LASF24:
 4417 06b9 5F6D6273 		.ascii	"_mbstate_t\000"
 4417      74617465 
 4417      5F7400
 4418              	.LASF54:
 4419 06c4 5F5F7346 		.ascii	"__sFILE\000"
 4419      494C4500 
 4420              	.LASF69:
 4421 06cc 5F6D6273 		.ascii	"_mbstate\000"
 4421      74617465 
 4421      00
 4422              	.LASF106:
 4423 06d5 5F72616E 		.ascii	"_rand_next\000"
 4423      645F6E65 
 4423      787400
 4424              	.LASF132:
 4425 06e0 73756273 		.ascii	"subspaces\000"
 4425      70616365 
 4425      7300
 4426              	.LASF108:
 4427 06ea 5F6D626C 		.ascii	"_mblen_state\000"
 4427      656E5F73 
 4427      74617465 
 4427      00
 4428              	.LASF76:
 4429 06f7 5F696E63 		.ascii	"_inc\000"
 4429      00
 4430              	.LASF49:
 4431 06fc 5F696E64 		.ascii	"_ind\000"
 4431      00
 4432              	.LASF79:
 4433 0701 5F6C6F63 		.ascii	"_locale\000"
ARM GAS  /var/folders/d2/nstgp4h54kz7g1l847x_b8wc0000gn/T//ccBxDR0r.s 			page 84


 4433      616C6500 
 4434              	.LASF81:
 4435 0709 5F5F636C 		.ascii	"__cleanup\000"
 4435      65616E75 
 4435      7000
 4436              	.LASF78:
 4437 0713 5F756E73 		.ascii	"_unspecified_locale_info\000"
 4437      70656369 
 4437      66696564 
 4437      5F6C6F63 
 4437      616C655F 
 4438              	.LASF173:
 4439 072c 5F5F7374 		.ascii	"__stack_chk_fail\000"
 4439      61636B5F 
 4439      63686B5F 
 4439      6661696C 
 4439      00
 4440              	.LASF29:
 4441 073d 5F6D6178 		.ascii	"_maxwds\000"
 4441      77647300 
 4442              	.LASF71:
 4443 0745 5F726565 		.ascii	"_reent\000"
 4443      6E7400
 4444              	.LASF98:
 4445 074c 5F736565 		.ascii	"_seed\000"
 4445      6400
 4446              	.LASF22:
 4447 0752 5F5F636F 		.ascii	"__count\000"
 4447      756E7400 
 4448              	.LASF123:
 4449 075a 5F5F6C6F 		.ascii	"__lock\000"
 4449      636B00
 4450              	.LASF23:
 4451 0761 5F5F7661 		.ascii	"__value\000"
 4451      6C756500 
 4452              	.LASF61:
 4453 0769 5F736565 		.ascii	"_seek\000"
 4453      6B00
 4454              	.LASF167:
 4455 076f 70617261 		.ascii	"parameter_integer_read\000"
 4455      6D657465 
 4455      725F696E 
 4455      74656765 
 4455      725F7265 
 4456              	.LASF125:
 4457 0786 5F696D70 		.ascii	"_impure_ptr\000"
 4457      7572655F 
 4457      70747200 
 4458              	.LASF18:
 4459 0792 5F66706F 		.ascii	"_fpos_t\000"
 4459      735F7400 
 4460              	.LASF72:
 4461 079a 5F657272 		.ascii	"_errno\000"
 4461      6E6F00
 4462              	.LASF26:
 4463 07a1 63686172 		.ascii	"char\000"
 4463      00
ARM GAS  /var/folders/d2/nstgp4h54kz7g1l847x_b8wc0000gn/T//ccBxDR0r.s 			page 85


 4464              	.LASF35:
 4465 07a6 5F5F746D 		.ascii	"__tm_min\000"
 4465      5F6D696E 
 4465      00
 4466              	.LASF4:
 4467 07af 5F5F7569 		.ascii	"__uint16_t\000"
 4467      6E743136 
 4467      5F7400
 4468              	.LASF147:
 4469 07ba 76656374 		.ascii	"vect\000"
 4469      00
 4470              	.LASF6:
 4471 07bf 5F5F696E 		.ascii	"__int32_t\000"
 4471      7433325F 
 4471      7400
 4472              	.LASF99:
 4473 07c9 5F6D756C 		.ascii	"_mult\000"
 4473      7400
 4474              	.LASF28:
 4475 07cf 5F6E6578 		.ascii	"_next\000"
 4475      7400
 4476              	.LASF102:
 4477 07d5 5F737472 		.ascii	"_strtok_last\000"
 4477      746F6B5F 
 4477      6C617374 
 4477      00
 4478              	.LASF46:
 4479 07e2 5F666E74 		.ascii	"_fntypes\000"
 4479      79706573 
 4479      00
 4480              	.LASF159:
 4481 07eb 66726565 		.ascii	"free\000"
 4481      00
 4482              	.LASF130:
 4483 07f0 6368616E 		.ascii	"changed_cnt\000"
 4483      6765645F 
 4483      636E7400 
 4484              	.LASF100:
 4485 07fc 5F616464 		.ascii	"_add\000"
 4485      00
 4486              	.LASF27:
 4487 0801 5F5F554C 		.ascii	"__ULong\000"
 4487      6F6E6700 
 4488              	.LASF126:
 4489 0809 5F676C6F 		.ascii	"_global_impure_ptr\000"
 4489      62616C5F 
 4489      696D7075 
 4489      72655F70 
 4489      747200
 4490              	.LASF101:
 4491 081c 5F756E75 		.ascii	"_unused_rand\000"
 4491      7365645F 
 4491      72616E64 
 4491      00
 4492              	.LASF156:
 4493 0829 70617261 		.ascii	"parameter_variable_vector_max_dim\000"
 4493      6D657465 
ARM GAS  /var/folders/d2/nstgp4h54kz7g1l847x_b8wc0000gn/T//ccBxDR0r.s 			page 86


 4493      725F7661 
 4493      72696162 
 4493      6C655F76 
 4494              	.LASF31:
 4495 084b 5F776473 		.ascii	"_wds\000"
 4495      00
 4496              	.LASF40:
 4497 0850 5F5F746D 		.ascii	"__tm_wday\000"
 4497      5F776461 
 4497      7900
 4498              	.LASF94:
 4499 085a 5F676C75 		.ascii	"_glue\000"
 4499      6500
 4500              	.LASF12:
 4501 0860 75696E74 		.ascii	"uint8_t\000"
 4501      385F7400 
 4502              	.LASF111:
 4503 0868 5F6C3634 		.ascii	"_l64a_buf\000"
 4503      615F6275 
 4503      6600
 4504              	.LASF90:
 4505 0872 5F736967 		.ascii	"_sig_func\000"
 4505      5F66756E 
 4505      6300
 4506              	.LASF150:
 4507 087c 7072696E 		.ascii	"printfn\000"
 4507      74666E00 
 4508              	.LASF149:
 4509 0884 70617261 		.ascii	"parameter_printfn_t\000"
 4509      6D657465 
 4509      725F7072 
 4509      696E7466 
 4509      6E5F7400 
 4510              	.LASF64:
 4511 0898 5F6E6275 		.ascii	"_nbuf\000"
 4511      6600
 4512              	.LASF122:
 4513 089e 5F756E75 		.ascii	"_unused\000"
 4513      73656400 
 4514              	.LASF171:
 4515 08a6 70617261 		.ascii	"parameter_print\000"
 4515      6D657465 
 4515      725F7072 
 4515      696E7400 
 4516              	.LASF42:
 4517 08b6 5F5F746D 		.ascii	"__tm_isdst\000"
 4517      5F697364 
 4517      737400
 4518              	.LASF104:
 4519 08c1 5F6C6F63 		.ascii	"_localtime_buf\000"
 4519      616C7469 
 4519      6D655F62 
 4519      756600
 4520              	.LASF62:
 4521 08d0 5F636C6F 		.ascii	"_close\000"
 4521      736500
 4522              	.LASF107:
ARM GAS  /var/folders/d2/nstgp4h54kz7g1l847x_b8wc0000gn/T//ccBxDR0r.s 			page 87


 4523 08d7 5F723438 		.ascii	"_r48\000"
 4523      00
 4524              	.LASF109:
 4525 08dc 5F6D6274 		.ascii	"_mbtowc_state\000"
 4525      6F77635F 
 4525      73746174 
 4525      6500
 4526              	.LASF84:
 4527 08ea 5F703573 		.ascii	"_p5s\000"
 4527      00
 4528              	.LASF37:
 4529 08ef 5F5F746D 		.ascii	"__tm_mday\000"
 4529      5F6D6461 
 4529      7900
 4530              		.ident	"GCC: (GNU Tools for Arm Embedded Processors 7-2017-q4-major) 7.2.1 20170904 (release) [ARM
ARM GAS  /var/folders/d2/nstgp4h54kz7g1l847x_b8wc0000gn/T//ccBxDR0r.s 			page 88


DEFINED SYMBOLS
                            *ABS*:0000000000000000 parameter_print.c
/var/folders/d2/nstgp4h54kz7g1l847x_b8wc0000gn/T//ccBxDR0r.s:19     .text.print_array:0000000000000000 $t
/var/folders/d2/nstgp4h54kz7g1l847x_b8wc0000gn/T//ccBxDR0r.s:26     .text.print_array:0000000000000000 print_array
/var/folders/d2/nstgp4h54kz7g1l847x_b8wc0000gn/T//ccBxDR0r.s:134    .text.print_array:0000000000000068 $d
/var/folders/d2/nstgp4h54kz7g1l847x_b8wc0000gn/T//ccBxDR0r.s:143    .text.param_ns_print.isra.0:0000000000000000 $t
/var/folders/d2/nstgp4h54kz7g1l847x_b8wc0000gn/T//ccBxDR0r.s:150    .text.param_ns_print.isra.0:0000000000000000 param_ns_print.isra.0
/var/folders/d2/nstgp4h54kz7g1l847x_b8wc0000gn/T//ccBxDR0r.s:326    .text.param_ns_print.isra.0:00000000000000bc $d
/var/folders/d2/nstgp4h54kz7g1l847x_b8wc0000gn/T//ccBxDR0r.s:332    .text.param_ns_print.isra.0:00000000000000c2 $t
/var/folders/d2/nstgp4h54kz7g1l847x_b8wc0000gn/T//ccBxDR0r.s:518    .text.param_ns_print.isra.0:00000000000001a8 $d
/var/folders/d2/nstgp4h54kz7g1l847x_b8wc0000gn/T//ccBxDR0r.s:536    .text.parameter_print:0000000000000000 $t
/var/folders/d2/nstgp4h54kz7g1l847x_b8wc0000gn/T//ccBxDR0r.s:544    .text.parameter_print:0000000000000000 parameter_print
/var/folders/d2/nstgp4h54kz7g1l847x_b8wc0000gn/T//ccBxDR0r.s:594    .text.parameter_print:000000000000002c $d
/var/folders/d2/nstgp4h54kz7g1l847x_b8wc0000gn/T//ccBxDR0r.s:599    .rodata.param_ns_print.isra.0.str1.4:0000000000000000 $d
/var/folders/d2/nstgp4h54kz7g1l847x_b8wc0000gn/T//ccBxDR0r.s:636    .rodata.print_array.str1.4:0000000000000000 $d

UNDEFINED SYMBOLS
__aeabi_f2d
__stack_chk_fail
__stack_chk_guard
parameter_defined
parameter_variable_vector_max_dim
malloc
parameter_scalar_read
parameter_boolean_read
parameter_integer_read
parameter_string_max_len
parameter_vector_dim
parameter_vector_read
free
parameter_string_read
parameter_variable_vector_read
