ARM GAS  /var/folders/d2/nstgp4h54kz7g1l847x_b8wc0000gn/T//cc6JAyf6.s 			page 1


   1              		.cpu cortex-m4
   2              		.eabi_attribute 27, 1
   3              		.eabi_attribute 28, 1
   4              		.eabi_attribute 20, 1
   5              		.eabi_attribute 21, 1
   6              		.eabi_attribute 23, 3
   7              		.eabi_attribute 24, 1
   8              		.eabi_attribute 25, 1
   9              		.eabi_attribute 26, 1
  10              		.eabi_attribute 30, 2
  11              		.eabi_attribute 34, 1
  12              		.eabi_attribute 18, 4
  13              		.file	"parameter_msgpack.c"
  14              		.text
  15              	.Ltext0:
  16              		.cfi_sections	.debug_frame
  17              		.section	.text.err_ignore_cb,"ax",%progbits
  18              		.align	1
  19              		.p2align 4,,15
  20              		.syntax unified
  21              		.thumb
  22              		.thumb_func
  23              		.fpu fpv4-sp-d16
  24              		.type	err_ignore_cb, %function
  25              	err_ignore_cb:
  26              	.LFB263:
  27              		.file 1 "../e-puck2_main-processor/src/parameter/parameter_msgpack.c"
  28              		.loc 1 372 0
  29              		.cfi_startproc
  30              		@ args = 0, pretend = 0, frame = 8
  31              		@ frame_needed = 0, uses_anonymous_args = 0
  32              	.LVL0:
  33 0000 00B5     		push	{lr}
  34              		.cfi_def_cfa_offset 4
  35              		.cfi_offset 14, -4
  36 0002 064B     		ldr	r3, .L6
  37 0004 83B0     		sub	sp, sp, #12
  38              		.cfi_def_cfa_offset 16
  39              		.loc 1 372 0
  40 0006 1A68     		ldr	r2, [r3]
  41              	.LVL1:
  42 0008 0192     		str	r2, [sp, #4]
  43              		.loc 1 376 0
  44 000a 019A     		ldr	r2, [sp, #4]
  45 000c 1B68     		ldr	r3, [r3]
  46 000e 9A42     		cmp	r2, r3
  47 0010 02D1     		bne	.L5
  48 0012 03B0     		add	sp, sp, #12
  49              		.cfi_remember_state
  50              		.cfi_def_cfa_offset 4
  51              		@ sp needed
  52 0014 5DF804FB 		ldr	pc, [sp], #4
  53              	.L5:
  54              		.cfi_restore_state
  55 0018 FFF7FEFF 		bl	__stack_chk_fail
  56              	.LVL2:
  57              	.L7:
ARM GAS  /var/folders/d2/nstgp4h54kz7g1l847x_b8wc0000gn/T//cc6JAyf6.s 			page 2


  58              		.align	2
  59              	.L6:
  60 001c 00000000 		.word	__stack_chk_guard
  61              		.cfi_endproc
  62              	.LFE263:
  63              		.size	err_ignore_cb, .-err_ignore_cb
  64              		.section	.text.discard_msgpack_element.isra.0,"ax",%progbits
  65              		.align	1
  66              		.p2align 4,,15
  67              		.syntax unified
  68              		.thumb
  69              		.thumb_func
  70              		.fpu fpv4-sp-d16
  71              		.type	discard_msgpack_element.isra.0, %function
  72              	discard_msgpack_element.isra.0:
  73              	.LFB269:
  74              		.loc 1 7 0
  75              		.cfi_startproc
  76              		@ args = 0, pretend = 0, frame = 8
  77              		@ frame_needed = 0, uses_anonymous_args = 0
  78              	.LVL3:
  79 0000 30B5     		push	{r4, r5, lr}
  80              		.cfi_def_cfa_offset 12
  81              		.cfi_offset 4, -12
  82              		.cfi_offset 5, -8
  83              		.cfi_offset 14, -4
  84 0002 154C     		ldr	r4, .L16
  85 0004 83B0     		sub	sp, sp, #12
  86              		.cfi_def_cfa_offset 24
  87              		.loc 1 7 0
  88 0006 2568     		ldr	r5, [r4]
  89 0008 0195     		str	r5, [sp, #4]
  90              	.LVL4:
  91 000a 0D46     		mov	r5, r1
  92              		.loc 1 14 0
  93 000c 2228     		cmp	r0, #34
  94 000e 1AD8     		bhi	.L9
  95 0010 DFE800F0 		tbb	[pc, r0]
  96              	.LVL5:
  97              	.L11:
  98 0014 12       		.byte	(.L13-.L11)/2
  99 0015 19       		.byte	(.L9-.L11)/2
 100 0016 19       		.byte	(.L9-.L11)/2
 101 0017 19       		.byte	(.L9-.L11)/2
 102 0018 12       		.byte	(.L13-.L11)/2
 103 0019 12       		.byte	(.L13-.L11)/2
 104 001a 19       		.byte	(.L9-.L11)/2
 105 001b 19       		.byte	(.L9-.L11)/2
 106 001c 19       		.byte	(.L9-.L11)/2
 107 001d 19       		.byte	(.L9-.L11)/2
 108 001e 19       		.byte	(.L9-.L11)/2
 109 001f 19       		.byte	(.L9-.L11)/2
 110 0020 12       		.byte	(.L13-.L11)/2
 111 0021 12       		.byte	(.L13-.L11)/2
 112 0022 12       		.byte	(.L13-.L11)/2
 113 0023 12       		.byte	(.L13-.L11)/2
 114 0024 12       		.byte	(.L13-.L11)/2
ARM GAS  /var/folders/d2/nstgp4h54kz7g1l847x_b8wc0000gn/T//cc6JAyf6.s 			page 3


 115 0025 12       		.byte	(.L13-.L11)/2
 116 0026 12       		.byte	(.L13-.L11)/2
 117 0027 12       		.byte	(.L13-.L11)/2
 118 0028 12       		.byte	(.L13-.L11)/2
 119 0029 12       		.byte	(.L13-.L11)/2
 120 002a 19       		.byte	(.L9-.L11)/2
 121 002b 19       		.byte	(.L9-.L11)/2
 122 002c 19       		.byte	(.L9-.L11)/2
 123 002d 19       		.byte	(.L9-.L11)/2
 124 002e 19       		.byte	(.L9-.L11)/2
 125 002f 19       		.byte	(.L9-.L11)/2
 126 0030 19       		.byte	(.L9-.L11)/2
 127 0031 19       		.byte	(.L9-.L11)/2
 128 0032 19       		.byte	(.L9-.L11)/2
 129 0033 19       		.byte	(.L9-.L11)/2
 130 0034 19       		.byte	(.L9-.L11)/2
 131 0035 19       		.byte	(.L9-.L11)/2
 132 0036 12       		.byte	(.L13-.L11)/2
 133 0037 00       		.p2align 1
 134              	.L13:
 135              		.loc 1 29 0
 136 0038 0020     		movs	r0, #0
 137              	.LVL6:
 138              	.L8:
 139              		.loc 1 35 0
 140 003a 019A     		ldr	r2, [sp, #4]
 141 003c 2368     		ldr	r3, [r4]
 142 003e 9A42     		cmp	r2, r3
 143 0040 08D1     		bne	.L15
 144 0042 03B0     		add	sp, sp, #12
 145              		.cfi_remember_state
 146              		.cfi_def_cfa_offset 12
 147              		@ sp needed
 148 0044 30BD     		pop	{r4, r5, pc}
 149              	.LVL7:
 150              	.L9:
 151              		.cfi_restore_state
 152              	.LBB34:
 153              	.LBB35:
 154              		.loc 1 32 0
 155 0046 1046     		mov	r0, r2
 156 0048 1946     		mov	r1, r3
 157 004a 044A     		ldr	r2, .L16+4
 158              	.LVL8:
 159 004c A847     		blx	r5
 160              	.LVL9:
 161 004e 4FF0FF30 		mov	r0, #-1
 162 0052 F2E7     		b	.L8
 163              	.L15:
 164              	.LBE35:
 165              	.LBE34:
 166              		.loc 1 35 0
 167 0054 FFF7FEFF 		bl	__stack_chk_fail
 168              	.LVL10:
 169              	.L17:
 170              		.align	2
 171              	.L16:
ARM GAS  /var/folders/d2/nstgp4h54kz7g1l847x_b8wc0000gn/T//cc6JAyf6.s 			page 4


 172 0058 00000000 		.word	__stack_chk_guard
 173 005c 00000000 		.word	.LC0
 174              		.cfi_endproc
 175              	.LFE269:
 176              		.size	discard_msgpack_element.isra.0, .-discard_msgpack_element.isra.0
 177              		.global	__aeabi_l2f
 178              		.section	.text.get_float,"ax",%progbits
 179              		.align	1
 180              		.p2align 4,,15
 181              		.syntax unified
 182              		.thumb
 183              		.thumb_func
 184              		.fpu fpv4-sp-d16
 185              		.type	get_float, %function
 186              	get_float:
 187              	.LFB251:
 188              		.loc 1 39 0
 189              		.cfi_startproc
 190              		@ args = 0, pretend = 0, frame = 24
 191              		@ frame_needed = 0, uses_anonymous_args = 0
 192              	.LVL11:
 193 0000 F0B5     		push	{r4, r5, r6, r7, lr}
 194              		.cfi_def_cfa_offset 20
 195              		.cfi_offset 4, -20
 196              		.cfi_offset 5, -16
 197              		.cfi_offset 6, -12
 198              		.cfi_offset 7, -8
 199              		.cfi_offset 14, -4
 200 0002 114D     		ldr	r5, .L28
 201 0004 87B0     		sub	sp, sp, #28
 202              		.cfi_def_cfa_offset 48
 203              		.loc 1 39 0
 204 0006 0E46     		mov	r6, r1
 205 0008 2B68     		ldr	r3, [r5]
 206 000a 0593     		str	r3, [sp, #20]
 207              		.loc 1 42 0
 208 000c 01A9     		add	r1, sp, #4
 209              	.LVL12:
 210              		.loc 1 39 0
 211 000e 0746     		mov	r7, r0
 212              		.loc 1 42 0
 213 0010 FFF7FEFF 		bl	cmp_object_as_float
 214              	.LVL13:
 215 0014 48B1     		cbz	r0, .L19
 216              		.loc 1 43 0
 217 0016 019B     		ldr	r3, [sp, #4]	@ float
 218 0018 3360     		str	r3, [r6]	@ float
 219 001a 0446     		mov	r4, r0
 220              	.L20:
 221              		.loc 1 50 0
 222 001c 059A     		ldr	r2, [sp, #20]
 223 001e 2B68     		ldr	r3, [r5]
 224 0020 9A42     		cmp	r2, r3
 225 0022 2046     		mov	r0, r4
 226 0024 0ED1     		bne	.L27
 227 0026 07B0     		add	sp, sp, #28
 228              		.cfi_remember_state
ARM GAS  /var/folders/d2/nstgp4h54kz7g1l847x_b8wc0000gn/T//cc6JAyf6.s 			page 5


 229              		.cfi_def_cfa_offset 20
 230              		@ sp needed
 231 0028 F0BD     		pop	{r4, r5, r6, r7, pc}
 232              	.LVL14:
 233              	.L19:
 234              		.cfi_restore_state
 235              	.LBB38:
 236              	.LBB39:
 237              		.loc 1 45 0
 238 002a 3846     		mov	r0, r7
 239 002c 02A9     		add	r1, sp, #8
 240 002e FFF7FEFF 		bl	cmp_object_as_sinteger
 241              	.LVL15:
 242 0032 0446     		mov	r4, r0
 243 0034 0028     		cmp	r0, #0
 244 0036 F1D0     		beq	.L20
 245              		.loc 1 46 0
 246 0038 DDE90201 		ldrd	r0, [sp, #8]
 247 003c FFF7FEFF 		bl	__aeabi_l2f
 248              	.LVL16:
 249 0040 3060     		str	r0, [r6]	@ float
 250              	.LVL17:
 251 0042 EBE7     		b	.L20
 252              	.L27:
 253              	.LBE39:
 254              	.LBE38:
 255              		.loc 1 50 0
 256 0044 FFF7FEFF 		bl	__stack_chk_fail
 257              	.LVL18:
 258              	.L29:
 259              		.align	2
 260              	.L28:
 261 0048 00000000 		.word	__stack_chk_guard
 262              		.cfi_endproc
 263              	.LFE251:
 264              		.size	get_float, .-get_float
 265              		.section	.text.get_vector,"ax",%progbits
 266              		.align	1
 267              		.p2align 4,,15
 268              		.syntax unified
 269              		.thumb
 270              		.thumb_func
 271              		.fpu fpv4-sp-d16
 272              		.type	get_vector, %function
 273              	get_vector:
 274              	.LFB254:
 275              		.loc 1 74 0
 276              		.cfi_startproc
 277              		@ args = 8, pretend = 0, frame = 40
 278              		@ frame_needed = 0, uses_anonymous_args = 0
 279              	.LVL19:
 280 0000 2DE9F04F 		push	{r4, r5, r6, r7, r8, r9, r10, fp, lr}
 281              		.cfi_def_cfa_offset 36
 282              		.cfi_offset 4, -36
 283              		.cfi_offset 5, -32
 284              		.cfi_offset 6, -28
 285              		.cfi_offset 7, -24
ARM GAS  /var/folders/d2/nstgp4h54kz7g1l847x_b8wc0000gn/T//cc6JAyf6.s 			page 6


 286              		.cfi_offset 8, -20
 287              		.cfi_offset 9, -16
 288              		.cfi_offset 10, -12
 289              		.cfi_offset 11, -8
 290              		.cfi_offset 14, -4
 291 0004 254C     		ldr	r4, .L47
 292 0006 8BB0     		sub	sp, sp, #44
 293              		.cfi_def_cfa_offset 80
 294              		.loc 1 74 0
 295 0008 2468     		ldr	r4, [r4]
 296 000a DDF85080 		ldr	r8, [sp, #80]
 297 000e 0994     		str	r4, [sp, #36]
 298              	.LVL20:
 299              		.loc 1 77 0
 300 0010 B2F1000B 		subs	fp, r2, #0
 301              		.loc 1 74 0
 302 0014 0191     		str	r1, [sp, #4]
 303 0016 DDF85490 		ldr	r9, [sp, #84]
 304              		.loc 1 77 0
 305 001a 3ADD     		ble	.L40
 306 001c 0025     		movs	r5, #0
 307 001e 8246     		mov	r10, r0
 308 0020 1F46     		mov	r7, r3
 309              		.loc 1 75 0
 310 0022 2C46     		mov	r4, r5
 311 0024 0BE0     		b	.L37
 312              	.LVL21:
 313              	.L34:
 314              	.LBB40:
 315              	.LBB41:
 316              		.loc 1 91 0
 317 0026 4B46     		mov	r3, r9
 318 0028 4246     		mov	r2, r8
 319 002a 3946     		mov	r1, r7
 320 002c 9DF81000 		ldrb	r0, [sp, #16]	@ zero_extendqisi2
 321 0030 FFF7FEFF 		bl	discard_msgpack_element.isra.0
 322              	.LVL22:
 323              		.loc 1 92 0
 324 0034 C8B9     		cbnz	r0, .L30
 325              	.LBE41:
 326              	.LBE40:
 327              		.loc 1 77 0
 328 0036 0135     		adds	r5, r5, #1
 329              	.LVL23:
 330 0038 AB45     		cmp	fp, r5
 331              	.LBB44:
 332              	.LBB42:
 333 003a 3446     		mov	r4, r6
 334              	.LVL24:
 335              	.LBE42:
 336              	.LBE44:
 337 003c 14D0     		beq	.L44
 338              	.LVL25:
 339              	.L37:
 340              	.LBB45:
 341              		.loc 1 79 0
 342 003e 04A9     		add	r1, sp, #16
ARM GAS  /var/folders/d2/nstgp4h54kz7g1l847x_b8wc0000gn/T//cc6JAyf6.s 			page 7


 343 0040 5046     		mov	r0, r10
 344 0042 FFF7FEFF 		bl	cmp_read_object
 345              	.LVL26:
 346 0046 0646     		mov	r6, r0
 347 0048 E0B1     		cbz	r0, .L45
 348              		.loc 1 84 0
 349 004a 002C     		cmp	r4, #0
 350 004c EBD1     		bne	.L34
 351              		.loc 1 84 0 is_stmt 0 discriminator 1
 352 004e 03A9     		add	r1, sp, #12
 353 0050 04A8     		add	r0, sp, #16
 354 0052 FFF7FEFF 		bl	get_float
 355              	.LVL27:
 356 0056 80B1     		cbz	r0, .L35
 357              		.loc 1 85 0 is_stmt 1
 358 0058 019B     		ldr	r3, [sp, #4]
 359 005a 039A     		ldr	r2, [sp, #12]	@ float
 360 005c 03EB8503 		add	r3, r3, r5, lsl #2
 361              	.LBE45:
 362              		.loc 1 77 0
 363 0060 0135     		adds	r5, r5, #1
 364              	.LVL28:
 365 0062 AB45     		cmp	fp, r5
 366              	.LBB46:
 367              		.loc 1 85 0
 368 0064 1A60     		str	r2, [r3]	@ float
 369              	.LVL29:
 370              	.LBE46:
 371              		.loc 1 77 0
 372 0066 EAD1     		bne	.L37
 373              	.L44:
 374 0068 6042     		negs	r0, r4
 375              	.LVL30:
 376              	.L30:
 377              		.loc 1 102 0
 378 006a 0C4B     		ldr	r3, .L47
 379 006c 099A     		ldr	r2, [sp, #36]
 380 006e 1B68     		ldr	r3, [r3]
 381 0070 9A42     		cmp	r2, r3
 382 0072 10D1     		bne	.L46
 383 0074 0BB0     		add	sp, sp, #44
 384              		.cfi_remember_state
 385              		.cfi_def_cfa_offset 36
 386              		@ sp needed
 387 0076 BDE8F08F 		pop	{r4, r5, r6, r7, r8, r9, r10, fp, pc}
 388              	.LVL31:
 389              	.L35:
 390              		.cfi_restore_state
 391              	.LBB47:
 392              	.LBB43:
 393              		.loc 1 89 0
 394 007a 094A     		ldr	r2, .L47+4
 395 007c 4946     		mov	r1, r9
 396 007e 4046     		mov	r0, r8
 397 0080 B847     		blx	r7
 398              	.LVL32:
 399 0082 D0E7     		b	.L34
ARM GAS  /var/folders/d2/nstgp4h54kz7g1l847x_b8wc0000gn/T//cc6JAyf6.s 			page 8


 400              	.LVL33:
 401              	.L45:
 402              	.LBE43:
 403              		.loc 1 80 0
 404 0084 4046     		mov	r0, r8
 405 0086 4946     		mov	r1, r9
 406 0088 064A     		ldr	r2, .L47+8
 407 008a B847     		blx	r7
 408              	.LVL34:
 409              		.loc 1 81 0
 410 008c 4FF0FF30 		mov	r0, #-1
 411 0090 EBE7     		b	.L30
 412              	.LVL35:
 413              	.L40:
 414              	.LBE47:
 415              		.loc 1 77 0
 416 0092 0020     		movs	r0, #0
 417              	.LVL36:
 418 0094 E9E7     		b	.L30
 419              	.LVL37:
 420              	.L46:
 421              		.loc 1 102 0
 422 0096 FFF7FEFF 		bl	__stack_chk_fail
 423              	.LVL38:
 424              	.L48:
 425 009a 00BF     		.align	2
 426              	.L47:
 427 009c 00000000 		.word	__stack_chk_guard
 428 00a0 18000000 		.word	.LC2
 429 00a4 00000000 		.word	.LC1
 430              		.cfi_endproc
 431              	.LFE254:
 432              		.size	get_vector, .-get_vector
 433              		.section	.text.read_namespace,"ax",%progbits
 434              		.align	1
 435              		.p2align 4,,15
 436              		.syntax unified
 437              		.thumb
 438              		.thumb_func
 439              		.fpu fpv4-sp-d16
 440              		.type	read_namespace, %function
 441              	read_namespace:
 442              	.LFB262:
 443              		.loc 1 303 0
 444              		.cfi_startproc
 445              		@ args = 4, pretend = 0, frame = 40
 446              		@ frame_needed = 0, uses_anonymous_args = 0
 447              	.LVL39:
 448 0000 2DE9F04F 		push	{r4, r5, r6, r7, r8, r9, r10, fp, lr}
 449              		.cfi_def_cfa_offset 36
 450              		.cfi_offset 4, -36
 451              		.cfi_offset 5, -32
 452              		.cfi_offset 6, -28
 453              		.cfi_offset 7, -24
 454              		.cfi_offset 8, -20
 455              		.cfi_offset 9, -16
 456              		.cfi_offset 10, -12
ARM GAS  /var/folders/d2/nstgp4h54kz7g1l847x_b8wc0000gn/T//cc6JAyf6.s 			page 9


 457              		.cfi_offset 11, -8
 458              		.cfi_offset 14, -4
 459 0004 A64C     		ldr	r4, .L122
 460 0006 8DB0     		sub	sp, sp, #52
 461              		.cfi_def_cfa_offset 88
 462              		.loc 1 303 0
 463 0008 2468     		ldr	r4, [r4]
 464 000a DDF85880 		ldr	r8, [sp, #88]
 465 000e 0B94     		str	r4, [sp, #44]
 466              	.LVL40:
 467              		.loc 1 305 0
 468 0010 0029     		cmp	r1, #0
 469 0012 00F09180 		beq	.L90
 470 0016 0026     		movs	r6, #0
 471 0018 8346     		mov	fp, r0
 472 001a 1546     		mov	r5, r2
 473 001c 1F46     		mov	r7, r3
 474 001e 8A46     		mov	r10, r1
 475 0020 B146     		mov	r9, r6
 476 0022 19E0     		b	.L50
 477              	.LVL41:
 478              	.L116:
 479              	.LBB84:
 480              	.LBB85:
 481              		.loc 1 330 0
 482 0024 5846     		mov	r0, fp
 483 0026 FFF7FEFF 		bl	_parameter_namespace_find_w_id_len
 484              	.LVL42:
 485              		.loc 1 331 0
 486 002a 0646     		mov	r6, r0
 487 002c 0028     		cmp	r0, #0
 488 002e 4FD1     		bne	.L58
 489              		.loc 1 332 0
 490 0030 9C4A     		ldr	r2, .L122+4
 491              	.LVL43:
 492              	.L107:
 493              	.LBE85:
 494              	.LBB89:
 495              		.loc 1 351 0
 496 0032 2146     		mov	r1, r4
 497 0034 4046     		mov	r0, r8
 498 0036 B847     		blx	r7
 499              	.LVL44:
 500              		.loc 1 353 0
 501 0038 2046     		mov	r0, r4
 502 003a FFF7FEFF 		bl	free
 503              	.LVL45:
 504              	.LBB90:
 505              		.loc 1 360 0
 506 003e 3346     		mov	r3, r6
 507 0040 4246     		mov	r2, r8
 508 0042 3946     		mov	r1, r7
 509 0044 9DF81800 		ldrb	r0, [sp, #24]	@ zero_extendqisi2
 510 0048 FFF7FEFF 		bl	discard_msgpack_element.isra.0
 511              	.LVL46:
 512              		.loc 1 361 0
 513 004c 0028     		cmp	r0, #0
ARM GAS  /var/folders/d2/nstgp4h54kz7g1l847x_b8wc0000gn/T//cc6JAyf6.s 			page 10


 514 004e 50D1     		bne	.L101
 515              	.LVL47:
 516              	.L59:
 517              	.LBE90:
 518              	.LBE89:
 519              	.LBE84:
 520              		.loc 1 305 0 discriminator 2
 521 0050 09F10109 		add	r9, r9, #1
 522              	.LVL48:
 523 0054 CA45     		cmp	r10, r9
 524 0056 6FD0     		beq	.L90
 525              	.LVL49:
 526              	.L50:
 527              	.LBB160:
 528              		.loc 1 307 0
 529 0058 04A9     		add	r1, sp, #16
 530 005a 2846     		mov	r0, r5
 531 005c FFF7FEFF 		bl	cmp_read_str_size
 532              	.LVL50:
 533 0060 0028     		cmp	r0, #0
 534 0062 00F0F580 		beq	.L112
 535              		.loc 1 311 0
 536 0066 049E     		ldr	r6, [sp, #16]
 537 0068 701C     		adds	r0, r6, #1
 538 006a FFF7FEFF 		bl	malloc
 539              	.LVL51:
 540              		.loc 1 312 0
 541 006e 0446     		mov	r4, r0
 542 0070 0028     		cmp	r0, #0
 543 0072 00F0F480 		beq	.L113
 544              		.loc 1 317 0
 545 0076 0146     		mov	r1, r0
 546 0078 3246     		mov	r2, r6
 547 007a AB68     		ldr	r3, [r5, #8]
 548 007c 2846     		mov	r0, r5
 549              	.LVL52:
 550 007e 9847     		blx	r3
 551              	.LVL53:
 552 0080 0028     		cmp	r0, #0
 553 0082 00F0F380 		beq	.L114
 554              		.loc 1 322 0
 555 0086 049B     		ldr	r3, [sp, #16]
 556 0088 0022     		movs	r2, #0
 557 008a E254     		strb	r2, [r4, r3]
 558              		.loc 1 324 0
 559 008c 06A9     		add	r1, sp, #24
 560 008e 2846     		mov	r0, r5
 561 0090 FFF7FEFF 		bl	cmp_read_object
 562              	.LVL54:
 563 0094 0028     		cmp	r0, #0
 564 0096 00F0F380 		beq	.L115
 565              		.loc 1 329 0
 566 009a 06A8     		add	r0, sp, #24
 567 009c FFF7FEFF 		bl	cmp_object_is_map
 568              	.LVL55:
 569              	.LBB149:
 570              		.loc 1 330 0
ARM GAS  /var/folders/d2/nstgp4h54kz7g1l847x_b8wc0000gn/T//cc6JAyf6.s 			page 11


 571 00a0 049A     		ldr	r2, [sp, #16]
 572 00a2 2146     		mov	r1, r4
 573              	.LBE149:
 574              		.loc 1 329 0
 575 00a4 0028     		cmp	r0, #0
 576 00a6 BDD1     		bne	.L116
 577              	.LBB150:
 578              		.loc 1 349 0
 579 00a8 5846     		mov	r0, fp
 580 00aa FFF7FEFF 		bl	_parameter_find_w_id_len
 581              	.LVL56:
 582              		.loc 1 350 0
 583 00ae 0646     		mov	r6, r0
 584 00b0 08B9     		cbnz	r0, .L60
 585              		.loc 1 351 0
 586 00b2 7D4A     		ldr	r2, .L122+8
 587 00b4 BDE7     		b	.L107
 588              	.L60:
 589              		.loc 1 353 0
 590 00b6 2046     		mov	r0, r4
 591              	.LVL57:
 592 00b8 FFF7FEFF 		bl	free
 593              	.LVL58:
 594              	.LBB91:
 595              	.LBB92:
 596              	.LBB93:
 597              		.loc 1 278 0
 598 00bc B37B     		ldrb	r3, [r6, #14]	@ zero_extendqisi2
 599 00be 013B     		subs	r3, r3, #1
 600 00c0 052B     		cmp	r3, #5
 601 00c2 00F2C380 		bhi	.L89
 602 00c6 DFE803F0 		tbb	[pc, r3]
 603              	.L93:
 604 00ca B4       		.byte	(.L62-.L93)/2
 605 00cb 9B       		.byte	(.L68-.L93)/2
 606 00cc 90       		.byte	(.L65-.L93)/2
 607 00cd 7B       		.byte	(.L83-.L93)/2
 608 00ce 39       		.byte	(.L71-.L93)/2
 609 00cf 1F       		.byte	(.L77-.L93)/2
 610              	.LVL59:
 611              		.p2align 1
 612              	.L58:
 613              	.LBE93:
 614              	.LBE92:
 615              	.LBE91:
 616              	.LBE150:
 617              	.LBB151:
 618              		.loc 1 334 0
 619 00d0 2046     		mov	r0, r4
 620              	.LVL60:
 621 00d2 FFF7FEFF 		bl	free
 622              	.LVL61:
 623              	.LBB86:
 624              		.loc 1 337 0
 625 00d6 05A9     		add	r1, sp, #20
 626 00d8 06A8     		add	r0, sp, #24
 627 00da FFF7FEFF 		bl	cmp_object_as_map
ARM GAS  /var/folders/d2/nstgp4h54kz7g1l847x_b8wc0000gn/T//cc6JAyf6.s 			page 12


 628              	.LVL62:
 629              		.loc 1 338 0
 630 00de 0599     		ldr	r1, [sp, #20]
 631 00e0 CDF80080 		str	r8, [sp]
 632 00e4 3046     		mov	r0, r6
 633 00e6 3B46     		mov	r3, r7
 634 00e8 2A46     		mov	r2, r5
 635 00ea FFF789FF 		bl	read_namespace
 636              	.LVL63:
 637              		.loc 1 339 0
 638 00ee 0028     		cmp	r0, #0
 639 00f0 AED0     		beq	.L59
 640              	.LVL64:
 641              	.L101:
 642 00f2 0346     		mov	r3, r0
 643              	.LVL65:
 644              	.L49:
 645              	.LBE86:
 646              	.LBE151:
 647              	.LBE160:
 648              		.loc 1 368 0
 649 00f4 6A4A     		ldr	r2, .L122
 650 00f6 0B99     		ldr	r1, [sp, #44]
 651 00f8 1268     		ldr	r2, [r2]
 652 00fa 9142     		cmp	r1, r2
 653 00fc 1846     		mov	r0, r3
 654 00fe 40F04781 		bne	.L117
 655 0102 0DB0     		add	sp, sp, #52
 656              		.cfi_remember_state
 657              		.cfi_def_cfa_offset 36
 658              		@ sp needed
 659 0104 BDE8F08F 		pop	{r4, r5, r6, r7, r8, r9, r10, fp, pc}
 660              	.LVL66:
 661              	.L77:
 662              		.cfi_restore_state
 663              	.LBB161:
 664              	.LBB152:
 665              	.LBB143:
 666              	.LBB137:
 667              	.LBB131:
 668              	.LBB94:
 669              	.LBB95:
 670              		.loc 1 208 0
 671 0108 06A8     		add	r0, sp, #24
 672              	.LVL67:
 673 010a 05A9     		add	r1, sp, #20
 674 010c FFF7FEFF 		bl	cmp_object_as_array
 675              	.LVL68:
 676 0110 0028     		cmp	r0, #0
 677 0112 40F0DB80 		bne	.L118
 678              	.LVL69:
 679              	.L78:
 680              	.LBB96:
 681              		.loc 1 232 0
 682 0116 654A     		ldr	r2, .L122+12
 683 0118 3168     		ldr	r1, [r6]
 684 011a 4046     		mov	r0, r8
ARM GAS  /var/folders/d2/nstgp4h54kz7g1l847x_b8wc0000gn/T//cc6JAyf6.s 			page 13


 685 011c B847     		blx	r7
 686              	.LVL70:
 687              		.loc 1 233 0
 688 011e 3368     		ldr	r3, [r6]
 689 0120 9DF81800 		ldrb	r0, [sp, #24]	@ zero_extendqisi2
 690 0124 4246     		mov	r2, r8
 691 0126 3946     		mov	r1, r7
 692 0128 FFF7FEFF 		bl	discard_msgpack_element.isra.0
 693              	.LVL71:
 694              		.loc 1 234 0
 695 012c 0028     		cmp	r0, #0
 696 012e E0D1     		bne	.L101
 697              	.LBE96:
 698              	.LBE95:
 699              	.LBE94:
 700              	.LBE131:
 701              	.LBE137:
 702              	.LBE143:
 703              	.LBE152:
 704              	.LBE161:
 705              		.loc 1 305 0
 706 0130 09F10109 		add	r9, r9, #1
 707              	.LVL72:
 708 0134 CA45     		cmp	r10, r9
 709 0136 8FD1     		bne	.L50
 710              	.LVL73:
 711              	.L90:
 712              		.loc 1 367 0
 713 0138 0023     		movs	r3, #0
 714 013a DBE7     		b	.L49
 715              	.LVL74:
 716              	.L71:
 717              	.LBB162:
 718              	.LBB153:
 719              	.LBB144:
 720              	.LBB138:
 721              	.LBB132:
 722              	.LBB103:
 723              	.LBB104:
 724              		.loc 1 168 0
 725 013c 06A8     		add	r0, sp, #24
 726              	.LVL75:
 727 013e 05A9     		add	r1, sp, #20
 728 0140 FFF7FEFF 		bl	cmp_object_as_array
 729              	.LVL76:
 730 0144 0028     		cmp	r0, #0
 731 0146 E6D0     		beq	.L78
 732              	.LBB105:
 733              		.loc 1 169 0
 734 0148 059A     		ldr	r2, [sp, #20]
 735 014a F38A     		ldrh	r3, [r6, #22]
 736 014c 3168     		ldr	r1, [r6]
 737 014e 9342     		cmp	r3, r2
 738 0150 0DD0     		beq	.L73
 739              	.LBB106:
 740              		.loc 1 170 0
 741 0152 574A     		ldr	r2, .L122+16
ARM GAS  /var/folders/d2/nstgp4h54kz7g1l847x_b8wc0000gn/T//cc6JAyf6.s 			page 14


 742 0154 4046     		mov	r0, r8
 743 0156 B847     		blx	r7
 744              	.LVL77:
 745              		.loc 1 171 0
 746 0158 3368     		ldr	r3, [r6]
 747 015a 9DF81800 		ldrb	r0, [sp, #24]	@ zero_extendqisi2
 748 015e 4246     		mov	r2, r8
 749 0160 3946     		mov	r1, r7
 750 0162 FFF7FEFF 		bl	discard_msgpack_element.isra.0
 751              	.LVL78:
 752              		.loc 1 172 0
 753 0166 0028     		cmp	r0, #0
 754 0168 C3D1     		bne	.L101
 755 016a 059A     		ldr	r2, [sp, #20]
 756 016c 3168     		ldr	r1, [r6]
 757              	.LVL79:
 758              	.L73:
 759 016e 0391     		str	r1, [sp, #12]
 760              	.LBE106:
 761              		.loc 1 176 0
 762 0170 9000     		lsls	r0, r2, #2
 763 0172 0292     		str	r2, [sp, #8]
 764 0174 FFF7FEFF 		bl	malloc
 765              	.LVL80:
 766              		.loc 1 177 0
 767 0178 DDE90221 		ldrd	r2, r1, [sp, #8]
 768 017c 0446     		mov	r4, r0
 769              	.LVL81:
 770 017e 68B9     		cbnz	r0, .L75
 771              	.LBB107:
 772              		.loc 1 178 0
 773 0180 4C4A     		ldr	r2, .L122+20
 774 0182 4046     		mov	r0, r8
 775              	.LVL82:
 776 0184 B847     		blx	r7
 777              	.LVL83:
 778              		.loc 1 179 0
 779 0186 3368     		ldr	r3, [r6]
 780 0188 9DF81800 		ldrb	r0, [sp, #24]	@ zero_extendqisi2
 781 018c 4246     		mov	r2, r8
 782 018e 3946     		mov	r1, r7
 783 0190 FFF7FEFF 		bl	discard_msgpack_element.isra.0
 784              	.LVL84:
 785              		.loc 1 180 0
 786 0194 0028     		cmp	r0, #0
 787 0196 ACD1     		bne	.L101
 788 0198 059A     		ldr	r2, [sp, #20]
 789 019a 3168     		ldr	r1, [r6]
 790              	.LVL85:
 791              	.L75:
 792              	.LBE107:
 793              		.loc 1 184 0
 794 019c CDE90081 		strd	r8, r1, [sp]
 795 01a0 3B46     		mov	r3, r7
 796 01a2 2146     		mov	r1, r4
 797 01a4 2846     		mov	r0, r5
 798 01a6 FFF7FEFF 		bl	get_vector
ARM GAS  /var/folders/d2/nstgp4h54kz7g1l847x_b8wc0000gn/T//cc6JAyf6.s 			page 15


 799              	.LVL86:
 800              		.loc 1 185 0
 801 01aa 0028     		cmp	r0, #0
 802 01ac 40F0D280 		bne	.L104
 803              		.loc 1 189 0
 804 01b0 3046     		mov	r0, r6
 805              	.LVL87:
 806 01b2 2146     		mov	r1, r4
 807 01b4 FFF7FEFF 		bl	parameter_vector_set
 808              	.LVL88:
 809              		.loc 1 190 0
 810 01b8 2046     		mov	r0, r4
 811 01ba FFF7FEFF 		bl	free
 812              	.LVL89:
 813 01be 47E7     		b	.L59
 814              	.LVL90:
 815              	.L83:
 816              	.LBE105:
 817              	.LBE104:
 818              	.LBE103:
 819              	.LBB108:
 820              	.LBB109:
 821              		.loc 1 249 0
 822 01c0 06A8     		add	r0, sp, #24
 823              	.LVL91:
 824 01c2 05A9     		add	r1, sp, #20
 825 01c4 FFF7FEFF 		bl	cmp_object_as_str
 826              	.LVL92:
 827 01c8 0028     		cmp	r0, #0
 828 01ca 63D1     		bne	.L84
 829              		.loc 1 250 0
 830 01cc 374A     		ldr	r2, .L122+12
 831              	.LVL93:
 832              	.L103:
 833              	.LBE109:
 834              	.LBE108:
 835              		.loc 1 292 0
 836 01ce 3168     		ldr	r1, [r6]
 837 01d0 4046     		mov	r0, r8
 838 01d2 B847     		blx	r7
 839              	.LVL94:
 840              		.loc 1 293 0
 841 01d4 3368     		ldr	r3, [r6]
 842 01d6 9DF81800 		ldrb	r0, [sp, #24]	@ zero_extendqisi2
 843 01da 4246     		mov	r2, r8
 844 01dc 3946     		mov	r1, r7
 845 01de FFF7FEFF 		bl	discard_msgpack_element.isra.0
 846              	.LVL95:
 847              	.LBE132:
 848              	.LBE138:
 849              	.LBE144:
 850              	.LBE153:
 851              	.LBB154:
 852              	.LBB87:
 853              		.loc 1 339 0
 854 01e2 0028     		cmp	r0, #0
 855 01e4 3FF434AF 		beq	.L59
ARM GAS  /var/folders/d2/nstgp4h54kz7g1l847x_b8wc0000gn/T//cc6JAyf6.s 			page 16


 856 01e8 83E7     		b	.L101
 857              	.LVL96:
 858              	.L65:
 859              	.LBE87:
 860              	.LBE154:
 861              	.LBB155:
 862              	.LBB145:
 863              	.LBB139:
 864              	.LBB133:
 865              	.LBB113:
 866              	.LBB114:
 867              	.LBB115:
 868              	.LBB116:
 869              		.loc 1 54 0
 870 01ea 06A8     		add	r0, sp, #24
 871              	.LVL97:
 872 01ec 05A9     		add	r1, sp, #20
 873              	.LVL98:
 874 01ee FFF7FEFF 		bl	cmp_object_as_int
 875              	.LVL99:
 876 01f2 0028     		cmp	r0, #0
 877 01f4 8FD0     		beq	.L78
 878              	.LVL100:
 879              	.LBE116:
 880              	.LBE115:
 881              		.loc 1 131 0
 882 01f6 3046     		mov	r0, r6
 883 01f8 0599     		ldr	r1, [sp, #20]
 884 01fa FFF7FEFF 		bl	parameter_integer_set
 885              	.LVL101:
 886 01fe 27E7     		b	.L59
 887              	.LVL102:
 888              	.L68:
 889              	.LBE114:
 890              	.LBE113:
 891              	.LBB117:
 892              	.LBB118:
 893              	.LBB119:
 894              	.LBB120:
 895              		.loc 1 62 0
 896 0200 06A8     		add	r0, sp, #24
 897              	.LVL103:
 898 0202 05A9     		add	r1, sp, #20
 899              	.LVL104:
 900 0204 FFF7FEFF 		bl	cmp_object_as_bool
 901              	.LVL105:
 902 0208 0028     		cmp	r0, #0
 903 020a 40F09D80 		bne	.L119
 904              	.LVL106:
 905              	.LBE120:
 906              	.LBE119:
 907              	.LBB121:
 908              		.loc 1 152 0
 909 020e 274A     		ldr	r2, .L122+12
 910 0210 3168     		ldr	r1, [r6]
 911 0212 4046     		mov	r0, r8
 912 0214 B847     		blx	r7
ARM GAS  /var/folders/d2/nstgp4h54kz7g1l847x_b8wc0000gn/T//cc6JAyf6.s 			page 17


 913              	.LVL107:
 914              		.loc 1 153 0
 915 0216 3368     		ldr	r3, [r6]
 916 0218 9DF81800 		ldrb	r0, [sp, #24]	@ zero_extendqisi2
 917 021c 4246     		mov	r2, r8
 918 021e 3946     		mov	r1, r7
 919 0220 FFF7FEFF 		bl	discard_msgpack_element.isra.0
 920              	.LVL108:
 921              		.loc 1 154 0
 922 0224 0030     		adds	r0, r0, #0
 923 0226 18BF     		it	ne
 924 0228 0120     		movne	r0, #1
 925              	.LVL109:
 926              	.LBE121:
 927              	.LBE118:
 928              	.LBE117:
 929              	.LBE133:
 930              	.LBE139:
 931              	.LBE145:
 932              	.LBE155:
 933              	.LBB156:
 934              	.LBB88:
 935              		.loc 1 339 0
 936 022a 0028     		cmp	r0, #0
 937 022c 3FF410AF 		beq	.L59
 938 0230 5FE7     		b	.L101
 939              	.LVL110:
 940              	.L62:
 941              	.LBE88:
 942              	.LBE156:
 943              	.LBB157:
 944              	.LBB146:
 945              	.LBB140:
 946              	.LBB134:
 947              	.LBB123:
 948              	.LBB124:
 949              		.loc 1 111 0
 950 0232 06A8     		add	r0, sp, #24
 951              	.LVL111:
 952 0234 05A9     		add	r1, sp, #20
 953 0236 FFF7FEFF 		bl	get_float
 954              	.LVL112:
 955 023a 0028     		cmp	r0, #0
 956 023c 3FF46BAF 		beq	.L78
 957              		.loc 1 112 0
 958 0240 3046     		mov	r0, r6
 959 0242 9DED050A 		vldr.32	s0, [sp, #20]
 960 0246 FFF7FEFF 		bl	parameter_scalar_set
 961              	.LVL113:
 962 024a 01E7     		b	.L59
 963              	.LVL114:
 964              	.L89:
 965              	.LBE124:
 966              	.LBE123:
 967              		.loc 1 292 0
 968 024c 1A4A     		ldr	r2, .L122+24
 969 024e BEE7     		b	.L103
ARM GAS  /var/folders/d2/nstgp4h54kz7g1l847x_b8wc0000gn/T//cc6JAyf6.s 			page 18


 970              	.LVL115:
 971              	.L112:
 972              	.LBE134:
 973              	.LBE140:
 974              	.LBE146:
 975              	.LBE157:
 976              		.loc 1 308 0
 977 0250 0146     		mov	r1, r0
 978 0252 1A4A     		ldr	r2, .L122+28
 979 0254 4046     		mov	r0, r8
 980 0256 B847     		blx	r7
 981              	.LVL116:
 982              		.loc 1 309 0
 983 0258 4FF0FF33 		mov	r3, #-1
 984 025c 4AE7     		b	.L49
 985              	.LVL117:
 986              	.L113:
 987              		.loc 1 313 0
 988 025e 0146     		mov	r1, r0
 989 0260 174A     		ldr	r2, .L122+32
 990 0262 4046     		mov	r0, r8
 991              	.LVL118:
 992 0264 B847     		blx	r7
 993              	.LVL119:
 994              		.loc 1 314 0
 995 0266 4FF0FF33 		mov	r3, #-1
 996 026a 43E7     		b	.L49
 997              	.L114:
 998              		.loc 1 318 0
 999 026c 0146     		mov	r1, r0
 1000 026e 134A     		ldr	r2, .L122+28
 1001 0270 4046     		mov	r0, r8
 1002 0272 B847     		blx	r7
 1003              	.LVL120:
 1004              		.loc 1 319 0
 1005 0274 2046     		mov	r0, r4
 1006 0276 FFF7FEFF 		bl	free
 1007              	.LVL121:
 1008              		.loc 1 320 0
 1009 027a 4FF0FF33 		mov	r3, #-1
 1010 027e 39E7     		b	.L49
 1011              	.L115:
 1012              		.loc 1 325 0
 1013 0280 4046     		mov	r0, r8
 1014 0282 104A     		ldr	r2, .L122+36
 1015 0284 2146     		mov	r1, r4
 1016 0286 B847     		blx	r7
 1017              	.LVL122:
 1018              		.loc 1 326 0
 1019 0288 2046     		mov	r0, r4
 1020 028a FFF7FEFF 		bl	free
 1021              	.LVL123:
 1022              		.loc 1 327 0
 1023 028e 4FF0FF33 		mov	r3, #-1
 1024 0292 2FE7     		b	.L49
 1025              	.LVL124:
 1026              	.L84:
ARM GAS  /var/folders/d2/nstgp4h54kz7g1l847x_b8wc0000gn/T//cc6JAyf6.s 			page 19


 1027              	.LBB158:
 1028              	.LBB147:
 1029              	.LBB141:
 1030              	.LBB135:
 1031              	.LBB125:
 1032              	.LBB110:
 1033              		.loc 1 253 0
 1034 0294 059A     		ldr	r2, [sp, #20]
 1035 0296 B38A     		ldrh	r3, [r6, #20]
 1036 0298 9342     		cmp	r3, r2
 1037 029a 61D8     		bhi	.L86
 1038              		.loc 1 254 0
 1039 029c 0A4A     		ldr	r2, .L122+40
 1040 029e 96E7     		b	.L103
 1041              	.L123:
 1042              		.align	2
 1043              	.L122:
 1044 02a0 00000000 		.word	__stack_chk_guard
 1045 02a4 40000000 		.word	.LC6
 1046 02a8 64000000 		.word	.LC7
 1047 02ac 18000000 		.word	.LC2
 1048 02b0 88000000 		.word	.LC8
 1049 02b4 A8000000 		.word	.LC9
 1050 02b8 10010000 		.word	.LC13
 1051 02bc 00000000 		.word	.LC3
 1052 02c0 14000000 		.word	.LC4
 1053 02c4 28000000 		.word	.LC5
 1054 02c8 E8000000 		.word	.LC11
 1055              	.LVL125:
 1056              	.L118:
 1057              	.LBE110:
 1058              	.LBE125:
 1059              	.LBB126:
 1060              	.LBB101:
 1061              	.LBB97:
 1062              		.loc 1 209 0
 1063 02cc 059A     		ldr	r2, [sp, #20]
 1064 02ce B38A     		ldrh	r3, [r6, #20]
 1065 02d0 3168     		ldr	r1, [r6]
 1066 02d2 9342     		cmp	r3, r2
 1067 02d4 0ED2     		bcs	.L79
 1068              	.LBB98:
 1069              		.loc 1 210 0
 1070 02d6 344A     		ldr	r2, .L124
 1071 02d8 4046     		mov	r0, r8
 1072 02da B847     		blx	r7
 1073              	.LVL126:
 1074              		.loc 1 211 0
 1075 02dc 3368     		ldr	r3, [r6]
 1076 02de 9DF81800 		ldrb	r0, [sp, #24]	@ zero_extendqisi2
 1077 02e2 4246     		mov	r2, r8
 1078 02e4 3946     		mov	r1, r7
 1079 02e6 FFF7FEFF 		bl	discard_msgpack_element.isra.0
 1080              	.LVL127:
 1081              		.loc 1 212 0
 1082 02ea 0028     		cmp	r0, #0
 1083 02ec 7FF401AF 		bne	.L101
ARM GAS  /var/folders/d2/nstgp4h54kz7g1l847x_b8wc0000gn/T//cc6JAyf6.s 			page 20


 1084 02f0 059A     		ldr	r2, [sp, #20]
 1085 02f2 3168     		ldr	r1, [r6]
 1086              	.LVL128:
 1087              	.L79:
 1088 02f4 0391     		str	r1, [sp, #12]
 1089              	.LBE98:
 1090              		.loc 1 216 0
 1091 02f6 9000     		lsls	r0, r2, #2
 1092 02f8 0292     		str	r2, [sp, #8]
 1093 02fa FFF7FEFF 		bl	malloc
 1094              	.LVL129:
 1095              		.loc 1 217 0
 1096 02fe DDE90221 		ldrd	r2, r1, [sp, #8]
 1097 0302 0446     		mov	r4, r0
 1098              	.LVL130:
 1099 0304 70B9     		cbnz	r0, .L81
 1100              	.LBB99:
 1101              		.loc 1 218 0
 1102 0306 294A     		ldr	r2, .L124+4
 1103 0308 4046     		mov	r0, r8
 1104              	.LVL131:
 1105 030a B847     		blx	r7
 1106              	.LVL132:
 1107              		.loc 1 219 0
 1108 030c 3368     		ldr	r3, [r6]
 1109 030e 9DF81800 		ldrb	r0, [sp, #24]	@ zero_extendqisi2
 1110 0312 4246     		mov	r2, r8
 1111 0314 3946     		mov	r1, r7
 1112 0316 FFF7FEFF 		bl	discard_msgpack_element.isra.0
 1113              	.LVL133:
 1114              		.loc 1 220 0
 1115 031a 0028     		cmp	r0, #0
 1116 031c 7FF4E9AE 		bne	.L101
 1117 0320 059A     		ldr	r2, [sp, #20]
 1118 0322 3168     		ldr	r1, [r6]
 1119              	.LVL134:
 1120              	.L81:
 1121              	.LBE99:
 1122              		.loc 1 224 0
 1123 0324 CDE90081 		strd	r8, r1, [sp]
 1124 0328 3B46     		mov	r3, r7
 1125 032a 2146     		mov	r1, r4
 1126 032c 2846     		mov	r0, r5
 1127 032e FFF7FEFF 		bl	get_vector
 1128              	.LVL135:
 1129              		.loc 1 225 0
 1130 0332 78B9     		cbnz	r0, .L104
 1131              		.loc 1 229 0
 1132 0334 3046     		mov	r0, r6
 1133              	.LVL136:
 1134 0336 BDF81420 		ldrh	r2, [sp, #20]
 1135 033a 2146     		mov	r1, r4
 1136 033c FFF7FEFF 		bl	parameter_variable_vector_set
 1137              	.LVL137:
 1138              		.loc 1 230 0
 1139 0340 2046     		mov	r0, r4
 1140 0342 FFF7FEFF 		bl	free
ARM GAS  /var/folders/d2/nstgp4h54kz7g1l847x_b8wc0000gn/T//cc6JAyf6.s 			page 21


 1141              	.LVL138:
 1142 0346 83E6     		b	.L59
 1143              	.LVL139:
 1144              	.L119:
 1145              	.LBE97:
 1146              	.LBE101:
 1147              	.LBE126:
 1148              	.LBB127:
 1149              	.LBB122:
 1150              		.loc 1 150 0
 1151 0348 3046     		mov	r0, r6
 1152 034a 9DF81410 		ldrb	r1, [sp, #20]	@ zero_extendqisi2
 1153 034e FFF7FEFF 		bl	parameter_boolean_set
 1154              	.LVL140:
 1155 0352 7DE6     		b	.L59
 1156              	.LVL141:
 1157              	.L104:
 1158 0354 0290     		str	r0, [sp, #8]
 1159              	.LBE122:
 1160              	.LBE127:
 1161              	.LBB128:
 1162              	.LBB102:
 1163              	.LBB100:
 1164              		.loc 1 226 0
 1165 0356 2046     		mov	r0, r4
 1166 0358 FFF7FEFF 		bl	free
 1167              	.LVL142:
 1168 035c 029B     		ldr	r3, [sp, #8]
 1169 035e C9E6     		b	.L49
 1170              	.LVL143:
 1171              	.L86:
 1172              	.LBE100:
 1173              	.LBE102:
 1174              	.LBE128:
 1175              	.LBB129:
 1176              	.LBB111:
 1177              		.loc 1 257 0
 1178 0360 1046     		mov	r0, r2
 1179 0362 0292     		str	r2, [sp, #8]
 1180 0364 FFF7FEFF 		bl	malloc
 1181              	.LVL144:
 1182              		.loc 1 258 0
 1183 0368 029A     		ldr	r2, [sp, #8]
 1184 036a 0446     		mov	r4, r0
 1185              	.LVL145:
 1186 036c 70B1     		cbz	r0, .L120
 1187              		.loc 1 262 0
 1188 036e 0146     		mov	r1, r0
 1189 0370 AB68     		ldr	r3, [r5, #8]
 1190 0372 2846     		mov	r0, r5
 1191              	.LVL146:
 1192 0374 9847     		blx	r3
 1193              	.LVL147:
 1194 0376 68B1     		cbz	r0, .L121
 1195              		.loc 1 267 0
 1196 0378 3046     		mov	r0, r6
 1197 037a BDF81420 		ldrh	r2, [sp, #20]
ARM GAS  /var/folders/d2/nstgp4h54kz7g1l847x_b8wc0000gn/T//cc6JAyf6.s 			page 22


 1198 037e 2146     		mov	r1, r4
 1199 0380 FFF7FEFF 		bl	parameter_string_set_w_len
 1200              	.LVL148:
 1201              		.loc 1 268 0
 1202 0384 2046     		mov	r0, r4
 1203 0386 FFF7FEFF 		bl	free
 1204              	.LVL149:
 1205 038a 61E6     		b	.L59
 1206              	.LVL150:
 1207              	.L120:
 1208              		.loc 1 259 0
 1209 038c 074A     		ldr	r2, .L124+4
 1210 038e 1EE7     		b	.L103
 1211              	.LVL151:
 1212              	.L117:
 1213              	.LBE111:
 1214              	.LBE129:
 1215              	.LBE135:
 1216              	.LBE141:
 1217              	.LBE147:
 1218              	.LBE158:
 1219              	.LBE162:
 1220              		.loc 1 368 0
 1221 0390 FFF7FEFF 		bl	__stack_chk_fail
 1222              	.LVL152:
 1223              	.L121:
 1224              	.LBB163:
 1225              	.LBB159:
 1226              	.LBB148:
 1227              	.LBB142:
 1228              	.LBB136:
 1229              	.LBB130:
 1230              	.LBB112:
 1231              		.loc 1 263 0
 1232 0394 3168     		ldr	r1, [r6]
 1233 0396 064A     		ldr	r2, .L124+8
 1234 0398 4046     		mov	r0, r8
 1235 039a B847     		blx	r7
 1236              	.LVL153:
 1237              		.loc 1 264 0
 1238 039c 2046     		mov	r0, r4
 1239 039e FFF7FEFF 		bl	free
 1240              	.LVL154:
 1241              		.loc 1 265 0
 1242 03a2 4FF0FF33 		mov	r3, #-1
 1243 03a6 A5E6     		b	.L49
 1244              	.L125:
 1245              		.align	2
 1246              	.L124:
 1247 03a8 C4000000 		.word	.LC10
 1248 03ac A8000000 		.word	.LC9
 1249 03b0 04010000 		.word	.LC12
 1250              	.LBE112:
 1251              	.LBE130:
 1252              	.LBE136:
 1253              	.LBE142:
 1254              	.LBE148:
ARM GAS  /var/folders/d2/nstgp4h54kz7g1l847x_b8wc0000gn/T//cc6JAyf6.s 			page 23


 1255              	.LBE159:
 1256              	.LBE163:
 1257              		.cfi_endproc
 1258              	.LFE262:
 1259              		.size	read_namespace, .-read_namespace
 1260              		.section	.text.parameter_msgpack_write_subtree.isra.6,"ax",%progbits
 1261              		.align	1
 1262              		.p2align 4,,15
 1263              		.syntax unified
 1264              		.thumb
 1265              		.thumb_func
 1266              		.fpu fpv4-sp-d16
 1267              		.type	parameter_msgpack_write_subtree.isra.6, %function
 1268              	parameter_msgpack_write_subtree.isra.6:
 1269              	.LFB275:
 1270              		.loc 1 409 0
 1271              		.cfi_startproc
 1272              		@ args = 4, pretend = 0, frame = 8
 1273              		@ frame_needed = 0, uses_anonymous_args = 0
 1274              	.LVL155:
 1275 0000 2DE9F04F 		push	{r4, r5, r6, r7, r8, r9, r10, fp, lr}
 1276              		.cfi_def_cfa_offset 36
 1277              		.cfi_offset 4, -36
 1278              		.cfi_offset 5, -32
 1279              		.cfi_offset 6, -28
 1280              		.cfi_offset 7, -24
 1281              		.cfi_offset 8, -20
 1282              		.cfi_offset 9, -16
 1283              		.cfi_offset 10, -12
 1284              		.cfi_offset 11, -8
 1285              		.cfi_offset 14, -4
 1286 0004 DFF89091 		ldr	r9, .L172+4
 1287 0008 85B0     		sub	sp, sp, #20
 1288              		.cfi_def_cfa_offset 56
 1289              		.loc 1 409 0
 1290 000a 0546     		mov	r5, r0
 1291              		.loc 1 421 0
 1292 000c 0068     		ldr	r0, [r0]
 1293              		.loc 1 409 0
 1294 000e D9F80040 		ldr	r4, [r9]
 1295 0012 0394     		str	r4, [sp, #12]
 1296              	.LVL156:
 1297 0014 1646     		mov	r6, r2
 1298 0016 0C46     		mov	r4, r1
 1299 0018 1F46     		mov	r7, r3
 1300 001a DDF83880 		ldr	r8, [sp, #56]
 1301              		.loc 1 421 0
 1302 001e 0028     		cmp	r0, #0
 1303 0020 00F0B380 		beq	.L149
 1304              		.loc 1 414 0
 1305 0024 0021     		movs	r1, #0
 1306              	.LVL157:
 1307              	.L128:
 1308              		.loc 1 421 0
 1309 0026 0069     		ldr	r0, [r0, #16]
 1310              	.LVL158:
 1311              		.loc 1 422 0
ARM GAS  /var/folders/d2/nstgp4h54kz7g1l847x_b8wc0000gn/T//cc6JAyf6.s 			page 24


 1312 0028 0131     		adds	r1, r1, #1
 1313              	.LVL159:
 1314              		.loc 1 421 0
 1315 002a 0028     		cmp	r0, #0
 1316 002c FBD1     		bne	.L128
 1317              	.LVL160:
 1318              	.L127:
 1319              		.loc 1 425 0
 1320 002e 2368     		ldr	r3, [r4]
 1321              	.LVL161:
 1322 0030 2BB1     		cbz	r3, .L129
 1323              	.LVL162:
 1324              	.L131:
 1325              		.loc 1 426 0
 1326 0032 5A7B     		ldrb	r2, [r3, #13]	@ zero_extendqisi2
 1327 0034 02B1     		cbz	r2, .L130
 1328              		.loc 1 427 0
 1329 0036 0131     		adds	r1, r1, #1
 1330              	.LVL163:
 1331              	.L130:
 1332              		.loc 1 425 0
 1333 0038 9B68     		ldr	r3, [r3, #8]
 1334              	.LVL164:
 1335 003a 002B     		cmp	r3, #0
 1336 003c F9D1     		bne	.L131
 1337              	.L129:
 1338              		.loc 1 431 0
 1339 003e 3046     		mov	r0, r6
 1340              	.LVL165:
 1341 0040 FFF7FEFF 		bl	cmp_write_map
 1342              	.LVL166:
 1343              		.loc 1 434 0
 1344 0044 2D68     		ldr	r5, [r5]
 1345              	.LVL167:
 1346 0046 B5B1     		cbz	r5, .L132
 1347              	.L133:
 1348              		.loc 1 435 0
 1349 0048 AA46     		mov	r10, r5
 1350 004a 5AF814BB 		ldr	fp, [r10], #20
 1351 004e 5846     		mov	r0, fp
 1352 0050 FFF7FEFF 		bl	strlen
 1353              	.LVL168:
 1354 0054 5946     		mov	r1, fp
 1355 0056 0246     		mov	r2, r0
 1356 0058 3046     		mov	r0, r6
 1357 005a FFF7FEFF 		bl	cmp_write_str
 1358              	.LVL169:
 1359              		.loc 1 436 0
 1360 005e 05F10C00 		add	r0, r5, #12
 1361 0062 5146     		mov	r1, r10
 1362 0064 CDF80080 		str	r8, [sp]
 1363 0068 3B46     		mov	r3, r7
 1364 006a 3246     		mov	r2, r6
 1365 006c FFF7C8FF 		bl	parameter_msgpack_write_subtree.isra.6
 1366              	.LVL170:
 1367              		.loc 1 434 0
 1368 0070 2D69     		ldr	r5, [r5, #16]
ARM GAS  /var/folders/d2/nstgp4h54kz7g1l847x_b8wc0000gn/T//cc6JAyf6.s 			page 25


 1369              	.LVL171:
 1370 0072 002D     		cmp	r5, #0
 1371 0074 E8D1     		bne	.L133
 1372              	.L132:
 1373              		.loc 1 440 0
 1374 0076 2468     		ldr	r4, [r4]
 1375              	.LVL172:
 1376 0078 002C     		cmp	r4, #0
 1377 007a 37D0     		beq	.L126
 1378              		.loc 1 484 0
 1379 007c DFF81CA1 		ldr	r10, .L172+8
 1380              	.LVL173:
 1381              	.L147:
 1382              		.loc 1 443 0
 1383 0080 637B     		ldrb	r3, [r4, #13]	@ zero_extendqisi2
 1384 0082 83B3     		cbz	r3, .L136
 1385              		.loc 1 447 0
 1386 0084 A37B     		ldrb	r3, [r4, #14]	@ zero_extendqisi2
 1387 0086 2568     		ldr	r5, [r4]
 1388 0088 013B     		subs	r3, r3, #1
 1389 008a 052B     		cmp	r3, #5
 1390 008c 78D8     		bhi	.L137
 1391 008e DFE803F0 		tbb	[pc, r3]
 1392              	.L139:
 1393 0092 66       		.byte	(.L138-.L139)/2
 1394 0093 56       		.byte	(.L140-.L139)/2
 1395 0094 46       		.byte	(.L141-.L139)/2
 1396 0095 35       		.byte	(.L142-.L139)/2
 1397 0096 03       		.byte	(.L143-.L139)/2
 1398 0097 03       		.byte	(.L143-.L139)/2
 1399              		.p2align 1
 1400              	.L143:
 1401              		.loc 1 471 0
 1402 0098 2846     		mov	r0, r5
 1403 009a FFF7FEFF 		bl	strlen
 1404              	.LVL174:
 1405 009e 2946     		mov	r1, r5
 1406 00a0 0246     		mov	r2, r0
 1407 00a2 3046     		mov	r0, r6
 1408 00a4 FFF7FEFF 		bl	cmp_write_str
 1409              	.LVL175:
 1410              		.loc 1 472 0
 1411 00a8 E18A     		ldrh	r1, [r4, #22]
 1412              		.loc 1 471 0
 1413 00aa 0546     		mov	r5, r0
 1414              	.LVL176:
 1415              		.loc 1 472 0
 1416 00ac 3046     		mov	r0, r6
 1417 00ae FFF7FEFF 		bl	cmp_write_array
 1418              	.LVL177:
 1419              		.loc 1 473 0
 1420 00b2 E38A     		ldrh	r3, [r4, #22]
 1421 00b4 0540     		ands	r5, r5, r0
 1422              	.LVL178:
 1423 00b6 EDB2     		uxtb	r5, r5
 1424              	.LVL179:
 1425 00b8 83B1     		cbz	r3, .L144
ARM GAS  /var/folders/d2/nstgp4h54kz7g1l847x_b8wc0000gn/T//cc6JAyf6.s 			page 26


 1426 00ba 4FF0000B 		mov	fp, #0
 1427              	.LVL180:
 1428              	.L145:
 1429              		.loc 1 474 0
 1430 00be 2269     		ldr	r2, [r4, #16]
 1431 00c0 02EB8B02 		add	r2, r2, fp, lsl #2
 1432 00c4 92ED000A 		vldr.32	s0, [r2]
 1433 00c8 3046     		mov	r0, r6
 1434 00ca FFF7FEFF 		bl	cmp_write_float
 1435              	.LVL181:
 1436              		.loc 1 473 0
 1437 00ce E28A     		ldrh	r2, [r4, #22]
 1438 00d0 0BF1010B 		add	fp, fp, #1
 1439              	.LVL182:
 1440 00d4 9345     		cmp	fp, r2
 1441 00d6 05EA0005 		and	r5, r5, r0
 1442              	.LVL183:
 1443 00da F0D3     		bcc	.L145
 1444              	.LVL184:
 1445              	.L144:
 1446              		.loc 1 483 0
 1447 00dc 1DB9     		cbnz	r5, .L136
 1448              		.loc 1 484 0
 1449 00de 5246     		mov	r2, r10
 1450 00e0 2168     		ldr	r1, [r4]
 1451 00e2 4046     		mov	r0, r8
 1452 00e4 B847     		blx	r7
 1453              	.LVL185:
 1454              	.L136:
 1455              		.loc 1 440 0
 1456 00e6 A468     		ldr	r4, [r4, #8]
 1457              	.LVL186:
 1458 00e8 002C     		cmp	r4, #0
 1459 00ea C9D1     		bne	.L147
 1460              	.L126:
 1461              		.loc 1 487 0
 1462 00ec 039A     		ldr	r2, [sp, #12]
 1463 00ee D9F80030 		ldr	r3, [r9]
 1464 00f2 9A42     		cmp	r2, r3
 1465 00f4 4BD1     		bne	.L171
 1466 00f6 05B0     		add	sp, sp, #20
 1467              		.cfi_remember_state
 1468              		.cfi_def_cfa_offset 36
 1469              		@ sp needed
 1470 00f8 BDE8F08F 		pop	{r4, r5, r6, r7, r8, r9, r10, fp, pc}
 1471              	.LVL187:
 1472              	.L142:
 1473              		.cfi_restore_state
 1474              		.loc 1 464 0
 1475 00fc 2846     		mov	r0, r5
 1476 00fe FFF7FEFF 		bl	strlen
 1477              	.LVL188:
 1478 0102 2946     		mov	r1, r5
 1479 0104 0246     		mov	r2, r0
 1480 0106 3046     		mov	r0, r6
 1481 0108 FFF7FEFF 		bl	cmp_write_str
 1482              	.LVL189:
ARM GAS  /var/folders/d2/nstgp4h54kz7g1l847x_b8wc0000gn/T//cc6JAyf6.s 			page 27


 1483              		.loc 1 465 0
 1484 010c E28A     		ldrh	r2, [r4, #22]
 1485 010e 2169     		ldr	r1, [r4, #16]
 1486              		.loc 1 464 0
 1487 0110 0546     		mov	r5, r0
 1488              	.LVL190:
 1489              		.loc 1 465 0
 1490 0112 3046     		mov	r0, r6
 1491 0114 FFF7FEFF 		bl	cmp_write_str
 1492              	.LVL191:
 1493 0118 0540     		ands	r5, r5, r0
 1494              	.LVL192:
 1495 011a EDB2     		uxtb	r5, r5
 1496              	.LVL193:
 1497 011c DEE7     		b	.L144
 1498              	.LVL194:
 1499              	.L141:
 1500              		.loc 1 454 0
 1501 011e 2846     		mov	r0, r5
 1502 0120 FFF7FEFF 		bl	strlen
 1503              	.LVL195:
 1504 0124 2946     		mov	r1, r5
 1505 0126 0246     		mov	r2, r0
 1506 0128 3046     		mov	r0, r6
 1507 012a FFF7FEFF 		bl	cmp_write_str
 1508              	.LVL196:
 1509              		.loc 1 455 0
 1510 012e 2169     		ldr	r1, [r4, #16]
 1511              		.loc 1 454 0
 1512 0130 0546     		mov	r5, r0
 1513              	.LVL197:
 1514              		.loc 1 455 0
 1515 0132 3046     		mov	r0, r6
 1516 0134 FFF7FEFF 		bl	cmp_write_s32
 1517              	.LVL198:
 1518 0138 0540     		ands	r5, r5, r0
 1519              	.LVL199:
 1520 013a EDB2     		uxtb	r5, r5
 1521              	.LVL200:
 1522 013c CEE7     		b	.L144
 1523              	.LVL201:
 1524              	.L140:
 1525              		.loc 1 459 0
 1526 013e 2846     		mov	r0, r5
 1527 0140 FFF7FEFF 		bl	strlen
 1528              	.LVL202:
 1529 0144 2946     		mov	r1, r5
 1530 0146 0246     		mov	r2, r0
 1531 0148 3046     		mov	r0, r6
 1532 014a FFF7FEFF 		bl	cmp_write_str
 1533              	.LVL203:
 1534              		.loc 1 460 0
 1535 014e 217C     		ldrb	r1, [r4, #16]	@ zero_extendqisi2
 1536              		.loc 1 459 0
 1537 0150 0546     		mov	r5, r0
 1538              	.LVL204:
 1539              		.loc 1 460 0
ARM GAS  /var/folders/d2/nstgp4h54kz7g1l847x_b8wc0000gn/T//cc6JAyf6.s 			page 28


 1540 0152 3046     		mov	r0, r6
 1541 0154 FFF7FEFF 		bl	cmp_write_bool
 1542              	.LVL205:
 1543 0158 0540     		ands	r5, r5, r0
 1544              	.LVL206:
 1545 015a EDB2     		uxtb	r5, r5
 1546              	.LVL207:
 1547 015c BEE7     		b	.L144
 1548              	.LVL208:
 1549              	.L138:
 1550              		.loc 1 449 0
 1551 015e 2846     		mov	r0, r5
 1552 0160 FFF7FEFF 		bl	strlen
 1553              	.LVL209:
 1554 0164 2946     		mov	r1, r5
 1555 0166 0246     		mov	r2, r0
 1556 0168 3046     		mov	r0, r6
 1557 016a FFF7FEFF 		bl	cmp_write_str
 1558              	.LVL210:
 1559              		.loc 1 450 0
 1560 016e 94ED040A 		vldr.32	s0, [r4, #16]
 1561              		.loc 1 449 0
 1562 0172 0546     		mov	r5, r0
 1563              	.LVL211:
 1564              		.loc 1 450 0
 1565 0174 3046     		mov	r0, r6
 1566 0176 FFF7FEFF 		bl	cmp_write_float
 1567              	.LVL212:
 1568 017a 0540     		ands	r5, r5, r0
 1569              	.LVL213:
 1570 017c EDB2     		uxtb	r5, r5
 1571              	.LVL214:
 1572 017e ADE7     		b	.L144
 1573              	.LVL215:
 1574              	.L137:
 1575              		.loc 1 479 0
 1576 0180 2946     		mov	r1, r5
 1577 0182 044A     		ldr	r2, .L172
 1578 0184 4046     		mov	r0, r8
 1579 0186 B847     		blx	r7
 1580              	.LVL216:
 1581 0188 ADE7     		b	.L136
 1582              	.LVL217:
 1583              	.L149:
 1584              		.loc 1 414 0
 1585 018a 0146     		mov	r1, r0
 1586 018c 4FE7     		b	.L127
 1587              	.LVL218:
 1588              	.L171:
 1589              		.loc 1 487 0
 1590 018e FFF7FEFF 		bl	__stack_chk_fail
 1591              	.LVL219:
 1592              	.L173:
 1593 0192 00BF     		.align	2
 1594              	.L172:
 1595 0194 00000000 		.word	.LC14
 1596 0198 00000000 		.word	__stack_chk_guard
ARM GAS  /var/folders/d2/nstgp4h54kz7g1l847x_b8wc0000gn/T//cc6JAyf6.s 			page 29


 1597 019c 1C000000 		.word	.LC15
 1598              		.cfi_endproc
 1599              	.LFE275:
 1600              		.size	parameter_msgpack_write_subtree.isra.6, .-parameter_msgpack_write_subtree.isra.6
 1601              		.section	.text.parameter_msgpack_read_cmp,"ax",%progbits
 1602              		.align	1
 1603              		.p2align 4,,15
 1604              		.global	parameter_msgpack_read_cmp
 1605              		.syntax unified
 1606              		.thumb
 1607              		.thumb_func
 1608              		.fpu fpv4-sp-d16
 1609              		.type	parameter_msgpack_read_cmp, %function
 1610              	parameter_msgpack_read_cmp:
 1611              	.LFB264:
 1612              		.loc 1 383 0
 1613              		.cfi_startproc
 1614              		@ args = 0, pretend = 0, frame = 8
 1615              		@ frame_needed = 0, uses_anonymous_args = 0
 1616              	.LVL220:
 1617 0000 2DE9F041 		push	{r4, r5, r6, r7, r8, lr}
 1618              		.cfi_def_cfa_offset 24
 1619              		.cfi_offset 4, -24
 1620              		.cfi_offset 5, -20
 1621              		.cfi_offset 6, -16
 1622              		.cfi_offset 7, -12
 1623              		.cfi_offset 8, -8
 1624              		.cfi_offset 14, -4
 1625 0004 134D     		ldr	r5, .L182
 1626              		.loc 1 385 0
 1627 0006 144C     		ldr	r4, .L182+4
 1628              		.loc 1 383 0
 1629 0008 2E68     		ldr	r6, [r5]
 1630 000a 84B0     		sub	sp, sp, #16
 1631              		.cfi_def_cfa_offset 40
 1632              		.loc 1 383 0
 1633 000c 8046     		mov	r8, r0
 1634 000e 0396     		str	r6, [sp, #12]
 1635              		.loc 1 388 0
 1636 0010 0846     		mov	r0, r1
 1637              	.LVL221:
 1638              		.loc 1 383 0
 1639 0012 0E46     		mov	r6, r1
 1640              		.loc 1 388 0
 1641 0014 02A9     		add	r1, sp, #8
 1642              	.LVL222:
 1643              		.loc 1 383 0
 1644 0016 1F46     		mov	r7, r3
 1645              		.loc 1 385 0
 1646 0018 002A     		cmp	r2, #0
 1647 001a 18BF     		it	ne
 1648 001c 1446     		movne	r4, r2
 1649              	.LVL223:
 1650              		.loc 1 388 0
 1651 001e FFF7FEFF 		bl	cmp_read_map
 1652              	.LVL224:
 1653 0022 68B1     		cbz	r0, .L180
ARM GAS  /var/folders/d2/nstgp4h54kz7g1l847x_b8wc0000gn/T//cc6JAyf6.s 			page 30


 1654              		.loc 1 392 0
 1655 0024 0299     		ldr	r1, [sp, #8]
 1656 0026 0097     		str	r7, [sp]
 1657 0028 2346     		mov	r3, r4
 1658 002a 3246     		mov	r2, r6
 1659 002c 4046     		mov	r0, r8
 1660 002e FFF7FEFF 		bl	read_namespace
 1661              	.LVL225:
 1662              	.L174:
 1663              		.loc 1 393 0
 1664 0032 039A     		ldr	r2, [sp, #12]
 1665 0034 2B68     		ldr	r3, [r5]
 1666 0036 9A42     		cmp	r2, r3
 1667 0038 09D1     		bne	.L181
 1668 003a 04B0     		add	sp, sp, #16
 1669              		.cfi_remember_state
 1670              		.cfi_def_cfa_offset 24
 1671              		@ sp needed
 1672 003c BDE8F081 		pop	{r4, r5, r6, r7, r8, pc}
 1673              	.LVL226:
 1674              	.L180:
 1675              		.cfi_restore_state
 1676              		.loc 1 389 0
 1677 0040 0146     		mov	r1, r0
 1678 0042 064A     		ldr	r2, .L182+8
 1679 0044 3846     		mov	r0, r7
 1680 0046 A047     		blx	r4
 1681              	.LVL227:
 1682              		.loc 1 390 0
 1683 0048 4FF0FF30 		mov	r0, #-1
 1684 004c F1E7     		b	.L174
 1685              	.L181:
 1686              		.loc 1 393 0
 1687 004e FFF7FEFF 		bl	__stack_chk_fail
 1688              	.LVL228:
 1689              	.L183:
 1690 0052 00BF     		.align	2
 1691              	.L182:
 1692 0054 00000000 		.word	__stack_chk_guard
 1693 0058 00000000 		.word	err_ignore_cb
 1694 005c 00000000 		.word	.LC16
 1695              		.cfi_endproc
 1696              	.LFE264:
 1697              		.size	parameter_msgpack_read_cmp, .-parameter_msgpack_read_cmp
 1698              		.section	.text.parameter_msgpack_read,"ax",%progbits
 1699              		.align	1
 1700              		.p2align 4,,15
 1701              		.global	parameter_msgpack_read
 1702              		.syntax unified
 1703              		.thumb
 1704              		.thumb_func
 1705              		.fpu fpv4-sp-d16
 1706              		.type	parameter_msgpack_read, %function
 1707              	parameter_msgpack_read:
 1708              	.LFB265:
 1709              		.loc 1 401 0
 1710              		.cfi_startproc
ARM GAS  /var/folders/d2/nstgp4h54kz7g1l847x_b8wc0000gn/T//cc6JAyf6.s 			page 31


 1711              		@ args = 4, pretend = 0, frame = 32
 1712              		@ frame_needed = 0, uses_anonymous_args = 0
 1713              	.LVL229:
 1714 0000 F0B5     		push	{r4, r5, r6, r7, lr}
 1715              		.cfi_def_cfa_offset 20
 1716              		.cfi_offset 4, -20
 1717              		.cfi_offset 5, -16
 1718              		.cfi_offset 6, -12
 1719              		.cfi_offset 7, -8
 1720              		.cfi_offset 14, -4
 1721 0002 0D4C     		ldr	r4, .L188
 1722 0004 89B0     		sub	sp, sp, #36
 1723              		.cfi_def_cfa_offset 56
 1724              		.loc 1 401 0
 1725 0006 2568     		ldr	r5, [r4]
 1726 0008 0E9F     		ldr	r7, [sp, #56]
 1727 000a 0795     		str	r5, [sp, #28]
 1728 000c 1E46     		mov	r6, r3
 1729 000e 0546     		mov	r5, r0
 1730              		.loc 1 404 0
 1731 0010 1346     		mov	r3, r2
 1732              	.LVL230:
 1733 0012 03A8     		add	r0, sp, #12
 1734              	.LVL231:
 1735 0014 0A46     		mov	r2, r1
 1736              	.LVL232:
 1737 0016 6946     		mov	r1, sp
 1738              	.LVL233:
 1739 0018 FFF7FEFF 		bl	cmp_mem_access_ro_init
 1740              	.LVL234:
 1741              		.loc 1 405 0
 1742 001c 3B46     		mov	r3, r7
 1743 001e 3246     		mov	r2, r6
 1744 0020 03A9     		add	r1, sp, #12
 1745 0022 2846     		mov	r0, r5
 1746 0024 FFF7FEFF 		bl	parameter_msgpack_read_cmp
 1747              	.LVL235:
 1748              		.loc 1 406 0
 1749 0028 079A     		ldr	r2, [sp, #28]
 1750 002a 2368     		ldr	r3, [r4]
 1751 002c 9A42     		cmp	r2, r3
 1752 002e 01D1     		bne	.L187
 1753 0030 09B0     		add	sp, sp, #36
 1754              		.cfi_remember_state
 1755              		.cfi_def_cfa_offset 20
 1756              		@ sp needed
 1757 0032 F0BD     		pop	{r4, r5, r6, r7, pc}
 1758              	.LVL236:
 1759              	.L187:
 1760              		.cfi_restore_state
 1761 0034 FFF7FEFF 		bl	__stack_chk_fail
 1762              	.LVL237:
 1763              	.L189:
 1764              		.align	2
 1765              	.L188:
 1766 0038 00000000 		.word	__stack_chk_guard
 1767              		.cfi_endproc
ARM GAS  /var/folders/d2/nstgp4h54kz7g1l847x_b8wc0000gn/T//cc6JAyf6.s 			page 32


 1768              	.LFE265:
 1769              		.size	parameter_msgpack_read, .-parameter_msgpack_read
 1770              		.section	.text.parameter_msgpack_write_cmp,"ax",%progbits
 1771              		.align	1
 1772              		.p2align 4,,15
 1773              		.global	parameter_msgpack_write_cmp
 1774              		.syntax unified
 1775              		.thumb
 1776              		.thumb_func
 1777              		.fpu fpv4-sp-d16
 1778              		.type	parameter_msgpack_write_cmp, %function
 1779              	parameter_msgpack_write_cmp:
 1780              	.LFB267:
 1781              		.loc 1 493 0
 1782              		.cfi_startproc
 1783              		@ args = 0, pretend = 0, frame = 8
 1784              		@ frame_needed = 0, uses_anonymous_args = 0
 1785              	.LVL238:
 1786 0000 2DE9F041 		push	{r4, r5, r6, r7, r8, lr}
 1787              		.cfi_def_cfa_offset 24
 1788              		.cfi_offset 4, -24
 1789              		.cfi_offset 5, -20
 1790              		.cfi_offset 6, -16
 1791              		.cfi_offset 7, -12
 1792              		.cfi_offset 8, -8
 1793              		.cfi_offset 14, -4
 1794 0004 1A4C     		ldr	r4, .L196
 1795 0006 84B0     		sub	sp, sp, #16
 1796              		.cfi_def_cfa_offset 40
 1797              		.loc 1 493 0
 1798 0008 2568     		ldr	r5, [r4]
 1799 000a 0395     		str	r5, [sp, #12]
 1800              	.LVL239:
 1801 000c 9846     		mov	r8, r3
 1802 000e 0546     		mov	r5, r0
 1803 0010 0E46     		mov	r6, r1
 1804 0012 1746     		mov	r7, r2
 1805              	.LBB174:
 1806              	.LBB175:
 1807              	.LBB176:
 1808              	.LBB177:
 1809              	.LBB178:
 1810              		.file 2 "../e-puck2_main-processor/ChibiOS//os/ext/CMSIS/include/core_cmFunc.h"
 1811              		.loc 2 546 0
 1812 0014 2023     		movs	r3, #32
 1813              	.LVL240:
 1814              		.syntax unified
 1815              	@ 546 "../e-puck2_main-processor/ChibiOS//os/ext/CMSIS/include/core_cmFunc.h" 1
 1816 0016 83F31188 		MSR basepri, r3
 1817              	@ 0 "" 2
 1818              	.LVL241:
 1819              		.thumb
 1820              		.syntax unified
 1821              	.LBE178:
 1822              	.LBE177:
 1823              	.LBE176:
 1824              		.file 3 "../e-puck2_main-processor/ChibiOS//os/rt/include/chsys.h"
ARM GAS  /var/folders/d2/nstgp4h54kz7g1l847x_b8wc0000gn/T//cc6JAyf6.s 			page 33


 1825              		.loc 3 349 0
 1826 001a FFF7FEFF 		bl	_stats_start_measure_crit_thd
 1827              	.LVL242:
 1828              		.loc 3 350 0
 1829 001e FFF7FEFF 		bl	_dbg_check_lock
 1830              	.LVL243:
 1831              	.LBE175:
 1832              	.LBE174:
 1833              		.loc 1 495 0
 1834 0022 3B46     		mov	r3, r7
 1835 0024 3246     		mov	r2, r6
 1836 0026 05F11401 		add	r1, r5, #20
 1837 002a 05F10C00 		add	r0, r5, #12
 1838 002e CDF80080 		str	r8, [sp]
 1839 0032 FFF7FEFF 		bl	parameter_msgpack_write_subtree.isra.6
 1840              	.LVL244:
 1841              	.LBB179:
 1842              	.LBB180:
 1843              		.loc 3 360 0
 1844 0036 FFF7FEFF 		bl	_dbg_check_unlock
 1845              	.LVL245:
 1846              		.loc 3 361 0
 1847 003a FFF7FEFF 		bl	_stats_stop_measure_crit_thd
 1848              	.LVL246:
 1849              		.loc 3 367 0
 1850 003e 0D4B     		ldr	r3, .L196+4
 1851 0040 1A68     		ldr	r2, [r3]
 1852 0042 9A42     		cmp	r2, r3
 1853 0044 04D0     		beq	.L191
 1854 0046 9969     		ldr	r1, [r3, #24]
 1855 0048 9368     		ldr	r3, [r2, #8]
 1856 004a 8A68     		ldr	r2, [r1, #8]
 1857 004c 9A42     		cmp	r2, r3
 1858 004e 09D3     		bcc	.L194
 1859              	.L191:
 1860              	.LVL247:
 1861              	.LBB181:
 1862              	.LBB182:
 1863              	.LBB183:
 1864              		.loc 2 546 0
 1865 0050 0023     		movs	r3, #0
 1866              		.syntax unified
 1867              	@ 546 "../e-puck2_main-processor/ChibiOS//os/ext/CMSIS/include/core_cmFunc.h" 1
 1868 0052 83F31188 		MSR basepri, r3
 1869              	@ 0 "" 2
 1870              	.LVL248:
 1871              		.thumb
 1872              		.syntax unified
 1873              	.LBE183:
 1874              	.LBE182:
 1875              	.LBE181:
 1876              	.LBE180:
 1877              	.LBE179:
 1878              		.loc 1 497 0
 1879 0056 039A     		ldr	r2, [sp, #12]
 1880 0058 2368     		ldr	r3, [r4]
 1881 005a 9A42     		cmp	r2, r3
ARM GAS  /var/folders/d2/nstgp4h54kz7g1l847x_b8wc0000gn/T//cc6JAyf6.s 			page 34


 1882 005c 06D1     		bne	.L195
 1883 005e 04B0     		add	sp, sp, #16
 1884              		.cfi_remember_state
 1885              		.cfi_def_cfa_offset 24
 1886              		@ sp needed
 1887 0060 BDE8F081 		pop	{r4, r5, r6, r7, r8, pc}
 1888              	.LVL249:
 1889              	.L194:
 1890              		.cfi_restore_state
 1891              	.LBB185:
 1892              	.LBB184:
 1893              		.loc 3 367 0
 1894 0064 0448     		ldr	r0, .L196+8
 1895 0066 FFF7FEFF 		bl	chSysHalt
 1896              	.LVL250:
 1897 006a F1E7     		b	.L191
 1898              	.L195:
 1899              	.LBE184:
 1900              	.LBE185:
 1901              		.loc 1 497 0
 1902 006c FFF7FEFF 		bl	__stack_chk_fail
 1903              	.LVL251:
 1904              	.L197:
 1905              		.align	2
 1906              	.L196:
 1907 0070 00000000 		.word	__stack_chk_guard
 1908 0074 00000000 		.word	ch
 1909 0078 00000000 		.word	.LANCHOR0
 1910              		.cfi_endproc
 1911              	.LFE267:
 1912              		.size	parameter_msgpack_write_cmp, .-parameter_msgpack_write_cmp
 1913              		.section	.text.parameter_msgpack_write,"ax",%progbits
 1914              		.align	1
 1915              		.p2align 4,,15
 1916              		.global	parameter_msgpack_write
 1917              		.syntax unified
 1918              		.thumb
 1919              		.thumb_func
 1920              		.fpu fpv4-sp-d16
 1921              		.type	parameter_msgpack_write, %function
 1922              	parameter_msgpack_write:
 1923              	.LFB268:
 1924              		.loc 1 505 0
 1925              		.cfi_startproc
 1926              		@ args = 4, pretend = 0, frame = 32
 1927              		@ frame_needed = 0, uses_anonymous_args = 0
 1928              	.LVL252:
 1929 0000 F0B5     		push	{r4, r5, r6, r7, lr}
 1930              		.cfi_def_cfa_offset 20
 1931              		.cfi_offset 4, -20
 1932              		.cfi_offset 5, -16
 1933              		.cfi_offset 6, -12
 1934              		.cfi_offset 7, -8
 1935              		.cfi_offset 14, -4
 1936 0002 0D4C     		ldr	r4, .L202
 1937 0004 89B0     		sub	sp, sp, #36
 1938              		.cfi_def_cfa_offset 56
ARM GAS  /var/folders/d2/nstgp4h54kz7g1l847x_b8wc0000gn/T//cc6JAyf6.s 			page 35


 1939              		.loc 1 505 0
 1940 0006 2568     		ldr	r5, [r4]
 1941 0008 0E9F     		ldr	r7, [sp, #56]
 1942 000a 0795     		str	r5, [sp, #28]
 1943 000c 1E46     		mov	r6, r3
 1944 000e 0546     		mov	r5, r0
 1945              		.loc 1 508 0
 1946 0010 1346     		mov	r3, r2
 1947              	.LVL253:
 1948 0012 03A8     		add	r0, sp, #12
 1949              	.LVL254:
 1950 0014 0A46     		mov	r2, r1
 1951              	.LVL255:
 1952 0016 6946     		mov	r1, sp
 1953              	.LVL256:
 1954 0018 FFF7FEFF 		bl	cmp_mem_access_init
 1955              	.LVL257:
 1956              		.loc 1 509 0
 1957 001c 3B46     		mov	r3, r7
 1958 001e 3246     		mov	r2, r6
 1959 0020 03A9     		add	r1, sp, #12
 1960 0022 2846     		mov	r0, r5
 1961 0024 FFF7FEFF 		bl	parameter_msgpack_write_cmp
 1962              	.LVL258:
 1963              		.loc 1 510 0
 1964 0028 079A     		ldr	r2, [sp, #28]
 1965 002a 2368     		ldr	r3, [r4]
 1966 002c 9A42     		cmp	r2, r3
 1967 002e 01D1     		bne	.L201
 1968 0030 09B0     		add	sp, sp, #36
 1969              		.cfi_remember_state
 1970              		.cfi_def_cfa_offset 20
 1971              		@ sp needed
 1972 0032 F0BD     		pop	{r4, r5, r6, r7, pc}
 1973              	.LVL259:
 1974              	.L201:
 1975              		.cfi_restore_state
 1976 0034 FFF7FEFF 		bl	__stack_chk_fail
 1977              	.LVL260:
 1978              	.L203:
 1979              		.align	2
 1980              	.L202:
 1981 0038 00000000 		.word	__stack_chk_guard
 1982              		.cfi_endproc
 1983              	.LFE268:
 1984              		.size	parameter_msgpack_write, .-parameter_msgpack_write
 1985              		.section	.rodata.__func__.8568,"a",%progbits
 1986              		.align	2
 1987              		.set	.LANCHOR0,. + 0
 1988              		.type	__func__.8568, %object
 1989              		.size	__func__.8568, 12
 1990              	__func__.8568:
 1991 0000 63685379 		.ascii	"chSysUnlock\000"
 1991      73556E6C 
 1991      6F636B00 
 1992              		.section	.rodata.discard_msgpack_element.isra.0.str1.4,"aMS",%progbits,1
 1993              		.align	2
ARM GAS  /var/folders/d2/nstgp4h54kz7g1l847x_b8wc0000gn/T//cc6JAyf6.s 			page 36


 1994              	.LC0:
 1995 0000 64697363 		.ascii	"discarding failed\000"
 1995      61726469 
 1995      6E672066 
 1995      61696C65 
 1995      6400
 1996              		.section	.rodata.get_vector.str1.4,"aMS",%progbits,1
 1997              		.align	2
 1998              	.LC1:
 1999 0000 636F756C 		.ascii	"could not read object\000"
 1999      64206E6F 
 1999      74207265 
 1999      6164206F 
 1999      626A6563 
 2000 0016 0000     		.space	2
 2001              	.LC2:
 2002 0018 7761726E 		.ascii	"warning: type mismatch\000"
 2002      696E673A 
 2002      20747970 
 2002      65206D69 
 2002      736D6174 
 2003              		.section	.rodata.parameter_msgpack_read_cmp.str1.4,"aMS",%progbits,1
 2004              		.align	2
 2005              	.LC16:
 2006 0000 636F756C 		.ascii	"could not read namespace map\000"
 2006      64206E6F 
 2006      74207265 
 2006      6164206E 
 2006      616D6573 
 2007              		.section	.rodata.parameter_msgpack_write_subtree.isra.6.str1.4,"aMS",%progbits,1
 2008              		.align	2
 2009              	.LC14:
 2010 0000 756E7375 		.ascii	"unsupported type for saving\000"
 2010      70706F72 
 2010      74656420 
 2010      74797065 
 2010      20666F72 
 2011              	.LC15:
 2012 001c 636D705F 		.ascii	"cmp_write failed\000"
 2012      77726974 
 2012      65206661 
 2012      696C6564 
 2012      00
 2013              		.section	.rodata.read_namespace.str1.4,"aMS",%progbits,1
 2014              		.align	2
 2015              	.LC3:
 2016 0000 636F756C 		.ascii	"could not read id\000"
 2016      64206E6F 
 2016      74207265 
 2016      61642069 
 2016      6400
 2017 0012 0000     		.space	2
 2018              	.LC4:
 2019 0014 616C6C6F 		.ascii	"allocation failed\000"
 2019      63617469 
 2019      6F6E2066 
 2019      61696C65 
ARM GAS  /var/folders/d2/nstgp4h54kz7g1l847x_b8wc0000gn/T//cc6JAyf6.s 			page 37


 2019      6400
 2020 0026 0000     		.space	2
 2021              	.LC5:
 2022 0028 636F756C 		.ascii	"could not read value\000"
 2022      64206E6F 
 2022      74207265 
 2022      61642076 
 2022      616C7565 
 2023 003d 000000   		.space	3
 2024              	.LC6:
 2025 0040 7761726E 		.ascii	"warning: namespace doesn't exist\000"
 2025      696E673A 
 2025      206E616D 
 2025      65737061 
 2025      63652064 
 2026 0061 000000   		.space	3
 2027              	.LC7:
 2028 0064 7761726E 		.ascii	"warning: parameter doesn't exist\000"
 2028      696E673A 
 2028      20706172 
 2028      616D6574 
 2028      65722064 
 2029 0085 000000   		.space	3
 2030              	.LC8:
 2031 0088 7761726E 		.ascii	"warning: wrong vector dimension\000"
 2031      696E673A 
 2031      2077726F 
 2031      6E672076 
 2031      6563746F 
 2032              	.LC9:
 2033 00a8 7761726E 		.ascii	"warning: allocation failed\000"
 2033      696E673A 
 2033      20616C6C 
 2033      6F636174 
 2033      696F6E20 
 2034 00c3 00       		.space	1
 2035              	.LC10:
 2036 00c4 7761726E 		.ascii	"warning: vector dimension too big\000"
 2036      696E673A 
 2036      20766563 
 2036      746F7220 
 2036      64696D65 
 2037 00e6 0000     		.space	2
 2038              	.LC11:
 2039 00e8 7761726E 		.ascii	"warning: string is too long\000"
 2039      696E673A 
 2039      20737472 
 2039      696E6720 
 2039      69732074 
 2040              	.LC12:
 2041 0104 72656164 		.ascii	"read error\000"
 2041      20657272 
 2041      6F7200
 2042 010f 00       		.space	1
 2043              	.LC13:
 2044 0110 544F444F 		.ascii	"TODO not implemented yet\000"
 2044      206E6F74 
ARM GAS  /var/folders/d2/nstgp4h54kz7g1l847x_b8wc0000gn/T//cc6JAyf6.s 			page 38


 2044      20696D70 
 2044      6C656D65 
 2044      6E746564 
 2045              		.text
 2046              	.Letext0:
 2047              		.file 4 "/Applications/Eclipse_e-puck2.app/Contents/Eclipse_e-puck2/Tools/gcc-arm-none-eabi-7-2017
 2048              		.file 5 "/Applications/Eclipse_e-puck2.app/Contents/Eclipse_e-puck2/Tools/gcc-arm-none-eabi-7-2017
 2049              		.file 6 "/Applications/Eclipse_e-puck2.app/Contents/Eclipse_e-puck2/Tools/gcc-arm-none-eabi-7-2017
 2050              		.file 7 "/Applications/Eclipse_e-puck2.app/Contents/Eclipse_e-puck2/Tools/gcc-arm-none-eabi-7-2017
 2051              		.file 8 "/Applications/Eclipse_e-puck2.app/Contents/Eclipse_e-puck2/Tools/gcc-arm-none-eabi-7-2017
 2052              		.file 9 "/Applications/Eclipse_e-puck2.app/Contents/Eclipse_e-puck2/Tools/gcc-arm-none-eabi-7-2017
 2053              		.file 10 "/Applications/Eclipse_e-puck2.app/Contents/Eclipse_e-puck2/Tools/gcc-arm-none-eabi-7-201
 2054              		.file 11 "../e-puck2_main-processor/src/cmp/cmp.h"
 2055              		.file 12 "../e-puck2_main-processor/src/cmp_mem_access/cmp_mem_access.h"
 2056              		.file 13 "../e-puck2_main-processor/ChibiOS//os/rt/ports/ARMCMx/compilers/GCC/chtypes.h"
 2057              		.file 14 "../e-puck2_main-processor/ChibiOS//os/rt/include/chsystypes.h"
 2058              		.file 15 "../e-puck2_main-processor/ChibiOS//os/rt/include/chschd.h"
 2059              		.file 16 "../e-puck2_main-processor/ChibiOS//os/ext/CMSIS/include/core_cm4.h"
 2060              		.file 17 "../e-puck2_main-processor/ChibiOS//os/ext/CMSIS/ST/system_stm32f4xx.h"
 2061              		.file 18 "../e-puck2_main-processor/ChibiOS//os/rt/ports/ARMCMx/chcore.h"
 2062              		.file 19 "../e-puck2_main-processor/ChibiOS//os/rt/ports/ARMCMx/chcore_v7m.h"
 2063              		.file 20 "../e-puck2_main-processor/ChibiOS//os/rt/include/chdebug.h"
 2064              		.file 21 "../e-puck2_main-processor/ChibiOS//os/rt/include/chtm.h"
 2065              		.file 22 "../e-puck2_main-processor/ChibiOS//os/rt/include/chstats.h"
 2066              		.file 23 "../e-puck2_main-processor/ChibiOS//os/rt/include/chsem.h"
 2067              		.file 24 "../e-puck2_main-processor/ChibiOS//os/rt/include/chmtx.h"
 2068              		.file 25 "../e-puck2_main-processor/ChibiOS//os/rt/include/chregistry.h"
 2069              		.file 26 "../e-puck2_main-processor/src/parameter/parameter.h"
 2070              		.file 27 "../e-puck2_main-processor/src/parameter/parameter_msgpack.h"
 2071              		.file 28 "/Applications/Eclipse_e-puck2.app/Contents/Eclipse_e-puck2/Tools/gcc-arm-none-eabi-7-201