ARM GAS  /var/folders/d2/nstgp4h54kz7g1l847x_b8wc0000gn/T//cc2KwmRg.s 			page 1


   1              		.cpu cortex-m4
   2              		.eabi_attribute 27, 1
   3              		.eabi_attribute 28, 1
   4              		.eabi_attribute 20, 1
   5              		.eabi_attribute 21, 1
   6              		.eabi_attribute 23, 3
   7              		.eabi_attribute 24, 1
   8              		.eabi_attribute 25, 1
   9              		.eabi_attribute 26, 1
  10              		.eabi_attribute 30, 6
  11              		.eabi_attribute 34, 1
  12              		.eabi_attribute 18, 4
  13              		.file	"parameter_msgpack.c"
  14              		.section	.text.port_lock,"ax",%progbits
  15              		.align	1
  16              		.syntax unified
  17              		.thumb
  18              		.thumb_func
  19              		.fpu fpv4-sp-d16
  20              		.type	port_lock, %function
  21              	port_lock:
  22              		@ args = 0, pretend = 0, frame = 8
  23              		@ frame_needed = 1, uses_anonymous_args = 0
  24              		@ link register save eliminated.
  25 0000 80B4     		push	{r7}
  26 0002 83B0     		sub	sp, sp, #12
  27 0004 00AF     		add	r7, sp, #0
  28 0006 2023     		movs	r3, #32
  29 0008 7B60     		str	r3, [r7, #4]
  30 000a 7B68     		ldr	r3, [r7, #4]
  31              		.syntax unified
  32              	@ 546 "../e-puck2_main-processor/ChibiOS//os/ext/CMSIS/include/core_cmFunc.h" 1
  33 000c 83F31188 		MSR basepri, r3
  34              	@ 0 "" 2
  35              		.thumb
  36              		.syntax unified
  37 0010 00BF     		nop
  38 0012 0C37     		adds	r7, r7, #12
  39 0014 BD46     		mov	sp, r7
  40              		@ sp needed
  41 0016 5DF8047B 		ldr	r7, [sp], #4
  42 001a 7047     		bx	lr
  43              		.size	port_lock, .-port_lock
  44              		.section	.text.port_unlock,"ax",%progbits
  45              		.align	1
  46              		.syntax unified
  47              		.thumb
  48              		.thumb_func
  49              		.fpu fpv4-sp-d16
  50              		.type	port_unlock, %function
  51              	port_unlock:
  52              		@ args = 0, pretend = 0, frame = 8
  53              		@ frame_needed = 1, uses_anonymous_args = 0
  54              		@ link register save eliminated.
  55 0000 80B4     		push	{r7}
  56 0002 83B0     		sub	sp, sp, #12
  57 0004 00AF     		add	r7, sp, #0
ARM GAS  /var/folders/d2/nstgp4h54kz7g1l847x_b8wc0000gn/T//cc2KwmRg.s 			page 2


  58 0006 0023     		movs	r3, #0
  59 0008 7B60     		str	r3, [r7, #4]
  60 000a 7B68     		ldr	r3, [r7, #4]
  61              		.syntax unified
  62              	@ 546 "../e-puck2_main-processor/ChibiOS//os/ext/CMSIS/include/core_cmFunc.h" 1
  63 000c 83F31188 		MSR basepri, r3
  64              	@ 0 "" 2
  65              		.thumb
  66              		.syntax unified
  67 0010 00BF     		nop
  68 0012 0C37     		adds	r7, r7, #12
  69 0014 BD46     		mov	sp, r7
  70              		@ sp needed
  71 0016 5DF8047B 		ldr	r7, [sp], #4
  72 001a 7047     		bx	lr
  73              		.size	port_unlock, .-port_unlock
  74              		.section	.text.chSysLock,"ax",%progbits
  75              		.align	1
  76              		.syntax unified
  77              		.thumb
  78              		.thumb_func
  79              		.fpu fpv4-sp-d16
  80              		.type	chSysLock, %function
  81              	chSysLock:
  82              		@ args = 0, pretend = 0, frame = 0
  83              		@ frame_needed = 1, uses_anonymous_args = 0
  84 0000 80B5     		push	{r7, lr}
  85 0002 00AF     		add	r7, sp, #0
  86 0004 FFF7FEFF 		bl	port_lock
  87 0008 FFF7FEFF 		bl	_stats_start_measure_crit_thd
  88 000c FFF7FEFF 		bl	_dbg_check_lock
  89 0010 00BF     		nop
  90 0012 80BD     		pop	{r7, pc}
  91              		.size	chSysLock, .-chSysLock
  92              		.section	.text.chSysUnlock,"ax",%progbits
  93              		.align	1
  94              		.syntax unified
  95              		.thumb
  96              		.thumb_func
  97              		.fpu fpv4-sp-d16
  98              		.type	chSysUnlock, %function
  99              	chSysUnlock:
 100              		@ args = 0, pretend = 0, frame = 0
 101              		@ frame_needed = 1, uses_anonymous_args = 0
 102 0000 80B5     		push	{r7, lr}
 103 0002 00AF     		add	r7, sp, #0
 104 0004 FFF7FEFF 		bl	_dbg_check_unlock
 105 0008 FFF7FEFF 		bl	_stats_stop_measure_crit_thd
 106 000c 094B     		ldr	r3, .L6
 107 000e 1B68     		ldr	r3, [r3]
 108 0010 084A     		ldr	r2, .L6
 109 0012 9342     		cmp	r3, r2
 110 0014 0AD0     		beq	.L5
 111 0016 074B     		ldr	r3, .L6
 112 0018 9B69     		ldr	r3, [r3, #24]
 113 001a 9A68     		ldr	r2, [r3, #8]
 114 001c 054B     		ldr	r3, .L6
ARM GAS  /var/folders/d2/nstgp4h54kz7g1l847x_b8wc0000gn/T//cc2KwmRg.s 			page 3


 115 001e 1B68     		ldr	r3, [r3]
 116 0020 9B68     		ldr	r3, [r3, #8]
 117 0022 9A42     		cmp	r2, r3
 118 0024 02D2     		bcs	.L5
 119 0026 0448     		ldr	r0, .L6+4
 120 0028 FFF7FEFF 		bl	chSysHalt
 121              	.L5:
 122 002c FFF7FEFF 		bl	port_unlock
 123 0030 00BF     		nop
 124 0032 80BD     		pop	{r7, pc}
 125              	.L7:
 126              		.align	2
 127              	.L6:
 128 0034 00000000 		.word	ch
 129 0038 00000000 		.word	__func__.8568
 130              		.size	chSysUnlock, .-chSysUnlock
 131              		.section	.rodata
 132              		.align	2
 133              	.LC0:
 134 0000 64697363 		.ascii	"discarding failed\000"
 134      61726469 
 134      6E672066 
 134      61696C65 
 134      6400
 135              		.section	.text.discard_msgpack_element,"ax",%progbits
 136              		.align	1
 137              		.syntax unified
 138              		.thumb
 139              		.thumb_func
 140              		.fpu fpv4-sp-d16
 141              		.type	discard_msgpack_element, %function
 142              	discard_msgpack_element:
 143              		@ args = 4, pretend = 0, frame = 16
 144              		@ frame_needed = 1, uses_anonymous_args = 0
 145 0000 80B5     		push	{r7, lr}
 146 0002 84B0     		sub	sp, sp, #16
 147 0004 00AF     		add	r7, sp, #0
 148 0006 F860     		str	r0, [r7, #12]
 149 0008 B960     		str	r1, [r7, #8]
 150 000a 7A60     		str	r2, [r7, #4]
 151 000c 3B60     		str	r3, [r7]
 152 000e FB68     		ldr	r3, [r7, #12]
 153 0010 1B78     		ldrb	r3, [r3]	@ zero_extendqisi2
 154 0012 222B     		cmp	r3, #34
 155 0014 4AD8     		bhi	.L9
 156 0016 01A2     		adr	r2, .L11
 157 0018 52F823F0 		ldr	pc, [r2, r3, lsl #2]
 158              		.p2align 2
 159              	.L11:
 160 001c A9000000 		.word	.L10+1
 161 0020 AD000000 		.word	.L9+1
 162 0024 AD000000 		.word	.L9+1
 163 0028 AD000000 		.word	.L9+1
 164 002c A9000000 		.word	.L10+1
 165 0030 A9000000 		.word	.L10+1
 166 0034 AD000000 		.word	.L9+1
 167 0038 AD000000 		.word	.L9+1
ARM GAS  /var/folders/d2/nstgp4h54kz7g1l847x_b8wc0000gn/T//cc2KwmRg.s 			page 4


 168 003c AD000000 		.word	.L9+1
 169 0040 AD000000 		.word	.L9+1
 170 0044 AD000000 		.word	.L9+1
 171 0048 AD000000 		.word	.L9+1
 172 004c A9000000 		.word	.L10+1
 173 0050 A9000000 		.word	.L10+1
 174 0054 A9000000 		.word	.L10+1
 175 0058 A9000000 		.word	.L10+1
 176 005c A9000000 		.word	.L10+1
 177 0060 A9000000 		.word	.L10+1
 178 0064 A9000000 		.word	.L10+1
 179 0068 A9000000 		.word	.L10+1
 180 006c A9000000 		.word	.L10+1
 181 0070 A9000000 		.word	.L10+1
 182 0074 AD000000 		.word	.L9+1
 183 0078 AD000000 		.word	.L9+1
 184 007c AD000000 		.word	.L9+1
 185 0080 AD000000 		.word	.L9+1
 186 0084 AD000000 		.word	.L9+1
 187 0088 AD000000 		.word	.L9+1
 188 008c AD000000 		.word	.L9+1
 189 0090 AD000000 		.word	.L9+1
 190 0094 AD000000 		.word	.L9+1
 191 0098 AD000000 		.word	.L9+1
 192 009c AD000000 		.word	.L9+1
 193 00a0 AD000000 		.word	.L9+1
 194 00a4 A9000000 		.word	.L10+1
 195              		.p2align 1
 196              	.L10:
 197 00a8 0023     		movs	r3, #0
 198 00aa 06E0     		b	.L12
 199              	.L9:
 200 00ac 7B68     		ldr	r3, [r7, #4]
 201 00ae 054A     		ldr	r2, .L13
 202 00b0 B969     		ldr	r1, [r7, #24]
 203 00b2 3868     		ldr	r0, [r7]
 204 00b4 9847     		blx	r3
 205 00b6 4FF0FF33 		mov	r3, #-1
 206              	.L12:
 207 00ba 1846     		mov	r0, r3
 208 00bc 1037     		adds	r7, r7, #16
 209 00be BD46     		mov	sp, r7
 210              		@ sp needed
 211 00c0 80BD     		pop	{r7, pc}
 212              	.L14:
 213 00c2 00BF     		.align	2
 214              	.L13:
 215 00c4 00000000 		.word	.LC0
 216              		.size	discard_msgpack_element, .-discard_msgpack_element
 217              		.global	__aeabi_l2f
 218              		.section	.text.get_float,"ax",%progbits
 219              		.align	1
 220              		.syntax unified
 221              		.thumb
 222              		.thumb_func
 223              		.fpu fpv4-sp-d16
 224              		.type	get_float, %function
ARM GAS  /var/folders/d2/nstgp4h54kz7g1l847x_b8wc0000gn/T//cc2KwmRg.s 			page 5


 225              	get_float:
 226              		@ args = 0, pretend = 0, frame = 24
 227              		@ frame_needed = 1, uses_anonymous_args = 0
 228 0000 90B5     		push	{r4, r7, lr}
 229 0002 87B0     		sub	sp, sp, #28
 230 0004 00AF     		add	r7, sp, #0
 231 0006 7860     		str	r0, [r7, #4]
 232 0008 3960     		str	r1, [r7]
 233 000a 07F11403 		add	r3, r7, #20
 234 000e 1946     		mov	r1, r3
 235 0010 7868     		ldr	r0, [r7, #4]
 236 0012 FFF7FEFF 		bl	cmp_object_as_float
 237 0016 0346     		mov	r3, r0
 238 0018 002B     		cmp	r3, #0
 239 001a 04D0     		beq	.L16
 240 001c 7A69     		ldr	r2, [r7, #20]	@ float
 241 001e 3B68     		ldr	r3, [r7]
 242 0020 1A60     		str	r2, [r3]	@ float
 243 0022 0123     		movs	r3, #1
 244 0024 14E0     		b	.L19
 245              	.L16:
 246 0026 07F10803 		add	r3, r7, #8
 247 002a 1946     		mov	r1, r3
 248 002c 7868     		ldr	r0, [r7, #4]
 249 002e FFF7FEFF 		bl	cmp_object_as_sinteger
 250 0032 0346     		mov	r3, r0
 251 0034 002B     		cmp	r3, #0
 252 0036 0AD0     		beq	.L18
 253 0038 D7E90234 		ldrd	r3, [r7, #8]
 254 003c 1846     		mov	r0, r3
 255 003e 2146     		mov	r1, r4
 256 0040 FFF7FEFF 		bl	__aeabi_l2f
 257 0044 0246     		mov	r2, r0	@ float
 258 0046 3B68     		ldr	r3, [r7]
 259 0048 1A60     		str	r2, [r3]	@ float
 260 004a 0123     		movs	r3, #1
 261 004c 00E0     		b	.L19
 262              	.L18:
 263 004e 0023     		movs	r3, #0
 264              	.L19:
 265 0050 1846     		mov	r0, r3
 266 0052 1C37     		adds	r7, r7, #28
 267 0054 BD46     		mov	sp, r7
 268              		@ sp needed
 269 0056 90BD     		pop	{r4, r7, pc}
 270              		.size	get_float, .-get_float
 271              		.section	.text.get_int,"ax",%progbits
 272              		.align	1
 273              		.syntax unified
 274              		.thumb
 275              		.thumb_func
 276              		.fpu fpv4-sp-d16
 277              		.type	get_int, %function
 278              	get_int:
 279              		@ args = 0, pretend = 0, frame = 8
 280              		@ frame_needed = 1, uses_anonymous_args = 0
 281 0000 80B5     		push	{r7, lr}
ARM GAS  /var/folders/d2/nstgp4h54kz7g1l847x_b8wc0000gn/T//cc2KwmRg.s 			page 6


 282 0002 82B0     		sub	sp, sp, #8
 283 0004 00AF     		add	r7, sp, #0
 284 0006 7860     		str	r0, [r7, #4]
 285 0008 3960     		str	r1, [r7]
 286 000a 3968     		ldr	r1, [r7]
 287 000c 7868     		ldr	r0, [r7, #4]
 288 000e FFF7FEFF 		bl	cmp_object_as_int
 289 0012 0346     		mov	r3, r0
 290 0014 002B     		cmp	r3, #0
 291 0016 01D0     		beq	.L21
 292 0018 0123     		movs	r3, #1
 293 001a 00E0     		b	.L22
 294              	.L21:
 295 001c 0023     		movs	r3, #0
 296              	.L22:
 297 001e 1846     		mov	r0, r3
 298 0020 0837     		adds	r7, r7, #8
 299 0022 BD46     		mov	sp, r7
 300              		@ sp needed
 301 0024 80BD     		pop	{r7, pc}
 302              		.size	get_int, .-get_int
 303              		.section	.text.get_bool,"ax",%progbits
 304              		.align	1
 305              		.syntax unified
 306              		.thumb
 307              		.thumb_func
 308              		.fpu fpv4-sp-d16
 309              		.type	get_bool, %function
 310              	get_bool:
 311              		@ args = 0, pretend = 0, frame = 8
 312              		@ frame_needed = 1, uses_anonymous_args = 0
 313 0000 80B5     		push	{r7, lr}
 314 0002 82B0     		sub	sp, sp, #8
 315 0004 00AF     		add	r7, sp, #0
 316 0006 7860     		str	r0, [r7, #4]
 317 0008 3960     		str	r1, [r7]
 318 000a 3968     		ldr	r1, [r7]
 319 000c 7868     		ldr	r0, [r7, #4]
 320 000e FFF7FEFF 		bl	cmp_object_as_bool
 321 0012 0346     		mov	r3, r0
 322 0014 002B     		cmp	r3, #0
 323 0016 01D0     		beq	.L24
 324 0018 0123     		movs	r3, #1
 325 001a 00E0     		b	.L25
 326              	.L24:
 327 001c 0023     		movs	r3, #0
 328              	.L25:
 329 001e 1846     		mov	r0, r3
 330 0020 0837     		adds	r7, r7, #8
 331 0022 BD46     		mov	sp, r7
 332              		@ sp needed
 333 0024 80BD     		pop	{r7, pc}
 334              		.size	get_bool, .-get_bool
 335              		.section	.rodata
 336 0012 0000     		.align	2
 337              	.LC1:
 338 0014 636F756C 		.ascii	"could not read object\000"
ARM GAS  /var/folders/d2/nstgp4h54kz7g1l847x_b8wc0000gn/T//cc2KwmRg.s 			page 7


 338      64206E6F 
 338      74207265 
 338      6164206F 
 338      626A6563 
 339 002a 0000     		.align	2
 340              	.LC2:
 341 002c 7761726E 		.ascii	"warning: type mismatch\000"
 341      696E673A 
 341      20747970 
 341      65206D69 
 341      736D6174 
 342              		.section	.text.get_vector,"ax",%progbits
 343              		.align	1
 344              		.syntax unified
 345              		.thumb
 346              		.thumb_func
 347              		.fpu fpv4-sp-d16
 348              		.type	get_vector, %function
 349              	get_vector:
 350              		@ args = 8, pretend = 0, frame = 56
 351              		@ frame_needed = 1, uses_anonymous_args = 0
 352 0000 80B5     		push	{r7, lr}
 353 0002 90B0     		sub	sp, sp, #64
 354 0004 02AF     		add	r7, sp, #8
 355 0006 F860     		str	r0, [r7, #12]
 356 0008 B960     		str	r1, [r7, #8]
 357 000a 7A60     		str	r2, [r7, #4]
 358 000c 3B60     		str	r3, [r7]
 359 000e 0023     		movs	r3, #0
 360 0010 87F83730 		strb	r3, [r7, #55]
 361 0014 0023     		movs	r3, #0
 362 0016 3B63     		str	r3, [r7, #48]
 363 0018 4DE0     		b	.L27
 364              	.L34:
 365 001a 07F11803 		add	r3, r7, #24
 366 001e 1946     		mov	r1, r3
 367 0020 F868     		ldr	r0, [r7, #12]
 368 0022 FFF7FEFF 		bl	cmp_read_object
 369 0026 0346     		mov	r3, r0
 370 0028 83F00103 		eor	r3, r3, #1
 371 002c DBB2     		uxtb	r3, r3
 372 002e 002B     		cmp	r3, #0
 373 0030 07D0     		beq	.L28
 374 0032 3B68     		ldr	r3, [r7]
 375 0034 284A     		ldr	r2, .L36
 376 0036 796C     		ldr	r1, [r7, #68]
 377 0038 386C     		ldr	r0, [r7, #64]
 378 003a 9847     		blx	r3
 379 003c 4FF0FF33 		mov	r3, #-1
 380 0040 45E0     		b	.L33
 381              	.L28:
 382 0042 97F83730 		ldrb	r3, [r7, #55]
 383 0046 83F00103 		eor	r3, r3, #1
 384 004a DBB2     		uxtb	r3, r3
 385 004c 002B     		cmp	r3, #0
 386 004e 11D0     		beq	.L30
 387 0050 07F11402 		add	r2, r7, #20
ARM GAS  /var/folders/d2/nstgp4h54kz7g1l847x_b8wc0000gn/T//cc2KwmRg.s 			page 8


 388 0054 07F11803 		add	r3, r7, #24
 389 0058 1146     		mov	r1, r2
 390 005a 1846     		mov	r0, r3
 391 005c FFF7FEFF 		bl	get_float
 392 0060 0346     		mov	r3, r0
 393 0062 002B     		cmp	r3, #0
 394 0064 06D0     		beq	.L30
 395 0066 3B6B     		ldr	r3, [r7, #48]
 396 0068 9B00     		lsls	r3, r3, #2
 397 006a BA68     		ldr	r2, [r7, #8]
 398 006c 1344     		add	r3, r3, r2
 399 006e 7A69     		ldr	r2, [r7, #20]	@ float
 400 0070 1A60     		str	r2, [r3]	@ float
 401 0072 1DE0     		b	.L31
 402              	.L30:
 403 0074 97F83730 		ldrb	r3, [r7, #55]
 404 0078 83F00103 		eor	r3, r3, #1
 405 007c DBB2     		uxtb	r3, r3
 406 007e 002B     		cmp	r3, #0
 407 0080 07D0     		beq	.L32
 408 0082 0123     		movs	r3, #1
 409 0084 87F83730 		strb	r3, [r7, #55]
 410 0088 3B68     		ldr	r3, [r7]
 411 008a 144A     		ldr	r2, .L36+4
 412 008c 796C     		ldr	r1, [r7, #68]
 413 008e 386C     		ldr	r0, [r7, #64]
 414 0090 9847     		blx	r3
 415              	.L32:
 416 0092 07F11800 		add	r0, r7, #24
 417 0096 7B6C     		ldr	r3, [r7, #68]
 418 0098 0093     		str	r3, [sp]
 419 009a 3B6C     		ldr	r3, [r7, #64]
 420 009c 3A68     		ldr	r2, [r7]
 421 009e F968     		ldr	r1, [r7, #12]
 422 00a0 FFF7FEFF 		bl	discard_msgpack_element
 423 00a4 F862     		str	r0, [r7, #44]
 424 00a6 FB6A     		ldr	r3, [r7, #44]
 425 00a8 002B     		cmp	r3, #0
 426 00aa 01D0     		beq	.L31
 427 00ac FB6A     		ldr	r3, [r7, #44]
 428 00ae 0EE0     		b	.L33
 429              	.L31:
 430 00b0 3B6B     		ldr	r3, [r7, #48]
 431 00b2 0133     		adds	r3, r3, #1
 432 00b4 3B63     		str	r3, [r7, #48]
 433              	.L27:
 434 00b6 3A6B     		ldr	r2, [r7, #48]
 435 00b8 7B68     		ldr	r3, [r7, #4]
 436 00ba 9A42     		cmp	r2, r3
 437 00bc ADDB     		blt	.L34
 438 00be 97F83730 		ldrb	r3, [r7, #55]	@ zero_extendqisi2
 439 00c2 002B     		cmp	r3, #0
 440 00c4 02D0     		beq	.L35
 441 00c6 4FF0FF33 		mov	r3, #-1
 442 00ca 00E0     		b	.L33
 443              	.L35:
 444 00cc 0023     		movs	r3, #0
ARM GAS  /var/folders/d2/nstgp4h54kz7g1l847x_b8wc0000gn/T//cc2KwmRg.s 			page 9


 445              	.L33:
 446 00ce 1846     		mov	r0, r3
 447 00d0 3837     		adds	r7, r7, #56
 448 00d2 BD46     		mov	sp, r7
 449              		@ sp needed
 450 00d4 80BD     		pop	{r7, pc}
 451              	.L37:
 452 00d6 00BF     		.align	2
 453              	.L36:
 454 00d8 14000000 		.word	.LC1
 455 00dc 2C000000 		.word	.LC2
 456              		.size	get_vector, .-get_vector
 457              		.section	.text.read_parameter_scalar,"ax",%progbits
 458              		.align	1
 459              		.syntax unified
 460              		.thumb
 461              		.thumb_func
 462              		.fpu fpv4-sp-d16
 463              		.type	read_parameter_scalar, %function
 464              	read_parameter_scalar:
 465              		@ args = 4, pretend = 0, frame = 24
 466              		@ frame_needed = 1, uses_anonymous_args = 0
 467 0000 80B5     		push	{r7, lr}
 468 0002 88B0     		sub	sp, sp, #32
 469 0004 02AF     		add	r7, sp, #8
 470 0006 F860     		str	r0, [r7, #12]
 471 0008 B960     		str	r1, [r7, #8]
 472 000a 7A60     		str	r2, [r7, #4]
 473 000c 3B60     		str	r3, [r7]
 474 000e 07F11003 		add	r3, r7, #16
 475 0012 1946     		mov	r1, r3
 476 0014 B868     		ldr	r0, [r7, #8]
 477 0016 FFF7FEFF 		bl	get_float
 478 001a 0346     		mov	r3, r0
 479 001c 002B     		cmp	r3, #0
 480 001e 07D0     		beq	.L39
 481 0020 D7ED047A 		vldr.32	s15, [r7, #16]
 482 0024 B0EE670A 		vmov.f32	s0, s15
 483 0028 F868     		ldr	r0, [r7, #12]
 484 002a FFF7FEFF 		bl	parameter_scalar_set
 485 002e 14E0     		b	.L40
 486              	.L39:
 487 0030 FB68     		ldr	r3, [r7, #12]
 488 0032 1968     		ldr	r1, [r3]
 489 0034 3B68     		ldr	r3, [r7]
 490 0036 0B4A     		ldr	r2, .L43
 491 0038 386A     		ldr	r0, [r7, #32]
 492 003a 9847     		blx	r3
 493 003c FB68     		ldr	r3, [r7, #12]
 494 003e 1B68     		ldr	r3, [r3]
 495 0040 0093     		str	r3, [sp]
 496 0042 3B6A     		ldr	r3, [r7, #32]
 497 0044 3A68     		ldr	r2, [r7]
 498 0046 7968     		ldr	r1, [r7, #4]
 499 0048 B868     		ldr	r0, [r7, #8]
 500 004a FFF7FEFF 		bl	discard_msgpack_element
 501 004e 7861     		str	r0, [r7, #20]
ARM GAS  /var/folders/d2/nstgp4h54kz7g1l847x_b8wc0000gn/T//cc2KwmRg.s 			page 10


 502 0050 7B69     		ldr	r3, [r7, #20]
 503 0052 002B     		cmp	r3, #0
 504 0054 01D0     		beq	.L40
 505 0056 7B69     		ldr	r3, [r7, #20]
 506 0058 00E0     		b	.L42
 507              	.L40:
 508 005a 0023     		movs	r3, #0
 509              	.L42:
 510 005c 1846     		mov	r0, r3
 511 005e 1837     		adds	r7, r7, #24
 512 0060 BD46     		mov	sp, r7
 513              		@ sp needed
 514 0062 80BD     		pop	{r7, pc}
 515              	.L44:
 516              		.align	2
 517              	.L43:
 518 0064 2C000000 		.word	.LC2
 519              		.size	read_parameter_scalar, .-read_parameter_scalar
 520              		.section	.text.read_parameter_integer,"ax",%progbits
 521              		.align	1
 522              		.syntax unified
 523              		.thumb
 524              		.thumb_func
 525              		.fpu fpv4-sp-d16
 526              		.type	read_parameter_integer, %function
 527              	read_parameter_integer:
 528              		@ args = 4, pretend = 0, frame = 24
 529              		@ frame_needed = 1, uses_anonymous_args = 0
 530 0000 80B5     		push	{r7, lr}
 531 0002 88B0     		sub	sp, sp, #32
 532 0004 02AF     		add	r7, sp, #8
 533 0006 F860     		str	r0, [r7, #12]
 534 0008 B960     		str	r1, [r7, #8]
 535 000a 7A60     		str	r2, [r7, #4]
 536 000c 3B60     		str	r3, [r7]
 537 000e 07F11003 		add	r3, r7, #16
 538 0012 1946     		mov	r1, r3
 539 0014 B868     		ldr	r0, [r7, #8]
 540 0016 FFF7FEFF 		bl	get_int
 541 001a 0346     		mov	r3, r0
 542 001c 002B     		cmp	r3, #0
 543 001e 05D0     		beq	.L46
 544 0020 3B69     		ldr	r3, [r7, #16]
 545 0022 1946     		mov	r1, r3
 546 0024 F868     		ldr	r0, [r7, #12]
 547 0026 FFF7FEFF 		bl	parameter_integer_set
 548 002a 14E0     		b	.L47
 549              	.L46:
 550 002c FB68     		ldr	r3, [r7, #12]
 551 002e 1968     		ldr	r1, [r3]
 552 0030 3B68     		ldr	r3, [r7]
 553 0032 0B4A     		ldr	r2, .L50
 554 0034 386A     		ldr	r0, [r7, #32]
 555 0036 9847     		blx	r3
 556 0038 FB68     		ldr	r3, [r7, #12]
 557 003a 1B68     		ldr	r3, [r3]
 558 003c 0093     		str	r3, [sp]
ARM GAS  /var/folders/d2/nstgp4h54kz7g1l847x_b8wc0000gn/T//cc2KwmRg.s 			page 11


 559 003e 3B6A     		ldr	r3, [r7, #32]
 560 0040 3A68     		ldr	r2, [r7]
 561 0042 7968     		ldr	r1, [r7, #4]
 562 0044 B868     		ldr	r0, [r7, #8]
 563 0046 FFF7FEFF 		bl	discard_msgpack_element
 564 004a 7861     		str	r0, [r7, #20]
 565 004c 7B69     		ldr	r3, [r7, #20]
 566 004e 002B     		cmp	r3, #0
 567 0050 01D0     		beq	.L47
 568 0052 7B69     		ldr	r3, [r7, #20]
 569 0054 00E0     		b	.L49
 570              	.L47:
 571 0056 0023     		movs	r3, #0
 572              	.L49:
 573 0058 1846     		mov	r0, r3
 574 005a 1837     		adds	r7, r7, #24
 575 005c BD46     		mov	sp, r7
 576              		@ sp needed
 577 005e 80BD     		pop	{r7, pc}
 578              	.L51:
 579              		.align	2
 580              	.L50:
 581 0060 2C000000 		.word	.LC2
 582              		.size	read_parameter_integer, .-read_parameter_integer
 583              		.section	.text.read_parameter_boolean,"ax",%progbits
 584              		.align	1
 585              		.syntax unified
 586              		.thumb
 587              		.thumb_func
 588              		.fpu fpv4-sp-d16
 589              		.type	read_parameter_boolean, %function
 590              	read_parameter_boolean:
 591              		@ args = 4, pretend = 0, frame = 24
 592              		@ frame_needed = 1, uses_anonymous_args = 0
 593 0000 80B5     		push	{r7, lr}
 594 0002 88B0     		sub	sp, sp, #32
 595 0004 02AF     		add	r7, sp, #8
 596 0006 F860     		str	r0, [r7, #12]
 597 0008 B960     		str	r1, [r7, #8]
 598 000a 7A60     		str	r2, [r7, #4]
 599 000c 3B60     		str	r3, [r7]
 600 000e 07F11303 		add	r3, r7, #19
 601 0012 1946     		mov	r1, r3
 602 0014 B868     		ldr	r0, [r7, #8]
 603 0016 FFF7FEFF 		bl	get_bool
 604 001a 0346     		mov	r3, r0
 605 001c 002B     		cmp	r3, #0
 606 001e 05D0     		beq	.L53
 607 0020 FB7C     		ldrb	r3, [r7, #19]	@ zero_extendqisi2
 608 0022 1946     		mov	r1, r3
 609 0024 F868     		ldr	r0, [r7, #12]
 610 0026 FFF7FEFF 		bl	parameter_boolean_set
 611 002a 19E0     		b	.L54
 612              	.L53:
 613 002c FB68     		ldr	r3, [r7, #12]
 614 002e 1968     		ldr	r1, [r3]
 615 0030 3B68     		ldr	r3, [r7]
ARM GAS  /var/folders/d2/nstgp4h54kz7g1l847x_b8wc0000gn/T//cc2KwmRg.s 			page 12


 616 0032 0E4A     		ldr	r2, .L57
 617 0034 386A     		ldr	r0, [r7, #32]
 618 0036 9847     		blx	r3
 619 0038 FB68     		ldr	r3, [r7, #12]
 620 003a 1B68     		ldr	r3, [r3]
 621 003c 0093     		str	r3, [sp]
 622 003e 3B6A     		ldr	r3, [r7, #32]
 623 0040 3A68     		ldr	r2, [r7]
 624 0042 7968     		ldr	r1, [r7, #4]
 625 0044 B868     		ldr	r0, [r7, #8]
 626 0046 FFF7FEFF 		bl	discard_msgpack_element
 627 004a 7861     		str	r0, [r7, #20]
 628 004c 7B69     		ldr	r3, [r7, #20]
 629 004e 002B     		cmp	r3, #0
 630 0050 06D0     		beq	.L54
 631 0052 7B69     		ldr	r3, [r7, #20]
 632 0054 002B     		cmp	r3, #0
 633 0056 14BF     		ite	ne
 634 0058 0123     		movne	r3, #1
 635 005a 0023     		moveq	r3, #0
 636 005c DBB2     		uxtb	r3, r3
 637 005e 00E0     		b	.L56
 638              	.L54:
 639 0060 0023     		movs	r3, #0
 640              	.L56:
 641 0062 1846     		mov	r0, r3
 642 0064 1837     		adds	r7, r7, #24
 643 0066 BD46     		mov	sp, r7
 644              		@ sp needed
 645 0068 80BD     		pop	{r7, pc}
 646              	.L58:
 647 006a 00BF     		.align	2
 648              	.L57:
 649 006c 2C000000 		.word	.LC2
 650              		.size	read_parameter_boolean, .-read_parameter_boolean
 651              		.section	.rodata
 652 0043 00       		.align	2
 653              	.LC3:
 654 0044 7761726E 		.ascii	"warning: wrong vector dimension\000"
 654      696E673A 
 654      2077726F 
 654      6E672076 
 654      6563746F 
 655              		.align	2
 656              	.LC4:
 657 0064 7761726E 		.ascii	"warning: allocation failed\000"
 657      696E673A 
 657      20616C6C 
 657      6F636174 
 657      696F6E20 
 658              		.section	.text.read_parameter_vector,"ax",%progbits
 659              		.align	1
 660              		.syntax unified
 661              		.thumb
 662              		.thumb_func
 663              		.fpu fpv4-sp-d16
 664              		.type	read_parameter_vector, %function
ARM GAS  /var/folders/d2/nstgp4h54kz7g1l847x_b8wc0000gn/T//cc2KwmRg.s 			page 13


 665              	read_parameter_vector:
 666              		@ args = 4, pretend = 0, frame = 40
 667              		@ frame_needed = 1, uses_anonymous_args = 0
 668 0000 80B5     		push	{r7, lr}
 669 0002 8CB0     		sub	sp, sp, #48
 670 0004 02AF     		add	r7, sp, #8
 671 0006 F860     		str	r0, [r7, #12]
 672 0008 B960     		str	r1, [r7, #8]
 673 000a 7A60     		str	r2, [r7, #4]
 674 000c 3B60     		str	r3, [r7]
 675 000e 07F11003 		add	r3, r7, #16
 676 0012 1946     		mov	r1, r3
 677 0014 B868     		ldr	r0, [r7, #8]
 678 0016 FFF7FEFF 		bl	cmp_object_as_array
 679 001a 0346     		mov	r3, r0
 680 001c 002B     		cmp	r3, #0
 681 001e 56D0     		beq	.L60
 682 0020 FB68     		ldr	r3, [r7, #12]
 683 0022 DB8A     		ldrh	r3, [r3, #22]
 684 0024 1A46     		mov	r2, r3
 685 0026 3B69     		ldr	r3, [r7, #16]
 686 0028 9A42     		cmp	r2, r3
 687 002a 14D0     		beq	.L61
 688 002c FB68     		ldr	r3, [r7, #12]
 689 002e 1968     		ldr	r1, [r3]
 690 0030 3B68     		ldr	r3, [r7]
 691 0032 344A     		ldr	r2, .L67
 692 0034 386B     		ldr	r0, [r7, #48]
 693 0036 9847     		blx	r3
 694 0038 FB68     		ldr	r3, [r7, #12]
 695 003a 1B68     		ldr	r3, [r3]
 696 003c 0093     		str	r3, [sp]
 697 003e 3B6B     		ldr	r3, [r7, #48]
 698 0040 3A68     		ldr	r2, [r7]
 699 0042 7968     		ldr	r1, [r7, #4]
 700 0044 B868     		ldr	r0, [r7, #8]
 701 0046 FFF7FEFF 		bl	discard_msgpack_element
 702 004a 3862     		str	r0, [r7, #32]
 703 004c 3B6A     		ldr	r3, [r7, #32]
 704 004e 002B     		cmp	r3, #0
 705 0050 01D0     		beq	.L61
 706 0052 3B6A     		ldr	r3, [r7, #32]
 707 0054 51E0     		b	.L66
 708              	.L61:
 709 0056 3B69     		ldr	r3, [r7, #16]
 710 0058 9B00     		lsls	r3, r3, #2
 711 005a 1846     		mov	r0, r3
 712 005c FFF7FEFF 		bl	malloc
 713 0060 0346     		mov	r3, r0
 714 0062 FB61     		str	r3, [r7, #28]
 715 0064 FB69     		ldr	r3, [r7, #28]
 716 0066 002B     		cmp	r3, #0
 717 0068 14D1     		bne	.L63
 718 006a FB68     		ldr	r3, [r7, #12]
 719 006c 1968     		ldr	r1, [r3]
 720 006e 3B68     		ldr	r3, [r7]
 721 0070 254A     		ldr	r2, .L67+4
ARM GAS  /var/folders/d2/nstgp4h54kz7g1l847x_b8wc0000gn/T//cc2KwmRg.s 			page 14


 722 0072 386B     		ldr	r0, [r7, #48]
 723 0074 9847     		blx	r3
 724 0076 FB68     		ldr	r3, [r7, #12]
 725 0078 1B68     		ldr	r3, [r3]
 726 007a 0093     		str	r3, [sp]
 727 007c 3B6B     		ldr	r3, [r7, #48]
 728 007e 3A68     		ldr	r2, [r7]
 729 0080 7968     		ldr	r1, [r7, #4]
 730 0082 B868     		ldr	r0, [r7, #8]
 731 0084 FFF7FEFF 		bl	discard_msgpack_element
 732 0088 B861     		str	r0, [r7, #24]
 733 008a BB69     		ldr	r3, [r7, #24]
 734 008c 002B     		cmp	r3, #0
 735 008e 01D0     		beq	.L63
 736 0090 BB69     		ldr	r3, [r7, #24]
 737 0092 32E0     		b	.L66
 738              	.L63:
 739 0094 3B69     		ldr	r3, [r7, #16]
 740 0096 1A46     		mov	r2, r3
 741 0098 FB68     		ldr	r3, [r7, #12]
 742 009a 1B68     		ldr	r3, [r3]
 743 009c 0193     		str	r3, [sp, #4]
 744 009e 3B6B     		ldr	r3, [r7, #48]
 745 00a0 0093     		str	r3, [sp]
 746 00a2 3B68     		ldr	r3, [r7]
 747 00a4 F969     		ldr	r1, [r7, #28]
 748 00a6 7868     		ldr	r0, [r7, #4]
 749 00a8 FFF7FEFF 		bl	get_vector
 750 00ac 7861     		str	r0, [r7, #20]
 751 00ae 7B69     		ldr	r3, [r7, #20]
 752 00b0 002B     		cmp	r3, #0
 753 00b2 04D0     		beq	.L64
 754 00b4 F869     		ldr	r0, [r7, #28]
 755 00b6 FFF7FEFF 		bl	free
 756 00ba 7B69     		ldr	r3, [r7, #20]
 757 00bc 1DE0     		b	.L66
 758              	.L64:
 759 00be F969     		ldr	r1, [r7, #28]
 760 00c0 F868     		ldr	r0, [r7, #12]
 761 00c2 FFF7FEFF 		bl	parameter_vector_set
 762 00c6 F869     		ldr	r0, [r7, #28]
 763 00c8 FFF7FEFF 		bl	free
 764 00cc 14E0     		b	.L65
 765              	.L60:
 766 00ce FB68     		ldr	r3, [r7, #12]
 767 00d0 1968     		ldr	r1, [r3]
 768 00d2 3B68     		ldr	r3, [r7]
 769 00d4 0D4A     		ldr	r2, .L67+8
 770 00d6 386B     		ldr	r0, [r7, #48]
 771 00d8 9847     		blx	r3
 772 00da FB68     		ldr	r3, [r7, #12]
 773 00dc 1B68     		ldr	r3, [r3]
 774 00de 0093     		str	r3, [sp]
 775 00e0 3B6B     		ldr	r3, [r7, #48]
 776 00e2 3A68     		ldr	r2, [r7]
 777 00e4 7968     		ldr	r1, [r7, #4]
 778 00e6 B868     		ldr	r0, [r7, #8]
ARM GAS  /var/folders/d2/nstgp4h54kz7g1l847x_b8wc0000gn/T//cc2KwmRg.s 			page 15


 779 00e8 FFF7FEFF 		bl	discard_msgpack_element
 780 00ec 7862     		str	r0, [r7, #36]
 781 00ee 7B6A     		ldr	r3, [r7, #36]
 782 00f0 002B     		cmp	r3, #0
 783 00f2 01D0     		beq	.L65
 784 00f4 7B6A     		ldr	r3, [r7, #36]
 785 00f6 00E0     		b	.L66
 786              	.L65:
 787 00f8 0023     		movs	r3, #0
 788              	.L66:
 789 00fa 1846     		mov	r0, r3
 790 00fc 2837     		adds	r7, r7, #40
 791 00fe BD46     		mov	sp, r7
 792              		@ sp needed
 793 0100 80BD     		pop	{r7, pc}
 794              	.L68:
 795 0102 00BF     		.align	2
 796              	.L67:
 797 0104 44000000 		.word	.LC3
 798 0108 64000000 		.word	.LC4
 799 010c 2C000000 		.word	.LC2
 800              		.size	read_parameter_vector, .-read_parameter_vector
 801              		.section	.rodata
 802 007f 00       		.align	2
 803              	.LC5:
 804 0080 7761726E 		.ascii	"warning: vector dimension too big\000"
 804      696E673A 
 804      20766563 
 804      746F7220 
 804      64696D65 
 805              		.section	.text.read_parameter_var_vector,"ax",%progbits
 806              		.align	1
 807              		.syntax unified
 808              		.thumb
 809              		.thumb_func
 810              		.fpu fpv4-sp-d16
 811              		.type	read_parameter_var_vector, %function
 812              	read_parameter_var_vector:
 813              		@ args = 4, pretend = 0, frame = 40
 814              		@ frame_needed = 1, uses_anonymous_args = 0
 815 0000 80B5     		push	{r7, lr}
 816 0002 8CB0     		sub	sp, sp, #48
 817 0004 02AF     		add	r7, sp, #8
 818 0006 F860     		str	r0, [r7, #12]
 819 0008 B960     		str	r1, [r7, #8]
 820 000a 7A60     		str	r2, [r7, #4]
 821 000c 3B60     		str	r3, [r7]
 822 000e 07F11003 		add	r3, r7, #16
 823 0012 1946     		mov	r1, r3
 824 0014 B868     		ldr	r0, [r7, #8]
 825 0016 FFF7FEFF 		bl	cmp_object_as_array
 826 001a 0346     		mov	r3, r0
 827 001c 002B     		cmp	r3, #0
 828 001e 59D0     		beq	.L70
 829 0020 FB68     		ldr	r3, [r7, #12]
 830 0022 9B8A     		ldrh	r3, [r3, #20]
 831 0024 1A46     		mov	r2, r3
ARM GAS  /var/folders/d2/nstgp4h54kz7g1l847x_b8wc0000gn/T//cc2KwmRg.s 			page 16


 832 0026 3B69     		ldr	r3, [r7, #16]
 833 0028 9A42     		cmp	r2, r3
 834 002a 14D2     		bcs	.L71
 835 002c FB68     		ldr	r3, [r7, #12]
 836 002e 1968     		ldr	r1, [r3]
 837 0030 3B68     		ldr	r3, [r7]
 838 0032 354A     		ldr	r2, .L77
 839 0034 386B     		ldr	r0, [r7, #48]
 840 0036 9847     		blx	r3
 841 0038 FB68     		ldr	r3, [r7, #12]
 842 003a 1B68     		ldr	r3, [r3]
 843 003c 0093     		str	r3, [sp]
 844 003e 3B6B     		ldr	r3, [r7, #48]
 845 0040 3A68     		ldr	r2, [r7]
 846 0042 7968     		ldr	r1, [r7, #4]
 847 0044 B868     		ldr	r0, [r7, #8]
 848 0046 FFF7FEFF 		bl	discard_msgpack_element
 849 004a 3862     		str	r0, [r7, #32]
 850 004c 3B6A     		ldr	r3, [r7, #32]
 851 004e 002B     		cmp	r3, #0
 852 0050 01D0     		beq	.L71
 853 0052 3B6A     		ldr	r3, [r7, #32]
 854 0054 54E0     		b	.L76
 855              	.L71:
 856 0056 3B69     		ldr	r3, [r7, #16]
 857 0058 9B00     		lsls	r3, r3, #2
 858 005a 1846     		mov	r0, r3
 859 005c FFF7FEFF 		bl	malloc
 860 0060 0346     		mov	r3, r0
 861 0062 FB61     		str	r3, [r7, #28]
 862 0064 FB69     		ldr	r3, [r7, #28]
 863 0066 002B     		cmp	r3, #0
 864 0068 14D1     		bne	.L73
 865 006a FB68     		ldr	r3, [r7, #12]
 866 006c 1968     		ldr	r1, [r3]
 867 006e 3B68     		ldr	r3, [r7]
 868 0070 264A     		ldr	r2, .L77+4
 869 0072 386B     		ldr	r0, [r7, #48]
 870 0074 9847     		blx	r3
 871 0076 FB68     		ldr	r3, [r7, #12]
 872 0078 1B68     		ldr	r3, [r3]
 873 007a 0093     		str	r3, [sp]
 874 007c 3B6B     		ldr	r3, [r7, #48]
 875 007e 3A68     		ldr	r2, [r7]
 876 0080 7968     		ldr	r1, [r7, #4]
 877 0082 B868     		ldr	r0, [r7, #8]
 878 0084 FFF7FEFF 		bl	discard_msgpack_element
 879 0088 B861     		str	r0, [r7, #24]
 880 008a BB69     		ldr	r3, [r7, #24]
 881 008c 002B     		cmp	r3, #0
 882 008e 01D0     		beq	.L73
 883 0090 BB69     		ldr	r3, [r7, #24]
 884 0092 35E0     		b	.L76
 885              	.L73:
 886 0094 3B69     		ldr	r3, [r7, #16]
 887 0096 1A46     		mov	r2, r3
 888 0098 FB68     		ldr	r3, [r7, #12]
ARM GAS  /var/folders/d2/nstgp4h54kz7g1l847x_b8wc0000gn/T//cc2KwmRg.s 			page 17


 889 009a 1B68     		ldr	r3, [r3]
 890 009c 0193     		str	r3, [sp, #4]
 891 009e 3B6B     		ldr	r3, [r7, #48]
 892 00a0 0093     		str	r3, [sp]
 893 00a2 3B68     		ldr	r3, [r7]
 894 00a4 F969     		ldr	r1, [r7, #28]
 895 00a6 7868     		ldr	r0, [r7, #4]
 896 00a8 FFF7FEFF 		bl	get_vector
 897 00ac 7861     		str	r0, [r7, #20]
 898 00ae 7B69     		ldr	r3, [r7, #20]
 899 00b0 002B     		cmp	r3, #0
 900 00b2 04D0     		beq	.L74
 901 00b4 F869     		ldr	r0, [r7, #28]
 902 00b6 FFF7FEFF 		bl	free
 903 00ba 7B69     		ldr	r3, [r7, #20]
 904 00bc 20E0     		b	.L76
 905              	.L74:
 906 00be 3B69     		ldr	r3, [r7, #16]
 907 00c0 9BB2     		uxth	r3, r3
 908 00c2 1A46     		mov	r2, r3
 909 00c4 F969     		ldr	r1, [r7, #28]
 910 00c6 F868     		ldr	r0, [r7, #12]
 911 00c8 FFF7FEFF 		bl	parameter_variable_vector_set
 912 00cc F869     		ldr	r0, [r7, #28]
 913 00ce FFF7FEFF 		bl	free
 914 00d2 14E0     		b	.L75
 915              	.L70:
 916 00d4 FB68     		ldr	r3, [r7, #12]
 917 00d6 1968     		ldr	r1, [r3]
 918 00d8 3B68     		ldr	r3, [r7]
 919 00da 0D4A     		ldr	r2, .L77+8
 920 00dc 386B     		ldr	r0, [r7, #48]
 921 00de 9847     		blx	r3
 922 00e0 FB68     		ldr	r3, [r7, #12]
 923 00e2 1B68     		ldr	r3, [r3]
 924 00e4 0093     		str	r3, [sp]
 925 00e6 3B6B     		ldr	r3, [r7, #48]
 926 00e8 3A68     		ldr	r2, [r7]
 927 00ea 7968     		ldr	r1, [r7, #4]
 928 00ec B868     		ldr	r0, [r7, #8]
 929 00ee FFF7FEFF 		bl	discard_msgpack_element
 930 00f2 7862     		str	r0, [r7, #36]
 931 00f4 7B6A     		ldr	r3, [r7, #36]
 932 00f6 002B     		cmp	r3, #0
 933 00f8 01D0     		beq	.L75
 934 00fa 7B6A     		ldr	r3, [r7, #36]
 935 00fc 00E0     		b	.L76
 936              	.L75:
 937 00fe 0023     		movs	r3, #0
 938              	.L76:
 939 0100 1846     		mov	r0, r3
 940 0102 2837     		adds	r7, r7, #40
 941 0104 BD46     		mov	sp, r7
 942              		@ sp needed
 943 0106 80BD     		pop	{r7, pc}
 944              	.L78:
 945              		.align	2
ARM GAS  /var/folders/d2/nstgp4h54kz7g1l847x_b8wc0000gn/T//cc2KwmRg.s 			page 18


 946              	.L77:
 947 0108 80000000 		.word	.LC5
 948 010c 64000000 		.word	.LC4
 949 0110 2C000000 		.word	.LC2
 950              		.size	read_parameter_var_vector, .-read_parameter_var_vector
 951              		.section	.rodata
 952 00a2 0000     		.align	2
 953              	.LC6:
 954 00a4 7761726E 		.ascii	"warning: string is too long\000"
 954      696E673A 
 954      20737472 
 954      696E6720 
 954      69732074 
 955              		.align	2
 956              	.LC7:
 957 00c0 72656164 		.ascii	"read error\000"
 957      20657272 
 957      6F7200
 958              		.section	.text.read_parameter_string,"ax",%progbits
 959              		.align	1
 960              		.syntax unified
 961              		.thumb
 962              		.thumb_func
 963              		.fpu fpv4-sp-d16
 964              		.type	read_parameter_string, %function
 965              	read_parameter_string:
 966              		@ args = 4, pretend = 0, frame = 24
 967              		@ frame_needed = 1, uses_anonymous_args = 0
 968 0000 80B5     		push	{r7, lr}
 969 0002 88B0     		sub	sp, sp, #32
 970 0004 02AF     		add	r7, sp, #8
 971 0006 F860     		str	r0, [r7, #12]
 972 0008 B960     		str	r1, [r7, #8]
 973 000a 7A60     		str	r2, [r7, #4]
 974 000c 3B60     		str	r3, [r7]
 975 000e 07F11003 		add	r3, r7, #16
 976 0012 1946     		mov	r1, r3
 977 0014 B868     		ldr	r0, [r7, #8]
 978 0016 FFF7FEFF 		bl	cmp_object_as_str
 979 001a 0346     		mov	r3, r0
 980 001c 83F00103 		eor	r3, r3, #1
 981 0020 DBB2     		uxtb	r3, r3
 982 0022 002B     		cmp	r3, #0
 983 0024 10D0     		beq	.L80
 984 0026 FB68     		ldr	r3, [r7, #12]
 985 0028 1968     		ldr	r1, [r3]
 986 002a 3B68     		ldr	r3, [r7]
 987 002c 324A     		ldr	r2, .L86
 988 002e 386A     		ldr	r0, [r7, #32]
 989 0030 9847     		blx	r3
 990 0032 FB68     		ldr	r3, [r7, #12]
 991 0034 1B68     		ldr	r3, [r3]
 992 0036 0093     		str	r3, [sp]
 993 0038 3B6A     		ldr	r3, [r7, #32]
 994 003a 3A68     		ldr	r2, [r7]
 995 003c 7968     		ldr	r1, [r7, #4]
 996 003e B868     		ldr	r0, [r7, #8]
ARM GAS  /var/folders/d2/nstgp4h54kz7g1l847x_b8wc0000gn/T//cc2KwmRg.s 			page 19


 997 0040 FFF7FEFF 		bl	discard_msgpack_element
 998 0044 0346     		mov	r3, r0
 999 0046 53E0     		b	.L85
 1000              	.L80:
 1001 0048 FB68     		ldr	r3, [r7, #12]
 1002 004a 9B8A     		ldrh	r3, [r3, #20]
 1003 004c 1A46     		mov	r2, r3
 1004 004e 3B69     		ldr	r3, [r7, #16]
 1005 0050 9A42     		cmp	r2, r3
 1006 0052 10D8     		bhi	.L82
 1007 0054 FB68     		ldr	r3, [r7, #12]
 1008 0056 1968     		ldr	r1, [r3]
 1009 0058 3B68     		ldr	r3, [r7]
 1010 005a 284A     		ldr	r2, .L86+4
 1011 005c 386A     		ldr	r0, [r7, #32]
 1012 005e 9847     		blx	r3
 1013 0060 FB68     		ldr	r3, [r7, #12]
 1014 0062 1B68     		ldr	r3, [r3]
 1015 0064 0093     		str	r3, [sp]
 1016 0066 3B6A     		ldr	r3, [r7, #32]
 1017 0068 3A68     		ldr	r2, [r7]
 1018 006a 7968     		ldr	r1, [r7, #4]
 1019 006c B868     		ldr	r0, [r7, #8]
 1020 006e FFF7FEFF 		bl	discard_msgpack_element
 1021 0072 0346     		mov	r3, r0
 1022 0074 3CE0     		b	.L85
 1023              	.L82:
 1024 0076 3B69     		ldr	r3, [r7, #16]
 1025 0078 1846     		mov	r0, r3
 1026 007a FFF7FEFF 		bl	malloc
 1027 007e 0346     		mov	r3, r0
 1028 0080 7B61     		str	r3, [r7, #20]
 1029 0082 7B69     		ldr	r3, [r7, #20]
 1030 0084 002B     		cmp	r3, #0
 1031 0086 10D1     		bne	.L83
 1032 0088 FB68     		ldr	r3, [r7, #12]
 1033 008a 1968     		ldr	r1, [r3]
 1034 008c 3B68     		ldr	r3, [r7]
 1035 008e 1C4A     		ldr	r2, .L86+8
 1036 0090 386A     		ldr	r0, [r7, #32]
 1037 0092 9847     		blx	r3
 1038 0094 FB68     		ldr	r3, [r7, #12]
 1039 0096 1B68     		ldr	r3, [r3]
 1040 0098 0093     		str	r3, [sp]
 1041 009a 3B6A     		ldr	r3, [r7, #32]
 1042 009c 3A68     		ldr	r2, [r7]
 1043 009e 7968     		ldr	r1, [r7, #4]
 1044 00a0 B868     		ldr	r0, [r7, #8]
 1045 00a2 FFF7FEFF 		bl	discard_msgpack_element
 1046 00a6 0346     		mov	r3, r0
 1047 00a8 22E0     		b	.L85
 1048              	.L83:
 1049 00aa 7B68     		ldr	r3, [r7, #4]
 1050 00ac 9B68     		ldr	r3, [r3, #8]
 1051 00ae 3A69     		ldr	r2, [r7, #16]
 1052 00b0 7969     		ldr	r1, [r7, #20]
 1053 00b2 7868     		ldr	r0, [r7, #4]
ARM GAS  /var/folders/d2/nstgp4h54kz7g1l847x_b8wc0000gn/T//cc2KwmRg.s 			page 20


 1054 00b4 9847     		blx	r3
 1055 00b6 0346     		mov	r3, r0
 1056 00b8 83F00103 		eor	r3, r3, #1
 1057 00bc DBB2     		uxtb	r3, r3
 1058 00be 002B     		cmp	r3, #0
 1059 00c0 0BD0     		beq	.L84
 1060 00c2 FB68     		ldr	r3, [r7, #12]
 1061 00c4 1968     		ldr	r1, [r3]
 1062 00c6 3B68     		ldr	r3, [r7]
 1063 00c8 0E4A     		ldr	r2, .L86+12
 1064 00ca 386A     		ldr	r0, [r7, #32]
 1065 00cc 9847     		blx	r3
 1066 00ce 7869     		ldr	r0, [r7, #20]
 1067 00d0 FFF7FEFF 		bl	free
 1068 00d4 4FF0FF33 		mov	r3, #-1
 1069 00d8 0AE0     		b	.L85
 1070              	.L84:
 1071 00da 3B69     		ldr	r3, [r7, #16]
 1072 00dc 9BB2     		uxth	r3, r3
 1073 00de 1A46     		mov	r2, r3
 1074 00e0 7969     		ldr	r1, [r7, #20]
 1075 00e2 F868     		ldr	r0, [r7, #12]
 1076 00e4 FFF7FEFF 		bl	parameter_string_set_w_len
 1077 00e8 7869     		ldr	r0, [r7, #20]
 1078 00ea FFF7FEFF 		bl	free
 1079 00ee 0023     		movs	r3, #0
 1080              	.L85:
 1081 00f0 1846     		mov	r0, r3
 1082 00f2 1837     		adds	r7, r7, #24
 1083 00f4 BD46     		mov	sp, r7
 1084              		@ sp needed
 1085 00f6 80BD     		pop	{r7, pc}
 1086              	.L87:
 1087              		.align	2
 1088              	.L86:
 1089 00f8 2C000000 		.word	.LC2
 1090 00fc A4000000 		.word	.LC6
 1091 0100 64000000 		.word	.LC4
 1092 0104 C0000000 		.word	.LC7
 1093              		.size	read_parameter_string, .-read_parameter_string
 1094              		.section	.rodata
 1095 00cb 00       		.align	2
 1096              	.LC8:
 1097 00cc 544F444F 		.ascii	"TODO not implemented yet\000"
 1097      206E6F74 
 1097      20696D70 
 1097      6C656D65 
 1097      6E746564 
 1098              		.section	.text.read_parameter,"ax",%progbits
 1099              		.align	1
 1100              		.syntax unified
 1101              		.thumb
 1102              		.thumb_func
 1103              		.fpu fpv4-sp-d16
 1104              		.type	read_parameter, %function
 1105              	read_parameter:
 1106              		@ args = 4, pretend = 0, frame = 16
ARM GAS  /var/folders/d2/nstgp4h54kz7g1l847x_b8wc0000gn/T//cc2KwmRg.s 			page 21


 1107              		@ frame_needed = 1, uses_anonymous_args = 0
 1108 0000 80B5     		push	{r7, lr}
 1109 0002 86B0     		sub	sp, sp, #24
 1110 0004 02AF     		add	r7, sp, #8
 1111 0006 F860     		str	r0, [r7, #12]
 1112 0008 B960     		str	r1, [r7, #8]
 1113 000a 7A60     		str	r2, [r7, #4]
 1114 000c 3B60     		str	r3, [r7]
 1115 000e FB68     		ldr	r3, [r7, #12]
 1116 0010 9B7B     		ldrb	r3, [r3, #14]	@ zero_extendqisi2
 1117 0012 013B     		subs	r3, r3, #1
 1118 0014 052B     		cmp	r3, #5
 1119 0016 4BD8     		bhi	.L89
 1120 0018 01A2     		adr	r2, .L91
 1121 001a 52F823F0 		ldr	pc, [r2, r3, lsl #2]
 1122 001e 00BF     		.p2align 2
 1123              	.L91:
 1124 0020 39000000 		.word	.L90+1
 1125 0024 61000000 		.word	.L92+1
 1126 0028 4D000000 		.word	.L93+1
 1127 002c 9D000000 		.word	.L94+1
 1128 0030 75000000 		.word	.L95+1
 1129 0034 89000000 		.word	.L96+1
 1130              		.p2align 1
 1131              	.L90:
 1132 0038 BB69     		ldr	r3, [r7, #24]
 1133 003a 0093     		str	r3, [sp]
 1134 003c 3B68     		ldr	r3, [r7]
 1135 003e 7A68     		ldr	r2, [r7, #4]
 1136 0040 B968     		ldr	r1, [r7, #8]
 1137 0042 F868     		ldr	r0, [r7, #12]
 1138 0044 FFF7FEFF 		bl	read_parameter_scalar
 1139 0048 0346     		mov	r3, r0
 1140 004a 41E0     		b	.L97
 1141              	.L93:
 1142 004c BB69     		ldr	r3, [r7, #24]
 1143 004e 0093     		str	r3, [sp]
 1144 0050 3B68     		ldr	r3, [r7]
 1145 0052 7A68     		ldr	r2, [r7, #4]
 1146 0054 B968     		ldr	r1, [r7, #8]
 1147 0056 F868     		ldr	r0, [r7, #12]
 1148 0058 FFF7FEFF 		bl	read_parameter_integer
 1149 005c 0346     		mov	r3, r0
 1150 005e 37E0     		b	.L97
 1151              	.L92:
 1152 0060 BB69     		ldr	r3, [r7, #24]
 1153 0062 0093     		str	r3, [sp]
 1154 0064 3B68     		ldr	r3, [r7]
 1155 0066 7A68     		ldr	r2, [r7, #4]
 1156 0068 B968     		ldr	r1, [r7, #8]
 1157 006a F868     		ldr	r0, [r7, #12]
 1158 006c FFF7FEFF 		bl	read_parameter_boolean
 1159 0070 0346     		mov	r3, r0
 1160 0072 2DE0     		b	.L97
 1161              	.L95:
 1162 0074 BB69     		ldr	r3, [r7, #24]
 1163 0076 0093     		str	r3, [sp]
ARM GAS  /var/folders/d2/nstgp4h54kz7g1l847x_b8wc0000gn/T//cc2KwmRg.s 			page 22


 1164 0078 3B68     		ldr	r3, [r7]
 1165 007a 7A68     		ldr	r2, [r7, #4]
 1166 007c B968     		ldr	r1, [r7, #8]
 1167 007e F868     		ldr	r0, [r7, #12]
 1168 0080 FFF7FEFF 		bl	read_parameter_vector
 1169 0084 0346     		mov	r3, r0
 1170 0086 23E0     		b	.L97
 1171              	.L96:
 1172 0088 BB69     		ldr	r3, [r7, #24]
 1173 008a 0093     		str	r3, [sp]
 1174 008c 3B68     		ldr	r3, [r7]
 1175 008e 7A68     		ldr	r2, [r7, #4]
 1176 0090 B968     		ldr	r1, [r7, #8]
 1177 0092 F868     		ldr	r0, [r7, #12]
 1178 0094 FFF7FEFF 		bl	read_parameter_var_vector
 1179 0098 0346     		mov	r3, r0
 1180 009a 19E0     		b	.L97
 1181              	.L94:
 1182 009c BB69     		ldr	r3, [r7, #24]
 1183 009e 0093     		str	r3, [sp]
 1184 00a0 3B68     		ldr	r3, [r7]
 1185 00a2 7A68     		ldr	r2, [r7, #4]
 1186 00a4 B968     		ldr	r1, [r7, #8]
 1187 00a6 F868     		ldr	r0, [r7, #12]
 1188 00a8 FFF7FEFF 		bl	read_parameter_string
 1189 00ac 0346     		mov	r3, r0
 1190 00ae 0FE0     		b	.L97
 1191              	.L89:
 1192 00b0 FB68     		ldr	r3, [r7, #12]
 1193 00b2 1968     		ldr	r1, [r3]
 1194 00b4 3B68     		ldr	r3, [r7]
 1195 00b6 084A     		ldr	r2, .L98
 1196 00b8 B869     		ldr	r0, [r7, #24]
 1197 00ba 9847     		blx	r3
 1198 00bc FB68     		ldr	r3, [r7, #12]
 1199 00be 1B68     		ldr	r3, [r3]
 1200 00c0 0093     		str	r3, [sp]
 1201 00c2 BB69     		ldr	r3, [r7, #24]
 1202 00c4 3A68     		ldr	r2, [r7]
 1203 00c6 7968     		ldr	r1, [r7, #4]
 1204 00c8 B868     		ldr	r0, [r7, #8]
 1205 00ca FFF7FEFF 		bl	discard_msgpack_element
 1206 00ce 0346     		mov	r3, r0
 1207              	.L97:
 1208 00d0 1846     		mov	r0, r3
 1209 00d2 1037     		adds	r7, r7, #16
 1210 00d4 BD46     		mov	sp, r7
 1211              		@ sp needed
 1212 00d6 80BD     		pop	{r7, pc}
 1213              	.L99:
 1214              		.align	2
 1215              	.L98:
 1216 00d8 CC000000 		.word	.LC8
 1217              		.size	read_parameter, .-read_parameter
 1218              		.section	.rodata
 1219 00e5 000000   		.align	2
 1220              	.LC9:
ARM GAS  /var/folders/d2/nstgp4h54kz7g1l847x_b8wc0000gn/T//cc2KwmRg.s 			page 23


 1221 00e8 636F756C 		.ascii	"could not read id\000"
 1221      64206E6F 
 1221      74207265 
 1221      61642069 
 1221      6400
 1222 00fa 0000     		.align	2
 1223              	.LC10:
 1224 00fc 616C6C6F 		.ascii	"allocation failed\000"
 1224      63617469 
 1224      6F6E2066 
 1224      61696C65 
 1224      6400
 1225 010e 0000     		.align	2
 1226              	.LC11:
 1227 0110 636F756C 		.ascii	"could not read value\000"
 1227      64206E6F 
 1227      74207265 
 1227      61642076 
 1227      616C7565 
 1228 0125 000000   		.align	2
 1229              	.LC12:
 1230 0128 7761726E 		.ascii	"warning: namespace doesn't exist\000"
 1230      696E673A 
 1230      206E616D 
 1230      65737061 
 1230      63652064 
 1231 0149 000000   		.align	2
 1232              	.LC13:
 1233 014c 7761726E 		.ascii	"warning: parameter doesn't exist\000"
 1233      696E673A 
 1233      20706172 
 1233      616D6574 
 1233      65722064 
 1234              		.section	.text.read_namespace,"ax",%progbits
 1235              		.align	1
 1236              		.syntax unified
 1237              		.thumb
 1238              		.thumb_func
 1239              		.fpu fpv4-sp-d16
 1240              		.type	read_namespace, %function
 1241              	read_namespace:
 1242              		@ args = 4, pretend = 0, frame = 80
 1243              		@ frame_needed = 1, uses_anonymous_args = 0
 1244 0000 80B5     		push	{r7, lr}
 1245 0002 96B0     		sub	sp, sp, #88
 1246 0004 02AF     		add	r7, sp, #8
 1247 0006 F860     		str	r0, [r7, #12]
 1248 0008 B960     		str	r1, [r7, #8]
 1249 000a 7A60     		str	r2, [r7, #4]
 1250 000c 3B60     		str	r3, [r7]
 1251 000e 0023     		movs	r3, #0
 1252 0010 FB64     		str	r3, [r7, #76]
 1253 0012 D0E0     		b	.L101
 1254              	.L117:
 1255 0014 07F12C03 		add	r3, r7, #44
 1256 0018 1946     		mov	r1, r3
 1257 001a 7868     		ldr	r0, [r7, #4]
ARM GAS  /var/folders/d2/nstgp4h54kz7g1l847x_b8wc0000gn/T//cc2KwmRg.s 			page 24


 1258 001c FFF7FEFF 		bl	cmp_read_str_size
 1259 0020 0346     		mov	r3, r0
 1260 0022 83F00103 		eor	r3, r3, #1
 1261 0026 DBB2     		uxtb	r3, r3
 1262 0028 002B     		cmp	r3, #0
 1263 002a 07D0     		beq	.L102
 1264 002c 3B68     		ldr	r3, [r7]
 1265 002e 674A     		ldr	r2, .L118
 1266 0030 0021     		movs	r1, #0
 1267 0032 B86D     		ldr	r0, [r7, #88]
 1268 0034 9847     		blx	r3
 1269 0036 4FF0FF33 		mov	r3, #-1
 1270 003a C2E0     		b	.L116
 1271              	.L102:
 1272 003c FB6A     		ldr	r3, [r7, #44]
 1273 003e 0133     		adds	r3, r3, #1
 1274 0040 1846     		mov	r0, r3
 1275 0042 FFF7FEFF 		bl	malloc
 1276 0046 0346     		mov	r3, r0
 1277 0048 BB64     		str	r3, [r7, #72]
 1278 004a BB6C     		ldr	r3, [r7, #72]
 1279 004c 002B     		cmp	r3, #0
 1280 004e 07D1     		bne	.L104
 1281 0050 3B68     		ldr	r3, [r7]
 1282 0052 5F4A     		ldr	r2, .L118+4
 1283 0054 0021     		movs	r1, #0
 1284 0056 B86D     		ldr	r0, [r7, #88]
 1285 0058 9847     		blx	r3
 1286 005a 4FF0FF33 		mov	r3, #-1
 1287 005e B0E0     		b	.L116
 1288              	.L104:
 1289 0060 7B68     		ldr	r3, [r7, #4]
 1290 0062 9B68     		ldr	r3, [r3, #8]
 1291 0064 FA6A     		ldr	r2, [r7, #44]
 1292 0066 B96C     		ldr	r1, [r7, #72]
 1293 0068 7868     		ldr	r0, [r7, #4]
 1294 006a 9847     		blx	r3
 1295 006c 0346     		mov	r3, r0
 1296 006e 83F00103 		eor	r3, r3, #1
 1297 0072 DBB2     		uxtb	r3, r3
 1298 0074 002B     		cmp	r3, #0
 1299 0076 0AD0     		beq	.L105
 1300 0078 3B68     		ldr	r3, [r7]
 1301 007a 544A     		ldr	r2, .L118
 1302 007c 0021     		movs	r1, #0
 1303 007e B86D     		ldr	r0, [r7, #88]
 1304 0080 9847     		blx	r3
 1305 0082 B86C     		ldr	r0, [r7, #72]
 1306 0084 FFF7FEFF 		bl	free
 1307 0088 4FF0FF33 		mov	r3, #-1
 1308 008c 99E0     		b	.L116
 1309              	.L105:
 1310 008e FB6A     		ldr	r3, [r7, #44]
 1311 0090 BA6C     		ldr	r2, [r7, #72]
 1312 0092 1344     		add	r3, r3, r2
 1313 0094 0022     		movs	r2, #0
 1314 0096 1A70     		strb	r2, [r3]
ARM GAS  /var/folders/d2/nstgp4h54kz7g1l847x_b8wc0000gn/T//cc2KwmRg.s 			page 25


 1315 0098 07F11803 		add	r3, r7, #24
 1316 009c 1946     		mov	r1, r3
 1317 009e 7868     		ldr	r0, [r7, #4]
 1318 00a0 FFF7FEFF 		bl	cmp_read_object
 1319 00a4 0346     		mov	r3, r0
 1320 00a6 83F00103 		eor	r3, r3, #1
 1321 00aa DBB2     		uxtb	r3, r3
 1322 00ac 002B     		cmp	r3, #0
 1323 00ae 0AD0     		beq	.L106
 1324 00b0 3B68     		ldr	r3, [r7]
 1325 00b2 484A     		ldr	r2, .L118+8
 1326 00b4 B96C     		ldr	r1, [r7, #72]
 1327 00b6 B86D     		ldr	r0, [r7, #88]
 1328 00b8 9847     		blx	r3
 1329 00ba B86C     		ldr	r0, [r7, #72]
 1330 00bc FFF7FEFF 		bl	free
 1331 00c0 4FF0FF33 		mov	r3, #-1
 1332 00c4 7DE0     		b	.L116
 1333              	.L106:
 1334 00c6 07F11803 		add	r3, r7, #24
 1335 00ca 1846     		mov	r0, r3
 1336 00cc FFF7FEFF 		bl	cmp_object_is_map
 1337 00d0 0346     		mov	r3, r0
 1338 00d2 002B     		cmp	r3, #0
 1339 00d4 39D0     		beq	.L107
 1340 00d6 FB6A     		ldr	r3, [r7, #44]
 1341 00d8 1A46     		mov	r2, r3
 1342 00da B96C     		ldr	r1, [r7, #72]
 1343 00dc F868     		ldr	r0, [r7, #12]
 1344 00de FFF7FEFF 		bl	_parameter_namespace_find_w_id_len
 1345 00e2 B863     		str	r0, [r7, #56]
 1346 00e4 BB6B     		ldr	r3, [r7, #56]
 1347 00e6 002B     		cmp	r3, #0
 1348 00e8 04D1     		bne	.L108
 1349 00ea 3B68     		ldr	r3, [r7]
 1350 00ec 3A4A     		ldr	r2, .L118+12
 1351 00ee B96C     		ldr	r1, [r7, #72]
 1352 00f0 B86D     		ldr	r0, [r7, #88]
 1353 00f2 9847     		blx	r3
 1354              	.L108:
 1355 00f4 B86C     		ldr	r0, [r7, #72]
 1356 00f6 FFF7FEFF 		bl	free
 1357 00fa BB6B     		ldr	r3, [r7, #56]
 1358 00fc 002B     		cmp	r3, #0
 1359 00fe 15D0     		beq	.L109
 1360 0100 07F11402 		add	r2, r7, #20
 1361 0104 07F11803 		add	r3, r7, #24
 1362 0108 1146     		mov	r1, r2
 1363 010a 1846     		mov	r0, r3
 1364 010c FFF7FEFF 		bl	cmp_object_as_map
 1365 0110 7969     		ldr	r1, [r7, #20]
 1366 0112 BB6D     		ldr	r3, [r7, #88]
 1367 0114 0093     		str	r3, [sp]
 1368 0116 3B68     		ldr	r3, [r7]
 1369 0118 7A68     		ldr	r2, [r7, #4]
 1370 011a B86B     		ldr	r0, [r7, #56]
 1371 011c FFF770FF 		bl	read_namespace
ARM GAS  /var/folders/d2/nstgp4h54kz7g1l847x_b8wc0000gn/T//cc2KwmRg.s 			page 26


 1372 0120 3863     		str	r0, [r7, #48]
 1373 0122 3B6B     		ldr	r3, [r7, #48]
 1374 0124 002B     		cmp	r3, #0
 1375 0126 43D0     		beq	.L112
 1376 0128 3B6B     		ldr	r3, [r7, #48]
 1377 012a 4AE0     		b	.L116
 1378              	.L109:
 1379 012c 07F11800 		add	r0, r7, #24
 1380 0130 0023     		movs	r3, #0
 1381 0132 0093     		str	r3, [sp]
 1382 0134 BB6D     		ldr	r3, [r7, #88]
 1383 0136 3A68     		ldr	r2, [r7]
 1384 0138 7968     		ldr	r1, [r7, #4]
 1385 013a FFF7FEFF 		bl	discard_msgpack_element
 1386 013e 7863     		str	r0, [r7, #52]
 1387 0140 7B6B     		ldr	r3, [r7, #52]
 1388 0142 002B     		cmp	r3, #0
 1389 0144 34D0     		beq	.L112
 1390 0146 7B6B     		ldr	r3, [r7, #52]
 1391 0148 3BE0     		b	.L116
 1392              	.L107:
 1393 014a FB6A     		ldr	r3, [r7, #44]
 1394 014c 1A46     		mov	r2, r3
 1395 014e B96C     		ldr	r1, [r7, #72]
 1396 0150 F868     		ldr	r0, [r7, #12]
 1397 0152 FFF7FEFF 		bl	_parameter_find_w_id_len
 1398 0156 7864     		str	r0, [r7, #68]
 1399 0158 7B6C     		ldr	r3, [r7, #68]
 1400 015a 002B     		cmp	r3, #0
 1401 015c 04D1     		bne	.L113
 1402 015e 3B68     		ldr	r3, [r7]
 1403 0160 1E4A     		ldr	r2, .L118+16
 1404 0162 B96C     		ldr	r1, [r7, #72]
 1405 0164 B86D     		ldr	r0, [r7, #88]
 1406 0166 9847     		blx	r3
 1407              	.L113:
 1408 0168 B86C     		ldr	r0, [r7, #72]
 1409 016a FFF7FEFF 		bl	free
 1410 016e 7B6C     		ldr	r3, [r7, #68]
 1411 0170 002B     		cmp	r3, #0
 1412 0172 0ED0     		beq	.L114
 1413 0174 07F11801 		add	r1, r7, #24
 1414 0178 BB6D     		ldr	r3, [r7, #88]
 1415 017a 0093     		str	r3, [sp]
 1416 017c 3B68     		ldr	r3, [r7]
 1417 017e 7A68     		ldr	r2, [r7, #4]
 1418 0180 786C     		ldr	r0, [r7, #68]
 1419 0182 FFF7FEFF 		bl	read_parameter
 1420 0186 F863     		str	r0, [r7, #60]
 1421 0188 FB6B     		ldr	r3, [r7, #60]
 1422 018a 002B     		cmp	r3, #0
 1423 018c 10D0     		beq	.L112
 1424 018e FB6B     		ldr	r3, [r7, #60]
 1425 0190 17E0     		b	.L116
 1426              	.L114:
 1427 0192 07F11800 		add	r0, r7, #24
 1428 0196 0023     		movs	r3, #0
ARM GAS  /var/folders/d2/nstgp4h54kz7g1l847x_b8wc0000gn/T//cc2KwmRg.s 			page 27


 1429 0198 0093     		str	r3, [sp]
 1430 019a BB6D     		ldr	r3, [r7, #88]
 1431 019c 3A68     		ldr	r2, [r7]
 1432 019e 7968     		ldr	r1, [r7, #4]
 1433 01a0 FFF7FEFF 		bl	discard_msgpack_element
 1434 01a4 3864     		str	r0, [r7, #64]
 1435 01a6 3B6C     		ldr	r3, [r7, #64]
 1436 01a8 002B     		cmp	r3, #0
 1437 01aa 01D0     		beq	.L112
 1438 01ac 3B6C     		ldr	r3, [r7, #64]
 1439 01ae 08E0     		b	.L116
 1440              	.L112:
 1441 01b0 FB6C     		ldr	r3, [r7, #76]
 1442 01b2 0133     		adds	r3, r3, #1
 1443 01b4 FB64     		str	r3, [r7, #76]
 1444              	.L101:
 1445 01b6 FA6C     		ldr	r2, [r7, #76]
 1446 01b8 BB68     		ldr	r3, [r7, #8]
 1447 01ba 9A42     		cmp	r2, r3
 1448 01bc FFF42AAF 		bcc	.L117
 1449 01c0 0023     		movs	r3, #0
 1450              	.L116:
 1451 01c2 1846     		mov	r0, r3
 1452 01c4 5037     		adds	r7, r7, #80
 1453 01c6 BD46     		mov	sp, r7
 1454              		@ sp needed
 1455 01c8 80BD     		pop	{r7, pc}
 1456              	.L119:
 1457 01ca 00BF     		.align	2
 1458              	.L118:
 1459 01cc E8000000 		.word	.LC9
 1460 01d0 FC000000 		.word	.LC10
 1461 01d4 10010000 		.word	.LC11
 1462 01d8 28010000 		.word	.LC12
 1463 01dc 4C010000 		.word	.LC13
 1464              		.size	read_namespace, .-read_namespace
 1465              		.section	.text.err_ignore_cb,"ax",%progbits
 1466              		.align	1
 1467              		.syntax unified
 1468              		.thumb
 1469              		.thumb_func
 1470              		.fpu fpv4-sp-d16
 1471              		.type	err_ignore_cb, %function
 1472              	err_ignore_cb:
 1473              		@ args = 0, pretend = 0, frame = 16
 1474              		@ frame_needed = 1, uses_anonymous_args = 0
 1475              		@ link register save eliminated.
 1476 0000 80B4     		push	{r7}
 1477 0002 85B0     		sub	sp, sp, #20
 1478 0004 00AF     		add	r7, sp, #0
 1479 0006 F860     		str	r0, [r7, #12]
 1480 0008 B960     		str	r1, [r7, #8]
 1481 000a 7A60     		str	r2, [r7, #4]
 1482 000c 00BF     		nop
 1483 000e 1437     		adds	r7, r7, #20
 1484 0010 BD46     		mov	sp, r7
 1485              		@ sp needed
ARM GAS  /var/folders/d2/nstgp4h54kz7g1l847x_b8wc0000gn/T//cc2KwmRg.s 			page 28


 1486 0012 5DF8047B 		ldr	r7, [sp], #4
 1487 0016 7047     		bx	lr
 1488              		.size	err_ignore_cb, .-err_ignore_cb
 1489              		.section	.rodata
 1490 016d 000000   		.align	2
 1491              	.LC14:
 1492 0170 636F756C 		.ascii	"could not read namespace map\000"
 1492      64206E6F 
 1492      74207265 
 1492      6164206E 
 1492      616D6573 
 1493              		.section	.text.parameter_msgpack_read_cmp,"ax",%progbits
 1494              		.align	1
 1495              		.global	parameter_msgpack_read_cmp
 1496              		.syntax unified
 1497              		.thumb
 1498              		.thumb_func
 1499              		.fpu fpv4-sp-d16
 1500              		.type	parameter_msgpack_read_cmp, %function
 1501              	parameter_msgpack_read_cmp:
 1502              		@ args = 0, pretend = 0, frame = 24
 1503              		@ frame_needed = 1, uses_anonymous_args = 0
 1504 0000 80B5     		push	{r7, lr}
 1505 0002 88B0     		sub	sp, sp, #32
 1506 0004 02AF     		add	r7, sp, #8
 1507 0006 F860     		str	r0, [r7, #12]
 1508 0008 B960     		str	r1, [r7, #8]
 1509 000a 7A60     		str	r2, [r7, #4]
 1510 000c 3B60     		str	r3, [r7]
 1511 000e 7B68     		ldr	r3, [r7, #4]
 1512 0010 002B     		cmp	r3, #0
 1513 0012 01D1     		bne	.L122
 1514 0014 114B     		ldr	r3, .L126
 1515 0016 7B60     		str	r3, [r7, #4]
 1516              	.L122:
 1517 0018 07F11403 		add	r3, r7, #20
 1518 001c 1946     		mov	r1, r3
 1519 001e B868     		ldr	r0, [r7, #8]
 1520 0020 FFF7FEFF 		bl	cmp_read_map
 1521 0024 0346     		mov	r3, r0
 1522 0026 83F00103 		eor	r3, r3, #1
 1523 002a DBB2     		uxtb	r3, r3
 1524 002c 002B     		cmp	r3, #0
 1525 002e 07D0     		beq	.L123
 1526 0030 7B68     		ldr	r3, [r7, #4]
 1527 0032 0B4A     		ldr	r2, .L126+4
 1528 0034 0021     		movs	r1, #0
 1529 0036 3868     		ldr	r0, [r7]
 1530 0038 9847     		blx	r3
 1531 003a 4FF0FF33 		mov	r3, #-1
 1532 003e 08E0     		b	.L125
 1533              	.L123:
 1534 0040 7969     		ldr	r1, [r7, #20]
 1535 0042 3B68     		ldr	r3, [r7]
 1536 0044 0093     		str	r3, [sp]
 1537 0046 7B68     		ldr	r3, [r7, #4]
 1538 0048 BA68     		ldr	r2, [r7, #8]
ARM GAS  /var/folders/d2/nstgp4h54kz7g1l847x_b8wc0000gn/T//cc2KwmRg.s 			page 29


 1539 004a F868     		ldr	r0, [r7, #12]
 1540 004c FFF7FEFF 		bl	read_namespace
 1541 0050 0346     		mov	r3, r0
 1542              	.L125:
 1543 0052 1846     		mov	r0, r3
 1544 0054 1837     		adds	r7, r7, #24
 1545 0056 BD46     		mov	sp, r7
 1546              		@ sp needed
 1547 0058 80BD     		pop	{r7, pc}
 1548              	.L127:
 1549 005a 00BF     		.align	2
 1550              	.L126:
 1551 005c 00000000 		.word	err_ignore_cb
 1552 0060 70010000 		.word	.LC14
 1553              		.size	parameter_msgpack_read_cmp, .-parameter_msgpack_read_cmp
 1554              		.section	.text.parameter_msgpack_read,"ax",%progbits
 1555              		.align	1
 1556              		.global	parameter_msgpack_read
 1557              		.syntax unified
 1558              		.thumb
 1559              		.thumb_func
 1560              		.fpu fpv4-sp-d16
 1561              		.type	parameter_msgpack_read, %function
 1562              	parameter_msgpack_read:
 1563              		@ args = 4, pretend = 0, frame = 48
 1564              		@ frame_needed = 1, uses_anonymous_args = 0
 1565 0000 80B5     		push	{r7, lr}
 1566 0002 8CB0     		sub	sp, sp, #48
 1567 0004 00AF     		add	r7, sp, #0
 1568 0006 F860     		str	r0, [r7, #12]
 1569 0008 B960     		str	r1, [r7, #8]
 1570 000a 7A60     		str	r2, [r7, #4]
 1571 000c 3B60     		str	r3, [r7]
 1572 000e 07F11401 		add	r1, r7, #20
 1573 0012 07F12000 		add	r0, r7, #32
 1574 0016 7B68     		ldr	r3, [r7, #4]
 1575 0018 BA68     		ldr	r2, [r7, #8]
 1576 001a FFF7FEFF 		bl	cmp_mem_access_ro_init
 1577 001e 07F12001 		add	r1, r7, #32
 1578 0022 BB6B     		ldr	r3, [r7, #56]
 1579 0024 3A68     		ldr	r2, [r7]
 1580 0026 F868     		ldr	r0, [r7, #12]
 1581 0028 FFF7FEFF 		bl	parameter_msgpack_read_cmp
 1582 002c 0346     		mov	r3, r0
 1583 002e 1846     		mov	r0, r3
 1584 0030 3037     		adds	r7, r7, #48
 1585 0032 BD46     		mov	sp, r7
 1586              		@ sp needed
 1587 0034 80BD     		pop	{r7, pc}
 1588              		.size	parameter_msgpack_read, .-parameter_msgpack_read
 1589              		.section	.rodata
 1590 018d 000000   		.align	2
 1591              	.LC15:
 1592 0190 756E7375 		.ascii	"unsupported type for saving\000"
 1592      70706F72 
 1592      74656420 
 1592      74797065 
ARM GAS  /var/folders/d2/nstgp4h54kz7g1l847x_b8wc0000gn/T//cc2KwmRg.s 			page 30


 1592      20666F72 
 1593              		.align	2
 1594              	.LC16:
 1595 01ac 636D705F 		.ascii	"cmp_write failed\000"
 1595      77726974 
 1595      65206661 
 1595      696C6564 
 1595      00
 1596              		.section	.text.parameter_msgpack_write_subtree,"ax",%progbits
 1597              		.align	1
 1598              		.syntax unified
 1599              		.thumb
 1600              		.thumb_func
 1601              		.fpu fpv4-sp-d16
 1602              		.type	parameter_msgpack_write_subtree, %function
 1603              	parameter_msgpack_write_subtree:
 1604              		@ args = 0, pretend = 0, frame = 40
 1605              		@ frame_needed = 1, uses_anonymous_args = 0
 1606 0000 90B5     		push	{r4, r7, lr}
 1607 0002 8BB0     		sub	sp, sp, #44
 1608 0004 00AF     		add	r7, sp, #0
 1609 0006 F860     		str	r0, [r7, #12]
 1610 0008 B960     		str	r1, [r7, #8]
 1611 000a 7A60     		str	r2, [r7, #4]
 1612 000c 3B60     		str	r3, [r7]
 1613 000e 0023     		movs	r3, #0
 1614 0010 7B62     		str	r3, [r7, #36]
 1615 0012 FB68     		ldr	r3, [r7, #12]
 1616 0014 DB68     		ldr	r3, [r3, #12]
 1617 0016 FB61     		str	r3, [r7, #28]
 1618 0018 05E0     		b	.L131
 1619              	.L132:
 1620 001a 7B6A     		ldr	r3, [r7, #36]
 1621 001c 0133     		adds	r3, r3, #1
 1622 001e 7B62     		str	r3, [r7, #36]
 1623 0020 FB69     		ldr	r3, [r7, #28]
 1624 0022 1B69     		ldr	r3, [r3, #16]
 1625 0024 FB61     		str	r3, [r7, #28]
 1626              	.L131:
 1627 0026 FB69     		ldr	r3, [r7, #28]
 1628 0028 002B     		cmp	r3, #0
 1629 002a F6D1     		bne	.L132
 1630 002c FB68     		ldr	r3, [r7, #12]
 1631 002e 5B69     		ldr	r3, [r3, #20]
 1632 0030 BB61     		str	r3, [r7, #24]
 1633 0032 09E0     		b	.L133
 1634              	.L135:
 1635 0034 BB69     		ldr	r3, [r7, #24]
 1636 0036 5B7B     		ldrb	r3, [r3, #13]	@ zero_extendqisi2
 1637 0038 002B     		cmp	r3, #0
 1638 003a 02D0     		beq	.L134
 1639 003c 7B6A     		ldr	r3, [r7, #36]
 1640 003e 0133     		adds	r3, r3, #1
 1641 0040 7B62     		str	r3, [r7, #36]
 1642              	.L134:
 1643 0042 BB69     		ldr	r3, [r7, #24]
 1644 0044 9B68     		ldr	r3, [r3, #8]
ARM GAS  /var/folders/d2/nstgp4h54kz7g1l847x_b8wc0000gn/T//cc2KwmRg.s 			page 31


 1645 0046 BB61     		str	r3, [r7, #24]
 1646              	.L133:
 1647 0048 BB69     		ldr	r3, [r7, #24]
 1648 004a 002B     		cmp	r3, #0
 1649 004c F2D1     		bne	.L135
 1650 004e 796A     		ldr	r1, [r7, #36]
 1651 0050 B868     		ldr	r0, [r7, #8]
 1652 0052 FFF7FEFF 		bl	cmp_write_map
 1653 0056 FB68     		ldr	r3, [r7, #12]
 1654 0058 DB68     		ldr	r3, [r3, #12]
 1655 005a FB61     		str	r3, [r7, #28]
 1656 005c 15E0     		b	.L136
 1657              	.L137:
 1658 005e FB69     		ldr	r3, [r7, #28]
 1659 0060 1C68     		ldr	r4, [r3]
 1660 0062 FB69     		ldr	r3, [r7, #28]
 1661 0064 1B68     		ldr	r3, [r3]
 1662 0066 1846     		mov	r0, r3
 1663 0068 FFF7FEFF 		bl	strlen
 1664 006c 0346     		mov	r3, r0
 1665 006e 1A46     		mov	r2, r3
 1666 0070 2146     		mov	r1, r4
 1667 0072 B868     		ldr	r0, [r7, #8]
 1668 0074 FFF7FEFF 		bl	cmp_write_str
 1669 0078 3B68     		ldr	r3, [r7]
 1670 007a 7A68     		ldr	r2, [r7, #4]
 1671 007c B968     		ldr	r1, [r7, #8]
 1672 007e F869     		ldr	r0, [r7, #28]
 1673 0080 FFF7BEFF 		bl	parameter_msgpack_write_subtree
 1674 0084 FB69     		ldr	r3, [r7, #28]
 1675 0086 1B69     		ldr	r3, [r3, #16]
 1676 0088 FB61     		str	r3, [r7, #28]
 1677              	.L136:
 1678 008a FB69     		ldr	r3, [r7, #28]
 1679 008c 002B     		cmp	r3, #0
 1680 008e E6D1     		bne	.L137
 1681 0090 FB68     		ldr	r3, [r7, #12]
 1682 0092 5B69     		ldr	r3, [r3, #20]
 1683 0094 BB61     		str	r3, [r7, #24]
 1684 0096 1AE1     		b	.L138
 1685              	.L151:
 1686 0098 0123     		movs	r3, #1
 1687 009a FB75     		strb	r3, [r7, #23]
 1688 009c BB69     		ldr	r3, [r7, #24]
 1689 009e 5B7B     		ldrb	r3, [r3, #13]	@ zero_extendqisi2
 1690 00a0 83F00103 		eor	r3, r3, #1
 1691 00a4 DBB2     		uxtb	r3, r3
 1692 00a6 002B     		cmp	r3, #0
 1693 00a8 40F00D81 		bne	.L152
 1694 00ac BB69     		ldr	r3, [r7, #24]
 1695 00ae 9B7B     		ldrb	r3, [r3, #14]	@ zero_extendqisi2
 1696 00b0 013B     		subs	r3, r3, #1
 1697 00b2 052B     		cmp	r3, #5
 1698 00b4 00F2F380 		bhi	.L141
 1699 00b8 01A2     		adr	r2, .L143
 1700 00ba 52F823F0 		ldr	pc, [r2, r3, lsl #2]
 1701 00be 00BF     		.p2align 2
ARM GAS  /var/folders/d2/nstgp4h54kz7g1l847x_b8wc0000gn/T//cc2KwmRg.s 			page 32


 1702              	.L143:
 1703 00c0 D9000000 		.word	.L142+1
 1704 00c4 75010000 		.word	.L144+1
 1705 00c8 29010000 		.word	.L145+1
 1706 00cc C1010000 		.word	.L146+1
 1707 00d0 11020000 		.word	.L147+1
 1708 00d4 11020000 		.word	.L147+1
 1709              		.p2align 1
 1710              	.L142:
 1711 00d8 BB69     		ldr	r3, [r7, #24]
 1712 00da 1C68     		ldr	r4, [r3]
 1713 00dc BB69     		ldr	r3, [r7, #24]
 1714 00de 1B68     		ldr	r3, [r3]
 1715 00e0 1846     		mov	r0, r3
 1716 00e2 FFF7FEFF 		bl	strlen
 1717 00e6 0346     		mov	r3, r0
 1718 00e8 1A46     		mov	r2, r3
 1719 00ea 2146     		mov	r1, r4
 1720 00ec B868     		ldr	r0, [r7, #8]
 1721 00ee FFF7FEFF 		bl	cmp_write_str
 1722 00f2 0346     		mov	r3, r0
 1723 00f4 1A46     		mov	r2, r3
 1724 00f6 FB7D     		ldrb	r3, [r7, #23]	@ zero_extendqisi2
 1725 00f8 1340     		ands	r3, r3, r2
 1726 00fa 002B     		cmp	r3, #0
 1727 00fc 14BF     		ite	ne
 1728 00fe 0123     		movne	r3, #1
 1729 0100 0023     		moveq	r3, #0
 1730 0102 FB75     		strb	r3, [r7, #23]
 1731 0104 BB69     		ldr	r3, [r7, #24]
 1732 0106 D3ED047A 		vldr.32	s15, [r3, #16]
 1733 010a B0EE670A 		vmov.f32	s0, s15
 1734 010e B868     		ldr	r0, [r7, #8]
 1735 0110 FFF7FEFF 		bl	cmp_write_float
 1736 0114 0346     		mov	r3, r0
 1737 0116 1A46     		mov	r2, r3
 1738 0118 FB7D     		ldrb	r3, [r7, #23]	@ zero_extendqisi2
 1739 011a 1340     		ands	r3, r3, r2
 1740 011c 002B     		cmp	r3, #0
 1741 011e 14BF     		ite	ne
 1742 0120 0123     		movne	r3, #1
 1743 0122 0023     		moveq	r3, #0
 1744 0124 FB75     		strb	r3, [r7, #23]
 1745 0126 C1E0     		b	.L148
 1746              	.L145:
 1747 0128 BB69     		ldr	r3, [r7, #24]
 1748 012a 1C68     		ldr	r4, [r3]
 1749 012c BB69     		ldr	r3, [r7, #24]
 1750 012e 1B68     		ldr	r3, [r3]
 1751 0130 1846     		mov	r0, r3
 1752 0132 FFF7FEFF 		bl	strlen
 1753 0136 0346     		mov	r3, r0
 1754 0138 1A46     		mov	r2, r3
 1755 013a 2146     		mov	r1, r4
 1756 013c B868     		ldr	r0, [r7, #8]
 1757 013e FFF7FEFF 		bl	cmp_write_str
 1758 0142 0346     		mov	r3, r0
ARM GAS  /var/folders/d2/nstgp4h54kz7g1l847x_b8wc0000gn/T//cc2KwmRg.s 			page 33


 1759 0144 1A46     		mov	r2, r3
 1760 0146 FB7D     		ldrb	r3, [r7, #23]	@ zero_extendqisi2
 1761 0148 1340     		ands	r3, r3, r2
 1762 014a 002B     		cmp	r3, #0
 1763 014c 14BF     		ite	ne
 1764 014e 0123     		movne	r3, #1
 1765 0150 0023     		moveq	r3, #0
 1766 0152 FB75     		strb	r3, [r7, #23]
 1767 0154 BB69     		ldr	r3, [r7, #24]
 1768 0156 1B69     		ldr	r3, [r3, #16]
 1769 0158 1946     		mov	r1, r3
 1770 015a B868     		ldr	r0, [r7, #8]
 1771 015c FFF7FEFF 		bl	cmp_write_s32
 1772 0160 0346     		mov	r3, r0
 1773 0162 1A46     		mov	r2, r3
 1774 0164 FB7D     		ldrb	r3, [r7, #23]	@ zero_extendqisi2
 1775 0166 1340     		ands	r3, r3, r2
 1776 0168 002B     		cmp	r3, #0
 1777 016a 14BF     		ite	ne
 1778 016c 0123     		movne	r3, #1
 1779 016e 0023     		moveq	r3, #0
 1780 0170 FB75     		strb	r3, [r7, #23]
 1781 0172 9BE0     		b	.L148
 1782              	.L144:
 1783 0174 BB69     		ldr	r3, [r7, #24]
 1784 0176 1C68     		ldr	r4, [r3]
 1785 0178 BB69     		ldr	r3, [r7, #24]
 1786 017a 1B68     		ldr	r3, [r3]
 1787 017c 1846     		mov	r0, r3
 1788 017e FFF7FEFF 		bl	strlen
 1789 0182 0346     		mov	r3, r0
 1790 0184 1A46     		mov	r2, r3
 1791 0186 2146     		mov	r1, r4
 1792 0188 B868     		ldr	r0, [r7, #8]
 1793 018a FFF7FEFF 		bl	cmp_write_str
 1794 018e 0346     		mov	r3, r0
 1795 0190 1A46     		mov	r2, r3
 1796 0192 FB7D     		ldrb	r3, [r7, #23]	@ zero_extendqisi2
 1797 0194 1340     		ands	r3, r3, r2
 1798 0196 002B     		cmp	r3, #0
 1799 0198 14BF     		ite	ne
 1800 019a 0123     		movne	r3, #1
 1801 019c 0023     		moveq	r3, #0
 1802 019e FB75     		strb	r3, [r7, #23]
 1803 01a0 BB69     		ldr	r3, [r7, #24]
 1804 01a2 1B7C     		ldrb	r3, [r3, #16]	@ zero_extendqisi2
 1805 01a4 1946     		mov	r1, r3
 1806 01a6 B868     		ldr	r0, [r7, #8]
 1807 01a8 FFF7FEFF 		bl	cmp_write_bool
 1808 01ac 0346     		mov	r3, r0
 1809 01ae 1A46     		mov	r2, r3
 1810 01b0 FB7D     		ldrb	r3, [r7, #23]	@ zero_extendqisi2
 1811 01b2 1340     		ands	r3, r3, r2
 1812 01b4 002B     		cmp	r3, #0
 1813 01b6 14BF     		ite	ne
 1814 01b8 0123     		movne	r3, #1
 1815 01ba 0023     		moveq	r3, #0
ARM GAS  /var/folders/d2/nstgp4h54kz7g1l847x_b8wc0000gn/T//cc2KwmRg.s 			page 34


 1816 01bc FB75     		strb	r3, [r7, #23]
 1817 01be 75E0     		b	.L148
 1818              	.L146:
 1819 01c0 BB69     		ldr	r3, [r7, #24]
 1820 01c2 1C68     		ldr	r4, [r3]
 1821 01c4 BB69     		ldr	r3, [r7, #24]
 1822 01c6 1B68     		ldr	r3, [r3]
 1823 01c8 1846     		mov	r0, r3
 1824 01ca FFF7FEFF 		bl	strlen
 1825 01ce 0346     		mov	r3, r0
 1826 01d0 1A46     		mov	r2, r3
 1827 01d2 2146     		mov	r1, r4
 1828 01d4 B868     		ldr	r0, [r7, #8]
 1829 01d6 FFF7FEFF 		bl	cmp_write_str
 1830 01da 0346     		mov	r3, r0
 1831 01dc 1A46     		mov	r2, r3
 1832 01de FB7D     		ldrb	r3, [r7, #23]	@ zero_extendqisi2
 1833 01e0 1340     		ands	r3, r3, r2
 1834 01e2 002B     		cmp	r3, #0
 1835 01e4 14BF     		ite	ne
 1836 01e6 0123     		movne	r3, #1
 1837 01e8 0023     		moveq	r3, #0
 1838 01ea FB75     		strb	r3, [r7, #23]
 1839 01ec BB69     		ldr	r3, [r7, #24]
 1840 01ee 1969     		ldr	r1, [r3, #16]
 1841 01f0 BB69     		ldr	r3, [r7, #24]
 1842 01f2 DB8A     		ldrh	r3, [r3, #22]
 1843 01f4 1A46     		mov	r2, r3
 1844 01f6 B868     		ldr	r0, [r7, #8]
 1845 01f8 FFF7FEFF 		bl	cmp_write_str
 1846 01fc 0346     		mov	r3, r0
 1847 01fe 1A46     		mov	r2, r3
 1848 0200 FB7D     		ldrb	r3, [r7, #23]	@ zero_extendqisi2
 1849 0202 1340     		ands	r3, r3, r2
 1850 0204 002B     		cmp	r3, #0
 1851 0206 14BF     		ite	ne
 1852 0208 0123     		movne	r3, #1
 1853 020a 0023     		moveq	r3, #0
 1854 020c FB75     		strb	r3, [r7, #23]
 1855 020e 4DE0     		b	.L148
 1856              	.L147:
 1857 0210 BB69     		ldr	r3, [r7, #24]
 1858 0212 1C68     		ldr	r4, [r3]
 1859 0214 BB69     		ldr	r3, [r7, #24]
 1860 0216 1B68     		ldr	r3, [r3]
 1861 0218 1846     		mov	r0, r3
 1862 021a FFF7FEFF 		bl	strlen
 1863 021e 0346     		mov	r3, r0
 1864 0220 1A46     		mov	r2, r3
 1865 0222 2146     		mov	r1, r4
 1866 0224 B868     		ldr	r0, [r7, #8]
 1867 0226 FFF7FEFF 		bl	cmp_write_str
 1868 022a 0346     		mov	r3, r0
 1869 022c 1A46     		mov	r2, r3
 1870 022e FB7D     		ldrb	r3, [r7, #23]	@ zero_extendqisi2
 1871 0230 1340     		ands	r3, r3, r2
 1872 0232 002B     		cmp	r3, #0
ARM GAS  /var/folders/d2/nstgp4h54kz7g1l847x_b8wc0000gn/T//cc2KwmRg.s 			page 35


 1873 0234 14BF     		ite	ne
 1874 0236 0123     		movne	r3, #1
 1875 0238 0023     		moveq	r3, #0
 1876 023a FB75     		strb	r3, [r7, #23]
 1877 023c BB69     		ldr	r3, [r7, #24]
 1878 023e DB8A     		ldrh	r3, [r3, #22]
 1879 0240 1946     		mov	r1, r3
 1880 0242 B868     		ldr	r0, [r7, #8]
 1881 0244 FFF7FEFF 		bl	cmp_write_array
 1882 0248 0346     		mov	r3, r0
 1883 024a 1A46     		mov	r2, r3
 1884 024c FB7D     		ldrb	r3, [r7, #23]	@ zero_extendqisi2
 1885 024e 1340     		ands	r3, r3, r2
 1886 0250 002B     		cmp	r3, #0
 1887 0252 14BF     		ite	ne
 1888 0254 0123     		movne	r3, #1
 1889 0256 0023     		moveq	r3, #0
 1890 0258 FB75     		strb	r3, [r7, #23]
 1891 025a 0023     		movs	r3, #0
 1892 025c 3B62     		str	r3, [r7, #32]
 1893 025e 17E0     		b	.L149
 1894              	.L150:
 1895 0260 BB69     		ldr	r3, [r7, #24]
 1896 0262 1A69     		ldr	r2, [r3, #16]
 1897 0264 3B6A     		ldr	r3, [r7, #32]
 1898 0266 9B00     		lsls	r3, r3, #2
 1899 0268 1344     		add	r3, r3, r2
 1900 026a D3ED007A 		vldr.32	s15, [r3]
 1901 026e B0EE670A 		vmov.f32	s0, s15
 1902 0272 B868     		ldr	r0, [r7, #8]
 1903 0274 FFF7FEFF 		bl	cmp_write_float
 1904 0278 0346     		mov	r3, r0
 1905 027a 1A46     		mov	r2, r3
 1906 027c FB7D     		ldrb	r3, [r7, #23]	@ zero_extendqisi2
 1907 027e 1340     		ands	r3, r3, r2
 1908 0280 002B     		cmp	r3, #0
 1909 0282 14BF     		ite	ne
 1910 0284 0123     		movne	r3, #1
 1911 0286 0023     		moveq	r3, #0
 1912 0288 FB75     		strb	r3, [r7, #23]
 1913 028a 3B6A     		ldr	r3, [r7, #32]
 1914 028c 0133     		adds	r3, r3, #1
 1915 028e 3B62     		str	r3, [r7, #32]
 1916              	.L149:
 1917 0290 BB69     		ldr	r3, [r7, #24]
 1918 0292 DB8A     		ldrh	r3, [r3, #22]
 1919 0294 1A46     		mov	r2, r3
 1920 0296 3B6A     		ldr	r3, [r7, #32]
 1921 0298 9342     		cmp	r3, r2
 1922 029a E1D3     		bcc	.L150
 1923 029c 06E0     		b	.L148
 1924              	.L141:
 1925 029e BB69     		ldr	r3, [r7, #24]
 1926 02a0 1968     		ldr	r1, [r3]
 1927 02a2 7B68     		ldr	r3, [r7, #4]
 1928 02a4 0E4A     		ldr	r2, .L153
 1929 02a6 3868     		ldr	r0, [r7]
ARM GAS  /var/folders/d2/nstgp4h54kz7g1l847x_b8wc0000gn/T//cc2KwmRg.s 			page 36


 1930 02a8 9847     		blx	r3
 1931 02aa 00BF     		nop
 1932              	.L148:
 1933 02ac FB7D     		ldrb	r3, [r7, #23]
 1934 02ae 83F00103 		eor	r3, r3, #1
 1935 02b2 DBB2     		uxtb	r3, r3
 1936 02b4 002B     		cmp	r3, #0
 1937 02b6 07D0     		beq	.L140
 1938 02b8 BB69     		ldr	r3, [r7, #24]
 1939 02ba 1968     		ldr	r1, [r3]
 1940 02bc 7B68     		ldr	r3, [r7, #4]
 1941 02be 094A     		ldr	r2, .L153+4
 1942 02c0 3868     		ldr	r0, [r7]
 1943 02c2 9847     		blx	r3
 1944 02c4 00E0     		b	.L140
 1945              	.L152:
 1946 02c6 00BF     		nop
 1947              	.L140:
 1948 02c8 BB69     		ldr	r3, [r7, #24]
 1949 02ca 9B68     		ldr	r3, [r3, #8]
 1950 02cc BB61     		str	r3, [r7, #24]
 1951              	.L138:
 1952 02ce BB69     		ldr	r3, [r7, #24]
 1953 02d0 002B     		cmp	r3, #0
 1954 02d2 7FF4E1AE 		bne	.L151
 1955 02d6 00BF     		nop
 1956 02d8 2C37     		adds	r7, r7, #44
 1957 02da BD46     		mov	sp, r7
 1958              		@ sp needed
 1959 02dc 90BD     		pop	{r4, r7, pc}
 1960              	.L154:
 1961 02de 00BF     		.align	2
 1962              	.L153:
 1963 02e0 90010000 		.word	.LC15
 1964 02e4 AC010000 		.word	.LC16
 1965              		.size	parameter_msgpack_write_subtree, .-parameter_msgpack_write_subtree
 1966              		.section	.text.parameter_msgpack_write_cmp,"ax",%progbits
 1967              		.align	1
 1968              		.global	parameter_msgpack_write_cmp
 1969              		.syntax unified
 1970              		.thumb
 1971              		.thumb_func
 1972              		.fpu fpv4-sp-d16
 1973              		.type	parameter_msgpack_write_cmp, %function
 1974              	parameter_msgpack_write_cmp:
 1975              		@ args = 0, pretend = 0, frame = 16
 1976              		@ frame_needed = 1, uses_anonymous_args = 0
 1977 0000 80B5     		push	{r7, lr}
 1978 0002 84B0     		sub	sp, sp, #16
 1979 0004 00AF     		add	r7, sp, #0
 1980 0006 F860     		str	r0, [r7, #12]
 1981 0008 B960     		str	r1, [r7, #8]
 1982 000a 7A60     		str	r2, [r7, #4]
 1983 000c 3B60     		str	r3, [r7]
 1984 000e FFF7FEFF 		bl	chSysLock
 1985 0012 3B68     		ldr	r3, [r7]
 1986 0014 7A68     		ldr	r2, [r7, #4]
ARM GAS  /var/folders/d2/nstgp4h54kz7g1l847x_b8wc0000gn/T//cc2KwmRg.s 			page 37


 1987 0016 B968     		ldr	r1, [r7, #8]
 1988 0018 F868     		ldr	r0, [r7, #12]
 1989 001a FFF7FEFF 		bl	parameter_msgpack_write_subtree
 1990 001e FFF7FEFF 		bl	chSysUnlock
 1991 0022 00BF     		nop
 1992 0024 1037     		adds	r7, r7, #16
 1993 0026 BD46     		mov	sp, r7
 1994              		@ sp needed
 1995 0028 80BD     		pop	{r7, pc}
 1996              		.size	parameter_msgpack_write_cmp, .-parameter_msgpack_write_cmp
 1997              		.section	.text.parameter_msgpack_write,"ax",%progbits
 1998              		.align	1
 1999              		.global	parameter_msgpack_write
 2000              		.syntax unified
 2001              		.thumb
 2002              		.thumb_func
 2003              		.fpu fpv4-sp-d16
 2004              		.type	parameter_msgpack_write, %function
 2005              	parameter_msgpack_write:
 2006              		@ args = 4, pretend = 0, frame = 48
 2007              		@ frame_needed = 1, uses_anonymous_args = 0
 2008 0000 80B5     		push	{r7, lr}
 2009 0002 8CB0     		sub	sp, sp, #48
 2010 0004 00AF     		add	r7, sp, #0
 2011 0006 F860     		str	r0, [r7, #12]
 2012 0008 B960     		str	r1, [r7, #8]
 2013 000a 7A60     		str	r2, [r7, #4]
 2014 000c 3B60     		str	r3, [r7]
 2015 000e 07F11401 		add	r1, r7, #20
 2016 0012 07F12000 		add	r0, r7, #32
 2017 0016 7B68     		ldr	r3, [r7, #4]
 2018 0018 BA68     		ldr	r2, [r7, #8]
 2019 001a FFF7FEFF 		bl	cmp_mem_access_init
 2020 001e 07F12001 		add	r1, r7, #32
 2021 0022 BB6B     		ldr	r3, [r7, #56]
 2022 0024 3A68     		ldr	r2, [r7]
 2023 0026 F868     		ldr	r0, [r7, #12]
 2024 0028 FFF7FEFF 		bl	parameter_msgpack_write_cmp
 2025 002c 00BF     		nop
 2026 002e 3037     		adds	r7, r7, #48
 2027 0030 BD46     		mov	sp, r7
 2028              		@ sp needed
 2029 0032 80BD     		pop	{r7, pc}
 2030              		.size	parameter_msgpack_write, .-parameter_msgpack_write
 2031              		.section	.rodata.__func__.8568,"a",%progbits
 2032              		.align	2
 2033              		.type	__func__.8568, %object
 2034              		.size	__func__.8568, 12
 2035              	__func__.8568:
 2036 0000 63685379 		.ascii	"chSysUnlock\000"
 2036      73556E6C 
 2036      6F636B00 
 2037              		.ident	"GCC: (GNU Tools for Arm Embedded Processors 7-2017-q4-major) 7.2.1 20170904 (release) [ARM
ARM GAS  /var/folders/d2/nstgp4h54kz7g1l847x_b8wc0000gn/T//cc2KwmRg.s 			page 38


DEFINED SYMBOLS
                            *ABS*:0000000000000000 parameter_msgpack.c
/var/folders/d2/nstgp4h54kz7g1l847x_b8wc0000gn/T//cc2KwmRg.s:15     .text.port_lock:0000000000000000 $t
/var/folders/d2/nstgp4h54kz7g1l847x_b8wc0000gn/T//cc2KwmRg.s:21     .text.port_lock:0000000000000000 port_lock
/var/folders/d2/nstgp4h54kz7g1l847x_b8wc0000gn/T//cc2KwmRg.s:45     .text.port_unlock:0000000000000000 $t
/var/folders/d2/nstgp4h54kz7g1l847x_b8wc0000gn/T//cc2KwmRg.s:51     .text.port_unlock:0000000000000000 port_unlock
/var/folders/d2/nstgp4h54kz7g1l847x_b8wc0000gn/T//cc2KwmRg.s:75     .text.chSysLock:0000000000000000 $t
/var/folders/d2/nstgp4h54kz7g1l847x_b8wc0000gn/T//cc2KwmRg.s:81     .text.chSysLock:0000000000000000 chSysLock
/var/folders/d2/nstgp4h54kz7g1l847x_b8wc0000gn/T//cc2KwmRg.s:93     .text.chSysUnlock:0000000000000000 $t
/var/folders/d2/nstgp4h54kz7g1l847x_b8wc0000gn/T//cc2KwmRg.s:99     .text.chSysUnlock:0000000000000000 chSysUnlock
/var/folders/d2/nstgp4h54kz7g1l847x_b8wc0000gn/T//cc2KwmRg.s:128    .text.chSysUnlock:0000000000000034 $d
/var/folders/d2/nstgp4h54kz7g1l847x_b8wc0000gn/T//cc2KwmRg.s:2035   .rodata.__func__.8568:0000000000000000 __func__.8568
/var/folders/d2/nstgp4h54kz7g1l847x_b8wc0000gn/T//cc2KwmRg.s:132    .rodata:0000000000000000 $d
/var/folders/d2/nstgp4h54kz7g1l847x_b8wc0000gn/T//cc2KwmRg.s:136    .text.discard_msgpack_element:0000000000000000 $t
/var/folders/d2/nstgp4h54kz7g1l847x_b8wc0000gn/T//cc2KwmRg.s:142    .text.discard_msgpack_element:0000000000000000 discard_msgpack_element
/var/folders/d2/nstgp4h54kz7g1l847x_b8wc0000gn/T//cc2KwmRg.s:160    .text.discard_msgpack_element:000000000000001c $d
/var/folders/d2/nstgp4h54kz7g1l847x_b8wc0000gn/T//cc2KwmRg.s:195    .text.discard_msgpack_element:00000000000000a8 $t
/var/folders/d2/nstgp4h54kz7g1l847x_b8wc0000gn/T//cc2KwmRg.s:215    .text.discard_msgpack_element:00000000000000c4 $d
/var/folders/d2/nstgp4h54kz7g1l847x_b8wc0000gn/T//cc2KwmRg.s:219    .text.get_float:0000000000000000 $t
/var/folders/d2/nstgp4h54kz7g1l847x_b8wc0000gn/T//cc2KwmRg.s:225    .text.get_float:0000000000000000 get_float
/var/folders/d2/nstgp4h54kz7g1l847x_b8wc0000gn/T//cc2KwmRg.s:272    .text.get_int:0000000000000000 $t
/var/folders/d2/nstgp4h54kz7g1l847x_b8wc0000gn/T//cc2KwmRg.s:278    .text.get_int:0000000000000000 get_int
/var/folders/d2/nstgp4h54kz7g1l847x_b8wc0000gn/T//cc2KwmRg.s:304    .text.get_bool:0000000000000000 $t
/var/folders/d2/nstgp4h54kz7g1l847x_b8wc0000gn/T//cc2KwmRg.s:310    .text.get_bool:0000000000000000 get_bool
/var/folders/d2/nstgp4h54kz7g1l847x_b8wc0000gn/T//cc2KwmRg.s:343    .text.get_vector:0000000000000000 $t
/var/folders/d2/nstgp4h54kz7g1l847x_b8wc0000gn/T//cc2KwmRg.s:349    .text.get_vector:0000000000000000 get_vector
/var/folders/d2/nstgp4h54kz7g1l847x_b8wc0000gn/T//cc2KwmRg.s:454    .text.get_vector:00000000000000d8 $d
/var/folders/d2/nstgp4h54kz7g1l847x_b8wc0000gn/T//cc2KwmRg.s:458    .text.read_parameter_scalar:0000000000000000 $t
/var/folders/d2/nstgp4h54kz7g1l847x_b8wc0000gn/T//cc2KwmRg.s:464    .text.read_parameter_scalar:0000000000000000 read_parameter_scalar
/var/folders/d2/nstgp4h54kz7g1l847x_b8wc0000gn/T//cc2KwmRg.s:518    .text.read_parameter_scalar:0000000000000064 $d
/var/folders/d2/nstgp4h54kz7g1l847x_b8wc0000gn/T//cc2KwmRg.s:521    .text.read_parameter_integer:0000000000000000 $t
/var/folders/d2/nstgp4h54kz7g1l847x_b8wc0000gn/T//cc2KwmRg.s:527    .text.read_parameter_integer:0000000000000000 read_parameter_integer
/var/folders/d2/nstgp4h54kz7g1l847x_b8wc0000gn/T//cc2KwmRg.s:581    .text.read_parameter_integer:0000000000000060 $d
/var/folders/d2/nstgp4h54kz7g1l847x_b8wc0000gn/T//cc2KwmRg.s:584    .text.read_parameter_boolean:0000000000000000 $t
/var/folders/d2/nstgp4h54kz7g1l847x_b8wc0000gn/T//cc2KwmRg.s:590    .text.read_parameter_boolean:0000000000000000 read_parameter_boolean
/var/folders/d2/nstgp4h54kz7g1l847x_b8wc0000gn/T//cc2KwmRg.s:649    .text.read_parameter_boolean:000000000000006c $d
/var/folders/d2/nstgp4h54kz7g1l847x_b8wc0000gn/T//cc2KwmRg.s:659    .text.read_parameter_vector:0000000000000000 $t
/var/folders/d2/nstgp4h54kz7g1l847x_b8wc0000gn/T//cc2KwmRg.s:665    .text.read_parameter_vector:0000000000000000 read_parameter_vector
/var/folders/d2/nstgp4h54kz7g1l847x_b8wc0000gn/T//cc2KwmRg.s:797    .text.read_parameter_vector:0000000000000104 $d
/var/folders/d2/nstgp4h54kz7g1l847x_b8wc0000gn/T//cc2KwmRg.s:806    .text.read_parameter_var_vector:0000000000000000 $t
/var/folders/d2/nstgp4h54kz7g1l847x_b8wc0000gn/T//cc2KwmRg.s:812    .text.read_parameter_var_vector:0000000000000000 read_parameter_var_vector
/var/folders/d2/nstgp4h54kz7g1l847x_b8wc0000gn/T//cc2KwmRg.s:947    .text.read_parameter_var_vector:0000000000000108 $d
/var/folders/d2/nstgp4h54kz7g1l847x_b8wc0000gn/T//cc2KwmRg.s:959    .text.read_parameter_string:0000000000000000 $t
/var/folders/d2/nstgp4h54kz7g1l847x_b8wc0000gn/T//cc2KwmRg.s:965    .text.read_parameter_string:0000000000000000 read_parameter_string
/var/folders/d2/nstgp4h54kz7g1l847x_b8wc0000gn/T//cc2KwmRg.s:1089   .text.read_parameter_string:00000000000000f8 $d
/var/folders/d2/nstgp4h54kz7g1l847x_b8wc0000gn/T//cc2KwmRg.s:1099   .text.read_parameter:0000000000000000 $t
/var/folders/d2/nstgp4h54kz7g1l847x_b8wc0000gn/T//cc2KwmRg.s:1105   .text.read_parameter:0000000000000000 read_parameter
/var/folders/d2/nstgp4h54kz7g1l847x_b8wc0000gn/T//cc2KwmRg.s:1124   .text.read_parameter:0000000000000020 $d
/var/folders/d2/nstgp4h54kz7g1l847x_b8wc0000gn/T//cc2KwmRg.s:1130   .text.read_parameter:0000000000000038 $t
/var/folders/d2/nstgp4h54kz7g1l847x_b8wc0000gn/T//cc2KwmRg.s:1216   .text.read_parameter:00000000000000d8 $d
/var/folders/d2/nstgp4h54kz7g1l847x_b8wc0000gn/T//cc2KwmRg.s:1235   .text.read_namespace:0000000000000000 $t
/var/folders/d2/nstgp4h54kz7g1l847x_b8wc0000gn/T//cc2KwmRg.s:1241   .text.read_namespace:0000000000000000 read_namespace
/var/folders/d2/nstgp4h54kz7g1l847x_b8wc0000gn/T//cc2KwmRg.s:1459   .text.read_namespace:00000000000001cc $d
/var/folders/d2/nstgp4h54kz7g1l847x_b8wc0000gn/T//cc2KwmRg.s:1466   .text.err_ignore_cb:0000000000000000 $t
/var/folders/d2/nstgp4h54kz7g1l847x_b8wc0000gn/T//cc2KwmRg.s:1472   .text.err_ignore_cb:0000000000000000 err_ignore_cb
/var/folders/d2/nstgp4h54kz7g1l847x_b8wc0000gn/T//cc2KwmRg.s:1494   .text.parameter_msgpack_read_cmp:0000000000000000 $t
/var/folders/d2/nstgp4h54kz7g1l847x_b8wc0000gn/T//cc2KwmRg.s:1501   .text.parameter_msgpack_read_cmp:0000000000000000 parameter_msgpack_read_cmp
ARM GAS  /var/folders/d2/nstgp4h54kz7g1l847x_b8wc0000gn/T//cc2KwmRg.s 			page 39


/var/folders/d2/nstgp4h54kz7g1l847x_b8wc0000gn/T//cc2KwmRg.s:1551   .text.parameter_msgpack_read_cmp:000000000000005c $d
/var/folders/d2/nstgp4h54kz7g1l847x_b8wc0000gn/T//cc2KwmRg.s:1555   .text.parameter_msgpack_read:0000000000000000 $t
/var/folders/d2/nstgp4h54kz7g1l847x_b8wc0000gn/T//cc2KwmRg.s:1562   .text.parameter_msgpack_read:0000000000000000 parameter_msgpack_read
/var/folders/d2/nstgp4h54kz7g1l847x_b8wc0000gn/T//cc2KwmRg.s:1597   .text.parameter_msgpack_write_subtree:0000000000000000 $t
/var/folders/d2/nstgp4h54kz7g1l847x_b8wc0000gn/T//cc2KwmRg.s:1603   .text.parameter_msgpack_write_subtree:0000000000000000 parameter_msgpack_write_subtree
/var/folders/d2/nstgp4h54kz7g1l847x_b8wc0000gn/T//cc2KwmRg.s:1703   .text.parameter_msgpack_write_subtree:00000000000000c0 $d
/var/folders/d2/nstgp4h54kz7g1l847x_b8wc0000gn/T//cc2KwmRg.s:1709   .text.parameter_msgpack_write_subtree:00000000000000d8 $t
/var/folders/d2/nstgp4h54kz7g1l847x_b8wc0000gn/T//cc2KwmRg.s:1963   .text.parameter_msgpack_write_subtree:00000000000002e0 $d
/var/folders/d2/nstgp4h54kz7g1l847x_b8wc0000gn/T//cc2KwmRg.s:1967   .text.parameter_msgpack_write_cmp:0000000000000000 $t
/var/folders/d2/nstgp4h54kz7g1l847x_b8wc0000gn/T//cc2KwmRg.s:1974   .text.parameter_msgpack_write_cmp:0000000000000000 parameter_msgpack_write_cmp
/var/folders/d2/nstgp4h54kz7g1l847x_b8wc0000gn/T//cc2KwmRg.s:1998   .text.parameter_msgpack_write:0000000000000000 $t
/var/folders/d2/nstgp4h54kz7g1l847x_b8wc0000gn/T//cc2KwmRg.s:2005   .text.parameter_msgpack_write:0000000000000000 parameter_msgpack_write
/var/folders/d2/nstgp4h54kz7g1l847x_b8wc0000gn/T//cc2KwmRg.s:2032   .rodata.__func__.8568:0000000000000000 $d

UNDEFINED SYMBOLS
_stats_start_measure_crit_thd
_dbg_check_lock
_dbg_check_unlock
_stats_stop_measure_crit_thd
chSysHalt
ch
__aeabi_l2f
cmp_object_as_float
cmp_object_as_sinteger
cmp_object_as_int
cmp_object_as_bool
cmp_read_object
parameter_scalar_set
parameter_integer_set
parameter_boolean_set
cmp_object_as_array
malloc
free
parameter_vector_set
parameter_variable_vector_set
cmp_object_as_str
parameter_string_set_w_len
cmp_read_str_size
cmp_object_is_map
_parameter_namespace_find_w_id_len
cmp_object_as_map
_parameter_find_w_id_len
cmp_read_map
cmp_mem_access_ro_init
cmp_write_map
strlen
cmp_write_str
cmp_write_float
cmp_write_s32
cmp_write_bool
cmp_write_array
cmp_mem_access_init
