ARM GAS  /var/folders/d2/nstgp4h54kz7g1l847x_b8wc0000gn/T//ccW13lHv.s 			page 1


   1              		.cpu cortex-m4
   2              		.eabi_attribute 27, 1
   3              		.eabi_attribute 28, 1
   4              		.eabi_attribute 20, 1
   5              		.eabi_attribute 21, 1
   6              		.eabi_attribute 23, 3
   7              		.eabi_attribute 24, 1
   8              		.eabi_attribute 25, 1
   9              		.eabi_attribute 26, 1
  10              		.eabi_attribute 30, 2
  11              		.eabi_attribute 34, 1
  12              		.eabi_attribute 18, 4
  13              		.file	"parameter.c"
  14              		.text
  15              	.Ltext0:
  16              		.cfi_sections	.debug_frame
  17              		.section	.text.get_subnamespace.part.0,"ax",%progbits
  18              		.align	1
  19              		.p2align 4,,15
  20              		.syntax unified
  21              		.thumb
  22              		.thumb_func
  23              		.fpu fpv4-sp-d16
  24              		.type	get_subnamespace.part.0, %function
  25              	get_subnamespace.part.0:
  26              	.LFB298:
  27              		.file 1 "../e-puck2_main-processor/src/parameter/parameter.c"
  28              		.loc 1 46 0
  29              		.cfi_startproc
  30              		@ args = 0, pretend = 0, frame = 8
  31              		@ frame_needed = 0, uses_anonymous_args = 0
  32              	.LVL0:
  33 0000 2DE9F041 		push	{r4, r5, r6, r7, r8, lr}
  34              		.cfi_def_cfa_offset 24
  35              		.cfi_offset 4, -24
  36              		.cfi_offset 5, -20
  37              		.cfi_offset 6, -16
  38              		.cfi_offset 7, -12
  39              		.cfi_offset 8, -8
  40              		.cfi_offset 14, -4
  41 0004 DFF88080 		ldr	r8, .L18+8
  42 0008 82B0     		sub	sp, sp, #8
  43              		.cfi_def_cfa_offset 32
  44              		.loc 1 46 0
  45 000a D8F80030 		ldr	r3, [r8]
  46 000e 0193     		str	r3, [sp, #4]
  47              	.LVL1:
  48 0010 0446     		mov	r4, r0
  49 0012 0F46     		mov	r7, r1
  50 0014 1646     		mov	r6, r2
  51              	.LBB185:
  52              	.LBB186:
  53              	.LBB187:
  54              	.LBB188:
  55              	.LBB189:
  56              		.file 2 "../e-puck2_main-processor/ChibiOS//os/ext/CMSIS/include/core_cmFunc.h"
  57              		.loc 2 546 0
ARM GAS  /var/folders/d2/nstgp4h54kz7g1l847x_b8wc0000gn/T//ccW13lHv.s 			page 2


  58 0016 2023     		movs	r3, #32
  59              		.syntax unified
  60              	@ 546 "../e-puck2_main-processor/ChibiOS//os/ext/CMSIS/include/core_cmFunc.h" 1
  61 0018 83F31188 		MSR basepri, r3
  62              	@ 0 "" 2
  63              	.LVL2:
  64              		.thumb
  65              		.syntax unified
  66              	.LBE189:
  67              	.LBE188:
  68              	.LBE187:
  69              		.file 3 "../e-puck2_main-processor/ChibiOS//os/rt/include/chsys.h"
  70              		.loc 3 349 0
  71 001c FFF7FEFF 		bl	_stats_start_measure_crit_thd
  72              	.LVL3:
  73              		.loc 3 350 0
  74 0020 FFF7FEFF 		bl	_dbg_check_lock
  75              	.LVL4:
  76              	.LBE186:
  77              	.LBE185:
  78              		.loc 1 54 0
  79 0024 E468     		ldr	r4, [r4, #12]
  80              	.LVL5:
  81              	.LBB190:
  82              	.LBB191:
  83              		.loc 3 360 0
  84 0026 FFF7FEFF 		bl	_dbg_check_unlock
  85              	.LVL6:
  86              		.loc 3 361 0
  87 002a FFF7FEFF 		bl	_stats_stop_measure_crit_thd
  88              	.LVL7:
  89              		.loc 3 367 0
  90 002e 144B     		ldr	r3, .L18
  91 0030 1A68     		ldr	r2, [r3]
  92 0032 9A42     		cmp	r2, r3
  93 0034 04D0     		beq	.L2
  94 0036 9969     		ldr	r1, [r3, #24]
  95 0038 9368     		ldr	r3, [r2, #8]
  96 003a 8A68     		ldr	r2, [r1, #8]
  97 003c 9A42     		cmp	r2, r3
  98 003e 18D3     		bcc	.L16
  99              	.L2:
 100              	.LVL8:
 101              	.LBB192:
 102              	.LBB193:
 103              	.LBB194:
 104              		.loc 2 546 0
 105 0040 0023     		movs	r3, #0
 106              		.syntax unified
 107              	@ 546 "../e-puck2_main-processor/ChibiOS//os/ext/CMSIS/include/core_cmFunc.h" 1
 108 0042 83F31188 		MSR basepri, r3
 109              	@ 0 "" 2
 110              	.LVL9:
 111              		.thumb
 112              		.syntax unified
 113              	.LBE194:
 114              	.LBE193:
ARM GAS  /var/folders/d2/nstgp4h54kz7g1l847x_b8wc0000gn/T//ccW13lHv.s 			page 3


 115              	.LBE192:
 116              	.LBE191:
 117              	.LBE190:
 118              		.loc 1 56 0
 119 0046 5CB1     		cbz	r4, .L1
 120              	.L5:
 121              		.loc 1 57 0
 122 0048 2568     		ldr	r5, [r4]
 123 004a 3246     		mov	r2, r6
 124 004c 2946     		mov	r1, r5
 125 004e 3846     		mov	r0, r7
 126 0050 FFF7FEFF 		bl	strncmp
 127              	.LVL10:
 128 0054 08B9     		cbnz	r0, .L4
 129 0056 AB5D     		ldrb	r3, [r5, r6]	@ zero_extendqisi2
 130 0058 13B1     		cbz	r3, .L1
 131              	.L4:
 132              		.loc 1 62 0
 133 005a 2469     		ldr	r4, [r4, #16]
 134              	.LVL11:
 135              		.loc 1 56 0
 136 005c 002C     		cmp	r4, #0
 137 005e F3D1     		bne	.L5
 138              	.L1:
 139              		.loc 1 65 0
 140 0060 019A     		ldr	r2, [sp, #4]
 141 0062 D8F80030 		ldr	r3, [r8]
 142 0066 9A42     		cmp	r2, r3
 143 0068 2046     		mov	r0, r4
 144 006a 06D1     		bne	.L17
 145              	.LVL12:
 146 006c 02B0     		add	sp, sp, #8
 147              		.cfi_remember_state
 148              		.cfi_def_cfa_offset 24
 149              		@ sp needed
 150 006e BDE8F081 		pop	{r4, r5, r6, r7, r8, pc}
 151              	.LVL13:
 152              	.L16:
 153              		.cfi_restore_state
 154              	.LBB196:
 155              	.LBB195:
 156              		.loc 3 367 0
 157 0072 0448     		ldr	r0, .L18+4
 158 0074 FFF7FEFF 		bl	chSysHalt
 159              	.LVL14:
 160 0078 E2E7     		b	.L2
 161              	.LVL15:
 162              	.L17:
 163              	.LBE195:
 164              	.LBE196:
 165              		.loc 1 65 0
 166 007a FFF7FEFF 		bl	__stack_chk_fail
 167              	.LVL16:
 168              	.L19:
 169 007e 00BF     		.align	2
 170              	.L18:
 171 0080 00000000 		.word	ch
ARM GAS  /var/folders/d2/nstgp4h54kz7g1l847x_b8wc0000gn/T//ccW13lHv.s 			page 4


 172 0084 00000000 		.word	.LANCHOR0
 173 0088 00000000 		.word	__stack_chk_guard
 174              		.cfi_endproc
 175              	.LFE298:
 176              		.size	get_subnamespace.part.0, .-get_subnamespace.part.0
 177              		.section	.text.parameter_namespace_declare,"ax",%progbits
 178              		.align	1
 179              		.p2align 4,,15
 180              		.global	parameter_namespace_declare
 181              		.syntax unified
 182              		.thumb
 183              		.thumb_func
 184              		.fpu fpv4-sp-d16
 185              		.type	parameter_namespace_declare, %function
 186              	parameter_namespace_declare:
 187              	.LFB253:
 188              		.loc 1 93 0
 189              		.cfi_startproc
 190              		@ args = 0, pretend = 0, frame = 8
 191              		@ frame_needed = 0, uses_anonymous_args = 0
 192              	.LVL17:
 193 0000 30B5     		push	{r4, r5, lr}
 194              		.cfi_def_cfa_offset 12
 195              		.cfi_offset 4, -12
 196              		.cfi_offset 5, -8
 197              		.cfi_offset 14, -4
 198 0002 1A4D     		ldr	r5, .L28
 199 0004 0446     		mov	r4, r0
 200 0006 83B0     		sub	sp, sp, #12
 201              		.cfi_def_cfa_offset 24
 202              		.loc 1 95 0
 203 0008 0023     		movs	r3, #0
 204              		.loc 1 93 0
 205 000a 2868     		ldr	r0, [r5]
 206              	.LVL18:
 207              		.loc 1 96 0
 208 000c A160     		str	r1, [r4, #8]
 209              		.loc 1 94 0
 210 000e 2260     		str	r2, [r4]
 211              		.loc 1 93 0
 212 0010 0190     		str	r0, [sp, #4]
 213              		.loc 1 95 0
 214 0012 6360     		str	r3, [r4, #4]
 215              		.loc 1 97 0
 216 0014 E360     		str	r3, [r4, #12]
 217              		.loc 1 98 0
 218 0016 6361     		str	r3, [r4, #20]
 219              		.loc 1 99 0
 220 0018 31B9     		cbnz	r1, .L26
 221              		.loc 1 106 0
 222 001a 2161     		str	r1, [r4, #16]
 223              	.LVL19:
 224              	.L20:
 225              		.loc 1 108 0
 226 001c 019A     		ldr	r2, [sp, #4]
 227 001e 2B68     		ldr	r3, [r5]
 228 0020 9A42     		cmp	r2, r3
ARM GAS  /var/folders/d2/nstgp4h54kz7g1l847x_b8wc0000gn/T//ccW13lHv.s 			page 5


 229 0022 20D1     		bne	.L27
 230 0024 03B0     		add	sp, sp, #12
 231              		.cfi_remember_state
 232              		.cfi_def_cfa_offset 12
 233              		@ sp needed
 234 0026 30BD     		pop	{r4, r5, pc}
 235              	.LVL20:
 236              	.L26:
 237              		.cfi_restore_state
 238              	.LBB207:
 239              	.LBB208:
 240              	.LBB209:
 241              	.LBB210:
 242              	.LBB211:
 243              		.loc 2 546 0
 244 0028 2023     		movs	r3, #32
 245              		.syntax unified
 246              	@ 546 "../e-puck2_main-processor/ChibiOS//os/ext/CMSIS/include/core_cmFunc.h" 1
 247 002a 83F31188 		MSR basepri, r3
 248              	@ 0 "" 2
 249              	.LVL21:
 250              		.thumb
 251              		.syntax unified
 252              	.LBE211:
 253              	.LBE210:
 254              	.LBE209:
 255              		.loc 3 349 0
 256 002e FFF7FEFF 		bl	_stats_start_measure_crit_thd
 257              	.LVL22:
 258              		.loc 3 350 0
 259 0032 FFF7FEFF 		bl	_dbg_check_lock
 260              	.LVL23:
 261              	.LBE208:
 262              	.LBE207:
 263              		.loc 1 102 0
 264 0036 A368     		ldr	r3, [r4, #8]
 265 0038 DA68     		ldr	r2, [r3, #12]
 266 003a 2261     		str	r2, [r4, #16]
 267              		.loc 1 103 0
 268 003c DC60     		str	r4, [r3, #12]
 269              	.LBB212:
 270              	.LBB213:
 271              		.loc 3 360 0
 272 003e FFF7FEFF 		bl	_dbg_check_unlock
 273              	.LVL24:
 274              		.loc 3 361 0
 275 0042 FFF7FEFF 		bl	_stats_stop_measure_crit_thd
 276              	.LVL25:
 277              		.loc 3 367 0
 278 0046 0A4B     		ldr	r3, .L28+4
 279 0048 1A68     		ldr	r2, [r3]
 280 004a 9A42     		cmp	r2, r3
 281 004c 07D0     		beq	.L22
 282 004e 9969     		ldr	r1, [r3, #24]
 283 0050 9368     		ldr	r3, [r2, #8]
 284 0052 8A68     		ldr	r2, [r1, #8]
 285 0054 9A42     		cmp	r2, r3
ARM GAS  /var/folders/d2/nstgp4h54kz7g1l847x_b8wc0000gn/T//ccW13lHv.s 			page 6


 286 0056 02D2     		bcs	.L22
 287 0058 0648     		ldr	r0, .L28+8
 288 005a FFF7FEFF 		bl	chSysHalt
 289              	.LVL26:
 290              	.L22:
 291              	.LBB214:
 292              	.LBB215:
 293              	.LBB216:
 294              		.loc 2 546 0
 295 005e 0023     		movs	r3, #0
 296              		.syntax unified
 297              	@ 546 "../e-puck2_main-processor/ChibiOS//os/ext/CMSIS/include/core_cmFunc.h" 1
 298 0060 83F31188 		MSR basepri, r3
 299              	@ 0 "" 2
 300              	.LVL27:
 301              		.thumb
 302              		.syntax unified
 303 0064 DAE7     		b	.L20
 304              	.L27:
 305              	.LBE216:
 306              	.LBE215:
 307              	.LBE214:
 308              	.LBE213:
 309              	.LBE212:
 310              		.loc 1 108 0
 311 0066 FFF7FEFF 		bl	__stack_chk_fail
 312              	.LVL28:
 313              	.L29:
 314 006a 00BF     		.align	2
 315              	.L28:
 316 006c 00000000 		.word	__stack_chk_guard
 317 0070 00000000 		.word	ch
 318 0074 00000000 		.word	.LANCHOR0
 319              		.cfi_endproc
 320              	.LFE253:
 321              		.size	parameter_namespace_declare, .-parameter_namespace_declare
 322              		.section	.text._parameter_namespace_find_w_id_len,"ax",%progbits
 323              		.align	1
 324              		.p2align 4,,15
 325              		.global	_parameter_namespace_find_w_id_len
 326              		.syntax unified
 327              		.thumb
 328              		.thumb_func
 329              		.fpu fpv4-sp-d16
 330              		.type	_parameter_namespace_find_w_id_len, %function
 331              	_parameter_namespace_find_w_id_len:
 332              	.LFB254:
 333              		.loc 1 113 0
 334              		.cfi_startproc
 335              		@ args = 0, pretend = 0, frame = 8
 336              		@ frame_needed = 0, uses_anonymous_args = 0
 337              	.LVL29:
 338 0000 2DE9F047 		push	{r4, r5, r6, r7, r8, r9, r10, lr}
 339              		.cfi_def_cfa_offset 32
 340              		.cfi_offset 4, -32
 341              		.cfi_offset 5, -28
 342              		.cfi_offset 6, -24
ARM GAS  /var/folders/d2/nstgp4h54kz7g1l847x_b8wc0000gn/T//ccW13lHv.s 			page 7


 343              		.cfi_offset 7, -20
 344              		.cfi_offset 8, -16
 345              		.cfi_offset 9, -12
 346              		.cfi_offset 10, -8
 347              		.cfi_offset 14, -4
 348 0004 DFF87090 		ldr	r9, .L58
 349 0008 82B0     		sub	sp, sp, #8
 350              		.cfi_def_cfa_offset 40
 351              		.loc 1 113 0
 352 000a D9F80030 		ldr	r3, [r9]
 353 000e 0193     		str	r3, [sp, #4]
 354              	.LVL30:
 355              		.loc 1 116 0
 356 0010 70B3     		cbz	r0, .L31
 357 0012 9046     		mov	r8, r2
 358 0014 FAB1     		cbz	r2, .L30
 359 0016 8A46     		mov	r10, r1
 360              		.loc 1 115 0
 361 0018 0027     		movs	r7, #0
 362              	.LVL31:
 363              	.L38:
 364              	.LBB217:
 365              		.loc 1 117 0
 366 001a A8EB0705 		sub	r5, r8, r7
 367              	.LBB218:
 368              	.LBB219:
 369              		.loc 1 34 0
 370 001e 002D     		cmp	r5, #0
 371              	.LBE219:
 372              	.LBE218:
 373              		.loc 1 117 0
 374 0020 2A46     		mov	r2, r5
 375 0022 0AEB0701 		add	r1, r10, r7
 376              	.LVL32:
 377              	.LBB221:
 378              	.LBB220:
 379              		.loc 1 34 0
 380 0026 0FDD     		ble	.L33
 381              		.loc 1 35 0
 382 0028 1AF80730 		ldrb	r3, [r10, r7]	@ zero_extendqisi2
 383 002c 2F2B     		cmp	r3, #47
 384 002e 1DD0     		beq	.L34
 385 0030 0C46     		mov	r4, r1
 386              		.loc 1 34 0
 387 0032 0023     		movs	r3, #0
 388 0034 04E0     		b	.L35
 389              	.LVL33:
 390              	.L37:
 391              		.loc 1 35 0
 392 0036 14F8016F 		ldrb	r6, [r4, #1]!	@ zero_extendqisi2
 393 003a 2F2E     		cmp	r6, #47
 394 003c 1A46     		mov	r2, r3
 395 003e 12D0     		beq	.L36
 396              	.LVL34:
 397              	.L35:
 398              		.loc 1 34 0
 399 0040 0133     		adds	r3, r3, #1
ARM GAS  /var/folders/d2/nstgp4h54kz7g1l847x_b8wc0000gn/T//ccW13lHv.s 			page 8


 400              	.LVL35:
 401 0042 9D42     		cmp	r5, r3
 402 0044 F7D1     		bne	.L37
 403 0046 2A46     		mov	r2, r5
 404              	.LVL36:
 405              	.L33:
 406 0048 0135     		adds	r5, r5, #1
 407              	.L39:
 408              	.LBE220:
 409              	.LBE221:
 410              	.LBB222:
 411              	.LBB223:
 412 004a FFF7FEFF 		bl	get_subnamespace.part.0
 413              	.LVL37:
 414              	.LBE223:
 415              	.LBE222:
 416              		.loc 1 119 0
 417 004e 2F44     		add	r7, r7, r5
 418              	.LVL38:
 419              	.LBE217:
 420              		.loc 1 116 0
 421 0050 70B1     		cbz	r0, .L31
 422              	.L40:
 423              		.loc 1 116 0 is_stmt 0 discriminator 1
 424 0052 B845     		cmp	r8, r7
 425 0054 E1D8     		bhi	.L38
 426              	.LVL39:
 427              	.L30:
 428              		.loc 1 122 0 is_stmt 1
 429 0056 019A     		ldr	r2, [sp, #4]
 430 0058 D9F80030 		ldr	r3, [r9]
 431 005c 9A42     		cmp	r2, r3
 432 005e 09D1     		bne	.L57
 433 0060 02B0     		add	sp, sp, #8
 434              		.cfi_remember_state
 435              		.cfi_def_cfa_offset 32
 436              		@ sp needed
 437 0062 BDE8F087 		pop	{r4, r5, r6, r7, r8, r9, r10, pc}
 438              	.LVL40:
 439              	.L36:
 440              		.cfi_restore_state
 441 0066 5D1C     		adds	r5, r3, #1
 442              	.LBB226:
 443              	.LBB225:
 444              	.LBB224:
 445              		.loc 1 50 0
 446 0068 002B     		cmp	r3, #0
 447 006a EED1     		bne	.L39
 448              	.LVL41:
 449              	.L34:
 450              	.LBE224:
 451              	.LBE225:
 452              		.loc 1 119 0
 453 006c 0137     		adds	r7, r7, #1
 454              	.LVL42:
 455 006e F0E7     		b	.L40
 456              	.LVL43:
ARM GAS  /var/folders/d2/nstgp4h54kz7g1l847x_b8wc0000gn/T//ccW13lHv.s 			page 9


 457              	.L31:
 458              	.LBE226:
 459 0070 0020     		movs	r0, #0
 460              	.LVL44:
 461 0072 F0E7     		b	.L30
 462              	.L57:
 463              		.loc 1 122 0
 464 0074 FFF7FEFF 		bl	__stack_chk_fail
 465              	.LVL45:
 466              	.L59:
 467              		.align	2
 468              	.L58:
 469 0078 00000000 		.word	__stack_chk_guard
 470              		.cfi_endproc
 471              	.LFE254:
 472              		.size	_parameter_namespace_find_w_id_len, .-_parameter_namespace_find_w_id_len
 473              		.section	.text.parameter_namespace_find,"ax",%progbits
 474              		.align	1
 475              		.p2align 4,,15
 476              		.global	parameter_namespace_find
 477              		.syntax unified
 478              		.thumb
 479              		.thumb_func
 480              		.fpu fpv4-sp-d16
 481              		.type	parameter_namespace_find, %function
 482              	parameter_namespace_find:
 483              	.LFB255:
 484              		.loc 1 126 0
 485              		.cfi_startproc
 486              		@ args = 0, pretend = 0, frame = 8
 487              		@ frame_needed = 0, uses_anonymous_args = 0
 488              	.LVL46:
 489 0000 70B5     		push	{r4, r5, r6, lr}
 490              		.cfi_def_cfa_offset 16
 491              		.cfi_offset 4, -16
 492              		.cfi_offset 5, -12
 493              		.cfi_offset 6, -8
 494              		.cfi_offset 14, -4
 495 0002 0B4C     		ldr	r4, .L65
 496 0004 82B0     		sub	sp, sp, #8
 497              		.cfi_def_cfa_offset 24
 498              		.loc 1 126 0
 499 0006 2368     		ldr	r3, [r4]
 500 0008 0193     		str	r3, [sp, #4]
 501 000a 0646     		mov	r6, r0
 502              		.loc 1 127 0
 503 000c 0846     		mov	r0, r1
 504              	.LVL47:
 505              		.loc 1 126 0
 506 000e 0D46     		mov	r5, r1
 507              		.loc 1 127 0
 508 0010 FFF7FEFF 		bl	strlen
 509              	.LVL48:
 510 0014 0199     		ldr	r1, [sp, #4]
 511 0016 2368     		ldr	r3, [r4]
 512 0018 9942     		cmp	r1, r3
 513 001a 07D1     		bne	.L64
ARM GAS  /var/folders/d2/nstgp4h54kz7g1l847x_b8wc0000gn/T//ccW13lHv.s 			page 10


 514 001c 0246     		mov	r2, r0
 515 001e 2946     		mov	r1, r5
 516 0020 3046     		mov	r0, r6
 517              		.loc 1 128 0
 518 0022 02B0     		add	sp, sp, #8
 519              		.cfi_remember_state
 520              		.cfi_def_cfa_offset 16
 521              		@ sp needed
 522 0024 BDE87040 		pop	{r4, r5, r6, lr}
 523              		.cfi_restore 14
 524              		.cfi_restore 6
 525              		.cfi_restore 5
 526              		.cfi_restore 4
 527              		.cfi_def_cfa_offset 0
 528              	.LVL49:
 529              		.loc 1 127 0
 530 0028 FFF7FEBF 		b	_parameter_namespace_find_w_id_len
 531              	.LVL50:
 532              	.L64:
 533              		.cfi_restore_state
 534 002c FFF7FEFF 		bl	__stack_chk_fail
 535              	.LVL51:
 536              	.L66:
 537              		.align	2
 538              	.L65:
 539 0030 00000000 		.word	__stack_chk_guard
 540              		.cfi_endproc
 541              	.LFE255:
 542              		.size	parameter_namespace_find, .-parameter_namespace_find
 543              		.section	.text._parameter_find_w_id_len,"ax",%progbits
 544              		.align	1
 545              		.p2align 4,,15
 546              		.global	_parameter_find_w_id_len
 547              		.syntax unified
 548              		.thumb
 549              		.thumb_func
 550              		.fpu fpv4-sp-d16
 551              		.type	_parameter_find_w_id_len, %function
 552              	_parameter_find_w_id_len:
 553              	.LFB256:
 554              		.loc 1 132 0
 555              		.cfi_startproc
 556              		@ args = 0, pretend = 0, frame = 16
 557              		@ frame_needed = 0, uses_anonymous_args = 0
 558              	.LVL52:
 559 0000 2DE9F043 		push	{r4, r5, r6, r7, r8, r9, lr}
 560              		.cfi_def_cfa_offset 28
 561              		.cfi_offset 4, -28
 562              		.cfi_offset 5, -24
 563              		.cfi_offset 6, -20
 564              		.cfi_offset 7, -16
 565              		.cfi_offset 8, -12
 566              		.cfi_offset 9, -8
 567              		.cfi_offset 14, -4
 568 0004 DFF8F880 		ldr	r8, .L104+8
 569 0008 85B0     		sub	sp, sp, #20
 570              		.cfi_def_cfa_offset 48
ARM GAS  /var/folders/d2/nstgp4h54kz7g1l847x_b8wc0000gn/T//ccW13lHv.s 			page 11


 571              		.loc 1 132 0
 572 000a D8F80030 		ldr	r3, [r8]
 573 000e 0393     		str	r3, [sp, #12]
 574              	.LVL53:
 575              		.loc 1 135 0
 576 0010 48B3     		cbz	r0, .L69
 577 0012 8946     		mov	r9, r1
 578 0014 1746     		mov	r7, r2
 579              		.loc 1 134 0
 580 0016 4FF0000C 		mov	ip, #0
 581              	.LVL54:
 582              	.L68:
 583              	.LBB244:
 584              		.loc 1 136 0
 585 001a A7EB0C0E 		sub	lr, r7, ip
 586              	.LBB245:
 587              	.LBB246:
 588              		.loc 1 34 0
 589 001e BEF1000F 		cmp	lr, #0
 590              	.LBE246:
 591              	.LBE245:
 592              		.loc 1 136 0
 593 0022 7446     		mov	r4, lr
 594 0024 09EB0C06 		add	r6, r9, ip
 595              	.LVL55:
 596              	.LBB249:
 597              	.LBB247:
 598              		.loc 1 34 0
 599 0028 27DD     		ble	.L84
 600              		.loc 1 35 0
 601 002a 19F80C30 		ldrb	r3, [r9, ip]	@ zero_extendqisi2
 602 002e 2F2B     		cmp	r3, #47
 603 0030 57D0     		beq	.L71
 604 0032 3246     		mov	r2, r6
 605              		.loc 1 34 0
 606 0034 0023     		movs	r3, #0
 607 0036 06E0     		b	.L72
 608              	.LVL56:
 609              	.L73:
 610              		.loc 1 35 0
 611 0038 12F8011F 		ldrb	r1, [r2, #1]!	@ zero_extendqisi2
 612 003c 2F29     		cmp	r1, #47
 613 003e 1C46     		mov	r4, r3
 614 0040 03EB0C05 		add	r5, r3, ip
 615 0044 1AD0     		beq	.L70
 616              	.LVL57:
 617              	.L72:
 618              		.loc 1 34 0
 619 0046 0133     		adds	r3, r3, #1
 620              	.LVL58:
 621 0048 9E45     		cmp	lr, r3
 622 004a F5D1     		bne	.L73
 623 004c 0CEB0E05 		add	r5, ip, lr
 624              	.LVL59:
 625              	.LBE247:
 626              	.LBE249:
 627              		.loc 1 137 0
ARM GAS  /var/folders/d2/nstgp4h54kz7g1l847x_b8wc0000gn/T//ccW13lHv.s 			page 12


 628 0050 AF42     		cmp	r7, r5
 629 0052 7446     		mov	r4, lr
 630 0054 19D9     		bls	.L75
 631              	.L74:
 632              	.LVL60:
 633              	.LBB250:
 634              	.LBB251:
 635 0056 2246     		mov	r2, r4
 636 0058 3146     		mov	r1, r6
 637 005a FFF7FEFF 		bl	get_subnamespace.part.0
 638              	.LVL61:
 639              	.LBE251:
 640              	.LBE250:
 641              		.loc 1 142 0
 642 005e 05F1010C 		add	ip, r5, #1
 643              	.LVL62:
 644              	.LBE244:
 645              		.loc 1 135 0
 646 0062 0028     		cmp	r0, #0
 647 0064 D9D1     		bne	.L68
 648              	.LVL63:
 649              	.L69:
 650              		.loc 1 144 0
 651 0066 0025     		movs	r5, #0
 652              	.L67:
 653              		.loc 1 145 0
 654 0068 039A     		ldr	r2, [sp, #12]
 655 006a D8F80030 		ldr	r3, [r8]
 656 006e 9A42     		cmp	r2, r3
 657 0070 2846     		mov	r0, r5
 658 0072 3ED1     		bne	.L102
 659 0074 05B0     		add	sp, sp, #20
 660              		.cfi_remember_state
 661              		.cfi_def_cfa_offset 28
 662              		@ sp needed
 663 0076 BDE8F083 		pop	{r4, r5, r6, r7, r8, r9, pc}
 664              	.LVL64:
 665              	.L84:
 666              		.cfi_restore_state
 667              	.LBB271:
 668              	.LBB253:
 669              	.LBB248:
 670              		.loc 1 34 0
 671 007a 3D46     		mov	r5, r7
 672              	.LVL65:
 673              	.L70:
 674              	.LBE248:
 675              	.LBE253:
 676              		.loc 1 137 0
 677 007c AF42     		cmp	r7, r5
 678 007e 04D9     		bls	.L75
 679              	.LVL66:
 680              	.LBB254:
 681              	.LBB252:
 682              		.loc 1 50 0
 683 0080 002C     		cmp	r4, #0
 684 0082 E8D1     		bne	.L74
ARM GAS  /var/folders/d2/nstgp4h54kz7g1l847x_b8wc0000gn/T//ccW13lHv.s 			page 13


 685              	.LVL67:
 686              	.L76:
 687              	.LBE252:
 688              	.LBE254:
 689              		.loc 1 142 0
 690 0084 05F1010C 		add	ip, r5, #1
 691              	.LVL68:
 692 0088 C7E7     		b	.L68
 693              	.L75:
 694              	.LVL69:
 695 008a 0190     		str	r0, [sp, #4]
 696              	.LVL70:
 697              	.LBB255:
 698              	.LBB256:
 699              		.loc 1 73 0
 700 008c 002C     		cmp	r4, #0
 701 008e EAD0     		beq	.L69
 702              	.LVL71:
 703              	.LBB257:
 704              	.LBB258:
 705              	.LBB259:
 706              	.LBB260:
 707              	.LBB261:
 708              		.loc 2 546 0
 709 0090 2023     		movs	r3, #32
 710              		.syntax unified
 711              	@ 546 "../e-puck2_main-processor/ChibiOS//os/ext/CMSIS/include/core_cmFunc.h" 1
 712 0092 83F31188 		MSR basepri, r3
 713              	@ 0 "" 2
 714              	.LVL72:
 715              		.thumb
 716              		.syntax unified
 717              	.LBE261:
 718              	.LBE260:
 719              	.LBE259:
 720              		.loc 3 349 0
 721 0096 FFF7FEFF 		bl	_stats_start_measure_crit_thd
 722              	.LVL73:
 723              		.loc 3 350 0
 724 009a FFF7FEFF 		bl	_dbg_check_lock
 725              	.LVL74:
 726              	.LBE258:
 727              	.LBE257:
 728              		.loc 1 77 0
 729 009e 0198     		ldr	r0, [sp, #4]
 730 00a0 4569     		ldr	r5, [r0, #20]
 731              	.LVL75:
 732              	.LBB262:
 733              	.LBB263:
 734              		.loc 3 360 0
 735 00a2 FFF7FEFF 		bl	_dbg_check_unlock
 736              	.LVL76:
 737              		.loc 3 361 0
 738 00a6 FFF7FEFF 		bl	_stats_stop_measure_crit_thd
 739              	.LVL77:
 740              		.loc 3 367 0
 741 00aa 134B     		ldr	r3, .L104
ARM GAS  /var/folders/d2/nstgp4h54kz7g1l847x_b8wc0000gn/T//ccW13lHv.s 			page 14


 742 00ac 1A68     		ldr	r2, [r3]
 743 00ae 9A42     		cmp	r2, r3
 744 00b0 04D0     		beq	.L78
 745 00b2 9969     		ldr	r1, [r3, #24]
 746 00b4 9368     		ldr	r3, [r2, #8]
 747 00b6 8A68     		ldr	r2, [r1, #8]
 748 00b8 9A42     		cmp	r2, r3
 749 00ba 16D3     		bcc	.L103
 750              	.L78:
 751              	.LVL78:
 752              	.LBB264:
 753              	.LBB265:
 754              	.LBB266:
 755              		.loc 2 546 0
 756 00bc 0023     		movs	r3, #0
 757              		.syntax unified
 758              	@ 546 "../e-puck2_main-processor/ChibiOS//os/ext/CMSIS/include/core_cmFunc.h" 1
 759 00be 83F31188 		MSR basepri, r3
 760              	@ 0 "" 2
 761              	.LVL79:
 762              		.thumb
 763              		.syntax unified
 764              	.LBE266:
 765              	.LBE265:
 766              	.LBE264:
 767              	.LBE263:
 768              	.LBE262:
 769              		.loc 1 79 0
 770 00c2 002D     		cmp	r5, #0
 771 00c4 CFD0     		beq	.L69
 772              	.LVL80:
 773              	.L81:
 774              		.loc 1 80 0
 775 00c6 2F68     		ldr	r7, [r5]
 776 00c8 2246     		mov	r2, r4
 777 00ca 3946     		mov	r1, r7
 778 00cc 3046     		mov	r0, r6
 779 00ce FFF7FEFF 		bl	strncmp
 780              	.LVL81:
 781 00d2 10B9     		cbnz	r0, .L79
 782 00d4 3B5D     		ldrb	r3, [r7, r4]	@ zero_extendqisi2
 783 00d6 002B     		cmp	r3, #0
 784 00d8 C6D0     		beq	.L67
 785              	.L79:
 786              		.loc 1 85 0
 787 00da AD68     		ldr	r5, [r5, #8]
 788              	.LVL82:
 789              		.loc 1 79 0
 790 00dc 002D     		cmp	r5, #0
 791 00de F2D1     		bne	.L81
 792 00e0 C1E7     		b	.L69
 793              	.LVL83:
 794              	.L71:
 795              	.LBE256:
 796              	.LBE255:
 797              		.loc 1 137 0
 798 00e2 6745     		cmp	r7, ip
ARM GAS  /var/folders/d2/nstgp4h54kz7g1l847x_b8wc0000gn/T//ccW13lHv.s 			page 15


 799 00e4 BFD9     		bls	.L69
 800 00e6 6546     		mov	r5, ip
 801 00e8 CCE7     		b	.L76
 802              	.LVL84:
 803              	.L103:
 804              	.LBB270:
 805              	.LBB269:
 806              	.LBB268:
 807              	.LBB267:
 808              		.loc 3 367 0
 809 00ea 0448     		ldr	r0, .L104+4
 810 00ec FFF7FEFF 		bl	chSysHalt
 811              	.LVL85:
 812 00f0 E4E7     		b	.L78
 813              	.LVL86:
 814              	.L102:
 815              	.LBE267:
 816              	.LBE268:
 817              	.LBE269:
 818              	.LBE270:
 819              	.LBE271:
 820              		.loc 1 145 0
 821 00f2 FFF7FEFF 		bl	__stack_chk_fail
 822              	.LVL87:
 823              	.L105:
 824 00f6 00BF     		.align	2
 825              	.L104:
 826 00f8 00000000 		.word	ch
 827 00fc 00000000 		.word	.LANCHOR0
 828 0100 00000000 		.word	__stack_chk_guard
 829              		.cfi_endproc
 830              	.LFE256:
 831              		.size	_parameter_find_w_id_len, .-_parameter_find_w_id_len
 832              		.section	.text.parameter_find,"ax",%progbits
 833              		.align	1
 834              		.p2align 4,,15
 835              		.global	parameter_find
 836              		.syntax unified
 837              		.thumb
 838              		.thumb_func
 839              		.fpu fpv4-sp-d16
 840              		.type	parameter_find, %function
 841              	parameter_find:
 842              	.LFB257:
 843              		.loc 1 148 0
 844              		.cfi_startproc
 845              		@ args = 0, pretend = 0, frame = 8
 846              		@ frame_needed = 0, uses_anonymous_args = 0
 847              	.LVL88:
 848 0000 70B5     		push	{r4, r5, r6, lr}
 849              		.cfi_def_cfa_offset 16
 850              		.cfi_offset 4, -16
 851              		.cfi_offset 5, -12
 852              		.cfi_offset 6, -8
 853              		.cfi_offset 14, -4
 854 0002 0B4C     		ldr	r4, .L111
 855 0004 82B0     		sub	sp, sp, #8
ARM GAS  /var/folders/d2/nstgp4h54kz7g1l847x_b8wc0000gn/T//ccW13lHv.s 			page 16


 856              		.cfi_def_cfa_offset 24
 857              		.loc 1 148 0
 858 0006 2368     		ldr	r3, [r4]
 859 0008 0193     		str	r3, [sp, #4]
 860 000a 0646     		mov	r6, r0
 861              		.loc 1 149 0
 862 000c 0846     		mov	r0, r1
 863              	.LVL89:
 864              		.loc 1 148 0
 865 000e 0D46     		mov	r5, r1
 866              		.loc 1 149 0
 867 0010 FFF7FEFF 		bl	strlen
 868              	.LVL90:
 869 0014 0199     		ldr	r1, [sp, #4]
 870 0016 2368     		ldr	r3, [r4]
 871 0018 9942     		cmp	r1, r3
 872 001a 07D1     		bne	.L110
 873 001c 0246     		mov	r2, r0
 874 001e 2946     		mov	r1, r5
 875 0020 3046     		mov	r0, r6
 876              		.loc 1 150 0
 877 0022 02B0     		add	sp, sp, #8
 878              		.cfi_remember_state
 879              		.cfi_def_cfa_offset 16
 880              		@ sp needed
 881 0024 BDE87040 		pop	{r4, r5, r6, lr}
 882              		.cfi_restore 14
 883              		.cfi_restore 6
 884              		.cfi_restore 5
 885              		.cfi_restore 4
 886              		.cfi_def_cfa_offset 0
 887              	.LVL91:
 888              		.loc 1 149 0
 889 0028 FFF7FEBF 		b	_parameter_find_w_id_len
 890              	.LVL92:
 891              	.L110:
 892              		.cfi_restore_state
 893 002c FFF7FEFF 		bl	__stack_chk_fail
 894              	.LVL93:
 895              	.L112:
 896              		.align	2
 897              	.L111:
 898 0030 00000000 		.word	__stack_chk_guard
 899              		.cfi_endproc
 900              	.LFE257:
 901              		.size	parameter_find, .-parameter_find
 902              		.section	.text._parameter_declare,"ax",%progbits
 903              		.align	1
 904              		.p2align 4,,15
 905              		.global	_parameter_declare
 906              		.syntax unified
 907              		.thumb
 908              		.thumb_func
 909              		.fpu fpv4-sp-d16
 910              		.type	_parameter_declare, %function
 911              	_parameter_declare:
 912              	.LFB258:
ARM GAS  /var/folders/d2/nstgp4h54kz7g1l847x_b8wc0000gn/T//ccW13lHv.s 			page 17


 913              		.loc 1 154 0
 914              		.cfi_startproc
 915              		@ args = 0, pretend = 0, frame = 8
 916              		@ frame_needed = 0, uses_anonymous_args = 0
 917              	.LVL94:
 918 0000 30B5     		push	{r4, r5, lr}
 919              		.cfi_def_cfa_offset 12
 920              		.cfi_offset 4, -12
 921              		.cfi_offset 5, -8
 922              		.cfi_offset 14, -4
 923 0002 184D     		ldr	r5, .L119
 924 0004 0446     		mov	r4, r0
 925 0006 83B0     		sub	sp, sp, #12
 926              		.cfi_def_cfa_offset 24
 927              		.loc 1 154 0
 928 0008 2868     		ldr	r0, [r5]
 929              	.LVL95:
 930              		.loc 1 156 0
 931 000a 6160     		str	r1, [r4, #4]
 932              		.loc 1 157 0
 933 000c 0023     		movs	r3, #0
 934 000e 2373     		strb	r3, [r4, #12]
 935              		.loc 1 158 0
 936 0010 6373     		strb	r3, [r4, #13]
 937              	.LVL96:
 938              		.loc 1 155 0
 939 0012 2260     		str	r2, [r4]
 940              		.loc 1 154 0
 941 0014 0190     		str	r0, [sp, #4]
 942              	.LBB282:
 943              	.LBB283:
 944              	.LBB284:
 945              	.LBB285:
 946              	.LBB286:
 947              		.loc 2 546 0
 948 0016 2023     		movs	r3, #32
 949              		.syntax unified
 950              	@ 546 "../e-puck2_main-processor/ChibiOS//os/ext/CMSIS/include/core_cmFunc.h" 1
 951 0018 83F31188 		MSR basepri, r3
 952              	@ 0 "" 2
 953              	.LVL97:
 954              		.thumb
 955              		.syntax unified
 956              	.LBE286:
 957              	.LBE285:
 958              	.LBE284:
 959              		.loc 3 349 0
 960 001c FFF7FEFF 		bl	_stats_start_measure_crit_thd
 961              	.LVL98:
 962              		.loc 3 350 0
 963 0020 FFF7FEFF 		bl	_dbg_check_lock
 964              	.LVL99:
 965              	.LBE283:
 966              	.LBE282:
 967              		.loc 1 161 0
 968 0024 6368     		ldr	r3, [r4, #4]
 969 0026 5A69     		ldr	r2, [r3, #20]
ARM GAS  /var/folders/d2/nstgp4h54kz7g1l847x_b8wc0000gn/T//ccW13lHv.s 			page 18


 970 0028 A260     		str	r2, [r4, #8]
 971              		.loc 1 162 0
 972 002a 5C61     		str	r4, [r3, #20]
 973              	.LBB287:
 974              	.LBB288:
 975              		.loc 3 360 0
 976 002c FFF7FEFF 		bl	_dbg_check_unlock
 977              	.LVL100:
 978              		.loc 3 361 0
 979 0030 FFF7FEFF 		bl	_stats_stop_measure_crit_thd
 980              	.LVL101:
 981              		.loc 3 367 0
 982 0034 0C4B     		ldr	r3, .L119+4
 983 0036 1A68     		ldr	r2, [r3]
 984 0038 9A42     		cmp	r2, r3
 985 003a 04D0     		beq	.L114
 986 003c 9969     		ldr	r1, [r3, #24]
 987 003e 9368     		ldr	r3, [r2, #8]
 988 0040 8A68     		ldr	r2, [r1, #8]
 989 0042 9A42     		cmp	r2, r3
 990 0044 08D3     		bcc	.L117
 991              	.L114:
 992              	.LVL102:
 993              	.LBB289:
 994              	.LBB290:
 995              	.LBB291:
 996              		.loc 2 546 0
 997 0046 0023     		movs	r3, #0
 998              		.syntax unified
 999              	@ 546 "../e-puck2_main-processor/ChibiOS//os/ext/CMSIS/include/core_cmFunc.h" 1
 1000 0048 83F31188 		MSR basepri, r3
 1001              	@ 0 "" 2
 1002              	.LVL103:
 1003              		.thumb
 1004              		.syntax unified
 1005              	.LBE291:
 1006              	.LBE290:
 1007              	.LBE289:
 1008              	.LBE288:
 1009              	.LBE287:
 1010              		.loc 1 164 0
 1011 004c 019A     		ldr	r2, [sp, #4]
 1012 004e 2B68     		ldr	r3, [r5]
 1013 0050 9A42     		cmp	r2, r3
 1014 0052 05D1     		bne	.L118
 1015 0054 03B0     		add	sp, sp, #12
 1016              		.cfi_remember_state
 1017              		.cfi_def_cfa_offset 12
 1018              		@ sp needed
 1019 0056 30BD     		pop	{r4, r5, pc}
 1020              	.LVL104:
 1021              	.L117:
 1022              		.cfi_restore_state
 1023              	.LBB293:
 1024              	.LBB292:
 1025              		.loc 3 367 0
 1026 0058 0448     		ldr	r0, .L119+8
ARM GAS  /var/folders/d2/nstgp4h54kz7g1l847x_b8wc0000gn/T//ccW13lHv.s 			page 19


 1027 005a FFF7FEFF 		bl	chSysHalt
 1028              	.LVL105:
 1029 005e F2E7     		b	.L114
 1030              	.L118:
 1031              	.LBE292:
 1032              	.LBE293:
 1033              		.loc 1 164 0
 1034 0060 FFF7FEFF 		bl	__stack_chk_fail
 1035              	.LVL106:
 1036              	.L120:
 1037              		.align	2
 1038              	.L119:
 1039 0064 00000000 		.word	__stack_chk_guard
 1040 0068 00000000 		.word	ch
 1041 006c 00000000 		.word	.LANCHOR0
 1042              		.cfi_endproc
 1043              	.LFE258:
 1044              		.size	_parameter_declare, .-_parameter_declare
 1045              		.section	.text.parameter_namespace_contains_changed,"ax",%progbits
 1046              		.align	1
 1047              		.p2align 4,,15
 1048              		.global	parameter_namespace_contains_changed
 1049              		.syntax unified
 1050              		.thumb
 1051              		.thumb_func
 1052              		.fpu fpv4-sp-d16
 1053              		.type	parameter_namespace_contains_changed, %function
 1054              	parameter_namespace_contains_changed:
 1055              	.LFB259:
 1056              		.loc 1 167 0
 1057              		.cfi_startproc
 1058              		@ args = 0, pretend = 0, frame = 8
 1059              		@ frame_needed = 0, uses_anonymous_args = 0
 1060              	.LVL107:
 1061 0000 30B5     		push	{r4, r5, lr}
 1062              		.cfi_def_cfa_offset 12
 1063              		.cfi_offset 4, -12
 1064              		.cfi_offset 5, -8
 1065              		.cfi_offset 14, -4
 1066 0002 164C     		ldr	r4, .L127
 1067 0004 83B0     		sub	sp, sp, #12
 1068              		.cfi_def_cfa_offset 24
 1069              		.loc 1 167 0
 1070 0006 2368     		ldr	r3, [r4]
 1071 0008 0193     		str	r3, [sp, #4]
 1072              	.LVL108:
 1073 000a 0546     		mov	r5, r0
 1074              	.LBB304:
 1075              	.LBB305:
 1076              	.LBB306:
 1077              	.LBB307:
 1078              	.LBB308:
 1079              		.loc 2 546 0
 1080 000c 2023     		movs	r3, #32
 1081              		.syntax unified
 1082              	@ 546 "../e-puck2_main-processor/ChibiOS//os/ext/CMSIS/include/core_cmFunc.h" 1
 1083 000e 83F31188 		MSR basepri, r3
ARM GAS  /var/folders/d2/nstgp4h54kz7g1l847x_b8wc0000gn/T//ccW13lHv.s 			page 20


 1084              	@ 0 "" 2
 1085              	.LVL109:
 1086              		.thumb
 1087              		.syntax unified
 1088              	.LBE308:
 1089              	.LBE307:
 1090              	.LBE306:
 1091              		.loc 3 349 0
 1092 0012 FFF7FEFF 		bl	_stats_start_measure_crit_thd
 1093              	.LVL110:
 1094              		.loc 3 350 0
 1095 0016 FFF7FEFF 		bl	_dbg_check_lock
 1096              	.LVL111:
 1097              	.LBE305:
 1098              	.LBE304:
 1099              		.loc 1 169 0
 1100 001a 6D68     		ldr	r5, [r5, #4]
 1101              	.LVL112:
 1102              	.LBB309:
 1103              	.LBB310:
 1104              		.loc 3 360 0
 1105 001c FFF7FEFF 		bl	_dbg_check_unlock
 1106              	.LVL113:
 1107              		.loc 3 361 0
 1108 0020 FFF7FEFF 		bl	_stats_stop_measure_crit_thd
 1109              	.LVL114:
 1110              		.loc 3 367 0
 1111 0024 0E4B     		ldr	r3, .L127+4
 1112 0026 1A68     		ldr	r2, [r3]
 1113 0028 9A42     		cmp	r2, r3
 1114 002a 04D0     		beq	.L122
 1115 002c 9969     		ldr	r1, [r3, #24]
 1116 002e 9368     		ldr	r3, [r2, #8]
 1117 0030 8A68     		ldr	r2, [r1, #8]
 1118 0032 9A42     		cmp	r2, r3
 1119 0034 0BD3     		bcc	.L125
 1120              	.L122:
 1121              	.LVL115:
 1122              	.LBB311:
 1123              	.LBB312:
 1124              	.LBB313:
 1125              		.loc 2 546 0
 1126 0036 0023     		movs	r3, #0
 1127              		.syntax unified
 1128              	@ 546 "../e-puck2_main-processor/ChibiOS//os/ext/CMSIS/include/core_cmFunc.h" 1
 1129 0038 83F31188 		MSR basepri, r3
 1130              	@ 0 "" 2
 1131              	.LVL116:
 1132              		.thumb
 1133              		.syntax unified
 1134              	.LBE313:
 1135              	.LBE312:
 1136              	.LBE311:
 1137              	.LBE310:
 1138              	.LBE309:
 1139              		.loc 1 172 0
 1140 003c 019A     		ldr	r2, [sp, #4]
ARM GAS  /var/folders/d2/nstgp4h54kz7g1l847x_b8wc0000gn/T//ccW13lHv.s 			page 21


 1141 003e 2368     		ldr	r3, [r4]
 1142 0040 281C     		adds	r0, r5, #0
 1143 0042 18BF     		it	ne
 1144 0044 0120     		movne	r0, #1
 1145 0046 9A42     		cmp	r2, r3
 1146 0048 05D1     		bne	.L126
 1147 004a 03B0     		add	sp, sp, #12
 1148              		.cfi_remember_state
 1149              		.cfi_def_cfa_offset 12
 1150              		@ sp needed
 1151 004c 30BD     		pop	{r4, r5, pc}
 1152              	.LVL117:
 1153              	.L125:
 1154              		.cfi_restore_state
 1155              	.LBB315:
 1156              	.LBB314:
 1157              		.loc 3 367 0
 1158 004e 0548     		ldr	r0, .L127+8
 1159 0050 FFF7FEFF 		bl	chSysHalt
 1160              	.LVL118:
 1161 0054 EFE7     		b	.L122
 1162              	.L126:
 1163              	.LBE314:
 1164              	.LBE315:
 1165              		.loc 1 172 0
 1166 0056 FFF7FEFF 		bl	__stack_chk_fail
 1167              	.LVL119:
 1168              	.L128:
 1169 005a 00BF     		.align	2
 1170              	.L127:
 1171 005c 00000000 		.word	__stack_chk_guard
 1172 0060 00000000 		.word	ch
 1173 0064 00000000 		.word	.LANCHOR0
 1174              		.cfi_endproc
 1175              	.LFE259:
 1176              		.size	parameter_namespace_contains_changed, .-parameter_namespace_contains_changed
 1177              		.section	.text.parameter_changed,"ax",%progbits
 1178              		.align	1
 1179              		.p2align 4,,15
 1180              		.global	parameter_changed
 1181              		.syntax unified
 1182              		.thumb
 1183              		.thumb_func
 1184              		.fpu fpv4-sp-d16
 1185              		.type	parameter_changed, %function
 1186              	parameter_changed:
 1187              	.LFB260:
 1188              		.loc 1 175 0
 1189              		.cfi_startproc
 1190              		@ args = 0, pretend = 0, frame = 8
 1191              		@ frame_needed = 0, uses_anonymous_args = 0
 1192              	.LVL120:
 1193 0000 30B5     		push	{r4, r5, lr}
 1194              		.cfi_def_cfa_offset 12
 1195              		.cfi_offset 4, -12
 1196              		.cfi_offset 5, -8
 1197              		.cfi_offset 14, -4
ARM GAS  /var/folders/d2/nstgp4h54kz7g1l847x_b8wc0000gn/T//ccW13lHv.s 			page 22


 1198 0002 154C     		ldr	r4, .L135
 1199 0004 83B0     		sub	sp, sp, #12
 1200              		.cfi_def_cfa_offset 24
 1201              		.loc 1 175 0
 1202 0006 2368     		ldr	r3, [r4]
 1203 0008 0193     		str	r3, [sp, #4]
 1204              	.LVL121:
 1205 000a 0546     		mov	r5, r0
 1206              	.LBB326:
 1207              	.LBB327:
 1208              	.LBB328:
 1209              	.LBB329:
 1210              	.LBB330:
 1211              		.loc 2 546 0
 1212 000c 2023     		movs	r3, #32
 1213              		.syntax unified
 1214              	@ 546 "../e-puck2_main-processor/ChibiOS//os/ext/CMSIS/include/core_cmFunc.h" 1
 1215 000e 83F31188 		MSR basepri, r3
 1216              	@ 0 "" 2
 1217              	.LVL122:
 1218              		.thumb
 1219              		.syntax unified
 1220              	.LBE330:
 1221              	.LBE329:
 1222              	.LBE328:
 1223              		.loc 3 349 0
 1224 0012 FFF7FEFF 		bl	_stats_start_measure_crit_thd
 1225              	.LVL123:
 1226              		.loc 3 350 0
 1227 0016 FFF7FEFF 		bl	_dbg_check_lock
 1228              	.LVL124:
 1229              	.LBE327:
 1230              	.LBE326:
 1231              		.loc 1 177 0
 1232 001a 2D7B     		ldrb	r5, [r5, #12]	@ zero_extendqisi2
 1233              	.LVL125:
 1234              	.LBB331:
 1235              	.LBB332:
 1236              		.loc 3 360 0
 1237 001c FFF7FEFF 		bl	_dbg_check_unlock
 1238              	.LVL126:
 1239              		.loc 3 361 0
 1240 0020 FFF7FEFF 		bl	_stats_stop_measure_crit_thd
 1241              	.LVL127:
 1242              		.loc 3 367 0
 1243 0024 0D4B     		ldr	r3, .L135+4
 1244 0026 1A68     		ldr	r2, [r3]
 1245 0028 9A42     		cmp	r2, r3
 1246 002a 04D0     		beq	.L130
 1247 002c 9969     		ldr	r1, [r3, #24]
 1248 002e 9368     		ldr	r3, [r2, #8]
 1249 0030 8A68     		ldr	r2, [r1, #8]
 1250 0032 9A42     		cmp	r2, r3
 1251 0034 09D3     		bcc	.L133
 1252              	.L130:
 1253              	.LVL128:
 1254              	.LBB333:
ARM GAS  /var/folders/d2/nstgp4h54kz7g1l847x_b8wc0000gn/T//ccW13lHv.s 			page 23


 1255              	.LBB334:
 1256              	.LBB335:
 1257              		.loc 2 546 0
 1258 0036 0023     		movs	r3, #0
 1259              		.syntax unified
 1260              	@ 546 "../e-puck2_main-processor/ChibiOS//os/ext/CMSIS/include/core_cmFunc.h" 1
 1261 0038 83F31188 		MSR basepri, r3
 1262              	@ 0 "" 2
 1263              	.LVL129:
 1264              		.thumb
 1265              		.syntax unified
 1266              	.LBE335:
 1267              	.LBE334:
 1268              	.LBE333:
 1269              	.LBE332:
 1270              	.LBE331:
 1271              		.loc 1 180 0
 1272 003c 019A     		ldr	r2, [sp, #4]
 1273 003e 2368     		ldr	r3, [r4]
 1274 0040 9A42     		cmp	r2, r3
 1275 0042 2846     		mov	r0, r5
 1276 0044 05D1     		bne	.L134
 1277 0046 03B0     		add	sp, sp, #12
 1278              		.cfi_remember_state
 1279              		.cfi_def_cfa_offset 12
 1280              		@ sp needed
 1281 0048 30BD     		pop	{r4, r5, pc}
 1282              	.LVL130:
 1283              	.L133:
 1284              		.cfi_restore_state
 1285              	.LBB337:
 1286              	.LBB336:
 1287              		.loc 3 367 0
 1288 004a 0548     		ldr	r0, .L135+8
 1289 004c FFF7FEFF 		bl	chSysHalt
 1290              	.LVL131:
 1291 0050 F1E7     		b	.L130
 1292              	.L134:
 1293              	.LBE336:
 1294              	.LBE337:
 1295              		.loc 1 180 0
 1296 0052 FFF7FEFF 		bl	__stack_chk_fail
 1297              	.LVL132:
 1298              	.L136:
 1299 0056 00BF     		.align	2
 1300              	.L135:
 1301 0058 00000000 		.word	__stack_chk_guard
 1302 005c 00000000 		.word	ch
 1303 0060 00000000 		.word	.LANCHOR0
 1304              		.cfi_endproc
 1305              	.LFE260:
 1306              		.size	parameter_changed, .-parameter_changed
 1307              		.section	.text.parameter_defined,"ax",%progbits
 1308              		.align	1
 1309              		.p2align 4,,15
 1310              		.global	parameter_defined
 1311              		.syntax unified
ARM GAS  /var/folders/d2/nstgp4h54kz7g1l847x_b8wc0000gn/T//ccW13lHv.s 			page 24


 1312              		.thumb
 1313              		.thumb_func
 1314              		.fpu fpv4-sp-d16
 1315              		.type	parameter_defined, %function
 1316              	parameter_defined:
 1317              	.LFB261:
 1318              		.loc 1 183 0
 1319              		.cfi_startproc
 1320              		@ args = 0, pretend = 0, frame = 8
 1321              		@ frame_needed = 0, uses_anonymous_args = 0
 1322              	.LVL133:
 1323 0000 30B5     		push	{r4, r5, lr}
 1324              		.cfi_def_cfa_offset 12
 1325              		.cfi_offset 4, -12
 1326              		.cfi_offset 5, -8
 1327              		.cfi_offset 14, -4
 1328 0002 154D     		ldr	r5, .L145
 1329 0004 83B0     		sub	sp, sp, #12
 1330              		.cfi_def_cfa_offset 24
 1331              		.loc 1 183 0
 1332 0006 2B68     		ldr	r3, [r5]
 1333 0008 0193     		str	r3, [sp, #4]
 1334              		.loc 1 184 0
 1335 000a 0446     		mov	r4, r0
 1336 000c B8B1     		cbz	r0, .L138
 1337              	.LVL134:
 1338              	.LBB348:
 1339              	.LBB349:
 1340              	.LBB350:
 1341              	.LBB351:
 1342              	.LBB352:
 1343              		.loc 2 546 0
 1344 000e 2023     		movs	r3, #32
 1345              		.syntax unified
 1346              	@ 546 "../e-puck2_main-processor/ChibiOS//os/ext/CMSIS/include/core_cmFunc.h" 1
 1347 0010 83F31188 		MSR basepri, r3
 1348              	@ 0 "" 2
 1349              	.LVL135:
 1350              		.thumb
 1351              		.syntax unified
 1352              	.LBE352:
 1353              	.LBE351:
 1354              	.LBE350:
 1355              		.loc 3 349 0
 1356 0014 FFF7FEFF 		bl	_stats_start_measure_crit_thd
 1357              	.LVL136:
 1358              		.loc 3 350 0
 1359 0018 FFF7FEFF 		bl	_dbg_check_lock
 1360              	.LVL137:
 1361              	.LBE349:
 1362              	.LBE348:
 1363              		.loc 1 188 0
 1364 001c 647B     		ldrb	r4, [r4, #13]	@ zero_extendqisi2
 1365              	.LVL138:
 1366              	.LBB353:
 1367              	.LBB354:
 1368              		.loc 3 360 0
ARM GAS  /var/folders/d2/nstgp4h54kz7g1l847x_b8wc0000gn/T//ccW13lHv.s 			page 25


 1369 001e FFF7FEFF 		bl	_dbg_check_unlock
 1370              	.LVL139:
 1371              		.loc 3 361 0
 1372 0022 FFF7FEFF 		bl	_stats_stop_measure_crit_thd
 1373              	.LVL140:
 1374              		.loc 3 367 0
 1375 0026 0D4B     		ldr	r3, .L145+4
 1376 0028 1A68     		ldr	r2, [r3]
 1377 002a 9A42     		cmp	r2, r3
 1378 002c 04D0     		beq	.L139
 1379 002e 9969     		ldr	r1, [r3, #24]
 1380 0030 9368     		ldr	r3, [r2, #8]
 1381 0032 8A68     		ldr	r2, [r1, #8]
 1382 0034 9A42     		cmp	r2, r3
 1383 0036 09D3     		bcc	.L143
 1384              	.L139:
 1385              	.LVL141:
 1386              	.LBB355:
 1387              	.LBB356:
 1388              	.LBB357:
 1389              		.loc 2 546 0
 1390 0038 0023     		movs	r3, #0
 1391              		.syntax unified
 1392              	@ 546 "../e-puck2_main-processor/ChibiOS//os/ext/CMSIS/include/core_cmFunc.h" 1
 1393 003a 83F31188 		MSR basepri, r3
 1394              	@ 0 "" 2
 1395              	.LVL142:
 1396              		.thumb
 1397              		.syntax unified
 1398              	.L138:
 1399              	.LBE357:
 1400              	.LBE356:
 1401              	.LBE355:
 1402              	.LBE354:
 1403              	.LBE353:
 1404              		.loc 1 191 0
 1405 003e 019A     		ldr	r2, [sp, #4]
 1406 0040 2B68     		ldr	r3, [r5]
 1407 0042 9A42     		cmp	r2, r3
 1408 0044 2046     		mov	r0, r4
 1409 0046 05D1     		bne	.L144
 1410 0048 03B0     		add	sp, sp, #12
 1411              		.cfi_remember_state
 1412              		.cfi_def_cfa_offset 12
 1413              		@ sp needed
 1414 004a 30BD     		pop	{r4, r5, pc}
 1415              	.LVL143:
 1416              	.L143:
 1417              		.cfi_restore_state
 1418              	.LBB359:
 1419              	.LBB358:
 1420              		.loc 3 367 0
 1421 004c 0448     		ldr	r0, .L145+8
 1422 004e FFF7FEFF 		bl	chSysHalt
 1423              	.LVL144:
 1424 0052 F1E7     		b	.L139
 1425              	.LVL145:
ARM GAS  /var/folders/d2/nstgp4h54kz7g1l847x_b8wc0000gn/T//ccW13lHv.s 			page 26


 1426              	.L144:
 1427              	.LBE358:
 1428              	.LBE359:
 1429              		.loc 1 191 0
 1430 0054 FFF7FEFF 		bl	__stack_chk_fail
 1431              	.LVL146:
 1432              	.L146:
 1433              		.align	2
 1434              	.L145:
 1435 0058 00000000 		.word	__stack_chk_guard
 1436 005c 00000000 		.word	ch
 1437 0060 00000000 		.word	.LANCHOR0
 1438              		.cfi_endproc
 1439              	.LFE261:
 1440              		.size	parameter_defined, .-parameter_defined
 1441              		.section	.text._parameter_changed_set,"ax",%progbits
 1442              		.align	1
 1443              		.p2align 4,,15
 1444              		.global	_parameter_changed_set
 1445              		.syntax unified
 1446              		.thumb
 1447              		.thumb_func
 1448              		.fpu fpv4-sp-d16
 1449              		.type	_parameter_changed_set, %function
 1450              	_parameter_changed_set:
 1451              	.LFB262:
 1452              		.loc 1 194 0
 1453              		.cfi_startproc
 1454              		@ args = 0, pretend = 0, frame = 8
 1455              		@ frame_needed = 0, uses_anonymous_args = 0
 1456              	.LVL147:
 1457 0000 2DE9F047 		push	{r4, r5, r6, r7, r8, r9, r10, lr}
 1458              		.cfi_def_cfa_offset 32
 1459              		.cfi_offset 4, -32
 1460              		.cfi_offset 5, -28
 1461              		.cfi_offset 6, -24
 1462              		.cfi_offset 7, -20
 1463              		.cfi_offset 8, -16
 1464              		.cfi_offset 9, -12
 1465              		.cfi_offset 10, -8
 1466              		.cfi_offset 14, -4
 1467 0004 DFF8B480 		ldr	r8, .L161+4
 1468 0008 82B0     		sub	sp, sp, #8
 1469              		.cfi_def_cfa_offset 40
 1470              		.loc 1 194 0
 1471 000a D8F80030 		ldr	r3, [r8]
 1472 000e 0193     		str	r3, [sp, #4]
 1473              	.LVL148:
 1474 0010 0646     		mov	r6, r0
 1475              	.LBB387:
 1476              	.LBB388:
 1477              	.LBB389:
 1478              	.LBB390:
 1479              	.LBB391:
 1480              		.loc 2 546 0
 1481 0012 2023     		movs	r3, #32
 1482              		.syntax unified
ARM GAS  /var/folders/d2/nstgp4h54kz7g1l847x_b8wc0000gn/T//ccW13lHv.s 			page 27


 1483              	@ 546 "../e-puck2_main-processor/ChibiOS//os/ext/CMSIS/include/core_cmFunc.h" 1
 1484 0014 83F31188 		MSR basepri, r3
 1485              	@ 0 "" 2
 1486              	.LVL149:
 1487              		.thumb
 1488              		.syntax unified
 1489              	.LBE391:
 1490              	.LBE390:
 1491              	.LBE389:
 1492              		.loc 3 349 0
 1493 0018 FFF7FEFF 		bl	_stats_start_measure_crit_thd
 1494              	.LVL150:
 1495              	.LBE388:
 1496              	.LBE387:
 1497              	.LBB393:
 1498              	.LBB394:
 1499              		.loc 3 367 0
 1500 001c DFF8A0A0 		ldr	r10, .L161+8
 1501              	.LBE394:
 1502              	.LBE393:
 1503              	.LBB400:
 1504              	.LBB392:
 1505              		.loc 3 350 0
 1506 0020 FFF7FEFF 		bl	_dbg_check_lock
 1507              	.LVL151:
 1508              	.LBE392:
 1509              	.LBE400:
 1510              		.loc 1 197 0
 1511 0024 0123     		movs	r3, #1
 1512              		.loc 1 196 0
 1513 0026 357B     		ldrb	r5, [r6, #12]	@ zero_extendqisi2
 1514              	.LVL152:
 1515              		.loc 1 197 0
 1516 0028 3373     		strb	r3, [r6, #12]
 1517              	.LBB401:
 1518              	.LBB398:
 1519              		.loc 3 360 0
 1520 002a FFF7FEFF 		bl	_dbg_check_unlock
 1521              	.LVL153:
 1522              		.loc 3 361 0
 1523 002e FFF7FEFF 		bl	_stats_stop_measure_crit_thd
 1524              	.LVL154:
 1525              		.loc 3 367 0
 1526 0032 DAF80030 		ldr	r3, [r10]
 1527 0036 5345     		cmp	r3, r10
 1528 0038 05D0     		beq	.L148
 1529 003a DAF81820 		ldr	r2, [r10, #24]
 1530 003e 9B68     		ldr	r3, [r3, #8]
 1531 0040 9268     		ldr	r2, [r2, #8]
 1532 0042 9A42     		cmp	r2, r3
 1533 0044 31D3     		bcc	.L159
 1534              	.L148:
 1535              	.LVL155:
 1536              	.LBB395:
 1537              	.LBB396:
 1538              	.LBB397:
 1539              		.loc 2 546 0
ARM GAS  /var/folders/d2/nstgp4h54kz7g1l847x_b8wc0000gn/T//ccW13lHv.s 			page 28


 1540 0046 0023     		movs	r3, #0
 1541              		.syntax unified
 1542              	@ 546 "../e-puck2_main-processor/ChibiOS//os/ext/CMSIS/include/core_cmFunc.h" 1
 1543 0048 83F31188 		MSR basepri, r3
 1544              	@ 0 "" 2
 1545              	.LVL156:
 1546              		.thumb
 1547              		.syntax unified
 1548              	.LBE397:
 1549              	.LBE396:
 1550              	.LBE395:
 1551              	.LBE398:
 1552              	.LBE401:
 1553              		.loc 1 199 0
 1554 004c 2DBB     		cbnz	r5, .L147
 1555              	.LVL157:
 1556              	.LBB402:
 1557              	.LBB403:
 1558              		.loc 1 204 0
 1559 004e 7468     		ldr	r4, [r6, #4]
 1560              	.LVL158:
 1561              		.loc 1 205 0
 1562 0050 0CB3     		cbz	r4, .L150
 1563              	.LBB404:
 1564              	.LBB405:
 1565              		.loc 3 367 0
 1566 0052 DFF86490 		ldr	r9, .L161
 1567              	.LBE405:
 1568              	.LBE404:
 1569              	.LBB410:
 1570              	.LBB411:
 1571              	.LBB412:
 1572              	.LBB413:
 1573              	.LBB414:
 1574              		.loc 2 546 0
 1575 0056 2027     		movs	r7, #32
 1576              	.L152:
 1577              	.LVL159:
 1578              		.syntax unified
 1579              	@ 546 "../e-puck2_main-processor/ChibiOS//os/ext/CMSIS/include/core_cmFunc.h" 1
 1580 0058 87F31188 		MSR basepri, r7
 1581              	@ 0 "" 2
 1582              	.LVL160:
 1583              		.thumb
 1584              		.syntax unified
 1585              	.LBE414:
 1586              	.LBE413:
 1587              	.LBE412:
 1588              		.loc 3 349 0
 1589 005c FFF7FEFF 		bl	_stats_start_measure_crit_thd
 1590              	.LVL161:
 1591              		.loc 3 350 0
 1592 0060 FFF7FEFF 		bl	_dbg_check_lock
 1593              	.LVL162:
 1594              	.LBE411:
 1595              	.LBE410:
 1596              		.loc 1 207 0
ARM GAS  /var/folders/d2/nstgp4h54kz7g1l847x_b8wc0000gn/T//ccW13lHv.s 			page 29


 1597 0064 6368     		ldr	r3, [r4, #4]
 1598 0066 0133     		adds	r3, r3, #1
 1599 0068 6360     		str	r3, [r4, #4]
 1600              	.LBB415:
 1601              	.LBB409:
 1602              		.loc 3 360 0
 1603 006a FFF7FEFF 		bl	_dbg_check_unlock
 1604              	.LVL163:
 1605              		.loc 3 361 0
 1606 006e FFF7FEFF 		bl	_stats_stop_measure_crit_thd
 1607              	.LVL164:
 1608              		.loc 3 367 0
 1609 0072 DAF80030 		ldr	r3, [r10]
 1610 0076 5345     		cmp	r3, r10
 1611 0078 08D0     		beq	.L151
 1612 007a DAF81820 		ldr	r2, [r10, #24]
 1613 007e 9B68     		ldr	r3, [r3, #8]
 1614 0080 9268     		ldr	r2, [r2, #8]
 1615 0082 9A42     		cmp	r2, r3
 1616 0084 02D2     		bcs	.L151
 1617 0086 4846     		mov	r0, r9
 1618 0088 FFF7FEFF 		bl	chSysHalt
 1619              	.LVL165:
 1620              	.L151:
 1621              	.LBB406:
 1622              	.LBB407:
 1623              	.LBB408:
 1624              		.loc 2 546 0
 1625              		.syntax unified
 1626              	@ 546 "../e-puck2_main-processor/ChibiOS//os/ext/CMSIS/include/core_cmFunc.h" 1
 1627 008c 85F31188 		MSR basepri, r5
 1628              	@ 0 "" 2
 1629              	.LVL166:
 1630              		.thumb
 1631              		.syntax unified
 1632              	.LBE408:
 1633              	.LBE407:
 1634              	.LBE406:
 1635              	.LBE409:
 1636              	.LBE415:
 1637              		.loc 1 209 0
 1638 0090 A468     		ldr	r4, [r4, #8]
 1639              	.LVL167:
 1640              		.loc 1 205 0
 1641 0092 002C     		cmp	r4, #0
 1642 0094 E0D1     		bne	.L152
 1643              	.L150:
 1644              		.loc 1 211 0
 1645 0096 0123     		movs	r3, #1
 1646 0098 7373     		strb	r3, [r6, #13]
 1647              	.LVL168:
 1648              	.L147:
 1649              	.LBE403:
 1650              	.LBE402:
 1651              		.loc 1 212 0
 1652 009a 019A     		ldr	r2, [sp, #4]
 1653 009c D8F80030 		ldr	r3, [r8]
ARM GAS  /var/folders/d2/nstgp4h54kz7g1l847x_b8wc0000gn/T//ccW13lHv.s 			page 30


 1654 00a0 9A42     		cmp	r2, r3
 1655 00a2 06D1     		bne	.L160
 1656 00a4 02B0     		add	sp, sp, #8
 1657              		.cfi_remember_state
 1658              		.cfi_def_cfa_offset 32
 1659              		@ sp needed
 1660 00a6 BDE8F087 		pop	{r4, r5, r6, r7, r8, r9, r10, pc}
 1661              	.LVL169:
 1662              	.L159:
 1663              		.cfi_restore_state
 1664              	.LBB416:
 1665              	.LBB399:
 1666              		.loc 3 367 0
 1667 00aa 0348     		ldr	r0, .L161
 1668 00ac FFF7FEFF 		bl	chSysHalt
 1669              	.LVL170:
 1670 00b0 C9E7     		b	.L148
 1671              	.L160:
 1672              	.LBE399:
 1673              	.LBE416:
 1674              		.loc 1 212 0
 1675 00b2 FFF7FEFF 		bl	__stack_chk_fail
 1676              	.LVL171:
 1677              	.L162:
 1678 00b6 00BF     		.align	2
 1679              	.L161:
 1680 00b8 00000000 		.word	.LANCHOR0
 1681 00bc 00000000 		.word	__stack_chk_guard
 1682 00c0 00000000 		.word	ch
 1683              		.cfi_endproc
 1684              	.LFE262:
 1685              		.size	_parameter_changed_set, .-_parameter_changed_set
 1686              		.section	.text._parameter_changed_clear,"ax",%progbits
 1687              		.align	1
 1688              		.p2align 4,,15
 1689              		.global	_parameter_changed_clear
 1690              		.syntax unified
 1691              		.thumb
 1692              		.thumb_func
 1693              		.fpu fpv4-sp-d16
 1694              		.type	_parameter_changed_clear, %function
 1695              	_parameter_changed_clear:
 1696              	.LFB263:
 1697              		.loc 1 215 0
 1698              		.cfi_startproc
 1699              		@ args = 0, pretend = 0, frame = 8
 1700              		@ frame_needed = 0, uses_anonymous_args = 0
 1701              	.LVL172:
 1702 0000 2DE9F043 		push	{r4, r5, r6, r7, r8, r9, lr}
 1703              		.cfi_def_cfa_offset 28
 1704              		.cfi_offset 4, -28
 1705              		.cfi_offset 5, -24
 1706              		.cfi_offset 6, -20
 1707              		.cfi_offset 7, -16
 1708              		.cfi_offset 8, -12
 1709              		.cfi_offset 9, -8
 1710              		.cfi_offset 14, -4
ARM GAS  /var/folders/d2/nstgp4h54kz7g1l847x_b8wc0000gn/T//ccW13lHv.s 			page 31


 1711 0004 DFF8A880 		ldr	r8, .L179+8
 1712 0008 83B0     		sub	sp, sp, #12
 1713              		.cfi_def_cfa_offset 40
 1714              		.loc 1 215 0
 1715 000a D8F80030 		ldr	r3, [r8]
 1716 000e 0193     		str	r3, [sp, #4]
 1717              	.LVL173:
 1718 0010 0446     		mov	r4, r0
 1719              	.LBB444:
 1720              	.LBB445:
 1721              	.LBB446:
 1722              	.LBB447:
 1723              	.LBB448:
 1724              		.loc 2 546 0
 1725 0012 2023     		movs	r3, #32
 1726              		.syntax unified
 1727              	@ 546 "../e-puck2_main-processor/ChibiOS//os/ext/CMSIS/include/core_cmFunc.h" 1
 1728 0014 83F31188 		MSR basepri, r3
 1729              	@ 0 "" 2
 1730              	.LVL174:
 1731              		.thumb
 1732              		.syntax unified
 1733              	.LBE448:
 1734              	.LBE447:
 1735              	.LBE446:
 1736              		.loc 3 349 0
 1737 0018 FFF7FEFF 		bl	_stats_start_measure_crit_thd
 1738              	.LVL175:
 1739              	.LBE445:
 1740              	.LBE444:
 1741              	.LBB450:
 1742              	.LBB451:
 1743              		.loc 3 367 0
 1744 001c 224D     		ldr	r5, .L179
 1745              	.LBE451:
 1746              	.LBE450:
 1747              	.LBB457:
 1748              	.LBB449:
 1749              		.loc 3 350 0
 1750 001e FFF7FEFF 		bl	_dbg_check_lock
 1751              	.LVL176:
 1752              	.LBE449:
 1753              	.LBE457:
 1754              		.loc 1 218 0
 1755 0022 0023     		movs	r3, #0
 1756              		.loc 1 217 0
 1757 0024 277B     		ldrb	r7, [r4, #12]	@ zero_extendqisi2
 1758              	.LVL177:
 1759              		.loc 1 218 0
 1760 0026 2373     		strb	r3, [r4, #12]
 1761              	.LBB458:
 1762              	.LBB455:
 1763              		.loc 3 360 0
 1764 0028 FFF7FEFF 		bl	_dbg_check_unlock
 1765              	.LVL178:
 1766              		.loc 3 361 0
 1767 002c FFF7FEFF 		bl	_stats_stop_measure_crit_thd
ARM GAS  /var/folders/d2/nstgp4h54kz7g1l847x_b8wc0000gn/T//ccW13lHv.s 			page 32


 1768              	.LVL179:
 1769              		.loc 3 367 0
 1770 0030 2B68     		ldr	r3, [r5]
 1771 0032 AB42     		cmp	r3, r5
 1772 0034 04D0     		beq	.L164
 1773 0036 AA69     		ldr	r2, [r5, #24]
 1774 0038 9B68     		ldr	r3, [r3, #8]
 1775 003a 9268     		ldr	r2, [r2, #8]
 1776 003c 9A42     		cmp	r2, r3
 1777 003e 2DD3     		bcc	.L177
 1778              	.L164:
 1779              	.LVL180:
 1780              	.LBB452:
 1781              	.LBB453:
 1782              	.LBB454:
 1783              		.loc 2 546 0
 1784 0040 0026     		movs	r6, #0
 1785              		.syntax unified
 1786              	@ 546 "../e-puck2_main-processor/ChibiOS//os/ext/CMSIS/include/core_cmFunc.h" 1
 1787 0042 86F31188 		MSR basepri, r6
 1788              	@ 0 "" 2
 1789              	.LVL181:
 1790              		.thumb
 1791              		.syntax unified
 1792              	.LBE454:
 1793              	.LBE453:
 1794              	.LBE452:
 1795              	.LBE455:
 1796              	.LBE458:
 1797              		.loc 1 220 0
 1798 0046 0FB3     		cbz	r7, .L163
 1799              	.LVL182:
 1800              	.LBB459:
 1801              	.LBB460:
 1802              		.loc 1 225 0
 1803 0048 6468     		ldr	r4, [r4, #4]
 1804              	.LVL183:
 1805              		.loc 1 226 0
 1806 004a FCB1     		cbz	r4, .L163
 1807              	.LBB461:
 1808              	.LBB462:
 1809              		.loc 3 367 0
 1810 004c DFF85C90 		ldr	r9, .L179+4
 1811              	.LBE462:
 1812              	.LBE461:
 1813              	.LBB467:
 1814              	.LBB468:
 1815              	.LBB469:
 1816              	.LBB470:
 1817              	.LBB471:
 1818              		.loc 2 546 0
 1819 0050 2027     		movs	r7, #32
 1820              	.LVL184:
 1821              	.L167:
 1822              		.syntax unified
 1823              	@ 546 "../e-puck2_main-processor/ChibiOS//os/ext/CMSIS/include/core_cmFunc.h" 1
 1824 0052 87F31188 		MSR basepri, r7
ARM GAS  /var/folders/d2/nstgp4h54kz7g1l847x_b8wc0000gn/T//ccW13lHv.s 			page 33


 1825              	@ 0 "" 2
 1826              	.LVL185:
 1827              		.thumb
 1828              		.syntax unified
 1829              	.LBE471:
 1830              	.LBE470:
 1831              	.LBE469:
 1832              		.loc 3 349 0
 1833 0056 FFF7FEFF 		bl	_stats_start_measure_crit_thd
 1834              	.LVL186:
 1835              		.loc 3 350 0
 1836 005a FFF7FEFF 		bl	_dbg_check_lock
 1837              	.LVL187:
 1838              	.LBE468:
 1839              	.LBE467:
 1840              		.loc 1 228 0
 1841 005e 6368     		ldr	r3, [r4, #4]
 1842 0060 013B     		subs	r3, r3, #1
 1843 0062 6360     		str	r3, [r4, #4]
 1844              	.LBB472:
 1845              	.LBB466:
 1846              		.loc 3 360 0
 1847 0064 FFF7FEFF 		bl	_dbg_check_unlock
 1848              	.LVL188:
 1849              		.loc 3 361 0
 1850 0068 FFF7FEFF 		bl	_stats_stop_measure_crit_thd
 1851              	.LVL189:
 1852              		.loc 3 367 0
 1853 006c 2B68     		ldr	r3, [r5]
 1854 006e AB42     		cmp	r3, r5
 1855 0070 07D0     		beq	.L166
 1856 0072 AA69     		ldr	r2, [r5, #24]
 1857 0074 9B68     		ldr	r3, [r3, #8]
 1858 0076 9268     		ldr	r2, [r2, #8]
 1859 0078 9A42     		cmp	r2, r3
 1860 007a 02D2     		bcs	.L166
 1861 007c 4846     		mov	r0, r9
 1862 007e FFF7FEFF 		bl	chSysHalt
 1863              	.LVL190:
 1864              	.L166:
 1865              	.LBB463:
 1866              	.LBB464:
 1867              	.LBB465:
 1868              		.loc 2 546 0
 1869              		.syntax unified
 1870              	@ 546 "../e-puck2_main-processor/ChibiOS//os/ext/CMSIS/include/core_cmFunc.h" 1
 1871 0082 86F31188 		MSR basepri, r6
 1872              	@ 0 "" 2
 1873              	.LVL191:
 1874              		.thumb
 1875              		.syntax unified
 1876              	.LBE465:
 1877              	.LBE464:
 1878              	.LBE463:
 1879              	.LBE466:
 1880              	.LBE472:
 1881              		.loc 1 230 0
ARM GAS  /var/folders/d2/nstgp4h54kz7g1l847x_b8wc0000gn/T//ccW13lHv.s 			page 34


 1882 0086 A468     		ldr	r4, [r4, #8]
 1883              	.LVL192:
 1884              		.loc 1 226 0
 1885 0088 002C     		cmp	r4, #0
 1886 008a E2D1     		bne	.L167
 1887              	.LVL193:
 1888              	.L163:
 1889              	.LBE460:
 1890              	.LBE459:
 1891              		.loc 1 232 0
 1892 008c 019A     		ldr	r2, [sp, #4]
 1893 008e D8F80030 		ldr	r3, [r8]
 1894 0092 9A42     		cmp	r2, r3
 1895 0094 06D1     		bne	.L178
 1896 0096 03B0     		add	sp, sp, #12
 1897              		.cfi_remember_state
 1898              		.cfi_def_cfa_offset 28
 1899              		@ sp needed
 1900 0098 BDE8F083 		pop	{r4, r5, r6, r7, r8, r9, pc}
 1901              	.LVL194:
 1902              	.L177:
 1903              		.cfi_restore_state
 1904              	.LBB473:
 1905              	.LBB456:
 1906              		.loc 3 367 0
 1907 009c 0348     		ldr	r0, .L179+4
 1908 009e FFF7FEFF 		bl	chSysHalt
 1909              	.LVL195:
 1910 00a2 CDE7     		b	.L164
 1911              	.LVL196:
 1912              	.L178:
 1913              	.LBE456:
 1914              	.LBE473:
 1915              		.loc 1 232 0
 1916 00a4 FFF7FEFF 		bl	__stack_chk_fail
 1917              	.LVL197:
 1918              	.L180:
 1919              		.align	2
 1920              	.L179:
 1921 00a8 00000000 		.word	ch
 1922 00ac 00000000 		.word	.LANCHOR0
 1923 00b0 00000000 		.word	__stack_chk_guard
 1924              		.cfi_endproc
 1925              	.LFE263:
 1926              		.size	_parameter_changed_clear, .-_parameter_changed_clear
 1927              		.section	.text.parameter_scalar_declare,"ax",%progbits
 1928              		.align	1
 1929              		.p2align 4,,15
 1930              		.global	parameter_scalar_declare
 1931              		.syntax unified
 1932              		.thumb
 1933              		.thumb_func
 1934              		.fpu fpv4-sp-d16
 1935              		.type	parameter_scalar_declare, %function
 1936              	parameter_scalar_declare:
 1937              	.LFB264:
 1938              		.loc 1 240 0
ARM GAS  /var/folders/d2/nstgp4h54kz7g1l847x_b8wc0000gn/T//ccW13lHv.s 			page 35


 1939              		.cfi_startproc
 1940              		@ args = 0, pretend = 0, frame = 8
 1941              		@ frame_needed = 0, uses_anonymous_args = 0
 1942              	.LVL198:
 1943 0000 30B5     		push	{r4, r5, lr}
 1944              		.cfi_def_cfa_offset 12
 1945              		.cfi_offset 4, -12
 1946              		.cfi_offset 5, -8
 1947              		.cfi_offset 14, -4
 1948 0002 084B     		ldr	r3, .L186
 1949 0004 83B0     		sub	sp, sp, #12
 1950              		.cfi_def_cfa_offset 24
 1951              		.loc 1 240 0
 1952 0006 1C68     		ldr	r4, [r3]
 1953 0008 0194     		str	r4, [sp, #4]
 1954              		.loc 1 242 0
 1955 000a 019C     		ldr	r4, [sp, #4]
 1956 000c 1B68     		ldr	r3, [r3]
 1957              		.loc 1 241 0
 1958 000e 0125     		movs	r5, #1
 1959              		.loc 1 242 0
 1960 0010 9C42     		cmp	r4, r3
 1961              		.loc 1 241 0
 1962 0012 8573     		strb	r5, [r0, #14]
 1963              		.loc 1 242 0
 1964 0014 04D1     		bne	.L185
 1965              		.loc 1 243 0
 1966 0016 03B0     		add	sp, sp, #12
 1967              		.cfi_remember_state
 1968              		.cfi_def_cfa_offset 12
 1969              		@ sp needed
 1970 0018 BDE83040 		pop	{r4, r5, lr}
 1971              		.cfi_restore 14
 1972              		.cfi_restore 5
 1973              		.cfi_restore 4
 1974              		.cfi_def_cfa_offset 0
 1975              		.loc 1 242 0
 1976 001c FFF7FEBF 		b	_parameter_declare
 1977              	.LVL199:
 1978              	.L185:
 1979              		.cfi_restore_state
 1980 0020 FFF7FEFF 		bl	__stack_chk_fail
 1981              	.LVL200:
 1982              	.L187:
 1983              		.align	2
 1984              	.L186:
 1985 0024 00000000 		.word	__stack_chk_guard
 1986              		.cfi_endproc
 1987              	.LFE264:
 1988              		.size	parameter_scalar_declare, .-parameter_scalar_declare
 1989              		.section	.text.parameter_scalar_declare_with_default,"ax",%progbits
 1990              		.align	1
 1991              		.p2align 4,,15
 1992              		.global	parameter_scalar_declare_with_default
 1993              		.syntax unified
 1994              		.thumb
 1995              		.thumb_func
ARM GAS  /var/folders/d2/nstgp4h54kz7g1l847x_b8wc0000gn/T//ccW13lHv.s 			page 36


 1996              		.fpu fpv4-sp-d16
 1997              		.type	parameter_scalar_declare_with_default, %function
 1998              	parameter_scalar_declare_with_default:
 1999              	.LFB265:
 2000              		.loc 1 249 0
 2001              		.cfi_startproc
 2002              		@ args = 0, pretend = 0, frame = 8
 2003              		@ frame_needed = 0, uses_anonymous_args = 0
 2004              	.LVL201:
 2005 0000 70B5     		push	{r4, r5, r6, lr}
 2006              		.cfi_def_cfa_offset 16
 2007              		.cfi_offset 4, -16
 2008              		.cfi_offset 5, -12
 2009              		.cfi_offset 6, -8
 2010              		.cfi_offset 14, -4
 2011 0002 0B4D     		ldr	r5, .L193
 2012              		.loc 1 250 0
 2013 0004 80ED040A 		vstr.32	s0, [r0, #16]
 2014              		.loc 1 249 0
 2015 0008 82B0     		sub	sp, sp, #8
 2016              		.cfi_def_cfa_offset 24
 2017              		.loc 1 251 0
 2018 000a 0126     		movs	r6, #1
 2019              		.loc 1 249 0
 2020 000c 2B68     		ldr	r3, [r5]
 2021              		.loc 1 251 0
 2022 000e 8673     		strb	r6, [r0, #14]
 2023              		.loc 1 249 0
 2024 0010 0193     		str	r3, [sp, #4]
 2025 0012 0446     		mov	r4, r0
 2026              		.loc 1 252 0
 2027 0014 FFF7FEFF 		bl	_parameter_declare
 2028              	.LVL202:
 2029              		.loc 1 253 0
 2030 0018 019A     		ldr	r2, [sp, #4]
 2031 001a 2B68     		ldr	r3, [r5]
 2032 001c 9A42     		cmp	r2, r3
 2033 001e 05D1     		bne	.L192
 2034 0020 2046     		mov	r0, r4
 2035              		.loc 1 254 0
 2036 0022 02B0     		add	sp, sp, #8
 2037              		.cfi_remember_state
 2038              		.cfi_def_cfa_offset 16
 2039              		@ sp needed
 2040 0024 BDE87040 		pop	{r4, r5, r6, lr}
 2041              		.cfi_restore 14
 2042              		.cfi_restore 6
 2043              		.cfi_restore 5
 2044              		.cfi_restore 4
 2045              		.cfi_def_cfa_offset 0
 2046              	.LVL203:
 2047              		.loc 1 253 0
 2048 0028 FFF7FEBF 		b	_parameter_changed_set
 2049              	.LVL204:
 2050              	.L192:
 2051              		.cfi_restore_state
 2052 002c FFF7FEFF 		bl	__stack_chk_fail
ARM GAS  /var/folders/d2/nstgp4h54kz7g1l847x_b8wc0000gn/T//ccW13lHv.s 			page 37


 2053              	.LVL205:
 2054              	.L194:
 2055              		.align	2
 2056              	.L193:
 2057 0030 00000000 		.word	__stack_chk_guard
 2058              		.cfi_endproc
 2059              	.LFE265:
 2060              		.size	parameter_scalar_declare_with_default, .-parameter_scalar_declare_with_default
 2061              		.section	.text.parameter_scalar_read,"ax",%progbits
 2062              		.align	1
 2063              		.p2align 4,,15
 2064              		.global	parameter_scalar_read
 2065              		.syntax unified
 2066              		.thumb
 2067              		.thumb_func
 2068              		.fpu fpv4-sp-d16
 2069              		.type	parameter_scalar_read, %function
 2070              	parameter_scalar_read:
 2071              	.LFB267:
 2072              		.loc 1 263 0
 2073              		.cfi_startproc
 2074              		@ args = 0, pretend = 0, frame = 8
 2075              		@ frame_needed = 0, uses_anonymous_args = 0
 2076              	.LVL206:
 2077 0000 30B5     		push	{r4, r5, lr}
 2078              		.cfi_def_cfa_offset 12
 2079              		.cfi_offset 4, -12
 2080              		.cfi_offset 5, -8
 2081              		.cfi_offset 14, -4
 2082 0002 2DED028B 		vpush.64	{d8}
 2083              		.cfi_def_cfa_offset 20
 2084              		.cfi_offset 80, -20
 2085              		.cfi_offset 81, -16
 2086 0006 1C4D     		ldr	r5, .L206
 2087              		.loc 1 264 0
 2088 0008 837B     		ldrb	r3, [r0, #14]	@ zero_extendqisi2
 2089              		.loc 1 263 0
 2090 000a 2A68     		ldr	r2, [r5]
 2091 000c 83B0     		sub	sp, sp, #12
 2092              		.cfi_def_cfa_offset 32
 2093              		.loc 1 264 0
 2094 000e 012B     		cmp	r3, #1
 2095              		.loc 1 263 0
 2096 0010 0446     		mov	r4, r0
 2097 0012 0192     		str	r2, [sp, #4]
 2098              		.loc 1 264 0
 2099 0014 02D0     		beq	.L196
 2100              		.loc 1 264 0 is_stmt 0 discriminator 2
 2101 0016 1948     		ldr	r0, .L206+4
 2102              	.LVL207:
 2103 0018 FFF7FEFF 		bl	chSysHalt
 2104              	.LVL208:
 2105              	.L196:
 2106              	.LBB484:
 2107              	.LBB485:
 2108              	.LBB486:
 2109              	.LBB487:
ARM GAS  /var/folders/d2/nstgp4h54kz7g1l847x_b8wc0000gn/T//ccW13lHv.s 			page 38


 2110              	.LBB488:
 2111              		.loc 2 546 0 is_stmt 1
 2112 001c 2023     		movs	r3, #32
 2113              		.syntax unified
 2114              	@ 546 "../e-puck2_main-processor/ChibiOS//os/ext/CMSIS/include/core_cmFunc.h" 1
 2115 001e 83F31188 		MSR basepri, r3
 2116              	@ 0 "" 2
 2117              	.LVL209:
 2118              		.thumb
 2119              		.syntax unified
 2120              	.LBE488:
 2121              	.LBE487:
 2122              	.LBE486:
 2123              		.loc 3 349 0
 2124 0022 FFF7FEFF 		bl	_stats_start_measure_crit_thd
 2125              	.LVL210:
 2126              		.loc 3 350 0
 2127 0026 FFF7FEFF 		bl	_dbg_check_lock
 2128              	.LVL211:
 2129              	.LBE485:
 2130              	.LBE484:
 2131              		.loc 1 266 0
 2132 002a 637B     		ldrb	r3, [r4, #13]	@ zero_extendqisi2
 2133 002c 13B9     		cbnz	r3, .L197
 2134              		.loc 1 266 0 is_stmt 0 discriminator 2
 2135 002e 1348     		ldr	r0, .L206+4
 2136 0030 FFF7FEFF 		bl	chSysHalt
 2137              	.LVL212:
 2138              	.L197:
 2139              		.loc 1 267 0 is_stmt 1
 2140 0034 94ED048A 		vldr.32	s16, [r4, #16]
 2141              	.LVL213:
 2142              	.LBB489:
 2143              	.LBB490:
 2144              		.loc 3 360 0
 2145 0038 FFF7FEFF 		bl	_dbg_check_unlock
 2146              	.LVL214:
 2147              		.loc 3 361 0
 2148 003c FFF7FEFF 		bl	_stats_stop_measure_crit_thd
 2149              	.LVL215:
 2150              		.loc 3 367 0
 2151 0040 0F4B     		ldr	r3, .L206+8
 2152 0042 1A68     		ldr	r2, [r3]
 2153 0044 9A42     		cmp	r2, r3
 2154 0046 04D0     		beq	.L198
 2155 0048 9969     		ldr	r1, [r3, #24]
 2156 004a 9368     		ldr	r3, [r2, #8]
 2157 004c 8A68     		ldr	r2, [r1, #8]
 2158 004e 9A42     		cmp	r2, r3
 2159 0050 0CD3     		bcc	.L204
 2160              	.L198:
 2161              	.LVL216:
 2162              	.LBB491:
 2163              	.LBB492:
 2164              	.LBB493:
 2165              		.loc 2 546 0
 2166 0052 0023     		movs	r3, #0
ARM GAS  /var/folders/d2/nstgp4h54kz7g1l847x_b8wc0000gn/T//ccW13lHv.s 			page 39


 2167              		.syntax unified
 2168              	@ 546 "../e-puck2_main-processor/ChibiOS//os/ext/CMSIS/include/core_cmFunc.h" 1
 2169 0054 83F31188 		MSR basepri, r3
 2170              	@ 0 "" 2
 2171              	.LVL217:
 2172              		.thumb
 2173              		.syntax unified
 2174              	.LBE493:
 2175              	.LBE492:
 2176              	.LBE491:
 2177              	.LBE490:
 2178              	.LBE489:
 2179              		.loc 1 270 0
 2180 0058 019A     		ldr	r2, [sp, #4]
 2181 005a 2B68     		ldr	r3, [r5]
 2182 005c 9A42     		cmp	r2, r3
 2183 005e B0EE480A 		vmov.f32	s0, s16
 2184 0062 07D1     		bne	.L205
 2185              	.LVL218:
 2186 0064 03B0     		add	sp, sp, #12
 2187              		.cfi_remember_state
 2188              		.cfi_def_cfa_offset 20
 2189              		@ sp needed
 2190 0066 BDEC028B 		vldm	sp!, {d8}
 2191              		.cfi_restore 80
 2192              		.cfi_restore 81
 2193              		.cfi_def_cfa_offset 12
 2194 006a 30BD     		pop	{r4, r5, pc}
 2195              	.LVL219:
 2196              	.L204:
 2197              		.cfi_restore_state
 2198              	.LBB495:
 2199              	.LBB494:
 2200              		.loc 3 367 0
 2201 006c 0548     		ldr	r0, .L206+12
 2202 006e FFF7FEFF 		bl	chSysHalt
 2203              	.LVL220:
 2204 0072 EEE7     		b	.L198
 2205              	.LVL221:
 2206              	.L205:
 2207              	.LBE494:
 2208              	.LBE495:
 2209              		.loc 1 270 0
 2210 0074 FFF7FEFF 		bl	__stack_chk_fail
 2211              	.LVL222:
 2212              	.L207:
 2213              		.align	2
 2214              	.L206:
 2215 0078 00000000 		.word	__stack_chk_guard
 2216 007c 00000000 		.word	.LANCHOR1
 2217 0080 00000000 		.word	ch
 2218 0084 00000000 		.word	.LANCHOR0
 2219              		.cfi_endproc
 2220              	.LFE267:
 2221              		.size	parameter_scalar_read, .-parameter_scalar_read
 2222              		.section	.text.parameter_scalar_get,"ax",%progbits
 2223              		.align	1
ARM GAS  /var/folders/d2/nstgp4h54kz7g1l847x_b8wc0000gn/T//ccW13lHv.s 			page 40


 2224              		.p2align 4,,15
 2225              		.global	parameter_scalar_get
 2226              		.syntax unified
 2227              		.thumb
 2228              		.thumb_func
 2229              		.fpu fpv4-sp-d16
 2230              		.type	parameter_scalar_get, %function
 2231              	parameter_scalar_get:
 2232              	.LFB266:
 2233              		.loc 1 257 0
 2234              		.cfi_startproc
 2235              		@ args = 0, pretend = 0, frame = 8
 2236              		@ frame_needed = 0, uses_anonymous_args = 0
 2237              	.LVL223:
 2238 0000 30B5     		push	{r4, r5, lr}
 2239              		.cfi_def_cfa_offset 12
 2240              		.cfi_offset 4, -12
 2241              		.cfi_offset 5, -8
 2242              		.cfi_offset 14, -4
 2243 0002 094C     		ldr	r4, .L213
 2244 0004 83B0     		sub	sp, sp, #12
 2245              		.cfi_def_cfa_offset 24
 2246              		.loc 1 257 0
 2247 0006 2368     		ldr	r3, [r4]
 2248 0008 0193     		str	r3, [sp, #4]
 2249 000a 0546     		mov	r5, r0
 2250              		.loc 1 258 0
 2251 000c FFF7FEFF 		bl	_parameter_changed_clear
 2252              	.LVL224:
 2253              		.loc 1 259 0
 2254 0010 019A     		ldr	r2, [sp, #4]
 2255 0012 2368     		ldr	r3, [r4]
 2256 0014 9A42     		cmp	r2, r3
 2257 0016 05D1     		bne	.L212
 2258 0018 2846     		mov	r0, r5
 2259              		.loc 1 260 0
 2260 001a 03B0     		add	sp, sp, #12
 2261              		.cfi_remember_state
 2262              		.cfi_def_cfa_offset 12
 2263              		@ sp needed
 2264 001c BDE83040 		pop	{r4, r5, lr}
 2265              		.cfi_restore 14
 2266              		.cfi_restore 5
 2267              		.cfi_restore 4
 2268              		.cfi_def_cfa_offset 0
 2269              	.LVL225:
 2270              		.loc 1 259 0
 2271 0020 FFF7FEBF 		b	parameter_scalar_read
 2272              	.LVL226:
 2273              	.L212:
 2274              		.cfi_restore_state
 2275 0024 FFF7FEFF 		bl	__stack_chk_fail
 2276              	.LVL227:
 2277              	.L214:
 2278              		.align	2
 2279              	.L213:
 2280 0028 00000000 		.word	__stack_chk_guard
ARM GAS  /var/folders/d2/nstgp4h54kz7g1l847x_b8wc0000gn/T//ccW13lHv.s 			page 41


 2281              		.cfi_endproc
 2282              	.LFE266:
 2283              		.size	parameter_scalar_get, .-parameter_scalar_get
 2284              		.section	.text.parameter_scalar_set,"ax",%progbits
 2285              		.align	1
 2286              		.p2align 4,,15
 2287              		.global	parameter_scalar_set
 2288              		.syntax unified
 2289              		.thumb
 2290              		.thumb_func
 2291              		.fpu fpv4-sp-d16
 2292              		.type	parameter_scalar_set, %function
 2293              	parameter_scalar_set:
 2294              	.LFB268:
 2295              		.loc 1 273 0
 2296              		.cfi_startproc
 2297              		@ args = 0, pretend = 0, frame = 8
 2298              		@ frame_needed = 0, uses_anonymous_args = 0
 2299              	.LVL228:
 2300 0000 30B5     		push	{r4, r5, lr}
 2301              		.cfi_def_cfa_offset 12
 2302              		.cfi_offset 4, -12
 2303              		.cfi_offset 5, -8
 2304              		.cfi_offset 14, -4
 2305 0002 2DED028B 		vpush.64	{d8}
 2306              		.cfi_def_cfa_offset 20
 2307              		.cfi_offset 80, -20
 2308              		.cfi_offset 81, -16
 2309 0006 1C4D     		ldr	r5, .L226
 2310              		.loc 1 274 0
 2311 0008 837B     		ldrb	r3, [r0, #14]	@ zero_extendqisi2
 2312              		.loc 1 273 0
 2313 000a 2A68     		ldr	r2, [r5]
 2314 000c 83B0     		sub	sp, sp, #12
 2315              		.cfi_def_cfa_offset 32
 2316              		.loc 1 274 0
 2317 000e 012B     		cmp	r3, #1
 2318              		.loc 1 273 0
 2319 0010 0446     		mov	r4, r0
 2320 0012 0192     		str	r2, [sp, #4]
 2321 0014 B0EE408A 		vmov.f32	s16, s0
 2322              		.loc 1 274 0
 2323 0018 02D0     		beq	.L216
 2324              		.loc 1 274 0 is_stmt 0 discriminator 2
 2325 001a 1848     		ldr	r0, .L226+4
 2326              	.LVL229:
 2327 001c FFF7FEFF 		bl	chSysHalt
 2328              	.LVL230:
 2329              	.L216:
 2330              	.LBB506:
 2331              	.LBB507:
 2332              	.LBB508:
 2333              	.LBB509:
 2334              	.LBB510:
 2335              		.loc 2 546 0 is_stmt 1
 2336 0020 2023     		movs	r3, #32
 2337              		.syntax unified
ARM GAS  /var/folders/d2/nstgp4h54kz7g1l847x_b8wc0000gn/T//ccW13lHv.s 			page 42


 2338              	@ 546 "../e-puck2_main-processor/ChibiOS//os/ext/CMSIS/include/core_cmFunc.h" 1
 2339 0022 83F31188 		MSR basepri, r3
 2340              	@ 0 "" 2
 2341              	.LVL231:
 2342              		.thumb
 2343              		.syntax unified
 2344              	.LBE510:
 2345              	.LBE509:
 2346              	.LBE508:
 2347              		.loc 3 349 0
 2348 0026 FFF7FEFF 		bl	_stats_start_measure_crit_thd
 2349              	.LVL232:
 2350              		.loc 3 350 0
 2351 002a FFF7FEFF 		bl	_dbg_check_lock
 2352              	.LVL233:
 2353              	.LBE507:
 2354              	.LBE506:
 2355              		.loc 1 276 0
 2356 002e 84ED048A 		vstr.32	s16, [r4, #16]
 2357              	.LBB511:
 2358              	.LBB512:
 2359              		.loc 3 360 0
 2360 0032 FFF7FEFF 		bl	_dbg_check_unlock
 2361              	.LVL234:
 2362              		.loc 3 361 0
 2363 0036 FFF7FEFF 		bl	_stats_stop_measure_crit_thd
 2364              	.LVL235:
 2365              		.loc 3 367 0
 2366 003a 114B     		ldr	r3, .L226+8
 2367 003c 1A68     		ldr	r2, [r3]
 2368 003e 9A42     		cmp	r2, r3
 2369 0040 04D0     		beq	.L217
 2370 0042 9969     		ldr	r1, [r3, #24]
 2371 0044 9368     		ldr	r3, [r2, #8]
 2372 0046 8A68     		ldr	r2, [r1, #8]
 2373 0048 9A42     		cmp	r2, r3
 2374 004a 0ED3     		bcc	.L224
 2375              	.L217:
 2376              	.LVL236:
 2377              	.LBB513:
 2378              	.LBB514:
 2379              	.LBB515:
 2380              		.loc 2 546 0
 2381 004c 0023     		movs	r3, #0
 2382              		.syntax unified
 2383              	@ 546 "../e-puck2_main-processor/ChibiOS//os/ext/CMSIS/include/core_cmFunc.h" 1
 2384 004e 83F31188 		MSR basepri, r3
 2385              	@ 0 "" 2
 2386              	.LVL237:
 2387              		.thumb
 2388              		.syntax unified
 2389              	.LBE515:
 2390              	.LBE514:
 2391              	.LBE513:
 2392              	.LBE512:
 2393              	.LBE511:
 2394              		.loc 1 278 0
ARM GAS  /var/folders/d2/nstgp4h54kz7g1l847x_b8wc0000gn/T//ccW13lHv.s 			page 43


 2395 0052 019A     		ldr	r2, [sp, #4]
 2396 0054 2B68     		ldr	r3, [r5]
 2397 0056 9A42     		cmp	r2, r3
 2398 0058 0BD1     		bne	.L225
 2399 005a 2046     		mov	r0, r4
 2400              		.loc 1 279 0
 2401 005c 03B0     		add	sp, sp, #12
 2402              		.cfi_remember_state
 2403              		.cfi_def_cfa_offset 20
 2404              		@ sp needed
 2405 005e BDEC028B 		vldm	sp!, {d8}
 2406              		.cfi_restore 80
 2407              		.cfi_restore 81
 2408              		.cfi_def_cfa_offset 12
 2409              	.LVL238:
 2410 0062 BDE83040 		pop	{r4, r5, lr}
 2411              		.cfi_restore 14
 2412              		.cfi_restore 5
 2413              		.cfi_restore 4
 2414              		.cfi_def_cfa_offset 0
 2415              	.LVL239:
 2416              		.loc 1 278 0
 2417 0066 FFF7FEBF 		b	_parameter_changed_set
 2418              	.LVL240:
 2419              	.L224:
 2420              		.cfi_restore_state
 2421              	.LBB517:
 2422              	.LBB516:
 2423              		.loc 3 367 0
 2424 006a 0648     		ldr	r0, .L226+12
 2425 006c FFF7FEFF 		bl	chSysHalt
 2426              	.LVL241:
 2427 0070 ECE7     		b	.L217
 2428              	.L225:
 2429              	.LBE516:
 2430              	.LBE517:
 2431              		.loc 1 278 0
 2432 0072 FFF7FEFF 		bl	__stack_chk_fail
 2433              	.LVL242:
 2434              	.L227:
 2435 0076 00BF     		.align	2
 2436              	.L226:
 2437 0078 00000000 		.word	__stack_chk_guard
 2438 007c 00000000 		.word	.LANCHOR2
 2439 0080 00000000 		.word	ch
 2440 0084 00000000 		.word	.LANCHOR0
 2441              		.cfi_endproc
 2442              	.LFE268:
 2443              		.size	parameter_scalar_set, .-parameter_scalar_set
 2444              		.section	.text.parameter_integer_declare,"ax",%progbits
 2445              		.align	1
 2446              		.p2align 4,,15
 2447              		.global	parameter_integer_declare
 2448              		.syntax unified
 2449              		.thumb
 2450              		.thumb_func
 2451              		.fpu fpv4-sp-d16
ARM GAS  /var/folders/d2/nstgp4h54kz7g1l847x_b8wc0000gn/T//ccW13lHv.s 			page 44


 2452              		.type	parameter_integer_declare, %function
 2453              	parameter_integer_declare:
 2454              	.LFB269:
 2455              		.loc 1 288 0
 2456              		.cfi_startproc
 2457              		@ args = 0, pretend = 0, frame = 8
 2458              		@ frame_needed = 0, uses_anonymous_args = 0
 2459              	.LVL243:
 2460 0000 30B5     		push	{r4, r5, lr}
 2461              		.cfi_def_cfa_offset 12
 2462              		.cfi_offset 4, -12
 2463              		.cfi_offset 5, -8
 2464              		.cfi_offset 14, -4
 2465 0002 084B     		ldr	r3, .L233
 2466 0004 83B0     		sub	sp, sp, #12
 2467              		.cfi_def_cfa_offset 24
 2468              		.loc 1 288 0
 2469 0006 1C68     		ldr	r4, [r3]
 2470 0008 0194     		str	r4, [sp, #4]
 2471              		.loc 1 290 0
 2472 000a 019C     		ldr	r4, [sp, #4]
 2473 000c 1B68     		ldr	r3, [r3]
 2474              		.loc 1 289 0
 2475 000e 0325     		movs	r5, #3
 2476              		.loc 1 290 0
 2477 0010 9C42     		cmp	r4, r3
 2478              		.loc 1 289 0
 2479 0012 8573     		strb	r5, [r0, #14]
 2480              		.loc 1 290 0
 2481 0014 04D1     		bne	.L232
 2482              		.loc 1 291 0
 2483 0016 03B0     		add	sp, sp, #12
 2484              		.cfi_remember_state
 2485              		.cfi_def_cfa_offset 12
 2486              		@ sp needed
 2487 0018 BDE83040 		pop	{r4, r5, lr}
 2488              		.cfi_restore 14
 2489              		.cfi_restore 5
 2490              		.cfi_restore 4
 2491              		.cfi_def_cfa_offset 0
 2492              		.loc 1 290 0
 2493 001c FFF7FEBF 		b	_parameter_declare
 2494              	.LVL244:
 2495              	.L232:
 2496              		.cfi_restore_state
 2497 0020 FFF7FEFF 		bl	__stack_chk_fail
 2498              	.LVL245:
 2499              	.L234:
 2500              		.align	2
 2501              	.L233:
 2502 0024 00000000 		.word	__stack_chk_guard
 2503              		.cfi_endproc
 2504              	.LFE269:
 2505              		.size	parameter_integer_declare, .-parameter_integer_declare
 2506              		.section	.text.parameter_integer_declare_with_default,"ax",%progbits
 2507              		.align	1
 2508              		.p2align 4,,15
ARM GAS  /var/folders/d2/nstgp4h54kz7g1l847x_b8wc0000gn/T//ccW13lHv.s 			page 45


 2509              		.global	parameter_integer_declare_with_default
 2510              		.syntax unified
 2511              		.thumb
 2512              		.thumb_func
 2513              		.fpu fpv4-sp-d16
 2514              		.type	parameter_integer_declare_with_default, %function
 2515              	parameter_integer_declare_with_default:
 2516              	.LFB270:
 2517              		.loc 1 297 0
 2518              		.cfi_startproc
 2519              		@ args = 0, pretend = 0, frame = 8
 2520              		@ frame_needed = 0, uses_anonymous_args = 0
 2521              	.LVL246:
 2522 0000 70B5     		push	{r4, r5, r6, lr}
 2523              		.cfi_def_cfa_offset 16
 2524              		.cfi_offset 4, -16
 2525              		.cfi_offset 5, -12
 2526              		.cfi_offset 6, -8
 2527              		.cfi_offset 14, -4
 2528 0002 0B4D     		ldr	r5, .L240
 2529              		.loc 1 298 0
 2530 0004 0361     		str	r3, [r0, #16]
 2531              		.loc 1 297 0
 2532 0006 82B0     		sub	sp, sp, #8
 2533              		.cfi_def_cfa_offset 24
 2534              		.loc 1 299 0
 2535 0008 0323     		movs	r3, #3
 2536              	.LVL247:
 2537              		.loc 1 297 0
 2538 000a 2E68     		ldr	r6, [r5]
 2539              		.loc 1 299 0
 2540 000c 8373     		strb	r3, [r0, #14]
 2541              		.loc 1 297 0
 2542 000e 0446     		mov	r4, r0
 2543 0010 0196     		str	r6, [sp, #4]
 2544              		.loc 1 300 0
 2545 0012 FFF7FEFF 		bl	_parameter_declare
 2546              	.LVL248:
 2547              		.loc 1 301 0
 2548 0016 019A     		ldr	r2, [sp, #4]
 2549 0018 2B68     		ldr	r3, [r5]
 2550 001a 9A42     		cmp	r2, r3
 2551 001c 05D1     		bne	.L239
 2552 001e 2046     		mov	r0, r4
 2553              		.loc 1 302 0
 2554 0020 02B0     		add	sp, sp, #8
 2555              		.cfi_remember_state
 2556              		.cfi_def_cfa_offset 16
 2557              		@ sp needed
 2558 0022 BDE87040 		pop	{r4, r5, r6, lr}
 2559              		.cfi_restore 14
 2560              		.cfi_restore 6
 2561              		.cfi_restore 5
 2562              		.cfi_restore 4
 2563              		.cfi_def_cfa_offset 0
 2564              	.LVL249:
 2565              		.loc 1 301 0
ARM GAS  /var/folders/d2/nstgp4h54kz7g1l847x_b8wc0000gn/T//ccW13lHv.s 			page 46


 2566 0026 FFF7FEBF 		b	_parameter_changed_set
 2567              	.LVL250:
 2568              	.L239:
 2569              		.cfi_restore_state
 2570 002a FFF7FEFF 		bl	__stack_chk_fail
 2571              	.LVL251:
 2572              	.L241:
 2573 002e 00BF     		.align	2
 2574              	.L240:
 2575 0030 00000000 		.word	__stack_chk_guard
 2576              		.cfi_endproc
 2577              	.LFE270:
 2578              		.size	parameter_integer_declare_with_default, .-parameter_integer_declare_with_default
 2579              		.section	.text.parameter_integer_read,"ax",%progbits
 2580              		.align	1
 2581              		.p2align 4,,15
 2582              		.global	parameter_integer_read
 2583              		.syntax unified
 2584              		.thumb
 2585              		.thumb_func
 2586              		.fpu fpv4-sp-d16
 2587              		.type	parameter_integer_read, %function
 2588              	parameter_integer_read:
 2589              	.LFB272:
 2590              		.loc 1 311 0
 2591              		.cfi_startproc
 2592              		@ args = 0, pretend = 0, frame = 8
 2593              		@ frame_needed = 0, uses_anonymous_args = 0
 2594              	.LVL252:
 2595 0000 30B5     		push	{r4, r5, lr}
 2596              		.cfi_def_cfa_offset 12
 2597              		.cfi_offset 4, -12
 2598              		.cfi_offset 5, -8
 2599              		.cfi_offset 14, -4
 2600 0002 1A4D     		ldr	r5, .L253
 2601              		.loc 1 312 0
 2602 0004 837B     		ldrb	r3, [r0, #14]	@ zero_extendqisi2
 2603              		.loc 1 311 0
 2604 0006 2A68     		ldr	r2, [r5]
 2605 0008 83B0     		sub	sp, sp, #12
 2606              		.cfi_def_cfa_offset 24
 2607              		.loc 1 312 0
 2608 000a 032B     		cmp	r3, #3
 2609              		.loc 1 311 0
 2610 000c 0446     		mov	r4, r0
 2611 000e 0192     		str	r2, [sp, #4]
 2612              		.loc 1 312 0
 2613 0010 02D0     		beq	.L243
 2614              		.loc 1 312 0 is_stmt 0 discriminator 2
 2615 0012 1748     		ldr	r0, .L253+4
 2616              	.LVL253:
 2617 0014 FFF7FEFF 		bl	chSysHalt
 2618              	.LVL254:
 2619              	.L243:
 2620              	.LBB528:
 2621              	.LBB529:
 2622              	.LBB530:
ARM GAS  /var/folders/d2/nstgp4h54kz7g1l847x_b8wc0000gn/T//ccW13lHv.s 			page 47


 2623              	.LBB531:
 2624              	.LBB532:
 2625              		.loc 2 546 0 is_stmt 1
 2626 0018 2023     		movs	r3, #32
 2627              		.syntax unified
 2628              	@ 546 "../e-puck2_main-processor/ChibiOS//os/ext/CMSIS/include/core_cmFunc.h" 1
 2629 001a 83F31188 		MSR basepri, r3
 2630              	@ 0 "" 2
 2631              	.LVL255:
 2632              		.thumb
 2633              		.syntax unified
 2634              	.LBE532:
 2635              	.LBE531:
 2636              	.LBE530:
 2637              		.loc 3 349 0
 2638 001e FFF7FEFF 		bl	_stats_start_measure_crit_thd
 2639              	.LVL256:
 2640              		.loc 3 350 0
 2641 0022 FFF7FEFF 		bl	_dbg_check_lock
 2642              	.LVL257:
 2643              	.LBE529:
 2644              	.LBE528:
 2645              		.loc 1 314 0
 2646 0026 637B     		ldrb	r3, [r4, #13]	@ zero_extendqisi2
 2647 0028 13B9     		cbnz	r3, .L244
 2648              		.loc 1 314 0 is_stmt 0 discriminator 2
 2649 002a 1148     		ldr	r0, .L253+4
 2650 002c FFF7FEFF 		bl	chSysHalt
 2651              	.LVL258:
 2652              	.L244:
 2653              		.loc 1 315 0 is_stmt 1
 2654 0030 2469     		ldr	r4, [r4, #16]
 2655              	.LVL259:
 2656              	.LBB533:
 2657              	.LBB534:
 2658              		.loc 3 360 0
 2659 0032 FFF7FEFF 		bl	_dbg_check_unlock
 2660              	.LVL260:
 2661              		.loc 3 361 0
 2662 0036 FFF7FEFF 		bl	_stats_stop_measure_crit_thd
 2663              	.LVL261:
 2664              		.loc 3 367 0
 2665 003a 0E4B     		ldr	r3, .L253+8
 2666 003c 1A68     		ldr	r2, [r3]
 2667 003e 9A42     		cmp	r2, r3
 2668 0040 04D0     		beq	.L245
 2669 0042 9969     		ldr	r1, [r3, #24]
 2670 0044 9368     		ldr	r3, [r2, #8]
 2671 0046 8A68     		ldr	r2, [r1, #8]
 2672 0048 9A42     		cmp	r2, r3
 2673 004a 09D3     		bcc	.L251
 2674              	.L245:
 2675              	.LVL262:
 2676              	.LBB535:
 2677              	.LBB536:
 2678              	.LBB537:
 2679              		.loc 2 546 0
ARM GAS  /var/folders/d2/nstgp4h54kz7g1l847x_b8wc0000gn/T//ccW13lHv.s 			page 48


 2680 004c 0023     		movs	r3, #0
 2681              		.syntax unified
 2682              	@ 546 "../e-puck2_main-processor/ChibiOS//os/ext/CMSIS/include/core_cmFunc.h" 1
 2683 004e 83F31188 		MSR basepri, r3
 2684              	@ 0 "" 2
 2685              	.LVL263:
 2686              		.thumb
 2687              		.syntax unified
 2688              	.LBE537:
 2689              	.LBE536:
 2690              	.LBE535:
 2691              	.LBE534:
 2692              	.LBE533:
 2693              		.loc 1 318 0
 2694 0052 019A     		ldr	r2, [sp, #4]
 2695 0054 2B68     		ldr	r3, [r5]
 2696 0056 9A42     		cmp	r2, r3
 2697 0058 2046     		mov	r0, r4
 2698 005a 05D1     		bne	.L252
 2699              	.LVL264:
 2700 005c 03B0     		add	sp, sp, #12
 2701              		.cfi_remember_state
 2702              		.cfi_def_cfa_offset 12
 2703              		@ sp needed
 2704 005e 30BD     		pop	{r4, r5, pc}
 2705              	.LVL265:
 2706              	.L251:
 2707              		.cfi_restore_state
 2708              	.LBB539:
 2709              	.LBB538:
 2710              		.loc 3 367 0
 2711 0060 0548     		ldr	r0, .L253+12
 2712 0062 FFF7FEFF 		bl	chSysHalt
 2713              	.LVL266:
 2714 0066 F1E7     		b	.L245
 2715              	.LVL267:
 2716              	.L252:
 2717              	.LBE538:
 2718              	.LBE539:
 2719              		.loc 1 318 0
 2720 0068 FFF7FEFF 		bl	__stack_chk_fail
 2721              	.LVL268:
 2722              	.L254:
 2723              		.align	2
 2724              	.L253:
 2725 006c 00000000 		.word	__stack_chk_guard
 2726 0070 00000000 		.word	.LANCHOR3
 2727 0074 00000000 		.word	ch
 2728 0078 00000000 		.word	.LANCHOR0
 2729              		.cfi_endproc
 2730              	.LFE272:
 2731              		.size	parameter_integer_read, .-parameter_integer_read
 2732              		.section	.text.parameter_integer_get,"ax",%progbits
 2733              		.align	1
 2734              		.p2align 4,,15
 2735              		.global	parameter_integer_get
 2736              		.syntax unified
ARM GAS  /var/folders/d2/nstgp4h54kz7g1l847x_b8wc0000gn/T//ccW13lHv.s 			page 49


 2737              		.thumb
 2738              		.thumb_func
 2739              		.fpu fpv4-sp-d16
 2740              		.type	parameter_integer_get, %function
 2741              	parameter_integer_get:
 2742              	.LFB271:
 2743              		.loc 1 305 0
 2744              		.cfi_startproc
 2745              		@ args = 0, pretend = 0, frame = 8
 2746              		@ frame_needed = 0, uses_anonymous_args = 0
 2747              	.LVL269:
 2748 0000 30B5     		push	{r4, r5, lr}
 2749              		.cfi_def_cfa_offset 12
 2750              		.cfi_offset 4, -12
 2751              		.cfi_offset 5, -8
 2752              		.cfi_offset 14, -4
 2753 0002 094C     		ldr	r4, .L260
 2754 0004 83B0     		sub	sp, sp, #12
 2755              		.cfi_def_cfa_offset 24
 2756              		.loc 1 305 0
 2757 0006 2368     		ldr	r3, [r4]
 2758 0008 0193     		str	r3, [sp, #4]
 2759 000a 0546     		mov	r5, r0
 2760              		.loc 1 306 0
 2761 000c FFF7FEFF 		bl	_parameter_changed_clear
 2762              	.LVL270:
 2763              		.loc 1 307 0
 2764 0010 019A     		ldr	r2, [sp, #4]
 2765 0012 2368     		ldr	r3, [r4]
 2766 0014 9A42     		cmp	r2, r3
 2767 0016 05D1     		bne	.L259
 2768 0018 2846     		mov	r0, r5
 2769              		.loc 1 308 0
 2770 001a 03B0     		add	sp, sp, #12
 2771              		.cfi_remember_state
 2772              		.cfi_def_cfa_offset 12
 2773              		@ sp needed
 2774 001c BDE83040 		pop	{r4, r5, lr}
 2775              		.cfi_restore 14
 2776              		.cfi_restore 5
 2777              		.cfi_restore 4
 2778              		.cfi_def_cfa_offset 0
 2779              	.LVL271:
 2780              		.loc 1 307 0
 2781 0020 FFF7FEBF 		b	parameter_integer_read
 2782              	.LVL272:
 2783              	.L259:
 2784              		.cfi_restore_state
 2785 0024 FFF7FEFF 		bl	__stack_chk_fail
 2786              	.LVL273:
 2787              	.L261:
 2788              		.align	2
 2789              	.L260:
 2790 0028 00000000 		.word	__stack_chk_guard
 2791              		.cfi_endproc
 2792              	.LFE271:
 2793              		.size	parameter_integer_get, .-parameter_integer_get
ARM GAS  /var/folders/d2/nstgp4h54kz7g1l847x_b8wc0000gn/T//ccW13lHv.s 			page 50


 2794              		.section	.text.parameter_integer_set,"ax",%progbits
 2795              		.align	1
 2796              		.p2align 4,,15
 2797              		.global	parameter_integer_set
 2798              		.syntax unified
 2799              		.thumb
 2800              		.thumb_func
 2801              		.fpu fpv4-sp-d16
 2802              		.type	parameter_integer_set, %function
 2803              	parameter_integer_set:
 2804              	.LFB273:
 2805              		.loc 1 321 0
 2806              		.cfi_startproc
 2807              		@ args = 0, pretend = 0, frame = 8
 2808              		@ frame_needed = 0, uses_anonymous_args = 0
 2809              	.LVL274:
 2810 0000 70B5     		push	{r4, r5, r6, lr}
 2811              		.cfi_def_cfa_offset 16
 2812              		.cfi_offset 4, -16
 2813              		.cfi_offset 5, -12
 2814              		.cfi_offset 6, -8
 2815              		.cfi_offset 14, -4
 2816 0002 1A4D     		ldr	r5, .L273
 2817              		.loc 1 322 0
 2818 0004 837B     		ldrb	r3, [r0, #14]	@ zero_extendqisi2
 2819              		.loc 1 321 0
 2820 0006 2A68     		ldr	r2, [r5]
 2821 0008 82B0     		sub	sp, sp, #8
 2822              		.cfi_def_cfa_offset 24
 2823              		.loc 1 322 0
 2824 000a 032B     		cmp	r3, #3
 2825              		.loc 1 321 0
 2826 000c 0446     		mov	r4, r0
 2827 000e 0192     		str	r2, [sp, #4]
 2828 0010 0E46     		mov	r6, r1
 2829              		.loc 1 322 0
 2830 0012 02D0     		beq	.L263
 2831              		.loc 1 322 0 is_stmt 0 discriminator 2
 2832 0014 1648     		ldr	r0, .L273+4
 2833              	.LVL275:
 2834 0016 FFF7FEFF 		bl	chSysHalt
 2835              	.LVL276:
 2836              	.L263:
 2837              	.LBB550:
 2838              	.LBB551:
 2839              	.LBB552:
 2840              	.LBB553:
 2841              	.LBB554:
 2842              		.loc 2 546 0 is_stmt 1
 2843 001a 2023     		movs	r3, #32
 2844              		.syntax unified
 2845              	@ 546 "../e-puck2_main-processor/ChibiOS//os/ext/CMSIS/include/core_cmFunc.h" 1
 2846 001c 83F31188 		MSR basepri, r3
 2847              	@ 0 "" 2
 2848              	.LVL277:
 2849              		.thumb
 2850              		.syntax unified
ARM GAS  /var/folders/d2/nstgp4h54kz7g1l847x_b8wc0000gn/T//ccW13lHv.s 			page 51


 2851              	.LBE554:
 2852              	.LBE553:
 2853              	.LBE552:
 2854              		.loc 3 349 0
 2855 0020 FFF7FEFF 		bl	_stats_start_measure_crit_thd
 2856              	.LVL278:
 2857              		.loc 3 350 0
 2858 0024 FFF7FEFF 		bl	_dbg_check_lock
 2859              	.LVL279:
 2860              	.LBE551:
 2861              	.LBE550:
 2862              		.loc 1 324 0
 2863 0028 2661     		str	r6, [r4, #16]
 2864              	.LBB555:
 2865              	.LBB556:
 2866              		.loc 3 360 0
 2867 002a FFF7FEFF 		bl	_dbg_check_unlock
 2868              	.LVL280:
 2869              		.loc 3 361 0
 2870 002e FFF7FEFF 		bl	_stats_stop_measure_crit_thd
 2871              	.LVL281:
 2872              		.loc 3 367 0
 2873 0032 104B     		ldr	r3, .L273+8
 2874 0034 1A68     		ldr	r2, [r3]
 2875 0036 9A42     		cmp	r2, r3
 2876 0038 04D0     		beq	.L264
 2877 003a 9969     		ldr	r1, [r3, #24]
 2878 003c 9368     		ldr	r3, [r2, #8]
 2879 003e 8A68     		ldr	r2, [r1, #8]
 2880 0040 9A42     		cmp	r2, r3
 2881 0042 0CD3     		bcc	.L271
 2882              	.L264:
 2883              	.LVL282:
 2884              	.LBB557:
 2885              	.LBB558:
 2886              	.LBB559:
 2887              		.loc 2 546 0
 2888 0044 0023     		movs	r3, #0
 2889              		.syntax unified
 2890              	@ 546 "../e-puck2_main-processor/ChibiOS//os/ext/CMSIS/include/core_cmFunc.h" 1
 2891 0046 83F31188 		MSR basepri, r3
 2892              	@ 0 "" 2
 2893              	.LVL283:
 2894              		.thumb
 2895              		.syntax unified
 2896              	.LBE559:
 2897              	.LBE558:
 2898              	.LBE557:
 2899              	.LBE556:
 2900              	.LBE555:
 2901              		.loc 1 326 0
 2902 004a 019A     		ldr	r2, [sp, #4]
 2903 004c 2B68     		ldr	r3, [r5]
 2904 004e 9A42     		cmp	r2, r3
 2905 0050 09D1     		bne	.L272
 2906 0052 2046     		mov	r0, r4
 2907              		.loc 1 327 0
ARM GAS  /var/folders/d2/nstgp4h54kz7g1l847x_b8wc0000gn/T//ccW13lHv.s 			page 52


 2908 0054 02B0     		add	sp, sp, #8
 2909              		.cfi_remember_state
 2910              		.cfi_def_cfa_offset 16
 2911              		@ sp needed
 2912 0056 BDE87040 		pop	{r4, r5, r6, lr}
 2913              		.cfi_restore 14
 2914              		.cfi_restore 6
 2915              		.cfi_restore 5
 2916              		.cfi_restore 4
 2917              		.cfi_def_cfa_offset 0
 2918              	.LVL284:
 2919              		.loc 1 326 0
 2920 005a FFF7FEBF 		b	_parameter_changed_set
 2921              	.LVL285:
 2922              	.L271:
 2923              		.cfi_restore_state
 2924              	.LBB561:
 2925              	.LBB560:
 2926              		.loc 3 367 0
 2927 005e 0648     		ldr	r0, .L273+12
 2928 0060 FFF7FEFF 		bl	chSysHalt
 2929              	.LVL286:
 2930 0064 EEE7     		b	.L264
 2931              	.L272:
 2932              	.LBE560:
 2933              	.LBE561:
 2934              		.loc 1 326 0
 2935 0066 FFF7FEFF 		bl	__stack_chk_fail
 2936              	.LVL287:
 2937              	.L274:
 2938 006a 00BF     		.align	2
 2939              	.L273:
 2940 006c 00000000 		.word	__stack_chk_guard
 2941 0070 00000000 		.word	.LANCHOR4
 2942 0074 00000000 		.word	ch
 2943 0078 00000000 		.word	.LANCHOR0
 2944              		.cfi_endproc
 2945              	.LFE273:
 2946              		.size	parameter_integer_set, .-parameter_integer_set
 2947              		.section	.text.parameter_boolean_declare,"ax",%progbits
 2948              		.align	1
 2949              		.p2align 4,,15
 2950              		.global	parameter_boolean_declare
 2951              		.syntax unified
 2952              		.thumb
 2953              		.thumb_func
 2954              		.fpu fpv4-sp-d16
 2955              		.type	parameter_boolean_declare, %function
 2956              	parameter_boolean_declare:
 2957              	.LFB274:
 2958              		.loc 1 332 0
 2959              		.cfi_startproc
 2960              		@ args = 0, pretend = 0, frame = 8
 2961              		@ frame_needed = 0, uses_anonymous_args = 0
 2962              	.LVL288:
 2963 0000 30B5     		push	{r4, r5, lr}
 2964              		.cfi_def_cfa_offset 12
ARM GAS  /var/folders/d2/nstgp4h54kz7g1l847x_b8wc0000gn/T//ccW13lHv.s 			page 53


 2965              		.cfi_offset 4, -12
 2966              		.cfi_offset 5, -8
 2967              		.cfi_offset 14, -4
 2968 0002 084B     		ldr	r3, .L280
 2969 0004 83B0     		sub	sp, sp, #12
 2970              		.cfi_def_cfa_offset 24
 2971              		.loc 1 332 0
 2972 0006 1C68     		ldr	r4, [r3]
 2973 0008 0194     		str	r4, [sp, #4]
 2974              		.loc 1 334 0
 2975 000a 019C     		ldr	r4, [sp, #4]
 2976 000c 1B68     		ldr	r3, [r3]
 2977              		.loc 1 333 0
 2978 000e 0225     		movs	r5, #2
 2979              		.loc 1 334 0
 2980 0010 9C42     		cmp	r4, r3
 2981              		.loc 1 333 0
 2982 0012 8573     		strb	r5, [r0, #14]
 2983              		.loc 1 334 0
 2984 0014 04D1     		bne	.L279
 2985              		.loc 1 335 0
 2986 0016 03B0     		add	sp, sp, #12
 2987              		.cfi_remember_state
 2988              		.cfi_def_cfa_offset 12
 2989              		@ sp needed
 2990 0018 BDE83040 		pop	{r4, r5, lr}
 2991              		.cfi_restore 14
 2992              		.cfi_restore 5
 2993              		.cfi_restore 4
 2994              		.cfi_def_cfa_offset 0
 2995              		.loc 1 334 0
 2996 001c FFF7FEBF 		b	_parameter_declare
 2997              	.LVL289:
 2998              	.L279:
 2999              		.cfi_restore_state
 3000 0020 FFF7FEFF 		bl	__stack_chk_fail
 3001              	.LVL290:
 3002              	.L281:
 3003              		.align	2
 3004              	.L280:
 3005 0024 00000000 		.word	__stack_chk_guard
 3006              		.cfi_endproc
 3007              	.LFE274:
 3008              		.size	parameter_boolean_declare, .-parameter_boolean_declare
 3009              		.section	.text.parameter_boolean_declare_with_default,"ax",%progbits
 3010              		.align	1
 3011              		.p2align 4,,15
 3012              		.global	parameter_boolean_declare_with_default
 3013              		.syntax unified
 3014              		.thumb
 3015              		.thumb_func
 3016              		.fpu fpv4-sp-d16
 3017              		.type	parameter_boolean_declare_with_default, %function
 3018              	parameter_boolean_declare_with_default:
 3019              	.LFB275:
 3020              		.loc 1 341 0
 3021              		.cfi_startproc
ARM GAS  /var/folders/d2/nstgp4h54kz7g1l847x_b8wc0000gn/T//ccW13lHv.s 			page 54


 3022              		@ args = 0, pretend = 0, frame = 8
 3023              		@ frame_needed = 0, uses_anonymous_args = 0
 3024              	.LVL291:
 3025 0000 70B5     		push	{r4, r5, r6, lr}
 3026              		.cfi_def_cfa_offset 16
 3027              		.cfi_offset 4, -16
 3028              		.cfi_offset 5, -12
 3029              		.cfi_offset 6, -8
 3030              		.cfi_offset 14, -4
 3031 0002 0B4D     		ldr	r5, .L287
 3032              		.loc 1 342 0
 3033 0004 0374     		strb	r3, [r0, #16]
 3034              		.loc 1 341 0
 3035 0006 82B0     		sub	sp, sp, #8
 3036              		.cfi_def_cfa_offset 24
 3037              		.loc 1 343 0
 3038 0008 0223     		movs	r3, #2
 3039              	.LVL292:
 3040              		.loc 1 341 0
 3041 000a 2E68     		ldr	r6, [r5]
 3042              		.loc 1 343 0
 3043 000c 8373     		strb	r3, [r0, #14]
 3044              		.loc 1 341 0
 3045 000e 0446     		mov	r4, r0
 3046 0010 0196     		str	r6, [sp, #4]
 3047              		.loc 1 344 0
 3048 0012 FFF7FEFF 		bl	_parameter_declare
 3049              	.LVL293:
 3050              		.loc 1 345 0
 3051 0016 019A     		ldr	r2, [sp, #4]
 3052 0018 2B68     		ldr	r3, [r5]
 3053 001a 9A42     		cmp	r2, r3
 3054 001c 05D1     		bne	.L286
 3055 001e 2046     		mov	r0, r4
 3056              		.loc 1 346 0
 3057 0020 02B0     		add	sp, sp, #8
 3058              		.cfi_remember_state
 3059              		.cfi_def_cfa_offset 16
 3060              		@ sp needed
 3061 0022 BDE87040 		pop	{r4, r5, r6, lr}
 3062              		.cfi_restore 14
 3063              		.cfi_restore 6
 3064              		.cfi_restore 5
 3065              		.cfi_restore 4
 3066              		.cfi_def_cfa_offset 0
 3067              	.LVL294:
 3068              		.loc 1 345 0
 3069 0026 FFF7FEBF 		b	_parameter_changed_set
 3070              	.LVL295:
 3071              	.L286:
 3072              		.cfi_restore_state
 3073 002a FFF7FEFF 		bl	__stack_chk_fail
 3074              	.LVL296:
 3075              	.L288:
 3076 002e 00BF     		.align	2
 3077              	.L287:
 3078 0030 00000000 		.word	__stack_chk_guard
ARM GAS  /var/folders/d2/nstgp4h54kz7g1l847x_b8wc0000gn/T//ccW13lHv.s 			page 55


 3079              		.cfi_endproc
 3080              	.LFE275:
 3081              		.size	parameter_boolean_declare_with_default, .-parameter_boolean_declare_with_default
 3082              		.section	.text.parameter_boolean_set,"ax",%progbits
 3083              		.align	1
 3084              		.p2align 4,,15
 3085              		.global	parameter_boolean_set
 3086              		.syntax unified
 3087              		.thumb
 3088              		.thumb_func
 3089              		.fpu fpv4-sp-d16
 3090              		.type	parameter_boolean_set, %function
 3091              	parameter_boolean_set:
 3092              	.LFB276:
 3093              		.loc 1 349 0
 3094              		.cfi_startproc
 3095              		@ args = 0, pretend = 0, frame = 8
 3096              		@ frame_needed = 0, uses_anonymous_args = 0
 3097              	.LVL297:
 3098 0000 70B5     		push	{r4, r5, r6, lr}
 3099              		.cfi_def_cfa_offset 16
 3100              		.cfi_offset 4, -16
 3101              		.cfi_offset 5, -12
 3102              		.cfi_offset 6, -8
 3103              		.cfi_offset 14, -4
 3104 0002 1A4D     		ldr	r5, .L300
 3105              		.loc 1 350 0
 3106 0004 837B     		ldrb	r3, [r0, #14]	@ zero_extendqisi2
 3107              		.loc 1 349 0
 3108 0006 2A68     		ldr	r2, [r5]
 3109 0008 82B0     		sub	sp, sp, #8
 3110              		.cfi_def_cfa_offset 24
 3111              		.loc 1 350 0
 3112 000a 022B     		cmp	r3, #2
 3113              		.loc 1 349 0
 3114 000c 0446     		mov	r4, r0
 3115 000e 0192     		str	r2, [sp, #4]
 3116 0010 0E46     		mov	r6, r1
 3117              		.loc 1 350 0
 3118 0012 02D0     		beq	.L290
 3119              		.loc 1 350 0 is_stmt 0 discriminator 2
 3120 0014 1648     		ldr	r0, .L300+4
 3121              	.LVL298:
 3122 0016 FFF7FEFF 		bl	chSysHalt
 3123              	.LVL299:
 3124              	.L290:
 3125              	.LBB572:
 3126              	.LBB573:
 3127              	.LBB574:
 3128              	.LBB575:
 3129              	.LBB576:
 3130              		.loc 2 546 0 is_stmt 1
 3131 001a 2023     		movs	r3, #32
 3132              		.syntax unified
 3133              	@ 546 "../e-puck2_main-processor/ChibiOS//os/ext/CMSIS/include/core_cmFunc.h" 1
 3134 001c 83F31188 		MSR basepri, r3
 3135              	@ 0 "" 2
ARM GAS  /var/folders/d2/nstgp4h54kz7g1l847x_b8wc0000gn/T//ccW13lHv.s 			page 56


 3136              	.LVL300:
 3137              		.thumb
 3138              		.syntax unified
 3139              	.LBE576:
 3140              	.LBE575:
 3141              	.LBE574:
 3142              		.loc 3 349 0
 3143 0020 FFF7FEFF 		bl	_stats_start_measure_crit_thd
 3144              	.LVL301:
 3145              		.loc 3 350 0
 3146 0024 FFF7FEFF 		bl	_dbg_check_lock
 3147              	.LVL302:
 3148              	.LBE573:
 3149              	.LBE572:
 3150              		.loc 1 353 0
 3151 0028 2674     		strb	r6, [r4, #16]
 3152              	.LBB577:
 3153              	.LBB578:
 3154              		.loc 3 360 0
 3155 002a FFF7FEFF 		bl	_dbg_check_unlock
 3156              	.LVL303:
 3157              		.loc 3 361 0
 3158 002e FFF7FEFF 		bl	_stats_stop_measure_crit_thd
 3159              	.LVL304:
 3160              		.loc 3 367 0
 3161 0032 104B     		ldr	r3, .L300+8
 3162 0034 1A68     		ldr	r2, [r3]
 3163 0036 9A42     		cmp	r2, r3
 3164 0038 04D0     		beq	.L291
 3165 003a 9969     		ldr	r1, [r3, #24]
 3166 003c 9368     		ldr	r3, [r2, #8]
 3167 003e 8A68     		ldr	r2, [r1, #8]
 3168 0040 9A42     		cmp	r2, r3
 3169 0042 0CD3     		bcc	.L298
 3170              	.L291:
 3171              	.LVL305:
 3172              	.LBB579:
 3173              	.LBB580:
 3174              	.LBB581:
 3175              		.loc 2 546 0
 3176 0044 0023     		movs	r3, #0
 3177              		.syntax unified
 3178              	@ 546 "../e-puck2_main-processor/ChibiOS//os/ext/CMSIS/include/core_cmFunc.h" 1
 3179 0046 83F31188 		MSR basepri, r3
 3180              	@ 0 "" 2
 3181              	.LVL306:
 3182              		.thumb
 3183              		.syntax unified
 3184              	.LBE581:
 3185              	.LBE580:
 3186              	.LBE579:
 3187              	.LBE578:
 3188              	.LBE577:
 3189              		.loc 1 355 0
 3190 004a 019A     		ldr	r2, [sp, #4]
 3191 004c 2B68     		ldr	r3, [r5]
 3192 004e 9A42     		cmp	r2, r3
ARM GAS  /var/folders/d2/nstgp4h54kz7g1l847x_b8wc0000gn/T//ccW13lHv.s 			page 57


 3193 0050 09D1     		bne	.L299
 3194 0052 2046     		mov	r0, r4
 3195              		.loc 1 356 0
 3196 0054 02B0     		add	sp, sp, #8
 3197              		.cfi_remember_state
 3198              		.cfi_def_cfa_offset 16
 3199              		@ sp needed
 3200 0056 BDE87040 		pop	{r4, r5, r6, lr}
 3201              		.cfi_restore 14
 3202              		.cfi_restore 6
 3203              		.cfi_restore 5
 3204              		.cfi_restore 4
 3205              		.cfi_def_cfa_offset 0
 3206              	.LVL307:
 3207              		.loc 1 355 0
 3208 005a FFF7FEBF 		b	_parameter_changed_set
 3209              	.LVL308:
 3210              	.L298:
 3211              		.cfi_restore_state
 3212              	.LBB583:
 3213              	.LBB582:
 3214              		.loc 3 367 0
 3215 005e 0648     		ldr	r0, .L300+12
 3216 0060 FFF7FEFF 		bl	chSysHalt
 3217              	.LVL309:
 3218 0064 EEE7     		b	.L291
 3219              	.L299:
 3220              	.LBE582:
 3221              	.LBE583:
 3222              		.loc 1 355 0
 3223 0066 FFF7FEFF 		bl	__stack_chk_fail
 3224              	.LVL310:
 3225              	.L301:
 3226 006a 00BF     		.align	2
 3227              	.L300:
 3228 006c 00000000 		.word	__stack_chk_guard
 3229 0070 00000000 		.word	.LANCHOR5
 3230 0074 00000000 		.word	ch
 3231 0078 00000000 		.word	.LANCHOR0
 3232              		.cfi_endproc
 3233              	.LFE276:
 3234              		.size	parameter_boolean_set, .-parameter_boolean_set
 3235              		.section	.text.parameter_boolean_read,"ax",%progbits
 3236              		.align	1
 3237              		.p2align 4,,15
 3238              		.global	parameter_boolean_read
 3239              		.syntax unified
 3240              		.thumb
 3241              		.thumb_func
 3242              		.fpu fpv4-sp-d16
 3243              		.type	parameter_boolean_read, %function
 3244              	parameter_boolean_read:
 3245              	.LFB278:
 3246              		.loc 1 365 0
 3247              		.cfi_startproc
 3248              		@ args = 0, pretend = 0, frame = 8
 3249              		@ frame_needed = 0, uses_anonymous_args = 0
ARM GAS  /var/folders/d2/nstgp4h54kz7g1l847x_b8wc0000gn/T//ccW13lHv.s 			page 58


 3250              	.LVL311:
 3251 0000 30B5     		push	{r4, r5, lr}
 3252              		.cfi_def_cfa_offset 12
 3253              		.cfi_offset 4, -12
 3254              		.cfi_offset 5, -8
 3255              		.cfi_offset 14, -4
 3256 0002 1A4D     		ldr	r5, .L313
 3257              		.loc 1 366 0
 3258 0004 837B     		ldrb	r3, [r0, #14]	@ zero_extendqisi2
 3259              		.loc 1 365 0
 3260 0006 2A68     		ldr	r2, [r5]
 3261 0008 83B0     		sub	sp, sp, #12
 3262              		.cfi_def_cfa_offset 24
 3263              		.loc 1 366 0
 3264 000a 022B     		cmp	r3, #2
 3265              		.loc 1 365 0
 3266 000c 0446     		mov	r4, r0
 3267 000e 0192     		str	r2, [sp, #4]
 3268              		.loc 1 366 0
 3269 0010 02D0     		beq	.L303
 3270              		.loc 1 366 0 is_stmt 0 discriminator 2
 3271 0012 1748     		ldr	r0, .L313+4
 3272              	.LVL312:
 3273 0014 FFF7FEFF 		bl	chSysHalt
 3274              	.LVL313:
 3275              	.L303:
 3276              	.LBB594:
 3277              	.LBB595:
 3278              	.LBB596:
 3279              	.LBB597:
 3280              	.LBB598:
 3281              		.loc 2 546 0 is_stmt 1
 3282 0018 2023     		movs	r3, #32
 3283              		.syntax unified
 3284              	@ 546 "../e-puck2_main-processor/ChibiOS//os/ext/CMSIS/include/core_cmFunc.h" 1
 3285 001a 83F31188 		MSR basepri, r3
 3286              	@ 0 "" 2
 3287              	.LVL314:
 3288              		.thumb
 3289              		.syntax unified
 3290              	.LBE598:
 3291              	.LBE597:
 3292              	.LBE596:
 3293              		.loc 3 349 0
 3294 001e FFF7FEFF 		bl	_stats_start_measure_crit_thd
 3295              	.LVL315:
 3296              		.loc 3 350 0
 3297 0022 FFF7FEFF 		bl	_dbg_check_lock
 3298              	.LVL316:
 3299              	.LBE595:
 3300              	.LBE594:
 3301              		.loc 1 368 0
 3302 0026 637B     		ldrb	r3, [r4, #13]	@ zero_extendqisi2
 3303 0028 13B9     		cbnz	r3, .L304
 3304              		.loc 1 368 0 is_stmt 0 discriminator 2
 3305 002a 1148     		ldr	r0, .L313+4
 3306 002c FFF7FEFF 		bl	chSysHalt
ARM GAS  /var/folders/d2/nstgp4h54kz7g1l847x_b8wc0000gn/T//ccW13lHv.s 			page 59


 3307              	.LVL317:
 3308              	.L304:
 3309              		.loc 1 369 0 is_stmt 1
 3310 0030 247C     		ldrb	r4, [r4, #16]	@ zero_extendqisi2
 3311              	.LVL318:
 3312              	.LBB599:
 3313              	.LBB600:
 3314              		.loc 3 360 0
 3315 0032 FFF7FEFF 		bl	_dbg_check_unlock
 3316              	.LVL319:
 3317              		.loc 3 361 0
 3318 0036 FFF7FEFF 		bl	_stats_stop_measure_crit_thd
 3319              	.LVL320:
 3320              		.loc 3 367 0
 3321 003a 0E4B     		ldr	r3, .L313+8
 3322 003c 1A68     		ldr	r2, [r3]
 3323 003e 9A42     		cmp	r2, r3
 3324 0040 04D0     		beq	.L305
 3325 0042 9969     		ldr	r1, [r3, #24]
 3326 0044 9368     		ldr	r3, [r2, #8]
 3327 0046 8A68     		ldr	r2, [r1, #8]
 3328 0048 9A42     		cmp	r2, r3
 3329 004a 09D3     		bcc	.L311
 3330              	.L305:
 3331              	.LVL321:
 3332              	.LBB601:
 3333              	.LBB602:
 3334              	.LBB603:
 3335              		.loc 2 546 0
 3336 004c 0023     		movs	r3, #0
 3337              		.syntax unified
 3338              	@ 546 "../e-puck2_main-processor/ChibiOS//os/ext/CMSIS/include/core_cmFunc.h" 1
 3339 004e 83F31188 		MSR basepri, r3
 3340              	@ 0 "" 2
 3341              	.LVL322:
 3342              		.thumb
 3343              		.syntax unified
 3344              	.LBE603:
 3345              	.LBE602:
 3346              	.LBE601:
 3347              	.LBE600:
 3348              	.LBE599:
 3349              		.loc 1 372 0
 3350 0052 019A     		ldr	r2, [sp, #4]
 3351 0054 2B68     		ldr	r3, [r5]
 3352 0056 9A42     		cmp	r2, r3
 3353 0058 2046     		mov	r0, r4
 3354 005a 05D1     		bne	.L312
 3355 005c 03B0     		add	sp, sp, #12
 3356              		.cfi_remember_state
 3357              		.cfi_def_cfa_offset 12
 3358              		@ sp needed
 3359 005e 30BD     		pop	{r4, r5, pc}
 3360              	.LVL323:
 3361              	.L311:
 3362              		.cfi_restore_state
 3363              	.LBB605:
ARM GAS  /var/folders/d2/nstgp4h54kz7g1l847x_b8wc0000gn/T//ccW13lHv.s 			page 60


 3364              	.LBB604:
 3365              		.loc 3 367 0
 3366 0060 0548     		ldr	r0, .L313+12
 3367 0062 FFF7FEFF 		bl	chSysHalt
 3368              	.LVL324:
 3369 0066 F1E7     		b	.L305
 3370              	.L312:
 3371              	.LBE604:
 3372              	.LBE605:
 3373              		.loc 1 372 0
 3374 0068 FFF7FEFF 		bl	__stack_chk_fail
 3375              	.LVL325:
 3376              	.L314:
 3377              		.align	2
 3378              	.L313:
 3379 006c 00000000 		.word	__stack_chk_guard
 3380 0070 00000000 		.word	.LANCHOR6
 3381 0074 00000000 		.word	ch
 3382 0078 00000000 		.word	.LANCHOR0
 3383              		.cfi_endproc
 3384              	.LFE278:
 3385              		.size	parameter_boolean_read, .-parameter_boolean_read
 3386              		.section	.text.parameter_boolean_get,"ax",%progbits
 3387              		.align	1
 3388              		.p2align 4,,15
 3389              		.global	parameter_boolean_get
 3390              		.syntax unified
 3391              		.thumb
 3392              		.thumb_func
 3393              		.fpu fpv4-sp-d16
 3394              		.type	parameter_boolean_get, %function
 3395              	parameter_boolean_get:
 3396              	.LFB277:
 3397              		.loc 1 359 0
 3398              		.cfi_startproc
 3399              		@ args = 0, pretend = 0, frame = 8
 3400              		@ frame_needed = 0, uses_anonymous_args = 0
 3401              	.LVL326:
 3402 0000 30B5     		push	{r4, r5, lr}
 3403              		.cfi_def_cfa_offset 12
 3404              		.cfi_offset 4, -12
 3405              		.cfi_offset 5, -8
 3406              		.cfi_offset 14, -4
 3407 0002 094C     		ldr	r4, .L320
 3408 0004 83B0     		sub	sp, sp, #12
 3409              		.cfi_def_cfa_offset 24
 3410              		.loc 1 359 0
 3411 0006 2368     		ldr	r3, [r4]
 3412 0008 0193     		str	r3, [sp, #4]
 3413 000a 0546     		mov	r5, r0
 3414              		.loc 1 360 0
 3415 000c FFF7FEFF 		bl	_parameter_changed_clear
 3416              	.LVL327:
 3417              		.loc 1 361 0
 3418 0010 019A     		ldr	r2, [sp, #4]
 3419 0012 2368     		ldr	r3, [r4]
 3420 0014 9A42     		cmp	r2, r3
ARM GAS  /var/folders/d2/nstgp4h54kz7g1l847x_b8wc0000gn/T//ccW13lHv.s 			page 61


 3421 0016 05D1     		bne	.L319
 3422 0018 2846     		mov	r0, r5
 3423              		.loc 1 362 0
 3424 001a 03B0     		add	sp, sp, #12
 3425              		.cfi_remember_state
 3426              		.cfi_def_cfa_offset 12
 3427              		@ sp needed
 3428 001c BDE83040 		pop	{r4, r5, lr}
 3429              		.cfi_restore 14
 3430              		.cfi_restore 5
 3431              		.cfi_restore 4
 3432              		.cfi_def_cfa_offset 0
 3433              	.LVL328:
 3434              		.loc 1 361 0
 3435 0020 FFF7FEBF 		b	parameter_boolean_read
 3436              	.LVL329:
 3437              	.L319:
 3438              		.cfi_restore_state
 3439 0024 FFF7FEFF 		bl	__stack_chk_fail
 3440              	.LVL330:
 3441              	.L321:
 3442              		.align	2
 3443              	.L320:
 3444 0028 00000000 		.word	__stack_chk_guard
 3445              		.cfi_endproc
 3446              	.LFE277:
 3447              		.size	parameter_boolean_get, .-parameter_boolean_get
 3448              		.section	.text.parameter_vector_declare,"ax",%progbits
 3449              		.align	1
 3450              		.p2align 4,,15
 3451              		.global	parameter_vector_declare
 3452              		.syntax unified
 3453              		.thumb
 3454              		.thumb_func
 3455              		.fpu fpv4-sp-d16
 3456              		.type	parameter_vector_declare, %function
 3457              	parameter_vector_declare:
 3458              	.LFB279:
 3459              		.loc 1 381 0
 3460              		.cfi_startproc
 3461              		@ args = 4, pretend = 0, frame = 8
 3462              		@ frame_needed = 0, uses_anonymous_args = 0
 3463              	.LVL331:
 3464 0000 F0B5     		push	{r4, r5, r6, r7, lr}
 3465              		.cfi_def_cfa_offset 20
 3466              		.cfi_offset 4, -20
 3467              		.cfi_offset 5, -16
 3468              		.cfi_offset 6, -12
 3469              		.cfi_offset 7, -8
 3470              		.cfi_offset 14, -4
 3471 0002 0B4C     		ldr	r4, .L327
 3472              		.loc 1 383 0
 3473 0004 0361     		str	r3, [r0, #16]
 3474              		.loc 1 381 0
 3475 0006 83B0     		sub	sp, sp, #12
 3476              		.cfi_def_cfa_offset 32
 3477              		.loc 1 381 0
ARM GAS  /var/folders/d2/nstgp4h54kz7g1l847x_b8wc0000gn/T//ccW13lHv.s 			page 62


 3478 0008 2568     		ldr	r5, [r4]
 3479 000a 0195     		str	r5, [sp, #4]
 3480              		.loc 1 385 0
 3481 000c 019E     		ldr	r6, [sp, #4]
 3482 000e 2568     		ldr	r5, [r4]
 3483              		.loc 1 381 0
 3484 0010 BDF82070 		ldrh	r7, [sp, #32]
 3485              		.loc 1 384 0
 3486 0014 C782     		strh	r7, [r0, #22]	@ movhi
 3487              		.loc 1 382 0
 3488 0016 4FF0050C 		mov	ip, #5
 3489              		.loc 1 385 0
 3490 001a AE42     		cmp	r6, r5
 3491              		.loc 1 382 0
 3492 001c 80F80EC0 		strb	ip, [r0, #14]
 3493              		.loc 1 385 0
 3494 0020 04D1     		bne	.L326
 3495              		.loc 1 386 0
 3496 0022 03B0     		add	sp, sp, #12
 3497              		.cfi_remember_state
 3498              		.cfi_def_cfa_offset 20
 3499              		@ sp needed
 3500 0024 BDE8F040 		pop	{r4, r5, r6, r7, lr}
 3501              		.cfi_restore 14
 3502              		.cfi_restore 7
 3503              		.cfi_restore 6
 3504              		.cfi_restore 5
 3505              		.cfi_restore 4
 3506              		.cfi_def_cfa_offset 0
 3507              	.LVL332:
 3508              		.loc 1 385 0
 3509 0028 FFF7FEBF 		b	_parameter_declare
 3510              	.LVL333:
 3511              	.L326:
 3512              		.cfi_restore_state
 3513 002c FFF7FEFF 		bl	__stack_chk_fail
 3514              	.LVL334:
 3515              	.L328:
 3516              		.align	2
 3517              	.L327:
 3518 0030 00000000 		.word	__stack_chk_guard
 3519              		.cfi_endproc
 3520              	.LFE279:
 3521              		.size	parameter_vector_declare, .-parameter_vector_declare
 3522              		.section	.text.parameter_vector_declare_with_default,"ax",%progbits
 3523              		.align	1
 3524              		.p2align 4,,15
 3525              		.global	parameter_vector_declare_with_default
 3526              		.syntax unified
 3527              		.thumb
 3528              		.thumb_func
 3529              		.fpu fpv4-sp-d16
 3530              		.type	parameter_vector_declare_with_default, %function
 3531              	parameter_vector_declare_with_default:
 3532              	.LFB280:
 3533              		.loc 1 393 0
 3534              		.cfi_startproc
ARM GAS  /var/folders/d2/nstgp4h54kz7g1l847x_b8wc0000gn/T//ccW13lHv.s 			page 63


 3535              		@ args = 4, pretend = 0, frame = 8
 3536              		@ frame_needed = 0, uses_anonymous_args = 0
 3537              	.LVL335:
 3538 0000 F0B5     		push	{r4, r5, r6, r7, lr}
 3539              		.cfi_def_cfa_offset 20
 3540              		.cfi_offset 4, -20
 3541              		.cfi_offset 5, -16
 3542              		.cfi_offset 6, -12
 3543              		.cfi_offset 7, -8
 3544              		.cfi_offset 14, -4
 3545 0002 83B0     		sub	sp, sp, #12
 3546              		.cfi_def_cfa_offset 32
 3547              		.loc 1 393 0
 3548 0004 0B4D     		ldr	r5, .L334
 3549 0006 BDF82060 		ldrh	r6, [sp, #32]
 3550 000a 2C68     		ldr	r4, [r5]
 3551              	.LBB606:
 3552              	.LBB607:
 3553              		.loc 1 383 0
 3554 000c 0361     		str	r3, [r0, #16]
 3555              		.loc 1 382 0
 3556 000e 0527     		movs	r7, #5
 3557 0010 8773     		strb	r7, [r0, #14]
 3558              		.loc 1 384 0
 3559 0012 C682     		strh	r6, [r0, #22]	@ movhi
 3560              	.LBE607:
 3561              	.LBE606:
 3562              		.loc 1 393 0
 3563 0014 0194     		str	r4, [sp, #4]
 3564 0016 0446     		mov	r4, r0
 3565              	.LVL336:
 3566              	.LBB609:
 3567              	.LBB608:
 3568              		.loc 1 385 0
 3569 0018 FFF7FEFF 		bl	_parameter_declare
 3570              	.LVL337:
 3571              	.LBE608:
 3572              	.LBE609:
 3573              		.loc 1 395 0
 3574 001c 019A     		ldr	r2, [sp, #4]
 3575 001e 2B68     		ldr	r3, [r5]
 3576 0020 9A42     		cmp	r2, r3
 3577 0022 05D1     		bne	.L333
 3578 0024 2046     		mov	r0, r4
 3579              		.loc 1 396 0
 3580 0026 03B0     		add	sp, sp, #12
 3581              		.cfi_remember_state
 3582              		.cfi_def_cfa_offset 20
 3583              		@ sp needed
 3584 0028 BDE8F040 		pop	{r4, r5, r6, r7, lr}
 3585              		.cfi_restore 14
 3586              		.cfi_restore 7
 3587              		.cfi_restore 6
 3588              		.cfi_restore 5
 3589              		.cfi_restore 4
 3590              		.cfi_def_cfa_offset 0
 3591              	.LVL338:
ARM GAS  /var/folders/d2/nstgp4h54kz7g1l847x_b8wc0000gn/T//ccW13lHv.s 			page 64


 3592              		.loc 1 395 0
 3593 002c FFF7FEBF 		b	_parameter_changed_set
 3594              	.LVL339:
 3595              	.L333:
 3596              		.cfi_restore_state
 3597 0030 FFF7FEFF 		bl	__stack_chk_fail
 3598              	.LVL340:
 3599              	.L335:
 3600              		.align	2
 3601              	.L334:
 3602 0034 00000000 		.word	__stack_chk_guard
 3603              		.cfi_endproc
 3604              	.LFE280:
 3605              		.size	parameter_vector_declare_with_default, .-parameter_vector_declare_with_default
 3606              		.section	.text.parameter_vector_dim,"ax",%progbits
 3607              		.align	1
 3608              		.p2align 4,,15
 3609              		.global	parameter_vector_dim
 3610              		.syntax unified
 3611              		.thumb
 3612              		.thumb_func
 3613              		.fpu fpv4-sp-d16
 3614              		.type	parameter_vector_dim, %function
 3615              	parameter_vector_dim:
 3616              	.LFB281:
 3617              		.loc 1 399 0
 3618              		.cfi_startproc
 3619              		@ args = 0, pretend = 0, frame = 8
 3620              		@ frame_needed = 0, uses_anonymous_args = 0
 3621              	.LVL341:
 3622 0000 30B5     		push	{r4, r5, lr}
 3623              		.cfi_def_cfa_offset 12
 3624              		.cfi_offset 4, -12
 3625              		.cfi_offset 5, -8
 3626              		.cfi_offset 14, -4
 3627 0002 0A4D     		ldr	r5, .L344
 3628              		.loc 1 400 0
 3629 0004 837B     		ldrb	r3, [r0, #14]	@ zero_extendqisi2
 3630              		.loc 1 399 0
 3631 0006 2A68     		ldr	r2, [r5]
 3632 0008 83B0     		sub	sp, sp, #12
 3633              		.cfi_def_cfa_offset 24
 3634              		.loc 1 400 0
 3635 000a 052B     		cmp	r3, #5
 3636              		.loc 1 399 0
 3637 000c 0446     		mov	r4, r0
 3638 000e 0192     		str	r2, [sp, #4]
 3639              		.loc 1 400 0
 3640 0010 02D0     		beq	.L337
 3641              		.loc 1 400 0 is_stmt 0 discriminator 2
 3642 0012 0748     		ldr	r0, .L344+4
 3643              	.LVL342:
 3644 0014 FFF7FEFF 		bl	chSysHalt
 3645              	.LVL343:
 3646              	.L337:
 3647              		.loc 1 402 0 is_stmt 1
 3648 0018 019A     		ldr	r2, [sp, #4]
ARM GAS  /var/folders/d2/nstgp4h54kz7g1l847x_b8wc0000gn/T//ccW13lHv.s 			page 65


 3649 001a 2B68     		ldr	r3, [r5]
 3650 001c E08A     		ldrh	r0, [r4, #22]
 3651 001e 9A42     		cmp	r2, r3
 3652 0020 01D1     		bne	.L343
 3653 0022 03B0     		add	sp, sp, #12
 3654              		.cfi_remember_state
 3655              		.cfi_def_cfa_offset 12
 3656              		@ sp needed
 3657 0024 30BD     		pop	{r4, r5, pc}
 3658              	.LVL344:
 3659              	.L343:
 3660              		.cfi_restore_state
 3661 0026 FFF7FEFF 		bl	__stack_chk_fail
 3662              	.LVL345:
 3663              	.L345:
 3664 002a 00BF     		.align	2
 3665              	.L344:
 3666 002c 00000000 		.word	__stack_chk_guard
 3667 0030 00000000 		.word	.LANCHOR7
 3668              		.cfi_endproc
 3669              	.LFE281:
 3670              		.size	parameter_vector_dim, .-parameter_vector_dim
 3671              		.section	.text.parameter_vector_read,"ax",%progbits
 3672              		.align	1
 3673              		.p2align 4,,15
 3674              		.global	parameter_vector_read
 3675              		.syntax unified
 3676              		.thumb
 3677              		.thumb_func
 3678              		.fpu fpv4-sp-d16
 3679              		.type	parameter_vector_read, %function
 3680              	parameter_vector_read:
 3681              	.LFB283:
 3682              		.loc 1 411 0
 3683              		.cfi_startproc
 3684              		@ args = 0, pretend = 0, frame = 8
 3685              		@ frame_needed = 0, uses_anonymous_args = 0
 3686              	.LVL346:
 3687 0000 70B5     		push	{r4, r5, r6, lr}
 3688              		.cfi_def_cfa_offset 16
 3689              		.cfi_offset 4, -16
 3690              		.cfi_offset 5, -12
 3691              		.cfi_offset 6, -8
 3692              		.cfi_offset 14, -4
 3693 0002 214E     		ldr	r6, .L364
 3694              		.loc 1 412 0
 3695 0004 837B     		ldrb	r3, [r0, #14]	@ zero_extendqisi2
 3696              		.loc 1 411 0
 3697 0006 3268     		ldr	r2, [r6]
 3698 0008 82B0     		sub	sp, sp, #8
 3699              		.cfi_def_cfa_offset 24
 3700              		.loc 1 412 0
 3701 000a 052B     		cmp	r3, #5
 3702              		.loc 1 411 0
 3703 000c 0446     		mov	r4, r0
 3704 000e 0192     		str	r2, [sp, #4]
 3705 0010 0D46     		mov	r5, r1
ARM GAS  /var/folders/d2/nstgp4h54kz7g1l847x_b8wc0000gn/T//ccW13lHv.s 			page 66


 3706              		.loc 1 412 0
 3707 0012 02D0     		beq	.L347
 3708              		.loc 1 412 0 is_stmt 0 discriminator 2
 3709 0014 1D48     		ldr	r0, .L364+4
 3710              	.LVL347:
 3711 0016 FFF7FEFF 		bl	chSysHalt
 3712              	.LVL348:
 3713              	.L347:
 3714              	.LBB620:
 3715              	.LBB621:
 3716              	.LBB622:
 3717              	.LBB623:
 3718              	.LBB624:
 3719              		.loc 2 546 0 is_stmt 1
 3720 001a 2023     		movs	r3, #32
 3721              		.syntax unified
 3722              	@ 546 "../e-puck2_main-processor/ChibiOS//os/ext/CMSIS/include/core_cmFunc.h" 1
 3723 001c 83F31188 		MSR basepri, r3
 3724              	@ 0 "" 2
 3725              	.LVL349:
 3726              		.thumb
 3727              		.syntax unified
 3728              	.LBE624:
 3729              	.LBE623:
 3730              	.LBE622:
 3731              		.loc 3 349 0
 3732 0020 FFF7FEFF 		bl	_stats_start_measure_crit_thd
 3733              	.LVL350:
 3734              		.loc 3 350 0
 3735 0024 FFF7FEFF 		bl	_dbg_check_lock
 3736              	.LVL351:
 3737              	.LBE621:
 3738              	.LBE620:
 3739              		.loc 1 414 0
 3740 0028 637B     		ldrb	r3, [r4, #13]	@ zero_extendqisi2
 3741 002a 3BB3     		cbz	r3, .L361
 3742              	.L348:
 3743              	.LVL352:
 3744              		.loc 1 416 0 discriminator 1
 3745 002c E38A     		ldrh	r3, [r4, #22]
 3746 002e 5BB1     		cbz	r3, .L349
 3747 0030 2946     		mov	r1, r5
 3748              		.loc 1 416 0 is_stmt 0
 3749 0032 0023     		movs	r3, #0
 3750              	.LVL353:
 3751              	.L350:
 3752              		.loc 1 417 0 is_stmt 1 discriminator 3
 3753 0034 2269     		ldr	r2, [r4, #16]
 3754 0036 02EB8302 		add	r2, r2, r3, lsl #2
 3755              		.loc 1 416 0 discriminator 3
 3756 003a 0133     		adds	r3, r3, #1
 3757              	.LVL354:
 3758              		.loc 1 417 0 discriminator 3
 3759 003c 1268     		ldr	r2, [r2]	@ float
 3760 003e 41F8042B 		str	r2, [r1], #4	@ float
 3761              		.loc 1 416 0 discriminator 3
 3762 0042 E28A     		ldrh	r2, [r4, #22]
ARM GAS  /var/folders/d2/nstgp4h54kz7g1l847x_b8wc0000gn/T//ccW13lHv.s 			page 67


 3763 0044 9A42     		cmp	r2, r3
 3764 0046 F5DC     		bgt	.L350
 3765              	.LVL355:
 3766              	.L349:
 3767              	.LBB625:
 3768              	.LBB626:
 3769              		.loc 3 360 0
 3770 0048 FFF7FEFF 		bl	_dbg_check_unlock
 3771              	.LVL356:
 3772              		.loc 3 361 0
 3773 004c FFF7FEFF 		bl	_stats_stop_measure_crit_thd
 3774              	.LVL357:
 3775              		.loc 3 367 0
 3776 0050 0F4B     		ldr	r3, .L364+8
 3777 0052 1A68     		ldr	r2, [r3]
 3778 0054 9A42     		cmp	r2, r3
 3779 0056 04D0     		beq	.L351
 3780 0058 9969     		ldr	r1, [r3, #24]
 3781 005a 9368     		ldr	r3, [r2, #8]
 3782 005c 8A68     		ldr	r2, [r1, #8]
 3783 005e 9A42     		cmp	r2, r3
 3784 0060 08D3     		bcc	.L362
 3785              	.L351:
 3786              	.LVL358:
 3787              	.LBB627:
 3788              	.LBB628:
 3789              	.LBB629:
 3790              		.loc 2 546 0
 3791 0062 0023     		movs	r3, #0
 3792              		.syntax unified
 3793              	@ 546 "../e-puck2_main-processor/ChibiOS//os/ext/CMSIS/include/core_cmFunc.h" 1
 3794 0064 83F31188 		MSR basepri, r3
 3795              	@ 0 "" 2
 3796              	.LVL359:
 3797              		.thumb
 3798              		.syntax unified
 3799              	.LBE629:
 3800              	.LBE628:
 3801              	.LBE627:
 3802              	.LBE626:
 3803              	.LBE625:
 3804              		.loc 1 420 0
 3805 0068 019A     		ldr	r2, [sp, #4]
 3806 006a 3368     		ldr	r3, [r6]
 3807 006c 9A42     		cmp	r2, r3
 3808 006e 09D1     		bne	.L363
 3809 0070 02B0     		add	sp, sp, #8
 3810              		.cfi_remember_state
 3811              		.cfi_def_cfa_offset 16
 3812              		@ sp needed
 3813 0072 70BD     		pop	{r4, r5, r6, pc}
 3814              	.LVL360:
 3815              	.L362:
 3816              		.cfi_restore_state
 3817              	.LBB631:
 3818              	.LBB630:
 3819              		.loc 3 367 0
ARM GAS  /var/folders/d2/nstgp4h54kz7g1l847x_b8wc0000gn/T//ccW13lHv.s 			page 68


 3820 0074 0748     		ldr	r0, .L364+12
 3821 0076 FFF7FEFF 		bl	chSysHalt
 3822              	.LVL361:
 3823 007a F2E7     		b	.L351
 3824              	.L361:
 3825              	.LBE630:
 3826              	.LBE631:
 3827              		.loc 1 414 0 discriminator 2
 3828 007c 0348     		ldr	r0, .L364+4
 3829 007e FFF7FEFF 		bl	chSysHalt
 3830              	.LVL362:
 3831 0082 D3E7     		b	.L348
 3832              	.L363:
 3833              		.loc 1 420 0
 3834 0084 FFF7FEFF 		bl	__stack_chk_fail
 3835              	.LVL363:
 3836              	.L365:
 3837              		.align	2
 3838              	.L364:
 3839 0088 00000000 		.word	__stack_chk_guard
 3840 008c 00000000 		.word	.LANCHOR8
 3841 0090 00000000 		.word	ch
 3842 0094 00000000 		.word	.LANCHOR0
 3843              		.cfi_endproc
 3844              	.LFE283:
 3845              		.size	parameter_vector_read, .-parameter_vector_read
 3846              		.section	.text.parameter_vector_get,"ax",%progbits
 3847              		.align	1
 3848              		.p2align 4,,15
 3849              		.global	parameter_vector_get
 3850              		.syntax unified
 3851              		.thumb
 3852              		.thumb_func
 3853              		.fpu fpv4-sp-d16
 3854              		.type	parameter_vector_get, %function
 3855              	parameter_vector_get:
 3856              	.LFB282:
 3857              		.loc 1 405 0
 3858              		.cfi_startproc
 3859              		@ args = 0, pretend = 0, frame = 8
 3860              		@ frame_needed = 0, uses_anonymous_args = 0
 3861              	.LVL364:
 3862 0000 70B5     		push	{r4, r5, r6, lr}
 3863              		.cfi_def_cfa_offset 16
 3864              		.cfi_offset 4, -16
 3865              		.cfi_offset 5, -12
 3866              		.cfi_offset 6, -8
 3867              		.cfi_offset 14, -4
 3868 0002 0A4C     		ldr	r4, .L371
 3869 0004 82B0     		sub	sp, sp, #8
 3870              		.cfi_def_cfa_offset 24
 3871              		.loc 1 405 0
 3872 0006 2368     		ldr	r3, [r4]
 3873 0008 0193     		str	r3, [sp, #4]
 3874 000a 0E46     		mov	r6, r1
 3875 000c 0546     		mov	r5, r0
 3876              		.loc 1 406 0
ARM GAS  /var/folders/d2/nstgp4h54kz7g1l847x_b8wc0000gn/T//ccW13lHv.s 			page 69


 3877 000e FFF7FEFF 		bl	_parameter_changed_clear
 3878              	.LVL365:
 3879              		.loc 1 407 0
 3880 0012 019A     		ldr	r2, [sp, #4]
 3881 0014 2368     		ldr	r3, [r4]
 3882 0016 9A42     		cmp	r2, r3
 3883 0018 06D1     		bne	.L370
 3884 001a 3146     		mov	r1, r6
 3885 001c 2846     		mov	r0, r5
 3886              		.loc 1 408 0
 3887 001e 02B0     		add	sp, sp, #8
 3888              		.cfi_remember_state
 3889              		.cfi_def_cfa_offset 16
 3890              		@ sp needed
 3891 0020 BDE87040 		pop	{r4, r5, r6, lr}
 3892              		.cfi_restore 14
 3893              		.cfi_restore 6
 3894              		.cfi_restore 5
 3895              		.cfi_restore 4
 3896              		.cfi_def_cfa_offset 0
 3897              	.LVL366:
 3898              		.loc 1 407 0
 3899 0024 FFF7FEBF 		b	parameter_vector_read
 3900              	.LVL367:
 3901              	.L370:
 3902              		.cfi_restore_state
 3903 0028 FFF7FEFF 		bl	__stack_chk_fail
 3904              	.LVL368:
 3905              	.L372:
 3906              		.align	2
 3907              	.L371:
 3908 002c 00000000 		.word	__stack_chk_guard
 3909              		.cfi_endproc
 3910              	.LFE282:
 3911              		.size	parameter_vector_get, .-parameter_vector_get
 3912              		.section	.text.parameter_vector_set,"ax",%progbits
 3913              		.align	1
 3914              		.p2align 4,,15
 3915              		.global	parameter_vector_set
 3916              		.syntax unified
 3917              		.thumb
 3918              		.thumb_func
 3919              		.fpu fpv4-sp-d16
 3920              		.type	parameter_vector_set, %function
 3921              	parameter_vector_set:
 3922              	.LFB284:
 3923              		.loc 1 423 0
 3924              		.cfi_startproc
 3925              		@ args = 0, pretend = 0, frame = 8
 3926              		@ frame_needed = 0, uses_anonymous_args = 0
 3927              	.LVL369:
 3928 0000 70B5     		push	{r4, r5, r6, lr}
 3929              		.cfi_def_cfa_offset 16
 3930              		.cfi_offset 4, -16
 3931              		.cfi_offset 5, -12
 3932              		.cfi_offset 6, -8
 3933              		.cfi_offset 14, -4
ARM GAS  /var/folders/d2/nstgp4h54kz7g1l847x_b8wc0000gn/T//ccW13lHv.s 			page 70


 3934 0002 204E     		ldr	r6, .L390
 3935              		.loc 1 424 0
 3936 0004 837B     		ldrb	r3, [r0, #14]	@ zero_extendqisi2
 3937              		.loc 1 423 0
 3938 0006 3268     		ldr	r2, [r6]
 3939 0008 82B0     		sub	sp, sp, #8
 3940              		.cfi_def_cfa_offset 24
 3941              		.loc 1 424 0
 3942 000a 052B     		cmp	r3, #5
 3943              		.loc 1 423 0
 3944 000c 0446     		mov	r4, r0
 3945 000e 0192     		str	r2, [sp, #4]
 3946 0010 0D46     		mov	r5, r1
 3947              		.loc 1 424 0
 3948 0012 02D0     		beq	.L374
 3949              		.loc 1 424 0 is_stmt 0 discriminator 2
 3950 0014 1C48     		ldr	r0, .L390+4
 3951              	.LVL370:
 3952 0016 FFF7FEFF 		bl	chSysHalt
 3953              	.LVL371:
 3954              	.L374:
 3955              	.LBB642:
 3956              	.LBB643:
 3957              	.LBB644:
 3958              	.LBB645:
 3959              	.LBB646:
 3960              		.loc 2 546 0 is_stmt 1
 3961 001a 2023     		movs	r3, #32
 3962              		.syntax unified
 3963              	@ 546 "../e-puck2_main-processor/ChibiOS//os/ext/CMSIS/include/core_cmFunc.h" 1
 3964 001c 83F31188 		MSR basepri, r3
 3965              	@ 0 "" 2
 3966              	.LVL372:
 3967              		.thumb
 3968              		.syntax unified
 3969              	.LBE646:
 3970              	.LBE645:
 3971              	.LBE644:
 3972              		.loc 3 349 0
 3973 0020 FFF7FEFF 		bl	_stats_start_measure_crit_thd
 3974              	.LVL373:
 3975              		.loc 3 350 0
 3976 0024 FFF7FEFF 		bl	_dbg_check_lock
 3977              	.LVL374:
 3978              	.LBE643:
 3979              	.LBE642:
 3980              		.loc 1 427 0
 3981 0028 E38A     		ldrh	r3, [r4, #22]
 3982 002a 5BB1     		cbz	r3, .L375
 3983 002c 2946     		mov	r1, r5
 3984 002e 0023     		movs	r3, #0
 3985              	.LVL375:
 3986              	.L376:
 3987              		.loc 1 428 0 discriminator 3
 3988 0030 2269     		ldr	r2, [r4, #16]
 3989 0032 51F8040B 		ldr	r0, [r1], #4	@ float
 3990 0036 02EB8302 		add	r2, r2, r3, lsl #2
ARM GAS  /var/folders/d2/nstgp4h54kz7g1l847x_b8wc0000gn/T//ccW13lHv.s 			page 71


 3991              		.loc 1 427 0 discriminator 3
 3992 003a 0133     		adds	r3, r3, #1
 3993              	.LVL376:
 3994              		.loc 1 428 0 discriminator 3
 3995 003c 1060     		str	r0, [r2]	@ float
 3996              		.loc 1 427 0 discriminator 3
 3997 003e E28A     		ldrh	r2, [r4, #22]
 3998 0040 9A42     		cmp	r2, r3
 3999 0042 F5DC     		bgt	.L376
 4000              	.LVL377:
 4001              	.L375:
 4002              	.LBB647:
 4003              	.LBB648:
 4004              		.loc 3 360 0
 4005 0044 FFF7FEFF 		bl	_dbg_check_unlock
 4006              	.LVL378:
 4007              		.loc 3 361 0
 4008 0048 FFF7FEFF 		bl	_stats_stop_measure_crit_thd
 4009              	.LVL379:
 4010              		.loc 3 367 0
 4011 004c 0F4B     		ldr	r3, .L390+8
 4012 004e 1A68     		ldr	r2, [r3]
 4013 0050 9A42     		cmp	r2, r3
 4014 0052 04D0     		beq	.L377
 4015 0054 9969     		ldr	r1, [r3, #24]
 4016 0056 9368     		ldr	r3, [r2, #8]
 4017 0058 8A68     		ldr	r2, [r1, #8]
 4018 005a 9A42     		cmp	r2, r3
 4019 005c 0CD3     		bcc	.L388
 4020              	.L377:
 4021              	.LVL380:
 4022              	.LBB649:
 4023              	.LBB650:
 4024              	.LBB651:
 4025              		.loc 2 546 0
 4026 005e 0023     		movs	r3, #0
 4027              		.syntax unified
 4028              	@ 546 "../e-puck2_main-processor/ChibiOS//os/ext/CMSIS/include/core_cmFunc.h" 1
 4029 0060 83F31188 		MSR basepri, r3
 4030              	@ 0 "" 2
 4031              	.LVL381:
 4032              		.thumb
 4033              		.syntax unified
 4034              	.LBE651:
 4035              	.LBE650:
 4036              	.LBE649:
 4037              	.LBE648:
 4038              	.LBE647:
 4039              		.loc 1 431 0
 4040 0064 019A     		ldr	r2, [sp, #4]
 4041 0066 3368     		ldr	r3, [r6]
 4042 0068 9A42     		cmp	r2, r3
 4043 006a 09D1     		bne	.L389
 4044 006c 2046     		mov	r0, r4
 4045              		.loc 1 432 0
 4046 006e 02B0     		add	sp, sp, #8
 4047              		.cfi_remember_state
ARM GAS  /var/folders/d2/nstgp4h54kz7g1l847x_b8wc0000gn/T//ccW13lHv.s 			page 72


 4048              		.cfi_def_cfa_offset 16
 4049              		@ sp needed
 4050 0070 BDE87040 		pop	{r4, r5, r6, lr}
 4051              		.cfi_restore 14
 4052              		.cfi_restore 6
 4053              		.cfi_restore 5
 4054              		.cfi_restore 4
 4055              		.cfi_def_cfa_offset 0
 4056              	.LVL382:
 4057              		.loc 1 431 0
 4058 0074 FFF7FEBF 		b	_parameter_changed_set
 4059              	.LVL383:
 4060              	.L388:
 4061              		.cfi_restore_state
 4062              	.LBB653:
 4063              	.LBB652:
 4064              		.loc 3 367 0
 4065 0078 0548     		ldr	r0, .L390+12
 4066 007a FFF7FEFF 		bl	chSysHalt
 4067              	.LVL384:
 4068 007e EEE7     		b	.L377
 4069              	.L389:
 4070              	.LBE652:
 4071              	.LBE653:
 4072              		.loc 1 431 0
 4073 0080 FFF7FEFF 		bl	__stack_chk_fail
 4074              	.LVL385:
 4075              	.L391:
 4076              		.align	2
 4077              	.L390:
 4078 0084 00000000 		.word	__stack_chk_guard
 4079 0088 00000000 		.word	.LANCHOR9
 4080 008c 00000000 		.word	ch
 4081 0090 00000000 		.word	.LANCHOR0
 4082              		.cfi_endproc
 4083              	.LFE284:
 4084              		.size	parameter_vector_set, .-parameter_vector_set
 4085              		.section	.text.parameter_variable_vector_declare,"ax",%progbits
 4086              		.align	1
 4087              		.p2align 4,,15
 4088              		.global	parameter_variable_vector_declare
 4089              		.syntax unified
 4090              		.thumb
 4091              		.thumb_func
 4092              		.fpu fpv4-sp-d16
 4093              		.type	parameter_variable_vector_declare, %function
 4094              	parameter_variable_vector_declare:
 4095              	.LFB285:
 4096              		.loc 1 444 0
 4097              		.cfi_startproc
 4098              		@ args = 4, pretend = 0, frame = 8
 4099              		@ frame_needed = 0, uses_anonymous_args = 0
 4100              	.LVL386:
 4101 0000 F0B5     		push	{r4, r5, r6, r7, lr}
 4102              		.cfi_def_cfa_offset 20
 4103              		.cfi_offset 4, -20
 4104              		.cfi_offset 5, -16
ARM GAS  /var/folders/d2/nstgp4h54kz7g1l847x_b8wc0000gn/T//ccW13lHv.s 			page 73


 4105              		.cfi_offset 6, -12
 4106              		.cfi_offset 7, -8
 4107              		.cfi_offset 14, -4
 4108 0002 0B4C     		ldr	r4, .L397
 4109              		.loc 1 446 0
 4110 0004 0361     		str	r3, [r0, #16]
 4111              		.loc 1 444 0
 4112 0006 83B0     		sub	sp, sp, #12
 4113              		.cfi_def_cfa_offset 32
 4114              		.loc 1 444 0
 4115 0008 2568     		ldr	r5, [r4]
 4116 000a 0195     		str	r5, [sp, #4]
 4117              		.loc 1 448 0
 4118 000c 019E     		ldr	r6, [sp, #4]
 4119 000e 2568     		ldr	r5, [r4]
 4120              		.loc 1 444 0
 4121 0010 BDF82070 		ldrh	r7, [sp, #32]
 4122              		.loc 1 447 0
 4123 0014 8782     		strh	r7, [r0, #20]	@ movhi
 4124              		.loc 1 445 0
 4125 0016 4FF0060C 		mov	ip, #6
 4126              		.loc 1 448 0
 4127 001a AE42     		cmp	r6, r5
 4128              		.loc 1 445 0
 4129 001c 80F80EC0 		strb	ip, [r0, #14]
 4130              		.loc 1 448 0
 4131 0020 04D1     		bne	.L396
 4132              		.loc 1 449 0
 4133 0022 03B0     		add	sp, sp, #12
 4134              		.cfi_remember_state
 4135              		.cfi_def_cfa_offset 20
 4136              		@ sp needed
 4137 0024 BDE8F040 		pop	{r4, r5, r6, r7, lr}
 4138              		.cfi_restore 14
 4139              		.cfi_restore 7
 4140              		.cfi_restore 6
 4141              		.cfi_restore 5
 4142              		.cfi_restore 4
 4143              		.cfi_def_cfa_offset 0
 4144              	.LVL387:
 4145              		.loc 1 448 0
 4146 0028 FFF7FEBF 		b	_parameter_declare
 4147              	.LVL388:
 4148              	.L396:
 4149              		.cfi_restore_state
 4150 002c FFF7FEFF 		bl	__stack_chk_fail
 4151              	.LVL389:
 4152              	.L398:
 4153              		.align	2
 4154              	.L397:
 4155 0030 00000000 		.word	__stack_chk_guard
 4156              		.cfi_endproc
 4157              	.LFE285:
 4158              		.size	parameter_variable_vector_declare, .-parameter_variable_vector_declare
 4159              		.section	.text.parameter_variable_vector_declare_with_default,"ax",%progbits
 4160              		.align	1
 4161              		.p2align 4,,15
ARM GAS  /var/folders/d2/nstgp4h54kz7g1l847x_b8wc0000gn/T//ccW13lHv.s 			page 74


 4162              		.global	parameter_variable_vector_declare_with_default
 4163              		.syntax unified
 4164              		.thumb
 4165              		.thumb_func
 4166              		.fpu fpv4-sp-d16
 4167              		.type	parameter_variable_vector_declare_with_default, %function
 4168              	parameter_variable_vector_declare_with_default:
 4169              	.LFB286:
 4170              		.loc 1 457 0
 4171              		.cfi_startproc
 4172              		@ args = 8, pretend = 0, frame = 8
 4173              		@ frame_needed = 0, uses_anonymous_args = 0
 4174              	.LVL390:
 4175 0000 F0B5     		push	{r4, r5, r6, r7, lr}
 4176              		.cfi_def_cfa_offset 20
 4177              		.cfi_offset 4, -20
 4178              		.cfi_offset 5, -16
 4179              		.cfi_offset 6, -12
 4180              		.cfi_offset 7, -8
 4181              		.cfi_offset 14, -4
 4182 0002 83B0     		sub	sp, sp, #12
 4183              		.cfi_def_cfa_offset 32
 4184              		.loc 1 457 0
 4185 0004 104E     		ldr	r6, .L405
 4186 0006 BDF82070 		ldrh	r7, [sp, #32]
 4187 000a BDF82450 		ldrh	r5, [sp, #36]
 4188 000e 3468     		ldr	r4, [r6]
 4189              	.LBB654:
 4190              	.LBB655:
 4191              		.loc 1 446 0
 4192 0010 0361     		str	r3, [r0, #16]
 4193              		.loc 1 445 0
 4194 0012 4FF0060C 		mov	ip, #6
 4195 0016 80F80EC0 		strb	ip, [r0, #14]
 4196              		.loc 1 447 0
 4197 001a 8782     		strh	r7, [r0, #20]	@ movhi
 4198              	.LBE655:
 4199              	.LBE654:
 4200              		.loc 1 457 0
 4201 001c 0194     		str	r4, [sp, #4]
 4202 001e 0446     		mov	r4, r0
 4203              	.LVL391:
 4204              	.LBB657:
 4205              	.LBB656:
 4206              		.loc 1 448 0
 4207 0020 FFF7FEFF 		bl	_parameter_declare
 4208              	.LVL392:
 4209              	.LBE656:
 4210              	.LBE657:
 4211              		.loc 1 459 0
 4212 0024 AF42     		cmp	r7, r5
 4213 0026 02D2     		bcs	.L400
 4214              		.loc 1 459 0 is_stmt 0 discriminator 2
 4215 0028 0848     		ldr	r0, .L405+4
 4216 002a FFF7FEFF 		bl	chSysHalt
 4217              	.LVL393:
 4218              	.L400:
ARM GAS  /var/folders/d2/nstgp4h54kz7g1l847x_b8wc0000gn/T//ccW13lHv.s 			page 75


 4219              		.loc 1 461 0 is_stmt 1
 4220 002e 019A     		ldr	r2, [sp, #4]
 4221 0030 3368     		ldr	r3, [r6]
 4222              		.loc 1 460 0
 4223 0032 E582     		strh	r5, [r4, #22]	@ movhi
 4224              		.loc 1 461 0
 4225 0034 9A42     		cmp	r2, r3
 4226 0036 05D1     		bne	.L404
 4227 0038 2046     		mov	r0, r4
 4228              		.loc 1 462 0
 4229 003a 03B0     		add	sp, sp, #12
 4230              		.cfi_remember_state
 4231              		.cfi_def_cfa_offset 20
 4232              		@ sp needed
 4233 003c BDE8F040 		pop	{r4, r5, r6, r7, lr}
 4234              		.cfi_restore 14
 4235              		.cfi_restore 7
 4236              		.cfi_restore 6
 4237              		.cfi_restore 5
 4238              		.cfi_restore 4
 4239              		.cfi_def_cfa_offset 0
 4240              	.LVL394:
 4241              		.loc 1 461 0
 4242 0040 FFF7FEBF 		b	_parameter_changed_set
 4243              	.LVL395:
 4244              	.L404:
 4245              		.cfi_restore_state
 4246 0044 FFF7FEFF 		bl	__stack_chk_fail
 4247              	.LVL396:
 4248              	.L406:
 4249              		.align	2
 4250              	.L405:
 4251 0048 00000000 		.word	__stack_chk_guard
 4252 004c 00000000 		.word	.LANCHOR10
 4253              		.cfi_endproc
 4254              	.LFE286:
 4255              		.size	parameter_variable_vector_declare_with_default, .-parameter_variable_vector_declare_with_def
 4256              		.section	.text.parameter_variable_vector_max_dim,"ax",%progbits
 4257              		.align	1
 4258              		.p2align 4,,15
 4259              		.global	parameter_variable_vector_max_dim
 4260              		.syntax unified
 4261              		.thumb
 4262              		.thumb_func
 4263              		.fpu fpv4-sp-d16
 4264              		.type	parameter_variable_vector_max_dim, %function
 4265              	parameter_variable_vector_max_dim:
 4266              	.LFB287:
 4267              		.loc 1 465 0
 4268              		.cfi_startproc
 4269              		@ args = 0, pretend = 0, frame = 8
 4270              		@ frame_needed = 0, uses_anonymous_args = 0
 4271              	.LVL397:
 4272 0000 30B5     		push	{r4, r5, lr}
 4273              		.cfi_def_cfa_offset 12
 4274              		.cfi_offset 4, -12
 4275              		.cfi_offset 5, -8
ARM GAS  /var/folders/d2/nstgp4h54kz7g1l847x_b8wc0000gn/T//ccW13lHv.s 			page 76


 4276              		.cfi_offset 14, -4
 4277 0002 0A4D     		ldr	r5, .L415
 4278              		.loc 1 466 0
 4279 0004 837B     		ldrb	r3, [r0, #14]	@ zero_extendqisi2
 4280              		.loc 1 465 0
 4281 0006 2A68     		ldr	r2, [r5]
 4282 0008 83B0     		sub	sp, sp, #12
 4283              		.cfi_def_cfa_offset 24
 4284              		.loc 1 466 0
 4285 000a 062B     		cmp	r3, #6
 4286              		.loc 1 465 0
 4287 000c 0446     		mov	r4, r0
 4288 000e 0192     		str	r2, [sp, #4]
 4289              		.loc 1 466 0
 4290 0010 02D0     		beq	.L408
 4291              		.loc 1 466 0 is_stmt 0 discriminator 2
 4292 0012 0748     		ldr	r0, .L415+4
 4293              	.LVL398:
 4294 0014 FFF7FEFF 		bl	chSysHalt
 4295              	.LVL399:
 4296              	.L408:
 4297              		.loc 1 468 0 is_stmt 1
 4298 0018 019A     		ldr	r2, [sp, #4]
 4299 001a 2B68     		ldr	r3, [r5]
 4300 001c A08A     		ldrh	r0, [r4, #20]
 4301 001e 9A42     		cmp	r2, r3
 4302 0020 01D1     		bne	.L414
 4303 0022 03B0     		add	sp, sp, #12
 4304              		.cfi_remember_state
 4305              		.cfi_def_cfa_offset 12
 4306              		@ sp needed
 4307 0024 30BD     		pop	{r4, r5, pc}
 4308              	.LVL400:
 4309              	.L414:
 4310              		.cfi_restore_state
 4311 0026 FFF7FEFF 		bl	__stack_chk_fail
 4312              	.LVL401:
 4313              	.L416:
 4314 002a 00BF     		.align	2
 4315              	.L415:
 4316 002c 00000000 		.word	__stack_chk_guard
 4317 0030 00000000 		.word	.LANCHOR11
 4318              		.cfi_endproc
 4319              	.LFE287:
 4320              		.size	parameter_variable_vector_max_dim, .-parameter_variable_vector_max_dim
 4321              		.section	.text.parameter_variable_vector_read,"ax",%progbits
 4322              		.align	1
 4323              		.p2align 4,,15
 4324              		.global	parameter_variable_vector_read
 4325              		.syntax unified
 4326              		.thumb
 4327              		.thumb_func
 4328              		.fpu fpv4-sp-d16
 4329              		.type	parameter_variable_vector_read, %function
 4330              	parameter_variable_vector_read:
 4331              	.LFB289:
 4332              		.loc 1 477 0
ARM GAS  /var/folders/d2/nstgp4h54kz7g1l847x_b8wc0000gn/T//ccW13lHv.s 			page 77


 4333              		.cfi_startproc
 4334              		@ args = 0, pretend = 0, frame = 8
 4335              		@ frame_needed = 0, uses_anonymous_args = 0
 4336              	.LVL402:
 4337 0000 F0B5     		push	{r4, r5, r6, r7, lr}
 4338              		.cfi_def_cfa_offset 20
 4339              		.cfi_offset 4, -20
 4340              		.cfi_offset 5, -16
 4341              		.cfi_offset 6, -12
 4342              		.cfi_offset 7, -8
 4343              		.cfi_offset 14, -4
 4344 0002 224F     		ldr	r7, .L435
 4345              		.loc 1 478 0
 4346 0004 837B     		ldrb	r3, [r0, #14]	@ zero_extendqisi2
 4347              		.loc 1 477 0
 4348 0006 3A68     		ldr	r2, [r7]
 4349 0008 83B0     		sub	sp, sp, #12
 4350              		.cfi_def_cfa_offset 32
 4351              		.loc 1 478 0
 4352 000a 062B     		cmp	r3, #6
 4353              		.loc 1 477 0
 4354 000c 0446     		mov	r4, r0
 4355 000e 0192     		str	r2, [sp, #4]
 4356 0010 0E46     		mov	r6, r1
 4357              		.loc 1 478 0
 4358 0012 02D0     		beq	.L418
 4359              		.loc 1 478 0 is_stmt 0 discriminator 2
 4360 0014 1E48     		ldr	r0, .L435+4
 4361              	.LVL403:
 4362 0016 FFF7FEFF 		bl	chSysHalt
 4363              	.LVL404:
 4364              	.L418:
 4365              	.LBB668:
 4366              	.LBB669:
 4367              	.LBB670:
 4368              	.LBB671:
 4369              	.LBB672:
 4370              		.loc 2 546 0 is_stmt 1
 4371 001a 2023     		movs	r3, #32
 4372              		.syntax unified
 4373              	@ 546 "../e-puck2_main-processor/ChibiOS//os/ext/CMSIS/include/core_cmFunc.h" 1
 4374 001c 83F31188 		MSR basepri, r3
 4375              	@ 0 "" 2
 4376              	.LVL405:
 4377              		.thumb
 4378              		.syntax unified
 4379              	.LBE672:
 4380              	.LBE671:
 4381              	.LBE670:
 4382              		.loc 3 349 0
 4383 0020 FFF7FEFF 		bl	_stats_start_measure_crit_thd
 4384              	.LVL406:
 4385              		.loc 3 350 0
 4386 0024 FFF7FEFF 		bl	_dbg_check_lock
 4387              	.LVL407:
 4388              	.LBE669:
 4389              	.LBE668:
ARM GAS  /var/folders/d2/nstgp4h54kz7g1l847x_b8wc0000gn/T//ccW13lHv.s 			page 78


 4390              		.loc 1 480 0
 4391 0028 637B     		ldrb	r3, [r4, #13]	@ zero_extendqisi2
 4392 002a 43B3     		cbz	r3, .L432
 4393              	.L419:
 4394              	.LVL408:
 4395              		.loc 1 482 0 discriminator 1
 4396 002c E58A     		ldrh	r5, [r4, #22]
 4397 002e 5DB1     		cbz	r5, .L420
 4398 0030 3146     		mov	r1, r6
 4399              		.loc 1 482 0 is_stmt 0
 4400 0032 0023     		movs	r3, #0
 4401              	.LVL409:
 4402              	.L421:
 4403              		.loc 1 483 0 is_stmt 1 discriminator 3
 4404 0034 2269     		ldr	r2, [r4, #16]
 4405 0036 02EB8302 		add	r2, r2, r3, lsl #2
 4406              		.loc 1 482 0 discriminator 3
 4407 003a 0133     		adds	r3, r3, #1
 4408              	.LVL410:
 4409              		.loc 1 483 0 discriminator 3
 4410 003c 1268     		ldr	r2, [r2]	@ float
 4411 003e 41F8042B 		str	r2, [r1], #4	@ float
 4412              		.loc 1 482 0 discriminator 3
 4413 0042 E58A     		ldrh	r5, [r4, #22]
 4414 0044 9D42     		cmp	r5, r3
 4415 0046 F5DC     		bgt	.L421
 4416              	.LVL411:
 4417              	.L420:
 4418              	.LBB673:
 4419              	.LBB674:
 4420              		.loc 3 360 0
 4421 0048 FFF7FEFF 		bl	_dbg_check_unlock
 4422              	.LVL412:
 4423              		.loc 3 361 0
 4424 004c FFF7FEFF 		bl	_stats_stop_measure_crit_thd
 4425              	.LVL413:
 4426              		.loc 3 367 0
 4427 0050 104B     		ldr	r3, .L435+8
 4428 0052 1A68     		ldr	r2, [r3]
 4429 0054 9A42     		cmp	r2, r3
 4430 0056 04D0     		beq	.L422
 4431 0058 9969     		ldr	r1, [r3, #24]
 4432 005a 9368     		ldr	r3, [r2, #8]
 4433 005c 8A68     		ldr	r2, [r1, #8]
 4434 005e 9A42     		cmp	r2, r3
 4435 0060 09D3     		bcc	.L433
 4436              	.L422:
 4437              	.LVL414:
 4438              	.LBB675:
 4439              	.LBB676:
 4440              	.LBB677:
 4441              		.loc 2 546 0
 4442 0062 0023     		movs	r3, #0
 4443              		.syntax unified
 4444              	@ 546 "../e-puck2_main-processor/ChibiOS//os/ext/CMSIS/include/core_cmFunc.h" 1
 4445 0064 83F31188 		MSR basepri, r3
 4446              	@ 0 "" 2
ARM GAS  /var/folders/d2/nstgp4h54kz7g1l847x_b8wc0000gn/T//ccW13lHv.s 			page 79


 4447              	.LVL415:
 4448              		.thumb
 4449              		.syntax unified
 4450              	.LBE677:
 4451              	.LBE676:
 4452              	.LBE675:
 4453              	.LBE674:
 4454              	.LBE673:
 4455              		.loc 1 488 0
 4456 0068 019A     		ldr	r2, [sp, #4]
 4457 006a 3B68     		ldr	r3, [r7]
 4458 006c 9A42     		cmp	r2, r3
 4459 006e 2846     		mov	r0, r5
 4460 0070 09D1     		bne	.L434
 4461 0072 03B0     		add	sp, sp, #12
 4462              		.cfi_remember_state
 4463              		.cfi_def_cfa_offset 20
 4464              		@ sp needed
 4465 0074 F0BD     		pop	{r4, r5, r6, r7, pc}
 4466              	.LVL416:
 4467              	.L433:
 4468              		.cfi_restore_state
 4469              	.LBB679:
 4470              	.LBB678:
 4471              		.loc 3 367 0
 4472 0076 0848     		ldr	r0, .L435+12
 4473 0078 FFF7FEFF 		bl	chSysHalt
 4474              	.LVL417:
 4475 007c F1E7     		b	.L422
 4476              	.LVL418:
 4477              	.L432:
 4478              	.LBE678:
 4479              	.LBE679:
 4480              		.loc 1 480 0 discriminator 2
 4481 007e 0448     		ldr	r0, .L435+4
 4482 0080 FFF7FEFF 		bl	chSysHalt
 4483              	.LVL419:
 4484 0084 D2E7     		b	.L419
 4485              	.LVL420:
 4486              	.L434:
 4487              		.loc 1 488 0
 4488 0086 FFF7FEFF 		bl	__stack_chk_fail
 4489              	.LVL421:
 4490              	.L436:
 4491 008a 00BF     		.align	2
 4492              	.L435:
 4493 008c 00000000 		.word	__stack_chk_guard
 4494 0090 00000000 		.word	.LANCHOR12
 4495 0094 00000000 		.word	ch
 4496 0098 00000000 		.word	.LANCHOR0
 4497              		.cfi_endproc
 4498              	.LFE289:
 4499              		.size	parameter_variable_vector_read, .-parameter_variable_vector_read
 4500              		.section	.text.parameter_variable_vector_get,"ax",%progbits
 4501              		.align	1
 4502              		.p2align 4,,15
 4503              		.global	parameter_variable_vector_get
ARM GAS  /var/folders/d2/nstgp4h54kz7g1l847x_b8wc0000gn/T//ccW13lHv.s 			page 80


 4504              		.syntax unified
 4505              		.thumb
 4506              		.thumb_func
 4507              		.fpu fpv4-sp-d16
 4508              		.type	parameter_variable_vector_get, %function
 4509              	parameter_variable_vector_get:
 4510              	.LFB288:
 4511              		.loc 1 471 0
 4512              		.cfi_startproc
 4513              		@ args = 0, pretend = 0, frame = 8
 4514              		@ frame_needed = 0, uses_anonymous_args = 0
 4515              	.LVL422:
 4516 0000 70B5     		push	{r4, r5, r6, lr}
 4517              		.cfi_def_cfa_offset 16
 4518              		.cfi_offset 4, -16
 4519              		.cfi_offset 5, -12
 4520              		.cfi_offset 6, -8
 4521              		.cfi_offset 14, -4
 4522 0002 0A4C     		ldr	r4, .L442
 4523 0004 82B0     		sub	sp, sp, #8
 4524              		.cfi_def_cfa_offset 24
 4525              		.loc 1 471 0
 4526 0006 2368     		ldr	r3, [r4]
 4527 0008 0193     		str	r3, [sp, #4]
 4528 000a 0E46     		mov	r6, r1
 4529 000c 0546     		mov	r5, r0
 4530              		.loc 1 472 0
 4531 000e FFF7FEFF 		bl	_parameter_changed_clear
 4532              	.LVL423:
 4533              		.loc 1 473 0
 4534 0012 019A     		ldr	r2, [sp, #4]
 4535 0014 2368     		ldr	r3, [r4]
 4536 0016 9A42     		cmp	r2, r3
 4537 0018 06D1     		bne	.L441
 4538 001a 3146     		mov	r1, r6
 4539 001c 2846     		mov	r0, r5
 4540              		.loc 1 474 0
 4541 001e 02B0     		add	sp, sp, #8
 4542              		.cfi_remember_state
 4543              		.cfi_def_cfa_offset 16
 4544              		@ sp needed
 4545 0020 BDE87040 		pop	{r4, r5, r6, lr}
 4546              		.cfi_restore 14
 4547              		.cfi_restore 6
 4548              		.cfi_restore 5
 4549              		.cfi_restore 4
 4550              		.cfi_def_cfa_offset 0
 4551              	.LVL424:
 4552              		.loc 1 473 0
 4553 0024 FFF7FEBF 		b	parameter_variable_vector_read
 4554              	.LVL425:
 4555              	.L441:
 4556              		.cfi_restore_state
 4557 0028 FFF7FEFF 		bl	__stack_chk_fail
 4558              	.LVL426:
 4559              	.L443:
 4560              		.align	2
ARM GAS  /var/folders/d2/nstgp4h54kz7g1l847x_b8wc0000gn/T//ccW13lHv.s 			page 81


 4561              	.L442:
 4562 002c 00000000 		.word	__stack_chk_guard
 4563              		.cfi_endproc
 4564              	.LFE288:
 4565              		.size	parameter_variable_vector_get, .-parameter_variable_vector_get
 4566              		.section	.text.parameter_variable_vector_set,"ax",%progbits
 4567              		.align	1
 4568              		.p2align 4,,15
 4569              		.global	parameter_variable_vector_set
 4570              		.syntax unified
 4571              		.thumb
 4572              		.thumb_func
 4573              		.fpu fpv4-sp-d16
 4574              		.type	parameter_variable_vector_set, %function
 4575              	parameter_variable_vector_set:
 4576              	.LFB290:
 4577              		.loc 1 491 0
 4578              		.cfi_startproc
 4579              		@ args = 0, pretend = 0, frame = 8
 4580              		@ frame_needed = 0, uses_anonymous_args = 0
 4581              	.LVL427:
 4582 0000 2DE9F043 		push	{r4, r5, r6, r7, r8, r9, lr}
 4583              		.cfi_def_cfa_offset 28
 4584              		.cfi_offset 4, -28
 4585              		.cfi_offset 5, -24
 4586              		.cfi_offset 6, -20
 4587              		.cfi_offset 7, -16
 4588              		.cfi_offset 8, -12
 4589              		.cfi_offset 9, -8
 4590              		.cfi_offset 14, -4
 4591 0004 DFF8A480 		ldr	r8, .L463+12
 4592              		.loc 1 492 0
 4593 0008 837B     		ldrb	r3, [r0, #14]	@ zero_extendqisi2
 4594              		.loc 1 491 0
 4595 000a 83B0     		sub	sp, sp, #12
 4596              		.cfi_def_cfa_offset 40
 4597              		.loc 1 491 0
 4598 000c 0646     		mov	r6, r0
 4599              		.loc 1 492 0
 4600 000e 062B     		cmp	r3, #6
 4601              		.loc 1 491 0
 4602 0010 D8F80000 		ldr	r0, [r8]
 4603              	.LVL428:
 4604 0014 0190     		str	r0, [sp, #4]
 4605 0016 0F46     		mov	r7, r1
 4606 0018 9146     		mov	r9, r2
 4607              		.loc 1 492 0
 4608 001a 02D0     		beq	.L445
 4609              		.loc 1 492 0 is_stmt 0 discriminator 2
 4610 001c 2048     		ldr	r0, .L463
 4611 001e FFF7FEFF 		bl	chSysHalt
 4612              	.LVL429:
 4613              	.L445:
 4614              	.LBB690:
 4615              	.LBB691:
 4616              	.LBB692:
 4617              	.LBB693:
ARM GAS  /var/folders/d2/nstgp4h54kz7g1l847x_b8wc0000gn/T//ccW13lHv.s 			page 82


 4618              	.LBB694:
 4619              		.loc 2 546 0 is_stmt 1
 4620 0022 2023     		movs	r3, #32
 4621              		.syntax unified
 4622              	@ 546 "../e-puck2_main-processor/ChibiOS//os/ext/CMSIS/include/core_cmFunc.h" 1
 4623 0024 83F31188 		MSR basepri, r3
 4624              	@ 0 "" 2
 4625              	.LVL430:
 4626              		.thumb
 4627              		.syntax unified
 4628              	.LBE694:
 4629              	.LBE693:
 4630              	.LBE692:
 4631              		.loc 3 349 0
 4632 0028 FFF7FEFF 		bl	_stats_start_measure_crit_thd
 4633              	.LVL431:
 4634              		.loc 3 350 0
 4635 002c FFF7FEFF 		bl	_dbg_check_lock
 4636              	.LVL432:
 4637              	.LBE691:
 4638              	.LBE690:
 4639              		.loc 1 494 0
 4640 0030 B38A     		ldrh	r3, [r6, #20]
 4641 0032 4B45     		cmp	r3, r9
 4642 0034 2AD3     		bcc	.L460
 4643              	.L446:
 4644              	.LVL433:
 4645              		.loc 1 496 0 discriminator 1
 4646 0036 B9F1000F 		cmp	r9, #0
 4647 003a 0AD0     		beq	.L447
 4648 003c 07EB8901 		add	r1, r7, r9, lsl #2
 4649              		.loc 1 496 0 is_stmt 0
 4650 0040 3B46     		mov	r3, r7
 4651              	.LVL434:
 4652              	.L448:
 4653              		.loc 1 497 0 is_stmt 1 discriminator 3
 4654 0042 3069     		ldr	r0, [r6, #16]
 4655 0044 DD1B     		subs	r5, r3, r7
 4656 0046 53F8044B 		ldr	r4, [r3], #4	@ float
 4657 004a 2844     		add	r0, r0, r5
 4658              		.loc 1 496 0 discriminator 3
 4659 004c 9942     		cmp	r1, r3
 4660              		.loc 1 497 0 discriminator 3
 4661 004e 0460     		str	r4, [r0]	@ float
 4662              		.loc 1 496 0 discriminator 3
 4663 0050 F7D1     		bne	.L448
 4664              	.L447:
 4665              		.loc 1 499 0
 4666 0052 A6F81690 		strh	r9, [r6, #22]	@ movhi
 4667              	.LBB695:
 4668              	.LBB696:
 4669              		.loc 3 360 0
 4670 0056 FFF7FEFF 		bl	_dbg_check_unlock
 4671              	.LVL435:
 4672              		.loc 3 361 0
 4673 005a FFF7FEFF 		bl	_stats_stop_measure_crit_thd
 4674              	.LVL436:
ARM GAS  /var/folders/d2/nstgp4h54kz7g1l847x_b8wc0000gn/T//ccW13lHv.s 			page 83


 4675              		.loc 3 367 0
 4676 005e 114B     		ldr	r3, .L463+4
 4677 0060 1A68     		ldr	r2, [r3]
 4678 0062 9A42     		cmp	r2, r3
 4679 0064 04D0     		beq	.L449
 4680 0066 9969     		ldr	r1, [r3, #24]
 4681 0068 9368     		ldr	r3, [r2, #8]
 4682 006a 8A68     		ldr	r2, [r1, #8]
 4683 006c 9A42     		cmp	r2, r3
 4684 006e 11D3     		bcc	.L461
 4685              	.L449:
 4686              	.LVL437:
 4687              	.LBB697:
 4688              	.LBB698:
 4689              	.LBB699:
 4690              		.loc 2 546 0
 4691 0070 0023     		movs	r3, #0
 4692              		.syntax unified
 4693              	@ 546 "../e-puck2_main-processor/ChibiOS//os/ext/CMSIS/include/core_cmFunc.h" 1
 4694 0072 83F31188 		MSR basepri, r3
 4695              	@ 0 "" 2
 4696              	.LVL438:
 4697              		.thumb
 4698              		.syntax unified
 4699              	.LBE699:
 4700              	.LBE698:
 4701              	.LBE697:
 4702              	.LBE696:
 4703              	.LBE695:
 4704              		.loc 1 501 0
 4705 0076 019A     		ldr	r2, [sp, #4]
 4706 0078 D8F80030 		ldr	r3, [r8]
 4707 007c 9A42     		cmp	r2, r3
 4708 007e 0DD1     		bne	.L462
 4709 0080 3046     		mov	r0, r6
 4710              		.loc 1 502 0
 4711 0082 03B0     		add	sp, sp, #12
 4712              		.cfi_remember_state
 4713              		.cfi_def_cfa_offset 28
 4714              		@ sp needed
 4715 0084 BDE8F043 		pop	{r4, r5, r6, r7, r8, r9, lr}
 4716              		.cfi_restore 14
 4717              		.cfi_restore 9
 4718              		.cfi_restore 8
 4719              		.cfi_restore 7
 4720              		.cfi_restore 6
 4721              		.cfi_restore 5
 4722              		.cfi_restore 4
 4723              		.cfi_def_cfa_offset 0
 4724              	.LVL439:
 4725              		.loc 1 501 0
 4726 0088 FFF7FEBF 		b	_parameter_changed_set
 4727              	.LVL440:
 4728              	.L460:
 4729              		.cfi_restore_state
 4730              		.loc 1 494 0 discriminator 2
 4731 008c 0448     		ldr	r0, .L463
ARM GAS  /var/folders/d2/nstgp4h54kz7g1l847x_b8wc0000gn/T//ccW13lHv.s 			page 84


 4732 008e FFF7FEFF 		bl	chSysHalt
 4733              	.LVL441:
 4734 0092 D0E7     		b	.L446
 4735              	.L461:
 4736              	.LBB701:
 4737              	.LBB700:
 4738              		.loc 3 367 0
 4739 0094 0448     		ldr	r0, .L463+8
 4740 0096 FFF7FEFF 		bl	chSysHalt
 4741              	.LVL442:
 4742 009a E9E7     		b	.L449
 4743              	.L462:
 4744              	.LBE700:
 4745              	.LBE701:
 4746              		.loc 1 501 0
 4747 009c FFF7FEFF 		bl	__stack_chk_fail
 4748              	.LVL443:
 4749              	.L464:
 4750              		.align	2
 4751              	.L463:
 4752 00a0 00000000 		.word	.LANCHOR13
 4753 00a4 00000000 		.word	ch
 4754 00a8 00000000 		.word	.LANCHOR0
 4755 00ac 00000000 		.word	__stack_chk_guard
 4756              		.cfi_endproc
 4757              	.LFE290:
 4758              		.size	parameter_variable_vector_set, .-parameter_variable_vector_set
 4759              		.section	.text.parameter_string_declare,"ax",%progbits
 4760              		.align	1
 4761              		.p2align 4,,15
 4762              		.global	parameter_string_declare
 4763              		.syntax unified
 4764              		.thumb
 4765              		.thumb_func
 4766              		.fpu fpv4-sp-d16
 4767              		.type	parameter_string_declare, %function
 4768              	parameter_string_declare:
 4769              	.LFB291:
 4770              		.loc 1 514 0
 4771              		.cfi_startproc
 4772              		@ args = 4, pretend = 0, frame = 8
 4773              		@ frame_needed = 0, uses_anonymous_args = 0
 4774              	.LVL444:
 4775 0000 F0B5     		push	{r4, r5, r6, r7, lr}
 4776              		.cfi_def_cfa_offset 20
 4777              		.cfi_offset 4, -20
 4778              		.cfi_offset 5, -16
 4779              		.cfi_offset 6, -12
 4780              		.cfi_offset 7, -8
 4781              		.cfi_offset 14, -4
 4782 0002 0B4C     		ldr	r4, .L470
 4783              		.loc 1 516 0
 4784 0004 0361     		str	r3, [r0, #16]
 4785              		.loc 1 514 0
 4786 0006 83B0     		sub	sp, sp, #12
 4787              		.cfi_def_cfa_offset 32
 4788              		.loc 1 514 0
ARM GAS  /var/folders/d2/nstgp4h54kz7g1l847x_b8wc0000gn/T//ccW13lHv.s 			page 85


 4789 0008 2568     		ldr	r5, [r4]
 4790 000a 0195     		str	r5, [sp, #4]
 4791              		.loc 1 518 0
 4792 000c 019E     		ldr	r6, [sp, #4]
 4793 000e 2568     		ldr	r5, [r4]
 4794              		.loc 1 514 0
 4795 0010 BDF82070 		ldrh	r7, [sp, #32]
 4796              		.loc 1 517 0
 4797 0014 8782     		strh	r7, [r0, #20]	@ movhi
 4798              		.loc 1 515 0
 4799 0016 4FF0040C 		mov	ip, #4
 4800              		.loc 1 518 0
 4801 001a AE42     		cmp	r6, r5
 4802              		.loc 1 515 0
 4803 001c 80F80EC0 		strb	ip, [r0, #14]
 4804              		.loc 1 518 0
 4805 0020 04D1     		bne	.L469
 4806              		.loc 1 519 0
 4807 0022 03B0     		add	sp, sp, #12
 4808              		.cfi_remember_state
 4809              		.cfi_def_cfa_offset 20
 4810              		@ sp needed
 4811 0024 BDE8F040 		pop	{r4, r5, r6, r7, lr}
 4812              		.cfi_restore 14
 4813              		.cfi_restore 7
 4814              		.cfi_restore 6
 4815              		.cfi_restore 5
 4816              		.cfi_restore 4
 4817              		.cfi_def_cfa_offset 0
 4818              	.LVL445:
 4819              		.loc 1 518 0
 4820 0028 FFF7FEBF 		b	_parameter_declare
 4821              	.LVL446:
 4822              	.L469:
 4823              		.cfi_restore_state
 4824 002c FFF7FEFF 		bl	__stack_chk_fail
 4825              	.LVL447:
 4826              	.L471:
 4827              		.align	2
 4828              	.L470:
 4829 0030 00000000 		.word	__stack_chk_guard
 4830              		.cfi_endproc
 4831              	.LFE291:
 4832              		.size	parameter_string_declare, .-parameter_string_declare
 4833              		.section	.text.parameter_string_declare_with_default,"ax",%progbits
 4834              		.align	1
 4835              		.p2align 4,,15
 4836              		.global	parameter_string_declare_with_default
 4837              		.syntax unified
 4838              		.thumb
 4839              		.thumb_func
 4840              		.fpu fpv4-sp-d16
 4841              		.type	parameter_string_declare_with_default, %function
 4842              	parameter_string_declare_with_default:
 4843              	.LFB292:
 4844              		.loc 1 527 0
 4845              		.cfi_startproc
ARM GAS  /var/folders/d2/nstgp4h54kz7g1l847x_b8wc0000gn/T//ccW13lHv.s 			page 86


 4846              		@ args = 8, pretend = 0, frame = 8
 4847              		@ frame_needed = 0, uses_anonymous_args = 0
 4848              	.LVL448:
 4849 0000 F0B5     		push	{r4, r5, r6, r7, lr}
 4850              		.cfi_def_cfa_offset 20
 4851              		.cfi_offset 4, -20
 4852              		.cfi_offset 5, -16
 4853              		.cfi_offset 6, -12
 4854              		.cfi_offset 7, -8
 4855              		.cfi_offset 14, -4
 4856 0002 83B0     		sub	sp, sp, #12
 4857              		.cfi_def_cfa_offset 32
 4858              		.loc 1 527 0
 4859 0004 144E     		ldr	r6, .L478
 4860 0006 BDF82050 		ldrh	r5, [sp, #32]
 4861 000a 099F     		ldr	r7, [sp, #36]
 4862 000c 3468     		ldr	r4, [r6]
 4863              	.LBB702:
 4864              	.LBB703:
 4865              		.loc 1 516 0
 4866 000e 0361     		str	r3, [r0, #16]
 4867              		.loc 1 515 0
 4868 0010 4FF0040C 		mov	ip, #4
 4869 0014 80F80EC0 		strb	ip, [r0, #14]
 4870              		.loc 1 517 0
 4871 0018 8582     		strh	r5, [r0, #20]	@ movhi
 4872              	.LBE703:
 4873              	.LBE702:
 4874              		.loc 1 527 0
 4875 001a 0194     		str	r4, [sp, #4]
 4876 001c 0446     		mov	r4, r0
 4877              	.LVL449:
 4878              	.LBB705:
 4879              	.LBB704:
 4880              		.loc 1 518 0
 4881 001e FFF7FEFF 		bl	_parameter_declare
 4882              	.LVL450:
 4883              	.LBE704:
 4884              	.LBE705:
 4885              		.loc 1 529 0
 4886 0022 3846     		mov	r0, r7
 4887 0024 FFF7FEFF 		bl	strlen
 4888              	.LVL451:
 4889 0028 80B2     		uxth	r0, r0
 4890              		.loc 1 530 0
 4891 002a A842     		cmp	r0, r5
 4892              		.loc 1 529 0
 4893 002c E082     		strh	r0, [r4, #22]	@ movhi
 4894              		.loc 1 530 0
 4895 002e 02D9     		bls	.L473
 4896              		.loc 1 530 0 is_stmt 0 discriminator 2
 4897 0030 0A48     		ldr	r0, .L478+4
 4898 0032 FFF7FEFF 		bl	chSysHalt
 4899              	.LVL452:
 4900              	.L473:
 4901              		.loc 1 531 0 is_stmt 1
 4902 0036 2A46     		mov	r2, r5
ARM GAS  /var/folders/d2/nstgp4h54kz7g1l847x_b8wc0000gn/T//ccW13lHv.s 			page 87


 4903 0038 3946     		mov	r1, r7
 4904 003a 2069     		ldr	r0, [r4, #16]
 4905 003c FFF7FEFF 		bl	strncpy
 4906              	.LVL453:
 4907              		.loc 1 532 0
 4908 0040 019A     		ldr	r2, [sp, #4]
 4909 0042 3368     		ldr	r3, [r6]
 4910 0044 9A42     		cmp	r2, r3
 4911 0046 05D1     		bne	.L477
 4912 0048 2046     		mov	r0, r4
 4913              		.loc 1 533 0
 4914 004a 03B0     		add	sp, sp, #12
 4915              		.cfi_remember_state
 4916              		.cfi_def_cfa_offset 20
 4917              		@ sp needed
 4918 004c BDE8F040 		pop	{r4, r5, r6, r7, lr}
 4919              		.cfi_restore 14
 4920              		.cfi_restore 7
 4921              		.cfi_restore 6
 4922              		.cfi_restore 5
 4923              		.cfi_restore 4
 4924              		.cfi_def_cfa_offset 0
 4925              	.LVL454:
 4926              		.loc 1 532 0
 4927 0050 FFF7FEBF 		b	_parameter_changed_set
 4928              	.LVL455:
 4929              	.L477:
 4930              		.cfi_restore_state
 4931 0054 FFF7FEFF 		bl	__stack_chk_fail
 4932              	.LVL456:
 4933              	.L479:
 4934              		.align	2
 4935              	.L478:
 4936 0058 00000000 		.word	__stack_chk_guard
 4937 005c 00000000 		.word	.LANCHOR14
 4938              		.cfi_endproc
 4939              	.LFE292:
 4940              		.size	parameter_string_declare_with_default, .-parameter_string_declare_with_default
 4941              		.section	.text.parameter_string_max_len,"ax",%progbits
 4942              		.align	1
 4943              		.p2align 4,,15
 4944              		.global	parameter_string_max_len
 4945              		.syntax unified
 4946              		.thumb
 4947              		.thumb_func
 4948              		.fpu fpv4-sp-d16
 4949              		.type	parameter_string_max_len, %function
 4950              	parameter_string_max_len:
 4951              	.LFB293:
 4952              		.loc 1 536 0
 4953              		.cfi_startproc
 4954              		@ args = 0, pretend = 0, frame = 8
 4955              		@ frame_needed = 0, uses_anonymous_args = 0
 4956              	.LVL457:
 4957 0000 30B5     		push	{r4, r5, lr}
 4958              		.cfi_def_cfa_offset 12
 4959              		.cfi_offset 4, -12
ARM GAS  /var/folders/d2/nstgp4h54kz7g1l847x_b8wc0000gn/T//ccW13lHv.s 			page 88


 4960              		.cfi_offset 5, -8
 4961              		.cfi_offset 14, -4
 4962 0002 0B4C     		ldr	r4, .L488
 4963              		.loc 1 537 0
 4964 0004 837B     		ldrb	r3, [r0, #14]	@ zero_extendqisi2
 4965              		.loc 1 536 0
 4966 0006 2268     		ldr	r2, [r4]
 4967 0008 83B0     		sub	sp, sp, #12
 4968              		.cfi_def_cfa_offset 24
 4969              		.loc 1 537 0
 4970 000a 042B     		cmp	r3, #4
 4971              		.loc 1 536 0
 4972 000c 0546     		mov	r5, r0
 4973 000e 0192     		str	r2, [sp, #4]
 4974              		.loc 1 537 0
 4975 0010 02D0     		beq	.L481
 4976              		.loc 1 537 0 is_stmt 0 discriminator 2
 4977 0012 0848     		ldr	r0, .L488+4
 4978              	.LVL458:
 4979 0014 FFF7FEFF 		bl	chSysHalt
 4980              	.LVL459:
 4981              	.L481:
 4982              		.loc 1 539 0 is_stmt 1
 4983 0018 019A     		ldr	r2, [sp, #4]
 4984              		.loc 1 538 0
 4985 001a A88A     		ldrh	r0, [r5, #20]
 4986              		.loc 1 539 0
 4987 001c 2368     		ldr	r3, [r4]
 4988              		.loc 1 538 0
 4989 001e 0130     		adds	r0, r0, #1
 4990              		.loc 1 539 0
 4991 0020 9A42     		cmp	r2, r3
 4992 0022 80B2     		uxth	r0, r0
 4993 0024 01D1     		bne	.L487
 4994 0026 03B0     		add	sp, sp, #12
 4995              		.cfi_remember_state
 4996              		.cfi_def_cfa_offset 12
 4997              		@ sp needed
 4998 0028 30BD     		pop	{r4, r5, pc}
 4999              	.LVL460:
 5000              	.L487:
 5001              		.cfi_restore_state
 5002 002a FFF7FEFF 		bl	__stack_chk_fail
 5003              	.LVL461:
 5004              	.L489:
 5005 002e 00BF     		.align	2
 5006              	.L488:
 5007 0030 00000000 		.word	__stack_chk_guard
 5008 0034 00000000 		.word	.LANCHOR15
 5009              		.cfi_endproc
 5010              	.LFE293:
 5011              		.size	parameter_string_max_len, .-parameter_string_max_len
 5012              		.section	.text.parameter_string_read,"ax",%progbits
 5013              		.align	1
 5014              		.p2align 4,,15
 5015              		.global	parameter_string_read
 5016              		.syntax unified
ARM GAS  /var/folders/d2/nstgp4h54kz7g1l847x_b8wc0000gn/T//ccW13lHv.s 			page 89


 5017              		.thumb
 5018              		.thumb_func
 5019              		.fpu fpv4-sp-d16
 5020              		.type	parameter_string_read, %function
 5021              	parameter_string_read:
 5022              	.LFB295:
 5023              		.loc 1 548 0
 5024              		.cfi_startproc
 5025              		@ args = 0, pretend = 0, frame = 8
 5026              		@ frame_needed = 0, uses_anonymous_args = 0
 5027              	.LVL462:
 5028 0000 2DE9F041 		push	{r4, r5, r6, r7, r8, lr}
 5029              		.cfi_def_cfa_offset 24
 5030              		.cfi_offset 4, -24
 5031              		.cfi_offset 5, -20
 5032              		.cfi_offset 6, -16
 5033              		.cfi_offset 7, -12
 5034              		.cfi_offset 8, -8
 5035              		.cfi_offset 14, -4
 5036 0004 DFF8A480 		ldr	r8, .L505+12
 5037              		.loc 1 549 0
 5038 0008 837B     		ldrb	r3, [r0, #14]	@ zero_extendqisi2
 5039              		.loc 1 548 0
 5040 000a 82B0     		sub	sp, sp, #8
 5041              		.cfi_def_cfa_offset 32
 5042              		.loc 1 548 0
 5043 000c 0446     		mov	r4, r0
 5044              		.loc 1 549 0
 5045 000e 042B     		cmp	r3, #4
 5046              		.loc 1 548 0
 5047 0010 D8F80000 		ldr	r0, [r8]
 5048              	.LVL463:
 5049 0014 0190     		str	r0, [sp, #4]
 5050 0016 0D46     		mov	r5, r1
 5051 0018 1746     		mov	r7, r2
 5052              		.loc 1 549 0
 5053 001a 02D0     		beq	.L491
 5054              		.loc 1 549 0 is_stmt 0 discriminator 2
 5055 001c 2048     		ldr	r0, .L505
 5056 001e FFF7FEFF 		bl	chSysHalt
 5057              	.LVL464:
 5058              	.L491:
 5059              	.LBB716:
 5060              	.LBB717:
 5061              	.LBB718:
 5062              	.LBB719:
 5063              	.LBB720:
 5064              		.loc 2 546 0 is_stmt 1
 5065 0022 2023     		movs	r3, #32
 5066              		.syntax unified
 5067              	@ 546 "../e-puck2_main-processor/ChibiOS//os/ext/CMSIS/include/core_cmFunc.h" 1
 5068 0024 83F31188 		MSR basepri, r3
 5069              	@ 0 "" 2
 5070              	.LVL465:
 5071              		.thumb
 5072              		.syntax unified
 5073              	.LBE720:
ARM GAS  /var/folders/d2/nstgp4h54kz7g1l847x_b8wc0000gn/T//ccW13lHv.s 			page 90


 5074              	.LBE719:
 5075              	.LBE718:
 5076              		.loc 3 349 0
 5077 0028 FFF7FEFF 		bl	_stats_start_measure_crit_thd
 5078              	.LVL466:
 5079              		.loc 3 350 0
 5080 002c FFF7FEFF 		bl	_dbg_check_lock
 5081              	.LVL467:
 5082              	.LBE717:
 5083              	.LBE716:
 5084              		.loc 1 551 0
 5085 0030 637B     		ldrb	r3, [r4, #13]	@ zero_extendqisi2
 5086 0032 7BB3     		cbz	r3, .L501
 5087              	.L492:
 5088              		.loc 1 552 0
 5089 0034 E68A     		ldrh	r6, [r4, #22]
 5090              	.LVL468:
 5091 0036 2169     		ldr	r1, [r4, #16]
 5092              		.loc 1 553 0
 5093 0038 BE42     		cmp	r6, r7
 5094 003a 24D3     		bcc	.L502
 5095              		.loc 1 557 0
 5096 003c 2846     		mov	r0, r5
 5097 003e 7A1E     		subs	r2, r7, #1
 5098              		.loc 1 558 0
 5099 0040 3D44     		add	r5, r5, r7
 5100              	.LVL469:
 5101              		.loc 1 557 0
 5102 0042 FFF7FEFF 		bl	memcpy
 5103              	.LVL470:
 5104              		.loc 1 558 0
 5105 0046 0023     		movs	r3, #0
 5106 0048 05F8013C 		strb	r3, [r5, #-1]
 5107              	.L494:
 5108              	.LBB721:
 5109              	.LBB722:
 5110              		.loc 3 360 0
 5111 004c FFF7FEFF 		bl	_dbg_check_unlock
 5112              	.LVL471:
 5113              		.loc 3 361 0
 5114 0050 FFF7FEFF 		bl	_stats_stop_measure_crit_thd
 5115              	.LVL472:
 5116              		.loc 3 367 0
 5117 0054 134B     		ldr	r3, .L505+4
 5118 0056 1A68     		ldr	r2, [r3]
 5119 0058 9A42     		cmp	r2, r3
 5120 005a 04D0     		beq	.L495
 5121 005c 9969     		ldr	r1, [r3, #24]
 5122 005e 9368     		ldr	r3, [r2, #8]
 5123 0060 8A68     		ldr	r2, [r1, #8]
 5124 0062 9A42     		cmp	r2, r3
 5125 0064 0BD3     		bcc	.L503
 5126              	.L495:
 5127              	.LVL473:
 5128              	.LBB723:
 5129              	.LBB724:
 5130              	.LBB725:
ARM GAS  /var/folders/d2/nstgp4h54kz7g1l847x_b8wc0000gn/T//ccW13lHv.s 			page 91


 5131              		.loc 2 546 0
 5132 0066 0023     		movs	r3, #0
 5133              		.syntax unified
 5134              	@ 546 "../e-puck2_main-processor/ChibiOS//os/ext/CMSIS/include/core_cmFunc.h" 1
 5135 0068 83F31188 		MSR basepri, r3
 5136              	@ 0 "" 2
 5137              	.LVL474:
 5138              		.thumb
 5139              		.syntax unified
 5140              	.LBE725:
 5141              	.LBE724:
 5142              	.LBE723:
 5143              	.LBE722:
 5144              	.LBE721:
 5145              		.loc 1 562 0
 5146 006c 019A     		ldr	r2, [sp, #4]
 5147 006e D8F80030 		ldr	r3, [r8]
 5148 0072 9A42     		cmp	r2, r3
 5149 0074 3046     		mov	r0, r6
 5150 0076 11D1     		bne	.L504
 5151 0078 02B0     		add	sp, sp, #8
 5152              		.cfi_remember_state
 5153              		.cfi_def_cfa_offset 24
 5154              		@ sp needed
 5155 007a BDE8F081 		pop	{r4, r5, r6, r7, r8, pc}
 5156              	.LVL475:
 5157              	.L503:
 5158              		.cfi_restore_state
 5159              	.LBB727:
 5160              	.LBB726:
 5161              		.loc 3 367 0
 5162 007e 0A48     		ldr	r0, .L505+8
 5163 0080 FFF7FEFF 		bl	chSysHalt
 5164              	.LVL476:
 5165 0084 EFE7     		b	.L495
 5166              	.LVL477:
 5167              	.L502:
 5168              	.LBE726:
 5169              	.LBE727:
 5170              		.loc 1 554 0
 5171 0086 3246     		mov	r2, r6
 5172 0088 2846     		mov	r0, r5
 5173 008a FFF7FEFF 		bl	memcpy
 5174              	.LVL478:
 5175              		.loc 1 555 0
 5176 008e 0023     		movs	r3, #0
 5177 0090 AB55     		strb	r3, [r5, r6]
 5178 0092 DBE7     		b	.L494
 5179              	.LVL479:
 5180              	.L501:
 5181              		.loc 1 551 0 discriminator 2
 5182 0094 0248     		ldr	r0, .L505
 5183 0096 FFF7FEFF 		bl	chSysHalt
 5184              	.LVL480:
 5185 009a CBE7     		b	.L492
 5186              	.LVL481:
 5187              	.L504:
ARM GAS  /var/folders/d2/nstgp4h54kz7g1l847x_b8wc0000gn/T//ccW13lHv.s 			page 92


 5188              		.loc 1 562 0
 5189 009c FFF7FEFF 		bl	__stack_chk_fail
 5190              	.LVL482:
 5191              	.L506:
 5192              		.align	2
 5193              	.L505:
 5194 00a0 00000000 		.word	.LANCHOR16
 5195 00a4 00000000 		.word	ch
 5196 00a8 00000000 		.word	.LANCHOR0
 5197 00ac 00000000 		.word	__stack_chk_guard
 5198              		.cfi_endproc
 5199              	.LFE295:
 5200              		.size	parameter_string_read, .-parameter_string_read
 5201              		.section	.text.parameter_string_get,"ax",%progbits
 5202              		.align	1
 5203              		.p2align 4,,15
 5204              		.global	parameter_string_get
 5205              		.syntax unified
 5206              		.thumb
 5207              		.thumb_func
 5208              		.fpu fpv4-sp-d16
 5209              		.type	parameter_string_get, %function
 5210              	parameter_string_get:
 5211              	.LFB294:
 5212              		.loc 1 542 0
 5213              		.cfi_startproc
 5214              		@ args = 0, pretend = 0, frame = 8
 5215              		@ frame_needed = 0, uses_anonymous_args = 0
 5216              	.LVL483:
 5217 0000 F0B5     		push	{r4, r5, r6, r7, lr}
 5218              		.cfi_def_cfa_offset 20
 5219              		.cfi_offset 4, -20
 5220              		.cfi_offset 5, -16
 5221              		.cfi_offset 6, -12
 5222              		.cfi_offset 7, -8
 5223              		.cfi_offset 14, -4
 5224 0002 0B4C     		ldr	r4, .L512
 5225 0004 83B0     		sub	sp, sp, #12
 5226              		.cfi_def_cfa_offset 32
 5227              		.loc 1 542 0
 5228 0006 2368     		ldr	r3, [r4]
 5229 0008 0193     		str	r3, [sp, #4]
 5230 000a 0546     		mov	r5, r0
 5231 000c 0E46     		mov	r6, r1
 5232 000e 1746     		mov	r7, r2
 5233              		.loc 1 543 0
 5234 0010 FFF7FEFF 		bl	_parameter_changed_clear
 5235              	.LVL484:
 5236              		.loc 1 544 0
 5237 0014 0198     		ldr	r0, [sp, #4]
 5238 0016 2368     		ldr	r3, [r4]
 5239 0018 9842     		cmp	r0, r3
 5240 001a 07D1     		bne	.L511
 5241 001c 3A46     		mov	r2, r7
 5242 001e 3146     		mov	r1, r6
 5243 0020 2846     		mov	r0, r5
 5244              		.loc 1 545 0
ARM GAS  /var/folders/d2/nstgp4h54kz7g1l847x_b8wc0000gn/T//ccW13lHv.s 			page 93


 5245 0022 03B0     		add	sp, sp, #12
 5246              		.cfi_remember_state
 5247              		.cfi_def_cfa_offset 20
 5248              		@ sp needed
 5249 0024 BDE8F040 		pop	{r4, r5, r6, r7, lr}
 5250              		.cfi_restore 14
 5251              		.cfi_restore 7
 5252              		.cfi_restore 6
 5253              		.cfi_restore 5
 5254              		.cfi_restore 4
 5255              		.cfi_def_cfa_offset 0
 5256              	.LVL485:
 5257              		.loc 1 544 0
 5258 0028 FFF7FEBF 		b	parameter_string_read
 5259              	.LVL486:
 5260              	.L511:
 5261              		.cfi_restore_state
 5262 002c FFF7FEFF 		bl	__stack_chk_fail
 5263              	.LVL487:
 5264              	.L513:
 5265              		.align	2
 5266              	.L512:
 5267 0030 00000000 		.word	__stack_chk_guard
 5268              		.cfi_endproc
 5269              	.LFE294:
 5270              		.size	parameter_string_get, .-parameter_string_get
 5271              		.section	.text.parameter_string_set_w_len,"ax",%progbits
 5272              		.align	1
 5273              		.p2align 4,,15
 5274              		.global	parameter_string_set_w_len
 5275              		.syntax unified
 5276              		.thumb
 5277              		.thumb_func
 5278              		.fpu fpv4-sp-d16
 5279              		.type	parameter_string_set_w_len, %function
 5280              	parameter_string_set_w_len:
 5281              	.LFB297:
 5282              		.loc 1 570 0
 5283              		.cfi_startproc
 5284              		@ args = 0, pretend = 0, frame = 8
 5285              		@ frame_needed = 0, uses_anonymous_args = 0
 5286              	.LVL488:
 5287 0000 F0B5     		push	{r4, r5, r6, r7, lr}
 5288              		.cfi_def_cfa_offset 20
 5289              		.cfi_offset 4, -20
 5290              		.cfi_offset 5, -16
 5291              		.cfi_offset 6, -12
 5292              		.cfi_offset 7, -8
 5293              		.cfi_offset 14, -4
 5294 0002 204E     		ldr	r6, .L526
 5295              		.loc 1 571 0
 5296 0004 837B     		ldrb	r3, [r0, #14]	@ zero_extendqisi2
 5297              		.loc 1 570 0
 5298 0006 83B0     		sub	sp, sp, #12
 5299              		.cfi_def_cfa_offset 32
 5300              		.loc 1 570 0
 5301 0008 0446     		mov	r4, r0
ARM GAS  /var/folders/d2/nstgp4h54kz7g1l847x_b8wc0000gn/T//ccW13lHv.s 			page 94


 5302              		.loc 1 571 0
 5303 000a 042B     		cmp	r3, #4
 5304              		.loc 1 570 0
 5305 000c 3068     		ldr	r0, [r6]
 5306              	.LVL489:
 5307 000e 0190     		str	r0, [sp, #4]
 5308 0010 0F46     		mov	r7, r1
 5309 0012 1546     		mov	r5, r2
 5310              		.loc 1 571 0
 5311 0014 02D0     		beq	.L515
 5312              		.loc 1 571 0 is_stmt 0 discriminator 2
 5313 0016 1C48     		ldr	r0, .L526+4
 5314 0018 FFF7FEFF 		bl	chSysHalt
 5315              	.LVL490:
 5316              	.L515:
 5317              	.LBB738:
 5318              	.LBB739:
 5319              	.LBB740:
 5320              	.LBB741:
 5321              	.LBB742:
 5322              		.loc 2 546 0 is_stmt 1
 5323 001c 2023     		movs	r3, #32
 5324              		.syntax unified
 5325              	@ 546 "../e-puck2_main-processor/ChibiOS//os/ext/CMSIS/include/core_cmFunc.h" 1
 5326 001e 83F31188 		MSR basepri, r3
 5327              	@ 0 "" 2
 5328              	.LVL491:
 5329              		.thumb
 5330              		.syntax unified
 5331              	.LBE742:
 5332              	.LBE741:
 5333              	.LBE740:
 5334              		.loc 3 349 0
 5335 0022 FFF7FEFF 		bl	_stats_start_measure_crit_thd
 5336              	.LVL492:
 5337              		.loc 3 350 0
 5338 0026 FFF7FEFF 		bl	_dbg_check_lock
 5339              	.LVL493:
 5340              	.LBE739:
 5341              	.LBE738:
 5342              		.loc 1 573 0
 5343 002a A38A     		ldrh	r3, [r4, #20]
 5344 002c AB42     		cmp	r3, r5
 5345 002e 02D2     		bcs	.L516
 5346              		.loc 1 573 0 is_stmt 0 discriminator 2
 5347 0030 1548     		ldr	r0, .L526+4
 5348 0032 FFF7FEFF 		bl	chSysHalt
 5349              	.LVL494:
 5350              	.L516:
 5351              		.loc 1 574 0 is_stmt 1
 5352 0036 2A46     		mov	r2, r5
 5353 0038 3946     		mov	r1, r7
 5354 003a 2069     		ldr	r0, [r4, #16]
 5355 003c FFF7FEFF 		bl	memcpy
 5356              	.LVL495:
 5357              		.loc 1 575 0
 5358 0040 E582     		strh	r5, [r4, #22]	@ movhi
ARM GAS  /var/folders/d2/nstgp4h54kz7g1l847x_b8wc0000gn/T//ccW13lHv.s 			page 95


 5359              	.LBB743:
 5360              	.LBB744:
 5361              		.loc 3 360 0
 5362 0042 FFF7FEFF 		bl	_dbg_check_unlock
 5363              	.LVL496:
 5364              		.loc 3 361 0
 5365 0046 FFF7FEFF 		bl	_stats_stop_measure_crit_thd
 5366              	.LVL497:
 5367              		.loc 3 367 0
 5368 004a 104B     		ldr	r3, .L526+8
 5369 004c 1A68     		ldr	r2, [r3]
 5370 004e 9A42     		cmp	r2, r3
 5371 0050 04D0     		beq	.L517
 5372 0052 9969     		ldr	r1, [r3, #24]
 5373 0054 9368     		ldr	r3, [r2, #8]
 5374 0056 8A68     		ldr	r2, [r1, #8]
 5375 0058 9A42     		cmp	r2, r3
 5376 005a 0CD3     		bcc	.L524
 5377              	.L517:
 5378              	.LVL498:
 5379              	.LBB745:
 5380              	.LBB746:
 5381              	.LBB747:
 5382              		.loc 2 546 0
 5383 005c 0023     		movs	r3, #0
 5384              		.syntax unified
 5385              	@ 546 "../e-puck2_main-processor/ChibiOS//os/ext/CMSIS/include/core_cmFunc.h" 1
 5386 005e 83F31188 		MSR basepri, r3
 5387              	@ 0 "" 2
 5388              	.LVL499:
 5389              		.thumb
 5390              		.syntax unified
 5391              	.LBE747:
 5392              	.LBE746:
 5393              	.LBE745:
 5394              	.LBE744:
 5395              	.LBE743:
 5396              		.loc 1 577 0
 5397 0062 019A     		ldr	r2, [sp, #4]
 5398 0064 3368     		ldr	r3, [r6]
 5399 0066 9A42     		cmp	r2, r3
 5400 0068 09D1     		bne	.L525
 5401 006a 2046     		mov	r0, r4
 5402              		.loc 1 578 0
 5403 006c 03B0     		add	sp, sp, #12
 5404              		.cfi_remember_state
 5405              		.cfi_def_cfa_offset 20
 5406              		@ sp needed
 5407 006e BDE8F040 		pop	{r4, r5, r6, r7, lr}
 5408              		.cfi_restore 14
 5409              		.cfi_restore 7
 5410              		.cfi_restore 6
 5411              		.cfi_restore 5
 5412              		.cfi_restore 4
 5413              		.cfi_def_cfa_offset 0
 5414              	.LVL500:
 5415              		.loc 1 577 0
ARM GAS  /var/folders/d2/nstgp4h54kz7g1l847x_b8wc0000gn/T//ccW13lHv.s 			page 96


 5416 0072 FFF7FEBF 		b	_parameter_changed_set
 5417              	.LVL501:
 5418              	.L524:
 5419              		.cfi_restore_state
 5420              	.LBB749:
 5421              	.LBB748:
 5422              		.loc 3 367 0
 5423 0076 0648     		ldr	r0, .L526+12
 5424 0078 FFF7FEFF 		bl	chSysHalt
 5425              	.LVL502:
 5426 007c EEE7     		b	.L517
 5427              	.L525:
 5428              	.LBE748:
 5429              	.LBE749:
 5430              		.loc 1 577 0
 5431 007e FFF7FEFF 		bl	__stack_chk_fail
 5432              	.LVL503:
 5433              	.L527:
 5434 0082 00BF     		.align	2
 5435              	.L526:
 5436 0084 00000000 		.word	__stack_chk_guard
 5437 0088 00000000 		.word	.LANCHOR17
 5438 008c 00000000 		.word	ch
 5439 0090 00000000 		.word	.LANCHOR0
 5440              		.cfi_endproc
 5441              	.LFE297:
 5442              		.size	parameter_string_set_w_len, .-parameter_string_set_w_len
 5443              		.section	.text.parameter_string_set,"ax",%progbits
 5444              		.align	1
 5445              		.p2align 4,,15
 5446              		.global	parameter_string_set
 5447              		.syntax unified
 5448              		.thumb
 5449              		.thumb_func
 5450              		.fpu fpv4-sp-d16
 5451              		.type	parameter_string_set, %function
 5452              	parameter_string_set:
 5453              	.LFB296:
 5454              		.loc 1 565 0
 5455              		.cfi_startproc
 5456              		@ args = 0, pretend = 0, frame = 8
 5457              		@ frame_needed = 0, uses_anonymous_args = 0
 5458              	.LVL504:
 5459 0000 70B5     		push	{r4, r5, r6, lr}
 5460              		.cfi_def_cfa_offset 16
 5461              		.cfi_offset 4, -16
 5462              		.cfi_offset 5, -12
 5463              		.cfi_offset 6, -8
 5464              		.cfi_offset 14, -4
 5465 0002 0B4C     		ldr	r4, .L533
 5466 0004 82B0     		sub	sp, sp, #8
 5467              		.cfi_def_cfa_offset 24
 5468              		.loc 1 565 0
 5469 0006 2368     		ldr	r3, [r4]
 5470 0008 0193     		str	r3, [sp, #4]
 5471 000a 0646     		mov	r6, r0
 5472              		.loc 1 566 0
ARM GAS  /var/folders/d2/nstgp4h54kz7g1l847x_b8wc0000gn/T//ccW13lHv.s 			page 97


 5473 000c 0846     		mov	r0, r1
 5474              	.LVL505:
 5475              		.loc 1 565 0
 5476 000e 0D46     		mov	r5, r1
 5477              		.loc 1 566 0
 5478 0010 FFF7FEFF 		bl	strlen
 5479              	.LVL506:
 5480 0014 0199     		ldr	r1, [sp, #4]
 5481 0016 2368     		ldr	r3, [r4]
 5482 0018 9942     		cmp	r1, r3
 5483 001a 07D1     		bne	.L532
 5484 001c 82B2     		uxth	r2, r0
 5485 001e 2946     		mov	r1, r5
 5486 0020 3046     		mov	r0, r6
 5487              		.loc 1 567 0
 5488 0022 02B0     		add	sp, sp, #8
 5489              		.cfi_remember_state
 5490              		.cfi_def_cfa_offset 16
 5491              		@ sp needed
 5492 0024 BDE87040 		pop	{r4, r5, r6, lr}
 5493              		.cfi_restore 14
 5494              		.cfi_restore 6
 5495              		.cfi_restore 5
 5496              		.cfi_restore 4
 5497              		.cfi_def_cfa_offset 0
 5498              	.LVL507:
 5499              		.loc 1 566 0
 5500 0028 FFF7FEBF 		b	parameter_string_set_w_len
 5501              	.LVL508:
 5502              	.L532:
 5503              		.cfi_restore_state
 5504 002c FFF7FEFF 		bl	__stack_chk_fail
 5505              	.LVL509:
 5506              	.L534:
 5507              		.align	2
 5508              	.L533:
 5509 0030 00000000 		.word	__stack_chk_guard
 5510              		.cfi_endproc
 5511              	.LFE296:
 5512              		.size	parameter_string_set, .-parameter_string_set
 5513              		.section	.rodata.__func__.8162,"a",%progbits
 5514              		.align	2
 5515              		.set	.LANCHOR0,. + 0
 5516              		.type	__func__.8162, %object
 5517              		.size	__func__.8162, 12
 5518              	__func__.8162:
 5519 0000 63685379 		.ascii	"chSysUnlock\000"
 5519      73556E6C 
 5519      6F636B00 
 5520              		.section	.rodata.__func__.9069,"a",%progbits
 5521              		.align	2
 5522              		.set	.LANCHOR1,. + 0
 5523              		.type	__func__.9069, %object
 5524              		.size	__func__.9069, 22
 5525              	__func__.9069:
 5526 0000 70617261 		.ascii	"parameter_scalar_read\000"
 5526      6D657465 
ARM GAS  /var/folders/d2/nstgp4h54kz7g1l847x_b8wc0000gn/T//ccW13lHv.s 			page 98


 5526      725F7363 
 5526      616C6172 
 5526      5F726561 
 5527              		.section	.rodata.__func__.9075,"a",%progbits
 5528              		.align	2
 5529              		.set	.LANCHOR2,. + 0
 5530              		.type	__func__.9075, %object
 5531              		.size	__func__.9075, 21
 5532              	__func__.9075:
 5533 0000 70617261 		.ascii	"parameter_scalar_set\000"
 5533      6D657465 
 5533      725F7363 
 5533      616C6172 
 5533      5F736574 
 5534              		.section	.rodata.__func__.9093,"a",%progbits
 5535              		.align	2
 5536              		.set	.LANCHOR3,. + 0
 5537              		.type	__func__.9093, %object
 5538              		.size	__func__.9093, 23
 5539              	__func__.9093:
 5540 0000 70617261 		.ascii	"parameter_integer_read\000"
 5540      6D657465 
 5540      725F696E 
 5540      74656765 
 5540      725F7265 
 5541              		.section	.rodata.__func__.9099,"a",%progbits
 5542              		.align	2
 5543              		.set	.LANCHOR4,. + 0
 5544              		.type	__func__.9099, %object
 5545              		.size	__func__.9099, 22
 5546              	__func__.9099:
 5547 0000 70617261 		.ascii	"parameter_integer_set\000"
 5547      6D657465 
 5547      725F696E 
 5547      74656765 
 5547      725F7365 
 5548              		.section	.rodata.__func__.9115,"a",%progbits
 5549              		.align	2
 5550              		.set	.LANCHOR5,. + 0
 5551              		.type	__func__.9115, %object
 5552              		.size	__func__.9115, 22
 5553              	__func__.9115:
 5554 0000 70617261 		.ascii	"parameter_boolean_set\000"
 5554      6D657465 
 5554      725F626F 
 5554      6F6C6561 
 5554      6E5F7365 
 5555              		.section	.rodata.__func__.9122,"a",%progbits
 5556              		.align	2
 5557              		.set	.LANCHOR6,. + 0
 5558              		.type	__func__.9122, %object
 5559              		.size	__func__.9122, 23
 5560              	__func__.9122:
 5561 0000 70617261 		.ascii	"parameter_boolean_read\000"
 5561      6D657465 
 5561      725F626F 
 5561      6F6C6561 
ARM GAS  /var/folders/d2/nstgp4h54kz7g1l847x_b8wc0000gn/T//ccW13lHv.s 			page 99


 5561      6E5F7265 
 5562              		.section	.rodata.__func__.9141,"a",%progbits
 5563              		.align	2
 5564              		.set	.LANCHOR7,. + 0
 5565              		.type	__func__.9141, %object
 5566              		.size	__func__.9141, 21
 5567              	__func__.9141:
 5568 0000 70617261 		.ascii	"parameter_vector_dim\000"
 5568      6D657465 
 5568      725F7665 
 5568      63746F72 
 5568      5F64696D 
 5569              		.section	.rodata.__func__.9150,"a",%progbits
 5570              		.align	2
 5571              		.set	.LANCHOR8,. + 0
 5572              		.type	__func__.9150, %object
 5573              		.size	__func__.9150, 22
 5574              	__func__.9150:
 5575 0000 70617261 		.ascii	"parameter_vector_read\000"
 5575      6D657465 
 5575      725F7665 
 5575      63746F72 
 5575      5F726561 
 5576              		.section	.rodata.__func__.9159,"a",%progbits
 5577              		.align	2
 5578              		.set	.LANCHOR9,. + 0
 5579              		.type	__func__.9159, %object
 5580              		.size	__func__.9159, 21
 5581              	__func__.9159:
 5582 0000 70617261 		.ascii	"parameter_vector_set\000"
 5582      6D657465 
 5582      725F7665 
 5582      63746F72 
 5582      5F736574 
 5583              		.section	.rodata.__func__.9179,"a",%progbits
 5584              		.align	2
 5585              		.set	.LANCHOR10,. + 0
 5586              		.type	__func__.9179, %object
 5587              		.size	__func__.9179, 47
 5588              	__func__.9179:
 5589 0000 70617261 		.ascii	"parameter_variable_vector_declare_with_default\000"
 5589      6D657465 
 5589      725F7661 
 5589      72696162 
 5589      6C655F76 
 5590              		.section	.rodata.__func__.9183,"a",%progbits
 5591              		.align	2
 5592              		.set	.LANCHOR11,. + 0
 5593              		.type	__func__.9183, %object
 5594              		.size	__func__.9183, 34
 5595              	__func__.9183:
 5596 0000 70617261 		.ascii	"parameter_variable_vector_max_dim\000"
 5596      6D657465 
 5596      725F7661 
 5596      72696162 
 5596      6C655F76 
 5597              		.section	.rodata.__func__.9192,"a",%progbits
ARM GAS  /var/folders/d2/nstgp4h54kz7g1l847x_b8wc0000gn/T//ccW13lHv.s 			page 100


 5598              		.align	2
 5599              		.set	.LANCHOR12,. + 0
 5600              		.type	__func__.9192, %object
 5601              		.size	__func__.9192, 31
 5602              	__func__.9192:
 5603 0000 70617261 		.ascii	"parameter_variable_vector_read\000"
 5603      6D657465 
 5603      725F7661 
 5603      72696162 
 5603      6C655F76 
 5604              		.section	.rodata.__func__.9203,"a",%progbits
 5605              		.align	2
 5606              		.set	.LANCHOR13,. + 0
 5607              		.type	__func__.9203, %object
 5608              		.size	__func__.9203, 30
 5609              	__func__.9203:
 5610 0000 70617261 		.ascii	"parameter_variable_vector_set\000"
 5610      6D657465 
 5610      725F7661 
 5610      72696162 
 5610      6C655F76 
 5611              		.section	.rodata.__func__.9223,"a",%progbits
 5612              		.align	2
 5613              		.set	.LANCHOR14,. + 0
 5614              		.type	__func__.9223, %object
 5615              		.size	__func__.9223, 38
 5616              	__func__.9223:
 5617 0000 70617261 		.ascii	"parameter_string_declare_with_default\000"
 5617      6D657465 
 5617      725F7374 
 5617      72696E67 
 5617      5F646563 
 5618              		.section	.rodata.__func__.9227,"a",%progbits
 5619              		.align	2
 5620              		.set	.LANCHOR15,. + 0
 5621              		.type	__func__.9227, %object
 5622              		.size	__func__.9227, 25
 5623              	__func__.9227:
 5624 0000 70617261 		.ascii	"parameter_string_max_len\000"
 5624      6D657465 
 5624      725F7374 
 5624      72696E67 
 5624      5F6D6178 
 5625              		.section	.rodata.__func__.9238,"a",%progbits
 5626              		.align	2
 5627              		.set	.LANCHOR16,. + 0
 5628              		.type	__func__.9238, %object
 5629              		.size	__func__.9238, 22
 5630              	__func__.9238:
 5631 0000 70617261 		.ascii	"parameter_string_read\000"
 5631      6D657465 
 5631      725F7374 
 5631      72696E67 
 5631      5F726561 
 5632              		.section	.rodata.__func__.9249,"a",%progbits
 5633              		.align	2
 5634              		.set	.LANCHOR17,. + 0
ARM GAS  /var/folders/d2/nstgp4h54kz7g1l847x_b8wc0000gn/T//ccW13lHv.s 			page 101


 5635              		.type	__func__.9249, %object
 5636              		.size	__func__.9249, 27
 5637              	__func__.9249:
 5638 0000 70617261 		.ascii	"parameter_string_set_w_len\000"
 5638      6D657465 
 5638      725F7374 
 5638      72696E67 
 5638      5F736574 
 5639              		.text
 5640              	.Letext0:
 5641              		.file 4 "/Applications/Eclipse_e-puck2.app/Contents/Eclipse_e-puck2/Tools/gcc-arm-none-eabi-7-2017
 5642              		.file 5 "/Applications/Eclipse_e-puck2.app/Contents/Eclipse_e-puck2/Tools/gcc-arm-none-eabi-7-2017
 5643              		.file 6 "/Applications/Eclipse_e-puck2.app/Contents/Eclipse_e-puck2/Tools/gcc-arm-none-eabi-7-2017
 5644              		.file 7 "/Applications/Eclipse_e-puck2.app/Contents/Eclipse_e-puck2/Tools/gcc-arm-none-eabi-7-2017
 5645              		.file 8 "/Applications/Eclipse_e-puck2.app/Contents/Eclipse_e-puck2/Tools/gcc-arm-none-eabi-7-2017
 5646              		.file 9 "/Applications/Eclipse_e-puck2.app/Contents/Eclipse_e-puck2/Tools/gcc-arm-none-eabi-7-2017
 5647              		.file 10 "/Applications/Eclipse_e-puck2.app/Contents/Eclipse_e-puck2/Tools/gcc-arm-none-eabi-7-201
 5648              		.file 11 "../e-puck2_main-processor/src/parameter/parameter.h"
 5649              		.file 12 "../e-puck2_main-processor/ChibiOS//os/rt/ports/ARMCMx/compilers/GCC/chtypes.h"
 5650              		.file 13 "../e-puck2_main-processor/ChibiOS//os/rt/include/chsystypes.h"
 5651              		.file 14 "../e-puck2_main-processor/ChibiOS//os/rt/include/chschd.h"
 5652              		.file 15 "../e-puck2_main-processor/ChibiOS//os/ext/CMSIS/include/core_cm4.h"
 5653              		.file 16 "../e-puck2_main-processor/ChibiOS//os/ext/CMSIS/ST/system_stm32f4xx.h"
 5654              		.file 17 "../e-puck2_main-processor/ChibiOS//os/rt/ports/ARMCMx/chcore.h"
 5655              		.file 18 "../e-puck2_main-processor/ChibiOS//os/rt/ports/ARMCMx/chcore_v7m.h"
 5656              		.file 19 "../e-puck2_main-processor/ChibiOS//os/rt/include/chdebug.h"
 5657              		.file 20 "../e-puck2_main-processor/ChibiOS//os/rt/include/chtm.h"
 5658              		.file 21 "../e-puck2_main-processor/ChibiOS//os/rt/include/chstats.h"
 5659              		.file 22 "../e-puck2_main-processor/ChibiOS//os/rt/include/chsem.h"
 5660              		.file 23 "../e-puck2_main-processor/ChibiOS//os/rt/include/chmtx.h"
 5661              		.file 24 "../e-puck2_main-processor/ChibiOS//os/rt/include/chregistry.h"
 5662              		.file 25 "/Applications/Eclipse_e-puck2.app/Contents/Eclipse_e-puck2/Tools/gcc-arm-none-eabi-7-201
 5663              		.file 26 "<built-in>"
 5664              		.section	.debug_info,"",%progbits
 5665              	.Ldebug_info0:
 5666 0000 3E410000 		.4byte	0x413e
 5667 0004 0400     		.2byte	0x4
 5668 0006 00000000 		.4byte	.Ldebug_abbrev0
 5669 000a 04       		.byte	0x4
 5670 000b 01       		.uleb128 0x1
 5671 000c BB000000 		.4byte	.LASF363
 5672 0010 0C       		.byte	0xc
 5673 0011 96090000 		.4byte	.LASF364
 5674 0015 F60F0000 		.4byte	.LASF365
 5675 0019 48030000 		.4byte	.Ldebug_ranges0+0x348
 5676 001d 00000000 		.4byte	0
 5677 0021 00000000 		.4byte	.Ldebug_line0
 5678 0025 02       		.uleb128 0x2
 5679 0026 04       		.byte	0x4
 5680 0027 04       		.byte	0x4
 5681 0028 250B0000 		.4byte	.LASF0
 5682 002c 03       		.uleb128 0x3
 5683 002d 04       		.byte	0x4
 5684 002e 05       		.byte	0x5
 5685 002f 696E7400 		.ascii	"int\000"
 5686 0033 04       		.uleb128 0x4
 5687 0034 2C000000 		.4byte	.LASF5
ARM GAS  /var/folders/d2/nstgp4h54kz7g1l847x_b8wc0000gn/T//ccW13lHv.s 			page 102


 5688 0038 04       		.byte	0x4
 5689 0039 D8       		.byte	0xd8
 5690 003a 3E000000 		.4byte	0x3e
 5691 003e 02       		.uleb128 0x2
 5692 003f 04       		.byte	0x4
 5693 0040 07       		.byte	0x7
 5694 0041 690B0000 		.4byte	.LASF1
 5695 0045 02       		.uleb128 0x2
 5696 0046 08       		.byte	0x8
 5697 0047 05       		.byte	0x5
 5698 0048 730A0000 		.4byte	.LASF2
 5699 004c 02       		.uleb128 0x2
 5700 004d 08       		.byte	0x8
 5701 004e 04       		.byte	0x4
 5702 004f E10C0000 		.4byte	.LASF3
 5703 0053 02       		.uleb128 0x2
 5704 0054 01       		.byte	0x1
 5705 0055 06       		.byte	0x6
 5706 0056 4A050000 		.4byte	.LASF4
 5707 005a 04       		.uleb128 0x4
 5708 005b E8030000 		.4byte	.LASF6
 5709 005f 05       		.byte	0x5
 5710 0060 2B       		.byte	0x2b
 5711 0061 65000000 		.4byte	0x65
 5712 0065 02       		.uleb128 0x2
 5713 0066 01       		.byte	0x1
 5714 0067 08       		.byte	0x8
 5715 0068 AF050000 		.4byte	.LASF7
 5716 006c 02       		.uleb128 0x2
 5717 006d 02       		.byte	0x2
 5718 006e 05       		.byte	0x5
 5719 006f A80F0000 		.4byte	.LASF8
 5720 0073 04       		.uleb128 0x4
 5721 0074 E3060000 		.4byte	.LASF9
 5722 0078 05       		.byte	0x5
 5723 0079 39       		.byte	0x39
 5724 007a 7E000000 		.4byte	0x7e
 5725 007e 02       		.uleb128 0x2
 5726 007f 02       		.byte	0x2
 5727 0080 07       		.byte	0x7
 5728 0081 27120000 		.4byte	.LASF10
 5729 0085 04       		.uleb128 0x4
 5730 0086 A7120000 		.4byte	.LASF11
 5731 008a 05       		.byte	0x5
 5732 008b 4D       		.byte	0x4d
 5733 008c 90000000 		.4byte	0x90
 5734 0090 02       		.uleb128 0x2
 5735 0091 04       		.byte	0x4
 5736 0092 05       		.byte	0x5
 5737 0093 31040000 		.4byte	.LASF12
 5738 0097 04       		.uleb128 0x4
 5739 0098 4C0A0000 		.4byte	.LASF13
 5740 009c 05       		.byte	0x5
 5741 009d 4F       		.byte	0x4f
 5742 009e A2000000 		.4byte	0xa2
 5743 00a2 02       		.uleb128 0x2
 5744 00a3 04       		.byte	0x4
ARM GAS  /var/folders/d2/nstgp4h54kz7g1l847x_b8wc0000gn/T//ccW13lHv.s 			page 103


 5745 00a4 07       		.byte	0x7
 5746 00a5 84080000 		.4byte	.LASF14
 5747 00a9 04       		.uleb128 0x4
 5748 00aa 5B080000 		.4byte	.LASF15
 5749 00ae 05       		.byte	0x5
 5750 00af 69       		.byte	0x69
 5751 00b0 B4000000 		.4byte	0xb4
 5752 00b4 02       		.uleb128 0x2
 5753 00b5 08       		.byte	0x8
 5754 00b6 07       		.byte	0x7
 5755 00b7 A20D0000 		.4byte	.LASF16
 5756 00bb 04       		.uleb128 0x4
 5757 00bc 1D110000 		.4byte	.LASF17
 5758 00c0 06       		.byte	0x6
 5759 00c1 22       		.byte	0x22
 5760 00c2 C6000000 		.4byte	0xc6
 5761 00c6 05       		.uleb128 0x5
 5762 00c7 04       		.byte	0x4
 5763 00c8 CC000000 		.4byte	0xcc
 5764 00cc 06       		.uleb128 0x6
 5765 00cd DD070000 		.4byte	.LASF124
 5766 00d1 04       		.uleb128 0x4
 5767 00d2 0C120000 		.4byte	.LASF18
 5768 00d6 07       		.byte	0x7
 5769 00d7 2C       		.byte	0x2c
 5770 00d8 90000000 		.4byte	0x90
 5771 00dc 04       		.uleb128 0x4
 5772 00dd 3C0D0000 		.4byte	.LASF19
 5773 00e1 07       		.byte	0x7
 5774 00e2 72       		.byte	0x72
 5775 00e3 90000000 		.4byte	0x90
 5776 00e7 07       		.uleb128 0x7
 5777 00e8 180F0000 		.4byte	.LASF20
 5778 00ec 04       		.byte	0x4
 5779 00ed 6501     		.2byte	0x165
 5780 00ef 3E000000 		.4byte	0x3e
 5781 00f3 08       		.uleb128 0x8
 5782 00f4 04       		.byte	0x4
 5783 00f5 07       		.byte	0x7
 5784 00f6 A6       		.byte	0xa6
 5785 00f7 12010000 		.4byte	0x112
 5786 00fb 09       		.uleb128 0x9
 5787 00fc D9030000 		.4byte	.LASF21
 5788 0100 07       		.byte	0x7
 5789 0101 A8       		.byte	0xa8
 5790 0102 E7000000 		.4byte	0xe7
 5791 0106 09       		.uleb128 0x9
 5792 0107 440D0000 		.4byte	.LASF22
 5793 010b 07       		.byte	0x7
 5794 010c A9       		.byte	0xa9
 5795 010d 12010000 		.4byte	0x112
 5796 0111 00       		.byte	0
 5797 0112 0A       		.uleb128 0xa
 5798 0113 65000000 		.4byte	0x65
 5799 0117 22010000 		.4byte	0x122
 5800 011b 0B       		.uleb128 0xb
 5801 011c 3E000000 		.4byte	0x3e
ARM GAS  /var/folders/d2/nstgp4h54kz7g1l847x_b8wc0000gn/T//ccW13lHv.s 			page 104


 5802 0120 03       		.byte	0x3
 5803 0121 00       		.byte	0
 5804 0122 0C       		.uleb128 0xc
 5805 0123 08       		.byte	0x8
 5806 0124 07       		.byte	0x7
 5807 0125 A3       		.byte	0xa3
 5808 0126 43010000 		.4byte	0x143
 5809 012a 0D       		.uleb128 0xd
 5810 012b A80C0000 		.4byte	.LASF23
 5811 012f 07       		.byte	0x7
 5812 0130 A5       		.byte	0xa5
 5813 0131 2C000000 		.4byte	0x2c
 5814 0135 00       		.byte	0
 5815 0136 0D       		.uleb128 0xd
 5816 0137 50000000 		.4byte	.LASF24
 5817 013b 07       		.byte	0x7
 5818 013c AA       		.byte	0xaa
 5819 013d F3000000 		.4byte	0xf3
 5820 0141 04       		.byte	0x4
 5821 0142 00       		.byte	0
 5822 0143 04       		.uleb128 0x4
 5823 0144 E70E0000 		.4byte	.LASF25
 5824 0148 07       		.byte	0x7
 5825 0149 AB       		.byte	0xab
 5826 014a 22010000 		.4byte	0x122
 5827 014e 04       		.uleb128 0x4
 5828 014f A70E0000 		.4byte	.LASF26
 5829 0153 07       		.byte	0x7
 5830 0154 AF       		.byte	0xaf
 5831 0155 BB000000 		.4byte	0xbb
 5832 0159 0E       		.uleb128 0xe
 5833 015a 04       		.byte	0x4
 5834 015b 05       		.uleb128 0x5
 5835 015c 04       		.byte	0x4
 5836 015d 61010000 		.4byte	0x161
 5837 0161 02       		.uleb128 0x2
 5838 0162 01       		.byte	0x1
 5839 0163 08       		.byte	0x8
 5840 0164 C5060000 		.4byte	.LASF27
 5841 0168 0F       		.uleb128 0xf
 5842 0169 61010000 		.4byte	0x161
 5843 016d 04       		.uleb128 0x4
 5844 016e DA110000 		.4byte	.LASF28
 5845 0172 08       		.byte	0x8
 5846 0173 16       		.byte	0x16
 5847 0174 A2000000 		.4byte	0xa2
 5848 0178 10       		.uleb128 0x10
 5849 0179 CA090000 		.4byte	.LASF33
 5850 017d 18       		.byte	0x18
 5851 017e 08       		.byte	0x8
 5852 017f 2F       		.byte	0x2f
 5853 0180 CB010000 		.4byte	0x1cb
 5854 0184 0D       		.uleb128 0xd
 5855 0185 1F0F0000 		.4byte	.LASF29
 5856 0189 08       		.byte	0x8
 5857 018a 31       		.byte	0x31
 5858 018b CB010000 		.4byte	0x1cb
ARM GAS  /var/folders/d2/nstgp4h54kz7g1l847x_b8wc0000gn/T//ccW13lHv.s 			page 105


 5859 018f 00       		.byte	0
 5860 0190 11       		.uleb128 0x11
 5861 0191 5F6B00   		.ascii	"_k\000"
 5862 0194 08       		.byte	0x8
 5863 0195 32       		.byte	0x32
 5864 0196 2C000000 		.4byte	0x2c
 5865 019a 04       		.byte	0x4
 5866 019b 0D       		.uleb128 0xd
 5867 019c F1090000 		.4byte	.LASF30
 5868 01a0 08       		.byte	0x8
 5869 01a1 32       		.byte	0x32
 5870 01a2 2C000000 		.4byte	0x2c
 5871 01a6 08       		.byte	0x8
 5872 01a7 0D       		.uleb128 0xd
 5873 01a8 1F0B0000 		.4byte	.LASF31
 5874 01ac 08       		.byte	0x8
 5875 01ad 32       		.byte	0x32
 5876 01ae 2C000000 		.4byte	0x2c
 5877 01b2 0C       		.byte	0xc
 5878 01b3 0D       		.uleb128 0xd
 5879 01b4 CA070000 		.4byte	.LASF32
 5880 01b8 08       		.byte	0x8
 5881 01b9 32       		.byte	0x32
 5882 01ba 2C000000 		.4byte	0x2c
 5883 01be 10       		.byte	0x10
 5884 01bf 11       		.uleb128 0x11
 5885 01c0 5F7800   		.ascii	"_x\000"
 5886 01c3 08       		.byte	0x8
 5887 01c4 33       		.byte	0x33
 5888 01c5 D1010000 		.4byte	0x1d1
 5889 01c9 14       		.byte	0x14
 5890 01ca 00       		.byte	0
 5891 01cb 05       		.uleb128 0x5
 5892 01cc 04       		.byte	0x4
 5893 01cd 78010000 		.4byte	0x178
 5894 01d1 0A       		.uleb128 0xa
 5895 01d2 6D010000 		.4byte	0x16d
 5896 01d6 E1010000 		.4byte	0x1e1
 5897 01da 0B       		.uleb128 0xb
 5898 01db 3E000000 		.4byte	0x3e
 5899 01df 00       		.byte	0
 5900 01e0 00       		.byte	0
 5901 01e1 10       		.uleb128 0x10
 5902 01e2 9F020000 		.4byte	.LASF34
 5903 01e6 24       		.byte	0x24
 5904 01e7 08       		.byte	0x8
 5905 01e8 37       		.byte	0x37
 5906 01e9 5A020000 		.4byte	0x25a
 5907 01ed 0D       		.uleb128 0xd
 5908 01ee BB020000 		.4byte	.LASF35
 5909 01f2 08       		.byte	0x8
 5910 01f3 39       		.byte	0x39
 5911 01f4 2C000000 		.4byte	0x2c
 5912 01f8 00       		.byte	0
 5913 01f9 0D       		.uleb128 0xd
 5914 01fa 03130000 		.4byte	.LASF36
 5915 01fe 08       		.byte	0x8
ARM GAS  /var/folders/d2/nstgp4h54kz7g1l847x_b8wc0000gn/T//ccW13lHv.s 			page 106


 5916 01ff 3A       		.byte	0x3a
 5917 0200 2C000000 		.4byte	0x2c
 5918 0204 04       		.byte	0x4
 5919 0205 0D       		.uleb128 0xd
 5920 0206 3A120000 		.4byte	.LASF37
 5921 020a 08       		.byte	0x8
 5922 020b 3B       		.byte	0x3b
 5923 020c 2C000000 		.4byte	0x2c
 5924 0210 08       		.byte	0x8
 5925 0211 0D       		.uleb128 0xd
 5926 0212 BB0B0000 		.4byte	.LASF38
 5927 0216 08       		.byte	0x8
 5928 0217 3C       		.byte	0x3c
 5929 0218 2C000000 		.4byte	0x2c
 5930 021c 0C       		.byte	0xc
 5931 021d 0D       		.uleb128 0xd
 5932 021e F9040000 		.4byte	.LASF39
 5933 0222 08       		.byte	0x8
 5934 0223 3D       		.byte	0x3d
 5935 0224 2C000000 		.4byte	0x2c
 5936 0228 10       		.byte	0x10
 5937 0229 0D       		.uleb128 0xd
 5938 022a 5E100000 		.4byte	.LASF40
 5939 022e 08       		.byte	0x8
 5940 022f 3E       		.byte	0x3e
 5941 0230 2C000000 		.4byte	0x2c
 5942 0234 14       		.byte	0x14
 5943 0235 0D       		.uleb128 0xd
 5944 0236 CE0C0000 		.4byte	.LASF41
 5945 023a 08       		.byte	0x8
 5946 023b 3F       		.byte	0x3f
 5947 023c 2C000000 		.4byte	0x2c
 5948 0240 18       		.byte	0x18
 5949 0241 0D       		.uleb128 0xd
 5950 0242 F50C0000 		.4byte	.LASF42
 5951 0246 08       		.byte	0x8
 5952 0247 40       		.byte	0x40
 5953 0248 2C000000 		.4byte	0x2c
 5954 024c 1C       		.byte	0x1c
 5955 024d 0D       		.uleb128 0xd
 5956 024e D1120000 		.4byte	.LASF43
 5957 0252 08       		.byte	0x8
 5958 0253 41       		.byte	0x41
 5959 0254 2C000000 		.4byte	0x2c
 5960 0258 20       		.byte	0x20
 5961 0259 00       		.byte	0
 5962 025a 12       		.uleb128 0x12
 5963 025b 0D040000 		.4byte	.LASF44
 5964 025f 0801     		.2byte	0x108
 5965 0261 08       		.byte	0x8
 5966 0262 4A       		.byte	0x4a
 5967 0263 9A020000 		.4byte	0x29a
 5968 0267 0D       		.uleb128 0xd
 5969 0268 BA120000 		.4byte	.LASF45
 5970 026c 08       		.byte	0x8
 5971 026d 4B       		.byte	0x4b
 5972 026e 9A020000 		.4byte	0x29a
ARM GAS  /var/folders/d2/nstgp4h54kz7g1l847x_b8wc0000gn/T//ccW13lHv.s 			page 107


 5973 0272 00       		.byte	0
 5974 0273 0D       		.uleb128 0xd
 5975 0274 CA0D0000 		.4byte	.LASF46
 5976 0278 08       		.byte	0x8
 5977 0279 4C       		.byte	0x4c
 5978 027a 9A020000 		.4byte	0x29a
 5979 027e 80       		.byte	0x80
 5980 027f 13       		.uleb128 0x13
 5981 0280 E60F0000 		.4byte	.LASF47
 5982 0284 08       		.byte	0x8
 5983 0285 4E       		.byte	0x4e
 5984 0286 6D010000 		.4byte	0x16d
 5985 028a 0001     		.2byte	0x100
 5986 028c 13       		.uleb128 0x13
 5987 028d 15110000 		.4byte	.LASF48
 5988 0291 08       		.byte	0x8
 5989 0292 51       		.byte	0x51
 5990 0293 6D010000 		.4byte	0x16d
 5991 0297 0401     		.2byte	0x104
 5992 0299 00       		.byte	0
 5993 029a 0A       		.uleb128 0xa
 5994 029b 59010000 		.4byte	0x159
 5995 029f AA020000 		.4byte	0x2aa
 5996 02a3 0B       		.uleb128 0xb
 5997 02a4 3E000000 		.4byte	0x3e
 5998 02a8 1F       		.byte	0x1f
 5999 02a9 00       		.byte	0
 6000 02aa 12       		.uleb128 0x12
 6001 02ab 810C0000 		.4byte	.LASF49
 6002 02af 9001     		.2byte	0x190
 6003 02b1 08       		.byte	0x8
 6004 02b2 5D       		.byte	0x5d
 6005 02b3 E8020000 		.4byte	0x2e8
 6006 02b7 0D       		.uleb128 0xd
 6007 02b8 1F0F0000 		.4byte	.LASF29
 6008 02bc 08       		.byte	0x8
 6009 02bd 5E       		.byte	0x5e
 6010 02be E8020000 		.4byte	0x2e8
 6011 02c2 00       		.byte	0
 6012 02c3 0D       		.uleb128 0xd
 6013 02c4 E0100000 		.4byte	.LASF50
 6014 02c8 08       		.byte	0x8
 6015 02c9 5F       		.byte	0x5f
 6016 02ca 2C000000 		.4byte	0x2c
 6017 02ce 04       		.byte	0x4
 6018 02cf 0D       		.uleb128 0xd
 6019 02d0 D0060000 		.4byte	.LASF51
 6020 02d4 08       		.byte	0x8
 6021 02d5 61       		.byte	0x61
 6022 02d6 EE020000 		.4byte	0x2ee
 6023 02da 08       		.byte	0x8
 6024 02db 0D       		.uleb128 0xd
 6025 02dc 0D040000 		.4byte	.LASF44
 6026 02e0 08       		.byte	0x8
 6027 02e1 62       		.byte	0x62
 6028 02e2 5A020000 		.4byte	0x25a
 6029 02e6 88       		.byte	0x88
ARM GAS  /var/folders/d2/nstgp4h54kz7g1l847x_b8wc0000gn/T//ccW13lHv.s 			page 108


 6030 02e7 00       		.byte	0
 6031 02e8 05       		.uleb128 0x5
 6032 02e9 04       		.byte	0x4
 6033 02ea AA020000 		.4byte	0x2aa
 6034 02ee 0A       		.uleb128 0xa
 6035 02ef FE020000 		.4byte	0x2fe
 6036 02f3 FE020000 		.4byte	0x2fe
 6037 02f7 0B       		.uleb128 0xb
 6038 02f8 3E000000 		.4byte	0x3e
 6039 02fc 1F       		.byte	0x1f
 6040 02fd 00       		.byte	0
 6041 02fe 05       		.uleb128 0x5
 6042 02ff 04       		.byte	0x4
 6043 0300 04030000 		.4byte	0x304
 6044 0304 14       		.uleb128 0x14
 6045 0305 10       		.uleb128 0x10
 6046 0306 07110000 		.4byte	.LASF52
 6047 030a 08       		.byte	0x8
 6048 030b 08       		.byte	0x8
 6049 030c 75       		.byte	0x75
 6050 030d 2A030000 		.4byte	0x32a
 6051 0311 0D       		.uleb128 0xd
 6052 0312 360E0000 		.4byte	.LASF53
 6053 0316 08       		.byte	0x8
 6054 0317 76       		.byte	0x76
 6055 0318 2A030000 		.4byte	0x32a
 6056 031c 00       		.byte	0
 6057 031d 0D       		.uleb128 0xd
 6058 031e 70040000 		.4byte	.LASF54
 6059 0322 08       		.byte	0x8
 6060 0323 77       		.byte	0x77
 6061 0324 2C000000 		.4byte	0x2c
 6062 0328 04       		.byte	0x4
 6063 0329 00       		.byte	0
 6064 032a 05       		.uleb128 0x5
 6065 032b 04       		.byte	0x4
 6066 032c 65000000 		.4byte	0x65
 6067 0330 10       		.uleb128 0x10
 6068 0331 C8080000 		.4byte	.LASF55
 6069 0335 68       		.byte	0x68
 6070 0336 08       		.byte	0x8
 6071 0337 B5       		.byte	0xb5
 6072 0338 5A040000 		.4byte	0x45a
 6073 033c 11       		.uleb128 0x11
 6074 033d 5F7000   		.ascii	"_p\000"
 6075 0340 08       		.byte	0x8
 6076 0341 B6       		.byte	0xb6
 6077 0342 2A030000 		.4byte	0x32a
 6078 0346 00       		.byte	0
 6079 0347 11       		.uleb128 0x11
 6080 0348 5F7200   		.ascii	"_r\000"
 6081 034b 08       		.byte	0x8
 6082 034c B7       		.byte	0xb7
 6083 034d 2C000000 		.4byte	0x2c
 6084 0351 04       		.byte	0x4
 6085 0352 11       		.uleb128 0x11
 6086 0353 5F7700   		.ascii	"_w\000"
ARM GAS  /var/folders/d2/nstgp4h54kz7g1l847x_b8wc0000gn/T//ccW13lHv.s 			page 109


 6087 0356 08       		.byte	0x8
 6088 0357 B8       		.byte	0xb8
 6089 0358 2C000000 		.4byte	0x2c
 6090 035c 08       		.byte	0x8
 6091 035d 0D       		.uleb128 0xd
 6092 035e 600C0000 		.4byte	.LASF56
 6093 0362 08       		.byte	0x8
 6094 0363 B9       		.byte	0xb9
 6095 0364 6C000000 		.4byte	0x6c
 6096 0368 0C       		.byte	0xc
 6097 0369 0D       		.uleb128 0xd
 6098 036a F9030000 		.4byte	.LASF57
 6099 036e 08       		.byte	0x8
 6100 036f BA       		.byte	0xba
 6101 0370 6C000000 		.4byte	0x6c
 6102 0374 0E       		.byte	0xe
 6103 0375 11       		.uleb128 0x11
 6104 0376 5F626600 		.ascii	"_bf\000"
 6105 037a 08       		.byte	0x8
 6106 037b BB       		.byte	0xbb
 6107 037c 05030000 		.4byte	0x305
 6108 0380 10       		.byte	0x10
 6109 0381 0D       		.uleb128 0xd
 6110 0382 CB100000 		.4byte	.LASF58
 6111 0386 08       		.byte	0x8
 6112 0387 BC       		.byte	0xbc
 6113 0388 2C000000 		.4byte	0x2c
 6114 038c 18       		.byte	0x18
 6115 038d 0D       		.uleb128 0xd
 6116 038e 9E070000 		.4byte	.LASF59
 6117 0392 08       		.byte	0x8
 6118 0393 C3       		.byte	0xc3
 6119 0394 59010000 		.4byte	0x159
 6120 0398 1C       		.byte	0x1c
 6121 0399 0D       		.uleb128 0xd
 6122 039a AD000000 		.4byte	.LASF60
 6123 039e 08       		.byte	0x8
 6124 039f C5       		.byte	0xc5
 6125 03a0 B5050000 		.4byte	0x5b5
 6126 03a4 20       		.byte	0x20
 6127 03a5 0D       		.uleb128 0xd
 6128 03a6 13020000 		.4byte	.LASF61
 6129 03aa 08       		.byte	0x8
 6130 03ab C7       		.byte	0xc7
 6131 03ac E4050000 		.4byte	0x5e4
 6132 03b0 24       		.byte	0x24
 6133 03b1 0D       		.uleb128 0xd
 6134 03b2 210D0000 		.4byte	.LASF62
 6135 03b6 08       		.byte	0x8
 6136 03b7 CA       		.byte	0xca
 6137 03b8 08060000 		.4byte	0x608
 6138 03bc 28       		.byte	0x28
 6139 03bd 0D       		.uleb128 0xd
 6140 03be D5060000 		.4byte	.LASF63
 6141 03c2 08       		.byte	0x8
 6142 03c3 CB       		.byte	0xcb
 6143 03c4 22060000 		.4byte	0x622
ARM GAS  /var/folders/d2/nstgp4h54kz7g1l847x_b8wc0000gn/T//ccW13lHv.s 			page 110


 6144 03c8 2C       		.byte	0x2c
 6145 03c9 11       		.uleb128 0x11
 6146 03ca 5F756200 		.ascii	"_ub\000"
 6147 03ce 08       		.byte	0x8
 6148 03cf CE       		.byte	0xce
 6149 03d0 05030000 		.4byte	0x305
 6150 03d4 30       		.byte	0x30
 6151 03d5 11       		.uleb128 0x11
 6152 03d6 5F757000 		.ascii	"_up\000"
 6153 03da 08       		.byte	0x8
 6154 03db CF       		.byte	0xcf
 6155 03dc 2A030000 		.4byte	0x32a
 6156 03e0 38       		.byte	0x38
 6157 03e1 11       		.uleb128 0x11
 6158 03e2 5F757200 		.ascii	"_ur\000"
 6159 03e6 08       		.byte	0x8
 6160 03e7 D0       		.byte	0xd0
 6161 03e8 2C000000 		.4byte	0x2c
 6162 03ec 3C       		.byte	0x3c
 6163 03ed 0D       		.uleb128 0xd
 6164 03ee EE0B0000 		.4byte	.LASF64
 6165 03f2 08       		.byte	0x8
 6166 03f3 D3       		.byte	0xd3
 6167 03f4 28060000 		.4byte	0x628
 6168 03f8 40       		.byte	0x40
 6169 03f9 0D       		.uleb128 0xd
 6170 03fa B5020000 		.4byte	.LASF65
 6171 03fe 08       		.byte	0x8
 6172 03ff D4       		.byte	0xd4
 6173 0400 38060000 		.4byte	0x638
 6174 0404 43       		.byte	0x43
 6175 0405 11       		.uleb128 0x11
 6176 0406 5F6C6200 		.ascii	"_lb\000"
 6177 040a 08       		.byte	0x8
 6178 040b D7       		.byte	0xd7
 6179 040c 05030000 		.4byte	0x305
 6180 0410 44       		.byte	0x44
 6181 0411 0D       		.uleb128 0xd
 6182 0412 2D0E0000 		.4byte	.LASF66
 6183 0416 08       		.byte	0x8
 6184 0417 DA       		.byte	0xda
 6185 0418 2C000000 		.4byte	0x2c
 6186 041c 4C       		.byte	0x4c
 6187 041d 0D       		.uleb128 0xd
 6188 041e EE070000 		.4byte	.LASF67
 6189 0422 08       		.byte	0x8
 6190 0423 DB       		.byte	0xdb
 6191 0424 D1000000 		.4byte	0xd1
 6192 0428 50       		.byte	0x50
 6193 0429 0D       		.uleb128 0xd
 6194 042a 250F0000 		.4byte	.LASF68
 6195 042e 08       		.byte	0x8
 6196 042f DE       		.byte	0xde
 6197 0430 78040000 		.4byte	0x478
 6198 0434 54       		.byte	0x54
 6199 0435 0D       		.uleb128 0xd
 6200 0436 21030000 		.4byte	.LASF69
ARM GAS  /var/folders/d2/nstgp4h54kz7g1l847x_b8wc0000gn/T//ccW13lHv.s 			page 111


 6201 043a 08       		.byte	0x8
 6202 043b E2       		.byte	0xe2
 6203 043c 4E010000 		.4byte	0x14e
 6204 0440 58       		.byte	0x58
 6205 0441 0D       		.uleb128 0xd
 6206 0442 350C0000 		.4byte	.LASF70
 6207 0446 08       		.byte	0x8
 6208 0447 E4       		.byte	0xe4
 6209 0448 43010000 		.4byte	0x143
 6210 044c 5C       		.byte	0x5c
 6211 044d 0D       		.uleb128 0xd
 6212 044e DB080000 		.4byte	.LASF71
 6213 0452 08       		.byte	0x8
 6214 0453 E5       		.byte	0xe5
 6215 0454 2C000000 		.4byte	0x2c
 6216 0458 64       		.byte	0x64
 6217 0459 00       		.byte	0
 6218 045a 15       		.uleb128 0x15
 6219 045b 2C000000 		.4byte	0x2c
 6220 045f 78040000 		.4byte	0x478
 6221 0463 16       		.uleb128 0x16
 6222 0464 78040000 		.4byte	0x478
 6223 0468 16       		.uleb128 0x16
 6224 0469 59010000 		.4byte	0x159
 6225 046d 16       		.uleb128 0x16
 6226 046e 5B010000 		.4byte	0x15b
 6227 0472 16       		.uleb128 0x16
 6228 0473 2C000000 		.4byte	0x2c
 6229 0477 00       		.byte	0
 6230 0478 05       		.uleb128 0x5
 6231 0479 04       		.byte	0x4
 6232 047a 83040000 		.4byte	0x483
 6233 047e 0F       		.uleb128 0xf
 6234 047f 78040000 		.4byte	0x478
 6235 0483 17       		.uleb128 0x17
 6236 0484 34060000 		.4byte	.LASF72
 6237 0488 2804     		.2byte	0x428
 6238 048a 08       		.byte	0x8
 6239 048b 3902     		.2byte	0x239
 6240 048d B5050000 		.4byte	0x5b5
 6241 0491 18       		.uleb128 0x18
 6242 0492 42090000 		.4byte	.LASF73
 6243 0496 08       		.byte	0x8
 6244 0497 3B02     		.2byte	0x23b
 6245 0499 2C000000 		.4byte	0x2c
 6246 049d 00       		.byte	0
 6247 049e 18       		.uleb128 0x18
 6248 049f 20070000 		.4byte	.LASF74
 6249 04a3 08       		.byte	0x8
 6250 04a4 4002     		.2byte	0x240
 6251 04a6 8F060000 		.4byte	0x68f
 6252 04aa 04       		.byte	0x4
 6253 04ab 18       		.uleb128 0x18
 6254 04ac 020E0000 		.4byte	.LASF75
 6255 04b0 08       		.byte	0x8
 6256 04b1 4002     		.2byte	0x240
 6257 04b3 8F060000 		.4byte	0x68f
ARM GAS  /var/folders/d2/nstgp4h54kz7g1l847x_b8wc0000gn/T//ccW13lHv.s 			page 112


 6258 04b7 08       		.byte	0x8
 6259 04b8 18       		.uleb128 0x18
 6260 04b9 000C0000 		.4byte	.LASF76
 6261 04bd 08       		.byte	0x8
 6262 04be 4002     		.2byte	0x240
 6263 04c0 8F060000 		.4byte	0x68f
 6264 04c4 0C       		.byte	0xc
 6265 04c5 18       		.uleb128 0x18
 6266 04c6 DB100000 		.4byte	.LASF77
 6267 04ca 08       		.byte	0x8
 6268 04cb 4202     		.2byte	0x242
 6269 04cd 2C000000 		.4byte	0x2c
 6270 04d1 10       		.byte	0x10
 6271 04d2 18       		.uleb128 0x18
 6272 04d3 570A0000 		.4byte	.LASF78
 6273 04d7 08       		.byte	0x8
 6274 04d8 4302     		.2byte	0x243
 6275 04da 71080000 		.4byte	0x871
 6276 04de 14       		.byte	0x14
 6277 04df 18       		.uleb128 0x18
 6278 04e0 1B060000 		.4byte	.LASF79
 6279 04e4 08       		.byte	0x8
 6280 04e5 4602     		.2byte	0x246
 6281 04e7 2C000000 		.4byte	0x2c
 6282 04eb 30       		.byte	0x30
 6283 04ec 18       		.uleb128 0x18
 6284 04ed D2110000 		.4byte	.LASF80
 6285 04f1 08       		.byte	0x8
 6286 04f2 4702     		.2byte	0x247
 6287 04f4 86080000 		.4byte	0x886
 6288 04f8 34       		.byte	0x34
 6289 04f9 18       		.uleb128 0x18
 6290 04fa D0080000 		.4byte	.LASF81
 6291 04fe 08       		.byte	0x8
 6292 04ff 4902     		.2byte	0x249
 6293 0501 2C000000 		.4byte	0x2c
 6294 0505 38       		.byte	0x38
 6295 0506 18       		.uleb128 0x18
 6296 0507 FF090000 		.4byte	.LASF82
 6297 050b 08       		.byte	0x8
 6298 050c 4B02     		.2byte	0x24b
 6299 050e 97080000 		.4byte	0x897
 6300 0512 3C       		.byte	0x3c
 6301 0513 18       		.uleb128 0x18
 6302 0514 EB110000 		.4byte	.LASF83
 6303 0518 08       		.byte	0x8
 6304 0519 4E02     		.2byte	0x24e
 6305 051b CB010000 		.4byte	0x1cb
 6306 051f 40       		.byte	0x40
 6307 0520 18       		.uleb128 0x18
 6308 0521 59040000 		.4byte	.LASF84
 6309 0525 08       		.byte	0x8
 6310 0526 4F02     		.2byte	0x24f
 6311 0528 2C000000 		.4byte	0x2c
 6312 052c 44       		.byte	0x44
 6313 052d 18       		.uleb128 0x18
 6314 052e 7F080000 		.4byte	.LASF85
ARM GAS  /var/folders/d2/nstgp4h54kz7g1l847x_b8wc0000gn/T//ccW13lHv.s 			page 113


 6315 0532 08       		.byte	0x8
 6316 0533 5002     		.2byte	0x250
 6317 0535 CB010000 		.4byte	0x1cb
 6318 0539 48       		.byte	0x48
 6319 053a 18       		.uleb128 0x18
 6320 053b F50A0000 		.4byte	.LASF86
 6321 053f 08       		.byte	0x8
 6322 0540 5102     		.2byte	0x251
 6323 0542 9D080000 		.4byte	0x89d
 6324 0546 4C       		.byte	0x4c
 6325 0547 18       		.uleb128 0x18
 6326 0548 35020000 		.4byte	.LASF87
 6327 054c 08       		.byte	0x8
 6328 054d 5402     		.2byte	0x254
 6329 054f 2C000000 		.4byte	0x2c
 6330 0553 50       		.byte	0x50
 6331 0554 18       		.uleb128 0x18
 6332 0555 F6070000 		.4byte	.LASF88
 6333 0559 08       		.byte	0x8
 6334 055a 5502     		.2byte	0x255
 6335 055c 5B010000 		.4byte	0x15b
 6336 0560 54       		.byte	0x54
 6337 0561 18       		.uleb128 0x18
 6338 0562 E90B0000 		.4byte	.LASF89
 6339 0566 08       		.byte	0x8
 6340 0567 7802     		.2byte	0x278
 6341 0569 4F080000 		.4byte	0x84f
 6342 056d 58       		.byte	0x58
 6343 056e 19       		.uleb128 0x19
 6344 056f 810C0000 		.4byte	.LASF49
 6345 0573 08       		.byte	0x8
 6346 0574 7C02     		.2byte	0x27c
 6347 0576 E8020000 		.4byte	0x2e8
 6348 057a 4801     		.2byte	0x148
 6349 057c 19       		.uleb128 0x19
 6350 057d 090A0000 		.4byte	.LASF90
 6351 0581 08       		.byte	0x8
 6352 0582 7D02     		.2byte	0x27d
 6353 0584 AA020000 		.4byte	0x2aa
 6354 0588 4C01     		.2byte	0x14c
 6355 058a 19       		.uleb128 0x19
 6356 058b E4070000 		.4byte	.LASF91
 6357 058f 08       		.byte	0x8
 6358 0590 8102     		.2byte	0x281
 6359 0592 AE080000 		.4byte	0x8ae
 6360 0596 DC02     		.2byte	0x2dc
 6361 0598 19       		.uleb128 0x19
 6362 0599 AD0A0000 		.4byte	.LASF92
 6363 059d 08       		.byte	0x8
 6364 059e 8602     		.2byte	0x286
 6365 05a0 54060000 		.4byte	0x654
 6366 05a4 E002     		.2byte	0x2e0
 6367 05a6 19       		.uleb128 0x19
 6368 05a7 94000000 		.4byte	.LASF93
 6369 05ab 08       		.byte	0x8
 6370 05ac 8802     		.2byte	0x288
 6371 05ae BA080000 		.4byte	0x8ba
ARM GAS  /var/folders/d2/nstgp4h54kz7g1l847x_b8wc0000gn/T//ccW13lHv.s 			page 114


 6372 05b2 EC02     		.2byte	0x2ec
 6373 05b4 00       		.byte	0
 6374 05b5 05       		.uleb128 0x5
 6375 05b6 04       		.byte	0x4
 6376 05b7 5A040000 		.4byte	0x45a
 6377 05bb 15       		.uleb128 0x15
 6378 05bc 2C000000 		.4byte	0x2c
 6379 05c0 D9050000 		.4byte	0x5d9
 6380 05c4 16       		.uleb128 0x16
 6381 05c5 78040000 		.4byte	0x478
 6382 05c9 16       		.uleb128 0x16
 6383 05ca 59010000 		.4byte	0x159
 6384 05ce 16       		.uleb128 0x16
 6385 05cf D9050000 		.4byte	0x5d9
 6386 05d3 16       		.uleb128 0x16
 6387 05d4 2C000000 		.4byte	0x2c
 6388 05d8 00       		.byte	0
 6389 05d9 05       		.uleb128 0x5
 6390 05da 04       		.byte	0x4
 6391 05db 68010000 		.4byte	0x168
 6392 05df 1A       		.uleb128 0x1a
 6393 05e0 D9050000 		.4byte	0x5d9
 6394 05e4 05       		.uleb128 0x5
 6395 05e5 04       		.byte	0x4
 6396 05e6 BB050000 		.4byte	0x5bb
 6397 05ea 15       		.uleb128 0x15
 6398 05eb DC000000 		.4byte	0xdc
 6399 05ef 08060000 		.4byte	0x608
 6400 05f3 16       		.uleb128 0x16
 6401 05f4 78040000 		.4byte	0x478
 6402 05f8 16       		.uleb128 0x16
 6403 05f9 59010000 		.4byte	0x159
 6404 05fd 16       		.uleb128 0x16
 6405 05fe DC000000 		.4byte	0xdc
 6406 0602 16       		.uleb128 0x16
 6407 0603 2C000000 		.4byte	0x2c
 6408 0607 00       		.byte	0
 6409 0608 05       		.uleb128 0x5
 6410 0609 04       		.byte	0x4
 6411 060a EA050000 		.4byte	0x5ea
 6412 060e 15       		.uleb128 0x15
 6413 060f 2C000000 		.4byte	0x2c
 6414 0613 22060000 		.4byte	0x622
 6415 0617 16       		.uleb128 0x16
 6416 0618 78040000 		.4byte	0x478
 6417 061c 16       		.uleb128 0x16
 6418 061d 59010000 		.4byte	0x159
 6419 0621 00       		.byte	0
 6420 0622 05       		.uleb128 0x5
 6421 0623 04       		.byte	0x4
 6422 0624 0E060000 		.4byte	0x60e
 6423 0628 0A       		.uleb128 0xa
 6424 0629 65000000 		.4byte	0x65
 6425 062d 38060000 		.4byte	0x638
 6426 0631 0B       		.uleb128 0xb
 6427 0632 3E000000 		.4byte	0x3e
 6428 0636 02       		.byte	0x2
ARM GAS  /var/folders/d2/nstgp4h54kz7g1l847x_b8wc0000gn/T//ccW13lHv.s 			page 115


 6429 0637 00       		.byte	0
 6430 0638 0A       		.uleb128 0xa
 6431 0639 65000000 		.4byte	0x65
 6432 063d 48060000 		.4byte	0x648
 6433 0641 0B       		.uleb128 0xb
 6434 0642 3E000000 		.4byte	0x3e
 6435 0646 00       		.byte	0
 6436 0647 00       		.byte	0
 6437 0648 07       		.uleb128 0x7
 6438 0649 B00E0000 		.4byte	.LASF94
 6439 064d 08       		.byte	0x8
 6440 064e 1F01     		.2byte	0x11f
 6441 0650 30030000 		.4byte	0x330
 6442 0654 1B       		.uleb128 0x1b
 6443 0655 0C0B0000 		.4byte	.LASF95
 6444 0659 0C       		.byte	0xc
 6445 065a 08       		.byte	0x8
 6446 065b 2301     		.2byte	0x123
 6447 065d 89060000 		.4byte	0x689
 6448 0661 18       		.uleb128 0x18
 6449 0662 1F0F0000 		.4byte	.LASF29
 6450 0666 08       		.byte	0x8
 6451 0667 2501     		.2byte	0x125
 6452 0669 89060000 		.4byte	0x689
 6453 066d 00       		.byte	0
 6454 066e 18       		.uleb128 0x18
 6455 066f 940A0000 		.4byte	.LASF96
 6456 0673 08       		.byte	0x8
 6457 0674 2601     		.2byte	0x126
 6458 0676 2C000000 		.4byte	0x2c
 6459 067a 04       		.byte	0x4
 6460 067b 18       		.uleb128 0x18
 6461 067c 060B0000 		.4byte	.LASF97
 6462 0680 08       		.byte	0x8
 6463 0681 2701     		.2byte	0x127
 6464 0683 8F060000 		.4byte	0x68f
 6465 0687 08       		.byte	0x8
 6466 0688 00       		.byte	0
 6467 0689 05       		.uleb128 0x5
 6468 068a 04       		.byte	0x4
 6469 068b 54060000 		.4byte	0x654
 6470 068f 05       		.uleb128 0x5
 6471 0690 04       		.byte	0x4
 6472 0691 48060000 		.4byte	0x648
 6473 0695 1B       		.uleb128 0x1b
 6474 0696 ED0D0000 		.4byte	.LASF98
 6475 069a 0E       		.byte	0xe
 6476 069b 08       		.byte	0x8
 6477 069c 3F01     		.2byte	0x13f
 6478 069e CA060000 		.4byte	0x6ca
 6479 06a2 18       		.uleb128 0x18
 6480 06a3 1B0D0000 		.4byte	.LASF99
 6481 06a7 08       		.byte	0x8
 6482 06a8 4001     		.2byte	0x140
 6483 06aa CA060000 		.4byte	0x6ca
 6484 06ae 00       		.byte	0
 6485 06af 18       		.uleb128 0x18
ARM GAS  /var/folders/d2/nstgp4h54kz7g1l847x_b8wc0000gn/T//ccW13lHv.s 			page 116


 6486 06b0 67030000 		.4byte	.LASF100
 6487 06b4 08       		.byte	0x8
 6488 06b5 4101     		.2byte	0x141
 6489 06b7 CA060000 		.4byte	0x6ca
 6490 06bb 06       		.byte	0x6
 6491 06bc 18       		.uleb128 0x18
 6492 06bd 22120000 		.4byte	.LASF101
 6493 06c1 08       		.byte	0x8
 6494 06c2 4201     		.2byte	0x142
 6495 06c4 7E000000 		.4byte	0x7e
 6496 06c8 0C       		.byte	0xc
 6497 06c9 00       		.byte	0
 6498 06ca 0A       		.uleb128 0xa
 6499 06cb 7E000000 		.4byte	0x7e
 6500 06cf DA060000 		.4byte	0x6da
 6501 06d3 0B       		.uleb128 0xb
 6502 06d4 3E000000 		.4byte	0x3e
 6503 06d8 02       		.byte	0x2
 6504 06d9 00       		.byte	0
 6505 06da 1C       		.uleb128 0x1c
 6506 06db D0       		.byte	0xd0
 6507 06dc 08       		.byte	0x8
 6508 06dd 5902     		.2byte	0x259
 6509 06df DB070000 		.4byte	0x7db
 6510 06e3 18       		.uleb128 0x18
 6511 06e4 3D050000 		.4byte	.LASF102
 6512 06e8 08       		.byte	0x8
 6513 06e9 5B02     		.2byte	0x25b
 6514 06eb 3E000000 		.4byte	0x3e
 6515 06ef 00       		.byte	0
 6516 06f0 18       		.uleb128 0x18
 6517 06f1 5A0E0000 		.4byte	.LASF103
 6518 06f5 08       		.byte	0x8
 6519 06f6 5C02     		.2byte	0x25c
 6520 06f8 5B010000 		.4byte	0x15b
 6521 06fc 04       		.byte	0x4
 6522 06fd 18       		.uleb128 0x18
 6523 06fe 28020000 		.4byte	.LASF104
 6524 0702 08       		.byte	0x8
 6525 0703 5D02     		.2byte	0x25d
 6526 0705 DB070000 		.4byte	0x7db
 6527 0709 08       		.byte	0x8
 6528 070a 18       		.uleb128 0x18
 6529 070b 7D040000 		.4byte	.LASF105
 6530 070f 08       		.byte	0x8
 6531 0710 5E02     		.2byte	0x25e
 6532 0712 E1010000 		.4byte	0x1e1
 6533 0716 24       		.byte	0x24
 6534 0717 18       		.uleb128 0x18
 6535 0718 D20A0000 		.4byte	.LASF106
 6536 071c 08       		.byte	0x8
 6537 071d 5F02     		.2byte	0x25f
 6538 071f 2C000000 		.4byte	0x2c
 6539 0723 48       		.byte	0x48
 6540 0724 18       		.uleb128 0x18
 6541 0725 3E0C0000 		.4byte	.LASF107
 6542 0729 08       		.byte	0x8
ARM GAS  /var/folders/d2/nstgp4h54kz7g1l847x_b8wc0000gn/T//ccW13lHv.s 			page 117


 6543 072a 6002     		.2byte	0x260
 6544 072c B4000000 		.4byte	0xb4
 6545 0730 50       		.byte	0x50
 6546 0731 18       		.uleb128 0x18
 6547 0732 FA0E0000 		.4byte	.LASF108
 6548 0736 08       		.byte	0x8
 6549 0737 6102     		.2byte	0x261
 6550 0739 95060000 		.4byte	0x695
 6551 073d 58       		.byte	0x58
 6552 073e 18       		.uleb128 0x18
 6553 073f 880F0000 		.4byte	.LASF109
 6554 0743 08       		.byte	0x8
 6555 0744 6202     		.2byte	0x262
 6556 0746 43010000 		.4byte	0x143
 6557 074a 68       		.byte	0x68
 6558 074b 18       		.uleb128 0x18
 6559 074c 770D0000 		.4byte	.LASF110
 6560 0750 08       		.byte	0x8
 6561 0751 6302     		.2byte	0x263
 6562 0753 43010000 		.4byte	0x143
 6563 0757 70       		.byte	0x70
 6564 0758 18       		.uleb128 0x18
 6565 0759 270C0000 		.4byte	.LASF111
 6566 075d 08       		.byte	0x8
 6567 075e 6402     		.2byte	0x264
 6568 0760 43010000 		.4byte	0x143
 6569 0764 78       		.byte	0x78
 6570 0765 18       		.uleb128 0x18
 6571 0766 D5020000 		.4byte	.LASF112
 6572 076a 08       		.byte	0x8
 6573 076b 6502     		.2byte	0x265
 6574 076d EB070000 		.4byte	0x7eb
 6575 0771 80       		.byte	0x80
 6576 0772 18       		.uleb128 0x18
 6577 0773 83090000 		.4byte	.LASF113
 6578 0777 08       		.byte	0x8
 6579 0778 6602     		.2byte	0x266
 6580 077a FB070000 		.4byte	0x7fb
 6581 077e 88       		.byte	0x88
 6582 077f 18       		.uleb128 0x18
 6583 0780 0C130000 		.4byte	.LASF114
 6584 0784 08       		.byte	0x8
 6585 0785 6702     		.2byte	0x267
 6586 0787 2C000000 		.4byte	0x2c
 6587 078b A0       		.byte	0xa0
 6588 078c 18       		.uleb128 0x18
 6589 078d 23040000 		.4byte	.LASF115
 6590 0791 08       		.byte	0x8
 6591 0792 6802     		.2byte	0x268
 6592 0794 43010000 		.4byte	0x143
 6593 0798 A4       		.byte	0xa4
 6594 0799 18       		.uleb128 0x18
 6595 079a 8D0E0000 		.4byte	.LASF116
 6596 079e 08       		.byte	0x8
 6597 079f 6902     		.2byte	0x269
 6598 07a1 43010000 		.4byte	0x143
 6599 07a5 AC       		.byte	0xac
ARM GAS  /var/folders/d2/nstgp4h54kz7g1l847x_b8wc0000gn/T//ccW13lHv.s 			page 118


 6600 07a6 18       		.uleb128 0x18
 6601 07a7 69120000 		.4byte	.LASF117
 6602 07ab 08       		.byte	0x8
 6603 07ac 6A02     		.2byte	0x26a
 6604 07ae 43010000 		.4byte	0x143
 6605 07b2 B4       		.byte	0xb4
 6606 07b3 18       		.uleb128 0x18
 6607 07b4 AC0B0000 		.4byte	.LASF118
 6608 07b8 08       		.byte	0x8
 6609 07b9 6B02     		.2byte	0x26b
 6610 07bb 43010000 		.4byte	0x143
 6611 07bf BC       		.byte	0xbc
 6612 07c0 18       		.uleb128 0x18
 6613 07c1 A4020000 		.4byte	.LASF119
 6614 07c5 08       		.byte	0x8
 6615 07c6 6C02     		.2byte	0x26c
 6616 07c8 43010000 		.4byte	0x143
 6617 07cc C4       		.byte	0xc4
 6618 07cd 18       		.uleb128 0x18
 6619 07ce 860B0000 		.4byte	.LASF120
 6620 07d2 08       		.byte	0x8
 6621 07d3 6D02     		.2byte	0x26d
 6622 07d5 2C000000 		.4byte	0x2c
 6623 07d9 CC       		.byte	0xcc
 6624 07da 00       		.byte	0
 6625 07db 0A       		.uleb128 0xa
 6626 07dc 61010000 		.4byte	0x161
 6627 07e0 EB070000 		.4byte	0x7eb
 6628 07e4 0B       		.uleb128 0xb
 6629 07e5 3E000000 		.4byte	0x3e
 6630 07e9 19       		.byte	0x19
 6631 07ea 00       		.byte	0
 6632 07eb 0A       		.uleb128 0xa
 6633 07ec 61010000 		.4byte	0x161
 6634 07f0 FB070000 		.4byte	0x7fb
 6635 07f4 0B       		.uleb128 0xb
 6636 07f5 3E000000 		.4byte	0x3e
 6637 07f9 07       		.byte	0x7
 6638 07fa 00       		.byte	0
 6639 07fb 0A       		.uleb128 0xa
 6640 07fc 61010000 		.4byte	0x161
 6641 0800 0B080000 		.4byte	0x80b
 6642 0804 0B       		.uleb128 0xb
 6643 0805 3E000000 		.4byte	0x3e
 6644 0809 17       		.byte	0x17
 6645 080a 00       		.byte	0
 6646 080b 1C       		.uleb128 0x1c
 6647 080c F0       		.byte	0xf0
 6648 080d 08       		.byte	0x8
 6649 080e 7202     		.2byte	0x272
 6650 0810 2F080000 		.4byte	0x82f
 6651 0814 18       		.uleb128 0x18
 6652 0815 4B110000 		.4byte	.LASF121
 6653 0819 08       		.byte	0x8
 6654 081a 7502     		.2byte	0x275
 6655 081c 2F080000 		.4byte	0x82f
 6656 0820 00       		.byte	0
ARM GAS  /var/folders/d2/nstgp4h54kz7g1l847x_b8wc0000gn/T//ccW13lHv.s 			page 119


 6657 0821 18       		.uleb128 0x18
 6658 0822 B50A0000 		.4byte	.LASF122
 6659 0826 08       		.byte	0x8
 6660 0827 7602     		.2byte	0x276
 6661 0829 3F080000 		.4byte	0x83f
 6662 082d 78       		.byte	0x78
 6663 082e 00       		.byte	0
 6664 082f 0A       		.uleb128 0xa
 6665 0830 2A030000 		.4byte	0x32a
 6666 0834 3F080000 		.4byte	0x83f
 6667 0838 0B       		.uleb128 0xb
 6668 0839 3E000000 		.4byte	0x3e
 6669 083d 1D       		.byte	0x1d
 6670 083e 00       		.byte	0
 6671 083f 0A       		.uleb128 0xa
 6672 0840 3E000000 		.4byte	0x3e
 6673 0844 4F080000 		.4byte	0x84f
 6674 0848 0B       		.uleb128 0xb
 6675 0849 3E000000 		.4byte	0x3e
 6676 084d 1D       		.byte	0x1d
 6677 084e 00       		.byte	0
 6678 084f 1D       		.uleb128 0x1d
 6679 0850 F0       		.byte	0xf0
 6680 0851 08       		.byte	0x8
 6681 0852 5702     		.2byte	0x257
 6682 0854 71080000 		.4byte	0x871
 6683 0858 1E       		.uleb128 0x1e
 6684 0859 34060000 		.4byte	.LASF72
 6685 085d 08       		.byte	0x8
 6686 085e 6E02     		.2byte	0x26e
 6687 0860 DA060000 		.4byte	0x6da
 6688 0864 1E       		.uleb128 0x1e
 6689 0865 97020000 		.4byte	.LASF123
 6690 0869 08       		.byte	0x8
 6691 086a 7702     		.2byte	0x277
 6692 086c 0B080000 		.4byte	0x80b
 6693 0870 00       		.byte	0
 6694 0871 0A       		.uleb128 0xa
 6695 0872 61010000 		.4byte	0x161
 6696 0876 81080000 		.4byte	0x881
 6697 087a 0B       		.uleb128 0xb
 6698 087b 3E000000 		.4byte	0x3e
 6699 087f 18       		.byte	0x18
 6700 0880 00       		.byte	0
 6701 0881 06       		.uleb128 0x6
 6702 0882 3D000000 		.4byte	.LASF125
 6703 0886 05       		.uleb128 0x5
 6704 0887 04       		.byte	0x4
 6705 0888 81080000 		.4byte	0x881
 6706 088c 1F       		.uleb128 0x1f
 6707 088d 97080000 		.4byte	0x897
 6708 0891 16       		.uleb128 0x16
 6709 0892 78040000 		.4byte	0x478
 6710 0896 00       		.byte	0
 6711 0897 05       		.uleb128 0x5
 6712 0898 04       		.byte	0x4
 6713 0899 8C080000 		.4byte	0x88c
ARM GAS  /var/folders/d2/nstgp4h54kz7g1l847x_b8wc0000gn/T//ccW13lHv.s 			page 120


 6714 089d 05       		.uleb128 0x5
 6715 089e 04       		.byte	0x4
 6716 089f CB010000 		.4byte	0x1cb
 6717 08a3 1F       		.uleb128 0x1f
 6718 08a4 AE080000 		.4byte	0x8ae
 6719 08a8 16       		.uleb128 0x16
 6720 08a9 2C000000 		.4byte	0x2c
 6721 08ad 00       		.byte	0
 6722 08ae 05       		.uleb128 0x5
 6723 08af 04       		.byte	0x4
 6724 08b0 B4080000 		.4byte	0x8b4
 6725 08b4 05       		.uleb128 0x5
 6726 08b5 04       		.byte	0x4
 6727 08b6 A3080000 		.4byte	0x8a3
 6728 08ba 0A       		.uleb128 0xa
 6729 08bb 48060000 		.4byte	0x648
 6730 08bf CA080000 		.4byte	0x8ca
 6731 08c3 0B       		.uleb128 0xb
 6732 08c4 3E000000 		.4byte	0x3e
 6733 08c8 02       		.byte	0x2
 6734 08c9 00       		.byte	0
 6735 08ca 20       		.uleb128 0x20
 6736 08cb 4D040000 		.4byte	.LASF126
 6737 08cf 08       		.byte	0x8
 6738 08d0 0703     		.2byte	0x307
 6739 08d2 78040000 		.4byte	0x478
 6740 08d6 20       		.uleb128 0x20
 6741 08d7 43060000 		.4byte	.LASF127
 6742 08db 08       		.byte	0x8
 6743 08dc 0803     		.2byte	0x308
 6744 08de 7E040000 		.4byte	0x47e
 6745 08e2 04       		.uleb128 0x4
 6746 08e3 60050000 		.4byte	.LASF128
 6747 08e7 09       		.byte	0x9
 6748 08e8 18       		.byte	0x18
 6749 08e9 5A000000 		.4byte	0x5a
 6750 08ed 04       		.uleb128 0x4
 6751 08ee C10D0000 		.4byte	.LASF129
 6752 08f2 09       		.byte	0x9
 6753 08f3 24       		.byte	0x24
 6754 08f4 73000000 		.4byte	0x73
 6755 08f8 04       		.uleb128 0x4
 6756 08f9 20020000 		.4byte	.LASF130
 6757 08fd 09       		.byte	0x9
 6758 08fe 2C       		.byte	0x2c
 6759 08ff 85000000 		.4byte	0x85
 6760 0903 1A       		.uleb128 0x1a
 6761 0904 F8080000 		.4byte	0x8f8
 6762 0908 04       		.uleb128 0x4
 6763 0909 E2110000 		.4byte	.LASF131
 6764 090d 09       		.byte	0x9
 6765 090e 30       		.byte	0x30
 6766 090f 97000000 		.4byte	0x97
 6767 0913 04       		.uleb128 0x4
 6768 0914 B20F0000 		.4byte	.LASF132
 6769 0918 09       		.byte	0x9
 6770 0919 3C       		.byte	0x3c
ARM GAS  /var/folders/d2/nstgp4h54kz7g1l847x_b8wc0000gn/T//ccW13lHv.s 			page 121


 6771 091a A9000000 		.4byte	0xa9
 6772 091e 21       		.uleb128 0x21
 6773 091f DC0F0000 		.4byte	.LASF133
 6774 0923 0A       		.byte	0xa
 6775 0924 63       		.byte	0x63
 6776 0925 5B010000 		.4byte	0x15b
 6777 0929 04       		.uleb128 0x4
 6778 092a A3100000 		.4byte	.LASF134
 6779 092e 0B       		.byte	0xb
 6780 092f 08       		.byte	0x8
 6781 0930 39090000 		.4byte	0x939
 6782 0934 0F       		.uleb128 0xf
 6783 0935 29090000 		.4byte	0x929
 6784 0939 10       		.uleb128 0x10
 6785 093a 8D100000 		.4byte	.LASF135
 6786 093e 18       		.byte	0x18
 6787 093f 0B       		.byte	0xb
 6788 0940 0B       		.byte	0xb
 6789 0941 8D090000 		.4byte	0x98d
 6790 0945 11       		.uleb128 0x11
 6791 0946 696400   		.ascii	"id\000"
 6792 0949 0B       		.byte	0xb
 6793 094a 0C       		.byte	0xc
 6794 094b D9050000 		.4byte	0x5d9
 6795 094f 00       		.byte	0
 6796 0950 0D       		.uleb128 0xd
 6797 0951 270D0000 		.4byte	.LASF136
 6798 0955 0B       		.byte	0xb
 6799 0956 0D       		.byte	0xd
 6800 0957 F8080000 		.4byte	0x8f8
 6801 095b 04       		.byte	0x4
 6802 095c 0D       		.uleb128 0xd
 6803 095d FF0A0000 		.4byte	.LASF137
 6804 0961 0B       		.byte	0xb
 6805 0962 0E       		.byte	0xe
 6806 0963 FC090000 		.4byte	0x9fc
 6807 0967 08       		.byte	0x8
 6808 0968 0D       		.uleb128 0xd
 6809 0969 4B070000 		.4byte	.LASF138
 6810 096d 0B       		.byte	0xb
 6811 096e 0F       		.byte	0xf
 6812 096f FC090000 		.4byte	0x9fc
 6813 0973 0C       		.byte	0xc
 6814 0974 0D       		.uleb128 0xd
 6815 0975 F0120000 		.4byte	.LASF139
 6816 0979 0B       		.byte	0xb
 6817 097a 10       		.byte	0x10
 6818 097b FC090000 		.4byte	0x9fc
 6819 097f 10       		.byte	0x10
 6820 0980 0D       		.uleb128 0xd
 6821 0981 74090000 		.4byte	.LASF140
 6822 0985 0B       		.byte	0xb
 6823 0986 11       		.byte	0x11
 6824 0987 020A0000 		.4byte	0xa02
 6825 098b 14       		.byte	0x14
 6826 098c 00       		.byte	0
 6827 098d 04       		.uleb128 0x4
ARM GAS  /var/folders/d2/nstgp4h54kz7g1l847x_b8wc0000gn/T//ccW13lHv.s 			page 122


 6828 098e C70F0000 		.4byte	.LASF141
 6829 0992 0B       		.byte	0xb
 6830 0993 09       		.byte	0x9
 6831 0994 9D090000 		.4byte	0x99d
 6832 0998 0F       		.uleb128 0xf
 6833 0999 8D090000 		.4byte	0x98d
 6834 099d 10       		.uleb128 0x10
 6835 099e BB0F0000 		.4byte	.LASF142
 6836 09a2 18       		.byte	0x18
 6837 09a3 0B       		.byte	0xb
 6838 09a4 2E       		.byte	0x2e
 6839 09a5 FC090000 		.4byte	0x9fc
 6840 09a9 11       		.uleb128 0x11
 6841 09aa 696400   		.ascii	"id\000"
 6842 09ad 0B       		.byte	0xb
 6843 09ae 2F       		.byte	0x2f
 6844 09af D9050000 		.4byte	0x5d9
 6845 09b3 00       		.byte	0
 6846 09b4 11       		.uleb128 0x11
 6847 09b5 6E7300   		.ascii	"ns\000"
 6848 09b8 0B       		.byte	0xb
 6849 09b9 30       		.byte	0x30
 6850 09ba FC090000 		.4byte	0x9fc
 6851 09be 04       		.byte	0x4
 6852 09bf 0D       		.uleb128 0xd
 6853 09c0 F0120000 		.4byte	.LASF139
 6854 09c4 0B       		.byte	0xb
 6855 09c5 31       		.byte	0x31
 6856 09c6 020A0000 		.4byte	0xa02
 6857 09ca 08       		.byte	0x8
 6858 09cb 0D       		.uleb128 0xd
 6859 09cc 48000000 		.4byte	.LASF143
 6860 09d0 0B       		.byte	0xb
 6861 09d1 32       		.byte	0x32
 6862 09d2 E70A0000 		.4byte	0xae7
 6863 09d6 0C       		.byte	0xc
 6864 09d7 0D       		.uleb128 0xd
 6865 09d8 1C000000 		.4byte	.LASF144
 6866 09dc 0B       		.byte	0xb
 6867 09dd 33       		.byte	0x33
 6868 09de E70A0000 		.4byte	0xae7
 6869 09e2 0D       		.byte	0xd
 6870 09e3 0D       		.uleb128 0xd
 6871 09e4 62030000 		.4byte	.LASF145
 6872 09e8 0B       		.byte	0xb
 6873 09e9 34       		.byte	0x34
 6874 09ea E2080000 		.4byte	0x8e2
 6875 09ee 0E       		.byte	0xe
 6876 09ef 0D       		.uleb128 0xd
 6877 09f0 BF060000 		.4byte	.LASF146
 6878 09f4 0B       		.byte	0xb
 6879 09f5 3C       		.byte	0x3c
 6880 09f6 A20A0000 		.4byte	0xaa2
 6881 09fa 10       		.byte	0x10
 6882 09fb 00       		.byte	0
 6883 09fc 05       		.uleb128 0x5
 6884 09fd 04       		.byte	0x4
ARM GAS  /var/folders/d2/nstgp4h54kz7g1l847x_b8wc0000gn/T//ccW13lHv.s 			page 123


 6885 09fe 29090000 		.4byte	0x929
 6886 0a02 05       		.uleb128 0x5
 6887 0a03 04       		.byte	0x4
 6888 0a04 8D090000 		.4byte	0x98d
 6889 0a08 10       		.uleb128 0x10
 6890 0a09 F6100000 		.4byte	.LASF147
 6891 0a0d 08       		.byte	0x8
 6892 0a0e 0B       		.byte	0xb
 6893 0a0f 14       		.byte	0x14
 6894 0a10 390A0000 		.4byte	0xa39
 6895 0a14 11       		.uleb128 0x11
 6896 0a15 62756600 		.ascii	"buf\000"
 6897 0a19 0B       		.byte	0xb
 6898 0a1a 15       		.byte	0x15
 6899 0a1b 5B010000 		.4byte	0x15b
 6900 0a1f 00       		.byte	0
 6901 0a20 0D       		.uleb128 0xd
 6902 0a21 13120000 		.4byte	.LASF148
 6903 0a25 0B       		.byte	0xb
 6904 0a26 16       		.byte	0x16
 6905 0a27 ED080000 		.4byte	0x8ed
 6906 0a2b 04       		.byte	0x4
 6907 0a2c 11       		.uleb128 0x11
 6908 0a2d 6C656E00 		.ascii	"len\000"
 6909 0a31 0B       		.byte	0xb
 6910 0a32 17       		.byte	0x17
 6911 0a33 ED080000 		.4byte	0x8ed
 6912 0a37 06       		.byte	0x6
 6913 0a38 00       		.byte	0
 6914 0a39 10       		.uleb128 0x10
 6915 0a3a 0D030000 		.4byte	.LASF149
 6916 0a3e 08       		.byte	0x8
 6917 0a3f 0B       		.byte	0xb
 6918 0a40 1A       		.byte	0x1a
 6919 0a41 6A0A0000 		.4byte	0xa6a
 6920 0a45 11       		.uleb128 0x11
 6921 0a46 62756600 		.ascii	"buf\000"
 6922 0a4a 0B       		.byte	0xb
 6923 0a4b 1B       		.byte	0x1b
 6924 0a4c 6A0A0000 		.4byte	0xa6a
 6925 0a50 00       		.byte	0
 6926 0a51 0D       		.uleb128 0xd
 6927 0a52 3A090000 		.4byte	.LASF150
 6928 0a56 0B       		.byte	0xb
 6929 0a57 1C       		.byte	0x1c
 6930 0a58 ED080000 		.4byte	0x8ed
 6931 0a5c 04       		.byte	0x4
 6932 0a5d 11       		.uleb128 0x11
 6933 0a5e 64696D00 		.ascii	"dim\000"
 6934 0a62 0B       		.byte	0xb
 6935 0a63 1D       		.byte	0x1d
 6936 0a64 ED080000 		.4byte	0x8ed
 6937 0a68 06       		.byte	0x6
 6938 0a69 00       		.byte	0
 6939 0a6a 05       		.uleb128 0x5
 6940 0a6b 04       		.byte	0x4
 6941 0a6c 25000000 		.4byte	0x25
ARM GAS  /var/folders/d2/nstgp4h54kz7g1l847x_b8wc0000gn/T//ccW13lHv.s 			page 124


 6942 0a70 0F       		.uleb128 0xf
 6943 0a71 25000000 		.4byte	0x25
 6944 0a75 10       		.uleb128 0x10
 6945 0a76 33080000 		.4byte	.LASF151
 6946 0a7a 08       		.byte	0x8
 6947 0a7b 0B       		.byte	0xb
 6948 0a7c 20       		.byte	0x20
 6949 0a7d A20A0000 		.4byte	0xaa2
 6950 0a81 11       		.uleb128 0x11
 6951 0a82 62756600 		.ascii	"buf\000"
 6952 0a86 0B       		.byte	0xb
 6953 0a87 21       		.byte	0x21
 6954 0a88 6A0A0000 		.4byte	0xa6a
 6955 0a8c 00       		.byte	0
 6956 0a8d 11       		.uleb128 0x11
 6957 0a8e 6E00     		.ascii	"n\000"
 6958 0a90 0B       		.byte	0xb
 6959 0a91 22       		.byte	0x22
 6960 0a92 ED080000 		.4byte	0x8ed
 6961 0a96 04       		.byte	0x4
 6962 0a97 11       		.uleb128 0x11
 6963 0a98 6D00     		.ascii	"m\000"
 6964 0a9a 0B       		.byte	0xb
 6965 0a9b 23       		.byte	0x23
 6966 0a9c ED080000 		.4byte	0x8ed
 6967 0aa0 06       		.byte	0x6
 6968 0aa1 00       		.byte	0
 6969 0aa2 08       		.uleb128 0x8
 6970 0aa3 08       		.byte	0x8
 6971 0aa4 0B       		.byte	0xb
 6972 0aa5 35       		.byte	0x35
 6973 0aa6 E70A0000 		.4byte	0xae7
 6974 0aaa 22       		.uleb128 0x22
 6975 0aab 6200     		.ascii	"b\000"
 6976 0aad 0B       		.byte	0xb
 6977 0aae 36       		.byte	0x36
 6978 0aaf E70A0000 		.4byte	0xae7
 6979 0ab3 22       		.uleb128 0x22
 6980 0ab4 7300     		.ascii	"s\000"
 6981 0ab6 0B       		.byte	0xb
 6982 0ab7 37       		.byte	0x37
 6983 0ab8 25000000 		.4byte	0x25
 6984 0abc 22       		.uleb128 0x22
 6985 0abd 6900     		.ascii	"i\000"
 6986 0abf 0B       		.byte	0xb
 6987 0ac0 38       		.byte	0x38
 6988 0ac1 F8080000 		.4byte	0x8f8
 6989 0ac5 22       		.uleb128 0x22
 6990 0ac6 73747200 		.ascii	"str\000"
 6991 0aca 0B       		.byte	0xb
 6992 0acb 39       		.byte	0x39
 6993 0acc 080A0000 		.4byte	0xa08
 6994 0ad0 09       		.uleb128 0x9
 6995 0ad1 FF0C0000 		.4byte	.LASF152
 6996 0ad5 0B       		.byte	0xb
 6997 0ad6 3A       		.byte	0x3a
 6998 0ad7 390A0000 		.4byte	0xa39
ARM GAS  /var/folders/d2/nstgp4h54kz7g1l847x_b8wc0000gn/T//ccW13lHv.s 			page 125


 6999 0adb 22       		.uleb128 0x22
 7000 0adc 6D617400 		.ascii	"mat\000"
 7001 0ae0 0B       		.byte	0xb
 7002 0ae1 3B       		.byte	0x3b
 7003 0ae2 750A0000 		.4byte	0xa75
 7004 0ae6 00       		.byte	0
 7005 0ae7 02       		.uleb128 0x2
 7006 0ae8 01       		.byte	0x1
 7007 0ae9 02       		.byte	0x2
 7008 0aea B3060000 		.4byte	.LASF153
 7009 0aee 04       		.uleb128 0x4
 7010 0aef 760B0000 		.4byte	.LASF154
 7011 0af3 0C       		.byte	0xc
 7012 0af4 45       		.byte	0x45
 7013 0af5 08090000 		.4byte	0x908
 7014 0af9 04       		.uleb128 0x4
 7015 0afa AB040000 		.4byte	.LASF155
 7016 0afe 0C       		.byte	0xc
 7017 0aff 46       		.byte	0x46
 7018 0b00 13090000 		.4byte	0x913
 7019 0b04 04       		.uleb128 0x4
 7020 0b05 310F0000 		.4byte	.LASF156
 7021 0b09 0C       		.byte	0xc
 7022 0b0a 48       		.byte	0x48
 7023 0b0b E2080000 		.4byte	0x8e2
 7024 0b0f 04       		.uleb128 0x4
 7025 0b10 A2040000 		.4byte	.LASF157
 7026 0b14 0C       		.byte	0xc
 7027 0b15 49       		.byte	0x49
 7028 0b16 E2080000 		.4byte	0x8e2
 7029 0b1a 04       		.uleb128 0x4
 7030 0b1b 43110000 		.4byte	.LASF158
 7031 0b1f 0C       		.byte	0xc
 7032 0b20 4A       		.byte	0x4a
 7033 0b21 E2080000 		.4byte	0x8e2
 7034 0b25 04       		.uleb128 0x4
 7035 0b26 0A0E0000 		.4byte	.LASF159
 7036 0b2a 0C       		.byte	0xc
 7037 0b2b 4B       		.byte	0x4b
 7038 0b2c E2080000 		.4byte	0x8e2
 7039 0b30 04       		.uleb128 0x4
 7040 0b31 B3000000 		.4byte	.LASF160
 7041 0b35 0C       		.byte	0xc
 7042 0b36 4C       		.byte	0x4c
 7043 0b37 08090000 		.4byte	0x908
 7044 0b3b 04       		.uleb128 0x4
 7045 0b3c D60D0000 		.4byte	.LASF161
 7046 0b40 0C       		.byte	0xc
 7047 0b41 4D       		.byte	0x4d
 7048 0b42 F8080000 		.4byte	0x8f8
 7049 0b46 04       		.uleb128 0x4
 7050 0b47 95050000 		.4byte	.LASF162
 7051 0b4b 0C       		.byte	0xc
 7052 0b4c 4F       		.byte	0x4f
 7053 0b4d 08090000 		.4byte	0x908
 7054 0b51 04       		.uleb128 0x4
 7055 0b52 6A070000 		.4byte	.LASF163
ARM GAS  /var/folders/d2/nstgp4h54kz7g1l847x_b8wc0000gn/T//ccW13lHv.s 			page 126


 7056 0b56 0C       		.byte	0xc
 7057 0b57 51       		.byte	0x51
 7058 0b58 F8080000 		.4byte	0x8f8
 7059 0b5c 04       		.uleb128 0x4
 7060 0b5d 8F090000 		.4byte	.LASF164
 7061 0b61 0C       		.byte	0xc
 7062 0b62 52       		.byte	0x52
 7063 0b63 08090000 		.4byte	0x908
 7064 0b67 04       		.uleb128 0x4
 7065 0b68 64000000 		.4byte	.LASF165
 7066 0b6c 0D       		.byte	0xd
 7067 0b6d 33       		.byte	0x33
 7068 0b6e 08090000 		.4byte	0x908
 7069 0b72 1A       		.uleb128 0x1a
 7070 0b73 670B0000 		.4byte	0xb67
 7071 0b77 04       		.uleb128 0x4
 7072 0b78 D80C0000 		.4byte	.LASF166
 7073 0b7c 0D       		.byte	0xd
 7074 0b7d 3F       		.byte	0x3f
 7075 0b7e 820B0000 		.4byte	0xb82
 7076 0b82 10       		.uleb128 0x10
 7077 0b83 00090000 		.4byte	.LASF167
 7078 0b87 68       		.byte	0x68
 7079 0b88 0E       		.byte	0xe
 7080 0b89 C2       		.byte	0xc2
 7081 0b8a A00C0000 		.4byte	0xca0
 7082 0b8e 0D       		.uleb128 0xd
 7083 0b8f 3A040000 		.4byte	.LASF168
 7084 0b93 0E       		.byte	0xe
 7085 0b94 C3       		.byte	0xc3
 7086 0b95 AB0C0000 		.4byte	0xcab
 7087 0b99 00       		.byte	0
 7088 0b9a 0D       		.uleb128 0xd
 7089 0b9b 76040000 		.4byte	.LASF169
 7090 0b9f 0E       		.byte	0xe
 7091 0ba0 C5       		.byte	0xc5
 7092 0ba1 AB0C0000 		.4byte	0xcab
 7093 0ba5 04       		.byte	0x4
 7094 0ba6 0D       		.uleb128 0xd
 7095 0ba7 DC060000 		.4byte	.LASF170
 7096 0bab 0E       		.byte	0xe
 7097 0bac C7       		.byte	0xc7
 7098 0bad 300B0000 		.4byte	0xb30
 7099 0bb1 08       		.byte	0x8
 7100 0bb2 0D       		.uleb128 0xd
 7101 0bb3 A7000000 		.4byte	.LASF171
 7102 0bb7 0E       		.byte	0xe
 7103 0bb8 C8       		.byte	0xc8
 7104 0bb9 220F0000 		.4byte	0xf22
 7105 0bbd 0C       		.byte	0xc
 7106 0bbe 0D       		.uleb128 0xd
 7107 0bbf 1B040000 		.4byte	.LASF172
 7108 0bc3 0E       		.byte	0xe
 7109 0bc4 CA       		.byte	0xca
 7110 0bc5 AB0C0000 		.4byte	0xcab
 7111 0bc9 10       		.byte	0x10
 7112 0bca 0D       		.uleb128 0xd
ARM GAS  /var/folders/d2/nstgp4h54kz7g1l847x_b8wc0000gn/T//ccW13lHv.s 			page 127


 7113 0bcb B90D0000 		.4byte	.LASF173
 7114 0bcf 0E       		.byte	0xe
 7115 0bd0 CB       		.byte	0xcb
 7116 0bd1 AB0C0000 		.4byte	0xcab
 7117 0bd5 14       		.byte	0x14
 7118 0bd6 0D       		.uleb128 0xd
 7119 0bd7 E9120000 		.4byte	.LASF174
 7120 0bdb 0E       		.byte	0xe
 7121 0bdc D2       		.byte	0xd2
 7122 0bdd D9050000 		.4byte	0x5d9
 7123 0be1 18       		.byte	0x18
 7124 0be2 0D       		.uleb128 0xd
 7125 0be3 7A120000 		.4byte	.LASF175
 7126 0be7 0E       		.byte	0xe
 7127 0be8 D8       		.byte	0xd8
 7128 0be9 98120000 		.4byte	0x1298
 7129 0bed 1C       		.byte	0x1c
 7130 0bee 0D       		.uleb128 0xd
 7131 0bef 2B130000 		.4byte	.LASF176
 7132 0bf3 0E       		.byte	0xe
 7133 0bf4 DD       		.byte	0xdd
 7134 0bf5 0F0B0000 		.4byte	0xb0f
 7135 0bf9 20       		.byte	0x20
 7136 0bfa 0D       		.uleb128 0xd
 7137 0bfb D1030000 		.4byte	.LASF177
 7138 0bff 0E       		.byte	0xe
 7139 0c00 E1       		.byte	0xe1
 7140 0c01 040B0000 		.4byte	0xb04
 7141 0c05 21       		.byte	0x21
 7142 0c06 0D       		.uleb128 0xd
 7143 0c07 A50B0000 		.4byte	.LASF178
 7144 0c0b 0E       		.byte	0xe
 7145 0c0c E6       		.byte	0xe6
 7146 0c0d 1A0B0000 		.4byte	0xb1a
 7147 0c11 22       		.byte	0x22
 7148 0c12 0D       		.uleb128 0xd
 7149 0c13 56050000 		.4byte	.LASF179
 7150 0c17 0E       		.byte	0xe
 7151 0c18 EC       		.byte	0xec
 7152 0c19 250B0000 		.4byte	0xb25
 7153 0c1d 23       		.byte	0x23
 7154 0c1e 0D       		.uleb128 0xd
 7155 0c1f 950C0000 		.4byte	.LASF180
 7156 0c23 0E       		.byte	0xe
 7157 0c24 F3       		.byte	0xf3
 7158 0c25 720B0000 		.4byte	0xb72
 7159 0c29 24       		.byte	0x24
 7160 0c2a 23       		.uleb128 0x23
 7161 0c2b 705F7500 		.ascii	"p_u\000"
 7162 0c2f 0E       		.byte	0xe
 7163 0c30 3101     		.2byte	0x131
 7164 0c32 C7110000 		.4byte	0x11c7
 7165 0c36 28       		.byte	0x28
 7166 0c37 18       		.uleb128 0x18
 7167 0c38 460B0000 		.4byte	.LASF181
 7168 0c3c 0E       		.byte	0xe
 7169 0c3d 3601     		.2byte	0x136
ARM GAS  /var/folders/d2/nstgp4h54kz7g1l847x_b8wc0000gn/T//ccW13lHv.s 			page 128


 7170 0c3f B10C0000 		.4byte	0xcb1
 7171 0c43 2C       		.byte	0x2c
 7172 0c44 18       		.uleb128 0x18
 7173 0c45 08020000 		.4byte	.LASF182
 7174 0c49 0E       		.byte	0xe
 7175 0c4a 3C01     		.2byte	0x13c
 7176 0c4c D50C0000 		.4byte	0xcd5
 7177 0c50 30       		.byte	0x30
 7178 0c51 18       		.uleb128 0x18
 7179 0c52 25130000 		.4byte	.LASF183
 7180 0c56 0E       		.byte	0xe
 7181 0c57 4001     		.2byte	0x140
 7182 0c59 3B0B0000 		.4byte	0xb3b
 7183 0c5d 38       		.byte	0x38
 7184 0c5e 18       		.uleb128 0x18
 7185 0c5f B8070000 		.4byte	.LASF184
 7186 0c63 0E       		.byte	0xe
 7187 0c64 4601     		.2byte	0x146
 7188 0c66 460B0000 		.4byte	0xb46
 7189 0c6a 3C       		.byte	0x3c
 7190 0c6b 18       		.uleb128 0x18
 7191 0c6c C4040000 		.4byte	.LASF185
 7192 0c70 0E       		.byte	0xe
 7193 0c71 4D01     		.2byte	0x14d
 7194 0c73 92120000 		.4byte	0x1292
 7195 0c77 40       		.byte	0x40
 7196 0c78 18       		.uleb128 0x18
 7197 0c79 040D0000 		.4byte	.LASF186
 7198 0c7d 0E       		.byte	0xe
 7199 0c7e 5101     		.2byte	0x151
 7200 0c80 300B0000 		.4byte	0xb30
 7201 0c84 44       		.byte	0x44
 7202 0c85 18       		.uleb128 0x18
 7203 0c86 7E0B0000 		.4byte	.LASF187
 7204 0c8a 0E       		.byte	0xe
 7205 0c8b 5801     		.2byte	0x158
 7206 0c8d 59010000 		.4byte	0x159
 7207 0c91 48       		.byte	0x48
 7208 0c92 18       		.uleb128 0x18
 7209 0c93 24000000 		.4byte	.LASF188
 7210 0c97 0E       		.byte	0xe
 7211 0c98 5E01     		.2byte	0x15e
 7212 0c9a 78110000 		.4byte	0x1178
 7213 0c9e 50       		.byte	0x50
 7214 0c9f 00       		.byte	0
 7215 0ca0 04       		.uleb128 0x4
 7216 0ca1 6E0C0000 		.4byte	.LASF189
 7217 0ca5 0D       		.byte	0xd
 7218 0ca6 44       		.byte	0x44
 7219 0ca7 AB0C0000 		.4byte	0xcab
 7220 0cab 05       		.uleb128 0x5
 7221 0cac 04       		.byte	0x4
 7222 0cad 770B0000 		.4byte	0xb77
 7223 0cb1 04       		.uleb128 0x4
 7224 0cb2 62110000 		.4byte	.LASF190
 7225 0cb6 0D       		.byte	0xd
 7226 0cb7 49       		.byte	0x49
ARM GAS  /var/folders/d2/nstgp4h54kz7g1l847x_b8wc0000gn/T//ccW13lHv.s 			page 129


 7227 0cb8 BC0C0000 		.4byte	0xcbc
 7228 0cbc 10       		.uleb128 0x10
 7229 0cbd D2090000 		.4byte	.LASF191
 7230 0cc1 04       		.byte	0x4
 7231 0cc2 0E       		.byte	0xe
 7232 0cc3 B0       		.byte	0xb0
 7233 0cc4 D50C0000 		.4byte	0xcd5
 7234 0cc8 0D       		.uleb128 0xd
 7235 0cc9 3A040000 		.4byte	.LASF168
 7236 0ccd 0E       		.byte	0xe
 7237 0cce B1       		.byte	0xb1
 7238 0ccf AB0C0000 		.4byte	0xcab
 7239 0cd3 00       		.byte	0
 7240 0cd4 00       		.byte	0
 7241 0cd5 04       		.uleb128 0x4
 7242 0cd6 B4040000 		.4byte	.LASF192
 7243 0cda 0D       		.byte	0xd
 7244 0cdb 50       		.byte	0x50
 7245 0cdc E00C0000 		.4byte	0xce0
 7246 0ce0 10       		.uleb128 0x10
 7247 0ce1 DC0D0000 		.4byte	.LASF193
 7248 0ce5 08       		.byte	0x8
 7249 0ce6 0E       		.byte	0xe
 7250 0ce7 B7       		.byte	0xb7
 7251 0ce8 050D0000 		.4byte	0xd05
 7252 0cec 0D       		.uleb128 0xd
 7253 0ced 3A040000 		.4byte	.LASF168
 7254 0cf1 0E       		.byte	0xe
 7255 0cf2 B8       		.byte	0xb8
 7256 0cf3 AB0C0000 		.4byte	0xcab
 7257 0cf7 00       		.byte	0
 7258 0cf8 0D       		.uleb128 0xd
 7259 0cf9 76040000 		.4byte	.LASF169
 7260 0cfd 0E       		.byte	0xe
 7261 0cfe B9       		.byte	0xb9
 7262 0cff AB0C0000 		.4byte	0xcab
 7263 0d03 04       		.byte	0x4
 7264 0d04 00       		.byte	0
 7265 0d05 04       		.uleb128 0x4
 7266 0d06 67090000 		.4byte	.LASF194
 7267 0d0a 0D       		.byte	0xd
 7268 0d0b 57       		.byte	0x57
 7269 0d0c 100D0000 		.4byte	0xd10
 7270 0d10 1B       		.uleb128 0x1b
 7271 0d11 CF070000 		.4byte	.LASF195
 7272 0d15 1C       		.byte	0x1c
 7273 0d16 0E       		.byte	0xe
 7274 0d17 9001     		.2byte	0x190
 7275 0d19 6C0D0000 		.4byte	0xd6c
 7276 0d1d 18       		.uleb128 0x18
 7277 0d1e F20E0000 		.4byte	.LASF196
 7278 0d22 0E       		.byte	0xe
 7279 0d23 9101     		.2byte	0x191
 7280 0d25 D50C0000 		.4byte	0xcd5
 7281 0d29 00       		.byte	0
 7282 0d2a 18       		.uleb128 0x18
 7283 0d2b EF0F0000 		.4byte	.LASF197
ARM GAS  /var/folders/d2/nstgp4h54kz7g1l847x_b8wc0000gn/T//ccW13lHv.s 			page 130


 7284 0d2f 0E       		.byte	0xe
 7285 0d30 9201     		.2byte	0x192
 7286 0d32 300B0000 		.4byte	0xb30
 7287 0d36 08       		.byte	0x8
 7288 0d37 18       		.uleb128 0x18
 7289 0d38 1A020000 		.4byte	.LASF198
 7290 0d3c 0E       		.byte	0xe
 7291 0d3d 9401     		.2byte	0x194
 7292 0d3f 220F0000 		.4byte	0xf22
 7293 0d43 0C       		.byte	0xc
 7294 0d44 18       		.uleb128 0x18
 7295 0d45 3B060000 		.4byte	.LASF199
 7296 0d49 0E       		.byte	0xe
 7297 0d4a 9701     		.2byte	0x197
 7298 0d4c AB0C0000 		.4byte	0xcab
 7299 0d50 10       		.byte	0x10
 7300 0d51 18       		.uleb128 0x18
 7301 0d52 440F0000 		.4byte	.LASF200
 7302 0d56 0E       		.byte	0xe
 7303 0d57 9801     		.2byte	0x198
 7304 0d59 AB0C0000 		.4byte	0xcab
 7305 0d5d 14       		.byte	0x14
 7306 0d5e 18       		.uleb128 0x18
 7307 0d5f 8B050000 		.4byte	.LASF201
 7308 0d63 0E       		.byte	0xe
 7309 0d64 9B01     		.2byte	0x19b
 7310 0d66 AB0C0000 		.4byte	0xcab
 7311 0d6a 18       		.byte	0x18
 7312 0d6b 00       		.byte	0
 7313 0d6c 04       		.uleb128 0x4
 7314 0d6d 48020000 		.4byte	.LASF202
 7315 0d71 0D       		.byte	0xd
 7316 0d72 5C       		.byte	0x5c
 7317 0d73 770D0000 		.4byte	0xd77
 7318 0d77 05       		.uleb128 0x5
 7319 0d78 04       		.byte	0x4
 7320 0d79 7D0D0000 		.4byte	0xd7d
 7321 0d7d 1F       		.uleb128 0x1f
 7322 0d7e 880D0000 		.4byte	0xd88
 7323 0d82 16       		.uleb128 0x16
 7324 0d83 59010000 		.4byte	0x159
 7325 0d87 00       		.byte	0
 7326 0d88 04       		.uleb128 0x4
 7327 0d89 57090000 		.4byte	.LASF203
 7328 0d8d 0D       		.byte	0xd
 7329 0d8e 61       		.byte	0x61
 7330 0d8f 930D0000 		.4byte	0xd93
 7331 0d93 1B       		.uleb128 0x1b
 7332 0d94 600D0000 		.4byte	.LASF204
 7333 0d98 14       		.byte	0x14
 7334 0d99 0E       		.byte	0xe
 7335 0d9a 6B01     		.2byte	0x16b
 7336 0d9c E20D0000 		.4byte	0xde2
 7337 0da0 18       		.uleb128 0x18
 7338 0da1 A50A0000 		.4byte	.LASF205
 7339 0da5 0E       		.byte	0xe
 7340 0da6 6C01     		.2byte	0x16c
ARM GAS  /var/folders/d2/nstgp4h54kz7g1l847x_b8wc0000gn/T//ccW13lHv.s 			page 131


 7341 0da8 9E120000 		.4byte	0x129e
 7342 0dac 00       		.byte	0
 7343 0dad 18       		.uleb128 0x18
 7344 0dae BE0A0000 		.4byte	.LASF206
 7345 0db2 0E       		.byte	0xe
 7346 0db3 6D01     		.2byte	0x16d
 7347 0db5 9E120000 		.4byte	0x129e
 7348 0db9 04       		.byte	0x4
 7349 0dba 18       		.uleb128 0x18
 7350 0dbb 330D0000 		.4byte	.LASF207
 7351 0dbf 0E       		.byte	0xe
 7352 0dc0 6E01     		.2byte	0x16e
 7353 0dc2 670B0000 		.4byte	0xb67
 7354 0dc6 08       		.byte	0x8
 7355 0dc7 18       		.uleb128 0x18
 7356 0dc8 7D070000 		.4byte	.LASF208
 7357 0dcc 0E       		.byte	0xe
 7358 0dcd 6F01     		.2byte	0x16f
 7359 0dcf 6C0D0000 		.4byte	0xd6c
 7360 0dd3 0C       		.byte	0xc
 7361 0dd4 18       		.uleb128 0x18
 7362 0dd5 CA030000 		.4byte	.LASF209
 7363 0dd9 0E       		.byte	0xe
 7364 0dda 7101     		.2byte	0x171
 7365 0ddc 59010000 		.4byte	0x159
 7366 0de0 10       		.byte	0x10
 7367 0de1 00       		.byte	0
 7368 0de2 04       		.uleb128 0x4
 7369 0de3 24090000 		.4byte	.LASF210
 7370 0de7 0D       		.byte	0xd
 7371 0de8 66       		.byte	0x66
 7372 0de9 ED0D0000 		.4byte	0xded
 7373 0ded 1B       		.uleb128 0x1b
 7374 0dee 5A020000 		.4byte	.LASF211
 7375 0df2 10       		.byte	0x10
 7376 0df3 0E       		.byte	0xe
 7377 0df4 7B01     		.2byte	0x17b
 7378 0df6 2F0E0000 		.4byte	0xe2f
 7379 0dfa 18       		.uleb128 0x18
 7380 0dfb A50A0000 		.4byte	.LASF205
 7381 0dff 0E       		.byte	0xe
 7382 0e00 7C01     		.2byte	0x17c
 7383 0e02 9E120000 		.4byte	0x129e
 7384 0e06 00       		.byte	0
 7385 0e07 18       		.uleb128 0x18
 7386 0e08 BE0A0000 		.4byte	.LASF206
 7387 0e0c 0E       		.byte	0xe
 7388 0e0d 7E01     		.2byte	0x17e
 7389 0e0f 9E120000 		.4byte	0x129e
 7390 0e13 04       		.byte	0x4
 7391 0e14 18       		.uleb128 0x18
 7392 0e15 330D0000 		.4byte	.LASF207
 7393 0e19 0E       		.byte	0xe
 7394 0e1a 8001     		.2byte	0x180
 7395 0e1c 670B0000 		.4byte	0xb67
 7396 0e20 08       		.byte	0x8
 7397 0e21 18       		.uleb128 0x18
ARM GAS  /var/folders/d2/nstgp4h54kz7g1l847x_b8wc0000gn/T//ccW13lHv.s 			page 132


 7398 0e22 390F0000 		.4byte	.LASF212
 7399 0e26 0E       		.byte	0xe
 7400 0e27 8201     		.2byte	0x182
 7401 0e29 720B0000 		.4byte	0xb72
 7402 0e2d 0C       		.byte	0xc
 7403 0e2e 00       		.byte	0
 7404 0e2f 04       		.uleb128 0x4
 7405 0e30 60060000 		.4byte	.LASF213
 7406 0e34 0D       		.byte	0xd
 7407 0e35 6B       		.byte	0x6b
 7408 0e36 3A0E0000 		.4byte	0xe3a
 7409 0e3a 17       		.uleb128 0x17
 7410 0e3b 4E100000 		.4byte	.LASF214
 7411 0e3f 1404     		.2byte	0x414
 7412 0e41 0E       		.byte	0xe
 7413 0e42 A201     		.2byte	0x1a2
 7414 0e44 7D0E0000 		.4byte	0xe7d
 7415 0e48 18       		.uleb128 0x18
 7416 0e49 11060000 		.4byte	.LASF215
 7417 0e4d 0E       		.byte	0xe
 7418 0e4e AA01     		.2byte	0x1aa
 7419 0e50 DF050000 		.4byte	0x5df
 7420 0e54 00       		.byte	0
 7421 0e55 18       		.uleb128 0x18
 7422 0e56 FE070000 		.4byte	.LASF216
 7423 0e5a 0E       		.byte	0xe
 7424 0e5b AF01     		.2byte	0x1af
 7425 0e5d 510B0000 		.4byte	0xb51
 7426 0e61 04       		.byte	0x4
 7427 0e62 18       		.uleb128 0x18
 7428 0e63 27030000 		.4byte	.LASF217
 7429 0e67 0E       		.byte	0xe
 7430 0e68 B301     		.2byte	0x1b3
 7431 0e6a 510B0000 		.4byte	0xb51
 7432 0e6e 08       		.byte	0x8
 7433 0e6f 18       		.uleb128 0x18
 7434 0e70 70070000 		.4byte	.LASF218
 7435 0e74 0E       		.byte	0xe
 7436 0e75 B901     		.2byte	0x1b9
 7437 0e77 0A110000 		.4byte	0x110a
 7438 0e7b 0C       		.byte	0xc
 7439 0e7c 00       		.byte	0
 7440 0e7d 04       		.uleb128 0x4
 7441 0e7e 44120000 		.4byte	.LASF219
 7442 0e82 0D       		.byte	0xd
 7443 0e83 70       		.byte	0x70
 7444 0e84 880E0000 		.4byte	0xe88
 7445 0e88 17       		.uleb128 0x17
 7446 0e89 A1110000 		.4byte	.LASF220
 7447 0e8d 7006     		.2byte	0x670
 7448 0e8f 0E       		.byte	0xe
 7449 0e90 C201     		.2byte	0x1c2
 7450 0e92 F50E0000 		.4byte	0xef5
 7451 0e96 18       		.uleb128 0x18
 7452 0e97 2B0F0000 		.4byte	.LASF221
 7453 0e9b 0E       		.byte	0xe
 7454 0e9c C601     		.2byte	0x1c6
ARM GAS  /var/folders/d2/nstgp4h54kz7g1l847x_b8wc0000gn/T//ccW13lHv.s 			page 133


 7455 0e9e 050D0000 		.4byte	0xd05
 7456 0ea2 00       		.byte	0
 7457 0ea3 18       		.uleb128 0x18
 7458 0ea4 D4100000 		.4byte	.LASF222
 7459 0ea8 0E       		.byte	0xe
 7460 0ea9 CA01     		.2byte	0x1ca
 7461 0eab E20D0000 		.4byte	0xde2
 7462 0eaf 1C       		.byte	0x1c
 7463 0eb0 23       		.uleb128 0x23
 7464 0eb1 64626700 		.ascii	"dbg\000"
 7465 0eb5 0E       		.byte	0xe
 7466 0eb6 CE01     		.2byte	0x1ce
 7467 0eb8 2F0E0000 		.4byte	0xe2f
 7468 0ebc 2C       		.byte	0x2c
 7469 0ebd 19       		.uleb128 0x19
 7470 0ebe 9C0E0000 		.4byte	.LASF223
 7471 0ec2 0E       		.byte	0xe
 7472 0ec3 D201     		.2byte	0x1d2
 7473 0ec5 770B0000 		.4byte	0xb77
 7474 0ec9 4004     		.2byte	0x440
 7475 0ecb 24       		.uleb128 0x24
 7476 0ecc 746D00   		.ascii	"tm\000"
 7477 0ecf 0E       		.byte	0xe
 7478 0ed0 D701     		.2byte	0x1d7
 7479 0ed2 2A110000 		.4byte	0x112a
 7480 0ed6 A804     		.2byte	0x4a8
 7481 0ed8 19       		.uleb128 0x19
 7482 0ed9 850D0000 		.4byte	.LASF224
 7483 0edd 0E       		.byte	0xe
 7484 0ede DD01     		.2byte	0x1dd
 7485 0ee0 BC110000 		.4byte	0x11bc
 7486 0ee4 B004     		.2byte	0x4b0
 7487 0ee6 19       		.uleb128 0x19
 7488 0ee7 5A0B0000 		.4byte	.LASF225
 7489 0eeb 0E       		.byte	0xe
 7490 0eec E301     		.2byte	0x1e3
 7491 0eee A4120000 		.4byte	0x12a4
 7492 0ef2 E804     		.2byte	0x4e8
 7493 0ef4 00       		.byte	0
 7494 0ef5 20       		.uleb128 0x20
 7495 0ef6 120B0000 		.4byte	.LASF226
 7496 0efa 0F       		.byte	0xf
 7497 0efb A706     		.2byte	0x6a7
 7498 0efd 03090000 		.4byte	0x903
 7499 0f01 21       		.uleb128 0x21
 7500 0f02 E3080000 		.4byte	.LASF227
 7501 0f06 10       		.byte	0x10
 7502 0f07 4C       		.byte	0x4c
 7503 0f08 08090000 		.4byte	0x908
 7504 0f0c 04       		.uleb128 0x4
 7505 0f0d CE040000 		.4byte	.LASF228
 7506 0f11 11       		.byte	0x11
 7507 0f12 65       		.byte	0x65
 7508 0f13 59010000 		.4byte	0x159
 7509 0f17 04       		.uleb128 0x4
 7510 0f18 34070000 		.4byte	.LASF229
 7511 0f1c 11       		.byte	0x11
ARM GAS  /var/folders/d2/nstgp4h54kz7g1l847x_b8wc0000gn/T//ccW13lHv.s 			page 134


 7512 0f1d 6D       		.byte	0x6d
 7513 0f1e 13090000 		.4byte	0x913
 7514 0f22 10       		.uleb128 0x10
 7515 0f23 A1050000 		.4byte	.LASF230
 7516 0f27 04       		.byte	0x4
 7517 0f28 11       		.byte	0x11
 7518 0f29 89       		.byte	0x89
 7519 0f2a 3B0F0000 		.4byte	0xf3b
 7520 0f2e 11       		.uleb128 0x11
 7521 0f2f 72313300 		.ascii	"r13\000"
 7522 0f33 11       		.byte	0x11
 7523 0f34 8A       		.byte	0x8a
 7524 0f35 7C100000 		.4byte	0x107c
 7525 0f39 00       		.byte	0
 7526 0f3a 00       		.byte	0
 7527 0f3b 10       		.uleb128 0x10
 7528 0f3c 0F0D0000 		.4byte	.LASF231
 7529 0f40 64       		.byte	0x64
 7530 0f41 12       		.byte	0x12
 7531 0f42 F4       		.byte	0xf4
 7532 0f43 7C100000 		.4byte	0x107c
 7533 0f47 11       		.uleb128 0x11
 7534 0f48 73313600 		.ascii	"s16\000"
 7535 0f4c 12       		.byte	0x12
 7536 0f4d F6       		.byte	0xf6
 7537 0f4e 0C0F0000 		.4byte	0xf0c
 7538 0f52 00       		.byte	0
 7539 0f53 11       		.uleb128 0x11
 7540 0f54 73313700 		.ascii	"s17\000"
 7541 0f58 12       		.byte	0x12
 7542 0f59 F7       		.byte	0xf7
 7543 0f5a 0C0F0000 		.4byte	0xf0c
 7544 0f5e 04       		.byte	0x4
 7545 0f5f 11       		.uleb128 0x11
 7546 0f60 73313800 		.ascii	"s18\000"
 7547 0f64 12       		.byte	0x12
 7548 0f65 F8       		.byte	0xf8
 7549 0f66 0C0F0000 		.4byte	0xf0c
 7550 0f6a 08       		.byte	0x8
 7551 0f6b 11       		.uleb128 0x11
 7552 0f6c 73313900 		.ascii	"s19\000"
 7553 0f70 12       		.byte	0x12
 7554 0f71 F9       		.byte	0xf9
 7555 0f72 0C0F0000 		.4byte	0xf0c
 7556 0f76 0C       		.byte	0xc
 7557 0f77 11       		.uleb128 0x11
 7558 0f78 73323000 		.ascii	"s20\000"
 7559 0f7c 12       		.byte	0x12
 7560 0f7d FA       		.byte	0xfa
 7561 0f7e 0C0F0000 		.4byte	0xf0c
 7562 0f82 10       		.byte	0x10
 7563 0f83 11       		.uleb128 0x11
 7564 0f84 73323100 		.ascii	"s21\000"
 7565 0f88 12       		.byte	0x12
 7566 0f89 FB       		.byte	0xfb
 7567 0f8a 0C0F0000 		.4byte	0xf0c
 7568 0f8e 14       		.byte	0x14
ARM GAS  /var/folders/d2/nstgp4h54kz7g1l847x_b8wc0000gn/T//ccW13lHv.s 			page 135


 7569 0f8f 11       		.uleb128 0x11
 7570 0f90 73323200 		.ascii	"s22\000"
 7571 0f94 12       		.byte	0x12
 7572 0f95 FC       		.byte	0xfc
 7573 0f96 0C0F0000 		.4byte	0xf0c
 7574 0f9a 18       		.byte	0x18
 7575 0f9b 11       		.uleb128 0x11
 7576 0f9c 73323300 		.ascii	"s23\000"
 7577 0fa0 12       		.byte	0x12
 7578 0fa1 FD       		.byte	0xfd
 7579 0fa2 0C0F0000 		.4byte	0xf0c
 7580 0fa6 1C       		.byte	0x1c
 7581 0fa7 11       		.uleb128 0x11
 7582 0fa8 73323400 		.ascii	"s24\000"
 7583 0fac 12       		.byte	0x12
 7584 0fad FE       		.byte	0xfe
 7585 0fae 0C0F0000 		.4byte	0xf0c
 7586 0fb2 20       		.byte	0x20
 7587 0fb3 11       		.uleb128 0x11
 7588 0fb4 73323500 		.ascii	"s25\000"
 7589 0fb8 12       		.byte	0x12
 7590 0fb9 FF       		.byte	0xff
 7591 0fba 0C0F0000 		.4byte	0xf0c
 7592 0fbe 24       		.byte	0x24
 7593 0fbf 23       		.uleb128 0x23
 7594 0fc0 73323600 		.ascii	"s26\000"
 7595 0fc4 12       		.byte	0x12
 7596 0fc5 0001     		.2byte	0x100
 7597 0fc7 0C0F0000 		.4byte	0xf0c
 7598 0fcb 28       		.byte	0x28
 7599 0fcc 23       		.uleb128 0x23
 7600 0fcd 73323700 		.ascii	"s27\000"
 7601 0fd1 12       		.byte	0x12
 7602 0fd2 0101     		.2byte	0x101
 7603 0fd4 0C0F0000 		.4byte	0xf0c
 7604 0fd8 2C       		.byte	0x2c
 7605 0fd9 23       		.uleb128 0x23
 7606 0fda 73323800 		.ascii	"s28\000"
 7607 0fde 12       		.byte	0x12
 7608 0fdf 0201     		.2byte	0x102
 7609 0fe1 0C0F0000 		.4byte	0xf0c
 7610 0fe5 30       		.byte	0x30
 7611 0fe6 23       		.uleb128 0x23
 7612 0fe7 73323900 		.ascii	"s29\000"
 7613 0feb 12       		.byte	0x12
 7614 0fec 0301     		.2byte	0x103
 7615 0fee 0C0F0000 		.4byte	0xf0c
 7616 0ff2 34       		.byte	0x34
 7617 0ff3 23       		.uleb128 0x23
 7618 0ff4 73333000 		.ascii	"s30\000"
 7619 0ff8 12       		.byte	0x12
 7620 0ff9 0401     		.2byte	0x104
 7621 0ffb 0C0F0000 		.4byte	0xf0c
 7622 0fff 38       		.byte	0x38
 7623 1000 23       		.uleb128 0x23
 7624 1001 73333100 		.ascii	"s31\000"
 7625 1005 12       		.byte	0x12
ARM GAS  /var/folders/d2/nstgp4h54kz7g1l847x_b8wc0000gn/T//ccW13lHv.s 			page 136


 7626 1006 0501     		.2byte	0x105
 7627 1008 0C0F0000 		.4byte	0xf0c
 7628 100c 3C       		.byte	0x3c
 7629 100d 23       		.uleb128 0x23
 7630 100e 723400   		.ascii	"r4\000"
 7631 1011 12       		.byte	0x12
 7632 1012 0701     		.2byte	0x107
 7633 1014 0C0F0000 		.4byte	0xf0c
 7634 1018 40       		.byte	0x40
 7635 1019 23       		.uleb128 0x23
 7636 101a 723500   		.ascii	"r5\000"
 7637 101d 12       		.byte	0x12
 7638 101e 0801     		.2byte	0x108
 7639 1020 0C0F0000 		.4byte	0xf0c
 7640 1024 44       		.byte	0x44
 7641 1025 23       		.uleb128 0x23
 7642 1026 723600   		.ascii	"r6\000"
 7643 1029 12       		.byte	0x12
 7644 102a 0901     		.2byte	0x109
 7645 102c 0C0F0000 		.4byte	0xf0c
 7646 1030 48       		.byte	0x48
 7647 1031 23       		.uleb128 0x23
 7648 1032 723700   		.ascii	"r7\000"
 7649 1035 12       		.byte	0x12
 7650 1036 0A01     		.2byte	0x10a
 7651 1038 0C0F0000 		.4byte	0xf0c
 7652 103c 4C       		.byte	0x4c
 7653 103d 23       		.uleb128 0x23
 7654 103e 723800   		.ascii	"r8\000"
 7655 1041 12       		.byte	0x12
 7656 1042 0B01     		.2byte	0x10b
 7657 1044 0C0F0000 		.4byte	0xf0c
 7658 1048 50       		.byte	0x50
 7659 1049 23       		.uleb128 0x23
 7660 104a 723900   		.ascii	"r9\000"
 7661 104d 12       		.byte	0x12
 7662 104e 0C01     		.2byte	0x10c
 7663 1050 0C0F0000 		.4byte	0xf0c
 7664 1054 54       		.byte	0x54
 7665 1055 23       		.uleb128 0x23
 7666 1056 72313000 		.ascii	"r10\000"
 7667 105a 12       		.byte	0x12
 7668 105b 0D01     		.2byte	0x10d
 7669 105d 0C0F0000 		.4byte	0xf0c
 7670 1061 58       		.byte	0x58
 7671 1062 23       		.uleb128 0x23
 7672 1063 72313100 		.ascii	"r11\000"
 7673 1067 12       		.byte	0x12
 7674 1068 0E01     		.2byte	0x10e
 7675 106a 0C0F0000 		.4byte	0xf0c
 7676 106e 5C       		.byte	0x5c
 7677 106f 23       		.uleb128 0x23
 7678 1070 6C7200   		.ascii	"lr\000"
 7679 1073 12       		.byte	0x12
 7680 1074 0F01     		.2byte	0x10f
 7681 1076 0C0F0000 		.4byte	0xf0c
 7682 107a 60       		.byte	0x60
ARM GAS  /var/folders/d2/nstgp4h54kz7g1l847x_b8wc0000gn/T//ccW13lHv.s 			page 137


 7683 107b 00       		.byte	0
 7684 107c 05       		.uleb128 0x5
 7685 107d 04       		.byte	0x4
 7686 107e 3B0F0000 		.4byte	0xf3b
 7687 1082 0C       		.uleb128 0xc
 7688 1083 10       		.byte	0x10
 7689 1084 13       		.byte	0x13
 7690 1085 51       		.byte	0x51
 7691 1086 BB100000 		.4byte	0x10bb
 7692 108a 0D       		.uleb128 0xd
 7693 108b E1120000 		.4byte	.LASF232
 7694 108f 13       		.byte	0x13
 7695 1090 55       		.byte	0x55
 7696 1091 670B0000 		.4byte	0xb67
 7697 1095 00       		.byte	0
 7698 1096 0D       		.uleb128 0xd
 7699 1097 6D030000 		.4byte	.LASF233
 7700 109b 13       		.byte	0x13
 7701 109c 59       		.byte	0x59
 7702 109d AB0C0000 		.4byte	0xcab
 7703 10a1 04       		.byte	0x4
 7704 10a2 0D       		.uleb128 0xd
 7705 10a3 500B0000 		.4byte	.LASF234
 7706 10a7 13       		.byte	0x13
 7707 10a8 5D       		.byte	0x5d
 7708 10a9 59010000 		.4byte	0x159
 7709 10ad 08       		.byte	0x8
 7710 10ae 0D       		.uleb128 0xd
 7711 10af 47080000 		.4byte	.LASF235
 7712 10b3 13       		.byte	0x13
 7713 10b4 61       		.byte	0x61
 7714 10b5 E2080000 		.4byte	0x8e2
 7715 10b9 0C       		.byte	0xc
 7716 10ba 00       		.byte	0
 7717 10bb 04       		.uleb128 0x4
 7718 10bc E2090000 		.4byte	.LASF236
 7719 10c0 13       		.byte	0x13
 7720 10c1 62       		.byte	0x62
 7721 10c2 82100000 		.4byte	0x1082
 7722 10c6 25       		.uleb128 0x25
 7723 10c7 0804     		.2byte	0x408
 7724 10c9 13       		.byte	0x13
 7725 10ca 67       		.byte	0x67
 7726 10cb F4100000 		.4byte	0x10f4
 7727 10cf 0D       		.uleb128 0xd
 7728 10d0 E10A0000 		.4byte	.LASF237
 7729 10d4 13       		.byte	0x13
 7730 10d5 6B       		.byte	0x6b
 7731 10d6 3E000000 		.4byte	0x3e
 7732 10da 00       		.byte	0
 7733 10db 0D       		.uleb128 0xd
 7734 10dc FC120000 		.4byte	.LASF238
 7735 10e0 13       		.byte	0x13
 7736 10e1 6F       		.byte	0x6f
 7737 10e2 F4100000 		.4byte	0x10f4
 7738 10e6 04       		.byte	0x4
 7739 10e7 0D       		.uleb128 0xd
ARM GAS  /var/folders/d2/nstgp4h54kz7g1l847x_b8wc0000gn/T//ccW13lHv.s 			page 138


 7740 10e8 9B0A0000 		.4byte	.LASF239
 7741 10ec 13       		.byte	0x13
 7742 10ed 73       		.byte	0x73
 7743 10ee FA100000 		.4byte	0x10fa
 7744 10f2 08       		.byte	0x8
 7745 10f3 00       		.byte	0
 7746 10f4 05       		.uleb128 0x5
 7747 10f5 04       		.byte	0x4
 7748 10f6 BB100000 		.4byte	0x10bb
 7749 10fa 0A       		.uleb128 0xa
 7750 10fb BB100000 		.4byte	0x10bb
 7751 10ff 0A110000 		.4byte	0x110a
 7752 1103 0B       		.uleb128 0xb
 7753 1104 3E000000 		.4byte	0x3e
 7754 1108 3F       		.byte	0x3f
 7755 1109 00       		.byte	0
 7756 110a 04       		.uleb128 0x4
 7757 110b A6070000 		.4byte	.LASF240
 7758 110f 13       		.byte	0x13
 7759 1110 74       		.byte	0x74
 7760 1111 C6100000 		.4byte	0x10c6
 7761 1115 0C       		.uleb128 0xc
 7762 1116 04       		.byte	0x4
 7763 1117 14       		.byte	0x14
 7764 1118 38       		.byte	0x38
 7765 1119 2A110000 		.4byte	0x112a
 7766 111d 0D       		.uleb128 0xd
 7767 111e 670C0000 		.4byte	.LASF241
 7768 1122 14       		.byte	0x14
 7769 1123 3C       		.byte	0x3c
 7770 1124 EE0A0000 		.4byte	0xaee
 7771 1128 00       		.byte	0
 7772 1129 00       		.byte	0
 7773 112a 04       		.uleb128 0x4
 7774 112b 4C0F0000 		.4byte	.LASF242
 7775 112f 14       		.byte	0x14
 7776 1130 3D       		.byte	0x3d
 7777 1131 15110000 		.4byte	0x1115
 7778 1135 0C       		.uleb128 0xc
 7779 1136 18       		.byte	0x18
 7780 1137 14       		.byte	0x14
 7781 1138 48       		.byte	0x48
 7782 1139 78110000 		.4byte	0x1178
 7783 113d 0D       		.uleb128 0xd
 7784 113e CD0E0000 		.4byte	.LASF243
 7785 1142 14       		.byte	0x14
 7786 1143 49       		.byte	0x49
 7787 1144 EE0A0000 		.4byte	0xaee
 7788 1148 00       		.byte	0
 7789 1149 0D       		.uleb128 0xd
 7790 114a 68100000 		.4byte	.LASF244
 7791 114e 14       		.byte	0x14
 7792 114f 4A       		.byte	0x4a
 7793 1150 EE0A0000 		.4byte	0xaee
 7794 1154 04       		.byte	0x4
 7795 1155 0D       		.uleb128 0xd
 7796 1156 20130000 		.4byte	.LASF245
ARM GAS  /var/folders/d2/nstgp4h54kz7g1l847x_b8wc0000gn/T//ccW13lHv.s 			page 139


 7797 115a 14       		.byte	0x14
 7798 115b 4B       		.byte	0x4b
 7799 115c EE0A0000 		.4byte	0xaee
 7800 1160 08       		.byte	0x8
 7801 1161 11       		.uleb128 0x11
 7802 1162 6E00     		.ascii	"n\000"
 7803 1164 14       		.byte	0x14
 7804 1165 4C       		.byte	0x4c
 7805 1166 5C0B0000 		.4byte	0xb5c
 7806 116a 0C       		.byte	0xc
 7807 116b 0D       		.uleb128 0xd
 7808 116c 06080000 		.4byte	.LASF246
 7809 1170 14       		.byte	0x14
 7810 1171 4D       		.byte	0x4d
 7811 1172 F90A0000 		.4byte	0xaf9
 7812 1176 10       		.byte	0x10
 7813 1177 00       		.byte	0
 7814 1178 04       		.uleb128 0x4
 7815 1179 73030000 		.4byte	.LASF247
 7816 117d 14       		.byte	0x14
 7817 117e 4E       		.byte	0x4e
 7818 117f 35110000 		.4byte	0x1135
 7819 1183 0C       		.uleb128 0xc
 7820 1184 38       		.byte	0x38
 7821 1185 15       		.byte	0x15
 7822 1186 38       		.byte	0x38
 7823 1187 BC110000 		.4byte	0x11bc
 7824 118b 0D       		.uleb128 0xd
 7825 118c F9090000 		.4byte	.LASF248
 7826 1190 15       		.byte	0x15
 7827 1191 39       		.byte	0x39
 7828 1192 5C0B0000 		.4byte	0xb5c
 7829 1196 00       		.byte	0
 7830 1197 0D       		.uleb128 0xd
 7831 1198 17070000 		.4byte	.LASF249
 7832 119c 15       		.byte	0x15
 7833 119d 3A       		.byte	0x3a
 7834 119e 5C0B0000 		.4byte	0xb5c
 7835 11a2 04       		.byte	0x4
 7836 11a3 0D       		.uleb128 0xd
 7837 11a4 50080000 		.4byte	.LASF250
 7838 11a8 15       		.byte	0x15
 7839 11a9 3B       		.byte	0x3b
 7840 11aa 78110000 		.4byte	0x1178
 7841 11ae 08       		.byte	0x8
 7842 11af 0D       		.uleb128 0xd
 7843 11b0 28080000 		.4byte	.LASF251
 7844 11b4 15       		.byte	0x15
 7845 11b5 3D       		.byte	0x3d
 7846 11b6 78110000 		.4byte	0x1178
 7847 11ba 20       		.byte	0x20
 7848 11bb 00       		.byte	0
 7849 11bc 04       		.uleb128 0x4
 7850 11bd DA0B0000 		.4byte	.LASF252
 7851 11c1 15       		.byte	0x15
 7852 11c2 3F       		.byte	0x3f
 7853 11c3 83110000 		.4byte	0x1183
ARM GAS  /var/folders/d2/nstgp4h54kz7g1l847x_b8wc0000gn/T//ccW13lHv.s 			page 140


 7854 11c7 08       		.uleb128 0x8
 7855 11c8 04       		.byte	0x4
 7856 11c9 0E       		.byte	0xe
 7857 11ca FA       		.byte	0xfa
 7858 11cb 24120000 		.4byte	0x1224
 7859 11cf 1E       		.uleb128 0x1e
 7860 11d0 1B120000 		.4byte	.LASF253
 7861 11d4 0E       		.byte	0xe
 7862 11d5 0101     		.2byte	0x101
 7863 11d7 3B0B0000 		.4byte	0xb3b
 7864 11db 1E       		.uleb128 0x1e
 7865 11dc DF030000 		.4byte	.LASF254
 7866 11e0 0E       		.byte	0xe
 7867 11e1 0801     		.2byte	0x108
 7868 11e3 3B0B0000 		.4byte	0xb3b
 7869 11e7 1E       		.uleb128 0x1e
 7870 11e8 04070000 		.4byte	.LASF255
 7871 11ec 0E       		.byte	0xe
 7872 11ed 0F01     		.2byte	0x10f
 7873 11ef 59010000 		.4byte	0x159
 7874 11f3 1E       		.uleb128 0x1e
 7875 11f4 A9050000 		.4byte	.LASF256
 7876 11f8 0E       		.byte	0xe
 7877 11f9 1601     		.2byte	0x116
 7878 11fb 24120000 		.4byte	0x1224
 7879 11ff 1E       		.uleb128 0x1e
 7880 1200 19130000 		.4byte	.LASF257
 7881 1204 0E       		.byte	0xe
 7882 1205 1E01     		.2byte	0x11e
 7883 1207 4F120000 		.4byte	0x124f
 7884 120b 1E       		.uleb128 0x1e
 7885 120c C3070000 		.4byte	.LASF258
 7886 1210 0E       		.byte	0xe
 7887 1211 2701     		.2byte	0x127
 7888 1213 92120000 		.4byte	0x1292
 7889 1217 1E       		.uleb128 0x1e
 7890 1218 F2030000 		.4byte	.LASF259
 7891 121c 0E       		.byte	0xe
 7892 121d 2F01     		.2byte	0x12f
 7893 121f 460B0000 		.4byte	0xb46
 7894 1223 00       		.byte	0
 7895 1224 05       		.uleb128 0x5
 7896 1225 04       		.byte	0x4
 7897 1226 A00C0000 		.4byte	0xca0
 7898 122a 10       		.uleb128 0x10
 7899 122b F3080000 		.4byte	.LASF260
 7900 122f 0C       		.byte	0xc
 7901 1230 16       		.byte	0x16
 7902 1231 34       		.byte	0x34
 7903 1232 4F120000 		.4byte	0x124f
 7904 1236 0D       		.uleb128 0xd
 7905 1237 800F0000 		.4byte	.LASF261
 7906 123b 16       		.byte	0x16
 7907 123c 35       		.byte	0x35
 7908 123d D50C0000 		.4byte	0xcd5
 7909 1241 00       		.byte	0
 7910 1242 0D       		.uleb128 0xd
ARM GAS  /var/folders/d2/nstgp4h54kz7g1l847x_b8wc0000gn/T//ccW13lHv.s 			page 141


 7911 1243 710D0000 		.4byte	.LASF262
 7912 1247 16       		.byte	0x16
 7913 1248 37       		.byte	0x37
 7914 1249 510B0000 		.4byte	0xb51
 7915 124d 08       		.byte	0x8
 7916 124e 00       		.byte	0
 7917 124f 05       		.uleb128 0x5
 7918 1250 04       		.byte	0x4
 7919 1251 2A120000 		.4byte	0x122a
 7920 1255 10       		.uleb128 0x10
 7921 1256 D30F0000 		.4byte	.LASF263
 7922 125a 14       		.byte	0x14
 7923 125b 17       		.byte	0x17
 7924 125c 39       		.byte	0x39
 7925 125d 92120000 		.4byte	0x1292
 7926 1261 0D       		.uleb128 0xd
 7927 1262 8C0A0000 		.4byte	.LASF264
 7928 1266 17       		.byte	0x17
 7929 1267 3A       		.byte	0x3a
 7930 1268 D50C0000 		.4byte	0xcd5
 7931 126c 00       		.byte	0
 7932 126d 0D       		.uleb128 0xd
 7933 126e C2030000 		.4byte	.LASF265
 7934 1272 17       		.byte	0x17
 7935 1273 3C       		.byte	0x3c
 7936 1274 AB0C0000 		.4byte	0xcab
 7937 1278 08       		.byte	0x8
 7938 1279 0D       		.uleb128 0xd
 7939 127a F5120000 		.4byte	.LASF266
 7940 127e 17       		.byte	0x17
 7941 127f 3E       		.byte	0x3e
 7942 1280 D6130000 		.4byte	0x13d6
 7943 1284 0C       		.byte	0xc
 7944 1285 0D       		.uleb128 0xd
 7945 1286 CA060000 		.4byte	.LASF267
 7946 128a 17       		.byte	0x17
 7947 128b 41       		.byte	0x41
 7948 128c 510B0000 		.4byte	0xb51
 7949 1290 10       		.byte	0x10
 7950 1291 00       		.byte	0
 7951 1292 05       		.uleb128 0x5
 7952 1293 04       		.byte	0x4
 7953 1294 55120000 		.4byte	0x1255
 7954 1298 05       		.uleb128 0x5
 7955 1299 04       		.byte	0x4
 7956 129a 170F0000 		.4byte	0xf17
 7957 129e 05       		.uleb128 0x5
 7958 129f 04       		.byte	0x4
 7959 12a0 880D0000 		.4byte	0xd88
 7960 12a4 0A       		.uleb128 0xa
 7961 12a5 170F0000 		.4byte	0xf17
 7962 12a9 B4120000 		.4byte	0x12b4
 7963 12ad 0B       		.uleb128 0xb
 7964 12ae 3E000000 		.4byte	0x3e
 7965 12b2 30       		.byte	0x30
 7966 12b3 00       		.byte	0
 7967 12b4 26       		.uleb128 0x26
ARM GAS  /var/folders/d2/nstgp4h54kz7g1l847x_b8wc0000gn/T//ccW13lHv.s 			page 142


 7968 12b5 636800   		.ascii	"ch\000"
 7969 12b8 0E       		.byte	0xe
 7970 12b9 0902     		.2byte	0x209
 7971 12bb 7D0E0000 		.4byte	0xe7d
 7972 12bf 0C       		.uleb128 0xc
 7973 12c0 16       		.byte	0x16
 7974 12c1 18       		.byte	0x18
 7975 12c2 34       		.byte	0x34
 7976 12c3 A0130000 		.4byte	0x13a0
 7977 12c7 0D       		.uleb128 0xd
 7978 12c8 99000000 		.4byte	.LASF268
 7979 12cc 18       		.byte	0x18
 7980 12cd 35       		.byte	0x35
 7981 12ce A0130000 		.4byte	0x13a0
 7982 12d2 00       		.byte	0
 7983 12d3 0D       		.uleb128 0xd
 7984 12d4 96080000 		.4byte	.LASF269
 7985 12d8 18       		.byte	0x18
 7986 12d9 36       		.byte	0x36
 7987 12da E2080000 		.4byte	0x8e2
 7988 12de 04       		.byte	0x4
 7989 12df 0D       		.uleb128 0xd
 7990 12e0 61120000 		.4byte	.LASF270
 7991 12e4 18       		.byte	0x18
 7992 12e5 37       		.byte	0x37
 7993 12e6 E2080000 		.4byte	0x8e2
 7994 12ea 05       		.byte	0x5
 7995 12eb 0D       		.uleb128 0xd
 7996 12ec 810A0000 		.4byte	.LASF271
 7997 12f0 18       		.byte	0x18
 7998 12f1 38       		.byte	0x38
 7999 12f2 ED080000 		.4byte	0x8ed
 8000 12f6 06       		.byte	0x6
 8001 12f7 0D       		.uleb128 0xd
 8002 12f8 57030000 		.4byte	.LASF272
 8003 12fc 18       		.byte	0x18
 8004 12fd 39       		.byte	0x39
 8005 12fe E2080000 		.4byte	0x8e2
 8006 1302 08       		.byte	0x8
 8007 1303 0D       		.uleb128 0xd
 8008 1304 C60A0000 		.4byte	.LASF273
 8009 1308 18       		.byte	0x18
 8010 1309 3A       		.byte	0x3a
 8011 130a E2080000 		.4byte	0x8e2
 8012 130e 09       		.byte	0x9
 8013 130f 0D       		.uleb128 0xd
 8014 1310 FF030000 		.4byte	.LASF274
 8015 1314 18       		.byte	0x18
 8016 1315 3B       		.byte	0x3b
 8017 1316 E2080000 		.4byte	0x8e2
 8018 131a 0A       		.byte	0xa
 8019 131b 0D       		.uleb128 0xd
 8020 131c 3F070000 		.4byte	.LASF275
 8021 1320 18       		.byte	0x18
 8022 1321 3C       		.byte	0x3c
 8023 1322 E2080000 		.4byte	0x8e2
 8024 1326 0B       		.byte	0xb
ARM GAS  /var/folders/d2/nstgp4h54kz7g1l847x_b8wc0000gn/T//ccW13lHv.s 			page 143


 8025 1327 0D       		.uleb128 0xd
 8026 1328 3D020000 		.4byte	.LASF276
 8027 132c 18       		.byte	0x18
 8028 132d 3D       		.byte	0x3d
 8029 132e E2080000 		.4byte	0x8e2
 8030 1332 0C       		.byte	0xc
 8031 1333 0D       		.uleb128 0xd
 8032 1334 27070000 		.4byte	.LASF277
 8033 1338 18       		.byte	0x18
 8034 1339 3E       		.byte	0x3e
 8035 133a E2080000 		.4byte	0x8e2
 8036 133e 0D       		.byte	0xd
 8037 133f 0D       		.uleb128 0xd
 8038 1340 6E100000 		.4byte	.LASF278
 8039 1344 18       		.byte	0x18
 8040 1345 3F       		.byte	0x3f
 8041 1346 E2080000 		.4byte	0x8e2
 8042 134a 0E       		.byte	0xe
 8043 134b 0D       		.uleb128 0xd
 8044 134c 58000000 		.4byte	.LASF279
 8045 1350 18       		.byte	0x18
 8046 1351 40       		.byte	0x40
 8047 1352 E2080000 		.4byte	0x8e2
 8048 1356 0F       		.byte	0xf
 8049 1357 0D       		.uleb128 0xd
 8050 1358 52110000 		.4byte	.LASF280
 8051 135c 18       		.byte	0x18
 8052 135d 41       		.byte	0x41
 8053 135e E2080000 		.4byte	0x8e2
 8054 1362 10       		.byte	0x10
 8055 1363 0D       		.uleb128 0xd
 8056 1364 63040000 		.4byte	.LASF281
 8057 1368 18       		.byte	0x18
 8058 1369 43       		.byte	0x43
 8059 136a E2080000 		.4byte	0x8e2
 8060 136e 11       		.byte	0x11
 8061 136f 0D       		.uleb128 0xd
 8062 1370 F50D0000 		.4byte	.LASF282
 8063 1374 18       		.byte	0x18
 8064 1375 44       		.byte	0x44
 8065 1376 E2080000 		.4byte	0x8e2
 8066 137a 12       		.byte	0x12
 8067 137b 0D       		.uleb128 0xd
 8068 137c 9C0C0000 		.4byte	.LASF283
 8069 1380 18       		.byte	0x18
 8070 1381 45       		.byte	0x45
 8071 1382 E2080000 		.4byte	0x8e2
 8072 1386 13       		.byte	0x13
 8073 1387 0D       		.uleb128 0xd
 8074 1388 270A0000 		.4byte	.LASF284
 8075 138c 18       		.byte	0x18
 8076 138d 46       		.byte	0x46
 8077 138e E2080000 		.4byte	0x8e2
 8078 1392 14       		.byte	0x14
 8079 1393 0D       		.uleb128 0xd
 8080 1394 0B070000 		.4byte	.LASF285
 8081 1398 18       		.byte	0x18
ARM GAS  /var/folders/d2/nstgp4h54kz7g1l847x_b8wc0000gn/T//ccW13lHv.s 			page 144


 8082 1399 48       		.byte	0x48
 8083 139a E2080000 		.4byte	0x8e2
 8084 139e 15       		.byte	0x15
 8085 139f 00       		.byte	0
 8086 13a0 0A       		.uleb128 0xa
 8087 13a1 61010000 		.4byte	0x161
 8088 13a5 B0130000 		.4byte	0x13b0
 8089 13a9 0B       		.uleb128 0xb
 8090 13aa 3E000000 		.4byte	0x3e
 8091 13ae 03       		.byte	0x3
 8092 13af 00       		.byte	0
 8093 13b0 04       		.uleb128 0x4
 8094 13b1 50120000 		.4byte	.LASF286
 8095 13b5 18       		.byte	0x18
 8096 13b6 49       		.byte	0x49
 8097 13b7 BF120000 		.4byte	0x12bf
 8098 13bb 0F       		.uleb128 0xf
 8099 13bc B0130000 		.4byte	0x13b0
 8100 13c0 21       		.uleb128 0x21
 8101 13c1 FF010000 		.4byte	.LASF287
 8102 13c5 18       		.byte	0x18
 8103 13c6 6E       		.byte	0x6e
 8104 13c7 BB130000 		.4byte	0x13bb
 8105 13cb 04       		.uleb128 0x4
 8106 13cc 25110000 		.4byte	.LASF288
 8107 13d0 17       		.byte	0x17
 8108 13d1 34       		.byte	0x34
 8109 13d2 55120000 		.4byte	0x1255
 8110 13d6 05       		.uleb128 0x5
 8111 13d7 04       		.byte	0x4
 8112 13d8 CB130000 		.4byte	0x13cb
 8113 13dc 27       		.uleb128 0x27
 8114 13dd 2B0B0000 		.4byte	.LASF289
 8115 13e1 01       		.byte	0x1
 8116 13e2 3902     		.2byte	0x239
 8117 13e4 00000000 		.4byte	.LFB297
 8118 13e8 94000000 		.4byte	.LFE297-.LFB297
 8119 13ec 01       		.uleb128 0x1
 8120 13ed 9C       		.byte	0x9c
 8121 13ee 60150000 		.4byte	0x1560
 8122 13f2 28       		.uleb128 0x28
 8123 13f3 7000     		.ascii	"p\000"
 8124 13f5 01       		.byte	0x1
 8125 13f6 3902     		.2byte	0x239
 8126 13f8 020A0000 		.4byte	0xa02
 8127 13fc 00000000 		.4byte	.LLST203
 8128 1400 28       		.uleb128 0x28
 8129 1401 73747200 		.ascii	"str\000"
 8130 1405 01       		.byte	0x1
 8131 1406 3902     		.2byte	0x239
 8132 1408 D9050000 		.4byte	0x5d9
 8133 140c 42000000 		.4byte	.LLST204
 8134 1410 28       		.uleb128 0x28
 8135 1411 6C656E00 		.ascii	"len\000"
 8136 1415 01       		.byte	0x1
 8137 1416 3902     		.2byte	0x239
 8138 1418 ED080000 		.4byte	0x8ed
ARM GAS  /var/folders/d2/nstgp4h54kz7g1l847x_b8wc0000gn/T//ccW13lHv.s 			page 145


 8139 141c 79000000 		.4byte	.LLST205
 8140 1420 29       		.uleb128 0x29
 8141 1421 51020000 		.4byte	.LASF292
 8142 1425 70150000 		.4byte	0x1570
 8143 1429 05       		.uleb128 0x5
 8144 142a 03       		.byte	0x3
 8145 142b 00000000 		.4byte	__func__.9249
 8146 142f 2A       		.uleb128 0x2a
 8147 1430 4D3A0000 		.4byte	0x3a4d
 8148 1434 1C000000 		.4byte	.LBB738
 8149 1438 0E000000 		.4byte	.LBE738-.LBB738
 8150 143c 01       		.byte	0x1
 8151 143d 3C02     		.2byte	0x23c
 8152 143f 85140000 		.4byte	0x1485
 8153 1443 2A       		.uleb128 0x2a
 8154 1444 5F3A0000 		.4byte	0x3a5f
 8155 1448 1C000000 		.4byte	.LBB740
 8156 144c 06000000 		.4byte	.LBE740-.LBB740
 8157 1450 03       		.byte	0x3
 8158 1451 5C01     		.2byte	0x15c
 8159 1453 72140000 		.4byte	0x1472
 8160 1457 2B       		.uleb128 0x2b
 8161 1458 683A0000 		.4byte	0x3a68
 8162 145c 1C000000 		.4byte	.LBB741
 8163 1460 06000000 		.4byte	.LBE741-.LBB741
 8164 1464 12       		.byte	0x12
 8165 1465 BF01     		.2byte	0x1bf
 8166 1467 2C       		.uleb128 0x2c
 8167 1468 753A0000 		.4byte	0x3a75
 8168 146c 9A000000 		.4byte	.LLST206
 8169 1470 00       		.byte	0
 8170 1471 00       		.byte	0
 8171 1472 2D       		.uleb128 0x2d
 8172 1473 26000000 		.4byte	.LVL492
 8173 1477 D0400000 		.4byte	0x40d0
 8174 147b 2D       		.uleb128 0x2d
 8175 147c 2A000000 		.4byte	.LVL493
 8176 1480 DB400000 		.4byte	0x40db
 8177 1484 00       		.byte	0
 8178 1485 2E       		.uleb128 0x2e
 8179 1486 1D3A0000 		.4byte	0x3a1d
 8180 148a 42000000 		.4byte	.LBB743
 8181 148e 30030000 		.4byte	.Ldebug_ranges0+0x330
 8182 1492 01       		.byte	0x1
 8183 1493 4002     		.2byte	0x240
 8184 1495 F9140000 		.4byte	0x14f9
 8185 1499 2F       		.uleb128 0x2f
 8186 149a 30030000 		.4byte	.Ldebug_ranges0+0x330
 8187 149e 30       		.uleb128 0x30
 8188 149f 2A3A0000 		.4byte	0x3a2a
 8189 14a3 2A       		.uleb128 0x2a
 8190 14a4 563A0000 		.4byte	0x3a56
 8191 14a8 5C000000 		.4byte	.LBB745
 8192 14ac 06000000 		.4byte	.LBE745-.LBB745
 8193 14b0 03       		.byte	0x3
 8194 14b1 7301     		.2byte	0x173
 8195 14b3 D2140000 		.4byte	0x14d2
ARM GAS  /var/folders/d2/nstgp4h54kz7g1l847x_b8wc0000gn/T//ccW13lHv.s 			page 146


 8196 14b7 2B       		.uleb128 0x2b
 8197 14b8 683A0000 		.4byte	0x3a68
 8198 14bc 5C000000 		.4byte	.LBB746
 8199 14c0 06000000 		.4byte	.LBE746-.LBB746
 8200 14c4 12       		.byte	0x12
 8201 14c5 CD01     		.2byte	0x1cd
 8202 14c7 2C       		.uleb128 0x2c
 8203 14c8 753A0000 		.4byte	0x3a75
 8204 14cc AF000000 		.4byte	.LLST207
 8205 14d0 00       		.byte	0
 8206 14d1 00       		.byte	0
 8207 14d2 2D       		.uleb128 0x2d
 8208 14d3 46000000 		.4byte	.LVL496
 8209 14d7 E6400000 		.4byte	0x40e6
 8210 14db 2D       		.uleb128 0x2d
 8211 14dc 4A000000 		.4byte	.LVL497
 8212 14e0 F1400000 		.4byte	0x40f1
 8213 14e4 31       		.uleb128 0x31
 8214 14e5 7C000000 		.4byte	.LVL502
 8215 14e9 FC400000 		.4byte	0x40fc
 8216 14ed 32       		.uleb128 0x32
 8217 14ee 01       		.uleb128 0x1
 8218 14ef 50       		.byte	0x50
 8219 14f0 05       		.uleb128 0x5
 8220 14f1 03       		.byte	0x3
 8221 14f2 00000000 		.4byte	.LANCHOR0
 8222 14f6 00       		.byte	0
 8223 14f7 00       		.byte	0
 8224 14f8 00       		.byte	0
 8225 14f9 33       		.uleb128 0x33
 8226 14fa 1C000000 		.4byte	.LVL490
 8227 14fe FC400000 		.4byte	0x40fc
 8228 1502 10150000 		.4byte	0x1510
 8229 1506 32       		.uleb128 0x32
 8230 1507 01       		.uleb128 0x1
 8231 1508 50       		.byte	0x50
 8232 1509 05       		.uleb128 0x5
 8233 150a 03       		.byte	0x3
 8234 150b 00000000 		.4byte	.LANCHOR17
 8235 150f 00       		.byte	0
 8236 1510 33       		.uleb128 0x33
 8237 1511 36000000 		.4byte	.LVL494
 8238 1515 FC400000 		.4byte	0x40fc
 8239 1519 27150000 		.4byte	0x1527
 8240 151d 32       		.uleb128 0x32
 8241 151e 01       		.uleb128 0x1
 8242 151f 50       		.byte	0x50
 8243 1520 05       		.uleb128 0x5
 8244 1521 03       		.byte	0x3
 8245 1522 00000000 		.4byte	.LANCHOR17
 8246 1526 00       		.byte	0
 8247 1527 33       		.uleb128 0x33
 8248 1528 40000000 		.4byte	.LVL495
 8249 152c 08410000 		.4byte	0x4108
 8250 1530 41150000 		.4byte	0x1541
 8251 1534 32       		.uleb128 0x32
 8252 1535 01       		.uleb128 0x1
ARM GAS  /var/folders/d2/nstgp4h54kz7g1l847x_b8wc0000gn/T//ccW13lHv.s 			page 147


 8253 1536 51       		.byte	0x51
 8254 1537 02       		.uleb128 0x2
 8255 1538 77       		.byte	0x77
 8256 1539 00       		.sleb128 0
 8257 153a 32       		.uleb128 0x32
 8258 153b 01       		.uleb128 0x1
 8259 153c 52       		.byte	0x52
 8260 153d 02       		.uleb128 0x2
 8261 153e 75       		.byte	0x75
 8262 153f 00       		.sleb128 0
 8263 1540 00       		.byte	0
 8264 1541 34       		.uleb128 0x34
 8265 1542 76000000 		.4byte	.LVL501
 8266 1546 17300000 		.4byte	0x3017
 8267 154a 56150000 		.4byte	0x1556
 8268 154e 32       		.uleb128 0x32
 8269 154f 01       		.uleb128 0x1
 8270 1550 50       		.byte	0x50
 8271 1551 03       		.uleb128 0x3
 8272 1552 F3       		.byte	0xf3
 8273 1553 01       		.uleb128 0x1
 8274 1554 50       		.byte	0x50
 8275 1555 00       		.byte	0
 8276 1556 2D       		.uleb128 0x2d
 8277 1557 82000000 		.4byte	.LVL503
 8278 155b 17410000 		.4byte	0x4117
 8279 155f 00       		.byte	0
 8280 1560 0A       		.uleb128 0xa
 8281 1561 68010000 		.4byte	0x168
 8282 1565 70150000 		.4byte	0x1570
 8283 1569 0B       		.uleb128 0xb
 8284 156a 3E000000 		.4byte	0x3e
 8285 156e 1A       		.byte	0x1a
 8286 156f 00       		.byte	0
 8287 1570 0F       		.uleb128 0xf
 8288 1571 60150000 		.4byte	0x1560
 8289 1575 27       		.uleb128 0x27
 8290 1576 D20E0000 		.4byte	.LASF290
 8291 157a 01       		.byte	0x1
 8292 157b 3402     		.2byte	0x234
 8293 157d 00000000 		.4byte	.LFB296
 8294 1581 34000000 		.4byte	.LFE296-.LFB296
 8295 1585 01       		.uleb128 0x1
 8296 1586 9C       		.byte	0x9c
 8297 1587 E3150000 		.4byte	0x15e3
 8298 158b 28       		.uleb128 0x28
 8299 158c 7000     		.ascii	"p\000"
 8300 158e 01       		.byte	0x1
 8301 158f 3402     		.2byte	0x234
 8302 1591 020A0000 		.4byte	0xa02
 8303 1595 C3000000 		.4byte	.LLST208
 8304 1599 28       		.uleb128 0x28
 8305 159a 73747200 		.ascii	"str\000"
 8306 159e 01       		.byte	0x1
 8307 159f 3402     		.2byte	0x234
 8308 15a1 D9050000 		.4byte	0x5d9
 8309 15a5 05010000 		.4byte	.LLST209
ARM GAS  /var/folders/d2/nstgp4h54kz7g1l847x_b8wc0000gn/T//ccW13lHv.s 			page 148


 8310 15a9 33       		.uleb128 0x33
 8311 15aa 14000000 		.4byte	.LVL506
 8312 15ae 20410000 		.4byte	0x4120
 8313 15b2 BD150000 		.4byte	0x15bd
 8314 15b6 32       		.uleb128 0x32
 8315 15b7 01       		.uleb128 0x1
 8316 15b8 50       		.byte	0x50
 8317 15b9 02       		.uleb128 0x2
 8318 15ba 75       		.byte	0x75
 8319 15bb 00       		.sleb128 0
 8320 15bc 00       		.byte	0
 8321 15bd 34       		.uleb128 0x34
 8322 15be 2C000000 		.4byte	.LVL508
 8323 15c2 DC130000 		.4byte	0x13dc
 8324 15c6 D9150000 		.4byte	0x15d9
 8325 15ca 32       		.uleb128 0x32
 8326 15cb 01       		.uleb128 0x1
 8327 15cc 50       		.byte	0x50
 8328 15cd 03       		.uleb128 0x3
 8329 15ce F3       		.byte	0xf3
 8330 15cf 01       		.uleb128 0x1
 8331 15d0 50       		.byte	0x50
 8332 15d1 32       		.uleb128 0x32
 8333 15d2 01       		.uleb128 0x1
 8334 15d3 51       		.byte	0x51
 8335 15d4 03       		.uleb128 0x3
 8336 15d5 F3       		.byte	0xf3
 8337 15d6 01       		.uleb128 0x1
 8338 15d7 51       		.byte	0x51
 8339 15d8 00       		.byte	0
 8340 15d9 2D       		.uleb128 0x2d
 8341 15da 30000000 		.4byte	.LVL509
 8342 15de 17410000 		.4byte	0x4117
 8343 15e2 00       		.byte	0
 8344 15e3 35       		.uleb128 0x35
 8345 15e4 8C040000 		.4byte	.LASF293
 8346 15e8 01       		.byte	0x1
 8347 15e9 2302     		.2byte	0x223
 8348 15eb ED080000 		.4byte	0x8ed
 8349 15ef 00000000 		.4byte	.LFB295
 8350 15f3 B0000000 		.4byte	.LFE295-.LFB295
 8351 15f7 01       		.uleb128 0x1
 8352 15f8 9C       		.byte	0x9c
 8353 15f9 81170000 		.4byte	0x1781
 8354 15fd 28       		.uleb128 0x28
 8355 15fe 7000     		.ascii	"p\000"
 8356 1600 01       		.byte	0x1
 8357 1601 2302     		.2byte	0x223
 8358 1603 020A0000 		.4byte	0xa02
 8359 1607 47010000 		.4byte	.LLST194
 8360 160b 28       		.uleb128 0x28
 8361 160c 6F757400 		.ascii	"out\000"
 8362 1610 01       		.byte	0x1
 8363 1611 2302     		.2byte	0x223
 8364 1613 5B010000 		.4byte	0x15b
 8365 1617 65010000 		.4byte	.LLST195
 8366 161b 36       		.uleb128 0x36
ARM GAS  /var/folders/d2/nstgp4h54kz7g1l847x_b8wc0000gn/T//ccW13lHv.s 			page 149


 8367 161c AA060000 		.4byte	.LASF291
 8368 1620 01       		.byte	0x1
 8369 1621 2302     		.2byte	0x223
 8370 1623 ED080000 		.4byte	0x8ed
 8371 1627 B5010000 		.4byte	.LLST196
 8372 162b 29       		.uleb128 0x29
 8373 162c 51020000 		.4byte	.LASF292
 8374 1630 91170000 		.4byte	0x1791
 8375 1634 05       		.uleb128 0x5
 8376 1635 03       		.byte	0x3
 8377 1636 00000000 		.4byte	__func__.9238
 8378 163a 37       		.uleb128 0x37
 8379 163b 6C656E00 		.ascii	"len\000"
 8380 163f 01       		.byte	0x1
 8381 1640 2802     		.2byte	0x228
 8382 1642 ED080000 		.4byte	0x8ed
 8383 1646 D6010000 		.4byte	.LLST197
 8384 164a 2A       		.uleb128 0x2a
 8385 164b 4D3A0000 		.4byte	0x3a4d
 8386 164f 22000000 		.4byte	.LBB716
 8387 1653 0E000000 		.4byte	.LBE716-.LBB716
 8388 1657 01       		.byte	0x1
 8389 1658 2602     		.2byte	0x226
 8390 165a A0160000 		.4byte	0x16a0
 8391 165e 2A       		.uleb128 0x2a
 8392 165f 5F3A0000 		.4byte	0x3a5f
 8393 1663 22000000 		.4byte	.LBB718
 8394 1667 06000000 		.4byte	.LBE718-.LBB718
 8395 166b 03       		.byte	0x3
 8396 166c 5C01     		.2byte	0x15c
 8397 166e 8D160000 		.4byte	0x168d
 8398 1672 2B       		.uleb128 0x2b
 8399 1673 683A0000 		.4byte	0x3a68
 8400 1677 22000000 		.4byte	.LBB719
 8401 167b 06000000 		.4byte	.LBE719-.LBB719
 8402 167f 12       		.byte	0x12
 8403 1680 BF01     		.2byte	0x1bf
 8404 1682 2C       		.uleb128 0x2c
 8405 1683 753A0000 		.4byte	0x3a75
 8406 1687 F4010000 		.4byte	.LLST198
 8407 168b 00       		.byte	0
 8408 168c 00       		.byte	0
 8409 168d 2D       		.uleb128 0x2d
 8410 168e 2C000000 		.4byte	.LVL466
 8411 1692 D0400000 		.4byte	0x40d0
 8412 1696 2D       		.uleb128 0x2d
 8413 1697 30000000 		.4byte	.LVL467
 8414 169b DB400000 		.4byte	0x40db
 8415 169f 00       		.byte	0
 8416 16a0 2E       		.uleb128 0x2e
 8417 16a1 1D3A0000 		.4byte	0x3a1d
 8418 16a5 4C000000 		.4byte	.LBB721
 8419 16a9 18030000 		.4byte	.Ldebug_ranges0+0x318
 8420 16ad 01       		.byte	0x1
 8421 16ae 3002     		.2byte	0x230
 8422 16b0 14170000 		.4byte	0x1714
 8423 16b4 2F       		.uleb128 0x2f
ARM GAS  /var/folders/d2/nstgp4h54kz7g1l847x_b8wc0000gn/T//ccW13lHv.s 			page 150


 8424 16b5 18030000 		.4byte	.Ldebug_ranges0+0x318
 8425 16b9 30       		.uleb128 0x30
 8426 16ba 2A3A0000 		.4byte	0x3a2a
 8427 16be 2A       		.uleb128 0x2a
 8428 16bf 563A0000 		.4byte	0x3a56
 8429 16c3 66000000 		.4byte	.LBB723
 8430 16c7 06000000 		.4byte	.LBE723-.LBB723
 8431 16cb 03       		.byte	0x3
 8432 16cc 7301     		.2byte	0x173
 8433 16ce ED160000 		.4byte	0x16ed
 8434 16d2 2B       		.uleb128 0x2b
 8435 16d3 683A0000 		.4byte	0x3a68
 8436 16d7 66000000 		.4byte	.LBB724
 8437 16db 06000000 		.4byte	.LBE724-.LBB724
 8438 16df 12       		.byte	0x12
 8439 16e0 CD01     		.2byte	0x1cd
 8440 16e2 2C       		.uleb128 0x2c
 8441 16e3 753A0000 		.4byte	0x3a75
 8442 16e7 09020000 		.4byte	.LLST199
 8443 16eb 00       		.byte	0
 8444 16ec 00       		.byte	0
 8445 16ed 2D       		.uleb128 0x2d
 8446 16ee 50000000 		.4byte	.LVL471
 8447 16f2 E6400000 		.4byte	0x40e6
 8448 16f6 2D       		.uleb128 0x2d
 8449 16f7 54000000 		.4byte	.LVL472
 8450 16fb F1400000 		.4byte	0x40f1
 8451 16ff 31       		.uleb128 0x31
 8452 1700 84000000 		.4byte	.LVL476
 8453 1704 FC400000 		.4byte	0x40fc
 8454 1708 32       		.uleb128 0x32
 8455 1709 01       		.uleb128 0x1
 8456 170a 50       		.byte	0x50
 8457 170b 05       		.uleb128 0x5
 8458 170c 03       		.byte	0x3
 8459 170d 00000000 		.4byte	.LANCHOR0
 8460 1711 00       		.byte	0
 8461 1712 00       		.byte	0
 8462 1713 00       		.byte	0
 8463 1714 33       		.uleb128 0x33
 8464 1715 22000000 		.4byte	.LVL464
 8465 1719 FC400000 		.4byte	0x40fc
 8466 171d 2B170000 		.4byte	0x172b
 8467 1721 32       		.uleb128 0x32
 8468 1722 01       		.uleb128 0x1
 8469 1723 50       		.byte	0x50
 8470 1724 05       		.uleb128 0x5
 8471 1725 03       		.byte	0x3
 8472 1726 00000000 		.4byte	.LANCHOR16
 8473 172a 00       		.byte	0
 8474 172b 33       		.uleb128 0x33
 8475 172c 46000000 		.4byte	.LVL470
 8476 1730 08410000 		.4byte	0x4108
 8477 1734 46170000 		.4byte	0x1746
 8478 1738 32       		.uleb128 0x32
 8479 1739 01       		.uleb128 0x1
 8480 173a 50       		.byte	0x50
ARM GAS  /var/folders/d2/nstgp4h54kz7g1l847x_b8wc0000gn/T//ccW13lHv.s 			page 151


 8481 173b 03       		.uleb128 0x3
 8482 173c F3       		.byte	0xf3
 8483 173d 01       		.uleb128 0x1
 8484 173e 51       		.byte	0x51
 8485 173f 32       		.uleb128 0x32
 8486 1740 01       		.uleb128 0x1
 8487 1741 52       		.byte	0x52
 8488 1742 02       		.uleb128 0x2
 8489 1743 77       		.byte	0x77
 8490 1744 7F       		.sleb128 -1
 8491 1745 00       		.byte	0
 8492 1746 33       		.uleb128 0x33
 8493 1747 8E000000 		.4byte	.LVL478
 8494 174b 08410000 		.4byte	0x4108
 8495 174f 60170000 		.4byte	0x1760
 8496 1753 32       		.uleb128 0x32
 8497 1754 01       		.uleb128 0x1
 8498 1755 50       		.byte	0x50
 8499 1756 02       		.uleb128 0x2
 8500 1757 75       		.byte	0x75
 8501 1758 00       		.sleb128 0
 8502 1759 32       		.uleb128 0x32
 8503 175a 01       		.uleb128 0x1
 8504 175b 52       		.byte	0x52
 8505 175c 02       		.uleb128 0x2
 8506 175d 76       		.byte	0x76
 8507 175e 00       		.sleb128 0
 8508 175f 00       		.byte	0
 8509 1760 33       		.uleb128 0x33
 8510 1761 9A000000 		.4byte	.LVL480
 8511 1765 FC400000 		.4byte	0x40fc
 8512 1769 77170000 		.4byte	0x1777
 8513 176d 32       		.uleb128 0x32
 8514 176e 01       		.uleb128 0x1
 8515 176f 50       		.byte	0x50
 8516 1770 05       		.uleb128 0x5
 8517 1771 03       		.byte	0x3
 8518 1772 00000000 		.4byte	.LANCHOR16
 8519 1776 00       		.byte	0
 8520 1777 2D       		.uleb128 0x2d
 8521 1778 A0000000 		.4byte	.LVL482
 8522 177c 17410000 		.4byte	0x4117
 8523 1780 00       		.byte	0
 8524 1781 0A       		.uleb128 0xa
 8525 1782 68010000 		.4byte	0x168
 8526 1786 91170000 		.4byte	0x1791
 8527 178a 0B       		.uleb128 0xb
 8528 178b 3E000000 		.4byte	0x3e
 8529 178f 15       		.byte	0x15
 8530 1790 00       		.byte	0
 8531 1791 0F       		.uleb128 0xf
 8532 1792 81170000 		.4byte	0x1781
 8533 1796 35       		.uleb128 0x35
 8534 1797 55070000 		.4byte	.LASF294
 8535 179b 01       		.byte	0x1
 8536 179c 1D02     		.2byte	0x21d
 8537 179e ED080000 		.4byte	0x8ed
ARM GAS  /var/folders/d2/nstgp4h54kz7g1l847x_b8wc0000gn/T//ccW13lHv.s 			page 152


 8538 17a2 00000000 		.4byte	.LFB294
 8539 17a6 34000000 		.4byte	.LFE294-.LFB294
 8540 17aa 01       		.uleb128 0x1
 8541 17ab 9C       		.byte	0x9c
 8542 17ac 18180000 		.4byte	0x1818
 8543 17b0 28       		.uleb128 0x28
 8544 17b1 7000     		.ascii	"p\000"
 8545 17b3 01       		.byte	0x1
 8546 17b4 1D02     		.2byte	0x21d
 8547 17b6 020A0000 		.4byte	0xa02
 8548 17ba 1D020000 		.4byte	.LLST200
 8549 17be 28       		.uleb128 0x28
 8550 17bf 6F757400 		.ascii	"out\000"
 8551 17c3 01       		.byte	0x1
 8552 17c4 1D02     		.2byte	0x21d
 8553 17c6 5B010000 		.4byte	0x15b
 8554 17ca 5F020000 		.4byte	.LLST201
 8555 17ce 36       		.uleb128 0x36
 8556 17cf AA060000 		.4byte	.LASF291
 8557 17d3 01       		.byte	0x1
 8558 17d4 1D02     		.2byte	0x21d
 8559 17d6 ED080000 		.4byte	0x8ed
 8560 17da A1020000 		.4byte	.LLST202
 8561 17de 33       		.uleb128 0x33
 8562 17df 14000000 		.4byte	.LVL484
 8563 17e3 EC2F0000 		.4byte	0x2fec
 8564 17e7 F2170000 		.4byte	0x17f2
 8565 17eb 32       		.uleb128 0x32
 8566 17ec 01       		.uleb128 0x1
 8567 17ed 50       		.byte	0x50
 8568 17ee 02       		.uleb128 0x2
 8569 17ef 75       		.byte	0x75
 8570 17f0 00       		.sleb128 0
 8571 17f1 00       		.byte	0
 8572 17f2 34       		.uleb128 0x34
 8573 17f3 2C000000 		.4byte	.LVL486
 8574 17f7 E3150000 		.4byte	0x15e3
 8575 17fb 0E180000 		.4byte	0x180e
 8576 17ff 32       		.uleb128 0x32
 8577 1800 01       		.uleb128 0x1
 8578 1801 50       		.byte	0x50
 8579 1802 03       		.uleb128 0x3
 8580 1803 F3       		.byte	0xf3
 8581 1804 01       		.uleb128 0x1
 8582 1805 50       		.byte	0x50
 8583 1806 32       		.uleb128 0x32
 8584 1807 01       		.uleb128 0x1
 8585 1808 51       		.byte	0x51
 8586 1809 03       		.uleb128 0x3
 8587 180a F3       		.byte	0xf3
 8588 180b 01       		.uleb128 0x1
 8589 180c 51       		.byte	0x51
 8590 180d 00       		.byte	0
 8591 180e 2D       		.uleb128 0x2d
 8592 180f 30000000 		.4byte	.LVL487
 8593 1813 17410000 		.4byte	0x4117
 8594 1817 00       		.byte	0
ARM GAS  /var/folders/d2/nstgp4h54kz7g1l847x_b8wc0000gn/T//ccW13lHv.s 			page 153


 8595 1818 35       		.uleb128 0x35
 8596 1819 FF0E0000 		.4byte	.LASF295
 8597 181d 01       		.byte	0x1
 8598 181e 1702     		.2byte	0x217
 8599 1820 ED080000 		.4byte	0x8ed
 8600 1824 00000000 		.4byte	.LFB293
 8601 1828 38000000 		.4byte	.LFE293-.LFB293
 8602 182c 01       		.uleb128 0x1
 8603 182d 9C       		.byte	0x9c
 8604 182e 70180000 		.4byte	0x1870
 8605 1832 28       		.uleb128 0x28
 8606 1833 7000     		.ascii	"p\000"
 8607 1835 01       		.byte	0x1
 8608 1836 1702     		.2byte	0x217
 8609 1838 020A0000 		.4byte	0xa02
 8610 183c C2020000 		.4byte	.LLST193
 8611 1840 29       		.uleb128 0x29
 8612 1841 51020000 		.4byte	.LASF292
 8613 1845 80180000 		.4byte	0x1880
 8614 1849 05       		.uleb128 0x5
 8615 184a 03       		.byte	0x3
 8616 184b 00000000 		.4byte	__func__.9227
 8617 184f 33       		.uleb128 0x33
 8618 1850 18000000 		.4byte	.LVL459
 8619 1854 FC400000 		.4byte	0x40fc
 8620 1858 66180000 		.4byte	0x1866
 8621 185c 32       		.uleb128 0x32
 8622 185d 01       		.uleb128 0x1
 8623 185e 50       		.byte	0x50
 8624 185f 05       		.uleb128 0x5
 8625 1860 03       		.byte	0x3
 8626 1861 00000000 		.4byte	.LANCHOR15
 8627 1865 00       		.byte	0
 8628 1866 2D       		.uleb128 0x2d
 8629 1867 2E000000 		.4byte	.LVL461
 8630 186b 17410000 		.4byte	0x4117
 8631 186f 00       		.byte	0
 8632 1870 0A       		.uleb128 0xa
 8633 1871 68010000 		.4byte	0x168
 8634 1875 80180000 		.4byte	0x1880
 8635 1879 0B       		.uleb128 0xb
 8636 187a 3E000000 		.4byte	0x3e
 8637 187e 18       		.byte	0x18
 8638 187f 00       		.byte	0
 8639 1880 0F       		.uleb128 0xf
 8640 1881 70180000 		.4byte	0x1870
 8641 1885 27       		.uleb128 0x27
 8642 1886 6E000000 		.4byte	.LASF296
 8643 188a 01       		.byte	0x1
 8644 188b 0902     		.2byte	0x209
 8645 188d 00000000 		.4byte	.LFB292
 8646 1891 60000000 		.4byte	.LFE292-.LFB292
 8647 1895 01       		.uleb128 0x1
 8648 1896 9C       		.byte	0x9c
 8649 1897 CA190000 		.4byte	0x19ca
 8650 189b 28       		.uleb128 0x28
 8651 189c 7000     		.ascii	"p\000"
ARM GAS  /var/folders/d2/nstgp4h54kz7g1l847x_b8wc0000gn/T//ccW13lHv.s 			page 154


 8652 189e 01       		.byte	0x1
 8653 189f 0902     		.2byte	0x209
 8654 18a1 020A0000 		.4byte	0xa02
 8655 18a5 E0020000 		.4byte	.LLST182
 8656 18a9 28       		.uleb128 0x28
 8657 18aa 6E7300   		.ascii	"ns\000"
 8658 18ad 01       		.byte	0x1
 8659 18ae 0A02     		.2byte	0x20a
 8660 18b0 FC090000 		.4byte	0x9fc
 8661 18b4 22030000 		.4byte	.LLST183
 8662 18b8 28       		.uleb128 0x28
 8663 18b9 696400   		.ascii	"id\000"
 8664 18bc 01       		.byte	0x1
 8665 18bd 0B02     		.2byte	0x20b
 8666 18bf D9050000 		.4byte	0x5d9
 8667 18c3 43030000 		.4byte	.LLST184
 8668 18c7 28       		.uleb128 0x28
 8669 18c8 62756600 		.ascii	"buf\000"
 8670 18cc 01       		.byte	0x1
 8671 18cd 0C02     		.2byte	0x20c
 8672 18cf 5B010000 		.4byte	0x15b
 8673 18d3 64030000 		.4byte	.LLST185
 8674 18d7 36       		.uleb128 0x36
 8675 18d8 BF080000 		.4byte	.LASF297
 8676 18dc 01       		.byte	0x1
 8677 18dd 0D02     		.2byte	0x20d
 8678 18df ED080000 		.4byte	0x8ed
 8679 18e3 85030000 		.4byte	.LLST186
 8680 18e7 36       		.uleb128 0x36
 8681 18e8 890C0000 		.4byte	.LASF298
 8682 18ec 01       		.byte	0x1
 8683 18ed 0E02     		.2byte	0x20e
 8684 18ef D9050000 		.4byte	0x5d9
 8685 18f3 B1030000 		.4byte	.LLST187
 8686 18f7 29       		.uleb128 0x29
 8687 18f8 51020000 		.4byte	.LASF292
 8688 18fc DA190000 		.4byte	0x19da
 8689 1900 05       		.uleb128 0x5
 8690 1901 03       		.byte	0x3
 8691 1902 00000000 		.4byte	__func__.9223
 8692 1906 2E       		.uleb128 0x2e
 8693 1907 DF190000 		.4byte	0x19df
 8694 190b 0E000000 		.4byte	.LBB702
 8695 190f 00030000 		.4byte	.Ldebug_ranges0+0x300
 8696 1913 01       		.byte	0x1
 8697 1914 1002     		.2byte	0x210
 8698 1916 66190000 		.4byte	0x1966
 8699 191a 2C       		.uleb128 0x2c
 8700 191b 181A0000 		.4byte	0x1a18
 8701 191f DD030000 		.4byte	.LLST188
 8702 1923 2C       		.uleb128 0x2c
 8703 1924 0C1A0000 		.4byte	0x1a0c
 8704 1928 F0030000 		.4byte	.LLST189
 8705 192c 2C       		.uleb128 0x2c
 8706 192d 011A0000 		.4byte	0x1a01
 8707 1931 11040000 		.4byte	.LLST190
 8708 1935 2C       		.uleb128 0x2c
ARM GAS  /var/folders/d2/nstgp4h54kz7g1l847x_b8wc0000gn/T//ccW13lHv.s 			page 155


 8709 1936 F6190000 		.4byte	0x19f6
 8710 193a 32040000 		.4byte	.LLST191
 8711 193e 2C       		.uleb128 0x2c
 8712 193f EC190000 		.4byte	0x19ec
 8713 1943 53040000 		.4byte	.LLST192
 8714 1947 31       		.uleb128 0x31
 8715 1948 22000000 		.4byte	.LVL450
 8716 194c 60330000 		.4byte	0x3360
 8717 1950 32       		.uleb128 0x32
 8718 1951 01       		.uleb128 0x1
 8719 1952 50       		.byte	0x50
 8720 1953 02       		.uleb128 0x2
 8721 1954 74       		.byte	0x74
 8722 1955 00       		.sleb128 0
 8723 1956 32       		.uleb128 0x32
 8724 1957 01       		.uleb128 0x1
 8725 1958 51       		.byte	0x51
 8726 1959 03       		.uleb128 0x3
 8727 195a F3       		.byte	0xf3
 8728 195b 01       		.uleb128 0x1
 8729 195c 51       		.byte	0x51
 8730 195d 32       		.uleb128 0x32
 8731 195e 01       		.uleb128 0x1
 8732 195f 52       		.byte	0x52
 8733 1960 03       		.uleb128 0x3
 8734 1961 F3       		.byte	0xf3
 8735 1962 01       		.uleb128 0x1
 8736 1963 52       		.byte	0x52
 8737 1964 00       		.byte	0
 8738 1965 00       		.byte	0
 8739 1966 33       		.uleb128 0x33
 8740 1967 28000000 		.4byte	.LVL451
 8741 196b 20410000 		.4byte	0x4120
 8742 196f 7A190000 		.4byte	0x197a
 8743 1973 32       		.uleb128 0x32
 8744 1974 01       		.uleb128 0x1
 8745 1975 50       		.byte	0x50
 8746 1976 02       		.uleb128 0x2
 8747 1977 77       		.byte	0x77
 8748 1978 00       		.sleb128 0
 8749 1979 00       		.byte	0
 8750 197a 33       		.uleb128 0x33
 8751 197b 36000000 		.4byte	.LVL452
 8752 197f FC400000 		.4byte	0x40fc
 8753 1983 91190000 		.4byte	0x1991
 8754 1987 32       		.uleb128 0x32
 8755 1988 01       		.uleb128 0x1
 8756 1989 50       		.byte	0x50
 8757 198a 05       		.uleb128 0x5
 8758 198b 03       		.byte	0x3
 8759 198c 00000000 		.4byte	.LANCHOR14
 8760 1990 00       		.byte	0
 8761 1991 33       		.uleb128 0x33
 8762 1992 40000000 		.4byte	.LVL453
 8763 1996 2B410000 		.4byte	0x412b
 8764 199a AB190000 		.4byte	0x19ab
 8765 199e 32       		.uleb128 0x32
ARM GAS  /var/folders/d2/nstgp4h54kz7g1l847x_b8wc0000gn/T//ccW13lHv.s 			page 156


 8766 199f 01       		.uleb128 0x1
 8767 19a0 51       		.byte	0x51
 8768 19a1 02       		.uleb128 0x2
 8769 19a2 77       		.byte	0x77
 8770 19a3 00       		.sleb128 0
 8771 19a4 32       		.uleb128 0x32
 8772 19a5 01       		.uleb128 0x1
 8773 19a6 52       		.byte	0x52
 8774 19a7 02       		.uleb128 0x2
 8775 19a8 75       		.byte	0x75
 8776 19a9 00       		.sleb128 0
 8777 19aa 00       		.byte	0
 8778 19ab 34       		.uleb128 0x34
 8779 19ac 54000000 		.4byte	.LVL455
 8780 19b0 17300000 		.4byte	0x3017
 8781 19b4 C0190000 		.4byte	0x19c0
 8782 19b8 32       		.uleb128 0x32
 8783 19b9 01       		.uleb128 0x1
 8784 19ba 50       		.byte	0x50
 8785 19bb 03       		.uleb128 0x3
 8786 19bc F3       		.byte	0xf3
 8787 19bd 01       		.uleb128 0x1
 8788 19be 50       		.byte	0x50
 8789 19bf 00       		.byte	0
 8790 19c0 2D       		.uleb128 0x2d
 8791 19c1 58000000 		.4byte	.LVL456
 8792 19c5 17410000 		.4byte	0x4117
 8793 19c9 00       		.byte	0
 8794 19ca 0A       		.uleb128 0xa
 8795 19cb 68010000 		.4byte	0x168
 8796 19cf DA190000 		.4byte	0x19da
 8797 19d3 0B       		.uleb128 0xb
 8798 19d4 3E000000 		.4byte	0x3e
 8799 19d8 25       		.byte	0x25
 8800 19d9 00       		.byte	0
 8801 19da 0F       		.uleb128 0xf
 8802 19db CA190000 		.4byte	0x19ca
 8803 19df 38       		.uleb128 0x38
 8804 19e0 5D0F0000 		.4byte	.LASF305
 8805 19e4 01       		.byte	0x1
 8806 19e5 FD01     		.2byte	0x1fd
 8807 19e7 01       		.byte	0x1
 8808 19e8 251A0000 		.4byte	0x1a25
 8809 19ec 39       		.uleb128 0x39
 8810 19ed 7000     		.ascii	"p\000"
 8811 19ef 01       		.byte	0x1
 8812 19f0 FD01     		.2byte	0x1fd
 8813 19f2 020A0000 		.4byte	0xa02
 8814 19f6 39       		.uleb128 0x39
 8815 19f7 6E7300   		.ascii	"ns\000"
 8816 19fa 01       		.byte	0x1
 8817 19fb FE01     		.2byte	0x1fe
 8818 19fd FC090000 		.4byte	0x9fc
 8819 1a01 39       		.uleb128 0x39
 8820 1a02 696400   		.ascii	"id\000"
 8821 1a05 01       		.byte	0x1
 8822 1a06 FF01     		.2byte	0x1ff
ARM GAS  /var/folders/d2/nstgp4h54kz7g1l847x_b8wc0000gn/T//ccW13lHv.s 			page 157


 8823 1a08 D9050000 		.4byte	0x5d9
 8824 1a0c 39       		.uleb128 0x39
 8825 1a0d 62756600 		.ascii	"buf\000"
 8826 1a11 01       		.byte	0x1
 8827 1a12 0002     		.2byte	0x200
 8828 1a14 5B010000 		.4byte	0x15b
 8829 1a18 3A       		.uleb128 0x3a
 8830 1a19 BF080000 		.4byte	.LASF297
 8831 1a1d 01       		.byte	0x1
 8832 1a1e 0102     		.2byte	0x201
 8833 1a20 ED080000 		.4byte	0x8ed
 8834 1a24 00       		.byte	0
 8835 1a25 27       		.uleb128 0x27
 8836 1a26 B00C0000 		.4byte	.LASF299
 8837 1a2a 01       		.byte	0x1
 8838 1a2b EA01     		.2byte	0x1ea
 8839 1a2d 00000000 		.4byte	.LFB290
 8840 1a31 B0000000 		.4byte	.LFE290-.LFB290
 8841 1a35 01       		.uleb128 0x1
 8842 1a36 9C       		.byte	0x9c
 8843 1a37 9B1B0000 		.4byte	0x1b9b
 8844 1a3b 28       		.uleb128 0x28
 8845 1a3c 7000     		.ascii	"p\000"
 8846 1a3e 01       		.byte	0x1
 8847 1a3f EA01     		.2byte	0x1ea
 8848 1a41 020A0000 		.4byte	0xa02
 8849 1a45 71040000 		.4byte	.LLST171
 8850 1a49 28       		.uleb128 0x28
 8851 1a4a 7600     		.ascii	"v\000"
 8852 1a4c 01       		.byte	0x1
 8853 1a4d EA01     		.2byte	0x1ea
 8854 1a4f 9B1B0000 		.4byte	0x1b9b
 8855 1a53 B3040000 		.4byte	.LLST172
 8856 1a57 28       		.uleb128 0x28
 8857 1a58 64696D00 		.ascii	"dim\000"
 8858 1a5c 01       		.byte	0x1
 8859 1a5d EA01     		.2byte	0x1ea
 8860 1a5f ED080000 		.4byte	0x8ed
 8861 1a63 EA040000 		.4byte	.LLST173
 8862 1a67 29       		.uleb128 0x29
 8863 1a68 51020000 		.4byte	.LASF292
 8864 1a6c B11B0000 		.4byte	0x1bb1
 8865 1a70 05       		.uleb128 0x5
 8866 1a71 03       		.byte	0x3
 8867 1a72 00000000 		.4byte	__func__.9203
 8868 1a76 37       		.uleb128 0x37
 8869 1a77 6900     		.ascii	"i\000"
 8870 1a79 01       		.byte	0x1
 8871 1a7a EF01     		.2byte	0x1ef
 8872 1a7c 2C000000 		.4byte	0x2c
 8873 1a80 0B050000 		.4byte	.LLST174
 8874 1a84 2A       		.uleb128 0x2a
 8875 1a85 4D3A0000 		.4byte	0x3a4d
 8876 1a89 22000000 		.4byte	.LBB690
 8877 1a8d 0E000000 		.4byte	.LBE690-.LBB690
 8878 1a91 01       		.byte	0x1
 8879 1a92 ED01     		.2byte	0x1ed
ARM GAS  /var/folders/d2/nstgp4h54kz7g1l847x_b8wc0000gn/T//ccW13lHv.s 			page 158


 8880 1a94 DA1A0000 		.4byte	0x1ada
 8881 1a98 2A       		.uleb128 0x2a
 8882 1a99 5F3A0000 		.4byte	0x3a5f
 8883 1a9d 22000000 		.4byte	.LBB692
 8884 1aa1 06000000 		.4byte	.LBE692-.LBB692
 8885 1aa5 03       		.byte	0x3
 8886 1aa6 5C01     		.2byte	0x15c
 8887 1aa8 C71A0000 		.4byte	0x1ac7
 8888 1aac 2B       		.uleb128 0x2b
 8889 1aad 683A0000 		.4byte	0x3a68
 8890 1ab1 22000000 		.4byte	.LBB693
 8891 1ab5 06000000 		.4byte	.LBE693-.LBB693
 8892 1ab9 12       		.byte	0x12
 8893 1aba BF01     		.2byte	0x1bf
 8894 1abc 2C       		.uleb128 0x2c
 8895 1abd 753A0000 		.4byte	0x3a75
 8896 1ac1 1F050000 		.4byte	.LLST175
 8897 1ac5 00       		.byte	0
 8898 1ac6 00       		.byte	0
 8899 1ac7 2D       		.uleb128 0x2d
 8900 1ac8 2C000000 		.4byte	.LVL431
 8901 1acc D0400000 		.4byte	0x40d0
 8902 1ad0 2D       		.uleb128 0x2d
 8903 1ad1 30000000 		.4byte	.LVL432
 8904 1ad5 DB400000 		.4byte	0x40db
 8905 1ad9 00       		.byte	0
 8906 1ada 2E       		.uleb128 0x2e
 8907 1adb 1D3A0000 		.4byte	0x3a1d
 8908 1adf 56000000 		.4byte	.LBB695
 8909 1ae3 E8020000 		.4byte	.Ldebug_ranges0+0x2e8
 8910 1ae7 01       		.byte	0x1
 8911 1ae8 F401     		.2byte	0x1f4
 8912 1aea 4E1B0000 		.4byte	0x1b4e
 8913 1aee 2F       		.uleb128 0x2f
 8914 1aef E8020000 		.4byte	.Ldebug_ranges0+0x2e8
 8915 1af3 30       		.uleb128 0x30
 8916 1af4 2A3A0000 		.4byte	0x3a2a
 8917 1af8 2A       		.uleb128 0x2a
 8918 1af9 563A0000 		.4byte	0x3a56
 8919 1afd 70000000 		.4byte	.LBB697
 8920 1b01 06000000 		.4byte	.LBE697-.LBB697
 8921 1b05 03       		.byte	0x3
 8922 1b06 7301     		.2byte	0x173
 8923 1b08 271B0000 		.4byte	0x1b27
 8924 1b0c 2B       		.uleb128 0x2b
 8925 1b0d 683A0000 		.4byte	0x3a68
 8926 1b11 70000000 		.4byte	.LBB698
 8927 1b15 06000000 		.4byte	.LBE698-.LBB698
 8928 1b19 12       		.byte	0x12
 8929 1b1a CD01     		.2byte	0x1cd
 8930 1b1c 2C       		.uleb128 0x2c
 8931 1b1d 753A0000 		.4byte	0x3a75
 8932 1b21 34050000 		.4byte	.LLST176
 8933 1b25 00       		.byte	0
 8934 1b26 00       		.byte	0
 8935 1b27 2D       		.uleb128 0x2d
 8936 1b28 5A000000 		.4byte	.LVL435
ARM GAS  /var/folders/d2/nstgp4h54kz7g1l847x_b8wc0000gn/T//ccW13lHv.s 			page 159


 8937 1b2c E6400000 		.4byte	0x40e6
 8938 1b30 2D       		.uleb128 0x2d
 8939 1b31 5E000000 		.4byte	.LVL436
 8940 1b35 F1400000 		.4byte	0x40f1
 8941 1b39 31       		.uleb128 0x31
 8942 1b3a 9A000000 		.4byte	.LVL442
 8943 1b3e FC400000 		.4byte	0x40fc
 8944 1b42 32       		.uleb128 0x32
 8945 1b43 01       		.uleb128 0x1
 8946 1b44 50       		.byte	0x50
 8947 1b45 05       		.uleb128 0x5
 8948 1b46 03       		.byte	0x3
 8949 1b47 00000000 		.4byte	.LANCHOR0
 8950 1b4b 00       		.byte	0
 8951 1b4c 00       		.byte	0
 8952 1b4d 00       		.byte	0
 8953 1b4e 33       		.uleb128 0x33
 8954 1b4f 22000000 		.4byte	.LVL429
 8955 1b53 FC400000 		.4byte	0x40fc
 8956 1b57 651B0000 		.4byte	0x1b65
 8957 1b5b 32       		.uleb128 0x32
 8958 1b5c 01       		.uleb128 0x1
 8959 1b5d 50       		.byte	0x50
 8960 1b5e 05       		.uleb128 0x5
 8961 1b5f 03       		.byte	0x3
 8962 1b60 00000000 		.4byte	.LANCHOR13
 8963 1b64 00       		.byte	0
 8964 1b65 34       		.uleb128 0x34
 8965 1b66 8C000000 		.4byte	.LVL440
 8966 1b6a 17300000 		.4byte	0x3017
 8967 1b6e 7A1B0000 		.4byte	0x1b7a
 8968 1b72 32       		.uleb128 0x32
 8969 1b73 01       		.uleb128 0x1
 8970 1b74 50       		.byte	0x50
 8971 1b75 03       		.uleb128 0x3
 8972 1b76 F3       		.byte	0xf3
 8973 1b77 01       		.uleb128 0x1
 8974 1b78 50       		.byte	0x50
 8975 1b79 00       		.byte	0
 8976 1b7a 33       		.uleb128 0x33
 8977 1b7b 92000000 		.4byte	.LVL441
 8978 1b7f FC400000 		.4byte	0x40fc
 8979 1b83 911B0000 		.4byte	0x1b91
 8980 1b87 32       		.uleb128 0x32
 8981 1b88 01       		.uleb128 0x1
 8982 1b89 50       		.byte	0x50
 8983 1b8a 05       		.uleb128 0x5
 8984 1b8b 03       		.byte	0x3
 8985 1b8c 00000000 		.4byte	.LANCHOR13
 8986 1b90 00       		.byte	0
 8987 1b91 2D       		.uleb128 0x2d
 8988 1b92 A0000000 		.4byte	.LVL443
 8989 1b96 17410000 		.4byte	0x4117
 8990 1b9a 00       		.byte	0
 8991 1b9b 05       		.uleb128 0x5
 8992 1b9c 04       		.byte	0x4
 8993 1b9d 700A0000 		.4byte	0xa70
ARM GAS  /var/folders/d2/nstgp4h54kz7g1l847x_b8wc0000gn/T//ccW13lHv.s 			page 160


 8994 1ba1 0A       		.uleb128 0xa
 8995 1ba2 68010000 		.4byte	0x168
 8996 1ba6 B11B0000 		.4byte	0x1bb1
 8997 1baa 0B       		.uleb128 0xb
 8998 1bab 3E000000 		.4byte	0x3e
 8999 1baf 1D       		.byte	0x1d
 9000 1bb0 00       		.byte	0
 9001 1bb1 0F       		.uleb128 0xf
 9002 1bb2 A11B0000 		.4byte	0x1ba1
 9003 1bb6 35       		.uleb128 0x35
 9004 1bb7 080C0000 		.4byte	.LASF300
 9005 1bbb 01       		.byte	0x1
 9006 1bbc DC01     		.2byte	0x1dc
 9007 1bbe ED080000 		.4byte	0x8ed
 9008 1bc2 00000000 		.4byte	.LFB289
 9009 1bc6 9C000000 		.4byte	.LFE289-.LFB289
 9010 1bca 01       		.uleb128 0x1
 9011 1bcb 9C       		.byte	0x9c
 9012 1bcc 1D1D0000 		.4byte	0x1d1d
 9013 1bd0 28       		.uleb128 0x28
 9014 1bd1 7000     		.ascii	"p\000"
 9015 1bd3 01       		.byte	0x1
 9016 1bd4 DC01     		.2byte	0x1dc
 9017 1bd6 020A0000 		.4byte	0xa02
 9018 1bda 48050000 		.4byte	.LLST163
 9019 1bde 28       		.uleb128 0x28
 9020 1bdf 6F757400 		.ascii	"out\000"
 9021 1be3 01       		.byte	0x1
 9022 1be4 DC01     		.2byte	0x1dc
 9023 1be6 6A0A0000 		.4byte	0xa6a
 9024 1bea 66050000 		.4byte	.LLST164
 9025 1bee 29       		.uleb128 0x29
 9026 1bef 51020000 		.4byte	.LASF292
 9027 1bf3 2D1D0000 		.4byte	0x1d2d
 9028 1bf7 05       		.uleb128 0x5
 9029 1bf8 03       		.byte	0x3
 9030 1bf9 00000000 		.4byte	__func__.9192
 9031 1bfd 37       		.uleb128 0x37
 9032 1bfe 6900     		.ascii	"i\000"
 9033 1c00 01       		.byte	0x1
 9034 1c01 E101     		.2byte	0x1e1
 9035 1c03 2C000000 		.4byte	0x2c
 9036 1c07 84050000 		.4byte	.LLST165
 9037 1c0b 37       		.uleb128 0x37
 9038 1c0c 72657400 		.ascii	"ret\000"
 9039 1c10 01       		.byte	0x1
 9040 1c11 E501     		.2byte	0x1e5
 9041 1c13 ED080000 		.4byte	0x8ed
 9042 1c17 A3050000 		.4byte	.LLST166
 9043 1c1b 2A       		.uleb128 0x2a
 9044 1c1c 4D3A0000 		.4byte	0x3a4d
 9045 1c20 1A000000 		.4byte	.LBB668
 9046 1c24 0E000000 		.4byte	.LBE668-.LBB668
 9047 1c28 01       		.byte	0x1
 9048 1c29 DF01     		.2byte	0x1df
 9049 1c2b 711C0000 		.4byte	0x1c71
 9050 1c2f 2A       		.uleb128 0x2a
ARM GAS  /var/folders/d2/nstgp4h54kz7g1l847x_b8wc0000gn/T//ccW13lHv.s 			page 161


 9051 1c30 5F3A0000 		.4byte	0x3a5f
 9052 1c34 1A000000 		.4byte	.LBB670
 9053 1c38 06000000 		.4byte	.LBE670-.LBB670
 9054 1c3c 03       		.byte	0x3
 9055 1c3d 5C01     		.2byte	0x15c
 9056 1c3f 5E1C0000 		.4byte	0x1c5e
 9057 1c43 2B       		.uleb128 0x2b
 9058 1c44 683A0000 		.4byte	0x3a68
 9059 1c48 1A000000 		.4byte	.LBB671
 9060 1c4c 06000000 		.4byte	.LBE671-.LBB671
 9061 1c50 12       		.byte	0x12
 9062 1c51 BF01     		.2byte	0x1bf
 9063 1c53 2C       		.uleb128 0x2c
 9064 1c54 753A0000 		.4byte	0x3a75
 9065 1c58 C1050000 		.4byte	.LLST167
 9066 1c5c 00       		.byte	0
 9067 1c5d 00       		.byte	0
 9068 1c5e 2D       		.uleb128 0x2d
 9069 1c5f 24000000 		.4byte	.LVL406
 9070 1c63 D0400000 		.4byte	0x40d0
 9071 1c67 2D       		.uleb128 0x2d
 9072 1c68 28000000 		.4byte	.LVL407
 9073 1c6c DB400000 		.4byte	0x40db
 9074 1c70 00       		.byte	0
 9075 1c71 2E       		.uleb128 0x2e
 9076 1c72 1D3A0000 		.4byte	0x3a1d
 9077 1c76 48000000 		.4byte	.LBB673
 9078 1c7a D0020000 		.4byte	.Ldebug_ranges0+0x2d0
 9079 1c7e 01       		.byte	0x1
 9080 1c7f E601     		.2byte	0x1e6
 9081 1c81 E51C0000 		.4byte	0x1ce5
 9082 1c85 2F       		.uleb128 0x2f
 9083 1c86 D0020000 		.4byte	.Ldebug_ranges0+0x2d0
 9084 1c8a 30       		.uleb128 0x30
 9085 1c8b 2A3A0000 		.4byte	0x3a2a
 9086 1c8f 2A       		.uleb128 0x2a
 9087 1c90 563A0000 		.4byte	0x3a56
 9088 1c94 62000000 		.4byte	.LBB675
 9089 1c98 06000000 		.4byte	.LBE675-.LBB675
 9090 1c9c 03       		.byte	0x3
 9091 1c9d 7301     		.2byte	0x173
 9092 1c9f BE1C0000 		.4byte	0x1cbe
 9093 1ca3 2B       		.uleb128 0x2b
 9094 1ca4 683A0000 		.4byte	0x3a68
 9095 1ca8 62000000 		.4byte	.LBB676
 9096 1cac 06000000 		.4byte	.LBE676-.LBB676
 9097 1cb0 12       		.byte	0x12
 9098 1cb1 CD01     		.2byte	0x1cd
 9099 1cb3 2C       		.uleb128 0x2c
 9100 1cb4 753A0000 		.4byte	0x3a75
 9101 1cb8 D6050000 		.4byte	.LLST168
 9102 1cbc 00       		.byte	0
 9103 1cbd 00       		.byte	0
 9104 1cbe 2D       		.uleb128 0x2d
 9105 1cbf 4C000000 		.4byte	.LVL412
 9106 1cc3 E6400000 		.4byte	0x40e6
 9107 1cc7 2D       		.uleb128 0x2d
ARM GAS  /var/folders/d2/nstgp4h54kz7g1l847x_b8wc0000gn/T//ccW13lHv.s 			page 162


 9108 1cc8 50000000 		.4byte	.LVL413
 9109 1ccc F1400000 		.4byte	0x40f1
 9110 1cd0 31       		.uleb128 0x31
 9111 1cd1 7C000000 		.4byte	.LVL417
 9112 1cd5 FC400000 		.4byte	0x40fc
 9113 1cd9 32       		.uleb128 0x32
 9114 1cda 01       		.uleb128 0x1
 9115 1cdb 50       		.byte	0x50
 9116 1cdc 05       		.uleb128 0x5
 9117 1cdd 03       		.byte	0x3
 9118 1cde 00000000 		.4byte	.LANCHOR0
 9119 1ce2 00       		.byte	0
 9120 1ce3 00       		.byte	0
 9121 1ce4 00       		.byte	0
 9122 1ce5 33       		.uleb128 0x33
 9123 1ce6 1A000000 		.4byte	.LVL404
 9124 1cea FC400000 		.4byte	0x40fc
 9125 1cee FC1C0000 		.4byte	0x1cfc
 9126 1cf2 32       		.uleb128 0x32
 9127 1cf3 01       		.uleb128 0x1
 9128 1cf4 50       		.byte	0x50
 9129 1cf5 05       		.uleb128 0x5
 9130 1cf6 03       		.byte	0x3
 9131 1cf7 00000000 		.4byte	.LANCHOR12
 9132 1cfb 00       		.byte	0
 9133 1cfc 33       		.uleb128 0x33
 9134 1cfd 84000000 		.4byte	.LVL419
 9135 1d01 FC400000 		.4byte	0x40fc
 9136 1d05 131D0000 		.4byte	0x1d13
 9137 1d09 32       		.uleb128 0x32
 9138 1d0a 01       		.uleb128 0x1
 9139 1d0b 50       		.byte	0x50
 9140 1d0c 05       		.uleb128 0x5
 9141 1d0d 03       		.byte	0x3
 9142 1d0e 00000000 		.4byte	.LANCHOR12
 9143 1d12 00       		.byte	0
 9144 1d13 2D       		.uleb128 0x2d
 9145 1d14 8A000000 		.4byte	.LVL421
 9146 1d18 17410000 		.4byte	0x4117
 9147 1d1c 00       		.byte	0
 9148 1d1d 0A       		.uleb128 0xa
 9149 1d1e 68010000 		.4byte	0x168
 9150 1d22 2D1D0000 		.4byte	0x1d2d
 9151 1d26 0B       		.uleb128 0xb
 9152 1d27 3E000000 		.4byte	0x3e
 9153 1d2b 1E       		.byte	0x1e
 9154 1d2c 00       		.byte	0
 9155 1d2d 0F       		.uleb128 0xf
 9156 1d2e 1D1D0000 		.4byte	0x1d1d
 9157 1d32 35       		.uleb128 0x35
 9158 1d33 1F050000 		.4byte	.LASF301
 9159 1d37 01       		.byte	0x1
 9160 1d38 D601     		.2byte	0x1d6
 9161 1d3a ED080000 		.4byte	0x8ed
 9162 1d3e 00000000 		.4byte	.LFB288
 9163 1d42 30000000 		.4byte	.LFE288-.LFB288
 9164 1d46 01       		.uleb128 0x1
ARM GAS  /var/folders/d2/nstgp4h54kz7g1l847x_b8wc0000gn/T//ccW13lHv.s 			page 163


 9165 1d47 9C       		.byte	0x9c
 9166 1d48 A41D0000 		.4byte	0x1da4
 9167 1d4c 28       		.uleb128 0x28
 9168 1d4d 7000     		.ascii	"p\000"
 9169 1d4f 01       		.byte	0x1
 9170 1d50 D601     		.2byte	0x1d6
 9171 1d52 020A0000 		.4byte	0xa02
 9172 1d56 EA050000 		.4byte	.LLST169
 9173 1d5a 28       		.uleb128 0x28
 9174 1d5b 6F757400 		.ascii	"out\000"
 9175 1d5f 01       		.byte	0x1
 9176 1d60 D601     		.2byte	0x1d6
 9177 1d62 6A0A0000 		.4byte	0xa6a
 9178 1d66 2C060000 		.4byte	.LLST170
 9179 1d6a 33       		.uleb128 0x33
 9180 1d6b 12000000 		.4byte	.LVL423
 9181 1d6f EC2F0000 		.4byte	0x2fec
 9182 1d73 7E1D0000 		.4byte	0x1d7e
 9183 1d77 32       		.uleb128 0x32
 9184 1d78 01       		.uleb128 0x1
 9185 1d79 50       		.byte	0x50
 9186 1d7a 02       		.uleb128 0x2
 9187 1d7b 75       		.byte	0x75
 9188 1d7c 00       		.sleb128 0
 9189 1d7d 00       		.byte	0
 9190 1d7e 34       		.uleb128 0x34
 9191 1d7f 28000000 		.4byte	.LVL425
 9192 1d83 B61B0000 		.4byte	0x1bb6
 9193 1d87 9A1D0000 		.4byte	0x1d9a
 9194 1d8b 32       		.uleb128 0x32
 9195 1d8c 01       		.uleb128 0x1
 9196 1d8d 50       		.byte	0x50
 9197 1d8e 03       		.uleb128 0x3
 9198 1d8f F3       		.byte	0xf3
 9199 1d90 01       		.uleb128 0x1
 9200 1d91 50       		.byte	0x50
 9201 1d92 32       		.uleb128 0x32
 9202 1d93 01       		.uleb128 0x1
 9203 1d94 51       		.byte	0x51
 9204 1d95 03       		.uleb128 0x3
 9205 1d96 F3       		.byte	0xf3
 9206 1d97 01       		.uleb128 0x1
 9207 1d98 51       		.byte	0x51
 9208 1d99 00       		.byte	0
 9209 1d9a 2D       		.uleb128 0x2d
 9210 1d9b 2C000000 		.4byte	.LVL426
 9211 1d9f 17410000 		.4byte	0x4117
 9212 1da3 00       		.byte	0
 9213 1da4 35       		.uleb128 0x35
 9214 1da5 D7040000 		.4byte	.LASF302
 9215 1da9 01       		.byte	0x1
 9216 1daa D001     		.2byte	0x1d0
 9217 1dac ED080000 		.4byte	0x8ed
 9218 1db0 00000000 		.4byte	.LFB287
 9219 1db4 34000000 		.4byte	.LFE287-.LFB287
 9220 1db8 01       		.uleb128 0x1
 9221 1db9 9C       		.byte	0x9c
ARM GAS  /var/folders/d2/nstgp4h54kz7g1l847x_b8wc0000gn/T//ccW13lHv.s 			page 164


 9222 1dba FC1D0000 		.4byte	0x1dfc
 9223 1dbe 28       		.uleb128 0x28
 9224 1dbf 7000     		.ascii	"p\000"
 9225 1dc1 01       		.byte	0x1
 9226 1dc2 D001     		.2byte	0x1d0
 9227 1dc4 020A0000 		.4byte	0xa02
 9228 1dc8 6E060000 		.4byte	.LLST162
 9229 1dcc 29       		.uleb128 0x29
 9230 1dcd 51020000 		.4byte	.LASF292
 9231 1dd1 0C1E0000 		.4byte	0x1e0c
 9232 1dd5 05       		.uleb128 0x5
 9233 1dd6 03       		.byte	0x3
 9234 1dd7 00000000 		.4byte	__func__.9183
 9235 1ddb 33       		.uleb128 0x33
 9236 1ddc 18000000 		.4byte	.LVL399
 9237 1de0 FC400000 		.4byte	0x40fc
 9238 1de4 F21D0000 		.4byte	0x1df2
 9239 1de8 32       		.uleb128 0x32
 9240 1de9 01       		.uleb128 0x1
 9241 1dea 50       		.byte	0x50
 9242 1deb 05       		.uleb128 0x5
 9243 1dec 03       		.byte	0x3
 9244 1ded 00000000 		.4byte	.LANCHOR11
 9245 1df1 00       		.byte	0
 9246 1df2 2D       		.uleb128 0x2d
 9247 1df3 2A000000 		.4byte	.LVL401
 9248 1df7 17410000 		.4byte	0x4117
 9249 1dfb 00       		.byte	0
 9250 1dfc 0A       		.uleb128 0xa
 9251 1dfd 68010000 		.4byte	0x168
 9252 1e01 0C1E0000 		.4byte	0x1e0c
 9253 1e05 0B       		.uleb128 0xb
 9254 1e06 3E000000 		.4byte	0x3e
 9255 1e0a 21       		.byte	0x21
 9256 1e0b 00       		.byte	0
 9257 1e0c 0F       		.uleb128 0xf
 9258 1e0d FC1D0000 		.4byte	0x1dfc
 9259 1e11 27       		.uleb128 0x27
 9260 1e12 BD050000 		.4byte	.LASF303
 9261 1e16 01       		.byte	0x1
 9262 1e17 C301     		.2byte	0x1c3
 9263 1e19 00000000 		.4byte	.LFB286
 9264 1e1d 50000000 		.4byte	.LFE286-.LFB286
 9265 1e21 01       		.uleb128 0x1
 9266 1e22 9C       		.byte	0x9c
 9267 1e23 281F0000 		.4byte	0x1f28
 9268 1e27 28       		.uleb128 0x28
 9269 1e28 7000     		.ascii	"p\000"
 9270 1e2a 01       		.byte	0x1
 9271 1e2b C301     		.2byte	0x1c3
 9272 1e2d 020A0000 		.4byte	0xa02
 9273 1e31 8C060000 		.4byte	.LLST151
 9274 1e35 28       		.uleb128 0x28
 9275 1e36 6E7300   		.ascii	"ns\000"
 9276 1e39 01       		.byte	0x1
 9277 1e3a C401     		.2byte	0x1c4
 9278 1e3c FC090000 		.4byte	0x9fc
ARM GAS  /var/folders/d2/nstgp4h54kz7g1l847x_b8wc0000gn/T//ccW13lHv.s 			page 165


 9279 1e40 CE060000 		.4byte	.LLST152
 9280 1e44 28       		.uleb128 0x28
 9281 1e45 696400   		.ascii	"id\000"
 9282 1e48 01       		.byte	0x1
 9283 1e49 C501     		.2byte	0x1c5
 9284 1e4b D9050000 		.4byte	0x5d9
 9285 1e4f EF060000 		.4byte	.LLST153
 9286 1e53 28       		.uleb128 0x28
 9287 1e54 62756600 		.ascii	"buf\000"
 9288 1e58 01       		.byte	0x1
 9289 1e59 C601     		.2byte	0x1c6
 9290 1e5b 6A0A0000 		.4byte	0xa6a
 9291 1e5f 10070000 		.4byte	.LLST154
 9292 1e63 36       		.uleb128 0x36
 9293 1e64 BF080000 		.4byte	.LASF297
 9294 1e68 01       		.byte	0x1
 9295 1e69 C701     		.2byte	0x1c7
 9296 1e6b ED080000 		.4byte	0x8ed
 9297 1e6f 31070000 		.4byte	.LLST155
 9298 1e73 36       		.uleb128 0x36
 9299 1e74 56060000 		.4byte	.LASF304
 9300 1e78 01       		.byte	0x1
 9301 1e79 C801     		.2byte	0x1c8
 9302 1e7b ED080000 		.4byte	0x8ed
 9303 1e7f 5D070000 		.4byte	.LLST156
 9304 1e83 29       		.uleb128 0x29
 9305 1e84 51020000 		.4byte	.LASF292
 9306 1e88 381F0000 		.4byte	0x1f38
 9307 1e8c 05       		.uleb128 0x5
 9308 1e8d 03       		.byte	0x3
 9309 1e8e 00000000 		.4byte	__func__.9179
 9310 1e92 2E       		.uleb128 0x2e
 9311 1e93 3D1F0000 		.4byte	0x1f3d
 9312 1e97 10000000 		.4byte	.LBB654
 9313 1e9b B8020000 		.4byte	.Ldebug_ranges0+0x2b8
 9314 1e9f 01       		.byte	0x1
 9315 1ea0 CA01     		.2byte	0x1ca
 9316 1ea2 F21E0000 		.4byte	0x1ef2
 9317 1ea6 2C       		.uleb128 0x2c
 9318 1ea7 761F0000 		.4byte	0x1f76
 9319 1eab 89070000 		.4byte	.LLST157
 9320 1eaf 2C       		.uleb128 0x2c
 9321 1eb0 6A1F0000 		.4byte	0x1f6a
 9322 1eb4 9C070000 		.4byte	.LLST158
 9323 1eb8 2C       		.uleb128 0x2c
 9324 1eb9 5F1F0000 		.4byte	0x1f5f
 9325 1ebd BD070000 		.4byte	.LLST159
 9326 1ec1 2C       		.uleb128 0x2c
 9327 1ec2 541F0000 		.4byte	0x1f54
 9328 1ec6 DE070000 		.4byte	.LLST160
 9329 1eca 2C       		.uleb128 0x2c
 9330 1ecb 4A1F0000 		.4byte	0x1f4a
 9331 1ecf FF070000 		.4byte	.LLST161
 9332 1ed3 31       		.uleb128 0x31
 9333 1ed4 24000000 		.4byte	.LVL392
 9334 1ed8 60330000 		.4byte	0x3360
 9335 1edc 32       		.uleb128 0x32
ARM GAS  /var/folders/d2/nstgp4h54kz7g1l847x_b8wc0000gn/T//ccW13lHv.s 			page 166


 9336 1edd 01       		.uleb128 0x1
 9337 1ede 50       		.byte	0x50
 9338 1edf 02       		.uleb128 0x2
 9339 1ee0 74       		.byte	0x74
 9340 1ee1 00       		.sleb128 0
 9341 1ee2 32       		.uleb128 0x32
 9342 1ee3 01       		.uleb128 0x1
 9343 1ee4 51       		.byte	0x51
 9344 1ee5 03       		.uleb128 0x3
 9345 1ee6 F3       		.byte	0xf3
 9346 1ee7 01       		.uleb128 0x1
 9347 1ee8 51       		.byte	0x51
 9348 1ee9 32       		.uleb128 0x32
 9349 1eea 01       		.uleb128 0x1
 9350 1eeb 52       		.byte	0x52
 9351 1eec 03       		.uleb128 0x3
 9352 1eed F3       		.byte	0xf3
 9353 1eee 01       		.uleb128 0x1
 9354 1eef 52       		.byte	0x52
 9355 1ef0 00       		.byte	0
 9356 1ef1 00       		.byte	0
 9357 1ef2 33       		.uleb128 0x33
 9358 1ef3 2E000000 		.4byte	.LVL393
 9359 1ef7 FC400000 		.4byte	0x40fc
 9360 1efb 091F0000 		.4byte	0x1f09
 9361 1eff 32       		.uleb128 0x32
 9362 1f00 01       		.uleb128 0x1
 9363 1f01 50       		.byte	0x50
 9364 1f02 05       		.uleb128 0x5
 9365 1f03 03       		.byte	0x3
 9366 1f04 00000000 		.4byte	.LANCHOR10
 9367 1f08 00       		.byte	0
 9368 1f09 34       		.uleb128 0x34
 9369 1f0a 44000000 		.4byte	.LVL395
 9370 1f0e 17300000 		.4byte	0x3017
 9371 1f12 1E1F0000 		.4byte	0x1f1e
 9372 1f16 32       		.uleb128 0x32
 9373 1f17 01       		.uleb128 0x1
 9374 1f18 50       		.byte	0x50
 9375 1f19 03       		.uleb128 0x3
 9376 1f1a F3       		.byte	0xf3
 9377 1f1b 01       		.uleb128 0x1
 9378 1f1c 50       		.byte	0x50
 9379 1f1d 00       		.byte	0
 9380 1f1e 2D       		.uleb128 0x2d
 9381 1f1f 48000000 		.4byte	.LVL396
 9382 1f23 17410000 		.4byte	0x4117
 9383 1f27 00       		.byte	0
 9384 1f28 0A       		.uleb128 0xa
 9385 1f29 68010000 		.4byte	0x168
 9386 1f2d 381F0000 		.4byte	0x1f38
 9387 1f31 0B       		.uleb128 0xb
 9388 1f32 3E000000 		.4byte	0x3e
 9389 1f36 2E       		.byte	0x2e
 9390 1f37 00       		.byte	0
 9391 1f38 0F       		.uleb128 0xf
 9392 1f39 281F0000 		.4byte	0x1f28
ARM GAS  /var/folders/d2/nstgp4h54kz7g1l847x_b8wc0000gn/T//ccW13lHv.s 			page 167


 9393 1f3d 38       		.uleb128 0x38
 9394 1f3e 85120000 		.4byte	.LASF306
 9395 1f42 01       		.byte	0x1
 9396 1f43 B701     		.2byte	0x1b7
 9397 1f45 01       		.byte	0x1
 9398 1f46 831F0000 		.4byte	0x1f83
 9399 1f4a 39       		.uleb128 0x39
 9400 1f4b 7000     		.ascii	"p\000"
 9401 1f4d 01       		.byte	0x1
 9402 1f4e B701     		.2byte	0x1b7
 9403 1f50 020A0000 		.4byte	0xa02
 9404 1f54 39       		.uleb128 0x39
 9405 1f55 6E7300   		.ascii	"ns\000"
 9406 1f58 01       		.byte	0x1
 9407 1f59 B801     		.2byte	0x1b8
 9408 1f5b FC090000 		.4byte	0x9fc
 9409 1f5f 39       		.uleb128 0x39
 9410 1f60 696400   		.ascii	"id\000"
 9411 1f63 01       		.byte	0x1
 9412 1f64 B901     		.2byte	0x1b9
 9413 1f66 D9050000 		.4byte	0x5d9
 9414 1f6a 39       		.uleb128 0x39
 9415 1f6b 62756600 		.ascii	"buf\000"
 9416 1f6f 01       		.byte	0x1
 9417 1f70 BA01     		.2byte	0x1ba
 9418 1f72 6A0A0000 		.4byte	0xa6a
 9419 1f76 3A       		.uleb128 0x3a
 9420 1f77 BF080000 		.4byte	.LASF297
 9421 1f7b 01       		.byte	0x1
 9422 1f7c BB01     		.2byte	0x1bb
 9423 1f7e ED080000 		.4byte	0x8ed
 9424 1f82 00       		.byte	0
 9425 1f83 27       		.uleb128 0x27
 9426 1f84 120A0000 		.4byte	.LASF307
 9427 1f88 01       		.byte	0x1
 9428 1f89 A601     		.2byte	0x1a6
 9429 1f8b 00000000 		.4byte	.LFB284
 9430 1f8f 94000000 		.4byte	.LFE284-.LFB284
 9431 1f93 01       		.uleb128 0x1
 9432 1f94 9C       		.byte	0x9c
 9433 1f95 D2200000 		.4byte	0x20d2
 9434 1f99 28       		.uleb128 0x28
 9435 1f9a 7000     		.ascii	"p\000"
 9436 1f9c 01       		.byte	0x1
 9437 1f9d A601     		.2byte	0x1a6
 9438 1f9f 020A0000 		.4byte	0xa02
 9439 1fa3 1D080000 		.4byte	.LLST141
 9440 1fa7 28       		.uleb128 0x28
 9441 1fa8 7600     		.ascii	"v\000"
 9442 1faa 01       		.byte	0x1
 9443 1fab A601     		.2byte	0x1a6
 9444 1fad 9B1B0000 		.4byte	0x1b9b
 9445 1fb1 5F080000 		.4byte	.LLST142
 9446 1fb5 29       		.uleb128 0x29
 9447 1fb6 51020000 		.4byte	.LASF292
 9448 1fba E2200000 		.4byte	0x20e2
 9449 1fbe 05       		.uleb128 0x5
ARM GAS  /var/folders/d2/nstgp4h54kz7g1l847x_b8wc0000gn/T//ccW13lHv.s 			page 168


 9450 1fbf 03       		.byte	0x3
 9451 1fc0 00000000 		.4byte	__func__.9159
 9452 1fc4 37       		.uleb128 0x37
 9453 1fc5 6900     		.ascii	"i\000"
 9454 1fc7 01       		.byte	0x1
 9455 1fc8 AA01     		.2byte	0x1aa
 9456 1fca 2C000000 		.4byte	0x2c
 9457 1fce 96080000 		.4byte	.LLST143
 9458 1fd2 2A       		.uleb128 0x2a
 9459 1fd3 4D3A0000 		.4byte	0x3a4d
 9460 1fd7 1A000000 		.4byte	.LBB642
 9461 1fdb 0E000000 		.4byte	.LBE642-.LBB642
 9462 1fdf 01       		.byte	0x1
 9463 1fe0 A901     		.2byte	0x1a9
 9464 1fe2 28200000 		.4byte	0x2028
 9465 1fe6 2A       		.uleb128 0x2a
 9466 1fe7 5F3A0000 		.4byte	0x3a5f
 9467 1feb 1A000000 		.4byte	.LBB644
 9468 1fef 06000000 		.4byte	.LBE644-.LBB644
 9469 1ff3 03       		.byte	0x3
 9470 1ff4 5C01     		.2byte	0x15c
 9471 1ff6 15200000 		.4byte	0x2015
 9472 1ffa 2B       		.uleb128 0x2b
 9473 1ffb 683A0000 		.4byte	0x3a68
 9474 1fff 1A000000 		.4byte	.LBB645
 9475 2003 06000000 		.4byte	.LBE645-.LBB645
 9476 2007 12       		.byte	0x12
 9477 2008 BF01     		.2byte	0x1bf
 9478 200a 2C       		.uleb128 0x2c
 9479 200b 753A0000 		.4byte	0x3a75
 9480 200f B5080000 		.4byte	.LLST144
 9481 2013 00       		.byte	0
 9482 2014 00       		.byte	0
 9483 2015 2D       		.uleb128 0x2d
 9484 2016 24000000 		.4byte	.LVL373
 9485 201a D0400000 		.4byte	0x40d0
 9486 201e 2D       		.uleb128 0x2d
 9487 201f 28000000 		.4byte	.LVL374
 9488 2023 DB400000 		.4byte	0x40db
 9489 2027 00       		.byte	0
 9490 2028 2E       		.uleb128 0x2e
 9491 2029 1D3A0000 		.4byte	0x3a1d
 9492 202d 44000000 		.4byte	.LBB647
 9493 2031 A0020000 		.4byte	.Ldebug_ranges0+0x2a0
 9494 2035 01       		.byte	0x1
 9495 2036 AE01     		.2byte	0x1ae
 9496 2038 9C200000 		.4byte	0x209c
 9497 203c 2F       		.uleb128 0x2f
 9498 203d A0020000 		.4byte	.Ldebug_ranges0+0x2a0
 9499 2041 30       		.uleb128 0x30
 9500 2042 2A3A0000 		.4byte	0x3a2a
 9501 2046 2A       		.uleb128 0x2a
 9502 2047 563A0000 		.4byte	0x3a56
 9503 204b 5E000000 		.4byte	.LBB649
 9504 204f 06000000 		.4byte	.LBE649-.LBB649
 9505 2053 03       		.byte	0x3
 9506 2054 7301     		.2byte	0x173
ARM GAS  /var/folders/d2/nstgp4h54kz7g1l847x_b8wc0000gn/T//ccW13lHv.s 			page 169


 9507 2056 75200000 		.4byte	0x2075
 9508 205a 2B       		.uleb128 0x2b
 9509 205b 683A0000 		.4byte	0x3a68
 9510 205f 5E000000 		.4byte	.LBB650
 9511 2063 06000000 		.4byte	.LBE650-.LBB650
 9512 2067 12       		.byte	0x12
 9513 2068 CD01     		.2byte	0x1cd
 9514 206a 2C       		.uleb128 0x2c
 9515 206b 753A0000 		.4byte	0x3a75
 9516 206f CA080000 		.4byte	.LLST145
 9517 2073 00       		.byte	0
 9518 2074 00       		.byte	0
 9519 2075 2D       		.uleb128 0x2d
 9520 2076 48000000 		.4byte	.LVL378
 9521 207a E6400000 		.4byte	0x40e6
 9522 207e 2D       		.uleb128 0x2d
 9523 207f 4C000000 		.4byte	.LVL379
 9524 2083 F1400000 		.4byte	0x40f1
 9525 2087 31       		.uleb128 0x31
 9526 2088 7E000000 		.4byte	.LVL384
 9527 208c FC400000 		.4byte	0x40fc
 9528 2090 32       		.uleb128 0x32
 9529 2091 01       		.uleb128 0x1
 9530 2092 50       		.byte	0x50
 9531 2093 05       		.uleb128 0x5
 9532 2094 03       		.byte	0x3
 9533 2095 00000000 		.4byte	.LANCHOR0
 9534 2099 00       		.byte	0
 9535 209a 00       		.byte	0
 9536 209b 00       		.byte	0
 9537 209c 33       		.uleb128 0x33
 9538 209d 1A000000 		.4byte	.LVL371
 9539 20a1 FC400000 		.4byte	0x40fc
 9540 20a5 B3200000 		.4byte	0x20b3
 9541 20a9 32       		.uleb128 0x32
 9542 20aa 01       		.uleb128 0x1
 9543 20ab 50       		.byte	0x50
 9544 20ac 05       		.uleb128 0x5
 9545 20ad 03       		.byte	0x3
 9546 20ae 00000000 		.4byte	.LANCHOR9
 9547 20b2 00       		.byte	0
 9548 20b3 34       		.uleb128 0x34
 9549 20b4 78000000 		.4byte	.LVL383
 9550 20b8 17300000 		.4byte	0x3017
 9551 20bc C8200000 		.4byte	0x20c8
 9552 20c0 32       		.uleb128 0x32
 9553 20c1 01       		.uleb128 0x1
 9554 20c2 50       		.byte	0x50
 9555 20c3 03       		.uleb128 0x3
 9556 20c4 F3       		.byte	0xf3
 9557 20c5 01       		.uleb128 0x1
 9558 20c6 50       		.byte	0x50
 9559 20c7 00       		.byte	0
 9560 20c8 2D       		.uleb128 0x2d
 9561 20c9 84000000 		.4byte	.LVL385
 9562 20cd 17410000 		.4byte	0x4117
 9563 20d1 00       		.byte	0
ARM GAS  /var/folders/d2/nstgp4h54kz7g1l847x_b8wc0000gn/T//ccW13lHv.s 			page 170


 9564 20d2 0A       		.uleb128 0xa
 9565 20d3 68010000 		.4byte	0x168
 9566 20d7 E2200000 		.4byte	0x20e2
 9567 20db 0B       		.uleb128 0xb
 9568 20dc 3E000000 		.4byte	0x3e
 9569 20e0 14       		.byte	0x14
 9570 20e1 00       		.byte	0
 9571 20e2 0F       		.uleb128 0xf
 9572 20e3 D2200000 		.4byte	0x20d2
 9573 20e7 27       		.uleb128 0x27
 9574 20e8 8F0B0000 		.4byte	.LASF308
 9575 20ec 01       		.byte	0x1
 9576 20ed 9A01     		.2byte	0x19a
 9577 20ef 00000000 		.4byte	.LFB283
 9578 20f3 98000000 		.4byte	.LFE283-.LFB283
 9579 20f7 01       		.uleb128 0x1
 9580 20f8 9C       		.byte	0x9c
 9581 20f9 3A220000 		.4byte	0x223a
 9582 20fd 28       		.uleb128 0x28
 9583 20fe 7000     		.ascii	"p\000"
 9584 2100 01       		.byte	0x1
 9585 2101 9A01     		.2byte	0x19a
 9586 2103 020A0000 		.4byte	0xa02
 9587 2107 DE080000 		.4byte	.LLST134
 9588 210b 28       		.uleb128 0x28
 9589 210c 6F757400 		.ascii	"out\000"
 9590 2110 01       		.byte	0x1
 9591 2111 9A01     		.2byte	0x19a
 9592 2113 6A0A0000 		.4byte	0xa6a
 9593 2117 FC080000 		.4byte	.LLST135
 9594 211b 29       		.uleb128 0x29
 9595 211c 51020000 		.4byte	.LASF292
 9596 2120 91170000 		.4byte	0x1791
 9597 2124 05       		.uleb128 0x5
 9598 2125 03       		.byte	0x3
 9599 2126 00000000 		.4byte	__func__.9150
 9600 212a 37       		.uleb128 0x37
 9601 212b 6900     		.ascii	"i\000"
 9602 212d 01       		.byte	0x1
 9603 212e 9F01     		.2byte	0x19f
 9604 2130 2C000000 		.4byte	0x2c
 9605 2134 1A090000 		.4byte	.LLST136
 9606 2138 2A       		.uleb128 0x2a
 9607 2139 4D3A0000 		.4byte	0x3a4d
 9608 213d 1A000000 		.4byte	.LBB620
 9609 2141 0E000000 		.4byte	.LBE620-.LBB620
 9610 2145 01       		.byte	0x1
 9611 2146 9D01     		.2byte	0x19d
 9612 2148 8E210000 		.4byte	0x218e
 9613 214c 2A       		.uleb128 0x2a
 9614 214d 5F3A0000 		.4byte	0x3a5f
 9615 2151 1A000000 		.4byte	.LBB622
 9616 2155 06000000 		.4byte	.LBE622-.LBB622
 9617 2159 03       		.byte	0x3
 9618 215a 5C01     		.2byte	0x15c
 9619 215c 7B210000 		.4byte	0x217b
 9620 2160 2B       		.uleb128 0x2b
ARM GAS  /var/folders/d2/nstgp4h54kz7g1l847x_b8wc0000gn/T//ccW13lHv.s 			page 171


 9621 2161 683A0000 		.4byte	0x3a68
 9622 2165 1A000000 		.4byte	.LBB623
 9623 2169 06000000 		.4byte	.LBE623-.LBB623
 9624 216d 12       		.byte	0x12
 9625 216e BF01     		.2byte	0x1bf
 9626 2170 2C       		.uleb128 0x2c
 9627 2171 753A0000 		.4byte	0x3a75
 9628 2175 39090000 		.4byte	.LLST137
 9629 2179 00       		.byte	0
 9630 217a 00       		.byte	0
 9631 217b 2D       		.uleb128 0x2d
 9632 217c 24000000 		.4byte	.LVL350
 9633 2180 D0400000 		.4byte	0x40d0
 9634 2184 2D       		.uleb128 0x2d
 9635 2185 28000000 		.4byte	.LVL351
 9636 2189 DB400000 		.4byte	0x40db
 9637 218d 00       		.byte	0
 9638 218e 2E       		.uleb128 0x2e
 9639 218f 1D3A0000 		.4byte	0x3a1d
 9640 2193 48000000 		.4byte	.LBB625
 9641 2197 88020000 		.4byte	.Ldebug_ranges0+0x288
 9642 219b 01       		.byte	0x1
 9643 219c A301     		.2byte	0x1a3
 9644 219e 02220000 		.4byte	0x2202
 9645 21a2 2F       		.uleb128 0x2f
 9646 21a3 88020000 		.4byte	.Ldebug_ranges0+0x288
 9647 21a7 30       		.uleb128 0x30
 9648 21a8 2A3A0000 		.4byte	0x3a2a
 9649 21ac 2A       		.uleb128 0x2a
 9650 21ad 563A0000 		.4byte	0x3a56
 9651 21b1 62000000 		.4byte	.LBB627
 9652 21b5 06000000 		.4byte	.LBE627-.LBB627
 9653 21b9 03       		.byte	0x3
 9654 21ba 7301     		.2byte	0x173
 9655 21bc DB210000 		.4byte	0x21db
 9656 21c0 2B       		.uleb128 0x2b
 9657 21c1 683A0000 		.4byte	0x3a68
 9658 21c5 62000000 		.4byte	.LBB628
 9659 21c9 06000000 		.4byte	.LBE628-.LBB628
 9660 21cd 12       		.byte	0x12
 9661 21ce CD01     		.2byte	0x1cd
 9662 21d0 2C       		.uleb128 0x2c
 9663 21d1 753A0000 		.4byte	0x3a75
 9664 21d5 4E090000 		.4byte	.LLST138
 9665 21d9 00       		.byte	0
 9666 21da 00       		.byte	0
 9667 21db 2D       		.uleb128 0x2d
 9668 21dc 4C000000 		.4byte	.LVL356
 9669 21e0 E6400000 		.4byte	0x40e6
 9670 21e4 2D       		.uleb128 0x2d
 9671 21e5 50000000 		.4byte	.LVL357
 9672 21e9 F1400000 		.4byte	0x40f1
 9673 21ed 31       		.uleb128 0x31
 9674 21ee 7A000000 		.4byte	.LVL361
 9675 21f2 FC400000 		.4byte	0x40fc
 9676 21f6 32       		.uleb128 0x32
 9677 21f7 01       		.uleb128 0x1
ARM GAS  /var/folders/d2/nstgp4h54kz7g1l847x_b8wc0000gn/T//ccW13lHv.s 			page 172


 9678 21f8 50       		.byte	0x50
 9679 21f9 05       		.uleb128 0x5
 9680 21fa 03       		.byte	0x3
 9681 21fb 00000000 		.4byte	.LANCHOR0
 9682 21ff 00       		.byte	0
 9683 2200 00       		.byte	0
 9684 2201 00       		.byte	0
 9685 2202 33       		.uleb128 0x33
 9686 2203 1A000000 		.4byte	.LVL348
 9687 2207 FC400000 		.4byte	0x40fc
 9688 220b 19220000 		.4byte	0x2219
 9689 220f 32       		.uleb128 0x32
 9690 2210 01       		.uleb128 0x1
 9691 2211 50       		.byte	0x50
 9692 2212 05       		.uleb128 0x5
 9693 2213 03       		.byte	0x3
 9694 2214 00000000 		.4byte	.LANCHOR8
 9695 2218 00       		.byte	0
 9696 2219 33       		.uleb128 0x33
 9697 221a 82000000 		.4byte	.LVL362
 9698 221e FC400000 		.4byte	0x40fc
 9699 2222 30220000 		.4byte	0x2230
 9700 2226 32       		.uleb128 0x32
 9701 2227 01       		.uleb128 0x1
 9702 2228 50       		.byte	0x50
 9703 2229 05       		.uleb128 0x5
 9704 222a 03       		.byte	0x3
 9705 222b 00000000 		.4byte	.LANCHOR8
 9706 222f 00       		.byte	0
 9707 2230 2D       		.uleb128 0x2d
 9708 2231 88000000 		.4byte	.LVL363
 9709 2235 17410000 		.4byte	0x4117
 9710 2239 00       		.byte	0
 9711 223a 27       		.uleb128 0x27
 9712 223b F8020000 		.4byte	.LASF309
 9713 223f 01       		.byte	0x1
 9714 2240 9401     		.2byte	0x194
 9715 2242 00000000 		.4byte	.LFB282
 9716 2246 30000000 		.4byte	.LFE282-.LFB282
 9717 224a 01       		.uleb128 0x1
 9718 224b 9C       		.byte	0x9c
 9719 224c A8220000 		.4byte	0x22a8
 9720 2250 28       		.uleb128 0x28
 9721 2251 7000     		.ascii	"p\000"
 9722 2253 01       		.byte	0x1
 9723 2254 9401     		.2byte	0x194
 9724 2256 020A0000 		.4byte	0xa02
 9725 225a 62090000 		.4byte	.LLST139
 9726 225e 28       		.uleb128 0x28
 9727 225f 6F757400 		.ascii	"out\000"
 9728 2263 01       		.byte	0x1
 9729 2264 9401     		.2byte	0x194
 9730 2266 6A0A0000 		.4byte	0xa6a
 9731 226a A4090000 		.4byte	.LLST140
 9732 226e 33       		.uleb128 0x33
 9733 226f 12000000 		.4byte	.LVL365
 9734 2273 EC2F0000 		.4byte	0x2fec
ARM GAS  /var/folders/d2/nstgp4h54kz7g1l847x_b8wc0000gn/T//ccW13lHv.s 			page 173


 9735 2277 82220000 		.4byte	0x2282
 9736 227b 32       		.uleb128 0x32
 9737 227c 01       		.uleb128 0x1
 9738 227d 50       		.byte	0x50
 9739 227e 02       		.uleb128 0x2
 9740 227f 75       		.byte	0x75
 9741 2280 00       		.sleb128 0
 9742 2281 00       		.byte	0
 9743 2282 34       		.uleb128 0x34
 9744 2283 28000000 		.4byte	.LVL367
 9745 2287 E7200000 		.4byte	0x20e7
 9746 228b 9E220000 		.4byte	0x229e
 9747 228f 32       		.uleb128 0x32
 9748 2290 01       		.uleb128 0x1
 9749 2291 50       		.byte	0x50
 9750 2292 03       		.uleb128 0x3
 9751 2293 F3       		.byte	0xf3
 9752 2294 01       		.uleb128 0x1
 9753 2295 50       		.byte	0x50
 9754 2296 32       		.uleb128 0x32
 9755 2297 01       		.uleb128 0x1
 9756 2298 51       		.byte	0x51
 9757 2299 03       		.uleb128 0x3
 9758 229a F3       		.byte	0xf3
 9759 229b 01       		.uleb128 0x1
 9760 229c 51       		.byte	0x51
 9761 229d 00       		.byte	0
 9762 229e 2D       		.uleb128 0x2d
 9763 229f 2C000000 		.4byte	.LVL368
 9764 22a3 17410000 		.4byte	0x4117
 9765 22a7 00       		.byte	0
 9766 22a8 35       		.uleb128 0x35
 9767 22a9 C50B0000 		.4byte	.LASF310
 9768 22ad 01       		.byte	0x1
 9769 22ae 8E01     		.2byte	0x18e
 9770 22b0 ED080000 		.4byte	0x8ed
 9771 22b4 00000000 		.4byte	.LFB281
 9772 22b8 34000000 		.4byte	.LFE281-.LFB281
 9773 22bc 01       		.uleb128 0x1
 9774 22bd 9C       		.byte	0x9c
 9775 22be 00230000 		.4byte	0x2300
 9776 22c2 28       		.uleb128 0x28
 9777 22c3 7000     		.ascii	"p\000"
 9778 22c5 01       		.byte	0x1
 9779 22c6 8E01     		.2byte	0x18e
 9780 22c8 020A0000 		.4byte	0xa02
 9781 22cc E6090000 		.4byte	.LLST133
 9782 22d0 29       		.uleb128 0x29
 9783 22d1 51020000 		.4byte	.LASF292
 9784 22d5 E2200000 		.4byte	0x20e2
 9785 22d9 05       		.uleb128 0x5
 9786 22da 03       		.byte	0x3
 9787 22db 00000000 		.4byte	__func__.9141
 9788 22df 33       		.uleb128 0x33
 9789 22e0 18000000 		.4byte	.LVL343
 9790 22e4 FC400000 		.4byte	0x40fc
 9791 22e8 F6220000 		.4byte	0x22f6
ARM GAS  /var/folders/d2/nstgp4h54kz7g1l847x_b8wc0000gn/T//ccW13lHv.s 			page 174


 9792 22ec 32       		.uleb128 0x32
 9793 22ed 01       		.uleb128 0x1
 9794 22ee 50       		.byte	0x50
 9795 22ef 05       		.uleb128 0x5
 9796 22f0 03       		.byte	0x3
 9797 22f1 00000000 		.4byte	.LANCHOR7
 9798 22f5 00       		.byte	0
 9799 22f6 2D       		.uleb128 0x2d
 9800 22f7 2A000000 		.4byte	.LVL345
 9801 22fb 17410000 		.4byte	0x4117
 9802 22ff 00       		.byte	0
 9803 2300 27       		.uleb128 0x27
 9804 2301 6F060000 		.4byte	.LASF311
 9805 2305 01       		.byte	0x1
 9806 2306 8401     		.2byte	0x184
 9807 2308 00000000 		.4byte	.LFB280
 9808 230c 38000000 		.4byte	.LFE280-.LFB280
 9809 2310 01       		.uleb128 0x1
 9810 2311 9C       		.byte	0x9c
 9811 2312 E1230000 		.4byte	0x23e1
 9812 2316 28       		.uleb128 0x28
 9813 2317 7000     		.ascii	"p\000"
 9814 2319 01       		.byte	0x1
 9815 231a 8401     		.2byte	0x184
 9816 231c 020A0000 		.4byte	0xa02
 9817 2320 040A0000 		.4byte	.LLST123
 9818 2324 28       		.uleb128 0x28
 9819 2325 6E7300   		.ascii	"ns\000"
 9820 2328 01       		.byte	0x1
 9821 2329 8501     		.2byte	0x185
 9822 232b FC090000 		.4byte	0x9fc
 9823 232f 460A0000 		.4byte	.LLST124
 9824 2333 28       		.uleb128 0x28
 9825 2334 696400   		.ascii	"id\000"
 9826 2337 01       		.byte	0x1
 9827 2338 8601     		.2byte	0x186
 9828 233a D9050000 		.4byte	0x5d9
 9829 233e 670A0000 		.4byte	.LLST125
 9830 2342 28       		.uleb128 0x28
 9831 2343 62756600 		.ascii	"buf\000"
 9832 2347 01       		.byte	0x1
 9833 2348 8701     		.2byte	0x187
 9834 234a 6A0A0000 		.4byte	0xa6a
 9835 234e 880A0000 		.4byte	.LLST126
 9836 2352 28       		.uleb128 0x28
 9837 2353 64696D00 		.ascii	"dim\000"
 9838 2357 01       		.byte	0x1
 9839 2358 8801     		.2byte	0x188
 9840 235a ED080000 		.4byte	0x8ed
 9841 235e A90A0000 		.4byte	.LLST127
 9842 2362 2E       		.uleb128 0x2e
 9843 2363 E1230000 		.4byte	0x23e1
 9844 2367 0C000000 		.4byte	.LBB606
 9845 236b 70020000 		.4byte	.Ldebug_ranges0+0x270
 9846 236f 01       		.byte	0x1
 9847 2370 8A01     		.2byte	0x18a
 9848 2372 C2230000 		.4byte	0x23c2
ARM GAS  /var/folders/d2/nstgp4h54kz7g1l847x_b8wc0000gn/T//ccW13lHv.s 			page 175


 9849 2376 2C       		.uleb128 0x2c
 9850 2377 1A240000 		.4byte	0x241a
 9851 237b D50A0000 		.4byte	.LLST128
 9852 237f 2C       		.uleb128 0x2c
 9853 2380 0E240000 		.4byte	0x240e
 9854 2384 E80A0000 		.4byte	.LLST129
 9855 2388 2C       		.uleb128 0x2c
 9856 2389 03240000 		.4byte	0x2403
 9857 238d 090B0000 		.4byte	.LLST130
 9858 2391 2C       		.uleb128 0x2c
 9859 2392 F8230000 		.4byte	0x23f8
 9860 2396 2A0B0000 		.4byte	.LLST131
 9861 239a 2C       		.uleb128 0x2c
 9862 239b EE230000 		.4byte	0x23ee
 9863 239f 4B0B0000 		.4byte	.LLST132
 9864 23a3 31       		.uleb128 0x31
 9865 23a4 1C000000 		.4byte	.LVL337
 9866 23a8 60330000 		.4byte	0x3360
 9867 23ac 32       		.uleb128 0x32
 9868 23ad 01       		.uleb128 0x1
 9869 23ae 50       		.byte	0x50
 9870 23af 02       		.uleb128 0x2
 9871 23b0 74       		.byte	0x74
 9872 23b1 00       		.sleb128 0
 9873 23b2 32       		.uleb128 0x32
 9874 23b3 01       		.uleb128 0x1
 9875 23b4 51       		.byte	0x51
 9876 23b5 03       		.uleb128 0x3
 9877 23b6 F3       		.byte	0xf3
 9878 23b7 01       		.uleb128 0x1
 9879 23b8 51       		.byte	0x51
 9880 23b9 32       		.uleb128 0x32
 9881 23ba 01       		.uleb128 0x1
 9882 23bb 52       		.byte	0x52
 9883 23bc 03       		.uleb128 0x3
 9884 23bd F3       		.byte	0xf3
 9885 23be 01       		.uleb128 0x1
 9886 23bf 52       		.byte	0x52
 9887 23c0 00       		.byte	0
 9888 23c1 00       		.byte	0
 9889 23c2 34       		.uleb128 0x34
 9890 23c3 30000000 		.4byte	.LVL339
 9891 23c7 17300000 		.4byte	0x3017
 9892 23cb D7230000 		.4byte	0x23d7
 9893 23cf 32       		.uleb128 0x32
 9894 23d0 01       		.uleb128 0x1
 9895 23d1 50       		.byte	0x50
 9896 23d2 03       		.uleb128 0x3
 9897 23d3 F3       		.byte	0xf3
 9898 23d4 01       		.uleb128 0x1
 9899 23d5 50       		.byte	0x50
 9900 23d6 00       		.byte	0
 9901 23d7 2D       		.uleb128 0x2d
 9902 23d8 34000000 		.4byte	.LVL340
 9903 23dc 17410000 		.4byte	0x4117
 9904 23e0 00       		.byte	0
 9905 23e1 38       		.uleb128 0x38
ARM GAS  /var/folders/d2/nstgp4h54kz7g1l847x_b8wc0000gn/T//ccW13lHv.s 			page 176


 9906 23e2 140E0000 		.4byte	.LASF312
 9907 23e6 01       		.byte	0x1
 9908 23e7 7B01     		.2byte	0x17b
 9909 23e9 01       		.byte	0x1
 9910 23ea 27240000 		.4byte	0x2427
 9911 23ee 39       		.uleb128 0x39
 9912 23ef 7000     		.ascii	"p\000"
 9913 23f1 01       		.byte	0x1
 9914 23f2 7B01     		.2byte	0x17b
 9915 23f4 020A0000 		.4byte	0xa02
 9916 23f8 39       		.uleb128 0x39
 9917 23f9 6E7300   		.ascii	"ns\000"
 9918 23fc 01       		.byte	0x1
 9919 23fd 7B01     		.2byte	0x17b
 9920 23ff FC090000 		.4byte	0x9fc
 9921 2403 39       		.uleb128 0x39
 9922 2404 696400   		.ascii	"id\000"
 9923 2407 01       		.byte	0x1
 9924 2408 7C01     		.2byte	0x17c
 9925 240a D9050000 		.4byte	0x5d9
 9926 240e 39       		.uleb128 0x39
 9927 240f 62756600 		.ascii	"buf\000"
 9928 2413 01       		.byte	0x1
 9929 2414 7C01     		.2byte	0x17c
 9930 2416 6A0A0000 		.4byte	0xa6a
 9931 241a 39       		.uleb128 0x39
 9932 241b 64696D00 		.ascii	"dim\000"
 9933 241f 01       		.byte	0x1
 9934 2420 7C01     		.2byte	0x17c
 9935 2422 ED080000 		.4byte	0x8ed
 9936 2426 00       		.byte	0
 9937 2427 35       		.uleb128 0x35
 9938 2428 11080000 		.4byte	.LASF313
 9939 242c 01       		.byte	0x1
 9940 242d 6C01     		.2byte	0x16c
 9941 242f E70A0000 		.4byte	0xae7
 9942 2433 00000000 		.4byte	.LFB278
 9943 2437 7C000000 		.4byte	.LFE278-.LFB278
 9944 243b 01       		.uleb128 0x1
 9945 243c 9C       		.byte	0x9c
 9946 243d 6E250000 		.4byte	0x256e
 9947 2441 28       		.uleb128 0x28
 9948 2442 7000     		.ascii	"p\000"
 9949 2444 01       		.byte	0x1
 9950 2445 6C01     		.2byte	0x16c
 9951 2447 020A0000 		.4byte	0xa02
 9952 244b 690B0000 		.4byte	.LLST114
 9953 244f 29       		.uleb128 0x29
 9954 2450 51020000 		.4byte	.LASF292
 9955 2454 7E250000 		.4byte	0x257e
 9956 2458 05       		.uleb128 0x5
 9957 2459 03       		.byte	0x3
 9958 245a 00000000 		.4byte	__func__.9122
 9959 245e 3B       		.uleb128 0x3b
 9960 245f 72657400 		.ascii	"ret\000"
 9961 2463 01       		.byte	0x1
 9962 2464 7101     		.2byte	0x171
ARM GAS  /var/folders/d2/nstgp4h54kz7g1l847x_b8wc0000gn/T//ccW13lHv.s 			page 177


 9963 2466 E70A0000 		.4byte	0xae7
 9964 246a 01       		.uleb128 0x1
 9965 246b 54       		.byte	0x54
 9966 246c 2A       		.uleb128 0x2a
 9967 246d 4D3A0000 		.4byte	0x3a4d
 9968 2471 18000000 		.4byte	.LBB594
 9969 2475 0E000000 		.4byte	.LBE594-.LBB594
 9970 2479 01       		.byte	0x1
 9971 247a 6F01     		.2byte	0x16f
 9972 247c C2240000 		.4byte	0x24c2
 9973 2480 2A       		.uleb128 0x2a
 9974 2481 5F3A0000 		.4byte	0x3a5f
 9975 2485 18000000 		.4byte	.LBB596
 9976 2489 06000000 		.4byte	.LBE596-.LBB596
 9977 248d 03       		.byte	0x3
 9978 248e 5C01     		.2byte	0x15c
 9979 2490 AF240000 		.4byte	0x24af
 9980 2494 2B       		.uleb128 0x2b
 9981 2495 683A0000 		.4byte	0x3a68
 9982 2499 18000000 		.4byte	.LBB597
 9983 249d 06000000 		.4byte	.LBE597-.LBB597
 9984 24a1 12       		.byte	0x12
 9985 24a2 BF01     		.2byte	0x1bf
 9986 24a4 2C       		.uleb128 0x2c
 9987 24a5 753A0000 		.4byte	0x3a75
 9988 24a9 950B0000 		.4byte	.LLST115
 9989 24ad 00       		.byte	0
 9990 24ae 00       		.byte	0
 9991 24af 2D       		.uleb128 0x2d
 9992 24b0 22000000 		.4byte	.LVL315
 9993 24b4 D0400000 		.4byte	0x40d0
 9994 24b8 2D       		.uleb128 0x2d
 9995 24b9 26000000 		.4byte	.LVL316
 9996 24bd DB400000 		.4byte	0x40db
 9997 24c1 00       		.byte	0
 9998 24c2 2E       		.uleb128 0x2e
 9999 24c3 1D3A0000 		.4byte	0x3a1d
 10000 24c7 32000000 		.4byte	.LBB599
 10001 24cb 58020000 		.4byte	.Ldebug_ranges0+0x258
 10002 24cf 01       		.byte	0x1
 10003 24d0 7201     		.2byte	0x172
 10004 24d2 36250000 		.4byte	0x2536
 10005 24d6 2F       		.uleb128 0x2f
 10006 24d7 58020000 		.4byte	.Ldebug_ranges0+0x258
 10007 24db 30       		.uleb128 0x30
 10008 24dc 2A3A0000 		.4byte	0x3a2a
 10009 24e0 2A       		.uleb128 0x2a
 10010 24e1 563A0000 		.4byte	0x3a56
 10011 24e5 4C000000 		.4byte	.LBB601
 10012 24e9 06000000 		.4byte	.LBE601-.LBB601
 10013 24ed 03       		.byte	0x3
 10014 24ee 7301     		.2byte	0x173
 10015 24f0 0F250000 		.4byte	0x250f
 10016 24f4 2B       		.uleb128 0x2b
 10017 24f5 683A0000 		.4byte	0x3a68
 10018 24f9 4C000000 		.4byte	.LBB602
 10019 24fd 06000000 		.4byte	.LBE602-.LBB602
ARM GAS  /var/folders/d2/nstgp4h54kz7g1l847x_b8wc0000gn/T//ccW13lHv.s 			page 178


 10020 2501 12       		.byte	0x12
 10021 2502 CD01     		.2byte	0x1cd
 10022 2504 2C       		.uleb128 0x2c
 10023 2505 753A0000 		.4byte	0x3a75
 10024 2509 AA0B0000 		.4byte	.LLST116
 10025 250d 00       		.byte	0
 10026 250e 00       		.byte	0
 10027 250f 2D       		.uleb128 0x2d
 10028 2510 36000000 		.4byte	.LVL319
 10029 2514 E6400000 		.4byte	0x40e6
 10030 2518 2D       		.uleb128 0x2d
 10031 2519 3A000000 		.4byte	.LVL320
 10032 251d F1400000 		.4byte	0x40f1
 10033 2521 31       		.uleb128 0x31
 10034 2522 66000000 		.4byte	.LVL324
 10035 2526 FC400000 		.4byte	0x40fc
 10036 252a 32       		.uleb128 0x32
 10037 252b 01       		.uleb128 0x1
 10038 252c 50       		.byte	0x50
 10039 252d 05       		.uleb128 0x5
 10040 252e 03       		.byte	0x3
 10041 252f 00000000 		.4byte	.LANCHOR0
 10042 2533 00       		.byte	0
 10043 2534 00       		.byte	0
 10044 2535 00       		.byte	0
 10045 2536 33       		.uleb128 0x33
 10046 2537 18000000 		.4byte	.LVL313
 10047 253b FC400000 		.4byte	0x40fc
 10048 253f 4D250000 		.4byte	0x254d
 10049 2543 32       		.uleb128 0x32
 10050 2544 01       		.uleb128 0x1
 10051 2545 50       		.byte	0x50
 10052 2546 05       		.uleb128 0x5
 10053 2547 03       		.byte	0x3
 10054 2548 00000000 		.4byte	.LANCHOR6
 10055 254c 00       		.byte	0
 10056 254d 33       		.uleb128 0x33
 10057 254e 30000000 		.4byte	.LVL317
 10058 2552 FC400000 		.4byte	0x40fc
 10059 2556 64250000 		.4byte	0x2564
 10060 255a 32       		.uleb128 0x32
 10061 255b 01       		.uleb128 0x1
 10062 255c 50       		.byte	0x50
 10063 255d 05       		.uleb128 0x5
 10064 255e 03       		.byte	0x3
 10065 255f 00000000 		.4byte	.LANCHOR6
 10066 2563 00       		.byte	0
 10067 2564 2D       		.uleb128 0x2d
 10068 2565 6C000000 		.4byte	.LVL325
 10069 2569 17410000 		.4byte	0x4117
 10070 256d 00       		.byte	0
 10071 256e 0A       		.uleb128 0xa
 10072 256f 68010000 		.4byte	0x168
 10073 2573 7E250000 		.4byte	0x257e
 10074 2577 0B       		.uleb128 0xb
 10075 2578 3E000000 		.4byte	0x3e
 10076 257c 16       		.byte	0x16
ARM GAS  /var/folders/d2/nstgp4h54kz7g1l847x_b8wc0000gn/T//ccW13lHv.s 			page 179


 10077 257d 00       		.byte	0
 10078 257e 0F       		.uleb128 0xf
 10079 257f 6E250000 		.4byte	0x256e
 10080 2583 35       		.uleb128 0x35
 10081 2584 670E0000 		.4byte	.LASF314
 10082 2588 01       		.byte	0x1
 10083 2589 6601     		.2byte	0x166
 10084 258b E70A0000 		.4byte	0xae7
 10085 258f 00000000 		.4byte	.LFB277
 10086 2593 2C000000 		.4byte	.LFE277-.LFB277
 10087 2597 01       		.uleb128 0x1
 10088 2598 9C       		.byte	0x9c
 10089 2599 DE250000 		.4byte	0x25de
 10090 259d 28       		.uleb128 0x28
 10091 259e 7000     		.ascii	"p\000"
 10092 25a0 01       		.byte	0x1
 10093 25a1 6601     		.2byte	0x166
 10094 25a3 020A0000 		.4byte	0xa02
 10095 25a7 BE0B0000 		.4byte	.LLST117
 10096 25ab 33       		.uleb128 0x33
 10097 25ac 10000000 		.4byte	.LVL327
 10098 25b0 EC2F0000 		.4byte	0x2fec
 10099 25b4 BF250000 		.4byte	0x25bf
 10100 25b8 32       		.uleb128 0x32
 10101 25b9 01       		.uleb128 0x1
 10102 25ba 50       		.byte	0x50
 10103 25bb 02       		.uleb128 0x2
 10104 25bc 75       		.byte	0x75
 10105 25bd 00       		.sleb128 0
 10106 25be 00       		.byte	0
 10107 25bf 34       		.uleb128 0x34
 10108 25c0 24000000 		.4byte	.LVL329
 10109 25c4 27240000 		.4byte	0x2427
 10110 25c8 D4250000 		.4byte	0x25d4
 10111 25cc 32       		.uleb128 0x32
 10112 25cd 01       		.uleb128 0x1
 10113 25ce 50       		.byte	0x50
 10114 25cf 03       		.uleb128 0x3
 10115 25d0 F3       		.byte	0xf3
 10116 25d1 01       		.uleb128 0x1
 10117 25d2 50       		.byte	0x50
 10118 25d3 00       		.byte	0
 10119 25d4 2D       		.uleb128 0x2d
 10120 25d5 28000000 		.4byte	.LVL330
 10121 25d9 17410000 		.4byte	0x4117
 10122 25dd 00       		.byte	0
 10123 25de 27       		.uleb128 0x27
 10124 25df EE060000 		.4byte	.LASF315
 10125 25e3 01       		.byte	0x1
 10126 25e4 5C01     		.2byte	0x15c
 10127 25e6 00000000 		.4byte	.LFB276
 10128 25ea 7C000000 		.4byte	.LFE276-.LFB276
 10129 25ee 01       		.uleb128 0x1
 10130 25ef 9C       		.byte	0x9c
 10131 25f0 21270000 		.4byte	0x2721
 10132 25f4 28       		.uleb128 0x28
 10133 25f5 7000     		.ascii	"p\000"
ARM GAS  /var/folders/d2/nstgp4h54kz7g1l847x_b8wc0000gn/T//ccW13lHv.s 			page 180


 10134 25f7 01       		.byte	0x1
 10135 25f8 5C01     		.2byte	0x15c
 10136 25fa 020A0000 		.4byte	0xa02
 10137 25fe 000C0000 		.4byte	.LLST110
 10138 2602 36       		.uleb128 0x36
 10139 2603 BF060000 		.4byte	.LASF146
 10140 2607 01       		.byte	0x1
 10141 2608 5C01     		.2byte	0x15c
 10142 260a E70A0000 		.4byte	0xae7
 10143 260e 420C0000 		.4byte	.LLST111
 10144 2612 29       		.uleb128 0x29
 10145 2613 51020000 		.4byte	.LASF292
 10146 2617 91170000 		.4byte	0x1791
 10147 261b 05       		.uleb128 0x5
 10148 261c 03       		.byte	0x3
 10149 261d 00000000 		.4byte	__func__.9115
 10150 2621 2A       		.uleb128 0x2a
 10151 2622 4D3A0000 		.4byte	0x3a4d
 10152 2626 1A000000 		.4byte	.LBB572
 10153 262a 0E000000 		.4byte	.LBE572-.LBB572
 10154 262e 01       		.byte	0x1
 10155 262f 6001     		.2byte	0x160
 10156 2631 77260000 		.4byte	0x2677
 10157 2635 2A       		.uleb128 0x2a
 10158 2636 5F3A0000 		.4byte	0x3a5f
 10159 263a 1A000000 		.4byte	.LBB574
 10160 263e 06000000 		.4byte	.LBE574-.LBB574
 10161 2642 03       		.byte	0x3
 10162 2643 5C01     		.2byte	0x15c
 10163 2645 64260000 		.4byte	0x2664
 10164 2649 2B       		.uleb128 0x2b
 10165 264a 683A0000 		.4byte	0x3a68
 10166 264e 1A000000 		.4byte	.LBB575
 10167 2652 06000000 		.4byte	.LBE575-.LBB575
 10168 2656 12       		.byte	0x12
 10169 2657 BF01     		.2byte	0x1bf
 10170 2659 2C       		.uleb128 0x2c
 10171 265a 753A0000 		.4byte	0x3a75
 10172 265e 630C0000 		.4byte	.LLST112
 10173 2662 00       		.byte	0
 10174 2663 00       		.byte	0
 10175 2664 2D       		.uleb128 0x2d
 10176 2665 24000000 		.4byte	.LVL301
 10177 2669 D0400000 		.4byte	0x40d0
 10178 266d 2D       		.uleb128 0x2d
 10179 266e 28000000 		.4byte	.LVL302
 10180 2672 DB400000 		.4byte	0x40db
 10181 2676 00       		.byte	0
 10182 2677 2E       		.uleb128 0x2e
 10183 2678 1D3A0000 		.4byte	0x3a1d
 10184 267c 2A000000 		.4byte	.LBB577
 10185 2680 40020000 		.4byte	.Ldebug_ranges0+0x240
 10186 2684 01       		.byte	0x1
 10187 2685 6201     		.2byte	0x162
 10188 2687 EB260000 		.4byte	0x26eb
 10189 268b 2F       		.uleb128 0x2f
 10190 268c 40020000 		.4byte	.Ldebug_ranges0+0x240
ARM GAS  /var/folders/d2/nstgp4h54kz7g1l847x_b8wc0000gn/T//ccW13lHv.s 			page 181


 10191 2690 30       		.uleb128 0x30
 10192 2691 2A3A0000 		.4byte	0x3a2a
 10193 2695 2A       		.uleb128 0x2a
 10194 2696 563A0000 		.4byte	0x3a56
 10195 269a 44000000 		.4byte	.LBB579
 10196 269e 06000000 		.4byte	.LBE579-.LBB579
 10197 26a2 03       		.byte	0x3
 10198 26a3 7301     		.2byte	0x173
 10199 26a5 C4260000 		.4byte	0x26c4
 10200 26a9 2B       		.uleb128 0x2b
 10201 26aa 683A0000 		.4byte	0x3a68
 10202 26ae 44000000 		.4byte	.LBB580
 10203 26b2 06000000 		.4byte	.LBE580-.LBB580
 10204 26b6 12       		.byte	0x12
 10205 26b7 CD01     		.2byte	0x1cd
 10206 26b9 2C       		.uleb128 0x2c
 10207 26ba 753A0000 		.4byte	0x3a75
 10208 26be 780C0000 		.4byte	.LLST113
 10209 26c2 00       		.byte	0
 10210 26c3 00       		.byte	0
 10211 26c4 2D       		.uleb128 0x2d
 10212 26c5 2E000000 		.4byte	.LVL303
 10213 26c9 E6400000 		.4byte	0x40e6
 10214 26cd 2D       		.uleb128 0x2d
 10215 26ce 32000000 		.4byte	.LVL304
 10216 26d2 F1400000 		.4byte	0x40f1
 10217 26d6 31       		.uleb128 0x31
 10218 26d7 64000000 		.4byte	.LVL309
 10219 26db FC400000 		.4byte	0x40fc
 10220 26df 32       		.uleb128 0x32
 10221 26e0 01       		.uleb128 0x1
 10222 26e1 50       		.byte	0x50
 10223 26e2 05       		.uleb128 0x5
 10224 26e3 03       		.byte	0x3
 10225 26e4 00000000 		.4byte	.LANCHOR0
 10226 26e8 00       		.byte	0
 10227 26e9 00       		.byte	0
 10228 26ea 00       		.byte	0
 10229 26eb 33       		.uleb128 0x33
 10230 26ec 1A000000 		.4byte	.LVL299
 10231 26f0 FC400000 		.4byte	0x40fc
 10232 26f4 02270000 		.4byte	0x2702
 10233 26f8 32       		.uleb128 0x32
 10234 26f9 01       		.uleb128 0x1
 10235 26fa 50       		.byte	0x50
 10236 26fb 05       		.uleb128 0x5
 10237 26fc 03       		.byte	0x3
 10238 26fd 00000000 		.4byte	.LANCHOR5
 10239 2701 00       		.byte	0
 10240 2702 34       		.uleb128 0x34
 10241 2703 5E000000 		.4byte	.LVL308
 10242 2707 17300000 		.4byte	0x3017
 10243 270b 17270000 		.4byte	0x2717
 10244 270f 32       		.uleb128 0x32
 10245 2710 01       		.uleb128 0x1
 10246 2711 50       		.byte	0x50
 10247 2712 03       		.uleb128 0x3
ARM GAS  /var/folders/d2/nstgp4h54kz7g1l847x_b8wc0000gn/T//ccW13lHv.s 			page 182


 10248 2713 F3       		.byte	0xf3
 10249 2714 01       		.uleb128 0x1
 10250 2715 50       		.byte	0x50
 10251 2716 00       		.byte	0
 10252 2717 2D       		.uleb128 0x2d
 10253 2718 6A000000 		.4byte	.LVL310
 10254 271c 17410000 		.4byte	0x4117
 10255 2720 00       		.byte	0
 10256 2721 27       		.uleb128 0x27
 10257 2722 30030000 		.4byte	.LASF316
 10258 2726 01       		.byte	0x1
 10259 2727 5101     		.2byte	0x151
 10260 2729 00000000 		.4byte	.LFB275
 10261 272d 34000000 		.4byte	.LFE275-.LFB275
 10262 2731 01       		.uleb128 0x1
 10263 2732 9C       		.byte	0x9c
 10264 2733 B4270000 		.4byte	0x27b4
 10265 2737 28       		.uleb128 0x28
 10266 2738 7000     		.ascii	"p\000"
 10267 273a 01       		.byte	0x1
 10268 273b 5101     		.2byte	0x151
 10269 273d 020A0000 		.4byte	0xa02
 10270 2741 8C0C0000 		.4byte	.LLST106
 10271 2745 28       		.uleb128 0x28
 10272 2746 6E7300   		.ascii	"ns\000"
 10273 2749 01       		.byte	0x1
 10274 274a 5201     		.2byte	0x152
 10275 274c FC090000 		.4byte	0x9fc
 10276 2750 CE0C0000 		.4byte	.LLST107
 10277 2754 28       		.uleb128 0x28
 10278 2755 696400   		.ascii	"id\000"
 10279 2758 01       		.byte	0x1
 10280 2759 5301     		.2byte	0x153
 10281 275b D9050000 		.4byte	0x5d9
 10282 275f EF0C0000 		.4byte	.LLST108
 10283 2763 36       		.uleb128 0x36
 10284 2764 F40B0000 		.4byte	.LASF317
 10285 2768 01       		.byte	0x1
 10286 2769 5401     		.2byte	0x154
 10287 276b E70A0000 		.4byte	0xae7
 10288 276f 100D0000 		.4byte	.LLST109
 10289 2773 33       		.uleb128 0x33
 10290 2774 16000000 		.4byte	.LVL293
 10291 2778 60330000 		.4byte	0x3360
 10292 277c 95270000 		.4byte	0x2795
 10293 2780 32       		.uleb128 0x32
 10294 2781 01       		.uleb128 0x1
 10295 2782 50       		.byte	0x50
 10296 2783 02       		.uleb128 0x2
 10297 2784 74       		.byte	0x74
 10298 2785 00       		.sleb128 0
 10299 2786 32       		.uleb128 0x32
 10300 2787 01       		.uleb128 0x1
 10301 2788 51       		.byte	0x51
 10302 2789 03       		.uleb128 0x3
 10303 278a F3       		.byte	0xf3
 10304 278b 01       		.uleb128 0x1
ARM GAS  /var/folders/d2/nstgp4h54kz7g1l847x_b8wc0000gn/T//ccW13lHv.s 			page 183


 10305 278c 51       		.byte	0x51
 10306 278d 32       		.uleb128 0x32
 10307 278e 01       		.uleb128 0x1
 10308 278f 52       		.byte	0x52
 10309 2790 03       		.uleb128 0x3
 10310 2791 F3       		.byte	0xf3
 10311 2792 01       		.uleb128 0x1
 10312 2793 52       		.byte	0x52
 10313 2794 00       		.byte	0
 10314 2795 34       		.uleb128 0x34
 10315 2796 2A000000 		.4byte	.LVL295
 10316 279a 17300000 		.4byte	0x3017
 10317 279e AA270000 		.4byte	0x27aa
 10318 27a2 32       		.uleb128 0x32
 10319 27a3 01       		.uleb128 0x1
 10320 27a4 50       		.byte	0x50
 10321 27a5 03       		.uleb128 0x3
 10322 27a6 F3       		.byte	0xf3
 10323 27a7 01       		.uleb128 0x1
 10324 27a8 50       		.byte	0x50
 10325 27a9 00       		.byte	0
 10326 27aa 2D       		.uleb128 0x2d
 10327 27ab 2E000000 		.4byte	.LVL296
 10328 27af 17410000 		.4byte	0x4117
 10329 27b3 00       		.byte	0
 10330 27b4 27       		.uleb128 0x27
 10331 27b5 0A090000 		.4byte	.LASF318
 10332 27b9 01       		.byte	0x1
 10333 27ba 4B01     		.2byte	0x14b
 10334 27bc 00000000 		.4byte	.LFB274
 10335 27c0 28000000 		.4byte	.LFE274-.LFB274
 10336 27c4 01       		.uleb128 0x1
 10337 27c5 9C       		.byte	0x9c
 10338 27c6 23280000 		.4byte	0x2823
 10339 27ca 28       		.uleb128 0x28
 10340 27cb 7000     		.ascii	"p\000"
 10341 27cd 01       		.byte	0x1
 10342 27ce 4B01     		.2byte	0x14b
 10343 27d0 020A0000 		.4byte	0xa02
 10344 27d4 3D0D0000 		.4byte	.LLST103
 10345 27d8 28       		.uleb128 0x28
 10346 27d9 6E7300   		.ascii	"ns\000"
 10347 27dc 01       		.byte	0x1
 10348 27dd 4B01     		.2byte	0x14b
 10349 27df FC090000 		.4byte	0x9fc
 10350 27e3 770D0000 		.4byte	.LLST104
 10351 27e7 28       		.uleb128 0x28
 10352 27e8 696400   		.ascii	"id\000"
 10353 27eb 01       		.byte	0x1
 10354 27ec 4B01     		.2byte	0x14b
 10355 27ee D9050000 		.4byte	0x5d9
 10356 27f2 B10D0000 		.4byte	.LLST105
 10357 27f6 34       		.uleb128 0x34
 10358 27f7 20000000 		.4byte	.LVL289
 10359 27fb 60330000 		.4byte	0x3360
 10360 27ff 19280000 		.4byte	0x2819
 10361 2803 32       		.uleb128 0x32
ARM GAS  /var/folders/d2/nstgp4h54kz7g1l847x_b8wc0000gn/T//ccW13lHv.s 			page 184


 10362 2804 01       		.uleb128 0x1
 10363 2805 50       		.byte	0x50
 10364 2806 03       		.uleb128 0x3
 10365 2807 F3       		.byte	0xf3
 10366 2808 01       		.uleb128 0x1
 10367 2809 50       		.byte	0x50
 10368 280a 32       		.uleb128 0x32
 10369 280b 01       		.uleb128 0x1
 10370 280c 51       		.byte	0x51
 10371 280d 03       		.uleb128 0x3
 10372 280e F3       		.byte	0xf3
 10373 280f 01       		.uleb128 0x1
 10374 2810 51       		.byte	0x51
 10375 2811 32       		.uleb128 0x32
 10376 2812 01       		.uleb128 0x1
 10377 2813 52       		.byte	0x52
 10378 2814 03       		.uleb128 0x3
 10379 2815 F3       		.byte	0xf3
 10380 2816 01       		.uleb128 0x1
 10381 2817 52       		.byte	0x52
 10382 2818 00       		.byte	0
 10383 2819 2D       		.uleb128 0x2d
 10384 281a 24000000 		.4byte	.LVL290
 10385 281e 17410000 		.4byte	0x4117
 10386 2822 00       		.byte	0
 10387 2823 27       		.uleb128 0x27
 10388 2824 8B110000 		.4byte	.LASF319
 10389 2828 01       		.byte	0x1
 10390 2829 4001     		.2byte	0x140
 10391 282b 00000000 		.4byte	.LFB273
 10392 282f 7C000000 		.4byte	.LFE273-.LFB273
 10393 2833 01       		.uleb128 0x1
 10394 2834 9C       		.byte	0x9c
 10395 2835 66290000 		.4byte	0x2966
 10396 2839 28       		.uleb128 0x28
 10397 283a 7000     		.ascii	"p\000"
 10398 283c 01       		.byte	0x1
 10399 283d 4001     		.2byte	0x140
 10400 283f 020A0000 		.4byte	0xa02
 10401 2843 EB0D0000 		.4byte	.LLST99
 10402 2847 36       		.uleb128 0x36
 10403 2848 BF060000 		.4byte	.LASF146
 10404 284c 01       		.byte	0x1
 10405 284d 4001     		.2byte	0x140
 10406 284f F8080000 		.4byte	0x8f8
 10407 2853 2D0E0000 		.4byte	.LLST100
 10408 2857 29       		.uleb128 0x29
 10409 2858 51020000 		.4byte	.LASF292
 10410 285c 91170000 		.4byte	0x1791
 10411 2860 05       		.uleb128 0x5
 10412 2861 03       		.byte	0x3
 10413 2862 00000000 		.4byte	__func__.9099
 10414 2866 2A       		.uleb128 0x2a
 10415 2867 4D3A0000 		.4byte	0x3a4d
 10416 286b 1A000000 		.4byte	.LBB550
 10417 286f 0E000000 		.4byte	.LBE550-.LBB550
 10418 2873 01       		.byte	0x1
ARM GAS  /var/folders/d2/nstgp4h54kz7g1l847x_b8wc0000gn/T//ccW13lHv.s 			page 185


 10419 2874 4301     		.2byte	0x143
 10420 2876 BC280000 		.4byte	0x28bc
 10421 287a 2A       		.uleb128 0x2a
 10422 287b 5F3A0000 		.4byte	0x3a5f
 10423 287f 1A000000 		.4byte	.LBB552
 10424 2883 06000000 		.4byte	.LBE552-.LBB552
 10425 2887 03       		.byte	0x3
 10426 2888 5C01     		.2byte	0x15c
 10427 288a A9280000 		.4byte	0x28a9
 10428 288e 2B       		.uleb128 0x2b
 10429 288f 683A0000 		.4byte	0x3a68
 10430 2893 1A000000 		.4byte	.LBB553
 10431 2897 06000000 		.4byte	.LBE553-.LBB553
 10432 289b 12       		.byte	0x12
 10433 289c BF01     		.2byte	0x1bf
 10434 289e 2C       		.uleb128 0x2c
 10435 289f 753A0000 		.4byte	0x3a75
 10436 28a3 640E0000 		.4byte	.LLST101
 10437 28a7 00       		.byte	0
 10438 28a8 00       		.byte	0
 10439 28a9 2D       		.uleb128 0x2d
 10440 28aa 24000000 		.4byte	.LVL278
 10441 28ae D0400000 		.4byte	0x40d0
 10442 28b2 2D       		.uleb128 0x2d
 10443 28b3 28000000 		.4byte	.LVL279
 10444 28b7 DB400000 		.4byte	0x40db
 10445 28bb 00       		.byte	0
 10446 28bc 2E       		.uleb128 0x2e
 10447 28bd 1D3A0000 		.4byte	0x3a1d
 10448 28c1 2A000000 		.4byte	.LBB555
 10449 28c5 28020000 		.4byte	.Ldebug_ranges0+0x228
 10450 28c9 01       		.byte	0x1
 10451 28ca 4501     		.2byte	0x145
 10452 28cc 30290000 		.4byte	0x2930
 10453 28d0 2F       		.uleb128 0x2f
 10454 28d1 28020000 		.4byte	.Ldebug_ranges0+0x228
 10455 28d5 30       		.uleb128 0x30
 10456 28d6 2A3A0000 		.4byte	0x3a2a
 10457 28da 2A       		.uleb128 0x2a
 10458 28db 563A0000 		.4byte	0x3a56
 10459 28df 44000000 		.4byte	.LBB557
 10460 28e3 06000000 		.4byte	.LBE557-.LBB557
 10461 28e7 03       		.byte	0x3
 10462 28e8 7301     		.2byte	0x173
 10463 28ea 09290000 		.4byte	0x2909
 10464 28ee 2B       		.uleb128 0x2b
 10465 28ef 683A0000 		.4byte	0x3a68
 10466 28f3 44000000 		.4byte	.LBB558
 10467 28f7 06000000 		.4byte	.LBE558-.LBB558
 10468 28fb 12       		.byte	0x12
 10469 28fc CD01     		.2byte	0x1cd
 10470 28fe 2C       		.uleb128 0x2c
 10471 28ff 753A0000 		.4byte	0x3a75
 10472 2903 790E0000 		.4byte	.LLST102
 10473 2907 00       		.byte	0
 10474 2908 00       		.byte	0
 10475 2909 2D       		.uleb128 0x2d
ARM GAS  /var/folders/d2/nstgp4h54kz7g1l847x_b8wc0000gn/T//ccW13lHv.s 			page 186


 10476 290a 2E000000 		.4byte	.LVL280
 10477 290e E6400000 		.4byte	0x40e6
 10478 2912 2D       		.uleb128 0x2d
 10479 2913 32000000 		.4byte	.LVL281
 10480 2917 F1400000 		.4byte	0x40f1
 10481 291b 31       		.uleb128 0x31
 10482 291c 64000000 		.4byte	.LVL286
 10483 2920 FC400000 		.4byte	0x40fc
 10484 2924 32       		.uleb128 0x32
 10485 2925 01       		.uleb128 0x1
 10486 2926 50       		.byte	0x50
 10487 2927 05       		.uleb128 0x5
 10488 2928 03       		.byte	0x3
 10489 2929 00000000 		.4byte	.LANCHOR0
 10490 292d 00       		.byte	0
 10491 292e 00       		.byte	0
 10492 292f 00       		.byte	0
 10493 2930 33       		.uleb128 0x33
 10494 2931 1A000000 		.4byte	.LVL276
 10495 2935 FC400000 		.4byte	0x40fc
 10496 2939 47290000 		.4byte	0x2947
 10497 293d 32       		.uleb128 0x32
 10498 293e 01       		.uleb128 0x1
 10499 293f 50       		.byte	0x50
 10500 2940 05       		.uleb128 0x5
 10501 2941 03       		.byte	0x3
 10502 2942 00000000 		.4byte	.LANCHOR4
 10503 2946 00       		.byte	0
 10504 2947 34       		.uleb128 0x34
 10505 2948 5E000000 		.4byte	.LVL285
 10506 294c 17300000 		.4byte	0x3017
 10507 2950 5C290000 		.4byte	0x295c
 10508 2954 32       		.uleb128 0x32
 10509 2955 01       		.uleb128 0x1
 10510 2956 50       		.byte	0x50
 10511 2957 03       		.uleb128 0x3
 10512 2958 F3       		.byte	0xf3
 10513 2959 01       		.uleb128 0x1
 10514 295a 50       		.byte	0x50
 10515 295b 00       		.byte	0
 10516 295c 2D       		.uleb128 0x2d
 10517 295d 6A000000 		.4byte	.LVL287
 10518 2961 17410000 		.4byte	0x4117
 10519 2965 00       		.byte	0
 10520 2966 35       		.uleb128 0x35
 10521 2967 490C0000 		.4byte	.LASF320
 10522 296b 01       		.byte	0x1
 10523 296c 3601     		.2byte	0x136
 10524 296e F8080000 		.4byte	0x8f8
 10525 2972 00000000 		.4byte	.LFB272
 10526 2976 7C000000 		.4byte	.LFE272-.LFB272
 10527 297a 01       		.uleb128 0x1
 10528 297b 9C       		.byte	0x9c
 10529 297c AF2A0000 		.4byte	0x2aaf
 10530 2980 28       		.uleb128 0x28
 10531 2981 7000     		.ascii	"p\000"
 10532 2983 01       		.byte	0x1
ARM GAS  /var/folders/d2/nstgp4h54kz7g1l847x_b8wc0000gn/T//ccW13lHv.s 			page 187


 10533 2984 3601     		.2byte	0x136
 10534 2986 020A0000 		.4byte	0xa02
 10535 298a 8D0E0000 		.4byte	.LLST94
 10536 298e 29       		.uleb128 0x29
 10537 298f 51020000 		.4byte	.LASF292
 10538 2993 7E250000 		.4byte	0x257e
 10539 2997 05       		.uleb128 0x5
 10540 2998 03       		.byte	0x3
 10541 2999 00000000 		.4byte	__func__.9093
 10542 299d 37       		.uleb128 0x37
 10543 299e 72657400 		.ascii	"ret\000"
 10544 29a2 01       		.byte	0x1
 10545 29a3 3B01     		.2byte	0x13b
 10546 29a5 F8080000 		.4byte	0x8f8
 10547 29a9 B90E0000 		.4byte	.LLST95
 10548 29ad 2A       		.uleb128 0x2a
 10549 29ae 4D3A0000 		.4byte	0x3a4d
 10550 29b2 18000000 		.4byte	.LBB528
 10551 29b6 0E000000 		.4byte	.LBE528-.LBB528
 10552 29ba 01       		.byte	0x1
 10553 29bb 3901     		.2byte	0x139
 10554 29bd 032A0000 		.4byte	0x2a03
 10555 29c1 2A       		.uleb128 0x2a
 10556 29c2 5F3A0000 		.4byte	0x3a5f
 10557 29c6 18000000 		.4byte	.LBB530
 10558 29ca 06000000 		.4byte	.LBE530-.LBB530
 10559 29ce 03       		.byte	0x3
 10560 29cf 5C01     		.2byte	0x15c
 10561 29d1 F0290000 		.4byte	0x29f0
 10562 29d5 2B       		.uleb128 0x2b
 10563 29d6 683A0000 		.4byte	0x3a68
 10564 29da 18000000 		.4byte	.LBB531
 10565 29de 06000000 		.4byte	.LBE531-.LBB531
 10566 29e2 12       		.byte	0x12
 10567 29e3 BF01     		.2byte	0x1bf
 10568 29e5 2C       		.uleb128 0x2c
 10569 29e6 753A0000 		.4byte	0x3a75
 10570 29ea F80E0000 		.4byte	.LLST96
 10571 29ee 00       		.byte	0
 10572 29ef 00       		.byte	0
 10573 29f0 2D       		.uleb128 0x2d
 10574 29f1 22000000 		.4byte	.LVL256
 10575 29f5 D0400000 		.4byte	0x40d0
 10576 29f9 2D       		.uleb128 0x2d
 10577 29fa 26000000 		.4byte	.LVL257
 10578 29fe DB400000 		.4byte	0x40db
 10579 2a02 00       		.byte	0
 10580 2a03 2E       		.uleb128 0x2e
 10581 2a04 1D3A0000 		.4byte	0x3a1d
 10582 2a08 32000000 		.4byte	.LBB533
 10583 2a0c 10020000 		.4byte	.Ldebug_ranges0+0x210
 10584 2a10 01       		.byte	0x1
 10585 2a11 3C01     		.2byte	0x13c
 10586 2a13 772A0000 		.4byte	0x2a77
 10587 2a17 2F       		.uleb128 0x2f
 10588 2a18 10020000 		.4byte	.Ldebug_ranges0+0x210
 10589 2a1c 30       		.uleb128 0x30
ARM GAS  /var/folders/d2/nstgp4h54kz7g1l847x_b8wc0000gn/T//ccW13lHv.s 			page 188


 10590 2a1d 2A3A0000 		.4byte	0x3a2a
 10591 2a21 2A       		.uleb128 0x2a
 10592 2a22 563A0000 		.4byte	0x3a56
 10593 2a26 4C000000 		.4byte	.LBB535
 10594 2a2a 06000000 		.4byte	.LBE535-.LBB535
 10595 2a2e 03       		.byte	0x3
 10596 2a2f 7301     		.2byte	0x173
 10597 2a31 502A0000 		.4byte	0x2a50
 10598 2a35 2B       		.uleb128 0x2b
 10599 2a36 683A0000 		.4byte	0x3a68
 10600 2a3a 4C000000 		.4byte	.LBB536
 10601 2a3e 06000000 		.4byte	.LBE536-.LBB536
 10602 2a42 12       		.byte	0x12
 10603 2a43 CD01     		.2byte	0x1cd
 10604 2a45 2C       		.uleb128 0x2c
 10605 2a46 753A0000 		.4byte	0x3a75
 10606 2a4a 0D0F0000 		.4byte	.LLST97
 10607 2a4e 00       		.byte	0
 10608 2a4f 00       		.byte	0
 10609 2a50 2D       		.uleb128 0x2d
 10610 2a51 36000000 		.4byte	.LVL260
 10611 2a55 E6400000 		.4byte	0x40e6
 10612 2a59 2D       		.uleb128 0x2d
 10613 2a5a 3A000000 		.4byte	.LVL261
 10614 2a5e F1400000 		.4byte	0x40f1
 10615 2a62 31       		.uleb128 0x31
 10616 2a63 66000000 		.4byte	.LVL266
 10617 2a67 FC400000 		.4byte	0x40fc
 10618 2a6b 32       		.uleb128 0x32
 10619 2a6c 01       		.uleb128 0x1
 10620 2a6d 50       		.byte	0x50
 10621 2a6e 05       		.uleb128 0x5
 10622 2a6f 03       		.byte	0x3
 10623 2a70 00000000 		.4byte	.LANCHOR0
 10624 2a74 00       		.byte	0
 10625 2a75 00       		.byte	0
 10626 2a76 00       		.byte	0
 10627 2a77 33       		.uleb128 0x33
 10628 2a78 18000000 		.4byte	.LVL254
 10629 2a7c FC400000 		.4byte	0x40fc
 10630 2a80 8E2A0000 		.4byte	0x2a8e
 10631 2a84 32       		.uleb128 0x32
 10632 2a85 01       		.uleb128 0x1
 10633 2a86 50       		.byte	0x50
 10634 2a87 05       		.uleb128 0x5
 10635 2a88 03       		.byte	0x3
 10636 2a89 00000000 		.4byte	.LANCHOR3
 10637 2a8d 00       		.byte	0
 10638 2a8e 33       		.uleb128 0x33
 10639 2a8f 30000000 		.4byte	.LVL258
 10640 2a93 FC400000 		.4byte	0x40fc
 10641 2a97 A52A0000 		.4byte	0x2aa5
 10642 2a9b 32       		.uleb128 0x32
 10643 2a9c 01       		.uleb128 0x1
 10644 2a9d 50       		.byte	0x50
 10645 2a9e 05       		.uleb128 0x5
 10646 2a9f 03       		.byte	0x3
ARM GAS  /var/folders/d2/nstgp4h54kz7g1l847x_b8wc0000gn/T//ccW13lHv.s 			page 189


 10647 2aa0 00000000 		.4byte	.LANCHOR3
 10648 2aa4 00       		.byte	0
 10649 2aa5 2D       		.uleb128 0x2d
 10650 2aa6 6C000000 		.4byte	.LVL268
 10651 2aaa 17410000 		.4byte	0x4117
 10652 2aae 00       		.byte	0
 10653 2aaf 35       		.uleb128 0x35
 10654 2ab0 2D110000 		.4byte	.LASF321
 10655 2ab4 01       		.byte	0x1
 10656 2ab5 3001     		.2byte	0x130
 10657 2ab7 F8080000 		.4byte	0x8f8
 10658 2abb 00000000 		.4byte	.LFB271
 10659 2abf 2C000000 		.4byte	.LFE271-.LFB271
 10660 2ac3 01       		.uleb128 0x1
 10661 2ac4 9C       		.byte	0x9c
 10662 2ac5 0A2B0000 		.4byte	0x2b0a
 10663 2ac9 28       		.uleb128 0x28
 10664 2aca 7000     		.ascii	"p\000"
 10665 2acc 01       		.byte	0x1
 10666 2acd 3001     		.2byte	0x130
 10667 2acf 020A0000 		.4byte	0xa02
 10668 2ad3 210F0000 		.4byte	.LLST98
 10669 2ad7 33       		.uleb128 0x33
 10670 2ad8 10000000 		.4byte	.LVL270
 10671 2adc EC2F0000 		.4byte	0x2fec
 10672 2ae0 EB2A0000 		.4byte	0x2aeb
 10673 2ae4 32       		.uleb128 0x32
 10674 2ae5 01       		.uleb128 0x1
 10675 2ae6 50       		.byte	0x50
 10676 2ae7 02       		.uleb128 0x2
 10677 2ae8 75       		.byte	0x75
 10678 2ae9 00       		.sleb128 0
 10679 2aea 00       		.byte	0
 10680 2aeb 34       		.uleb128 0x34
 10681 2aec 24000000 		.4byte	.LVL272
 10682 2af0 66290000 		.4byte	0x2966
 10683 2af4 002B0000 		.4byte	0x2b00
 10684 2af8 32       		.uleb128 0x32
 10685 2af9 01       		.uleb128 0x1
 10686 2afa 50       		.byte	0x50
 10687 2afb 03       		.uleb128 0x3
 10688 2afc F3       		.byte	0xf3
 10689 2afd 01       		.uleb128 0x1
 10690 2afe 50       		.byte	0x50
 10691 2aff 00       		.byte	0
 10692 2b00 2D       		.uleb128 0x2d
 10693 2b01 28000000 		.4byte	.LVL273
 10694 2b05 17410000 		.4byte	0x4117
 10695 2b09 00       		.byte	0
 10696 2b0a 27       		.uleb128 0x27
 10697 2b0b AB110000 		.4byte	.LASF322
 10698 2b0f 01       		.byte	0x1
 10699 2b10 2501     		.2byte	0x125
 10700 2b12 00000000 		.4byte	.LFB270
 10701 2b16 34000000 		.4byte	.LFE270-.LFB270
 10702 2b1a 01       		.uleb128 0x1
 10703 2b1b 9C       		.byte	0x9c
ARM GAS  /var/folders/d2/nstgp4h54kz7g1l847x_b8wc0000gn/T//ccW13lHv.s 			page 190


 10704 2b1c 9D2B0000 		.4byte	0x2b9d
 10705 2b20 28       		.uleb128 0x28
 10706 2b21 7000     		.ascii	"p\000"
 10707 2b23 01       		.byte	0x1
 10708 2b24 2501     		.2byte	0x125
 10709 2b26 020A0000 		.4byte	0xa02
 10710 2b2a 630F0000 		.4byte	.LLST90
 10711 2b2e 28       		.uleb128 0x28
 10712 2b2f 6E7300   		.ascii	"ns\000"
 10713 2b32 01       		.byte	0x1
 10714 2b33 2601     		.2byte	0x126
 10715 2b35 FC090000 		.4byte	0x9fc
 10716 2b39 A50F0000 		.4byte	.LLST91
 10717 2b3d 28       		.uleb128 0x28
 10718 2b3e 696400   		.ascii	"id\000"
 10719 2b41 01       		.byte	0x1
 10720 2b42 2701     		.2byte	0x127
 10721 2b44 D9050000 		.4byte	0x5d9
 10722 2b48 C60F0000 		.4byte	.LLST92
 10723 2b4c 36       		.uleb128 0x36
 10724 2b4d F40B0000 		.4byte	.LASF317
 10725 2b51 01       		.byte	0x1
 10726 2b52 2801     		.2byte	0x128
 10727 2b54 F8080000 		.4byte	0x8f8
 10728 2b58 E70F0000 		.4byte	.LLST93
 10729 2b5c 33       		.uleb128 0x33
 10730 2b5d 16000000 		.4byte	.LVL248
 10731 2b61 60330000 		.4byte	0x3360
 10732 2b65 7E2B0000 		.4byte	0x2b7e
 10733 2b69 32       		.uleb128 0x32
 10734 2b6a 01       		.uleb128 0x1
 10735 2b6b 50       		.byte	0x50
 10736 2b6c 02       		.uleb128 0x2
 10737 2b6d 74       		.byte	0x74
 10738 2b6e 00       		.sleb128 0
 10739 2b6f 32       		.uleb128 0x32
 10740 2b70 01       		.uleb128 0x1
 10741 2b71 51       		.byte	0x51
 10742 2b72 03       		.uleb128 0x3
 10743 2b73 F3       		.byte	0xf3
 10744 2b74 01       		.uleb128 0x1
 10745 2b75 51       		.byte	0x51
 10746 2b76 32       		.uleb128 0x32
 10747 2b77 01       		.uleb128 0x1
 10748 2b78 52       		.byte	0x52
 10749 2b79 03       		.uleb128 0x3
 10750 2b7a F3       		.byte	0xf3
 10751 2b7b 01       		.uleb128 0x1
 10752 2b7c 52       		.byte	0x52
 10753 2b7d 00       		.byte	0
 10754 2b7e 34       		.uleb128 0x34
 10755 2b7f 2A000000 		.4byte	.LVL250
 10756 2b83 17300000 		.4byte	0x3017
 10757 2b87 932B0000 		.4byte	0x2b93
 10758 2b8b 32       		.uleb128 0x32
 10759 2b8c 01       		.uleb128 0x1
 10760 2b8d 50       		.byte	0x50
ARM GAS  /var/folders/d2/nstgp4h54kz7g1l847x_b8wc0000gn/T//ccW13lHv.s 			page 191


 10761 2b8e 03       		.uleb128 0x3
 10762 2b8f F3       		.byte	0xf3
 10763 2b90 01       		.uleb128 0x1
 10764 2b91 50       		.byte	0x50
 10765 2b92 00       		.byte	0
 10766 2b93 2D       		.uleb128 0x2d
 10767 2b94 2E000000 		.4byte	.LVL251
 10768 2b98 17410000 		.4byte	0x4117
 10769 2b9c 00       		.byte	0
 10770 2b9d 27       		.uleb128 0x27
 10771 2b9e 71110000 		.4byte	.LASF323
 10772 2ba2 01       		.byte	0x1
 10773 2ba3 1E01     		.2byte	0x11e
 10774 2ba5 00000000 		.4byte	.LFB269
 10775 2ba9 28000000 		.4byte	.LFE269-.LFB269
 10776 2bad 01       		.uleb128 0x1
 10777 2bae 9C       		.byte	0x9c
 10778 2baf 0C2C0000 		.4byte	0x2c0c
 10779 2bb3 28       		.uleb128 0x28
 10780 2bb4 7000     		.ascii	"p\000"
 10781 2bb6 01       		.byte	0x1
 10782 2bb7 1E01     		.2byte	0x11e
 10783 2bb9 020A0000 		.4byte	0xa02
 10784 2bbd 14100000 		.4byte	.LLST87
 10785 2bc1 28       		.uleb128 0x28
 10786 2bc2 6E7300   		.ascii	"ns\000"
 10787 2bc5 01       		.byte	0x1
 10788 2bc6 1E01     		.2byte	0x11e
 10789 2bc8 FC090000 		.4byte	0x9fc
 10790 2bcc 4E100000 		.4byte	.LLST88
 10791 2bd0 28       		.uleb128 0x28
 10792 2bd1 696400   		.ascii	"id\000"
 10793 2bd4 01       		.byte	0x1
 10794 2bd5 1F01     		.2byte	0x11f
 10795 2bd7 D9050000 		.4byte	0x5d9
 10796 2bdb 88100000 		.4byte	.LLST89
 10797 2bdf 34       		.uleb128 0x34
 10798 2be0 20000000 		.4byte	.LVL244
 10799 2be4 60330000 		.4byte	0x3360
 10800 2be8 022C0000 		.4byte	0x2c02
 10801 2bec 32       		.uleb128 0x32
 10802 2bed 01       		.uleb128 0x1
 10803 2bee 50       		.byte	0x50
 10804 2bef 03       		.uleb128 0x3
 10805 2bf0 F3       		.byte	0xf3
 10806 2bf1 01       		.uleb128 0x1
 10807 2bf2 50       		.byte	0x50
 10808 2bf3 32       		.uleb128 0x32
 10809 2bf4 01       		.uleb128 0x1
 10810 2bf5 51       		.byte	0x51
 10811 2bf6 03       		.uleb128 0x3
 10812 2bf7 F3       		.byte	0xf3
 10813 2bf8 01       		.uleb128 0x1
 10814 2bf9 51       		.byte	0x51
 10815 2bfa 32       		.uleb128 0x32
 10816 2bfb 01       		.uleb128 0x1
 10817 2bfc 52       		.byte	0x52
ARM GAS  /var/folders/d2/nstgp4h54kz7g1l847x_b8wc0000gn/T//ccW13lHv.s 			page 192


 10818 2bfd 03       		.uleb128 0x3
 10819 2bfe F3       		.byte	0xf3
 10820 2bff 01       		.uleb128 0x1
 10821 2c00 52       		.byte	0x52
 10822 2c01 00       		.byte	0
 10823 2c02 2D       		.uleb128 0x2d
 10824 2c03 24000000 		.4byte	.LVL245
 10825 2c07 17410000 		.4byte	0x4117
 10826 2c0b 00       		.byte	0
 10827 2c0c 27       		.uleb128 0x27
 10828 2c0d 4B0D0000 		.4byte	.LASF324
 10829 2c11 01       		.byte	0x1
 10830 2c12 1001     		.2byte	0x110
 10831 2c14 00000000 		.4byte	.LFB268
 10832 2c18 88000000 		.4byte	.LFE268-.LFB268
 10833 2c1c 01       		.uleb128 0x1
 10834 2c1d 9C       		.byte	0x9c
 10835 2c1e 4F2D0000 		.4byte	0x2d4f
 10836 2c22 28       		.uleb128 0x28
 10837 2c23 7000     		.ascii	"p\000"
 10838 2c25 01       		.byte	0x1
 10839 2c26 1001     		.2byte	0x110
 10840 2c28 020A0000 		.4byte	0xa02
 10841 2c2c C2100000 		.4byte	.LLST83
 10842 2c30 36       		.uleb128 0x36
 10843 2c31 BF060000 		.4byte	.LASF146
 10844 2c35 01       		.byte	0x1
 10845 2c36 1001     		.2byte	0x110
 10846 2c38 25000000 		.4byte	0x25
 10847 2c3c 04110000 		.4byte	.LLST84
 10848 2c40 29       		.uleb128 0x29
 10849 2c41 51020000 		.4byte	.LASF292
 10850 2c45 E2200000 		.4byte	0x20e2
 10851 2c49 05       		.uleb128 0x5
 10852 2c4a 03       		.byte	0x3
 10853 2c4b 00000000 		.4byte	__func__.9075
 10854 2c4f 2A       		.uleb128 0x2a
 10855 2c50 4D3A0000 		.4byte	0x3a4d
 10856 2c54 20000000 		.4byte	.LBB506
 10857 2c58 0E000000 		.4byte	.LBE506-.LBB506
 10858 2c5c 01       		.byte	0x1
 10859 2c5d 1301     		.2byte	0x113
 10860 2c5f A52C0000 		.4byte	0x2ca5
 10861 2c63 2A       		.uleb128 0x2a
 10862 2c64 5F3A0000 		.4byte	0x3a5f
 10863 2c68 20000000 		.4byte	.LBB508
 10864 2c6c 06000000 		.4byte	.LBE508-.LBB508
 10865 2c70 03       		.byte	0x3
 10866 2c71 5C01     		.2byte	0x15c
 10867 2c73 922C0000 		.4byte	0x2c92
 10868 2c77 2B       		.uleb128 0x2b
 10869 2c78 683A0000 		.4byte	0x3a68
 10870 2c7c 20000000 		.4byte	.LBB509
 10871 2c80 06000000 		.4byte	.LBE509-.LBB509
 10872 2c84 12       		.byte	0x12
 10873 2c85 BF01     		.2byte	0x1bf
 10874 2c87 2C       		.uleb128 0x2c
ARM GAS  /var/folders/d2/nstgp4h54kz7g1l847x_b8wc0000gn/T//ccW13lHv.s 			page 193


 10875 2c88 753A0000 		.4byte	0x3a75
 10876 2c8c 40110000 		.4byte	.LLST85
 10877 2c90 00       		.byte	0
 10878 2c91 00       		.byte	0
 10879 2c92 2D       		.uleb128 0x2d
 10880 2c93 2A000000 		.4byte	.LVL232
 10881 2c97 D0400000 		.4byte	0x40d0
 10882 2c9b 2D       		.uleb128 0x2d
 10883 2c9c 2E000000 		.4byte	.LVL233
 10884 2ca0 DB400000 		.4byte	0x40db
 10885 2ca4 00       		.byte	0
 10886 2ca5 2E       		.uleb128 0x2e
 10887 2ca6 1D3A0000 		.4byte	0x3a1d
 10888 2caa 32000000 		.4byte	.LBB511
 10889 2cae F8010000 		.4byte	.Ldebug_ranges0+0x1f8
 10890 2cb2 01       		.byte	0x1
 10891 2cb3 1501     		.2byte	0x115
 10892 2cb5 192D0000 		.4byte	0x2d19
 10893 2cb9 2F       		.uleb128 0x2f
 10894 2cba F8010000 		.4byte	.Ldebug_ranges0+0x1f8
 10895 2cbe 30       		.uleb128 0x30
 10896 2cbf 2A3A0000 		.4byte	0x3a2a
 10897 2cc3 2A       		.uleb128 0x2a
 10898 2cc4 563A0000 		.4byte	0x3a56
 10899 2cc8 4C000000 		.4byte	.LBB513
 10900 2ccc 06000000 		.4byte	.LBE513-.LBB513
 10901 2cd0 03       		.byte	0x3
 10902 2cd1 7301     		.2byte	0x173
 10903 2cd3 F22C0000 		.4byte	0x2cf2
 10904 2cd7 2B       		.uleb128 0x2b
 10905 2cd8 683A0000 		.4byte	0x3a68
 10906 2cdc 4C000000 		.4byte	.LBB514
 10907 2ce0 06000000 		.4byte	.LBE514-.LBB514
 10908 2ce4 12       		.byte	0x12
 10909 2ce5 CD01     		.2byte	0x1cd
 10910 2ce7 2C       		.uleb128 0x2c
 10911 2ce8 753A0000 		.4byte	0x3a75
 10912 2cec 55110000 		.4byte	.LLST86
 10913 2cf0 00       		.byte	0
 10914 2cf1 00       		.byte	0
 10915 2cf2 2D       		.uleb128 0x2d
 10916 2cf3 36000000 		.4byte	.LVL234
 10917 2cf7 E6400000 		.4byte	0x40e6
 10918 2cfb 2D       		.uleb128 0x2d
 10919 2cfc 3A000000 		.4byte	.LVL235
 10920 2d00 F1400000 		.4byte	0x40f1
 10921 2d04 31       		.uleb128 0x31
 10922 2d05 70000000 		.4byte	.LVL241
 10923 2d09 FC400000 		.4byte	0x40fc
 10924 2d0d 32       		.uleb128 0x32
 10925 2d0e 01       		.uleb128 0x1
 10926 2d0f 50       		.byte	0x50
 10927 2d10 05       		.uleb128 0x5
 10928 2d11 03       		.byte	0x3
 10929 2d12 00000000 		.4byte	.LANCHOR0
 10930 2d16 00       		.byte	0
 10931 2d17 00       		.byte	0
ARM GAS  /var/folders/d2/nstgp4h54kz7g1l847x_b8wc0000gn/T//ccW13lHv.s 			page 194


 10932 2d18 00       		.byte	0
 10933 2d19 33       		.uleb128 0x33
 10934 2d1a 20000000 		.4byte	.LVL230
 10935 2d1e FC400000 		.4byte	0x40fc
 10936 2d22 302D0000 		.4byte	0x2d30
 10937 2d26 32       		.uleb128 0x32
 10938 2d27 01       		.uleb128 0x1
 10939 2d28 50       		.byte	0x50
 10940 2d29 05       		.uleb128 0x5
 10941 2d2a 03       		.byte	0x3
 10942 2d2b 00000000 		.4byte	.LANCHOR2
 10943 2d2f 00       		.byte	0
 10944 2d30 34       		.uleb128 0x34
 10945 2d31 6A000000 		.4byte	.LVL240
 10946 2d35 17300000 		.4byte	0x3017
 10947 2d39 452D0000 		.4byte	0x2d45
 10948 2d3d 32       		.uleb128 0x32
 10949 2d3e 01       		.uleb128 0x1
 10950 2d3f 50       		.byte	0x50
 10951 2d40 03       		.uleb128 0x3
 10952 2d41 F3       		.byte	0xf3
 10953 2d42 01       		.uleb128 0x1
 10954 2d43 50       		.byte	0x50
 10955 2d44 00       		.byte	0
 10956 2d45 2D       		.uleb128 0x2d
 10957 2d46 76000000 		.4byte	.LVL242
 10958 2d4a 17410000 		.4byte	0x4117
 10959 2d4e 00       		.byte	0
 10960 2d4f 35       		.uleb128 0x35
 10961 2d50 360A0000 		.4byte	.LASF325
 10962 2d54 01       		.byte	0x1
 10963 2d55 0601     		.2byte	0x106
 10964 2d57 25000000 		.4byte	0x25
 10965 2d5b 00000000 		.4byte	.LFB267
 10966 2d5f 88000000 		.4byte	.LFE267-.LFB267
 10967 2d63 01       		.uleb128 0x1
 10968 2d64 9C       		.byte	0x9c
 10969 2d65 982E0000 		.4byte	0x2e98
 10970 2d69 28       		.uleb128 0x28
 10971 2d6a 7000     		.ascii	"p\000"
 10972 2d6c 01       		.byte	0x1
 10973 2d6d 0601     		.2byte	0x106
 10974 2d6f 020A0000 		.4byte	0xa02
 10975 2d73 69110000 		.4byte	.LLST78
 10976 2d77 29       		.uleb128 0x29
 10977 2d78 51020000 		.4byte	.LASF292
 10978 2d7c 91170000 		.4byte	0x1791
 10979 2d80 05       		.uleb128 0x5
 10980 2d81 03       		.byte	0x3
 10981 2d82 00000000 		.4byte	__func__.9069
 10982 2d86 37       		.uleb128 0x37
 10983 2d87 72657400 		.ascii	"ret\000"
 10984 2d8b 01       		.byte	0x1
 10985 2d8c 0B01     		.2byte	0x10b
 10986 2d8e 25000000 		.4byte	0x25
 10987 2d92 87110000 		.4byte	.LLST79
 10988 2d96 2A       		.uleb128 0x2a
ARM GAS  /var/folders/d2/nstgp4h54kz7g1l847x_b8wc0000gn/T//ccW13lHv.s 			page 195


 10989 2d97 4D3A0000 		.4byte	0x3a4d
 10990 2d9b 1C000000 		.4byte	.LBB484
 10991 2d9f 0E000000 		.4byte	.LBE484-.LBB484
 10992 2da3 01       		.byte	0x1
 10993 2da4 0901     		.2byte	0x109
 10994 2da6 EC2D0000 		.4byte	0x2dec
 10995 2daa 2A       		.uleb128 0x2a
 10996 2dab 5F3A0000 		.4byte	0x3a5f
 10997 2daf 1C000000 		.4byte	.LBB486
 10998 2db3 06000000 		.4byte	.LBE486-.LBB486
 10999 2db7 03       		.byte	0x3
 11000 2db8 5C01     		.2byte	0x15c
 11001 2dba D92D0000 		.4byte	0x2dd9
 11002 2dbe 2B       		.uleb128 0x2b
 11003 2dbf 683A0000 		.4byte	0x3a68
 11004 2dc3 1C000000 		.4byte	.LBB487
 11005 2dc7 06000000 		.4byte	.LBE487-.LBB487
 11006 2dcb 12       		.byte	0x12
 11007 2dcc BF01     		.2byte	0x1bf
 11008 2dce 2C       		.uleb128 0x2c
 11009 2dcf 753A0000 		.4byte	0x3a75
 11010 2dd3 CB110000 		.4byte	.LLST80
 11011 2dd7 00       		.byte	0
 11012 2dd8 00       		.byte	0
 11013 2dd9 2D       		.uleb128 0x2d
 11014 2dda 26000000 		.4byte	.LVL210
 11015 2dde D0400000 		.4byte	0x40d0
 11016 2de2 2D       		.uleb128 0x2d
 11017 2de3 2A000000 		.4byte	.LVL211
 11018 2de7 DB400000 		.4byte	0x40db
 11019 2deb 00       		.byte	0
 11020 2dec 2E       		.uleb128 0x2e
 11021 2ded 1D3A0000 		.4byte	0x3a1d
 11022 2df1 38000000 		.4byte	.LBB489
 11023 2df5 E0010000 		.4byte	.Ldebug_ranges0+0x1e0
 11024 2df9 01       		.byte	0x1
 11025 2dfa 0C01     		.2byte	0x10c
 11026 2dfc 602E0000 		.4byte	0x2e60
 11027 2e00 2F       		.uleb128 0x2f
 11028 2e01 E0010000 		.4byte	.Ldebug_ranges0+0x1e0
 11029 2e05 30       		.uleb128 0x30
 11030 2e06 2A3A0000 		.4byte	0x3a2a
 11031 2e0a 2A       		.uleb128 0x2a
 11032 2e0b 563A0000 		.4byte	0x3a56
 11033 2e0f 52000000 		.4byte	.LBB491
 11034 2e13 06000000 		.4byte	.LBE491-.LBB491
 11035 2e17 03       		.byte	0x3
 11036 2e18 7301     		.2byte	0x173
 11037 2e1a 392E0000 		.4byte	0x2e39
 11038 2e1e 2B       		.uleb128 0x2b
 11039 2e1f 683A0000 		.4byte	0x3a68
 11040 2e23 52000000 		.4byte	.LBB492
 11041 2e27 06000000 		.4byte	.LBE492-.LBB492
 11042 2e2b 12       		.byte	0x12
 11043 2e2c CD01     		.2byte	0x1cd
 11044 2e2e 2C       		.uleb128 0x2c
 11045 2e2f 753A0000 		.4byte	0x3a75
ARM GAS  /var/folders/d2/nstgp4h54kz7g1l847x_b8wc0000gn/T//ccW13lHv.s 			page 196


 11046 2e33 E0110000 		.4byte	.LLST81
 11047 2e37 00       		.byte	0
 11048 2e38 00       		.byte	0
 11049 2e39 2D       		.uleb128 0x2d
 11050 2e3a 3C000000 		.4byte	.LVL214
 11051 2e3e E6400000 		.4byte	0x40e6
 11052 2e42 2D       		.uleb128 0x2d
 11053 2e43 40000000 		.4byte	.LVL215
 11054 2e47 F1400000 		.4byte	0x40f1
 11055 2e4b 31       		.uleb128 0x31
 11056 2e4c 72000000 		.4byte	.LVL220
 11057 2e50 FC400000 		.4byte	0x40fc
 11058 2e54 32       		.uleb128 0x32
 11059 2e55 01       		.uleb128 0x1
 11060 2e56 50       		.byte	0x50
 11061 2e57 05       		.uleb128 0x5
 11062 2e58 03       		.byte	0x3
 11063 2e59 00000000 		.4byte	.LANCHOR0
 11064 2e5d 00       		.byte	0
 11065 2e5e 00       		.byte	0
 11066 2e5f 00       		.byte	0
 11067 2e60 33       		.uleb128 0x33
 11068 2e61 1C000000 		.4byte	.LVL208
 11069 2e65 FC400000 		.4byte	0x40fc
 11070 2e69 772E0000 		.4byte	0x2e77
 11071 2e6d 32       		.uleb128 0x32
 11072 2e6e 01       		.uleb128 0x1
 11073 2e6f 50       		.byte	0x50
 11074 2e70 05       		.uleb128 0x5
 11075 2e71 03       		.byte	0x3
 11076 2e72 00000000 		.4byte	.LANCHOR1
 11077 2e76 00       		.byte	0
 11078 2e77 33       		.uleb128 0x33
 11079 2e78 34000000 		.4byte	.LVL212
 11080 2e7c FC400000 		.4byte	0x40fc
 11081 2e80 8E2E0000 		.4byte	0x2e8e
 11082 2e84 32       		.uleb128 0x32
 11083 2e85 01       		.uleb128 0x1
 11084 2e86 50       		.byte	0x50
 11085 2e87 05       		.uleb128 0x5
 11086 2e88 03       		.byte	0x3
 11087 2e89 00000000 		.4byte	.LANCHOR1
 11088 2e8d 00       		.byte	0
 11089 2e8e 2D       		.uleb128 0x2d
 11090 2e8f 78000000 		.4byte	.LVL222
 11091 2e93 17410000 		.4byte	0x4117
 11092 2e97 00       		.byte	0
 11093 2e98 35       		.uleb128 0x35
 11094 2e99 95060000 		.4byte	.LASF326
 11095 2e9d 01       		.byte	0x1
 11096 2e9e 0001     		.2byte	0x100
 11097 2ea0 25000000 		.4byte	0x25
 11098 2ea4 00000000 		.4byte	.LFB266
 11099 2ea8 2C000000 		.4byte	.LFE266-.LFB266
 11100 2eac 01       		.uleb128 0x1
 11101 2ead 9C       		.byte	0x9c
 11102 2eae F32E0000 		.4byte	0x2ef3
ARM GAS  /var/folders/d2/nstgp4h54kz7g1l847x_b8wc0000gn/T//ccW13lHv.s 			page 197


 11103 2eb2 28       		.uleb128 0x28
 11104 2eb3 7000     		.ascii	"p\000"
 11105 2eb5 01       		.byte	0x1
 11106 2eb6 0001     		.2byte	0x100
 11107 2eb8 020A0000 		.4byte	0xa02
 11108 2ebc F4110000 		.4byte	.LLST82
 11109 2ec0 33       		.uleb128 0x33
 11110 2ec1 10000000 		.4byte	.LVL224
 11111 2ec5 EC2F0000 		.4byte	0x2fec
 11112 2ec9 D42E0000 		.4byte	0x2ed4
 11113 2ecd 32       		.uleb128 0x32
 11114 2ece 01       		.uleb128 0x1
 11115 2ecf 50       		.byte	0x50
 11116 2ed0 02       		.uleb128 0x2
 11117 2ed1 75       		.byte	0x75
 11118 2ed2 00       		.sleb128 0
 11119 2ed3 00       		.byte	0
 11120 2ed4 34       		.uleb128 0x34
 11121 2ed5 24000000 		.4byte	.LVL226
 11122 2ed9 4F2D0000 		.4byte	0x2d4f
 11123 2edd E92E0000 		.4byte	0x2ee9
 11124 2ee1 32       		.uleb128 0x32
 11125 2ee2 01       		.uleb128 0x1
 11126 2ee3 50       		.byte	0x50
 11127 2ee4 03       		.uleb128 0x3
 11128 2ee5 F3       		.byte	0xf3
 11129 2ee6 01       		.uleb128 0x1
 11130 2ee7 50       		.byte	0x50
 11131 2ee8 00       		.byte	0
 11132 2ee9 2D       		.uleb128 0x2d
 11133 2eea 28000000 		.4byte	.LVL227
 11134 2eee 17410000 		.4byte	0x4117
 11135 2ef2 00       		.byte	0
 11136 2ef3 3C       		.uleb128 0x3c
 11137 2ef4 71020000 		.4byte	.LASF327
 11138 2ef8 01       		.byte	0x1
 11139 2ef9 F5       		.byte	0xf5
 11140 2efa 00000000 		.4byte	.LFB265
 11141 2efe 34000000 		.4byte	.LFE265-.LFB265
 11142 2f02 01       		.uleb128 0x1
 11143 2f03 9C       		.byte	0x9c
 11144 2f04 812F0000 		.4byte	0x2f81
 11145 2f08 3D       		.uleb128 0x3d
 11146 2f09 7000     		.ascii	"p\000"
 11147 2f0b 01       		.byte	0x1
 11148 2f0c F5       		.byte	0xf5
 11149 2f0d 020A0000 		.4byte	0xa02
 11150 2f11 36120000 		.4byte	.LLST74
 11151 2f15 3D       		.uleb128 0x3d
 11152 2f16 6E7300   		.ascii	"ns\000"
 11153 2f19 01       		.byte	0x1
 11154 2f1a F6       		.byte	0xf6
 11155 2f1b FC090000 		.4byte	0x9fc
 11156 2f1f 78120000 		.4byte	.LLST75
 11157 2f23 3D       		.uleb128 0x3d
 11158 2f24 696400   		.ascii	"id\000"
 11159 2f27 01       		.byte	0x1
ARM GAS  /var/folders/d2/nstgp4h54kz7g1l847x_b8wc0000gn/T//ccW13lHv.s 			page 198


 11160 2f28 F7       		.byte	0xf7
 11161 2f29 D9050000 		.4byte	0x5d9
 11162 2f2d 99120000 		.4byte	.LLST76
 11163 2f31 3E       		.uleb128 0x3e
 11164 2f32 F40B0000 		.4byte	.LASF317
 11165 2f36 01       		.byte	0x1
 11166 2f37 F8       		.byte	0xf8
 11167 2f38 25000000 		.4byte	0x25
 11168 2f3c BA120000 		.4byte	.LLST77
 11169 2f40 33       		.uleb128 0x33
 11170 2f41 18000000 		.4byte	.LVL202
 11171 2f45 60330000 		.4byte	0x3360
 11172 2f49 622F0000 		.4byte	0x2f62
 11173 2f4d 32       		.uleb128 0x32
 11174 2f4e 01       		.uleb128 0x1
 11175 2f4f 50       		.byte	0x50
 11176 2f50 02       		.uleb128 0x2
 11177 2f51 74       		.byte	0x74
 11178 2f52 00       		.sleb128 0
 11179 2f53 32       		.uleb128 0x32
 11180 2f54 01       		.uleb128 0x1
 11181 2f55 51       		.byte	0x51
 11182 2f56 03       		.uleb128 0x3
 11183 2f57 F3       		.byte	0xf3
 11184 2f58 01       		.uleb128 0x1
 11185 2f59 51       		.byte	0x51
 11186 2f5a 32       		.uleb128 0x32
 11187 2f5b 01       		.uleb128 0x1
 11188 2f5c 52       		.byte	0x52
 11189 2f5d 03       		.uleb128 0x3
 11190 2f5e F3       		.byte	0xf3
 11191 2f5f 01       		.uleb128 0x1
 11192 2f60 52       		.byte	0x52
 11193 2f61 00       		.byte	0
 11194 2f62 34       		.uleb128 0x34
 11195 2f63 2C000000 		.4byte	.LVL204
 11196 2f67 17300000 		.4byte	0x3017
 11197 2f6b 772F0000 		.4byte	0x2f77
 11198 2f6f 32       		.uleb128 0x32
 11199 2f70 01       		.uleb128 0x1
 11200 2f71 50       		.byte	0x50
 11201 2f72 03       		.uleb128 0x3
 11202 2f73 F3       		.byte	0xf3
 11203 2f74 01       		.uleb128 0x1
 11204 2f75 50       		.byte	0x50
 11205 2f76 00       		.byte	0
 11206 2f77 2D       		.uleb128 0x2d
 11207 2f78 30000000 		.4byte	.LVL205
 11208 2f7c 17410000 		.4byte	0x4117
 11209 2f80 00       		.byte	0
 11210 2f81 3C       		.uleb128 0x3c
 11211 2f82 DF020000 		.4byte	.LASF328
 11212 2f86 01       		.byte	0x1
 11213 2f87 EE       		.byte	0xee
 11214 2f88 00000000 		.4byte	.LFB264
 11215 2f8c 28000000 		.4byte	.LFE264-.LFB264
 11216 2f90 01       		.uleb128 0x1
ARM GAS  /var/folders/d2/nstgp4h54kz7g1l847x_b8wc0000gn/T//ccW13lHv.s 			page 199


 11217 2f91 9C       		.byte	0x9c
 11218 2f92 EC2F0000 		.4byte	0x2fec
 11219 2f96 3D       		.uleb128 0x3d
 11220 2f97 7000     		.ascii	"p\000"
 11221 2f99 01       		.byte	0x1
 11222 2f9a EE       		.byte	0xee
 11223 2f9b 020A0000 		.4byte	0xa02
 11224 2f9f DE120000 		.4byte	.LLST71
 11225 2fa3 3D       		.uleb128 0x3d
 11226 2fa4 6E7300   		.ascii	"ns\000"
 11227 2fa7 01       		.byte	0x1
 11228 2fa8 EE       		.byte	0xee
 11229 2fa9 FC090000 		.4byte	0x9fc
 11230 2fad 18130000 		.4byte	.LLST72
 11231 2fb1 3D       		.uleb128 0x3d
 11232 2fb2 696400   		.ascii	"id\000"
 11233 2fb5 01       		.byte	0x1
 11234 2fb6 EF       		.byte	0xef
 11235 2fb7 D9050000 		.4byte	0x5d9
 11236 2fbb 52130000 		.4byte	.LLST73
 11237 2fbf 34       		.uleb128 0x34
 11238 2fc0 20000000 		.4byte	.LVL199
 11239 2fc4 60330000 		.4byte	0x3360
 11240 2fc8 E22F0000 		.4byte	0x2fe2
 11241 2fcc 32       		.uleb128 0x32
 11242 2fcd 01       		.uleb128 0x1
 11243 2fce 50       		.byte	0x50
 11244 2fcf 03       		.uleb128 0x3
 11245 2fd0 F3       		.byte	0xf3
 11246 2fd1 01       		.uleb128 0x1
 11247 2fd2 50       		.byte	0x50
 11248 2fd3 32       		.uleb128 0x32
 11249 2fd4 01       		.uleb128 0x1
 11250 2fd5 51       		.byte	0x51
 11251 2fd6 03       		.uleb128 0x3
 11252 2fd7 F3       		.byte	0xf3
 11253 2fd8 01       		.uleb128 0x1
 11254 2fd9 51       		.byte	0x51
 11255 2fda 32       		.uleb128 0x32
 11256 2fdb 01       		.uleb128 0x1
 11257 2fdc 52       		.byte	0x52
 11258 2fdd 03       		.uleb128 0x3
 11259 2fde F3       		.byte	0xf3
 11260 2fdf 01       		.uleb128 0x1
 11261 2fe0 52       		.byte	0x52
 11262 2fe1 00       		.byte	0
 11263 2fe2 2D       		.uleb128 0x2d
 11264 2fe3 24000000 		.4byte	.LVL200
 11265 2fe7 17410000 		.4byte	0x4117
 11266 2feb 00       		.byte	0
 11267 2fec 3F       		.uleb128 0x3f
 11268 2fed F3110000 		.4byte	.LASF329
 11269 2ff1 01       		.byte	0x1
 11270 2ff2 D6       		.byte	0xd6
 11271 2ff3 01       		.byte	0x1
 11272 2ff4 17300000 		.4byte	0x3017
 11273 2ff8 40       		.uleb128 0x40
ARM GAS  /var/folders/d2/nstgp4h54kz7g1l847x_b8wc0000gn/T//ccW13lHv.s 			page 200


 11274 2ff9 7000     		.ascii	"p\000"
 11275 2ffb 01       		.byte	0x1
 11276 2ffc D6       		.byte	0xd6
 11277 2ffd 020A0000 		.4byte	0xa02
 11278 3001 41       		.uleb128 0x41
 11279 3002 920D0000 		.4byte	.LASF330
 11280 3006 01       		.byte	0x1
 11281 3007 D9       		.byte	0xd9
 11282 3008 E70A0000 		.4byte	0xae7
 11283 300c 42       		.uleb128 0x42
 11284 300d 6E7300   		.ascii	"ns\000"
 11285 3010 01       		.byte	0x1
 11286 3011 E1       		.byte	0xe1
 11287 3012 FC090000 		.4byte	0x9fc
 11288 3016 00       		.byte	0
 11289 3017 3F       		.uleb128 0x3f
 11290 3018 A8080000 		.4byte	.LASF331
 11291 301c 01       		.byte	0x1
 11292 301d C1       		.byte	0xc1
 11293 301e 01       		.byte	0x1
 11294 301f 42300000 		.4byte	0x3042
 11295 3023 40       		.uleb128 0x40
 11296 3024 7000     		.ascii	"p\000"
 11297 3026 01       		.byte	0x1
 11298 3027 C1       		.byte	0xc1
 11299 3028 020A0000 		.4byte	0xa02
 11300 302c 41       		.uleb128 0x41
 11301 302d 920D0000 		.4byte	.LASF330
 11302 3031 01       		.byte	0x1
 11303 3032 C4       		.byte	0xc4
 11304 3033 E70A0000 		.4byte	0xae7
 11305 3037 42       		.uleb128 0x42
 11306 3038 6E7300   		.ascii	"ns\000"
 11307 303b 01       		.byte	0x1
 11308 303c CC       		.byte	0xcc
 11309 303d FC090000 		.4byte	0x9fc
 11310 3041 00       		.byte	0
 11311 3042 43       		.uleb128 0x43
 11312 3043 7B100000 		.4byte	.LASF332
 11313 3047 01       		.byte	0x1
 11314 3048 B6       		.byte	0xb6
 11315 3049 E70A0000 		.4byte	0xae7
 11316 304d 00000000 		.4byte	.LFB261
 11317 3051 64000000 		.4byte	.LFE261-.LFB261
 11318 3055 01       		.uleb128 0x1
 11319 3056 9C       		.byte	0x9c
 11320 3057 49310000 		.4byte	0x3149
 11321 305b 3D       		.uleb128 0x3d
 11322 305c 7000     		.ascii	"p\000"
 11323 305e 01       		.byte	0x1
 11324 305f B6       		.byte	0xb6
 11325 3060 49310000 		.4byte	0x3149
 11326 3064 8C130000 		.4byte	.LLST52
 11327 3068 44       		.uleb128 0x44
 11328 3069 1C000000 		.4byte	.LASF144
 11329 306d 01       		.byte	0x1
 11330 306e BC       		.byte	0xbc
ARM GAS  /var/folders/d2/nstgp4h54kz7g1l847x_b8wc0000gn/T//ccW13lHv.s 			page 201


 11331 306f E70A0000 		.4byte	0xae7
 11332 3073 B8130000 		.4byte	.LLST53
 11333 3077 45       		.uleb128 0x45
 11334 3078 4D3A0000 		.4byte	0x3a4d
 11335 307c 0E000000 		.4byte	.LBB348
 11336 3080 0E000000 		.4byte	.LBE348-.LBB348
 11337 3084 01       		.byte	0x1
 11338 3085 BB       		.byte	0xbb
 11339 3086 CC300000 		.4byte	0x30cc
 11340 308a 2A       		.uleb128 0x2a
 11341 308b 5F3A0000 		.4byte	0x3a5f
 11342 308f 0E000000 		.4byte	.LBB350
 11343 3093 06000000 		.4byte	.LBE350-.LBB350
 11344 3097 03       		.byte	0x3
 11345 3098 5C01     		.2byte	0x15c
 11346 309a B9300000 		.4byte	0x30b9
 11347 309e 2B       		.uleb128 0x2b
 11348 309f 683A0000 		.4byte	0x3a68
 11349 30a3 0E000000 		.4byte	.LBB351
 11350 30a7 06000000 		.4byte	.LBE351-.LBB351
 11351 30ab 12       		.byte	0x12
 11352 30ac BF01     		.2byte	0x1bf
 11353 30ae 2C       		.uleb128 0x2c
 11354 30af 753A0000 		.4byte	0x3a75
 11355 30b3 D6130000 		.4byte	.LLST54
 11356 30b7 00       		.byte	0
 11357 30b8 00       		.byte	0
 11358 30b9 2D       		.uleb128 0x2d
 11359 30ba 18000000 		.4byte	.LVL136
 11360 30be D0400000 		.4byte	0x40d0
 11361 30c2 2D       		.uleb128 0x2d
 11362 30c3 1C000000 		.4byte	.LVL137
 11363 30c7 DB400000 		.4byte	0x40db
 11364 30cb 00       		.byte	0
 11365 30cc 46       		.uleb128 0x46
 11366 30cd 1D3A0000 		.4byte	0x3a1d
 11367 30d1 1E000000 		.4byte	.LBB353
 11368 30d5 28010000 		.4byte	.Ldebug_ranges0+0x128
 11369 30d9 01       		.byte	0x1
 11370 30da BD       		.byte	0xbd
 11371 30db 3F310000 		.4byte	0x313f
 11372 30df 2F       		.uleb128 0x2f
 11373 30e0 28010000 		.4byte	.Ldebug_ranges0+0x128
 11374 30e4 30       		.uleb128 0x30
 11375 30e5 2A3A0000 		.4byte	0x3a2a
 11376 30e9 2A       		.uleb128 0x2a
 11377 30ea 563A0000 		.4byte	0x3a56
 11378 30ee 38000000 		.4byte	.LBB355
 11379 30f2 06000000 		.4byte	.LBE355-.LBB355
 11380 30f6 03       		.byte	0x3
 11381 30f7 7301     		.2byte	0x173
 11382 30f9 18310000 		.4byte	0x3118
 11383 30fd 2B       		.uleb128 0x2b
 11384 30fe 683A0000 		.4byte	0x3a68
 11385 3102 38000000 		.4byte	.LBB356
 11386 3106 06000000 		.4byte	.LBE356-.LBB356
 11387 310a 12       		.byte	0x12
ARM GAS  /var/folders/d2/nstgp4h54kz7g1l847x_b8wc0000gn/T//ccW13lHv.s 			page 202


 11388 310b CD01     		.2byte	0x1cd
 11389 310d 2C       		.uleb128 0x2c
 11390 310e 753A0000 		.4byte	0x3a75
 11391 3112 EB130000 		.4byte	.LLST55
 11392 3116 00       		.byte	0
 11393 3117 00       		.byte	0
 11394 3118 2D       		.uleb128 0x2d
 11395 3119 22000000 		.4byte	.LVL139
 11396 311d E6400000 		.4byte	0x40e6
 11397 3121 2D       		.uleb128 0x2d
 11398 3122 26000000 		.4byte	.LVL140
 11399 3126 F1400000 		.4byte	0x40f1
 11400 312a 31       		.uleb128 0x31
 11401 312b 52000000 		.4byte	.LVL144
 11402 312f FC400000 		.4byte	0x40fc
 11403 3133 32       		.uleb128 0x32
 11404 3134 01       		.uleb128 0x1
 11405 3135 50       		.byte	0x50
 11406 3136 05       		.uleb128 0x5
 11407 3137 03       		.byte	0x3
 11408 3138 00000000 		.4byte	.LANCHOR0
 11409 313c 00       		.byte	0
 11410 313d 00       		.byte	0
 11411 313e 00       		.byte	0
 11412 313f 2D       		.uleb128 0x2d
 11413 3140 58000000 		.4byte	.LVL146
 11414 3144 17410000 		.4byte	0x4117
 11415 3148 00       		.byte	0
 11416 3149 05       		.uleb128 0x5
 11417 314a 04       		.byte	0x4
 11418 314b 98090000 		.4byte	0x998
 11419 314f 43       		.uleb128 0x43
 11420 3150 B9100000 		.4byte	.LASF333
 11421 3154 01       		.byte	0x1
 11422 3155 AE       		.byte	0xae
 11423 3156 E70A0000 		.4byte	0xae7
 11424 315a 00000000 		.4byte	.LFB260
 11425 315e 64000000 		.4byte	.LFE260-.LFB260
 11426 3162 01       		.uleb128 0x1
 11427 3163 9C       		.byte	0x9c
 11428 3164 54320000 		.4byte	0x3254
 11429 3168 3D       		.uleb128 0x3d
 11430 3169 7000     		.ascii	"p\000"
 11431 316b 01       		.byte	0x1
 11432 316c AE       		.byte	0xae
 11433 316d 49310000 		.4byte	0x3149
 11434 3171 FF130000 		.4byte	.LLST49
 11435 3175 47       		.uleb128 0x47
 11436 3176 48000000 		.4byte	.LASF143
 11437 317a 01       		.byte	0x1
 11438 317b B1       		.byte	0xb1
 11439 317c E70A0000 		.4byte	0xae7
 11440 3180 01       		.uleb128 0x1
 11441 3181 55       		.byte	0x55
 11442 3182 45       		.uleb128 0x45
 11443 3183 4D3A0000 		.4byte	0x3a4d
 11444 3187 0C000000 		.4byte	.LBB326
ARM GAS  /var/folders/d2/nstgp4h54kz7g1l847x_b8wc0000gn/T//ccW13lHv.s 			page 203


 11445 318b 0E000000 		.4byte	.LBE326-.LBB326
 11446 318f 01       		.byte	0x1
 11447 3190 B0       		.byte	0xb0
 11448 3191 D7310000 		.4byte	0x31d7
 11449 3195 2A       		.uleb128 0x2a
 11450 3196 5F3A0000 		.4byte	0x3a5f
 11451 319a 0C000000 		.4byte	.LBB328
 11452 319e 06000000 		.4byte	.LBE328-.LBB328
 11453 31a2 03       		.byte	0x3
 11454 31a3 5C01     		.2byte	0x15c
 11455 31a5 C4310000 		.4byte	0x31c4
 11456 31a9 2B       		.uleb128 0x2b
 11457 31aa 683A0000 		.4byte	0x3a68
 11458 31ae 0C000000 		.4byte	.LBB329
 11459 31b2 06000000 		.4byte	.LBE329-.LBB329
 11460 31b6 12       		.byte	0x12
 11461 31b7 BF01     		.2byte	0x1bf
 11462 31b9 2C       		.uleb128 0x2c
 11463 31ba 753A0000 		.4byte	0x3a75
 11464 31be 2B140000 		.4byte	.LLST50
 11465 31c2 00       		.byte	0
 11466 31c3 00       		.byte	0
 11467 31c4 2D       		.uleb128 0x2d
 11468 31c5 16000000 		.4byte	.LVL123
 11469 31c9 D0400000 		.4byte	0x40d0
 11470 31cd 2D       		.uleb128 0x2d
 11471 31ce 1A000000 		.4byte	.LVL124
 11472 31d2 DB400000 		.4byte	0x40db
 11473 31d6 00       		.byte	0
 11474 31d7 46       		.uleb128 0x46
 11475 31d8 1D3A0000 		.4byte	0x3a1d
 11476 31dc 1C000000 		.4byte	.LBB331
 11477 31e0 10010000 		.4byte	.Ldebug_ranges0+0x110
 11478 31e4 01       		.byte	0x1
 11479 31e5 B2       		.byte	0xb2
 11480 31e6 4A320000 		.4byte	0x324a
 11481 31ea 2F       		.uleb128 0x2f
 11482 31eb 10010000 		.4byte	.Ldebug_ranges0+0x110
 11483 31ef 30       		.uleb128 0x30
 11484 31f0 2A3A0000 		.4byte	0x3a2a
 11485 31f4 2A       		.uleb128 0x2a
 11486 31f5 563A0000 		.4byte	0x3a56
 11487 31f9 36000000 		.4byte	.LBB333
 11488 31fd 06000000 		.4byte	.LBE333-.LBB333
 11489 3201 03       		.byte	0x3
 11490 3202 7301     		.2byte	0x173
 11491 3204 23320000 		.4byte	0x3223
 11492 3208 2B       		.uleb128 0x2b
 11493 3209 683A0000 		.4byte	0x3a68
 11494 320d 36000000 		.4byte	.LBB334
 11495 3211 06000000 		.4byte	.LBE334-.LBB334
 11496 3215 12       		.byte	0x12
 11497 3216 CD01     		.2byte	0x1cd
 11498 3218 2C       		.uleb128 0x2c
 11499 3219 753A0000 		.4byte	0x3a75
 11500 321d 40140000 		.4byte	.LLST51
 11501 3221 00       		.byte	0
ARM GAS  /var/folders/d2/nstgp4h54kz7g1l847x_b8wc0000gn/T//ccW13lHv.s 			page 204


 11502 3222 00       		.byte	0
 11503 3223 2D       		.uleb128 0x2d
 11504 3224 20000000 		.4byte	.LVL126
 11505 3228 E6400000 		.4byte	0x40e6
 11506 322c 2D       		.uleb128 0x2d
 11507 322d 24000000 		.4byte	.LVL127
 11508 3231 F1400000 		.4byte	0x40f1
 11509 3235 31       		.uleb128 0x31
 11510 3236 50000000 		.4byte	.LVL131
 11511 323a FC400000 		.4byte	0x40fc
 11512 323e 32       		.uleb128 0x32
 11513 323f 01       		.uleb128 0x1
 11514 3240 50       		.byte	0x50
 11515 3241 05       		.uleb128 0x5
 11516 3242 03       		.byte	0x3
 11517 3243 00000000 		.4byte	.LANCHOR0
 11518 3247 00       		.byte	0
 11519 3248 00       		.byte	0
 11520 3249 00       		.byte	0
 11521 324a 2D       		.uleb128 0x2d
 11522 324b 56000000 		.4byte	.LVL132
 11523 324f 17410000 		.4byte	0x4117
 11524 3253 00       		.byte	0
 11525 3254 43       		.uleb128 0x43
 11526 3255 EC050000 		.4byte	.LASF334
 11527 3259 01       		.byte	0x1
 11528 325a A6       		.byte	0xa6
 11529 325b E70A0000 		.4byte	0xae7
 11530 325f 00000000 		.4byte	.LFB259
 11531 3263 68000000 		.4byte	.LFE259-.LFB259
 11532 3267 01       		.uleb128 0x1
 11533 3268 9C       		.byte	0x9c
 11534 3269 5A330000 		.4byte	0x335a
 11535 326d 3D       		.uleb128 0x3d
 11536 326e 6E7300   		.ascii	"ns\000"
 11537 3271 01       		.byte	0x1
 11538 3272 A6       		.byte	0xa6
 11539 3273 5A330000 		.4byte	0x335a
 11540 3277 54140000 		.4byte	.LLST46
 11541 327b 47       		.uleb128 0x47
 11542 327c 270D0000 		.4byte	.LASF136
 11543 3280 01       		.byte	0x1
 11544 3281 A9       		.byte	0xa9
 11545 3282 08090000 		.4byte	0x908
 11546 3286 01       		.uleb128 0x1
 11547 3287 55       		.byte	0x55
 11548 3288 45       		.uleb128 0x45
 11549 3289 4D3A0000 		.4byte	0x3a4d
 11550 328d 0C000000 		.4byte	.LBB304
 11551 3291 0E000000 		.4byte	.LBE304-.LBB304
 11552 3295 01       		.byte	0x1
 11553 3296 A8       		.byte	0xa8
 11554 3297 DD320000 		.4byte	0x32dd
 11555 329b 2A       		.uleb128 0x2a
 11556 329c 5F3A0000 		.4byte	0x3a5f
 11557 32a0 0C000000 		.4byte	.LBB306
 11558 32a4 06000000 		.4byte	.LBE306-.LBB306
ARM GAS  /var/folders/d2/nstgp4h54kz7g1l847x_b8wc0000gn/T//ccW13lHv.s 			page 205


 11559 32a8 03       		.byte	0x3
 11560 32a9 5C01     		.2byte	0x15c
 11561 32ab CA320000 		.4byte	0x32ca
 11562 32af 2B       		.uleb128 0x2b
 11563 32b0 683A0000 		.4byte	0x3a68
 11564 32b4 0C000000 		.4byte	.LBB307
 11565 32b8 06000000 		.4byte	.LBE307-.LBB307
 11566 32bc 12       		.byte	0x12
 11567 32bd BF01     		.2byte	0x1bf
 11568 32bf 2C       		.uleb128 0x2c
 11569 32c0 753A0000 		.4byte	0x3a75
 11570 32c4 80140000 		.4byte	.LLST47
 11571 32c8 00       		.byte	0
 11572 32c9 00       		.byte	0
 11573 32ca 2D       		.uleb128 0x2d
 11574 32cb 16000000 		.4byte	.LVL110
 11575 32cf D0400000 		.4byte	0x40d0
 11576 32d3 2D       		.uleb128 0x2d
 11577 32d4 1A000000 		.4byte	.LVL111
 11578 32d8 DB400000 		.4byte	0x40db
 11579 32dc 00       		.byte	0
 11580 32dd 46       		.uleb128 0x46
 11581 32de 1D3A0000 		.4byte	0x3a1d
 11582 32e2 1C000000 		.4byte	.LBB309
 11583 32e6 F8000000 		.4byte	.Ldebug_ranges0+0xf8
 11584 32ea 01       		.byte	0x1
 11585 32eb AA       		.byte	0xaa
 11586 32ec 50330000 		.4byte	0x3350
 11587 32f0 2F       		.uleb128 0x2f
 11588 32f1 F8000000 		.4byte	.Ldebug_ranges0+0xf8
 11589 32f5 30       		.uleb128 0x30
 11590 32f6 2A3A0000 		.4byte	0x3a2a
 11591 32fa 2A       		.uleb128 0x2a
 11592 32fb 563A0000 		.4byte	0x3a56
 11593 32ff 36000000 		.4byte	.LBB311
 11594 3303 06000000 		.4byte	.LBE311-.LBB311
 11595 3307 03       		.byte	0x3
 11596 3308 7301     		.2byte	0x173
 11597 330a 29330000 		.4byte	0x3329
 11598 330e 2B       		.uleb128 0x2b
 11599 330f 683A0000 		.4byte	0x3a68
 11600 3313 36000000 		.4byte	.LBB312
 11601 3317 06000000 		.4byte	.LBE312-.LBB312
 11602 331b 12       		.byte	0x12
 11603 331c CD01     		.2byte	0x1cd
 11604 331e 2C       		.uleb128 0x2c
 11605 331f 753A0000 		.4byte	0x3a75
 11606 3323 95140000 		.4byte	.LLST48
 11607 3327 00       		.byte	0
 11608 3328 00       		.byte	0
 11609 3329 2D       		.uleb128 0x2d
 11610 332a 20000000 		.4byte	.LVL113
 11611 332e E6400000 		.4byte	0x40e6
 11612 3332 2D       		.uleb128 0x2d
 11613 3333 24000000 		.4byte	.LVL114
 11614 3337 F1400000 		.4byte	0x40f1
 11615 333b 31       		.uleb128 0x31
ARM GAS  /var/folders/d2/nstgp4h54kz7g1l847x_b8wc0000gn/T//ccW13lHv.s 			page 206


 11616 333c 54000000 		.4byte	.LVL118
 11617 3340 FC400000 		.4byte	0x40fc
 11618 3344 32       		.uleb128 0x32
 11619 3345 01       		.uleb128 0x1
 11620 3346 50       		.byte	0x50
 11621 3347 05       		.uleb128 0x5
 11622 3348 03       		.byte	0x3
 11623 3349 00000000 		.4byte	.LANCHOR0
 11624 334d 00       		.byte	0
 11625 334e 00       		.byte	0
 11626 334f 00       		.byte	0
 11627 3350 2D       		.uleb128 0x2d
 11628 3351 5A000000 		.4byte	.LVL119
 11629 3355 17410000 		.4byte	0x4117
 11630 3359 00       		.byte	0
 11631 335a 05       		.uleb128 0x5
 11632 335b 04       		.byte	0x4
 11633 335c 34090000 		.4byte	0x934
 11634 3360 3C       		.uleb128 0x3c
 11635 3361 950F0000 		.4byte	.LASF335
 11636 3365 01       		.byte	0x1
 11637 3366 98       		.byte	0x98
 11638 3367 00000000 		.4byte	.LFB258
 11639 336b 70000000 		.4byte	.LFE258-.LFB258
 11640 336f 01       		.uleb128 0x1
 11641 3370 9C       		.byte	0x9c
 11642 3371 70340000 		.4byte	0x3470
 11643 3375 3D       		.uleb128 0x3d
 11644 3376 7000     		.ascii	"p\000"
 11645 3378 01       		.byte	0x1
 11646 3379 98       		.byte	0x98
 11647 337a 020A0000 		.4byte	0xa02
 11648 337e A9140000 		.4byte	.LLST41
 11649 3382 3D       		.uleb128 0x3d
 11650 3383 6E7300   		.ascii	"ns\000"
 11651 3386 01       		.byte	0x1
 11652 3387 98       		.byte	0x98
 11653 3388 FC090000 		.4byte	0x9fc
 11654 338c C7140000 		.4byte	.LLST42
 11655 3390 3D       		.uleb128 0x3d
 11656 3391 696400   		.ascii	"id\000"
 11657 3394 01       		.byte	0x1
 11658 3395 99       		.byte	0x99
 11659 3396 D9050000 		.4byte	0x5d9
 11660 339a E8140000 		.4byte	.LLST43
 11661 339e 45       		.uleb128 0x45
 11662 339f 4D3A0000 		.4byte	0x3a4d
 11663 33a3 16000000 		.4byte	.LBB282
 11664 33a7 0E000000 		.4byte	.LBE282-.LBB282
 11665 33ab 01       		.byte	0x1
 11666 33ac 9F       		.byte	0x9f
 11667 33ad F3330000 		.4byte	0x33f3
 11668 33b1 2A       		.uleb128 0x2a
 11669 33b2 5F3A0000 		.4byte	0x3a5f
 11670 33b6 16000000 		.4byte	.LBB284
 11671 33ba 06000000 		.4byte	.LBE284-.LBB284
 11672 33be 03       		.byte	0x3
ARM GAS  /var/folders/d2/nstgp4h54kz7g1l847x_b8wc0000gn/T//ccW13lHv.s 			page 207


 11673 33bf 5C01     		.2byte	0x15c
 11674 33c1 E0330000 		.4byte	0x33e0
 11675 33c5 2B       		.uleb128 0x2b
 11676 33c6 683A0000 		.4byte	0x3a68
 11677 33ca 16000000 		.4byte	.LBB285
 11678 33ce 06000000 		.4byte	.LBE285-.LBB285
 11679 33d2 12       		.byte	0x12
 11680 33d3 BF01     		.2byte	0x1bf
 11681 33d5 2C       		.uleb128 0x2c
 11682 33d6 753A0000 		.4byte	0x3a75
 11683 33da 09150000 		.4byte	.LLST44
 11684 33de 00       		.byte	0
 11685 33df 00       		.byte	0
 11686 33e0 2D       		.uleb128 0x2d
 11687 33e1 20000000 		.4byte	.LVL98
 11688 33e5 D0400000 		.4byte	0x40d0
 11689 33e9 2D       		.uleb128 0x2d
 11690 33ea 24000000 		.4byte	.LVL99
 11691 33ee DB400000 		.4byte	0x40db
 11692 33f2 00       		.byte	0
 11693 33f3 46       		.uleb128 0x46
 11694 33f4 1D3A0000 		.4byte	0x3a1d
 11695 33f8 2C000000 		.4byte	.LBB287
 11696 33fc E0000000 		.4byte	.Ldebug_ranges0+0xe0
 11697 3400 01       		.byte	0x1
 11698 3401 A3       		.byte	0xa3
 11699 3402 66340000 		.4byte	0x3466
 11700 3406 2F       		.uleb128 0x2f
 11701 3407 E0000000 		.4byte	.Ldebug_ranges0+0xe0
 11702 340b 30       		.uleb128 0x30
 11703 340c 2A3A0000 		.4byte	0x3a2a
 11704 3410 2A       		.uleb128 0x2a
 11705 3411 563A0000 		.4byte	0x3a56
 11706 3415 46000000 		.4byte	.LBB289
 11707 3419 06000000 		.4byte	.LBE289-.LBB289
 11708 341d 03       		.byte	0x3
 11709 341e 7301     		.2byte	0x173
 11710 3420 3F340000 		.4byte	0x343f
 11711 3424 2B       		.uleb128 0x2b
 11712 3425 683A0000 		.4byte	0x3a68
 11713 3429 46000000 		.4byte	.LBB290
 11714 342d 06000000 		.4byte	.LBE290-.LBB290
 11715 3431 12       		.byte	0x12
 11716 3432 CD01     		.2byte	0x1cd
 11717 3434 2C       		.uleb128 0x2c
 11718 3435 753A0000 		.4byte	0x3a75
 11719 3439 1E150000 		.4byte	.LLST45
 11720 343d 00       		.byte	0
 11721 343e 00       		.byte	0
 11722 343f 2D       		.uleb128 0x2d
 11723 3440 30000000 		.4byte	.LVL100
 11724 3444 E6400000 		.4byte	0x40e6
 11725 3448 2D       		.uleb128 0x2d
 11726 3449 34000000 		.4byte	.LVL101
 11727 344d F1400000 		.4byte	0x40f1
 11728 3451 31       		.uleb128 0x31
 11729 3452 5E000000 		.4byte	.LVL105
ARM GAS  /var/folders/d2/nstgp4h54kz7g1l847x_b8wc0000gn/T//ccW13lHv.s 			page 208


 11730 3456 FC400000 		.4byte	0x40fc
 11731 345a 32       		.uleb128 0x32
 11732 345b 01       		.uleb128 0x1
 11733 345c 50       		.byte	0x50
 11734 345d 05       		.uleb128 0x5
 11735 345e 03       		.byte	0x3
 11736 345f 00000000 		.4byte	.LANCHOR0
 11737 3463 00       		.byte	0
 11738 3464 00       		.byte	0
 11739 3465 00       		.byte	0
 11740 3466 2D       		.uleb128 0x2d
 11741 3467 64000000 		.4byte	.LVL106
 11742 346b 17410000 		.4byte	0x4117
 11743 346f 00       		.byte	0
 11744 3470 43       		.uleb128 0x43
 11745 3471 C2120000 		.4byte	.LASF336
 11746 3475 01       		.byte	0x1
 11747 3476 93       		.byte	0x93
 11748 3477 020A0000 		.4byte	0xa02
 11749 347b 00000000 		.4byte	.LFB257
 11750 347f 34000000 		.4byte	.LFE257-.LFB257
 11751 3483 01       		.uleb128 0x1
 11752 3484 9C       		.byte	0x9c
 11753 3485 DF340000 		.4byte	0x34df
 11754 3489 3D       		.uleb128 0x3d
 11755 348a 6E7300   		.ascii	"ns\000"
 11756 348d 01       		.byte	0x1
 11757 348e 93       		.byte	0x93
 11758 348f FC090000 		.4byte	0x9fc
 11759 3493 32150000 		.4byte	.LLST39
 11760 3497 3D       		.uleb128 0x3d
 11761 3498 696400   		.ascii	"id\000"
 11762 349b 01       		.byte	0x1
 11763 349c 93       		.byte	0x93
 11764 349d D9050000 		.4byte	0x5d9
 11765 34a1 74150000 		.4byte	.LLST40
 11766 34a5 33       		.uleb128 0x33
 11767 34a6 14000000 		.4byte	.LVL90
 11768 34aa 20410000 		.4byte	0x4120
 11769 34ae B9340000 		.4byte	0x34b9
 11770 34b2 32       		.uleb128 0x32
 11771 34b3 01       		.uleb128 0x1
 11772 34b4 50       		.byte	0x50
 11773 34b5 02       		.uleb128 0x2
 11774 34b6 75       		.byte	0x75
 11775 34b7 00       		.sleb128 0
 11776 34b8 00       		.byte	0
 11777 34b9 34       		.uleb128 0x34
 11778 34ba 2C000000 		.4byte	.LVL92
 11779 34be DF340000 		.4byte	0x34df
 11780 34c2 D5340000 		.4byte	0x34d5
 11781 34c6 32       		.uleb128 0x32
 11782 34c7 01       		.uleb128 0x1
 11783 34c8 50       		.byte	0x50
 11784 34c9 03       		.uleb128 0x3
 11785 34ca F3       		.byte	0xf3
 11786 34cb 01       		.uleb128 0x1
ARM GAS  /var/folders/d2/nstgp4h54kz7g1l847x_b8wc0000gn/T//ccW13lHv.s 			page 209


 11787 34cc 50       		.byte	0x50
 11788 34cd 32       		.uleb128 0x32
 11789 34ce 01       		.uleb128 0x1
 11790 34cf 51       		.byte	0x51
 11791 34d0 03       		.uleb128 0x3
 11792 34d1 F3       		.byte	0xf3
 11793 34d2 01       		.uleb128 0x1
 11794 34d3 51       		.byte	0x51
 11795 34d4 00       		.byte	0
 11796 34d5 2D       		.uleb128 0x2d
 11797 34d6 30000000 		.4byte	.LVL93
 11798 34da 17410000 		.4byte	0x4117
 11799 34de 00       		.byte	0
 11800 34df 43       		.uleb128 0x43
 11801 34e0 86030000 		.4byte	.LASF337
 11802 34e4 01       		.byte	0x1
 11803 34e5 82       		.byte	0x82
 11804 34e6 020A0000 		.4byte	0xa02
 11805 34ea 00000000 		.4byte	.LFB256
 11806 34ee 04010000 		.4byte	.LFE256-.LFB256
 11807 34f2 01       		.uleb128 0x1
 11808 34f3 9C       		.byte	0x9c
 11809 34f4 FD360000 		.4byte	0x36fd
 11810 34f8 3D       		.uleb128 0x3d
 11811 34f9 6E7300   		.ascii	"ns\000"
 11812 34fc 01       		.byte	0x1
 11813 34fd 82       		.byte	0x82
 11814 34fe FC090000 		.4byte	0x9fc
 11815 3502 B6150000 		.4byte	.LLST23
 11816 3506 3D       		.uleb128 0x3d
 11817 3507 696400   		.ascii	"id\000"
 11818 350a 01       		.byte	0x1
 11819 350b 83       		.byte	0x83
 11820 350c D9050000 		.4byte	0x5d9
 11821 3510 D7150000 		.4byte	.LLST24
 11822 3514 3E       		.uleb128 0x3e
 11823 3515 5A120000 		.4byte	.LASF338
 11824 3519 01       		.byte	0x1
 11825 351a 83       		.byte	0x83
 11826 351b 33000000 		.4byte	0x33
 11827 351f 1C160000 		.4byte	.LLST25
 11828 3523 48       		.uleb128 0x48
 11829 3524 706E7300 		.ascii	"pns\000"
 11830 3528 01       		.byte	0x1
 11831 3529 85       		.byte	0x85
 11832 352a FC090000 		.4byte	0x9fc
 11833 352e 7A160000 		.4byte	.LLST26
 11834 3532 48       		.uleb128 0x48
 11835 3533 6900     		.ascii	"i\000"
 11836 3535 01       		.byte	0x1
 11837 3536 86       		.byte	0x86
 11838 3537 08090000 		.4byte	0x908
 11839 353b D1160000 		.4byte	.LLST27
 11840 353f 49       		.uleb128 0x49
 11841 3540 60000000 		.4byte	.Ldebug_ranges0+0x60
 11842 3544 F3360000 		.4byte	0x36f3
 11843 3548 41       		.uleb128 0x41
ARM GAS  /var/folders/d2/nstgp4h54kz7g1l847x_b8wc0000gn/T//ccW13lHv.s 			page 210


 11844 3549 E90A0000 		.4byte	.LASF339
 11845 354d 01       		.byte	0x1
 11846 354e 88       		.byte	0x88
 11847 354f 2C000000 		.4byte	0x2c
 11848 3553 46       		.uleb128 0x46
 11849 3554 EE390000 		.4byte	0x39ee
 11850 3558 1E000000 		.4byte	.LBB245
 11851 355c 78000000 		.4byte	.Ldebug_ranges0+0x78
 11852 3560 01       		.byte	0x1
 11853 3561 88       		.byte	0x88
 11854 3562 88350000 		.4byte	0x3588
 11855 3566 2C       		.uleb128 0x2c
 11856 3567 083A0000 		.4byte	0x3a08
 11857 356b 11170000 		.4byte	.LLST28
 11858 356f 2C       		.uleb128 0x2c
 11859 3570 FE390000 		.4byte	0x39fe
 11860 3574 3A170000 		.4byte	.LLST29
 11861 3578 2F       		.uleb128 0x2f
 11862 3579 78000000 		.4byte	.Ldebug_ranges0+0x78
 11863 357d 4A       		.uleb128 0x4a
 11864 357e 133A0000 		.4byte	0x3a13
 11865 3582 58170000 		.4byte	.LLST30
 11866 3586 00       		.byte	0
 11867 3587 00       		.byte	0
 11868 3588 46       		.uleb128 0x46
 11869 3589 B4390000 		.4byte	0x39b4
 11870 358d 56000000 		.4byte	.LBB250
 11871 3591 98000000 		.4byte	.Ldebug_ranges0+0x98
 11872 3595 01       		.byte	0x1
 11873 3596 8A       		.byte	0x8a
 11874 3597 D4350000 		.4byte	0x35d4
 11875 359b 4B       		.uleb128 0x4b
 11876 359c D9390000 		.4byte	0x39d9
 11877 35a0 2C       		.uleb128 0x2c
 11878 35a1 CE390000 		.4byte	0x39ce
 11879 35a5 83170000 		.4byte	.LLST31
 11880 35a9 2C       		.uleb128 0x2c
 11881 35aa C4390000 		.4byte	0x39c4
 11882 35ae A1170000 		.4byte	.LLST32
 11883 35b2 2F       		.uleb128 0x2f
 11884 35b3 98000000 		.4byte	.Ldebug_ranges0+0x98
 11885 35b7 30       		.uleb128 0x30
 11886 35b8 E4390000 		.4byte	0x39e4
 11887 35bc 31       		.uleb128 0x31
 11888 35bd 5E000000 		.4byte	.LVL61
 11889 35c1 823A0000 		.4byte	0x3a82
 11890 35c5 32       		.uleb128 0x32
 11891 35c6 01       		.uleb128 0x1
 11892 35c7 51       		.byte	0x51
 11893 35c8 02       		.uleb128 0x2
 11894 35c9 76       		.byte	0x76
 11895 35ca 00       		.sleb128 0
 11896 35cb 32       		.uleb128 0x32
 11897 35cc 01       		.uleb128 0x1
 11898 35cd 52       		.byte	0x52
 11899 35ce 02       		.uleb128 0x2
 11900 35cf 74       		.byte	0x74
ARM GAS  /var/folders/d2/nstgp4h54kz7g1l847x_b8wc0000gn/T//ccW13lHv.s 			page 211


 11901 35d0 00       		.sleb128 0
 11902 35d1 00       		.byte	0
 11903 35d2 00       		.byte	0
 11904 35d3 00       		.byte	0
 11905 35d4 4C       		.uleb128 0x4c
 11906 35d5 7B390000 		.4byte	0x397b
 11907 35d9 8C000000 		.4byte	.LBB255
 11908 35dd B0000000 		.4byte	.Ldebug_ranges0+0xb0
 11909 35e1 01       		.byte	0x1
 11910 35e2 8C       		.byte	0x8c
 11911 35e3 2C       		.uleb128 0x2c
 11912 35e4 8B390000 		.4byte	0x398b
 11913 35e8 BF170000 		.4byte	.LLST33
 11914 35ec 2C       		.uleb128 0x2c
 11915 35ed 9F390000 		.4byte	0x399f
 11916 35f1 F6170000 		.4byte	.LLST34
 11917 35f5 2C       		.uleb128 0x2c
 11918 35f6 95390000 		.4byte	0x3995
 11919 35fa 14180000 		.4byte	.LLST35
 11920 35fe 2F       		.uleb128 0x2f
 11921 35ff B0000000 		.4byte	.Ldebug_ranges0+0xb0
 11922 3603 4A       		.uleb128 0x4a
 11923 3604 AA390000 		.4byte	0x39aa
 11924 3608 32180000 		.4byte	.LLST36
 11925 360c 45       		.uleb128 0x45
 11926 360d 4D3A0000 		.4byte	0x3a4d
 11927 3611 90000000 		.4byte	.LBB257
 11928 3615 0E000000 		.4byte	.LBE257-.LBB257
 11929 3619 01       		.byte	0x1
 11930 361a 4C       		.byte	0x4c
 11931 361b 61360000 		.4byte	0x3661
 11932 361f 2A       		.uleb128 0x2a
 11933 3620 5F3A0000 		.4byte	0x3a5f
 11934 3624 90000000 		.4byte	.LBB259
 11935 3628 06000000 		.4byte	.LBE259-.LBB259
 11936 362c 03       		.byte	0x3
 11937 362d 5C01     		.2byte	0x15c
 11938 362f 4E360000 		.4byte	0x364e
 11939 3633 2B       		.uleb128 0x2b
 11940 3634 683A0000 		.4byte	0x3a68
 11941 3638 90000000 		.4byte	.LBB260
 11942 363c 06000000 		.4byte	.LBE260-.LBB260
 11943 3640 12       		.byte	0x12
 11944 3641 BF01     		.2byte	0x1bf
 11945 3643 2C       		.uleb128 0x2c
 11946 3644 753A0000 		.4byte	0x3a75
 11947 3648 50180000 		.4byte	.LLST37
 11948 364c 00       		.byte	0
 11949 364d 00       		.byte	0
 11950 364e 2D       		.uleb128 0x2d
 11951 364f 9A000000 		.4byte	.LVL73
 11952 3653 D0400000 		.4byte	0x40d0
 11953 3657 2D       		.uleb128 0x2d
 11954 3658 9E000000 		.4byte	.LVL74
 11955 365c DB400000 		.4byte	0x40db
 11956 3660 00       		.byte	0
 11957 3661 46       		.uleb128 0x46
ARM GAS  /var/folders/d2/nstgp4h54kz7g1l847x_b8wc0000gn/T//ccW13lHv.s 			page 212


 11958 3662 1D3A0000 		.4byte	0x3a1d
 11959 3666 A2000000 		.4byte	.LBB262
 11960 366a C8000000 		.4byte	.Ldebug_ranges0+0xc8
 11961 366e 01       		.byte	0x1
 11962 366f 4E       		.byte	0x4e
 11963 3670 D4360000 		.4byte	0x36d4
 11964 3674 2F       		.uleb128 0x2f
 11965 3675 C8000000 		.4byte	.Ldebug_ranges0+0xc8
 11966 3679 30       		.uleb128 0x30
 11967 367a 2A3A0000 		.4byte	0x3a2a
 11968 367e 2A       		.uleb128 0x2a
 11969 367f 563A0000 		.4byte	0x3a56
 11970 3683 BC000000 		.4byte	.LBB264
 11971 3687 06000000 		.4byte	.LBE264-.LBB264
 11972 368b 03       		.byte	0x3
 11973 368c 7301     		.2byte	0x173
 11974 368e AD360000 		.4byte	0x36ad
 11975 3692 2B       		.uleb128 0x2b
 11976 3693 683A0000 		.4byte	0x3a68
 11977 3697 BC000000 		.4byte	.LBB265
 11978 369b 06000000 		.4byte	.LBE265-.LBB265
 11979 369f 12       		.byte	0x12
 11980 36a0 CD01     		.2byte	0x1cd
 11981 36a2 2C       		.uleb128 0x2c
 11982 36a3 753A0000 		.4byte	0x3a75
 11983 36a7 65180000 		.4byte	.LLST38
 11984 36ab 00       		.byte	0
 11985 36ac 00       		.byte	0
 11986 36ad 2D       		.uleb128 0x2d
 11987 36ae A6000000 		.4byte	.LVL76
 11988 36b2 E6400000 		.4byte	0x40e6
 11989 36b6 2D       		.uleb128 0x2d
 11990 36b7 AA000000 		.4byte	.LVL77
 11991 36bb F1400000 		.4byte	0x40f1
 11992 36bf 31       		.uleb128 0x31
 11993 36c0 F0000000 		.4byte	.LVL85
 11994 36c4 FC400000 		.4byte	0x40fc
 11995 36c8 32       		.uleb128 0x32
 11996 36c9 01       		.uleb128 0x1
 11997 36ca 50       		.byte	0x50
 11998 36cb 05       		.uleb128 0x5
 11999 36cc 03       		.byte	0x3
 12000 36cd 00000000 		.4byte	.LANCHOR0
 12001 36d1 00       		.byte	0
 12002 36d2 00       		.byte	0
 12003 36d3 00       		.byte	0
 12004 36d4 31       		.uleb128 0x31
 12005 36d5 D2000000 		.4byte	.LVL81
 12006 36d9 36410000 		.4byte	0x4136
 12007 36dd 32       		.uleb128 0x32
 12008 36de 01       		.uleb128 0x1
 12009 36df 50       		.byte	0x50
 12010 36e0 02       		.uleb128 0x2
 12011 36e1 76       		.byte	0x76
 12012 36e2 00       		.sleb128 0
 12013 36e3 32       		.uleb128 0x32
 12014 36e4 01       		.uleb128 0x1
ARM GAS  /var/folders/d2/nstgp4h54kz7g1l847x_b8wc0000gn/T//ccW13lHv.s 			page 213


 12015 36e5 51       		.byte	0x51
 12016 36e6 02       		.uleb128 0x2
 12017 36e7 77       		.byte	0x77
 12018 36e8 00       		.sleb128 0
 12019 36e9 32       		.uleb128 0x32
 12020 36ea 01       		.uleb128 0x1
 12021 36eb 52       		.byte	0x52
 12022 36ec 02       		.uleb128 0x2
 12023 36ed 74       		.byte	0x74
 12024 36ee 00       		.sleb128 0
 12025 36ef 00       		.byte	0
 12026 36f0 00       		.byte	0
 12027 36f1 00       		.byte	0
 12028 36f2 00       		.byte	0
 12029 36f3 2D       		.uleb128 0x2d
 12030 36f4 F6000000 		.4byte	.LVL87
 12031 36f8 17410000 		.4byte	0x4117
 12032 36fc 00       		.byte	0
 12033 36fd 43       		.uleb128 0x43
 12034 36fe 85070000 		.4byte	.LASF340
 12035 3702 01       		.byte	0x1
 12036 3703 7C       		.byte	0x7c
 12037 3704 FC090000 		.4byte	0x9fc
 12038 3708 00000000 		.4byte	.LFB255
 12039 370c 34000000 		.4byte	.LFE255-.LFB255
 12040 3710 01       		.uleb128 0x1
 12041 3711 9C       		.byte	0x9c
 12042 3712 6C370000 		.4byte	0x376c
 12043 3716 3D       		.uleb128 0x3d
 12044 3717 6E7300   		.ascii	"ns\000"
 12045 371a 01       		.byte	0x1
 12046 371b 7C       		.byte	0x7c
 12047 371c FC090000 		.4byte	0x9fc
 12048 3720 79180000 		.4byte	.LLST21
 12049 3724 3D       		.uleb128 0x3d
 12050 3725 696400   		.ascii	"id\000"
 12051 3728 01       		.byte	0x1
 12052 3729 7D       		.byte	0x7d
 12053 372a D9050000 		.4byte	0x5d9
 12054 372e BB180000 		.4byte	.LLST22
 12055 3732 33       		.uleb128 0x33
 12056 3733 14000000 		.4byte	.LVL48
 12057 3737 20410000 		.4byte	0x4120
 12058 373b 46370000 		.4byte	0x3746
 12059 373f 32       		.uleb128 0x32
 12060 3740 01       		.uleb128 0x1
 12061 3741 50       		.byte	0x50
 12062 3742 02       		.uleb128 0x2
 12063 3743 75       		.byte	0x75
 12064 3744 00       		.sleb128 0
 12065 3745 00       		.byte	0
 12066 3746 34       		.uleb128 0x34
 12067 3747 2C000000 		.4byte	.LVL50
 12068 374b 6C370000 		.4byte	0x376c
 12069 374f 62370000 		.4byte	0x3762
 12070 3753 32       		.uleb128 0x32
 12071 3754 01       		.uleb128 0x1
ARM GAS  /var/folders/d2/nstgp4h54kz7g1l847x_b8wc0000gn/T//ccW13lHv.s 			page 214


 12072 3755 50       		.byte	0x50
 12073 3756 03       		.uleb128 0x3
 12074 3757 F3       		.byte	0xf3
 12075 3758 01       		.uleb128 0x1
 12076 3759 50       		.byte	0x50
 12077 375a 32       		.uleb128 0x32
 12078 375b 01       		.uleb128 0x1
 12079 375c 51       		.byte	0x51
 12080 375d 03       		.uleb128 0x3
 12081 375e F3       		.byte	0xf3
 12082 375f 01       		.uleb128 0x1
 12083 3760 51       		.byte	0x51
 12084 3761 00       		.byte	0
 12085 3762 2D       		.uleb128 0x2d
 12086 3763 30000000 		.4byte	.LVL51
 12087 3767 17410000 		.4byte	0x4117
 12088 376b 00       		.byte	0
 12089 376c 43       		.uleb128 0x43
 12090 376d 68050000 		.4byte	.LASF341
 12091 3771 01       		.byte	0x1
 12092 3772 6F       		.byte	0x6f
 12093 3773 FC090000 		.4byte	0x9fc
 12094 3777 00000000 		.4byte	.LFB254
 12095 377b 7C000000 		.4byte	.LFE254-.LFB254
 12096 377f 01       		.uleb128 0x1
 12097 3780 9C       		.byte	0x9c
 12098 3781 65380000 		.4byte	0x3865
 12099 3785 3D       		.uleb128 0x3d
 12100 3786 6E7300   		.ascii	"ns\000"
 12101 3789 01       		.byte	0x1
 12102 378a 6F       		.byte	0x6f
 12103 378b FC090000 		.4byte	0x9fc
 12104 378f FD180000 		.4byte	.LLST11
 12105 3793 3D       		.uleb128 0x3d
 12106 3794 696400   		.ascii	"id\000"
 12107 3797 01       		.byte	0x1
 12108 3798 70       		.byte	0x70
 12109 3799 D9050000 		.4byte	0x5d9
 12110 379d 1E190000 		.4byte	.LLST12
 12111 37a1 3E       		.uleb128 0x3e
 12112 37a2 5A120000 		.4byte	.LASF338
 12113 37a6 01       		.byte	0x1
 12114 37a7 70       		.byte	0x70
 12115 37a8 33000000 		.4byte	0x33
 12116 37ac 63190000 		.4byte	.LLST13
 12117 37b0 44       		.uleb128 0x44
 12118 37b1 DC120000 		.4byte	.LASF342
 12119 37b5 01       		.byte	0x1
 12120 37b6 72       		.byte	0x72
 12121 37b7 FC090000 		.4byte	0x9fc
 12122 37bb A8190000 		.4byte	.LLST14
 12123 37bf 48       		.uleb128 0x48
 12124 37c0 6900     		.ascii	"i\000"
 12125 37c2 01       		.byte	0x1
 12126 37c3 73       		.byte	0x73
 12127 37c4 08090000 		.4byte	0x908
 12128 37c8 DC190000 		.4byte	.LLST15
ARM GAS  /var/folders/d2/nstgp4h54kz7g1l847x_b8wc0000gn/T//ccW13lHv.s 			page 215


 12129 37cc 49       		.uleb128 0x49
 12130 37cd 18000000 		.4byte	.Ldebug_ranges0+0x18
 12131 37d1 5B380000 		.4byte	0x385b
 12132 37d5 41       		.uleb128 0x41
 12133 37d6 E90A0000 		.4byte	.LASF339
 12134 37da 01       		.byte	0x1
 12135 37db 75       		.byte	0x75
 12136 37dc 2C000000 		.4byte	0x2c
 12137 37e0 46       		.uleb128 0x46
 12138 37e1 EE390000 		.4byte	0x39ee
 12139 37e5 1E000000 		.4byte	.LBB218
 12140 37e9 30000000 		.4byte	.Ldebug_ranges0+0x30
 12141 37ed 01       		.byte	0x1
 12142 37ee 75       		.byte	0x75
 12143 37ef 15380000 		.4byte	0x3815
 12144 37f3 2C       		.uleb128 0x2c
 12145 37f4 083A0000 		.4byte	0x3a08
 12146 37f8 061A0000 		.4byte	.LLST16
 12147 37fc 2C       		.uleb128 0x2c
 12148 37fd FE390000 		.4byte	0x39fe
 12149 3801 241A0000 		.4byte	.LLST17
 12150 3805 2F       		.uleb128 0x2f
 12151 3806 30000000 		.4byte	.Ldebug_ranges0+0x30
 12152 380a 4A       		.uleb128 0x4a
 12153 380b 133A0000 		.4byte	0x3a13
 12154 380f 371A0000 		.4byte	.LLST18
 12155 3813 00       		.byte	0
 12156 3814 00       		.byte	0
 12157 3815 4C       		.uleb128 0x4c
 12158 3816 B4390000 		.4byte	0x39b4
 12159 381a 4A000000 		.4byte	.LBB222
 12160 381e 48000000 		.4byte	.Ldebug_ranges0+0x48
 12161 3822 01       		.byte	0x1
 12162 3823 76       		.byte	0x76
 12163 3824 4B       		.uleb128 0x4b
 12164 3825 D9390000 		.4byte	0x39d9
 12165 3829 2C       		.uleb128 0x2c
 12166 382a CE390000 		.4byte	0x39ce
 12167 382e 561A0000 		.4byte	.LLST19
 12168 3832 2C       		.uleb128 0x2c
 12169 3833 C4390000 		.4byte	0x39c4
 12170 3837 841A0000 		.4byte	.LLST20
 12171 383b 2F       		.uleb128 0x2f
 12172 383c 48000000 		.4byte	.Ldebug_ranges0+0x48
 12173 3840 30       		.uleb128 0x30
 12174 3841 E4390000 		.4byte	0x39e4
 12175 3845 31       		.uleb128 0x31
 12176 3846 4E000000 		.4byte	.LVL37
 12177 384a 823A0000 		.4byte	0x3a82
 12178 384e 32       		.uleb128 0x32
 12179 384f 01       		.uleb128 0x1
 12180 3850 51       		.byte	0x51
 12181 3851 05       		.uleb128 0x5
 12182 3852 7A       		.byte	0x7a
 12183 3853 00       		.sleb128 0
 12184 3854 77       		.byte	0x77
 12185 3855 00       		.sleb128 0
ARM GAS  /var/folders/d2/nstgp4h54kz7g1l847x_b8wc0000gn/T//ccW13lHv.s 			page 216


 12186 3856 22       		.byte	0x22
 12187 3857 00       		.byte	0
 12188 3858 00       		.byte	0
 12189 3859 00       		.byte	0
 12190 385a 00       		.byte	0
 12191 385b 2D       		.uleb128 0x2d
 12192 385c 78000000 		.4byte	.LVL45
 12193 3860 17410000 		.4byte	0x4117
 12194 3864 00       		.byte	0
 12195 3865 3C       		.uleb128 0x3c
 12196 3866 00000000 		.4byte	.LASF343
 12197 386a 01       		.byte	0x1
 12198 386b 5A       		.byte	0x5a
 12199 386c 00000000 		.4byte	.LFB253
 12200 3870 78000000 		.4byte	.LFE253-.LFB253
 12201 3874 01       		.uleb128 0x1
 12202 3875 9C       		.byte	0x9c
 12203 3876 7B390000 		.4byte	0x397b
 12204 387a 3D       		.uleb128 0x3d
 12205 387b 6E7300   		.ascii	"ns\000"
 12206 387e 01       		.byte	0x1
 12207 387f 5A       		.byte	0x5a
 12208 3880 FC090000 		.4byte	0x9fc
 12209 3884 A21A0000 		.4byte	.LLST6
 12210 3888 3E       		.uleb128 0x3e
 12211 3889 FF0A0000 		.4byte	.LASF137
 12212 388d 01       		.byte	0x1
 12213 388e 5B       		.byte	0x5b
 12214 388f FC090000 		.4byte	0x9fc
 12215 3893 C01A0000 		.4byte	.LLST7
 12216 3897 3D       		.uleb128 0x3d
 12217 3898 696400   		.ascii	"id\000"
 12218 389b 01       		.byte	0x1
 12219 389c 5C       		.byte	0x5c
 12220 389d D9050000 		.4byte	0x5d9
 12221 38a1 FA1A0000 		.4byte	.LLST8
 12222 38a5 45       		.uleb128 0x45
 12223 38a6 4D3A0000 		.4byte	0x3a4d
 12224 38aa 28000000 		.4byte	.LBB207
 12225 38ae 0E000000 		.4byte	.LBE207-.LBB207
 12226 38b2 01       		.byte	0x1
 12227 38b3 64       		.byte	0x64
 12228 38b4 FA380000 		.4byte	0x38fa
 12229 38b8 2A       		.uleb128 0x2a
 12230 38b9 5F3A0000 		.4byte	0x3a5f
 12231 38bd 28000000 		.4byte	.LBB209
 12232 38c1 06000000 		.4byte	.LBE209-.LBB209
 12233 38c5 03       		.byte	0x3
 12234 38c6 5C01     		.2byte	0x15c
 12235 38c8 E7380000 		.4byte	0x38e7
 12236 38cc 2B       		.uleb128 0x2b
 12237 38cd 683A0000 		.4byte	0x3a68
 12238 38d1 28000000 		.4byte	.LBB210
 12239 38d5 06000000 		.4byte	.LBE210-.LBB210
 12240 38d9 12       		.byte	0x12
 12241 38da BF01     		.2byte	0x1bf
 12242 38dc 2C       		.uleb128 0x2c
ARM GAS  /var/folders/d2/nstgp4h54kz7g1l847x_b8wc0000gn/T//ccW13lHv.s 			page 217


 12243 38dd 753A0000 		.4byte	0x3a75
 12244 38e1 341B0000 		.4byte	.LLST9
 12245 38e5 00       		.byte	0
 12246 38e6 00       		.byte	0
 12247 38e7 2D       		.uleb128 0x2d
 12248 38e8 32000000 		.4byte	.LVL22
 12249 38ec D0400000 		.4byte	0x40d0
 12250 38f0 2D       		.uleb128 0x2d
 12251 38f1 36000000 		.4byte	.LVL23
 12252 38f5 DB400000 		.4byte	0x40db
 12253 38f9 00       		.byte	0
 12254 38fa 45       		.uleb128 0x45
 12255 38fb 1D3A0000 		.4byte	0x3a1d
 12256 38ff 3E000000 		.4byte	.LBB212
 12257 3903 28000000 		.4byte	.LBE212-.LBB212
 12258 3907 01       		.byte	0x1
 12259 3908 68       		.byte	0x68
 12260 3909 71390000 		.4byte	0x3971
 12261 390d 4D       		.uleb128 0x4d
 12262 390e 3E000000 		.4byte	.LBB213
 12263 3912 28000000 		.4byte	.LBE213-.LBB213
 12264 3916 30       		.uleb128 0x30
 12265 3917 2A3A0000 		.4byte	0x3a2a
 12266 391b 2A       		.uleb128 0x2a
 12267 391c 563A0000 		.4byte	0x3a56
 12268 3920 5E000000 		.4byte	.LBB214
 12269 3924 08000000 		.4byte	.LBE214-.LBB214
 12270 3928 03       		.byte	0x3
 12271 3929 7301     		.2byte	0x173
 12272 392b 4A390000 		.4byte	0x394a
 12273 392f 2B       		.uleb128 0x2b
 12274 3930 683A0000 		.4byte	0x3a68
 12275 3934 5E000000 		.4byte	.LBB215
 12276 3938 08000000 		.4byte	.LBE215-.LBB215
 12277 393c 12       		.byte	0x12
 12278 393d CD01     		.2byte	0x1cd
 12279 393f 2C       		.uleb128 0x2c
 12280 3940 753A0000 		.4byte	0x3a75
 12281 3944 491B0000 		.4byte	.LLST10
 12282 3948 00       		.byte	0
 12283 3949 00       		.byte	0
 12284 394a 2D       		.uleb128 0x2d
 12285 394b 42000000 		.4byte	.LVL24
 12286 394f E6400000 		.4byte	0x40e6
 12287 3953 2D       		.uleb128 0x2d
 12288 3954 46000000 		.4byte	.LVL25
 12289 3958 F1400000 		.4byte	0x40f1
 12290 395c 31       		.uleb128 0x31
 12291 395d 5E000000 		.4byte	.LVL26
 12292 3961 FC400000 		.4byte	0x40fc
 12293 3965 32       		.uleb128 0x32
 12294 3966 01       		.uleb128 0x1
 12295 3967 50       		.byte	0x50
 12296 3968 05       		.uleb128 0x5
 12297 3969 03       		.byte	0x3
 12298 396a 00000000 		.4byte	.LANCHOR0
 12299 396e 00       		.byte	0
ARM GAS  /var/folders/d2/nstgp4h54kz7g1l847x_b8wc0000gn/T//ccW13lHv.s 			page 218


 12300 396f 00       		.byte	0
 12301 3970 00       		.byte	0
 12302 3971 2D       		.uleb128 0x2d
 12303 3972 6A000000 		.4byte	.LVL28
 12304 3976 17410000 		.4byte	0x4117
 12305 397a 00       		.byte	0
 12306 397b 4E       		.uleb128 0x4e
 12307 397c 49090000 		.4byte	.LASF345
 12308 3980 01       		.byte	0x1
 12309 3981 46       		.byte	0x46
 12310 3982 020A0000 		.4byte	0xa02
 12311 3986 01       		.byte	0x1
 12312 3987 B4390000 		.4byte	0x39b4
 12313 398b 40       		.uleb128 0x40
 12314 398c 6E7300   		.ascii	"ns\000"
 12315 398f 01       		.byte	0x1
 12316 3990 46       		.byte	0x46
 12317 3991 FC090000 		.4byte	0x9fc
 12318 3995 40       		.uleb128 0x40
 12319 3996 696400   		.ascii	"id\000"
 12320 3999 01       		.byte	0x1
 12321 399a 46       		.byte	0x46
 12322 399b D9050000 		.4byte	0x5d9
 12323 399f 4F       		.uleb128 0x4f
 12324 39a0 66080000 		.4byte	.LASF344
 12325 39a4 01       		.byte	0x1
 12326 39a5 47       		.byte	0x47
 12327 39a6 33000000 		.4byte	0x33
 12328 39aa 42       		.uleb128 0x42
 12329 39ab 6900     		.ascii	"i\000"
 12330 39ad 01       		.byte	0x1
 12331 39ae 4D       		.byte	0x4d
 12332 39af 020A0000 		.4byte	0xa02
 12333 39b3 00       		.byte	0
 12334 39b4 4E       		.uleb128 0x4e
 12335 39b5 C4020000 		.4byte	.LASF346
 12336 39b9 01       		.byte	0x1
 12337 39ba 2E       		.byte	0x2e
 12338 39bb FC090000 		.4byte	0x9fc
 12339 39bf 01       		.byte	0x1
 12340 39c0 EE390000 		.4byte	0x39ee
 12341 39c4 40       		.uleb128 0x40
 12342 39c5 6E7300   		.ascii	"ns\000"
 12343 39c8 01       		.byte	0x1
 12344 39c9 2E       		.byte	0x2e
 12345 39ca FC090000 		.4byte	0x9fc
 12346 39ce 4F       		.uleb128 0x4f
 12347 39cf B9060000 		.4byte	.LASF347
 12348 39d3 01       		.byte	0x1
 12349 39d4 2F       		.byte	0x2f
 12350 39d5 D9050000 		.4byte	0x5d9
 12351 39d9 4F       		.uleb128 0x4f
 12352 39da 33000000 		.4byte	.LASF348
 12353 39de 01       		.byte	0x1
 12354 39df 30       		.byte	0x30
 12355 39e0 33000000 		.4byte	0x33
 12356 39e4 42       		.uleb128 0x42
ARM GAS  /var/folders/d2/nstgp4h54kz7g1l847x_b8wc0000gn/T//ccW13lHv.s 			page 219


 12357 39e5 6900     		.ascii	"i\000"
 12358 39e7 01       		.byte	0x1
 12359 39e8 36       		.byte	0x36
 12360 39e9 FC090000 		.4byte	0x9fc
 12361 39ed 00       		.byte	0
 12362 39ee 4E       		.uleb128 0x4e
 12363 39ef B1120000 		.4byte	.LASF349
 12364 39f3 01       		.byte	0x1
 12365 39f4 1F       		.byte	0x1f
 12366 39f5 2C000000 		.4byte	0x2c
 12367 39f9 01       		.byte	0x1
 12368 39fa 1D3A0000 		.4byte	0x3a1d
 12369 39fe 40       		.uleb128 0x40
 12370 39ff 696400   		.ascii	"id\000"
 12371 3a02 01       		.byte	0x1
 12372 3a03 1F       		.byte	0x1f
 12373 3a04 D9050000 		.4byte	0x5d9
 12374 3a08 4F       		.uleb128 0x4f
 12375 3a09 5A120000 		.4byte	.LASF338
 12376 3a0d 01       		.byte	0x1
 12377 3a0e 1F       		.byte	0x1f
 12378 3a0f 2C000000 		.4byte	0x2c
 12379 3a13 42       		.uleb128 0x42
 12380 3a14 6900     		.ascii	"i\000"
 12381 3a16 01       		.byte	0x1
 12382 3a17 21       		.byte	0x21
 12383 3a18 2C000000 		.4byte	0x2c
 12384 3a1c 00       		.byte	0
 12385 3a1d 50       		.uleb128 0x50
 12386 3a1e 73080000 		.4byte	.LASF353
 12387 3a22 03       		.byte	0x3
 12388 3a23 6601     		.2byte	0x166
 12389 3a25 03       		.byte	0x3
 12390 3a26 383A0000 		.4byte	0x3a38
 12391 3a2a 51       		.uleb128 0x51
 12392 3a2b 51020000 		.4byte	.LASF292
 12393 3a2f 483A0000 		.4byte	0x3a48
 12394 3a33 73080000 		.4byte	.LASF353
 12395 3a37 00       		.byte	0
 12396 3a38 0A       		.uleb128 0xa
 12397 3a39 68010000 		.4byte	0x168
 12398 3a3d 483A0000 		.4byte	0x3a48
 12399 3a41 0B       		.uleb128 0xb
 12400 3a42 3E000000 		.4byte	0x3e
 12401 3a46 0B       		.byte	0xb
 12402 3a47 00       		.byte	0
 12403 3a48 0F       		.uleb128 0xf
 12404 3a49 383A0000 		.4byte	0x3a38
 12405 3a4d 52       		.uleb128 0x52
 12406 3a4e 9E080000 		.4byte	.LASF350
 12407 3a52 03       		.byte	0x3
 12408 3a53 5A01     		.2byte	0x15a
 12409 3a55 03       		.byte	0x3
 12410 3a56 52       		.uleb128 0x52
 12411 3a57 41040000 		.4byte	.LASF351
 12412 3a5b 12       		.byte	0x12
 12413 3a5c CA01     		.2byte	0x1ca
ARM GAS  /var/folders/d2/nstgp4h54kz7g1l847x_b8wc0000gn/T//ccW13lHv.s 			page 220


 12414 3a5e 03       		.byte	0x3
 12415 3a5f 52       		.uleb128 0x52
 12416 3a60 760F0000 		.4byte	.LASF352
 12417 3a64 12       		.byte	0x12
 12418 3a65 BC01     		.2byte	0x1bc
 12419 3a67 03       		.byte	0x3
 12420 3a68 50       		.uleb128 0x50
 12421 3a69 B70E0000 		.4byte	.LASF354
 12422 3a6d 02       		.byte	0x2
 12423 3a6e 2002     		.2byte	0x220
 12424 3a70 03       		.byte	0x3
 12425 3a71 823A0000 		.4byte	0x3a82
 12426 3a75 3A       		.uleb128 0x3a
 12427 3a76 BF060000 		.4byte	.LASF146
 12428 3a7a 02       		.byte	0x2
 12429 3a7b 2002     		.2byte	0x220
 12430 3a7d 08090000 		.4byte	0x908
 12431 3a81 00       		.byte	0
 12432 3a82 53       		.uleb128 0x53
 12433 3a83 B4390000 		.4byte	0x39b4
 12434 3a87 00000000 		.4byte	.LFB298
 12435 3a8b 8C000000 		.4byte	.LFE298-.LFB298
 12436 3a8f 01       		.uleb128 0x1
 12437 3a90 9C       		.byte	0x9c
 12438 3a91 AB3B0000 		.4byte	0x3bab
 12439 3a95 2C       		.uleb128 0x2c
 12440 3a96 C4390000 		.4byte	0x39c4
 12441 3a9a 5D1B0000 		.4byte	.LLST0
 12442 3a9e 2C       		.uleb128 0x2c
 12443 3a9f CE390000 		.4byte	0x39ce
 12444 3aa3 891B0000 		.4byte	.LLST1
 12445 3aa7 2C       		.uleb128 0x2c
 12446 3aa8 D9390000 		.4byte	0x39d9
 12447 3aac A71B0000 		.4byte	.LLST2
 12448 3ab0 4A       		.uleb128 0x4a
 12449 3ab1 E4390000 		.4byte	0x39e4
 12450 3ab5 C51B0000 		.4byte	.LLST3
 12451 3ab9 45       		.uleb128 0x45
 12452 3aba 4D3A0000 		.4byte	0x3a4d
 12453 3abe 16000000 		.4byte	.LBB185
 12454 3ac2 0E000000 		.4byte	.LBE185-.LBB185
 12455 3ac6 01       		.byte	0x1
 12456 3ac7 35       		.byte	0x35
 12457 3ac8 0E3B0000 		.4byte	0x3b0e
 12458 3acc 2A       		.uleb128 0x2a
 12459 3acd 5F3A0000 		.4byte	0x3a5f
 12460 3ad1 16000000 		.4byte	.LBB187
 12461 3ad5 06000000 		.4byte	.LBE187-.LBB187
 12462 3ad9 03       		.byte	0x3
 12463 3ada 5C01     		.2byte	0x15c
 12464 3adc FB3A0000 		.4byte	0x3afb
 12465 3ae0 2B       		.uleb128 0x2b
 12466 3ae1 683A0000 		.4byte	0x3a68
 12467 3ae5 16000000 		.4byte	.LBB188
 12468 3ae9 06000000 		.4byte	.LBE188-.LBB188
 12469 3aed 12       		.byte	0x12
 12470 3aee BF01     		.2byte	0x1bf
ARM GAS  /var/folders/d2/nstgp4h54kz7g1l847x_b8wc0000gn/T//ccW13lHv.s 			page 221


 12471 3af0 2C       		.uleb128 0x2c
 12472 3af1 753A0000 		.4byte	0x3a75
 12473 3af5 041C0000 		.4byte	.LLST4
 12474 3af9 00       		.byte	0
 12475 3afa 00       		.byte	0
 12476 3afb 2D       		.uleb128 0x2d
 12477 3afc 20000000 		.4byte	.LVL3
 12478 3b00 D0400000 		.4byte	0x40d0
 12479 3b04 2D       		.uleb128 0x2d
 12480 3b05 24000000 		.4byte	.LVL4
 12481 3b09 DB400000 		.4byte	0x40db
 12482 3b0d 00       		.byte	0
 12483 3b0e 46       		.uleb128 0x46
 12484 3b0f 1D3A0000 		.4byte	0x3a1d
 12485 3b13 26000000 		.4byte	.LBB190
 12486 3b17 00000000 		.4byte	.Ldebug_ranges0+0
 12487 3b1b 01       		.byte	0x1
 12488 3b1c 37       		.byte	0x37
 12489 3b1d 813B0000 		.4byte	0x3b81
 12490 3b21 2F       		.uleb128 0x2f
 12491 3b22 00000000 		.4byte	.Ldebug_ranges0+0
 12492 3b26 30       		.uleb128 0x30
 12493 3b27 2A3A0000 		.4byte	0x3a2a
 12494 3b2b 2A       		.uleb128 0x2a
 12495 3b2c 563A0000 		.4byte	0x3a56
 12496 3b30 40000000 		.4byte	.LBB192
 12497 3b34 06000000 		.4byte	.LBE192-.LBB192
 12498 3b38 03       		.byte	0x3
 12499 3b39 7301     		.2byte	0x173
 12500 3b3b 5A3B0000 		.4byte	0x3b5a
 12501 3b3f 2B       		.uleb128 0x2b
 12502 3b40 683A0000 		.4byte	0x3a68
 12503 3b44 40000000 		.4byte	.LBB193
 12504 3b48 06000000 		.4byte	.LBE193-.LBB193
 12505 3b4c 12       		.byte	0x12
 12506 3b4d CD01     		.2byte	0x1cd
 12507 3b4f 2C       		.uleb128 0x2c
 12508 3b50 753A0000 		.4byte	0x3a75
 12509 3b54 191C0000 		.4byte	.LLST5
 12510 3b58 00       		.byte	0
 12511 3b59 00       		.byte	0
 12512 3b5a 2D       		.uleb128 0x2d
 12513 3b5b 2A000000 		.4byte	.LVL6
 12514 3b5f E6400000 		.4byte	0x40e6
 12515 3b63 2D       		.uleb128 0x2d
 12516 3b64 2E000000 		.4byte	.LVL7
 12517 3b68 F1400000 		.4byte	0x40f1
 12518 3b6c 31       		.uleb128 0x31
 12519 3b6d 78000000 		.4byte	.LVL14
 12520 3b71 FC400000 		.4byte	0x40fc
 12521 3b75 32       		.uleb128 0x32
 12522 3b76 01       		.uleb128 0x1
 12523 3b77 50       		.byte	0x50
 12524 3b78 05       		.uleb128 0x5
 12525 3b79 03       		.byte	0x3
 12526 3b7a 00000000 		.4byte	.LANCHOR0
 12527 3b7e 00       		.byte	0
ARM GAS  /var/folders/d2/nstgp4h54kz7g1l847x_b8wc0000gn/T//ccW13lHv.s 			page 222


 12528 3b7f 00       		.byte	0
 12529 3b80 00       		.byte	0
 12530 3b81 33       		.uleb128 0x33
 12531 3b82 54000000 		.4byte	.LVL10
 12532 3b86 36410000 		.4byte	0x4136
 12533 3b8a A13B0000 		.4byte	0x3ba1
 12534 3b8e 32       		.uleb128 0x32
 12535 3b8f 01       		.uleb128 0x1
 12536 3b90 50       		.byte	0x50
 12537 3b91 02       		.uleb128 0x2
 12538 3b92 77       		.byte	0x77
 12539 3b93 00       		.sleb128 0
 12540 3b94 32       		.uleb128 0x32
 12541 3b95 01       		.uleb128 0x1
 12542 3b96 51       		.byte	0x51
 12543 3b97 02       		.uleb128 0x2
 12544 3b98 75       		.byte	0x75
 12545 3b99 00       		.sleb128 0
 12546 3b9a 32       		.uleb128 0x32
 12547 3b9b 01       		.uleb128 0x1
 12548 3b9c 52       		.byte	0x52
 12549 3b9d 02       		.uleb128 0x2
 12550 3b9e 76       		.byte	0x76
 12551 3b9f 00       		.sleb128 0
 12552 3ba0 00       		.byte	0
 12553 3ba1 2D       		.uleb128 0x2d
 12554 3ba2 7E000000 		.4byte	.LVL16
 12555 3ba6 17410000 		.4byte	0x4117
 12556 3baa 00       		.byte	0
 12557 3bab 53       		.uleb128 0x53
 12558 3bac 17300000 		.4byte	0x3017
 12559 3bb0 00000000 		.4byte	.LFB262
 12560 3bb4 C4000000 		.4byte	.LFE262-.LFB262
 12561 3bb8 01       		.uleb128 0x1
 12562 3bb9 9C       		.byte	0x9c
 12563 3bba 993D0000 		.4byte	0x3d99
 12564 3bbe 2C       		.uleb128 0x2c
 12565 3bbf 23300000 		.4byte	0x3023
 12566 3bc3 2D1C0000 		.4byte	.LLST56
 12567 3bc7 54       		.uleb128 0x54
 12568 3bc8 2C300000 		.4byte	0x302c
 12569 3bcc 01       		.uleb128 0x1
 12570 3bcd 55       		.byte	0x55
 12571 3bce 30       		.uleb128 0x30
 12572 3bcf 37300000 		.4byte	0x3037
 12573 3bd3 46       		.uleb128 0x46
 12574 3bd4 4D3A0000 		.4byte	0x3a4d
 12575 3bd8 12000000 		.4byte	.LBB387
 12576 3bdc 40010000 		.4byte	.Ldebug_ranges0+0x140
 12577 3be0 01       		.byte	0x1
 12578 3be1 C3       		.byte	0xc3
 12579 3be2 283C0000 		.4byte	0x3c28
 12580 3be6 2A       		.uleb128 0x2a
 12581 3be7 5F3A0000 		.4byte	0x3a5f
 12582 3beb 12000000 		.4byte	.LBB389
 12583 3bef 06000000 		.4byte	.LBE389-.LBB389
 12584 3bf3 03       		.byte	0x3
ARM GAS  /var/folders/d2/nstgp4h54kz7g1l847x_b8wc0000gn/T//ccW13lHv.s 			page 223


 12585 3bf4 5C01     		.2byte	0x15c
 12586 3bf6 153C0000 		.4byte	0x3c15
 12587 3bfa 2B       		.uleb128 0x2b
 12588 3bfb 683A0000 		.4byte	0x3a68
 12589 3bff 12000000 		.4byte	.LBB390
 12590 3c03 06000000 		.4byte	.LBE390-.LBB390
 12591 3c07 12       		.byte	0x12
 12592 3c08 BF01     		.2byte	0x1bf
 12593 3c0a 2C       		.uleb128 0x2c
 12594 3c0b 753A0000 		.4byte	0x3a75
 12595 3c0f 4B1C0000 		.4byte	.LLST57
 12596 3c13 00       		.byte	0
 12597 3c14 00       		.byte	0
 12598 3c15 2D       		.uleb128 0x2d
 12599 3c16 1C000000 		.4byte	.LVL150
 12600 3c1a D0400000 		.4byte	0x40d0
 12601 3c1e 2D       		.uleb128 0x2d
 12602 3c1f 24000000 		.4byte	.LVL151
 12603 3c23 DB400000 		.4byte	0x40db
 12604 3c27 00       		.byte	0
 12605 3c28 46       		.uleb128 0x46
 12606 3c29 1D3A0000 		.4byte	0x3a1d
 12607 3c2d 1C000000 		.4byte	.LBB393
 12608 3c31 58010000 		.4byte	.Ldebug_ranges0+0x158
 12609 3c35 01       		.byte	0x1
 12610 3c36 C6       		.byte	0xc6
 12611 3c37 9B3C0000 		.4byte	0x3c9b
 12612 3c3b 2F       		.uleb128 0x2f
 12613 3c3c 58010000 		.4byte	.Ldebug_ranges0+0x158
 12614 3c40 30       		.uleb128 0x30
 12615 3c41 2A3A0000 		.4byte	0x3a2a
 12616 3c45 2A       		.uleb128 0x2a
 12617 3c46 563A0000 		.4byte	0x3a56
 12618 3c4a 46000000 		.4byte	.LBB395
 12619 3c4e 06000000 		.4byte	.LBE395-.LBB395
 12620 3c52 03       		.byte	0x3
 12621 3c53 7301     		.2byte	0x173
 12622 3c55 743C0000 		.4byte	0x3c74
 12623 3c59 2B       		.uleb128 0x2b
 12624 3c5a 683A0000 		.4byte	0x3a68
 12625 3c5e 46000000 		.4byte	.LBB396
 12626 3c62 06000000 		.4byte	.LBE396-.LBB396
 12627 3c66 12       		.byte	0x12
 12628 3c67 CD01     		.2byte	0x1cd
 12629 3c69 2C       		.uleb128 0x2c
 12630 3c6a 753A0000 		.4byte	0x3a75
 12631 3c6e 601C0000 		.4byte	.LLST58
 12632 3c72 00       		.byte	0
 12633 3c73 00       		.byte	0
 12634 3c74 2D       		.uleb128 0x2d
 12635 3c75 2E000000 		.4byte	.LVL153
 12636 3c79 E6400000 		.4byte	0x40e6
 12637 3c7d 2D       		.uleb128 0x2d
 12638 3c7e 32000000 		.4byte	.LVL154
 12639 3c82 F1400000 		.4byte	0x40f1
 12640 3c86 31       		.uleb128 0x31
 12641 3c87 B0000000 		.4byte	.LVL170
ARM GAS  /var/folders/d2/nstgp4h54kz7g1l847x_b8wc0000gn/T//ccW13lHv.s 			page 224


 12642 3c8b FC400000 		.4byte	0x40fc
 12643 3c8f 32       		.uleb128 0x32
 12644 3c90 01       		.uleb128 0x1
 12645 3c91 50       		.byte	0x50
 12646 3c92 05       		.uleb128 0x5
 12647 3c93 03       		.byte	0x3
 12648 3c94 00000000 		.4byte	.LANCHOR0
 12649 3c98 00       		.byte	0
 12650 3c99 00       		.byte	0
 12651 3c9a 00       		.byte	0
 12652 3c9b 55       		.uleb128 0x55
 12653 3c9c 17300000 		.4byte	0x3017
 12654 3ca0 4E000000 		.4byte	.LBB402
 12655 3ca4 4C000000 		.4byte	.LBE402-.LBB402
 12656 3ca8 8F3D0000 		.4byte	0x3d8f
 12657 3cac 2C       		.uleb128 0x2c
 12658 3cad 23300000 		.4byte	0x3023
 12659 3cb1 741C0000 		.4byte	.LLST59
 12660 3cb5 4D       		.uleb128 0x4d
 12661 3cb6 4E000000 		.4byte	.LBB403
 12662 3cba 4C000000 		.4byte	.LBE403-.LBB403
 12663 3cbe 30       		.uleb128 0x30
 12664 3cbf C73B0000 		.4byte	0x3bc7
 12665 3cc3 4A       		.uleb128 0x4a
 12666 3cc4 CE3B0000 		.4byte	0x3bce
 12667 3cc8 871C0000 		.4byte	.LLST60
 12668 3ccc 46       		.uleb128 0x46
 12669 3ccd 1D3A0000 		.4byte	0x3a1d
 12670 3cd1 52000000 		.4byte	.LBB404
 12671 3cd5 78010000 		.4byte	.Ldebug_ranges0+0x178
 12672 3cd9 01       		.byte	0x1
 12673 3cda D0       		.byte	0xd0
 12674 3cdb 3C3D0000 		.4byte	0x3d3c
 12675 3cdf 2F       		.uleb128 0x2f
 12676 3ce0 78010000 		.4byte	.Ldebug_ranges0+0x178
 12677 3ce4 30       		.uleb128 0x30
 12678 3ce5 2A3A0000 		.4byte	0x3a2a
 12679 3ce9 2A       		.uleb128 0x2a
 12680 3cea 563A0000 		.4byte	0x3a56
 12681 3cee 8C000000 		.4byte	.LBB406
 12682 3cf2 04000000 		.4byte	.LBE406-.LBB406
 12683 3cf6 03       		.byte	0x3
 12684 3cf7 7301     		.2byte	0x173
 12685 3cf9 183D0000 		.4byte	0x3d18
 12686 3cfd 2B       		.uleb128 0x2b
 12687 3cfe 683A0000 		.4byte	0x3a68
 12688 3d02 8C000000 		.4byte	.LBB407
 12689 3d06 04000000 		.4byte	.LBE407-.LBB407
 12690 3d0a 12       		.byte	0x12
 12691 3d0b CD01     		.2byte	0x1cd
 12692 3d0d 2C       		.uleb128 0x2c
 12693 3d0e 753A0000 		.4byte	0x3a75
 12694 3d12 9A1C0000 		.4byte	.LLST61
 12695 3d16 00       		.byte	0
 12696 3d17 00       		.byte	0
 12697 3d18 2D       		.uleb128 0x2d
 12698 3d19 6E000000 		.4byte	.LVL163
ARM GAS  /var/folders/d2/nstgp4h54kz7g1l847x_b8wc0000gn/T//ccW13lHv.s 			page 225


 12699 3d1d E6400000 		.4byte	0x40e6
 12700 3d21 2D       		.uleb128 0x2d
 12701 3d22 72000000 		.4byte	.LVL164
 12702 3d26 F1400000 		.4byte	0x40f1
 12703 3d2a 31       		.uleb128 0x31
 12704 3d2b 8C000000 		.4byte	.LVL165
 12705 3d2f FC400000 		.4byte	0x40fc
 12706 3d33 32       		.uleb128 0x32
 12707 3d34 01       		.uleb128 0x1
 12708 3d35 50       		.byte	0x50
 12709 3d36 02       		.uleb128 0x2
 12710 3d37 79       		.byte	0x79
 12711 3d38 00       		.sleb128 0
 12712 3d39 00       		.byte	0
 12713 3d3a 00       		.byte	0
 12714 3d3b 00       		.byte	0
 12715 3d3c 56       		.uleb128 0x56
 12716 3d3d 4D3A0000 		.4byte	0x3a4d
 12717 3d41 56000000 		.4byte	.LBB410
 12718 3d45 0E000000 		.4byte	.LBE410-.LBB410
 12719 3d49 01       		.byte	0x1
 12720 3d4a CE       		.byte	0xce
 12721 3d4b 2A       		.uleb128 0x2a
 12722 3d4c 5F3A0000 		.4byte	0x3a5f
 12723 3d50 56000000 		.4byte	.LBB412
 12724 3d54 06000000 		.4byte	.LBE412-.LBB412
 12725 3d58 03       		.byte	0x3
 12726 3d59 5C01     		.2byte	0x15c
 12727 3d5b 7A3D0000 		.4byte	0x3d7a
 12728 3d5f 2B       		.uleb128 0x2b
 12729 3d60 683A0000 		.4byte	0x3a68
 12730 3d64 56000000 		.4byte	.LBB413
 12731 3d68 06000000 		.4byte	.LBE413-.LBB413
 12732 3d6c 12       		.byte	0x12
 12733 3d6d BF01     		.2byte	0x1bf
 12734 3d6f 2C       		.uleb128 0x2c
 12735 3d70 753A0000 		.4byte	0x3a75
 12736 3d74 AE1C0000 		.4byte	.LLST62
 12737 3d78 00       		.byte	0
 12738 3d79 00       		.byte	0
 12739 3d7a 2D       		.uleb128 0x2d
 12740 3d7b 60000000 		.4byte	.LVL161
 12741 3d7f D0400000 		.4byte	0x40d0
 12742 3d83 2D       		.uleb128 0x2d
 12743 3d84 64000000 		.4byte	.LVL162
 12744 3d88 DB400000 		.4byte	0x40db
 12745 3d8c 00       		.byte	0
 12746 3d8d 00       		.byte	0
 12747 3d8e 00       		.byte	0
 12748 3d8f 2D       		.uleb128 0x2d
 12749 3d90 B6000000 		.4byte	.LVL171
 12750 3d94 17410000 		.4byte	0x4117
 12751 3d98 00       		.byte	0
 12752 3d99 53       		.uleb128 0x53
 12753 3d9a EC2F0000 		.4byte	0x2fec
 12754 3d9e 00000000 		.4byte	.LFB263
 12755 3da2 B4000000 		.4byte	.LFE263-.LFB263
ARM GAS  /var/folders/d2/nstgp4h54kz7g1l847x_b8wc0000gn/T//ccW13lHv.s 			page 226


 12756 3da6 01       		.uleb128 0x1
 12757 3da7 9C       		.byte	0x9c
 12758 3da8 893F0000 		.4byte	0x3f89
 12759 3dac 2C       		.uleb128 0x2c
 12760 3dad F82F0000 		.4byte	0x2ff8
 12761 3db1 C31C0000 		.4byte	.LLST63
 12762 3db5 4A       		.uleb128 0x4a
 12763 3db6 01300000 		.4byte	0x3001
 12764 3dba 081D0000 		.4byte	.LLST64
 12765 3dbe 30       		.uleb128 0x30
 12766 3dbf 0C300000 		.4byte	0x300c
 12767 3dc3 46       		.uleb128 0x46
 12768 3dc4 4D3A0000 		.4byte	0x3a4d
 12769 3dc8 12000000 		.4byte	.LBB444
 12770 3dcc 90010000 		.4byte	.Ldebug_ranges0+0x190
 12771 3dd0 01       		.byte	0x1
 12772 3dd1 D8       		.byte	0xd8
 12773 3dd2 183E0000 		.4byte	0x3e18
 12774 3dd6 2A       		.uleb128 0x2a
 12775 3dd7 5F3A0000 		.4byte	0x3a5f
 12776 3ddb 12000000 		.4byte	.LBB446
 12777 3ddf 06000000 		.4byte	.LBE446-.LBB446
 12778 3de3 03       		.byte	0x3
 12779 3de4 5C01     		.2byte	0x15c
 12780 3de6 053E0000 		.4byte	0x3e05
 12781 3dea 2B       		.uleb128 0x2b
 12782 3deb 683A0000 		.4byte	0x3a68
 12783 3def 12000000 		.4byte	.LBB447
 12784 3df3 06000000 		.4byte	.LBE447-.LBB447
 12785 3df7 12       		.byte	0x12
 12786 3df8 BF01     		.2byte	0x1bf
 12787 3dfa 2C       		.uleb128 0x2c
 12788 3dfb 753A0000 		.4byte	0x3a75
 12789 3dff 261D0000 		.4byte	.LLST65
 12790 3e03 00       		.byte	0
 12791 3e04 00       		.byte	0
 12792 3e05 2D       		.uleb128 0x2d
 12793 3e06 1C000000 		.4byte	.LVL175
 12794 3e0a D0400000 		.4byte	0x40d0
 12795 3e0e 2D       		.uleb128 0x2d
 12796 3e0f 22000000 		.4byte	.LVL176
 12797 3e13 DB400000 		.4byte	0x40db
 12798 3e17 00       		.byte	0
 12799 3e18 46       		.uleb128 0x46
 12800 3e19 1D3A0000 		.4byte	0x3a1d
 12801 3e1d 1C000000 		.4byte	.LBB450
 12802 3e21 A8010000 		.4byte	.Ldebug_ranges0+0x1a8
 12803 3e25 01       		.byte	0x1
 12804 3e26 DB       		.byte	0xdb
 12805 3e27 8B3E0000 		.4byte	0x3e8b
 12806 3e2b 2F       		.uleb128 0x2f
 12807 3e2c A8010000 		.4byte	.Ldebug_ranges0+0x1a8
 12808 3e30 30       		.uleb128 0x30
 12809 3e31 2A3A0000 		.4byte	0x3a2a
 12810 3e35 2A       		.uleb128 0x2a
 12811 3e36 563A0000 		.4byte	0x3a56
 12812 3e3a 40000000 		.4byte	.LBB452
ARM GAS  /var/folders/d2/nstgp4h54kz7g1l847x_b8wc0000gn/T//ccW13lHv.s 			page 227


 12813 3e3e 06000000 		.4byte	.LBE452-.LBB452
 12814 3e42 03       		.byte	0x3
 12815 3e43 7301     		.2byte	0x173
 12816 3e45 643E0000 		.4byte	0x3e64
 12817 3e49 2B       		.uleb128 0x2b
 12818 3e4a 683A0000 		.4byte	0x3a68
 12819 3e4e 40000000 		.4byte	.LBB453
 12820 3e52 06000000 		.4byte	.LBE453-.LBB453
 12821 3e56 12       		.byte	0x12
 12822 3e57 CD01     		.2byte	0x1cd
 12823 3e59 2C       		.uleb128 0x2c
 12824 3e5a 753A0000 		.4byte	0x3a75
 12825 3e5e 3B1D0000 		.4byte	.LLST66
 12826 3e62 00       		.byte	0
 12827 3e63 00       		.byte	0
 12828 3e64 2D       		.uleb128 0x2d
 12829 3e65 2C000000 		.4byte	.LVL178
 12830 3e69 E6400000 		.4byte	0x40e6
 12831 3e6d 2D       		.uleb128 0x2d
 12832 3e6e 30000000 		.4byte	.LVL179
 12833 3e72 F1400000 		.4byte	0x40f1
 12834 3e76 31       		.uleb128 0x31
 12835 3e77 A2000000 		.4byte	.LVL195
 12836 3e7b FC400000 		.4byte	0x40fc
 12837 3e7f 32       		.uleb128 0x32
 12838 3e80 01       		.uleb128 0x1
 12839 3e81 50       		.byte	0x50
 12840 3e82 05       		.uleb128 0x5
 12841 3e83 03       		.byte	0x3
 12842 3e84 00000000 		.4byte	.LANCHOR0
 12843 3e88 00       		.byte	0
 12844 3e89 00       		.byte	0
 12845 3e8a 00       		.byte	0
 12846 3e8b 55       		.uleb128 0x55
 12847 3e8c EC2F0000 		.4byte	0x2fec
 12848 3e90 48000000 		.4byte	.LBB459
 12849 3e94 44000000 		.4byte	.LBE459-.LBB459
 12850 3e98 7F3F0000 		.4byte	0x3f7f
 12851 3e9c 2C       		.uleb128 0x2c
 12852 3e9d F82F0000 		.4byte	0x2ff8
 12853 3ea1 4F1D0000 		.4byte	.LLST67
 12854 3ea5 4D       		.uleb128 0x4d
 12855 3ea6 48000000 		.4byte	.LBB460
 12856 3eaa 44000000 		.4byte	.LBE460-.LBB460
 12857 3eae 30       		.uleb128 0x30
 12858 3eaf B53D0000 		.4byte	0x3db5
 12859 3eb3 4A       		.uleb128 0x4a
 12860 3eb4 BE3D0000 		.4byte	0x3dbe
 12861 3eb8 701D0000 		.4byte	.LLST68
 12862 3ebc 46       		.uleb128 0x46
 12863 3ebd 1D3A0000 		.4byte	0x3a1d
 12864 3ec1 4C000000 		.4byte	.LBB461
 12865 3ec5 C8010000 		.4byte	.Ldebug_ranges0+0x1c8
 12866 3ec9 01       		.byte	0x1
 12867 3eca E5       		.byte	0xe5
 12868 3ecb 2C3F0000 		.4byte	0x3f2c
 12869 3ecf 2F       		.uleb128 0x2f
ARM GAS  /var/folders/d2/nstgp4h54kz7g1l847x_b8wc0000gn/T//ccW13lHv.s 			page 228


 12870 3ed0 C8010000 		.4byte	.Ldebug_ranges0+0x1c8
 12871 3ed4 30       		.uleb128 0x30
 12872 3ed5 2A3A0000 		.4byte	0x3a2a
 12873 3ed9 2A       		.uleb128 0x2a
 12874 3eda 563A0000 		.4byte	0x3a56
 12875 3ede 82000000 		.4byte	.LBB463
 12876 3ee2 04000000 		.4byte	.LBE463-.LBB463
 12877 3ee6 03       		.byte	0x3
 12878 3ee7 7301     		.2byte	0x173
 12879 3ee9 083F0000 		.4byte	0x3f08
 12880 3eed 2B       		.uleb128 0x2b
 12881 3eee 683A0000 		.4byte	0x3a68
 12882 3ef2 82000000 		.4byte	.LBB464
 12883 3ef6 04000000 		.4byte	.LBE464-.LBB464
 12884 3efa 12       		.byte	0x12
 12885 3efb CD01     		.2byte	0x1cd
 12886 3efd 2C       		.uleb128 0x2c
 12887 3efe 753A0000 		.4byte	0x3a75
 12888 3f02 831D0000 		.4byte	.LLST69
 12889 3f06 00       		.byte	0
 12890 3f07 00       		.byte	0
 12891 3f08 2D       		.uleb128 0x2d
 12892 3f09 68000000 		.4byte	.LVL188
 12893 3f0d E6400000 		.4byte	0x40e6
 12894 3f11 2D       		.uleb128 0x2d
 12895 3f12 6C000000 		.4byte	.LVL189
 12896 3f16 F1400000 		.4byte	0x40f1
 12897 3f1a 31       		.uleb128 0x31
 12898 3f1b 82000000 		.4byte	.LVL190
 12899 3f1f FC400000 		.4byte	0x40fc
 12900 3f23 32       		.uleb128 0x32
 12901 3f24 01       		.uleb128 0x1
 12902 3f25 50       		.byte	0x50
 12903 3f26 02       		.uleb128 0x2
 12904 3f27 79       		.byte	0x79
 12905 3f28 00       		.sleb128 0
 12906 3f29 00       		.byte	0
 12907 3f2a 00       		.byte	0
 12908 3f2b 00       		.byte	0
 12909 3f2c 56       		.uleb128 0x56
 12910 3f2d 4D3A0000 		.4byte	0x3a4d
 12911 3f31 50000000 		.4byte	.LBB467
 12912 3f35 0E000000 		.4byte	.LBE467-.LBB467
 12913 3f39 01       		.byte	0x1
 12914 3f3a E3       		.byte	0xe3
 12915 3f3b 2A       		.uleb128 0x2a
 12916 3f3c 5F3A0000 		.4byte	0x3a5f
 12917 3f40 50000000 		.4byte	.LBB469
 12918 3f44 06000000 		.4byte	.LBE469-.LBB469
 12919 3f48 03       		.byte	0x3
 12920 3f49 5C01     		.2byte	0x15c
 12921 3f4b 6A3F0000 		.4byte	0x3f6a
 12922 3f4f 2B       		.uleb128 0x2b
 12923 3f50 683A0000 		.4byte	0x3a68
 12924 3f54 50000000 		.4byte	.LBB470
 12925 3f58 06000000 		.4byte	.LBE470-.LBB470
 12926 3f5c 12       		.byte	0x12
ARM GAS  /var/folders/d2/nstgp4h54kz7g1l847x_b8wc0000gn/T//ccW13lHv.s 			page 229


 12927 3f5d BF01     		.2byte	0x1bf
 12928 3f5f 2C       		.uleb128 0x2c
 12929 3f60 753A0000 		.4byte	0x3a75
 12930 3f64 971D0000 		.4byte	.LLST70
 12931 3f68 00       		.byte	0
 12932 3f69 00       		.byte	0
 12933 3f6a 2D       		.uleb128 0x2d
 12934 3f6b 5A000000 		.4byte	.LVL186
 12935 3f6f D0400000 		.4byte	0x40d0
 12936 3f73 2D       		.uleb128 0x2d
 12937 3f74 5E000000 		.4byte	.LVL187
 12938 3f78 DB400000 		.4byte	0x40db
 12939 3f7c 00       		.byte	0
 12940 3f7d 00       		.byte	0
 12941 3f7e 00       		.byte	0
 12942 3f7f 2D       		.uleb128 0x2d
 12943 3f80 A8000000 		.4byte	.LVL197
 12944 3f84 17410000 		.4byte	0x4117
 12945 3f88 00       		.byte	0
 12946 3f89 53       		.uleb128 0x53
 12947 3f8a E1230000 		.4byte	0x23e1
 12948 3f8e 00000000 		.4byte	.LFB279
 12949 3f92 34000000 		.4byte	.LFE279-.LFB279
 12950 3f96 01       		.uleb128 0x1
 12951 3f97 9C       		.byte	0x9c
 12952 3f98 F63F0000 		.4byte	0x3ff6
 12953 3f9c 2C       		.uleb128 0x2c
 12954 3f9d EE230000 		.4byte	0x23ee
 12955 3fa1 AC1D0000 		.4byte	.LLST118
 12956 3fa5 2C       		.uleb128 0x2c
 12957 3fa6 F8230000 		.4byte	0x23f8
 12958 3faa E61D0000 		.4byte	.LLST119
 12959 3fae 2C       		.uleb128 0x2c
 12960 3faf 03240000 		.4byte	0x2403
 12961 3fb3 201E0000 		.4byte	.LLST120
 12962 3fb7 2C       		.uleb128 0x2c
 12963 3fb8 0E240000 		.4byte	0x240e
 12964 3fbc 5A1E0000 		.4byte	.LLST121
 12965 3fc0 2C       		.uleb128 0x2c
 12966 3fc1 1A240000 		.4byte	0x241a
 12967 3fc5 941E0000 		.4byte	.LLST122
 12968 3fc9 34       		.uleb128 0x34
 12969 3fca 2C000000 		.4byte	.LVL333
 12970 3fce 60330000 		.4byte	0x3360
 12971 3fd2 EC3F0000 		.4byte	0x3fec
 12972 3fd6 32       		.uleb128 0x32
 12973 3fd7 01       		.uleb128 0x1
 12974 3fd8 50       		.byte	0x50
 12975 3fd9 03       		.uleb128 0x3
 12976 3fda F3       		.byte	0xf3
 12977 3fdb 01       		.uleb128 0x1
 12978 3fdc 50       		.byte	0x50
 12979 3fdd 32       		.uleb128 0x32
 12980 3fde 01       		.uleb128 0x1
 12981 3fdf 51       		.byte	0x51
 12982 3fe0 03       		.uleb128 0x3
 12983 3fe1 F3       		.byte	0xf3
ARM GAS  /var/folders/d2/nstgp4h54kz7g1l847x_b8wc0000gn/T//ccW13lHv.s 			page 230


 12984 3fe2 01       		.uleb128 0x1
 12985 3fe3 51       		.byte	0x51
 12986 3fe4 32       		.uleb128 0x32
 12987 3fe5 01       		.uleb128 0x1
 12988 3fe6 52       		.byte	0x52
 12989 3fe7 03       		.uleb128 0x3
 12990 3fe8 F3       		.byte	0xf3
 12991 3fe9 01       		.uleb128 0x1
 12992 3fea 52       		.byte	0x52
 12993 3feb 00       		.byte	0
 12994 3fec 2D       		.uleb128 0x2d
 12995 3fed 30000000 		.4byte	.LVL334
 12996 3ff1 17410000 		.4byte	0x4117
 12997 3ff5 00       		.byte	0
 12998 3ff6 53       		.uleb128 0x53
 12999 3ff7 3D1F0000 		.4byte	0x1f3d
 13000 3ffb 00000000 		.4byte	.LFB285
 13001 3fff 34000000 		.4byte	.LFE285-.LFB285
 13002 4003 01       		.uleb128 0x1
 13003 4004 9C       		.byte	0x9c
 13004 4005 63400000 		.4byte	0x4063
 13005 4009 2C       		.uleb128 0x2c
 13006 400a 4A1F0000 		.4byte	0x1f4a
 13007 400e C01E0000 		.4byte	.LLST146
 13008 4012 2C       		.uleb128 0x2c
 13009 4013 541F0000 		.4byte	0x1f54
 13010 4017 FA1E0000 		.4byte	.LLST147
 13011 401b 2C       		.uleb128 0x2c
 13012 401c 5F1F0000 		.4byte	0x1f5f
 13013 4020 341F0000 		.4byte	.LLST148
 13014 4024 2C       		.uleb128 0x2c
 13015 4025 6A1F0000 		.4byte	0x1f6a
 13016 4029 6E1F0000 		.4byte	.LLST149
 13017 402d 2C       		.uleb128 0x2c
 13018 402e 761F0000 		.4byte	0x1f76
 13019 4032 A81F0000 		.4byte	.LLST150
 13020 4036 34       		.uleb128 0x34
 13021 4037 2C000000 		.4byte	.LVL388
 13022 403b 60330000 		.4byte	0x3360
 13023 403f 59400000 		.4byte	0x4059
 13024 4043 32       		.uleb128 0x32
 13025 4044 01       		.uleb128 0x1
 13026 4045 50       		.byte	0x50
 13027 4046 03       		.uleb128 0x3
 13028 4047 F3       		.byte	0xf3
 13029 4048 01       		.uleb128 0x1
 13030 4049 50       		.byte	0x50
 13031 404a 32       		.uleb128 0x32
 13032 404b 01       		.uleb128 0x1
 13033 404c 51       		.byte	0x51
 13034 404d 03       		.uleb128 0x3
 13035 404e F3       		.byte	0xf3
 13036 404f 01       		.uleb128 0x1
 13037 4050 51       		.byte	0x51
 13038 4051 32       		.uleb128 0x32
 13039 4052 01       		.uleb128 0x1
 13040 4053 52       		.byte	0x52
ARM GAS  /var/folders/d2/nstgp4h54kz7g1l847x_b8wc0000gn/T//ccW13lHv.s 			page 231


 13041 4054 03       		.uleb128 0x3
 13042 4055 F3       		.byte	0xf3
 13043 4056 01       		.uleb128 0x1
 13044 4057 52       		.byte	0x52
 13045 4058 00       		.byte	0
 13046 4059 2D       		.uleb128 0x2d
 13047 405a 30000000 		.4byte	.LVL389
 13048 405e 17410000 		.4byte	0x4117
 13049 4062 00       		.byte	0
 13050 4063 53       		.uleb128 0x53
 13051 4064 DF190000 		.4byte	0x19df
 13052 4068 00000000 		.4byte	.LFB291
 13053 406c 34000000 		.4byte	.LFE291-.LFB291
 13054 4070 01       		.uleb128 0x1
 13055 4071 9C       		.byte	0x9c
 13056 4072 D0400000 		.4byte	0x40d0
 13057 4076 2C       		.uleb128 0x2c
 13058 4077 EC190000 		.4byte	0x19ec
 13059 407b D41F0000 		.4byte	.LLST177
 13060 407f 2C       		.uleb128 0x2c
 13061 4080 F6190000 		.4byte	0x19f6
 13062 4084 0E200000 		.4byte	.LLST178
 13063 4088 2C       		.uleb128 0x2c
 13064 4089 011A0000 		.4byte	0x1a01
 13065 408d 48200000 		.4byte	.LLST179
 13066 4091 2C       		.uleb128 0x2c
 13067 4092 0C1A0000 		.4byte	0x1a0c
 13068 4096 82200000 		.4byte	.LLST180
 13069 409a 2C       		.uleb128 0x2c
 13070 409b 181A0000 		.4byte	0x1a18
 13071 409f BC200000 		.4byte	.LLST181
 13072 40a3 34       		.uleb128 0x34
 13073 40a4 2C000000 		.4byte	.LVL446
 13074 40a8 60330000 		.4byte	0x3360
 13075 40ac C6400000 		.4byte	0x40c6
 13076 40b0 32       		.uleb128 0x32
 13077 40b1 01       		.uleb128 0x1
 13078 40b2 50       		.byte	0x50
 13079 40b3 03       		.uleb128 0x3
 13080 40b4 F3       		.byte	0xf3
 13081 40b5 01       		.uleb128 0x1
 13082 40b6 50       		.byte	0x50
 13083 40b7 32       		.uleb128 0x32
 13084 40b8 01       		.uleb128 0x1
 13085 40b9 51       		.byte	0x51
 13086 40ba 03       		.uleb128 0x3
 13087 40bb F3       		.byte	0xf3
 13088 40bc 01       		.uleb128 0x1
 13089 40bd 51       		.byte	0x51
 13090 40be 32       		.uleb128 0x32
 13091 40bf 01       		.uleb128 0x1
 13092 40c0 52       		.byte	0x52
 13093 40c1 03       		.uleb128 0x3
 13094 40c2 F3       		.byte	0xf3
 13095 40c3 01       		.uleb128 0x1
 13096 40c4 52       		.byte	0x52
 13097 40c5 00       		.byte	0
ARM GAS  /var/folders/d2/nstgp4h54kz7g1l847x_b8wc0000gn/T//ccW13lHv.s 			page 232


 13098 40c6 2D       		.uleb128 0x2d
 13099 40c7 30000000 		.4byte	.LVL447
 13100 40cb 17410000 		.4byte	0x4117
 13101 40cf 00       		.byte	0
 13102 40d0 57       		.uleb128 0x57
 13103 40d1 3C0E0000 		.4byte	.LASF355
 13104 40d5 3C0E0000 		.4byte	.LASF355
 13105 40d9 15       		.byte	0x15
 13106 40da 4F       		.byte	0x4f
 13107 40db 57       		.uleb128 0x57
 13108 40dc 7D0E0000 		.4byte	.LASF356
 13109 40e0 7D0E0000 		.4byte	.LASF356
 13110 40e4 13       		.byte	0x13
 13111 40e5 D8       		.byte	0xd8
 13112 40e6 57       		.uleb128 0x57
 13113 40e7 9F030000 		.4byte	.LASF357
 13114 40eb 9F030000 		.4byte	.LASF357
 13115 40ef 13       		.byte	0x13
 13116 40f0 D9       		.byte	0xd9
 13117 40f1 57       		.uleb128 0x57
 13118 40f2 02050000 		.4byte	.LASF358
 13119 40f6 02050000 		.4byte	.LASF358
 13120 40fa 15       		.byte	0x15
 13121 40fb 50       		.byte	0x50
 13122 40fc 58       		.uleb128 0x58
 13123 40fd EC100000 		.4byte	.LASF359
 13124 4101 EC100000 		.4byte	.LASF359
 13125 4105 03       		.byte	0x3
 13126 4106 1601     		.2byte	0x116
 13127 4108 59       		.uleb128 0x59
 13128 4109 0E110000 		.4byte	.LASF366
 13129 410d B1030000 		.4byte	.LASF367
 13130 4111 1A       		.byte	0x1a
 13131 4112 00       		.byte	0
 13132 4113 0E110000 		.4byte	.LASF366
 13133 4117 5A       		.uleb128 0x5a
 13134 4118 620A0000 		.4byte	.LASF368
 13135 411c 620A0000 		.4byte	.LASF368
 13136 4120 57       		.uleb128 0x57
 13137 4121 E5100000 		.4byte	.LASF360
 13138 4125 E5100000 		.4byte	.LASF360
 13139 4129 19       		.byte	0x19
 13140 412a 29       		.byte	0x29
 13141 412b 57       		.uleb128 0x57
 13142 412c C50E0000 		.4byte	.LASF361
 13143 4130 C50E0000 		.4byte	.LASF361
 13144 4134 19       		.byte	0x19
 13145 4135 2C       		.byte	0x2c
 13146 4136 57       		.uleb128 0x57
 13147 4137 ED0C0000 		.4byte	.LASF362
 13148 413b ED0C0000 		.4byte	.LASF362
 13149 413f 19       		.byte	0x19
 13150 4140 2B       		.byte	0x2b
 13151 4141 00       		.byte	0
 13152              		.section	.debug_abbrev,"",%progbits
 13153              	.Ldebug_abbrev0:
 13154 0000 01       		.uleb128 0x1
ARM GAS  /var/folders/d2/nstgp4h54kz7g1l847x_b8wc0000gn/T//ccW13lHv.s 			page 233


 13155 0001 11       		.uleb128 0x11
 13156 0002 01       		.byte	0x1
 13157 0003 25       		.uleb128 0x25
 13158 0004 0E       		.uleb128 0xe
 13159 0005 13       		.uleb128 0x13
 13160 0006 0B       		.uleb128 0xb
 13161 0007 03       		.uleb128 0x3
 13162 0008 0E       		.uleb128 0xe
 13163 0009 1B       		.uleb128 0x1b
 13164 000a 0E       		.uleb128 0xe
 13165 000b 55       		.uleb128 0x55
 13166 000c 17       		.uleb128 0x17
 13167 000d 11       		.uleb128 0x11
 13168 000e 01       		.uleb128 0x1
 13169 000f 10       		.uleb128 0x10
 13170 0010 17       		.uleb128 0x17
 13171 0011 00       		.byte	0
 13172 0012 00       		.byte	0
 13173 0013 02       		.uleb128 0x2
 13174 0014 24       		.uleb128 0x24
 13175 0015 00       		.byte	0
 13176 0016 0B       		.uleb128 0xb
 13177 0017 0B       		.uleb128 0xb
 13178 0018 3E       		.uleb128 0x3e
 13179 0019 0B       		.uleb128 0xb
 13180 001a 03       		.uleb128 0x3
 13181 001b 0E       		.uleb128 0xe
 13182 001c 00       		.byte	0
 13183 001d 00       		.byte	0
 13184 001e 03       		.uleb128 0x3
 13185 001f 24       		.uleb128 0x24
 13186 0020 00       		.byte	0
 13187 0021 0B       		.uleb128 0xb
 13188 0022 0B       		.uleb128 0xb
 13189 0023 3E       		.uleb128 0x3e
 13190 0024 0B       		.uleb128 0xb
 13191 0025 03       		.uleb128 0x3
 13192 0026 08       		.uleb128 0x8
 13193 0027 00       		.byte	0
 13194 0028 00       		.byte	0
 13195 0029 04       		.uleb128 0x4
 13196 002a 16       		.uleb128 0x16
 13197 002b 00       		.byte	0
 13198 002c 03       		.uleb128 0x3
 13199 002d 0E       		.uleb128 0xe
 13200 002e 3A       		.uleb128 0x3a
 13201 002f 0B       		.uleb128 0xb
 13202 0030 3B       		.uleb128 0x3b
 13203 0031 0B       		.uleb128 0xb
 13204 0032 49       		.uleb128 0x49
 13205 0033 13       		.uleb128 0x13
 13206 0034 00       		.byte	0
 13207 0035 00       		.byte	0
 13208 0036 05       		.uleb128 0x5
 13209 0037 0F       		.uleb128 0xf
 13210 0038 00       		.byte	0
 13211 0039 0B       		.uleb128 0xb
ARM GAS  /var/folders/d2/nstgp4h54kz7g1l847x_b8wc0000gn/T//ccW13lHv.s 			page 234


 13212 003a 0B       		.uleb128 0xb
 13213 003b 49       		.uleb128 0x49
 13214 003c 13       		.uleb128 0x13
 13215 003d 00       		.byte	0
 13216 003e 00       		.byte	0
 13217 003f 06       		.uleb128 0x6
 13218 0040 13       		.uleb128 0x13
 13219 0041 00       		.byte	0
 13220 0042 03       		.uleb128 0x3
 13221 0043 0E       		.uleb128 0xe
 13222 0044 3C       		.uleb128 0x3c
 13223 0045 19       		.uleb128 0x19
 13224 0046 00       		.byte	0
 13225 0047 00       		.byte	0
 13226 0048 07       		.uleb128 0x7
 13227 0049 16       		.uleb128 0x16
 13228 004a 00       		.byte	0
 13229 004b 03       		.uleb128 0x3
 13230 004c 0E       		.uleb128 0xe
 13231 004d 3A       		.uleb128 0x3a
 13232 004e 0B       		.uleb128 0xb
 13233 004f 3B       		.uleb128 0x3b
 13234 0050 05       		.uleb128 0x5
 13235 0051 49       		.uleb128 0x49
 13236 0052 13       		.uleb128 0x13
 13237 0053 00       		.byte	0
 13238 0054 00       		.byte	0
 13239 0055 08       		.uleb128 0x8
 13240 0056 17       		.uleb128 0x17
 13241 0057 01       		.byte	0x1
 13242 0058 0B       		.uleb128 0xb
 13243 0059 0B       		.uleb128 0xb
 13244 005a 3A       		.uleb128 0x3a
 13245 005b 0B       		.uleb128 0xb
 13246 005c 3B       		.uleb128 0x3b
 13247 005d 0B       		.uleb128 0xb
 13248 005e 01       		.uleb128 0x1
 13249 005f 13       		.uleb128 0x13
 13250 0060 00       		.byte	0
 13251 0061 00       		.byte	0
 13252 0062 09       		.uleb128 0x9
 13253 0063 0D       		.uleb128 0xd
 13254 0064 00       		.byte	0
 13255 0065 03       		.uleb128 0x3
 13256 0066 0E       		.uleb128 0xe
 13257 0067 3A       		.uleb128 0x3a
 13258 0068 0B       		.uleb128 0xb
 13259 0069 3B       		.uleb128 0x3b
 13260 006a 0B       		.uleb128 0xb
 13261 006b 49       		.uleb128 0x49
 13262 006c 13       		.uleb128 0x13
 13263 006d 00       		.byte	0
 13264 006e 00       		.byte	0
 13265 006f 0A       		.uleb128 0xa
 13266 0070 01       		.uleb128 0x1
 13267 0071 01       		.byte	0x1
 13268 0072 49       		.uleb128 0x49
ARM GAS  /var/folders/d2/nstgp4h54kz7g1l847x_b8wc0000gn/T//ccW13lHv.s 			page 235


 13269 0073 13       		.uleb128 0x13
 13270 0074 01       		.uleb128 0x1
 13271 0075 13       		.uleb128 0x13
 13272 0076 00       		.byte	0
 13273 0077 00       		.byte	0
 13274 0078 0B       		.uleb128 0xb
 13275 0079 21       		.uleb128 0x21
 13276 007a 00       		.byte	0
 13277 007b 49       		.uleb128 0x49
 13278 007c 13       		.uleb128 0x13
 13279 007d 2F       		.uleb128 0x2f
 13280 007e 0B       		.uleb128 0xb
 13281 007f 00       		.byte	0
 13282 0080 00       		.byte	0
 13283 0081 0C       		.uleb128 0xc
 13284 0082 13       		.uleb128 0x13
 13285 0083 01       		.byte	0x1
 13286 0084 0B       		.uleb128 0xb
 13287 0085 0B       		.uleb128 0xb
 13288 0086 3A       		.uleb128 0x3a
 13289 0087 0B       		.uleb128 0xb
 13290 0088 3B       		.uleb128 0x3b
 13291 0089 0B       		.uleb128 0xb
 13292 008a 01       		.uleb128 0x1
 13293 008b 13       		.uleb128 0x13
 13294 008c 00       		.byte	0
 13295 008d 00       		.byte	0
 13296 008e 0D       		.uleb128 0xd
 13297 008f 0D       		.uleb128 0xd
 13298 0090 00       		.byte	0
 13299 0091 03       		.uleb128 0x3
 13300 0092 0E       		.uleb128 0xe
 13301 0093 3A       		.uleb128 0x3a
 13302 0094 0B       		.uleb128 0xb
 13303 0095 3B       		.uleb128 0x3b
 13304 0096 0B       		.uleb128 0xb
 13305 0097 49       		.uleb128 0x49
 13306 0098 13       		.uleb128 0x13
 13307 0099 38       		.uleb128 0x38
 13308 009a 0B       		.uleb128 0xb
 13309 009b 00       		.byte	0
 13310 009c 00       		.byte	0
 13311 009d 0E       		.uleb128 0xe
 13312 009e 0F       		.uleb128 0xf
 13313 009f 00       		.byte	0
 13314 00a0 0B       		.uleb128 0xb
 13315 00a1 0B       		.uleb128 0xb
 13316 00a2 00       		.byte	0
 13317 00a3 00       		.byte	0
 13318 00a4 0F       		.uleb128 0xf
 13319 00a5 26       		.uleb128 0x26
 13320 00a6 00       		.byte	0
 13321 00a7 49       		.uleb128 0x49
 13322 00a8 13       		.uleb128 0x13
 13323 00a9 00       		.byte	0
 13324 00aa 00       		.byte	0
 13325 00ab 10       		.uleb128 0x10
ARM GAS  /var/folders/d2/nstgp4h54kz7g1l847x_b8wc0000gn/T//ccW13lHv.s 			page 236


 13326 00ac 13       		.uleb128 0x13
 13327 00ad 01       		.byte	0x1
 13328 00ae 03       		.uleb128 0x3
 13329 00af 0E       		.uleb128 0xe
 13330 00b0 0B       		.uleb128 0xb
 13331 00b1 0B       		.uleb128 0xb
 13332 00b2 3A       		.uleb128 0x3a
 13333 00b3 0B       		.uleb128 0xb
 13334 00b4 3B       		.uleb128 0x3b
 13335 00b5 0B       		.uleb128 0xb
 13336 00b6 01       		.uleb128 0x1
 13337 00b7 13       		.uleb128 0x13
 13338 00b8 00       		.byte	0
 13339 00b9 00       		.byte	0
 13340 00ba 11       		.uleb128 0x11
 13341 00bb 0D       		.uleb128 0xd
 13342 00bc 00       		.byte	0
 13343 00bd 03       		.uleb128 0x3
 13344 00be 08       		.uleb128 0x8
 13345 00bf 3A       		.uleb128 0x3a
 13346 00c0 0B       		.uleb128 0xb
 13347 00c1 3B       		.uleb128 0x3b
 13348 00c2 0B       		.uleb128 0xb
 13349 00c3 49       		.uleb128 0x49
 13350 00c4 13       		.uleb128 0x13
 13351 00c5 38       		.uleb128 0x38
 13352 00c6 0B       		.uleb128 0xb
 13353 00c7 00       		.byte	0
 13354 00c8 00       		.byte	0
 13355 00c9 12       		.uleb128 0x12
 13356 00ca 13       		.uleb128 0x13
 13357 00cb 01       		.byte	0x1
 13358 00cc 03       		.uleb128 0x3
 13359 00cd 0E       		.uleb128 0xe
 13360 00ce 0B       		.uleb128 0xb
 13361 00cf 05       		.uleb128 0x5
 13362 00d0 3A       		.uleb128 0x3a
 13363 00d1 0B       		.uleb128 0xb
 13364 00d2 3B       		.uleb128 0x3b
 13365 00d3 0B       		.uleb128 0xb
 13366 00d4 01       		.uleb128 0x1
 13367 00d5 13       		.uleb128 0x13
 13368 00d6 00       		.byte	0
 13369 00d7 00       		.byte	0
 13370 00d8 13       		.uleb128 0x13
 13371 00d9 0D       		.uleb128 0xd
 13372 00da 00       		.byte	0
 13373 00db 03       		.uleb128 0x3
 13374 00dc 0E       		.uleb128 0xe
 13375 00dd 3A       		.uleb128 0x3a
 13376 00de 0B       		.uleb128 0xb
 13377 00df 3B       		.uleb128 0x3b
 13378 00e0 0B       		.uleb128 0xb
 13379 00e1 49       		.uleb128 0x49
 13380 00e2 13       		.uleb128 0x13
 13381 00e3 38       		.uleb128 0x38
 13382 00e4 05       		.uleb128 0x5
ARM GAS  /var/folders/d2/nstgp4h54kz7g1l847x_b8wc0000gn/T//ccW13lHv.s 			page 237


 13383 00e5 00       		.byte	0
 13384 00e6 00       		.byte	0
 13385 00e7 14       		.uleb128 0x14
 13386 00e8 15       		.uleb128 0x15
 13387 00e9 00       		.byte	0
 13388 00ea 27       		.uleb128 0x27
 13389 00eb 19       		.uleb128 0x19
 13390 00ec 00       		.byte	0
 13391 00ed 00       		.byte	0
 13392 00ee 15       		.uleb128 0x15
 13393 00ef 15       		.uleb128 0x15
 13394 00f0 01       		.byte	0x1
 13395 00f1 27       		.uleb128 0x27
 13396 00f2 19       		.uleb128 0x19
 13397 00f3 49       		.uleb128 0x49
 13398 00f4 13       		.uleb128 0x13
 13399 00f5 01       		.uleb128 0x1
 13400 00f6 13       		.uleb128 0x13
 13401 00f7 00       		.byte	0
 13402 00f8 00       		.byte	0
 13403 00f9 16       		.uleb128 0x16
 13404 00fa 05       		.uleb128 0x5
 13405 00fb 00       		.byte	0
 13406 00fc 49       		.uleb128 0x49
 13407 00fd 13       		.uleb128 0x13
 13408 00fe 00       		.byte	0
 13409 00ff 00       		.byte	0
 13410 0100 17       		.uleb128 0x17
 13411 0101 13       		.uleb128 0x13
 13412 0102 01       		.byte	0x1
 13413 0103 03       		.uleb128 0x3
 13414 0104 0E       		.uleb128 0xe
 13415 0105 0B       		.uleb128 0xb
 13416 0106 05       		.uleb128 0x5
 13417 0107 3A       		.uleb128 0x3a
 13418 0108 0B       		.uleb128 0xb
 13419 0109 3B       		.uleb128 0x3b
 13420 010a 05       		.uleb128 0x5
 13421 010b 01       		.uleb128 0x1
 13422 010c 13       		.uleb128 0x13
 13423 010d 00       		.byte	0
 13424 010e 00       		.byte	0
 13425 010f 18       		.uleb128 0x18
 13426 0110 0D       		.uleb128 0xd
 13427 0111 00       		.byte	0
 13428 0112 03       		.uleb128 0x3
 13429 0113 0E       		.uleb128 0xe
 13430 0114 3A       		.uleb128 0x3a
 13431 0115 0B       		.uleb128 0xb
 13432 0116 3B       		.uleb128 0x3b
 13433 0117 05       		.uleb128 0x5
 13434 0118 49       		.uleb128 0x49
 13435 0119 13       		.uleb128 0x13
 13436 011a 38       		.uleb128 0x38
 13437 011b 0B       		.uleb128 0xb
 13438 011c 00       		.byte	0
 13439 011d 00       		.byte	0
ARM GAS  /var/folders/d2/nstgp4h54kz7g1l847x_b8wc0000gn/T//ccW13lHv.s 			page 238


 13440 011e 19       		.uleb128 0x19
 13441 011f 0D       		.uleb128 0xd
 13442 0120 00       		.byte	0
 13443 0121 03       		.uleb128 0x3
 13444 0122 0E       		.uleb128 0xe
 13445 0123 3A       		.uleb128 0x3a
 13446 0124 0B       		.uleb128 0xb
 13447 0125 3B       		.uleb128 0x3b
 13448 0126 05       		.uleb128 0x5
 13449 0127 49       		.uleb128 0x49
 13450 0128 13       		.uleb128 0x13
 13451 0129 38       		.uleb128 0x38
 13452 012a 05       		.uleb128 0x5
 13453 012b 00       		.byte	0
 13454 012c 00       		.byte	0
 13455 012d 1A       		.uleb128 0x1a
 13456 012e 35       		.uleb128 0x35
 13457 012f 00       		.byte	0
 13458 0130 49       		.uleb128 0x49
 13459 0131 13       		.uleb128 0x13
 13460 0132 00       		.byte	0
 13461 0133 00       		.byte	0
 13462 0134 1B       		.uleb128 0x1b
 13463 0135 13       		.uleb128 0x13
 13464 0136 01       		.byte	0x1
 13465 0137 03       		.uleb128 0x3
 13466 0138 0E       		.uleb128 0xe
 13467 0139 0B       		.uleb128 0xb
 13468 013a 0B       		.uleb128 0xb
 13469 013b 3A       		.uleb128 0x3a
 13470 013c 0B       		.uleb128 0xb
 13471 013d 3B       		.uleb128 0x3b
 13472 013e 05       		.uleb128 0x5
 13473 013f 01       		.uleb128 0x1
 13474 0140 13       		.uleb128 0x13
 13475 0141 00       		.byte	0
 13476 0142 00       		.byte	0
 13477 0143 1C       		.uleb128 0x1c
 13478 0144 13       		.uleb128 0x13
 13479 0145 01       		.byte	0x1
 13480 0146 0B       		.uleb128 0xb
 13481 0147 0B       		.uleb128 0xb
 13482 0148 3A       		.uleb128 0x3a
 13483 0149 0B       		.uleb128 0xb
 13484 014a 3B       		.uleb128 0x3b
 13485 014b 05       		.uleb128 0x5
 13486 014c 01       		.uleb128 0x1
 13487 014d 13       		.uleb128 0x13
 13488 014e 00       		.byte	0
 13489 014f 00       		.byte	0
 13490 0150 1D       		.uleb128 0x1d
 13491 0151 17       		.uleb128 0x17
 13492 0152 01       		.byte	0x1
 13493 0153 0B       		.uleb128 0xb
 13494 0154 0B       		.uleb128 0xb
 13495 0155 3A       		.uleb128 0x3a
 13496 0156 0B       		.uleb128 0xb
ARM GAS  /var/folders/d2/nstgp4h54kz7g1l847x_b8wc0000gn/T//ccW13lHv.s 			page 239


 13497 0157 3B       		.uleb128 0x3b
 13498 0158 05       		.uleb128 0x5
 13499 0159 01       		.uleb128 0x1
 13500 015a 13       		.uleb128 0x13
 13501 015b 00       		.byte	0
 13502 015c 00       		.byte	0
 13503 015d 1E       		.uleb128 0x1e
 13504 015e 0D       		.uleb128 0xd
 13505 015f 00       		.byte	0
 13506 0160 03       		.uleb128 0x3
 13507 0161 0E       		.uleb128 0xe
 13508 0162 3A       		.uleb128 0x3a
 13509 0163 0B       		.uleb128 0xb
 13510 0164 3B       		.uleb128 0x3b
 13511 0165 05       		.uleb128 0x5
 13512 0166 49       		.uleb128 0x49
 13513 0167 13       		.uleb128 0x13
 13514 0168 00       		.byte	0
 13515 0169 00       		.byte	0
 13516 016a 1F       		.uleb128 0x1f
 13517 016b 15       		.uleb128 0x15
 13518 016c 01       		.byte	0x1
 13519 016d 27       		.uleb128 0x27
 13520 016e 19       		.uleb128 0x19
 13521 016f 01       		.uleb128 0x1
 13522 0170 13       		.uleb128 0x13
 13523 0171 00       		.byte	0
 13524 0172 00       		.byte	0
 13525 0173 20       		.uleb128 0x20
 13526 0174 34       		.uleb128 0x34
 13527 0175 00       		.byte	0
 13528 0176 03       		.uleb128 0x3
 13529 0177 0E       		.uleb128 0xe
 13530 0178 3A       		.uleb128 0x3a
 13531 0179 0B       		.uleb128 0xb
 13532 017a 3B       		.uleb128 0x3b
 13533 017b 05       		.uleb128 0x5
 13534 017c 49       		.uleb128 0x49
 13535 017d 13       		.uleb128 0x13
 13536 017e 3F       		.uleb128 0x3f
 13537 017f 19       		.uleb128 0x19
 13538 0180 3C       		.uleb128 0x3c
 13539 0181 19       		.uleb128 0x19
 13540 0182 00       		.byte	0
 13541 0183 00       		.byte	0
 13542 0184 21       		.uleb128 0x21
 13543 0185 34       		.uleb128 0x34
 13544 0186 00       		.byte	0
 13545 0187 03       		.uleb128 0x3
 13546 0188 0E       		.uleb128 0xe
 13547 0189 3A       		.uleb128 0x3a
 13548 018a 0B       		.uleb128 0xb
 13549 018b 3B       		.uleb128 0x3b
 13550 018c 0B       		.uleb128 0xb
 13551 018d 49       		.uleb128 0x49
 13552 018e 13       		.uleb128 0x13
 13553 018f 3F       		.uleb128 0x3f
ARM GAS  /var/folders/d2/nstgp4h54kz7g1l847x_b8wc0000gn/T//ccW13lHv.s 			page 240


 13554 0190 19       		.uleb128 0x19
 13555 0191 3C       		.uleb128 0x3c
 13556 0192 19       		.uleb128 0x19
 13557 0193 00       		.byte	0
 13558 0194 00       		.byte	0
 13559 0195 22       		.uleb128 0x22
 13560 0196 0D       		.uleb128 0xd
 13561 0197 00       		.byte	0
 13562 0198 03       		.uleb128 0x3
 13563 0199 08       		.uleb128 0x8
 13564 019a 3A       		.uleb128 0x3a
 13565 019b 0B       		.uleb128 0xb
 13566 019c 3B       		.uleb128 0x3b
 13567 019d 0B       		.uleb128 0xb
 13568 019e 49       		.uleb128 0x49
 13569 019f 13       		.uleb128 0x13
 13570 01a0 00       		.byte	0
 13571 01a1 00       		.byte	0
 13572 01a2 23       		.uleb128 0x23
 13573 01a3 0D       		.uleb128 0xd
 13574 01a4 00       		.byte	0
 13575 01a5 03       		.uleb128 0x3
 13576 01a6 08       		.uleb128 0x8
 13577 01a7 3A       		.uleb128 0x3a
 13578 01a8 0B       		.uleb128 0xb
 13579 01a9 3B       		.uleb128 0x3b
 13580 01aa 05       		.uleb128 0x5
 13581 01ab 49       		.uleb128 0x49
 13582 01ac 13       		.uleb128 0x13
 13583 01ad 38       		.uleb128 0x38
 13584 01ae 0B       		.uleb128 0xb
 13585 01af 00       		.byte	0
 13586 01b0 00       		.byte	0
 13587 01b1 24       		.uleb128 0x24
 13588 01b2 0D       		.uleb128 0xd
 13589 01b3 00       		.byte	0
 13590 01b4 03       		.uleb128 0x3
 13591 01b5 08       		.uleb128 0x8
 13592 01b6 3A       		.uleb128 0x3a
 13593 01b7 0B       		.uleb128 0xb
 13594 01b8 3B       		.uleb128 0x3b
 13595 01b9 05       		.uleb128 0x5
 13596 01ba 49       		.uleb128 0x49
 13597 01bb 13       		.uleb128 0x13
 13598 01bc 38       		.uleb128 0x38
 13599 01bd 05       		.uleb128 0x5
 13600 01be 00       		.byte	0
 13601 01bf 00       		.byte	0
 13602 01c0 25       		.uleb128 0x25
 13603 01c1 13       		.uleb128 0x13
 13604 01c2 01       		.byte	0x1
 13605 01c3 0B       		.uleb128 0xb
 13606 01c4 05       		.uleb128 0x5
 13607 01c5 3A       		.uleb128 0x3a
 13608 01c6 0B       		.uleb128 0xb
 13609 01c7 3B       		.uleb128 0x3b
 13610 01c8 0B       		.uleb128 0xb
ARM GAS  /var/folders/d2/nstgp4h54kz7g1l847x_b8wc0000gn/T//ccW13lHv.s 			page 241


 13611 01c9 01       		.uleb128 0x1
 13612 01ca 13       		.uleb128 0x13
 13613 01cb 00       		.byte	0
 13614 01cc 00       		.byte	0
 13615 01cd 26       		.uleb128 0x26
 13616 01ce 34       		.uleb128 0x34
 13617 01cf 00       		.byte	0
 13618 01d0 03       		.uleb128 0x3
 13619 01d1 08       		.uleb128 0x8
 13620 01d2 3A       		.uleb128 0x3a
 13621 01d3 0B       		.uleb128 0xb
 13622 01d4 3B       		.uleb128 0x3b
 13623 01d5 05       		.uleb128 0x5
 13624 01d6 49       		.uleb128 0x49
 13625 01d7 13       		.uleb128 0x13
 13626 01d8 3F       		.uleb128 0x3f
 13627 01d9 19       		.uleb128 0x19
 13628 01da 3C       		.uleb128 0x3c
 13629 01db 19       		.uleb128 0x19
 13630 01dc 00       		.byte	0
 13631 01dd 00       		.byte	0
 13632 01de 27       		.uleb128 0x27
 13633 01df 2E       		.uleb128 0x2e
 13634 01e0 01       		.byte	0x1
 13635 01e1 3F       		.uleb128 0x3f
 13636 01e2 19       		.uleb128 0x19
 13637 01e3 03       		.uleb128 0x3
 13638 01e4 0E       		.uleb128 0xe
 13639 01e5 3A       		.uleb128 0x3a
 13640 01e6 0B       		.uleb128 0xb
 13641 01e7 3B       		.uleb128 0x3b
 13642 01e8 05       		.uleb128 0x5
 13643 01e9 27       		.uleb128 0x27
 13644 01ea 19       		.uleb128 0x19
 13645 01eb 11       		.uleb128 0x11
 13646 01ec 01       		.uleb128 0x1
 13647 01ed 12       		.uleb128 0x12
 13648 01ee 06       		.uleb128 0x6
 13649 01ef 40       		.uleb128 0x40
 13650 01f0 18       		.uleb128 0x18
 13651 01f1 9742     		.uleb128 0x2117
 13652 01f3 19       		.uleb128 0x19
 13653 01f4 01       		.uleb128 0x1
 13654 01f5 13       		.uleb128 0x13
 13655 01f6 00       		.byte	0
 13656 01f7 00       		.byte	0
 13657 01f8 28       		.uleb128 0x28
 13658 01f9 05       		.uleb128 0x5
 13659 01fa 00       		.byte	0
 13660 01fb 03       		.uleb128 0x3
 13661 01fc 08       		.uleb128 0x8
 13662 01fd 3A       		.uleb128 0x3a
 13663 01fe 0B       		.uleb128 0xb
 13664 01ff 3B       		.uleb128 0x3b
 13665 0200 05       		.uleb128 0x5
 13666 0201 49       		.uleb128 0x49
 13667 0202 13       		.uleb128 0x13
ARM GAS  /var/folders/d2/nstgp4h54kz7g1l847x_b8wc0000gn/T//ccW13lHv.s 			page 242


 13668 0203 02       		.uleb128 0x2
 13669 0204 17       		.uleb128 0x17
 13670 0205 00       		.byte	0
 13671 0206 00       		.byte	0
 13672 0207 29       		.uleb128 0x29
 13673 0208 34       		.uleb128 0x34
 13674 0209 00       		.byte	0
 13675 020a 03       		.uleb128 0x3
 13676 020b 0E       		.uleb128 0xe
 13677 020c 49       		.uleb128 0x49
 13678 020d 13       		.uleb128 0x13
 13679 020e 34       		.uleb128 0x34
 13680 020f 19       		.uleb128 0x19
 13681 0210 02       		.uleb128 0x2
 13682 0211 18       		.uleb128 0x18
 13683 0212 00       		.byte	0
 13684 0213 00       		.byte	0
 13685 0214 2A       		.uleb128 0x2a
 13686 0215 1D       		.uleb128 0x1d
 13687 0216 01       		.byte	0x1
 13688 0217 31       		.uleb128 0x31
 13689 0218 13       		.uleb128 0x13
 13690 0219 11       		.uleb128 0x11
 13691 021a 01       		.uleb128 0x1
 13692 021b 12       		.uleb128 0x12
 13693 021c 06       		.uleb128 0x6
 13694 021d 58       		.uleb128 0x58
 13695 021e 0B       		.uleb128 0xb
 13696 021f 59       		.uleb128 0x59
 13697 0220 05       		.uleb128 0x5
 13698 0221 01       		.uleb128 0x1
 13699 0222 13       		.uleb128 0x13
 13700 0223 00       		.byte	0
 13701 0224 00       		.byte	0
 13702 0225 2B       		.uleb128 0x2b
 13703 0226 1D       		.uleb128 0x1d
 13704 0227 01       		.byte	0x1
 13705 0228 31       		.uleb128 0x31
 13706 0229 13       		.uleb128 0x13
 13707 022a 11       		.uleb128 0x11
 13708 022b 01       		.uleb128 0x1
 13709 022c 12       		.uleb128 0x12
 13710 022d 06       		.uleb128 0x6
 13711 022e 58       		.uleb128 0x58
 13712 022f 0B       		.uleb128 0xb
 13713 0230 59       		.uleb128 0x59
 13714 0231 05       		.uleb128 0x5
 13715 0232 00       		.byte	0
 13716 0233 00       		.byte	0
 13717 0234 2C       		.uleb128 0x2c
 13718 0235 05       		.uleb128 0x5
 13719 0236 00       		.byte	0
 13720 0237 31       		.uleb128 0x31
 13721 0238 13       		.uleb128 0x13
 13722 0239 02       		.uleb128 0x2
 13723 023a 17       		.uleb128 0x17
 13724 023b 00       		.byte	0
ARM GAS  /var/folders/d2/nstgp4h54kz7g1l847x_b8wc0000gn/T//ccW13lHv.s 			page 243


 13725 023c 00       		.byte	0
 13726 023d 2D       		.uleb128 0x2d
 13727 023e 898201   		.uleb128 0x4109
 13728 0241 00       		.byte	0
 13729 0242 11       		.uleb128 0x11
 13730 0243 01       		.uleb128 0x1
 13731 0244 31       		.uleb128 0x31
 13732 0245 13       		.uleb128 0x13
 13733 0246 00       		.byte	0
 13734 0247 00       		.byte	0
 13735 0248 2E       		.uleb128 0x2e
 13736 0249 1D       		.uleb128 0x1d
 13737 024a 01       		.byte	0x1
 13738 024b 31       		.uleb128 0x31
 13739 024c 13       		.uleb128 0x13
 13740 024d 52       		.uleb128 0x52
 13741 024e 01       		.uleb128 0x1
 13742 024f 55       		.uleb128 0x55
 13743 0250 17       		.uleb128 0x17
 13744 0251 58       		.uleb128 0x58
 13745 0252 0B       		.uleb128 0xb
 13746 0253 59       		.uleb128 0x59
 13747 0254 05       		.uleb128 0x5
 13748 0255 01       		.uleb128 0x1
 13749 0256 13       		.uleb128 0x13
 13750 0257 00       		.byte	0
 13751 0258 00       		.byte	0
 13752 0259 2F       		.uleb128 0x2f
 13753 025a 0B       		.uleb128 0xb
 13754 025b 01       		.byte	0x1
 13755 025c 55       		.uleb128 0x55
 13756 025d 17       		.uleb128 0x17
 13757 025e 00       		.byte	0
 13758 025f 00       		.byte	0
 13759 0260 30       		.uleb128 0x30
 13760 0261 34       		.uleb128 0x34
 13761 0262 00       		.byte	0
 13762 0263 31       		.uleb128 0x31
 13763 0264 13       		.uleb128 0x13
 13764 0265 00       		.byte	0
 13765 0266 00       		.byte	0
 13766 0267 31       		.uleb128 0x31
 13767 0268 898201   		.uleb128 0x4109
 13768 026b 01       		.byte	0x1
 13769 026c 11       		.uleb128 0x11
 13770 026d 01       		.uleb128 0x1
 13771 026e 31       		.uleb128 0x31
 13772 026f 13       		.uleb128 0x13
 13773 0270 00       		.byte	0
 13774 0271 00       		.byte	0
 13775 0272 32       		.uleb128 0x32
 13776 0273 8A8201   		.uleb128 0x410a
 13777 0276 00       		.byte	0
 13778 0277 02       		.uleb128 0x2
 13779 0278 18       		.uleb128 0x18
 13780 0279 9142     		.uleb128 0x2111
 13781 027b 18       		.uleb128 0x18
ARM GAS  /var/folders/d2/nstgp4h54kz7g1l847x_b8wc0000gn/T//ccW13lHv.s 			page 244


 13782 027c 00       		.byte	0
 13783 027d 00       		.byte	0
 13784 027e 33       		.uleb128 0x33
 13785 027f 898201   		.uleb128 0x4109
 13786 0282 01       		.byte	0x1
 13787 0283 11       		.uleb128 0x11
 13788 0284 01       		.uleb128 0x1
 13789 0285 31       		.uleb128 0x31
 13790 0286 13       		.uleb128 0x13
 13791 0287 01       		.uleb128 0x1
 13792 0288 13       		.uleb128 0x13
 13793 0289 00       		.byte	0
 13794 028a 00       		.byte	0
 13795 028b 34       		.uleb128 0x34
 13796 028c 898201   		.uleb128 0x4109
 13797 028f 01       		.byte	0x1
 13798 0290 11       		.uleb128 0x11
 13799 0291 01       		.uleb128 0x1
 13800 0292 9542     		.uleb128 0x2115
 13801 0294 19       		.uleb128 0x19
 13802 0295 31       		.uleb128 0x31
 13803 0296 13       		.uleb128 0x13
 13804 0297 01       		.uleb128 0x1
 13805 0298 13       		.uleb128 0x13
 13806 0299 00       		.byte	0
 13807 029a 00       		.byte	0
 13808 029b 35       		.uleb128 0x35
 13809 029c 2E       		.uleb128 0x2e
 13810 029d 01       		.byte	0x1
 13811 029e 3F       		.uleb128 0x3f
 13812 029f 19       		.uleb128 0x19
 13813 02a0 03       		.uleb128 0x3
 13814 02a1 0E       		.uleb128 0xe
 13815 02a2 3A       		.uleb128 0x3a
 13816 02a3 0B       		.uleb128 0xb
 13817 02a4 3B       		.uleb128 0x3b
 13818 02a5 05       		.uleb128 0x5
 13819 02a6 27       		.uleb128 0x27
 13820 02a7 19       		.uleb128 0x19
 13821 02a8 49       		.uleb128 0x49
 13822 02a9 13       		.uleb128 0x13
 13823 02aa 11       		.uleb128 0x11
 13824 02ab 01       		.uleb128 0x1
 13825 02ac 12       		.uleb128 0x12
 13826 02ad 06       		.uleb128 0x6
 13827 02ae 40       		.uleb128 0x40
 13828 02af 18       		.uleb128 0x18
 13829 02b0 9742     		.uleb128 0x2117
 13830 02b2 19       		.uleb128 0x19
 13831 02b3 01       		.uleb128 0x1
 13832 02b4 13       		.uleb128 0x13
 13833 02b5 00       		.byte	0
 13834 02b6 00       		.byte	0
 13835 02b7 36       		.uleb128 0x36
 13836 02b8 05       		.uleb128 0x5
 13837 02b9 00       		.byte	0
 13838 02ba 03       		.uleb128 0x3
ARM GAS  /var/folders/d2/nstgp4h54kz7g1l847x_b8wc0000gn/T//ccW13lHv.s 			page 245


 13839 02bb 0E       		.uleb128 0xe
 13840 02bc 3A       		.uleb128 0x3a
 13841 02bd 0B       		.uleb128 0xb
 13842 02be 3B       		.uleb128 0x3b
 13843 02bf 05       		.uleb128 0x5
 13844 02c0 49       		.uleb128 0x49
 13845 02c1 13       		.uleb128 0x13
 13846 02c2 02       		.uleb128 0x2
 13847 02c3 17       		.uleb128 0x17
 13848 02c4 00       		.byte	0
 13849 02c5 00       		.byte	0
 13850 02c6 37       		.uleb128 0x37
 13851 02c7 34       		.uleb128 0x34
 13852 02c8 00       		.byte	0
 13853 02c9 03       		.uleb128 0x3
 13854 02ca 08       		.uleb128 0x8
 13855 02cb 3A       		.uleb128 0x3a
 13856 02cc 0B       		.uleb128 0xb
 13857 02cd 3B       		.uleb128 0x3b
 13858 02ce 05       		.uleb128 0x5
 13859 02cf 49       		.uleb128 0x49
 13860 02d0 13       		.uleb128 0x13
 13861 02d1 02       		.uleb128 0x2
 13862 02d2 17       		.uleb128 0x17
 13863 02d3 00       		.byte	0
 13864 02d4 00       		.byte	0
 13865 02d5 38       		.uleb128 0x38
 13866 02d6 2E       		.uleb128 0x2e
 13867 02d7 01       		.byte	0x1
 13868 02d8 3F       		.uleb128 0x3f
 13869 02d9 19       		.uleb128 0x19
 13870 02da 03       		.uleb128 0x3
 13871 02db 0E       		.uleb128 0xe
 13872 02dc 3A       		.uleb128 0x3a
 13873 02dd 0B       		.uleb128 0xb
 13874 02de 3B       		.uleb128 0x3b
 13875 02df 05       		.uleb128 0x5
 13876 02e0 27       		.uleb128 0x27
 13877 02e1 19       		.uleb128 0x19
 13878 02e2 20       		.uleb128 0x20
 13879 02e3 0B       		.uleb128 0xb
 13880 02e4 01       		.uleb128 0x1
 13881 02e5 13       		.uleb128 0x13
 13882 02e6 00       		.byte	0
 13883 02e7 00       		.byte	0
 13884 02e8 39       		.uleb128 0x39
 13885 02e9 05       		.uleb128 0x5
 13886 02ea 00       		.byte	0
 13887 02eb 03       		.uleb128 0x3
 13888 02ec 08       		.uleb128 0x8
 13889 02ed 3A       		.uleb128 0x3a
 13890 02ee 0B       		.uleb128 0xb
 13891 02ef 3B       		.uleb128 0x3b
 13892 02f0 05       		.uleb128 0x5
 13893 02f1 49       		.uleb128 0x49
 13894 02f2 13       		.uleb128 0x13
 13895 02f3 00       		.byte	0
ARM GAS  /var/folders/d2/nstgp4h54kz7g1l847x_b8wc0000gn/T//ccW13lHv.s 			page 246


 13896 02f4 00       		.byte	0
 13897 02f5 3A       		.uleb128 0x3a
 13898 02f6 05       		.uleb128 0x5
 13899 02f7 00       		.byte	0
 13900 02f8 03       		.uleb128 0x3
 13901 02f9 0E       		.uleb128 0xe
 13902 02fa 3A       		.uleb128 0x3a
 13903 02fb 0B       		.uleb128 0xb
 13904 02fc 3B       		.uleb128 0x3b
 13905 02fd 05       		.uleb128 0x5
 13906 02fe 49       		.uleb128 0x49
 13907 02ff 13       		.uleb128 0x13
 13908 0300 00       		.byte	0
 13909 0301 00       		.byte	0
 13910 0302 3B       		.uleb128 0x3b
 13911 0303 34       		.uleb128 0x34
 13912 0304 00       		.byte	0
 13913 0305 03       		.uleb128 0x3
 13914 0306 08       		.uleb128 0x8
 13915 0307 3A       		.uleb128 0x3a
 13916 0308 0B       		.uleb128 0xb
 13917 0309 3B       		.uleb128 0x3b
 13918 030a 05       		.uleb128 0x5
 13919 030b 49       		.uleb128 0x49
 13920 030c 13       		.uleb128 0x13
 13921 030d 02       		.uleb128 0x2
 13922 030e 18       		.uleb128 0x18
 13923 030f 00       		.byte	0
 13924 0310 00       		.byte	0
 13925 0311 3C       		.uleb128 0x3c
 13926 0312 2E       		.uleb128 0x2e
 13927 0313 01       		.byte	0x1
 13928 0314 3F       		.uleb128 0x3f
 13929 0315 19       		.uleb128 0x19
 13930 0316 03       		.uleb128 0x3
 13931 0317 0E       		.uleb128 0xe
 13932 0318 3A       		.uleb128 0x3a
 13933 0319 0B       		.uleb128 0xb
 13934 031a 3B       		.uleb128 0x3b
 13935 031b 0B       		.uleb128 0xb
 13936 031c 27       		.uleb128 0x27
 13937 031d 19       		.uleb128 0x19
 13938 031e 11       		.uleb128 0x11
 13939 031f 01       		.uleb128 0x1
 13940 0320 12       		.uleb128 0x12
 13941 0321 06       		.uleb128 0x6
 13942 0322 40       		.uleb128 0x40
 13943 0323 18       		.uleb128 0x18
 13944 0324 9742     		.uleb128 0x2117
 13945 0326 19       		.uleb128 0x19
 13946 0327 01       		.uleb128 0x1
 13947 0328 13       		.uleb128 0x13
 13948 0329 00       		.byte	0
 13949 032a 00       		.byte	0
 13950 032b 3D       		.uleb128 0x3d
 13951 032c 05       		.uleb128 0x5
 13952 032d 00       		.byte	0
ARM GAS  /var/folders/d2/nstgp4h54kz7g1l847x_b8wc0000gn/T//ccW13lHv.s 			page 247


 13953 032e 03       		.uleb128 0x3
 13954 032f 08       		.uleb128 0x8
 13955 0330 3A       		.uleb128 0x3a
 13956 0331 0B       		.uleb128 0xb
 13957 0332 3B       		.uleb128 0x3b
 13958 0333 0B       		.uleb128 0xb
 13959 0334 49       		.uleb128 0x49
 13960 0335 13       		.uleb128 0x13
 13961 0336 02       		.uleb128 0x2
 13962 0337 17       		.uleb128 0x17
 13963 0338 00       		.byte	0
 13964 0339 00       		.byte	0
 13965 033a 3E       		.uleb128 0x3e
 13966 033b 05       		.uleb128 0x5
 13967 033c 00       		.byte	0
 13968 033d 03       		.uleb128 0x3
 13969 033e 0E       		.uleb128 0xe
 13970 033f 3A       		.uleb128 0x3a
 13971 0340 0B       		.uleb128 0xb
 13972 0341 3B       		.uleb128 0x3b
 13973 0342 0B       		.uleb128 0xb
 13974 0343 49       		.uleb128 0x49
 13975 0344 13       		.uleb128 0x13
 13976 0345 02       		.uleb128 0x2
 13977 0346 17       		.uleb128 0x17
 13978 0347 00       		.byte	0
 13979 0348 00       		.byte	0
 13980 0349 3F       		.uleb128 0x3f
 13981 034a 2E       		.uleb128 0x2e
 13982 034b 01       		.byte	0x1
 13983 034c 3F       		.uleb128 0x3f
 13984 034d 19       		.uleb128 0x19
 13985 034e 03       		.uleb128 0x3
 13986 034f 0E       		.uleb128 0xe
 13987 0350 3A       		.uleb128 0x3a
 13988 0351 0B       		.uleb128 0xb
 13989 0352 3B       		.uleb128 0x3b
 13990 0353 0B       		.uleb128 0xb
 13991 0354 27       		.uleb128 0x27
 13992 0355 19       		.uleb128 0x19
 13993 0356 20       		.uleb128 0x20
 13994 0357 0B       		.uleb128 0xb
 13995 0358 01       		.uleb128 0x1
 13996 0359 13       		.uleb128 0x13
 13997 035a 00       		.byte	0
 13998 035b 00       		.byte	0
 13999 035c 40       		.uleb128 0x40
 14000 035d 05       		.uleb128 0x5
 14001 035e 00       		.byte	0
 14002 035f 03       		.uleb128 0x3
 14003 0360 08       		.uleb128 0x8
 14004 0361 3A       		.uleb128 0x3a
 14005 0362 0B       		.uleb128 0xb
 14006 0363 3B       		.uleb128 0x3b
 14007 0364 0B       		.uleb128 0xb
 14008 0365 49       		.uleb128 0x49
 14009 0366 13       		.uleb128 0x13
ARM GAS  /var/folders/d2/nstgp4h54kz7g1l847x_b8wc0000gn/T//ccW13lHv.s 			page 248


 14010 0367 00       		.byte	0
 14011 0368 00       		.byte	0
 14012 0369 41       		.uleb128 0x41
 14013 036a 34       		.uleb128 0x34
 14014 036b 00       		.byte	0
 14015 036c 03       		.uleb128 0x3
 14016 036d 0E       		.uleb128 0xe
 14017 036e 3A       		.uleb128 0x3a
 14018 036f 0B       		.uleb128 0xb
 14019 0370 3B       		.uleb128 0x3b
 14020 0371 0B       		.uleb128 0xb
 14021 0372 49       		.uleb128 0x49
 14022 0373 13       		.uleb128 0x13
 14023 0374 00       		.byte	0
 14024 0375 00       		.byte	0
 14025 0376 42       		.uleb128 0x42
 14026 0377 34       		.uleb128 0x34
 14027 0378 00       		.byte	0
 14028 0379 03       		.uleb128 0x3
 14029 037a 08       		.uleb128 0x8
 14030 037b 3A       		.uleb128 0x3a
 14031 037c 0B       		.uleb128 0xb
 14032 037d 3B       		.uleb128 0x3b
 14033 037e 0B       		.uleb128 0xb
 14034 037f 49       		.uleb128 0x49
 14035 0380 13       		.uleb128 0x13
 14036 0381 00       		.byte	0
 14037 0382 00       		.byte	0
 14038 0383 43       		.uleb128 0x43
 14039 0384 2E       		.uleb128 0x2e
 14040 0385 01       		.byte	0x1
 14041 0386 3F       		.uleb128 0x3f
 14042 0387 19       		.uleb128 0x19
 14043 0388 03       		.uleb128 0x3
 14044 0389 0E       		.uleb128 0xe
 14045 038a 3A       		.uleb128 0x3a
 14046 038b 0B       		.uleb128 0xb
 14047 038c 3B       		.uleb128 0x3b
 14048 038d 0B       		.uleb128 0xb
 14049 038e 27       		.uleb128 0x27
 14050 038f 19       		.uleb128 0x19
 14051 0390 49       		.uleb128 0x49
 14052 0391 13       		.uleb128 0x13
 14053 0392 11       		.uleb128 0x11
 14054 0393 01       		.uleb128 0x1
 14055 0394 12       		.uleb128 0x12
 14056 0395 06       		.uleb128 0x6
 14057 0396 40       		.uleb128 0x40
 14058 0397 18       		.uleb128 0x18
 14059 0398 9742     		.uleb128 0x2117
 14060 039a 19       		.uleb128 0x19
 14061 039b 01       		.uleb128 0x1
 14062 039c 13       		.uleb128 0x13
 14063 039d 00       		.byte	0
 14064 039e 00       		.byte	0
 14065 039f 44       		.uleb128 0x44
 14066 03a0 34       		.uleb128 0x34
ARM GAS  /var/folders/d2/nstgp4h54kz7g1l847x_b8wc0000gn/T//ccW13lHv.s 			page 249


 14067 03a1 00       		.byte	0
 14068 03a2 03       		.uleb128 0x3
 14069 03a3 0E       		.uleb128 0xe
 14070 03a4 3A       		.uleb128 0x3a
 14071 03a5 0B       		.uleb128 0xb
 14072 03a6 3B       		.uleb128 0x3b
 14073 03a7 0B       		.uleb128 0xb
 14074 03a8 49       		.uleb128 0x49
 14075 03a9 13       		.uleb128 0x13
 14076 03aa 02       		.uleb128 0x2
 14077 03ab 17       		.uleb128 0x17
 14078 03ac 00       		.byte	0
 14079 03ad 00       		.byte	0
 14080 03ae 45       		.uleb128 0x45
 14081 03af 1D       		.uleb128 0x1d
 14082 03b0 01       		.byte	0x1
 14083 03b1 31       		.uleb128 0x31
 14084 03b2 13       		.uleb128 0x13
 14085 03b3 11       		.uleb128 0x11
 14086 03b4 01       		.uleb128 0x1
 14087 03b5 12       		.uleb128 0x12
 14088 03b6 06       		.uleb128 0x6
 14089 03b7 58       		.uleb128 0x58
 14090 03b8 0B       		.uleb128 0xb
 14091 03b9 59       		.uleb128 0x59
 14092 03ba 0B       		.uleb128 0xb
 14093 03bb 01       		.uleb128 0x1
 14094 03bc 13       		.uleb128 0x13
 14095 03bd 00       		.byte	0
 14096 03be 00       		.byte	0
 14097 03bf 46       		.uleb128 0x46
 14098 03c0 1D       		.uleb128 0x1d
 14099 03c1 01       		.byte	0x1
 14100 03c2 31       		.uleb128 0x31
 14101 03c3 13       		.uleb128 0x13
 14102 03c4 52       		.uleb128 0x52
 14103 03c5 01       		.uleb128 0x1
 14104 03c6 55       		.uleb128 0x55
 14105 03c7 17       		.uleb128 0x17
 14106 03c8 58       		.uleb128 0x58
 14107 03c9 0B       		.uleb128 0xb
 14108 03ca 59       		.uleb128 0x59
 14109 03cb 0B       		.uleb128 0xb
 14110 03cc 01       		.uleb128 0x1
 14111 03cd 13       		.uleb128 0x13
 14112 03ce 00       		.byte	0
 14113 03cf 00       		.byte	0
 14114 03d0 47       		.uleb128 0x47
 14115 03d1 34       		.uleb128 0x34
 14116 03d2 00       		.byte	0
 14117 03d3 03       		.uleb128 0x3
 14118 03d4 0E       		.uleb128 0xe
 14119 03d5 3A       		.uleb128 0x3a
 14120 03d6 0B       		.uleb128 0xb
 14121 03d7 3B       		.uleb128 0x3b
 14122 03d8 0B       		.uleb128 0xb
 14123 03d9 49       		.uleb128 0x49
ARM GAS  /var/folders/d2/nstgp4h54kz7g1l847x_b8wc0000gn/T//ccW13lHv.s 			page 250


 14124 03da 13       		.uleb128 0x13
 14125 03db 02       		.uleb128 0x2
 14126 03dc 18       		.uleb128 0x18
 14127 03dd 00       		.byte	0
 14128 03de 00       		.byte	0
 14129 03df 48       		.uleb128 0x48
 14130 03e0 34       		.uleb128 0x34
 14131 03e1 00       		.byte	0
 14132 03e2 03       		.uleb128 0x3
 14133 03e3 08       		.uleb128 0x8
 14134 03e4 3A       		.uleb128 0x3a
 14135 03e5 0B       		.uleb128 0xb
 14136 03e6 3B       		.uleb128 0x3b
 14137 03e7 0B       		.uleb128 0xb
 14138 03e8 49       		.uleb128 0x49
 14139 03e9 13       		.uleb128 0x13
 14140 03ea 02       		.uleb128 0x2
 14141 03eb 17       		.uleb128 0x17
 14142 03ec 00       		.byte	0
 14143 03ed 00       		.byte	0
 14144 03ee 49       		.uleb128 0x49
 14145 03ef 0B       		.uleb128 0xb
 14146 03f0 01       		.byte	0x1
 14147 03f1 55       		.uleb128 0x55
 14148 03f2 17       		.uleb128 0x17
 14149 03f3 01       		.uleb128 0x1
 14150 03f4 13       		.uleb128 0x13
 14151 03f5 00       		.byte	0
 14152 03f6 00       		.byte	0
 14153 03f7 4A       		.uleb128 0x4a
 14154 03f8 34       		.uleb128 0x34
 14155 03f9 00       		.byte	0
 14156 03fa 31       		.uleb128 0x31
 14157 03fb 13       		.uleb128 0x13
 14158 03fc 02       		.uleb128 0x2
 14159 03fd 17       		.uleb128 0x17
 14160 03fe 00       		.byte	0
 14161 03ff 00       		.byte	0
 14162 0400 4B       		.uleb128 0x4b
 14163 0401 05       		.uleb128 0x5
 14164 0402 00       		.byte	0
 14165 0403 31       		.uleb128 0x31
 14166 0404 13       		.uleb128 0x13
 14167 0405 00       		.byte	0
 14168 0406 00       		.byte	0
 14169 0407 4C       		.uleb128 0x4c
 14170 0408 1D       		.uleb128 0x1d
 14171 0409 01       		.byte	0x1
 14172 040a 31       		.uleb128 0x31
 14173 040b 13       		.uleb128 0x13
 14174 040c 52       		.uleb128 0x52
 14175 040d 01       		.uleb128 0x1
 14176 040e 55       		.uleb128 0x55
 14177 040f 17       		.uleb128 0x17
 14178 0410 58       		.uleb128 0x58
 14179 0411 0B       		.uleb128 0xb
 14180 0412 59       		.uleb128 0x59
ARM GAS  /var/folders/d2/nstgp4h54kz7g1l847x_b8wc0000gn/T//ccW13lHv.s 			page 251


 14181 0413 0B       		.uleb128 0xb
 14182 0414 00       		.byte	0
 14183 0415 00       		.byte	0
 14184 0416 4D       		.uleb128 0x4d
 14185 0417 0B       		.uleb128 0xb
 14186 0418 01       		.byte	0x1
 14187 0419 11       		.uleb128 0x11
 14188 041a 01       		.uleb128 0x1
 14189 041b 12       		.uleb128 0x12
 14190 041c 06       		.uleb128 0x6
 14191 041d 00       		.byte	0
 14192 041e 00       		.byte	0
 14193 041f 4E       		.uleb128 0x4e
 14194 0420 2E       		.uleb128 0x2e
 14195 0421 01       		.byte	0x1
 14196 0422 03       		.uleb128 0x3
 14197 0423 0E       		.uleb128 0xe
 14198 0424 3A       		.uleb128 0x3a
 14199 0425 0B       		.uleb128 0xb
 14200 0426 3B       		.uleb128 0x3b
 14201 0427 0B       		.uleb128 0xb
 14202 0428 27       		.uleb128 0x27
 14203 0429 19       		.uleb128 0x19
 14204 042a 49       		.uleb128 0x49
 14205 042b 13       		.uleb128 0x13
 14206 042c 20       		.uleb128 0x20
 14207 042d 0B       		.uleb128 0xb
 14208 042e 01       		.uleb128 0x1
 14209 042f 13       		.uleb128 0x13
 14210 0430 00       		.byte	0
 14211 0431 00       		.byte	0
 14212 0432 4F       		.uleb128 0x4f
 14213 0433 05       		.uleb128 0x5
 14214 0434 00       		.byte	0
 14215 0435 03       		.uleb128 0x3
 14216 0436 0E       		.uleb128 0xe
 14217 0437 3A       		.uleb128 0x3a
 14218 0438 0B       		.uleb128 0xb
 14219 0439 3B       		.uleb128 0x3b
 14220 043a 0B       		.uleb128 0xb
 14221 043b 49       		.uleb128 0x49
 14222 043c 13       		.uleb128 0x13
 14223 043d 00       		.byte	0
 14224 043e 00       		.byte	0
 14225 043f 50       		.uleb128 0x50
 14226 0440 2E       		.uleb128 0x2e
 14227 0441 01       		.byte	0x1
 14228 0442 03       		.uleb128 0x3
 14229 0443 0E       		.uleb128 0xe
 14230 0444 3A       		.uleb128 0x3a
 14231 0445 0B       		.uleb128 0xb
 14232 0446 3B       		.uleb128 0x3b
 14233 0447 05       		.uleb128 0x5
 14234 0448 27       		.uleb128 0x27
 14235 0449 19       		.uleb128 0x19
 14236 044a 20       		.uleb128 0x20
 14237 044b 0B       		.uleb128 0xb
ARM GAS  /var/folders/d2/nstgp4h54kz7g1l847x_b8wc0000gn/T//ccW13lHv.s 			page 252


 14238 044c 01       		.uleb128 0x1
 14239 044d 13       		.uleb128 0x13
 14240 044e 00       		.byte	0
 14241 044f 00       		.byte	0
 14242 0450 51       		.uleb128 0x51
 14243 0451 34       		.uleb128 0x34
 14244 0452 00       		.byte	0
 14245 0453 03       		.uleb128 0x3
 14246 0454 0E       		.uleb128 0xe
 14247 0455 49       		.uleb128 0x49
 14248 0456 13       		.uleb128 0x13
 14249 0457 34       		.uleb128 0x34
 14250 0458 19       		.uleb128 0x19
 14251 0459 1C       		.uleb128 0x1c
 14252 045a 0E       		.uleb128 0xe
 14253 045b 00       		.byte	0
 14254 045c 00       		.byte	0
 14255 045d 52       		.uleb128 0x52
 14256 045e 2E       		.uleb128 0x2e
 14257 045f 00       		.byte	0
 14258 0460 03       		.uleb128 0x3
 14259 0461 0E       		.uleb128 0xe
 14260 0462 3A       		.uleb128 0x3a
 14261 0463 0B       		.uleb128 0xb
 14262 0464 3B       		.uleb128 0x3b
 14263 0465 05       		.uleb128 0x5
 14264 0466 27       		.uleb128 0x27
 14265 0467 19       		.uleb128 0x19
 14266 0468 20       		.uleb128 0x20
 14267 0469 0B       		.uleb128 0xb
 14268 046a 00       		.byte	0
 14269 046b 00       		.byte	0
 14270 046c 53       		.uleb128 0x53
 14271 046d 2E       		.uleb128 0x2e
 14272 046e 01       		.byte	0x1
 14273 046f 31       		.uleb128 0x31
 14274 0470 13       		.uleb128 0x13
 14275 0471 11       		.uleb128 0x11
 14276 0472 01       		.uleb128 0x1
 14277 0473 12       		.uleb128 0x12
 14278 0474 06       		.uleb128 0x6
 14279 0475 40       		.uleb128 0x40
 14280 0476 18       		.uleb128 0x18
 14281 0477 9742     		.uleb128 0x2117
 14282 0479 19       		.uleb128 0x19
 14283 047a 01       		.uleb128 0x1
 14284 047b 13       		.uleb128 0x13
 14285 047c 00       		.byte	0
 14286 047d 00       		.byte	0
 14287 047e 54       		.uleb128 0x54
 14288 047f 34       		.uleb128 0x34
 14289 0480 00       		.byte	0
 14290 0481 31       		.uleb128 0x31
 14291 0482 13       		.uleb128 0x13
 14292 0483 02       		.uleb128 0x2
 14293 0484 18       		.uleb128 0x18
 14294 0485 00       		.byte	0
ARM GAS  /var/folders/d2/nstgp4h54kz7g1l847x_b8wc0000gn/T//ccW13lHv.s 			page 253


 14295 0486 00       		.byte	0
 14296 0487 55       		.uleb128 0x55
 14297 0488 0B       		.uleb128 0xb
 14298 0489 01       		.byte	0x1
 14299 048a 31       		.uleb128 0x31
 14300 048b 13       		.uleb128 0x13
 14301 048c 11       		.uleb128 0x11
 14302 048d 01       		.uleb128 0x1
 14303 048e 12       		.uleb128 0x12
 14304 048f 06       		.uleb128 0x6
 14305 0490 01       		.uleb128 0x1
 14306 0491 13       		.uleb128 0x13
 14307 0492 00       		.byte	0
 14308 0493 00       		.byte	0
 14309 0494 56       		.uleb128 0x56
 14310 0495 1D       		.uleb128 0x1d
 14311 0496 01       		.byte	0x1
 14312 0497 31       		.uleb128 0x31
 14313 0498 13       		.uleb128 0x13
 14314 0499 11       		.uleb128 0x11
 14315 049a 01       		.uleb128 0x1
 14316 049b 12       		.uleb128 0x12
 14317 049c 06       		.uleb128 0x6
 14318 049d 58       		.uleb128 0x58
 14319 049e 0B       		.uleb128 0xb
 14320 049f 59       		.uleb128 0x59
 14321 04a0 0B       		.uleb128 0xb
 14322 04a1 00       		.byte	0
 14323 04a2 00       		.byte	0
 14324 04a3 57       		.uleb128 0x57
 14325 04a4 2E       		.uleb128 0x2e
 14326 04a5 00       		.byte	0
 14327 04a6 3F       		.uleb128 0x3f
 14328 04a7 19       		.uleb128 0x19
 14329 04a8 3C       		.uleb128 0x3c
 14330 04a9 19       		.uleb128 0x19
 14331 04aa 6E       		.uleb128 0x6e
 14332 04ab 0E       		.uleb128 0xe
 14333 04ac 03       		.uleb128 0x3
 14334 04ad 0E       		.uleb128 0xe
 14335 04ae 3A       		.uleb128 0x3a
 14336 04af 0B       		.uleb128 0xb
 14337 04b0 3B       		.uleb128 0x3b
 14338 04b1 0B       		.uleb128 0xb
 14339 04b2 00       		.byte	0
 14340 04b3 00       		.byte	0
 14341 04b4 58       		.uleb128 0x58
 14342 04b5 2E       		.uleb128 0x2e
 14343 04b6 00       		.byte	0
 14344 04b7 3F       		.uleb128 0x3f
 14345 04b8 19       		.uleb128 0x19
 14346 04b9 3C       		.uleb128 0x3c
 14347 04ba 19       		.uleb128 0x19
 14348 04bb 6E       		.uleb128 0x6e
 14349 04bc 0E       		.uleb128 0xe
 14350 04bd 03       		.uleb128 0x3
 14351 04be 0E       		.uleb128 0xe
ARM GAS  /var/folders/d2/nstgp4h54kz7g1l847x_b8wc0000gn/T//ccW13lHv.s 			page 254


 14352 04bf 3A       		.uleb128 0x3a
 14353 04c0 0B       		.uleb128 0xb
 14354 04c1 3B       		.uleb128 0x3b
 14355 04c2 05       		.uleb128 0x5
 14356 04c3 00       		.byte	0
 14357 04c4 00       		.byte	0
 14358 04c5 59       		.uleb128 0x59
 14359 04c6 2E       		.uleb128 0x2e
 14360 04c7 00       		.byte	0
 14361 04c8 3F       		.uleb128 0x3f
 14362 04c9 19       		.uleb128 0x19
 14363 04ca 3C       		.uleb128 0x3c
 14364 04cb 19       		.uleb128 0x19
 14365 04cc 6E       		.uleb128 0x6e
 14366 04cd 0E       		.uleb128 0xe
 14367 04ce 03       		.uleb128 0x3
 14368 04cf 0E       		.uleb128 0xe
 14369 04d0 3A       		.uleb128 0x3a
 14370 04d1 0B       		.uleb128 0xb
 14371 04d2 3B       		.uleb128 0x3b
 14372 04d3 0B       		.uleb128 0xb
 14373 04d4 6E       		.uleb128 0x6e
 14374 04d5 0E       		.uleb128 0xe
 14375 04d6 00       		.byte	0
 14376 04d7 00       		.byte	0
 14377 04d8 5A       		.uleb128 0x5a
 14378 04d9 2E       		.uleb128 0x2e
 14379 04da 00       		.byte	0
 14380 04db 3F       		.uleb128 0x3f
 14381 04dc 19       		.uleb128 0x19
 14382 04dd 3C       		.uleb128 0x3c
 14383 04de 19       		.uleb128 0x19
 14384 04df 6E       		.uleb128 0x6e
 14385 04e0 0E       		.uleb128 0xe
 14386 04e1 03       		.uleb128 0x3
 14387 04e2 0E       		.uleb128 0xe
 14388 04e3 00       		.byte	0
 14389 04e4 00       		.byte	0
 14390 04e5 00       		.byte	0
 14391              		.section	.debug_loc,"",%progbits
 14392              	.Ldebug_loc0:
 14393              	.LLST203:
 14394 0000 00000000 		.4byte	.LVL488
 14395 0004 0E000000 		.4byte	.LVL489
 14396 0008 0100     		.2byte	0x1
 14397 000a 50       		.byte	0x50
 14398 000b 0E000000 		.4byte	.LVL489
 14399 000f 72000000 		.4byte	.LVL500
 14400 0013 0100     		.2byte	0x1
 14401 0015 54       		.byte	0x54
 14402 0016 72000000 		.4byte	.LVL500
 14403 001a 75000000 		.4byte	.LVL501-1
 14404 001e 0100     		.2byte	0x1
 14405 0020 50       		.byte	0x50
 14406 0021 75000000 		.4byte	.LVL501-1
 14407 0025 76000000 		.4byte	.LVL501
 14408 0029 0400     		.2byte	0x4
ARM GAS  /var/folders/d2/nstgp4h54kz7g1l847x_b8wc0000gn/T//ccW13lHv.s 			page 255


 14409 002b F3       		.byte	0xf3
 14410 002c 01       		.uleb128 0x1
 14411 002d 50       		.byte	0x50
 14412 002e 9F       		.byte	0x9f
 14413 002f 76000000 		.4byte	.LVL501
 14414 0033 94000000 		.4byte	.LFE297
 14415 0037 0100     		.2byte	0x1
 14416 0039 54       		.byte	0x54
 14417 003a 00000000 		.4byte	0
 14418 003e 00000000 		.4byte	0
 14419              	.LLST204:
 14420 0042 00000000 		.4byte	.LVL488
 14421 0046 1B000000 		.4byte	.LVL490-1
 14422 004a 0100     		.2byte	0x1
 14423 004c 51       		.byte	0x51
 14424 004d 1B000000 		.4byte	.LVL490-1
 14425 0051 72000000 		.4byte	.LVL500
 14426 0055 0100     		.2byte	0x1
 14427 0057 57       		.byte	0x57
 14428 0058 72000000 		.4byte	.LVL500
 14429 005c 76000000 		.4byte	.LVL501
 14430 0060 0400     		.2byte	0x4
 14431 0062 F3       		.byte	0xf3
 14432 0063 01       		.uleb128 0x1
 14433 0064 51       		.byte	0x51
 14434 0065 9F       		.byte	0x9f
 14435 0066 76000000 		.4byte	.LVL501
 14436 006a 94000000 		.4byte	.LFE297
 14437 006e 0100     		.2byte	0x1
 14438 0070 57       		.byte	0x57
 14439 0071 00000000 		.4byte	0
 14440 0075 00000000 		.4byte	0
 14441              	.LLST205:
 14442 0079 00000000 		.4byte	.LVL488
 14443 007d 1B000000 		.4byte	.LVL490-1
 14444 0081 0100     		.2byte	0x1
 14445 0083 52       		.byte	0x52
 14446 0084 1B000000 		.4byte	.LVL490-1
 14447 0088 94000000 		.4byte	.LFE297
 14448 008c 0400     		.2byte	0x4
 14449 008e F3       		.byte	0xf3
 14450 008f 01       		.uleb128 0x1
 14451 0090 52       		.byte	0x52
 14452 0091 9F       		.byte	0x9f
 14453 0092 00000000 		.4byte	0
 14454 0096 00000000 		.4byte	0
 14455              	.LLST206:
 14456 009a 1C000000 		.4byte	.LVL490
 14457 009e 22000000 		.4byte	.LVL491
 14458 00a2 0300     		.2byte	0x3
 14459 00a4 08       		.byte	0x8
 14460 00a5 20       		.byte	0x20
 14461 00a6 9F       		.byte	0x9f
 14462 00a7 00000000 		.4byte	0
 14463 00ab 00000000 		.4byte	0
 14464              	.LLST207:
 14465 00af 5C000000 		.4byte	.LVL498
ARM GAS  /var/folders/d2/nstgp4h54kz7g1l847x_b8wc0000gn/T//ccW13lHv.s 			page 256


 14466 00b3 62000000 		.4byte	.LVL499
 14467 00b7 0200     		.2byte	0x2
 14468 00b9 30       		.byte	0x30
 14469 00ba 9F       		.byte	0x9f
 14470 00bb 00000000 		.4byte	0
 14471 00bf 00000000 		.4byte	0
 14472              	.LLST208:
 14473 00c3 00000000 		.4byte	.LVL504
 14474 00c7 0E000000 		.4byte	.LVL505
 14475 00cb 0100     		.2byte	0x1
 14476 00cd 50       		.byte	0x50
 14477 00ce 0E000000 		.4byte	.LVL505
 14478 00d2 28000000 		.4byte	.LVL507
 14479 00d6 0100     		.2byte	0x1
 14480 00d8 56       		.byte	0x56
 14481 00d9 28000000 		.4byte	.LVL507
 14482 00dd 2B000000 		.4byte	.LVL508-1
 14483 00e1 0100     		.2byte	0x1
 14484 00e3 50       		.byte	0x50
 14485 00e4 2B000000 		.4byte	.LVL508-1
 14486 00e8 2C000000 		.4byte	.LVL508
 14487 00ec 0400     		.2byte	0x4
 14488 00ee F3       		.byte	0xf3
 14489 00ef 01       		.uleb128 0x1
 14490 00f0 50       		.byte	0x50
 14491 00f1 9F       		.byte	0x9f
 14492 00f2 2C000000 		.4byte	.LVL508
 14493 00f6 34000000 		.4byte	.LFE296
 14494 00fa 0100     		.2byte	0x1
 14495 00fc 56       		.byte	0x56
 14496 00fd 00000000 		.4byte	0
 14497 0101 00000000 		.4byte	0
 14498              	.LLST209:
 14499 0105 00000000 		.4byte	.LVL504
 14500 0109 13000000 		.4byte	.LVL506-1
 14501 010d 0100     		.2byte	0x1
 14502 010f 51       		.byte	0x51
 14503 0110 13000000 		.4byte	.LVL506-1
 14504 0114 28000000 		.4byte	.LVL507
 14505 0118 0100     		.2byte	0x1
 14506 011a 55       		.byte	0x55
 14507 011b 28000000 		.4byte	.LVL507
 14508 011f 2B000000 		.4byte	.LVL508-1
 14509 0123 0100     		.2byte	0x1
 14510 0125 51       		.byte	0x51
 14511 0126 2B000000 		.4byte	.LVL508-1
 14512 012a 2C000000 		.4byte	.LVL508
 14513 012e 0400     		.2byte	0x4
 14514 0130 F3       		.byte	0xf3
 14515 0131 01       		.uleb128 0x1
 14516 0132 51       		.byte	0x51
 14517 0133 9F       		.byte	0x9f
 14518 0134 2C000000 		.4byte	.LVL508
 14519 0138 34000000 		.4byte	.LFE296
 14520 013c 0100     		.2byte	0x1
 14521 013e 55       		.byte	0x55
 14522 013f 00000000 		.4byte	0
ARM GAS  /var/folders/d2/nstgp4h54kz7g1l847x_b8wc0000gn/T//ccW13lHv.s 			page 257


 14523 0143 00000000 		.4byte	0
 14524              	.LLST194:
 14525 0147 00000000 		.4byte	.LVL462
 14526 014b 14000000 		.4byte	.LVL463
 14527 014f 0100     		.2byte	0x1
 14528 0151 50       		.byte	0x50
 14529 0152 14000000 		.4byte	.LVL463
 14530 0156 B0000000 		.4byte	.LFE295
 14531 015a 0100     		.2byte	0x1
 14532 015c 54       		.byte	0x54
 14533 015d 00000000 		.4byte	0
 14534 0161 00000000 		.4byte	0
 14535              	.LLST195:
 14536 0165 00000000 		.4byte	.LVL462
 14537 0169 21000000 		.4byte	.LVL464-1
 14538 016d 0100     		.2byte	0x1
 14539 016f 51       		.byte	0x51
 14540 0170 21000000 		.4byte	.LVL464-1
 14541 0174 42000000 		.4byte	.LVL469
 14542 0178 0100     		.2byte	0x1
 14543 017a 55       		.byte	0x55
 14544 017b 42000000 		.4byte	.LVL469
 14545 017f 45000000 		.4byte	.LVL470-1
 14546 0183 0100     		.2byte	0x1
 14547 0185 50       		.byte	0x50
 14548 0186 45000000 		.4byte	.LVL470-1
 14549 018a 86000000 		.4byte	.LVL477
 14550 018e 0400     		.2byte	0x4
 14551 0190 F3       		.byte	0xf3
 14552 0191 01       		.uleb128 0x1
 14553 0192 51       		.byte	0x51
 14554 0193 9F       		.byte	0x9f
 14555 0194 86000000 		.4byte	.LVL477
 14556 0198 9C000000 		.4byte	.LVL481
 14557 019c 0100     		.2byte	0x1
 14558 019e 55       		.byte	0x55
 14559 019f 9C000000 		.4byte	.LVL481
 14560 01a3 B0000000 		.4byte	.LFE295
 14561 01a7 0400     		.2byte	0x4
 14562 01a9 F3       		.byte	0xf3
 14563 01aa 01       		.uleb128 0x1
 14564 01ab 51       		.byte	0x51
 14565 01ac 9F       		.byte	0x9f
 14566 01ad 00000000 		.4byte	0
 14567 01b1 00000000 		.4byte	0
 14568              	.LLST196:
 14569 01b5 00000000 		.4byte	.LVL462
 14570 01b9 21000000 		.4byte	.LVL464-1
 14571 01bd 0100     		.2byte	0x1
 14572 01bf 52       		.byte	0x52
 14573 01c0 21000000 		.4byte	.LVL464-1
 14574 01c4 B0000000 		.4byte	.LFE295
 14575 01c8 0400     		.2byte	0x4
 14576 01ca F3       		.byte	0xf3
 14577 01cb 01       		.uleb128 0x1
 14578 01cc 52       		.byte	0x52
 14579 01cd 9F       		.byte	0x9f
ARM GAS  /var/folders/d2/nstgp4h54kz7g1l847x_b8wc0000gn/T//ccW13lHv.s 			page 258


 14580 01ce 00000000 		.4byte	0
 14581 01d2 00000000 		.4byte	0
 14582              	.LLST197:
 14583 01d6 36000000 		.4byte	.LVL468
 14584 01da 94000000 		.4byte	.LVL479
 14585 01de 0100     		.2byte	0x1
 14586 01e0 56       		.byte	0x56
 14587 01e1 9C000000 		.4byte	.LVL481
 14588 01e5 B0000000 		.4byte	.LFE295
 14589 01e9 0100     		.2byte	0x1
 14590 01eb 56       		.byte	0x56
 14591 01ec 00000000 		.4byte	0
 14592 01f0 00000000 		.4byte	0
 14593              	.LLST198:
 14594 01f4 22000000 		.4byte	.LVL464
 14595 01f8 28000000 		.4byte	.LVL465
 14596 01fc 0300     		.2byte	0x3
 14597 01fe 08       		.byte	0x8
 14598 01ff 20       		.byte	0x20
 14599 0200 9F       		.byte	0x9f
 14600 0201 00000000 		.4byte	0
 14601 0205 00000000 		.4byte	0
 14602              	.LLST199:
 14603 0209 66000000 		.4byte	.LVL473
 14604 020d 6C000000 		.4byte	.LVL474
 14605 0211 0200     		.2byte	0x2
 14606 0213 30       		.byte	0x30
 14607 0214 9F       		.byte	0x9f
 14608 0215 00000000 		.4byte	0
 14609 0219 00000000 		.4byte	0
 14610              	.LLST200:
 14611 021d 00000000 		.4byte	.LVL483
 14612 0221 13000000 		.4byte	.LVL484-1
 14613 0225 0100     		.2byte	0x1
 14614 0227 50       		.byte	0x50
 14615 0228 13000000 		.4byte	.LVL484-1
 14616 022c 28000000 		.4byte	.LVL485
 14617 0230 0100     		.2byte	0x1
 14618 0232 55       		.byte	0x55
 14619 0233 28000000 		.4byte	.LVL485
 14620 0237 2B000000 		.4byte	.LVL486-1
 14621 023b 0100     		.2byte	0x1
 14622 023d 50       		.byte	0x50
 14623 023e 2B000000 		.4byte	.LVL486-1
 14624 0242 2C000000 		.4byte	.LVL486
 14625 0246 0400     		.2byte	0x4
 14626 0248 F3       		.byte	0xf3
 14627 0249 01       		.uleb128 0x1
 14628 024a 50       		.byte	0x50
 14629 024b 9F       		.byte	0x9f
 14630 024c 2C000000 		.4byte	.LVL486
 14631 0250 34000000 		.4byte	.LFE294
 14632 0254 0100     		.2byte	0x1
 14633 0256 55       		.byte	0x55
 14634 0257 00000000 		.4byte	0
 14635 025b 00000000 		.4byte	0
 14636              	.LLST201:
ARM GAS  /var/folders/d2/nstgp4h54kz7g1l847x_b8wc0000gn/T//ccW13lHv.s 			page 259


 14637 025f 00000000 		.4byte	.LVL483
 14638 0263 13000000 		.4byte	.LVL484-1
 14639 0267 0100     		.2byte	0x1
 14640 0269 51       		.byte	0x51
 14641 026a 13000000 		.4byte	.LVL484-1
 14642 026e 28000000 		.4byte	.LVL485
 14643 0272 0100     		.2byte	0x1
 14644 0274 56       		.byte	0x56
 14645 0275 28000000 		.4byte	.LVL485
 14646 0279 2B000000 		.4byte	.LVL486-1
 14647 027d 0100     		.2byte	0x1
 14648 027f 51       		.byte	0x51
 14649 0280 2B000000 		.4byte	.LVL486-1
 14650 0284 2C000000 		.4byte	.LVL486
 14651 0288 0400     		.2byte	0x4
 14652 028a F3       		.byte	0xf3
 14653 028b 01       		.uleb128 0x1
 14654 028c 51       		.byte	0x51
 14655 028d 9F       		.byte	0x9f
 14656 028e 2C000000 		.4byte	.LVL486
 14657 0292 34000000 		.4byte	.LFE294
 14658 0296 0100     		.2byte	0x1
 14659 0298 56       		.byte	0x56
 14660 0299 00000000 		.4byte	0
 14661 029d 00000000 		.4byte	0
 14662              	.LLST202:
 14663 02a1 00000000 		.4byte	.LVL483
 14664 02a5 13000000 		.4byte	.LVL484-1
 14665 02a9 0100     		.2byte	0x1
 14666 02ab 52       		.byte	0x52
 14667 02ac 13000000 		.4byte	.LVL484-1
 14668 02b0 34000000 		.4byte	.LFE294
 14669 02b4 0400     		.2byte	0x4
 14670 02b6 F3       		.byte	0xf3
 14671 02b7 01       		.uleb128 0x1
 14672 02b8 52       		.byte	0x52
 14673 02b9 9F       		.byte	0x9f
 14674 02ba 00000000 		.4byte	0
 14675 02be 00000000 		.4byte	0
 14676              	.LLST193:
 14677 02c2 00000000 		.4byte	.LVL457
 14678 02c6 14000000 		.4byte	.LVL458
 14679 02ca 0100     		.2byte	0x1
 14680 02cc 50       		.byte	0x50
 14681 02cd 14000000 		.4byte	.LVL458
 14682 02d1 38000000 		.4byte	.LFE293
 14683 02d5 0100     		.2byte	0x1
 14684 02d7 55       		.byte	0x55
 14685 02d8 00000000 		.4byte	0
 14686 02dc 00000000 		.4byte	0
 14687              	.LLST182:
 14688 02e0 00000000 		.4byte	.LVL448
 14689 02e4 21000000 		.4byte	.LVL450-1
 14690 02e8 0100     		.2byte	0x1
 14691 02ea 50       		.byte	0x50
 14692 02eb 21000000 		.4byte	.LVL450-1
 14693 02ef 50000000 		.4byte	.LVL454
ARM GAS  /var/folders/d2/nstgp4h54kz7g1l847x_b8wc0000gn/T//ccW13lHv.s 			page 260


 14694 02f3 0100     		.2byte	0x1
 14695 02f5 54       		.byte	0x54
 14696 02f6 50000000 		.4byte	.LVL454
 14697 02fa 53000000 		.4byte	.LVL455-1
 14698 02fe 0100     		.2byte	0x1
 14699 0300 50       		.byte	0x50
 14700 0301 53000000 		.4byte	.LVL455-1
 14701 0305 54000000 		.4byte	.LVL455
 14702 0309 0400     		.2byte	0x4
 14703 030b F3       		.byte	0xf3
 14704 030c 01       		.uleb128 0x1
 14705 030d 50       		.byte	0x50
 14706 030e 9F       		.byte	0x9f
 14707 030f 54000000 		.4byte	.LVL455
 14708 0313 60000000 		.4byte	.LFE292
 14709 0317 0100     		.2byte	0x1
 14710 0319 54       		.byte	0x54
 14711 031a 00000000 		.4byte	0
 14712 031e 00000000 		.4byte	0
 14713              	.LLST183:
 14714 0322 00000000 		.4byte	.LVL448
 14715 0326 21000000 		.4byte	.LVL450-1
 14716 032a 0100     		.2byte	0x1
 14717 032c 51       		.byte	0x51
 14718 032d 21000000 		.4byte	.LVL450-1
 14719 0331 60000000 		.4byte	.LFE292
 14720 0335 0400     		.2byte	0x4
 14721 0337 F3       		.byte	0xf3
 14722 0338 01       		.uleb128 0x1
 14723 0339 51       		.byte	0x51
 14724 033a 9F       		.byte	0x9f
 14725 033b 00000000 		.4byte	0
 14726 033f 00000000 		.4byte	0
 14727              	.LLST184:
 14728 0343 00000000 		.4byte	.LVL448
 14729 0347 21000000 		.4byte	.LVL450-1
 14730 034b 0100     		.2byte	0x1
 14731 034d 52       		.byte	0x52
 14732 034e 21000000 		.4byte	.LVL450-1
 14733 0352 60000000 		.4byte	.LFE292
 14734 0356 0400     		.2byte	0x4
 14735 0358 F3       		.byte	0xf3
 14736 0359 01       		.uleb128 0x1
 14737 035a 52       		.byte	0x52
 14738 035b 9F       		.byte	0x9f
 14739 035c 00000000 		.4byte	0
 14740 0360 00000000 		.4byte	0
 14741              	.LLST185:
 14742 0364 00000000 		.4byte	.LVL448
 14743 0368 21000000 		.4byte	.LVL450-1
 14744 036c 0100     		.2byte	0x1
 14745 036e 53       		.byte	0x53
 14746 036f 21000000 		.4byte	.LVL450-1
 14747 0373 60000000 		.4byte	.LFE292
 14748 0377 0400     		.2byte	0x4
 14749 0379 F3       		.byte	0xf3
 14750 037a 01       		.uleb128 0x1
ARM GAS  /var/folders/d2/nstgp4h54kz7g1l847x_b8wc0000gn/T//ccW13lHv.s 			page 261


 14751 037b 53       		.byte	0x53
 14752 037c 9F       		.byte	0x9f
 14753 037d 00000000 		.4byte	0
 14754 0381 00000000 		.4byte	0
 14755              	.LLST186:
 14756 0385 00000000 		.4byte	.LVL448
 14757 0389 50000000 		.4byte	.LVL454
 14758 038d 0200     		.2byte	0x2
 14759 038f 91       		.byte	0x91
 14760 0390 00       		.sleb128 0
 14761 0391 50000000 		.4byte	.LVL454
 14762 0395 54000000 		.4byte	.LVL455
 14763 0399 0200     		.2byte	0x2
 14764 039b 7D       		.byte	0x7d
 14765 039c 00       		.sleb128 0
 14766 039d 54000000 		.4byte	.LVL455
 14767 03a1 60000000 		.4byte	.LFE292
 14768 03a5 0200     		.2byte	0x2
 14769 03a7 91       		.byte	0x91
 14770 03a8 00       		.sleb128 0
 14771 03a9 00000000 		.4byte	0
 14772 03ad 00000000 		.4byte	0
 14773              	.LLST187:
 14774 03b1 00000000 		.4byte	.LVL448
 14775 03b5 50000000 		.4byte	.LVL454
 14776 03b9 0200     		.2byte	0x2
 14777 03bb 91       		.byte	0x91
 14778 03bc 04       		.sleb128 4
 14779 03bd 50000000 		.4byte	.LVL454
 14780 03c1 54000000 		.4byte	.LVL455
 14781 03c5 0200     		.2byte	0x2
 14782 03c7 7D       		.byte	0x7d
 14783 03c8 04       		.sleb128 4
 14784 03c9 54000000 		.4byte	.LVL455
 14785 03cd 60000000 		.4byte	.LFE292
 14786 03d1 0200     		.2byte	0x2
 14787 03d3 91       		.byte	0x91
 14788 03d4 04       		.sleb128 4
 14789 03d5 00000000 		.4byte	0
 14790 03d9 00000000 		.4byte	0
 14791              	.LLST188:
 14792 03dd 1E000000 		.4byte	.LVL449
 14793 03e1 22000000 		.4byte	.LVL450
 14794 03e5 0100     		.2byte	0x1
 14795 03e7 55       		.byte	0x55
 14796 03e8 00000000 		.4byte	0
 14797 03ec 00000000 		.4byte	0
 14798              	.LLST189:
 14799 03f0 1E000000 		.4byte	.LVL449
 14800 03f4 21000000 		.4byte	.LVL450-1
 14801 03f8 0100     		.2byte	0x1
 14802 03fa 53       		.byte	0x53
 14803 03fb 21000000 		.4byte	.LVL450-1
 14804 03ff 22000000 		.4byte	.LVL450
 14805 0403 0400     		.2byte	0x4
 14806 0405 F3       		.byte	0xf3
 14807 0406 01       		.uleb128 0x1
ARM GAS  /var/folders/d2/nstgp4h54kz7g1l847x_b8wc0000gn/T//ccW13lHv.s 			page 262


 14808 0407 53       		.byte	0x53
 14809 0408 9F       		.byte	0x9f
 14810 0409 00000000 		.4byte	0
 14811 040d 00000000 		.4byte	0
 14812              	.LLST190:
 14813 0411 1E000000 		.4byte	.LVL449
 14814 0415 21000000 		.4byte	.LVL450-1
 14815 0419 0100     		.2byte	0x1
 14816 041b 52       		.byte	0x52
 14817 041c 21000000 		.4byte	.LVL450-1
 14818 0420 22000000 		.4byte	.LVL450
 14819 0424 0400     		.2byte	0x4
 14820 0426 F3       		.byte	0xf3
 14821 0427 01       		.uleb128 0x1
 14822 0428 52       		.byte	0x52
 14823 0429 9F       		.byte	0x9f
 14824 042a 00000000 		.4byte	0
 14825 042e 00000000 		.4byte	0
 14826              	.LLST191:
 14827 0432 1E000000 		.4byte	.LVL449
 14828 0436 21000000 		.4byte	.LVL450-1
 14829 043a 0100     		.2byte	0x1
 14830 043c 51       		.byte	0x51
 14831 043d 21000000 		.4byte	.LVL450-1
 14832 0441 22000000 		.4byte	.LVL450
 14833 0445 0400     		.2byte	0x4
 14834 0447 F3       		.byte	0xf3
 14835 0448 01       		.uleb128 0x1
 14836 0449 51       		.byte	0x51
 14837 044a 9F       		.byte	0x9f
 14838 044b 00000000 		.4byte	0
 14839 044f 00000000 		.4byte	0
 14840              	.LLST192:
 14841 0453 1E000000 		.4byte	.LVL449
 14842 0457 21000000 		.4byte	.LVL450-1
 14843 045b 0100     		.2byte	0x1
 14844 045d 50       		.byte	0x50
 14845 045e 21000000 		.4byte	.LVL450-1
 14846 0462 22000000 		.4byte	.LVL450
 14847 0466 0100     		.2byte	0x1
 14848 0468 54       		.byte	0x54
 14849 0469 00000000 		.4byte	0
 14850 046d 00000000 		.4byte	0
 14851              	.LLST171:
 14852 0471 00000000 		.4byte	.LVL427
 14853 0475 14000000 		.4byte	.LVL428
 14854 0479 0100     		.2byte	0x1
 14855 047b 50       		.byte	0x50
 14856 047c 14000000 		.4byte	.LVL428
 14857 0480 88000000 		.4byte	.LVL439
 14858 0484 0100     		.2byte	0x1
 14859 0486 56       		.byte	0x56
 14860 0487 88000000 		.4byte	.LVL439
 14861 048b 8B000000 		.4byte	.LVL440-1
 14862 048f 0100     		.2byte	0x1
 14863 0491 50       		.byte	0x50
 14864 0492 8B000000 		.4byte	.LVL440-1
ARM GAS  /var/folders/d2/nstgp4h54kz7g1l847x_b8wc0000gn/T//ccW13lHv.s 			page 263


 14865 0496 8C000000 		.4byte	.LVL440
 14866 049a 0400     		.2byte	0x4
 14867 049c F3       		.byte	0xf3
 14868 049d 01       		.uleb128 0x1
 14869 049e 50       		.byte	0x50
 14870 049f 9F       		.byte	0x9f
 14871 04a0 8C000000 		.4byte	.LVL440
 14872 04a4 B0000000 		.4byte	.LFE290
 14873 04a8 0100     		.2byte	0x1
 14874 04aa 56       		.byte	0x56
 14875 04ab 00000000 		.4byte	0
 14876 04af 00000000 		.4byte	0
 14877              	.LLST172:
 14878 04b3 00000000 		.4byte	.LVL427
 14879 04b7 21000000 		.4byte	.LVL429-1
 14880 04bb 0100     		.2byte	0x1
 14881 04bd 51       		.byte	0x51
 14882 04be 21000000 		.4byte	.LVL429-1
 14883 04c2 88000000 		.4byte	.LVL439
 14884 04c6 0100     		.2byte	0x1
 14885 04c8 57       		.byte	0x57
 14886 04c9 88000000 		.4byte	.LVL439
 14887 04cd 8C000000 		.4byte	.LVL440
 14888 04d1 0400     		.2byte	0x4
 14889 04d3 F3       		.byte	0xf3
 14890 04d4 01       		.uleb128 0x1
 14891 04d5 51       		.byte	0x51
 14892 04d6 9F       		.byte	0x9f
 14893 04d7 8C000000 		.4byte	.LVL440
 14894 04db B0000000 		.4byte	.LFE290
 14895 04df 0100     		.2byte	0x1
 14896 04e1 57       		.byte	0x57
 14897 04e2 00000000 		.4byte	0
 14898 04e6 00000000 		.4byte	0
 14899              	.LLST173:
 14900 04ea 00000000 		.4byte	.LVL427
 14901 04ee 21000000 		.4byte	.LVL429-1
 14902 04f2 0100     		.2byte	0x1
 14903 04f4 52       		.byte	0x52
 14904 04f5 21000000 		.4byte	.LVL429-1
 14905 04f9 B0000000 		.4byte	.LFE290
 14906 04fd 0400     		.2byte	0x4
 14907 04ff F3       		.byte	0xf3
 14908 0500 01       		.uleb128 0x1
 14909 0501 52       		.byte	0x52
 14910 0502 9F       		.byte	0x9f
 14911 0503 00000000 		.4byte	0
 14912 0507 00000000 		.4byte	0
 14913              	.LLST174:
 14914 050b 36000000 		.4byte	.LVL433
 14915 050f 42000000 		.4byte	.LVL434
 14916 0513 0200     		.2byte	0x2
 14917 0515 30       		.byte	0x30
 14918 0516 9F       		.byte	0x9f
 14919 0517 00000000 		.4byte	0
 14920 051b 00000000 		.4byte	0
 14921              	.LLST175:
ARM GAS  /var/folders/d2/nstgp4h54kz7g1l847x_b8wc0000gn/T//ccW13lHv.s 			page 264


 14922 051f 22000000 		.4byte	.LVL429
 14923 0523 28000000 		.4byte	.LVL430
 14924 0527 0300     		.2byte	0x3
 14925 0529 08       		.byte	0x8
 14926 052a 20       		.byte	0x20
 14927 052b 9F       		.byte	0x9f
 14928 052c 00000000 		.4byte	0
 14929 0530 00000000 		.4byte	0
 14930              	.LLST176:
 14931 0534 70000000 		.4byte	.LVL437
 14932 0538 76000000 		.4byte	.LVL438
 14933 053c 0200     		.2byte	0x2
 14934 053e 30       		.byte	0x30
 14935 053f 9F       		.byte	0x9f
 14936 0540 00000000 		.4byte	0
 14937 0544 00000000 		.4byte	0
 14938              	.LLST163:
 14939 0548 00000000 		.4byte	.LVL402
 14940 054c 16000000 		.4byte	.LVL403
 14941 0550 0100     		.2byte	0x1
 14942 0552 50       		.byte	0x50
 14943 0553 16000000 		.4byte	.LVL403
 14944 0557 9C000000 		.4byte	.LFE289
 14945 055b 0100     		.2byte	0x1
 14946 055d 54       		.byte	0x54
 14947 055e 00000000 		.4byte	0
 14948 0562 00000000 		.4byte	0
 14949              	.LLST164:
 14950 0566 00000000 		.4byte	.LVL402
 14951 056a 19000000 		.4byte	.LVL404-1
 14952 056e 0100     		.2byte	0x1
 14953 0570 51       		.byte	0x51
 14954 0571 19000000 		.4byte	.LVL404-1
 14955 0575 9C000000 		.4byte	.LFE289
 14956 0579 0100     		.2byte	0x1
 14957 057b 56       		.byte	0x56
 14958 057c 00000000 		.4byte	0
 14959 0580 00000000 		.4byte	0
 14960              	.LLST165:
 14961 0584 2C000000 		.4byte	.LVL408
 14962 0588 34000000 		.4byte	.LVL409
 14963 058c 0200     		.2byte	0x2
 14964 058e 30       		.byte	0x30
 14965 058f 9F       		.byte	0x9f
 14966 0590 34000000 		.4byte	.LVL409
 14967 0594 48000000 		.4byte	.LVL411
 14968 0598 0100     		.2byte	0x1
 14969 059a 53       		.byte	0x53
 14970 059b 00000000 		.4byte	0
 14971 059f 00000000 		.4byte	0
 14972              	.LLST166:
 14973 05a3 48000000 		.4byte	.LVL411
 14974 05a7 7E000000 		.4byte	.LVL418
 14975 05ab 0100     		.2byte	0x1
 14976 05ad 55       		.byte	0x55
 14977 05ae 86000000 		.4byte	.LVL420
 14978 05b2 9C000000 		.4byte	.LFE289
ARM GAS  /var/folders/d2/nstgp4h54kz7g1l847x_b8wc0000gn/T//ccW13lHv.s 			page 265


 14979 05b6 0100     		.2byte	0x1
 14980 05b8 55       		.byte	0x55
 14981 05b9 00000000 		.4byte	0
 14982 05bd 00000000 		.4byte	0
 14983              	.LLST167:
 14984 05c1 1A000000 		.4byte	.LVL404
 14985 05c5 20000000 		.4byte	.LVL405
 14986 05c9 0300     		.2byte	0x3
 14987 05cb 08       		.byte	0x8
 14988 05cc 20       		.byte	0x20
 14989 05cd 9F       		.byte	0x9f
 14990 05ce 00000000 		.4byte	0
 14991 05d2 00000000 		.4byte	0
 14992              	.LLST168:
 14993 05d6 62000000 		.4byte	.LVL414
 14994 05da 68000000 		.4byte	.LVL415
 14995 05de 0200     		.2byte	0x2
 14996 05e0 30       		.byte	0x30
 14997 05e1 9F       		.byte	0x9f
 14998 05e2 00000000 		.4byte	0
 14999 05e6 00000000 		.4byte	0
 15000              	.LLST169:
 15001 05ea 00000000 		.4byte	.LVL422
 15002 05ee 11000000 		.4byte	.LVL423-1
 15003 05f2 0100     		.2byte	0x1
 15004 05f4 50       		.byte	0x50
 15005 05f5 11000000 		.4byte	.LVL423-1
 15006 05f9 24000000 		.4byte	.LVL424
 15007 05fd 0100     		.2byte	0x1
 15008 05ff 55       		.byte	0x55
 15009 0600 24000000 		.4byte	.LVL424
 15010 0604 27000000 		.4byte	.LVL425-1
 15011 0608 0100     		.2byte	0x1
 15012 060a 50       		.byte	0x50
 15013 060b 27000000 		.4byte	.LVL425-1
 15014 060f 28000000 		.4byte	.LVL425
 15015 0613 0400     		.2byte	0x4
 15016 0615 F3       		.byte	0xf3
 15017 0616 01       		.uleb128 0x1
 15018 0617 50       		.byte	0x50
 15019 0618 9F       		.byte	0x9f
 15020 0619 28000000 		.4byte	.LVL425
 15021 061d 30000000 		.4byte	.LFE288
 15022 0621 0100     		.2byte	0x1
 15023 0623 55       		.byte	0x55
 15024 0624 00000000 		.4byte	0
 15025 0628 00000000 		.4byte	0
 15026              	.LLST170:
 15027 062c 00000000 		.4byte	.LVL422
 15028 0630 11000000 		.4byte	.LVL423-1
 15029 0634 0100     		.2byte	0x1
 15030 0636 51       		.byte	0x51
 15031 0637 11000000 		.4byte	.LVL423-1
 15032 063b 24000000 		.4byte	.LVL424
 15033 063f 0100     		.2byte	0x1
 15034 0641 56       		.byte	0x56
 15035 0642 24000000 		.4byte	.LVL424
ARM GAS  /var/folders/d2/nstgp4h54kz7g1l847x_b8wc0000gn/T//ccW13lHv.s 			page 266


 15036 0646 27000000 		.4byte	.LVL425-1
 15037 064a 0100     		.2byte	0x1
 15038 064c 51       		.byte	0x51
 15039 064d 27000000 		.4byte	.LVL425-1
 15040 0651 28000000 		.4byte	.LVL425
 15041 0655 0400     		.2byte	0x4
 15042 0657 F3       		.byte	0xf3
 15043 0658 01       		.uleb128 0x1
 15044 0659 51       		.byte	0x51
 15045 065a 9F       		.byte	0x9f
 15046 065b 28000000 		.4byte	.LVL425
 15047 065f 30000000 		.4byte	.LFE288
 15048 0663 0100     		.2byte	0x1
 15049 0665 56       		.byte	0x56
 15050 0666 00000000 		.4byte	0
 15051 066a 00000000 		.4byte	0
 15052              	.LLST162:
 15053 066e 00000000 		.4byte	.LVL397
 15054 0672 14000000 		.4byte	.LVL398
 15055 0676 0100     		.2byte	0x1
 15056 0678 50       		.byte	0x50
 15057 0679 14000000 		.4byte	.LVL398
 15058 067d 34000000 		.4byte	.LFE287
 15059 0681 0100     		.2byte	0x1
 15060 0683 54       		.byte	0x54
 15061 0684 00000000 		.4byte	0
 15062 0688 00000000 		.4byte	0
 15063              	.LLST151:
 15064 068c 00000000 		.4byte	.LVL390
 15065 0690 23000000 		.4byte	.LVL392-1
 15066 0694 0100     		.2byte	0x1
 15067 0696 50       		.byte	0x50
 15068 0697 23000000 		.4byte	.LVL392-1
 15069 069b 40000000 		.4byte	.LVL394
 15070 069f 0100     		.2byte	0x1
 15071 06a1 54       		.byte	0x54
 15072 06a2 40000000 		.4byte	.LVL394
 15073 06a6 43000000 		.4byte	.LVL395-1
 15074 06aa 0100     		.2byte	0x1
 15075 06ac 50       		.byte	0x50
 15076 06ad 43000000 		.4byte	.LVL395-1
 15077 06b1 44000000 		.4byte	.LVL395
 15078 06b5 0400     		.2byte	0x4
 15079 06b7 F3       		.byte	0xf3
 15080 06b8 01       		.uleb128 0x1
 15081 06b9 50       		.byte	0x50
 15082 06ba 9F       		.byte	0x9f
 15083 06bb 44000000 		.4byte	.LVL395
 15084 06bf 50000000 		.4byte	.LFE286
 15085 06c3 0100     		.2byte	0x1
 15086 06c5 54       		.byte	0x54
 15087 06c6 00000000 		.4byte	0
 15088 06ca 00000000 		.4byte	0
 15089              	.LLST152:
 15090 06ce 00000000 		.4byte	.LVL390
 15091 06d2 23000000 		.4byte	.LVL392-1
 15092 06d6 0100     		.2byte	0x1
ARM GAS  /var/folders/d2/nstgp4h54kz7g1l847x_b8wc0000gn/T//ccW13lHv.s 			page 267


 15093 06d8 51       		.byte	0x51
 15094 06d9 23000000 		.4byte	.LVL392-1
 15095 06dd 50000000 		.4byte	.LFE286
 15096 06e1 0400     		.2byte	0x4
 15097 06e3 F3       		.byte	0xf3
 15098 06e4 01       		.uleb128 0x1
 15099 06e5 51       		.byte	0x51
 15100 06e6 9F       		.byte	0x9f
 15101 06e7 00000000 		.4byte	0
 15102 06eb 00000000 		.4byte	0
 15103              	.LLST153:
 15104 06ef 00000000 		.4byte	.LVL390
 15105 06f3 23000000 		.4byte	.LVL392-1
 15106 06f7 0100     		.2byte	0x1
 15107 06f9 52       		.byte	0x52
 15108 06fa 23000000 		.4byte	.LVL392-1
 15109 06fe 50000000 		.4byte	.LFE286
 15110 0702 0400     		.2byte	0x4
 15111 0704 F3       		.byte	0xf3
 15112 0705 01       		.uleb128 0x1
 15113 0706 52       		.byte	0x52
 15114 0707 9F       		.byte	0x9f
 15115 0708 00000000 		.4byte	0
 15116 070c 00000000 		.4byte	0
 15117              	.LLST154:
 15118 0710 00000000 		.4byte	.LVL390
 15119 0714 23000000 		.4byte	.LVL392-1
 15120 0718 0100     		.2byte	0x1
 15121 071a 53       		.byte	0x53
 15122 071b 23000000 		.4byte	.LVL392-1
 15123 071f 50000000 		.4byte	.LFE286
 15124 0723 0400     		.2byte	0x4
 15125 0725 F3       		.byte	0xf3
 15126 0726 01       		.uleb128 0x1
 15127 0727 53       		.byte	0x53
 15128 0728 9F       		.byte	0x9f
 15129 0729 00000000 		.4byte	0
 15130 072d 00000000 		.4byte	0
 15131              	.LLST155:
 15132 0731 00000000 		.4byte	.LVL390
 15133 0735 40000000 		.4byte	.LVL394
 15134 0739 0200     		.2byte	0x2
 15135 073b 91       		.byte	0x91
 15136 073c 00       		.sleb128 0
 15137 073d 40000000 		.4byte	.LVL394
 15138 0741 44000000 		.4byte	.LVL395
 15139 0745 0200     		.2byte	0x2
 15140 0747 7D       		.byte	0x7d
 15141 0748 00       		.sleb128 0
 15142 0749 44000000 		.4byte	.LVL395
 15143 074d 50000000 		.4byte	.LFE286
 15144 0751 0200     		.2byte	0x2
 15145 0753 91       		.byte	0x91
 15146 0754 00       		.sleb128 0
 15147 0755 00000000 		.4byte	0
 15148 0759 00000000 		.4byte	0
 15149              	.LLST156:
ARM GAS  /var/folders/d2/nstgp4h54kz7g1l847x_b8wc0000gn/T//ccW13lHv.s 			page 268


 15150 075d 00000000 		.4byte	.LVL390
 15151 0761 40000000 		.4byte	.LVL394
 15152 0765 0200     		.2byte	0x2
 15153 0767 91       		.byte	0x91
 15154 0768 04       		.sleb128 4
 15155 0769 40000000 		.4byte	.LVL394
 15156 076d 44000000 		.4byte	.LVL395
 15157 0771 0200     		.2byte	0x2
 15158 0773 7D       		.byte	0x7d
 15159 0774 04       		.sleb128 4
 15160 0775 44000000 		.4byte	.LVL395
 15161 0779 50000000 		.4byte	.LFE286
 15162 077d 0200     		.2byte	0x2
 15163 077f 91       		.byte	0x91
 15164 0780 04       		.sleb128 4
 15165 0781 00000000 		.4byte	0
 15166 0785 00000000 		.4byte	0
 15167              	.LLST157:
 15168 0789 20000000 		.4byte	.LVL391
 15169 078d 24000000 		.4byte	.LVL392
 15170 0791 0100     		.2byte	0x1
 15171 0793 57       		.byte	0x57
 15172 0794 00000000 		.4byte	0
 15173 0798 00000000 		.4byte	0
 15174              	.LLST158:
 15175 079c 20000000 		.4byte	.LVL391
 15176 07a0 23000000 		.4byte	.LVL392-1
 15177 07a4 0100     		.2byte	0x1
 15178 07a6 53       		.byte	0x53
 15179 07a7 23000000 		.4byte	.LVL392-1
 15180 07ab 24000000 		.4byte	.LVL392
 15181 07af 0400     		.2byte	0x4
 15182 07b1 F3       		.byte	0xf3
 15183 07b2 01       		.uleb128 0x1
 15184 07b3 53       		.byte	0x53
 15185 07b4 9F       		.byte	0x9f
 15186 07b5 00000000 		.4byte	0
 15187 07b9 00000000 		.4byte	0
 15188              	.LLST159:
 15189 07bd 20000000 		.4byte	.LVL391
 15190 07c1 23000000 		.4byte	.LVL392-1
 15191 07c5 0100     		.2byte	0x1
 15192 07c7 52       		.byte	0x52
 15193 07c8 23000000 		.4byte	.LVL392-1
 15194 07cc 24000000 		.4byte	.LVL392
 15195 07d0 0400     		.2byte	0x4
 15196 07d2 F3       		.byte	0xf3
 15197 07d3 01       		.uleb128 0x1
 15198 07d4 52       		.byte	0x52
 15199 07d5 9F       		.byte	0x9f
 15200 07d6 00000000 		.4byte	0
 15201 07da 00000000 		.4byte	0
 15202              	.LLST160:
 15203 07de 20000000 		.4byte	.LVL391
 15204 07e2 23000000 		.4byte	.LVL392-1
 15205 07e6 0100     		.2byte	0x1
 15206 07e8 51       		.byte	0x51
ARM GAS  /var/folders/d2/nstgp4h54kz7g1l847x_b8wc0000gn/T//ccW13lHv.s 			page 269


 15207 07e9 23000000 		.4byte	.LVL392-1
 15208 07ed 24000000 		.4byte	.LVL392
 15209 07f1 0400     		.2byte	0x4
 15210 07f3 F3       		.byte	0xf3
 15211 07f4 01       		.uleb128 0x1
 15212 07f5 51       		.byte	0x51
 15213 07f6 9F       		.byte	0x9f
 15214 07f7 00000000 		.4byte	0
 15215 07fb 00000000 		.4byte	0
 15216              	.LLST161:
 15217 07ff 20000000 		.4byte	.LVL391
 15218 0803 23000000 		.4byte	.LVL392-1
 15219 0807 0100     		.2byte	0x1
 15220 0809 50       		.byte	0x50
 15221 080a 23000000 		.4byte	.LVL392-1
 15222 080e 24000000 		.4byte	.LVL392
 15223 0812 0100     		.2byte	0x1
 15224 0814 54       		.byte	0x54
 15225 0815 00000000 		.4byte	0
 15226 0819 00000000 		.4byte	0
 15227              	.LLST141:
 15228 081d 00000000 		.4byte	.LVL369
 15229 0821 16000000 		.4byte	.LVL370
 15230 0825 0100     		.2byte	0x1
 15231 0827 50       		.byte	0x50
 15232 0828 16000000 		.4byte	.LVL370
 15233 082c 74000000 		.4byte	.LVL382
 15234 0830 0100     		.2byte	0x1
 15235 0832 54       		.byte	0x54
 15236 0833 74000000 		.4byte	.LVL382
 15237 0837 77000000 		.4byte	.LVL383-1
 15238 083b 0100     		.2byte	0x1
 15239 083d 50       		.byte	0x50
 15240 083e 77000000 		.4byte	.LVL383-1
 15241 0842 78000000 		.4byte	.LVL383
 15242 0846 0400     		.2byte	0x4
 15243 0848 F3       		.byte	0xf3
 15244 0849 01       		.uleb128 0x1
 15245 084a 50       		.byte	0x50
 15246 084b 9F       		.byte	0x9f
 15247 084c 78000000 		.4byte	.LVL383
 15248 0850 94000000 		.4byte	.LFE284
 15249 0854 0100     		.2byte	0x1
 15250 0856 54       		.byte	0x54
 15251 0857 00000000 		.4byte	0
 15252 085b 00000000 		.4byte	0
 15253              	.LLST142:
 15254 085f 00000000 		.4byte	.LVL369
 15255 0863 19000000 		.4byte	.LVL371-1
 15256 0867 0100     		.2byte	0x1
 15257 0869 51       		.byte	0x51
 15258 086a 19000000 		.4byte	.LVL371-1
 15259 086e 74000000 		.4byte	.LVL382
 15260 0872 0100     		.2byte	0x1
 15261 0874 55       		.byte	0x55
 15262 0875 74000000 		.4byte	.LVL382
 15263 0879 78000000 		.4byte	.LVL383
ARM GAS  /var/folders/d2/nstgp4h54kz7g1l847x_b8wc0000gn/T//ccW13lHv.s 			page 270


 15264 087d 0400     		.2byte	0x4
 15265 087f F3       		.byte	0xf3
 15266 0880 01       		.uleb128 0x1
 15267 0881 51       		.byte	0x51
 15268 0882 9F       		.byte	0x9f
 15269 0883 78000000 		.4byte	.LVL383
 15270 0887 94000000 		.4byte	.LFE284
 15271 088b 0100     		.2byte	0x1
 15272 088d 55       		.byte	0x55
 15273 088e 00000000 		.4byte	0
 15274 0892 00000000 		.4byte	0
 15275              	.LLST143:
 15276 0896 28000000 		.4byte	.LVL374
 15277 089a 30000000 		.4byte	.LVL375
 15278 089e 0200     		.2byte	0x2
 15279 08a0 30       		.byte	0x30
 15280 08a1 9F       		.byte	0x9f
 15281 08a2 30000000 		.4byte	.LVL375
 15282 08a6 44000000 		.4byte	.LVL377
 15283 08aa 0100     		.2byte	0x1
 15284 08ac 53       		.byte	0x53
 15285 08ad 00000000 		.4byte	0
 15286 08b1 00000000 		.4byte	0
 15287              	.LLST144:
 15288 08b5 1A000000 		.4byte	.LVL371
 15289 08b9 20000000 		.4byte	.LVL372
 15290 08bd 0300     		.2byte	0x3
 15291 08bf 08       		.byte	0x8
 15292 08c0 20       		.byte	0x20
 15293 08c1 9F       		.byte	0x9f
 15294 08c2 00000000 		.4byte	0
 15295 08c6 00000000 		.4byte	0
 15296              	.LLST145:
 15297 08ca 5E000000 		.4byte	.LVL380
 15298 08ce 64000000 		.4byte	.LVL381
 15299 08d2 0200     		.2byte	0x2
 15300 08d4 30       		.byte	0x30
 15301 08d5 9F       		.byte	0x9f
 15302 08d6 00000000 		.4byte	0
 15303 08da 00000000 		.4byte	0
 15304              	.LLST134:
 15305 08de 00000000 		.4byte	.LVL346
 15306 08e2 16000000 		.4byte	.LVL347
 15307 08e6 0100     		.2byte	0x1
 15308 08e8 50       		.byte	0x50
 15309 08e9 16000000 		.4byte	.LVL347
 15310 08ed 98000000 		.4byte	.LFE283
 15311 08f1 0100     		.2byte	0x1
 15312 08f3 54       		.byte	0x54
 15313 08f4 00000000 		.4byte	0
 15314 08f8 00000000 		.4byte	0
 15315              	.LLST135:
 15316 08fc 00000000 		.4byte	.LVL346
 15317 0900 19000000 		.4byte	.LVL348-1
 15318 0904 0100     		.2byte	0x1
 15319 0906 51       		.byte	0x51
 15320 0907 19000000 		.4byte	.LVL348-1
ARM GAS  /var/folders/d2/nstgp4h54kz7g1l847x_b8wc0000gn/T//ccW13lHv.s 			page 271


 15321 090b 98000000 		.4byte	.LFE283
 15322 090f 0100     		.2byte	0x1
 15323 0911 55       		.byte	0x55
 15324 0912 00000000 		.4byte	0
 15325 0916 00000000 		.4byte	0
 15326              	.LLST136:
 15327 091a 2C000000 		.4byte	.LVL352
 15328 091e 34000000 		.4byte	.LVL353
 15329 0922 0200     		.2byte	0x2
 15330 0924 30       		.byte	0x30
 15331 0925 9F       		.byte	0x9f
 15332 0926 34000000 		.4byte	.LVL353
 15333 092a 48000000 		.4byte	.LVL355
 15334 092e 0100     		.2byte	0x1
 15335 0930 53       		.byte	0x53
 15336 0931 00000000 		.4byte	0
 15337 0935 00000000 		.4byte	0
 15338              	.LLST137:
 15339 0939 1A000000 		.4byte	.LVL348
 15340 093d 20000000 		.4byte	.LVL349
 15341 0941 0300     		.2byte	0x3
 15342 0943 08       		.byte	0x8
 15343 0944 20       		.byte	0x20
 15344 0945 9F       		.byte	0x9f
 15345 0946 00000000 		.4byte	0
 15346 094a 00000000 		.4byte	0
 15347              	.LLST138:
 15348 094e 62000000 		.4byte	.LVL358
 15349 0952 68000000 		.4byte	.LVL359
 15350 0956 0200     		.2byte	0x2
 15351 0958 30       		.byte	0x30
 15352 0959 9F       		.byte	0x9f
 15353 095a 00000000 		.4byte	0
 15354 095e 00000000 		.4byte	0
 15355              	.LLST139:
 15356 0962 00000000 		.4byte	.LVL364
 15357 0966 11000000 		.4byte	.LVL365-1
 15358 096a 0100     		.2byte	0x1
 15359 096c 50       		.byte	0x50
 15360 096d 11000000 		.4byte	.LVL365-1
 15361 0971 24000000 		.4byte	.LVL366
 15362 0975 0100     		.2byte	0x1
 15363 0977 55       		.byte	0x55
 15364 0978 24000000 		.4byte	.LVL366
 15365 097c 27000000 		.4byte	.LVL367-1
 15366 0980 0100     		.2byte	0x1
 15367 0982 50       		.byte	0x50
 15368 0983 27000000 		.4byte	.LVL367-1
 15369 0987 28000000 		.4byte	.LVL367
 15370 098b 0400     		.2byte	0x4
 15371 098d F3       		.byte	0xf3
 15372 098e 01       		.uleb128 0x1
 15373 098f 50       		.byte	0x50
 15374 0990 9F       		.byte	0x9f
 15375 0991 28000000 		.4byte	.LVL367
 15376 0995 30000000 		.4byte	.LFE282
 15377 0999 0100     		.2byte	0x1
ARM GAS  /var/folders/d2/nstgp4h54kz7g1l847x_b8wc0000gn/T//ccW13lHv.s 			page 272


 15378 099b 55       		.byte	0x55
 15379 099c 00000000 		.4byte	0
 15380 09a0 00000000 		.4byte	0
 15381              	.LLST140:
 15382 09a4 00000000 		.4byte	.LVL364
 15383 09a8 11000000 		.4byte	.LVL365-1
 15384 09ac 0100     		.2byte	0x1
 15385 09ae 51       		.byte	0x51
 15386 09af 11000000 		.4byte	.LVL365-1
 15387 09b3 24000000 		.4byte	.LVL366
 15388 09b7 0100     		.2byte	0x1
 15389 09b9 56       		.byte	0x56
 15390 09ba 24000000 		.4byte	.LVL366
 15391 09be 27000000 		.4byte	.LVL367-1
 15392 09c2 0100     		.2byte	0x1
 15393 09c4 51       		.byte	0x51
 15394 09c5 27000000 		.4byte	.LVL367-1
 15395 09c9 28000000 		.4byte	.LVL367
 15396 09cd 0400     		.2byte	0x4
 15397 09cf F3       		.byte	0xf3
 15398 09d0 01       		.uleb128 0x1
 15399 09d1 51       		.byte	0x51
 15400 09d2 9F       		.byte	0x9f
 15401 09d3 28000000 		.4byte	.LVL367
 15402 09d7 30000000 		.4byte	.LFE282
 15403 09db 0100     		.2byte	0x1
 15404 09dd 56       		.byte	0x56
 15405 09de 00000000 		.4byte	0
 15406 09e2 00000000 		.4byte	0
 15407              	.LLST133:
 15408 09e6 00000000 		.4byte	.LVL341
 15409 09ea 14000000 		.4byte	.LVL342
 15410 09ee 0100     		.2byte	0x1
 15411 09f0 50       		.byte	0x50
 15412 09f1 14000000 		.4byte	.LVL342
 15413 09f5 34000000 		.4byte	.LFE281
 15414 09f9 0100     		.2byte	0x1
 15415 09fb 54       		.byte	0x54
 15416 09fc 00000000 		.4byte	0
 15417 0a00 00000000 		.4byte	0
 15418              	.LLST123:
 15419 0a04 00000000 		.4byte	.LVL335
 15420 0a08 1B000000 		.4byte	.LVL337-1
 15421 0a0c 0100     		.2byte	0x1
 15422 0a0e 50       		.byte	0x50
 15423 0a0f 1B000000 		.4byte	.LVL337-1
 15424 0a13 2C000000 		.4byte	.LVL338
 15425 0a17 0100     		.2byte	0x1
 15426 0a19 54       		.byte	0x54
 15427 0a1a 2C000000 		.4byte	.LVL338
 15428 0a1e 2F000000 		.4byte	.LVL339-1
 15429 0a22 0100     		.2byte	0x1
 15430 0a24 50       		.byte	0x50
 15431 0a25 2F000000 		.4byte	.LVL339-1
 15432 0a29 30000000 		.4byte	.LVL339
 15433 0a2d 0400     		.2byte	0x4
 15434 0a2f F3       		.byte	0xf3
ARM GAS  /var/folders/d2/nstgp4h54kz7g1l847x_b8wc0000gn/T//ccW13lHv.s 			page 273


 15435 0a30 01       		.uleb128 0x1
 15436 0a31 50       		.byte	0x50
 15437 0a32 9F       		.byte	0x9f
 15438 0a33 30000000 		.4byte	.LVL339
 15439 0a37 38000000 		.4byte	.LFE280
 15440 0a3b 0100     		.2byte	0x1
 15441 0a3d 54       		.byte	0x54
 15442 0a3e 00000000 		.4byte	0
 15443 0a42 00000000 		.4byte	0
 15444              	.LLST124:
 15445 0a46 00000000 		.4byte	.LVL335
 15446 0a4a 1B000000 		.4byte	.LVL337-1
 15447 0a4e 0100     		.2byte	0x1
 15448 0a50 51       		.byte	0x51
 15449 0a51 1B000000 		.4byte	.LVL337-1
 15450 0a55 38000000 		.4byte	.LFE280
 15451 0a59 0400     		.2byte	0x4
 15452 0a5b F3       		.byte	0xf3
 15453 0a5c 01       		.uleb128 0x1
 15454 0a5d 51       		.byte	0x51
 15455 0a5e 9F       		.byte	0x9f
 15456 0a5f 00000000 		.4byte	0
 15457 0a63 00000000 		.4byte	0
 15458              	.LLST125:
 15459 0a67 00000000 		.4byte	.LVL335
 15460 0a6b 1B000000 		.4byte	.LVL337-1
 15461 0a6f 0100     		.2byte	0x1
 15462 0a71 52       		.byte	0x52
 15463 0a72 1B000000 		.4byte	.LVL337-1
 15464 0a76 38000000 		.4byte	.LFE280
 15465 0a7a 0400     		.2byte	0x4
 15466 0a7c F3       		.byte	0xf3
 15467 0a7d 01       		.uleb128 0x1
 15468 0a7e 52       		.byte	0x52
 15469 0a7f 9F       		.byte	0x9f
 15470 0a80 00000000 		.4byte	0
 15471 0a84 00000000 		.4byte	0
 15472              	.LLST126:
 15473 0a88 00000000 		.4byte	.LVL335
 15474 0a8c 1B000000 		.4byte	.LVL337-1
 15475 0a90 0100     		.2byte	0x1
 15476 0a92 53       		.byte	0x53
 15477 0a93 1B000000 		.4byte	.LVL337-1
 15478 0a97 38000000 		.4byte	.LFE280
 15479 0a9b 0400     		.2byte	0x4
 15480 0a9d F3       		.byte	0xf3
 15481 0a9e 01       		.uleb128 0x1
 15482 0a9f 53       		.byte	0x53
 15483 0aa0 9F       		.byte	0x9f
 15484 0aa1 00000000 		.4byte	0
 15485 0aa5 00000000 		.4byte	0
 15486              	.LLST127:
 15487 0aa9 00000000 		.4byte	.LVL335
 15488 0aad 2C000000 		.4byte	.LVL338
 15489 0ab1 0200     		.2byte	0x2
 15490 0ab3 91       		.byte	0x91
 15491 0ab4 00       		.sleb128 0
ARM GAS  /var/folders/d2/nstgp4h54kz7g1l847x_b8wc0000gn/T//ccW13lHv.s 			page 274


 15492 0ab5 2C000000 		.4byte	.LVL338
 15493 0ab9 30000000 		.4byte	.LVL339
 15494 0abd 0200     		.2byte	0x2
 15495 0abf 7D       		.byte	0x7d
 15496 0ac0 00       		.sleb128 0
 15497 0ac1 30000000 		.4byte	.LVL339
 15498 0ac5 38000000 		.4byte	.LFE280
 15499 0ac9 0200     		.2byte	0x2
 15500 0acb 91       		.byte	0x91
 15501 0acc 00       		.sleb128 0
 15502 0acd 00000000 		.4byte	0
 15503 0ad1 00000000 		.4byte	0
 15504              	.LLST128:
 15505 0ad5 18000000 		.4byte	.LVL336
 15506 0ad9 1C000000 		.4byte	.LVL337
 15507 0add 0100     		.2byte	0x1
 15508 0adf 56       		.byte	0x56
 15509 0ae0 00000000 		.4byte	0
 15510 0ae4 00000000 		.4byte	0
 15511              	.LLST129:
 15512 0ae8 18000000 		.4byte	.LVL336
 15513 0aec 1B000000 		.4byte	.LVL337-1
 15514 0af0 0100     		.2byte	0x1
 15515 0af2 53       		.byte	0x53
 15516 0af3 1B000000 		.4byte	.LVL337-1
 15517 0af7 1C000000 		.4byte	.LVL337
 15518 0afb 0400     		.2byte	0x4
 15519 0afd F3       		.byte	0xf3
 15520 0afe 01       		.uleb128 0x1
 15521 0aff 53       		.byte	0x53
 15522 0b00 9F       		.byte	0x9f
 15523 0b01 00000000 		.4byte	0
 15524 0b05 00000000 		.4byte	0
 15525              	.LLST130:
 15526 0b09 18000000 		.4byte	.LVL336
 15527 0b0d 1B000000 		.4byte	.LVL337-1
 15528 0b11 0100     		.2byte	0x1
 15529 0b13 52       		.byte	0x52
 15530 0b14 1B000000 		.4byte	.LVL337-1
 15531 0b18 1C000000 		.4byte	.LVL337
 15532 0b1c 0400     		.2byte	0x4
 15533 0b1e F3       		.byte	0xf3
 15534 0b1f 01       		.uleb128 0x1
 15535 0b20 52       		.byte	0x52
 15536 0b21 9F       		.byte	0x9f
 15537 0b22 00000000 		.4byte	0
 15538 0b26 00000000 		.4byte	0
 15539              	.LLST131:
 15540 0b2a 18000000 		.4byte	.LVL336
 15541 0b2e 1B000000 		.4byte	.LVL337-1
 15542 0b32 0100     		.2byte	0x1
 15543 0b34 51       		.byte	0x51
 15544 0b35 1B000000 		.4byte	.LVL337-1
 15545 0b39 1C000000 		.4byte	.LVL337
 15546 0b3d 0400     		.2byte	0x4
 15547 0b3f F3       		.byte	0xf3
 15548 0b40 01       		.uleb128 0x1
ARM GAS  /var/folders/d2/nstgp4h54kz7g1l847x_b8wc0000gn/T//ccW13lHv.s 			page 275


 15549 0b41 51       		.byte	0x51
 15550 0b42 9F       		.byte	0x9f
 15551 0b43 00000000 		.4byte	0
 15552 0b47 00000000 		.4byte	0
 15553              	.LLST132:
 15554 0b4b 18000000 		.4byte	.LVL336
 15555 0b4f 1B000000 		.4byte	.LVL337-1
 15556 0b53 0100     		.2byte	0x1
 15557 0b55 50       		.byte	0x50
 15558 0b56 1B000000 		.4byte	.LVL337-1
 15559 0b5a 1C000000 		.4byte	.LVL337
 15560 0b5e 0100     		.2byte	0x1
 15561 0b60 54       		.byte	0x54
 15562 0b61 00000000 		.4byte	0
 15563 0b65 00000000 		.4byte	0
 15564              	.LLST114:
 15565 0b69 00000000 		.4byte	.LVL311
 15566 0b6d 14000000 		.4byte	.LVL312
 15567 0b71 0100     		.2byte	0x1
 15568 0b73 50       		.byte	0x50
 15569 0b74 14000000 		.4byte	.LVL312
 15570 0b78 32000000 		.4byte	.LVL318
 15571 0b7c 0100     		.2byte	0x1
 15572 0b7e 54       		.byte	0x54
 15573 0b7f 32000000 		.4byte	.LVL318
 15574 0b83 7C000000 		.4byte	.LFE278
 15575 0b87 0400     		.2byte	0x4
 15576 0b89 F3       		.byte	0xf3
 15577 0b8a 01       		.uleb128 0x1
 15578 0b8b 50       		.byte	0x50
 15579 0b8c 9F       		.byte	0x9f
 15580 0b8d 00000000 		.4byte	0
 15581 0b91 00000000 		.4byte	0
 15582              	.LLST115:
 15583 0b95 18000000 		.4byte	.LVL313
 15584 0b99 1E000000 		.4byte	.LVL314
 15585 0b9d 0300     		.2byte	0x3
 15586 0b9f 08       		.byte	0x8
 15587 0ba0 20       		.byte	0x20
 15588 0ba1 9F       		.byte	0x9f
 15589 0ba2 00000000 		.4byte	0
 15590 0ba6 00000000 		.4byte	0
 15591              	.LLST116:
 15592 0baa 4C000000 		.4byte	.LVL321
 15593 0bae 52000000 		.4byte	.LVL322
 15594 0bb2 0200     		.2byte	0x2
 15595 0bb4 30       		.byte	0x30
 15596 0bb5 9F       		.byte	0x9f
 15597 0bb6 00000000 		.4byte	0
 15598 0bba 00000000 		.4byte	0
 15599              	.LLST117:
 15600 0bbe 00000000 		.4byte	.LVL326
 15601 0bc2 0F000000 		.4byte	.LVL327-1
 15602 0bc6 0100     		.2byte	0x1
 15603 0bc8 50       		.byte	0x50
 15604 0bc9 0F000000 		.4byte	.LVL327-1
 15605 0bcd 20000000 		.4byte	.LVL328
ARM GAS  /var/folders/d2/nstgp4h54kz7g1l847x_b8wc0000gn/T//ccW13lHv.s 			page 276


 15606 0bd1 0100     		.2byte	0x1
 15607 0bd3 55       		.byte	0x55
 15608 0bd4 20000000 		.4byte	.LVL328
 15609 0bd8 23000000 		.4byte	.LVL329-1
 15610 0bdc 0100     		.2byte	0x1
 15611 0bde 50       		.byte	0x50
 15612 0bdf 23000000 		.4byte	.LVL329-1
 15613 0be3 24000000 		.4byte	.LVL329
 15614 0be7 0400     		.2byte	0x4
 15615 0be9 F3       		.byte	0xf3
 15616 0bea 01       		.uleb128 0x1
 15617 0beb 50       		.byte	0x50
 15618 0bec 9F       		.byte	0x9f
 15619 0bed 24000000 		.4byte	.LVL329
 15620 0bf1 2C000000 		.4byte	.LFE277
 15621 0bf5 0100     		.2byte	0x1
 15622 0bf7 55       		.byte	0x55
 15623 0bf8 00000000 		.4byte	0
 15624 0bfc 00000000 		.4byte	0
 15625              	.LLST110:
 15626 0c00 00000000 		.4byte	.LVL297
 15627 0c04 16000000 		.4byte	.LVL298
 15628 0c08 0100     		.2byte	0x1
 15629 0c0a 50       		.byte	0x50
 15630 0c0b 16000000 		.4byte	.LVL298
 15631 0c0f 5A000000 		.4byte	.LVL307
 15632 0c13 0100     		.2byte	0x1
 15633 0c15 54       		.byte	0x54
 15634 0c16 5A000000 		.4byte	.LVL307
 15635 0c1a 5D000000 		.4byte	.LVL308-1
 15636 0c1e 0100     		.2byte	0x1
 15637 0c20 50       		.byte	0x50
 15638 0c21 5D000000 		.4byte	.LVL308-1
 15639 0c25 5E000000 		.4byte	.LVL308
 15640 0c29 0400     		.2byte	0x4
 15641 0c2b F3       		.byte	0xf3
 15642 0c2c 01       		.uleb128 0x1
 15643 0c2d 50       		.byte	0x50
 15644 0c2e 9F       		.byte	0x9f
 15645 0c2f 5E000000 		.4byte	.LVL308
 15646 0c33 7C000000 		.4byte	.LFE276
 15647 0c37 0100     		.2byte	0x1
 15648 0c39 54       		.byte	0x54
 15649 0c3a 00000000 		.4byte	0
 15650 0c3e 00000000 		.4byte	0
 15651              	.LLST111:
 15652 0c42 00000000 		.4byte	.LVL297
 15653 0c46 19000000 		.4byte	.LVL299-1
 15654 0c4a 0100     		.2byte	0x1
 15655 0c4c 51       		.byte	0x51
 15656 0c4d 19000000 		.4byte	.LVL299-1
 15657 0c51 7C000000 		.4byte	.LFE276
 15658 0c55 0400     		.2byte	0x4
 15659 0c57 F3       		.byte	0xf3
 15660 0c58 01       		.uleb128 0x1
 15661 0c59 51       		.byte	0x51
 15662 0c5a 9F       		.byte	0x9f
ARM GAS  /var/folders/d2/nstgp4h54kz7g1l847x_b8wc0000gn/T//ccW13lHv.s 			page 277


 15663 0c5b 00000000 		.4byte	0
 15664 0c5f 00000000 		.4byte	0
 15665              	.LLST112:
 15666 0c63 1A000000 		.4byte	.LVL299
 15667 0c67 20000000 		.4byte	.LVL300
 15668 0c6b 0300     		.2byte	0x3
 15669 0c6d 08       		.byte	0x8
 15670 0c6e 20       		.byte	0x20
 15671 0c6f 9F       		.byte	0x9f
 15672 0c70 00000000 		.4byte	0
 15673 0c74 00000000 		.4byte	0
 15674              	.LLST113:
 15675 0c78 44000000 		.4byte	.LVL305
 15676 0c7c 4A000000 		.4byte	.LVL306
 15677 0c80 0200     		.2byte	0x2
 15678 0c82 30       		.byte	0x30
 15679 0c83 9F       		.byte	0x9f
 15680 0c84 00000000 		.4byte	0
 15681 0c88 00000000 		.4byte	0
 15682              	.LLST106:
 15683 0c8c 00000000 		.4byte	.LVL291
 15684 0c90 15000000 		.4byte	.LVL293-1
 15685 0c94 0100     		.2byte	0x1
 15686 0c96 50       		.byte	0x50
 15687 0c97 15000000 		.4byte	.LVL293-1
 15688 0c9b 26000000 		.4byte	.LVL294
 15689 0c9f 0100     		.2byte	0x1
 15690 0ca1 54       		.byte	0x54
 15691 0ca2 26000000 		.4byte	.LVL294
 15692 0ca6 29000000 		.4byte	.LVL295-1
 15693 0caa 0100     		.2byte	0x1
 15694 0cac 50       		.byte	0x50
 15695 0cad 29000000 		.4byte	.LVL295-1
 15696 0cb1 2A000000 		.4byte	.LVL295
 15697 0cb5 0400     		.2byte	0x4
 15698 0cb7 F3       		.byte	0xf3
 15699 0cb8 01       		.uleb128 0x1
 15700 0cb9 50       		.byte	0x50
 15701 0cba 9F       		.byte	0x9f
 15702 0cbb 2A000000 		.4byte	.LVL295
 15703 0cbf 34000000 		.4byte	.LFE275
 15704 0cc3 0100     		.2byte	0x1
 15705 0cc5 54       		.byte	0x54
 15706 0cc6 00000000 		.4byte	0
 15707 0cca 00000000 		.4byte	0
 15708              	.LLST107:
 15709 0cce 00000000 		.4byte	.LVL291
 15710 0cd2 15000000 		.4byte	.LVL293-1
 15711 0cd6 0100     		.2byte	0x1
 15712 0cd8 51       		.byte	0x51
 15713 0cd9 15000000 		.4byte	.LVL293-1
 15714 0cdd 34000000 		.4byte	.LFE275
 15715 0ce1 0400     		.2byte	0x4
 15716 0ce3 F3       		.byte	0xf3
 15717 0ce4 01       		.uleb128 0x1
 15718 0ce5 51       		.byte	0x51
 15719 0ce6 9F       		.byte	0x9f
ARM GAS  /var/folders/d2/nstgp4h54kz7g1l847x_b8wc0000gn/T//ccW13lHv.s 			page 278


 15720 0ce7 00000000 		.4byte	0
 15721 0ceb 00000000 		.4byte	0
 15722              	.LLST108:
 15723 0cef 00000000 		.4byte	.LVL291
 15724 0cf3 15000000 		.4byte	.LVL293-1
 15725 0cf7 0100     		.2byte	0x1
 15726 0cf9 52       		.byte	0x52
 15727 0cfa 15000000 		.4byte	.LVL293-1
 15728 0cfe 34000000 		.4byte	.LFE275
 15729 0d02 0400     		.2byte	0x4
 15730 0d04 F3       		.byte	0xf3
 15731 0d05 01       		.uleb128 0x1
 15732 0d06 52       		.byte	0x52
 15733 0d07 9F       		.byte	0x9f
 15734 0d08 00000000 		.4byte	0
 15735 0d0c 00000000 		.4byte	0
 15736              	.LLST109:
 15737 0d10 00000000 		.4byte	.LVL291
 15738 0d14 0A000000 		.4byte	.LVL292
 15739 0d18 0100     		.2byte	0x1
 15740 0d1a 53       		.byte	0x53
 15741 0d1b 0A000000 		.4byte	.LVL292
 15742 0d1f 15000000 		.4byte	.LVL293-1
 15743 0d23 0200     		.2byte	0x2
 15744 0d25 70       		.byte	0x70
 15745 0d26 10       		.sleb128 16
 15746 0d27 15000000 		.4byte	.LVL293-1
 15747 0d2b 34000000 		.4byte	.LFE275
 15748 0d2f 0400     		.2byte	0x4
 15749 0d31 F3       		.byte	0xf3
 15750 0d32 01       		.uleb128 0x1
 15751 0d33 53       		.byte	0x53
 15752 0d34 9F       		.byte	0x9f
 15753 0d35 00000000 		.4byte	0
 15754 0d39 00000000 		.4byte	0
 15755              	.LLST103:
 15756 0d3d 00000000 		.4byte	.LVL288
 15757 0d41 1F000000 		.4byte	.LVL289-1
 15758 0d45 0100     		.2byte	0x1
 15759 0d47 50       		.byte	0x50
 15760 0d48 1F000000 		.4byte	.LVL289-1
 15761 0d4c 20000000 		.4byte	.LVL289
 15762 0d50 0400     		.2byte	0x4
 15763 0d52 F3       		.byte	0xf3
 15764 0d53 01       		.uleb128 0x1
 15765 0d54 50       		.byte	0x50
 15766 0d55 9F       		.byte	0x9f
 15767 0d56 20000000 		.4byte	.LVL289
 15768 0d5a 23000000 		.4byte	.LVL290-1
 15769 0d5e 0100     		.2byte	0x1
 15770 0d60 50       		.byte	0x50
 15771 0d61 23000000 		.4byte	.LVL290-1
 15772 0d65 28000000 		.4byte	.LFE274
 15773 0d69 0400     		.2byte	0x4
 15774 0d6b F3       		.byte	0xf3
 15775 0d6c 01       		.uleb128 0x1
 15776 0d6d 50       		.byte	0x50
ARM GAS  /var/folders/d2/nstgp4h54kz7g1l847x_b8wc0000gn/T//ccW13lHv.s 			page 279


 15777 0d6e 9F       		.byte	0x9f
 15778 0d6f 00000000 		.4byte	0
 15779 0d73 00000000 		.4byte	0
 15780              	.LLST104:
 15781 0d77 00000000 		.4byte	.LVL288
 15782 0d7b 1F000000 		.4byte	.LVL289-1
 15783 0d7f 0100     		.2byte	0x1
 15784 0d81 51       		.byte	0x51
 15785 0d82 1F000000 		.4byte	.LVL289-1
 15786 0d86 20000000 		.4byte	.LVL289
 15787 0d8a 0400     		.2byte	0x4
 15788 0d8c F3       		.byte	0xf3
 15789 0d8d 01       		.uleb128 0x1
 15790 0d8e 51       		.byte	0x51
 15791 0d8f 9F       		.byte	0x9f
 15792 0d90 20000000 		.4byte	.LVL289
 15793 0d94 23000000 		.4byte	.LVL290-1
 15794 0d98 0100     		.2byte	0x1
 15795 0d9a 51       		.byte	0x51
 15796 0d9b 23000000 		.4byte	.LVL290-1
 15797 0d9f 28000000 		.4byte	.LFE274
 15798 0da3 0400     		.2byte	0x4
 15799 0da5 F3       		.byte	0xf3
 15800 0da6 01       		.uleb128 0x1
 15801 0da7 51       		.byte	0x51
 15802 0da8 9F       		.byte	0x9f
 15803 0da9 00000000 		.4byte	0
 15804 0dad 00000000 		.4byte	0
 15805              	.LLST105:
 15806 0db1 00000000 		.4byte	.LVL288
 15807 0db5 1F000000 		.4byte	.LVL289-1
 15808 0db9 0100     		.2byte	0x1
 15809 0dbb 52       		.byte	0x52
 15810 0dbc 1F000000 		.4byte	.LVL289-1
 15811 0dc0 20000000 		.4byte	.LVL289
 15812 0dc4 0400     		.2byte	0x4
 15813 0dc6 F3       		.byte	0xf3
 15814 0dc7 01       		.uleb128 0x1
 15815 0dc8 52       		.byte	0x52
 15816 0dc9 9F       		.byte	0x9f
 15817 0dca 20000000 		.4byte	.LVL289
 15818 0dce 23000000 		.4byte	.LVL290-1
 15819 0dd2 0100     		.2byte	0x1
 15820 0dd4 52       		.byte	0x52
 15821 0dd5 23000000 		.4byte	.LVL290-1
 15822 0dd9 28000000 		.4byte	.LFE274
 15823 0ddd 0400     		.2byte	0x4
 15824 0ddf F3       		.byte	0xf3
 15825 0de0 01       		.uleb128 0x1
 15826 0de1 52       		.byte	0x52
 15827 0de2 9F       		.byte	0x9f
 15828 0de3 00000000 		.4byte	0
 15829 0de7 00000000 		.4byte	0
 15830              	.LLST99:
 15831 0deb 00000000 		.4byte	.LVL274
 15832 0def 16000000 		.4byte	.LVL275
 15833 0df3 0100     		.2byte	0x1
ARM GAS  /var/folders/d2/nstgp4h54kz7g1l847x_b8wc0000gn/T//ccW13lHv.s 			page 280


 15834 0df5 50       		.byte	0x50
 15835 0df6 16000000 		.4byte	.LVL275
 15836 0dfa 5A000000 		.4byte	.LVL284
 15837 0dfe 0100     		.2byte	0x1
 15838 0e00 54       		.byte	0x54
 15839 0e01 5A000000 		.4byte	.LVL284
 15840 0e05 5D000000 		.4byte	.LVL285-1
 15841 0e09 0100     		.2byte	0x1
 15842 0e0b 50       		.byte	0x50
 15843 0e0c 5D000000 		.4byte	.LVL285-1
 15844 0e10 5E000000 		.4byte	.LVL285
 15845 0e14 0400     		.2byte	0x4
 15846 0e16 F3       		.byte	0xf3
 15847 0e17 01       		.uleb128 0x1
 15848 0e18 50       		.byte	0x50
 15849 0e19 9F       		.byte	0x9f
 15850 0e1a 5E000000 		.4byte	.LVL285
 15851 0e1e 7C000000 		.4byte	.LFE273
 15852 0e22 0100     		.2byte	0x1
 15853 0e24 54       		.byte	0x54
 15854 0e25 00000000 		.4byte	0
 15855 0e29 00000000 		.4byte	0
 15856              	.LLST100:
 15857 0e2d 00000000 		.4byte	.LVL274
 15858 0e31 19000000 		.4byte	.LVL276-1
 15859 0e35 0100     		.2byte	0x1
 15860 0e37 51       		.byte	0x51
 15861 0e38 19000000 		.4byte	.LVL276-1
 15862 0e3c 5A000000 		.4byte	.LVL284
 15863 0e40 0100     		.2byte	0x1
 15864 0e42 56       		.byte	0x56
 15865 0e43 5A000000 		.4byte	.LVL284
 15866 0e47 5E000000 		.4byte	.LVL285
 15867 0e4b 0400     		.2byte	0x4
 15868 0e4d F3       		.byte	0xf3
 15869 0e4e 01       		.uleb128 0x1
 15870 0e4f 51       		.byte	0x51
 15871 0e50 9F       		.byte	0x9f
 15872 0e51 5E000000 		.4byte	.LVL285
 15873 0e55 7C000000 		.4byte	.LFE273
 15874 0e59 0100     		.2byte	0x1
 15875 0e5b 56       		.byte	0x56
 15876 0e5c 00000000 		.4byte	0
 15877 0e60 00000000 		.4byte	0
 15878              	.LLST101:
 15879 0e64 1A000000 		.4byte	.LVL276
 15880 0e68 20000000 		.4byte	.LVL277
 15881 0e6c 0300     		.2byte	0x3
 15882 0e6e 08       		.byte	0x8
 15883 0e6f 20       		.byte	0x20
 15884 0e70 9F       		.byte	0x9f
 15885 0e71 00000000 		.4byte	0
 15886 0e75 00000000 		.4byte	0
 15887              	.LLST102:
 15888 0e79 44000000 		.4byte	.LVL282
 15889 0e7d 4A000000 		.4byte	.LVL283
 15890 0e81 0200     		.2byte	0x2
ARM GAS  /var/folders/d2/nstgp4h54kz7g1l847x_b8wc0000gn/T//ccW13lHv.s 			page 281


 15891 0e83 30       		.byte	0x30
 15892 0e84 9F       		.byte	0x9f
 15893 0e85 00000000 		.4byte	0
 15894 0e89 00000000 		.4byte	0
 15895              	.LLST94:
 15896 0e8d 00000000 		.4byte	.LVL252
 15897 0e91 14000000 		.4byte	.LVL253
 15898 0e95 0100     		.2byte	0x1
 15899 0e97 50       		.byte	0x50
 15900 0e98 14000000 		.4byte	.LVL253
 15901 0e9c 32000000 		.4byte	.LVL259
 15902 0ea0 0100     		.2byte	0x1
 15903 0ea2 54       		.byte	0x54
 15904 0ea3 32000000 		.4byte	.LVL259
 15905 0ea7 7C000000 		.4byte	.LFE272
 15906 0eab 0400     		.2byte	0x4
 15907 0ead F3       		.byte	0xf3
 15908 0eae 01       		.uleb128 0x1
 15909 0eaf 50       		.byte	0x50
 15910 0eb0 9F       		.byte	0x9f
 15911 0eb1 00000000 		.4byte	0
 15912 0eb5 00000000 		.4byte	0
 15913              	.LLST95:
 15914 0eb9 32000000 		.4byte	.LVL259
 15915 0ebd 5C000000 		.4byte	.LVL264
 15916 0ec1 0100     		.2byte	0x1
 15917 0ec3 54       		.byte	0x54
 15918 0ec4 5C000000 		.4byte	.LVL264
 15919 0ec8 60000000 		.4byte	.LVL265
 15920 0ecc 0100     		.2byte	0x1
 15921 0ece 50       		.byte	0x50
 15922 0ecf 60000000 		.4byte	.LVL265
 15923 0ed3 68000000 		.4byte	.LVL267
 15924 0ed7 0100     		.2byte	0x1
 15925 0ed9 54       		.byte	0x54
 15926 0eda 68000000 		.4byte	.LVL267
 15927 0ede 6B000000 		.4byte	.LVL268-1
 15928 0ee2 0100     		.2byte	0x1
 15929 0ee4 50       		.byte	0x50
 15930 0ee5 6B000000 		.4byte	.LVL268-1
 15931 0ee9 7C000000 		.4byte	.LFE272
 15932 0eed 0100     		.2byte	0x1
 15933 0eef 54       		.byte	0x54
 15934 0ef0 00000000 		.4byte	0
 15935 0ef4 00000000 		.4byte	0
 15936              	.LLST96:
 15937 0ef8 18000000 		.4byte	.LVL254
 15938 0efc 1E000000 		.4byte	.LVL255
 15939 0f00 0300     		.2byte	0x3
 15940 0f02 08       		.byte	0x8
 15941 0f03 20       		.byte	0x20
 15942 0f04 9F       		.byte	0x9f
 15943 0f05 00000000 		.4byte	0
 15944 0f09 00000000 		.4byte	0
 15945              	.LLST97:
 15946 0f0d 4C000000 		.4byte	.LVL262
 15947 0f11 52000000 		.4byte	.LVL263
ARM GAS  /var/folders/d2/nstgp4h54kz7g1l847x_b8wc0000gn/T//ccW13lHv.s 			page 282


 15948 0f15 0200     		.2byte	0x2
 15949 0f17 30       		.byte	0x30
 15950 0f18 9F       		.byte	0x9f
 15951 0f19 00000000 		.4byte	0
 15952 0f1d 00000000 		.4byte	0
 15953              	.LLST98:
 15954 0f21 00000000 		.4byte	.LVL269
 15955 0f25 0F000000 		.4byte	.LVL270-1
 15956 0f29 0100     		.2byte	0x1
 15957 0f2b 50       		.byte	0x50
 15958 0f2c 0F000000 		.4byte	.LVL270-1
 15959 0f30 20000000 		.4byte	.LVL271
 15960 0f34 0100     		.2byte	0x1
 15961 0f36 55       		.byte	0x55
 15962 0f37 20000000 		.4byte	.LVL271
 15963 0f3b 23000000 		.4byte	.LVL272-1
 15964 0f3f 0100     		.2byte	0x1
 15965 0f41 50       		.byte	0x50
 15966 0f42 23000000 		.4byte	.LVL272-1
 15967 0f46 24000000 		.4byte	.LVL272
 15968 0f4a 0400     		.2byte	0x4
 15969 0f4c F3       		.byte	0xf3
 15970 0f4d 01       		.uleb128 0x1
 15971 0f4e 50       		.byte	0x50
 15972 0f4f 9F       		.byte	0x9f
 15973 0f50 24000000 		.4byte	.LVL272
 15974 0f54 2C000000 		.4byte	.LFE271
 15975 0f58 0100     		.2byte	0x1
 15976 0f5a 55       		.byte	0x55
 15977 0f5b 00000000 		.4byte	0
 15978 0f5f 00000000 		.4byte	0
 15979              	.LLST90:
 15980 0f63 00000000 		.4byte	.LVL246
 15981 0f67 15000000 		.4byte	.LVL248-1
 15982 0f6b 0100     		.2byte	0x1
 15983 0f6d 50       		.byte	0x50
 15984 0f6e 15000000 		.4byte	.LVL248-1
 15985 0f72 26000000 		.4byte	.LVL249
 15986 0f76 0100     		.2byte	0x1
 15987 0f78 54       		.byte	0x54
 15988 0f79 26000000 		.4byte	.LVL249
 15989 0f7d 29000000 		.4byte	.LVL250-1
 15990 0f81 0100     		.2byte	0x1
 15991 0f83 50       		.byte	0x50
 15992 0f84 29000000 		.4byte	.LVL250-1
 15993 0f88 2A000000 		.4byte	.LVL250
 15994 0f8c 0400     		.2byte	0x4
 15995 0f8e F3       		.byte	0xf3
 15996 0f8f 01       		.uleb128 0x1
 15997 0f90 50       		.byte	0x50
 15998 0f91 9F       		.byte	0x9f
 15999 0f92 2A000000 		.4byte	.LVL250
 16000 0f96 34000000 		.4byte	.LFE270
 16001 0f9a 0100     		.2byte	0x1
 16002 0f9c 54       		.byte	0x54
 16003 0f9d 00000000 		.4byte	0
 16004 0fa1 00000000 		.4byte	0
ARM GAS  /var/folders/d2/nstgp4h54kz7g1l847x_b8wc0000gn/T//ccW13lHv.s 			page 283


 16005              	.LLST91:
 16006 0fa5 00000000 		.4byte	.LVL246
 16007 0fa9 15000000 		.4byte	.LVL248-1
 16008 0fad 0100     		.2byte	0x1
 16009 0faf 51       		.byte	0x51
 16010 0fb0 15000000 		.4byte	.LVL248-1
 16011 0fb4 34000000 		.4byte	.LFE270
 16012 0fb8 0400     		.2byte	0x4
 16013 0fba F3       		.byte	0xf3
 16014 0fbb 01       		.uleb128 0x1
 16015 0fbc 51       		.byte	0x51
 16016 0fbd 9F       		.byte	0x9f
 16017 0fbe 00000000 		.4byte	0
 16018 0fc2 00000000 		.4byte	0
 16019              	.LLST92:
 16020 0fc6 00000000 		.4byte	.LVL246
 16021 0fca 15000000 		.4byte	.LVL248-1
 16022 0fce 0100     		.2byte	0x1
 16023 0fd0 52       		.byte	0x52
 16024 0fd1 15000000 		.4byte	.LVL248-1
 16025 0fd5 34000000 		.4byte	.LFE270
 16026 0fd9 0400     		.2byte	0x4
 16027 0fdb F3       		.byte	0xf3
 16028 0fdc 01       		.uleb128 0x1
 16029 0fdd 52       		.byte	0x52
 16030 0fde 9F       		.byte	0x9f
 16031 0fdf 00000000 		.4byte	0
 16032 0fe3 00000000 		.4byte	0
 16033              	.LLST93:
 16034 0fe7 00000000 		.4byte	.LVL246
 16035 0feb 0A000000 		.4byte	.LVL247
 16036 0fef 0100     		.2byte	0x1
 16037 0ff1 53       		.byte	0x53
 16038 0ff2 0A000000 		.4byte	.LVL247
 16039 0ff6 15000000 		.4byte	.LVL248-1
 16040 0ffa 0200     		.2byte	0x2
 16041 0ffc 70       		.byte	0x70
 16042 0ffd 10       		.sleb128 16
 16043 0ffe 15000000 		.4byte	.LVL248-1
 16044 1002 34000000 		.4byte	.LFE270
 16045 1006 0400     		.2byte	0x4
 16046 1008 F3       		.byte	0xf3
 16047 1009 01       		.uleb128 0x1
 16048 100a 53       		.byte	0x53
 16049 100b 9F       		.byte	0x9f
 16050 100c 00000000 		.4byte	0
 16051 1010 00000000 		.4byte	0
 16052              	.LLST87:
 16053 1014 00000000 		.4byte	.LVL243
 16054 1018 1F000000 		.4byte	.LVL244-1
 16055 101c 0100     		.2byte	0x1
 16056 101e 50       		.byte	0x50
 16057 101f 1F000000 		.4byte	.LVL244-1
 16058 1023 20000000 		.4byte	.LVL244
 16059 1027 0400     		.2byte	0x4
 16060 1029 F3       		.byte	0xf3
 16061 102a 01       		.uleb128 0x1
ARM GAS  /var/folders/d2/nstgp4h54kz7g1l847x_b8wc0000gn/T//ccW13lHv.s 			page 284


 16062 102b 50       		.byte	0x50
 16063 102c 9F       		.byte	0x9f
 16064 102d 20000000 		.4byte	.LVL244
 16065 1031 23000000 		.4byte	.LVL245-1
 16066 1035 0100     		.2byte	0x1
 16067 1037 50       		.byte	0x50
 16068 1038 23000000 		.4byte	.LVL245-1
 16069 103c 28000000 		.4byte	.LFE269
 16070 1040 0400     		.2byte	0x4
 16071 1042 F3       		.byte	0xf3
 16072 1043 01       		.uleb128 0x1
 16073 1044 50       		.byte	0x50
 16074 1045 9F       		.byte	0x9f
 16075 1046 00000000 		.4byte	0
 16076 104a 00000000 		.4byte	0
 16077              	.LLST88:
 16078 104e 00000000 		.4byte	.LVL243
 16079 1052 1F000000 		.4byte	.LVL244-1
 16080 1056 0100     		.2byte	0x1
 16081 1058 51       		.byte	0x51
 16082 1059 1F000000 		.4byte	.LVL244-1
 16083 105d 20000000 		.4byte	.LVL244
 16084 1061 0400     		.2byte	0x4
 16085 1063 F3       		.byte	0xf3
 16086 1064 01       		.uleb128 0x1
 16087 1065 51       		.byte	0x51
 16088 1066 9F       		.byte	0x9f
 16089 1067 20000000 		.4byte	.LVL244
 16090 106b 23000000 		.4byte	.LVL245-1
 16091 106f 0100     		.2byte	0x1
 16092 1071 51       		.byte	0x51
 16093 1072 23000000 		.4byte	.LVL245-1
 16094 1076 28000000 		.4byte	.LFE269
 16095 107a 0400     		.2byte	0x4
 16096 107c F3       		.byte	0xf3
 16097 107d 01       		.uleb128 0x1
 16098 107e 51       		.byte	0x51
 16099 107f 9F       		.byte	0x9f
 16100 1080 00000000 		.4byte	0
 16101 1084 00000000 		.4byte	0
 16102              	.LLST89:
 16103 1088 00000000 		.4byte	.LVL243
 16104 108c 1F000000 		.4byte	.LVL244-1
 16105 1090 0100     		.2byte	0x1
 16106 1092 52       		.byte	0x52
 16107 1093 1F000000 		.4byte	.LVL244-1
 16108 1097 20000000 		.4byte	.LVL244
 16109 109b 0400     		.2byte	0x4
 16110 109d F3       		.byte	0xf3
 16111 109e 01       		.uleb128 0x1
 16112 109f 52       		.byte	0x52
 16113 10a0 9F       		.byte	0x9f
 16114 10a1 20000000 		.4byte	.LVL244
 16115 10a5 23000000 		.4byte	.LVL245-1
 16116 10a9 0100     		.2byte	0x1
 16117 10ab 52       		.byte	0x52
 16118 10ac 23000000 		.4byte	.LVL245-1
ARM GAS  /var/folders/d2/nstgp4h54kz7g1l847x_b8wc0000gn/T//ccW13lHv.s 			page 285


 16119 10b0 28000000 		.4byte	.LFE269
 16120 10b4 0400     		.2byte	0x4
 16121 10b6 F3       		.byte	0xf3
 16122 10b7 01       		.uleb128 0x1
 16123 10b8 52       		.byte	0x52
 16124 10b9 9F       		.byte	0x9f
 16125 10ba 00000000 		.4byte	0
 16126 10be 00000000 		.4byte	0
 16127              	.LLST83:
 16128 10c2 00000000 		.4byte	.LVL228
 16129 10c6 1C000000 		.4byte	.LVL229
 16130 10ca 0100     		.2byte	0x1
 16131 10cc 50       		.byte	0x50
 16132 10cd 1C000000 		.4byte	.LVL229
 16133 10d1 66000000 		.4byte	.LVL239
 16134 10d5 0100     		.2byte	0x1
 16135 10d7 54       		.byte	0x54
 16136 10d8 66000000 		.4byte	.LVL239
 16137 10dc 69000000 		.4byte	.LVL240-1
 16138 10e0 0100     		.2byte	0x1
 16139 10e2 50       		.byte	0x50
 16140 10e3 69000000 		.4byte	.LVL240-1
 16141 10e7 6A000000 		.4byte	.LVL240
 16142 10eb 0400     		.2byte	0x4
 16143 10ed F3       		.byte	0xf3
 16144 10ee 01       		.uleb128 0x1
 16145 10ef 50       		.byte	0x50
 16146 10f0 9F       		.byte	0x9f
 16147 10f1 6A000000 		.4byte	.LVL240
 16148 10f5 88000000 		.4byte	.LFE268
 16149 10f9 0100     		.2byte	0x1
 16150 10fb 54       		.byte	0x54
 16151 10fc 00000000 		.4byte	0
 16152 1100 00000000 		.4byte	0
 16153              	.LLST84:
 16154 1104 00000000 		.4byte	.LVL228
 16155 1108 1F000000 		.4byte	.LVL230-1
 16156 110c 0200     		.2byte	0x2
 16157 110e 90       		.byte	0x90
 16158 110f 40       		.uleb128 0x40
 16159 1110 1F000000 		.4byte	.LVL230-1
 16160 1114 62000000 		.4byte	.LVL238
 16161 1118 0200     		.2byte	0x2
 16162 111a 90       		.byte	0x90
 16163 111b 50       		.uleb128 0x50
 16164 111c 62000000 		.4byte	.LVL238
 16165 1120 6A000000 		.4byte	.LVL240
 16166 1124 0600     		.2byte	0x6
 16167 1126 F3       		.byte	0xf3
 16168 1127 03       		.uleb128 0x3
 16169 1128 F5       		.byte	0xf5
 16170 1129 40       		.uleb128 0x40
 16171 112a 25       		.uleb128 0x25
 16172 112b 9F       		.byte	0x9f
 16173 112c 6A000000 		.4byte	.LVL240
 16174 1130 88000000 		.4byte	.LFE268
 16175 1134 0200     		.2byte	0x2
ARM GAS  /var/folders/d2/nstgp4h54kz7g1l847x_b8wc0000gn/T//ccW13lHv.s 			page 286


 16176 1136 90       		.byte	0x90
 16177 1137 50       		.uleb128 0x50
 16178 1138 00000000 		.4byte	0
 16179 113c 00000000 		.4byte	0
 16180              	.LLST85:
 16181 1140 20000000 		.4byte	.LVL230
 16182 1144 26000000 		.4byte	.LVL231
 16183 1148 0300     		.2byte	0x3
 16184 114a 08       		.byte	0x8
 16185 114b 20       		.byte	0x20
 16186 114c 9F       		.byte	0x9f
 16187 114d 00000000 		.4byte	0
 16188 1151 00000000 		.4byte	0
 16189              	.LLST86:
 16190 1155 4C000000 		.4byte	.LVL236
 16191 1159 52000000 		.4byte	.LVL237
 16192 115d 0200     		.2byte	0x2
 16193 115f 30       		.byte	0x30
 16194 1160 9F       		.byte	0x9f
 16195 1161 00000000 		.4byte	0
 16196 1165 00000000 		.4byte	0
 16197              	.LLST78:
 16198 1169 00000000 		.4byte	.LVL206
 16199 116d 18000000 		.4byte	.LVL207
 16200 1171 0100     		.2byte	0x1
 16201 1173 50       		.byte	0x50
 16202 1174 18000000 		.4byte	.LVL207
 16203 1178 88000000 		.4byte	.LFE267
 16204 117c 0100     		.2byte	0x1
 16205 117e 54       		.byte	0x54
 16206 117f 00000000 		.4byte	0
 16207 1183 00000000 		.4byte	0
 16208              	.LLST79:
 16209 1187 38000000 		.4byte	.LVL213
 16210 118b 64000000 		.4byte	.LVL218
 16211 118f 0200     		.2byte	0x2
 16212 1191 90       		.byte	0x90
 16213 1192 50       		.uleb128 0x50
 16214 1193 64000000 		.4byte	.LVL218
 16215 1197 6C000000 		.4byte	.LVL219
 16216 119b 0200     		.2byte	0x2
 16217 119d 90       		.byte	0x90
 16218 119e 40       		.uleb128 0x40
 16219 119f 6C000000 		.4byte	.LVL219
 16220 11a3 74000000 		.4byte	.LVL221
 16221 11a7 0200     		.2byte	0x2
 16222 11a9 90       		.byte	0x90
 16223 11aa 50       		.uleb128 0x50
 16224 11ab 74000000 		.4byte	.LVL221
 16225 11af 77000000 		.4byte	.LVL222-1
 16226 11b3 0200     		.2byte	0x2
 16227 11b5 90       		.byte	0x90
 16228 11b6 40       		.uleb128 0x40
 16229 11b7 77000000 		.4byte	.LVL222-1
 16230 11bb 88000000 		.4byte	.LFE267
 16231 11bf 0200     		.2byte	0x2
 16232 11c1 90       		.byte	0x90
ARM GAS  /var/folders/d2/nstgp4h54kz7g1l847x_b8wc0000gn/T//ccW13lHv.s 			page 287


 16233 11c2 50       		.uleb128 0x50
 16234 11c3 00000000 		.4byte	0
 16235 11c7 00000000 		.4byte	0
 16236              	.LLST80:
 16237 11cb 1C000000 		.4byte	.LVL208
 16238 11cf 22000000 		.4byte	.LVL209
 16239 11d3 0300     		.2byte	0x3
 16240 11d5 08       		.byte	0x8
 16241 11d6 20       		.byte	0x20
 16242 11d7 9F       		.byte	0x9f
 16243 11d8 00000000 		.4byte	0
 16244 11dc 00000000 		.4byte	0
 16245              	.LLST81:
 16246 11e0 52000000 		.4byte	.LVL216
 16247 11e4 58000000 		.4byte	.LVL217
 16248 11e8 0200     		.2byte	0x2
 16249 11ea 30       		.byte	0x30
 16250 11eb 9F       		.byte	0x9f
 16251 11ec 00000000 		.4byte	0
 16252 11f0 00000000 		.4byte	0
 16253              	.LLST82:
 16254 11f4 00000000 		.4byte	.LVL223
 16255 11f8 0F000000 		.4byte	.LVL224-1
 16256 11fc 0100     		.2byte	0x1
 16257 11fe 50       		.byte	0x50
 16258 11ff 0F000000 		.4byte	.LVL224-1
 16259 1203 20000000 		.4byte	.LVL225
 16260 1207 0100     		.2byte	0x1
 16261 1209 55       		.byte	0x55
 16262 120a 20000000 		.4byte	.LVL225
 16263 120e 23000000 		.4byte	.LVL226-1
 16264 1212 0100     		.2byte	0x1
 16265 1214 50       		.byte	0x50
 16266 1215 23000000 		.4byte	.LVL226-1
 16267 1219 24000000 		.4byte	.LVL226
 16268 121d 0400     		.2byte	0x4
 16269 121f F3       		.byte	0xf3
 16270 1220 01       		.uleb128 0x1
 16271 1221 50       		.byte	0x50
 16272 1222 9F       		.byte	0x9f
 16273 1223 24000000 		.4byte	.LVL226
 16274 1227 2C000000 		.4byte	.LFE266
 16275 122b 0100     		.2byte	0x1
 16276 122d 55       		.byte	0x55
 16277 122e 00000000 		.4byte	0
 16278 1232 00000000 		.4byte	0
 16279              	.LLST74:
 16280 1236 00000000 		.4byte	.LVL201
 16281 123a 17000000 		.4byte	.LVL202-1
 16282 123e 0100     		.2byte	0x1
 16283 1240 50       		.byte	0x50
 16284 1241 17000000 		.4byte	.LVL202-1
 16285 1245 28000000 		.4byte	.LVL203
 16286 1249 0100     		.2byte	0x1
 16287 124b 54       		.byte	0x54
 16288 124c 28000000 		.4byte	.LVL203
 16289 1250 2B000000 		.4byte	.LVL204-1
ARM GAS  /var/folders/d2/nstgp4h54kz7g1l847x_b8wc0000gn/T//ccW13lHv.s 			page 288


 16290 1254 0100     		.2byte	0x1
 16291 1256 50       		.byte	0x50
 16292 1257 2B000000 		.4byte	.LVL204-1
 16293 125b 2C000000 		.4byte	.LVL204
 16294 125f 0400     		.2byte	0x4
 16295 1261 F3       		.byte	0xf3
 16296 1262 01       		.uleb128 0x1
 16297 1263 50       		.byte	0x50
 16298 1264 9F       		.byte	0x9f
 16299 1265 2C000000 		.4byte	.LVL204
 16300 1269 34000000 		.4byte	.LFE265
 16301 126d 0100     		.2byte	0x1
 16302 126f 54       		.byte	0x54
 16303 1270 00000000 		.4byte	0
 16304 1274 00000000 		.4byte	0
 16305              	.LLST75:
 16306 1278 00000000 		.4byte	.LVL201
 16307 127c 17000000 		.4byte	.LVL202-1
 16308 1280 0100     		.2byte	0x1
 16309 1282 51       		.byte	0x51
 16310 1283 17000000 		.4byte	.LVL202-1
 16311 1287 34000000 		.4byte	.LFE265
 16312 128b 0400     		.2byte	0x4
 16313 128d F3       		.byte	0xf3
 16314 128e 01       		.uleb128 0x1
 16315 128f 51       		.byte	0x51
 16316 1290 9F       		.byte	0x9f
 16317 1291 00000000 		.4byte	0
 16318 1295 00000000 		.4byte	0
 16319              	.LLST76:
 16320 1299 00000000 		.4byte	.LVL201
 16321 129d 17000000 		.4byte	.LVL202-1
 16322 12a1 0100     		.2byte	0x1
 16323 12a3 52       		.byte	0x52
 16324 12a4 17000000 		.4byte	.LVL202-1
 16325 12a8 34000000 		.4byte	.LFE265
 16326 12ac 0400     		.2byte	0x4
 16327 12ae F3       		.byte	0xf3
 16328 12af 01       		.uleb128 0x1
 16329 12b0 52       		.byte	0x52
 16330 12b1 9F       		.byte	0x9f
 16331 12b2 00000000 		.4byte	0
 16332 12b6 00000000 		.4byte	0
 16333              	.LLST77:
 16334 12ba 00000000 		.4byte	.LVL201
 16335 12be 17000000 		.4byte	.LVL202-1
 16336 12c2 0200     		.2byte	0x2
 16337 12c4 90       		.byte	0x90
 16338 12c5 40       		.uleb128 0x40
 16339 12c6 17000000 		.4byte	.LVL202-1
 16340 12ca 34000000 		.4byte	.LFE265
 16341 12ce 0600     		.2byte	0x6
 16342 12d0 F3       		.byte	0xf3
 16343 12d1 03       		.uleb128 0x3
 16344 12d2 F5       		.byte	0xf5
 16345 12d3 40       		.uleb128 0x40
 16346 12d4 25       		.uleb128 0x25
ARM GAS  /var/folders/d2/nstgp4h54kz7g1l847x_b8wc0000gn/T//ccW13lHv.s 			page 289


 16347 12d5 9F       		.byte	0x9f
 16348 12d6 00000000 		.4byte	0
 16349 12da 00000000 		.4byte	0
 16350              	.LLST71:
 16351 12de 00000000 		.4byte	.LVL198
 16352 12e2 1F000000 		.4byte	.LVL199-1
 16353 12e6 0100     		.2byte	0x1
 16354 12e8 50       		.byte	0x50
 16355 12e9 1F000000 		.4byte	.LVL199-1
 16356 12ed 20000000 		.4byte	.LVL199
 16357 12f1 0400     		.2byte	0x4
 16358 12f3 F3       		.byte	0xf3
 16359 12f4 01       		.uleb128 0x1
 16360 12f5 50       		.byte	0x50
 16361 12f6 9F       		.byte	0x9f
 16362 12f7 20000000 		.4byte	.LVL199
 16363 12fb 23000000 		.4byte	.LVL200-1
 16364 12ff 0100     		.2byte	0x1
 16365 1301 50       		.byte	0x50
 16366 1302 23000000 		.4byte	.LVL200-1
 16367 1306 28000000 		.4byte	.LFE264
 16368 130a 0400     		.2byte	0x4
 16369 130c F3       		.byte	0xf3
 16370 130d 01       		.uleb128 0x1
 16371 130e 50       		.byte	0x50
 16372 130f 9F       		.byte	0x9f
 16373 1310 00000000 		.4byte	0
 16374 1314 00000000 		.4byte	0
 16375              	.LLST72:
 16376 1318 00000000 		.4byte	.LVL198
 16377 131c 1F000000 		.4byte	.LVL199-1
 16378 1320 0100     		.2byte	0x1
 16379 1322 51       		.byte	0x51
 16380 1323 1F000000 		.4byte	.LVL199-1
 16381 1327 20000000 		.4byte	.LVL199
 16382 132b 0400     		.2byte	0x4
 16383 132d F3       		.byte	0xf3
 16384 132e 01       		.uleb128 0x1
 16385 132f 51       		.byte	0x51
 16386 1330 9F       		.byte	0x9f
 16387 1331 20000000 		.4byte	.LVL199
 16388 1335 23000000 		.4byte	.LVL200-1
 16389 1339 0100     		.2byte	0x1
 16390 133b 51       		.byte	0x51
 16391 133c 23000000 		.4byte	.LVL200-1
 16392 1340 28000000 		.4byte	.LFE264
 16393 1344 0400     		.2byte	0x4
 16394 1346 F3       		.byte	0xf3
 16395 1347 01       		.uleb128 0x1
 16396 1348 51       		.byte	0x51
 16397 1349 9F       		.byte	0x9f
 16398 134a 00000000 		.4byte	0
 16399 134e 00000000 		.4byte	0
 16400              	.LLST73:
 16401 1352 00000000 		.4byte	.LVL198
 16402 1356 1F000000 		.4byte	.LVL199-1
 16403 135a 0100     		.2byte	0x1
ARM GAS  /var/folders/d2/nstgp4h54kz7g1l847x_b8wc0000gn/T//ccW13lHv.s 			page 290


 16404 135c 52       		.byte	0x52
 16405 135d 1F000000 		.4byte	.LVL199-1
 16406 1361 20000000 		.4byte	.LVL199
 16407 1365 0400     		.2byte	0x4
 16408 1367 F3       		.byte	0xf3
 16409 1368 01       		.uleb128 0x1
 16410 1369 52       		.byte	0x52
 16411 136a 9F       		.byte	0x9f
 16412 136b 20000000 		.4byte	.LVL199
 16413 136f 23000000 		.4byte	.LVL200-1
 16414 1373 0100     		.2byte	0x1
 16415 1375 52       		.byte	0x52
 16416 1376 23000000 		.4byte	.LVL200-1
 16417 137a 28000000 		.4byte	.LFE264
 16418 137e 0400     		.2byte	0x4
 16419 1380 F3       		.byte	0xf3
 16420 1381 01       		.uleb128 0x1
 16421 1382 52       		.byte	0x52
 16422 1383 9F       		.byte	0x9f
 16423 1384 00000000 		.4byte	0
 16424 1388 00000000 		.4byte	0
 16425              	.LLST52:
 16426 138c 00000000 		.4byte	.LVL133
 16427 1390 17000000 		.4byte	.LVL136-1
 16428 1394 0100     		.2byte	0x1
 16429 1396 50       		.byte	0x50
 16430 1397 17000000 		.4byte	.LVL136-1
 16431 139b 1E000000 		.4byte	.LVL138
 16432 139f 0100     		.2byte	0x1
 16433 13a1 54       		.byte	0x54
 16434 13a2 1E000000 		.4byte	.LVL138
 16435 13a6 64000000 		.4byte	.LFE261
 16436 13aa 0400     		.2byte	0x4
 16437 13ac F3       		.byte	0xf3
 16438 13ad 01       		.uleb128 0x1
 16439 13ae 50       		.byte	0x50
 16440 13af 9F       		.byte	0x9f
 16441 13b0 00000000 		.4byte	0
 16442 13b4 00000000 		.4byte	0
 16443              	.LLST53:
 16444 13b8 1E000000 		.4byte	.LVL138
 16445 13bc 3E000000 		.4byte	.LVL142
 16446 13c0 0100     		.2byte	0x1
 16447 13c2 54       		.byte	0x54
 16448 13c3 4C000000 		.4byte	.LVL143
 16449 13c7 54000000 		.4byte	.LVL145
 16450 13cb 0100     		.2byte	0x1
 16451 13cd 54       		.byte	0x54
 16452 13ce 00000000 		.4byte	0
 16453 13d2 00000000 		.4byte	0
 16454              	.LLST54:
 16455 13d6 0E000000 		.4byte	.LVL134
 16456 13da 14000000 		.4byte	.LVL135
 16457 13de 0300     		.2byte	0x3
 16458 13e0 08       		.byte	0x8
 16459 13e1 20       		.byte	0x20
 16460 13e2 9F       		.byte	0x9f
ARM GAS  /var/folders/d2/nstgp4h54kz7g1l847x_b8wc0000gn/T//ccW13lHv.s 			page 291


 16461 13e3 00000000 		.4byte	0
 16462 13e7 00000000 		.4byte	0
 16463              	.LLST55:
 16464 13eb 38000000 		.4byte	.LVL141
 16465 13ef 3E000000 		.4byte	.LVL142
 16466 13f3 0200     		.2byte	0x2
 16467 13f5 30       		.byte	0x30
 16468 13f6 9F       		.byte	0x9f
 16469 13f7 00000000 		.4byte	0
 16470 13fb 00000000 		.4byte	0
 16471              	.LLST49:
 16472 13ff 00000000 		.4byte	.LVL120
 16473 1403 15000000 		.4byte	.LVL123-1
 16474 1407 0100     		.2byte	0x1
 16475 1409 50       		.byte	0x50
 16476 140a 15000000 		.4byte	.LVL123-1
 16477 140e 1C000000 		.4byte	.LVL125
 16478 1412 0100     		.2byte	0x1
 16479 1414 55       		.byte	0x55
 16480 1415 1C000000 		.4byte	.LVL125
 16481 1419 64000000 		.4byte	.LFE260
 16482 141d 0400     		.2byte	0x4
 16483 141f F3       		.byte	0xf3
 16484 1420 01       		.uleb128 0x1
 16485 1421 50       		.byte	0x50
 16486 1422 9F       		.byte	0x9f
 16487 1423 00000000 		.4byte	0
 16488 1427 00000000 		.4byte	0
 16489              	.LLST50:
 16490 142b 0A000000 		.4byte	.LVL121
 16491 142f 12000000 		.4byte	.LVL122
 16492 1433 0300     		.2byte	0x3
 16493 1435 08       		.byte	0x8
 16494 1436 20       		.byte	0x20
 16495 1437 9F       		.byte	0x9f
 16496 1438 00000000 		.4byte	0
 16497 143c 00000000 		.4byte	0
 16498              	.LLST51:
 16499 1440 36000000 		.4byte	.LVL128
 16500 1444 3C000000 		.4byte	.LVL129
 16501 1448 0200     		.2byte	0x2
 16502 144a 30       		.byte	0x30
 16503 144b 9F       		.byte	0x9f
 16504 144c 00000000 		.4byte	0
 16505 1450 00000000 		.4byte	0
 16506              	.LLST46:
 16507 1454 00000000 		.4byte	.LVL107
 16508 1458 15000000 		.4byte	.LVL110-1
 16509 145c 0100     		.2byte	0x1
 16510 145e 50       		.byte	0x50
 16511 145f 15000000 		.4byte	.LVL110-1
 16512 1463 1C000000 		.4byte	.LVL112
 16513 1467 0100     		.2byte	0x1
 16514 1469 55       		.byte	0x55
 16515 146a 1C000000 		.4byte	.LVL112
 16516 146e 68000000 		.4byte	.LFE259
 16517 1472 0400     		.2byte	0x4
ARM GAS  /var/folders/d2/nstgp4h54kz7g1l847x_b8wc0000gn/T//ccW13lHv.s 			page 292


 16518 1474 F3       		.byte	0xf3
 16519 1475 01       		.uleb128 0x1
 16520 1476 50       		.byte	0x50
 16521 1477 9F       		.byte	0x9f
 16522 1478 00000000 		.4byte	0
 16523 147c 00000000 		.4byte	0
 16524              	.LLST47:
 16525 1480 0A000000 		.4byte	.LVL108
 16526 1484 12000000 		.4byte	.LVL109
 16527 1488 0300     		.2byte	0x3
 16528 148a 08       		.byte	0x8
 16529 148b 20       		.byte	0x20
 16530 148c 9F       		.byte	0x9f
 16531 148d 00000000 		.4byte	0
 16532 1491 00000000 		.4byte	0
 16533              	.LLST48:
 16534 1495 36000000 		.4byte	.LVL115
 16535 1499 3C000000 		.4byte	.LVL116
 16536 149d 0200     		.2byte	0x2
 16537 149f 30       		.byte	0x30
 16538 14a0 9F       		.byte	0x9f
 16539 14a1 00000000 		.4byte	0
 16540 14a5 00000000 		.4byte	0
 16541              	.LLST41:
 16542 14a9 00000000 		.4byte	.LVL94
 16543 14ad 0A000000 		.4byte	.LVL95
 16544 14b1 0100     		.2byte	0x1
 16545 14b3 50       		.byte	0x50
 16546 14b4 0A000000 		.4byte	.LVL95
 16547 14b8 70000000 		.4byte	.LFE258
 16548 14bc 0100     		.2byte	0x1
 16549 14be 54       		.byte	0x54
 16550 14bf 00000000 		.4byte	0
 16551 14c3 00000000 		.4byte	0
 16552              	.LLST42:
 16553 14c7 00000000 		.4byte	.LVL94
 16554 14cb 1F000000 		.4byte	.LVL98-1
 16555 14cf 0100     		.2byte	0x1
 16556 14d1 51       		.byte	0x51
 16557 14d2 1F000000 		.4byte	.LVL98-1
 16558 14d6 70000000 		.4byte	.LFE258
 16559 14da 0400     		.2byte	0x4
 16560 14dc F3       		.byte	0xf3
 16561 14dd 01       		.uleb128 0x1
 16562 14de 51       		.byte	0x51
 16563 14df 9F       		.byte	0x9f
 16564 14e0 00000000 		.4byte	0
 16565 14e4 00000000 		.4byte	0
 16566              	.LLST43:
 16567 14e8 00000000 		.4byte	.LVL94
 16568 14ec 1F000000 		.4byte	.LVL98-1
 16569 14f0 0100     		.2byte	0x1
 16570 14f2 52       		.byte	0x52
 16571 14f3 1F000000 		.4byte	.LVL98-1
 16572 14f7 70000000 		.4byte	.LFE258
 16573 14fb 0400     		.2byte	0x4
 16574 14fd F3       		.byte	0xf3
ARM GAS  /var/folders/d2/nstgp4h54kz7g1l847x_b8wc0000gn/T//ccW13lHv.s 			page 293


 16575 14fe 01       		.uleb128 0x1
 16576 14ff 52       		.byte	0x52
 16577 1500 9F       		.byte	0x9f
 16578 1501 00000000 		.4byte	0
 16579 1505 00000000 		.4byte	0
 16580              	.LLST44:
 16581 1509 12000000 		.4byte	.LVL96
 16582 150d 1C000000 		.4byte	.LVL97
 16583 1511 0300     		.2byte	0x3
 16584 1513 08       		.byte	0x8
 16585 1514 20       		.byte	0x20
 16586 1515 9F       		.byte	0x9f
 16587 1516 00000000 		.4byte	0
 16588 151a 00000000 		.4byte	0
 16589              	.LLST45:
 16590 151e 46000000 		.4byte	.LVL102
 16591 1522 4C000000 		.4byte	.LVL103
 16592 1526 0200     		.2byte	0x2
 16593 1528 30       		.byte	0x30
 16594 1529 9F       		.byte	0x9f
 16595 152a 00000000 		.4byte	0
 16596 152e 00000000 		.4byte	0
 16597              	.LLST39:
 16598 1532 00000000 		.4byte	.LVL88
 16599 1536 0E000000 		.4byte	.LVL89
 16600 153a 0100     		.2byte	0x1
 16601 153c 50       		.byte	0x50
 16602 153d 0E000000 		.4byte	.LVL89
 16603 1541 28000000 		.4byte	.LVL91
 16604 1545 0100     		.2byte	0x1
 16605 1547 56       		.byte	0x56
 16606 1548 28000000 		.4byte	.LVL91
 16607 154c 2B000000 		.4byte	.LVL92-1
 16608 1550 0100     		.2byte	0x1
 16609 1552 50       		.byte	0x50
 16610 1553 2B000000 		.4byte	.LVL92-1
 16611 1557 2C000000 		.4byte	.LVL92
 16612 155b 0400     		.2byte	0x4
 16613 155d F3       		.byte	0xf3
 16614 155e 01       		.uleb128 0x1
 16615 155f 50       		.byte	0x50
 16616 1560 9F       		.byte	0x9f
 16617 1561 2C000000 		.4byte	.LVL92
 16618 1565 34000000 		.4byte	.LFE257
 16619 1569 0100     		.2byte	0x1
 16620 156b 56       		.byte	0x56
 16621 156c 00000000 		.4byte	0
 16622 1570 00000000 		.4byte	0
 16623              	.LLST40:
 16624 1574 00000000 		.4byte	.LVL88
 16625 1578 13000000 		.4byte	.LVL90-1
 16626 157c 0100     		.2byte	0x1
 16627 157e 51       		.byte	0x51
 16628 157f 13000000 		.4byte	.LVL90-1
 16629 1583 28000000 		.4byte	.LVL91
 16630 1587 0100     		.2byte	0x1
 16631 1589 55       		.byte	0x55
ARM GAS  /var/folders/d2/nstgp4h54kz7g1l847x_b8wc0000gn/T//ccW13lHv.s 			page 294


 16632 158a 28000000 		.4byte	.LVL91
 16633 158e 2B000000 		.4byte	.LVL92-1
 16634 1592 0100     		.2byte	0x1
 16635 1594 51       		.byte	0x51
 16636 1595 2B000000 		.4byte	.LVL92-1
 16637 1599 2C000000 		.4byte	.LVL92
 16638 159d 0400     		.2byte	0x4
 16639 159f F3       		.byte	0xf3
 16640 15a0 01       		.uleb128 0x1
 16641 15a1 51       		.byte	0x51
 16642 15a2 9F       		.byte	0x9f
 16643 15a3 2C000000 		.4byte	.LVL92
 16644 15a7 34000000 		.4byte	.LFE257
 16645 15ab 0100     		.2byte	0x1
 16646 15ad 55       		.byte	0x55
 16647 15ae 00000000 		.4byte	0
 16648 15b2 00000000 		.4byte	0
 16649              	.LLST23:
 16650 15b6 00000000 		.4byte	.LVL52
 16651 15ba 1A000000 		.4byte	.LVL54
 16652 15be 0100     		.2byte	0x1
 16653 15c0 50       		.byte	0x50
 16654 15c1 1A000000 		.4byte	.LVL54
 16655 15c5 04010000 		.4byte	.LFE256
 16656 15c9 0400     		.2byte	0x4
 16657 15cb F3       		.byte	0xf3
 16658 15cc 01       		.uleb128 0x1
 16659 15cd 50       		.byte	0x50
 16660 15ce 9F       		.byte	0x9f
 16661 15cf 00000000 		.4byte	0
 16662 15d3 00000000 		.4byte	0
 16663              	.LLST24:
 16664 15d7 00000000 		.4byte	.LVL52
 16665 15db 1A000000 		.4byte	.LVL54
 16666 15df 0100     		.2byte	0x1
 16667 15e1 51       		.byte	0x51
 16668 15e2 1A000000 		.4byte	.LVL54
 16669 15e6 66000000 		.4byte	.LVL63
 16670 15ea 0100     		.2byte	0x1
 16671 15ec 59       		.byte	0x59
 16672 15ed 66000000 		.4byte	.LVL63
 16673 15f1 7A000000 		.4byte	.LVL64
 16674 15f5 0400     		.2byte	0x4
 16675 15f7 F3       		.byte	0xf3
 16676 15f8 01       		.uleb128 0x1
 16677 15f9 51       		.byte	0x51
 16678 15fa 9F       		.byte	0x9f
 16679 15fb 7A000000 		.4byte	.LVL64
 16680 15ff F2000000 		.4byte	.LVL86
 16681 1603 0100     		.2byte	0x1
 16682 1605 59       		.byte	0x59
 16683 1606 F2000000 		.4byte	.LVL86
 16684 160a 04010000 		.4byte	.LFE256
 16685 160e 0400     		.2byte	0x4
 16686 1610 F3       		.byte	0xf3
 16687 1611 01       		.uleb128 0x1
 16688 1612 51       		.byte	0x51
ARM GAS  /var/folders/d2/nstgp4h54kz7g1l847x_b8wc0000gn/T//ccW13lHv.s 			page 295


 16689 1613 9F       		.byte	0x9f
 16690 1614 00000000 		.4byte	0
 16691 1618 00000000 		.4byte	0
 16692              	.LLST25:
 16693 161c 00000000 		.4byte	.LVL52
 16694 1620 1A000000 		.4byte	.LVL54
 16695 1624 0100     		.2byte	0x1
 16696 1626 52       		.byte	0x52
 16697 1627 1A000000 		.4byte	.LVL54
 16698 162b 66000000 		.4byte	.LVL63
 16699 162f 0100     		.2byte	0x1
 16700 1631 57       		.byte	0x57
 16701 1632 66000000 		.4byte	.LVL63
 16702 1636 7A000000 		.4byte	.LVL64
 16703 163a 0400     		.2byte	0x4
 16704 163c F3       		.byte	0xf3
 16705 163d 01       		.uleb128 0x1
 16706 163e 52       		.byte	0x52
 16707 163f 9F       		.byte	0x9f
 16708 1640 7A000000 		.4byte	.LVL64
 16709 1644 C6000000 		.4byte	.LVL80
 16710 1648 0100     		.2byte	0x1
 16711 164a 57       		.byte	0x57
 16712 164b C6000000 		.4byte	.LVL80
 16713 164f E2000000 		.4byte	.LVL83
 16714 1653 0400     		.2byte	0x4
 16715 1655 F3       		.byte	0xf3
 16716 1656 01       		.uleb128 0x1
 16717 1657 52       		.byte	0x52
 16718 1658 9F       		.byte	0x9f
 16719 1659 E2000000 		.4byte	.LVL83
 16720 165d F2000000 		.4byte	.LVL86
 16721 1661 0100     		.2byte	0x1
 16722 1663 57       		.byte	0x57
 16723 1664 F2000000 		.4byte	.LVL86
 16724 1668 04010000 		.4byte	.LFE256
 16725 166c 0400     		.2byte	0x4
 16726 166e F3       		.byte	0xf3
 16727 166f 01       		.uleb128 0x1
 16728 1670 52       		.byte	0x52
 16729 1671 9F       		.byte	0x9f
 16730 1672 00000000 		.4byte	0
 16731 1676 00000000 		.4byte	0
 16732              	.LLST26:
 16733 167a 10000000 		.4byte	.LVL53
 16734 167e 5D000000 		.4byte	.LVL61-1
 16735 1682 0100     		.2byte	0x1
 16736 1684 50       		.byte	0x50
 16737 1685 62000000 		.4byte	.LVL62
 16738 1689 66000000 		.4byte	.LVL63
 16739 168d 0100     		.2byte	0x1
 16740 168f 50       		.byte	0x50
 16741 1690 7A000000 		.4byte	.LVL64
 16742 1694 84000000 		.4byte	.LVL67
 16743 1698 0100     		.2byte	0x1
 16744 169a 50       		.byte	0x50
 16745 169b 88000000 		.4byte	.LVL68
ARM GAS  /var/folders/d2/nstgp4h54kz7g1l847x_b8wc0000gn/T//ccW13lHv.s 			page 296


 16746 169f 99000000 		.4byte	.LVL73-1
 16747 16a3 0100     		.2byte	0x1
 16748 16a5 50       		.byte	0x50
 16749 16a6 99000000 		.4byte	.LVL73-1
 16750 16aa E2000000 		.4byte	.LVL83
 16751 16ae 0200     		.2byte	0x2
 16752 16b0 91       		.byte	0x91
 16753 16b1 54       		.sleb128 -44
 16754 16b2 E2000000 		.4byte	.LVL83
 16755 16b6 EA000000 		.4byte	.LVL84
 16756 16ba 0100     		.2byte	0x1
 16757 16bc 50       		.byte	0x50
 16758 16bd EA000000 		.4byte	.LVL84
 16759 16c1 F2000000 		.4byte	.LVL86
 16760 16c5 0200     		.2byte	0x2
 16761 16c7 91       		.byte	0x91
 16762 16c8 54       		.sleb128 -44
 16763 16c9 00000000 		.4byte	0
 16764 16cd 00000000 		.4byte	0
 16765              	.LLST27:
 16766 16d1 10000000 		.4byte	.LVL53
 16767 16d5 1A000000 		.4byte	.LVL54
 16768 16d9 0200     		.2byte	0x2
 16769 16db 30       		.byte	0x30
 16770 16dc 9F       		.byte	0x9f
 16771 16dd 1A000000 		.4byte	.LVL54
 16772 16e1 5D000000 		.4byte	.LVL61-1
 16773 16e5 0100     		.2byte	0x1
 16774 16e7 5C       		.byte	0x5c
 16775 16e8 62000000 		.4byte	.LVL62
 16776 16ec 66000000 		.4byte	.LVL63
 16777 16f0 0100     		.2byte	0x1
 16778 16f2 5C       		.byte	0x5c
 16779 16f3 7A000000 		.4byte	.LVL64
 16780 16f7 99000000 		.4byte	.LVL73-1
 16781 16fb 0100     		.2byte	0x1
 16782 16fd 5C       		.byte	0x5c
 16783 16fe E2000000 		.4byte	.LVL83
 16784 1702 EA000000 		.4byte	.LVL84
 16785 1706 0100     		.2byte	0x1
 16786 1708 5C       		.byte	0x5c
 16787 1709 00000000 		.4byte	0
 16788 170d 00000000 		.4byte	0
 16789              	.LLST28:
 16790 1711 28000000 		.4byte	.LVL55
 16791 1715 38000000 		.4byte	.LVL56
 16792 1719 0100     		.2byte	0x1
 16793 171b 54       		.byte	0x54
 16794 171c 38000000 		.4byte	.LVL56
 16795 1720 50000000 		.4byte	.LVL59
 16796 1724 0100     		.2byte	0x1
 16797 1726 5E       		.byte	0x5e
 16798 1727 7A000000 		.4byte	.LVL64
 16799 172b 7C000000 		.4byte	.LVL65
 16800 172f 0100     		.2byte	0x1
 16801 1731 54       		.byte	0x54
 16802 1732 00000000 		.4byte	0
ARM GAS  /var/folders/d2/nstgp4h54kz7g1l847x_b8wc0000gn/T//ccW13lHv.s 			page 297


 16803 1736 00000000 		.4byte	0
 16804              	.LLST29:
 16805 173a 28000000 		.4byte	.LVL55
 16806 173e 50000000 		.4byte	.LVL59
 16807 1742 0100     		.2byte	0x1
 16808 1744 56       		.byte	0x56
 16809 1745 7A000000 		.4byte	.LVL64
 16810 1749 7C000000 		.4byte	.LVL65
 16811 174d 0100     		.2byte	0x1
 16812 174f 56       		.byte	0x56
 16813 1750 00000000 		.4byte	0
 16814 1754 00000000 		.4byte	0
 16815              	.LLST30:
 16816 1758 28000000 		.4byte	.LVL55
 16817 175c 38000000 		.4byte	.LVL56
 16818 1760 0200     		.2byte	0x2
 16819 1762 30       		.byte	0x30
 16820 1763 9F       		.byte	0x9f
 16821 1764 38000000 		.4byte	.LVL56
 16822 1768 50000000 		.4byte	.LVL59
 16823 176c 0100     		.2byte	0x1
 16824 176e 53       		.byte	0x53
 16825 176f 7A000000 		.4byte	.LVL64
 16826 1773 7C000000 		.4byte	.LVL65
 16827 1777 0200     		.2byte	0x2
 16828 1779 30       		.byte	0x30
 16829 177a 9F       		.byte	0x9f
 16830 177b 00000000 		.4byte	0
 16831 177f 00000000 		.4byte	0
 16832              	.LLST31:
 16833 1783 56000000 		.4byte	.LVL60
 16834 1787 5E000000 		.4byte	.LVL61
 16835 178b 0100     		.2byte	0x1
 16836 178d 56       		.byte	0x56
 16837 178e 80000000 		.4byte	.LVL66
 16838 1792 84000000 		.4byte	.LVL67
 16839 1796 0100     		.2byte	0x1
 16840 1798 56       		.byte	0x56
 16841 1799 00000000 		.4byte	0
 16842 179d 00000000 		.4byte	0
 16843              	.LLST32:
 16844 17a1 56000000 		.4byte	.LVL60
 16845 17a5 5D000000 		.4byte	.LVL61-1
 16846 17a9 0100     		.2byte	0x1
 16847 17ab 50       		.byte	0x50
 16848 17ac 80000000 		.4byte	.LVL66
 16849 17b0 84000000 		.4byte	.LVL67
 16850 17b4 0100     		.2byte	0x1
 16851 17b6 50       		.byte	0x50
 16852 17b7 00000000 		.4byte	0
 16853 17bb 00000000 		.4byte	0
 16854              	.LLST33:
 16855 17bf 8A000000 		.4byte	.LVL69
 16856 17c3 8C000000 		.4byte	.LVL70
 16857 17c7 0200     		.2byte	0x2
 16858 17c9 91       		.byte	0x91
 16859 17ca 54       		.sleb128 -44
ARM GAS  /var/folders/d2/nstgp4h54kz7g1l847x_b8wc0000gn/T//ccW13lHv.s 			page 298


 16860 17cb 90000000 		.4byte	.LVL71
 16861 17cf 99000000 		.4byte	.LVL73-1
 16862 17d3 0100     		.2byte	0x1
 16863 17d5 50       		.byte	0x50
 16864 17d6 99000000 		.4byte	.LVL73-1
 16865 17da E2000000 		.4byte	.LVL83
 16866 17de 0200     		.2byte	0x2
 16867 17e0 91       		.byte	0x91
 16868 17e1 54       		.sleb128 -44
 16869 17e2 EA000000 		.4byte	.LVL84
 16870 17e6 F2000000 		.4byte	.LVL86
 16871 17ea 0200     		.2byte	0x2
 16872 17ec 91       		.byte	0x91
 16873 17ed 54       		.sleb128 -44
 16874 17ee 00000000 		.4byte	0
 16875 17f2 00000000 		.4byte	0
 16876              	.LLST34:
 16877 17f6 8A000000 		.4byte	.LVL69
 16878 17fa E2000000 		.4byte	.LVL83
 16879 17fe 0100     		.2byte	0x1
 16880 1800 54       		.byte	0x54
 16881 1801 EA000000 		.4byte	.LVL84
 16882 1805 F2000000 		.4byte	.LVL86
 16883 1809 0100     		.2byte	0x1
 16884 180b 54       		.byte	0x54
 16885 180c 00000000 		.4byte	0
 16886 1810 00000000 		.4byte	0
 16887              	.LLST35:
 16888 1814 8A000000 		.4byte	.LVL69
 16889 1818 E2000000 		.4byte	.LVL83
 16890 181c 0100     		.2byte	0x1
 16891 181e 56       		.byte	0x56
 16892 181f EA000000 		.4byte	.LVL84
 16893 1823 F2000000 		.4byte	.LVL86
 16894 1827 0100     		.2byte	0x1
 16895 1829 56       		.byte	0x56
 16896 182a 00000000 		.4byte	0
 16897 182e 00000000 		.4byte	0
 16898              	.LLST36:
 16899 1832 A2000000 		.4byte	.LVL75
 16900 1836 E2000000 		.4byte	.LVL83
 16901 183a 0100     		.2byte	0x1
 16902 183c 55       		.byte	0x55
 16903 183d EA000000 		.4byte	.LVL84
 16904 1841 F2000000 		.4byte	.LVL86
 16905 1845 0100     		.2byte	0x1
 16906 1847 55       		.byte	0x55
 16907 1848 00000000 		.4byte	0
 16908 184c 00000000 		.4byte	0
 16909              	.LLST37:
 16910 1850 90000000 		.4byte	.LVL71
 16911 1854 96000000 		.4byte	.LVL72
 16912 1858 0300     		.2byte	0x3
 16913 185a 08       		.byte	0x8
 16914 185b 20       		.byte	0x20
 16915 185c 9F       		.byte	0x9f
 16916 185d 00000000 		.4byte	0
ARM GAS  /var/folders/d2/nstgp4h54kz7g1l847x_b8wc0000gn/T//ccW13lHv.s 			page 299


 16917 1861 00000000 		.4byte	0
 16918              	.LLST38:
 16919 1865 BC000000 		.4byte	.LVL78
 16920 1869 C2000000 		.4byte	.LVL79
 16921 186d 0200     		.2byte	0x2
 16922 186f 30       		.byte	0x30
 16923 1870 9F       		.byte	0x9f
 16924 1871 00000000 		.4byte	0
 16925 1875 00000000 		.4byte	0
 16926              	.LLST21:
 16927 1879 00000000 		.4byte	.LVL46
 16928 187d 0E000000 		.4byte	.LVL47
 16929 1881 0100     		.2byte	0x1
 16930 1883 50       		.byte	0x50
 16931 1884 0E000000 		.4byte	.LVL47
 16932 1888 28000000 		.4byte	.LVL49
 16933 188c 0100     		.2byte	0x1
 16934 188e 56       		.byte	0x56
 16935 188f 28000000 		.4byte	.LVL49
 16936 1893 2B000000 		.4byte	.LVL50-1
 16937 1897 0100     		.2byte	0x1
 16938 1899 50       		.byte	0x50
 16939 189a 2B000000 		.4byte	.LVL50-1
 16940 189e 2C000000 		.4byte	.LVL50
 16941 18a2 0400     		.2byte	0x4
 16942 18a4 F3       		.byte	0xf3
 16943 18a5 01       		.uleb128 0x1
 16944 18a6 50       		.byte	0x50
 16945 18a7 9F       		.byte	0x9f
 16946 18a8 2C000000 		.4byte	.LVL50
 16947 18ac 34000000 		.4byte	.LFE255
 16948 18b0 0100     		.2byte	0x1
 16949 18b2 56       		.byte	0x56
 16950 18b3 00000000 		.4byte	0
 16951 18b7 00000000 		.4byte	0
 16952              	.LLST22:
 16953 18bb 00000000 		.4byte	.LVL46
 16954 18bf 13000000 		.4byte	.LVL48-1
 16955 18c3 0100     		.2byte	0x1
 16956 18c5 51       		.byte	0x51
 16957 18c6 13000000 		.4byte	.LVL48-1
 16958 18ca 28000000 		.4byte	.LVL49
 16959 18ce 0100     		.2byte	0x1
 16960 18d0 55       		.byte	0x55
 16961 18d1 28000000 		.4byte	.LVL49
 16962 18d5 2B000000 		.4byte	.LVL50-1
 16963 18d9 0100     		.2byte	0x1
 16964 18db 51       		.byte	0x51
 16965 18dc 2B000000 		.4byte	.LVL50-1
 16966 18e0 2C000000 		.4byte	.LVL50
 16967 18e4 0400     		.2byte	0x4
 16968 18e6 F3       		.byte	0xf3
 16969 18e7 01       		.uleb128 0x1
 16970 18e8 51       		.byte	0x51
 16971 18e9 9F       		.byte	0x9f
 16972 18ea 2C000000 		.4byte	.LVL50
 16973 18ee 34000000 		.4byte	.LFE255
ARM GAS  /var/folders/d2/nstgp4h54kz7g1l847x_b8wc0000gn/T//ccW13lHv.s 			page 300


 16974 18f2 0100     		.2byte	0x1
 16975 18f4 55       		.byte	0x55
 16976 18f5 00000000 		.4byte	0
 16977 18f9 00000000 		.4byte	0
 16978              	.LLST11:
 16979 18fd 00000000 		.4byte	.LVL29
 16980 1901 1A000000 		.4byte	.LVL31
 16981 1905 0100     		.2byte	0x1
 16982 1907 50       		.byte	0x50
 16983 1908 1A000000 		.4byte	.LVL31
 16984 190c 7C000000 		.4byte	.LFE254
 16985 1910 0400     		.2byte	0x4
 16986 1912 F3       		.byte	0xf3
 16987 1913 01       		.uleb128 0x1
 16988 1914 50       		.byte	0x50
 16989 1915 9F       		.byte	0x9f
 16990 1916 00000000 		.4byte	0
 16991 191a 00000000 		.4byte	0
 16992              	.LLST12:
 16993 191e 00000000 		.4byte	.LVL29
 16994 1922 1A000000 		.4byte	.LVL31
 16995 1926 0100     		.2byte	0x1
 16996 1928 51       		.byte	0x51
 16997 1929 1A000000 		.4byte	.LVL31
 16998 192d 56000000 		.4byte	.LVL39
 16999 1931 0100     		.2byte	0x1
 17000 1933 5A       		.byte	0x5a
 17001 1934 56000000 		.4byte	.LVL39
 17002 1938 66000000 		.4byte	.LVL40
 17003 193c 0400     		.2byte	0x4
 17004 193e F3       		.byte	0xf3
 17005 193f 01       		.uleb128 0x1
 17006 1940 51       		.byte	0x51
 17007 1941 9F       		.byte	0x9f
 17008 1942 66000000 		.4byte	.LVL40
 17009 1946 70000000 		.4byte	.LVL43
 17010 194a 0100     		.2byte	0x1
 17011 194c 5A       		.byte	0x5a
 17012 194d 70000000 		.4byte	.LVL43
 17013 1951 7C000000 		.4byte	.LFE254
 17014 1955 0400     		.2byte	0x4
 17015 1957 F3       		.byte	0xf3
 17016 1958 01       		.uleb128 0x1
 17017 1959 51       		.byte	0x51
 17018 195a 9F       		.byte	0x9f
 17019 195b 00000000 		.4byte	0
 17020 195f 00000000 		.4byte	0
 17021              	.LLST13:
 17022 1963 00000000 		.4byte	.LVL29
 17023 1967 1A000000 		.4byte	.LVL31
 17024 196b 0100     		.2byte	0x1
 17025 196d 52       		.byte	0x52
 17026 196e 1A000000 		.4byte	.LVL31
 17027 1972 56000000 		.4byte	.LVL39
 17028 1976 0100     		.2byte	0x1
 17029 1978 58       		.byte	0x58
 17030 1979 56000000 		.4byte	.LVL39
ARM GAS  /var/folders/d2/nstgp4h54kz7g1l847x_b8wc0000gn/T//ccW13lHv.s 			page 301


 17031 197d 66000000 		.4byte	.LVL40
 17032 1981 0400     		.2byte	0x4
 17033 1983 F3       		.byte	0xf3
 17034 1984 01       		.uleb128 0x1
 17035 1985 52       		.byte	0x52
 17036 1986 9F       		.byte	0x9f
 17037 1987 66000000 		.4byte	.LVL40
 17038 198b 70000000 		.4byte	.LVL43
 17039 198f 0100     		.2byte	0x1
 17040 1991 58       		.byte	0x58
 17041 1992 70000000 		.4byte	.LVL43
 17042 1996 7C000000 		.4byte	.LFE254
 17043 199a 0400     		.2byte	0x4
 17044 199c F3       		.byte	0xf3
 17045 199d 01       		.uleb128 0x1
 17046 199e 52       		.byte	0x52
 17047 199f 9F       		.byte	0x9f
 17048 19a0 00000000 		.4byte	0
 17049 19a4 00000000 		.4byte	0
 17050              	.LLST14:
 17051 19a8 10000000 		.4byte	.LVL30
 17052 19ac 4D000000 		.4byte	.LVL37-1
 17053 19b0 0100     		.2byte	0x1
 17054 19b2 50       		.byte	0x50
 17055 19b3 50000000 		.4byte	.LVL38
 17056 19b7 56000000 		.4byte	.LVL39
 17057 19bb 0100     		.2byte	0x1
 17058 19bd 50       		.byte	0x50
 17059 19be 66000000 		.4byte	.LVL40
 17060 19c2 6C000000 		.4byte	.LVL41
 17061 19c6 0100     		.2byte	0x1
 17062 19c8 50       		.byte	0x50
 17063 19c9 6E000000 		.4byte	.LVL42
 17064 19cd 72000000 		.4byte	.LVL44
 17065 19d1 0100     		.2byte	0x1
 17066 19d3 50       		.byte	0x50
 17067 19d4 00000000 		.4byte	0
 17068 19d8 00000000 		.4byte	0
 17069              	.LLST15:
 17070 19dc 10000000 		.4byte	.LVL30
 17071 19e0 1A000000 		.4byte	.LVL31
 17072 19e4 0200     		.2byte	0x2
 17073 19e6 30       		.byte	0x30
 17074 19e7 9F       		.byte	0x9f
 17075 19e8 1A000000 		.4byte	.LVL31
 17076 19ec 56000000 		.4byte	.LVL39
 17077 19f0 0100     		.2byte	0x1
 17078 19f2 57       		.byte	0x57
 17079 19f3 66000000 		.4byte	.LVL40
 17080 19f7 70000000 		.4byte	.LVL43
 17081 19fb 0100     		.2byte	0x1
 17082 19fd 57       		.byte	0x57
 17083 19fe 00000000 		.4byte	0
 17084 1a02 00000000 		.4byte	0
 17085              	.LLST16:
 17086 1a06 26000000 		.4byte	.LVL32
 17087 1a0a 36000000 		.4byte	.LVL33
ARM GAS  /var/folders/d2/nstgp4h54kz7g1l847x_b8wc0000gn/T//ccW13lHv.s 			page 302


 17088 1a0e 0100     		.2byte	0x1
 17089 1a10 52       		.byte	0x52
 17090 1a11 36000000 		.4byte	.LVL33
 17091 1a15 48000000 		.4byte	.LVL36
 17092 1a19 0100     		.2byte	0x1
 17093 1a1b 55       		.byte	0x55
 17094 1a1c 00000000 		.4byte	0
 17095 1a20 00000000 		.4byte	0
 17096              	.LLST17:
 17097 1a24 26000000 		.4byte	.LVL32
 17098 1a28 48000000 		.4byte	.LVL36
 17099 1a2c 0100     		.2byte	0x1
 17100 1a2e 51       		.byte	0x51
 17101 1a2f 00000000 		.4byte	0
 17102 1a33 00000000 		.4byte	0
 17103              	.LLST18:
 17104 1a37 26000000 		.4byte	.LVL32
 17105 1a3b 36000000 		.4byte	.LVL33
 17106 1a3f 0200     		.2byte	0x2
 17107 1a41 30       		.byte	0x30
 17108 1a42 9F       		.byte	0x9f
 17109 1a43 36000000 		.4byte	.LVL33
 17110 1a47 48000000 		.4byte	.LVL36
 17111 1a4b 0100     		.2byte	0x1
 17112 1a4d 53       		.byte	0x53
 17113 1a4e 00000000 		.4byte	0
 17114 1a52 00000000 		.4byte	0
 17115              	.LLST19:
 17116 1a56 48000000 		.4byte	.LVL36
 17117 1a5a 4D000000 		.4byte	.LVL37-1
 17118 1a5e 0100     		.2byte	0x1
 17119 1a60 51       		.byte	0x51
 17120 1a61 4D000000 		.4byte	.LVL37-1
 17121 1a65 4E000000 		.4byte	.LVL37
 17122 1a69 0600     		.2byte	0x6
 17123 1a6b 7A       		.byte	0x7a
 17124 1a6c 00       		.sleb128 0
 17125 1a6d 77       		.byte	0x77
 17126 1a6e 00       		.sleb128 0
 17127 1a6f 22       		.byte	0x22
 17128 1a70 9F       		.byte	0x9f
 17129 1a71 66000000 		.4byte	.LVL40
 17130 1a75 6C000000 		.4byte	.LVL41
 17131 1a79 0100     		.2byte	0x1
 17132 1a7b 51       		.byte	0x51
 17133 1a7c 00000000 		.4byte	0
 17134 1a80 00000000 		.4byte	0
 17135              	.LLST20:
 17136 1a84 48000000 		.4byte	.LVL36
 17137 1a88 4D000000 		.4byte	.LVL37-1
 17138 1a8c 0100     		.2byte	0x1
 17139 1a8e 50       		.byte	0x50
 17140 1a8f 66000000 		.4byte	.LVL40
 17141 1a93 6C000000 		.4byte	.LVL41
 17142 1a97 0100     		.2byte	0x1
 17143 1a99 50       		.byte	0x50
 17144 1a9a 00000000 		.4byte	0
ARM GAS  /var/folders/d2/nstgp4h54kz7g1l847x_b8wc0000gn/T//ccW13lHv.s 			page 303


 17145 1a9e 00000000 		.4byte	0
 17146              	.LLST6:
 17147 1aa2 00000000 		.4byte	.LVL17
 17148 1aa6 0C000000 		.4byte	.LVL18
 17149 1aaa 0100     		.2byte	0x1
 17150 1aac 50       		.byte	0x50
 17151 1aad 0C000000 		.4byte	.LVL18
 17152 1ab1 78000000 		.4byte	.LFE253
 17153 1ab5 0100     		.2byte	0x1
 17154 1ab7 54       		.byte	0x54
 17155 1ab8 00000000 		.4byte	0
 17156 1abc 00000000 		.4byte	0
 17157              	.LLST7:
 17158 1ac0 00000000 		.4byte	.LVL17
 17159 1ac4 1C000000 		.4byte	.LVL19
 17160 1ac8 0100     		.2byte	0x1
 17161 1aca 51       		.byte	0x51
 17162 1acb 1C000000 		.4byte	.LVL19
 17163 1acf 28000000 		.4byte	.LVL20
 17164 1ad3 0400     		.2byte	0x4
 17165 1ad5 F3       		.byte	0xf3
 17166 1ad6 01       		.uleb128 0x1
 17167 1ad7 51       		.byte	0x51
 17168 1ad8 9F       		.byte	0x9f
 17169 1ad9 28000000 		.4byte	.LVL20
 17170 1add 31000000 		.4byte	.LVL22-1
 17171 1ae1 0100     		.2byte	0x1
 17172 1ae3 51       		.byte	0x51
 17173 1ae4 31000000 		.4byte	.LVL22-1
 17174 1ae8 78000000 		.4byte	.LFE253
 17175 1aec 0400     		.2byte	0x4
 17176 1aee F3       		.byte	0xf3
 17177 1aef 01       		.uleb128 0x1
 17178 1af0 51       		.byte	0x51
 17179 1af1 9F       		.byte	0x9f
 17180 1af2 00000000 		.4byte	0
 17181 1af6 00000000 		.4byte	0
 17182              	.LLST8:
 17183 1afa 00000000 		.4byte	.LVL17
 17184 1afe 1C000000 		.4byte	.LVL19
 17185 1b02 0100     		.2byte	0x1
 17186 1b04 52       		.byte	0x52
 17187 1b05 1C000000 		.4byte	.LVL19
 17188 1b09 28000000 		.4byte	.LVL20
 17189 1b0d 0400     		.2byte	0x4
 17190 1b0f F3       		.byte	0xf3
 17191 1b10 01       		.uleb128 0x1
 17192 1b11 52       		.byte	0x52
 17193 1b12 9F       		.byte	0x9f
 17194 1b13 28000000 		.4byte	.LVL20
 17195 1b17 31000000 		.4byte	.LVL22-1
 17196 1b1b 0100     		.2byte	0x1
 17197 1b1d 52       		.byte	0x52
 17198 1b1e 31000000 		.4byte	.LVL22-1
 17199 1b22 78000000 		.4byte	.LFE253
 17200 1b26 0400     		.2byte	0x4
 17201 1b28 F3       		.byte	0xf3
ARM GAS  /var/folders/d2/nstgp4h54kz7g1l847x_b8wc0000gn/T//ccW13lHv.s 			page 304


 17202 1b29 01       		.uleb128 0x1
 17203 1b2a 52       		.byte	0x52
 17204 1b2b 9F       		.byte	0x9f
 17205 1b2c 00000000 		.4byte	0
 17206 1b30 00000000 		.4byte	0
 17207              	.LLST9:
 17208 1b34 28000000 		.4byte	.LVL20
 17209 1b38 2E000000 		.4byte	.LVL21
 17210 1b3c 0300     		.2byte	0x3
 17211 1b3e 08       		.byte	0x8
 17212 1b3f 20       		.byte	0x20
 17213 1b40 9F       		.byte	0x9f
 17214 1b41 00000000 		.4byte	0
 17215 1b45 00000000 		.4byte	0
 17216              	.LLST10:
 17217 1b49 5E000000 		.4byte	.LVL26
 17218 1b4d 64000000 		.4byte	.LVL27
 17219 1b51 0200     		.2byte	0x2
 17220 1b53 30       		.byte	0x30
 17221 1b54 9F       		.byte	0x9f
 17222 1b55 00000000 		.4byte	0
 17223 1b59 00000000 		.4byte	0
 17224              	.LLST0:
 17225 1b5d 00000000 		.4byte	.LVL0
 17226 1b61 1F000000 		.4byte	.LVL3-1
 17227 1b65 0100     		.2byte	0x1
 17228 1b67 50       		.byte	0x50
 17229 1b68 1F000000 		.4byte	.LVL3-1
 17230 1b6c 26000000 		.4byte	.LVL5
 17231 1b70 0100     		.2byte	0x1
 17232 1b72 54       		.byte	0x54
 17233 1b73 26000000 		.4byte	.LVL5
 17234 1b77 8C000000 		.4byte	.LFE298
 17235 1b7b 0400     		.2byte	0x4
 17236 1b7d F3       		.byte	0xf3
 17237 1b7e 01       		.uleb128 0x1
 17238 1b7f 50       		.byte	0x50
 17239 1b80 9F       		.byte	0x9f
 17240 1b81 00000000 		.4byte	0
 17241 1b85 00000000 		.4byte	0
 17242              	.LLST1:
 17243 1b89 00000000 		.4byte	.LVL0
 17244 1b8d 1F000000 		.4byte	.LVL3-1
 17245 1b91 0100     		.2byte	0x1
 17246 1b93 51       		.byte	0x51
 17247 1b94 1F000000 		.4byte	.LVL3-1
 17248 1b98 8C000000 		.4byte	.LFE298
 17249 1b9c 0100     		.2byte	0x1
 17250 1b9e 57       		.byte	0x57
 17251 1b9f 00000000 		.4byte	0
 17252 1ba3 00000000 		.4byte	0
 17253              	.LLST2:
 17254 1ba7 00000000 		.4byte	.LVL0
 17255 1bab 1F000000 		.4byte	.LVL3-1
 17256 1baf 0100     		.2byte	0x1
 17257 1bb1 52       		.byte	0x52
 17258 1bb2 1F000000 		.4byte	.LVL3-1
ARM GAS  /var/folders/d2/nstgp4h54kz7g1l847x_b8wc0000gn/T//ccW13lHv.s 			page 305


 17259 1bb6 8C000000 		.4byte	.LFE298
 17260 1bba 0100     		.2byte	0x1
 17261 1bbc 56       		.byte	0x56
 17262 1bbd 00000000 		.4byte	0
 17263 1bc1 00000000 		.4byte	0
 17264              	.LLST3:
 17265 1bc5 26000000 		.4byte	.LVL5
 17266 1bc9 6C000000 		.4byte	.LVL12
 17267 1bcd 0100     		.2byte	0x1
 17268 1bcf 54       		.byte	0x54
 17269 1bd0 6C000000 		.4byte	.LVL12
 17270 1bd4 72000000 		.4byte	.LVL13
 17271 1bd8 0100     		.2byte	0x1
 17272 1bda 50       		.byte	0x50
 17273 1bdb 72000000 		.4byte	.LVL13
 17274 1bdf 7A000000 		.4byte	.LVL15
 17275 1be3 0100     		.2byte	0x1
 17276 1be5 54       		.byte	0x54
 17277 1be6 7A000000 		.4byte	.LVL15
 17278 1bea 7D000000 		.4byte	.LVL16-1
 17279 1bee 0100     		.2byte	0x1
 17280 1bf0 50       		.byte	0x50
 17281 1bf1 7D000000 		.4byte	.LVL16-1
 17282 1bf5 8C000000 		.4byte	.LFE298
 17283 1bf9 0100     		.2byte	0x1
 17284 1bfb 54       		.byte	0x54
 17285 1bfc 00000000 		.4byte	0
 17286 1c00 00000000 		.4byte	0
 17287              	.LLST4:
 17288 1c04 10000000 		.4byte	.LVL1
 17289 1c08 1C000000 		.4byte	.LVL2
 17290 1c0c 0300     		.2byte	0x3
 17291 1c0e 08       		.byte	0x8
 17292 1c0f 20       		.byte	0x20
 17293 1c10 9F       		.byte	0x9f
 17294 1c11 00000000 		.4byte	0
 17295 1c15 00000000 		.4byte	0
 17296              	.LLST5:
 17297 1c19 40000000 		.4byte	.LVL8
 17298 1c1d 46000000 		.4byte	.LVL9
 17299 1c21 0200     		.2byte	0x2
 17300 1c23 30       		.byte	0x30
 17301 1c24 9F       		.byte	0x9f
 17302 1c25 00000000 		.4byte	0
 17303 1c29 00000000 		.4byte	0
 17304              	.LLST56:
 17305 1c2d 00000000 		.4byte	.LVL147
 17306 1c31 1B000000 		.4byte	.LVL150-1
 17307 1c35 0100     		.2byte	0x1
 17308 1c37 50       		.byte	0x50
 17309 1c38 1B000000 		.4byte	.LVL150-1
 17310 1c3c C4000000 		.4byte	.LFE262
 17311 1c40 0100     		.2byte	0x1
 17312 1c42 56       		.byte	0x56
 17313 1c43 00000000 		.4byte	0
 17314 1c47 00000000 		.4byte	0
 17315              	.LLST57:
ARM GAS  /var/folders/d2/nstgp4h54kz7g1l847x_b8wc0000gn/T//ccW13lHv.s 			page 306


 17316 1c4b 10000000 		.4byte	.LVL148
 17317 1c4f 18000000 		.4byte	.LVL149
 17318 1c53 0300     		.2byte	0x3
 17319 1c55 08       		.byte	0x8
 17320 1c56 20       		.byte	0x20
 17321 1c57 9F       		.byte	0x9f
 17322 1c58 00000000 		.4byte	0
 17323 1c5c 00000000 		.4byte	0
 17324              	.LLST58:
 17325 1c60 46000000 		.4byte	.LVL155
 17326 1c64 4C000000 		.4byte	.LVL156
 17327 1c68 0200     		.2byte	0x2
 17328 1c6a 30       		.byte	0x30
 17329 1c6b 9F       		.byte	0x9f
 17330 1c6c 00000000 		.4byte	0
 17331 1c70 00000000 		.4byte	0
 17332              	.LLST59:
 17333 1c74 4E000000 		.4byte	.LVL157
 17334 1c78 9A000000 		.4byte	.LVL168
 17335 1c7c 0100     		.2byte	0x1
 17336 1c7e 56       		.byte	0x56
 17337 1c7f 00000000 		.4byte	0
 17338 1c83 00000000 		.4byte	0
 17339              	.LLST60:
 17340 1c87 50000000 		.4byte	.LVL158
 17341 1c8b 9A000000 		.4byte	.LVL168
 17342 1c8f 0100     		.2byte	0x1
 17343 1c91 54       		.byte	0x54
 17344 1c92 00000000 		.4byte	0
 17345 1c96 00000000 		.4byte	0
 17346              	.LLST61:
 17347 1c9a 8C000000 		.4byte	.LVL165
 17348 1c9e 90000000 		.4byte	.LVL166
 17349 1ca2 0200     		.2byte	0x2
 17350 1ca4 30       		.byte	0x30
 17351 1ca5 9F       		.byte	0x9f
 17352 1ca6 00000000 		.4byte	0
 17353 1caa 00000000 		.4byte	0
 17354              	.LLST62:
 17355 1cae 58000000 		.4byte	.LVL159
 17356 1cb2 5C000000 		.4byte	.LVL160
 17357 1cb6 0300     		.2byte	0x3
 17358 1cb8 08       		.byte	0x8
 17359 1cb9 20       		.byte	0x20
 17360 1cba 9F       		.byte	0x9f
 17361 1cbb 00000000 		.4byte	0
 17362 1cbf 00000000 		.4byte	0
 17363              	.LLST63:
 17364 1cc3 00000000 		.4byte	.LVL172
 17365 1cc7 1B000000 		.4byte	.LVL175-1
 17366 1ccb 0100     		.2byte	0x1
 17367 1ccd 50       		.byte	0x50
 17368 1cce 1B000000 		.4byte	.LVL175-1
 17369 1cd2 4A000000 		.4byte	.LVL183
 17370 1cd6 0100     		.2byte	0x1
 17371 1cd8 54       		.byte	0x54
 17372 1cd9 4A000000 		.4byte	.LVL183
ARM GAS  /var/folders/d2/nstgp4h54kz7g1l847x_b8wc0000gn/T//ccW13lHv.s 			page 307


 17373 1cdd 9C000000 		.4byte	.LVL194
 17374 1ce1 0400     		.2byte	0x4
 17375 1ce3 F3       		.byte	0xf3
 17376 1ce4 01       		.uleb128 0x1
 17377 1ce5 50       		.byte	0x50
 17378 1ce6 9F       		.byte	0x9f
 17379 1ce7 9C000000 		.4byte	.LVL194
 17380 1ceb A4000000 		.4byte	.LVL196
 17381 1cef 0100     		.2byte	0x1
 17382 1cf1 54       		.byte	0x54
 17383 1cf2 A4000000 		.4byte	.LVL196
 17384 1cf6 B4000000 		.4byte	.LFE263
 17385 1cfa 0400     		.2byte	0x4
 17386 1cfc F3       		.byte	0xf3
 17387 1cfd 01       		.uleb128 0x1
 17388 1cfe 50       		.byte	0x50
 17389 1cff 9F       		.byte	0x9f
 17390 1d00 00000000 		.4byte	0
 17391 1d04 00000000 		.4byte	0
 17392              	.LLST64:
 17393 1d08 26000000 		.4byte	.LVL177
 17394 1d0c 52000000 		.4byte	.LVL184
 17395 1d10 0100     		.2byte	0x1
 17396 1d12 57       		.byte	0x57
 17397 1d13 9C000000 		.4byte	.LVL194
 17398 1d17 A4000000 		.4byte	.LVL196
 17399 1d1b 0100     		.2byte	0x1
 17400 1d1d 57       		.byte	0x57
 17401 1d1e 00000000 		.4byte	0
 17402 1d22 00000000 		.4byte	0
 17403              	.LLST65:
 17404 1d26 10000000 		.4byte	.LVL173
 17405 1d2a 18000000 		.4byte	.LVL174
 17406 1d2e 0300     		.2byte	0x3
 17407 1d30 08       		.byte	0x8
 17408 1d31 20       		.byte	0x20
 17409 1d32 9F       		.byte	0x9f
 17410 1d33 00000000 		.4byte	0
 17411 1d37 00000000 		.4byte	0
 17412              	.LLST66:
 17413 1d3b 40000000 		.4byte	.LVL180
 17414 1d3f 46000000 		.4byte	.LVL181
 17415 1d43 0200     		.2byte	0x2
 17416 1d45 30       		.byte	0x30
 17417 1d46 9F       		.byte	0x9f
 17418 1d47 00000000 		.4byte	0
 17419 1d4b 00000000 		.4byte	0
 17420              	.LLST67:
 17421 1d4f 48000000 		.4byte	.LVL182
 17422 1d53 4A000000 		.4byte	.LVL183
 17423 1d57 0100     		.2byte	0x1
 17424 1d59 54       		.byte	0x54
 17425 1d5a 4A000000 		.4byte	.LVL183
 17426 1d5e 8C000000 		.4byte	.LVL193
 17427 1d62 0400     		.2byte	0x4
 17428 1d64 F3       		.byte	0xf3
 17429 1d65 01       		.uleb128 0x1
ARM GAS  /var/folders/d2/nstgp4h54kz7g1l847x_b8wc0000gn/T//ccW13lHv.s 			page 308


 17430 1d66 50       		.byte	0x50
 17431 1d67 9F       		.byte	0x9f
 17432 1d68 00000000 		.4byte	0
 17433 1d6c 00000000 		.4byte	0
 17434              	.LLST68:
 17435 1d70 4A000000 		.4byte	.LVL183
 17436 1d74 8C000000 		.4byte	.LVL193
 17437 1d78 0100     		.2byte	0x1
 17438 1d7a 54       		.byte	0x54
 17439 1d7b 00000000 		.4byte	0
 17440 1d7f 00000000 		.4byte	0
 17441              	.LLST69:
 17442 1d83 82000000 		.4byte	.LVL190
 17443 1d87 86000000 		.4byte	.LVL191
 17444 1d8b 0200     		.2byte	0x2
 17445 1d8d 30       		.byte	0x30
 17446 1d8e 9F       		.byte	0x9f
 17447 1d8f 00000000 		.4byte	0
 17448 1d93 00000000 		.4byte	0
 17449              	.LLST70:
 17450 1d97 52000000 		.4byte	.LVL184
 17451 1d9b 56000000 		.4byte	.LVL185
 17452 1d9f 0300     		.2byte	0x3
 17453 1da1 08       		.byte	0x8
 17454 1da2 20       		.byte	0x20
 17455 1da3 9F       		.byte	0x9f
 17456 1da4 00000000 		.4byte	0
 17457 1da8 00000000 		.4byte	0
 17458              	.LLST118:
 17459 1dac 00000000 		.4byte	.LVL331
 17460 1db0 2B000000 		.4byte	.LVL333-1
 17461 1db4 0100     		.2byte	0x1
 17462 1db6 50       		.byte	0x50
 17463 1db7 2B000000 		.4byte	.LVL333-1
 17464 1dbb 2C000000 		.4byte	.LVL333
 17465 1dbf 0400     		.2byte	0x4
 17466 1dc1 F3       		.byte	0xf3
 17467 1dc2 01       		.uleb128 0x1
 17468 1dc3 50       		.byte	0x50
 17469 1dc4 9F       		.byte	0x9f
 17470 1dc5 2C000000 		.4byte	.LVL333
 17471 1dc9 2F000000 		.4byte	.LVL334-1
 17472 1dcd 0100     		.2byte	0x1
 17473 1dcf 50       		.byte	0x50
 17474 1dd0 2F000000 		.4byte	.LVL334-1
 17475 1dd4 34000000 		.4byte	.LFE279
 17476 1dd8 0400     		.2byte	0x4
 17477 1dda F3       		.byte	0xf3
 17478 1ddb 01       		.uleb128 0x1
 17479 1ddc 50       		.byte	0x50
 17480 1ddd 9F       		.byte	0x9f
 17481 1dde 00000000 		.4byte	0
 17482 1de2 00000000 		.4byte	0
 17483              	.LLST119:
 17484 1de6 00000000 		.4byte	.LVL331
 17485 1dea 2B000000 		.4byte	.LVL333-1
 17486 1dee 0100     		.2byte	0x1
ARM GAS  /var/folders/d2/nstgp4h54kz7g1l847x_b8wc0000gn/T//ccW13lHv.s 			page 309


 17487 1df0 51       		.byte	0x51
 17488 1df1 2B000000 		.4byte	.LVL333-1
 17489 1df5 2C000000 		.4byte	.LVL333
 17490 1df9 0400     		.2byte	0x4
 17491 1dfb F3       		.byte	0xf3
 17492 1dfc 01       		.uleb128 0x1
 17493 1dfd 51       		.byte	0x51
 17494 1dfe 9F       		.byte	0x9f
 17495 1dff 2C000000 		.4byte	.LVL333
 17496 1e03 2F000000 		.4byte	.LVL334-1
 17497 1e07 0100     		.2byte	0x1
 17498 1e09 51       		.byte	0x51
 17499 1e0a 2F000000 		.4byte	.LVL334-1
 17500 1e0e 34000000 		.4byte	.LFE279
 17501 1e12 0400     		.2byte	0x4
 17502 1e14 F3       		.byte	0xf3
 17503 1e15 01       		.uleb128 0x1
 17504 1e16 51       		.byte	0x51
 17505 1e17 9F       		.byte	0x9f
 17506 1e18 00000000 		.4byte	0
 17507 1e1c 00000000 		.4byte	0
 17508              	.LLST120:
 17509 1e20 00000000 		.4byte	.LVL331
 17510 1e24 2B000000 		.4byte	.LVL333-1
 17511 1e28 0100     		.2byte	0x1
 17512 1e2a 52       		.byte	0x52
 17513 1e2b 2B000000 		.4byte	.LVL333-1
 17514 1e2f 2C000000 		.4byte	.LVL333
 17515 1e33 0400     		.2byte	0x4
 17516 1e35 F3       		.byte	0xf3
 17517 1e36 01       		.uleb128 0x1
 17518 1e37 52       		.byte	0x52
 17519 1e38 9F       		.byte	0x9f
 17520 1e39 2C000000 		.4byte	.LVL333
 17521 1e3d 2F000000 		.4byte	.LVL334-1
 17522 1e41 0100     		.2byte	0x1
 17523 1e43 52       		.byte	0x52
 17524 1e44 2F000000 		.4byte	.LVL334-1
 17525 1e48 34000000 		.4byte	.LFE279
 17526 1e4c 0400     		.2byte	0x4
 17527 1e4e F3       		.byte	0xf3
 17528 1e4f 01       		.uleb128 0x1
 17529 1e50 52       		.byte	0x52
 17530 1e51 9F       		.byte	0x9f
 17531 1e52 00000000 		.4byte	0
 17532 1e56 00000000 		.4byte	0
 17533              	.LLST121:
 17534 1e5a 00000000 		.4byte	.LVL331
 17535 1e5e 2B000000 		.4byte	.LVL333-1
 17536 1e62 0100     		.2byte	0x1
 17537 1e64 53       		.byte	0x53
 17538 1e65 2B000000 		.4byte	.LVL333-1
 17539 1e69 2C000000 		.4byte	.LVL333
 17540 1e6d 0400     		.2byte	0x4
 17541 1e6f F3       		.byte	0xf3
 17542 1e70 01       		.uleb128 0x1
 17543 1e71 53       		.byte	0x53
ARM GAS  /var/folders/d2/nstgp4h54kz7g1l847x_b8wc0000gn/T//ccW13lHv.s 			page 310


 17544 1e72 9F       		.byte	0x9f
 17545 1e73 2C000000 		.4byte	.LVL333
 17546 1e77 2F000000 		.4byte	.LVL334-1
 17547 1e7b 0100     		.2byte	0x1
 17548 1e7d 53       		.byte	0x53
 17549 1e7e 2F000000 		.4byte	.LVL334-1
 17550 1e82 34000000 		.4byte	.LFE279
 17551 1e86 0400     		.2byte	0x4
 17552 1e88 F3       		.byte	0xf3
 17553 1e89 01       		.uleb128 0x1
 17554 1e8a 53       		.byte	0x53
 17555 1e8b 9F       		.byte	0x9f
 17556 1e8c 00000000 		.4byte	0
 17557 1e90 00000000 		.4byte	0
 17558              	.LLST122:
 17559 1e94 00000000 		.4byte	.LVL331
 17560 1e98 28000000 		.4byte	.LVL332
 17561 1e9c 0200     		.2byte	0x2
 17562 1e9e 91       		.byte	0x91
 17563 1e9f 00       		.sleb128 0
 17564 1ea0 28000000 		.4byte	.LVL332
 17565 1ea4 2C000000 		.4byte	.LVL333
 17566 1ea8 0200     		.2byte	0x2
 17567 1eaa 7D       		.byte	0x7d
 17568 1eab 00       		.sleb128 0
 17569 1eac 2C000000 		.4byte	.LVL333
 17570 1eb0 34000000 		.4byte	.LFE279
 17571 1eb4 0200     		.2byte	0x2
 17572 1eb6 91       		.byte	0x91
 17573 1eb7 00       		.sleb128 0
 17574 1eb8 00000000 		.4byte	0
 17575 1ebc 00000000 		.4byte	0
 17576              	.LLST146:
 17577 1ec0 00000000 		.4byte	.LVL386
 17578 1ec4 2B000000 		.4byte	.LVL388-1
 17579 1ec8 0100     		.2byte	0x1
 17580 1eca 50       		.byte	0x50
 17581 1ecb 2B000000 		.4byte	.LVL388-1
 17582 1ecf 2C000000 		.4byte	.LVL388
 17583 1ed3 0400     		.2byte	0x4
 17584 1ed5 F3       		.byte	0xf3
 17585 1ed6 01       		.uleb128 0x1
 17586 1ed7 50       		.byte	0x50
 17587 1ed8 9F       		.byte	0x9f
 17588 1ed9 2C000000 		.4byte	.LVL388
 17589 1edd 2F000000 		.4byte	.LVL389-1
 17590 1ee1 0100     		.2byte	0x1
 17591 1ee3 50       		.byte	0x50
 17592 1ee4 2F000000 		.4byte	.LVL389-1
 17593 1ee8 34000000 		.4byte	.LFE285
 17594 1eec 0400     		.2byte	0x4
 17595 1eee F3       		.byte	0xf3
 17596 1eef 01       		.uleb128 0x1
 17597 1ef0 50       		.byte	0x50
 17598 1ef1 9F       		.byte	0x9f
 17599 1ef2 00000000 		.4byte	0
 17600 1ef6 00000000 		.4byte	0
ARM GAS  /var/folders/d2/nstgp4h54kz7g1l847x_b8wc0000gn/T//ccW13lHv.s 			page 311


 17601              	.LLST147:
 17602 1efa 00000000 		.4byte	.LVL386
 17603 1efe 2B000000 		.4byte	.LVL388-1
 17604 1f02 0100     		.2byte	0x1
 17605 1f04 51       		.byte	0x51
 17606 1f05 2B000000 		.4byte	.LVL388-1
 17607 1f09 2C000000 		.4byte	.LVL388
 17608 1f0d 0400     		.2byte	0x4
 17609 1f0f F3       		.byte	0xf3
 17610 1f10 01       		.uleb128 0x1
 17611 1f11 51       		.byte	0x51
 17612 1f12 9F       		.byte	0x9f
 17613 1f13 2C000000 		.4byte	.LVL388
 17614 1f17 2F000000 		.4byte	.LVL389-1
 17615 1f1b 0100     		.2byte	0x1
 17616 1f1d 51       		.byte	0x51
 17617 1f1e 2F000000 		.4byte	.LVL389-1
 17618 1f22 34000000 		.4byte	.LFE285
 17619 1f26 0400     		.2byte	0x4
 17620 1f28 F3       		.byte	0xf3
 17621 1f29 01       		.uleb128 0x1
 17622 1f2a 51       		.byte	0x51
 17623 1f2b 9F       		.byte	0x9f
 17624 1f2c 00000000 		.4byte	0
 17625 1f30 00000000 		.4byte	0
 17626              	.LLST148:
 17627 1f34 00000000 		.4byte	.LVL386
 17628 1f38 2B000000 		.4byte	.LVL388-1
 17629 1f3c 0100     		.2byte	0x1
 17630 1f3e 52       		.byte	0x52
 17631 1f3f 2B000000 		.4byte	.LVL388-1
 17632 1f43 2C000000 		.4byte	.LVL388
 17633 1f47 0400     		.2byte	0x4
 17634 1f49 F3       		.byte	0xf3
 17635 1f4a 01       		.uleb128 0x1
 17636 1f4b 52       		.byte	0x52
 17637 1f4c 9F       		.byte	0x9f
 17638 1f4d 2C000000 		.4byte	.LVL388
 17639 1f51 2F000000 		.4byte	.LVL389-1
 17640 1f55 0100     		.2byte	0x1
 17641 1f57 52       		.byte	0x52
 17642 1f58 2F000000 		.4byte	.LVL389-1
 17643 1f5c 34000000 		.4byte	.LFE285
 17644 1f60 0400     		.2byte	0x4
 17645 1f62 F3       		.byte	0xf3
 17646 1f63 01       		.uleb128 0x1
 17647 1f64 52       		.byte	0x52
 17648 1f65 9F       		.byte	0x9f
 17649 1f66 00000000 		.4byte	0
 17650 1f6a 00000000 		.4byte	0
 17651              	.LLST149:
 17652 1f6e 00000000 		.4byte	.LVL386
 17653 1f72 2B000000 		.4byte	.LVL388-1
 17654 1f76 0100     		.2byte	0x1
 17655 1f78 53       		.byte	0x53
 17656 1f79 2B000000 		.4byte	.LVL388-1
 17657 1f7d 2C000000 		.4byte	.LVL388
ARM GAS  /var/folders/d2/nstgp4h54kz7g1l847x_b8wc0000gn/T//ccW13lHv.s 			page 312


 17658 1f81 0400     		.2byte	0x4
 17659 1f83 F3       		.byte	0xf3
 17660 1f84 01       		.uleb128 0x1
 17661 1f85 53       		.byte	0x53
 17662 1f86 9F       		.byte	0x9f
 17663 1f87 2C000000 		.4byte	.LVL388
 17664 1f8b 2F000000 		.4byte	.LVL389-1
 17665 1f8f 0100     		.2byte	0x1
 17666 1f91 53       		.byte	0x53
 17667 1f92 2F000000 		.4byte	.LVL389-1
 17668 1f96 34000000 		.4byte	.LFE285
 17669 1f9a 0400     		.2byte	0x4
 17670 1f9c F3       		.byte	0xf3
 17671 1f9d 01       		.uleb128 0x1
 17672 1f9e 53       		.byte	0x53
 17673 1f9f 9F       		.byte	0x9f
 17674 1fa0 00000000 		.4byte	0
 17675 1fa4 00000000 		.4byte	0
 17676              	.LLST150:
 17677 1fa8 00000000 		.4byte	.LVL386
 17678 1fac 28000000 		.4byte	.LVL387
 17679 1fb0 0200     		.2byte	0x2
 17680 1fb2 91       		.byte	0x91
 17681 1fb3 00       		.sleb128 0
 17682 1fb4 28000000 		.4byte	.LVL387
 17683 1fb8 2C000000 		.4byte	.LVL388
 17684 1fbc 0200     		.2byte	0x2
 17685 1fbe 7D       		.byte	0x7d
 17686 1fbf 00       		.sleb128 0
 17687 1fc0 2C000000 		.4byte	.LVL388
 17688 1fc4 34000000 		.4byte	.LFE285
 17689 1fc8 0200     		.2byte	0x2
 17690 1fca 91       		.byte	0x91
 17691 1fcb 00       		.sleb128 0
 17692 1fcc 00000000 		.4byte	0
 17693 1fd0 00000000 		.4byte	0
 17694              	.LLST177:
 17695 1fd4 00000000 		.4byte	.LVL444
 17696 1fd8 2B000000 		.4byte	.LVL446-1
 17697 1fdc 0100     		.2byte	0x1
 17698 1fde 50       		.byte	0x50
 17699 1fdf 2B000000 		.4byte	.LVL446-1
 17700 1fe3 2C000000 		.4byte	.LVL446
 17701 1fe7 0400     		.2byte	0x4
 17702 1fe9 F3       		.byte	0xf3
 17703 1fea 01       		.uleb128 0x1
 17704 1feb 50       		.byte	0x50
 17705 1fec 9F       		.byte	0x9f
 17706 1fed 2C000000 		.4byte	.LVL446
 17707 1ff1 2F000000 		.4byte	.LVL447-1
 17708 1ff5 0100     		.2byte	0x1
 17709 1ff7 50       		.byte	0x50
 17710 1ff8 2F000000 		.4byte	.LVL447-1
 17711 1ffc 34000000 		.4byte	.LFE291
 17712 2000 0400     		.2byte	0x4
 17713 2002 F3       		.byte	0xf3
 17714 2003 01       		.uleb128 0x1
ARM GAS  /var/folders/d2/nstgp4h54kz7g1l847x_b8wc0000gn/T//ccW13lHv.s 			page 313


 17715 2004 50       		.byte	0x50
 17716 2005 9F       		.byte	0x9f
 17717 2006 00000000 		.4byte	0
 17718 200a 00000000 		.4byte	0
 17719              	.LLST178:
 17720 200e 00000000 		.4byte	.LVL444
 17721 2012 2B000000 		.4byte	.LVL446-1
 17722 2016 0100     		.2byte	0x1
 17723 2018 51       		.byte	0x51
 17724 2019 2B000000 		.4byte	.LVL446-1
 17725 201d 2C000000 		.4byte	.LVL446
 17726 2021 0400     		.2byte	0x4
 17727 2023 F3       		.byte	0xf3
 17728 2024 01       		.uleb128 0x1
 17729 2025 51       		.byte	0x51
 17730 2026 9F       		.byte	0x9f
 17731 2027 2C000000 		.4byte	.LVL446
 17732 202b 2F000000 		.4byte	.LVL447-1
 17733 202f 0100     		.2byte	0x1
 17734 2031 51       		.byte	0x51
 17735 2032 2F000000 		.4byte	.LVL447-1
 17736 2036 34000000 		.4byte	.LFE291
 17737 203a 0400     		.2byte	0x4
 17738 203c F3       		.byte	0xf3
 17739 203d 01       		.uleb128 0x1
 17740 203e 51       		.byte	0x51
 17741 203f 9F       		.byte	0x9f
 17742 2040 00000000 		.4byte	0
 17743 2044 00000000 		.4byte	0
 17744              	.LLST179:
 17745 2048 00000000 		.4byte	.LVL444
 17746 204c 2B000000 		.4byte	.LVL446-1
 17747 2050 0100     		.2byte	0x1
 17748 2052 52       		.byte	0x52
 17749 2053 2B000000 		.4byte	.LVL446-1
 17750 2057 2C000000 		.4byte	.LVL446
 17751 205b 0400     		.2byte	0x4
 17752 205d F3       		.byte	0xf3
 17753 205e 01       		.uleb128 0x1
 17754 205f 52       		.byte	0x52
 17755 2060 9F       		.byte	0x9f
 17756 2061 2C000000 		.4byte	.LVL446
 17757 2065 2F000000 		.4byte	.LVL447-1
 17758 2069 0100     		.2byte	0x1
 17759 206b 52       		.byte	0x52
 17760 206c 2F000000 		.4byte	.LVL447-1
 17761 2070 34000000 		.4byte	.LFE291
 17762 2074 0400     		.2byte	0x4
 17763 2076 F3       		.byte	0xf3
 17764 2077 01       		.uleb128 0x1
 17765 2078 52       		.byte	0x52
 17766 2079 9F       		.byte	0x9f
 17767 207a 00000000 		.4byte	0
 17768 207e 00000000 		.4byte	0
 17769              	.LLST180:
 17770 2082 00000000 		.4byte	.LVL444
 17771 2086 2B000000 		.4byte	.LVL446-1
ARM GAS  /var/folders/d2/nstgp4h54kz7g1l847x_b8wc0000gn/T//ccW13lHv.s 			page 314


 17772 208a 0100     		.2byte	0x1
 17773 208c 53       		.byte	0x53
 17774 208d 2B000000 		.4byte	.LVL446-1
 17775 2091 2C000000 		.4byte	.LVL446
 17776 2095 0400     		.2byte	0x4
 17777 2097 F3       		.byte	0xf3
 17778 2098 01       		.uleb128 0x1
 17779 2099 53       		.byte	0x53
 17780 209a 9F       		.byte	0x9f
 17781 209b 2C000000 		.4byte	.LVL446
 17782 209f 2F000000 		.4byte	.LVL447-1
 17783 20a3 0100     		.2byte	0x1
 17784 20a5 53       		.byte	0x53
 17785 20a6 2F000000 		.4byte	.LVL447-1
 17786 20aa 34000000 		.4byte	.LFE291
 17787 20ae 0400     		.2byte	0x4
 17788 20b0 F3       		.byte	0xf3
 17789 20b1 01       		.uleb128 0x1
 17790 20b2 53       		.byte	0x53
 17791 20b3 9F       		.byte	0x9f
 17792 20b4 00000000 		.4byte	0
 17793 20b8 00000000 		.4byte	0
 17794              	.LLST181:
 17795 20bc 00000000 		.4byte	.LVL444
 17796 20c0 28000000 		.4byte	.LVL445
 17797 20c4 0200     		.2byte	0x2
 17798 20c6 91       		.byte	0x91
 17799 20c7 00       		.sleb128 0
 17800 20c8 28000000 		.4byte	.LVL445
 17801 20cc 2C000000 		.4byte	.LVL446
 17802 20d0 0200     		.2byte	0x2
 17803 20d2 7D       		.byte	0x7d
 17804 20d3 00       		.sleb128 0
 17805 20d4 2C000000 		.4byte	.LVL446
 17806 20d8 34000000 		.4byte	.LFE291
 17807 20dc 0200     		.2byte	0x2
 17808 20de 91       		.byte	0x91
 17809 20df 00       		.sleb128 0
 17810 20e0 00000000 		.4byte	0
 17811 20e4 00000000 		.4byte	0
 17812              		.section	.debug_aranges,"",%progbits
 17813 0000 84010000 		.4byte	0x184
 17814 0004 0200     		.2byte	0x2
 17815 0006 00000000 		.4byte	.Ldebug_info0
 17816 000a 04       		.byte	0x4
 17817 000b 00       		.byte	0
 17818 000c 0000     		.2byte	0
 17819 000e 0000     		.2byte	0
 17820 0010 00000000 		.4byte	.LFB298
 17821 0014 8C000000 		.4byte	.LFE298-.LFB298
 17822 0018 00000000 		.4byte	.LFB253
 17823 001c 78000000 		.4byte	.LFE253-.LFB253
 17824 0020 00000000 		.4byte	.LFB254
 17825 0024 7C000000 		.4byte	.LFE254-.LFB254
 17826 0028 00000000 		.4byte	.LFB255
 17827 002c 34000000 		.4byte	.LFE255-.LFB255
 17828 0030 00000000 		.4byte	.LFB256
ARM GAS  /var/folders/d2/nstgp4h54kz7g1l847x_b8wc0000gn/T//ccW13lHv.s 			page 315


 17829 0034 04010000 		.4byte	.LFE256-.LFB256
 17830 0038 00000000 		.4byte	.LFB257
 17831 003c 34000000 		.4byte	.LFE257-.LFB257
 17832 0040 00000000 		.4byte	.LFB258
 17833 0044 70000000 		.4byte	.LFE258-.LFB258
 17834 0048 00000000 		.4byte	.LFB259
 17835 004c 68000000 		.4byte	.LFE259-.LFB259
 17836 0050 00000000 		.4byte	.LFB260
 17837 0054 64000000 		.4byte	.LFE260-.LFB260
 17838 0058 00000000 		.4byte	.LFB261
 17839 005c 64000000 		.4byte	.LFE261-.LFB261
 17840 0060 00000000 		.4byte	.LFB262
 17841 0064 C4000000 		.4byte	.LFE262-.LFB262
 17842 0068 00000000 		.4byte	.LFB263
 17843 006c B4000000 		.4byte	.LFE263-.LFB263
 17844 0070 00000000 		.4byte	.LFB264
 17845 0074 28000000 		.4byte	.LFE264-.LFB264
 17846 0078 00000000 		.4byte	.LFB265
 17847 007c 34000000 		.4byte	.LFE265-.LFB265
 17848 0080 00000000 		.4byte	.LFB267
 17849 0084 88000000 		.4byte	.LFE267-.LFB267
 17850 0088 00000000 		.4byte	.LFB266
 17851 008c 2C000000 		.4byte	.LFE266-.LFB266
 17852 0090 00000000 		.4byte	.LFB268
 17853 0094 88000000 		.4byte	.LFE268-.LFB268
 17854 0098 00000000 		.4byte	.LFB269
 17855 009c 28000000 		.4byte	.LFE269-.LFB269
 17856 00a0 00000000 		.4byte	.LFB270
 17857 00a4 34000000 		.4byte	.LFE270-.LFB270
 17858 00a8 00000000 		.4byte	.LFB272
 17859 00ac 7C000000 		.4byte	.LFE272-.LFB272
 17860 00b0 00000000 		.4byte	.LFB271
 17861 00b4 2C000000 		.4byte	.LFE271-.LFB271
 17862 00b8 00000000 		.4byte	.LFB273
 17863 00bc 7C000000 		.4byte	.LFE273-.LFB273
 17864 00c0 00000000 		.4byte	.LFB274
 17865 00c4 28000000 		.4byte	.LFE274-.LFB274
 17866 00c8 00000000 		.4byte	.LFB275
 17867 00cc 34000000 		.4byte	.LFE275-.LFB275
 17868 00d0 00000000 		.4byte	.LFB276
 17869 00d4 7C000000 		.4byte	.LFE276-.LFB276
 17870 00d8 00000000 		.4byte	.LFB278
 17871 00dc 7C000000 		.4byte	.LFE278-.LFB278
 17872 00e0 00000000 		.4byte	.LFB277
 17873 00e4 2C000000 		.4byte	.LFE277-.LFB277
 17874 00e8 00000000 		.4byte	.LFB279
 17875 00ec 34000000 		.4byte	.LFE279-.LFB279
 17876 00f0 00000000 		.4byte	.LFB280
 17877 00f4 38000000 		.4byte	.LFE280-.LFB280
 17878 00f8 00000000 		.4byte	.LFB281
 17879 00fc 34000000 		.4byte	.LFE281-.LFB281
 17880 0100 00000000 		.4byte	.LFB283
 17881 0104 98000000 		.4byte	.LFE283-.LFB283
 17882 0108 00000000 		.4byte	.LFB282
 17883 010c 30000000 		.4byte	.LFE282-.LFB282
 17884 0110 00000000 		.4byte	.LFB284
 17885 0114 94000000 		.4byte	.LFE284-.LFB284
ARM GAS  /var/folders/d2/nstgp4h54kz7g1l847x_b8wc0000gn/T//ccW13lHv.s 			page 316


 17886 0118 00000000 		.4byte	.LFB285
 17887 011c 34000000 		.4byte	.LFE285-.LFB285
 17888 0120 00000000 		.4byte	.LFB286
 17889 0124 50000000 		.4byte	.LFE286-.LFB286
 17890 0128 00000000 		.4byte	.LFB287
 17891 012c 34000000 		.4byte	.LFE287-.LFB287
 17892 0130 00000000 		.4byte	.LFB289
 17893 0134 9C000000 		.4byte	.LFE289-.LFB289
 17894 0138 00000000 		.4byte	.LFB288
 17895 013c 30000000 		.4byte	.LFE288-.LFB288
 17896 0140 00000000 		.4byte	.LFB290
 17897 0144 B0000000 		.4byte	.LFE290-.LFB290
 17898 0148 00000000 		.4byte	.LFB291
 17899 014c 34000000 		.4byte	.LFE291-.LFB291
 17900 0150 00000000 		.4byte	.LFB292
 17901 0154 60000000 		.4byte	.LFE292-.LFB292
 17902 0158 00000000 		.4byte	.LFB293
 17903 015c 38000000 		.4byte	.LFE293-.LFB293
 17904 0160 00000000 		.4byte	.LFB295
 17905 0164 B0000000 		.4byte	.LFE295-.LFB295
 17906 0168 00000000 		.4byte	.LFB294
 17907 016c 34000000 		.4byte	.LFE294-.LFB294
 17908 0170 00000000 		.4byte	.LFB297
 17909 0174 94000000 		.4byte	.LFE297-.LFB297
 17910 0178 00000000 		.4byte	.LFB296
 17911 017c 34000000 		.4byte	.LFE296-.LFB296
 17912 0180 00000000 		.4byte	0
 17913 0184 00000000 		.4byte	0
 17914              		.section	.debug_ranges,"",%progbits
 17915              	.Ldebug_ranges0:
 17916 0000 26000000 		.4byte	.LBB190
 17917 0004 46000000 		.4byte	.LBE190
 17918 0008 72000000 		.4byte	.LBB196
 17919 000c 7A000000 		.4byte	.LBE196
 17920 0010 00000000 		.4byte	0
 17921 0014 00000000 		.4byte	0
 17922 0018 1A000000 		.4byte	.LBB217
 17923 001c 50000000 		.4byte	.LBE217
 17924 0020 68000000 		.4byte	.LBB226
 17925 0024 70000000 		.4byte	.LBE226
 17926 0028 00000000 		.4byte	0
 17927 002c 00000000 		.4byte	0
 17928 0030 1E000000 		.4byte	.LBB218
 17929 0034 20000000 		.4byte	.LBE218
 17930 0038 26000000 		.4byte	.LBB221
 17931 003c 4A000000 		.4byte	.LBE221
 17932 0040 00000000 		.4byte	0
 17933 0044 00000000 		.4byte	0
 17934 0048 4A000000 		.4byte	.LBB222
 17935 004c 4E000000 		.4byte	.LBE222
 17936 0050 68000000 		.4byte	.LBB225
 17937 0054 6C000000 		.4byte	.LBE225
 17938 0058 00000000 		.4byte	0
 17939 005c 00000000 		.4byte	0
 17940 0060 1A000000 		.4byte	.LBB244
 17941 0064 62000000 		.4byte	.LBE244
 17942 0068 7A000000 		.4byte	.LBB271
ARM GAS  /var/folders/d2/nstgp4h54kz7g1l847x_b8wc0000gn/T//ccW13lHv.s 			page 317


 17943 006c F2000000 		.4byte	.LBE271
 17944 0070 00000000 		.4byte	0
 17945 0074 00000000 		.4byte	0
 17946 0078 1E000000 		.4byte	.LBB245
 17947 007c 22000000 		.4byte	.LBE245
 17948 0080 28000000 		.4byte	.LBB249
 17949 0084 50000000 		.4byte	.LBE249
 17950 0088 7A000000 		.4byte	.LBB253
 17951 008c 7C000000 		.4byte	.LBE253
 17952 0090 00000000 		.4byte	0
 17953 0094 00000000 		.4byte	0
 17954 0098 56000000 		.4byte	.LBB250
 17955 009c 5E000000 		.4byte	.LBE250
 17956 00a0 80000000 		.4byte	.LBB254
 17957 00a4 84000000 		.4byte	.LBE254
 17958 00a8 00000000 		.4byte	0
 17959 00ac 00000000 		.4byte	0
 17960 00b0 8C000000 		.4byte	.LBB255
 17961 00b4 E2000000 		.4byte	.LBE255
 17962 00b8 EA000000 		.4byte	.LBB270
 17963 00bc F2000000 		.4byte	.LBE270
 17964 00c0 00000000 		.4byte	0
 17965 00c4 00000000 		.4byte	0
 17966 00c8 A2000000 		.4byte	.LBB262
 17967 00cc C2000000 		.4byte	.LBE262
 17968 00d0 EA000000 		.4byte	.LBB268
 17969 00d4 F2000000 		.4byte	.LBE268
 17970 00d8 00000000 		.4byte	0
 17971 00dc 00000000 		.4byte	0
 17972 00e0 2C000000 		.4byte	.LBB287
 17973 00e4 4C000000 		.4byte	.LBE287
 17974 00e8 58000000 		.4byte	.LBB293
 17975 00ec 60000000 		.4byte	.LBE293
 17976 00f0 00000000 		.4byte	0
 17977 00f4 00000000 		.4byte	0
 17978 00f8 1C000000 		.4byte	.LBB309
 17979 00fc 3C000000 		.4byte	.LBE309
 17980 0100 4E000000 		.4byte	.LBB315
 17981 0104 56000000 		.4byte	.LBE315
 17982 0108 00000000 		.4byte	0
 17983 010c 00000000 		.4byte	0
 17984 0110 1C000000 		.4byte	.LBB331
 17985 0114 3C000000 		.4byte	.LBE331
 17986 0118 4A000000 		.4byte	.LBB337
 17987 011c 52000000 		.4byte	.LBE337
 17988 0120 00000000 		.4byte	0
 17989 0124 00000000 		.4byte	0
 17990 0128 1E000000 		.4byte	.LBB353
 17991 012c 3E000000 		.4byte	.LBE353
 17992 0130 4C000000 		.4byte	.LBB359
 17993 0134 54000000 		.4byte	.LBE359
 17994 0138 00000000 		.4byte	0
 17995 013c 00000000 		.4byte	0
 17996 0140 12000000 		.4byte	.LBB387
 17997 0144 1C000000 		.4byte	.LBE387
 17998 0148 20000000 		.4byte	.LBB400
 17999 014c 24000000 		.4byte	.LBE400
ARM GAS  /var/folders/d2/nstgp4h54kz7g1l847x_b8wc0000gn/T//ccW13lHv.s 			page 318


 18000 0150 00000000 		.4byte	0
 18001 0154 00000000 		.4byte	0
 18002 0158 1C000000 		.4byte	.LBB393
 18003 015c 20000000 		.4byte	.LBE393
 18004 0160 2A000000 		.4byte	.LBB401
 18005 0164 4C000000 		.4byte	.LBE401
 18006 0168 AA000000 		.4byte	.LBB416
 18007 016c B2000000 		.4byte	.LBE416
 18008 0170 00000000 		.4byte	0
 18009 0174 00000000 		.4byte	0
 18010 0178 52000000 		.4byte	.LBB404
 18011 017c 56000000 		.4byte	.LBE404
 18012 0180 6A000000 		.4byte	.LBB415
 18013 0184 90000000 		.4byte	.LBE415
 18014 0188 00000000 		.4byte	0
 18015 018c 00000000 		.4byte	0
 18016 0190 12000000 		.4byte	.LBB444
 18017 0194 1C000000 		.4byte	.LBE444
 18018 0198 1E000000 		.4byte	.LBB457
 18019 019c 22000000 		.4byte	.LBE457
 18020 01a0 00000000 		.4byte	0
 18021 01a4 00000000 		.4byte	0
 18022 01a8 1C000000 		.4byte	.LBB450
 18023 01ac 1E000000 		.4byte	.LBE450
 18024 01b0 28000000 		.4byte	.LBB458
 18025 01b4 46000000 		.4byte	.LBE458
 18026 01b8 9C000000 		.4byte	.LBB473
 18027 01bc A4000000 		.4byte	.LBE473
 18028 01c0 00000000 		.4byte	0
 18029 01c4 00000000 		.4byte	0
 18030 01c8 4C000000 		.4byte	.LBB461
 18031 01cc 50000000 		.4byte	.LBE461
 18032 01d0 64000000 		.4byte	.LBB472
 18033 01d4 86000000 		.4byte	.LBE472
 18034 01d8 00000000 		.4byte	0
 18035 01dc 00000000 		.4byte	0
 18036 01e0 38000000 		.4byte	.LBB489
 18037 01e4 58000000 		.4byte	.LBE489
 18038 01e8 6C000000 		.4byte	.LBB495
 18039 01ec 74000000 		.4byte	.LBE495
 18040 01f0 00000000 		.4byte	0
 18041 01f4 00000000 		.4byte	0
 18042 01f8 32000000 		.4byte	.LBB511
 18043 01fc 52000000 		.4byte	.LBE511
 18044 0200 6A000000 		.4byte	.LBB517
 18045 0204 72000000 		.4byte	.LBE517
 18046 0208 00000000 		.4byte	0
 18047 020c 00000000 		.4byte	0
 18048 0210 32000000 		.4byte	.LBB533
 18049 0214 52000000 		.4byte	.LBE533
 18050 0218 60000000 		.4byte	.LBB539
 18051 021c 68000000 		.4byte	.LBE539
 18052 0220 00000000 		.4byte	0
 18053 0224 00000000 		.4byte	0
 18054 0228 2A000000 		.4byte	.LBB555
 18055 022c 4A000000 		.4byte	.LBE555
 18056 0230 5E000000 		.4byte	.LBB561
ARM GAS  /var/folders/d2/nstgp4h54kz7g1l847x_b8wc0000gn/T//ccW13lHv.s 			page 319


 18057 0234 66000000 		.4byte	.LBE561
 18058 0238 00000000 		.4byte	0
 18059 023c 00000000 		.4byte	0
 18060 0240 2A000000 		.4byte	.LBB577
 18061 0244 4A000000 		.4byte	.LBE577
 18062 0248 5E000000 		.4byte	.LBB583
 18063 024c 66000000 		.4byte	.LBE583
 18064 0250 00000000 		.4byte	0
 18065 0254 00000000 		.4byte	0
 18066 0258 32000000 		.4byte	.LBB599
 18067 025c 52000000 		.4byte	.LBE599
 18068 0260 60000000 		.4byte	.LBB605
 18069 0264 68000000 		.4byte	.LBE605
 18070 0268 00000000 		.4byte	0
 18071 026c 00000000 		.4byte	0
 18072 0270 0C000000 		.4byte	.LBB606
 18073 0274 14000000 		.4byte	.LBE606
 18074 0278 18000000 		.4byte	.LBB609
 18075 027c 1C000000 		.4byte	.LBE609
 18076 0280 00000000 		.4byte	0
 18077 0284 00000000 		.4byte	0
 18078 0288 48000000 		.4byte	.LBB625
 18079 028c 68000000 		.4byte	.LBE625
 18080 0290 74000000 		.4byte	.LBB631
 18081 0294 7C000000 		.4byte	.LBE631
 18082 0298 00000000 		.4byte	0
 18083 029c 00000000 		.4byte	0
 18084 02a0 44000000 		.4byte	.LBB647
 18085 02a4 64000000 		.4byte	.LBE647
 18086 02a8 78000000 		.4byte	.LBB653
 18087 02ac 80000000 		.4byte	.LBE653
 18088 02b0 00000000 		.4byte	0
 18089 02b4 00000000 		.4byte	0
 18090 02b8 10000000 		.4byte	.LBB654
 18091 02bc 1C000000 		.4byte	.LBE654
 18092 02c0 20000000 		.4byte	.LBB657
 18093 02c4 24000000 		.4byte	.LBE657
 18094 02c8 00000000 		.4byte	0
 18095 02cc 00000000 		.4byte	0
 18096 02d0 48000000 		.4byte	.LBB673
 18097 02d4 68000000 		.4byte	.LBE673
 18098 02d8 76000000 		.4byte	.LBB679
 18099 02dc 7E000000 		.4byte	.LBE679
 18100 02e0 00000000 		.4byte	0
 18101 02e4 00000000 		.4byte	0
 18102 02e8 56000000 		.4byte	.LBB695
 18103 02ec 76000000 		.4byte	.LBE695
 18104 02f0 94000000 		.4byte	.LBB701
 18105 02f4 9C000000 		.4byte	.LBE701
 18106 02f8 00000000 		.4byte	0
 18107 02fc 00000000 		.4byte	0
 18108 0300 0E000000 		.4byte	.LBB702
 18109 0304 1A000000 		.4byte	.LBE702
 18110 0308 1E000000 		.4byte	.LBB705
 18111 030c 22000000 		.4byte	.LBE705
 18112 0310 00000000 		.4byte	0
 18113 0314 00000000 		.4byte	0
ARM GAS  /var/folders/d2/nstgp4h54kz7g1l847x_b8wc0000gn/T//ccW13lHv.s 			page 320


 18114 0318 4C000000 		.4byte	.LBB721
 18115 031c 6C000000 		.4byte	.LBE721
 18116 0320 7E000000 		.4byte	.LBB727
 18117 0324 86000000 		.4byte	.LBE727
 18118 0328 00000000 		.4byte	0
 18119 032c 00000000 		.4byte	0
 18120 0330 42000000 		.4byte	.LBB743
 18121 0334 62000000 		.4byte	.LBE743
 18122 0338 76000000 		.4byte	.LBB749
 18123 033c 7E000000 		.4byte	.LBE749
 18124 0340 00000000 		.4byte	0
 18125 0344 00000000 		.4byte	0
 18126 0348 00000000 		.4byte	.LFB298
 18127 034c 8C000000 		.4byte	.LFE298
 18128 0350 00000000 		.4byte	.LFB253
 18129 0354 78000000 		.4byte	.LFE253
 18130 0358 00000000 		.4byte	.LFB254
 18131 035c 7C000000 		.4byte	.LFE254
 18132 0360 00000000 		.4byte	.LFB255
 18133 0364 34000000 		.4byte	.LFE255
 18134 0368 00000000 		.4byte	.LFB256
 18135 036c 04010000 		.4byte	.LFE256
 18136 0370 00000000 		.4byte	.LFB257
 18137 0374 34000000 		.4byte	.LFE257
 18138 0378 00000000 		.4byte	.LFB258
 18139 037c 70000000 		.4byte	.LFE258
 18140 0380 00000000 		.4byte	.LFB259
 18141 0384 68000000 		.4byte	.LFE259
 18142 0388 00000000 		.4byte	.LFB260
 18143 038c 64000000 		.4byte	.LFE260
 18144 0390 00000000 		.4byte	.LFB261
 18145 0394 64000000 		.4byte	.LFE261
 18146 0398 00000000 		.4byte	.LFB262
 18147 039c C4000000 		.4byte	.LFE262
 18148 03a0 00000000 		.4byte	.LFB263
 18149 03a4 B4000000 		.4byte	.LFE263
 18150 03a8 00000000 		.4byte	.LFB264
 18151 03ac 28000000 		.4byte	.LFE264
 18152 03b0 00000000 		.4byte	.LFB265
 18153 03b4 34000000 		.4byte	.LFE265
 18154 03b8 00000000 		.4byte	.LFB267
 18155 03bc 88000000 		.4byte	.LFE267
 18156 03c0 00000000 		.4byte	.LFB266
 18157 03c4 2C000000 		.4byte	.LFE266
 18158 03c8 00000000 		.4byte	.LFB268
 18159 03cc 88000000 		.4byte	.LFE268
 18160 03d0 00000000 		.4byte	.LFB269
 18161 03d4 28000000 		.4byte	.LFE269
 18162 03d8 00000000 		.4byte	.LFB270
 18163 03dc 34000000 		.4byte	.LFE270
 18164 03e0 00000000 		.4byte	.LFB272
 18165 03e4 7C000000 		.4byte	.LFE272
 18166 03e8 00000000 		.4byte	.LFB271
 18167 03ec 2C000000 		.4byte	.LFE271
 18168 03f0 00000000 		.4byte	.LFB273
 18169 03f4 7C000000 		.4byte	.LFE273
 18170 03f8 00000000 		.4byte	.LFB274
ARM GAS  /var/folders/d2/nstgp4h54kz7g1l847x_b8wc0000gn/T//ccW13lHv.s 			page 321


 18171 03fc 28000000 		.4byte	.LFE274
 18172 0400 00000000 		.4byte	.LFB275
 18173 0404 34000000 		.4byte	.LFE275
 18174 0408 00000000 		.4byte	.LFB276
 18175 040c 7C000000 		.4byte	.LFE276
 18176 0410 00000000 		.4byte	.LFB278
 18177 0414 7C000000 		.4byte	.LFE278
 18178 0418 00000000 		.4byte	.LFB277
 18179 041c 2C000000 		.4byte	.LFE277
 18180 0420 00000000 		.4byte	.LFB279
 18181 0424 34000000 		.4byte	.LFE279
 18182 0428 00000000 		.4byte	.LFB280
 18183 042c 38000000 		.4byte	.LFE280
 18184 0430 00000000 		.4byte	.LFB281
 18185 0434 34000000 		.4byte	.LFE281
 18186 0438 00000000 		.4byte	.LFB283
 18187 043c 98000000 		.4byte	.LFE283
 18188 0440 00000000 		.4byte	.LFB282
 18189 0444 30000000 		.4byte	.LFE282
 18190 0448 00000000 		.4byte	.LFB284
 18191 044c 94000000 		.4byte	.LFE284
 18192 0450 00000000 		.4byte	.LFB285
 18193 0454 34000000 		.4byte	.LFE285
 18194 0458 00000000 		.4byte	.LFB286
 18195 045c 50000000 		.4byte	.LFE286
 18196 0460 00000000 		.4byte	.LFB287
 18197 0464 34000000 		.4byte	.LFE287
 18198 0468 00000000 		.4byte	.LFB289
 18199 046c 9C000000 		.4byte	.LFE289
 18200 0470 00000000 		.4byte	.LFB288
 18201 0474 30000000 		.4byte	.LFE288
 18202 0478 00000000 		.4byte	.LFB290
 18203 047c B0000000 		.4byte	.LFE290
 18204 0480 00000000 		.4byte	.LFB291
 18205 0484 34000000 		.4byte	.LFE291
 18206 0488 00000000 		.4byte	.LFB292
 18207 048c 60000000 		.4byte	.LFE292
 18208 0490 00000000 		.4byte	.LFB293
 18209 0494 38000000 		.4byte	.LFE293
 18210 0498 00000000 		.4byte	.LFB295
 18211 049c B0000000 		.4byte	.LFE295
 18212 04a0 00000000 		.4byte	.LFB294
 18213 04a4 34000000 		.4byte	.LFE294
 18214 04a8 00000000 		.4byte	.LFB297
 18215 04ac 94000000 		.4byte	.LFE297
 18216 04b0 00000000 		.4byte	.LFB296
 18217 04b4 34000000 		.4byte	.LFE296
 18218 04b8 00000000 		.4byte	0
 18219 04bc 00000000 		.4byte	0
 18220              		.section	.debug_line,"",%progbits
 18221              	.Ldebug_line0:
 18222 0000 D30E0000 		.section	.debug_str,"MS",%progbits,1
 18222      0200B004 
 18222      00000201 
 18222      FB0E0D00 
 18222      01010101 
 18223              	.LASF343:
ARM GAS  /var/folders/d2/nstgp4h54kz7g1l847x_b8wc0000gn/T//ccW13lHv.s 			page 322


 18224 0000 70617261 		.ascii	"parameter_namespace_declare\000"
 18224      6D657465 
 18224      725F6E61 
 18224      6D657370 
 18224      6163655F 
 18225              	.LASF144:
 18226 001c 64656669 		.ascii	"defined\000"
 18226      6E656400 
 18227              	.LASF188:
 18228 0024 705F7374 		.ascii	"p_stats\000"
 18228      61747300 
 18229              	.LASF5:
 18230 002c 73697A65 		.ascii	"size_t\000"
 18230      5F7400
 18231              	.LASF348:
 18232 0033 6E735F69 		.ascii	"ns_id_len\000"
 18232      645F6C65 
 18232      6E00
 18233              	.LASF125:
 18234 003d 5F5F6C6F 		.ascii	"__locale_t\000"
 18234      63616C65 
 18234      5F7400
 18235              	.LASF143:
 18236 0048 6368616E 		.ascii	"changed\000"
 18236      67656400 
 18237              	.LASF24:
 18238 0050 5F5F7661 		.ascii	"__value\000"
 18238      6C756500 
 18239              	.LASF279:
 18240 0058 63665F6F 		.ascii	"cf_off_name\000"
 18240      66665F6E 
 18240      616D6500 
 18241              	.LASF165:
 18242 0064 73797374 		.ascii	"systime_t\000"
 18242      696D655F 
 18242      7400
 18243              	.LASF296:
 18244 006e 70617261 		.ascii	"parameter_string_declare_with_default\000"
 18244      6D657465 
 18244      725F7374 
 18244      72696E67 
 18244      5F646563 
 18245              	.LASF93:
 18246 0094 5F5F7366 		.ascii	"__sf\000"
 18246      00
 18247              	.LASF268:
 18248 0099 63685F69 		.ascii	"ch_identifier\000"
 18248      64656E74 
 18248      69666965 
 18248      7200
 18249              	.LASF171:
 18250 00a7 705F6374 		.ascii	"p_ctx\000"
 18250      7800
 18251              	.LASF60:
 18252 00ad 5F726561 		.ascii	"_read\000"
 18252      6400
 18253              	.LASF160:
ARM GAS  /var/folders/d2/nstgp4h54kz7g1l847x_b8wc0000gn/T//ccW13lHv.s 			page 323


 18254 00b3 74707269 		.ascii	"tprio_t\000"
 18254      6F5F7400 
 18255              	.LASF363:
 18256 00bb 474E5520 		.ascii	"GNU C11 7.2.1 20170904 (release) [ARM/embedded-7-br"
 18256      43313120 
 18256      372E322E 
 18256      31203230 
 18256      31373039 
 18257 00ee 616E6368 		.ascii	"anch revision 255204] -mcpu=cortex-m4 -mfloat-abi=h"
 18257      20726576 
 18257      6973696F 
 18257      6E203235 
 18257      35323034 
 18258 0121 61726420 		.ascii	"ard -mfpu=fpv4-sp-d16 -mno-thumb-interwork -mthumb "
 18258      2D6D6670 
 18258      753D6670 
 18258      76342D73 
 18258      702D6431 
 18259 0154 2D676764 		.ascii	"-ggdb -O2 -fomit-frame-pointer -falign-functions=16"
 18259      62202D4F 
 18259      32202D66 
 18259      6F6D6974 
 18259      2D667261 
 18260 0187 202D666E 		.ascii	" -fno-strict-aliasing -fstack-protector-all -ffunct"
 18260      6F2D7374 
 18260      72696374 
 18260      2D616C69 
 18260      6173696E 
 18261 01ba 696F6E2D 		.ascii	"ion-sections -fdata-sections -fno-common -fsingle-p"
 18261      73656374 
 18261      696F6E73 
 18261      202D6664 
 18261      6174612D 
 18262 01ed 72656369 		.ascii	"recision-constant\000"
 18262      73696F6E 
 18262      2D636F6E 
 18262      7374616E 
 18262      7400
 18263              	.LASF287:
 18264 01ff 63685F64 		.ascii	"ch_debug\000"
 18264      65627567 
 18264      00
 18265              	.LASF182:
 18266 0208 705F6D73 		.ascii	"p_msgqueue\000"
 18266      67717565 
 18266      756500
 18267              	.LASF61:
 18268 0213 5F777269 		.ascii	"_write\000"
 18268      746500
 18269              	.LASF198:
 18270 021a 725F6374 		.ascii	"r_ctx\000"
 18270      7800
 18271              	.LASF130:
 18272 0220 696E7433 		.ascii	"int32_t\000"
 18272      325F7400 
 18273              	.LASF104:
 18274 0228 5F617363 		.ascii	"_asctime_buf\000"
ARM GAS  /var/folders/d2/nstgp4h54kz7g1l847x_b8wc0000gn/T//ccW13lHv.s 			page 324


 18274      74696D65 
 18274      5F627566 
 18274      00
 18275              	.LASF87:
 18276 0235 5F637674 		.ascii	"_cvtlen\000"
 18276      6C656E00 
 18277              	.LASF276:
 18278 023d 63665F6F 		.ascii	"cf_off_ctx\000"
 18278      66665F63 
 18278      747800
 18279              	.LASF202:
 18280 0248 76746675 		.ascii	"vtfunc_t\000"
 18280      6E635F74 
 18280      00
 18281              	.LASF292:
 18282 0251 5F5F6675 		.ascii	"__func__\000"
 18282      6E635F5F 
 18282      00
 18283              	.LASF211:
 18284 025a 63685F76 		.ascii	"ch_virtual_timers_list\000"
 18284      69727475 
 18284      616C5F74 
 18284      696D6572 
 18284      735F6C69 
 18285              	.LASF327:
 18286 0271 70617261 		.ascii	"parameter_scalar_declare_with_default\000"
 18286      6D657465 
 18286      725F7363 
 18286      616C6172 
 18286      5F646563 
 18287              	.LASF123:
 18288 0297 5F756E75 		.ascii	"_unused\000"
 18288      73656400 
 18289              	.LASF34:
 18290 029f 5F5F746D 		.ascii	"__tm\000"
 18290      00
 18291              	.LASF119:
 18292 02a4 5F776373 		.ascii	"_wcsrtombs_state\000"
 18292      72746F6D 
 18292      62735F73 
 18292      74617465 
 18292      00
 18293              	.LASF65:
 18294 02b5 5F6E6275 		.ascii	"_nbuf\000"
 18294      6600
 18295              	.LASF35:
 18296 02bb 5F5F746D 		.ascii	"__tm_sec\000"
 18296      5F736563 
 18296      00
 18297              	.LASF346:
 18298 02c4 6765745F 		.ascii	"get_subnamespace\000"
 18298      7375626E 
 18298      616D6573 
 18298      70616365 
 18298      00
 18299              	.LASF112:
 18300 02d5 5F6C3634 		.ascii	"_l64a_buf\000"
ARM GAS  /var/folders/d2/nstgp4h54kz7g1l847x_b8wc0000gn/T//ccW13lHv.s 			page 325


 18300      615F6275 
 18300      6600
 18301              	.LASF328:
 18302 02df 70617261 		.ascii	"parameter_scalar_declare\000"
 18302      6D657465 
 18302      725F7363 
 18302      616C6172 
 18302      5F646563 
 18303              	.LASF309:
 18304 02f8 70617261 		.ascii	"parameter_vector_get\000"
 18304      6D657465 
 18304      725F7665 
 18304      63746F72 
 18304      5F676574 
 18305              	.LASF149:
 18306 030d 5F706172 		.ascii	"_param_val_vector_s\000"
 18306      616D5F76 
 18306      616C5F76 
 18306      6563746F 
 18306      725F7300 
 18307              	.LASF69:
 18308 0321 5F6C6F63 		.ascii	"_lock\000"
 18308      6B00
 18309              	.LASF217:
 18310 0327 6C6F636B 		.ascii	"lock_cnt\000"
 18310      5F636E74 
 18310      00
 18311              	.LASF316:
 18312 0330 70617261 		.ascii	"parameter_boolean_declare_with_default\000"
 18312      6D657465 
 18312      725F626F 
 18312      6F6C6561 
 18312      6E5F6465 
 18313              	.LASF272:
 18314 0357 63685F70 		.ascii	"ch_ptrsize\000"
 18314      74727369 
 18314      7A6500
 18315              	.LASF145:
 18316 0362 74797065 		.ascii	"type\000"
 18316      00
 18317              	.LASF100:
 18318 0367 5F6D756C 		.ascii	"_mult\000"
 18318      7400
 18319              	.LASF233:
 18320 036d 73655F74 		.ascii	"se_tp\000"
 18320      7000
 18321              	.LASF247:
 18322 0373 74696D65 		.ascii	"time_measurement_t\000"
 18322      5F6D6561 
 18322      73757265 
 18322      6D656E74 
 18322      5F7400
 18323              	.LASF337:
 18324 0386 5F706172 		.ascii	"_parameter_find_w_id_len\000"
 18324      616D6574 
 18324      65725F66 
 18324      696E645F 
ARM GAS  /var/folders/d2/nstgp4h54kz7g1l847x_b8wc0000gn/T//ccW13lHv.s 			page 326


 18324      775F6964 
 18325              	.LASF357:
 18326 039f 5F646267 		.ascii	"_dbg_check_unlock\000"
 18326      5F636865 
 18326      636B5F75 
 18326      6E6C6F63 
 18326      6B00
 18327              	.LASF367:
 18328 03b1 5F5F6275 		.ascii	"__builtin_memcpy\000"
 18328      696C7469 
 18328      6E5F6D65 
 18328      6D637079 
 18328      00
 18329              	.LASF265:
 18330 03c2 6D5F6F77 		.ascii	"m_owner\000"
 18330      6E657200 
 18331              	.LASF209:
 18332 03ca 76745F70 		.ascii	"vt_par\000"
 18332      617200
 18333              	.LASF177:
 18334 03d1 705F666C 		.ascii	"p_flags\000"
 18334      61677300 
 18335              	.LASF21:
 18336 03d9 5F5F7763 		.ascii	"__wch\000"
 18336      6800
 18337              	.LASF254:
 18338 03df 65786974 		.ascii	"exitcode\000"
 18338      636F6465 
 18338      00
 18339              	.LASF6:
 18340 03e8 5F5F7569 		.ascii	"__uint8_t\000"
 18340      6E74385F 
 18340      7400
 18341              	.LASF259:
 18342 03f2 65776D61 		.ascii	"ewmask\000"
 18342      736B00
 18343              	.LASF57:
 18344 03f9 5F66696C 		.ascii	"_file\000"
 18344      6500
 18345              	.LASF274:
 18346 03ff 63685F74 		.ascii	"ch_threadsize\000"
 18346      68726561 
 18346      6473697A 
 18346      6500
 18347              	.LASF44:
 18348 040d 5F6F6E5F 		.ascii	"_on_exit_args\000"
 18348      65786974 
 18348      5F617267 
 18348      7300
 18349              	.LASF172:
 18350 041b 705F6E65 		.ascii	"p_newer\000"
 18350      77657200 
 18351              	.LASF115:
 18352 0423 5F6D6272 		.ascii	"_mbrlen_state\000"
 18352      6C656E5F 
 18352      73746174 
 18352      6500
ARM GAS  /var/folders/d2/nstgp4h54kz7g1l847x_b8wc0000gn/T//ccW13lHv.s 			page 327


 18353              	.LASF12:
 18354 0431 6C6F6E67 		.ascii	"long int\000"
 18354      20696E74 
 18354      00
 18355              	.LASF168:
 18356 043a 705F6E65 		.ascii	"p_next\000"
 18356      787400
 18357              	.LASF351:
 18358 0441 706F7274 		.ascii	"port_unlock\000"
 18358      5F756E6C 
 18358      6F636B00 
 18359              	.LASF126:
 18360 044d 5F696D70 		.ascii	"_impure_ptr\000"
 18360      7572655F 
 18360      70747200 
 18361              	.LASF84:
 18362 0459 5F726573 		.ascii	"_result_k\000"
 18362      756C745F 
 18362      6B00
 18363              	.LASF281:
 18364 0463 63665F6F 		.ascii	"cf_off_state\000"
 18364      66665F73 
 18364      74617465 
 18364      00
 18365              	.LASF54:
 18366 0470 5F73697A 		.ascii	"_size\000"
 18366      6500
 18367              	.LASF169:
 18368 0476 705F7072 		.ascii	"p_prev\000"
 18368      657600
 18369              	.LASF105:
 18370 047d 5F6C6F63 		.ascii	"_localtime_buf\000"
 18370      616C7469 
 18370      6D655F62 
 18370      756600
 18371              	.LASF293:
 18372 048c 70617261 		.ascii	"parameter_string_read\000"
 18372      6D657465 
 18372      725F7374 
 18372      72696E67 
 18372      5F726561 
 18373              	.LASF157:
 18374 04a2 74737461 		.ascii	"tstate_t\000"
 18374      74655F74 
 18374      00
 18375              	.LASF155:
 18376 04ab 72747469 		.ascii	"rttime_t\000"
 18376      6D655F74 
 18376      00
 18377              	.LASF192:
 18378 04b4 74687265 		.ascii	"threads_queue_t\000"
 18378      6164735F 
 18378      71756575 
 18378      655F7400 
 18379              	.LASF185:
 18380 04c4 705F6D74 		.ascii	"p_mtxlist\000"
 18380      786C6973 
ARM GAS  /var/folders/d2/nstgp4h54kz7g1l847x_b8wc0000gn/T//ccW13lHv.s 			page 328


 18380      7400
 18381              	.LASF228:
 18382 04ce 72656761 		.ascii	"regarm_t\000"
 18382      726D5F74 
 18382      00
 18383              	.LASF302:
 18384 04d7 70617261 		.ascii	"parameter_variable_vector_max_dim\000"
 18384      6D657465 
 18384      725F7661 
 18384      72696162 
 18384      6C655F76 
 18385              	.LASF39:
 18386 04f9 5F5F746D 		.ascii	"__tm_mon\000"
 18386      5F6D6F6E 
 18386      00
 18387              	.LASF358:
 18388 0502 5F737461 		.ascii	"_stats_stop_measure_crit_thd\000"
 18388      74735F73 
 18388      746F705F 
 18388      6D656173 
 18388      7572655F 
 18389              	.LASF301:
 18390 051f 70617261 		.ascii	"parameter_variable_vector_get\000"
 18390      6D657465 
 18390      725F7661 
 18390      72696162 
 18390      6C655F76 
 18391              	.LASF102:
 18392 053d 5F756E75 		.ascii	"_unused_rand\000"
 18392      7365645F 
 18392      72616E64 
 18392      00
 18393              	.LASF4:
 18394 054a 7369676E 		.ascii	"signed char\000"
 18394      65642063 
 18394      68617200 
 18395              	.LASF179:
 18396 0556 705F7072 		.ascii	"p_preempt\000"
 18396      65656D70 
 18396      7400
 18397              	.LASF128:
 18398 0560 75696E74 		.ascii	"uint8_t\000"
 18398      385F7400 
 18399              	.LASF341:
 18400 0568 5F706172 		.ascii	"_parameter_namespace_find_w_id_len\000"
 18400      616D6574 
 18400      65725F6E 
 18400      616D6573 
 18400      70616365 
 18401              	.LASF201:
 18402 058b 725F6375 		.ascii	"r_current\000"
 18402      7272656E 
 18402      7400
 18403              	.LASF162:
 18404 0595 6576656E 		.ascii	"eventmask_t\000"
 18404      746D6173 
 18404      6B5F7400 
ARM GAS  /var/folders/d2/nstgp4h54kz7g1l847x_b8wc0000gn/T//ccW13lHv.s 			page 329


 18405              	.LASF230:
 18406 05a1 636F6E74 		.ascii	"context\000"
 18406      65787400 
 18407              	.LASF256:
 18408 05a9 77747472 		.ascii	"wttrp\000"
 18408      7000
 18409              	.LASF7:
 18410 05af 756E7369 		.ascii	"unsigned char\000"
 18410      676E6564 
 18410      20636861 
 18410      7200
 18411              	.LASF303:
 18412 05bd 70617261 		.ascii	"parameter_variable_vector_declare_with_default\000"
 18412      6D657465 
 18412      725F7661 
 18412      72696162 
 18412      6C655F76 
 18413              	.LASF334:
 18414 05ec 70617261 		.ascii	"parameter_namespace_contains_changed\000"
 18414      6D657465 
 18414      725F6E61 
 18414      6D657370 
 18414      6163655F 
 18415              	.LASF215:
 18416 0611 70616E69 		.ascii	"panic_msg\000"
 18416      635F6D73 
 18416      6700
 18417              	.LASF79:
 18418 061b 5F756E73 		.ascii	"_unspecified_locale_info\000"
 18418      70656369 
 18418      66696564 
 18418      5F6C6F63 
 18418      616C655F 
 18419              	.LASF72:
 18420 0634 5F726565 		.ascii	"_reent\000"
 18420      6E7400
 18421              	.LASF199:
 18422 063b 725F6E65 		.ascii	"r_newer\000"
 18422      77657200 
 18423              	.LASF127:
 18424 0643 5F676C6F 		.ascii	"_global_impure_ptr\000"
 18424      62616C5F 
 18424      696D7075 
 18424      72655F70 
 18424      747200
 18425              	.LASF304:
 18426 0656 696E6974 		.ascii	"init_size\000"
 18426      5F73697A 
 18426      6500
 18427              	.LASF213:
 18428 0660 73797374 		.ascii	"system_debug_t\000"
 18428      656D5F64 
 18428      65627567 
 18428      5F7400
 18429              	.LASF311:
 18430 066f 70617261 		.ascii	"parameter_vector_declare_with_default\000"
 18430      6D657465 
ARM GAS  /var/folders/d2/nstgp4h54kz7g1l847x_b8wc0000gn/T//ccW13lHv.s 			page 330


 18430      725F7665 
 18430      63746F72 
 18430      5F646563 
 18431              	.LASF326:
 18432 0695 70617261 		.ascii	"parameter_scalar_get\000"
 18432      6D657465 
 18432      725F7363 
 18432      616C6172 
 18432      5F676574 
 18433              	.LASF291:
 18434 06aa 6F75745F 		.ascii	"out_size\000"
 18434      73697A65 
 18434      00
 18435              	.LASF153:
 18436 06b3 5F426F6F 		.ascii	"_Bool\000"
 18436      6C00
 18437              	.LASF347:
 18438 06b9 6E735F69 		.ascii	"ns_id\000"
 18438      6400
 18439              	.LASF146:
 18440 06bf 76616C75 		.ascii	"value\000"
 18440      6500
 18441              	.LASF27:
 18442 06c5 63686172 		.ascii	"char\000"
 18442      00
 18443              	.LASF267:
 18444 06ca 6D5F636E 		.ascii	"m_cnt\000"
 18444      7400
 18445              	.LASF51:
 18446 06d0 5F666E73 		.ascii	"_fns\000"
 18446      00
 18447              	.LASF63:
 18448 06d5 5F636C6F 		.ascii	"_close\000"
 18448      736500
 18449              	.LASF170:
 18450 06dc 705F7072 		.ascii	"p_prio\000"
 18450      696F00
 18451              	.LASF9:
 18452 06e3 5F5F7569 		.ascii	"__uint16_t\000"
 18452      6E743136 
 18452      5F7400
 18453              	.LASF315:
 18454 06ee 70617261 		.ascii	"parameter_boolean_set\000"
 18454      6D657465 
 18454      725F626F 
 18454      6F6C6561 
 18454      6E5F7365 
 18455              	.LASF255:
 18456 0704 77746F62 		.ascii	"wtobjp\000"
 18456      6A7000
 18457              	.LASF285:
 18458 070b 63665F6F 		.ascii	"cf_off_time\000"
 18458      66665F74 
 18458      696D6500 
 18459              	.LASF249:
 18460 0717 6E5F6374 		.ascii	"n_ctxswc\000"
 18460      78737763 
ARM GAS  /var/folders/d2/nstgp4h54kz7g1l847x_b8wc0000gn/T//ccW13lHv.s 			page 331


 18460      00
 18461              	.LASF74:
 18462 0720 5F737464 		.ascii	"_stdin\000"
 18462      696E00
 18463              	.LASF277:
 18464 0727 63665F6F 		.ascii	"cf_off_newer\000"
 18464      66665F6E 
 18464      65776572 
 18464      00
 18465              	.LASF229:
 18466 0734 73746B61 		.ascii	"stkalign_t\000"
 18466      6C69676E 
 18466      5F7400
 18467              	.LASF275:
 18468 073f 63665F6F 		.ascii	"cf_off_prio\000"
 18468      66665F70 
 18468      72696F00 
 18469              	.LASF138:
 18470 074b 73756273 		.ascii	"subspaces\000"
 18470      70616365 
 18470      7300
 18471              	.LASF294:
 18472 0755 70617261 		.ascii	"parameter_string_get\000"
 18472      6D657465 
 18472      725F7374 
 18472      72696E67 
 18472      5F676574 
 18473              	.LASF163:
 18474 076a 636E745F 		.ascii	"cnt_t\000"
 18474      7400
 18475              	.LASF218:
 18476 0770 74726163 		.ascii	"trace_buffer\000"
 18476      655F6275 
 18476      66666572 
 18476      00
 18477              	.LASF208:
 18478 077d 76745F66 		.ascii	"vt_func\000"
 18478      756E6300 
 18479              	.LASF340:
 18480 0785 70617261 		.ascii	"parameter_namespace_find\000"
 18480      6D657465 
 18480      725F6E61 
 18480      6D657370 
 18480      6163655F 
 18481              	.LASF59:
 18482 079e 5F636F6F 		.ascii	"_cookie\000"
 18482      6B696500 
 18483              	.LASF240:
 18484 07a6 63685F74 		.ascii	"ch_trace_buffer_t\000"
 18484      72616365 
 18484      5F627566 
 18484      6665725F 
 18484      7400
 18485              	.LASF184:
 18486 07b8 705F6570 		.ascii	"p_epending\000"
 18486      656E6469 
 18486      6E6700
ARM GAS  /var/folders/d2/nstgp4h54kz7g1l847x_b8wc0000gn/T//ccW13lHv.s 			page 332


 18487              	.LASF258:
 18488 07c3 77746D74 		.ascii	"wtmtxp\000"
 18488      787000
 18489              	.LASF32:
 18490 07ca 5F776473 		.ascii	"_wds\000"
 18490      00
 18491              	.LASF195:
 18492 07cf 63685F72 		.ascii	"ch_ready_list\000"
 18492      65616479 
 18492      5F6C6973 
 18492      7400
 18493              	.LASF124:
 18494 07dd 5F5F6C6F 		.ascii	"__lock\000"
 18494      636B00
 18495              	.LASF91:
 18496 07e4 5F736967 		.ascii	"_sig_func\000"
 18496      5F66756E 
 18496      6300
 18497              	.LASF67:
 18498 07ee 5F6F6666 		.ascii	"_offset\000"
 18498      73657400 
 18499              	.LASF88:
 18500 07f6 5F637674 		.ascii	"_cvtbuf\000"
 18500      62756600 
 18501              	.LASF216:
 18502 07fe 6973725F 		.ascii	"isr_cnt\000"
 18502      636E7400 
 18503              	.LASF246:
 18504 0806 63756D75 		.ascii	"cumulative\000"
 18504      6C617469 
 18504      766500
 18505              	.LASF313:
 18506 0811 70617261 		.ascii	"parameter_boolean_read\000"
 18506      6D657465 
 18506      725F626F 
 18506      6F6C6561 
 18506      6E5F7265 
 18507              	.LASF251:
 18508 0828 6D5F6372 		.ascii	"m_crit_isr\000"
 18508      69745F69 
 18508      737200
 18509              	.LASF151:
 18510 0833 5F706172 		.ascii	"_param_val_matrix_s\000"
 18510      616D5F76 
 18510      616C5F6D 
 18510      61747269 
 18510      785F7300 
 18511              	.LASF235:
 18512 0847 73655F73 		.ascii	"se_state\000"
 18512      74617465 
 18512      00
 18513              	.LASF250:
 18514 0850 6D5F6372 		.ascii	"m_crit_thd\000"
 18514      69745F74 
 18514      686400
 18515              	.LASF15:
 18516 085b 5F5F7569 		.ascii	"__uint64_t\000"
ARM GAS  /var/folders/d2/nstgp4h54kz7g1l847x_b8wc0000gn/T//ccW13lHv.s 			page 333


 18516      6E743634 
 18516      5F7400
 18517              	.LASF344:
 18518 0866 70617261 		.ascii	"param_id_len\000"
 18518      6D5F6964 
 18518      5F6C656E 
 18518      00
 18519              	.LASF353:
 18520 0873 63685379 		.ascii	"chSysUnlock\000"
 18520      73556E6C 
 18520      6F636B00 
 18521              	.LASF85:
 18522 087f 5F703573 		.ascii	"_p5s\000"
 18522      00
 18523              	.LASF14:
 18524 0884 6C6F6E67 		.ascii	"long unsigned int\000"
 18524      20756E73 
 18524      69676E65 
 18524      6420696E 
 18524      7400
 18525              	.LASF269:
 18526 0896 63685F7A 		.ascii	"ch_zero\000"
 18526      65726F00 
 18527              	.LASF350:
 18528 089e 63685379 		.ascii	"chSysLock\000"
 18528      734C6F63 
 18528      6B00
 18529              	.LASF331:
 18530 08a8 5F706172 		.ascii	"_parameter_changed_set\000"
 18530      616D6574 
 18530      65725F63 
 18530      68616E67 
 18530      65645F73 
 18531              	.LASF297:
 18532 08bf 6275665F 		.ascii	"buf_size\000"
 18532      73697A65 
 18532      00
 18533              	.LASF55:
 18534 08c8 5F5F7346 		.ascii	"__sFILE\000"
 18534      494C4500 
 18535              	.LASF81:
 18536 08d0 5F5F7364 		.ascii	"__sdidinit\000"
 18536      6964696E 
 18536      697400
 18537              	.LASF71:
 18538 08db 5F666C61 		.ascii	"_flags2\000"
 18538      67733200 
 18539              	.LASF227:
 18540 08e3 53797374 		.ascii	"SystemCoreClock\000"
 18540      656D436F 
 18540      7265436C 
 18540      6F636B00 
 18541              	.LASF260:
 18542 08f3 63685F73 		.ascii	"ch_semaphore\000"
 18542      656D6170 
 18542      686F7265 
 18542      00
ARM GAS  /var/folders/d2/nstgp4h54kz7g1l847x_b8wc0000gn/T//ccW13lHv.s 			page 334


 18543              	.LASF167:
 18544 0900 63685F74 		.ascii	"ch_thread\000"
 18544      68726561 
 18544      6400
 18545              	.LASF318:
 18546 090a 70617261 		.ascii	"parameter_boolean_declare\000"
 18546      6D657465 
 18546      725F626F 
 18546      6F6C6561 
 18546      6E5F6465 
 18547              	.LASF210:
 18548 0924 76697274 		.ascii	"virtual_timers_list_t\000"
 18548      75616C5F 
 18548      74696D65 
 18548      72735F6C 
 18548      6973745F 
 18549              	.LASF150:
 18550 093a 6275665F 		.ascii	"buf_dim\000"
 18550      64696D00 
 18551              	.LASF73:
 18552 0942 5F657272 		.ascii	"_errno\000"
 18552      6E6F00
 18553              	.LASF345:
 18554 0949 6765745F 		.ascii	"get_parameter\000"
 18554      70617261 
 18554      6D657465 
 18554      7200
 18555              	.LASF203:
 18556 0957 76697274 		.ascii	"virtual_timer_t\000"
 18556      75616C5F 
 18556      74696D65 
 18556      725F7400 
 18557              	.LASF194:
 18558 0967 72656164 		.ascii	"ready_list_t\000"
 18558      795F6C69 
 18558      73745F74 
 18558      00
 18559              	.LASF140:
 18560 0974 70617261 		.ascii	"parameter_list\000"
 18560      6D657465 
 18560      725F6C69 
 18560      737400
 18561              	.LASF113:
 18562 0983 5F736967 		.ascii	"_signal_buf\000"
 18562      6E616C5F 
 18562      62756600 
 18563              	.LASF164:
 18564 098f 75636E74 		.ascii	"ucnt_t\000"
 18564      5F7400
 18565              	.LASF364:
 18566 0996 2E2E2F65 		.ascii	"../e-puck2_main-processor/src/parameter/parameter.c"
 18566      2D707563 
 18566      6B325F6D 
 18566      61696E2D 
 18566      70726F63 
 18567 09c9 00       		.ascii	"\000"
 18568              	.LASF33:
ARM GAS  /var/folders/d2/nstgp4h54kz7g1l847x_b8wc0000gn/T//ccW13lHv.s 			page 335


 18569 09ca 5F426967 		.ascii	"_Bigint\000"
 18569      696E7400 
 18570              	.LASF191:
 18571 09d2 63685F74 		.ascii	"ch_threads_list\000"
 18571      68726561 
 18571      64735F6C 
 18571      69737400 
 18572              	.LASF236:
 18573 09e2 63685F73 		.ascii	"ch_swc_event_t\000"
 18573      77635F65 
 18573      76656E74 
 18573      5F7400
 18574              	.LASF30:
 18575 09f1 5F6D6178 		.ascii	"_maxwds\000"
 18575      77647300 
 18576              	.LASF248:
 18577 09f9 6E5F6972 		.ascii	"n_irq\000"
 18577      7100
 18578              	.LASF82:
 18579 09ff 5F5F636C 		.ascii	"__cleanup\000"
 18579      65616E75 
 18579      7000
 18580              	.LASF90:
 18581 0a09 5F617465 		.ascii	"_atexit0\000"
 18581      78697430 
 18581      00
 18582              	.LASF307:
 18583 0a12 70617261 		.ascii	"parameter_vector_set\000"
 18583      6D657465 
 18583      725F7665 
 18583      63746F72 
 18583      5F736574 
 18584              	.LASF284:
 18585 0a27 63665F6F 		.ascii	"cf_off_preempt\000"
 18585      66665F70 
 18585      7265656D 
 18585      707400
 18586              	.LASF325:
 18587 0a36 70617261 		.ascii	"parameter_scalar_read\000"
 18587      6D657465 
 18587      725F7363 
 18587      616C6172 
 18587      5F726561 
 18588              	.LASF13:
 18589 0a4c 5F5F7569 		.ascii	"__uint32_t\000"
 18589      6E743332 
 18589      5F7400
 18590              	.LASF78:
 18591 0a57 5F656D65 		.ascii	"_emergency\000"
 18591      7267656E 
 18591      637900
 18592              	.LASF368:
 18593 0a62 5F5F7374 		.ascii	"__stack_chk_fail\000"
 18593      61636B5F 
 18593      63686B5F 
 18593      6661696C 
 18593      00
ARM GAS  /var/folders/d2/nstgp4h54kz7g1l847x_b8wc0000gn/T//ccW13lHv.s 			page 336


 18594              	.LASF2:
 18595 0a73 6C6F6E67 		.ascii	"long long int\000"
 18595      206C6F6E 
 18595      6720696E 
 18595      7400
 18596              	.LASF271:
 18597 0a81 63685F76 		.ascii	"ch_version\000"
 18597      65727369 
 18597      6F6E00
 18598              	.LASF264:
 18599 0a8c 6D5F7175 		.ascii	"m_queue\000"
 18599      65756500 
 18600              	.LASF96:
 18601 0a94 5F6E696F 		.ascii	"_niobs\000"
 18601      627300
 18602              	.LASF239:
 18603 0a9b 74625F62 		.ascii	"tb_buffer\000"
 18603      75666665 
 18603      7200
 18604              	.LASF205:
 18605 0aa5 76745F6E 		.ascii	"vt_next\000"
 18605      65787400 
 18606              	.LASF92:
 18607 0aad 5F5F7367 		.ascii	"__sglue\000"
 18607      6C756500 
 18608              	.LASF122:
 18609 0ab5 5F6E6D61 		.ascii	"_nmalloc\000"
 18609      6C6C6F63 
 18609      00
 18610              	.LASF206:
 18611 0abe 76745F70 		.ascii	"vt_prev\000"
 18611      72657600 
 18612              	.LASF273:
 18613 0ac6 63685F74 		.ascii	"ch_timesize\000"
 18613      696D6573 
 18613      697A6500 
 18614              	.LASF106:
 18615 0ad2 5F67616D 		.ascii	"_gamma_signgam\000"
 18615      6D615F73 
 18615      69676E67 
 18615      616D00
 18616              	.LASF237:
 18617 0ae1 74625F73 		.ascii	"tb_size\000"
 18617      697A6500 
 18618              	.LASF339:
 18619 0ae9 69645F65 		.ascii	"id_elem_len\000"
 18619      6C656D5F 
 18619      6C656E00 
 18620              	.LASF86:
 18621 0af5 5F667265 		.ascii	"_freelist\000"
 18621      656C6973 
 18621      7400
 18622              	.LASF137:
 18623 0aff 70617265 		.ascii	"parent\000"
 18623      6E7400
 18624              	.LASF97:
 18625 0b06 5F696F62 		.ascii	"_iobs\000"
ARM GAS  /var/folders/d2/nstgp4h54kz7g1l847x_b8wc0000gn/T//ccW13lHv.s 			page 337


 18625      7300
 18626              	.LASF95:
 18627 0b0c 5F676C75 		.ascii	"_glue\000"
 18627      6500
 18628              	.LASF226:
 18629 0b12 49544D5F 		.ascii	"ITM_RxBuffer\000"
 18629      52784275 
 18629      66666572 
 18629      00
 18630              	.LASF31:
 18631 0b1f 5F736967 		.ascii	"_sign\000"
 18631      6E00
 18632              	.LASF0:
 18633 0b25 666C6F61 		.ascii	"float\000"
 18633      7400
 18634              	.LASF289:
 18635 0b2b 70617261 		.ascii	"parameter_string_set_w_len\000"
 18635      6D657465 
 18635      725F7374 
 18635      72696E67 
 18635      5F736574 
 18636              	.LASF181:
 18637 0b46 705F7761 		.ascii	"p_waiting\000"
 18637      6974696E 
 18637      6700
 18638              	.LASF234:
 18639 0b50 73655F77 		.ascii	"se_wtobjp\000"
 18639      746F626A 
 18639      7000
 18640              	.LASF225:
 18641 0b5a 69646C65 		.ascii	"idle_thread_wa\000"
 18641      5F746872 
 18641      6561645F 
 18641      776100
 18642              	.LASF1:
 18643 0b69 756E7369 		.ascii	"unsigned int\000"
 18643      676E6564 
 18643      20696E74 
 18643      00
 18644              	.LASF154:
 18645 0b76 7274636E 		.ascii	"rtcnt_t\000"
 18645      745F7400 
 18646              	.LASF187:
 18647 0b7e 705F6D70 		.ascii	"p_mpool\000"
 18647      6F6F6C00 
 18648              	.LASF120:
 18649 0b86 5F685F65 		.ascii	"_h_errno\000"
 18649      72726E6F 
 18649      00
 18650              	.LASF308:
 18651 0b8f 70617261 		.ascii	"parameter_vector_read\000"
 18651      6D657465 
 18651      725F7665 
 18651      63746F72 
 18651      5F726561 
 18652              	.LASF178:
 18653 0ba5 705F7265 		.ascii	"p_refs\000"
ARM GAS  /var/folders/d2/nstgp4h54kz7g1l847x_b8wc0000gn/T//ccW13lHv.s 			page 338


 18653      667300
 18654              	.LASF118:
 18655 0bac 5F776372 		.ascii	"_wcrtomb_state\000"
 18655      746F6D62 
 18655      5F737461 
 18655      746500
 18656              	.LASF38:
 18657 0bbb 5F5F746D 		.ascii	"__tm_mday\000"
 18657      5F6D6461 
 18657      7900
 18658              	.LASF310:
 18659 0bc5 70617261 		.ascii	"parameter_vector_dim\000"
 18659      6D657465 
 18659      725F7665 
 18659      63746F72 
 18659      5F64696D 
 18660              	.LASF252:
 18661 0bda 6B65726E 		.ascii	"kernel_stats_t\000"
 18661      656C5F73 
 18661      74617473 
 18661      5F7400
 18662              	.LASF89:
 18663 0be9 5F6E6577 		.ascii	"_new\000"
 18663      00
 18664              	.LASF64:
 18665 0bee 5F756275 		.ascii	"_ubuf\000"
 18665      6600
 18666              	.LASF317:
 18667 0bf4 64656661 		.ascii	"default_val\000"
 18667      756C745F 
 18667      76616C00 
 18668              	.LASF76:
 18669 0c00 5F737464 		.ascii	"_stderr\000"
 18669      65727200 
 18670              	.LASF300:
 18671 0c08 70617261 		.ascii	"parameter_variable_vector_read\000"
 18671      6D657465 
 18671      725F7661 
 18671      72696162 
 18671      6C655F76 
 18672              	.LASF111:
 18673 0c27 5F776374 		.ascii	"_wctomb_state\000"
 18673      6F6D625F 
 18673      73746174 
 18673      6500
 18674              	.LASF70:
 18675 0c35 5F6D6273 		.ascii	"_mbstate\000"
 18675      74617465 
 18675      00
 18676              	.LASF107:
 18677 0c3e 5F72616E 		.ascii	"_rand_next\000"
 18677      645F6E65 
 18677      787400
 18678              	.LASF320:
 18679 0c49 70617261 		.ascii	"parameter_integer_read\000"
 18679      6D657465 
 18679      725F696E 
ARM GAS  /var/folders/d2/nstgp4h54kz7g1l847x_b8wc0000gn/T//ccW13lHv.s 			page 339


 18679      74656765 
 18679      725F7265 
 18680              	.LASF56:
 18681 0c60 5F666C61 		.ascii	"_flags\000"
 18681      677300
 18682              	.LASF241:
 18683 0c67 6F666673 		.ascii	"offset\000"
 18683      657400
 18684              	.LASF189:
 18685 0c6e 74687265 		.ascii	"thread_reference_t\000"
 18685      61645F72 
 18685      65666572 
 18685      656E6365 
 18685      5F7400
 18686              	.LASF49:
 18687 0c81 5F617465 		.ascii	"_atexit\000"
 18687      78697400 
 18688              	.LASF298:
 18689 0c89 64656661 		.ascii	"default_str\000"
 18689      756C745F 
 18689      73747200 
 18690              	.LASF180:
 18691 0c95 705F7469 		.ascii	"p_time\000"
 18691      6D6500
 18692              	.LASF283:
 18693 0c9c 63665F6F 		.ascii	"cf_off_refs\000"
 18693      66665F72 
 18693      65667300 
 18694              	.LASF23:
 18695 0ca8 5F5F636F 		.ascii	"__count\000"
 18695      756E7400 
 18696              	.LASF299:
 18697 0cb0 70617261 		.ascii	"parameter_variable_vector_set\000"
 18697      6D657465 
 18697      725F7661 
 18697      72696162 
 18697      6C655F76 
 18698              	.LASF41:
 18699 0cce 5F5F746D 		.ascii	"__tm_wday\000"
 18699      5F776461 
 18699      7900
 18700              	.LASF166:
 18701 0cd8 74687265 		.ascii	"thread_t\000"
 18701      61645F74 
 18701      00
 18702              	.LASF3:
 18703 0ce1 6C6F6E67 		.ascii	"long double\000"
 18703      20646F75 
 18703      626C6500 
 18704              	.LASF362:
 18705 0ced 7374726E 		.ascii	"strncmp\000"
 18705      636D7000 
 18706              	.LASF42:
 18707 0cf5 5F5F746D 		.ascii	"__tm_yday\000"
 18707      5F796461 
 18707      7900
 18708              	.LASF152:
ARM GAS  /var/folders/d2/nstgp4h54kz7g1l847x_b8wc0000gn/T//ccW13lHv.s 			page 340


 18709 0cff 76656374 		.ascii	"vect\000"
 18709      00
 18710              	.LASF186:
 18711 0d04 705F7265 		.ascii	"p_realprio\000"
 18711      616C7072 
 18711      696F00
 18712              	.LASF231:
 18713 0d0f 706F7274 		.ascii	"port_intctx\000"
 18713      5F696E74 
 18713      63747800 
 18714              	.LASF99:
 18715 0d1b 5F736565 		.ascii	"_seed\000"
 18715      6400
 18716              	.LASF62:
 18717 0d21 5F736565 		.ascii	"_seek\000"
 18717      6B00
 18718              	.LASF136:
 18719 0d27 6368616E 		.ascii	"changed_cnt\000"
 18719      6765645F 
 18719      636E7400 
 18720              	.LASF207:
 18721 0d33 76745F64 		.ascii	"vt_delta\000"
 18721      656C7461 
 18721      00
 18722              	.LASF19:
 18723 0d3c 5F66706F 		.ascii	"_fpos_t\000"
 18723      735F7400 
 18724              	.LASF22:
 18725 0d44 5F5F7763 		.ascii	"__wchb\000"
 18725      686200
 18726              	.LASF324:
 18727 0d4b 70617261 		.ascii	"parameter_scalar_set\000"
 18727      6D657465 
 18727      725F7363 
 18727      616C6172 
 18727      5F736574 
 18728              	.LASF204:
 18729 0d60 63685F76 		.ascii	"ch_virtual_timer\000"
 18729      69727475 
 18729      616C5F74 
 18729      696D6572 
 18729      00
 18730              	.LASF262:
 18731 0d71 735F636E 		.ascii	"s_cnt\000"
 18731      7400
 18732              	.LASF110:
 18733 0d77 5F6D6274 		.ascii	"_mbtowc_state\000"
 18733      6F77635F 
 18733      73746174 
 18733      6500
 18734              	.LASF224:
 18735 0d85 6B65726E 		.ascii	"kernel_stats\000"
 18735      656C5F73 
 18735      74617473 
 18735      00
 18736              	.LASF330:
 18737 0d92 6368616E 		.ascii	"changed_was_set\000"
ARM GAS  /var/folders/d2/nstgp4h54kz7g1l847x_b8wc0000gn/T//ccW13lHv.s 			page 341


 18737      6765645F 
 18737      7761735F 
 18737      73657400 
 18738              	.LASF16:
 18739 0da2 6C6F6E67 		.ascii	"long long unsigned int\000"
 18739      206C6F6E 
 18739      6720756E 
 18739      7369676E 
 18739      65642069 
 18740              	.LASF173:
 18741 0db9 705F6F6C 		.ascii	"p_older\000"
 18741      64657200 
 18742              	.LASF129:
 18743 0dc1 75696E74 		.ascii	"uint16_t\000"
 18743      31365F74 
 18743      00
 18744              	.LASF46:
 18745 0dca 5F64736F 		.ascii	"_dso_handle\000"
 18745      5F68616E 
 18745      646C6500 
 18746              	.LASF161:
 18747 0dd6 6D73675F 		.ascii	"msg_t\000"
 18747      7400
 18748              	.LASF193:
 18749 0ddc 63685F74 		.ascii	"ch_threads_queue\000"
 18749      68726561 
 18749      64735F71 
 18749      75657565 
 18749      00
 18750              	.LASF98:
 18751 0ded 5F72616E 		.ascii	"_rand48\000"
 18751      64343800 
 18752              	.LASF282:
 18753 0df5 63665F6F 		.ascii	"cf_off_flags\000"
 18753      66665F66 
 18753      6C616773 
 18753      00
 18754              	.LASF75:
 18755 0e02 5F737464 		.ascii	"_stdout\000"
 18755      6F757400 
 18756              	.LASF159:
 18757 0e0a 74736C69 		.ascii	"tslices_t\000"
 18757      6365735F 
 18757      7400
 18758              	.LASF312:
 18759 0e14 70617261 		.ascii	"parameter_vector_declare\000"
 18759      6D657465 
 18759      725F7665 
 18759      63746F72 
 18759      5F646563 
 18760              	.LASF66:
 18761 0e2d 5F626C6B 		.ascii	"_blksize\000"
 18761      73697A65 
 18761      00
 18762              	.LASF53:
 18763 0e36 5F626173 		.ascii	"_base\000"
 18763      6500
ARM GAS  /var/folders/d2/nstgp4h54kz7g1l847x_b8wc0000gn/T//ccW13lHv.s 			page 342


 18764              	.LASF355:
 18765 0e3c 5F737461 		.ascii	"_stats_start_measure_crit_thd\000"
 18765      74735F73 
 18765      74617274 
 18765      5F6D6561 
 18765      73757265 
 18766              	.LASF103:
 18767 0e5a 5F737472 		.ascii	"_strtok_last\000"
 18767      746F6B5F 
 18767      6C617374 
 18767      00
 18768              	.LASF314:
 18769 0e67 70617261 		.ascii	"parameter_boolean_get\000"
 18769      6D657465 
 18769      725F626F 
 18769      6F6C6561 
 18769      6E5F6765 
 18770              	.LASF356:
 18771 0e7d 5F646267 		.ascii	"_dbg_check_lock\000"
 18771      5F636865 
 18771      636B5F6C 
 18771      6F636B00 
 18772              	.LASF116:
 18773 0e8d 5F6D6272 		.ascii	"_mbrtowc_state\000"
 18773      746F7763 
 18773      5F737461 
 18773      746500
 18774              	.LASF223:
 18775 0e9c 6D61696E 		.ascii	"mainthread\000"
 18775      74687265 
 18775      616400
 18776              	.LASF26:
 18777 0ea7 5F666C6F 		.ascii	"_flock_t\000"
 18777      636B5F74 
 18777      00
 18778              	.LASF94:
 18779 0eb0 5F5F4649 		.ascii	"__FILE\000"
 18779      4C4500
 18780              	.LASF354:
 18781 0eb7 5F5F7365 		.ascii	"__set_BASEPRI\000"
 18781      745F4241 
 18781      53455052 
 18781      4900
 18782              	.LASF361:
 18783 0ec5 7374726E 		.ascii	"strncpy\000"
 18783      63707900 
 18784              	.LASF243:
 18785 0ecd 62657374 		.ascii	"best\000"
 18785      00
 18786              	.LASF290:
 18787 0ed2 70617261 		.ascii	"parameter_string_set\000"
 18787      6D657465 
 18787      725F7374 
 18787      72696E67 
 18787      5F736574 
 18788              	.LASF25:
 18789 0ee7 5F6D6273 		.ascii	"_mbstate_t\000"
ARM GAS  /var/folders/d2/nstgp4h54kz7g1l847x_b8wc0000gn/T//ccW13lHv.s 			page 343


 18789      74617465 
 18789      5F7400
 18790              	.LASF196:
 18791 0ef2 725F7175 		.ascii	"r_queue\000"
 18791      65756500 
 18792              	.LASF108:
 18793 0efa 5F723438 		.ascii	"_r48\000"
 18793      00
 18794              	.LASF295:
 18795 0eff 70617261 		.ascii	"parameter_string_max_len\000"
 18795      6D657465 
 18795      725F7374 
 18795      72696E67 
 18795      5F6D6178 
 18796              	.LASF20:
 18797 0f18 77696E74 		.ascii	"wint_t\000"
 18797      5F7400
 18798              	.LASF29:
 18799 0f1f 5F6E6578 		.ascii	"_next\000"
 18799      7400
 18800              	.LASF68:
 18801 0f25 5F646174 		.ascii	"_data\000"
 18801      6100
 18802              	.LASF221:
 18803 0f2b 726C6973 		.ascii	"rlist\000"
 18803      7400
 18804              	.LASF156:
 18805 0f31 746D6F64 		.ascii	"tmode_t\000"
 18805      655F7400 
 18806              	.LASF212:
 18807 0f39 76745F73 		.ascii	"vt_systime\000"
 18807      79737469 
 18807      6D6500
 18808              	.LASF200:
 18809 0f44 725F6F6C 		.ascii	"r_older\000"
 18809      64657200 
 18810              	.LASF242:
 18811 0f4c 746D5F63 		.ascii	"tm_calibration_t\000"
 18811      616C6962 
 18811      72617469 
 18811      6F6E5F74 
 18811      00
 18812              	.LASF305:
 18813 0f5d 70617261 		.ascii	"parameter_string_declare\000"
 18813      6D657465 
 18813      725F7374 
 18813      72696E67 
 18813      5F646563 
 18814              	.LASF352:
 18815 0f76 706F7274 		.ascii	"port_lock\000"
 18815      5F6C6F63 
 18815      6B00
 18816              	.LASF261:
 18817 0f80 735F7175 		.ascii	"s_queue\000"
 18817      65756500 
 18818              	.LASF109:
 18819 0f88 5F6D626C 		.ascii	"_mblen_state\000"
ARM GAS  /var/folders/d2/nstgp4h54kz7g1l847x_b8wc0000gn/T//ccW13lHv.s 			page 344


 18819      656E5F73 
 18819      74617465 
 18819      00
 18820              	.LASF335:
 18821 0f95 5F706172 		.ascii	"_parameter_declare\000"
 18821      616D6574 
 18821      65725F64 
 18821      65636C61 
 18821      726500
 18822              	.LASF8:
 18823 0fa8 73686F72 		.ascii	"short int\000"
 18823      7420696E 
 18823      7400
 18824              	.LASF132:
 18825 0fb2 75696E74 		.ascii	"uint64_t\000"
 18825      36345F74 
 18825      00
 18826              	.LASF142:
 18827 0fbb 70617261 		.ascii	"parameter_s\000"
 18827      6D657465 
 18827      725F7300 
 18828              	.LASF141:
 18829 0fc7 70617261 		.ascii	"parameter_t\000"
 18829      6D657465 
 18829      725F7400 
 18830              	.LASF263:
 18831 0fd3 63685F6D 		.ascii	"ch_mutex\000"
 18831      75746578 
 18831      00
 18832              	.LASF133:
 18833 0fdc 7375626F 		.ascii	"suboptarg\000"
 18833      70746172 
 18833      6700
 18834              	.LASF47:
 18835 0fe6 5F666E74 		.ascii	"_fntypes\000"
 18835      79706573 
 18835      00
 18836              	.LASF197:
 18837 0fef 725F7072 		.ascii	"r_prio\000"
 18837      696F00
 18838              	.LASF365:
 18839 0ff6 2F557365 		.ascii	"/Users/bharathkeshavamurthy/Workspaces/Talos/src/ma"
 18839      72732F62 
 18839      68617261 
 18839      74686B65 
 18839      73686176 
 18840 1029 696E2F63 		.ascii	"in/cpp/org/purdue/ece/talos/optimize\000"
 18840      70702F6F 
 18840      72672F70 
 18840      75726475 
 18840      652F6563 
 18841              	.LASF214:
 18842 104e 63685F73 		.ascii	"ch_system_debug\000"
 18842      79737465 
 18842      6D5F6465 
 18842      62756700 
 18843              	.LASF40:
ARM GAS  /var/folders/d2/nstgp4h54kz7g1l847x_b8wc0000gn/T//ccW13lHv.s 			page 345


 18844 105e 5F5F746D 		.ascii	"__tm_year\000"
 18844      5F796561 
 18844      7200
 18845              	.LASF244:
 18846 1068 776F7273 		.ascii	"worst\000"
 18846      7400
 18847              	.LASF278:
 18848 106e 63665F6F 		.ascii	"cf_off_older\000"
 18848      66665F6F 
 18848      6C646572 
 18848      00
 18849              	.LASF332:
 18850 107b 70617261 		.ascii	"parameter_defined\000"
 18850      6D657465 
 18850      725F6465 
 18850      66696E65 
 18850      6400
 18851              	.LASF135:
 18852 108d 70617261 		.ascii	"parameter_namespace_s\000"
 18852      6D657465 
 18852      725F6E61 
 18852      6D657370 
 18852      6163655F 
 18853              	.LASF134:
 18854 10a3 70617261 		.ascii	"parameter_namespace_t\000"
 18854      6D657465 
 18854      725F6E61 
 18854      6D657370 
 18854      6163655F 
 18855              	.LASF333:
 18856 10b9 70617261 		.ascii	"parameter_changed\000"
 18856      6D657465 
 18856      725F6368 
 18856      616E6765 
 18856      6400
 18857              	.LASF58:
 18858 10cb 5F6C6266 		.ascii	"_lbfsize\000"
 18858      73697A65 
 18858      00
 18859              	.LASF222:
 18860 10d4 76746C69 		.ascii	"vtlist\000"
 18860      737400
 18861              	.LASF77:
 18862 10db 5F696E63 		.ascii	"_inc\000"
 18862      00
 18863              	.LASF50:
 18864 10e0 5F696E64 		.ascii	"_ind\000"
 18864      00
 18865              	.LASF360:
 18866 10e5 7374726C 		.ascii	"strlen\000"
 18866      656E00
 18867              	.LASF359:
 18868 10ec 63685379 		.ascii	"chSysHalt\000"
 18868      7348616C 
 18868      7400
 18869              	.LASF147:
 18870 10f6 5F706172 		.ascii	"_param_val_str_s\000"
ARM GAS  /var/folders/d2/nstgp4h54kz7g1l847x_b8wc0000gn/T//ccW13lHv.s 			page 346


 18870      616D5F76 
 18870      616C5F73 
 18870      74725F73 
 18870      00
 18871              	.LASF52:
 18872 1107 5F5F7362 		.ascii	"__sbuf\000"
 18872      756600
 18873              	.LASF366:
 18874 110e 6D656D63 		.ascii	"memcpy\000"
 18874      707900
 18875              	.LASF48:
 18876 1115 5F69735F 		.ascii	"_is_cxa\000"
 18876      63786100 
 18877              	.LASF17:
 18878 111d 5F4C4F43 		.ascii	"_LOCK_T\000"
 18878      4B5F5400 
 18879              	.LASF288:
 18880 1125 6D757465 		.ascii	"mutex_t\000"
 18880      785F7400 
 18881              	.LASF321:
 18882 112d 70617261 		.ascii	"parameter_integer_get\000"
 18882      6D657465 
 18882      725F696E 
 18882      74656765 
 18882      725F6765 
 18883              	.LASF158:
 18884 1143 74726566 		.ascii	"trefs_t\000"
 18884      735F7400 
 18885              	.LASF121:
 18886 114b 5F6E6578 		.ascii	"_nextf\000"
 18886      746600
 18887              	.LASF280:
 18888 1152 63665F6F 		.ascii	"cf_off_stklimit\000"
 18888      66665F73 
 18888      746B6C69 
 18888      6D697400 
 18889              	.LASF190:
 18890 1162 74687265 		.ascii	"threads_list_t\000"
 18890      6164735F 
 18890      6C697374 
 18890      5F7400
 18891              	.LASF323:
 18892 1171 70617261 		.ascii	"parameter_integer_declare\000"
 18892      6D657465 
 18892      725F696E 
 18892      74656765 
 18892      725F6465 
 18893              	.LASF319:
 18894 118b 70617261 		.ascii	"parameter_integer_set\000"
 18894      6D657465 
 18894      725F696E 
 18894      74656765 
 18894      725F7365 
 18895              	.LASF220:
 18896 11a1 63685F73 		.ascii	"ch_system\000"
 18896      79737465 
 18896      6D00
ARM GAS  /var/folders/d2/nstgp4h54kz7g1l847x_b8wc0000gn/T//ccW13lHv.s 			page 347


 18897              	.LASF322:
 18898 11ab 70617261 		.ascii	"parameter_integer_declare_with_default\000"
 18898      6D657465 
 18898      725F696E 
 18898      74656765 
 18898      725F6465 
 18899              	.LASF80:
 18900 11d2 5F6C6F63 		.ascii	"_locale\000"
 18900      616C6500 
 18901              	.LASF28:
 18902 11da 5F5F554C 		.ascii	"__ULong\000"
 18902      6F6E6700 
 18903              	.LASF131:
 18904 11e2 75696E74 		.ascii	"uint32_t\000"
 18904      33325F74 
 18904      00
 18905              	.LASF83:
 18906 11eb 5F726573 		.ascii	"_result\000"
 18906      756C7400 
 18907              	.LASF329:
 18908 11f3 5F706172 		.ascii	"_parameter_changed_clear\000"
 18908      616D6574 
 18908      65725F63 
 18908      68616E67 
 18908      65645F63 
 18909              	.LASF18:
 18910 120c 5F6F6666 		.ascii	"_off_t\000"
 18910      5F7400
 18911              	.LASF148:
 18912 1213 6275665F 		.ascii	"buf_len\000"
 18912      6C656E00 
 18913              	.LASF253:
 18914 121b 7264796D 		.ascii	"rdymsg\000"
 18914      736700
 18915              	.LASF101:
 18916 1222 5F616464 		.ascii	"_add\000"
 18916      00
 18917              	.LASF10:
 18918 1227 73686F72 		.ascii	"short unsigned int\000"
 18918      7420756E 
 18918      7369676E 
 18918      65642069 
 18918      6E7400
 18919              	.LASF37:
 18920 123a 5F5F746D 		.ascii	"__tm_hour\000"
 18920      5F686F75 
 18920      7200
 18921              	.LASF219:
 18922 1244 63685F73 		.ascii	"ch_system_t\000"
 18922      79737465 
 18922      6D5F7400 
 18923              	.LASF286:
 18924 1250 63686465 		.ascii	"chdebug_t\000"
 18924      6275675F 
 18924      7400
 18925              	.LASF338:
 18926 125a 69645F6C 		.ascii	"id_len\000"
ARM GAS  /var/folders/d2/nstgp4h54kz7g1l847x_b8wc0000gn/T//ccW13lHv.s 			page 348


 18926      656E00
 18927              	.LASF270:
 18928 1261 63685F73 		.ascii	"ch_size\000"
 18928      697A6500 
 18929              	.LASF117:
 18930 1269 5F6D6273 		.ascii	"_mbsrtowcs_state\000"
 18930      72746F77 
 18930      63735F73 
 18930      74617465 
 18930      00
 18931              	.LASF175:
 18932 127a 705F7374 		.ascii	"p_stklimit\000"
 18932      6B6C696D 
 18932      697400
 18933              	.LASF306:
 18934 1285 70617261 		.ascii	"parameter_variable_vector_declare\000"
 18934      6D657465 
 18934      725F7661 
 18934      72696162 
 18934      6C655F76 
 18935              	.LASF11:
 18936 12a7 5F5F696E 		.ascii	"__int32_t\000"
 18936      7433325F 
 18936      7400
 18937              	.LASF349:
 18938 12b1 69645F73 		.ascii	"id_split\000"
 18938      706C6974 
 18938      00
 18939              	.LASF45:
 18940 12ba 5F666E61 		.ascii	"_fnargs\000"
 18940      72677300 
 18941              	.LASF336:
 18942 12c2 70617261 		.ascii	"parameter_find\000"
 18942      6D657465 
 18942      725F6669 
 18942      6E6400
 18943              	.LASF43:
 18944 12d1 5F5F746D 		.ascii	"__tm_isdst\000"
 18944      5F697364 
 18944      737400
 18945              	.LASF342:
 18946 12dc 6E726574 		.ascii	"nret\000"
 18946      00
 18947              	.LASF232:
 18948 12e1 73655F74 		.ascii	"se_time\000"
 18948      696D6500 
 18949              	.LASF174:
 18950 12e9 705F6E61 		.ascii	"p_name\000"
 18950      6D6500
 18951              	.LASF139:
 18952 12f0 6E657874 		.ascii	"next\000"
 18952      00
 18953              	.LASF266:
 18954 12f5 6D5F6E65 		.ascii	"m_next\000"
 18954      787400
 18955              	.LASF238:
 18956 12fc 74625F70 		.ascii	"tb_ptr\000"
ARM GAS  /var/folders/d2/nstgp4h54kz7g1l847x_b8wc0000gn/T//ccW13lHv.s 			page 349


 18956      747200
 18957              	.LASF36:
 18958 1303 5F5F746D 		.ascii	"__tm_min\000"
 18958      5F6D696E 
 18958      00
 18959              	.LASF114:
 18960 130c 5F676574 		.ascii	"_getdate_err\000"
 18960      64617465 
 18960      5F657272 
 18960      00
 18961              	.LASF257:
 18962 1319 77747365 		.ascii	"wtsemp\000"
 18962      6D7000
 18963              	.LASF245:
 18964 1320 6C617374 		.ascii	"last\000"
 18964      00
 18965              	.LASF183:
 18966 1325 705F6D73 		.ascii	"p_msg\000"
 18966      6700
 18967              	.LASF176:
 18968 132b 705F7374 		.ascii	"p_state\000"
 18968      61746500 
 18969              		.ident	"GCC: (GNU Tools for Arm Embedded Processors 7-2017-q4-major) 7.2.1 20170904 (release) [ARM
ARM GAS  /var/folders/d2/nstgp4h54kz7g1l847x_b8wc0000gn/T//ccW13lHv.s 			page 350


DEFINED SYMBOLS
                            *ABS*:0000000000000000 parameter.c
/var/folders/d2/nstgp4h54kz7g1l847x_b8wc0000gn/T//ccW13lHv.s:18     .text.get_subnamespace.part.0:0000000000000000 $t
/var/folders/d2/nstgp4h54kz7g1l847x_b8wc0000gn/T//ccW13lHv.s:25     .text.get_subnamespace.part.0:0000000000000000 get_subnamespace.part.0
/var/folders/d2/nstgp4h54kz7g1l847x_b8wc0000gn/T//ccW13lHv.s:171    .text.get_subnamespace.part.0:0000000000000080 $d
/var/folders/d2/nstgp4h54kz7g1l847x_b8wc0000gn/T//ccW13lHv.s:178    .text.parameter_namespace_declare:0000000000000000 $t
/var/folders/d2/nstgp4h54kz7g1l847x_b8wc0000gn/T//ccW13lHv.s:186    .text.parameter_namespace_declare:0000000000000000 parameter_namespace_declare
/var/folders/d2/nstgp4h54kz7g1l847x_b8wc0000gn/T//ccW13lHv.s:316    .text.parameter_namespace_declare:000000000000006c $d
/var/folders/d2/nstgp4h54kz7g1l847x_b8wc0000gn/T//ccW13lHv.s:323    .text._parameter_namespace_find_w_id_len:0000000000000000 $t
/var/folders/d2/nstgp4h54kz7g1l847x_b8wc0000gn/T//ccW13lHv.s:331    .text._parameter_namespace_find_w_id_len:0000000000000000 _parameter_namespace_find_w_id_len
/var/folders/d2/nstgp4h54kz7g1l847x_b8wc0000gn/T//ccW13lHv.s:469    .text._parameter_namespace_find_w_id_len:0000000000000078 $d
/var/folders/d2/nstgp4h54kz7g1l847x_b8wc0000gn/T//ccW13lHv.s:474    .text.parameter_namespace_find:0000000000000000 $t
/var/folders/d2/nstgp4h54kz7g1l847x_b8wc0000gn/T//ccW13lHv.s:482    .text.parameter_namespace_find:0000000000000000 parameter_namespace_find
/var/folders/d2/nstgp4h54kz7g1l847x_b8wc0000gn/T//ccW13lHv.s:539    .text.parameter_namespace_find:0000000000000030 $d
/var/folders/d2/nstgp4h54kz7g1l847x_b8wc0000gn/T//ccW13lHv.s:544    .text._parameter_find_w_id_len:0000000000000000 $t
/var/folders/d2/nstgp4h54kz7g1l847x_b8wc0000gn/T//ccW13lHv.s:552    .text._parameter_find_w_id_len:0000000000000000 _parameter_find_w_id_len
/var/folders/d2/nstgp4h54kz7g1l847x_b8wc0000gn/T//ccW13lHv.s:826    .text._parameter_find_w_id_len:00000000000000f8 $d
/var/folders/d2/nstgp4h54kz7g1l847x_b8wc0000gn/T//ccW13lHv.s:833    .text.parameter_find:0000000000000000 $t
/var/folders/d2/nstgp4h54kz7g1l847x_b8wc0000gn/T//ccW13lHv.s:841    .text.parameter_find:0000000000000000 parameter_find
/var/folders/d2/nstgp4h54kz7g1l847x_b8wc0000gn/T//ccW13lHv.s:898    .text.parameter_find:0000000000000030 $d
/var/folders/d2/nstgp4h54kz7g1l847x_b8wc0000gn/T//ccW13lHv.s:903    .text._parameter_declare:0000000000000000 $t
/var/folders/d2/nstgp4h54kz7g1l847x_b8wc0000gn/T//ccW13lHv.s:911    .text._parameter_declare:0000000000000000 _parameter_declare
/var/folders/d2/nstgp4h54kz7g1l847x_b8wc0000gn/T//ccW13lHv.s:1039   .text._parameter_declare:0000000000000064 $d
/var/folders/d2/nstgp4h54kz7g1l847x_b8wc0000gn/T//ccW13lHv.s:1046   .text.parameter_namespace_contains_changed:0000000000000000 $t
/var/folders/d2/nstgp4h54kz7g1l847x_b8wc0000gn/T//ccW13lHv.s:1054   .text.parameter_namespace_contains_changed:0000000000000000 parameter_namespace_contains_changed
/var/folders/d2/nstgp4h54kz7g1l847x_b8wc0000gn/T//ccW13lHv.s:1171   .text.parameter_namespace_contains_changed:000000000000005c $d
/var/folders/d2/nstgp4h54kz7g1l847x_b8wc0000gn/T//ccW13lHv.s:1178   .text.parameter_changed:0000000000000000 $t
/var/folders/d2/nstgp4h54kz7g1l847x_b8wc0000gn/T//ccW13lHv.s:1186   .text.parameter_changed:0000000000000000 parameter_changed
/var/folders/d2/nstgp4h54kz7g1l847x_b8wc0000gn/T//ccW13lHv.s:1301   .text.parameter_changed:0000000000000058 $d
/var/folders/d2/nstgp4h54kz7g1l847x_b8wc0000gn/T//ccW13lHv.s:1308   .text.parameter_defined:0000000000000000 $t
/var/folders/d2/nstgp4h54kz7g1l847x_b8wc0000gn/T//ccW13lHv.s:1316   .text.parameter_defined:0000000000000000 parameter_defined
/var/folders/d2/nstgp4h54kz7g1l847x_b8wc0000gn/T//ccW13lHv.s:1435   .text.parameter_defined:0000000000000058 $d
/var/folders/d2/nstgp4h54kz7g1l847x_b8wc0000gn/T//ccW13lHv.s:1442   .text._parameter_changed_set:0000000000000000 $t
/var/folders/d2/nstgp4h54kz7g1l847x_b8wc0000gn/T//ccW13lHv.s:1450   .text._parameter_changed_set:0000000000000000 _parameter_changed_set
/var/folders/d2/nstgp4h54kz7g1l847x_b8wc0000gn/T//ccW13lHv.s:1680   .text._parameter_changed_set:00000000000000b8 $d
/var/folders/d2/nstgp4h54kz7g1l847x_b8wc0000gn/T//ccW13lHv.s:1687   .text._parameter_changed_clear:0000000000000000 $t
/var/folders/d2/nstgp4h54kz7g1l847x_b8wc0000gn/T//ccW13lHv.s:1695   .text._parameter_changed_clear:0000000000000000 _parameter_changed_clear
/var/folders/d2/nstgp4h54kz7g1l847x_b8wc0000gn/T//ccW13lHv.s:1921   .text._parameter_changed_clear:00000000000000a8 $d
/var/folders/d2/nstgp4h54kz7g1l847x_b8wc0000gn/T//ccW13lHv.s:1928   .text.parameter_scalar_declare:0000000000000000 $t
/var/folders/d2/nstgp4h54kz7g1l847x_b8wc0000gn/T//ccW13lHv.s:1936   .text.parameter_scalar_declare:0000000000000000 parameter_scalar_declare
/var/folders/d2/nstgp4h54kz7g1l847x_b8wc0000gn/T//ccW13lHv.s:1985   .text.parameter_scalar_declare:0000000000000024 $d
/var/folders/d2/nstgp4h54kz7g1l847x_b8wc0000gn/T//ccW13lHv.s:1990   .text.parameter_scalar_declare_with_default:0000000000000000 $t
/var/folders/d2/nstgp4h54kz7g1l847x_b8wc0000gn/T//ccW13lHv.s:1998   .text.parameter_scalar_declare_with_default:0000000000000000 parameter_scalar_declare_with_default
/var/folders/d2/nstgp4h54kz7g1l847x_b8wc0000gn/T//ccW13lHv.s:2057   .text.parameter_scalar_declare_with_default:0000000000000030 $d
/var/folders/d2/nstgp4h54kz7g1l847x_b8wc0000gn/T//ccW13lHv.s:2062   .text.parameter_scalar_read:0000000000000000 $t
/var/folders/d2/nstgp4h54kz7g1l847x_b8wc0000gn/T//ccW13lHv.s:2070   .text.parameter_scalar_read:0000000000000000 parameter_scalar_read
/var/folders/d2/nstgp4h54kz7g1l847x_b8wc0000gn/T//ccW13lHv.s:2215   .text.parameter_scalar_read:0000000000000078 $d
/var/folders/d2/nstgp4h54kz7g1l847x_b8wc0000gn/T//ccW13lHv.s:2223   .text.parameter_scalar_get:0000000000000000 $t
/var/folders/d2/nstgp4h54kz7g1l847x_b8wc0000gn/T//ccW13lHv.s:2231   .text.parameter_scalar_get:0000000000000000 parameter_scalar_get
/var/folders/d2/nstgp4h54kz7g1l847x_b8wc0000gn/T//ccW13lHv.s:2280   .text.parameter_scalar_get:0000000000000028 $d
/var/folders/d2/nstgp4h54kz7g1l847x_b8wc0000gn/T//ccW13lHv.s:2285   .text.parameter_scalar_set:0000000000000000 $t
/var/folders/d2/nstgp4h54kz7g1l847x_b8wc0000gn/T//ccW13lHv.s:2293   .text.parameter_scalar_set:0000000000000000 parameter_scalar_set
/var/folders/d2/nstgp4h54kz7g1l847x_b8wc0000gn/T//ccW13lHv.s:2437   .text.parameter_scalar_set:0000000000000078 $d
/var/folders/d2/nstgp4h54kz7g1l847x_b8wc0000gn/T//ccW13lHv.s:2445   .text.parameter_integer_declare:0000000000000000 $t
/var/folders/d2/nstgp4h54kz7g1l847x_b8wc0000gn/T//ccW13lHv.s:2453   .text.parameter_integer_declare:0000000000000000 parameter_integer_declare
/var/folders/d2/nstgp4h54kz7g1l847x_b8wc0000gn/T//ccW13lHv.s:2502   .text.parameter_integer_declare:0000000000000024 $d
/var/folders/d2/nstgp4h54kz7g1l847x_b8wc0000gn/T//ccW13lHv.s:2507   .text.parameter_integer_declare_with_default:0000000000000000 $t
ARM GAS  /var/folders/d2/nstgp4h54kz7g1l847x_b8wc0000gn/T//ccW13lHv.s 			page 351


/var/folders/d2/nstgp4h54kz7g1l847x_b8wc0000gn/T//ccW13lHv.s:2515   .text.parameter_integer_declare_with_default:0000000000000000 parameter_integer_declare_with_default
/var/folders/d2/nstgp4h54kz7g1l847x_b8wc0000gn/T//ccW13lHv.s:2575   .text.parameter_integer_declare_with_default:0000000000000030 $d
/var/folders/d2/nstgp4h54kz7g1l847x_b8wc0000gn/T//ccW13lHv.s:2580   .text.parameter_integer_read:0000000000000000 $t
/var/folders/d2/nstgp4h54kz7g1l847x_b8wc0000gn/T//ccW13lHv.s:2588   .text.parameter_integer_read:0000000000000000 parameter_integer_read
/var/folders/d2/nstgp4h54kz7g1l847x_b8wc0000gn/T//ccW13lHv.s:2725   .text.parameter_integer_read:000000000000006c $d
/var/folders/d2/nstgp4h54kz7g1l847x_b8wc0000gn/T//ccW13lHv.s:2733   .text.parameter_integer_get:0000000000000000 $t
/var/folders/d2/nstgp4h54kz7g1l847x_b8wc0000gn/T//ccW13lHv.s:2741   .text.parameter_integer_get:0000000000000000 parameter_integer_get
/var/folders/d2/nstgp4h54kz7g1l847x_b8wc0000gn/T//ccW13lHv.s:2790   .text.parameter_integer_get:0000000000000028 $d
/var/folders/d2/nstgp4h54kz7g1l847x_b8wc0000gn/T//ccW13lHv.s:2795   .text.parameter_integer_set:0000000000000000 $t
/var/folders/d2/nstgp4h54kz7g1l847x_b8wc0000gn/T//ccW13lHv.s:2803   .text.parameter_integer_set:0000000000000000 parameter_integer_set
/var/folders/d2/nstgp4h54kz7g1l847x_b8wc0000gn/T//ccW13lHv.s:2940   .text.parameter_integer_set:000000000000006c $d
/var/folders/d2/nstgp4h54kz7g1l847x_b8wc0000gn/T//ccW13lHv.s:2948   .text.parameter_boolean_declare:0000000000000000 $t
/var/folders/d2/nstgp4h54kz7g1l847x_b8wc0000gn/T//ccW13lHv.s:2956   .text.parameter_boolean_declare:0000000000000000 parameter_boolean_declare
/var/folders/d2/nstgp4h54kz7g1l847x_b8wc0000gn/T//ccW13lHv.s:3005   .text.parameter_boolean_declare:0000000000000024 $d
/var/folders/d2/nstgp4h54kz7g1l847x_b8wc0000gn/T//ccW13lHv.s:3010   .text.parameter_boolean_declare_with_default:0000000000000000 $t
/var/folders/d2/nstgp4h54kz7g1l847x_b8wc0000gn/T//ccW13lHv.s:3018   .text.parameter_boolean_declare_with_default:0000000000000000 parameter_boolean_declare_with_default
/var/folders/d2/nstgp4h54kz7g1l847x_b8wc0000gn/T//ccW13lHv.s:3078   .text.parameter_boolean_declare_with_default:0000000000000030 $d
/var/folders/d2/nstgp4h54kz7g1l847x_b8wc0000gn/T//ccW13lHv.s:3083   .text.parameter_boolean_set:0000000000000000 $t
/var/folders/d2/nstgp4h54kz7g1l847x_b8wc0000gn/T//ccW13lHv.s:3091   .text.parameter_boolean_set:0000000000000000 parameter_boolean_set
/var/folders/d2/nstgp4h54kz7g1l847x_b8wc0000gn/T//ccW13lHv.s:3228   .text.parameter_boolean_set:000000000000006c $d
/var/folders/d2/nstgp4h54kz7g1l847x_b8wc0000gn/T//ccW13lHv.s:3236   .text.parameter_boolean_read:0000000000000000 $t
/var/folders/d2/nstgp4h54kz7g1l847x_b8wc0000gn/T//ccW13lHv.s:3244   .text.parameter_boolean_read:0000000000000000 parameter_boolean_read
/var/folders/d2/nstgp4h54kz7g1l847x_b8wc0000gn/T//ccW13lHv.s:3379   .text.parameter_boolean_read:000000000000006c $d
/var/folders/d2/nstgp4h54kz7g1l847x_b8wc0000gn/T//ccW13lHv.s:3387   .text.parameter_boolean_get:0000000000000000 $t
/var/folders/d2/nstgp4h54kz7g1l847x_b8wc0000gn/T//ccW13lHv.s:3395   .text.parameter_boolean_get:0000000000000000 parameter_boolean_get
/var/folders/d2/nstgp4h54kz7g1l847x_b8wc0000gn/T//ccW13lHv.s:3444   .text.parameter_boolean_get:0000000000000028 $d
/var/folders/d2/nstgp4h54kz7g1l847x_b8wc0000gn/T//ccW13lHv.s:3449   .text.parameter_vector_declare:0000000000000000 $t
/var/folders/d2/nstgp4h54kz7g1l847x_b8wc0000gn/T//ccW13lHv.s:3457   .text.parameter_vector_declare:0000000000000000 parameter_vector_declare
/var/folders/d2/nstgp4h54kz7g1l847x_b8wc0000gn/T//ccW13lHv.s:3518   .text.parameter_vector_declare:0000000000000030 $d
/var/folders/d2/nstgp4h54kz7g1l847x_b8wc0000gn/T//ccW13lHv.s:3523   .text.parameter_vector_declare_with_default:0000000000000000 $t
/var/folders/d2/nstgp4h54kz7g1l847x_b8wc0000gn/T//ccW13lHv.s:3531   .text.parameter_vector_declare_with_default:0000000000000000 parameter_vector_declare_with_default
/var/folders/d2/nstgp4h54kz7g1l847x_b8wc0000gn/T//ccW13lHv.s:3602   .text.parameter_vector_declare_with_default:0000000000000034 $d
/var/folders/d2/nstgp4h54kz7g1l847x_b8wc0000gn/T//ccW13lHv.s:3607   .text.parameter_vector_dim:0000000000000000 $t
/var/folders/d2/nstgp4h54kz7g1l847x_b8wc0000gn/T//ccW13lHv.s:3615   .text.parameter_vector_dim:0000000000000000 parameter_vector_dim
/var/folders/d2/nstgp4h54kz7g1l847x_b8wc0000gn/T//ccW13lHv.s:3666   .text.parameter_vector_dim:000000000000002c $d
/var/folders/d2/nstgp4h54kz7g1l847x_b8wc0000gn/T//ccW13lHv.s:3672   .text.parameter_vector_read:0000000000000000 $t
/var/folders/d2/nstgp4h54kz7g1l847x_b8wc0000gn/T//ccW13lHv.s:3680   .text.parameter_vector_read:0000000000000000 parameter_vector_read
/var/folders/d2/nstgp4h54kz7g1l847x_b8wc0000gn/T//ccW13lHv.s:3839   .text.parameter_vector_read:0000000000000088 $d
/var/folders/d2/nstgp4h54kz7g1l847x_b8wc0000gn/T//ccW13lHv.s:3847   .text.parameter_vector_get:0000000000000000 $t
/var/folders/d2/nstgp4h54kz7g1l847x_b8wc0000gn/T//ccW13lHv.s:3855   .text.parameter_vector_get:0000000000000000 parameter_vector_get
/var/folders/d2/nstgp4h54kz7g1l847x_b8wc0000gn/T//ccW13lHv.s:3908   .text.parameter_vector_get:000000000000002c $d
/var/folders/d2/nstgp4h54kz7g1l847x_b8wc0000gn/T//ccW13lHv.s:3913   .text.parameter_vector_set:0000000000000000 $t
/var/folders/d2/nstgp4h54kz7g1l847x_b8wc0000gn/T//ccW13lHv.s:3921   .text.parameter_vector_set:0000000000000000 parameter_vector_set
/var/folders/d2/nstgp4h54kz7g1l847x_b8wc0000gn/T//ccW13lHv.s:4078   .text.parameter_vector_set:0000000000000084 $d
/var/folders/d2/nstgp4h54kz7g1l847x_b8wc0000gn/T//ccW13lHv.s:4086   .text.parameter_variable_vector_declare:0000000000000000 $t
/var/folders/d2/nstgp4h54kz7g1l847x_b8wc0000gn/T//ccW13lHv.s:4094   .text.parameter_variable_vector_declare:0000000000000000 parameter_variable_vector_declare
/var/folders/d2/nstgp4h54kz7g1l847x_b8wc0000gn/T//ccW13lHv.s:4155   .text.parameter_variable_vector_declare:0000000000000030 $d
/var/folders/d2/nstgp4h54kz7g1l847x_b8wc0000gn/T//ccW13lHv.s:4160   .text.parameter_variable_vector_declare_with_default:0000000000000000 $t
/var/folders/d2/nstgp4h54kz7g1l847x_b8wc0000gn/T//ccW13lHv.s:4168   .text.parameter_variable_vector_declare_with_default:0000000000000000 parameter_variable_vector_declare_with_default
/var/folders/d2/nstgp4h54kz7g1l847x_b8wc0000gn/T//ccW13lHv.s:4251   .text.parameter_variable_vector_declare_with_default:0000000000000048 $d
/var/folders/d2/nstgp4h54kz7g1l847x_b8wc0000gn/T//ccW13lHv.s:4257   .text.parameter_variable_vector_max_dim:0000000000000000 $t
/var/folders/d2/nstgp4h54kz7g1l847x_b8wc0000gn/T//ccW13lHv.s:4265   .text.parameter_variable_vector_max_dim:0000000000000000 parameter_variable_vector_max_dim
/var/folders/d2/nstgp4h54kz7g1l847x_b8wc0000gn/T//ccW13lHv.s:4316   .text.parameter_variable_vector_max_dim:000000000000002c $d
/var/folders/d2/nstgp4h54kz7g1l847x_b8wc0000gn/T//ccW13lHv.s:4322   .text.parameter_variable_vector_read:0000000000000000 $t
/var/folders/d2/nstgp4h54kz7g1l847x_b8wc0000gn/T//ccW13lHv.s:4330   .text.parameter_variable_vector_read:0000000000000000 parameter_variable_vector_read
/var/folders/d2/nstgp4h54kz7g1l847x_b8wc0000gn/T//ccW13lHv.s:4493   .text.parameter_variable_vector_read:000000000000008c $d
/var/folders/d2/nstgp4h54kz7g1l847x_b8wc0000gn/T//ccW13lHv.s:4501   .text.parameter_variable_vector_get:0000000000000000 $t
ARM GAS  /var/folders/d2/nstgp4h54kz7g1l847x_b8wc0000gn/T//ccW13lHv.s 			page 352


/var/folders/d2/nstgp4h54kz7g1l847x_b8wc0000gn/T//ccW13lHv.s:4509   .text.parameter_variable_vector_get:0000000000000000 parameter_variable_vector_get
/var/folders/d2/nstgp4h54kz7g1l847x_b8wc0000gn/T//ccW13lHv.s:4562   .text.parameter_variable_vector_get:000000000000002c $d
/var/folders/d2/nstgp4h54kz7g1l847x_b8wc0000gn/T//ccW13lHv.s:4567   .text.parameter_variable_vector_set:0000000000000000 $t
/var/folders/d2/nstgp4h54kz7g1l847x_b8wc0000gn/T//ccW13lHv.s:4575   .text.parameter_variable_vector_set:0000000000000000 parameter_variable_vector_set
/var/folders/d2/nstgp4h54kz7g1l847x_b8wc0000gn/T//ccW13lHv.s:4752   .text.parameter_variable_vector_set:00000000000000a0 $d
/var/folders/d2/nstgp4h54kz7g1l847x_b8wc0000gn/T//ccW13lHv.s:4760   .text.parameter_string_declare:0000000000000000 $t
/var/folders/d2/nstgp4h54kz7g1l847x_b8wc0000gn/T//ccW13lHv.s:4768   .text.parameter_string_declare:0000000000000000 parameter_string_declare
/var/folders/d2/nstgp4h54kz7g1l847x_b8wc0000gn/T//ccW13lHv.s:4829   .text.parameter_string_declare:0000000000000030 $d
/var/folders/d2/nstgp4h54kz7g1l847x_b8wc0000gn/T//ccW13lHv.s:4834   .text.parameter_string_declare_with_default:0000000000000000 $t
/var/folders/d2/nstgp4h54kz7g1l847x_b8wc0000gn/T//ccW13lHv.s:4842   .text.parameter_string_declare_with_default:0000000000000000 parameter_string_declare_with_default
/var/folders/d2/nstgp4h54kz7g1l847x_b8wc0000gn/T//ccW13lHv.s:4936   .text.parameter_string_declare_with_default:0000000000000058 $d
/var/folders/d2/nstgp4h54kz7g1l847x_b8wc0000gn/T//ccW13lHv.s:4942   .text.parameter_string_max_len:0000000000000000 $t
/var/folders/d2/nstgp4h54kz7g1l847x_b8wc0000gn/T//ccW13lHv.s:4950   .text.parameter_string_max_len:0000000000000000 parameter_string_max_len
/var/folders/d2/nstgp4h54kz7g1l847x_b8wc0000gn/T//ccW13lHv.s:5007   .text.parameter_string_max_len:0000000000000030 $d
/var/folders/d2/nstgp4h54kz7g1l847x_b8wc0000gn/T//ccW13lHv.s:5013   .text.parameter_string_read:0000000000000000 $t
/var/folders/d2/nstgp4h54kz7g1l847x_b8wc0000gn/T//ccW13lHv.s:5021   .text.parameter_string_read:0000000000000000 parameter_string_read
/var/folders/d2/nstgp4h54kz7g1l847x_b8wc0000gn/T//ccW13lHv.s:5194   .text.parameter_string_read:00000000000000a0 $d
/var/folders/d2/nstgp4h54kz7g1l847x_b8wc0000gn/T//ccW13lHv.s:5202   .text.parameter_string_get:0000000000000000 $t
/var/folders/d2/nstgp4h54kz7g1l847x_b8wc0000gn/T//ccW13lHv.s:5210   .text.parameter_string_get:0000000000000000 parameter_string_get
/var/folders/d2/nstgp4h54kz7g1l847x_b8wc0000gn/T//ccW13lHv.s:5267   .text.parameter_string_get:0000000000000030 $d
/var/folders/d2/nstgp4h54kz7g1l847x_b8wc0000gn/T//ccW13lHv.s:5272   .text.parameter_string_set_w_len:0000000000000000 $t
/var/folders/d2/nstgp4h54kz7g1l847x_b8wc0000gn/T//ccW13lHv.s:5280   .text.parameter_string_set_w_len:0000000000000000 parameter_string_set_w_len
/var/folders/d2/nstgp4h54kz7g1l847x_b8wc0000gn/T//ccW13lHv.s:5436   .text.parameter_string_set_w_len:0000000000000084 $d
/var/folders/d2/nstgp4h54kz7g1l847x_b8wc0000gn/T//ccW13lHv.s:5444   .text.parameter_string_set:0000000000000000 $t
/var/folders/d2/nstgp4h54kz7g1l847x_b8wc0000gn/T//ccW13lHv.s:5452   .text.parameter_string_set:0000000000000000 parameter_string_set
/var/folders/d2/nstgp4h54kz7g1l847x_b8wc0000gn/T//ccW13lHv.s:5509   .text.parameter_string_set:0000000000000030 $d
/var/folders/d2/nstgp4h54kz7g1l847x_b8wc0000gn/T//ccW13lHv.s:5514   .rodata.__func__.8162:0000000000000000 $d
/var/folders/d2/nstgp4h54kz7g1l847x_b8wc0000gn/T//ccW13lHv.s:5518   .rodata.__func__.8162:0000000000000000 __func__.8162
/var/folders/d2/nstgp4h54kz7g1l847x_b8wc0000gn/T//ccW13lHv.s:5521   .rodata.__func__.9069:0000000000000000 $d
/var/folders/d2/nstgp4h54kz7g1l847x_b8wc0000gn/T//ccW13lHv.s:5525   .rodata.__func__.9069:0000000000000000 __func__.9069
/var/folders/d2/nstgp4h54kz7g1l847x_b8wc0000gn/T//ccW13lHv.s:5528   .rodata.__func__.9075:0000000000000000 $d
/var/folders/d2/nstgp4h54kz7g1l847x_b8wc0000gn/T//ccW13lHv.s:5532   .rodata.__func__.9075:0000000000000000 __func__.9075
/var/folders/d2/nstgp4h54kz7g1l847x_b8wc0000gn/T//ccW13lHv.s:5535   .rodata.__func__.9093:0000000000000000 $d
/var/folders/d2/nstgp4h54kz7g1l847x_b8wc0000gn/T//ccW13lHv.s:5539   .rodata.__func__.9093:0000000000000000 __func__.9093
/var/folders/d2/nstgp4h54kz7g1l847x_b8wc0000gn/T//ccW13lHv.s:5542   .rodata.__func__.9099:0000000000000000 $d
/var/folders/d2/nstgp4h54kz7g1l847x_b8wc0000gn/T//ccW13lHv.s:5546   .rodata.__func__.9099:0000000000000000 __func__.9099
/var/folders/d2/nstgp4h54kz7g1l847x_b8wc0000gn/T//ccW13lHv.s:5549   .rodata.__func__.9115:0000000000000000 $d
/var/folders/d2/nstgp4h54kz7g1l847x_b8wc0000gn/T//ccW13lHv.s:5553   .rodata.__func__.9115:0000000000000000 __func__.9115
/var/folders/d2/nstgp4h54kz7g1l847x_b8wc0000gn/T//ccW13lHv.s:5556   .rodata.__func__.9122:0000000000000000 $d
/var/folders/d2/nstgp4h54kz7g1l847x_b8wc0000gn/T//ccW13lHv.s:5560   .rodata.__func__.9122:0000000000000000 __func__.9122
/var/folders/d2/nstgp4h54kz7g1l847x_b8wc0000gn/T//ccW13lHv.s:5563   .rodata.__func__.9141:0000000000000000 $d
/var/folders/d2/nstgp4h54kz7g1l847x_b8wc0000gn/T//ccW13lHv.s:5567   .rodata.__func__.9141:0000000000000000 __func__.9141
/var/folders/d2/nstgp4h54kz7g1l847x_b8wc0000gn/T//ccW13lHv.s:5570   .rodata.__func__.9150:0000000000000000 $d
/var/folders/d2/nstgp4h54kz7g1l847x_b8wc0000gn/T//ccW13lHv.s:5574   .rodata.__func__.9150:0000000000000000 __func__.9150
/var/folders/d2/nstgp4h54kz7g1l847x_b8wc0000gn/T//ccW13lHv.s:5577   .rodata.__func__.9159:0000000000000000 $d
/var/folders/d2/nstgp4h54kz7g1l847x_b8wc0000gn/T//ccW13lHv.s:5581   .rodata.__func__.9159:0000000000000000 __func__.9159
/var/folders/d2/nstgp4h54kz7g1l847x_b8wc0000gn/T//ccW13lHv.s:5584   .rodata.__func__.9179:0000000000000000 $d
/var/folders/d2/nstgp4h54kz7g1l847x_b8wc0000gn/T//ccW13lHv.s:5588   .rodata.__func__.9179:0000000000000000 __func__.9179
/var/folders/d2/nstgp4h54kz7g1l847x_b8wc0000gn/T//ccW13lHv.s:5591   .rodata.__func__.9183:0000000000000000 $d
/var/folders/d2/nstgp4h54kz7g1l847x_b8wc0000gn/T//ccW13lHv.s:5595   .rodata.__func__.9183:0000000000000000 __func__.9183
/var/folders/d2/nstgp4h54kz7g1l847x_b8wc0000gn/T//ccW13lHv.s:5598   .rodata.__func__.9192:0000000000000000 $d
/var/folders/d2/nstgp4h54kz7g1l847x_b8wc0000gn/T//ccW13lHv.s:5602   .rodata.__func__.9192:0000000000000000 __func__.9192
/var/folders/d2/nstgp4h54kz7g1l847x_b8wc0000gn/T//ccW13lHv.s:5605   .rodata.__func__.9203:0000000000000000 $d
/var/folders/d2/nstgp4h54kz7g1l847x_b8wc0000gn/T//ccW13lHv.s:5609   .rodata.__func__.9203:0000000000000000 __func__.9203
/var/folders/d2/nstgp4h54kz7g1l847x_b8wc0000gn/T//ccW13lHv.s:5612   .rodata.__func__.9223:0000000000000000 $d
/var/folders/d2/nstgp4h54kz7g1l847x_b8wc0000gn/T//ccW13lHv.s:5616   .rodata.__func__.9223:0000000000000000 __func__.9223
/var/folders/d2/nstgp4h54kz7g1l847x_b8wc0000gn/T//ccW13lHv.s:5619   .rodata.__func__.9227:0000000000000000 $d
ARM GAS  /var/folders/d2/nstgp4h54kz7g1l847x_b8wc0000gn/T//ccW13lHv.s 			page 353


/var/folders/d2/nstgp4h54kz7g1l847x_b8wc0000gn/T//ccW13lHv.s:5623   .rodata.__func__.9227:0000000000000000 __func__.9227
/var/folders/d2/nstgp4h54kz7g1l847x_b8wc0000gn/T//ccW13lHv.s:5626   .rodata.__func__.9238:0000000000000000 $d
/var/folders/d2/nstgp4h54kz7g1l847x_b8wc0000gn/T//ccW13lHv.s:5630   .rodata.__func__.9238:0000000000000000 __func__.9238
/var/folders/d2/nstgp4h54kz7g1l847x_b8wc0000gn/T//ccW13lHv.s:5633   .rodata.__func__.9249:0000000000000000 $d
/var/folders/d2/nstgp4h54kz7g1l847x_b8wc0000gn/T//ccW13lHv.s:5637   .rodata.__func__.9249:0000000000000000 __func__.9249

UNDEFINED SYMBOLS
_stats_start_measure_crit_thd
_dbg_check_lock
_dbg_check_unlock
_stats_stop_measure_crit_thd
strncmp
chSysHalt
__stack_chk_fail
ch
__stack_chk_guard
strlen
strncpy
memcpy
