ARM GAS  /var/folders/d2/nstgp4h54kz7g1l847x_b8wc0000gn/T//cczqi49f.s 			page 1


   1              		.cpu cortex-m4
   2              		.eabi_attribute 27, 1
   3              		.eabi_attribute 28, 1
   4              		.eabi_attribute 20, 1
   5              		.eabi_attribute 21, 1
   6              		.eabi_attribute 23, 3
   7              		.eabi_attribute 24, 1
   8              		.eabi_attribute 25, 1
   9              		.eabi_attribute 26, 1
  10              		.eabi_attribute 30, 6
  11              		.eabi_attribute 34, 1
  12              		.eabi_attribute 18, 4
  13              		.file	"play_melody.c"
  14              		.section	.text.port_lock,"ax",%progbits
  15              		.align	1
  16              		.syntax unified
  17              		.thumb
  18              		.thumb_func
  19              		.fpu fpv4-sp-d16
  20              		.type	port_lock, %function
  21              	port_lock:
  22              		@ args = 0, pretend = 0, frame = 8
  23              		@ frame_needed = 1, uses_anonymous_args = 0
  24              		@ link register save eliminated.
  25 0000 80B4     		push	{r7}
  26 0002 83B0     		sub	sp, sp, #12
  27 0004 00AF     		add	r7, sp, #0
  28 0006 2023     		movs	r3, #32
  29 0008 7B60     		str	r3, [r7, #4]
  30 000a 7B68     		ldr	r3, [r7, #4]
  31              		.syntax unified
  32              	@ 546 "../e-puck2_main-processor/ChibiOS//os/ext/CMSIS/include/core_cmFunc.h" 1
  33 000c 83F31188 		MSR basepri, r3
  34              	@ 0 "" 2
  35              		.thumb
  36              		.syntax unified
  37 0010 00BF     		nop
  38 0012 0C37     		adds	r7, r7, #12
  39 0014 BD46     		mov	sp, r7
  40              		@ sp needed
  41 0016 5DF8047B 		ldr	r7, [sp], #4
  42 001a 7047     		bx	lr
  43              		.size	port_lock, .-port_lock
  44              		.section	.text.port_unlock,"ax",%progbits
  45              		.align	1
  46              		.syntax unified
  47              		.thumb
  48              		.thumb_func
  49              		.fpu fpv4-sp-d16
  50              		.type	port_unlock, %function
  51              	port_unlock:
  52              		@ args = 0, pretend = 0, frame = 8
  53              		@ frame_needed = 1, uses_anonymous_args = 0
  54              		@ link register save eliminated.
  55 0000 80B4     		push	{r7}
  56 0002 83B0     		sub	sp, sp, #12
  57 0004 00AF     		add	r7, sp, #0
ARM GAS  /var/folders/d2/nstgp4h54kz7g1l847x_b8wc0000gn/T//cczqi49f.s 			page 2


  58 0006 0023     		movs	r3, #0
  59 0008 7B60     		str	r3, [r7, #4]
  60 000a 7B68     		ldr	r3, [r7, #4]
  61              		.syntax unified
  62              	@ 546 "../e-puck2_main-processor/ChibiOS//os/ext/CMSIS/include/core_cmFunc.h" 1
  63 000c 83F31188 		MSR basepri, r3
  64              	@ 0 "" 2
  65              		.thumb
  66              		.syntax unified
  67 0010 00BF     		nop
  68 0012 0C37     		adds	r7, r7, #12
  69 0014 BD46     		mov	sp, r7
  70              		@ sp needed
  71 0016 5DF8047B 		ldr	r7, [sp], #4
  72 001a 7047     		bx	lr
  73              		.size	port_unlock, .-port_unlock
  74              		.section	.text.chSysLock,"ax",%progbits
  75              		.align	1
  76              		.syntax unified
  77              		.thumb
  78              		.thumb_func
  79              		.fpu fpv4-sp-d16
  80              		.type	chSysLock, %function
  81              	chSysLock:
  82              		@ args = 0, pretend = 0, frame = 0
  83              		@ frame_needed = 1, uses_anonymous_args = 0
  84 0000 80B5     		push	{r7, lr}
  85 0002 00AF     		add	r7, sp, #0
  86 0004 FFF7FEFF 		bl	port_lock
  87 0008 FFF7FEFF 		bl	_stats_start_measure_crit_thd
  88 000c FFF7FEFF 		bl	_dbg_check_lock
  89 0010 00BF     		nop
  90 0012 80BD     		pop	{r7, pc}
  91              		.size	chSysLock, .-chSysLock
  92              		.section	.text.chSysUnlock,"ax",%progbits
  93              		.align	1
  94              		.syntax unified
  95              		.thumb
  96              		.thumb_func
  97              		.fpu fpv4-sp-d16
  98              		.type	chSysUnlock, %function
  99              	chSysUnlock:
 100              		@ args = 0, pretend = 0, frame = 0
 101              		@ frame_needed = 1, uses_anonymous_args = 0
 102 0000 80B5     		push	{r7, lr}
 103 0002 00AF     		add	r7, sp, #0
 104 0004 FFF7FEFF 		bl	_dbg_check_unlock
 105 0008 FFF7FEFF 		bl	_stats_stop_measure_crit_thd
 106 000c 094B     		ldr	r3, .L6
 107 000e 1B68     		ldr	r3, [r3]
 108 0010 084A     		ldr	r2, .L6
 109 0012 9342     		cmp	r3, r2
 110 0014 0AD0     		beq	.L5
 111 0016 074B     		ldr	r3, .L6
 112 0018 9B69     		ldr	r3, [r3, #24]
 113 001a 9A68     		ldr	r2, [r3, #8]
 114 001c 054B     		ldr	r3, .L6
ARM GAS  /var/folders/d2/nstgp4h54kz7g1l847x_b8wc0000gn/T//cczqi49f.s 			page 3


 115 001e 1B68     		ldr	r3, [r3]
 116 0020 9B68     		ldr	r3, [r3, #8]
 117 0022 9A42     		cmp	r2, r3
 118 0024 02D2     		bcs	.L5
 119 0026 0448     		ldr	r0, .L6+4
 120 0028 FFF7FEFF 		bl	chSysHalt
 121              	.L5:
 122 002c FFF7FEFF 		bl	port_unlock
 123 0030 00BF     		nop
 124 0032 80BD     		pop	{r7, pc}
 125              	.L7:
 126              		.align	2
 127              	.L6:
 128 0034 00000000 		.word	ch
 129 0038 00000000 		.word	__func__.7153
 130              		.size	chSysUnlock, .-chSysUnlock
 131              		.section	.text.chRegSetThreadName,"ax",%progbits
 132              		.align	1
 133              		.syntax unified
 134              		.thumb
 135              		.thumb_func
 136              		.fpu fpv4-sp-d16
 137              		.type	chRegSetThreadName, %function
 138              	chRegSetThreadName:
 139              		@ args = 0, pretend = 0, frame = 8
 140              		@ frame_needed = 1, uses_anonymous_args = 0
 141              		@ link register save eliminated.
 142 0000 80B4     		push	{r7}
 143 0002 83B0     		sub	sp, sp, #12
 144 0004 00AF     		add	r7, sp, #0
 145 0006 7860     		str	r0, [r7, #4]
 146 0008 044B     		ldr	r3, .L9
 147 000a 9B69     		ldr	r3, [r3, #24]
 148 000c 7A68     		ldr	r2, [r7, #4]
 149 000e 9A61     		str	r2, [r3, #24]
 150 0010 00BF     		nop
 151 0012 0C37     		adds	r7, r7, #12
 152 0014 BD46     		mov	sp, r7
 153              		@ sp needed
 154 0016 5DF8047B 		ldr	r7, [sp], #4
 155 001a 7047     		bx	lr
 156              	.L10:
 157              		.align	2
 158              	.L9:
 159 001c 00000000 		.word	ch
 160              		.size	chRegSetThreadName, .-chRegSetThreadName
 161              		.section	.data.play_melody_lock,"aw",%progbits
 162              		.align	2
 163              		.type	play_melody_lock, %object
 164              		.size	play_melody_lock, 20
 165              	play_melody_lock:
 166 0000 00000000 		.word	play_melody_lock
 167 0004 00000000 		.word	play_melody_lock
 168 0008 00000000 		.word	0
 169 000c 00000000 		.word	0
 170 0010 00000000 		.word	0
 171              		.section	.data.play_melody_condvar,"aw",%progbits
ARM GAS  /var/folders/d2/nstgp4h54kz7g1l847x_b8wc0000gn/T//cczqi49f.s 			page 4


 172              		.align	2
 173              		.type	play_melody_condvar, %object
 174              		.size	play_melody_condvar, 8
 175              	play_melody_condvar:
 176 0000 00000000 		.word	play_melody_condvar
 177 0004 00000000 		.word	play_melody_condvar
 178              		.section	.bss.play_melody_ref,"aw",%nobits
 179              		.align	2
 180              		.type	play_melody_ref, %object
 181              		.size	play_melody_ref, 4
 182              	play_melody_ref:
 183 0000 00000000 		.space	4
 184              		.section	.data.play,"aw",%progbits
 185              		.type	play, %object
 186              		.size	play, 1
 187              	play:
 188 0000 01       		.byte	1
 189              		.section	.rodata.mission_impossible_melody,"a",%progbits
 190              		.align	2
 191              		.type	mission_impossible_melody, %object
 192              		.size	mission_impossible_melody, 160
 193              	mission_impossible_melody:
 194 0000 8801     		.short	392
 195 0002 0000     		.short	0
 196 0004 0000     		.short	0
 197 0006 8801     		.short	392
 198 0008 0000     		.short	0
 199 000a 0000     		.short	0
 200 000c D201     		.short	466
 201 000e 0000     		.short	0
 202 0010 0B02     		.short	523
 203 0012 0000     		.short	0
 204 0014 8801     		.short	392
 205 0016 0000     		.short	0
 206 0018 0000     		.short	0
 207 001a 8801     		.short	392
 208 001c 0000     		.short	0
 209 001e 0000     		.short	0
 210 0020 5D01     		.short	349
 211 0022 0000     		.short	0
 212 0024 7201     		.short	370
 213 0026 0000     		.short	0
 214 0028 8801     		.short	392
 215 002a 0000     		.short	0
 216 002c 0000     		.short	0
 217 002e 8801     		.short	392
 218 0030 0000     		.short	0
 219 0032 0000     		.short	0
 220 0034 D201     		.short	466
 221 0036 0000     		.short	0
 222 0038 0B02     		.short	523
 223 003a 0000     		.short	0
 224 003c 8801     		.short	392
 225 003e 0000     		.short	0
 226 0040 0000     		.short	0
 227 0042 8801     		.short	392
 228 0044 0000     		.short	0
ARM GAS  /var/folders/d2/nstgp4h54kz7g1l847x_b8wc0000gn/T//cczqi49f.s 			page 5


 229 0046 0000     		.short	0
 230 0048 5D01     		.short	349
 231 004a 0000     		.short	0
 232 004c 7201     		.short	370
 233 004e 0000     		.short	0
 234 0050 A403     		.short	932
 235 0052 1003     		.short	784
 236 0054 4B02     		.short	587
 237 0056 0000     		.short	0
 238 0058 0000     		.short	0
 239 005a 0000     		.short	0
 240 005c 0000     		.short	0
 241 005e 0000     		.short	0
 242 0060 0000     		.short	0
 243 0062 0000     		.short	0
 244 0064 A403     		.short	932
 245 0066 1003     		.short	784
 246 0068 2A02     		.short	554
 247 006a 0000     		.short	0
 248 006c 0000     		.short	0
 249 006e 0000     		.short	0
 250 0070 0000     		.short	0
 251 0072 0000     		.short	0
 252 0074 0000     		.short	0
 253 0076 0000     		.short	0
 254 0078 A403     		.short	932
 255 007a 1003     		.short	784
 256 007c 0B02     		.short	523
 257 007e 0000     		.short	0
 258 0080 0000     		.short	0
 259 0082 0000     		.short	0
 260 0084 0000     		.short	0
 261 0086 0000     		.short	0
 262 0088 0000     		.short	0
 263 008a 0000     		.short	0
 264 008c D201     		.short	466
 265 008e 0B02     		.short	523
 266 0090 0000     		.short	0
 267 0092 0000     		.short	0
 268 0094 0000     		.short	0
 269 0096 0000     		.short	0
 270 0098 0000     		.short	0
 271 009a 0000     		.short	0
 272 009c 0000     		.short	0
 273 009e 0000     		.short	0
 274              		.section	.rodata.mission_impossible_tempo,"a",%progbits
 275              		.align	2
 276              		.type	mission_impossible_tempo, %object
 277              		.size	mission_impossible_tempo, 320
 278              	mission_impossible_tempo:
 279 0000 00004041 		.word	1094713344
 280 0004 00004041 		.word	1094713344
 281 0008 00004041 		.word	1094713344
 282 000c 00004041 		.word	1094713344
 283 0010 00004041 		.word	1094713344
 284 0014 00004041 		.word	1094713344
 285 0018 00004041 		.word	1094713344
ARM GAS  /var/folders/d2/nstgp4h54kz7g1l847x_b8wc0000gn/T//cczqi49f.s 			page 6


 286 001c 00004041 		.word	1094713344
 287 0020 00004041 		.word	1094713344
 288 0024 00004041 		.word	1094713344
 289 0028 00004041 		.word	1094713344
 290 002c 00004041 		.word	1094713344
 291 0030 00004041 		.word	1094713344
 292 0034 00004041 		.word	1094713344
 293 0038 00004041 		.word	1094713344
 294 003c 00004041 		.word	1094713344
 295 0040 00004041 		.word	1094713344
 296 0044 00004041 		.word	1094713344
 297 0048 00004041 		.word	1094713344
 298 004c 00004041 		.word	1094713344
 299 0050 00004041 		.word	1094713344
 300 0054 00004041 		.word	1094713344
 301 0058 00004041 		.word	1094713344
 302 005c 00004041 		.word	1094713344
 303 0060 00004041 		.word	1094713344
 304 0064 00004041 		.word	1094713344
 305 0068 00004041 		.word	1094713344
 306 006c 00004041 		.word	1094713344
 307 0070 00004041 		.word	1094713344
 308 0074 00004041 		.word	1094713344
 309 0078 00004041 		.word	1094713344
 310 007c 00004041 		.word	1094713344
 311 0080 00004041 		.word	1094713344
 312 0084 00004041 		.word	1094713344
 313 0088 00004041 		.word	1094713344
 314 008c 00004041 		.word	1094713344
 315 0090 00004041 		.word	1094713344
 316 0094 00004041 		.word	1094713344
 317 0098 00004041 		.word	1094713344
 318 009c 00004041 		.word	1094713344
 319 00a0 00004041 		.word	1094713344
 320 00a4 00004041 		.word	1094713344
 321 00a8 00004041 		.word	1094713344
 322 00ac 00004041 		.word	1094713344
 323 00b0 00004041 		.word	1094713344
 324 00b4 00004041 		.word	1094713344
 325 00b8 00004041 		.word	1094713344
 326 00bc 00004041 		.word	1094713344
 327 00c0 00004041 		.word	1094713344
 328 00c4 00004041 		.word	1094713344
 329 00c8 00004041 		.word	1094713344
 330 00cc 00004041 		.word	1094713344
 331 00d0 00004041 		.word	1094713344
 332 00d4 00004041 		.word	1094713344
 333 00d8 00004041 		.word	1094713344
 334 00dc 00004041 		.word	1094713344
 335 00e0 00004041 		.word	1094713344
 336 00e4 00004041 		.word	1094713344
 337 00e8 00004041 		.word	1094713344
 338 00ec 00004041 		.word	1094713344
 339 00f0 00004041 		.word	1094713344
 340 00f4 00004041 		.word	1094713344
 341 00f8 00004041 		.word	1094713344
 342 00fc 00004041 		.word	1094713344
ARM GAS  /var/folders/d2/nstgp4h54kz7g1l847x_b8wc0000gn/T//cczqi49f.s 			page 7


 343 0100 00004041 		.word	1094713344
 344 0104 00004041 		.word	1094713344
 345 0108 00004041 		.word	1094713344
 346 010c 00004041 		.word	1094713344
 347 0110 00004041 		.word	1094713344
 348 0114 00004041 		.word	1094713344
 349 0118 00004041 		.word	1094713344
 350 011c 00004041 		.word	1094713344
 351 0120 00004041 		.word	1094713344
 352 0124 00004041 		.word	1094713344
 353 0128 00004041 		.word	1094713344
 354 012c 00004041 		.word	1094713344
 355 0130 00004041 		.word	1094713344
 356 0134 00004041 		.word	1094713344
 357 0138 00004041 		.word	1094713344
 358 013c 00004041 		.word	1094713344
 359              		.section	.rodata.champions_melody,"a",%progbits
 360              		.align	2
 361              		.type	champions_melody, %object
 362              		.size	champions_melody, 116
 363              	champions_melody:
 364 0000 BA02     		.short	698
 365 0002 9302     		.short	659
 366 0004 BA02     		.short	698
 367 0006 9302     		.short	659
 368 0008 0B02     		.short	523
 369 000a 0000     		.short	0
 370 000c B801     		.short	440
 371 000e 4B02     		.short	587
 372 0010 B801     		.short	440
 373 0012 DC00     		.short	220
 374 0014 0000     		.short	0
 375 0016 C400     		.short	196
 376 0018 0000     		.short	0
 377 001a AF00     		.short	175
 378 001c 0000     		.short	0
 379 001e 0000     		.short	0
 380 0020 C400     		.short	196
 381 0022 0B02     		.short	523
 382 0024 BA02     		.short	698
 383 0026 1003     		.short	784
 384 0028 7003     		.short	880
 385 002a 1704     		.short	1047
 386 002c 7003     		.short	880
 387 002e 4B02     		.short	587
 388 0030 9302     		.short	659
 389 0032 4B02     		.short	587
 390 0034 0000     		.short	0
 391 0036 2601     		.short	294
 392 0038 0601     		.short	262
 393 003a E900     		.short	233
 394 003c DC00     		.short	220
 395 003e 0000     		.short	0
 396 0040 0000     		.short	0
 397 0042 4B02     		.short	587
 398 0044 0B02     		.short	523
 399 0046 4B02     		.short	587
ARM GAS  /var/folders/d2/nstgp4h54kz7g1l847x_b8wc0000gn/T//cczqi49f.s 			page 8


 400 0048 0B02     		.short	523
 401 004a D201     		.short	466
 402 004c A403     		.short	932
 403 004e 7003     		.short	880
 404 0050 A403     		.short	932
 405 0052 7003     		.short	880
 406 0054 1003     		.short	784
 407 0056 7003     		.short	880
 408 0058 BA02     		.short	698
 409 005a A403     		.short	932
 410 005c 7003     		.short	880
 411 005e BA02     		.short	698
 412 0060 A403     		.short	932
 413 0062 3F03     		.short	831
 414 0064 BA02     		.short	698
 415 0066 A403     		.short	932
 416 0068 3F03     		.short	831
 417 006a BA02     		.short	698
 418 006c 0000     		.short	0
 419 006e 6E02     		.short	622
 420 0070 0B02     		.short	523
 421 0072 BA02     		.short	698
 422              		.section	.rodata.champions_tempo,"a",%progbits
 423              		.align	2
 424              		.type	champions_tempo, %object
 425              		.size	champions_tempo, 232
 426              	champions_tempo:
 427 0000 00001040 		.word	1074790400
 428 0004 00001041 		.word	1091567616
 429 0008 00001041 		.word	1091567616
 430 000c 00009040 		.word	1083179008
 431 0010 00009040 		.word	1083179008
 432 0014 00001041 		.word	1091567616
 433 0018 00001041 		.word	1091567616
 434 001c 00009040 		.word	1083179008
 435 0020 00009040 		.word	1083179008
 436 0024 00009041 		.word	1099956224
 437 0028 00009041 		.word	1099956224
 438 002c 00009041 		.word	1099956224
 439 0030 00009041 		.word	1099956224
 440 0034 00009040 		.word	1083179008
 441 0038 00009041 		.word	1099956224
 442 003c 00009041 		.word	1099956224
 443 0040 00009040 		.word	1083179008
 444 0044 00001041 		.word	1091567616
 445 0048 00001040 		.word	1074790400
 446 004c 00001041 		.word	1091567616
 447 0050 00001041 		.word	1091567616
 448 0054 00009040 		.word	1083179008
 449 0058 00009040 		.word	1083179008
 450 005c 00001041 		.word	1091567616
 451 0060 00001041 		.word	1091567616
 452 0064 00009040 		.word	1083179008
 453 0068 00001041 		.word	1091567616
 454 006c 00001041 		.word	1091567616
 455 0070 00001041 		.word	1091567616
 456 0074 00001041 		.word	1091567616
ARM GAS  /var/folders/d2/nstgp4h54kz7g1l847x_b8wc0000gn/T//cczqi49f.s 			page 9


 457 0078 00009040 		.word	1083179008
 458 007c 00009040 		.word	1083179008
 459 0080 00009040 		.word	1083179008
 460 0084 00004040 		.word	1077936128
 461 0088 00009040 		.word	1083179008
 462 008c 00001041 		.word	1091567616
 463 0090 00004040 		.word	1077936128
 464 0094 00004040 		.word	1077936128
 465 0098 00004040 		.word	1077936128
 466 009c 00009040 		.word	1083179008
 467 00a0 00001041 		.word	1091567616
 468 00a4 00004040 		.word	1077936128
 469 00a8 00004040 		.word	1077936128
 470 00ac 00004040 		.word	1077936128
 471 00b0 00009040 		.word	1083179008
 472 00b4 00001041 		.word	1091567616
 473 00b8 00004040 		.word	1077936128
 474 00bc 00009040 		.word	1083179008
 475 00c0 00001041 		.word	1091567616
 476 00c4 00004040 		.word	1077936128
 477 00c8 00009040 		.word	1083179008
 478 00cc 00001041 		.word	1091567616
 479 00d0 00004040 		.word	1077936128
 480 00d4 00004040 		.word	1077936128
 481 00d8 00001040 		.word	1074790400
 482 00dc 00001041 		.word	1091567616
 483 00e0 00001041 		.word	1091567616
 484 00e4 00001040 		.word	1074790400
 485              		.section	.rodata.russia_melody,"a",%progbits
 486              		.align	2
 487              		.type	russia_melody, %object
 488              		.size	russia_melody, 48
 489              	russia_melody:
 490 0000 0000     		.short	0
 491 0002 0000     		.short	0
 492 0004 D201     		.short	466
 493 0006 6E02     		.short	622
 494 0008 D201     		.short	466
 495 000a 0B02     		.short	523
 496 000c 4B02     		.short	587
 497 000e 8801     		.short	392
 498 0010 0B02     		.short	523
 499 0012 D201     		.short	466
 500 0014 9F01     		.short	415
 501 0016 D201     		.short	466
 502 0018 3701     		.short	311
 503 001a 3701     		.short	311
 504 001c 5D01     		.short	349
 505 001e 5D01     		.short	349
 506 0020 8801     		.short	392
 507 0022 9F01     		.short	415
 508 0024 9F01     		.short	415
 509 0026 D201     		.short	466
 510 0028 0B02     		.short	523
 511 002a 4B02     		.short	587
 512 002c 6E02     		.short	622
 513 002e BA02     		.short	698
ARM GAS  /var/folders/d2/nstgp4h54kz7g1l847x_b8wc0000gn/T//cczqi49f.s 			page 10


 514              		.section	.rodata.russia_tempo,"a",%progbits
 515              		.align	2
 516              		.type	russia_tempo, %object
 517              		.size	russia_tempo, 96
 518              	russia_tempo:
 519 0000 00001041 		.word	1091567616
 520 0004 00001041 		.word	1091567616
 521 0008 00001041 		.word	1091567616
 522 000c 00004040 		.word	1077936128
 523 0010 00009040 		.word	1083179008
 524 0014 00001041 		.word	1091567616
 525 0018 00004040 		.word	1077936128
 526 001c 00004040 		.word	1077936128
 527 0020 00004040 		.word	1077936128
 528 0024 00009040 		.word	1083179008
 529 0028 00001041 		.word	1091567616
 530 002c 00004040 		.word	1077936128
 531 0030 00009040 		.word	1083179008
 532 0034 00001041 		.word	1091567616
 533 0038 00004040 		.word	1077936128
 534 003c 00009040 		.word	1083179008
 535 0040 00001041 		.word	1091567616
 536 0044 00004040 		.word	1077936128
 537 0048 00009040 		.word	1083179008
 538 004c 00001041 		.word	1091567616
 539 0050 00004040 		.word	1077936128
 540 0054 00009040 		.word	1083179008
 541 0058 00001041 		.word	1091567616
 542 005c 0000C03F 		.word	1069547520
 543              		.section	.rodata.mario_melody,"a",%progbits
 544              		.align	2
 545              		.type	mario_melody, %object
 546              		.size	mario_melody, 156
 547              	mario_melody:
 548 0000 9302     		.short	659
 549 0002 9302     		.short	659
 550 0004 0000     		.short	0
 551 0006 9302     		.short	659
 552 0008 0000     		.short	0
 553 000a 0B02     		.short	523
 554 000c 9302     		.short	659
 555 000e 0000     		.short	0
 556 0010 1003     		.short	784
 557 0012 0000     		.short	0
 558 0014 0000     		.short	0
 559 0016 0000     		.short	0
 560 0018 8801     		.short	392
 561 001a 0000     		.short	0
 562 001c 0000     		.short	0
 563 001e 0000     		.short	0
 564 0020 0B02     		.short	523
 565 0022 0000     		.short	0
 566 0024 0000     		.short	0
 567 0026 8801     		.short	392
 568 0028 0000     		.short	0
 569 002a 0000     		.short	0
 570 002c 4A01     		.short	330
ARM GAS  /var/folders/d2/nstgp4h54kz7g1l847x_b8wc0000gn/T//cczqi49f.s 			page 11


 571 002e 0000     		.short	0
 572 0030 0000     		.short	0
 573 0032 B801     		.short	440
 574 0034 0000     		.short	0
 575 0036 EE01     		.short	494
 576 0038 0000     		.short	0
 577 003a D201     		.short	466
 578 003c B801     		.short	440
 579 003e 0000     		.short	0
 580 0040 8801     		.short	392
 581 0042 9302     		.short	659
 582 0044 1003     		.short	784
 583 0046 7003     		.short	880
 584 0048 0000     		.short	0
 585 004a BA02     		.short	698
 586 004c 1003     		.short	784
 587 004e 0000     		.short	0
 588 0050 9302     		.short	659
 589 0052 0000     		.short	0
 590 0054 0B02     		.short	523
 591 0056 4B02     		.short	587
 592 0058 EE01     		.short	494
 593 005a 0000     		.short	0
 594 005c 0000     		.short	0
 595 005e 0B02     		.short	523
 596 0060 0000     		.short	0
 597 0062 0000     		.short	0
 598 0064 8801     		.short	392
 599 0066 0000     		.short	0
 600 0068 0000     		.short	0
 601 006a 4A01     		.short	330
 602 006c 0000     		.short	0
 603 006e 0000     		.short	0
 604 0070 B801     		.short	440
 605 0072 0000     		.short	0
 606 0074 EE01     		.short	494
 607 0076 0000     		.short	0
 608 0078 D201     		.short	466
 609 007a B801     		.short	440
 610 007c 0000     		.short	0
 611 007e 8801     		.short	392
 612 0080 9302     		.short	659
 613 0082 1003     		.short	784
 614 0084 7003     		.short	880
 615 0086 0000     		.short	0
 616 0088 BA02     		.short	698
 617 008a 1003     		.short	784
 618 008c 0000     		.short	0
 619 008e 9302     		.short	659
 620 0090 0000     		.short	0
 621 0092 0B02     		.short	523
 622 0094 4B02     		.short	587
 623 0096 EE01     		.short	494
 624 0098 0000     		.short	0
 625 009a 0000     		.short	0
 626              		.section	.rodata.mario_tempo,"a",%progbits
 627              		.align	2
ARM GAS  /var/folders/d2/nstgp4h54kz7g1l847x_b8wc0000gn/T//cczqi49f.s 			page 12


 628              		.type	mario_tempo, %object
 629              		.size	mario_tempo, 312
 630              	mario_tempo:
 631 0000 00004041 		.word	1094713344
 632 0004 00004041 		.word	1094713344
 633 0008 00004041 		.word	1094713344
 634 000c 00004041 		.word	1094713344
 635 0010 00004041 		.word	1094713344
 636 0014 00004041 		.word	1094713344
 637 0018 00004041 		.word	1094713344
 638 001c 00004041 		.word	1094713344
 639 0020 00004041 		.word	1094713344
 640 0024 00004041 		.word	1094713344
 641 0028 00004041 		.word	1094713344
 642 002c 00004041 		.word	1094713344
 643 0030 00004041 		.word	1094713344
 644 0034 00004041 		.word	1094713344
 645 0038 00004041 		.word	1094713344
 646 003c 00004041 		.word	1094713344
 647 0040 00004041 		.word	1094713344
 648 0044 00004041 		.word	1094713344
 649 0048 00004041 		.word	1094713344
 650 004c 00004041 		.word	1094713344
 651 0050 00004041 		.word	1094713344
 652 0054 00004041 		.word	1094713344
 653 0058 00004041 		.word	1094713344
 654 005c 00004041 		.word	1094713344
 655 0060 00004041 		.word	1094713344
 656 0064 00004041 		.word	1094713344
 657 0068 00004041 		.word	1094713344
 658 006c 00004041 		.word	1094713344
 659 0070 00004041 		.word	1094713344
 660 0074 00004041 		.word	1094713344
 661 0078 00004041 		.word	1094713344
 662 007c 00004041 		.word	1094713344
 663 0080 00001041 		.word	1091567616
 664 0084 00001041 		.word	1091567616
 665 0088 00001041 		.word	1091567616
 666 008c 00004041 		.word	1094713344
 667 0090 00004041 		.word	1094713344
 668 0094 00004041 		.word	1094713344
 669 0098 00004041 		.word	1094713344
 670 009c 00004041 		.word	1094713344
 671 00a0 00004041 		.word	1094713344
 672 00a4 00004041 		.word	1094713344
 673 00a8 00004041 		.word	1094713344
 674 00ac 00004041 		.word	1094713344
 675 00b0 00004041 		.word	1094713344
 676 00b4 00004041 		.word	1094713344
 677 00b8 00004041 		.word	1094713344
 678 00bc 00004041 		.word	1094713344
 679 00c0 00004041 		.word	1094713344
 680 00c4 00004041 		.word	1094713344
 681 00c8 00004041 		.word	1094713344
 682 00cc 00004041 		.word	1094713344
 683 00d0 00004041 		.word	1094713344
 684 00d4 00004041 		.word	1094713344
ARM GAS  /var/folders/d2/nstgp4h54kz7g1l847x_b8wc0000gn/T//cczqi49f.s 			page 13


 685 00d8 00004041 		.word	1094713344
 686 00dc 00004041 		.word	1094713344
 687 00e0 00004041 		.word	1094713344
 688 00e4 00004041 		.word	1094713344
 689 00e8 00004041 		.word	1094713344
 690 00ec 00004041 		.word	1094713344
 691 00f0 00004041 		.word	1094713344
 692 00f4 00004041 		.word	1094713344
 693 00f8 00004041 		.word	1094713344
 694 00fc 00001041 		.word	1091567616
 695 0100 00001041 		.word	1091567616
 696 0104 00001041 		.word	1091567616
 697 0108 00004041 		.word	1094713344
 698 010c 00004041 		.word	1094713344
 699 0110 00004041 		.word	1094713344
 700 0114 00004041 		.word	1094713344
 701 0118 00004041 		.word	1094713344
 702 011c 00004041 		.word	1094713344
 703 0120 00004041 		.word	1094713344
 704 0124 00004041 		.word	1094713344
 705 0128 00004041 		.word	1094713344
 706 012c 00004041 		.word	1094713344
 707 0130 00004041 		.word	1094713344
 708 0134 00004041 		.word	1094713344
 709              		.section	.rodata.underworld_melody,"a",%progbits
 710              		.align	2
 711              		.type	underworld_melody, %object
 712              		.size	underworld_melody, 112
 713              	underworld_melody:
 714 0000 0601     		.short	262
 715 0002 0B02     		.short	523
 716 0004 DC00     		.short	220
 717 0006 B801     		.short	440
 718 0008 E900     		.short	233
 719 000a D201     		.short	466
 720 000c 0000     		.short	0
 721 000e 0000     		.short	0
 722 0010 0601     		.short	262
 723 0012 0B02     		.short	523
 724 0014 DC00     		.short	220
 725 0016 B801     		.short	440
 726 0018 E900     		.short	233
 727 001a D201     		.short	466
 728 001c 0000     		.short	0
 729 001e 0000     		.short	0
 730 0020 AF00     		.short	175
 731 0022 5D01     		.short	349
 732 0024 9300     		.short	147
 733 0026 2601     		.short	294
 734 0028 9C00     		.short	156
 735 002a 3701     		.short	311
 736 002c 0000     		.short	0
 737 002e 0000     		.short	0
 738 0030 AF00     		.short	175
 739 0032 5D01     		.short	349
 740 0034 9300     		.short	147
 741 0036 2601     		.short	294
ARM GAS  /var/folders/d2/nstgp4h54kz7g1l847x_b8wc0000gn/T//cczqi49f.s 			page 14


 742 0038 9C00     		.short	156
 743 003a 3701     		.short	311
 744 003c 0000     		.short	0
 745 003e 0000     		.short	0
 746 0040 3701     		.short	311
 747 0042 1501     		.short	277
 748 0044 2601     		.short	294
 749 0046 1501     		.short	277
 750 0048 3701     		.short	311
 751 004a 2601     		.short	294
 752 004c D000     		.short	208
 753 004e C400     		.short	196
 754 0050 1501     		.short	277
 755 0052 0601     		.short	262
 756 0054 7201     		.short	370
 757 0056 5D01     		.short	349
 758 0058 A500     		.short	165
 759 005a D201     		.short	466
 760 005c B801     		.short	440
 761 005e 9F01     		.short	415
 762 0060 3701     		.short	311
 763 0062 F700     		.short	247
 764 0064 E900     		.short	233
 765 0066 DC00     		.short	220
 766 0068 D000     		.short	208
 767 006a 0000     		.short	0
 768 006c 0000     		.short	0
 769 006e 0000     		.short	0
 770              		.section	.rodata.underworld_tempo,"a",%progbits
 771              		.align	2
 772              		.type	underworld_tempo, %object
 773              		.size	underworld_tempo, 224
 774              	underworld_tempo:
 775 0000 00004041 		.word	1094713344
 776 0004 00004041 		.word	1094713344
 777 0008 00004041 		.word	1094713344
 778 000c 00004041 		.word	1094713344
 779 0010 00004041 		.word	1094713344
 780 0014 00004041 		.word	1094713344
 781 0018 0000C040 		.word	1086324736
 782 001c 00004040 		.word	1077936128
 783 0020 00004041 		.word	1094713344
 784 0024 00004041 		.word	1094713344
 785 0028 00004041 		.word	1094713344
 786 002c 00004041 		.word	1094713344
 787 0030 00004041 		.word	1094713344
 788 0034 00004041 		.word	1094713344
 789 0038 0000C040 		.word	1086324736
 790 003c 00004040 		.word	1077936128
 791 0040 00004041 		.word	1094713344
 792 0044 00004041 		.word	1094713344
 793 0048 00004041 		.word	1094713344
 794 004c 00004041 		.word	1094713344
 795 0050 00004041 		.word	1094713344
 796 0054 00004041 		.word	1094713344
 797 0058 0000C040 		.word	1086324736
 798 005c 00004040 		.word	1077936128
ARM GAS  /var/folders/d2/nstgp4h54kz7g1l847x_b8wc0000gn/T//cczqi49f.s 			page 15


 799 0060 00004041 		.word	1094713344
 800 0064 00004041 		.word	1094713344
 801 0068 00004041 		.word	1094713344
 802 006c 00004041 		.word	1094713344
 803 0070 00004041 		.word	1094713344
 804 0074 00004041 		.word	1094713344
 805 0078 0000C040 		.word	1086324736
 806 007c 0000C040 		.word	1086324736
 807 0080 00009041 		.word	1099956224
 808 0084 00009041 		.word	1099956224
 809 0088 00009041 		.word	1099956224
 810 008c 0000C040 		.word	1086324736
 811 0090 0000C040 		.word	1086324736
 812 0094 0000C040 		.word	1086324736
 813 0098 0000C040 		.word	1086324736
 814 009c 0000C040 		.word	1086324736
 815 00a0 0000C040 		.word	1086324736
 816 00a4 00009041 		.word	1099956224
 817 00a8 00009041 		.word	1099956224
 818 00ac 00009041 		.word	1099956224
 819 00b0 00009041 		.word	1099956224
 820 00b4 00009041 		.word	1099956224
 821 00b8 00009041 		.word	1099956224
 822 00bc 00002041 		.word	1092616192
 823 00c0 00002041 		.word	1092616192
 824 00c4 00002041 		.word	1092616192
 825 00c8 00002041 		.word	1092616192
 826 00cc 00002041 		.word	1092616192
 827 00d0 00002041 		.word	1092616192
 828 00d4 00004040 		.word	1077936128
 829 00d8 00004040 		.word	1077936128
 830 00dc 00004040 		.word	1077936128
 831              		.section	.rodata.mario_start_melody,"a",%progbits
 832              		.align	2
 833              		.type	mario_start_melody, %object
 834              		.size	mario_start_melody, 54
 835              	mario_start_melody:
 836 0000 0B02     		.short	523
 837 0002 9302     		.short	659
 838 0004 1003     		.short	784
 839 0006 0B02     		.short	523
 840 0008 9302     		.short	659
 841 000a 1003     		.short	784
 842 000c 9302     		.short	659
 843 000e 0000     		.short	0
 844 0010 0B02     		.short	523
 845 0012 6E02     		.short	622
 846 0014 E402     		.short	740
 847 0016 0B02     		.short	523
 848 0018 6E02     		.short	622
 849 001a E402     		.short	740
 850 001c 6E02     		.short	622
 851 001e 0000     		.short	0
 852 0020 4B02     		.short	587
 853 0022 BA02     		.short	698
 854 0024 A403     		.short	932
 855 0026 4B02     		.short	587
ARM GAS  /var/folders/d2/nstgp4h54kz7g1l847x_b8wc0000gn/T//cczqi49f.s 			page 16


 856 0028 BA02     		.short	698
 857 002a A403     		.short	932
 858 002c A403     		.short	932
 859 002e A403     		.short	932
 860 0030 A403     		.short	932
 861 0032 1704     		.short	1047
 862 0034 0000     		.short	0
 863              		.section	.rodata.mario_start_tempo,"a",%progbits
 864              		.align	2
 865              		.type	mario_start_tempo, %object
 866              		.size	mario_start_tempo, 108
 867              	mario_start_tempo:
 868 0000 00008041 		.word	1098907648
 869 0004 00008041 		.word	1098907648
 870 0008 00008041 		.word	1098907648
 871 000c 00008041 		.word	1098907648
 872 0010 00008041 		.word	1098907648
 873 0014 00008041 		.word	1098907648
 874 0018 00004041 		.word	1094713344
 875 001c 00004041 		.word	1094713344
 876 0020 00008041 		.word	1098907648
 877 0024 00008041 		.word	1098907648
 878 0028 00008041 		.word	1098907648
 879 002c 00008041 		.word	1098907648
 880 0030 00008041 		.word	1098907648
 881 0034 00008041 		.word	1098907648
 882 0038 00004041 		.word	1094713344
 883 003c 00004041 		.word	1094713344
 884 0040 00008041 		.word	1098907648
 885 0044 00008041 		.word	1098907648
 886 0048 00008041 		.word	1098907648
 887 004c 00008041 		.word	1098907648
 888 0050 00008041 		.word	1098907648
 889 0054 00008041 		.word	1098907648
 890 0058 00009841 		.word	1100480512
 891 005c 00009841 		.word	1100480512
 892 0060 00009841 		.word	1100480512
 893 0064 00002041 		.word	1092616192
 894 0068 00002041 		.word	1092616192
 895              		.section	.rodata.mario_death_melody,"a",%progbits
 896              		.align	2
 897              		.type	mario_death_melody, %object
 898              		.size	mario_death_melody, 24
 899              	mario_death_melody:
 900 0000 F700     		.short	247
 901 0002 5D01     		.short	349
 902 0004 0000     		.short	0
 903 0006 5D01     		.short	349
 904 0008 5D01     		.short	349
 905 000a 4A01     		.short	330
 906 000c 2601     		.short	294
 907 000e 0601     		.short	262
 908 0010 A500     		.short	165
 909 0012 0000     		.short	0
 910 0014 A500     		.short	165
 911 0016 8300     		.short	131
 912              		.section	.rodata.mario_death_tempo,"a",%progbits
ARM GAS  /var/folders/d2/nstgp4h54kz7g1l847x_b8wc0000gn/T//cczqi49f.s 			page 17


 913              		.align	2
 914              		.type	mario_death_tempo, %object
 915              		.size	mario_death_tempo, 48
 916              	mario_death_tempo:
 917 0000 00004041 		.word	1094713344
 918 0004 00004041 		.word	1094713344
 919 0008 00004041 		.word	1094713344
 920 000c 00004041 		.word	1094713344
 921 0010 00001041 		.word	1091567616
 922 0014 00001041 		.word	1091567616
 923 0018 00001041 		.word	1091567616
 924 001c 00004041 		.word	1094713344
 925 0020 00004041 		.word	1094713344
 926 0024 00008041 		.word	1098907648
 927 0028 00004041 		.word	1094713344
 928 002c 00004041 		.word	1094713344
 929              		.section	.rodata.mario_flagpole,"a",%progbits
 930              		.align	2
 931              		.type	mario_flagpole, %object
 932              		.size	mario_flagpole, 54
 933              	mario_flagpole:
 934 0000 6200     		.short	98
 935 0002 8300     		.short	131
 936 0004 A500     		.short	165
 937 0006 C400     		.short	196
 938 0008 0601     		.short	262
 939 000a 4A01     		.short	330
 940 000c 8801     		.short	392
 941 000e 4A01     		.short	330
 942 0010 6800     		.short	104
 943 0012 8300     		.short	131
 944 0014 9C00     		.short	156
 945 0016 D000     		.short	208
 946 0018 0601     		.short	262
 947 001a 3701     		.short	311
 948 001c 9F01     		.short	415
 949 001e 3701     		.short	311
 950 0020 7500     		.short	117
 951 0022 9300     		.short	147
 952 0024 AF00     		.short	175
 953 0026 E900     		.short	233
 954 0028 2601     		.short	294
 955 002a 5D01     		.short	349
 956 002c D201     		.short	466
 957 002e EE01     		.short	494
 958 0030 EE01     		.short	494
 959 0032 EE01     		.short	494
 960 0034 0B02     		.short	523
 961              		.section	.rodata.mario_flagpole_tempo,"a",%progbits
 962              		.align	2
 963              		.type	mario_flagpole_tempo, %object
 964              		.size	mario_flagpole_tempo, 108
 965              	mario_flagpole_tempo:
 966 0000 00007041 		.word	1097859072
 967 0004 00007041 		.word	1097859072
 968 0008 00007041 		.word	1097859072
 969 000c 00007041 		.word	1097859072
ARM GAS  /var/folders/d2/nstgp4h54kz7g1l847x_b8wc0000gn/T//cczqi49f.s 			page 18


 970 0010 00007041 		.word	1097859072
 971 0014 00007041 		.word	1097859072
 972 0018 00009040 		.word	1083179008
 973 001c 00009040 		.word	1083179008
 974 0020 00007041 		.word	1097859072
 975 0024 00007041 		.word	1097859072
 976 0028 00007041 		.word	1097859072
 977 002c 00007041 		.word	1097859072
 978 0030 00007041 		.word	1097859072
 979 0034 00007041 		.word	1097859072
 980 0038 00009040 		.word	1083179008
 981 003c 00009040 		.word	1083179008
 982 0040 00007041 		.word	1097859072
 983 0044 00007041 		.word	1097859072
 984 0048 00007041 		.word	1097859072
 985 004c 00007041 		.word	1097859072
 986 0050 00007041 		.word	1097859072
 987 0054 00007041 		.word	1097859072
 988 0058 00009040 		.word	1083179008
 989 005c 00007041 		.word	1097859072
 990 0060 00007041 		.word	1097859072
 991 0064 00007041 		.word	1097859072
 992 0068 00004040 		.word	1077936128
 993              		.section	.rodata.walking_melody,"a",%progbits
 994              		.align	2
 995              		.type	walking_melody, %object
 996              		.size	walking_melody, 18
 997              	walking_melody:
 998 0000 AF00     		.short	175
 999 0002 DC00     		.short	220
 1000 0004 8300     		.short	131
 1001 0006 A500     		.short	165
 1002 0008 AF00     		.short	175
 1003 000a DC00     		.short	220
 1004 000c 8300     		.short	131
 1005 000e 9300     		.short	147
 1006 0010 A500     		.short	165
 1007              		.section	.rodata.walking_melody_tempo,"a",%progbits
 1008              		.align	2
 1009              		.type	walking_melody_tempo, %object
 1010              		.size	walking_melody_tempo, 36
 1011              	walking_melody_tempo:
 1012 0000 0000C040 		.word	1086324736
 1013 0004 00001041 		.word	1091567616
 1014 0008 0000C040 		.word	1086324736
 1015 000c 00001041 		.word	1091567616
 1016 0010 0000C040 		.word	1086324736
 1017 0014 00001041 		.word	1091567616
 1018 0018 00004041 		.word	1094713344
 1019 001c 00004041 		.word	1094713344
 1020 0020 00004041 		.word	1094713344
 1021              		.section	.rodata.pirate_melody,"a",%progbits
 1022              		.align	2
 1023              		.type	pirate_melody, %object
 1024              		.size	pirate_melody, 406
 1025              	pirate_melody:
 1026 0000 4A01     		.short	330
ARM GAS  /var/folders/d2/nstgp4h54kz7g1l847x_b8wc0000gn/T//cczqi49f.s 			page 19


 1027 0002 8801     		.short	392
 1028 0004 B801     		.short	440
 1029 0006 B801     		.short	440
 1030 0008 0000     		.short	0
 1031 000a B801     		.short	440
 1032 000c EE01     		.short	494
 1033 000e 0B02     		.short	523
 1034 0010 0B02     		.short	523
 1035 0012 0000     		.short	0
 1036 0014 0B02     		.short	523
 1037 0016 4B02     		.short	587
 1038 0018 EE01     		.short	494
 1039 001a EE01     		.short	494
 1040 001c 0000     		.short	0
 1041 001e B801     		.short	440
 1042 0020 8801     		.short	392
 1043 0022 B801     		.short	440
 1044 0024 0000     		.short	0
 1045 0026 4A01     		.short	330
 1046 0028 8801     		.short	392
 1047 002a B801     		.short	440
 1048 002c B801     		.short	440
 1049 002e 0000     		.short	0
 1050 0030 B801     		.short	440
 1051 0032 EE01     		.short	494
 1052 0034 0B02     		.short	523
 1053 0036 0B02     		.short	523
 1054 0038 0000     		.short	0
 1055 003a 0B02     		.short	523
 1056 003c 4B02     		.short	587
 1057 003e EE01     		.short	494
 1058 0040 EE01     		.short	494
 1059 0042 0000     		.short	0
 1060 0044 B801     		.short	440
 1061 0046 8801     		.short	392
 1062 0048 B801     		.short	440
 1063 004a 0000     		.short	0
 1064 004c 4A01     		.short	330
 1065 004e 8801     		.short	392
 1066 0050 B801     		.short	440
 1067 0052 B801     		.short	440
 1068 0054 0000     		.short	0
 1069 0056 B801     		.short	440
 1070 0058 0B02     		.short	523
 1071 005a 4B02     		.short	587
 1072 005c 4B02     		.short	587
 1073 005e 0000     		.short	0
 1074 0060 4B02     		.short	587
 1075 0062 9302     		.short	659
 1076 0064 BA02     		.short	698
 1077 0066 BA02     		.short	698
 1078 0068 0000     		.short	0
 1079 006a 9302     		.short	659
 1080 006c 4B02     		.short	587
 1081 006e 9302     		.short	659
 1082 0070 B801     		.short	440
 1083 0072 0000     		.short	0
ARM GAS  /var/folders/d2/nstgp4h54kz7g1l847x_b8wc0000gn/T//cczqi49f.s 			page 20


 1084 0074 B801     		.short	440
 1085 0076 EE01     		.short	494
 1086 0078 0B02     		.short	523
 1087 007a 0B02     		.short	523
 1088 007c 0000     		.short	0
 1089 007e 4B02     		.short	587
 1090 0080 9302     		.short	659
 1091 0082 B801     		.short	440
 1092 0084 0000     		.short	0
 1093 0086 B801     		.short	440
 1094 0088 0B02     		.short	523
 1095 008a EE01     		.short	494
 1096 008c EE01     		.short	494
 1097 008e 0000     		.short	0
 1098 0090 0B02     		.short	523
 1099 0092 B801     		.short	440
 1100 0094 EE01     		.short	494
 1101 0096 0000     		.short	0
 1102 0098 B801     		.short	440
 1103 009a B801     		.short	440
 1104 009c B801     		.short	440
 1105 009e EE01     		.short	494
 1106 00a0 0B02     		.short	523
 1107 00a2 0B02     		.short	523
 1108 00a4 0000     		.short	0
 1109 00a6 0B02     		.short	523
 1110 00a8 4B02     		.short	587
 1111 00aa EE01     		.short	494
 1112 00ac EE01     		.short	494
 1113 00ae 0000     		.short	0
 1114 00b0 B801     		.short	440
 1115 00b2 8801     		.short	392
 1116 00b4 B801     		.short	440
 1117 00b6 0000     		.short	0
 1118 00b8 4A01     		.short	330
 1119 00ba 8801     		.short	392
 1120 00bc B801     		.short	440
 1121 00be B801     		.short	440
 1122 00c0 0000     		.short	0
 1123 00c2 B801     		.short	440
 1124 00c4 EE01     		.short	494
 1125 00c6 0B02     		.short	523
 1126 00c8 0B02     		.short	523
 1127 00ca 0000     		.short	0
 1128 00cc 0B02     		.short	523
 1129 00ce 4B02     		.short	587
 1130 00d0 EE01     		.short	494
 1131 00d2 EE01     		.short	494
 1132 00d4 0000     		.short	0
 1133 00d6 B801     		.short	440
 1134 00d8 8801     		.short	392
 1135 00da B801     		.short	440
 1136 00dc 0000     		.short	0
 1137 00de 4A01     		.short	330
 1138 00e0 8801     		.short	392
 1139 00e2 B801     		.short	440
 1140 00e4 B801     		.short	440
ARM GAS  /var/folders/d2/nstgp4h54kz7g1l847x_b8wc0000gn/T//cczqi49f.s 			page 21


 1141 00e6 0000     		.short	0
 1142 00e8 B801     		.short	440
 1143 00ea 0B02     		.short	523
 1144 00ec 4B02     		.short	587
 1145 00ee 4B02     		.short	587
 1146 00f0 0000     		.short	0
 1147 00f2 4B02     		.short	587
 1148 00f4 9302     		.short	659
 1149 00f6 BA02     		.short	698
 1150 00f8 BA02     		.short	698
 1151 00fa 0000     		.short	0
 1152 00fc 9302     		.short	659
 1153 00fe 4B02     		.short	587
 1154 0100 9302     		.short	659
 1155 0102 B801     		.short	440
 1156 0104 0000     		.short	0
 1157 0106 B801     		.short	440
 1158 0108 EE01     		.short	494
 1159 010a 0B02     		.short	523
 1160 010c 0B02     		.short	523
 1161 010e 0000     		.short	0
 1162 0110 4B02     		.short	587
 1163 0112 9302     		.short	659
 1164 0114 B801     		.short	440
 1165 0116 0000     		.short	0
 1166 0118 B801     		.short	440
 1167 011a 0B02     		.short	523
 1168 011c EE01     		.short	494
 1169 011e EE01     		.short	494
 1170 0120 0000     		.short	0
 1171 0122 0B02     		.short	523
 1172 0124 B801     		.short	440
 1173 0126 EE01     		.short	494
 1174 0128 0000     		.short	0
 1175 012a 9302     		.short	659
 1176 012c 0000     		.short	0
 1177 012e 0000     		.short	0
 1178 0130 BA02     		.short	698
 1179 0132 0000     		.short	0
 1180 0134 0000     		.short	0
 1181 0136 9302     		.short	659
 1182 0138 9302     		.short	659
 1183 013a 0000     		.short	0
 1184 013c 1003     		.short	784
 1185 013e 0000     		.short	0
 1186 0140 9302     		.short	659
 1187 0142 4B02     		.short	587
 1188 0144 0000     		.short	0
 1189 0146 0000     		.short	0
 1190 0148 4B02     		.short	587
 1191 014a 0000     		.short	0
 1192 014c 0000     		.short	0
 1193 014e 0B02     		.short	523
 1194 0150 0000     		.short	0
 1195 0152 0000     		.short	0
 1196 0154 EE01     		.short	494
 1197 0156 0B02     		.short	523
ARM GAS  /var/folders/d2/nstgp4h54kz7g1l847x_b8wc0000gn/T//cczqi49f.s 			page 22


 1198 0158 0000     		.short	0
 1199 015a EE01     		.short	494
 1200 015c 0000     		.short	0
 1201 015e B801     		.short	440
 1202 0160 9302     		.short	659
 1203 0162 0000     		.short	0
 1204 0164 0000     		.short	0
 1205 0166 BA02     		.short	698
 1206 0168 0000     		.short	0
 1207 016a 0000     		.short	0
 1208 016c 9302     		.short	659
 1209 016e 9302     		.short	659
 1210 0170 0000     		.short	0
 1211 0172 1003     		.short	784
 1212 0174 0000     		.short	0
 1213 0176 9302     		.short	659
 1214 0178 4B02     		.short	587
 1215 017a 0000     		.short	0
 1216 017c 0000     		.short	0
 1217 017e 4B02     		.short	587
 1218 0180 0000     		.short	0
 1219 0182 0000     		.short	0
 1220 0184 0B02     		.short	523
 1221 0186 0000     		.short	0
 1222 0188 0000     		.short	0
 1223 018a EE01     		.short	494
 1224 018c 0B02     		.short	523
 1225 018e 0000     		.short	0
 1226 0190 EE01     		.short	494
 1227 0192 0000     		.short	0
 1228 0194 B801     		.short	440
 1229              		.section	.rodata.pirate_tempo,"a",%progbits
 1230              		.align	2
 1231              		.type	pirate_tempo, %object
 1232              		.size	pirate_tempo, 812
 1233              	pirate_tempo:
 1234 0000 00002041 		.word	1092616192
 1235 0004 00002041 		.word	1092616192
 1236 0008 0000A040 		.word	1084227584
 1237 000c 00002041 		.word	1092616192
 1238 0010 00002041 		.word	1092616192
 1239 0014 00002041 		.word	1092616192
 1240 0018 00002041 		.word	1092616192
 1241 001c 0000A040 		.word	1084227584
 1242 0020 00002041 		.word	1092616192
 1243 0024 00002041 		.word	1092616192
 1244 0028 00002041 		.word	1092616192
 1245 002c 00002041 		.word	1092616192
 1246 0030 0000A040 		.word	1084227584
 1247 0034 00002041 		.word	1092616192
 1248 0038 00002041 		.word	1092616192
 1249 003c 00002041 		.word	1092616192
 1250 0040 00002041 		.word	1092616192
 1251 0044 00004040 		.word	1077936128
 1252 0048 00002041 		.word	1092616192
 1253 004c 00002041 		.word	1092616192
 1254 0050 00002041 		.word	1092616192
ARM GAS  /var/folders/d2/nstgp4h54kz7g1l847x_b8wc0000gn/T//cczqi49f.s 			page 23


 1255 0054 0000A040 		.word	1084227584
 1256 0058 00002041 		.word	1092616192
 1257 005c 00002041 		.word	1092616192
 1258 0060 00002041 		.word	1092616192
 1259 0064 00002041 		.word	1092616192
 1260 0068 0000A040 		.word	1084227584
 1261 006c 00002041 		.word	1092616192
 1262 0070 00002041 		.word	1092616192
 1263 0074 00002041 		.word	1092616192
 1264 0078 00002041 		.word	1092616192
 1265 007c 0000A040 		.word	1084227584
 1266 0080 00002041 		.word	1092616192
 1267 0084 00002041 		.word	1092616192
 1268 0088 00002041 		.word	1092616192
 1269 008c 00002041 		.word	1092616192
 1270 0090 00004040 		.word	1077936128
 1271 0094 00002041 		.word	1092616192
 1272 0098 00002041 		.word	1092616192
 1273 009c 00002041 		.word	1092616192
 1274 00a0 0000A040 		.word	1084227584
 1275 00a4 00002041 		.word	1092616192
 1276 00a8 00002041 		.word	1092616192
 1277 00ac 00002041 		.word	1092616192
 1278 00b0 00002041 		.word	1092616192
 1279 00b4 0000A040 		.word	1084227584
 1280 00b8 00002041 		.word	1092616192
 1281 00bc 00002041 		.word	1092616192
 1282 00c0 00002041 		.word	1092616192
 1283 00c4 00002041 		.word	1092616192
 1284 00c8 0000A040 		.word	1084227584
 1285 00cc 00002041 		.word	1092616192
 1286 00d0 00002041 		.word	1092616192
 1287 00d4 00002041 		.word	1092616192
 1288 00d8 00002041 		.word	1092616192
 1289 00dc 00004040 		.word	1077936128
 1290 00e0 00002041 		.word	1092616192
 1291 00e4 00002041 		.word	1092616192
 1292 00e8 00002041 		.word	1092616192
 1293 00ec 00002041 		.word	1092616192
 1294 00f0 0000A040 		.word	1084227584
 1295 00f4 00002041 		.word	1092616192
 1296 00f8 00002041 		.word	1092616192
 1297 00fc 0000A040 		.word	1084227584
 1298 0100 00002041 		.word	1092616192
 1299 0104 0000A040 		.word	1084227584
 1300 0108 00002041 		.word	1092616192
 1301 010c 00002041 		.word	1092616192
 1302 0110 00002041 		.word	1092616192
 1303 0114 0000A040 		.word	1084227584
 1304 0118 00002041 		.word	1092616192
 1305 011c 00002041 		.word	1092616192
 1306 0120 00002041 		.word	1092616192
 1307 0124 00002041 		.word	1092616192
 1308 0128 00004040 		.word	1077936128
 1309 012c 00004040 		.word	1077936128
 1310 0130 0000A040 		.word	1084227584
 1311 0134 00002041 		.word	1092616192
ARM GAS  /var/folders/d2/nstgp4h54kz7g1l847x_b8wc0000gn/T//cczqi49f.s 			page 24


 1312 0138 00002041 		.word	1092616192
 1313 013c 00002041 		.word	1092616192
 1314 0140 0000A040 		.word	1084227584
 1315 0144 00002041 		.word	1092616192
 1316 0148 00002041 		.word	1092616192
 1317 014c 00002041 		.word	1092616192
 1318 0150 00002041 		.word	1092616192
 1319 0154 0000A040 		.word	1084227584
 1320 0158 00002041 		.word	1092616192
 1321 015c 00002041 		.word	1092616192
 1322 0160 00002041 		.word	1092616192
 1323 0164 00002041 		.word	1092616192
 1324 0168 00004040 		.word	1077936128
 1325 016c 00002041 		.word	1092616192
 1326 0170 00002041 		.word	1092616192
 1327 0174 00002041 		.word	1092616192
 1328 0178 0000A040 		.word	1084227584
 1329 017c 00002041 		.word	1092616192
 1330 0180 00002041 		.word	1092616192
 1331 0184 00002041 		.word	1092616192
 1332 0188 00002041 		.word	1092616192
 1333 018c 0000A040 		.word	1084227584
 1334 0190 00002041 		.word	1092616192
 1335 0194 00002041 		.word	1092616192
 1336 0198 00002041 		.word	1092616192
 1337 019c 00002041 		.word	1092616192
 1338 01a0 0000A040 		.word	1084227584
 1339 01a4 00002041 		.word	1092616192
 1340 01a8 00002041 		.word	1092616192
 1341 01ac 00002041 		.word	1092616192
 1342 01b0 00002041 		.word	1092616192
 1343 01b4 00004040 		.word	1077936128
 1344 01b8 00002041 		.word	1092616192
 1345 01bc 00002041 		.word	1092616192
 1346 01c0 00002041 		.word	1092616192
 1347 01c4 0000A040 		.word	1084227584
 1348 01c8 00002041 		.word	1092616192
 1349 01cc 00002041 		.word	1092616192
 1350 01d0 00002041 		.word	1092616192
 1351 01d4 00002041 		.word	1092616192
 1352 01d8 0000A040 		.word	1084227584
 1353 01dc 00002041 		.word	1092616192
 1354 01e0 00002041 		.word	1092616192
 1355 01e4 00002041 		.word	1092616192
 1356 01e8 00002041 		.word	1092616192
 1357 01ec 0000A040 		.word	1084227584
 1358 01f0 00002041 		.word	1092616192
 1359 01f4 00002041 		.word	1092616192
 1360 01f8 00002041 		.word	1092616192
 1361 01fc 00002041 		.word	1092616192
 1362 0200 00002041 		.word	1092616192
 1363 0204 00002041 		.word	1092616192
 1364 0208 00002041 		.word	1092616192
 1365 020c 00002041 		.word	1092616192
 1366 0210 00002041 		.word	1092616192
 1367 0214 0000A040 		.word	1084227584
 1368 0218 00002041 		.word	1092616192
ARM GAS  /var/folders/d2/nstgp4h54kz7g1l847x_b8wc0000gn/T//cczqi49f.s 			page 25


 1369 021c 00002041 		.word	1092616192
 1370 0220 0000A040 		.word	1084227584
 1371 0224 00002041 		.word	1092616192
 1372 0228 00002041 		.word	1092616192
 1373 022c 00002041 		.word	1092616192
 1374 0230 00002041 		.word	1092616192
 1375 0234 00002041 		.word	1092616192
 1376 0238 0000A040 		.word	1084227584
 1377 023c 00002041 		.word	1092616192
 1378 0240 00002041 		.word	1092616192
 1379 0244 00002041 		.word	1092616192
 1380 0248 00002041 		.word	1092616192
 1381 024c 00004040 		.word	1077936128
 1382 0250 00004040 		.word	1077936128
 1383 0254 0000A040 		.word	1084227584
 1384 0258 00002041 		.word	1092616192
 1385 025c 0000A040 		.word	1084227584
 1386 0260 0000A040 		.word	1084227584
 1387 0264 00002041 		.word	1092616192
 1388 0268 0000A040 		.word	1084227584
 1389 026c 00002041 		.word	1092616192
 1390 0270 00002041 		.word	1092616192
 1391 0274 00002041 		.word	1092616192
 1392 0278 00002041 		.word	1092616192
 1393 027c 00002041 		.word	1092616192
 1394 0280 00002041 		.word	1092616192
 1395 0284 00002041 		.word	1092616192
 1396 0288 00002041 		.word	1092616192
 1397 028c 0000A040 		.word	1084227584
 1398 0290 0000A040 		.word	1084227584
 1399 0294 00002041 		.word	1092616192
 1400 0298 0000A040 		.word	1084227584
 1401 029c 0000A040 		.word	1084227584
 1402 02a0 00002041 		.word	1092616192
 1403 02a4 0000A040 		.word	1084227584
 1404 02a8 00002041 		.word	1092616192
 1405 02ac 00002041 		.word	1092616192
 1406 02b0 00002041 		.word	1092616192
 1407 02b4 00002041 		.word	1092616192
 1408 02b8 00002041 		.word	1092616192
 1409 02bc 00000040 		.word	1073741824
 1410 02c0 0000A040 		.word	1084227584
 1411 02c4 00002041 		.word	1092616192
 1412 02c8 0000A040 		.word	1084227584
 1413 02cc 0000A040 		.word	1084227584
 1414 02d0 00002041 		.word	1092616192
 1415 02d4 0000A040 		.word	1084227584
 1416 02d8 00002041 		.word	1092616192
 1417 02dc 00002041 		.word	1092616192
 1418 02e0 00002041 		.word	1092616192
 1419 02e4 00002041 		.word	1092616192
 1420 02e8 00002041 		.word	1092616192
 1421 02ec 00002041 		.word	1092616192
 1422 02f0 00002041 		.word	1092616192
 1423 02f4 00002041 		.word	1092616192
 1424 02f8 0000A040 		.word	1084227584
 1425 02fc 0000A040 		.word	1084227584
ARM GAS  /var/folders/d2/nstgp4h54kz7g1l847x_b8wc0000gn/T//cczqi49f.s 			page 26


 1426 0300 00002041 		.word	1092616192
 1427 0304 0000A040 		.word	1084227584
 1428 0308 0000A040 		.word	1084227584
 1429 030c 00002041 		.word	1092616192
 1430 0310 0000A040 		.word	1084227584
 1431 0314 00002041 		.word	1092616192
 1432 0318 00002041 		.word	1092616192
 1433 031c 00002041 		.word	1092616192
 1434 0320 00002041 		.word	1092616192
 1435 0324 00002041 		.word	1092616192
 1436 0328 00000040 		.word	1073741824
 1437              		.section	.rodata.simpson_melody,"a",%progbits
 1438              		.align	2
 1439              		.type	simpson_melody, %object
 1440              		.size	simpson_melody, 68
 1441              	simpson_melody:
 1442 0000 9300     		.short	147
 1443 0002 0000     		.short	0
 1444 0004 0000     		.short	0
 1445 0006 A500     		.short	165
 1446 0008 0000     		.short	0
 1447 000a B900     		.short	185
 1448 000c 0000     		.short	0
 1449 000e DC00     		.short	220
 1450 0010 C400     		.short	196
 1451 0012 0000     		.short	0
 1452 0014 0000     		.short	0
 1453 0016 A500     		.short	165
 1454 0018 0000     		.short	0
 1455 001a 8300     		.short	131
 1456 001c 0000     		.short	0
 1457 001e 6E00     		.short	110
 1458 0020 5D00     		.short	93
 1459 0022 5D00     		.short	93
 1460 0024 5D00     		.short	93
 1461 0026 6200     		.short	98
 1462 0028 0000     		.short	0
 1463 002a B900     		.short	185
 1464 002c B900     		.short	185
 1465 002e B900     		.short	185
 1466 0030 C400     		.short	196
 1467 0032 E900     		.short	233
 1468 0034 0000     		.short	0
 1469 0036 0000     		.short	0
 1470 0038 F700     		.short	247
 1471 003a 0000     		.short	0
 1472 003c 0000     		.short	0
 1473 003e 0000     		.short	0
 1474 0040 0000     		.short	0
 1475 0042 0000     		.short	0
 1476              		.section	.rodata.simpson_tempo,"a",%progbits
 1477              		.align	2
 1478              		.type	simpson_tempo, %object
 1479              		.size	simpson_tempo, 120
 1480              	simpson_tempo:
 1481 0000 00004041 		.word	1094713344
 1482 0004 00004041 		.word	1094713344
ARM GAS  /var/folders/d2/nstgp4h54kz7g1l847x_b8wc0000gn/T//cczqi49f.s 			page 27


 1483 0008 00004041 		.word	1094713344
 1484 000c 00004041 		.word	1094713344
 1485 0010 00004041 		.word	1094713344
 1486 0014 00004041 		.word	1094713344
 1487 0018 00004041 		.word	1094713344
 1488 001c 00004041 		.word	1094713344
 1489 0020 00004041 		.word	1094713344
 1490 0024 00004041 		.word	1094713344
 1491 0028 00004041 		.word	1094713344
 1492 002c 00004041 		.word	1094713344
 1493 0030 00004041 		.word	1094713344
 1494 0034 00004041 		.word	1094713344
 1495 0038 00004041 		.word	1094713344
 1496 003c 00004041 		.word	1094713344
 1497 0040 00004041 		.word	1094713344
 1498 0044 00004041 		.word	1094713344
 1499 0048 00004041 		.word	1094713344
 1500 004c 00004041 		.word	1094713344
 1501 0050 00004041 		.word	1094713344
 1502 0054 00004041 		.word	1094713344
 1503 0058 00004041 		.word	1094713344
 1504 005c 00004041 		.word	1094713344
 1505 0060 00004041 		.word	1094713344
 1506 0064 00004041 		.word	1094713344
 1507 0068 00004041 		.word	1094713344
 1508 006c 00004041 		.word	1094713344
 1509 0070 00004041 		.word	1094713344
 1510 0074 00004041 		.word	1094713344
 1511              		.section	.rodata.starwars_melody,"a",%progbits
 1512              		.align	2
 1513              		.type	starwars_melody, %object
 1514              		.size	starwars_melody, 38
 1515              	starwars_melody:
 1516 0000 B801     		.short	440
 1517 0002 B801     		.short	440
 1518 0004 B801     		.short	440
 1519 0006 5D01     		.short	349
 1520 0008 0B02     		.short	523
 1521 000a B801     		.short	440
 1522 000c 5D01     		.short	349
 1523 000e 0B02     		.short	523
 1524 0010 B801     		.short	440
 1525 0012 0000     		.short	0
 1526 0014 9302     		.short	659
 1527 0016 9302     		.short	659
 1528 0018 9302     		.short	659
 1529 001a BA02     		.short	698
 1530 001c 0B02     		.short	523
 1531 001e 9F01     		.short	415
 1532 0020 5D01     		.short	349
 1533 0022 0B02     		.short	523
 1534 0024 B801     		.short	440
 1535              		.section	.rodata.starwars_tempo,"a",%progbits
 1536              		.align	2
 1537              		.type	starwars_tempo, %object
 1538              		.size	starwars_tempo, 76
 1539              	starwars_tempo:
ARM GAS  /var/folders/d2/nstgp4h54kz7g1l847x_b8wc0000gn/T//cczqi49f.s 			page 28


 1540 0000 66666640 		.word	1080452710
 1541 0004 66666640 		.word	1080452710
 1542 0008 66666640 		.word	1080452710
 1543 000c 9A999940 		.word	1083808154
 1544 0010 00004041 		.word	1094713344
 1545 0014 66666640 		.word	1080452710
 1546 0018 9A999940 		.word	1083808154
 1547 001c 00004041 		.word	1094713344
 1548 0020 66666640 		.word	1080452710
 1549 0024 00000040 		.word	1073741824
 1550 0028 66666640 		.word	1080452710
 1551 002c 66666640 		.word	1080452710
 1552 0030 66666640 		.word	1080452710
 1553 0034 9A999940 		.word	1083808154
 1554 0038 00004041 		.word	1094713344
 1555 003c 66666640 		.word	1080452710
 1556 0040 9A999940 		.word	1083808154
 1557 0044 00004041 		.word	1094713344
 1558 0048 66666640 		.word	1080452710
 1559              		.section	.rodata.sandstorms_melody,"a",%progbits
 1560              		.align	2
 1561              		.type	sandstorms_melody, %object
 1562              		.size	sandstorms_melody, 124
 1563              	sandstorms_melody:
 1564 0000 EE01     		.short	494
 1565 0002 EE01     		.short	494
 1566 0004 EE01     		.short	494
 1567 0006 EE01     		.short	494
 1568 0008 EE01     		.short	494
 1569 000a 0000     		.short	0
 1570 000c EE01     		.short	494
 1571 000e EE01     		.short	494
 1572 0010 EE01     		.short	494
 1573 0012 EE01     		.short	494
 1574 0014 EE01     		.short	494
 1575 0016 EE01     		.short	494
 1576 0018 EE01     		.short	494
 1577 001a 0000     		.short	0
 1578 001c 9302     		.short	659
 1579 001e 9302     		.short	659
 1580 0020 9302     		.short	659
 1581 0022 9302     		.short	659
 1582 0024 9302     		.short	659
 1583 0026 9302     		.short	659
 1584 0028 9302     		.short	659
 1585 002a 0000     		.short	0
 1586 002c 4B02     		.short	587
 1587 002e 4B02     		.short	587
 1588 0030 4B02     		.short	587
 1589 0032 4B02     		.short	587
 1590 0034 4B02     		.short	587
 1591 0036 4B02     		.short	587
 1592 0038 4B02     		.short	587
 1593 003a 0000     		.short	0
 1594 003c B801     		.short	440
 1595 003e B801     		.short	440
 1596 0040 EE01     		.short	494
ARM GAS  /var/folders/d2/nstgp4h54kz7g1l847x_b8wc0000gn/T//cczqi49f.s 			page 29


 1597 0042 EE01     		.short	494
 1598 0044 EE01     		.short	494
 1599 0046 EE01     		.short	494
 1600 0048 EE01     		.short	494
 1601 004a 0000     		.short	0
 1602 004c EE01     		.short	494
 1603 004e EE01     		.short	494
 1604 0050 EE01     		.short	494
 1605 0052 EE01     		.short	494
 1606 0054 EE01     		.short	494
 1607 0056 EE01     		.short	494
 1608 0058 EE01     		.short	494
 1609 005a 0000     		.short	0
 1610 005c 9302     		.short	659
 1611 005e 9302     		.short	659
 1612 0060 EE01     		.short	494
 1613 0062 EE01     		.short	494
 1614 0064 EE01     		.short	494
 1615 0066 EE01     		.short	494
 1616 0068 EE01     		.short	494
 1617 006a 0000     		.short	0
 1618 006c EE01     		.short	494
 1619 006e EE01     		.short	494
 1620 0070 EE01     		.short	494
 1621 0072 EE01     		.short	494
 1622 0074 EE01     		.short	494
 1623 0076 EE01     		.short	494
 1624 0078 EE01     		.short	494
 1625 007a 0000     		.short	0
 1626              		.section	.rodata.sandstorms_tempo,"a",%progbits
 1627              		.align	2
 1628              		.type	sandstorms_tempo, %object
 1629              		.size	sandstorms_tempo, 248
 1630              	sandstorms_tempo:
 1631 0000 0000C041 		.word	1103101952
 1632 0004 0000C041 		.word	1103101952
 1633 0008 0000C041 		.word	1103101952
 1634 000c 0000C041 		.word	1103101952
 1635 0010 0000C041 		.word	1103101952
 1636 0014 0000C041 		.word	1103101952
 1637 0018 0000C041 		.word	1103101952
 1638 001c 0000C041 		.word	1103101952
 1639 0020 0000C041 		.word	1103101952
 1640 0024 0000C041 		.word	1103101952
 1641 0028 0000C041 		.word	1103101952
 1642 002c 0000C041 		.word	1103101952
 1643 0030 0000C041 		.word	1103101952
 1644 0034 0000C041 		.word	1103101952
 1645 0038 0000C041 		.word	1103101952
 1646 003c 0000C041 		.word	1103101952
 1647 0040 0000C041 		.word	1103101952
 1648 0044 0000C041 		.word	1103101952
 1649 0048 0000C041 		.word	1103101952
 1650 004c 0000C041 		.word	1103101952
 1651 0050 0000C041 		.word	1103101952
 1652 0054 0000C041 		.word	1103101952
 1653 0058 0000C041 		.word	1103101952
ARM GAS  /var/folders/d2/nstgp4h54kz7g1l847x_b8wc0000gn/T//cczqi49f.s 			page 30


 1654 005c 0000C041 		.word	1103101952
 1655 0060 0000C041 		.word	1103101952
 1656 0064 0000C041 		.word	1103101952
 1657 0068 0000C041 		.word	1103101952
 1658 006c 0000C041 		.word	1103101952
 1659 0070 0000C041 		.word	1103101952
 1660 0074 0000C041 		.word	1103101952
 1661 0078 0000C041 		.word	1103101952
 1662 007c 0000C041 		.word	1103101952
 1663 0080 0000C041 		.word	1103101952
 1664 0084 0000C041 		.word	1103101952
 1665 0088 0000C041 		.word	1103101952
 1666 008c 0000C041 		.word	1103101952
 1667 0090 0000C041 		.word	1103101952
 1668 0094 0000C041 		.word	1103101952
 1669 0098 0000C041 		.word	1103101952
 1670 009c 0000C041 		.word	1103101952
 1671 00a0 0000C041 		.word	1103101952
 1672 00a4 0000C041 		.word	1103101952
 1673 00a8 0000C041 		.word	1103101952
 1674 00ac 0000C041 		.word	1103101952
 1675 00b0 0000C041 		.word	1103101952
 1676 00b4 0000C041 		.word	1103101952
 1677 00b8 0000C041 		.word	1103101952
 1678 00bc 0000C041 		.word	1103101952
 1679 00c0 0000C041 		.word	1103101952
 1680 00c4 0000C041 		.word	1103101952
 1681 00c8 0000C041 		.word	1103101952
 1682 00cc 0000C041 		.word	1103101952
 1683 00d0 0000C041 		.word	1103101952
 1684 00d4 0000C041 		.word	1103101952
 1685 00d8 0000C041 		.word	1103101952
 1686 00dc 0000C041 		.word	1103101952
 1687 00e0 0000C041 		.word	1103101952
 1688 00e4 0000C041 		.word	1103101952
 1689 00e8 0000C041 		.word	1103101952
 1690 00ec 0000C041 		.word	1103101952
 1691 00f0 0000C041 		.word	1103101952
 1692 00f4 0000C041 		.word	1103101952
 1693              		.section	.rodata.seven_nation_army_melody,"a",%progbits
 1694              		.align	2
 1695              		.type	seven_nation_army_melody, %object
 1696              		.size	seven_nation_army_melody, 68
 1697              	seven_nation_army_melody:
 1698 0000 0000     		.short	0
 1699 0002 2601     		.short	294
 1700 0004 2601     		.short	294
 1701 0006 0000     		.short	0
 1702 0008 5D01     		.short	349
 1703 000a 0000     		.short	0
 1704 000c 2601     		.short	294
 1705 000e 0000     		.short	0
 1706 0010 0601     		.short	262
 1707 0012 E900     		.short	233
 1708 0014 DC00     		.short	220
 1709 0016 0000     		.short	0
 1710 0018 2601     		.short	294
ARM GAS  /var/folders/d2/nstgp4h54kz7g1l847x_b8wc0000gn/T//cczqi49f.s 			page 31


 1711 001a 2601     		.short	294
 1712 001c 0000     		.short	0
 1713 001e 5D01     		.short	349
 1714 0020 0000     		.short	0
 1715 0022 2601     		.short	294
 1716 0024 0000     		.short	0
 1717 0026 0601     		.short	262
 1718 0028 E900     		.short	233
 1719 002a DC00     		.short	220
 1720 002c 0000     		.short	0
 1721 002e 2601     		.short	294
 1722 0030 2601     		.short	294
 1723 0032 0000     		.short	0
 1724 0034 5D01     		.short	349
 1725 0036 0000     		.short	0
 1726 0038 2601     		.short	294
 1727 003a 0000     		.short	0
 1728 003c 0601     		.short	262
 1729 003e E900     		.short	233
 1730 0040 DC00     		.short	220
 1731 0042 0000     		.short	0
 1732              		.section	.rodata.seven_nation_army_tempo,"a",%progbits
 1733              		.align	2
 1734              		.type	seven_nation_army_tempo, %object
 1735              		.size	seven_nation_army_tempo, 136
 1736              	seven_nation_army_tempo:
 1737 0000 00004041 		.word	1094713344
 1738 0004 00004040 		.word	1077936128
 1739 0008 0000A041 		.word	1101004800
 1740 000c 0000A041 		.word	1101004800
 1741 0010 0000A041 		.word	1101004800
 1742 0014 00001041 		.word	1091567616
 1743 0018 0000A041 		.word	1101004800
 1744 001c 00001041 		.word	1091567616
 1745 0020 00001041 		.word	1091567616
 1746 0024 CDCC0C40 		.word	1074580685
 1747 0028 CDCC0C40 		.word	1074580685
 1748 002c 00008C42 		.word	1116471296
 1749 0030 00004040 		.word	1077936128
 1750 0034 0000A041 		.word	1101004800
 1751 0038 0000A041 		.word	1101004800
 1752 003c 0000A041 		.word	1101004800
 1753 0040 00001041 		.word	1091567616
 1754 0044 0000A041 		.word	1101004800
 1755 0048 00001041 		.word	1091567616
 1756 004c 00001041 		.word	1091567616
 1757 0050 CDCC0C40 		.word	1074580685
 1758 0054 CDCC0C40 		.word	1074580685
 1759 0058 00008C42 		.word	1116471296
 1760 005c 00004040 		.word	1077936128
 1761 0060 0000A041 		.word	1101004800
 1762 0064 0000A041 		.word	1101004800
 1763 0068 0000A041 		.word	1101004800
 1764 006c 00001041 		.word	1091567616
 1765 0070 0000A041 		.word	1101004800
 1766 0074 00001041 		.word	1091567616
 1767 0078 00001041 		.word	1091567616
ARM GAS  /var/folders/d2/nstgp4h54kz7g1l847x_b8wc0000gn/T//cczqi49f.s 			page 32


 1768 007c CDCC0C40 		.word	1074580685
 1769 0080 CDCC0C40 		.word	1074580685
 1770 0084 00008C42 		.word	1116471296
 1771              		.section	.rodata.melody,"a",%progbits
 1772              		.align	2
 1773              		.type	melody, %object
 1774              		.size	melody, 168
 1775              	melody:
 1776 0000 00000000 		.word	mission_impossible_melody
 1777 0004 00000000 		.word	mission_impossible_tempo
 1778 0008 5000     		.short	80
 1779 000a 0000     		.space	2
 1780 000c 00000000 		.word	champions_melody
 1781 0010 00000000 		.word	champions_tempo
 1782 0014 3A00     		.short	58
 1783 0016 0000     		.space	2
 1784 0018 00000000 		.word	russia_melody
 1785 001c 00000000 		.word	russia_tempo
 1786 0020 1800     		.short	24
 1787 0022 0000     		.space	2
 1788 0024 00000000 		.word	mario_melody
 1789 0028 00000000 		.word	mario_tempo
 1790 002c 4E00     		.short	78
 1791 002e 0000     		.space	2
 1792 0030 00000000 		.word	underworld_melody
 1793 0034 00000000 		.word	underworld_tempo
 1794 0038 3800     		.short	56
 1795 003a 0000     		.space	2
 1796 003c 00000000 		.word	mario_start_melody
 1797 0040 00000000 		.word	mario_start_tempo
 1798 0044 1B00     		.short	27
 1799 0046 0000     		.space	2
 1800 0048 00000000 		.word	mario_death_melody
 1801 004c 00000000 		.word	mario_death_tempo
 1802 0050 0C00     		.short	12
 1803 0052 0000     		.space	2
 1804 0054 00000000 		.word	mario_flagpole
 1805 0058 00000000 		.word	mario_flagpole_tempo
 1806 005c 1B00     		.short	27
 1807 005e 0000     		.space	2
 1808 0060 00000000 		.word	walking_melody
 1809 0064 00000000 		.word	walking_melody_tempo
 1810 0068 0900     		.short	9
 1811 006a 0000     		.space	2
 1812 006c 00000000 		.word	pirate_melody
 1813 0070 00000000 		.word	pirate_tempo
 1814 0074 CB00     		.short	203
 1815 0076 0000     		.space	2
 1816 0078 00000000 		.word	simpson_melody
 1817 007c 00000000 		.word	simpson_tempo
 1818 0080 2200     		.short	34
 1819 0082 0000     		.space	2
 1820 0084 00000000 		.word	starwars_melody
 1821 0088 00000000 		.word	starwars_tempo
 1822 008c 1300     		.short	19
 1823 008e 0000     		.space	2
 1824 0090 00000000 		.word	sandstorms_melody
ARM GAS  /var/folders/d2/nstgp4h54kz7g1l847x_b8wc0000gn/T//cczqi49f.s 			page 33


 1825 0094 00000000 		.word	sandstorms_tempo
 1826 0098 3E00     		.short	62
 1827 009a 0000     		.space	2
 1828 009c 00000000 		.word	seven_nation_army_melody
 1829 00a0 00000000 		.word	seven_nation_army_tempo
 1830 00a4 2200     		.short	34
 1831 00a6 0000     		.space	2
 1832              		.section	.text.playNote,"ax",%progbits
 1833              		.align	1
 1834              		.global	playNote
 1835              		.syntax unified
 1836              		.thumb
 1837              		.thumb_func
 1838              		.fpu fpv4-sp-d16
 1839              		.type	playNote, %function
 1840              	playNote:
 1841              		@ args = 0, pretend = 0, frame = 8
 1842              		@ frame_needed = 1, uses_anonymous_args = 0
 1843 0000 80B5     		push	{r7, lr}
 1844 0002 82B0     		sub	sp, sp, #8
 1845 0004 00AF     		add	r7, sp, #0
 1846 0006 0346     		mov	r3, r0
 1847 0008 0A46     		mov	r2, r1
 1848 000a FB80     		strh	r3, [r7, #6]	@ movhi
 1849 000c 1346     		mov	r3, r2	@ movhi
 1850 000e BB80     		strh	r3, [r7, #4]	@ movhi
 1851 0010 FB88     		ldrh	r3, [r7, #6]
 1852 0012 002B     		cmp	r3, #0
 1853 0014 03D0     		beq	.L12
 1854 0016 FB88     		ldrh	r3, [r7, #6]
 1855 0018 1846     		mov	r0, r3
 1856 001a FFF7FEFF 		bl	dac_play
 1857              	.L12:
 1858 001e BB88     		ldrh	r3, [r7, #4]
 1859 0020 4FF47A72 		mov	r2, #1000
 1860 0024 02FB03F3 		mul	r3, r2, r3
 1861 0028 03F2E733 		addw	r3, r3, #999
 1862 002c 064A     		ldr	r2, .L13
 1863 002e A2FB0323 		umull	r2, r3, r2, r3
 1864 0032 9B09     		lsrs	r3, r3, #6
 1865 0034 1846     		mov	r0, r3
 1866 0036 FFF7FEFF 		bl	chThdSleep
 1867 003a FFF7FEFF 		bl	dac_stop
 1868 003e 00BF     		nop
 1869 0040 0837     		adds	r7, r7, #8
 1870 0042 BD46     		mov	sp, r7
 1871              		@ sp needed
 1872 0044 80BD     		pop	{r7, pc}
 1873              	.L14:
 1874 0046 00BF     		.align	2
 1875              	.L13:
 1876 0048 D34D6210 		.word	274877907
 1877              		.size	playNote, .-playNote
 1878              		.section	.bss.waPlayMelodyThd,"aw",%nobits
 1879              		.align	3
 1880              		.type	waPlayMelodyThd, %object
 1881              		.size	waPlayMelodyThd, 504
ARM GAS  /var/folders/d2/nstgp4h54kz7g1l847x_b8wc0000gn/T//cczqi49f.s 			page 34


 1882              	waPlayMelodyThd:
 1883 0000 00000000 		.space	504
 1883      00000000 
 1883      00000000 
 1883      00000000 
 1883      00000000 
 1884              		.section	.rodata
 1885              		.align	2
 1886              	.LC0:
 1887 0000 506C6179 		.ascii	"PlayMelody Thd\000"
 1887      4D656C6F 
 1887      64792054 
 1887      686400
 1888              		.section	.text.PlayMelodyThd,"ax",%progbits
 1889              		.align	1
 1890              		.syntax unified
 1891              		.thumb
 1892              		.thumb_func
 1893              		.fpu fpv4-sp-d16
 1894              		.type	PlayMelodyThd, %function
 1895              	PlayMelodyThd:
 1896              		@ args = 0, pretend = 0, frame = 16
 1897              		@ frame_needed = 1, uses_anonymous_args = 0
 1898 0000 80B5     		push	{r7, lr}
 1899 0002 84B0     		sub	sp, sp, #16
 1900 0004 00AF     		add	r7, sp, #0
 1901 0006 7860     		str	r0, [r7, #4]
 1902 0008 3148     		ldr	r0, .L22
 1903 000a FFF7FEFF 		bl	chRegSetThreadName
 1904              	.L20:
 1905 000e FFF7FEFF 		bl	chSysLock
 1906 0012 3048     		ldr	r0, .L22+4
 1907 0014 FFF7FEFF 		bl	chThdSuspendS
 1908 0018 0346     		mov	r3, r0
 1909 001a 1A46     		mov	r2, r3
 1910 001c 2E4B     		ldr	r3, .L22+8
 1911 001e 1A60     		str	r2, [r3]
 1912 0020 FFF7FEFF 		bl	chSysUnlock
 1913 0024 0023     		movs	r3, #0
 1914 0026 FB60     		str	r3, [r7, #12]
 1915 0028 42E0     		b	.L16
 1916              	.L19:
 1917 002a 2C4B     		ldr	r3, .L22+12
 1918 002c 1B78     		ldrb	r3, [r3]	@ zero_extendqisi2
 1919 002e 83F00103 		eor	r3, r3, #1
 1920 0032 DBB2     		uxtb	r3, r3
 1921 0034 002B     		cmp	r3, #0
 1922 0036 43D1     		bne	.L21
 1923 0038 274B     		ldr	r3, .L22+8
 1924 003a 1B68     		ldr	r3, [r3]
 1925 003c 5A68     		ldr	r2, [r3, #4]
 1926 003e FB68     		ldr	r3, [r7, #12]
 1927 0040 9B00     		lsls	r3, r3, #2
 1928 0042 1344     		add	r3, r3, r2
 1929 0044 93ED007A 		vldr.32	s14, [r3]
 1930 0048 DFED256A 		vldr.32	s13, .L22+16
 1931 004c C6EE877A 		vdiv.f32	s15, s13, s14
ARM GAS  /var/folders/d2/nstgp4h54kz7g1l847x_b8wc0000gn/T//cczqi49f.s 			page 35


 1932 0050 FCEEE77A 		vcvt.u32.f32	s15, s15
 1933 0054 17EE903A 		vmov	r3, s15	@ int
 1934 0058 7B81     		strh	r3, [r7, #10]	@ movhi
 1935 005a 1F4B     		ldr	r3, .L22+8
 1936 005c 1B68     		ldr	r3, [r3]
 1937 005e 1A68     		ldr	r2, [r3]
 1938 0060 FB68     		ldr	r3, [r7, #12]
 1939 0062 5B00     		lsls	r3, r3, #1
 1940 0064 1344     		add	r3, r3, r2
 1941 0066 1B88     		ldrh	r3, [r3]
 1942 0068 7A89     		ldrh	r2, [r7, #10]
 1943 006a 1146     		mov	r1, r2
 1944 006c 1846     		mov	r0, r3
 1945 006e FFF7FEFF 		bl	playNote
 1946 0072 7B89     		ldrh	r3, [r7, #10]
 1947 0074 07EE903A 		vmov	s15, r3	@ int
 1948 0078 F8EEE77A 		vcvt.f32.s32	s15, s15
 1949 007c 9FED197A 		vldr.32	s14, .L22+20
 1950 0080 67EE877A 		vmul.f32	s15, s15, s14
 1951 0084 FCEEE77A 		vcvt.u32.f32	s15, s15
 1952 0088 17EE903A 		vmov	r3, s15	@ int
 1953 008c 3B81     		strh	r3, [r7, #8]	@ movhi
 1954 008e 3B89     		ldrh	r3, [r7, #8]
 1955 0090 4FF47A72 		mov	r2, #1000
 1956 0094 02FB03F3 		mul	r3, r2, r3
 1957 0098 03F2E733 		addw	r3, r3, #999
 1958 009c 124A     		ldr	r2, .L22+24
 1959 009e A2FB0323 		umull	r2, r3, r2, r3
 1960 00a2 9B09     		lsrs	r3, r3, #6
 1961 00a4 1846     		mov	r0, r3
 1962 00a6 FFF7FEFF 		bl	chThdSleep
 1963 00aa FB68     		ldr	r3, [r7, #12]
 1964 00ac 0133     		adds	r3, r3, #1
 1965 00ae FB60     		str	r3, [r7, #12]
 1966              	.L16:
 1967 00b0 094B     		ldr	r3, .L22+8
 1968 00b2 1B68     		ldr	r3, [r3]
 1969 00b4 1B89     		ldrh	r3, [r3, #8]
 1970 00b6 1A46     		mov	r2, r3
 1971 00b8 FB68     		ldr	r3, [r7, #12]
 1972 00ba 9342     		cmp	r3, r2
 1973 00bc B5DB     		blt	.L19
 1974 00be 00E0     		b	.L18
 1975              	.L21:
 1976 00c0 00BF     		nop
 1977              	.L18:
 1978 00c2 064B     		ldr	r3, .L22+12
 1979 00c4 0022     		movs	r2, #0
 1980 00c6 1A70     		strb	r2, [r3]
 1981 00c8 0848     		ldr	r0, .L22+28
 1982 00ca FFF7FEFF 		bl	chCondBroadcast
 1983 00ce 9EE7     		b	.L20
 1984              	.L23:
 1985              		.align	2
 1986              	.L22:
 1987 00d0 00000000 		.word	.LC0
 1988 00d4 00000000 		.word	play_melody_ref
ARM GAS  /var/folders/d2/nstgp4h54kz7g1l847x_b8wc0000gn/T//cczqi49f.s 			page 36


 1989 00d8 00000000 		.word	song.9939
 1990 00dc 00000000 		.word	play
 1991 00e0 00007A44 		.word	1148846080
 1992 00e4 6666A63F 		.word	1067869798
 1993 00e8 D34D6210 		.word	274877907
 1994 00ec 00000000 		.word	play_melody_condvar
 1995              		.size	PlayMelodyThd, .-PlayMelodyThd
 1996              		.section	.text.playMelodyStart,"ax",%progbits
 1997              		.align	1
 1998              		.global	playMelodyStart
 1999              		.syntax unified
 2000              		.thumb
 2001              		.thumb_func
 2002              		.fpu fpv4-sp-d16
 2003              		.type	playMelodyStart, %function
 2004              	playMelodyStart:
 2005              		@ args = 0, pretend = 0, frame = 0
 2006              		@ frame_needed = 1, uses_anonymous_args = 0
 2007 0000 80B5     		push	{r7, lr}
 2008 0002 82B0     		sub	sp, sp, #8
 2009 0004 02AF     		add	r7, sp, #8
 2010 0006 0023     		movs	r3, #0
 2011 0008 0093     		str	r3, [sp]
 2012 000a 054B     		ldr	r3, .L25
 2013 000c 4022     		movs	r2, #64
 2014 000e 4FF4FC71 		mov	r1, #504
 2015 0012 0448     		ldr	r0, .L25+4
 2016 0014 FFF7FEFF 		bl	chThdCreateStatic
 2017 0018 00BF     		nop
 2018 001a BD46     		mov	sp, r7
 2019              		@ sp needed
 2020 001c 80BD     		pop	{r7, pc}
 2021              	.L26:
 2022 001e 00BF     		.align	2
 2023              	.L25:
 2024 0020 00000000 		.word	PlayMelodyThd
 2025 0024 00000000 		.word	waPlayMelodyThd
 2026              		.size	playMelodyStart, .-playMelodyStart
 2027              		.section	.text.playMelody,"ax",%progbits
 2028              		.align	1
 2029              		.global	playMelody
 2030              		.syntax unified
 2031              		.thumb
 2032              		.thumb_func
 2033              		.fpu fpv4-sp-d16
 2034              		.type	playMelody, %function
 2035              	playMelody:
 2036              		@ args = 0, pretend = 0, frame = 16
 2037              		@ frame_needed = 1, uses_anonymous_args = 0
 2038 0000 80B5     		push	{r7, lr}
 2039 0002 84B0     		sub	sp, sp, #16
 2040 0004 00AF     		add	r7, sp, #0
 2041 0006 0346     		mov	r3, r0
 2042 0008 3A60     		str	r2, [r7]
 2043 000a FB71     		strb	r3, [r7, #7]
 2044 000c 0B46     		mov	r3, r1
 2045 000e BB71     		strb	r3, [r7, #6]
ARM GAS  /var/folders/d2/nstgp4h54kz7g1l847x_b8wc0000gn/T//cczqi49f.s 			page 37


 2046 0010 0023     		movs	r3, #0
 2047 0012 FB60     		str	r3, [r7, #12]
 2048 0014 FB79     		ldrb	r3, [r7, #7]	@ zero_extendqisi2
 2049 0016 0F2B     		cmp	r3, #15
 2050 0018 05D1     		bne	.L28
 2051 001a 3B68     		ldr	r3, [r7]
 2052 001c 002B     		cmp	r3, #0
 2053 001e 02D0     		beq	.L28
 2054 0020 3B68     		ldr	r3, [r7]
 2055 0022 FB60     		str	r3, [r7, #12]
 2056 0024 0AE0     		b	.L29
 2057              	.L28:
 2058 0026 FB79     		ldrb	r3, [r7, #7]	@ zero_extendqisi2
 2059 0028 0E2B     		cmp	r3, #14
 2060 002a 27D8     		bhi	.L35
 2061 002c FA79     		ldrb	r2, [r7, #7]	@ zero_extendqisi2
 2062 002e 1346     		mov	r3, r2
 2063 0030 5B00     		lsls	r3, r3, #1
 2064 0032 1344     		add	r3, r3, r2
 2065 0034 9B00     		lsls	r3, r3, #2
 2066 0036 134A     		ldr	r2, .L36
 2067 0038 1344     		add	r3, r3, r2
 2068 003a FB60     		str	r3, [r7, #12]
 2069              	.L29:
 2070 003c BB79     		ldrb	r3, [r7, #6]	@ zero_extendqisi2
 2071 003e 002B     		cmp	r3, #0
 2072 0040 0CD1     		bne	.L32
 2073 0042 114B     		ldr	r3, .L36+4
 2074 0044 1B68     		ldr	r3, [r3]
 2075 0046 002B     		cmp	r3, #0
 2076 0048 19D0     		beq	.L27
 2077 004a 104B     		ldr	r3, .L36+8
 2078 004c 0122     		movs	r2, #1
 2079 004e 1A70     		strb	r2, [r3]
 2080 0050 FB68     		ldr	r3, [r7, #12]
 2081 0052 1946     		mov	r1, r3
 2082 0054 0C48     		ldr	r0, .L36+4
 2083 0056 FFF7FEFF 		bl	chThdResume
 2084 005a 10E0     		b	.L27
 2085              	.L32:
 2086 005c BB79     		ldrb	r3, [r7, #6]	@ zero_extendqisi2
 2087 005e 022B     		cmp	r3, #2
 2088 0060 01D1     		bne	.L34
 2089 0062 FFF7FEFF 		bl	stopCurrentMelody
 2090              	.L34:
 2091 0066 FFF7FEFF 		bl	waitMelodyHasFinished
 2092 006a 084B     		ldr	r3, .L36+8
 2093 006c 0122     		movs	r2, #1
 2094 006e 1A70     		strb	r2, [r3]
 2095 0070 FB68     		ldr	r3, [r7, #12]
 2096 0072 1946     		mov	r1, r3
 2097 0074 0448     		ldr	r0, .L36+4
 2098 0076 FFF7FEFF 		bl	chThdResume
 2099 007a 00E0     		b	.L27
 2100              	.L35:
 2101 007c 00BF     		nop
 2102              	.L27:
ARM GAS  /var/folders/d2/nstgp4h54kz7g1l847x_b8wc0000gn/T//cczqi49f.s 			page 38


 2103 007e 1037     		adds	r7, r7, #16
 2104 0080 BD46     		mov	sp, r7
 2105              		@ sp needed
 2106 0082 80BD     		pop	{r7, pc}
 2107              	.L37:
 2108              		.align	2
 2109              	.L36:
 2110 0084 00000000 		.word	melody
 2111 0088 00000000 		.word	play_melody_ref
 2112 008c 00000000 		.word	play
 2113              		.size	playMelody, .-playMelody
 2114              		.section	.text.stopCurrentMelody,"ax",%progbits
 2115              		.align	1
 2116              		.global	stopCurrentMelody
 2117              		.syntax unified
 2118              		.thumb
 2119              		.thumb_func
 2120              		.fpu fpv4-sp-d16
 2121              		.type	stopCurrentMelody, %function
 2122              	stopCurrentMelody:
 2123              		@ args = 0, pretend = 0, frame = 0
 2124              		@ frame_needed = 1, uses_anonymous_args = 0
 2125              		@ link register save eliminated.
 2126 0000 80B4     		push	{r7}
 2127 0002 00AF     		add	r7, sp, #0
 2128 0004 034B     		ldr	r3, .L39
 2129 0006 0022     		movs	r2, #0
 2130 0008 1A70     		strb	r2, [r3]
 2131 000a 00BF     		nop
 2132 000c BD46     		mov	sp, r7
 2133              		@ sp needed
 2134 000e 5DF8047B 		ldr	r7, [sp], #4
 2135 0012 7047     		bx	lr
 2136              	.L40:
 2137              		.align	2
 2138              	.L39:
 2139 0014 00000000 		.word	play
 2140              		.size	stopCurrentMelody, .-stopCurrentMelody
 2141              		.section	.text.waitMelodyHasFinished,"ax",%progbits
 2142              		.align	1
 2143              		.global	waitMelodyHasFinished
 2144              		.syntax unified
 2145              		.thumb
 2146              		.thumb_func
 2147              		.fpu fpv4-sp-d16
 2148              		.type	waitMelodyHasFinished, %function
 2149              	waitMelodyHasFinished:
 2150              		@ args = 0, pretend = 0, frame = 0
 2151              		@ frame_needed = 1, uses_anonymous_args = 0
 2152 0000 80B5     		push	{r7, lr}
 2153 0002 00AF     		add	r7, sp, #0
 2154 0004 074B     		ldr	r3, .L44
 2155 0006 1B68     		ldr	r3, [r3]
 2156 0008 002B     		cmp	r3, #0
 2157 000a 08D1     		bne	.L43
 2158 000c 0648     		ldr	r0, .L44+4
 2159 000e FFF7FEFF 		bl	chMtxLock
ARM GAS  /var/folders/d2/nstgp4h54kz7g1l847x_b8wc0000gn/T//cczqi49f.s 			page 39


 2160 0012 0648     		ldr	r0, .L44+8
 2161 0014 FFF7FEFF 		bl	chCondWait
 2162 0018 0348     		ldr	r0, .L44+4
 2163 001a FFF7FEFF 		bl	chMtxUnlock
 2164              	.L43:
 2165 001e 00BF     		nop
 2166 0020 80BD     		pop	{r7, pc}
 2167              	.L45:
 2168 0022 00BF     		.align	2
 2169              	.L44:
 2170 0024 00000000 		.word	play_melody_ref
 2171 0028 00000000 		.word	play_melody_lock
 2172 002c 00000000 		.word	play_melody_condvar
 2173              		.size	waitMelodyHasFinished, .-waitMelodyHasFinished
 2174              		.section	.bss.song.9939,"aw",%nobits
 2175              		.align	2
 2176              		.type	song.9939, %object
 2177              		.size	song.9939, 4
 2178              	song.9939:
 2179 0000 00000000 		.space	4
 2180              		.section	.rodata.__func__.7153,"a",%progbits
 2181              		.align	2
 2182              		.type	__func__.7153, %object
 2183              		.size	__func__.7153, 12
 2184              	__func__.7153:
 2185 0000 63685379 		.ascii	"chSysUnlock\000"
 2185      73556E6C 
 2185      6F636B00 
 2186              		.ident	"GCC: (GNU Tools for Arm Embedded Processors 7-2017-q4-major) 7.2.1 20170904 (release) [ARM
ARM GAS  /var/folders/d2/nstgp4h54kz7g1l847x_b8wc0000gn/T//cczqi49f.s 			page 40


DEFINED SYMBOLS
                            *ABS*:0000000000000000 play_melody.c
/var/folders/d2/nstgp4h54kz7g1l847x_b8wc0000gn/T//cczqi49f.s:15     .text.port_lock:0000000000000000 $t
/var/folders/d2/nstgp4h54kz7g1l847x_b8wc0000gn/T//cczqi49f.s:21     .text.port_lock:0000000000000000 port_lock
/var/folders/d2/nstgp4h54kz7g1l847x_b8wc0000gn/T//cczqi49f.s:45     .text.port_unlock:0000000000000000 $t
/var/folders/d2/nstgp4h54kz7g1l847x_b8wc0000gn/T//cczqi49f.s:51     .text.port_unlock:0000000000000000 port_unlock
/var/folders/d2/nstgp4h54kz7g1l847x_b8wc0000gn/T//cczqi49f.s:75     .text.chSysLock:0000000000000000 $t
/var/folders/d2/nstgp4h54kz7g1l847x_b8wc0000gn/T//cczqi49f.s:81     .text.chSysLock:0000000000000000 chSysLock
/var/folders/d2/nstgp4h54kz7g1l847x_b8wc0000gn/T//cczqi49f.s:93     .text.chSysUnlock:0000000000000000 $t
/var/folders/d2/nstgp4h54kz7g1l847x_b8wc0000gn/T//cczqi49f.s:99     .text.chSysUnlock:0000000000000000 chSysUnlock
/var/folders/d2/nstgp4h54kz7g1l847x_b8wc0000gn/T//cczqi49f.s:128    .text.chSysUnlock:0000000000000034 $d
/var/folders/d2/nstgp4h54kz7g1l847x_b8wc0000gn/T//cczqi49f.s:2184   .rodata.__func__.7153:0000000000000000 __func__.7153
/var/folders/d2/nstgp4h54kz7g1l847x_b8wc0000gn/T//cczqi49f.s:132    .text.chRegSetThreadName:0000000000000000 $t
/var/folders/d2/nstgp4h54kz7g1l847x_b8wc0000gn/T//cczqi49f.s:138    .text.chRegSetThreadName:0000000000000000 chRegSetThreadName
/var/folders/d2/nstgp4h54kz7g1l847x_b8wc0000gn/T//cczqi49f.s:159    .text.chRegSetThreadName:000000000000001c $d
/var/folders/d2/nstgp4h54kz7g1l847x_b8wc0000gn/T//cczqi49f.s:162    .data.play_melody_lock:0000000000000000 $d
/var/folders/d2/nstgp4h54kz7g1l847x_b8wc0000gn/T//cczqi49f.s:165    .data.play_melody_lock:0000000000000000 play_melody_lock
/var/folders/d2/nstgp4h54kz7g1l847x_b8wc0000gn/T//cczqi49f.s:172    .data.play_melody_condvar:0000000000000000 $d
/var/folders/d2/nstgp4h54kz7g1l847x_b8wc0000gn/T//cczqi49f.s:175    .data.play_melody_condvar:0000000000000000 play_melody_condvar
/var/folders/d2/nstgp4h54kz7g1l847x_b8wc0000gn/T//cczqi49f.s:179    .bss.play_melody_ref:0000000000000000 $d
/var/folders/d2/nstgp4h54kz7g1l847x_b8wc0000gn/T//cczqi49f.s:182    .bss.play_melody_ref:0000000000000000 play_melody_ref
/var/folders/d2/nstgp4h54kz7g1l847x_b8wc0000gn/T//cczqi49f.s:187    .data.play:0000000000000000 play
/var/folders/d2/nstgp4h54kz7g1l847x_b8wc0000gn/T//cczqi49f.s:190    .rodata.mission_impossible_melody:0000000000000000 $d
/var/folders/d2/nstgp4h54kz7g1l847x_b8wc0000gn/T//cczqi49f.s:193    .rodata.mission_impossible_melody:0000000000000000 mission_impossible_melody
/var/folders/d2/nstgp4h54kz7g1l847x_b8wc0000gn/T//cczqi49f.s:275    .rodata.mission_impossible_tempo:0000000000000000 $d
/var/folders/d2/nstgp4h54kz7g1l847x_b8wc0000gn/T//cczqi49f.s:278    .rodata.mission_impossible_tempo:0000000000000000 mission_impossible_tempo
/var/folders/d2/nstgp4h54kz7g1l847x_b8wc0000gn/T//cczqi49f.s:360    .rodata.champions_melody:0000000000000000 $d
/var/folders/d2/nstgp4h54kz7g1l847x_b8wc0000gn/T//cczqi49f.s:363    .rodata.champions_melody:0000000000000000 champions_melody
/var/folders/d2/nstgp4h54kz7g1l847x_b8wc0000gn/T//cczqi49f.s:423    .rodata.champions_tempo:0000000000000000 $d
/var/folders/d2/nstgp4h54kz7g1l847x_b8wc0000gn/T//cczqi49f.s:426    .rodata.champions_tempo:0000000000000000 champions_tempo
/var/folders/d2/nstgp4h54kz7g1l847x_b8wc0000gn/T//cczqi49f.s:486    .rodata.russia_melody:0000000000000000 $d
/var/folders/d2/nstgp4h54kz7g1l847x_b8wc0000gn/T//cczqi49f.s:489    .rodata.russia_melody:0000000000000000 russia_melody
/var/folders/d2/nstgp4h54kz7g1l847x_b8wc0000gn/T//cczqi49f.s:515    .rodata.russia_tempo:0000000000000000 $d
/var/folders/d2/nstgp4h54kz7g1l847x_b8wc0000gn/T//cczqi49f.s:518    .rodata.russia_tempo:0000000000000000 russia_tempo
/var/folders/d2/nstgp4h54kz7g1l847x_b8wc0000gn/T//cczqi49f.s:544    .rodata.mario_melody:0000000000000000 $d
/var/folders/d2/nstgp4h54kz7g1l847x_b8wc0000gn/T//cczqi49f.s:547    .rodata.mario_melody:0000000000000000 mario_melody
/var/folders/d2/nstgp4h54kz7g1l847x_b8wc0000gn/T//cczqi49f.s:627    .rodata.mario_tempo:0000000000000000 $d
/var/folders/d2/nstgp4h54kz7g1l847x_b8wc0000gn/T//cczqi49f.s:630    .rodata.mario_tempo:0000000000000000 mario_tempo
/var/folders/d2/nstgp4h54kz7g1l847x_b8wc0000gn/T//cczqi49f.s:710    .rodata.underworld_melody:0000000000000000 $d
/var/folders/d2/nstgp4h54kz7g1l847x_b8wc0000gn/T//cczqi49f.s:713    .rodata.underworld_melody:0000000000000000 underworld_melody
/var/folders/d2/nstgp4h54kz7g1l847x_b8wc0000gn/T//cczqi49f.s:771    .rodata.underworld_tempo:0000000000000000 $d
/var/folders/d2/nstgp4h54kz7g1l847x_b8wc0000gn/T//cczqi49f.s:774    .rodata.underworld_tempo:0000000000000000 underworld_tempo
/var/folders/d2/nstgp4h54kz7g1l847x_b8wc0000gn/T//cczqi49f.s:832    .rodata.mario_start_melody:0000000000000000 $d
/var/folders/d2/nstgp4h54kz7g1l847x_b8wc0000gn/T//cczqi49f.s:835    .rodata.mario_start_melody:0000000000000000 mario_start_melody
/var/folders/d2/nstgp4h54kz7g1l847x_b8wc0000gn/T//cczqi49f.s:864    .rodata.mario_start_tempo:0000000000000000 $d
/var/folders/d2/nstgp4h54kz7g1l847x_b8wc0000gn/T//cczqi49f.s:867    .rodata.mario_start_tempo:0000000000000000 mario_start_tempo
/var/folders/d2/nstgp4h54kz7g1l847x_b8wc0000gn/T//cczqi49f.s:896    .rodata.mario_death_melody:0000000000000000 $d
/var/folders/d2/nstgp4h54kz7g1l847x_b8wc0000gn/T//cczqi49f.s:899    .rodata.mario_death_melody:0000000000000000 mario_death_melody
/var/folders/d2/nstgp4h54kz7g1l847x_b8wc0000gn/T//cczqi49f.s:913    .rodata.mario_death_tempo:0000000000000000 $d
/var/folders/d2/nstgp4h54kz7g1l847x_b8wc0000gn/T//cczqi49f.s:916    .rodata.mario_death_tempo:0000000000000000 mario_death_tempo
/var/folders/d2/nstgp4h54kz7g1l847x_b8wc0000gn/T//cczqi49f.s:930    .rodata.mario_flagpole:0000000000000000 $d
/var/folders/d2/nstgp4h54kz7g1l847x_b8wc0000gn/T//cczqi49f.s:933    .rodata.mario_flagpole:0000000000000000 mario_flagpole
/var/folders/d2/nstgp4h54kz7g1l847x_b8wc0000gn/T//cczqi49f.s:962    .rodata.mario_flagpole_tempo:0000000000000000 $d
/var/folders/d2/nstgp4h54kz7g1l847x_b8wc0000gn/T//cczqi49f.s:965    .rodata.mario_flagpole_tempo:0000000000000000 mario_flagpole_tempo
/var/folders/d2/nstgp4h54kz7g1l847x_b8wc0000gn/T//cczqi49f.s:994    .rodata.walking_melody:0000000000000000 $d
/var/folders/d2/nstgp4h54kz7g1l847x_b8wc0000gn/T//cczqi49f.s:997    .rodata.walking_melody:0000000000000000 walking_melody
/var/folders/d2/nstgp4h54kz7g1l847x_b8wc0000gn/T//cczqi49f.s:1008   .rodata.walking_melody_tempo:0000000000000000 $d
ARM GAS  /var/folders/d2/nstgp4h54kz7g1l847x_b8wc0000gn/T//cczqi49f.s 			page 41


/var/folders/d2/nstgp4h54kz7g1l847x_b8wc0000gn/T//cczqi49f.s:1011   .rodata.walking_melody_tempo:0000000000000000 walking_melody_tempo
/var/folders/d2/nstgp4h54kz7g1l847x_b8wc0000gn/T//cczqi49f.s:1022   .rodata.pirate_melody:0000000000000000 $d
/var/folders/d2/nstgp4h54kz7g1l847x_b8wc0000gn/T//cczqi49f.s:1025   .rodata.pirate_melody:0000000000000000 pirate_melody
/var/folders/d2/nstgp4h54kz7g1l847x_b8wc0000gn/T//cczqi49f.s:1230   .rodata.pirate_tempo:0000000000000000 $d
/var/folders/d2/nstgp4h54kz7g1l847x_b8wc0000gn/T//cczqi49f.s:1233   .rodata.pirate_tempo:0000000000000000 pirate_tempo
/var/folders/d2/nstgp4h54kz7g1l847x_b8wc0000gn/T//cczqi49f.s:1438   .rodata.simpson_melody:0000000000000000 $d
/var/folders/d2/nstgp4h54kz7g1l847x_b8wc0000gn/T//cczqi49f.s:1441   .rodata.simpson_melody:0000000000000000 simpson_melody
/var/folders/d2/nstgp4h54kz7g1l847x_b8wc0000gn/T//cczqi49f.s:1477   .rodata.simpson_tempo:0000000000000000 $d
/var/folders/d2/nstgp4h54kz7g1l847x_b8wc0000gn/T//cczqi49f.s:1480   .rodata.simpson_tempo:0000000000000000 simpson_tempo
/var/folders/d2/nstgp4h54kz7g1l847x_b8wc0000gn/T//cczqi49f.s:1512   .rodata.starwars_melody:0000000000000000 $d
/var/folders/d2/nstgp4h54kz7g1l847x_b8wc0000gn/T//cczqi49f.s:1515   .rodata.starwars_melody:0000000000000000 starwars_melody
/var/folders/d2/nstgp4h54kz7g1l847x_b8wc0000gn/T//cczqi49f.s:1536   .rodata.starwars_tempo:0000000000000000 $d
/var/folders/d2/nstgp4h54kz7g1l847x_b8wc0000gn/T//cczqi49f.s:1539   .rodata.starwars_tempo:0000000000000000 starwars_tempo
/var/folders/d2/nstgp4h54kz7g1l847x_b8wc0000gn/T//cczqi49f.s:1560   .rodata.sandstorms_melody:0000000000000000 $d
/var/folders/d2/nstgp4h54kz7g1l847x_b8wc0000gn/T//cczqi49f.s:1563   .rodata.sandstorms_melody:0000000000000000 sandstorms_melody
/var/folders/d2/nstgp4h54kz7g1l847x_b8wc0000gn/T//cczqi49f.s:1627   .rodata.sandstorms_tempo:0000000000000000 $d
/var/folders/d2/nstgp4h54kz7g1l847x_b8wc0000gn/T//cczqi49f.s:1630   .rodata.sandstorms_tempo:0000000000000000 sandstorms_tempo
/var/folders/d2/nstgp4h54kz7g1l847x_b8wc0000gn/T//cczqi49f.s:1694   .rodata.seven_nation_army_melody:0000000000000000 $d
/var/folders/d2/nstgp4h54kz7g1l847x_b8wc0000gn/T//cczqi49f.s:1697   .rodata.seven_nation_army_melody:0000000000000000 seven_nation_army_melody
/var/folders/d2/nstgp4h54kz7g1l847x_b8wc0000gn/T//cczqi49f.s:1733   .rodata.seven_nation_army_tempo:0000000000000000 $d
/var/folders/d2/nstgp4h54kz7g1l847x_b8wc0000gn/T//cczqi49f.s:1736   .rodata.seven_nation_army_tempo:0000000000000000 seven_nation_army_tempo
/var/folders/d2/nstgp4h54kz7g1l847x_b8wc0000gn/T//cczqi49f.s:1772   .rodata.melody:0000000000000000 $d
/var/folders/d2/nstgp4h54kz7g1l847x_b8wc0000gn/T//cczqi49f.s:1775   .rodata.melody:0000000000000000 melody
/var/folders/d2/nstgp4h54kz7g1l847x_b8wc0000gn/T//cczqi49f.s:1833   .text.playNote:0000000000000000 $t
/var/folders/d2/nstgp4h54kz7g1l847x_b8wc0000gn/T//cczqi49f.s:1840   .text.playNote:0000000000000000 playNote
/var/folders/d2/nstgp4h54kz7g1l847x_b8wc0000gn/T//cczqi49f.s:1876   .text.playNote:0000000000000048 $d
/var/folders/d2/nstgp4h54kz7g1l847x_b8wc0000gn/T//cczqi49f.s:1879   .bss.waPlayMelodyThd:0000000000000000 $d
/var/folders/d2/nstgp4h54kz7g1l847x_b8wc0000gn/T//cczqi49f.s:1882   .bss.waPlayMelodyThd:0000000000000000 waPlayMelodyThd
/var/folders/d2/nstgp4h54kz7g1l847x_b8wc0000gn/T//cczqi49f.s:1885   .rodata:0000000000000000 $d
/var/folders/d2/nstgp4h54kz7g1l847x_b8wc0000gn/T//cczqi49f.s:1889   .text.PlayMelodyThd:0000000000000000 $t
/var/folders/d2/nstgp4h54kz7g1l847x_b8wc0000gn/T//cczqi49f.s:1895   .text.PlayMelodyThd:0000000000000000 PlayMelodyThd
/var/folders/d2/nstgp4h54kz7g1l847x_b8wc0000gn/T//cczqi49f.s:1987   .text.PlayMelodyThd:00000000000000d0 $d
/var/folders/d2/nstgp4h54kz7g1l847x_b8wc0000gn/T//cczqi49f.s:2178   .bss.song.9939:0000000000000000 song.9939
/var/folders/d2/nstgp4h54kz7g1l847x_b8wc0000gn/T//cczqi49f.s:1997   .text.playMelodyStart:0000000000000000 $t
/var/folders/d2/nstgp4h54kz7g1l847x_b8wc0000gn/T//cczqi49f.s:2004   .text.playMelodyStart:0000000000000000 playMelodyStart
/var/folders/d2/nstgp4h54kz7g1l847x_b8wc0000gn/T//cczqi49f.s:2024   .text.playMelodyStart:0000000000000020 $d
/var/folders/d2/nstgp4h54kz7g1l847x_b8wc0000gn/T//cczqi49f.s:2028   .text.playMelody:0000000000000000 $t
/var/folders/d2/nstgp4h54kz7g1l847x_b8wc0000gn/T//cczqi49f.s:2035   .text.playMelody:0000000000000000 playMelody
/var/folders/d2/nstgp4h54kz7g1l847x_b8wc0000gn/T//cczqi49f.s:2122   .text.stopCurrentMelody:0000000000000000 stopCurrentMelody
/var/folders/d2/nstgp4h54kz7g1l847x_b8wc0000gn/T//cczqi49f.s:2149   .text.waitMelodyHasFinished:0000000000000000 waitMelodyHasFinished
/var/folders/d2/nstgp4h54kz7g1l847x_b8wc0000gn/T//cczqi49f.s:2110   .text.playMelody:0000000000000084 $d
/var/folders/d2/nstgp4h54kz7g1l847x_b8wc0000gn/T//cczqi49f.s:2115   .text.stopCurrentMelody:0000000000000000 $t
/var/folders/d2/nstgp4h54kz7g1l847x_b8wc0000gn/T//cczqi49f.s:2139   .text.stopCurrentMelody:0000000000000014 $d
/var/folders/d2/nstgp4h54kz7g1l847x_b8wc0000gn/T//cczqi49f.s:2142   .text.waitMelodyHasFinished:0000000000000000 $t
/var/folders/d2/nstgp4h54kz7g1l847x_b8wc0000gn/T//cczqi49f.s:2170   .text.waitMelodyHasFinished:0000000000000024 $d
/var/folders/d2/nstgp4h54kz7g1l847x_b8wc0000gn/T//cczqi49f.s:2175   .bss.song.9939:0000000000000000 $d
/var/folders/d2/nstgp4h54kz7g1l847x_b8wc0000gn/T//cczqi49f.s:2181   .rodata.__func__.7153:0000000000000000 $d

UNDEFINED SYMBOLS
_stats_start_measure_crit_thd
_dbg_check_lock
_dbg_check_unlock
_stats_stop_measure_crit_thd
chSysHalt
ch
dac_play
chThdSleep
ARM GAS  /var/folders/d2/nstgp4h54kz7g1l847x_b8wc0000gn/T//cczqi49f.s 			page 42


dac_stop
chThdSuspendS
chCondBroadcast
chThdCreateStatic
chThdResume
chMtxLock
chCondWait
chMtxUnlock
