ARM GAS  /var/folders/d2/nstgp4h54kz7g1l847x_b8wc0000gn/T//ccDDtcEe.s 			page 1


   1              		.cpu cortex-m4
   2              		.eabi_attribute 27, 1
   3              		.eabi_attribute 28, 1
   4              		.eabi_attribute 20, 1
   5              		.eabi_attribute 21, 1
   6              		.eabi_attribute 23, 3
   7              		.eabi_attribute 24, 1
   8              		.eabi_attribute 25, 1
   9              		.eabi_attribute 26, 1
  10              		.eabi_attribute 30, 6
  11              		.eabi_attribute 34, 1
  12              		.eabi_attribute 18, 4
  13              		.file	"po6030.c"
  14              		.section	.bss.po6030_conf,"aw",%nobits
  15              		.align	2
  16              		.type	po6030_conf, %object
  17              		.size	po6030_conf, 8
  18              	po6030_conf:
  19 0000 00000000 		.space	8
  19      00000000 
  20              		.section	.bss.cam_configured,"aw",%nobits
  21              		.type	cam_configured, %object
  22              		.size	cam_configured, 1
  23              	cam_configured:
  24 0000 00       		.space	1
  25              		.section	.text.po6030_read_id,"ax",%progbits
  26              		.align	1
  27              		.global	po6030_read_id
  28              		.syntax unified
  29              		.thumb
  30              		.thumb_func
  31              		.fpu fpv4-sp-d16
  32              		.type	po6030_read_id, %function
  33              	po6030_read_id:
  34              		@ args = 0, pretend = 0, frame = 16
  35              		@ frame_needed = 1, uses_anonymous_args = 0
  36 0000 80B5     		push	{r7, lr}
  37 0002 84B0     		sub	sp, sp, #16
  38 0004 00AF     		add	r7, sp, #0
  39 0006 7860     		str	r0, [r7, #4]
  40 0008 0023     		movs	r3, #0
  41 000a BB81     		strh	r3, [r7, #12]	@ movhi
  42 000c 0023     		movs	r3, #0
  43 000e FB73     		strb	r3, [r7, #15]
  44 0010 07F10C03 		add	r3, r7, #12
  45 0014 1A46     		mov	r2, r3
  46 0016 0021     		movs	r1, #0
  47 0018 6E20     		movs	r0, #110
  48 001a FFF7FEFF 		bl	read_reg
  49 001e 0346     		mov	r3, r0
  50 0020 FB73     		strb	r3, [r7, #15]
  51 0022 97F90F30 		ldrsb	r3, [r7, #15]
  52 0026 002B     		cmp	r3, #0
  53 0028 02D0     		beq	.L2
  54 002a 97F90F30 		ldrsb	r3, [r7, #15]
  55 002e 1BE0     		b	.L5
  56              	.L2:
ARM GAS  /var/folders/d2/nstgp4h54kz7g1l847x_b8wc0000gn/T//ccDDtcEe.s 			page 2


  57 0030 07F10C03 		add	r3, r7, #12
  58 0034 0133     		adds	r3, r3, #1
  59 0036 1A46     		mov	r2, r3
  60 0038 0121     		movs	r1, #1
  61 003a 6E20     		movs	r0, #110
  62 003c FFF7FEFF 		bl	read_reg
  63 0040 0346     		mov	r3, r0
  64 0042 FB73     		strb	r3, [r7, #15]
  65 0044 97F90F30 		ldrsb	r3, [r7, #15]
  66 0048 002B     		cmp	r3, #0
  67 004a 02D0     		beq	.L4
  68 004c 97F90F30 		ldrsb	r3, [r7, #15]
  69 0050 0AE0     		b	.L5
  70              	.L4:
  71 0052 3B7B     		ldrb	r3, [r7, #12]	@ zero_extendqisi2
  72 0054 1B02     		lsls	r3, r3, #8
  73 0056 1AB2     		sxth	r2, r3
  74 0058 7B7B     		ldrb	r3, [r7, #13]	@ zero_extendqisi2
  75 005a 1BB2     		sxth	r3, r3
  76 005c 1343     		orrs	r3, r3, r2
  77 005e 1BB2     		sxth	r3, r3
  78 0060 9AB2     		uxth	r2, r3
  79 0062 7B68     		ldr	r3, [r7, #4]
  80 0064 1A80     		strh	r2, [r3]	@ movhi
  81 0066 0023     		movs	r3, #0
  82              	.L5:
  83 0068 1846     		mov	r0, r3
  84 006a 1037     		adds	r7, r7, #16
  85 006c BD46     		mov	sp, r7
  86              		@ sp needed
  87 006e 80BD     		pop	{r7, pc}
  88              		.size	po6030_read_id, .-po6030_read_id
  89              		.section	.text.po6030_set_bank,"ax",%progbits
  90              		.align	1
  91              		.global	po6030_set_bank
  92              		.syntax unified
  93              		.thumb
  94              		.thumb_func
  95              		.fpu fpv4-sp-d16
  96              		.type	po6030_set_bank, %function
  97              	po6030_set_bank:
  98              		@ args = 0, pretend = 0, frame = 8
  99              		@ frame_needed = 1, uses_anonymous_args = 0
 100 0000 80B5     		push	{r7, lr}
 101 0002 82B0     		sub	sp, sp, #8
 102 0004 00AF     		add	r7, sp, #0
 103 0006 0346     		mov	r3, r0
 104 0008 FB71     		strb	r3, [r7, #7]
 105 000a FB79     		ldrb	r3, [r7, #7]	@ zero_extendqisi2
 106 000c 1A46     		mov	r2, r3
 107 000e 0321     		movs	r1, #3
 108 0010 6E20     		movs	r0, #110
 109 0012 FFF7FEFF 		bl	write_reg
 110 0016 0346     		mov	r3, r0
 111 0018 1846     		mov	r0, r3
 112 001a 0837     		adds	r7, r7, #8
 113 001c BD46     		mov	sp, r7
ARM GAS  /var/folders/d2/nstgp4h54kz7g1l847x_b8wc0000gn/T//ccDDtcEe.s 			page 3


 114              		@ sp needed
 115 001e 80BD     		pop	{r7, pc}
 116              		.size	po6030_set_bank, .-po6030_set_bank
 117              		.section	.text.po6030_set_format,"ax",%progbits
 118              		.align	1
 119              		.global	po6030_set_format
 120              		.syntax unified
 121              		.thumb
 122              		.thumb_func
 123              		.fpu fpv4-sp-d16
 124              		.type	po6030_set_format, %function
 125              	po6030_set_format:
 126              		@ args = 0, pretend = 0, frame = 16
 127              		@ frame_needed = 1, uses_anonymous_args = 0
 128 0000 80B5     		push	{r7, lr}
 129 0002 84B0     		sub	sp, sp, #16
 130 0004 00AF     		add	r7, sp, #0
 131 0006 0346     		mov	r3, r0
 132 0008 FB71     		strb	r3, [r7, #7]
 133 000a 0023     		movs	r3, #0
 134 000c FB73     		strb	r3, [r7, #15]
 135 000e 0120     		movs	r0, #1
 136 0010 FFF7FEFF 		bl	po6030_set_bank
 137 0014 0346     		mov	r3, r0
 138 0016 FB73     		strb	r3, [r7, #15]
 139 0018 97F90F30 		ldrsb	r3, [r7, #15]
 140 001c 002B     		cmp	r3, #0
 141 001e 02D0     		beq	.L9
 142 0020 97F90F30 		ldrsb	r3, [r7, #15]
 143 0024 12E0     		b	.L10
 144              	.L9:
 145 0026 FB79     		ldrb	r3, [r7, #7]	@ zero_extendqisi2
 146 0028 1A46     		mov	r2, r3
 147 002a 3821     		movs	r1, #56
 148 002c 6E20     		movs	r0, #110
 149 002e FFF7FEFF 		bl	write_reg
 150 0032 0346     		mov	r3, r0
 151 0034 FB73     		strb	r3, [r7, #15]
 152 0036 97F90F30 		ldrsb	r3, [r7, #15]
 153 003a 002B     		cmp	r3, #0
 154 003c 02D0     		beq	.L11
 155 003e 97F90F30 		ldrsb	r3, [r7, #15]
 156 0042 03E0     		b	.L10
 157              	.L11:
 158 0044 034A     		ldr	r2, .L12
 159 0046 FB79     		ldrb	r3, [r7, #7]
 160 0048 1371     		strb	r3, [r2, #4]
 161 004a 0023     		movs	r3, #0
 162              	.L10:
 163 004c 1846     		mov	r0, r3
 164 004e 1037     		adds	r7, r7, #16
 165 0050 BD46     		mov	sp, r7
 166              		@ sp needed
 167 0052 80BD     		pop	{r7, pc}
 168              	.L13:
 169              		.align	2
 170              	.L12:
ARM GAS  /var/folders/d2/nstgp4h54kz7g1l847x_b8wc0000gn/T//ccDDtcEe.s 			page 4


 171 0054 00000000 		.word	po6030_conf
 172              		.size	po6030_set_format, .-po6030_set_format
 173              		.section	.text.po6030_set_vga,"ax",%progbits
 174              		.align	1
 175              		.global	po6030_set_vga
 176              		.syntax unified
 177              		.thumb
 178              		.thumb_func
 179              		.fpu fpv4-sp-d16
 180              		.type	po6030_set_vga, %function
 181              	po6030_set_vga:
 182              		@ args = 0, pretend = 0, frame = 8
 183              		@ frame_needed = 1, uses_anonymous_args = 0
 184 0000 80B5     		push	{r7, lr}
 185 0002 82B0     		sub	sp, sp, #8
 186 0004 00AF     		add	r7, sp, #0
 187 0006 0023     		movs	r3, #0
 188 0008 FB71     		strb	r3, [r7, #7]
 189 000a 0120     		movs	r0, #1
 190 000c FFF7FEFF 		bl	po6030_set_bank
 191 0010 0346     		mov	r3, r0
 192 0012 FB71     		strb	r3, [r7, #7]
 193 0014 97F90730 		ldrsb	r3, [r7, #7]
 194 0018 002B     		cmp	r3, #0
 195 001a 02D0     		beq	.L15
 196 001c 97F90730 		ldrsb	r3, [r7, #7]
 197 0020 F8E1     		b	.L16
 198              	.L15:
 199 0022 0022     		movs	r2, #0
 200 0024 5021     		movs	r1, #80
 201 0026 6E20     		movs	r0, #110
 202 0028 FFF7FEFF 		bl	write_reg
 203 002c 0346     		mov	r3, r0
 204 002e FB71     		strb	r3, [r7, #7]
 205 0030 97F90730 		ldrsb	r3, [r7, #7]
 206 0034 002B     		cmp	r3, #0
 207 0036 02D0     		beq	.L17
 208 0038 97F90730 		ldrsb	r3, [r7, #7]
 209 003c EAE1     		b	.L16
 210              	.L17:
 211 003e 0722     		movs	r2, #7
 212 0040 5121     		movs	r1, #81
 213 0042 6E20     		movs	r0, #110
 214 0044 FFF7FEFF 		bl	write_reg
 215 0048 0346     		mov	r3, r0
 216 004a FB71     		strb	r3, [r7, #7]
 217 004c 97F90730 		ldrsb	r3, [r7, #7]
 218 0050 002B     		cmp	r3, #0
 219 0052 02D0     		beq	.L18
 220 0054 97F90730 		ldrsb	r3, [r7, #7]
 221 0058 DCE1     		b	.L16
 222              	.L18:
 223 005a 0022     		movs	r2, #0
 224 005c 5221     		movs	r1, #82
 225 005e 6E20     		movs	r0, #110
 226 0060 FFF7FEFF 		bl	write_reg
 227 0064 0346     		mov	r3, r0
ARM GAS  /var/folders/d2/nstgp4h54kz7g1l847x_b8wc0000gn/T//ccDDtcEe.s 			page 5


 228 0066 FB71     		strb	r3, [r7, #7]
 229 0068 97F90730 		ldrsb	r3, [r7, #7]
 230 006c 002B     		cmp	r3, #0
 231 006e 02D0     		beq	.L19
 232 0070 97F90730 		ldrsb	r3, [r7, #7]
 233 0074 CEE1     		b	.L16
 234              	.L19:
 235 0076 0722     		movs	r2, #7
 236 0078 5321     		movs	r1, #83
 237 007a 6E20     		movs	r0, #110
 238 007c FFF7FEFF 		bl	write_reg
 239 0080 0346     		mov	r3, r0
 240 0082 FB71     		strb	r3, [r7, #7]
 241 0084 97F90730 		ldrsb	r3, [r7, #7]
 242 0088 002B     		cmp	r3, #0
 243 008a 02D0     		beq	.L20
 244 008c 97F90730 		ldrsb	r3, [r7, #7]
 245 0090 C0E1     		b	.L16
 246              	.L20:
 247 0092 0222     		movs	r2, #2
 248 0094 5421     		movs	r1, #84
 249 0096 6E20     		movs	r0, #110
 250 0098 FFF7FEFF 		bl	write_reg
 251 009c 0346     		mov	r3, r0
 252 009e FB71     		strb	r3, [r7, #7]
 253 00a0 97F90730 		ldrsb	r3, [r7, #7]
 254 00a4 002B     		cmp	r3, #0
 255 00a6 02D0     		beq	.L21
 256 00a8 97F90730 		ldrsb	r3, [r7, #7]
 257 00ac B2E1     		b	.L16
 258              	.L21:
 259 00ae 8622     		movs	r2, #134
 260 00b0 5521     		movs	r1, #85
 261 00b2 6E20     		movs	r0, #110
 262 00b4 FFF7FEFF 		bl	write_reg
 263 00b8 0346     		mov	r3, r0
 264 00ba FB71     		strb	r3, [r7, #7]
 265 00bc 97F90730 		ldrsb	r3, [r7, #7]
 266 00c0 002B     		cmp	r3, #0
 267 00c2 02D0     		beq	.L22
 268 00c4 97F90730 		ldrsb	r3, [r7, #7]
 269 00c8 A4E1     		b	.L16
 270              	.L22:
 271 00ca 0122     		movs	r2, #1
 272 00cc 5621     		movs	r1, #86
 273 00ce 6E20     		movs	r0, #110
 274 00d0 FFF7FEFF 		bl	write_reg
 275 00d4 0346     		mov	r3, r0
 276 00d6 FB71     		strb	r3, [r7, #7]
 277 00d8 97F90730 		ldrsb	r3, [r7, #7]
 278 00dc 002B     		cmp	r3, #0
 279 00de 02D0     		beq	.L23
 280 00e0 97F90730 		ldrsb	r3, [r7, #7]
 281 00e4 96E1     		b	.L16
 282              	.L23:
 283 00e6 E622     		movs	r2, #230
 284 00e8 5721     		movs	r1, #87
ARM GAS  /var/folders/d2/nstgp4h54kz7g1l847x_b8wc0000gn/T//ccDDtcEe.s 			page 6


 285 00ea 6E20     		movs	r0, #110
 286 00ec FFF7FEFF 		bl	write_reg
 287 00f0 0346     		mov	r3, r0
 288 00f2 FB71     		strb	r3, [r7, #7]
 289 00f4 97F90730 		ldrsb	r3, [r7, #7]
 290 00f8 002B     		cmp	r3, #0
 291 00fa 02D0     		beq	.L24
 292 00fc 97F90730 		ldrsb	r3, [r7, #7]
 293 0100 88E1     		b	.L16
 294              	.L24:
 295 0102 2022     		movs	r2, #32
 296 0104 8021     		movs	r1, #128
 297 0106 6E20     		movs	r0, #110
 298 0108 FFF7FEFF 		bl	write_reg
 299 010c 0346     		mov	r3, r0
 300 010e FB71     		strb	r3, [r7, #7]
 301 0110 97F90730 		ldrsb	r3, [r7, #7]
 302 0114 002B     		cmp	r3, #0
 303 0116 02D0     		beq	.L25
 304 0118 97F90730 		ldrsb	r3, [r7, #7]
 305 011c 7AE1     		b	.L16
 306              	.L25:
 307 011e 2022     		movs	r2, #32
 308 0120 8121     		movs	r1, #129
 309 0122 6E20     		movs	r0, #110
 310 0124 FFF7FEFF 		bl	write_reg
 311 0128 0346     		mov	r3, r0
 312 012a FB71     		strb	r3, [r7, #7]
 313 012c 97F90730 		ldrsb	r3, [r7, #7]
 314 0130 002B     		cmp	r3, #0
 315 0132 02D0     		beq	.L26
 316 0134 97F90730 		ldrsb	r3, [r7, #7]
 317 0138 6CE1     		b	.L16
 318              	.L26:
 319 013a 0022     		movs	r2, #0
 320 013c 6021     		movs	r1, #96
 321 013e 6E20     		movs	r0, #110
 322 0140 FFF7FEFF 		bl	write_reg
 323 0144 0346     		mov	r3, r0
 324 0146 FB71     		strb	r3, [r7, #7]
 325 0148 97F90730 		ldrsb	r3, [r7, #7]
 326 014c 002B     		cmp	r3, #0
 327 014e 02D0     		beq	.L27
 328 0150 97F90730 		ldrsb	r3, [r7, #7]
 329 0154 5EE1     		b	.L16
 330              	.L27:
 331 0156 0C22     		movs	r2, #12
 332 0158 6121     		movs	r1, #97
 333 015a 6E20     		movs	r0, #110
 334 015c FFF7FEFF 		bl	write_reg
 335 0160 0346     		mov	r3, r0
 336 0162 FB71     		strb	r3, [r7, #7]
 337 0164 97F90730 		ldrsb	r3, [r7, #7]
 338 0168 002B     		cmp	r3, #0
 339 016a 02D0     		beq	.L28
 340 016c 97F90730 		ldrsb	r3, [r7, #7]
 341 0170 50E1     		b	.L16
ARM GAS  /var/folders/d2/nstgp4h54kz7g1l847x_b8wc0000gn/T//ccDDtcEe.s 			page 7


 342              	.L28:
 343 0172 0122     		movs	r2, #1
 344 0174 6221     		movs	r1, #98
 345 0176 6E20     		movs	r0, #110
 346 0178 FFF7FEFF 		bl	write_reg
 347 017c 0346     		mov	r3, r0
 348 017e FB71     		strb	r3, [r7, #7]
 349 0180 97F90730 		ldrsb	r3, [r7, #7]
 350 0184 002B     		cmp	r3, #0
 351 0186 02D0     		beq	.L29
 352 0188 97F90730 		ldrsb	r3, [r7, #7]
 353 018c 42E1     		b	.L16
 354              	.L29:
 355 018e EC22     		movs	r2, #236
 356 0190 6321     		movs	r1, #99
 357 0192 6E20     		movs	r0, #110
 358 0194 FFF7FEFF 		bl	write_reg
 359 0198 0346     		mov	r3, r0
 360 019a FB71     		strb	r3, [r7, #7]
 361 019c 97F90730 		ldrsb	r3, [r7, #7]
 362 01a0 002B     		cmp	r3, #0
 363 01a2 02D0     		beq	.L30
 364 01a4 97F90730 		ldrsb	r3, [r7, #7]
 365 01a8 34E1     		b	.L16
 366              	.L30:
 367 01aa 9C4B     		ldr	r3, .L52
 368 01ac 1B79     		ldrb	r3, [r3, #4]	@ zero_extendqisi2
 369 01ae 0D2B     		cmp	r3, #13
 370 01b0 0DD1     		bne	.L31
 371 01b2 0122     		movs	r2, #1
 372 01b4 6821     		movs	r1, #104
 373 01b6 6E20     		movs	r0, #110
 374 01b8 FFF7FEFF 		bl	write_reg
 375 01bc 0346     		mov	r3, r0
 376 01be FB71     		strb	r3, [r7, #7]
 377 01c0 97F90730 		ldrsb	r3, [r7, #7]
 378 01c4 002B     		cmp	r3, #0
 379 01c6 10D0     		beq	.L32
 380 01c8 97F90730 		ldrsb	r3, [r7, #7]
 381 01cc 22E1     		b	.L16
 382              	.L31:
 383 01ce 0022     		movs	r2, #0
 384 01d0 6821     		movs	r1, #104
 385 01d2 6E20     		movs	r0, #110
 386 01d4 FFF7FEFF 		bl	write_reg
 387 01d8 0346     		mov	r3, r0
 388 01da FB71     		strb	r3, [r7, #7]
 389 01dc 97F90730 		ldrsb	r3, [r7, #7]
 390 01e0 002B     		cmp	r3, #0
 391 01e2 02D0     		beq	.L32
 392 01e4 97F90730 		ldrsb	r3, [r7, #7]
 393 01e8 14E1     		b	.L16
 394              	.L32:
 395 01ea 0122     		movs	r2, #1
 396 01ec 8221     		movs	r1, #130
 397 01ee 6E20     		movs	r0, #110
 398 01f0 FFF7FEFF 		bl	write_reg
ARM GAS  /var/folders/d2/nstgp4h54kz7g1l847x_b8wc0000gn/T//ccDDtcEe.s 			page 8


 399 01f4 0346     		mov	r3, r0
 400 01f6 FB71     		strb	r3, [r7, #7]
 401 01f8 97F90730 		ldrsb	r3, [r7, #7]
 402 01fc 002B     		cmp	r3, #0
 403 01fe 02D0     		beq	.L33
 404 0200 97F90730 		ldrsb	r3, [r7, #7]
 405 0204 06E1     		b	.L16
 406              	.L33:
 407 0206 0220     		movs	r0, #2
 408 0208 FFF7FEFF 		bl	po6030_set_bank
 409 020c 0346     		mov	r3, r0
 410 020e FB71     		strb	r3, [r7, #7]
 411 0210 97F90730 		ldrsb	r3, [r7, #7]
 412 0214 002B     		cmp	r3, #0
 413 0216 02D0     		beq	.L34
 414 0218 97F90730 		ldrsb	r3, [r7, #7]
 415 021c FAE0     		b	.L16
 416              	.L34:
 417 021e 0022     		movs	r2, #0
 418 0220 1021     		movs	r1, #16
 419 0222 6E20     		movs	r0, #110
 420 0224 FFF7FEFF 		bl	write_reg
 421 0228 0346     		mov	r3, r0
 422 022a FB71     		strb	r3, [r7, #7]
 423 022c 97F90730 		ldrsb	r3, [r7, #7]
 424 0230 002B     		cmp	r3, #0
 425 0232 02D0     		beq	.L35
 426 0234 97F90730 		ldrsb	r3, [r7, #7]
 427 0238 ECE0     		b	.L16
 428              	.L35:
 429 023a 2522     		movs	r2, #37
 430 023c 1121     		movs	r1, #17
 431 023e 6E20     		movs	r0, #110
 432 0240 FFF7FEFF 		bl	write_reg
 433 0244 0346     		mov	r3, r0
 434 0246 FB71     		strb	r3, [r7, #7]
 435 0248 97F90730 		ldrsb	r3, [r7, #7]
 436 024c 002B     		cmp	r3, #0
 437 024e 02D0     		beq	.L36
 438 0250 97F90730 		ldrsb	r3, [r7, #7]
 439 0254 DEE0     		b	.L16
 440              	.L36:
 441 0256 0022     		movs	r2, #0
 442 0258 1221     		movs	r1, #18
 443 025a 6E20     		movs	r0, #110
 444 025c FFF7FEFF 		bl	write_reg
 445 0260 0346     		mov	r3, r0
 446 0262 FB71     		strb	r3, [r7, #7]
 447 0264 97F90730 		ldrsb	r3, [r7, #7]
 448 0268 002B     		cmp	r3, #0
 449 026a 02D0     		beq	.L37
 450 026c 97F90730 		ldrsb	r3, [r7, #7]
 451 0270 D0E0     		b	.L16
 452              	.L37:
 453 0272 1C22     		movs	r2, #28
 454 0274 1321     		movs	r1, #19
 455 0276 6E20     		movs	r0, #110
ARM GAS  /var/folders/d2/nstgp4h54kz7g1l847x_b8wc0000gn/T//ccDDtcEe.s 			page 9


 456 0278 FFF7FEFF 		bl	write_reg
 457 027c 0346     		mov	r3, r0
 458 027e FB71     		strb	r3, [r7, #7]
 459 0280 97F90730 		ldrsb	r3, [r7, #7]
 460 0284 002B     		cmp	r3, #0
 461 0286 02D0     		beq	.L38
 462 0288 97F90730 		ldrsb	r3, [r7, #7]
 463 028c C2E0     		b	.L16
 464              	.L38:
 465 028e 0222     		movs	r2, #2
 466 0290 1421     		movs	r1, #20
 467 0292 6E20     		movs	r0, #110
 468 0294 FFF7FEFF 		bl	write_reg
 469 0298 0346     		mov	r3, r0
 470 029a FB71     		strb	r3, [r7, #7]
 471 029c 97F90730 		ldrsb	r3, [r7, #7]
 472 02a0 002B     		cmp	r3, #0
 473 02a2 02D0     		beq	.L39
 474 02a4 97F90730 		ldrsb	r3, [r7, #7]
 475 02a8 B4E0     		b	.L16
 476              	.L39:
 477 02aa 6022     		movs	r2, #96
 478 02ac 1521     		movs	r1, #21
 479 02ae 6E20     		movs	r0, #110
 480 02b0 FFF7FEFF 		bl	write_reg
 481 02b4 0346     		mov	r3, r0
 482 02b6 FB71     		strb	r3, [r7, #7]
 483 02b8 97F90730 		ldrsb	r3, [r7, #7]
 484 02bc 002B     		cmp	r3, #0
 485 02be 02D0     		beq	.L40
 486 02c0 97F90730 		ldrsb	r3, [r7, #7]
 487 02c4 A6E0     		b	.L16
 488              	.L40:
 489 02c6 0122     		movs	r2, #1
 490 02c8 1621     		movs	r1, #22
 491 02ca 6E20     		movs	r0, #110
 492 02cc FFF7FEFF 		bl	write_reg
 493 02d0 0346     		mov	r3, r0
 494 02d2 FB71     		strb	r3, [r7, #7]
 495 02d4 97F90730 		ldrsb	r3, [r7, #7]
 496 02d8 002B     		cmp	r3, #0
 497 02da 02D0     		beq	.L41
 498 02dc 97F90730 		ldrsb	r3, [r7, #7]
 499 02e0 98E0     		b	.L16
 500              	.L41:
 501 02e2 BE22     		movs	r2, #190
 502 02e4 1721     		movs	r1, #23
 503 02e6 6E20     		movs	r0, #110
 504 02e8 FFF7FEFF 		bl	write_reg
 505 02ec 0346     		mov	r3, r0
 506 02ee FB71     		strb	r3, [r7, #7]
 507 02f0 97F90730 		ldrsb	r3, [r7, #7]
 508 02f4 002B     		cmp	r3, #0
 509 02f6 02D0     		beq	.L42
 510 02f8 97F90730 		ldrsb	r3, [r7, #7]
 511 02fc 8AE0     		b	.L16
 512              	.L42:
ARM GAS  /var/folders/d2/nstgp4h54kz7g1l847x_b8wc0000gn/T//ccDDtcEe.s 			page 10


 513 02fe 0022     		movs	r2, #0
 514 0300 1821     		movs	r1, #24
 515 0302 6E20     		movs	r0, #110
 516 0304 FFF7FEFF 		bl	write_reg
 517 0308 0346     		mov	r3, r0
 518 030a FB71     		strb	r3, [r7, #7]
 519 030c 97F90730 		ldrsb	r3, [r7, #7]
 520 0310 002B     		cmp	r3, #0
 521 0312 02D0     		beq	.L43
 522 0314 97F90730 		ldrsb	r3, [r7, #7]
 523 0318 7CE0     		b	.L16
 524              	.L43:
 525 031a E522     		movs	r2, #229
 526 031c 1921     		movs	r1, #25
 527 031e 6E20     		movs	r0, #110
 528 0320 FFF7FEFF 		bl	write_reg
 529 0324 0346     		mov	r3, r0
 530 0326 FB71     		strb	r3, [r7, #7]
 531 0328 97F90730 		ldrsb	r3, [r7, #7]
 532 032c 002B     		cmp	r3, #0
 533 032e 02D0     		beq	.L44
 534 0330 97F90730 		ldrsb	r3, [r7, #7]
 535 0334 6EE0     		b	.L16
 536              	.L44:
 537 0336 0022     		movs	r2, #0
 538 0338 1A21     		movs	r1, #26
 539 033a 6E20     		movs	r0, #110
 540 033c FFF7FEFF 		bl	write_reg
 541 0340 0346     		mov	r3, r0
 542 0342 FB71     		strb	r3, [r7, #7]
 543 0344 97F90730 		ldrsb	r3, [r7, #7]
 544 0348 002B     		cmp	r3, #0
 545 034a 02D0     		beq	.L45
 546 034c 97F90730 		ldrsb	r3, [r7, #7]
 547 0350 60E0     		b	.L16
 548              	.L45:
 549 0352 8722     		movs	r2, #135
 550 0354 1B21     		movs	r1, #27
 551 0356 6E20     		movs	r0, #110
 552 0358 FFF7FEFF 		bl	write_reg
 553 035c 0346     		mov	r3, r0
 554 035e FB71     		strb	r3, [r7, #7]
 555 0360 97F90730 		ldrsb	r3, [r7, #7]
 556 0364 002B     		cmp	r3, #0
 557 0366 02D0     		beq	.L46
 558 0368 97F90730 		ldrsb	r3, [r7, #7]
 559 036c 52E0     		b	.L16
 560              	.L46:
 561 036e 0022     		movs	r2, #0
 562 0370 1C21     		movs	r1, #28
 563 0372 6E20     		movs	r0, #110
 564 0374 FFF7FEFF 		bl	write_reg
 565 0378 0346     		mov	r3, r0
 566 037a FB71     		strb	r3, [r7, #7]
 567 037c 97F90730 		ldrsb	r3, [r7, #7]
 568 0380 002B     		cmp	r3, #0
 569 0382 02D0     		beq	.L47
ARM GAS  /var/folders/d2/nstgp4h54kz7g1l847x_b8wc0000gn/T//ccDDtcEe.s 			page 11


 570 0384 97F90730 		ldrsb	r3, [r7, #7]
 571 0388 44E0     		b	.L16
 572              	.L47:
 573 038a A022     		movs	r2, #160
 574 038c 1D21     		movs	r1, #29
 575 038e 6E20     		movs	r0, #110
 576 0390 FFF7FEFF 		bl	write_reg
 577 0394 0346     		mov	r3, r0
 578 0396 FB71     		strb	r3, [r7, #7]
 579 0398 97F90730 		ldrsb	r3, [r7, #7]
 580 039c 002B     		cmp	r3, #0
 581 039e 02D0     		beq	.L48
 582 03a0 97F90730 		ldrsb	r3, [r7, #7]
 583 03a4 36E0     		b	.L16
 584              	.L48:
 585 03a6 0022     		movs	r2, #0
 586 03a8 1E21     		movs	r1, #30
 587 03aa 6E20     		movs	r0, #110
 588 03ac FFF7FEFF 		bl	write_reg
 589 03b0 0346     		mov	r3, r0
 590 03b2 FB71     		strb	r3, [r7, #7]
 591 03b4 97F90730 		ldrsb	r3, [r7, #7]
 592 03b8 002B     		cmp	r3, #0
 593 03ba 02D0     		beq	.L49
 594 03bc 97F90730 		ldrsb	r3, [r7, #7]
 595 03c0 28E0     		b	.L16
 596              	.L49:
 597 03c2 A022     		movs	r2, #160
 598 03c4 1F21     		movs	r1, #31
 599 03c6 6E20     		movs	r0, #110
 600 03c8 FFF7FEFF 		bl	write_reg
 601 03cc 0346     		mov	r3, r0
 602 03ce FB71     		strb	r3, [r7, #7]
 603 03d0 97F90730 		ldrsb	r3, [r7, #7]
 604 03d4 002B     		cmp	r3, #0
 605 03d6 02D0     		beq	.L50
 606 03d8 97F90730 		ldrsb	r3, [r7, #7]
 607 03dc 1AE0     		b	.L16
 608              	.L50:
 609 03de 0020     		movs	r0, #0
 610 03e0 FFF7FEFF 		bl	po6030_set_bank
 611 03e4 0346     		mov	r3, r0
 612 03e6 FB71     		strb	r3, [r7, #7]
 613 03e8 97F90730 		ldrsb	r3, [r7, #7]
 614 03ec 002B     		cmp	r3, #0
 615 03ee 02D0     		beq	.L51
 616 03f0 97F90730 		ldrsb	r3, [r7, #7]
 617 03f4 0EE0     		b	.L16
 618              	.L51:
 619 03f6 094B     		ldr	r3, .L52
 620 03f8 4FF42072 		mov	r2, #640
 621 03fc 1A80     		strh	r2, [r3]	@ movhi
 622 03fe 074B     		ldr	r3, .L52
 623 0400 4FF4F072 		mov	r2, #480
 624 0404 5A80     		strh	r2, [r3, #2]	@ movhi
 625 0406 054B     		ldr	r3, .L52
 626 0408 2022     		movs	r2, #32
ARM GAS  /var/folders/d2/nstgp4h54kz7g1l847x_b8wc0000gn/T//ccDDtcEe.s 			page 12


 627 040a 5A71     		strb	r2, [r3, #5]
 628 040c 034B     		ldr	r3, .L52
 629 040e 2022     		movs	r2, #32
 630 0410 9A71     		strb	r2, [r3, #6]
 631 0412 0023     		movs	r3, #0
 632              	.L16:
 633 0414 1846     		mov	r0, r3
 634 0416 0837     		adds	r7, r7, #8
 635 0418 BD46     		mov	sp, r7
 636              		@ sp needed
 637 041a 80BD     		pop	{r7, pc}
 638              	.L53:
 639              		.align	2
 640              	.L52:
 641 041c 00000000 		.word	po6030_conf
 642              		.size	po6030_set_vga, .-po6030_set_vga
 643              		.section	.text.po6030_set_qvga,"ax",%progbits
 644              		.align	1
 645              		.global	po6030_set_qvga
 646              		.syntax unified
 647              		.thumb
 648              		.thumb_func
 649              		.fpu fpv4-sp-d16
 650              		.type	po6030_set_qvga, %function
 651              	po6030_set_qvga:
 652              		@ args = 0, pretend = 0, frame = 8
 653              		@ frame_needed = 1, uses_anonymous_args = 0
 654 0000 80B5     		push	{r7, lr}
 655 0002 82B0     		sub	sp, sp, #8
 656 0004 00AF     		add	r7, sp, #0
 657 0006 0023     		movs	r3, #0
 658 0008 FB71     		strb	r3, [r7, #7]
 659 000a 0120     		movs	r0, #1
 660 000c FFF7FEFF 		bl	po6030_set_bank
 661 0010 0346     		mov	r3, r0
 662 0012 FB71     		strb	r3, [r7, #7]
 663 0014 97F90730 		ldrsb	r3, [r7, #7]
 664 0018 002B     		cmp	r3, #0
 665 001a 02D0     		beq	.L55
 666 001c 97F90730 		ldrsb	r3, [r7, #7]
 667 0020 F7E1     		b	.L56
 668              	.L55:
 669 0022 0022     		movs	r2, #0
 670 0024 5021     		movs	r1, #80
 671 0026 6E20     		movs	r0, #110
 672 0028 FFF7FEFF 		bl	write_reg
 673 002c 0346     		mov	r3, r0
 674 002e FB71     		strb	r3, [r7, #7]
 675 0030 97F90730 		ldrsb	r3, [r7, #7]
 676 0034 002B     		cmp	r3, #0
 677 0036 02D0     		beq	.L57
 678 0038 97F90730 		ldrsb	r3, [r7, #7]
 679 003c E9E1     		b	.L56
 680              	.L57:
 681 003e 0422     		movs	r2, #4
 682 0040 5121     		movs	r1, #81
 683 0042 6E20     		movs	r0, #110
ARM GAS  /var/folders/d2/nstgp4h54kz7g1l847x_b8wc0000gn/T//ccDDtcEe.s 			page 13


 684 0044 FFF7FEFF 		bl	write_reg
 685 0048 0346     		mov	r3, r0
 686 004a FB71     		strb	r3, [r7, #7]
 687 004c 97F90730 		ldrsb	r3, [r7, #7]
 688 0050 002B     		cmp	r3, #0
 689 0052 02D0     		beq	.L58
 690 0054 97F90730 		ldrsb	r3, [r7, #7]
 691 0058 DBE1     		b	.L56
 692              	.L58:
 693 005a 0022     		movs	r2, #0
 694 005c 5221     		movs	r1, #82
 695 005e 6E20     		movs	r0, #110
 696 0060 FFF7FEFF 		bl	write_reg
 697 0064 0346     		mov	r3, r0
 698 0066 FB71     		strb	r3, [r7, #7]
 699 0068 97F90730 		ldrsb	r3, [r7, #7]
 700 006c 002B     		cmp	r3, #0
 701 006e 02D0     		beq	.L59
 702 0070 97F90730 		ldrsb	r3, [r7, #7]
 703 0074 CDE1     		b	.L56
 704              	.L59:
 705 0076 0422     		movs	r2, #4
 706 0078 5321     		movs	r1, #83
 707 007a 6E20     		movs	r0, #110
 708 007c FFF7FEFF 		bl	write_reg
 709 0080 0346     		mov	r3, r0
 710 0082 FB71     		strb	r3, [r7, #7]
 711 0084 97F90730 		ldrsb	r3, [r7, #7]
 712 0088 002B     		cmp	r3, #0
 713 008a 02D0     		beq	.L60
 714 008c 97F90730 		ldrsb	r3, [r7, #7]
 715 0090 BFE1     		b	.L56
 716              	.L60:
 717 0092 0122     		movs	r2, #1
 718 0094 5421     		movs	r1, #84
 719 0096 6E20     		movs	r0, #110
 720 0098 FFF7FEFF 		bl	write_reg
 721 009c 0346     		mov	r3, r0
 722 009e FB71     		strb	r3, [r7, #7]
 723 00a0 97F90730 		ldrsb	r3, [r7, #7]
 724 00a4 002B     		cmp	r3, #0
 725 00a6 02D0     		beq	.L61
 726 00a8 97F90730 		ldrsb	r3, [r7, #7]
 727 00ac B1E1     		b	.L56
 728              	.L61:
 729 00ae 4322     		movs	r2, #67
 730 00b0 5521     		movs	r1, #85
 731 00b2 6E20     		movs	r0, #110
 732 00b4 FFF7FEFF 		bl	write_reg
 733 00b8 0346     		mov	r3, r0
 734 00ba FB71     		strb	r3, [r7, #7]
 735 00bc 97F90730 		ldrsb	r3, [r7, #7]
 736 00c0 002B     		cmp	r3, #0
 737 00c2 02D0     		beq	.L62
 738 00c4 97F90730 		ldrsb	r3, [r7, #7]
 739 00c8 A3E1     		b	.L56
 740              	.L62:
ARM GAS  /var/folders/d2/nstgp4h54kz7g1l847x_b8wc0000gn/T//ccDDtcEe.s 			page 14


 741 00ca 0022     		movs	r2, #0
 742 00cc 5621     		movs	r1, #86
 743 00ce 6E20     		movs	r0, #110
 744 00d0 FFF7FEFF 		bl	write_reg
 745 00d4 0346     		mov	r3, r0
 746 00d6 FB71     		strb	r3, [r7, #7]
 747 00d8 97F90730 		ldrsb	r3, [r7, #7]
 748 00dc 002B     		cmp	r3, #0
 749 00de 02D0     		beq	.L63
 750 00e0 97F90730 		ldrsb	r3, [r7, #7]
 751 00e4 95E1     		b	.L56
 752              	.L63:
 753 00e6 F322     		movs	r2, #243
 754 00e8 5721     		movs	r1, #87
 755 00ea 6E20     		movs	r0, #110
 756 00ec FFF7FEFF 		bl	write_reg
 757 00f0 0346     		mov	r3, r0
 758 00f2 FB71     		strb	r3, [r7, #7]
 759 00f4 97F90730 		ldrsb	r3, [r7, #7]
 760 00f8 002B     		cmp	r3, #0
 761 00fa 02D0     		beq	.L64
 762 00fc 97F90730 		ldrsb	r3, [r7, #7]
 763 0100 87E1     		b	.L56
 764              	.L64:
 765 0102 4022     		movs	r2, #64
 766 0104 8021     		movs	r1, #128
 767 0106 6E20     		movs	r0, #110
 768 0108 FFF7FEFF 		bl	write_reg
 769 010c 0346     		mov	r3, r0
 770 010e FB71     		strb	r3, [r7, #7]
 771 0110 97F90730 		ldrsb	r3, [r7, #7]
 772 0114 002B     		cmp	r3, #0
 773 0116 02D0     		beq	.L65
 774 0118 97F90730 		ldrsb	r3, [r7, #7]
 775 011c 79E1     		b	.L56
 776              	.L65:
 777 011e 4022     		movs	r2, #64
 778 0120 8121     		movs	r1, #129
 779 0122 6E20     		movs	r0, #110
 780 0124 FFF7FEFF 		bl	write_reg
 781 0128 0346     		mov	r3, r0
 782 012a FB71     		strb	r3, [r7, #7]
 783 012c 97F90730 		ldrsb	r3, [r7, #7]
 784 0130 002B     		cmp	r3, #0
 785 0132 02D0     		beq	.L66
 786 0134 97F90730 		ldrsb	r3, [r7, #7]
 787 0138 6BE1     		b	.L56
 788              	.L66:
 789 013a 0022     		movs	r2, #0
 790 013c 6021     		movs	r1, #96
 791 013e 6E20     		movs	r0, #110
 792 0140 FFF7FEFF 		bl	write_reg
 793 0144 0346     		mov	r3, r0
 794 0146 FB71     		strb	r3, [r7, #7]
 795 0148 97F90730 		ldrsb	r3, [r7, #7]
 796 014c 002B     		cmp	r3, #0
 797 014e 02D0     		beq	.L67
ARM GAS  /var/folders/d2/nstgp4h54kz7g1l847x_b8wc0000gn/T//ccDDtcEe.s 			page 15


 798 0150 97F90730 		ldrsb	r3, [r7, #7]
 799 0154 5DE1     		b	.L56
 800              	.L67:
 801 0156 0C22     		movs	r2, #12
 802 0158 6121     		movs	r1, #97
 803 015a 6E20     		movs	r0, #110
 804 015c FFF7FEFF 		bl	write_reg
 805 0160 0346     		mov	r3, r0
 806 0162 FB71     		strb	r3, [r7, #7]
 807 0164 97F90730 		ldrsb	r3, [r7, #7]
 808 0168 002B     		cmp	r3, #0
 809 016a 02D0     		beq	.L68
 810 016c 97F90730 		ldrsb	r3, [r7, #7]
 811 0170 4FE1     		b	.L56
 812              	.L68:
 813 0172 0122     		movs	r2, #1
 814 0174 6221     		movs	r1, #98
 815 0176 6E20     		movs	r0, #110
 816 0178 FFF7FEFF 		bl	write_reg
 817 017c 0346     		mov	r3, r0
 818 017e FB71     		strb	r3, [r7, #7]
 819 0180 97F90730 		ldrsb	r3, [r7, #7]
 820 0184 002B     		cmp	r3, #0
 821 0186 02D0     		beq	.L69
 822 0188 97F90730 		ldrsb	r3, [r7, #7]
 823 018c 41E1     		b	.L56
 824              	.L69:
 825 018e EC22     		movs	r2, #236
 826 0190 6321     		movs	r1, #99
 827 0192 6E20     		movs	r0, #110
 828 0194 FFF7FEFF 		bl	write_reg
 829 0198 0346     		mov	r3, r0
 830 019a FB71     		strb	r3, [r7, #7]
 831 019c 97F90730 		ldrsb	r3, [r7, #7]
 832 01a0 002B     		cmp	r3, #0
 833 01a2 02D0     		beq	.L70
 834 01a4 97F90730 		ldrsb	r3, [r7, #7]
 835 01a8 33E1     		b	.L56
 836              	.L70:
 837 01aa 9C4B     		ldr	r3, .L92
 838 01ac 1B79     		ldrb	r3, [r3, #4]	@ zero_extendqisi2
 839 01ae 0D2B     		cmp	r3, #13
 840 01b0 0DD1     		bne	.L71
 841 01b2 0322     		movs	r2, #3
 842 01b4 6821     		movs	r1, #104
 843 01b6 6E20     		movs	r0, #110
 844 01b8 FFF7FEFF 		bl	write_reg
 845 01bc 0346     		mov	r3, r0
 846 01be FB71     		strb	r3, [r7, #7]
 847 01c0 97F90730 		ldrsb	r3, [r7, #7]
 848 01c4 002B     		cmp	r3, #0
 849 01c6 10D0     		beq	.L72
 850 01c8 97F90730 		ldrsb	r3, [r7, #7]
 851 01cc 21E1     		b	.L56
 852              	.L71:
 853 01ce 0122     		movs	r2, #1
 854 01d0 6821     		movs	r1, #104
ARM GAS  /var/folders/d2/nstgp4h54kz7g1l847x_b8wc0000gn/T//ccDDtcEe.s 			page 16


 855 01d2 6E20     		movs	r0, #110
 856 01d4 FFF7FEFF 		bl	write_reg
 857 01d8 0346     		mov	r3, r0
 858 01da FB71     		strb	r3, [r7, #7]
 859 01dc 97F90730 		ldrsb	r3, [r7, #7]
 860 01e0 002B     		cmp	r3, #0
 861 01e2 02D0     		beq	.L72
 862 01e4 97F90730 		ldrsb	r3, [r7, #7]
 863 01e8 13E1     		b	.L56
 864              	.L72:
 865 01ea 0122     		movs	r2, #1
 866 01ec 8221     		movs	r1, #130
 867 01ee 6E20     		movs	r0, #110
 868 01f0 FFF7FEFF 		bl	write_reg
 869 01f4 0346     		mov	r3, r0
 870 01f6 FB71     		strb	r3, [r7, #7]
 871 01f8 97F90730 		ldrsb	r3, [r7, #7]
 872 01fc 002B     		cmp	r3, #0
 873 01fe 02D0     		beq	.L73
 874 0200 97F90730 		ldrsb	r3, [r7, #7]
 875 0204 05E1     		b	.L56
 876              	.L73:
 877 0206 0220     		movs	r0, #2
 878 0208 FFF7FEFF 		bl	po6030_set_bank
 879 020c 0346     		mov	r3, r0
 880 020e FB71     		strb	r3, [r7, #7]
 881 0210 97F90730 		ldrsb	r3, [r7, #7]
 882 0214 002B     		cmp	r3, #0
 883 0216 02D0     		beq	.L74
 884 0218 97F90730 		ldrsb	r3, [r7, #7]
 885 021c F9E0     		b	.L56
 886              	.L74:
 887 021e 0022     		movs	r2, #0
 888 0220 1021     		movs	r1, #16
 889 0222 6E20     		movs	r0, #110
 890 0224 FFF7FEFF 		bl	write_reg
 891 0228 0346     		mov	r3, r0
 892 022a FB71     		strb	r3, [r7, #7]
 893 022c 97F90730 		ldrsb	r3, [r7, #7]
 894 0230 002B     		cmp	r3, #0
 895 0232 02D0     		beq	.L75
 896 0234 97F90730 		ldrsb	r3, [r7, #7]
 897 0238 EBE0     		b	.L56
 898              	.L75:
 899 023a 1222     		movs	r2, #18
 900 023c 1121     		movs	r1, #17
 901 023e 6E20     		movs	r0, #110
 902 0240 FFF7FEFF 		bl	write_reg
 903 0244 0346     		mov	r3, r0
 904 0246 FB71     		strb	r3, [r7, #7]
 905 0248 97F90730 		ldrsb	r3, [r7, #7]
 906 024c 002B     		cmp	r3, #0
 907 024e 02D0     		beq	.L76
 908 0250 97F90730 		ldrsb	r3, [r7, #7]
 909 0254 DDE0     		b	.L56
 910              	.L76:
 911 0256 0022     		movs	r2, #0
ARM GAS  /var/folders/d2/nstgp4h54kz7g1l847x_b8wc0000gn/T//ccDDtcEe.s 			page 17


 912 0258 1221     		movs	r1, #18
 913 025a 6E20     		movs	r0, #110
 914 025c FFF7FEFF 		bl	write_reg
 915 0260 0346     		mov	r3, r0
 916 0262 FB71     		strb	r3, [r7, #7]
 917 0264 97F90730 		ldrsb	r3, [r7, #7]
 918 0268 002B     		cmp	r3, #0
 919 026a 02D0     		beq	.L77
 920 026c 97F90730 		ldrsb	r3, [r7, #7]
 921 0270 CFE0     		b	.L56
 922              	.L77:
 923 0272 0E22     		movs	r2, #14
 924 0274 1321     		movs	r1, #19
 925 0276 6E20     		movs	r0, #110
 926 0278 FFF7FEFF 		bl	write_reg
 927 027c 0346     		mov	r3, r0
 928 027e FB71     		strb	r3, [r7, #7]
 929 0280 97F90730 		ldrsb	r3, [r7, #7]
 930 0284 002B     		cmp	r3, #0
 931 0286 02D0     		beq	.L78
 932 0288 97F90730 		ldrsb	r3, [r7, #7]
 933 028c C1E0     		b	.L56
 934              	.L78:
 935 028e 0122     		movs	r2, #1
 936 0290 1421     		movs	r1, #20
 937 0292 6E20     		movs	r0, #110
 938 0294 FFF7FEFF 		bl	write_reg
 939 0298 0346     		mov	r3, r0
 940 029a FB71     		strb	r3, [r7, #7]
 941 029c 97F90730 		ldrsb	r3, [r7, #7]
 942 02a0 002B     		cmp	r3, #0
 943 02a2 02D0     		beq	.L79
 944 02a4 97F90730 		ldrsb	r3, [r7, #7]
 945 02a8 B3E0     		b	.L56
 946              	.L79:
 947 02aa 3022     		movs	r2, #48
 948 02ac 1521     		movs	r1, #21
 949 02ae 6E20     		movs	r0, #110
 950 02b0 FFF7FEFF 		bl	write_reg
 951 02b4 0346     		mov	r3, r0
 952 02b6 FB71     		strb	r3, [r7, #7]
 953 02b8 97F90730 		ldrsb	r3, [r7, #7]
 954 02bc 002B     		cmp	r3, #0
 955 02be 02D0     		beq	.L80
 956 02c0 97F90730 		ldrsb	r3, [r7, #7]
 957 02c4 A5E0     		b	.L56
 958              	.L80:
 959 02c6 0022     		movs	r2, #0
 960 02c8 1621     		movs	r1, #22
 961 02ca 6E20     		movs	r0, #110
 962 02cc FFF7FEFF 		bl	write_reg
 963 02d0 0346     		mov	r3, r0
 964 02d2 FB71     		strb	r3, [r7, #7]
 965 02d4 97F90730 		ldrsb	r3, [r7, #7]
 966 02d8 002B     		cmp	r3, #0
 967 02da 02D0     		beq	.L81
 968 02dc 97F90730 		ldrsb	r3, [r7, #7]
ARM GAS  /var/folders/d2/nstgp4h54kz7g1l847x_b8wc0000gn/T//ccDDtcEe.s 			page 18


 969 02e0 97E0     		b	.L56
 970              	.L81:
 971 02e2 DF22     		movs	r2, #223
 972 02e4 1721     		movs	r1, #23
 973 02e6 6E20     		movs	r0, #110
 974 02e8 FFF7FEFF 		bl	write_reg
 975 02ec 0346     		mov	r3, r0
 976 02ee FB71     		strb	r3, [r7, #7]
 977 02f0 97F90730 		ldrsb	r3, [r7, #7]
 978 02f4 002B     		cmp	r3, #0
 979 02f6 02D0     		beq	.L82
 980 02f8 97F90730 		ldrsb	r3, [r7, #7]
 981 02fc 89E0     		b	.L56
 982              	.L82:
 983 02fe 0022     		movs	r2, #0
 984 0300 1821     		movs	r1, #24
 985 0302 6E20     		movs	r0, #110
 986 0304 FFF7FEFF 		bl	write_reg
 987 0308 0346     		mov	r3, r0
 988 030a FB71     		strb	r3, [r7, #7]
 989 030c 97F90730 		ldrsb	r3, [r7, #7]
 990 0310 002B     		cmp	r3, #0
 991 0312 02D0     		beq	.L83
 992 0314 97F90730 		ldrsb	r3, [r7, #7]
 993 0318 7BE0     		b	.L56
 994              	.L83:
 995 031a 7222     		movs	r2, #114
 996 031c 1921     		movs	r1, #25
 997 031e 6E20     		movs	r0, #110
 998 0320 FFF7FEFF 		bl	write_reg
 999 0324 0346     		mov	r3, r0
 1000 0326 FB71     		strb	r3, [r7, #7]
 1001 0328 97F90730 		ldrsb	r3, [r7, #7]
 1002 032c 002B     		cmp	r3, #0
 1003 032e 02D0     		beq	.L84
 1004 0330 97F90730 		ldrsb	r3, [r7, #7]
 1005 0334 6DE0     		b	.L56
 1006              	.L84:
 1007 0336 0022     		movs	r2, #0
 1008 0338 1A21     		movs	r1, #26
 1009 033a 6E20     		movs	r0, #110
 1010 033c FFF7FEFF 		bl	write_reg
 1011 0340 0346     		mov	r3, r0
 1012 0342 FB71     		strb	r3, [r7, #7]
 1013 0344 97F90730 		ldrsb	r3, [r7, #7]
 1014 0348 002B     		cmp	r3, #0
 1015 034a 02D0     		beq	.L85
 1016 034c 97F90730 		ldrsb	r3, [r7, #7]
 1017 0350 5FE0     		b	.L56
 1018              	.L85:
 1019 0352 4322     		movs	r2, #67
 1020 0354 1B21     		movs	r1, #27
 1021 0356 6E20     		movs	r0, #110
 1022 0358 FFF7FEFF 		bl	write_reg
 1023 035c 0346     		mov	r3, r0
 1024 035e FB71     		strb	r3, [r7, #7]
 1025 0360 97F90730 		ldrsb	r3, [r7, #7]
ARM GAS  /var/folders/d2/nstgp4h54kz7g1l847x_b8wc0000gn/T//ccDDtcEe.s 			page 19


 1026 0364 002B     		cmp	r3, #0
 1027 0366 02D0     		beq	.L86
 1028 0368 97F90730 		ldrsb	r3, [r7, #7]
 1029 036c 51E0     		b	.L56
 1030              	.L86:
 1031 036e 0022     		movs	r2, #0
 1032 0370 1C21     		movs	r1, #28
 1033 0372 6E20     		movs	r0, #110
 1034 0374 FFF7FEFF 		bl	write_reg
 1035 0378 0346     		mov	r3, r0
 1036 037a FB71     		strb	r3, [r7, #7]
 1037 037c 97F90730 		ldrsb	r3, [r7, #7]
 1038 0380 002B     		cmp	r3, #0
 1039 0382 02D0     		beq	.L87
 1040 0384 97F90730 		ldrsb	r3, [r7, #7]
 1041 0388 43E0     		b	.L56
 1042              	.L87:
 1043 038a 5022     		movs	r2, #80
 1044 038c 1D21     		movs	r1, #29
 1045 038e 6E20     		movs	r0, #110
 1046 0390 FFF7FEFF 		bl	write_reg
 1047 0394 0346     		mov	r3, r0
 1048 0396 FB71     		strb	r3, [r7, #7]
 1049 0398 97F90730 		ldrsb	r3, [r7, #7]
 1050 039c 002B     		cmp	r3, #0
 1051 039e 02D0     		beq	.L88
 1052 03a0 97F90730 		ldrsb	r3, [r7, #7]
 1053 03a4 35E0     		b	.L56
 1054              	.L88:
 1055 03a6 0022     		movs	r2, #0
 1056 03a8 1E21     		movs	r1, #30
 1057 03aa 6E20     		movs	r0, #110
 1058 03ac FFF7FEFF 		bl	write_reg
 1059 03b0 0346     		mov	r3, r0
 1060 03b2 FB71     		strb	r3, [r7, #7]
 1061 03b4 97F90730 		ldrsb	r3, [r7, #7]
 1062 03b8 002B     		cmp	r3, #0
 1063 03ba 02D0     		beq	.L89
 1064 03bc 97F90730 		ldrsb	r3, [r7, #7]
 1065 03c0 27E0     		b	.L56
 1066              	.L89:
 1067 03c2 5022     		movs	r2, #80
 1068 03c4 1F21     		movs	r1, #31
 1069 03c6 6E20     		movs	r0, #110
 1070 03c8 FFF7FEFF 		bl	write_reg
 1071 03cc 0346     		mov	r3, r0
 1072 03ce FB71     		strb	r3, [r7, #7]
 1073 03d0 97F90730 		ldrsb	r3, [r7, #7]
 1074 03d4 002B     		cmp	r3, #0
 1075 03d6 02D0     		beq	.L90
 1076 03d8 97F90730 		ldrsb	r3, [r7, #7]
 1077 03dc 19E0     		b	.L56
 1078              	.L90:
 1079 03de 0020     		movs	r0, #0
 1080 03e0 FFF7FEFF 		bl	po6030_set_bank
 1081 03e4 0346     		mov	r3, r0
 1082 03e6 FB71     		strb	r3, [r7, #7]
ARM GAS  /var/folders/d2/nstgp4h54kz7g1l847x_b8wc0000gn/T//ccDDtcEe.s 			page 20


 1083 03e8 97F90730 		ldrsb	r3, [r7, #7]
 1084 03ec 002B     		cmp	r3, #0
 1085 03ee 02D0     		beq	.L91
 1086 03f0 97F90730 		ldrsb	r3, [r7, #7]
 1087 03f4 0DE0     		b	.L56
 1088              	.L91:
 1089 03f6 094B     		ldr	r3, .L92
 1090 03f8 4FF4A072 		mov	r2, #320
 1091 03fc 1A80     		strh	r2, [r3]	@ movhi
 1092 03fe 074B     		ldr	r3, .L92
 1093 0400 F022     		movs	r2, #240
 1094 0402 5A80     		strh	r2, [r3, #2]	@ movhi
 1095 0404 054B     		ldr	r3, .L92
 1096 0406 4022     		movs	r2, #64
 1097 0408 5A71     		strb	r2, [r3, #5]
 1098 040a 044B     		ldr	r3, .L92
 1099 040c 4022     		movs	r2, #64
 1100 040e 9A71     		strb	r2, [r3, #6]
 1101 0410 0023     		movs	r3, #0
 1102              	.L56:
 1103 0412 1846     		mov	r0, r3
 1104 0414 0837     		adds	r7, r7, #8
 1105 0416 BD46     		mov	sp, r7
 1106              		@ sp needed
 1107 0418 80BD     		pop	{r7, pc}
 1108              	.L93:
 1109 041a 00BF     		.align	2
 1110              	.L92:
 1111 041c 00000000 		.word	po6030_conf
 1112              		.size	po6030_set_qvga, .-po6030_set_qvga
 1113              		.section	.text.po6030_set_qqvga,"ax",%progbits
 1114              		.align	1
 1115              		.global	po6030_set_qqvga
 1116              		.syntax unified
 1117              		.thumb
 1118              		.thumb_func
 1119              		.fpu fpv4-sp-d16
 1120              		.type	po6030_set_qqvga, %function
 1121              	po6030_set_qqvga:
 1122              		@ args = 0, pretend = 0, frame = 8
 1123              		@ frame_needed = 1, uses_anonymous_args = 0
 1124 0000 80B5     		push	{r7, lr}
 1125 0002 82B0     		sub	sp, sp, #8
 1126 0004 00AF     		add	r7, sp, #0
 1127 0006 0023     		movs	r3, #0
 1128 0008 FB71     		strb	r3, [r7, #7]
 1129 000a 0120     		movs	r0, #1
 1130 000c FFF7FEFF 		bl	po6030_set_bank
 1131 0010 0346     		mov	r3, r0
 1132 0012 FB71     		strb	r3, [r7, #7]
 1133 0014 97F90730 		ldrsb	r3, [r7, #7]
 1134 0018 002B     		cmp	r3, #0
 1135 001a 02D0     		beq	.L95
 1136 001c 97F90730 		ldrsb	r3, [r7, #7]
 1137 0020 EAE1     		b	.L96
 1138              	.L95:
 1139 0022 0022     		movs	r2, #0
ARM GAS  /var/folders/d2/nstgp4h54kz7g1l847x_b8wc0000gn/T//ccDDtcEe.s 			page 21


 1140 0024 5021     		movs	r1, #80
 1141 0026 6E20     		movs	r0, #110
 1142 0028 FFF7FEFF 		bl	write_reg
 1143 002c 0346     		mov	r3, r0
 1144 002e FB71     		strb	r3, [r7, #7]
 1145 0030 97F90730 		ldrsb	r3, [r7, #7]
 1146 0034 002B     		cmp	r3, #0
 1147 0036 02D0     		beq	.L97
 1148 0038 97F90730 		ldrsb	r3, [r7, #7]
 1149 003c DCE1     		b	.L96
 1150              	.L97:
 1151 003e 0322     		movs	r2, #3
 1152 0040 5121     		movs	r1, #81
 1153 0042 6E20     		movs	r0, #110
 1154 0044 FFF7FEFF 		bl	write_reg
 1155 0048 0346     		mov	r3, r0
 1156 004a FB71     		strb	r3, [r7, #7]
 1157 004c 97F90730 		ldrsb	r3, [r7, #7]
 1158 0050 002B     		cmp	r3, #0
 1159 0052 02D0     		beq	.L98
 1160 0054 97F90730 		ldrsb	r3, [r7, #7]
 1161 0058 CEE1     		b	.L96
 1162              	.L98:
 1163 005a 0022     		movs	r2, #0
 1164 005c 5221     		movs	r1, #82
 1165 005e 6E20     		movs	r0, #110
 1166 0060 FFF7FEFF 		bl	write_reg
 1167 0064 0346     		mov	r3, r0
 1168 0066 FB71     		strb	r3, [r7, #7]
 1169 0068 97F90730 		ldrsb	r3, [r7, #7]
 1170 006c 002B     		cmp	r3, #0
 1171 006e 02D0     		beq	.L99
 1172 0070 97F90730 		ldrsb	r3, [r7, #7]
 1173 0074 C0E1     		b	.L96
 1174              	.L99:
 1175 0076 0222     		movs	r2, #2
 1176 0078 5321     		movs	r1, #83
 1177 007a 6E20     		movs	r0, #110
 1178 007c FFF7FEFF 		bl	write_reg
 1179 0080 0346     		mov	r3, r0
 1180 0082 FB71     		strb	r3, [r7, #7]
 1181 0084 97F90730 		ldrsb	r3, [r7, #7]
 1182 0088 002B     		cmp	r3, #0
 1183 008a 02D0     		beq	.L100
 1184 008c 97F90730 		ldrsb	r3, [r7, #7]
 1185 0090 B2E1     		b	.L96
 1186              	.L100:
 1187 0092 0022     		movs	r2, #0
 1188 0094 5421     		movs	r1, #84
 1189 0096 6E20     		movs	r0, #110
 1190 0098 FFF7FEFF 		bl	write_reg
 1191 009c 0346     		mov	r3, r0
 1192 009e FB71     		strb	r3, [r7, #7]
 1193 00a0 97F90730 		ldrsb	r3, [r7, #7]
 1194 00a4 002B     		cmp	r3, #0
 1195 00a6 02D0     		beq	.L101
 1196 00a8 97F90730 		ldrsb	r3, [r7, #7]
ARM GAS  /var/folders/d2/nstgp4h54kz7g1l847x_b8wc0000gn/T//ccDDtcEe.s 			page 22


 1197 00ac A4E1     		b	.L96
 1198              	.L101:
 1199 00ae A222     		movs	r2, #162
 1200 00b0 5521     		movs	r1, #85
 1201 00b2 6E20     		movs	r0, #110
 1202 00b4 FFF7FEFF 		bl	write_reg
 1203 00b8 0346     		mov	r3, r0
 1204 00ba FB71     		strb	r3, [r7, #7]
 1205 00bc 97F90730 		ldrsb	r3, [r7, #7]
 1206 00c0 002B     		cmp	r3, #0
 1207 00c2 02D0     		beq	.L102
 1208 00c4 97F90730 		ldrsb	r3, [r7, #7]
 1209 00c8 96E1     		b	.L96
 1210              	.L102:
 1211 00ca 0022     		movs	r2, #0
 1212 00cc 5621     		movs	r1, #86
 1213 00ce 6E20     		movs	r0, #110
 1214 00d0 FFF7FEFF 		bl	write_reg
 1215 00d4 0346     		mov	r3, r0
 1216 00d6 FB71     		strb	r3, [r7, #7]
 1217 00d8 97F90730 		ldrsb	r3, [r7, #7]
 1218 00dc 002B     		cmp	r3, #0
 1219 00de 02D0     		beq	.L103
 1220 00e0 97F90730 		ldrsb	r3, [r7, #7]
 1221 00e4 88E1     		b	.L96
 1222              	.L103:
 1223 00e6 7922     		movs	r2, #121
 1224 00e8 5721     		movs	r1, #87
 1225 00ea 6E20     		movs	r0, #110
 1226 00ec FFF7FEFF 		bl	write_reg
 1227 00f0 0346     		mov	r3, r0
 1228 00f2 FB71     		strb	r3, [r7, #7]
 1229 00f4 97F90730 		ldrsb	r3, [r7, #7]
 1230 00f8 002B     		cmp	r3, #0
 1231 00fa 02D0     		beq	.L104
 1232 00fc 97F90730 		ldrsb	r3, [r7, #7]
 1233 0100 7AE1     		b	.L96
 1234              	.L104:
 1235 0102 8022     		movs	r2, #128
 1236 0104 8021     		movs	r1, #128
 1237 0106 6E20     		movs	r0, #110
 1238 0108 FFF7FEFF 		bl	write_reg
 1239 010c 0346     		mov	r3, r0
 1240 010e FB71     		strb	r3, [r7, #7]
 1241 0110 97F90730 		ldrsb	r3, [r7, #7]
 1242 0114 002B     		cmp	r3, #0
 1243 0116 02D0     		beq	.L105
 1244 0118 97F90730 		ldrsb	r3, [r7, #7]
 1245 011c 6CE1     		b	.L96
 1246              	.L105:
 1247 011e 8022     		movs	r2, #128
 1248 0120 8121     		movs	r1, #129
 1249 0122 6E20     		movs	r0, #110
 1250 0124 FFF7FEFF 		bl	write_reg
 1251 0128 0346     		mov	r3, r0
 1252 012a FB71     		strb	r3, [r7, #7]
 1253 012c 97F90730 		ldrsb	r3, [r7, #7]
ARM GAS  /var/folders/d2/nstgp4h54kz7g1l847x_b8wc0000gn/T//ccDDtcEe.s 			page 23


 1254 0130 002B     		cmp	r3, #0
 1255 0132 02D0     		beq	.L106
 1256 0134 97F90730 		ldrsb	r3, [r7, #7]
 1257 0138 5EE1     		b	.L96
 1258              	.L106:
 1259 013a 0022     		movs	r2, #0
 1260 013c 6021     		movs	r1, #96
 1261 013e 6E20     		movs	r0, #110
 1262 0140 FFF7FEFF 		bl	write_reg
 1263 0144 0346     		mov	r3, r0
 1264 0146 FB71     		strb	r3, [r7, #7]
 1265 0148 97F90730 		ldrsb	r3, [r7, #7]
 1266 014c 002B     		cmp	r3, #0
 1267 014e 02D0     		beq	.L107
 1268 0150 97F90730 		ldrsb	r3, [r7, #7]
 1269 0154 50E1     		b	.L96
 1270              	.L107:
 1271 0156 0C22     		movs	r2, #12
 1272 0158 6121     		movs	r1, #97
 1273 015a 6E20     		movs	r0, #110
 1274 015c FFF7FEFF 		bl	write_reg
 1275 0160 0346     		mov	r3, r0
 1276 0162 FB71     		strb	r3, [r7, #7]
 1277 0164 97F90730 		ldrsb	r3, [r7, #7]
 1278 0168 002B     		cmp	r3, #0
 1279 016a 02D0     		beq	.L108
 1280 016c 97F90730 		ldrsb	r3, [r7, #7]
 1281 0170 42E1     		b	.L96
 1282              	.L108:
 1283 0172 0122     		movs	r2, #1
 1284 0174 6221     		movs	r1, #98
 1285 0176 6E20     		movs	r0, #110
 1286 0178 FFF7FEFF 		bl	write_reg
 1287 017c 0346     		mov	r3, r0
 1288 017e FB71     		strb	r3, [r7, #7]
 1289 0180 97F90730 		ldrsb	r3, [r7, #7]
 1290 0184 002B     		cmp	r3, #0
 1291 0186 02D0     		beq	.L109
 1292 0188 97F90730 		ldrsb	r3, [r7, #7]
 1293 018c 34E1     		b	.L96
 1294              	.L109:
 1295 018e EC22     		movs	r2, #236
 1296 0190 6321     		movs	r1, #99
 1297 0192 6E20     		movs	r0, #110
 1298 0194 FFF7FEFF 		bl	write_reg
 1299 0198 0346     		mov	r3, r0
 1300 019a FB71     		strb	r3, [r7, #7]
 1301 019c 97F90730 		ldrsb	r3, [r7, #7]
 1302 01a0 002B     		cmp	r3, #0
 1303 01a2 02D0     		beq	.L110
 1304 01a4 97F90730 		ldrsb	r3, [r7, #7]
 1305 01a8 26E1     		b	.L96
 1306              	.L110:
 1307 01aa 954B     		ldr	r3, .L131
 1308 01ac 1B79     		ldrb	r3, [r3, #4]	@ zero_extendqisi2
 1309 01ae 0D2B     		cmp	r3, #13
 1310 01b0 0DD1     		bne	.L111
ARM GAS  /var/folders/d2/nstgp4h54kz7g1l847x_b8wc0000gn/T//ccDDtcEe.s 			page 24


 1311 01b2 0722     		movs	r2, #7
 1312 01b4 6821     		movs	r1, #104
 1313 01b6 6E20     		movs	r0, #110
 1314 01b8 FFF7FEFF 		bl	write_reg
 1315 01bc 0346     		mov	r3, r0
 1316 01be FB71     		strb	r3, [r7, #7]
 1317 01c0 97F90730 		ldrsb	r3, [r7, #7]
 1318 01c4 002B     		cmp	r3, #0
 1319 01c6 10D0     		beq	.L112
 1320 01c8 97F90730 		ldrsb	r3, [r7, #7]
 1321 01cc 14E1     		b	.L96
 1322              	.L111:
 1323 01ce 0322     		movs	r2, #3
 1324 01d0 6821     		movs	r1, #104
 1325 01d2 6E20     		movs	r0, #110
 1326 01d4 FFF7FEFF 		bl	write_reg
 1327 01d8 0346     		mov	r3, r0
 1328 01da FB71     		strb	r3, [r7, #7]
 1329 01dc 97F90730 		ldrsb	r3, [r7, #7]
 1330 01e0 002B     		cmp	r3, #0
 1331 01e2 02D0     		beq	.L112
 1332 01e4 97F90730 		ldrsb	r3, [r7, #7]
 1333 01e8 06E1     		b	.L96
 1334              	.L112:
 1335 01ea 0122     		movs	r2, #1
 1336 01ec 8221     		movs	r1, #130
 1337 01ee 6E20     		movs	r0, #110
 1338 01f0 FFF7FEFF 		bl	write_reg
 1339 01f4 0346     		mov	r3, r0
 1340 01f6 FB71     		strb	r3, [r7, #7]
 1341 01f8 97F90730 		ldrsb	r3, [r7, #7]
 1342 01fc 002B     		cmp	r3, #0
 1343 01fe 02D0     		beq	.L113
 1344 0200 97F90730 		ldrsb	r3, [r7, #7]
 1345 0204 F8E0     		b	.L96
 1346              	.L113:
 1347 0206 0220     		movs	r0, #2
 1348 0208 FFF7FEFF 		bl	po6030_set_bank
 1349 020c 0346     		mov	r3, r0
 1350 020e FB71     		strb	r3, [r7, #7]
 1351 0210 97F90730 		ldrsb	r3, [r7, #7]
 1352 0214 002B     		cmp	r3, #0
 1353 0216 02D0     		beq	.L114
 1354 0218 97F90730 		ldrsb	r3, [r7, #7]
 1355 021c ECE0     		b	.L96
 1356              	.L114:
 1357 021e 0022     		movs	r2, #0
 1358 0220 1021     		movs	r1, #16
 1359 0222 6E20     		movs	r0, #110
 1360 0224 FFF7FEFF 		bl	write_reg
 1361 0228 0346     		mov	r3, r0
 1362 022a FB71     		strb	r3, [r7, #7]
 1363 022c 97F90730 		ldrsb	r3, [r7, #7]
 1364 0230 002B     		cmp	r3, #0
 1365 0232 02D0     		beq	.L115
 1366 0234 97F90730 		ldrsb	r3, [r7, #7]
 1367 0238 DEE0     		b	.L96
ARM GAS  /var/folders/d2/nstgp4h54kz7g1l847x_b8wc0000gn/T//ccDDtcEe.s 			page 25


 1368              	.L115:
 1369 023a 0922     		movs	r2, #9
 1370 023c 1121     		movs	r1, #17
 1371 023e 6E20     		movs	r0, #110
 1372 0240 FFF7FEFF 		bl	write_reg
 1373 0244 0346     		mov	r3, r0
 1374 0246 FB71     		strb	r3, [r7, #7]
 1375 0248 97F90730 		ldrsb	r3, [r7, #7]
 1376 024c 002B     		cmp	r3, #0
 1377 024e 02D0     		beq	.L116
 1378 0250 97F90730 		ldrsb	r3, [r7, #7]
 1379 0254 D0E0     		b	.L96
 1380              	.L116:
 1381 0256 0022     		movs	r2, #0
 1382 0258 1221     		movs	r1, #18
 1383 025a 6E20     		movs	r0, #110
 1384 025c FFF7FEFF 		bl	write_reg
 1385 0260 0346     		mov	r3, r0
 1386 0262 FB71     		strb	r3, [r7, #7]
 1387 0264 97F90730 		ldrsb	r3, [r7, #7]
 1388 0268 002B     		cmp	r3, #0
 1389 026a 02D0     		beq	.L117
 1390 026c 97F90730 		ldrsb	r3, [r7, #7]
 1391 0270 C2E0     		b	.L96
 1392              	.L117:
 1393 0272 0722     		movs	r2, #7
 1394 0274 1321     		movs	r1, #19
 1395 0276 6E20     		movs	r0, #110
 1396 0278 FFF7FEFF 		bl	write_reg
 1397 027c 0346     		mov	r3, r0
 1398 027e FB71     		strb	r3, [r7, #7]
 1399 0280 97F90730 		ldrsb	r3, [r7, #7]
 1400 0284 002B     		cmp	r3, #0
 1401 0286 02D0     		beq	.L118
 1402 0288 97F90730 		ldrsb	r3, [r7, #7]
 1403 028c B4E0     		b	.L96
 1404              	.L118:
 1405 028e 0022     		movs	r2, #0
 1406 0290 1421     		movs	r1, #20
 1407 0292 6E20     		movs	r0, #110
 1408 0294 FFF7FEFF 		bl	write_reg
 1409 0298 0346     		mov	r3, r0
 1410 029a FB71     		strb	r3, [r7, #7]
 1411 029c 97F90730 		ldrsb	r3, [r7, #7]
 1412 02a0 002B     		cmp	r3, #0
 1413 02a2 02D0     		beq	.L119
 1414 02a4 97F90730 		ldrsb	r3, [r7, #7]
 1415 02a8 A6E0     		b	.L96
 1416              	.L119:
 1417 02aa 9822     		movs	r2, #152
 1418 02ac 1521     		movs	r1, #21
 1419 02ae 6E20     		movs	r0, #110
 1420 02b0 FFF7FEFF 		bl	write_reg
 1421 02b4 0346     		mov	r3, r0
 1422 02b6 FB71     		strb	r3, [r7, #7]
 1423 02b8 97F90730 		ldrsb	r3, [r7, #7]
 1424 02bc 002B     		cmp	r3, #0
ARM GAS  /var/folders/d2/nstgp4h54kz7g1l847x_b8wc0000gn/T//ccDDtcEe.s 			page 26


 1425 02be 02D0     		beq	.L120
 1426 02c0 97F90730 		ldrsb	r3, [r7, #7]
 1427 02c4 98E0     		b	.L96
 1428              	.L120:
 1429 02c6 0022     		movs	r2, #0
 1430 02c8 1621     		movs	r1, #22
 1431 02ca 6E20     		movs	r0, #110
 1432 02cc FFF7FEFF 		bl	write_reg
 1433 02d0 0346     		mov	r3, r0
 1434 02d2 FB71     		strb	r3, [r7, #7]
 1435 02d4 97F90730 		ldrsb	r3, [r7, #7]
 1436 02d8 002B     		cmp	r3, #0
 1437 02da 02D0     		beq	.L121
 1438 02dc 97F90730 		ldrsb	r3, [r7, #7]
 1439 02e0 8AE0     		b	.L96
 1440              	.L121:
 1441 02e2 6F22     		movs	r2, #111
 1442 02e4 1721     		movs	r1, #23
 1443 02e6 6E20     		movs	r0, #110
 1444 02e8 FFF7FEFF 		bl	write_reg
 1445 02ec 0346     		mov	r3, r0
 1446 02ee FB71     		strb	r3, [r7, #7]
 1447 02f0 97F90730 		ldrsb	r3, [r7, #7]
 1448 02f4 002B     		cmp	r3, #0
 1449 02f6 02D0     		beq	.L122
 1450 02f8 97F90730 		ldrsb	r3, [r7, #7]
 1451 02fc 7CE0     		b	.L96
 1452              	.L122:
 1453 02fe 0022     		movs	r2, #0
 1454 0300 1821     		movs	r1, #24
 1455 0302 6E20     		movs	r0, #110
 1456 0304 FFF7FEFF 		bl	write_reg
 1457 0308 0346     		mov	r3, r0
 1458 030a FB71     		strb	r3, [r7, #7]
 1459 030c 97F90730 		ldrsb	r3, [r7, #7]
 1460 0310 002B     		cmp	r3, #0
 1461 0312 02D0     		beq	.L123
 1462 0314 97F90730 		ldrsb	r3, [r7, #7]
 1463 0318 6EE0     		b	.L96
 1464              	.L123:
 1465 031a 3922     		movs	r2, #57
 1466 031c 1921     		movs	r1, #25
 1467 031e 6E20     		movs	r0, #110
 1468 0320 FFF7FEFF 		bl	write_reg
 1469 0324 0346     		mov	r3, r0
 1470 0326 FB71     		strb	r3, [r7, #7]
 1471 0328 97F90730 		ldrsb	r3, [r7, #7]
 1472 032c 002B     		cmp	r3, #0
 1473 032e 02D0     		beq	.L124
 1474 0330 97F90730 		ldrsb	r3, [r7, #7]
 1475 0334 60E0     		b	.L96
 1476              	.L124:
 1477 0336 0022     		movs	r2, #0
 1478 0338 1A21     		movs	r1, #26
 1479 033a 6E20     		movs	r0, #110
 1480 033c FFF7FEFF 		bl	write_reg
 1481 0340 0346     		mov	r3, r0
ARM GAS  /var/folders/d2/nstgp4h54kz7g1l847x_b8wc0000gn/T//ccDDtcEe.s 			page 27


 1482 0342 FB71     		strb	r3, [r7, #7]
 1483 0344 97F90730 		ldrsb	r3, [r7, #7]
 1484 0348 002B     		cmp	r3, #0
 1485 034a 02D0     		beq	.L125
 1486 034c 97F90730 		ldrsb	r3, [r7, #7]
 1487 0350 52E0     		b	.L96
 1488              	.L125:
 1489 0352 2122     		movs	r2, #33
 1490 0354 1B21     		movs	r1, #27
 1491 0356 6E20     		movs	r0, #110
 1492 0358 FFF7FEFF 		bl	write_reg
 1493 035c 0346     		mov	r3, r0
 1494 035e FB71     		strb	r3, [r7, #7]
 1495 0360 97F90730 		ldrsb	r3, [r7, #7]
 1496 0364 002B     		cmp	r3, #0
 1497 0366 02D0     		beq	.L126
 1498 0368 97F90730 		ldrsb	r3, [r7, #7]
 1499 036c 44E0     		b	.L96
 1500              	.L126:
 1501 036e 0022     		movs	r2, #0
 1502 0370 1C21     		movs	r1, #28
 1503 0372 6E20     		movs	r0, #110
 1504 0374 FFF7FEFF 		bl	write_reg
 1505 0378 0346     		mov	r3, r0
 1506 037a FB71     		strb	r3, [r7, #7]
 1507 037c 97F90730 		ldrsb	r3, [r7, #7]
 1508 0380 002B     		cmp	r3, #0
 1509 0382 02D0     		beq	.L127
 1510 0384 97F90730 		ldrsb	r3, [r7, #7]
 1511 0388 36E0     		b	.L96
 1512              	.L127:
 1513 038a 2822     		movs	r2, #40
 1514 038c 1D21     		movs	r1, #29
 1515 038e 6E20     		movs	r0, #110
 1516 0390 FFF7FEFF 		bl	write_reg
 1517 0394 0346     		mov	r3, r0
 1518 0396 FB71     		strb	r3, [r7, #7]
 1519 0398 97F90730 		ldrsb	r3, [r7, #7]
 1520 039c 002B     		cmp	r3, #0
 1521 039e 02D0     		beq	.L128
 1522 03a0 97F90730 		ldrsb	r3, [r7, #7]
 1523 03a4 28E0     		b	.L96
 1524              	.L128:
 1525 03a6 0022     		movs	r2, #0
 1526 03a8 1E21     		movs	r1, #30
 1527 03aa 6E20     		movs	r0, #110
 1528 03ac FFF7FEFF 		bl	write_reg
 1529 03b0 0346     		mov	r3, r0
 1530 03b2 FB71     		strb	r3, [r7, #7]
 1531 03b4 97F90730 		ldrsb	r3, [r7, #7]
 1532 03b8 002B     		cmp	r3, #0
 1533 03ba 02D0     		beq	.L129
 1534 03bc 97F90730 		ldrsb	r3, [r7, #7]
 1535 03c0 1AE0     		b	.L96
 1536              	.L129:
 1537 03c2 2822     		movs	r2, #40
 1538 03c4 1F21     		movs	r1, #31
ARM GAS  /var/folders/d2/nstgp4h54kz7g1l847x_b8wc0000gn/T//ccDDtcEe.s 			page 28


 1539 03c6 6E20     		movs	r0, #110
 1540 03c8 FFF7FEFF 		bl	write_reg
 1541 03cc 0346     		mov	r3, r0
 1542 03ce FB71     		strb	r3, [r7, #7]
 1543 03d0 97F90730 		ldrsb	r3, [r7, #7]
 1544 03d4 002B     		cmp	r3, #0
 1545 03d6 02D0     		beq	.L130
 1546 03d8 97F90730 		ldrsb	r3, [r7, #7]
 1547 03dc 0CE0     		b	.L96
 1548              	.L130:
 1549 03de 084B     		ldr	r3, .L131
 1550 03e0 A022     		movs	r2, #160
 1551 03e2 1A80     		strh	r2, [r3]	@ movhi
 1552 03e4 064B     		ldr	r3, .L131
 1553 03e6 7822     		movs	r2, #120
 1554 03e8 5A80     		strh	r2, [r3, #2]	@ movhi
 1555 03ea 054B     		ldr	r3, .L131
 1556 03ec 8022     		movs	r2, #128
 1557 03ee 5A71     		strb	r2, [r3, #5]
 1558 03f0 034B     		ldr	r3, .L131
 1559 03f2 8022     		movs	r2, #128
 1560 03f4 9A71     		strb	r2, [r3, #6]
 1561 03f6 0023     		movs	r3, #0
 1562              	.L96:
 1563 03f8 1846     		mov	r0, r3
 1564 03fa 0837     		adds	r7, r7, #8
 1565 03fc BD46     		mov	sp, r7
 1566              		@ sp needed
 1567 03fe 80BD     		pop	{r7, pc}
 1568              	.L132:
 1569              		.align	2
 1570              	.L131:
 1571 0400 00000000 		.word	po6030_conf
 1572              		.size	po6030_set_qqvga, .-po6030_set_qqvga
 1573              		.section	.text.po6030_set_size,"ax",%progbits
 1574              		.align	1
 1575              		.global	po6030_set_size
 1576              		.syntax unified
 1577              		.thumb
 1578              		.thumb_func
 1579              		.fpu fpv4-sp-d16
 1580              		.type	po6030_set_size, %function
 1581              	po6030_set_size:
 1582              		@ args = 0, pretend = 0, frame = 8
 1583              		@ frame_needed = 1, uses_anonymous_args = 0
 1584 0000 80B5     		push	{r7, lr}
 1585 0002 82B0     		sub	sp, sp, #8
 1586 0004 00AF     		add	r7, sp, #0
 1587 0006 0346     		mov	r3, r0
 1588 0008 FB71     		strb	r3, [r7, #7]
 1589 000a FB79     		ldrb	r3, [r7, #7]	@ zero_extendqisi2
 1590 000c 002B     		cmp	r3, #0
 1591 000e 03D1     		bne	.L134
 1592 0010 FFF7FEFF 		bl	po6030_set_vga
 1593 0014 0346     		mov	r3, r0
 1594 0016 0FE0     		b	.L135
 1595              	.L134:
ARM GAS  /var/folders/d2/nstgp4h54kz7g1l847x_b8wc0000gn/T//ccDDtcEe.s 			page 29


 1596 0018 FB79     		ldrb	r3, [r7, #7]	@ zero_extendqisi2
 1597 001a 012B     		cmp	r3, #1
 1598 001c 03D1     		bne	.L136
 1599 001e FFF7FEFF 		bl	po6030_set_qvga
 1600 0022 0346     		mov	r3, r0
 1601 0024 08E0     		b	.L135
 1602              	.L136:
 1603 0026 FB79     		ldrb	r3, [r7, #7]	@ zero_extendqisi2
 1604 0028 022B     		cmp	r3, #2
 1605 002a 03D1     		bne	.L137
 1606 002c FFF7FEFF 		bl	po6030_set_qqvga
 1607 0030 0346     		mov	r3, r0
 1608 0032 01E0     		b	.L135
 1609              	.L137:
 1610 0034 4FF0FF33 		mov	r3, #-1
 1611              	.L135:
 1612 0038 1846     		mov	r0, r3
 1613 003a 0837     		adds	r7, r7, #8
 1614 003c BD46     		mov	sp, r7
 1615              		@ sp needed
 1616 003e 80BD     		pop	{r7, pc}
 1617              		.size	po6030_set_size, .-po6030_set_size
 1618              		.section	.text.po6030_start,"ax",%progbits
 1619              		.align	1
 1620              		.global	po6030_start
 1621              		.syntax unified
 1622              		.thumb
 1623              		.thumb_func
 1624              		.fpu fpv4-sp-d16
 1625              		.type	po6030_start, %function
 1626              	po6030_start:
 1627              		@ args = 0, pretend = 0, frame = 0
 1628              		@ frame_needed = 1, uses_anonymous_args = 0
 1629 0000 80B5     		push	{r7, lr}
 1630 0002 84B0     		sub	sp, sp, #16
 1631 0004 04AF     		add	r7, sp, #16
 1632 0006 2023     		movs	r3, #32
 1633 0008 0293     		str	r3, [sp, #8]
 1634 000a 2023     		movs	r3, #32
 1635 000c 0193     		str	r3, [sp, #4]
 1636 000e 7823     		movs	r3, #120
 1637 0010 0093     		str	r3, [sp]
 1638 0012 A023     		movs	r3, #160
 1639 0014 B422     		movs	r2, #180
 1640 0016 F021     		movs	r1, #240
 1641 0018 0220     		movs	r0, #2
 1642 001a FFF7FEFF 		bl	po6030_advanced_config
 1643 001e 00BF     		nop
 1644 0020 BD46     		mov	sp, r7
 1645              		@ sp needed
 1646 0022 80BD     		pop	{r7, pc}
 1647              		.size	po6030_start, .-po6030_start
 1648              		.section	.text.po6030_config,"ax",%progbits
 1649              		.align	1
 1650              		.global	po6030_config
 1651              		.syntax unified
 1652              		.thumb
ARM GAS  /var/folders/d2/nstgp4h54kz7g1l847x_b8wc0000gn/T//ccDDtcEe.s 			page 30


 1653              		.thumb_func
 1654              		.fpu fpv4-sp-d16
 1655              		.type	po6030_config, %function
 1656              	po6030_config:
 1657              		@ args = 0, pretend = 0, frame = 16
 1658              		@ frame_needed = 1, uses_anonymous_args = 0
 1659 0000 80B5     		push	{r7, lr}
 1660 0002 84B0     		sub	sp, sp, #16
 1661 0004 00AF     		add	r7, sp, #0
 1662 0006 0346     		mov	r3, r0
 1663 0008 0A46     		mov	r2, r1
 1664 000a FB71     		strb	r3, [r7, #7]
 1665 000c 1346     		mov	r3, r2
 1666 000e BB71     		strb	r3, [r7, #6]
 1667 0010 0023     		movs	r3, #0
 1668 0012 FB73     		strb	r3, [r7, #15]
 1669 0014 FB79     		ldrb	r3, [r7, #7]	@ zero_extendqisi2
 1670 0016 1846     		mov	r0, r3
 1671 0018 FFF7FEFF 		bl	po6030_set_format
 1672 001c 0346     		mov	r3, r0
 1673 001e FB73     		strb	r3, [r7, #15]
 1674 0020 97F90F30 		ldrsb	r3, [r7, #15]
 1675 0024 002B     		cmp	r3, #0
 1676 0026 02D0     		beq	.L140
 1677 0028 97F90F30 		ldrsb	r3, [r7, #15]
 1678 002c 0DE0     		b	.L141
 1679              	.L140:
 1680 002e BB79     		ldrb	r3, [r7, #6]	@ zero_extendqisi2
 1681 0030 1846     		mov	r0, r3
 1682 0032 FFF7FEFF 		bl	po6030_set_size
 1683 0036 0346     		mov	r3, r0
 1684 0038 FB73     		strb	r3, [r7, #15]
 1685 003a 97F90F30 		ldrsb	r3, [r7, #15]
 1686 003e 002B     		cmp	r3, #0
 1687 0040 02D0     		beq	.L142
 1688 0042 97F90F30 		ldrsb	r3, [r7, #15]
 1689 0046 00E0     		b	.L141
 1690              	.L142:
 1691 0048 0023     		movs	r3, #0
 1692              	.L141:
 1693 004a 1846     		mov	r0, r3
 1694 004c 1037     		adds	r7, r7, #16
 1695 004e BD46     		mov	sp, r7
 1696              		@ sp needed
 1697 0050 80BD     		pop	{r7, pc}
 1698              		.size	po6030_config, .-po6030_config
 1699              		.section	.text.po6030_advanced_config,"ax",%progbits
 1700              		.align	1
 1701              		.global	po6030_advanced_config
 1702              		.syntax unified
 1703              		.thumb
 1704              		.thumb_func
 1705              		.fpu fpv4-sp-d16
 1706              		.type	po6030_advanced_config, %function
 1707              	po6030_advanced_config:
 1708              		@ args = 12, pretend = 0, frame = 48
 1709              		@ frame_needed = 1, uses_anonymous_args = 0
ARM GAS  /var/folders/d2/nstgp4h54kz7g1l847x_b8wc0000gn/T//ccDDtcEe.s 			page 31


 1710 0000 80B5     		push	{r7, lr}
 1711 0002 8CB0     		sub	sp, sp, #48
 1712 0004 00AF     		add	r7, sp, #0
 1713 0006 B960     		str	r1, [r7, #8]
 1714 0008 7A60     		str	r2, [r7, #4]
 1715 000a 3B60     		str	r3, [r7]
 1716 000c 0346     		mov	r3, r0
 1717 000e FB73     		strb	r3, [r7, #15]
 1718 0010 0023     		movs	r3, #0
 1719 0012 FB75     		strb	r3, [r7, #23]
 1720 0014 BB68     		ldr	r3, [r7, #8]
 1721 0016 0833     		adds	r3, r3, #8
 1722 0018 BB60     		str	r3, [r7, #8]
 1723 001a 7B68     		ldr	r3, [r7, #4]
 1724 001c 0433     		adds	r3, r3, #4
 1725 001e 7B60     		str	r3, [r7, #4]
 1726 0020 BA68     		ldr	r2, [r7, #8]
 1727 0022 3B68     		ldr	r3, [r7]
 1728 0024 1344     		add	r3, r3, r2
 1729 0026 013B     		subs	r3, r3, #1
 1730 0028 FB62     		str	r3, [r7, #44]
 1731 002a 7A68     		ldr	r2, [r7, #4]
 1732 002c BB6B     		ldr	r3, [r7, #56]
 1733 002e 1344     		add	r3, r3, r2
 1734 0030 013B     		subs	r3, r3, #1
 1735 0032 BB62     		str	r3, [r7, #40]
 1736 0034 0023     		movs	r3, #0
 1737 0036 7B62     		str	r3, [r7, #36]
 1738 0038 0023     		movs	r3, #0
 1739 003a 3B62     		str	r3, [r7, #32]
 1740 003c 0023     		movs	r3, #0
 1741 003e FB61     		str	r3, [r7, #28]
 1742 0040 0023     		movs	r3, #0
 1743 0042 BB61     		str	r3, [r7, #24]
 1744 0044 3B68     		ldr	r3, [r7]
 1745 0046 B3F5207F 		cmp	r3, #640
 1746 004a 03D8     		bhi	.L144
 1747 004c BB6B     		ldr	r3, [r7, #56]
 1748 004e B3F5F07F 		cmp	r3, #480
 1749 0052 02D9     		bls	.L145
 1750              	.L144:
 1751 0054 6FF00703 		mvn	r3, #7
 1752 0058 B1E3     		b	.L146
 1753              	.L145:
 1754 005a BB68     		ldr	r3, [r7, #8]
 1755 005c B3F5227F 		cmp	r3, #648
 1756 0060 02D9     		bls	.L147
 1757 0062 6FF00103 		mvn	r3, #1
 1758 0066 AAE3     		b	.L146
 1759              	.L147:
 1760 0068 7B68     		ldr	r3, [r7, #4]
 1761 006a B3F5F27F 		cmp	r3, #484
 1762 006e 02D9     		bls	.L148
 1763 0070 6FF00203 		mvn	r3, #2
 1764 0074 A3E3     		b	.L146
 1765              	.L148:
 1766 0076 FA6A     		ldr	r2, [r7, #44]
ARM GAS  /var/folders/d2/nstgp4h54kz7g1l847x_b8wc0000gn/T//ccDDtcEe.s 			page 32


 1767 0078 BB68     		ldr	r3, [r7, #8]
 1768 007a 9A42     		cmp	r2, r3
 1769 007c 03D9     		bls	.L149
 1770 007e FB6A     		ldr	r3, [r7, #44]
 1771 0080 B3F5227F 		cmp	r3, #648
 1772 0084 02D9     		bls	.L150
 1773              	.L149:
 1774 0086 6FF00303 		mvn	r3, #3
 1775 008a 98E3     		b	.L146
 1776              	.L150:
 1777 008c BA6A     		ldr	r2, [r7, #40]
 1778 008e 7B68     		ldr	r3, [r7, #4]
 1779 0090 9A42     		cmp	r2, r3
 1780 0092 03D9     		bls	.L151
 1781 0094 BB6A     		ldr	r3, [r7, #40]
 1782 0096 B3F5F27F 		cmp	r3, #484
 1783 009a 02D9     		bls	.L152
 1784              	.L151:
 1785 009c 6FF00403 		mvn	r3, #4
 1786 00a0 8DE3     		b	.L146
 1787              	.L152:
 1788 00a2 97F83C30 		ldrb	r3, [r7, #60]	@ zero_extendqisi2
 1789 00a6 402B     		cmp	r3, #64
 1790 00a8 15D0     		beq	.L154
 1791 00aa 802B     		cmp	r3, #128
 1792 00ac 37D0     		beq	.L155
 1793 00ae 202B     		cmp	r3, #32
 1794 00b0 59D1     		bne	.L153
 1795 00b2 3B68     		ldr	r3, [r7]
 1796 00b4 BB4A     		ldr	r2, .L221
 1797 00b6 A2FB0323 		umull	r2, r3, r2, r3
 1798 00ba 5B08     		lsrs	r3, r3, #1
 1799 00bc BA68     		ldr	r2, [r7, #8]
 1800 00be 1344     		add	r3, r3, r2
 1801 00c0 7B62     		str	r3, [r7, #36]
 1802 00c2 3B68     		ldr	r3, [r7]
 1803 00c4 5B00     		lsls	r3, r3, #1
 1804 00c6 B74A     		ldr	r2, .L221
 1805 00c8 A2FB0323 		umull	r2, r3, r2, r3
 1806 00cc 5B08     		lsrs	r3, r3, #1
 1807 00ce BA68     		ldr	r2, [r7, #8]
 1808 00d0 1344     		add	r3, r3, r2
 1809 00d2 3B62     		str	r3, [r7, #32]
 1810 00d4 47E0     		b	.L153
 1811              	.L154:
 1812 00d6 3B68     		ldr	r3, [r7]
 1813 00d8 03F00103 		and	r3, r3, #1
 1814 00dc 002B     		cmp	r3, #0
 1815 00de 02D0     		beq	.L157
 1816 00e0 6FF00503 		mvn	r3, #5
 1817 00e4 6BE3     		b	.L146
 1818              	.L157:
 1819 00e6 BB68     		ldr	r3, [r7, #8]
 1820 00e8 5B08     		lsrs	r3, r3, #1
 1821 00ea 0133     		adds	r3, r3, #1
 1822 00ec BB60     		str	r3, [r7, #8]
 1823 00ee 3B68     		ldr	r3, [r7]
ARM GAS  /var/folders/d2/nstgp4h54kz7g1l847x_b8wc0000gn/T//ccDDtcEe.s 			page 33


 1824 00f0 5A08     		lsrs	r2, r3, #1
 1825 00f2 BB68     		ldr	r3, [r7, #8]
 1826 00f4 1344     		add	r3, r3, r2
 1827 00f6 013B     		subs	r3, r3, #1
 1828 00f8 FB62     		str	r3, [r7, #44]
 1829 00fa 3B68     		ldr	r3, [r7]
 1830 00fc A94A     		ldr	r2, .L221
 1831 00fe A2FB0323 		umull	r2, r3, r2, r3
 1832 0102 9B08     		lsrs	r3, r3, #2
 1833 0104 BA68     		ldr	r2, [r7, #8]
 1834 0106 1344     		add	r3, r3, r2
 1835 0108 7B62     		str	r3, [r7, #36]
 1836 010a 3B68     		ldr	r3, [r7]
 1837 010c 5B00     		lsls	r3, r3, #1
 1838 010e A54A     		ldr	r2, .L221
 1839 0110 A2FB0323 		umull	r2, r3, r2, r3
 1840 0114 9B08     		lsrs	r3, r3, #2
 1841 0116 BA68     		ldr	r2, [r7, #8]
 1842 0118 1344     		add	r3, r3, r2
 1843 011a 3B62     		str	r3, [r7, #32]
 1844 011c 23E0     		b	.L153
 1845              	.L155:
 1846 011e 3B68     		ldr	r3, [r7]
 1847 0120 03F00303 		and	r3, r3, #3
 1848 0124 002B     		cmp	r3, #0
 1849 0126 02D0     		beq	.L158
 1850 0128 6FF00503 		mvn	r3, #5
 1851 012c 47E3     		b	.L146
 1852              	.L158:
 1853 012e BB68     		ldr	r3, [r7, #8]
 1854 0130 9B08     		lsrs	r3, r3, #2
 1855 0132 0133     		adds	r3, r3, #1
 1856 0134 BB60     		str	r3, [r7, #8]
 1857 0136 3B68     		ldr	r3, [r7]
 1858 0138 9A08     		lsrs	r2, r3, #2
 1859 013a BB68     		ldr	r3, [r7, #8]
 1860 013c 1344     		add	r3, r3, r2
 1861 013e 013B     		subs	r3, r3, #1
 1862 0140 FB62     		str	r3, [r7, #44]
 1863 0142 3B68     		ldr	r3, [r7]
 1864 0144 974A     		ldr	r2, .L221
 1865 0146 A2FB0323 		umull	r2, r3, r2, r3
 1866 014a DB08     		lsrs	r3, r3, #3
 1867 014c BA68     		ldr	r2, [r7, #8]
 1868 014e 1344     		add	r3, r3, r2
 1869 0150 7B62     		str	r3, [r7, #36]
 1870 0152 3B68     		ldr	r3, [r7]
 1871 0154 5B00     		lsls	r3, r3, #1
 1872 0156 934A     		ldr	r2, .L221
 1873 0158 A2FB0323 		umull	r2, r3, r2, r3
 1874 015c DB08     		lsrs	r3, r3, #3
 1875 015e BA68     		ldr	r2, [r7, #8]
 1876 0160 1344     		add	r3, r3, r2
 1877 0162 3B62     		str	r3, [r7, #32]
 1878 0164 00BF     		nop
 1879              	.L153:
 1880 0166 97F84030 		ldrb	r3, [r7, #64]	@ zero_extendqisi2
ARM GAS  /var/folders/d2/nstgp4h54kz7g1l847x_b8wc0000gn/T//ccDDtcEe.s 			page 34


 1881 016a 402B     		cmp	r3, #64
 1882 016c 15D0     		beq	.L160
 1883 016e 802B     		cmp	r3, #128
 1884 0170 37D0     		beq	.L161
 1885 0172 202B     		cmp	r3, #32
 1886 0174 59D1     		bne	.L159
 1887 0176 BB6B     		ldr	r3, [r7, #56]
 1888 0178 8A4A     		ldr	r2, .L221
 1889 017a A2FB0323 		umull	r2, r3, r2, r3
 1890 017e 5B08     		lsrs	r3, r3, #1
 1891 0180 7A68     		ldr	r2, [r7, #4]
 1892 0182 1344     		add	r3, r3, r2
 1893 0184 FB61     		str	r3, [r7, #28]
 1894 0186 BB6B     		ldr	r3, [r7, #56]
 1895 0188 5B00     		lsls	r3, r3, #1
 1896 018a 864A     		ldr	r2, .L221
 1897 018c A2FB0323 		umull	r2, r3, r2, r3
 1898 0190 5B08     		lsrs	r3, r3, #1
 1899 0192 7A68     		ldr	r2, [r7, #4]
 1900 0194 1344     		add	r3, r3, r2
 1901 0196 BB61     		str	r3, [r7, #24]
 1902 0198 47E0     		b	.L159
 1903              	.L160:
 1904 019a BB6B     		ldr	r3, [r7, #56]
 1905 019c 03F00103 		and	r3, r3, #1
 1906 01a0 002B     		cmp	r3, #0
 1907 01a2 02D0     		beq	.L163
 1908 01a4 6FF00603 		mvn	r3, #6
 1909 01a8 09E3     		b	.L146
 1910              	.L163:
 1911 01aa 7B68     		ldr	r3, [r7, #4]
 1912 01ac 5B08     		lsrs	r3, r3, #1
 1913 01ae 0133     		adds	r3, r3, #1
 1914 01b0 7B60     		str	r3, [r7, #4]
 1915 01b2 BB6B     		ldr	r3, [r7, #56]
 1916 01b4 5A08     		lsrs	r2, r3, #1
 1917 01b6 7B68     		ldr	r3, [r7, #4]
 1918 01b8 1344     		add	r3, r3, r2
 1919 01ba 013B     		subs	r3, r3, #1
 1920 01bc BB62     		str	r3, [r7, #40]
 1921 01be BB6B     		ldr	r3, [r7, #56]
 1922 01c0 784A     		ldr	r2, .L221
 1923 01c2 A2FB0323 		umull	r2, r3, r2, r3
 1924 01c6 9B08     		lsrs	r3, r3, #2
 1925 01c8 7A68     		ldr	r2, [r7, #4]
 1926 01ca 1344     		add	r3, r3, r2
 1927 01cc FB61     		str	r3, [r7, #28]
 1928 01ce BB6B     		ldr	r3, [r7, #56]
 1929 01d0 5B00     		lsls	r3, r3, #1
 1930 01d2 744A     		ldr	r2, .L221
 1931 01d4 A2FB0323 		umull	r2, r3, r2, r3
 1932 01d8 9B08     		lsrs	r3, r3, #2
 1933 01da 7A68     		ldr	r2, [r7, #4]
 1934 01dc 1344     		add	r3, r3, r2
 1935 01de BB61     		str	r3, [r7, #24]
 1936 01e0 23E0     		b	.L159
 1937              	.L161:
ARM GAS  /var/folders/d2/nstgp4h54kz7g1l847x_b8wc0000gn/T//ccDDtcEe.s 			page 35


 1938 01e2 BB6B     		ldr	r3, [r7, #56]
 1939 01e4 03F00303 		and	r3, r3, #3
 1940 01e8 002B     		cmp	r3, #0
 1941 01ea 02D0     		beq	.L164
 1942 01ec 6FF00603 		mvn	r3, #6
 1943 01f0 E5E2     		b	.L146
 1944              	.L164:
 1945 01f2 7B68     		ldr	r3, [r7, #4]
 1946 01f4 9B08     		lsrs	r3, r3, #2
 1947 01f6 0133     		adds	r3, r3, #1
 1948 01f8 7B60     		str	r3, [r7, #4]
 1949 01fa BB6B     		ldr	r3, [r7, #56]
 1950 01fc 9A08     		lsrs	r2, r3, #2
 1951 01fe 7B68     		ldr	r3, [r7, #4]
 1952 0200 1344     		add	r3, r3, r2
 1953 0202 013B     		subs	r3, r3, #1
 1954 0204 BB62     		str	r3, [r7, #40]
 1955 0206 BB6B     		ldr	r3, [r7, #56]
 1956 0208 664A     		ldr	r2, .L221
 1957 020a A2FB0323 		umull	r2, r3, r2, r3
 1958 020e DB08     		lsrs	r3, r3, #3
 1959 0210 7A68     		ldr	r2, [r7, #4]
 1960 0212 1344     		add	r3, r3, r2
 1961 0214 FB61     		str	r3, [r7, #28]
 1962 0216 BB6B     		ldr	r3, [r7, #56]
 1963 0218 5B00     		lsls	r3, r3, #1
 1964 021a 624A     		ldr	r2, .L221
 1965 021c A2FB0323 		umull	r2, r3, r2, r3
 1966 0220 DB08     		lsrs	r3, r3, #3
 1967 0222 7A68     		ldr	r2, [r7, #4]
 1968 0224 1344     		add	r3, r3, r2
 1969 0226 BB61     		str	r3, [r7, #24]
 1970 0228 00BF     		nop
 1971              	.L159:
 1972 022a FB7B     		ldrb	r3, [r7, #15]	@ zero_extendqisi2
 1973 022c 1846     		mov	r0, r3
 1974 022e FFF7FEFF 		bl	po6030_set_format
 1975 0232 0346     		mov	r3, r0
 1976 0234 FB75     		strb	r3, [r7, #23]
 1977 0236 97F91730 		ldrsb	r3, [r7, #23]
 1978 023a 002B     		cmp	r3, #0
 1979 023c 02D0     		beq	.L165
 1980 023e 97F91730 		ldrsb	r3, [r7, #23]
 1981 0242 BCE2     		b	.L146
 1982              	.L165:
 1983 0244 0120     		movs	r0, #1
 1984 0246 FFF7FEFF 		bl	po6030_set_bank
 1985 024a 0346     		mov	r3, r0
 1986 024c FB75     		strb	r3, [r7, #23]
 1987 024e 97F91730 		ldrsb	r3, [r7, #23]
 1988 0252 002B     		cmp	r3, #0
 1989 0254 02D0     		beq	.L166
 1990 0256 97F91730 		ldrsb	r3, [r7, #23]
 1991 025a B0E2     		b	.L146
 1992              	.L166:
 1993 025c BB68     		ldr	r3, [r7, #8]
 1994 025e 1B0A     		lsrs	r3, r3, #8
ARM GAS  /var/folders/d2/nstgp4h54kz7g1l847x_b8wc0000gn/T//ccDDtcEe.s 			page 36


 1995 0260 DBB2     		uxtb	r3, r3
 1996 0262 1A46     		mov	r2, r3
 1997 0264 5021     		movs	r1, #80
 1998 0266 6E20     		movs	r0, #110
 1999 0268 FFF7FEFF 		bl	write_reg
 2000 026c 0346     		mov	r3, r0
 2001 026e FB75     		strb	r3, [r7, #23]
 2002 0270 97F91730 		ldrsb	r3, [r7, #23]
 2003 0274 002B     		cmp	r3, #0
 2004 0276 02D0     		beq	.L167
 2005 0278 97F91730 		ldrsb	r3, [r7, #23]
 2006 027c 9FE2     		b	.L146
 2007              	.L167:
 2008 027e BB68     		ldr	r3, [r7, #8]
 2009 0280 DBB2     		uxtb	r3, r3
 2010 0282 1A46     		mov	r2, r3
 2011 0284 5121     		movs	r1, #81
 2012 0286 6E20     		movs	r0, #110
 2013 0288 FFF7FEFF 		bl	write_reg
 2014 028c 0346     		mov	r3, r0
 2015 028e FB75     		strb	r3, [r7, #23]
 2016 0290 97F91730 		ldrsb	r3, [r7, #23]
 2017 0294 002B     		cmp	r3, #0
 2018 0296 02D0     		beq	.L168
 2019 0298 97F91730 		ldrsb	r3, [r7, #23]
 2020 029c 8FE2     		b	.L146
 2021              	.L168:
 2022 029e 7B68     		ldr	r3, [r7, #4]
 2023 02a0 1B0A     		lsrs	r3, r3, #8
 2024 02a2 DBB2     		uxtb	r3, r3
 2025 02a4 1A46     		mov	r2, r3
 2026 02a6 5221     		movs	r1, #82
 2027 02a8 6E20     		movs	r0, #110
 2028 02aa FFF7FEFF 		bl	write_reg
 2029 02ae 0346     		mov	r3, r0
 2030 02b0 FB75     		strb	r3, [r7, #23]
 2031 02b2 97F91730 		ldrsb	r3, [r7, #23]
 2032 02b6 002B     		cmp	r3, #0
 2033 02b8 02D0     		beq	.L169
 2034 02ba 97F91730 		ldrsb	r3, [r7, #23]
 2035 02be 7EE2     		b	.L146
 2036              	.L169:
 2037 02c0 7B68     		ldr	r3, [r7, #4]
 2038 02c2 DBB2     		uxtb	r3, r3
 2039 02c4 1A46     		mov	r2, r3
 2040 02c6 5321     		movs	r1, #83
 2041 02c8 6E20     		movs	r0, #110
 2042 02ca FFF7FEFF 		bl	write_reg
 2043 02ce 0346     		mov	r3, r0
 2044 02d0 FB75     		strb	r3, [r7, #23]
 2045 02d2 97F91730 		ldrsb	r3, [r7, #23]
 2046 02d6 002B     		cmp	r3, #0
 2047 02d8 02D0     		beq	.L170
 2048 02da 97F91730 		ldrsb	r3, [r7, #23]
 2049 02de 6EE2     		b	.L146
 2050              	.L170:
 2051 02e0 FB6A     		ldr	r3, [r7, #44]
ARM GAS  /var/folders/d2/nstgp4h54kz7g1l847x_b8wc0000gn/T//ccDDtcEe.s 			page 37


 2052 02e2 1B0A     		lsrs	r3, r3, #8
 2053 02e4 DBB2     		uxtb	r3, r3
 2054 02e6 1A46     		mov	r2, r3
 2055 02e8 5421     		movs	r1, #84
 2056 02ea 6E20     		movs	r0, #110
 2057 02ec FFF7FEFF 		bl	write_reg
 2058 02f0 0346     		mov	r3, r0
 2059 02f2 FB75     		strb	r3, [r7, #23]
 2060 02f4 97F91730 		ldrsb	r3, [r7, #23]
 2061 02f8 002B     		cmp	r3, #0
 2062 02fa 02D0     		beq	.L171
 2063 02fc 97F91730 		ldrsb	r3, [r7, #23]
 2064 0300 5DE2     		b	.L146
 2065              	.L171:
 2066 0302 FB6A     		ldr	r3, [r7, #44]
 2067 0304 DBB2     		uxtb	r3, r3
 2068 0306 1A46     		mov	r2, r3
 2069 0308 5521     		movs	r1, #85
 2070 030a 6E20     		movs	r0, #110
 2071 030c FFF7FEFF 		bl	write_reg
 2072 0310 0346     		mov	r3, r0
 2073 0312 FB75     		strb	r3, [r7, #23]
 2074 0314 97F91730 		ldrsb	r3, [r7, #23]
 2075 0318 002B     		cmp	r3, #0
 2076 031a 02D0     		beq	.L172
 2077 031c 97F91730 		ldrsb	r3, [r7, #23]
 2078 0320 4DE2     		b	.L146
 2079              	.L172:
 2080 0322 BB6A     		ldr	r3, [r7, #40]
 2081 0324 1B0A     		lsrs	r3, r3, #8
 2082 0326 DBB2     		uxtb	r3, r3
 2083 0328 1A46     		mov	r2, r3
 2084 032a 5621     		movs	r1, #86
 2085 032c 6E20     		movs	r0, #110
 2086 032e FFF7FEFF 		bl	write_reg
 2087 0332 0346     		mov	r3, r0
 2088 0334 FB75     		strb	r3, [r7, #23]
 2089 0336 97F91730 		ldrsb	r3, [r7, #23]
 2090 033a 002B     		cmp	r3, #0
 2091 033c 02D0     		beq	.L173
 2092 033e 97F91730 		ldrsb	r3, [r7, #23]
 2093 0342 3CE2     		b	.L146
 2094              	.L173:
 2095 0344 BB6A     		ldr	r3, [r7, #40]
 2096 0346 DBB2     		uxtb	r3, r3
 2097 0348 1A46     		mov	r2, r3
 2098 034a 5721     		movs	r1, #87
 2099 034c 6E20     		movs	r0, #110
 2100 034e FFF7FEFF 		bl	write_reg
 2101 0352 0346     		mov	r3, r0
 2102 0354 FB75     		strb	r3, [r7, #23]
 2103 0356 97F91730 		ldrsb	r3, [r7, #23]
 2104 035a 002B     		cmp	r3, #0
 2105 035c 02D0     		beq	.L174
 2106 035e 97F91730 		ldrsb	r3, [r7, #23]
 2107 0362 2CE2     		b	.L146
 2108              	.L174:
ARM GAS  /var/folders/d2/nstgp4h54kz7g1l847x_b8wc0000gn/T//ccDDtcEe.s 			page 38


 2109 0364 97F83C30 		ldrb	r3, [r7, #60]	@ zero_extendqisi2
 2110 0368 1A46     		mov	r2, r3
 2111 036a 8021     		movs	r1, #128
 2112 036c 6E20     		movs	r0, #110
 2113 036e FFF7FEFF 		bl	write_reg
 2114 0372 0346     		mov	r3, r0
 2115 0374 FB75     		strb	r3, [r7, #23]
 2116 0376 97F91730 		ldrsb	r3, [r7, #23]
 2117 037a 002B     		cmp	r3, #0
 2118 037c 02D0     		beq	.L175
 2119 037e 97F91730 		ldrsb	r3, [r7, #23]
 2120 0382 1CE2     		b	.L146
 2121              	.L175:
 2122 0384 97F84030 		ldrb	r3, [r7, #64]	@ zero_extendqisi2
 2123 0388 1A46     		mov	r2, r3
 2124 038a 8121     		movs	r1, #129
 2125 038c 6E20     		movs	r0, #110
 2126 038e FFF7FEFF 		bl	write_reg
 2127 0392 0346     		mov	r3, r0
 2128 0394 FB75     		strb	r3, [r7, #23]
 2129 0396 97F91730 		ldrsb	r3, [r7, #23]
 2130 039a 002B     		cmp	r3, #0
 2131 039c 04D0     		beq	.L176
 2132 039e 97F91730 		ldrsb	r3, [r7, #23]
 2133 03a2 0CE2     		b	.L146
 2134              	.L222:
 2135              		.align	2
 2136              	.L221:
 2137 03a4 ABAAAAAA 		.word	-1431655765
 2138              	.L176:
 2139 03a8 0022     		movs	r2, #0
 2140 03aa 6021     		movs	r1, #96
 2141 03ac 6E20     		movs	r0, #110
 2142 03ae FFF7FEFF 		bl	write_reg
 2143 03b2 0346     		mov	r3, r0
 2144 03b4 FB75     		strb	r3, [r7, #23]
 2145 03b6 97F91730 		ldrsb	r3, [r7, #23]
 2146 03ba 002B     		cmp	r3, #0
 2147 03bc 02D0     		beq	.L177
 2148 03be 97F91730 		ldrsb	r3, [r7, #23]
 2149 03c2 FCE1     		b	.L146
 2150              	.L177:
 2151 03c4 0C22     		movs	r2, #12
 2152 03c6 6121     		movs	r1, #97
 2153 03c8 6E20     		movs	r0, #110
 2154 03ca FFF7FEFF 		bl	write_reg
 2155 03ce 0346     		mov	r3, r0
 2156 03d0 FB75     		strb	r3, [r7, #23]
 2157 03d2 97F91730 		ldrsb	r3, [r7, #23]
 2158 03d6 002B     		cmp	r3, #0
 2159 03d8 02D0     		beq	.L178
 2160 03da 97F91730 		ldrsb	r3, [r7, #23]
 2161 03de EEE1     		b	.L146
 2162              	.L178:
 2163 03e0 0122     		movs	r2, #1
 2164 03e2 6221     		movs	r1, #98
 2165 03e4 6E20     		movs	r0, #110
ARM GAS  /var/folders/d2/nstgp4h54kz7g1l847x_b8wc0000gn/T//ccDDtcEe.s 			page 39


 2166 03e6 FFF7FEFF 		bl	write_reg
 2167 03ea 0346     		mov	r3, r0
 2168 03ec FB75     		strb	r3, [r7, #23]
 2169 03ee 97F91730 		ldrsb	r3, [r7, #23]
 2170 03f2 002B     		cmp	r3, #0
 2171 03f4 02D0     		beq	.L179
 2172 03f6 97F91730 		ldrsb	r3, [r7, #23]
 2173 03fa E0E1     		b	.L146
 2174              	.L179:
 2175 03fc EC22     		movs	r2, #236
 2176 03fe 6321     		movs	r1, #99
 2177 0400 6E20     		movs	r0, #110
 2178 0402 FFF7FEFF 		bl	write_reg
 2179 0406 0346     		mov	r3, r0
 2180 0408 FB75     		strb	r3, [r7, #23]
 2181 040a 97F91730 		ldrsb	r3, [r7, #23]
 2182 040e 002B     		cmp	r3, #0
 2183 0410 02D0     		beq	.L180
 2184 0412 97F91730 		ldrsb	r3, [r7, #23]
 2185 0416 D2E1     		b	.L146
 2186              	.L180:
 2187 0418 FB7B     		ldrb	r3, [r7, #15]	@ zero_extendqisi2
 2188 041a 0D2B     		cmp	r3, #13
 2189 041c 31D1     		bne	.L181
 2190 041e 97F83C30 		ldrb	r3, [r7, #60]	@ zero_extendqisi2
 2191 0422 402B     		cmp	r3, #64
 2192 0424 11D0     		beq	.L183
 2193 0426 802B     		cmp	r3, #128
 2194 0428 1DD0     		beq	.L184
 2195 042a 202B     		cmp	r3, #32
 2196 042c 66D1     		bne	.L189
 2197 042e 0122     		movs	r2, #1
 2198 0430 6821     		movs	r1, #104
 2199 0432 6E20     		movs	r0, #110
 2200 0434 FFF7FEFF 		bl	write_reg
 2201 0438 0346     		mov	r3, r0
 2202 043a FB75     		strb	r3, [r7, #23]
 2203 043c 97F91730 		ldrsb	r3, [r7, #23]
 2204 0440 002B     		cmp	r3, #0
 2205 0442 50D0     		beq	.L215
 2206 0444 97F91730 		ldrsb	r3, [r7, #23]
 2207 0448 B9E1     		b	.L146
 2208              	.L183:
 2209 044a 0322     		movs	r2, #3
 2210 044c 6821     		movs	r1, #104
 2211 044e 6E20     		movs	r0, #110
 2212 0450 FFF7FEFF 		bl	write_reg
 2213 0454 0346     		mov	r3, r0
 2214 0456 FB75     		strb	r3, [r7, #23]
 2215 0458 97F91730 		ldrsb	r3, [r7, #23]
 2216 045c 002B     		cmp	r3, #0
 2217 045e 44D0     		beq	.L216
 2218 0460 97F91730 		ldrsb	r3, [r7, #23]
 2219 0464 ABE1     		b	.L146
 2220              	.L184:
 2221 0466 0722     		movs	r2, #7
 2222 0468 6821     		movs	r1, #104
ARM GAS  /var/folders/d2/nstgp4h54kz7g1l847x_b8wc0000gn/T//ccDDtcEe.s 			page 40


 2223 046a 6E20     		movs	r0, #110
 2224 046c FFF7FEFF 		bl	write_reg
 2225 0470 0346     		mov	r3, r0
 2226 0472 FB75     		strb	r3, [r7, #23]
 2227 0474 97F91730 		ldrsb	r3, [r7, #23]
 2228 0478 002B     		cmp	r3, #0
 2229 047a 38D0     		beq	.L217
 2230 047c 97F91730 		ldrsb	r3, [r7, #23]
 2231 0480 9DE1     		b	.L146
 2232              	.L181:
 2233 0482 97F83C30 		ldrb	r3, [r7, #60]	@ zero_extendqisi2
 2234 0486 402B     		cmp	r3, #64
 2235 0488 11D0     		beq	.L190
 2236 048a 802B     		cmp	r3, #128
 2237 048c 1DD0     		beq	.L191
 2238 048e 202B     		cmp	r3, #32
 2239 0490 34D1     		bne	.L189
 2240 0492 0022     		movs	r2, #0
 2241 0494 6821     		movs	r1, #104
 2242 0496 6E20     		movs	r0, #110
 2243 0498 FFF7FEFF 		bl	write_reg
 2244 049c 0346     		mov	r3, r0
 2245 049e FB75     		strb	r3, [r7, #23]
 2246 04a0 97F91730 		ldrsb	r3, [r7, #23]
 2247 04a4 002B     		cmp	r3, #0
 2248 04a6 24D0     		beq	.L218
 2249 04a8 97F91730 		ldrsb	r3, [r7, #23]
 2250 04ac 87E1     		b	.L146
 2251              	.L190:
 2252 04ae 0122     		movs	r2, #1
 2253 04b0 6821     		movs	r1, #104
 2254 04b2 6E20     		movs	r0, #110
 2255 04b4 FFF7FEFF 		bl	write_reg
 2256 04b8 0346     		mov	r3, r0
 2257 04ba FB75     		strb	r3, [r7, #23]
 2258 04bc 97F91730 		ldrsb	r3, [r7, #23]
 2259 04c0 002B     		cmp	r3, #0
 2260 04c2 18D0     		beq	.L219
 2261 04c4 97F91730 		ldrsb	r3, [r7, #23]
 2262 04c8 79E1     		b	.L146
 2263              	.L191:
 2264 04ca 0322     		movs	r2, #3
 2265 04cc 6821     		movs	r1, #104
 2266 04ce 6E20     		movs	r0, #110
 2267 04d0 FFF7FEFF 		bl	write_reg
 2268 04d4 0346     		mov	r3, r0
 2269 04d6 FB75     		strb	r3, [r7, #23]
 2270 04d8 97F91730 		ldrsb	r3, [r7, #23]
 2271 04dc 002B     		cmp	r3, #0
 2272 04de 0CD0     		beq	.L220
 2273 04e0 97F91730 		ldrsb	r3, [r7, #23]
 2274 04e4 6BE1     		b	.L146
 2275              	.L215:
 2276 04e6 00BF     		nop
 2277 04e8 08E0     		b	.L189
 2278              	.L216:
 2279 04ea 00BF     		nop
ARM GAS  /var/folders/d2/nstgp4h54kz7g1l847x_b8wc0000gn/T//ccDDtcEe.s 			page 41


 2280 04ec 06E0     		b	.L189
 2281              	.L217:
 2282 04ee 00BF     		nop
 2283 04f0 04E0     		b	.L189
 2284              	.L218:
 2285 04f2 00BF     		nop
 2286 04f4 02E0     		b	.L189
 2287              	.L219:
 2288 04f6 00BF     		nop
 2289 04f8 00E0     		b	.L189
 2290              	.L220:
 2291 04fa 00BF     		nop
 2292              	.L189:
 2293 04fc 0122     		movs	r2, #1
 2294 04fe 8221     		movs	r1, #130
 2295 0500 6E20     		movs	r0, #110
 2296 0502 FFF7FEFF 		bl	write_reg
 2297 0506 0346     		mov	r3, r0
 2298 0508 FB75     		strb	r3, [r7, #23]
 2299 050a 97F91730 		ldrsb	r3, [r7, #23]
 2300 050e 002B     		cmp	r3, #0
 2301 0510 02D0     		beq	.L196
 2302 0512 97F91730 		ldrsb	r3, [r7, #23]
 2303 0516 52E1     		b	.L146
 2304              	.L196:
 2305 0518 0220     		movs	r0, #2
 2306 051a FFF7FEFF 		bl	po6030_set_bank
 2307 051e 0346     		mov	r3, r0
 2308 0520 FB75     		strb	r3, [r7, #23]
 2309 0522 97F91730 		ldrsb	r3, [r7, #23]
 2310 0526 002B     		cmp	r3, #0
 2311 0528 02D0     		beq	.L197
 2312 052a 97F91730 		ldrsb	r3, [r7, #23]
 2313 052e 46E1     		b	.L146
 2314              	.L197:
 2315 0530 BB68     		ldr	r3, [r7, #8]
 2316 0532 1B0A     		lsrs	r3, r3, #8
 2317 0534 DBB2     		uxtb	r3, r3
 2318 0536 1A46     		mov	r2, r3
 2319 0538 1021     		movs	r1, #16
 2320 053a 6E20     		movs	r0, #110
 2321 053c FFF7FEFF 		bl	write_reg
 2322 0540 0346     		mov	r3, r0
 2323 0542 FB75     		strb	r3, [r7, #23]
 2324 0544 97F91730 		ldrsb	r3, [r7, #23]
 2325 0548 002B     		cmp	r3, #0
 2326 054a 02D0     		beq	.L198
 2327 054c 97F91730 		ldrsb	r3, [r7, #23]
 2328 0550 35E1     		b	.L146
 2329              	.L198:
 2330 0552 BB68     		ldr	r3, [r7, #8]
 2331 0554 DBB2     		uxtb	r3, r3
 2332 0556 1A46     		mov	r2, r3
 2333 0558 1121     		movs	r1, #17
 2334 055a 6E20     		movs	r0, #110
 2335 055c FFF7FEFF 		bl	write_reg
 2336 0560 0346     		mov	r3, r0
ARM GAS  /var/folders/d2/nstgp4h54kz7g1l847x_b8wc0000gn/T//ccDDtcEe.s 			page 42


 2337 0562 FB75     		strb	r3, [r7, #23]
 2338 0564 97F91730 		ldrsb	r3, [r7, #23]
 2339 0568 002B     		cmp	r3, #0
 2340 056a 02D0     		beq	.L199
 2341 056c 97F91730 		ldrsb	r3, [r7, #23]
 2342 0570 25E1     		b	.L146
 2343              	.L199:
 2344 0572 7B68     		ldr	r3, [r7, #4]
 2345 0574 1B0A     		lsrs	r3, r3, #8
 2346 0576 DBB2     		uxtb	r3, r3
 2347 0578 1A46     		mov	r2, r3
 2348 057a 1221     		movs	r1, #18
 2349 057c 6E20     		movs	r0, #110
 2350 057e FFF7FEFF 		bl	write_reg
 2351 0582 0346     		mov	r3, r0
 2352 0584 FB75     		strb	r3, [r7, #23]
 2353 0586 97F91730 		ldrsb	r3, [r7, #23]
 2354 058a 002B     		cmp	r3, #0
 2355 058c 02D0     		beq	.L200
 2356 058e 97F91730 		ldrsb	r3, [r7, #23]
 2357 0592 14E1     		b	.L146
 2358              	.L200:
 2359 0594 7B68     		ldr	r3, [r7, #4]
 2360 0596 DBB2     		uxtb	r3, r3
 2361 0598 1A46     		mov	r2, r3
 2362 059a 1321     		movs	r1, #19
 2363 059c 6E20     		movs	r0, #110
 2364 059e FFF7FEFF 		bl	write_reg
 2365 05a2 0346     		mov	r3, r0
 2366 05a4 FB75     		strb	r3, [r7, #23]
 2367 05a6 97F91730 		ldrsb	r3, [r7, #23]
 2368 05aa 002B     		cmp	r3, #0
 2369 05ac 02D0     		beq	.L201
 2370 05ae 97F91730 		ldrsb	r3, [r7, #23]
 2371 05b2 04E1     		b	.L146
 2372              	.L201:
 2373 05b4 FA6A     		ldr	r2, [r7, #44]
 2374 05b6 BB68     		ldr	r3, [r7, #8]
 2375 05b8 D31A     		subs	r3, r2, r3
 2376 05ba 1B0A     		lsrs	r3, r3, #8
 2377 05bc DBB2     		uxtb	r3, r3
 2378 05be 1A46     		mov	r2, r3
 2379 05c0 1421     		movs	r1, #20
 2380 05c2 6E20     		movs	r0, #110
 2381 05c4 FFF7FEFF 		bl	write_reg
 2382 05c8 0346     		mov	r3, r0
 2383 05ca FB75     		strb	r3, [r7, #23]
 2384 05cc 97F91730 		ldrsb	r3, [r7, #23]
 2385 05d0 002B     		cmp	r3, #0
 2386 05d2 02D0     		beq	.L202
 2387 05d4 97F91730 		ldrsb	r3, [r7, #23]
 2388 05d8 F1E0     		b	.L146
 2389              	.L202:
 2390 05da FB6A     		ldr	r3, [r7, #44]
 2391 05dc DAB2     		uxtb	r2, r3
 2392 05de BB68     		ldr	r3, [r7, #8]
 2393 05e0 DBB2     		uxtb	r3, r3
ARM GAS  /var/folders/d2/nstgp4h54kz7g1l847x_b8wc0000gn/T//ccDDtcEe.s 			page 43


 2394 05e2 D31A     		subs	r3, r2, r3
 2395 05e4 DBB2     		uxtb	r3, r3
 2396 05e6 1A46     		mov	r2, r3
 2397 05e8 1521     		movs	r1, #21
 2398 05ea 6E20     		movs	r0, #110
 2399 05ec FFF7FEFF 		bl	write_reg
 2400 05f0 0346     		mov	r3, r0
 2401 05f2 FB75     		strb	r3, [r7, #23]
 2402 05f4 97F91730 		ldrsb	r3, [r7, #23]
 2403 05f8 002B     		cmp	r3, #0
 2404 05fa 02D0     		beq	.L203
 2405 05fc 97F91730 		ldrsb	r3, [r7, #23]
 2406 0600 DDE0     		b	.L146
 2407              	.L203:
 2408 0602 BA6A     		ldr	r2, [r7, #40]
 2409 0604 7B68     		ldr	r3, [r7, #4]
 2410 0606 D31A     		subs	r3, r2, r3
 2411 0608 1B0A     		lsrs	r3, r3, #8
 2412 060a DBB2     		uxtb	r3, r3
 2413 060c 1A46     		mov	r2, r3
 2414 060e 1621     		movs	r1, #22
 2415 0610 6E20     		movs	r0, #110
 2416 0612 FFF7FEFF 		bl	write_reg
 2417 0616 0346     		mov	r3, r0
 2418 0618 FB75     		strb	r3, [r7, #23]
 2419 061a 97F91730 		ldrsb	r3, [r7, #23]
 2420 061e 002B     		cmp	r3, #0
 2421 0620 02D0     		beq	.L204
 2422 0622 97F91730 		ldrsb	r3, [r7, #23]
 2423 0626 CAE0     		b	.L146
 2424              	.L204:
 2425 0628 BB6A     		ldr	r3, [r7, #40]
 2426 062a DAB2     		uxtb	r2, r3
 2427 062c 7B68     		ldr	r3, [r7, #4]
 2428 062e DBB2     		uxtb	r3, r3
 2429 0630 D31A     		subs	r3, r2, r3
 2430 0632 DBB2     		uxtb	r3, r3
 2431 0634 1A46     		mov	r2, r3
 2432 0636 1721     		movs	r1, #23
 2433 0638 6E20     		movs	r0, #110
 2434 063a FFF7FEFF 		bl	write_reg
 2435 063e 0346     		mov	r3, r0
 2436 0640 FB75     		strb	r3, [r7, #23]
 2437 0642 97F91730 		ldrsb	r3, [r7, #23]
 2438 0646 002B     		cmp	r3, #0
 2439 0648 02D0     		beq	.L205
 2440 064a 97F91730 		ldrsb	r3, [r7, #23]
 2441 064e B6E0     		b	.L146
 2442              	.L205:
 2443 0650 7B6A     		ldr	r3, [r7, #36]
 2444 0652 1B0A     		lsrs	r3, r3, #8
 2445 0654 DBB2     		uxtb	r3, r3
 2446 0656 1A46     		mov	r2, r3
 2447 0658 1821     		movs	r1, #24
 2448 065a 6E20     		movs	r0, #110
 2449 065c FFF7FEFF 		bl	write_reg
 2450 0660 0346     		mov	r3, r0
ARM GAS  /var/folders/d2/nstgp4h54kz7g1l847x_b8wc0000gn/T//ccDDtcEe.s 			page 44


 2451 0662 FB75     		strb	r3, [r7, #23]
 2452 0664 97F91730 		ldrsb	r3, [r7, #23]
 2453 0668 002B     		cmp	r3, #0
 2454 066a 02D0     		beq	.L206
 2455 066c 97F91730 		ldrsb	r3, [r7, #23]
 2456 0670 A5E0     		b	.L146
 2457              	.L206:
 2458 0672 7B6A     		ldr	r3, [r7, #36]
 2459 0674 DBB2     		uxtb	r3, r3
 2460 0676 1A46     		mov	r2, r3
 2461 0678 1921     		movs	r1, #25
 2462 067a 6E20     		movs	r0, #110
 2463 067c FFF7FEFF 		bl	write_reg
 2464 0680 0346     		mov	r3, r0
 2465 0682 FB75     		strb	r3, [r7, #23]
 2466 0684 97F91730 		ldrsb	r3, [r7, #23]
 2467 0688 002B     		cmp	r3, #0
 2468 068a 02D0     		beq	.L207
 2469 068c 97F91730 		ldrsb	r3, [r7, #23]
 2470 0690 95E0     		b	.L146
 2471              	.L207:
 2472 0692 FB69     		ldr	r3, [r7, #28]
 2473 0694 1B0A     		lsrs	r3, r3, #8
 2474 0696 DBB2     		uxtb	r3, r3
 2475 0698 1A46     		mov	r2, r3
 2476 069a 1A21     		movs	r1, #26
 2477 069c 6E20     		movs	r0, #110
 2478 069e FFF7FEFF 		bl	write_reg
 2479 06a2 0346     		mov	r3, r0
 2480 06a4 FB75     		strb	r3, [r7, #23]
 2481 06a6 97F91730 		ldrsb	r3, [r7, #23]
 2482 06aa 002B     		cmp	r3, #0
 2483 06ac 02D0     		beq	.L208
 2484 06ae 97F91730 		ldrsb	r3, [r7, #23]
 2485 06b2 84E0     		b	.L146
 2486              	.L208:
 2487 06b4 FB69     		ldr	r3, [r7, #28]
 2488 06b6 DBB2     		uxtb	r3, r3
 2489 06b8 1A46     		mov	r2, r3
 2490 06ba 1B21     		movs	r1, #27
 2491 06bc 6E20     		movs	r0, #110
 2492 06be FFF7FEFF 		bl	write_reg
 2493 06c2 0346     		mov	r3, r0
 2494 06c4 FB75     		strb	r3, [r7, #23]
 2495 06c6 97F91730 		ldrsb	r3, [r7, #23]
 2496 06ca 002B     		cmp	r3, #0
 2497 06cc 02D0     		beq	.L209
 2498 06ce 97F91730 		ldrsb	r3, [r7, #23]
 2499 06d2 74E0     		b	.L146
 2500              	.L209:
 2501 06d4 3A6A     		ldr	r2, [r7, #32]
 2502 06d6 7B6A     		ldr	r3, [r7, #36]
 2503 06d8 D31A     		subs	r3, r2, r3
 2504 06da 1B0A     		lsrs	r3, r3, #8
 2505 06dc DBB2     		uxtb	r3, r3
 2506 06de 1A46     		mov	r2, r3
 2507 06e0 1C21     		movs	r1, #28
ARM GAS  /var/folders/d2/nstgp4h54kz7g1l847x_b8wc0000gn/T//ccDDtcEe.s 			page 45


 2508 06e2 6E20     		movs	r0, #110
 2509 06e4 FFF7FEFF 		bl	write_reg
 2510 06e8 0346     		mov	r3, r0
 2511 06ea FB75     		strb	r3, [r7, #23]
 2512 06ec 97F91730 		ldrsb	r3, [r7, #23]
 2513 06f0 002B     		cmp	r3, #0
 2514 06f2 02D0     		beq	.L210
 2515 06f4 97F91730 		ldrsb	r3, [r7, #23]
 2516 06f8 61E0     		b	.L146
 2517              	.L210:
 2518 06fa 3B6A     		ldr	r3, [r7, #32]
 2519 06fc DAB2     		uxtb	r2, r3
 2520 06fe 7B6A     		ldr	r3, [r7, #36]
 2521 0700 DBB2     		uxtb	r3, r3
 2522 0702 D31A     		subs	r3, r2, r3
 2523 0704 DBB2     		uxtb	r3, r3
 2524 0706 1A46     		mov	r2, r3
 2525 0708 1D21     		movs	r1, #29
 2526 070a 6E20     		movs	r0, #110
 2527 070c FFF7FEFF 		bl	write_reg
 2528 0710 0346     		mov	r3, r0
 2529 0712 FB75     		strb	r3, [r7, #23]
 2530 0714 97F91730 		ldrsb	r3, [r7, #23]
 2531 0718 002B     		cmp	r3, #0
 2532 071a 02D0     		beq	.L211
 2533 071c 97F91730 		ldrsb	r3, [r7, #23]
 2534 0720 4DE0     		b	.L146
 2535              	.L211:
 2536 0722 BA69     		ldr	r2, [r7, #24]
 2537 0724 FB69     		ldr	r3, [r7, #28]
 2538 0726 D31A     		subs	r3, r2, r3
 2539 0728 1B0A     		lsrs	r3, r3, #8
 2540 072a DBB2     		uxtb	r3, r3
 2541 072c 1A46     		mov	r2, r3
 2542 072e 1E21     		movs	r1, #30
 2543 0730 6E20     		movs	r0, #110
 2544 0732 FFF7FEFF 		bl	write_reg
 2545 0736 0346     		mov	r3, r0
 2546 0738 FB75     		strb	r3, [r7, #23]
 2547 073a 97F91730 		ldrsb	r3, [r7, #23]
 2548 073e 002B     		cmp	r3, #0
 2549 0740 02D0     		beq	.L212
 2550 0742 97F91730 		ldrsb	r3, [r7, #23]
 2551 0746 3AE0     		b	.L146
 2552              	.L212:
 2553 0748 BB69     		ldr	r3, [r7, #24]
 2554 074a DAB2     		uxtb	r2, r3
 2555 074c FB69     		ldr	r3, [r7, #28]
 2556 074e DBB2     		uxtb	r3, r3
 2557 0750 D31A     		subs	r3, r2, r3
 2558 0752 DBB2     		uxtb	r3, r3
 2559 0754 1A46     		mov	r2, r3
 2560 0756 1F21     		movs	r1, #31
 2561 0758 6E20     		movs	r0, #110
 2562 075a FFF7FEFF 		bl	write_reg
 2563 075e 0346     		mov	r3, r0
 2564 0760 FB75     		strb	r3, [r7, #23]
ARM GAS  /var/folders/d2/nstgp4h54kz7g1l847x_b8wc0000gn/T//ccDDtcEe.s 			page 46


 2565 0762 97F91730 		ldrsb	r3, [r7, #23]
 2566 0766 002B     		cmp	r3, #0
 2567 0768 02D0     		beq	.L213
 2568 076a 97F91730 		ldrsb	r3, [r7, #23]
 2569 076e 26E0     		b	.L146
 2570              	.L213:
 2571 0770 FB6A     		ldr	r3, [r7, #44]
 2572 0772 9AB2     		uxth	r2, r3
 2573 0774 BB68     		ldr	r3, [r7, #8]
 2574 0776 9BB2     		uxth	r3, r3
 2575 0778 D31A     		subs	r3, r2, r3
 2576 077a 9BB2     		uxth	r3, r3
 2577 077c 0133     		adds	r3, r3, #1
 2578 077e 9AB2     		uxth	r2, r3
 2579 0780 114B     		ldr	r3, .L223
 2580 0782 1A80     		strh	r2, [r3]	@ movhi
 2581 0784 BB6A     		ldr	r3, [r7, #40]
 2582 0786 9AB2     		uxth	r2, r3
 2583 0788 7B68     		ldr	r3, [r7, #4]
 2584 078a 9BB2     		uxth	r3, r3
 2585 078c D31A     		subs	r3, r2, r3
 2586 078e 9BB2     		uxth	r3, r3
 2587 0790 0133     		adds	r3, r3, #1
 2588 0792 9AB2     		uxth	r2, r3
 2589 0794 0C4B     		ldr	r3, .L223
 2590 0796 5A80     		strh	r2, [r3, #2]	@ movhi
 2591 0798 0B4A     		ldr	r2, .L223
 2592 079a FB7B     		ldrb	r3, [r7, #15]
 2593 079c 1371     		strb	r3, [r2, #4]
 2594 079e 0A4A     		ldr	r2, .L223
 2595 07a0 97F83C30 		ldrb	r3, [r7, #60]
 2596 07a4 5371     		strb	r3, [r2, #5]
 2597 07a6 084A     		ldr	r2, .L223
 2598 07a8 97F84030 		ldrb	r3, [r7, #64]
 2599 07ac 9371     		strb	r3, [r2, #6]
 2600 07ae 97F91730 		ldrsb	r3, [r7, #23]
 2601 07b2 002B     		cmp	r3, #0
 2602 07b4 02D1     		bne	.L214
 2603 07b6 054B     		ldr	r3, .L223+4
 2604 07b8 0122     		movs	r2, #1
 2605 07ba 1A70     		strb	r2, [r3]
 2606              	.L214:
 2607 07bc 0023     		movs	r3, #0
 2608              	.L146:
 2609 07be 1846     		mov	r0, r3
 2610 07c0 3037     		adds	r7, r7, #48
 2611 07c2 BD46     		mov	sp, r7
 2612              		@ sp needed
 2613 07c4 80BD     		pop	{r7, pc}
 2614              	.L224:
 2615 07c6 00BF     		.align	2
 2616              	.L223:
 2617 07c8 00000000 		.word	po6030_conf
 2618 07cc 00000000 		.word	cam_configured
 2619              		.size	po6030_advanced_config, .-po6030_advanced_config
 2620              		.section	.text.po6030_set_brightness,"ax",%progbits
 2621              		.align	1
ARM GAS  /var/folders/d2/nstgp4h54kz7g1l847x_b8wc0000gn/T//ccDDtcEe.s 			page 47


 2622              		.global	po6030_set_brightness
 2623              		.syntax unified
 2624              		.thumb
 2625              		.thumb_func
 2626              		.fpu fpv4-sp-d16
 2627              		.type	po6030_set_brightness, %function
 2628              	po6030_set_brightness:
 2629              		@ args = 0, pretend = 0, frame = 16
 2630              		@ frame_needed = 1, uses_anonymous_args = 0
 2631 0000 80B5     		push	{r7, lr}
 2632 0002 84B0     		sub	sp, sp, #16
 2633 0004 00AF     		add	r7, sp, #0
 2634 0006 0346     		mov	r3, r0
 2635 0008 FB71     		strb	r3, [r7, #7]
 2636 000a 0023     		movs	r3, #0
 2637 000c FB73     		strb	r3, [r7, #15]
 2638 000e 0120     		movs	r0, #1
 2639 0010 FFF7FEFF 		bl	po6030_set_bank
 2640 0014 0346     		mov	r3, r0
 2641 0016 FB73     		strb	r3, [r7, #15]
 2642 0018 97F90F30 		ldrsb	r3, [r7, #15]
 2643 001c 002B     		cmp	r3, #0
 2644 001e 02D0     		beq	.L226
 2645 0020 97F90F30 		ldrsb	r3, [r7, #15]
 2646 0024 06E0     		b	.L227
 2647              	.L226:
 2648 0026 FB79     		ldrb	r3, [r7, #7]	@ zero_extendqisi2
 2649 0028 1A46     		mov	r2, r3
 2650 002a 9221     		movs	r1, #146
 2651 002c 6E20     		movs	r0, #110
 2652 002e FFF7FEFF 		bl	write_reg
 2653 0032 0346     		mov	r3, r0
 2654              	.L227:
 2655 0034 1846     		mov	r0, r3
 2656 0036 1037     		adds	r7, r7, #16
 2657 0038 BD46     		mov	sp, r7
 2658              		@ sp needed
 2659 003a 80BD     		pop	{r7, pc}
 2660              		.size	po6030_set_brightness, .-po6030_set_brightness
 2661              		.section	.text.po6030_set_contrast,"ax",%progbits
 2662              		.align	1
 2663              		.global	po6030_set_contrast
 2664              		.syntax unified
 2665              		.thumb
 2666              		.thumb_func
 2667              		.fpu fpv4-sp-d16
 2668              		.type	po6030_set_contrast, %function
 2669              	po6030_set_contrast:
 2670              		@ args = 0, pretend = 0, frame = 16
 2671              		@ frame_needed = 1, uses_anonymous_args = 0
 2672 0000 80B5     		push	{r7, lr}
 2673 0002 84B0     		sub	sp, sp, #16
 2674 0004 00AF     		add	r7, sp, #0
 2675 0006 0346     		mov	r3, r0
 2676 0008 FB71     		strb	r3, [r7, #7]
 2677 000a 0023     		movs	r3, #0
 2678 000c FB73     		strb	r3, [r7, #15]
ARM GAS  /var/folders/d2/nstgp4h54kz7g1l847x_b8wc0000gn/T//ccDDtcEe.s 			page 48


 2679 000e 0120     		movs	r0, #1
 2680 0010 FFF7FEFF 		bl	po6030_set_bank
 2681 0014 0346     		mov	r3, r0
 2682 0016 FB73     		strb	r3, [r7, #15]
 2683 0018 97F90F30 		ldrsb	r3, [r7, #15]
 2684 001c 002B     		cmp	r3, #0
 2685 001e 02D0     		beq	.L229
 2686 0020 97F90F30 		ldrsb	r3, [r7, #15]
 2687 0024 06E0     		b	.L230
 2688              	.L229:
 2689 0026 FB79     		ldrb	r3, [r7, #7]	@ zero_extendqisi2
 2690 0028 1A46     		mov	r2, r3
 2691 002a 9121     		movs	r1, #145
 2692 002c 6E20     		movs	r0, #110
 2693 002e FFF7FEFF 		bl	write_reg
 2694 0032 0346     		mov	r3, r0
 2695              	.L230:
 2696 0034 1846     		mov	r0, r3
 2697 0036 1037     		adds	r7, r7, #16
 2698 0038 BD46     		mov	sp, r7
 2699              		@ sp needed
 2700 003a 80BD     		pop	{r7, pc}
 2701              		.size	po6030_set_contrast, .-po6030_set_contrast
 2702              		.section	.text.po6030_set_mirror,"ax",%progbits
 2703              		.align	1
 2704              		.global	po6030_set_mirror
 2705              		.syntax unified
 2706              		.thumb
 2707              		.thumb_func
 2708              		.fpu fpv4-sp-d16
 2709              		.type	po6030_set_mirror, %function
 2710              	po6030_set_mirror:
 2711              		@ args = 0, pretend = 0, frame = 16
 2712              		@ frame_needed = 1, uses_anonymous_args = 0
 2713 0000 80B5     		push	{r7, lr}
 2714 0002 84B0     		sub	sp, sp, #16
 2715 0004 00AF     		add	r7, sp, #0
 2716 0006 0346     		mov	r3, r0
 2717 0008 0A46     		mov	r2, r1
 2718 000a FB71     		strb	r3, [r7, #7]
 2719 000c 1346     		mov	r3, r2
 2720 000e BB71     		strb	r3, [r7, #6]
 2721 0010 0023     		movs	r3, #0
 2722 0012 BB73     		strb	r3, [r7, #14]
 2723 0014 3523     		movs	r3, #53
 2724 0016 FB73     		strb	r3, [r7, #15]
 2725 0018 0020     		movs	r0, #0
 2726 001a FFF7FEFF 		bl	po6030_set_bank
 2727 001e 0346     		mov	r3, r0
 2728 0020 BB73     		strb	r3, [r7, #14]
 2729 0022 97F90E30 		ldrsb	r3, [r7, #14]
 2730 0026 002B     		cmp	r3, #0
 2731 0028 02D0     		beq	.L232
 2732 002a 97F90E30 		ldrsb	r3, [r7, #14]
 2733 002e 14E0     		b	.L233
 2734              	.L232:
 2735 0030 FB79     		ldrb	r3, [r7, #7]	@ zero_extendqisi2
ARM GAS  /var/folders/d2/nstgp4h54kz7g1l847x_b8wc0000gn/T//ccDDtcEe.s 			page 49


 2736 0032 012B     		cmp	r3, #1
 2737 0034 03D1     		bne	.L234
 2738 0036 FB7B     		ldrb	r3, [r7, #15]
 2739 0038 63F07F03 		orn	r3, r3, #127
 2740 003c FB73     		strb	r3, [r7, #15]
 2741              	.L234:
 2742 003e BB79     		ldrb	r3, [r7, #6]	@ zero_extendqisi2
 2743 0040 012B     		cmp	r3, #1
 2744 0042 03D1     		bne	.L235
 2745 0044 FB7B     		ldrb	r3, [r7, #15]
 2746 0046 43F04003 		orr	r3, r3, #64
 2747 004a FB73     		strb	r3, [r7, #15]
 2748              	.L235:
 2749 004c FB7B     		ldrb	r3, [r7, #15]	@ zero_extendqisi2
 2750 004e 1A46     		mov	r2, r3
 2751 0050 9021     		movs	r1, #144
 2752 0052 6E20     		movs	r0, #110
 2753 0054 FFF7FEFF 		bl	write_reg
 2754 0058 0346     		mov	r3, r0
 2755              	.L233:
 2756 005a 1846     		mov	r0, r3
 2757 005c 1037     		adds	r7, r7, #16
 2758 005e BD46     		mov	sp, r7
 2759              		@ sp needed
 2760 0060 80BD     		pop	{r7, pc}
 2761              		.size	po6030_set_mirror, .-po6030_set_mirror
 2762              		.section	.text.po6030_set_awb,"ax",%progbits
 2763              		.align	1
 2764              		.global	po6030_set_awb
 2765              		.syntax unified
 2766              		.thumb
 2767              		.thumb_func
 2768              		.fpu fpv4-sp-d16
 2769              		.type	po6030_set_awb, %function
 2770              	po6030_set_awb:
 2771              		@ args = 0, pretend = 0, frame = 16
 2772              		@ frame_needed = 1, uses_anonymous_args = 0
 2773 0000 80B5     		push	{r7, lr}
 2774 0002 84B0     		sub	sp, sp, #16
 2775 0004 00AF     		add	r7, sp, #0
 2776 0006 0346     		mov	r3, r0
 2777 0008 FB71     		strb	r3, [r7, #7]
 2778 000a 0023     		movs	r3, #0
 2779 000c FB73     		strb	r3, [r7, #15]
 2780 000e 0023     		movs	r3, #0
 2781 0010 BB73     		strb	r3, [r7, #14]
 2782 0012 0220     		movs	r0, #2
 2783 0014 FFF7FEFF 		bl	po6030_set_bank
 2784 0018 0346     		mov	r3, r0
 2785 001a FB73     		strb	r3, [r7, #15]
 2786 001c 97F90F30 		ldrsb	r3, [r7, #15]
 2787 0020 002B     		cmp	r3, #0
 2788 0022 02D0     		beq	.L237
 2789 0024 97F90F30 		ldrsb	r3, [r7, #15]
 2790 0028 24E0     		b	.L242
 2791              	.L237:
 2792 002a 07F10E03 		add	r3, r7, #14
ARM GAS  /var/folders/d2/nstgp4h54kz7g1l847x_b8wc0000gn/T//ccDDtcEe.s 			page 50


 2793 002e 1A46     		mov	r2, r3
 2794 0030 0421     		movs	r1, #4
 2795 0032 6E20     		movs	r0, #110
 2796 0034 FFF7FEFF 		bl	read_reg
 2797 0038 0346     		mov	r3, r0
 2798 003a FB73     		strb	r3, [r7, #15]
 2799 003c 97F90F30 		ldrsb	r3, [r7, #15]
 2800 0040 002B     		cmp	r3, #0
 2801 0042 02D0     		beq	.L239
 2802 0044 97F90F30 		ldrsb	r3, [r7, #15]
 2803 0048 14E0     		b	.L242
 2804              	.L239:
 2805 004a FB79     		ldrb	r3, [r7, #7]	@ zero_extendqisi2
 2806 004c 012B     		cmp	r3, #1
 2807 004e 05D1     		bne	.L240
 2808 0050 BB7B     		ldrb	r3, [r7, #14]	@ zero_extendqisi2
 2809 0052 23F00403 		bic	r3, r3, #4
 2810 0056 DBB2     		uxtb	r3, r3
 2811 0058 BB73     		strb	r3, [r7, #14]
 2812 005a 04E0     		b	.L241
 2813              	.L240:
 2814 005c BB7B     		ldrb	r3, [r7, #14]	@ zero_extendqisi2
 2815 005e 43F00403 		orr	r3, r3, #4
 2816 0062 DBB2     		uxtb	r3, r3
 2817 0064 BB73     		strb	r3, [r7, #14]
 2818              	.L241:
 2819 0066 BB7B     		ldrb	r3, [r7, #14]	@ zero_extendqisi2
 2820 0068 1A46     		mov	r2, r3
 2821 006a 0421     		movs	r1, #4
 2822 006c 6E20     		movs	r0, #110
 2823 006e FFF7FEFF 		bl	write_reg
 2824 0072 0346     		mov	r3, r0
 2825              	.L242:
 2826 0074 1846     		mov	r0, r3
 2827 0076 1037     		adds	r7, r7, #16
 2828 0078 BD46     		mov	sp, r7
 2829              		@ sp needed
 2830 007a 80BD     		pop	{r7, pc}
 2831              		.size	po6030_set_awb, .-po6030_set_awb
 2832              		.section	.text.po6030_set_rgb_gain,"ax",%progbits
 2833              		.align	1
 2834              		.global	po6030_set_rgb_gain
 2835              		.syntax unified
 2836              		.thumb
 2837              		.thumb_func
 2838              		.fpu fpv4-sp-d16
 2839              		.type	po6030_set_rgb_gain, %function
 2840              	po6030_set_rgb_gain:
 2841              		@ args = 0, pretend = 0, frame = 16
 2842              		@ frame_needed = 1, uses_anonymous_args = 0
 2843 0000 80B5     		push	{r7, lr}
 2844 0002 84B0     		sub	sp, sp, #16
 2845 0004 00AF     		add	r7, sp, #0
 2846 0006 0346     		mov	r3, r0
 2847 0008 FB71     		strb	r3, [r7, #7]
 2848 000a 0B46     		mov	r3, r1
 2849 000c BB71     		strb	r3, [r7, #6]
ARM GAS  /var/folders/d2/nstgp4h54kz7g1l847x_b8wc0000gn/T//ccDDtcEe.s 			page 51


 2850 000e 1346     		mov	r3, r2
 2851 0010 7B71     		strb	r3, [r7, #5]
 2852 0012 0023     		movs	r3, #0
 2853 0014 FB73     		strb	r3, [r7, #15]
 2854 0016 0020     		movs	r0, #0
 2855 0018 FFF7FEFF 		bl	po6030_set_awb
 2856 001c 0346     		mov	r3, r0
 2857 001e FB73     		strb	r3, [r7, #15]
 2858 0020 97F90F30 		ldrsb	r3, [r7, #15]
 2859 0024 002B     		cmp	r3, #0
 2860 0026 02D0     		beq	.L244
 2861 0028 97F90F30 		ldrsb	r3, [r7, #15]
 2862 002c 39E0     		b	.L245
 2863              	.L244:
 2864 002e 0220     		movs	r0, #2
 2865 0030 FFF7FEFF 		bl	po6030_set_bank
 2866 0034 0346     		mov	r3, r0
 2867 0036 FB73     		strb	r3, [r7, #15]
 2868 0038 97F90F30 		ldrsb	r3, [r7, #15]
 2869 003c 002B     		cmp	r3, #0
 2870 003e 02D0     		beq	.L246
 2871 0040 97F90F30 		ldrsb	r3, [r7, #15]
 2872 0044 2DE0     		b	.L245
 2873              	.L246:
 2874 0046 FB79     		ldrb	r3, [r7, #7]	@ zero_extendqisi2
 2875 0048 1A46     		mov	r2, r3
 2876 004a A421     		movs	r1, #164
 2877 004c 6E20     		movs	r0, #110
 2878 004e FFF7FEFF 		bl	write_reg
 2879 0052 0346     		mov	r3, r0
 2880 0054 FB73     		strb	r3, [r7, #15]
 2881 0056 97F90F30 		ldrsb	r3, [r7, #15]
 2882 005a 002B     		cmp	r3, #0
 2883 005c 02D0     		beq	.L247
 2884 005e 97F90F30 		ldrsb	r3, [r7, #15]
 2885 0062 1EE0     		b	.L245
 2886              	.L247:
 2887 0064 BB79     		ldrb	r3, [r7, #6]	@ zero_extendqisi2
 2888 0066 1A46     		mov	r2, r3
 2889 0068 A521     		movs	r1, #165
 2890 006a 6E20     		movs	r0, #110
 2891 006c FFF7FEFF 		bl	write_reg
 2892 0070 0346     		mov	r3, r0
 2893 0072 FB73     		strb	r3, [r7, #15]
 2894 0074 97F90F30 		ldrsb	r3, [r7, #15]
 2895 0078 002B     		cmp	r3, #0
 2896 007a 02D0     		beq	.L248
 2897 007c 97F90F30 		ldrsb	r3, [r7, #15]
 2898 0080 0FE0     		b	.L245
 2899              	.L248:
 2900 0082 7B79     		ldrb	r3, [r7, #5]	@ zero_extendqisi2
 2901 0084 1A46     		mov	r2, r3
 2902 0086 A621     		movs	r1, #166
 2903 0088 6E20     		movs	r0, #110
 2904 008a FFF7FEFF 		bl	write_reg
 2905 008e 0346     		mov	r3, r0
 2906 0090 FB73     		strb	r3, [r7, #15]
ARM GAS  /var/folders/d2/nstgp4h54kz7g1l847x_b8wc0000gn/T//ccDDtcEe.s 			page 52


 2907 0092 97F90F30 		ldrsb	r3, [r7, #15]
 2908 0096 002B     		cmp	r3, #0
 2909 0098 02D0     		beq	.L249
 2910 009a 97F90F30 		ldrsb	r3, [r7, #15]
 2911 009e 00E0     		b	.L245
 2912              	.L249:
 2913 00a0 0023     		movs	r3, #0
 2914              	.L245:
 2915 00a2 1846     		mov	r0, r3
 2916 00a4 1037     		adds	r7, r7, #16
 2917 00a6 BD46     		mov	sp, r7
 2918              		@ sp needed
 2919 00a8 80BD     		pop	{r7, pc}
 2920              		.size	po6030_set_rgb_gain, .-po6030_set_rgb_gain
 2921              		.section	.text.po6030_set_ae,"ax",%progbits
 2922              		.align	1
 2923              		.global	po6030_set_ae
 2924              		.syntax unified
 2925              		.thumb
 2926              		.thumb_func
 2927              		.fpu fpv4-sp-d16
 2928              		.type	po6030_set_ae, %function
 2929              	po6030_set_ae:
 2930              		@ args = 0, pretend = 0, frame = 16
 2931              		@ frame_needed = 1, uses_anonymous_args = 0
 2932 0000 80B5     		push	{r7, lr}
 2933 0002 84B0     		sub	sp, sp, #16
 2934 0004 00AF     		add	r7, sp, #0
 2935 0006 0346     		mov	r3, r0
 2936 0008 FB71     		strb	r3, [r7, #7]
 2937 000a 0023     		movs	r3, #0
 2938 000c FB73     		strb	r3, [r7, #15]
 2939 000e 0023     		movs	r3, #0
 2940 0010 BB73     		strb	r3, [r7, #14]
 2941 0012 0220     		movs	r0, #2
 2942 0014 FFF7FEFF 		bl	po6030_set_bank
 2943 0018 0346     		mov	r3, r0
 2944 001a FB73     		strb	r3, [r7, #15]
 2945 001c 97F90F30 		ldrsb	r3, [r7, #15]
 2946 0020 002B     		cmp	r3, #0
 2947 0022 02D0     		beq	.L251
 2948 0024 97F90F30 		ldrsb	r3, [r7, #15]
 2949 0028 24E0     		b	.L256
 2950              	.L251:
 2951 002a 07F10E03 		add	r3, r7, #14
 2952 002e 1A46     		mov	r2, r3
 2953 0030 0421     		movs	r1, #4
 2954 0032 6E20     		movs	r0, #110
 2955 0034 FFF7FEFF 		bl	read_reg
 2956 0038 0346     		mov	r3, r0
 2957 003a FB73     		strb	r3, [r7, #15]
 2958 003c 97F90F30 		ldrsb	r3, [r7, #15]
 2959 0040 002B     		cmp	r3, #0
 2960 0042 02D0     		beq	.L253
 2961 0044 97F90F30 		ldrsb	r3, [r7, #15]
 2962 0048 14E0     		b	.L256
 2963              	.L253:
ARM GAS  /var/folders/d2/nstgp4h54kz7g1l847x_b8wc0000gn/T//ccDDtcEe.s 			page 53


 2964 004a FB79     		ldrb	r3, [r7, #7]	@ zero_extendqisi2
 2965 004c 012B     		cmp	r3, #1
 2966 004e 05D1     		bne	.L254
 2967 0050 BB7B     		ldrb	r3, [r7, #14]	@ zero_extendqisi2
 2968 0052 23F00303 		bic	r3, r3, #3
 2969 0056 DBB2     		uxtb	r3, r3
 2970 0058 BB73     		strb	r3, [r7, #14]
 2971 005a 04E0     		b	.L255
 2972              	.L254:
 2973 005c BB7B     		ldrb	r3, [r7, #14]	@ zero_extendqisi2
 2974 005e 43F00303 		orr	r3, r3, #3
 2975 0062 DBB2     		uxtb	r3, r3
 2976 0064 BB73     		strb	r3, [r7, #14]
 2977              	.L255:
 2978 0066 BB7B     		ldrb	r3, [r7, #14]	@ zero_extendqisi2
 2979 0068 1A46     		mov	r2, r3
 2980 006a 0421     		movs	r1, #4
 2981 006c 6E20     		movs	r0, #110
 2982 006e FFF7FEFF 		bl	write_reg
 2983 0072 0346     		mov	r3, r0
 2984              	.L256:
 2985 0074 1846     		mov	r0, r3
 2986 0076 1037     		adds	r7, r7, #16
 2987 0078 BD46     		mov	sp, r7
 2988              		@ sp needed
 2989 007a 80BD     		pop	{r7, pc}
 2990              		.size	po6030_set_ae, .-po6030_set_ae
 2991              		.section	.text.po6030_set_exposure,"ax",%progbits
 2992              		.align	1
 2993              		.global	po6030_set_exposure
 2994              		.syntax unified
 2995              		.thumb
 2996              		.thumb_func
 2997              		.fpu fpv4-sp-d16
 2998              		.type	po6030_set_exposure, %function
 2999              	po6030_set_exposure:
 3000              		@ args = 0, pretend = 0, frame = 16
 3001              		@ frame_needed = 1, uses_anonymous_args = 0
 3002 0000 80B5     		push	{r7, lr}
 3003 0002 84B0     		sub	sp, sp, #16
 3004 0004 00AF     		add	r7, sp, #0
 3005 0006 0346     		mov	r3, r0
 3006 0008 0A46     		mov	r2, r1
 3007 000a FB80     		strh	r3, [r7, #6]	@ movhi
 3008 000c 1346     		mov	r3, r2
 3009 000e 7B71     		strb	r3, [r7, #5]
 3010 0010 0023     		movs	r3, #0
 3011 0012 FB73     		strb	r3, [r7, #15]
 3012 0014 0020     		movs	r0, #0
 3013 0016 FFF7FEFF 		bl	po6030_set_ae
 3014 001a 0346     		mov	r3, r0
 3015 001c FB73     		strb	r3, [r7, #15]
 3016 001e 97F90F30 		ldrsb	r3, [r7, #15]
 3017 0022 002B     		cmp	r3, #0
 3018 0024 02D0     		beq	.L258
 3019 0026 97F90F30 		ldrsb	r3, [r7, #15]
 3020 002a 4BE0     		b	.L259
ARM GAS  /var/folders/d2/nstgp4h54kz7g1l847x_b8wc0000gn/T//ccDDtcEe.s 			page 54


 3021              	.L258:
 3022 002c 0220     		movs	r0, #2
 3023 002e FFF7FEFF 		bl	po6030_set_bank
 3024 0032 0346     		mov	r3, r0
 3025 0034 FB73     		strb	r3, [r7, #15]
 3026 0036 97F90F30 		ldrsb	r3, [r7, #15]
 3027 003a 002B     		cmp	r3, #0
 3028 003c 02D0     		beq	.L260
 3029 003e 97F90F30 		ldrsb	r3, [r7, #15]
 3030 0042 3FE0     		b	.L259
 3031              	.L260:
 3032 0044 2722     		movs	r2, #39
 3033 0046 5021     		movs	r1, #80
 3034 0048 6E20     		movs	r0, #110
 3035 004a FFF7FEFF 		bl	write_reg
 3036 004e 0346     		mov	r3, r0
 3037 0050 FB73     		strb	r3, [r7, #15]
 3038 0052 97F90F30 		ldrsb	r3, [r7, #15]
 3039 0056 002B     		cmp	r3, #0
 3040 0058 02D0     		beq	.L261
 3041 005a 97F90F30 		ldrsb	r3, [r7, #15]
 3042 005e 31E0     		b	.L259
 3043              	.L261:
 3044 0060 FB88     		ldrh	r3, [r7, #6]
 3045 0062 1B0A     		lsrs	r3, r3, #8
 3046 0064 9BB2     		uxth	r3, r3
 3047 0066 DBB2     		uxtb	r3, r3
 3048 0068 1A46     		mov	r2, r3
 3049 006a 4C21     		movs	r1, #76
 3050 006c 6E20     		movs	r0, #110
 3051 006e FFF7FEFF 		bl	write_reg
 3052 0072 0346     		mov	r3, r0
 3053 0074 FB73     		strb	r3, [r7, #15]
 3054 0076 97F90F30 		ldrsb	r3, [r7, #15]
 3055 007a 002B     		cmp	r3, #0
 3056 007c 02D0     		beq	.L262
 3057 007e 97F90F30 		ldrsb	r3, [r7, #15]
 3058 0082 1FE0     		b	.L259
 3059              	.L262:
 3060 0084 FB88     		ldrh	r3, [r7, #6]	@ movhi
 3061 0086 DBB2     		uxtb	r3, r3
 3062 0088 1A46     		mov	r2, r3
 3063 008a 4D21     		movs	r1, #77
 3064 008c 6E20     		movs	r0, #110
 3065 008e FFF7FEFF 		bl	write_reg
 3066 0092 0346     		mov	r3, r0
 3067 0094 FB73     		strb	r3, [r7, #15]
 3068 0096 97F90F30 		ldrsb	r3, [r7, #15]
 3069 009a 002B     		cmp	r3, #0
 3070 009c 02D0     		beq	.L263
 3071 009e 97F90F30 		ldrsb	r3, [r7, #15]
 3072 00a2 0FE0     		b	.L259
 3073              	.L263:
 3074 00a4 7B79     		ldrb	r3, [r7, #5]	@ zero_extendqisi2
 3075 00a6 1A46     		mov	r2, r3
 3076 00a8 4E21     		movs	r1, #78
 3077 00aa 6E20     		movs	r0, #110
ARM GAS  /var/folders/d2/nstgp4h54kz7g1l847x_b8wc0000gn/T//ccDDtcEe.s 			page 55


 3078 00ac FFF7FEFF 		bl	write_reg
 3079 00b0 0346     		mov	r3, r0
 3080 00b2 FB73     		strb	r3, [r7, #15]
 3081 00b4 97F90F30 		ldrsb	r3, [r7, #15]
 3082 00b8 002B     		cmp	r3, #0
 3083 00ba 02D0     		beq	.L264
 3084 00bc 97F90F30 		ldrsb	r3, [r7, #15]
 3085 00c0 00E0     		b	.L259
 3086              	.L264:
 3087 00c2 0023     		movs	r3, #0
 3088              	.L259:
 3089 00c4 1846     		mov	r0, r3
 3090 00c6 1037     		adds	r7, r7, #16
 3091 00c8 BD46     		mov	sp, r7
 3092              		@ sp needed
 3093 00ca 80BD     		pop	{r7, pc}
 3094              		.size	po6030_set_exposure, .-po6030_set_exposure
 3095              		.section	.text.po6030_get_image_size,"ax",%progbits
 3096              		.align	1
 3097              		.global	po6030_get_image_size
 3098              		.syntax unified
 3099              		.thumb
 3100              		.thumb_func
 3101              		.fpu fpv4-sp-d16
 3102              		.type	po6030_get_image_size, %function
 3103              	po6030_get_image_size:
 3104              		@ args = 0, pretend = 0, frame = 0
 3105              		@ frame_needed = 1, uses_anonymous_args = 0
 3106              		@ link register save eliminated.
 3107 0000 80B4     		push	{r7}
 3108 0002 00AF     		add	r7, sp, #0
 3109 0004 0C4B     		ldr	r3, .L268
 3110 0006 1B79     		ldrb	r3, [r3, #4]	@ zero_extendqisi2
 3111 0008 0D2B     		cmp	r3, #13
 3112 000a 07D1     		bne	.L266
 3113 000c 0A4B     		ldr	r3, .L268
 3114 000e 1B88     		ldrh	r3, [r3]
 3115 0010 1A46     		mov	r2, r3
 3116 0012 094B     		ldr	r3, .L268
 3117 0014 5B88     		ldrh	r3, [r3, #2]
 3118 0016 03FB02F3 		mul	r3, r3, r2
 3119 001a 07E0     		b	.L267
 3120              	.L266:
 3121 001c 064B     		ldr	r3, .L268
 3122 001e 1B88     		ldrh	r3, [r3]
 3123 0020 1A46     		mov	r2, r3
 3124 0022 054B     		ldr	r3, .L268
 3125 0024 5B88     		ldrh	r3, [r3, #2]
 3126 0026 03FB02F3 		mul	r3, r3, r2
 3127 002a 5B00     		lsls	r3, r3, #1
 3128              	.L267:
 3129 002c 1846     		mov	r0, r3
 3130 002e BD46     		mov	sp, r7
 3131              		@ sp needed
 3132 0030 5DF8047B 		ldr	r7, [sp], #4
 3133 0034 7047     		bx	lr
 3134              	.L269:
ARM GAS  /var/folders/d2/nstgp4h54kz7g1l847x_b8wc0000gn/T//ccDDtcEe.s 			page 56


 3135 0036 00BF     		.align	2
 3136              	.L268:
 3137 0038 00000000 		.word	po6030_conf
 3138              		.size	po6030_get_image_size, .-po6030_get_image_size
 3139              		.section	.text.po6030_is_connected,"ax",%progbits
 3140              		.align	1
 3141              		.global	po6030_is_connected
 3142              		.syntax unified
 3143              		.thumb
 3144              		.thumb_func
 3145              		.fpu fpv4-sp-d16
 3146              		.type	po6030_is_connected, %function
 3147              	po6030_is_connected:
 3148              		@ args = 0, pretend = 0, frame = 8
 3149              		@ frame_needed = 1, uses_anonymous_args = 0
 3150 0000 80B5     		push	{r7, lr}
 3151 0002 82B0     		sub	sp, sp, #8
 3152 0004 00AF     		add	r7, sp, #0
 3153 0006 0023     		movs	r3, #0
 3154 0008 BB80     		strh	r3, [r7, #4]	@ movhi
 3155 000a 3B1D     		adds	r3, r7, #4
 3156 000c 1846     		mov	r0, r3
 3157 000e FFF7FEFF 		bl	po6030_read_id
 3158 0012 0346     		mov	r3, r0
 3159 0014 FB71     		strb	r3, [r7, #7]
 3160 0016 97F90730 		ldrsb	r3, [r7, #7]
 3161 001a 002B     		cmp	r3, #0
 3162 001c 06D1     		bne	.L271
 3163 001e BB88     		ldrh	r3, [r7, #4]
 3164 0020 46F23002 		movw	r2, #24624
 3165 0024 9342     		cmp	r3, r2
 3166 0026 01D1     		bne	.L271
 3167 0028 0123     		movs	r3, #1
 3168 002a 00E0     		b	.L273
 3169              	.L271:
 3170 002c 0023     		movs	r3, #0
 3171              	.L273:
 3172 002e 1846     		mov	r0, r3
 3173 0030 0837     		adds	r7, r7, #8
 3174 0032 BD46     		mov	sp, r7
 3175              		@ sp needed
 3176 0034 80BD     		pop	{r7, pc}
 3177              		.size	po6030_is_connected, .-po6030_is_connected
 3178              		.ident	"GCC: (GNU Tools for Arm Embedded Processors 7-2017-q4-major) 7.2.1 20170904 (release) [ARM
ARM GAS  /var/folders/d2/nstgp4h54kz7g1l847x_b8wc0000gn/T//ccDDtcEe.s 			page 57

