ARM GAS  /var/folders/d2/nstgp4h54kz7g1l847x_b8wc0000gn/T//ccOi84Xu.s 			page 1


   1              		.cpu cortex-m4
   2              		.eabi_attribute 27, 1
   3              		.eabi_attribute 28, 1
   4              		.eabi_attribute 20, 1
   5              		.eabi_attribute 21, 1
   6              		.eabi_attribute 23, 3
   7              		.eabi_attribute 24, 1
   8              		.eabi_attribute 25, 1
   9              		.eabi_attribute 26, 1
  10              		.eabi_attribute 30, 2
  11              		.eabi_attribute 34, 1
  12              		.eabi_attribute 18, 4
  13              		.file	"port.c"
  14              		.text
  15              	.Ltext0:
  16              		.cfi_sections	.debug_frame
  17              		.section	.text.messagebus_lock_acquire,"ax",%progbits
  18              		.align	1
  19              		.p2align 4,,15
  20              		.global	messagebus_lock_acquire
  21              		.syntax unified
  22              		.thumb
  23              		.thumb_func
  24              		.fpu fpv4-sp-d16
  25              		.type	messagebus_lock_acquire, %function
  26              	messagebus_lock_acquire:
  27              	.LFB219:
  28              		.file 1 "../e-puck2_main-processor/src/msgbus/examples/chibios/port.c"
  29              		.loc 1 5 0
  30              		.cfi_startproc
  31              		@ args = 0, pretend = 0, frame = 8
  32              		@ frame_needed = 0, uses_anonymous_args = 0
  33              	.LVL0:
  34 0000 00B5     		push	{lr}
  35              		.cfi_def_cfa_offset 4
  36              		.cfi_offset 14, -4
  37 0002 074B     		ldr	r3, .L7
  38 0004 83B0     		sub	sp, sp, #12
  39              		.cfi_def_cfa_offset 16
  40              		.loc 1 5 0
  41 0006 1A68     		ldr	r2, [r3]
  42 0008 0192     		str	r2, [sp, #4]
  43              	.LVL1:
  44              		.loc 1 7 0
  45 000a 019A     		ldr	r2, [sp, #4]
  46 000c 1B68     		ldr	r3, [r3]
  47 000e 9A42     		cmp	r2, r3
  48 0010 04D1     		bne	.L6
  49              		.loc 1 8 0
  50 0012 03B0     		add	sp, sp, #12
  51              		.cfi_remember_state
  52              		.cfi_def_cfa_offset 4
  53              		@ sp needed
  54 0014 5DF804EB 		ldr	lr, [sp], #4
  55              		.cfi_restore 14
  56              		.cfi_def_cfa_offset 0
  57              		.loc 1 7 0
ARM GAS  /var/folders/d2/nstgp4h54kz7g1l847x_b8wc0000gn/T//ccOi84Xu.s 			page 2


  58 0018 FFF7FEBF 		b	chMtxLock
  59              	.LVL2:
  60              	.L6:
  61              		.cfi_restore_state
  62 001c FFF7FEFF 		bl	__stack_chk_fail
  63              	.LVL3:
  64              	.L8:
  65              		.align	2
  66              	.L7:
  67 0020 00000000 		.word	__stack_chk_guard
  68              		.cfi_endproc
  69              	.LFE219:
  70              		.size	messagebus_lock_acquire, .-messagebus_lock_acquire
  71              		.section	.text.messagebus_lock_release,"ax",%progbits
  72              		.align	1
  73              		.p2align 4,,15
  74              		.global	messagebus_lock_release
  75              		.syntax unified
  76              		.thumb
  77              		.thumb_func
  78              		.fpu fpv4-sp-d16
  79              		.type	messagebus_lock_release, %function
  80              	messagebus_lock_release:
  81              	.LFB220:
  82              		.loc 1 11 0
  83              		.cfi_startproc
  84              		@ args = 0, pretend = 0, frame = 8
  85              		@ frame_needed = 0, uses_anonymous_args = 0
  86              	.LVL4:
  87 0000 00B5     		push	{lr}
  88              		.cfi_def_cfa_offset 4
  89              		.cfi_offset 14, -4
  90 0002 074B     		ldr	r3, .L14
  91 0004 83B0     		sub	sp, sp, #12
  92              		.cfi_def_cfa_offset 16
  93              		.loc 1 11 0
  94 0006 1A68     		ldr	r2, [r3]
  95 0008 0192     		str	r2, [sp, #4]
  96              	.LVL5:
  97              		.loc 1 13 0
  98 000a 019A     		ldr	r2, [sp, #4]
  99 000c 1B68     		ldr	r3, [r3]
 100 000e 9A42     		cmp	r2, r3
 101 0010 04D1     		bne	.L13
 102              		.loc 1 14 0
 103 0012 03B0     		add	sp, sp, #12
 104              		.cfi_remember_state
 105              		.cfi_def_cfa_offset 4
 106              		@ sp needed
 107 0014 5DF804EB 		ldr	lr, [sp], #4
 108              		.cfi_restore 14
 109              		.cfi_def_cfa_offset 0
 110              		.loc 1 13 0
 111 0018 FFF7FEBF 		b	chMtxUnlock
 112              	.LVL6:
 113              	.L13:
 114              		.cfi_restore_state
ARM GAS  /var/folders/d2/nstgp4h54kz7g1l847x_b8wc0000gn/T//ccOi84Xu.s 			page 3


 115 001c FFF7FEFF 		bl	__stack_chk_fail
 116              	.LVL7:
 117              	.L15:
 118              		.align	2
 119              	.L14:
 120 0020 00000000 		.word	__stack_chk_guard
 121              		.cfi_endproc
 122              	.LFE220:
 123              		.size	messagebus_lock_release, .-messagebus_lock_release
 124              		.section	.text.messagebus_condvar_broadcast,"ax",%progbits
 125              		.align	1
 126              		.p2align 4,,15
 127              		.global	messagebus_condvar_broadcast
 128              		.syntax unified
 129              		.thumb
 130              		.thumb_func
 131              		.fpu fpv4-sp-d16
 132              		.type	messagebus_condvar_broadcast, %function
 133              	messagebus_condvar_broadcast:
 134              	.LFB221:
 135              		.loc 1 17 0
 136              		.cfi_startproc
 137              		@ args = 0, pretend = 0, frame = 8
 138              		@ frame_needed = 0, uses_anonymous_args = 0
 139              	.LVL8:
 140 0000 00B5     		push	{lr}
 141              		.cfi_def_cfa_offset 4
 142              		.cfi_offset 14, -4
 143 0002 074B     		ldr	r3, .L21
 144 0004 83B0     		sub	sp, sp, #12
 145              		.cfi_def_cfa_offset 16
 146              		.loc 1 17 0
 147 0006 1A68     		ldr	r2, [r3]
 148 0008 0192     		str	r2, [sp, #4]
 149              	.LVL9:
 150              		.loc 1 19 0
 151 000a 019A     		ldr	r2, [sp, #4]
 152 000c 1B68     		ldr	r3, [r3]
 153 000e 9A42     		cmp	r2, r3
 154 0010 04D1     		bne	.L20
 155              		.loc 1 20 0
 156 0012 03B0     		add	sp, sp, #12
 157              		.cfi_remember_state
 158              		.cfi_def_cfa_offset 4
 159              		@ sp needed
 160 0014 5DF804EB 		ldr	lr, [sp], #4
 161              		.cfi_restore 14
 162              		.cfi_def_cfa_offset 0
 163              		.loc 1 19 0
 164 0018 FFF7FEBF 		b	chCondBroadcast
 165              	.LVL10:
 166              	.L20:
 167              		.cfi_restore_state
 168 001c FFF7FEFF 		bl	__stack_chk_fail
 169              	.LVL11:
 170              	.L22:
 171              		.align	2
ARM GAS  /var/folders/d2/nstgp4h54kz7g1l847x_b8wc0000gn/T//ccOi84Xu.s 			page 4


 172              	.L21:
 173 0020 00000000 		.word	__stack_chk_guard
 174              		.cfi_endproc
 175              	.LFE221:
 176              		.size	messagebus_condvar_broadcast, .-messagebus_condvar_broadcast
 177              		.section	.text.messagebus_condvar_wait,"ax",%progbits
 178              		.align	1
 179              		.p2align 4,,15
 180              		.global	messagebus_condvar_wait
 181              		.syntax unified
 182              		.thumb
 183              		.thumb_func
 184              		.fpu fpv4-sp-d16
 185              		.type	messagebus_condvar_wait, %function
 186              	messagebus_condvar_wait:
 187              	.LFB222:
 188              		.loc 1 23 0
 189              		.cfi_startproc
 190              		@ args = 0, pretend = 0, frame = 8
 191              		@ frame_needed = 0, uses_anonymous_args = 0
 192              	.LVL12:
 193 0000 00B5     		push	{lr}
 194              		.cfi_def_cfa_offset 4
 195              		.cfi_offset 14, -4
 196 0002 074B     		ldr	r3, .L28
 197 0004 83B0     		sub	sp, sp, #12
 198              		.cfi_def_cfa_offset 16
 199              		.loc 1 23 0
 200 0006 1A68     		ldr	r2, [r3]
 201 0008 0192     		str	r2, [sp, #4]
 202              	.LVL13:
 203              		.loc 1 25 0
 204 000a 019A     		ldr	r2, [sp, #4]
 205 000c 1B68     		ldr	r3, [r3]
 206 000e 9A42     		cmp	r2, r3
 207 0010 04D1     		bne	.L27
 208              		.loc 1 26 0
 209 0012 03B0     		add	sp, sp, #12
 210              		.cfi_remember_state
 211              		.cfi_def_cfa_offset 4
 212              		@ sp needed
 213 0014 5DF804EB 		ldr	lr, [sp], #4
 214              		.cfi_restore 14
 215              		.cfi_def_cfa_offset 0
 216              		.loc 1 25 0
 217 0018 FFF7FEBF 		b	chCondWait
 218              	.LVL14:
 219              	.L27:
 220              		.cfi_restore_state
 221 001c FFF7FEFF 		bl	__stack_chk_fail
 222              	.LVL15:
 223              	.L29:
 224              		.align	2
 225              	.L28:
 226 0020 00000000 		.word	__stack_chk_guard
 227              		.cfi_endproc
 228              	.LFE222:
ARM GAS  /var/folders/d2/nstgp4h54kz7g1l847x_b8wc0000gn/T//ccOi84Xu.s 			page 5


 229              		.size	messagebus_condvar_wait, .-messagebus_condvar_wait
 230              		.text
 231              	.Letext0:
 232              		.file 2 "/Applications/Eclipse_e-puck2.app/Contents/Eclipse_e-puck2/Tools/gcc-arm-none-eabi-7-2017
 233              		.file 3 "/Applications/Eclipse_e-puck2.app/Contents/Eclipse_e-puck2/Tools/gcc-arm-none-eabi-7-2017
 234              		.file 4 "../e-puck2_main-processor/ChibiOS//os/rt/ports/ARMCMx/compilers/GCC/chtypes.h"
 235              		.file 5 "../e-puck2_main-processor/ChibiOS//os/rt/include/chsystypes.h"
 236              		.file 6 "../e-puck2_main-processor/ChibiOS//os/rt/include/chschd.h"
 237              		.file 7 "../e-puck2_main-processor/ChibiOS//os/ext/CMSIS/include/core_cm4.h"
 238              		.file 8 "../e-puck2_main-processor/ChibiOS//os/ext/CMSIS/ST/system_stm32f4xx.h"
 239              		.file 9 "../e-puck2_main-processor/ChibiOS//os/rt/ports/ARMCMx/chcore.h"
 240              		.file 10 "../e-puck2_main-processor/ChibiOS//os/rt/ports/ARMCMx/chcore_v7m.h"
 241              		.file 11 "../e-puck2_main-processor/ChibiOS//os/rt/include/chdebug.h"
 242              		.file 12 "../e-puck2_main-processor/ChibiOS//os/rt/include/chtm.h"
 243              		.file 13 "../e-puck2_main-processor/ChibiOS//os/rt/include/chstats.h"
 244              		.file 14 "../e-puck2_main-processor/ChibiOS//os/rt/include/chsem.h"
 245              		.file 15 "../e-puck2_main-processor/ChibiOS//os/rt/include/chmtx.h"
 246              		.file 16 "../e-puck2_main-processor/ChibiOS//os/rt/include/chregistry.h"
 247              		.file 17 "../e-puck2_main-processor/ChibiOS//os/rt/include/chcond.h"
 248              		.file 18 "/Applications/Eclipse_e-puck2.app/Contents/Eclipse_e-puck2/Tools/gcc-arm-none-eabi-7-201
 249              		.section	.debug_info,"",%progbits
 250              	.Ldebug_info0:
 251 0000 DD0B0000 		.4byte	0xbdd
 252 0004 0400     		.2byte	0x4
 253 0006 00000000 		.4byte	.Ldebug_abbrev0
 254 000a 04       		.byte	0x4
 255 000b 01       		.uleb128 0x1
 256 000c 36030000 		.4byte	.LASF176
 257 0010 0C       		.byte	0xc
 258 0011 90000000 		.4byte	.LASF177
 259 0015 1C000000 		.4byte	.LASF178
 260 0019 00000000 		.4byte	.Ldebug_ranges0+0
 261 001d 00000000 		.4byte	0
 262 0021 00000000 		.4byte	.Ldebug_line0
 263 0025 02       		.uleb128 0x2
 264 0026 04       		.byte	0x4
 265 0027 05       		.byte	0x5
 266 0028 696E7400 		.ascii	"int\000"
 267 002c 03       		.uleb128 0x3
 268 002d 04       		.byte	0x4
 269 002e 07       		.byte	0x7
 270 002f 29030000 		.4byte	.LASF0
 271 0033 03       		.uleb128 0x3
 272 0034 08       		.byte	0x8
 273 0035 05       		.byte	0x5
 274 0036 F2020000 		.4byte	.LASF1
 275 003a 03       		.uleb128 0x3
 276 003b 08       		.byte	0x8
 277 003c 04       		.byte	0x4
 278 003d A7020000 		.4byte	.LASF2
 279 0041 03       		.uleb128 0x3
 280 0042 01       		.byte	0x1
 281 0043 06       		.byte	0x6
 282 0044 EF010000 		.4byte	.LASF3
 283 0048 04       		.uleb128 0x4
 284 0049 EA000000 		.4byte	.LASF6
 285 004d 02       		.byte	0x2
ARM GAS  /var/folders/d2/nstgp4h54kz7g1l847x_b8wc0000gn/T//ccOi84Xu.s 			page 6


 286 004e 2B       		.byte	0x2b
 287 004f 53000000 		.4byte	0x53
 288 0053 03       		.uleb128 0x3
 289 0054 01       		.byte	0x1
 290 0055 08       		.byte	0x8
 291 0056 C6060000 		.4byte	.LASF4
 292 005a 03       		.uleb128 0x3
 293 005b 02       		.byte	0x2
 294 005c 05       		.byte	0x5
 295 005d DE060000 		.4byte	.LASF5
 296 0061 04       		.uleb128 0x4
 297 0062 E7070000 		.4byte	.LASF7
 298 0066 02       		.byte	0x2
 299 0067 39       		.byte	0x39
 300 0068 6C000000 		.4byte	0x6c
 301 006c 03       		.uleb128 0x3
 302 006d 02       		.byte	0x2
 303 006e 07       		.byte	0x7
 304 006f D6040000 		.4byte	.LASF8
 305 0073 04       		.uleb128 0x4
 306 0074 59050000 		.4byte	.LASF9
 307 0078 02       		.byte	0x2
 308 0079 4D       		.byte	0x4d
 309 007a 7E000000 		.4byte	0x7e
 310 007e 03       		.uleb128 0x3
 311 007f 04       		.byte	0x4
 312 0080 05       		.byte	0x5
 313 0081 5D020000 		.4byte	.LASF10
 314 0085 04       		.uleb128 0x4
 315 0086 25080000 		.4byte	.LASF11
 316 008a 02       		.byte	0x2
 317 008b 4F       		.byte	0x4f
 318 008c 90000000 		.4byte	0x90
 319 0090 03       		.uleb128 0x3
 320 0091 04       		.byte	0x4
 321 0092 07       		.byte	0x7
 322 0093 C9070000 		.4byte	.LASF12
 323 0097 04       		.uleb128 0x4
 324 0098 40060000 		.4byte	.LASF13
 325 009c 02       		.byte	0x2
 326 009d 69       		.byte	0x69
 327 009e A2000000 		.4byte	0xa2
 328 00a2 03       		.uleb128 0x3
 329 00a3 08       		.byte	0x8
 330 00a4 07       		.byte	0x7
 331 00a5 39010000 		.4byte	.LASF14
 332 00a9 04       		.uleb128 0x4
 333 00aa 93080000 		.4byte	.LASF15
 334 00ae 03       		.byte	0x3
 335 00af 18       		.byte	0x18
 336 00b0 48000000 		.4byte	0x48
 337 00b4 04       		.uleb128 0x4
 338 00b5 7A040000 		.4byte	.LASF16
 339 00b9 03       		.byte	0x3
 340 00ba 24       		.byte	0x24
 341 00bb 61000000 		.4byte	0x61
 342 00bf 04       		.uleb128 0x4
ARM GAS  /var/folders/d2/nstgp4h54kz7g1l847x_b8wc0000gn/T//ccOi84Xu.s 			page 7


 343 00c0 BE060000 		.4byte	.LASF17
 344 00c4 03       		.byte	0x3
 345 00c5 2C       		.byte	0x2c
 346 00c6 73000000 		.4byte	0x73
 347 00ca 05       		.uleb128 0x5
 348 00cb BF000000 		.4byte	0xbf
 349 00cf 04       		.uleb128 0x4
 350 00d0 94070000 		.4byte	.LASF18
 351 00d4 03       		.byte	0x3
 352 00d5 30       		.byte	0x30
 353 00d6 85000000 		.4byte	0x85
 354 00da 04       		.uleb128 0x4
 355 00db D4000000 		.4byte	.LASF19
 356 00df 03       		.byte	0x3
 357 00e0 3C       		.byte	0x3c
 358 00e1 97000000 		.4byte	0x97
 359 00e5 04       		.uleb128 0x4
 360 00e6 A4050000 		.4byte	.LASF20
 361 00ea 04       		.byte	0x4
 362 00eb 45       		.byte	0x45
 363 00ec CF000000 		.4byte	0xcf
 364 00f0 04       		.uleb128 0x4
 365 00f1 B7010000 		.4byte	.LASF21
 366 00f5 04       		.byte	0x4
 367 00f6 46       		.byte	0x46
 368 00f7 DA000000 		.4byte	0xda
 369 00fb 04       		.uleb128 0x4
 370 00fc 0F070000 		.4byte	.LASF22
 371 0100 04       		.byte	0x4
 372 0101 48       		.byte	0x48
 373 0102 A9000000 		.4byte	0xa9
 374 0106 04       		.uleb128 0x4
 375 0107 7E020000 		.4byte	.LASF23
 376 010b 04       		.byte	0x4
 377 010c 49       		.byte	0x49
 378 010d A9000000 		.4byte	0xa9
 379 0111 04       		.uleb128 0x4
 380 0112 56060000 		.4byte	.LASF24
 381 0116 04       		.byte	0x4
 382 0117 4A       		.byte	0x4a
 383 0118 A9000000 		.4byte	0xa9
 384 011c 04       		.uleb128 0x4
 385 011d 49020000 		.4byte	.LASF25
 386 0121 04       		.byte	0x4
 387 0122 4B       		.byte	0x4b
 388 0123 A9000000 		.4byte	0xa9
 389 0127 04       		.uleb128 0x4
 390 0128 A7060000 		.4byte	.LASF26
 391 012c 04       		.byte	0x4
 392 012d 4C       		.byte	0x4c
 393 012e CF000000 		.4byte	0xcf
 394 0132 04       		.uleb128 0x4
 395 0133 02050000 		.4byte	.LASF27
 396 0137 04       		.byte	0x4
 397 0138 4D       		.byte	0x4d
 398 0139 BF000000 		.4byte	0xbf
 399 013d 04       		.uleb128 0x4
ARM GAS  /var/folders/d2/nstgp4h54kz7g1l847x_b8wc0000gn/T//ccOi84Xu.s 			page 8


 400 013e 4D050000 		.4byte	.LASF28
 401 0142 04       		.byte	0x4
 402 0143 4F       		.byte	0x4f
 403 0144 CF000000 		.4byte	0xcf
 404 0148 04       		.uleb128 0x4
 405 0149 18030000 		.4byte	.LASF29
 406 014d 04       		.byte	0x4
 407 014e 51       		.byte	0x51
 408 014f BF000000 		.4byte	0xbf
 409 0153 04       		.uleb128 0x4
 410 0154 0D050000 		.4byte	.LASF30
 411 0158 04       		.byte	0x4
 412 0159 52       		.byte	0x52
 413 015a CF000000 		.4byte	0xcf
 414 015e 04       		.uleb128 0x4
 415 015f 07080000 		.4byte	.LASF31
 416 0163 05       		.byte	0x5
 417 0164 33       		.byte	0x33
 418 0165 CF000000 		.4byte	0xcf
 419 0169 05       		.uleb128 0x5
 420 016a 5E010000 		.4byte	0x15e
 421 016e 04       		.uleb128 0x4
 422 016f F2070000 		.4byte	.LASF32
 423 0173 05       		.byte	0x5
 424 0174 3F       		.byte	0x3f
 425 0175 79010000 		.4byte	0x179
 426 0179 06       		.uleb128 0x6
 427 017a F8040000 		.4byte	.LASF56
 428 017e 68       		.byte	0x68
 429 017f 06       		.byte	0x6
 430 0180 C2       		.byte	0xc2
 431 0181 97020000 		.4byte	0x297
 432 0185 07       		.uleb128 0x7
 433 0186 08070000 		.4byte	.LASF33
 434 018a 06       		.byte	0x6
 435 018b C3       		.byte	0xc3
 436 018c A2020000 		.4byte	0x2a2
 437 0190 00       		.byte	0
 438 0191 07       		.uleb128 0x7
 439 0192 A0060000 		.4byte	.LASF34
 440 0196 06       		.byte	0x6
 441 0197 C5       		.byte	0xc5
 442 0198 A2020000 		.4byte	0x2a2
 443 019c 04       		.byte	0x4
 444 019d 07       		.uleb128 0x7
 445 019e C7010000 		.4byte	.LASF35
 446 01a2 06       		.byte	0x6
 447 01a3 C7       		.byte	0xc7
 448 01a4 27010000 		.4byte	0x127
 449 01a8 08       		.byte	0x8
 450 01a9 07       		.uleb128 0x7
 451 01aa 17060000 		.4byte	.LASF36
 452 01ae 06       		.byte	0x6
 453 01af C8       		.byte	0xc8
 454 01b0 1B050000 		.4byte	0x51b
 455 01b4 0C       		.byte	0xc
 456 01b5 07       		.uleb128 0x7
ARM GAS  /var/folders/d2/nstgp4h54kz7g1l847x_b8wc0000gn/T//ccOi84Xu.s 			page 9


 457 01b6 97020000 		.4byte	.LASF37
 458 01ba 06       		.byte	0x6
 459 01bb CA       		.byte	0xca
 460 01bc A2020000 		.4byte	0x2a2
 461 01c0 10       		.byte	0x10
 462 01c1 07       		.uleb128 0x7
 463 01c2 09060000 		.4byte	.LASF38
 464 01c6 06       		.byte	0x6
 465 01c7 CB       		.byte	0xcb
 466 01c8 A2020000 		.4byte	0x2a2
 467 01cc 14       		.byte	0x14
 468 01cd 07       		.uleb128 0x7
 469 01ce B5080000 		.4byte	.LASF39
 470 01d2 06       		.byte	0x6
 471 01d3 D2       		.byte	0xd2
 472 01d4 91080000 		.4byte	0x891
 473 01d8 18       		.byte	0x18
 474 01d9 07       		.uleb128 0x7
 475 01da 1E030000 		.4byte	.LASF40
 476 01de 06       		.byte	0x6
 477 01df D8       		.byte	0xd8
 478 01e0 A8080000 		.4byte	0x8a8
 479 01e4 1C       		.byte	0x1c
 480 01e5 07       		.uleb128 0x7
 481 01e6 E8060000 		.4byte	.LASF41
 482 01ea 06       		.byte	0x6
 483 01eb DD       		.byte	0xdd
 484 01ec 06010000 		.4byte	0x106
 485 01f0 20       		.byte	0x20
 486 01f1 07       		.uleb128 0x7
 487 01f2 26070000 		.4byte	.LASF42
 488 01f6 06       		.byte	0x6
 489 01f7 E1       		.byte	0xe1
 490 01f8 FB000000 		.4byte	0xfb
 491 01fc 21       		.byte	0x21
 492 01fd 07       		.uleb128 0x7
 493 01fe 75080000 		.4byte	.LASF43
 494 0202 06       		.byte	0x6
 495 0203 E6       		.byte	0xe6
 496 0204 11010000 		.4byte	0x111
 497 0208 22       		.byte	0x22
 498 0209 07       		.uleb128 0x7
 499 020a F0060000 		.4byte	.LASF44
 500 020e 06       		.byte	0x6
 501 020f EC       		.byte	0xec
 502 0210 1C010000 		.4byte	0x11c
 503 0214 23       		.byte	0x23
 504 0215 07       		.uleb128 0x7
 505 0216 93040000 		.4byte	.LASF45
 506 021a 06       		.byte	0x6
 507 021b F3       		.byte	0xf3
 508 021c 69010000 		.4byte	0x169
 509 0220 24       		.byte	0x24
 510 0221 08       		.uleb128 0x8
 511 0222 705F7500 		.ascii	"p_u\000"
 512 0226 06       		.byte	0x6
 513 0227 3101     		.2byte	0x131
ARM GAS  /var/folders/d2/nstgp4h54kz7g1l847x_b8wc0000gn/T//ccOi84Xu.s 			page 10


 514 0229 C0070000 		.4byte	0x7c0
 515 022d 28       		.byte	0x28
 516 022e 09       		.uleb128 0x9
 517 022f 93050000 		.4byte	.LASF46
 518 0233 06       		.byte	0x6
 519 0234 3601     		.2byte	0x136
 520 0236 A8020000 		.4byte	0x2a8
 521 023a 2C       		.byte	0x2c
 522 023b 09       		.uleb128 0x9
 523 023c AA040000 		.4byte	.LASF47
 524 0240 06       		.byte	0x6
 525 0241 3C01     		.2byte	0x13c
 526 0243 CC020000 		.4byte	0x2cc
 527 0247 30       		.byte	0x30
 528 0248 09       		.uleb128 0x9
 529 0249 49080000 		.4byte	.LASF48
 530 024d 06       		.byte	0x6
 531 024e 4001     		.2byte	0x140
 532 0250 32010000 		.4byte	0x132
 533 0254 38       		.byte	0x38
 534 0255 09       		.uleb128 0x9
 535 0256 82070000 		.4byte	.LASF49
 536 025a 06       		.byte	0x6
 537 025b 4601     		.2byte	0x146
 538 025d 3D010000 		.4byte	0x13d
 539 0261 3C       		.byte	0x3c
 540 0262 09       		.uleb128 0x9
 541 0263 D4060000 		.4byte	.LASF50
 542 0267 06       		.byte	0x6
 543 0268 4D01     		.2byte	0x14d
 544 026a 8B080000 		.4byte	0x88b
 545 026e 40       		.byte	0x40
 546 026f 09       		.uleb128 0x9
 547 0270 11080000 		.4byte	.LASF51
 548 0274 06       		.byte	0x6
 549 0275 5101     		.2byte	0x151
 550 0277 27010000 		.4byte	0x127
 551 027b 44       		.byte	0x44
 552 027c 09       		.uleb128 0x9
 553 027d 2D020000 		.4byte	.LASF52
 554 0281 06       		.byte	0x6
 555 0282 5801     		.2byte	0x158
 556 0284 7F030000 		.4byte	0x37f
 557 0288 48       		.byte	0x48
 558 0289 09       		.uleb128 0x9
 559 028a 2E070000 		.4byte	.LASF53
 560 028e 06       		.byte	0x6
 561 028f 5E01     		.2byte	0x15e
 562 0291 71070000 		.4byte	0x771
 563 0295 50       		.byte	0x50
 564 0296 00       		.byte	0
 565 0297 04       		.uleb128 0x4
 566 0298 9B080000 		.4byte	.LASF54
 567 029c 05       		.byte	0x5
 568 029d 44       		.byte	0x44
 569 029e A2020000 		.4byte	0x2a2
 570 02a2 0A       		.uleb128 0xa
ARM GAS  /var/folders/d2/nstgp4h54kz7g1l847x_b8wc0000gn/T//ccOi84Xu.s 			page 11


 571 02a3 04       		.byte	0x4
 572 02a4 6E010000 		.4byte	0x16e
 573 02a8 04       		.uleb128 0x4
 574 02a9 00000000 		.4byte	.LASF55
 575 02ad 05       		.byte	0x5
 576 02ae 49       		.byte	0x49
 577 02af B3020000 		.4byte	0x2b3
 578 02b3 06       		.uleb128 0x6
 579 02b4 B1070000 		.4byte	.LASF57
 580 02b8 04       		.byte	0x4
 581 02b9 06       		.byte	0x6
 582 02ba B0       		.byte	0xb0
 583 02bb CC020000 		.4byte	0x2cc
 584 02bf 07       		.uleb128 0x7
 585 02c0 08070000 		.4byte	.LASF33
 586 02c4 06       		.byte	0x6
 587 02c5 B1       		.byte	0xb1
 588 02c6 A2020000 		.4byte	0x2a2
 589 02ca 00       		.byte	0
 590 02cb 00       		.byte	0
 591 02cc 04       		.uleb128 0x4
 592 02cd 36070000 		.4byte	.LASF58
 593 02d1 05       		.byte	0x5
 594 02d2 50       		.byte	0x50
 595 02d3 D7020000 		.4byte	0x2d7
 596 02d7 06       		.uleb128 0x6
 597 02d8 00010000 		.4byte	.LASF59
 598 02dc 08       		.byte	0x8
 599 02dd 06       		.byte	0x6
 600 02de B7       		.byte	0xb7
 601 02df FC020000 		.4byte	0x2fc
 602 02e3 07       		.uleb128 0x7
 603 02e4 08070000 		.4byte	.LASF33
 604 02e8 06       		.byte	0x6
 605 02e9 B8       		.byte	0xb8
 606 02ea A2020000 		.4byte	0x2a2
 607 02ee 00       		.byte	0
 608 02ef 07       		.uleb128 0x7
 609 02f0 A0060000 		.4byte	.LASF34
 610 02f4 06       		.byte	0x6
 611 02f5 B9       		.byte	0xb9
 612 02f6 A2020000 		.4byte	0x2a2
 613 02fa 04       		.byte	0x4
 614 02fb 00       		.byte	0
 615 02fc 04       		.uleb128 0x4
 616 02fd 75000000 		.4byte	.LASF60
 617 0301 05       		.byte	0x5
 618 0302 57       		.byte	0x57
 619 0303 07030000 		.4byte	0x307
 620 0307 0B       		.uleb128 0xb
 621 0308 3F050000 		.4byte	.LASF61
 622 030c 1C       		.byte	0x1c
 623 030d 06       		.byte	0x6
 624 030e 9001     		.2byte	0x190
 625 0310 63030000 		.4byte	0x363
 626 0314 09       		.uleb128 0x9
 627 0315 A9070000 		.4byte	.LASF62
ARM GAS  /var/folders/d2/nstgp4h54kz7g1l847x_b8wc0000gn/T//ccOi84Xu.s 			page 12


 628 0319 06       		.byte	0x6
 629 031a 9101     		.2byte	0x191
 630 031c CC020000 		.4byte	0x2cc
 631 0320 00       		.byte	0
 632 0321 09       		.uleb128 0x9
 633 0322 FA060000 		.4byte	.LASF63
 634 0326 06       		.byte	0x6
 635 0327 9201     		.2byte	0x192
 636 0329 27010000 		.4byte	0x127
 637 032d 08       		.byte	0x8
 638 032e 09       		.uleb128 0x9
 639 032f 11060000 		.4byte	.LASF64
 640 0333 06       		.byte	0x6
 641 0334 9401     		.2byte	0x194
 642 0336 1B050000 		.4byte	0x51b
 643 033a 0C       		.byte	0xc
 644 033b 09       		.uleb128 0x9
 645 033c BB020000 		.4byte	.LASF65
 646 0340 06       		.byte	0x6
 647 0341 9701     		.2byte	0x197
 648 0343 A2020000 		.4byte	0x2a2
 649 0347 10       		.byte	0x10
 650 0348 09       		.uleb128 0x9
 651 0349 38060000 		.4byte	.LASF66
 652 034d 06       		.byte	0x6
 653 034e 9801     		.2byte	0x198
 654 0350 A2020000 		.4byte	0x2a2
 655 0354 14       		.byte	0x14
 656 0355 09       		.uleb128 0x9
 657 0356 2E060000 		.4byte	.LASF67
 658 035a 06       		.byte	0x6
 659 035b 9B01     		.2byte	0x19b
 660 035d A2020000 		.4byte	0x2a2
 661 0361 18       		.byte	0x18
 662 0362 00       		.byte	0
 663 0363 04       		.uleb128 0x4
 664 0364 1C080000 		.4byte	.LASF68
 665 0368 05       		.byte	0x5
 666 0369 5C       		.byte	0x5c
 667 036a 6E030000 		.4byte	0x36e
 668 036e 0A       		.uleb128 0xa
 669 036f 04       		.byte	0x4
 670 0370 74030000 		.4byte	0x374
 671 0374 0C       		.uleb128 0xc
 672 0375 7F030000 		.4byte	0x37f
 673 0379 0D       		.uleb128 0xd
 674 037a 7F030000 		.4byte	0x37f
 675 037e 00       		.byte	0
 676 037f 0E       		.uleb128 0xe
 677 0380 04       		.byte	0x4
 678 0381 04       		.uleb128 0x4
 679 0382 90060000 		.4byte	.LASF69
 680 0386 05       		.byte	0x5
 681 0387 61       		.byte	0x61
 682 0388 8C030000 		.4byte	0x38c
 683 038c 0B       		.uleb128 0xb
 684 038d 46070000 		.4byte	.LASF70
ARM GAS  /var/folders/d2/nstgp4h54kz7g1l847x_b8wc0000gn/T//ccOi84Xu.s 			page 13


 685 0391 14       		.byte	0x14
 686 0392 06       		.byte	0x6
 687 0393 6B01     		.2byte	0x16b
 688 0395 DB030000 		.4byte	0x3db
 689 0399 09       		.uleb128 0x9
 690 039a D4020000 		.4byte	.LASF71
 691 039e 06       		.byte	0x6
 692 039f 6C01     		.2byte	0x16c
 693 03a1 AE080000 		.4byte	0x8ae
 694 03a5 00       		.byte	0
 695 03a6 09       		.uleb128 0x9
 696 03a7 CC020000 		.4byte	.LASF72
 697 03ab 06       		.byte	0x6
 698 03ac 6D01     		.2byte	0x16d
 699 03ae AE080000 		.4byte	0x8ae
 700 03b2 04       		.byte	0x4
 701 03b3 09       		.uleb128 0x9
 702 03b4 A1040000 		.4byte	.LASF73
 703 03b8 06       		.byte	0x6
 704 03b9 6E01     		.2byte	0x16e
 705 03bb 5E010000 		.4byte	0x15e
 706 03bf 08       		.byte	0x8
 707 03c0 09       		.uleb128 0x9
 708 03c1 3F090000 		.4byte	.LASF74
 709 03c5 06       		.byte	0x6
 710 03c6 6F01     		.2byte	0x16f
 711 03c8 63030000 		.4byte	0x363
 712 03cc 0C       		.byte	0xc
 713 03cd 09       		.uleb128 0x9
 714 03ce 5A080000 		.4byte	.LASF75
 715 03d2 06       		.byte	0x6
 716 03d3 7101     		.2byte	0x171
 717 03d5 7F030000 		.4byte	0x37f
 718 03d9 10       		.byte	0x10
 719 03da 00       		.byte	0
 720 03db 04       		.uleb128 0x4
 721 03dc 94010000 		.4byte	.LASF76
 722 03e0 05       		.byte	0x5
 723 03e1 66       		.byte	0x66
 724 03e2 E6030000 		.4byte	0x3e6
 725 03e6 0B       		.uleb128 0xb
 726 03e7 AC050000 		.4byte	.LASF77
 727 03eb 10       		.byte	0x10
 728 03ec 06       		.byte	0x6
 729 03ed 7B01     		.2byte	0x17b
 730 03ef 28040000 		.4byte	0x428
 731 03f3 09       		.uleb128 0x9
 732 03f4 D4020000 		.4byte	.LASF71
 733 03f8 06       		.byte	0x6
 734 03f9 7C01     		.2byte	0x17c
 735 03fb AE080000 		.4byte	0x8ae
 736 03ff 00       		.byte	0
 737 0400 09       		.uleb128 0x9
 738 0401 CC020000 		.4byte	.LASF72
 739 0405 06       		.byte	0x6
 740 0406 7E01     		.2byte	0x17e
 741 0408 AE080000 		.4byte	0x8ae
ARM GAS  /var/folders/d2/nstgp4h54kz7g1l847x_b8wc0000gn/T//ccOi84Xu.s 			page 14


 742 040c 04       		.byte	0x4
 743 040d 09       		.uleb128 0x9
 744 040e A1040000 		.4byte	.LASF73
 745 0412 06       		.byte	0x6
 746 0413 8001     		.2byte	0x180
 747 0415 5E010000 		.4byte	0x15e
 748 0419 08       		.byte	0x8
 749 041a 09       		.uleb128 0x9
 750 041b D4080000 		.4byte	.LASF78
 751 041f 06       		.byte	0x6
 752 0420 8201     		.2byte	0x182
 753 0422 69010000 		.4byte	0x169
 754 0426 0C       		.byte	0xc
 755 0427 00       		.byte	0
 756 0428 04       		.uleb128 0x4
 757 0429 11010000 		.4byte	.LASF79
 758 042d 05       		.byte	0x5
 759 042e 6B       		.byte	0x6b
 760 042f 33040000 		.4byte	0x433
 761 0433 0F       		.uleb128 0xf
 762 0434 DC020000 		.4byte	.LASF80
 763 0438 1404     		.2byte	0x414
 764 043a 06       		.byte	0x6
 765 043b A201     		.2byte	0x1a2
 766 043d 76040000 		.4byte	0x476
 767 0441 09       		.uleb128 0x9
 768 0442 30080000 		.4byte	.LASF81
 769 0446 06       		.byte	0x6
 770 0447 AA01     		.2byte	0x1aa
 771 0449 97080000 		.4byte	0x897
 772 044d 00       		.byte	0
 773 044e 09       		.uleb128 0x9
 774 044f 7C080000 		.4byte	.LASF82
 775 0453 06       		.byte	0x6
 776 0454 AF01     		.2byte	0x1af
 777 0456 48010000 		.4byte	0x148
 778 045a 04       		.byte	0x4
 779 045b 09       		.uleb128 0x9
 780 045c 00030000 		.4byte	.LASF83
 781 0460 06       		.byte	0x6
 782 0461 B301     		.2byte	0x1b3
 783 0463 48010000 		.4byte	0x148
 784 0467 08       		.byte	0x8
 785 0468 09       		.uleb128 0x9
 786 0469 DF080000 		.4byte	.LASF84
 787 046d 06       		.byte	0x6
 788 046e B901     		.2byte	0x1b9
 789 0470 03070000 		.4byte	0x703
 790 0474 0C       		.byte	0xc
 791 0475 00       		.byte	0
 792 0476 04       		.uleb128 0x4
 793 0477 14050000 		.4byte	.LASF85
 794 047b 05       		.byte	0x5
 795 047c 70       		.byte	0x70
 796 047d 81040000 		.4byte	0x481
 797 0481 0F       		.uleb128 0xf
 798 0482 53020000 		.4byte	.LASF86
ARM GAS  /var/folders/d2/nstgp4h54kz7g1l847x_b8wc0000gn/T//ccOi84Xu.s 			page 15


 799 0486 7006     		.2byte	0x670
 800 0488 06       		.byte	0x6
 801 0489 C201     		.2byte	0x1c2
 802 048b EE040000 		.4byte	0x4ee
 803 048f 09       		.uleb128 0x9
 804 0490 8D080000 		.4byte	.LASF87
 805 0494 06       		.byte	0x6
 806 0495 C601     		.2byte	0x1c6
 807 0497 FC020000 		.4byte	0x2fc
 808 049b 00       		.byte	0
 809 049c 09       		.uleb128 0x9
 810 049d 3D020000 		.4byte	.LASF88
 811 04a1 06       		.byte	0x6
 812 04a2 CA01     		.2byte	0x1ca
 813 04a4 DB030000 		.4byte	0x3db
 814 04a8 1C       		.byte	0x1c
 815 04a9 08       		.uleb128 0x8
 816 04aa 64626700 		.ascii	"dbg\000"
 817 04ae 06       		.byte	0x6
 818 04af CE01     		.2byte	0x1ce
 819 04b1 28040000 		.4byte	0x428
 820 04b5 2C       		.byte	0x2c
 821 04b6 10       		.uleb128 0x10
 822 04b7 89010000 		.4byte	.LASF89
 823 04bb 06       		.byte	0x6
 824 04bc D201     		.2byte	0x1d2
 825 04be 6E010000 		.4byte	0x16e
 826 04c2 4004     		.2byte	0x440
 827 04c4 11       		.uleb128 0x11
 828 04c5 746D00   		.ascii	"tm\000"
 829 04c8 06       		.byte	0x6
 830 04c9 D701     		.2byte	0x1d7
 831 04cb 23070000 		.4byte	0x723
 832 04cf A804     		.2byte	0x4a8
 833 04d1 10       		.uleb128 0x10
 834 04d2 DD000000 		.4byte	.LASF90
 835 04d6 06       		.byte	0x6
 836 04d7 DD01     		.2byte	0x1dd
 837 04d9 B5070000 		.4byte	0x7b5
 838 04dd B004     		.2byte	0x4b0
 839 04df 10       		.uleb128 0x10
 840 04e0 09030000 		.4byte	.LASF91
 841 04e4 06       		.byte	0x6
 842 04e5 E301     		.2byte	0x1e3
 843 04e7 B4080000 		.4byte	0x8b4
 844 04eb E804     		.2byte	0x4e8
 845 04ed 00       		.byte	0
 846 04ee 12       		.uleb128 0x12
 847 04ef AA010000 		.4byte	.LASF92
 848 04f3 07       		.byte	0x7
 849 04f4 A706     		.2byte	0x6a7
 850 04f6 CA000000 		.4byte	0xca
 851 04fa 13       		.uleb128 0x13
 852 04fb 83040000 		.4byte	.LASF93
 853 04ff 08       		.byte	0x8
 854 0500 4C       		.byte	0x4c
 855 0501 CF000000 		.4byte	0xcf
ARM GAS  /var/folders/d2/nstgp4h54kz7g1l847x_b8wc0000gn/T//ccOi84Xu.s 			page 16


 856 0505 04       		.uleb128 0x4
 857 0506 C3020000 		.4byte	.LASF94
 858 050a 09       		.byte	0x9
 859 050b 65       		.byte	0x65
 860 050c 7F030000 		.4byte	0x37f
 861 0510 04       		.uleb128 0x4
 862 0511 63050000 		.4byte	.LASF95
 863 0515 09       		.byte	0x9
 864 0516 6D       		.byte	0x6d
 865 0517 DA000000 		.4byte	0xda
 866 051b 06       		.uleb128 0x6
 867 051c 41080000 		.4byte	.LASF96
 868 0520 04       		.byte	0x4
 869 0521 09       		.byte	0x9
 870 0522 89       		.byte	0x89
 871 0523 34050000 		.4byte	0x534
 872 0527 14       		.uleb128 0x14
 873 0528 72313300 		.ascii	"r13\000"
 874 052c 09       		.byte	0x9
 875 052d 8A       		.byte	0x8a
 876 052e 75060000 		.4byte	0x675
 877 0532 00       		.byte	0
 878 0533 00       		.byte	0
 879 0534 06       		.uleb128 0x6
 880 0535 F4000000 		.4byte	.LASF97
 881 0539 64       		.byte	0x64
 882 053a 0A       		.byte	0xa
 883 053b F4       		.byte	0xf4
 884 053c 75060000 		.4byte	0x675
 885 0540 14       		.uleb128 0x14
 886 0541 73313600 		.ascii	"s16\000"
 887 0545 0A       		.byte	0xa
 888 0546 F6       		.byte	0xf6
 889 0547 05050000 		.4byte	0x505
 890 054b 00       		.byte	0
 891 054c 14       		.uleb128 0x14
 892 054d 73313700 		.ascii	"s17\000"
 893 0551 0A       		.byte	0xa
 894 0552 F7       		.byte	0xf7
 895 0553 05050000 		.4byte	0x505
 896 0557 04       		.byte	0x4
 897 0558 14       		.uleb128 0x14
 898 0559 73313800 		.ascii	"s18\000"
 899 055d 0A       		.byte	0xa
 900 055e F8       		.byte	0xf8
 901 055f 05050000 		.4byte	0x505
 902 0563 08       		.byte	0x8
 903 0564 14       		.uleb128 0x14
 904 0565 73313900 		.ascii	"s19\000"
 905 0569 0A       		.byte	0xa
 906 056a F9       		.byte	0xf9
 907 056b 05050000 		.4byte	0x505
 908 056f 0C       		.byte	0xc
 909 0570 14       		.uleb128 0x14
 910 0571 73323000 		.ascii	"s20\000"
 911 0575 0A       		.byte	0xa
 912 0576 FA       		.byte	0xfa
ARM GAS  /var/folders/d2/nstgp4h54kz7g1l847x_b8wc0000gn/T//ccOi84Xu.s 			page 17


 913 0577 05050000 		.4byte	0x505
 914 057b 10       		.byte	0x10
 915 057c 14       		.uleb128 0x14
 916 057d 73323100 		.ascii	"s21\000"
 917 0581 0A       		.byte	0xa
 918 0582 FB       		.byte	0xfb
 919 0583 05050000 		.4byte	0x505
 920 0587 14       		.byte	0x14
 921 0588 14       		.uleb128 0x14
 922 0589 73323200 		.ascii	"s22\000"
 923 058d 0A       		.byte	0xa
 924 058e FC       		.byte	0xfc
 925 058f 05050000 		.4byte	0x505
 926 0593 18       		.byte	0x18
 927 0594 14       		.uleb128 0x14
 928 0595 73323300 		.ascii	"s23\000"
 929 0599 0A       		.byte	0xa
 930 059a FD       		.byte	0xfd
 931 059b 05050000 		.4byte	0x505
 932 059f 1C       		.byte	0x1c
 933 05a0 14       		.uleb128 0x14
 934 05a1 73323400 		.ascii	"s24\000"
 935 05a5 0A       		.byte	0xa
 936 05a6 FE       		.byte	0xfe
 937 05a7 05050000 		.4byte	0x505
 938 05ab 20       		.byte	0x20
 939 05ac 14       		.uleb128 0x14
 940 05ad 73323500 		.ascii	"s25\000"
 941 05b1 0A       		.byte	0xa
 942 05b2 FF       		.byte	0xff
 943 05b3 05050000 		.4byte	0x505
 944 05b7 24       		.byte	0x24
 945 05b8 08       		.uleb128 0x8
 946 05b9 73323600 		.ascii	"s26\000"
 947 05bd 0A       		.byte	0xa
 948 05be 0001     		.2byte	0x100
 949 05c0 05050000 		.4byte	0x505
 950 05c4 28       		.byte	0x28
 951 05c5 08       		.uleb128 0x8
 952 05c6 73323700 		.ascii	"s27\000"
 953 05ca 0A       		.byte	0xa
 954 05cb 0101     		.2byte	0x101
 955 05cd 05050000 		.4byte	0x505
 956 05d1 2C       		.byte	0x2c
 957 05d2 08       		.uleb128 0x8
 958 05d3 73323800 		.ascii	"s28\000"
 959 05d7 0A       		.byte	0xa
 960 05d8 0201     		.2byte	0x102
 961 05da 05050000 		.4byte	0x505
 962 05de 30       		.byte	0x30
 963 05df 08       		.uleb128 0x8
 964 05e0 73323900 		.ascii	"s29\000"
 965 05e4 0A       		.byte	0xa
 966 05e5 0301     		.2byte	0x103
 967 05e7 05050000 		.4byte	0x505
 968 05eb 34       		.byte	0x34
 969 05ec 08       		.uleb128 0x8
ARM GAS  /var/folders/d2/nstgp4h54kz7g1l847x_b8wc0000gn/T//ccOi84Xu.s 			page 18


 970 05ed 73333000 		.ascii	"s30\000"
 971 05f1 0A       		.byte	0xa
 972 05f2 0401     		.2byte	0x104
 973 05f4 05050000 		.4byte	0x505
 974 05f8 38       		.byte	0x38
 975 05f9 08       		.uleb128 0x8
 976 05fa 73333100 		.ascii	"s31\000"
 977 05fe 0A       		.byte	0xa
 978 05ff 0501     		.2byte	0x105
 979 0601 05050000 		.4byte	0x505
 980 0605 3C       		.byte	0x3c
 981 0606 08       		.uleb128 0x8
 982 0607 723400   		.ascii	"r4\000"
 983 060a 0A       		.byte	0xa
 984 060b 0701     		.2byte	0x107
 985 060d 05050000 		.4byte	0x505
 986 0611 40       		.byte	0x40
 987 0612 08       		.uleb128 0x8
 988 0613 723500   		.ascii	"r5\000"
 989 0616 0A       		.byte	0xa
 990 0617 0801     		.2byte	0x108
 991 0619 05050000 		.4byte	0x505
 992 061d 44       		.byte	0x44
 993 061e 08       		.uleb128 0x8
 994 061f 723600   		.ascii	"r6\000"
 995 0622 0A       		.byte	0xa
 996 0623 0901     		.2byte	0x109
 997 0625 05050000 		.4byte	0x505
 998 0629 48       		.byte	0x48
 999 062a 08       		.uleb128 0x8
 1000 062b 723700   		.ascii	"r7\000"
 1001 062e 0A       		.byte	0xa
 1002 062f 0A01     		.2byte	0x10a
 1003 0631 05050000 		.4byte	0x505
 1004 0635 4C       		.byte	0x4c
 1005 0636 08       		.uleb128 0x8
 1006 0637 723800   		.ascii	"r8\000"
 1007 063a 0A       		.byte	0xa
 1008 063b 0B01     		.2byte	0x10b
 1009 063d 05050000 		.4byte	0x505
 1010 0641 50       		.byte	0x50
 1011 0642 08       		.uleb128 0x8
 1012 0643 723900   		.ascii	"r9\000"
 1013 0646 0A       		.byte	0xa
 1014 0647 0C01     		.2byte	0x10c
 1015 0649 05050000 		.4byte	0x505
 1016 064d 54       		.byte	0x54
 1017 064e 08       		.uleb128 0x8
 1018 064f 72313000 		.ascii	"r10\000"
 1019 0653 0A       		.byte	0xa
 1020 0654 0D01     		.2byte	0x10d
 1021 0656 05050000 		.4byte	0x505
 1022 065a 58       		.byte	0x58
 1023 065b 08       		.uleb128 0x8
 1024 065c 72313100 		.ascii	"r11\000"
 1025 0660 0A       		.byte	0xa
 1026 0661 0E01     		.2byte	0x10e
ARM GAS  /var/folders/d2/nstgp4h54kz7g1l847x_b8wc0000gn/T//ccOi84Xu.s 			page 19


 1027 0663 05050000 		.4byte	0x505
 1028 0667 5C       		.byte	0x5c
 1029 0668 08       		.uleb128 0x8
 1030 0669 6C7200   		.ascii	"lr\000"
 1031 066c 0A       		.byte	0xa
 1032 066d 0F01     		.2byte	0x10f
 1033 066f 05050000 		.4byte	0x505
 1034 0673 60       		.byte	0x60
 1035 0674 00       		.byte	0
 1036 0675 0A       		.uleb128 0xa
 1037 0676 04       		.byte	0x4
 1038 0677 34050000 		.4byte	0x534
 1039 067b 15       		.uleb128 0x15
 1040 067c 10       		.byte	0x10
 1041 067d 0B       		.byte	0xb
 1042 067e 51       		.byte	0x51
 1043 067f B4060000 		.4byte	0x6b4
 1044 0683 07       		.uleb128 0x7
 1045 0684 82000000 		.4byte	.LASF98
 1046 0688 0B       		.byte	0xb
 1047 0689 55       		.byte	0x55
 1048 068a 5E010000 		.4byte	0x15e
 1049 068e 00       		.byte	0
 1050 068f 07       		.uleb128 0x7
 1051 0690 87020000 		.4byte	.LASF99
 1052 0694 0B       		.byte	0xb
 1053 0695 59       		.byte	0x59
 1054 0696 A2020000 		.4byte	0x2a2
 1055 069a 04       		.byte	0x4
 1056 069b 07       		.uleb128 0x7
 1057 069c 27090000 		.4byte	.LASF100
 1058 06a0 0B       		.byte	0xb
 1059 06a1 5D       		.byte	0x5d
 1060 06a2 7F030000 		.4byte	0x37f
 1061 06a6 08       		.byte	0x8
 1062 06a7 07       		.uleb128 0x7
 1063 06a8 84080000 		.4byte	.LASF101
 1064 06ac 0B       		.byte	0xb
 1065 06ad 61       		.byte	0x61
 1066 06ae A9000000 		.4byte	0xa9
 1067 06b2 0C       		.byte	0xc
 1068 06b3 00       		.byte	0
 1069 06b4 04       		.uleb128 0x4
 1070 06b5 E4050000 		.4byte	.LASF102
 1071 06b9 0B       		.byte	0xb
 1072 06ba 62       		.byte	0x62
 1073 06bb 7B060000 		.4byte	0x67b
 1074 06bf 16       		.uleb128 0x16
 1075 06c0 0804     		.2byte	0x408
 1076 06c2 0B       		.byte	0xb
 1077 06c3 67       		.byte	0x67
 1078 06c4 ED060000 		.4byte	0x6ed
 1079 06c8 07       		.uleb128 0x7
 1080 06c9 B3020000 		.4byte	.LASF103
 1081 06cd 0B       		.byte	0xb
 1082 06ce 6B       		.byte	0x6b
 1083 06cf 2C000000 		.4byte	0x2c
ARM GAS  /var/folders/d2/nstgp4h54kz7g1l847x_b8wc0000gn/T//ccOi84Xu.s 			page 20


 1084 06d3 00       		.byte	0
 1085 06d4 07       		.uleb128 0x7
 1086 06d5 DD050000 		.4byte	.LASF104
 1087 06d9 0B       		.byte	0xb
 1088 06da 6F       		.byte	0x6f
 1089 06db ED060000 		.4byte	0x6ed
 1090 06df 04       		.byte	0x4
 1091 06e0 07       		.uleb128 0x7
 1092 06e1 5E060000 		.4byte	.LASF105
 1093 06e5 0B       		.byte	0xb
 1094 06e6 73       		.byte	0x73
 1095 06e7 F3060000 		.4byte	0x6f3
 1096 06eb 08       		.byte	0x8
 1097 06ec 00       		.byte	0
 1098 06ed 0A       		.uleb128 0xa
 1099 06ee 04       		.byte	0x4
 1100 06ef B4060000 		.4byte	0x6b4
 1101 06f3 17       		.uleb128 0x17
 1102 06f4 B4060000 		.4byte	0x6b4
 1103 06f8 03070000 		.4byte	0x703
 1104 06fc 18       		.uleb128 0x18
 1105 06fd 2C000000 		.4byte	0x2c
 1106 0701 3F       		.byte	0x3f
 1107 0702 00       		.byte	0
 1108 0703 04       		.uleb128 0x4
 1109 0704 50010000 		.4byte	.LASF106
 1110 0708 0B       		.byte	0xb
 1111 0709 74       		.byte	0x74
 1112 070a BF060000 		.4byte	0x6bf
 1113 070e 15       		.uleb128 0x15
 1114 070f 04       		.byte	0x4
 1115 0710 0C       		.byte	0xc
 1116 0711 38       		.byte	0x38
 1117 0712 23070000 		.4byte	0x723
 1118 0716 07       		.uleb128 0x7
 1119 0717 3A080000 		.4byte	.LASF107
 1120 071b 0C       		.byte	0xc
 1121 071c 3C       		.byte	0x3c
 1122 071d E5000000 		.4byte	0xe5
 1123 0721 00       		.byte	0
 1124 0722 00       		.byte	0
 1125 0723 04       		.uleb128 0x4
 1126 0724 1D060000 		.4byte	.LASF108
 1127 0728 0C       		.byte	0xc
 1128 0729 3D       		.byte	0x3d
 1129 072a 0E070000 		.4byte	0x70e
 1130 072e 15       		.uleb128 0x15
 1131 072f 18       		.byte	0x18
 1132 0730 0C       		.byte	0xc
 1133 0731 48       		.byte	0x48
 1134 0732 71070000 		.4byte	0x771
 1135 0736 07       		.uleb128 0x7
 1136 0737 FB070000 		.4byte	.LASF109
 1137 073b 0C       		.byte	0xc
 1138 073c 49       		.byte	0x49
 1139 073d E5000000 		.4byte	0xe5
 1140 0741 00       		.byte	0
ARM GAS  /var/folders/d2/nstgp4h54kz7g1l847x_b8wc0000gn/T//ccOi84Xu.s 			page 21


 1141 0742 07       		.uleb128 0x7
 1142 0743 20010000 		.4byte	.LASF110
 1143 0747 0C       		.byte	0xc
 1144 0748 4A       		.byte	0x4a
 1145 0749 E5000000 		.4byte	0xe5
 1146 074d 04       		.byte	0x4
 1147 074e 07       		.uleb128 0x7
 1148 074f 08050000 		.4byte	.LASF111
 1149 0753 0C       		.byte	0xc
 1150 0754 4B       		.byte	0x4b
 1151 0755 E5000000 		.4byte	0xe5
 1152 0759 08       		.byte	0x8
 1153 075a 14       		.uleb128 0x14
 1154 075b 6E00     		.ascii	"n\000"
 1155 075d 0C       		.byte	0xc
 1156 075e 4C       		.byte	0x4c
 1157 075f 53010000 		.4byte	0x153
 1158 0763 0C       		.byte	0xc
 1159 0764 07       		.uleb128 0x7
 1160 0765 4B060000 		.4byte	.LASF112
 1161 0769 0C       		.byte	0xc
 1162 076a 4D       		.byte	0x4d
 1163 076b F0000000 		.4byte	0xf0
 1164 076f 10       		.byte	0x10
 1165 0770 00       		.byte	0
 1166 0771 04       		.uleb128 0x4
 1167 0772 26010000 		.4byte	.LASF113
 1168 0776 0C       		.byte	0xc
 1169 0777 4E       		.byte	0x4e
 1170 0778 2E070000 		.4byte	0x72e
 1171 077c 15       		.uleb128 0x15
 1172 077d 38       		.byte	0x38
 1173 077e 0D       		.byte	0xd
 1174 077f 38       		.byte	0x38
 1175 0780 B5070000 		.4byte	0x7b5
 1176 0784 07       		.uleb128 0x7
 1177 0785 CA040000 		.4byte	.LASF114
 1178 0789 0D       		.byte	0xd
 1179 078a 39       		.byte	0x39
 1180 078b 53010000 		.4byte	0x153
 1181 078f 00       		.byte	0
 1182 0790 07       		.uleb128 0x7
 1183 0791 AF060000 		.4byte	.LASF115
 1184 0795 0D       		.byte	0xd
 1185 0796 3A       		.byte	0x3a
 1186 0797 53010000 		.4byte	0x153
 1187 079b 04       		.byte	0x4
 1188 079c 07       		.uleb128 0x7
 1189 079d 14090000 		.4byte	.LASF116
 1190 07a1 0D       		.byte	0xd
 1191 07a2 3B       		.byte	0x3b
 1192 07a3 71070000 		.4byte	0x771
 1193 07a7 08       		.byte	0x8
 1194 07a8 07       		.uleb128 0x7
 1195 07a9 34050000 		.4byte	.LASF117
 1196 07ad 0D       		.byte	0xd
 1197 07ae 3D       		.byte	0x3d
ARM GAS  /var/folders/d2/nstgp4h54kz7g1l847x_b8wc0000gn/T//ccOi84Xu.s 			page 22


 1198 07af 71070000 		.4byte	0x771
 1199 07b3 20       		.byte	0x20
 1200 07b4 00       		.byte	0
 1201 07b5 04       		.uleb128 0x4
 1202 07b6 E9040000 		.4byte	.LASF118
 1203 07ba 0D       		.byte	0xd
 1204 07bb 3F       		.byte	0x3f
 1205 07bc 7C070000 		.4byte	0x77c
 1206 07c0 19       		.uleb128 0x19
 1207 07c1 04       		.byte	0x4
 1208 07c2 06       		.byte	0x6
 1209 07c3 FA       		.byte	0xfa
 1210 07c4 1D080000 		.4byte	0x81d
 1211 07c8 1A       		.uleb128 0x1a
 1212 07c9 CD000000 		.4byte	.LASF119
 1213 07cd 06       		.byte	0x6
 1214 07ce 0101     		.2byte	0x101
 1215 07d0 32010000 		.4byte	0x132
 1216 07d4 1A       		.uleb128 0x1a
 1217 07d5 80010000 		.4byte	.LASF120
 1218 07d9 06       		.byte	0x6
 1219 07da 0801     		.2byte	0x108
 1220 07dc 32010000 		.4byte	0x132
 1221 07e0 1A       		.uleb128 0x1a
 1222 07e1 AE080000 		.4byte	.LASF121
 1223 07e5 06       		.byte	0x6
 1224 07e6 0F01     		.2byte	0x10f
 1225 07e8 7F030000 		.4byte	0x37f
 1226 07ec 1A       		.uleb128 0x1a
 1227 07ed 8A000000 		.4byte	.LASF122
 1228 07f1 06       		.byte	0x6
 1229 07f2 1601     		.2byte	0x116
 1230 07f4 1D080000 		.4byte	0x81d
 1231 07f8 1A       		.uleb128 0x1a
 1232 07f9 9A040000 		.4byte	.LASF123
 1233 07fd 06       		.byte	0x6
 1234 07fe 1E01     		.2byte	0x11e
 1235 0800 48080000 		.4byte	0x848
 1236 0804 1A       		.uleb128 0x1a
 1237 0805 E0070000 		.4byte	.LASF124
 1238 0809 06       		.byte	0x6
 1239 080a 2701     		.2byte	0x127
 1240 080c 8B080000 		.4byte	0x88b
 1241 0810 1A       		.uleb128 0x1a
 1242 0811 01070000 		.4byte	.LASF125
 1243 0815 06       		.byte	0x6
 1244 0816 2F01     		.2byte	0x12f
 1245 0818 3D010000 		.4byte	0x13d
 1246 081c 00       		.byte	0
 1247 081d 0A       		.uleb128 0xa
 1248 081e 04       		.byte	0x4
 1249 081f 97020000 		.4byte	0x297
 1250 0823 06       		.uleb128 0x6
 1251 0824 75070000 		.4byte	.LASF126
 1252 0828 0C       		.byte	0xc
 1253 0829 0E       		.byte	0xe
 1254 082a 34       		.byte	0x34
ARM GAS  /var/folders/d2/nstgp4h54kz7g1l847x_b8wc0000gn/T//ccOi84Xu.s 			page 23


 1255 082b 48080000 		.4byte	0x848
 1256 082f 07       		.uleb128 0x7
 1257 0830 9F020000 		.4byte	.LASF127
 1258 0834 0E       		.byte	0xe
 1259 0835 35       		.byte	0x35
 1260 0836 CC020000 		.4byte	0x2cc
 1261 083a 00       		.byte	0
 1262 083b 07       		.uleb128 0x7
 1263 083c D0040000 		.4byte	.LASF128
 1264 0840 0E       		.byte	0xe
 1265 0841 37       		.byte	0x37
 1266 0842 48010000 		.4byte	0x148
 1267 0846 08       		.byte	0x8
 1268 0847 00       		.byte	0
 1269 0848 0A       		.uleb128 0xa
 1270 0849 04       		.byte	0x4
 1271 084a 23080000 		.4byte	0x823
 1272 084e 06       		.uleb128 0x6
 1273 084f 6C080000 		.4byte	.LASF129
 1274 0853 14       		.byte	0x14
 1275 0854 0F       		.byte	0xf
 1276 0855 39       		.byte	0x39
 1277 0856 8B080000 		.4byte	0x88b
 1278 085a 07       		.uleb128 0x7
 1279 085b 35020000 		.4byte	.LASF130
 1280 085f 0F       		.byte	0xf
 1281 0860 3A       		.byte	0x3a
 1282 0861 CC020000 		.4byte	0x2cc
 1283 0865 00       		.byte	0
 1284 0866 07       		.uleb128 0x7
 1285 0867 1F090000 		.4byte	.LASF131
 1286 086b 0F       		.byte	0xf
 1287 086c 3C       		.byte	0x3c
 1288 086d A2020000 		.4byte	0x2a2
 1289 0871 08       		.byte	0x8
 1290 0872 07       		.uleb128 0x7
 1291 0873 00080000 		.4byte	.LASF132
 1292 0877 0F       		.byte	0xf
 1293 0878 3E       		.byte	0x3e
 1294 0879 E6090000 		.4byte	0x9e6
 1295 087d 0C       		.byte	0xc
 1296 087e 07       		.uleb128 0x7
 1297 087f EC020000 		.4byte	.LASF133
 1298 0883 0F       		.byte	0xf
 1299 0884 41       		.byte	0x41
 1300 0885 48010000 		.4byte	0x148
 1301 0889 10       		.byte	0x10
 1302 088a 00       		.byte	0
 1303 088b 0A       		.uleb128 0xa
 1304 088c 04       		.byte	0x4
 1305 088d 4E080000 		.4byte	0x84e
 1306 0891 0A       		.uleb128 0xa
 1307 0892 04       		.byte	0x4
 1308 0893 A3080000 		.4byte	0x8a3
 1309 0897 05       		.uleb128 0x5
 1310 0898 91080000 		.4byte	0x891
 1311 089c 03       		.uleb128 0x3
ARM GAS  /var/folders/d2/nstgp4h54kz7g1l847x_b8wc0000gn/T//ccOi84Xu.s 			page 24


 1312 089d 01       		.byte	0x1
 1313 089e 08       		.byte	0x8
 1314 089f DB070000 		.4byte	.LASF134
 1315 08a3 1B       		.uleb128 0x1b
 1316 08a4 9C080000 		.4byte	0x89c
 1317 08a8 0A       		.uleb128 0xa
 1318 08a9 04       		.byte	0x4
 1319 08aa 10050000 		.4byte	0x510
 1320 08ae 0A       		.uleb128 0xa
 1321 08af 04       		.byte	0x4
 1322 08b0 81030000 		.4byte	0x381
 1323 08b4 17       		.uleb128 0x17
 1324 08b5 10050000 		.4byte	0x510
 1325 08b9 C4080000 		.4byte	0x8c4
 1326 08bd 18       		.uleb128 0x18
 1327 08be 2C000000 		.4byte	0x2c
 1328 08c2 30       		.byte	0x30
 1329 08c3 00       		.byte	0
 1330 08c4 1C       		.uleb128 0x1c
 1331 08c5 636800   		.ascii	"ch\000"
 1332 08c8 06       		.byte	0x6
 1333 08c9 0902     		.2byte	0x209
 1334 08cb 76040000 		.4byte	0x476
 1335 08cf 15       		.uleb128 0x15
 1336 08d0 16       		.byte	0x16
 1337 08d1 10       		.byte	0x10
 1338 08d2 34       		.byte	0x34
 1339 08d3 B0090000 		.4byte	0x9b0
 1340 08d7 07       		.uleb128 0x7
 1341 08d8 31090000 		.4byte	.LASF135
 1342 08dc 10       		.byte	0x10
 1343 08dd 35       		.byte	0x35
 1344 08de B0090000 		.4byte	0x9b0
 1345 08e2 00       		.byte	0
 1346 08e3 07       		.uleb128 0x7
 1347 08e4 7F050000 		.4byte	.LASF136
 1348 08e8 10       		.byte	0x10
 1349 08e9 36       		.byte	0x36
 1350 08ea A9000000 		.4byte	0xa9
 1351 08ee 04       		.byte	0x4
 1352 08ef 07       		.uleb128 0x7
 1353 08f0 C1070000 		.4byte	.LASF137
 1354 08f4 10       		.byte	0x10
 1355 08f5 37       		.byte	0x37
 1356 08f6 A9000000 		.4byte	0xa9
 1357 08fa 05       		.byte	0x5
 1358 08fb 07       		.uleb128 0x7
 1359 08fc EC080000 		.4byte	.LASF138
 1360 0900 10       		.byte	0x10
 1361 0901 38       		.byte	0x38
 1362 0902 B4000000 		.4byte	0xb4
 1363 0906 06       		.byte	0x6
 1364 0907 07       		.uleb128 0x7
 1365 0908 68060000 		.4byte	.LASF139
 1366 090c 10       		.byte	0x10
 1367 090d 39       		.byte	0x39
 1368 090e A9000000 		.4byte	0xa9
ARM GAS  /var/folders/d2/nstgp4h54kz7g1l847x_b8wc0000gn/T//ccOi84Xu.s 			page 25


 1369 0912 08       		.byte	0x8
 1370 0913 07       		.uleb128 0x7
 1371 0914 BE040000 		.4byte	.LASF140
 1372 0918 10       		.byte	0x10
 1373 0919 3A       		.byte	0x3a
 1374 091a A9000000 		.4byte	0xa9
 1375 091e 09       		.byte	0x9
 1376 091f 07       		.uleb128 0x7
 1377 0920 72010000 		.4byte	.LASF141
 1378 0924 10       		.byte	0x10
 1379 0925 3B       		.byte	0x3b
 1380 0926 A9000000 		.4byte	0xa9
 1381 092a 0A       		.byte	0xa
 1382 092b 07       		.uleb128 0x7
 1383 092c 9D070000 		.4byte	.LASF142
 1384 0930 10       		.byte	0x10
 1385 0931 3C       		.byte	0x3c
 1386 0932 A9000000 		.4byte	0xa9
 1387 0936 0B       		.byte	0xb
 1388 0937 07       		.uleb128 0x7
 1389 0938 61080000 		.4byte	.LASF143
 1390 093c 10       		.byte	0x10
 1391 093d 3D       		.byte	0x3d
 1392 093e A9000000 		.4byte	0xa9
 1393 0942 0C       		.byte	0xc
 1394 0943 07       		.uleb128 0x7
 1395 0944 57070000 		.4byte	.LASF144
 1396 0948 10       		.byte	0x10
 1397 0949 3E       		.byte	0x3e
 1398 094a A9000000 		.4byte	0xa9
 1399 094e 0D       		.byte	0xd
 1400 094f 07       		.uleb128 0x7
 1401 0950 0F000000 		.4byte	.LASF145
 1402 0954 10       		.byte	0x10
 1403 0955 3F       		.byte	0x3f
 1404 0956 A9000000 		.4byte	0xa9
 1405 095a 0E       		.byte	0xe
 1406 095b 07       		.uleb128 0x7
 1407 095c F3050000 		.4byte	.LASF146
 1408 0960 10       		.byte	0x10
 1409 0961 40       		.byte	0x40
 1410 0962 A9000000 		.4byte	0xa9
 1411 0966 0F       		.byte	0xf
 1412 0967 07       		.uleb128 0x7
 1413 0968 10020000 		.4byte	.LASF147
 1414 096c 10       		.byte	0x10
 1415 096d 41       		.byte	0x41
 1416 096e A9000000 		.4byte	0xa9
 1417 0972 10       		.byte	0x10
 1418 0973 07       		.uleb128 0x7
 1419 0974 CE010000 		.4byte	.LASF148
 1420 0978 10       		.byte	0x10
 1421 0979 43       		.byte	0x43
 1422 097a A9000000 		.4byte	0xa9
 1423 097e 11       		.byte	0x11
 1424 097f 07       		.uleb128 0x7
 1425 0980 20020000 		.4byte	.LASF149
ARM GAS  /var/folders/d2/nstgp4h54kz7g1l847x_b8wc0000gn/T//ccOi84Xu.s 			page 26


 1426 0984 10       		.byte	0x10
 1427 0985 44       		.byte	0x44
 1428 0986 A9000000 		.4byte	0xa9
 1429 098a 12       		.byte	0x12
 1430 098b 07       		.uleb128 0x7
 1431 098c 87050000 		.4byte	.LASF150
 1432 0990 10       		.byte	0x10
 1433 0991 45       		.byte	0x45
 1434 0992 A9000000 		.4byte	0xa9
 1435 0996 13       		.byte	0x13
 1436 0997 07       		.uleb128 0x7
 1437 0998 17070000 		.4byte	.LASF151
 1438 099c 10       		.byte	0x10
 1439 099d 46       		.byte	0x46
 1440 099e A9000000 		.4byte	0xa9
 1441 09a2 14       		.byte	0x14
 1442 09a3 07       		.uleb128 0x7
 1443 09a4 28050000 		.4byte	.LASF152
 1444 09a8 10       		.byte	0x10
 1445 09a9 48       		.byte	0x48
 1446 09aa A9000000 		.4byte	0xa9
 1447 09ae 15       		.byte	0x15
 1448 09af 00       		.byte	0
 1449 09b0 17       		.uleb128 0x17
 1450 09b1 9C080000 		.4byte	0x89c
 1451 09b5 C0090000 		.4byte	0x9c0
 1452 09b9 18       		.uleb128 0x18
 1453 09ba 2C000000 		.4byte	0x2c
 1454 09be 03       		.byte	0x3
 1455 09bf 00       		.byte	0
 1456 09c0 04       		.uleb128 0x4
 1457 09c1 8D020000 		.4byte	.LASF153
 1458 09c5 10       		.byte	0x10
 1459 09c6 49       		.byte	0x49
 1460 09c7 CF080000 		.4byte	0x8cf
 1461 09cb 1B       		.uleb128 0x1b
 1462 09cc C0090000 		.4byte	0x9c0
 1463 09d0 13       		.uleb128 0x13
 1464 09d1 B5040000 		.4byte	.LASF154
 1465 09d5 10       		.byte	0x10
 1466 09d6 6E       		.byte	0x6e
 1467 09d7 CB090000 		.4byte	0x9cb
 1468 09db 04       		.uleb128 0x4
 1469 09dc DB010000 		.4byte	.LASF155
 1470 09e0 0F       		.byte	0xf
 1471 09e1 34       		.byte	0x34
 1472 09e2 4E080000 		.4byte	0x84e
 1473 09e6 0A       		.uleb128 0xa
 1474 09e7 04       		.byte	0x4
 1475 09e8 DB090000 		.4byte	0x9db
 1476 09ec 06       		.uleb128 0x6
 1477 09ed C3050000 		.4byte	.LASF156
 1478 09f1 08       		.byte	0x8
 1479 09f2 11       		.byte	0x11
 1480 09f3 3B       		.byte	0x3b
 1481 09f4 050A0000 		.4byte	0xa05
 1482 09f8 07       		.uleb128 0x7
ARM GAS  /var/folders/d2/nstgp4h54kz7g1l847x_b8wc0000gn/T//ccOi84Xu.s 			page 27


 1483 09f9 77050000 		.4byte	.LASF157
 1484 09fd 11       		.byte	0x11
 1485 09fe 3C       		.byte	0x3c
 1486 09ff CC020000 		.4byte	0x2cc
 1487 0a03 00       		.byte	0
 1488 0a04 00       		.byte	0
 1489 0a05 04       		.uleb128 0x4
 1490 0a06 FB010000 		.4byte	.LASF158
 1491 0a0a 11       		.byte	0x11
 1492 0a0b 3E       		.byte	0x3e
 1493 0a0c EC090000 		.4byte	0x9ec
 1494 0a10 0A       		.uleb128 0xa
 1495 0a11 04       		.byte	0x4
 1496 0a12 9C080000 		.4byte	0x89c
 1497 0a16 13       		.uleb128 0x13
 1498 0a17 20050000 		.4byte	.LASF159
 1499 0a1b 12       		.byte	0x12
 1500 0a1c 10       		.byte	0x10
 1501 0a1d 210A0000 		.4byte	0xa21
 1502 0a21 0A       		.uleb128 0xa
 1503 0a22 04       		.byte	0x4
 1504 0a23 100A0000 		.4byte	0xa10
 1505 0a27 13       		.uleb128 0x13
 1506 0a28 9D050000 		.4byte	.LASF160
 1507 0a2c 12       		.byte	0x12
 1508 0a2d E8       		.byte	0xe8
 1509 0a2e 100A0000 		.4byte	0xa10
 1510 0a32 13       		.uleb128 0x13
 1511 0a33 D6050000 		.4byte	.LASF161
 1512 0a37 12       		.byte	0x12
 1513 0a38 E9       		.byte	0xe9
 1514 0a39 25000000 		.4byte	0x25
 1515 0a3d 13       		.uleb128 0x13
 1516 0a3e C0010000 		.4byte	.LASF162
 1517 0a42 12       		.byte	0x12
 1518 0a43 E9       		.byte	0xe9
 1519 0a44 25000000 		.4byte	0x25
 1520 0a48 13       		.uleb128 0x13
 1521 0a49 8D070000 		.4byte	.LASF163
 1522 0a4d 12       		.byte	0x12
 1523 0a4e E9       		.byte	0xe9
 1524 0a4f 25000000 		.4byte	0x25
 1525 0a53 13       		.uleb128 0x13
 1526 0a54 6E050000 		.4byte	.LASF164
 1527 0a58 12       		.byte	0x12
 1528 0a59 EB       		.byte	0xeb
 1529 0a5a 25000000 		.4byte	0x25
 1530 0a5e 03       		.uleb128 0x3
 1531 0a5f 01       		.byte	0x1
 1532 0a60 02       		.byte	0x2
 1533 0a61 B8060000 		.4byte	.LASF165
 1534 0a65 1D       		.uleb128 0x1d
 1535 0a66 66020000 		.4byte	.LASF166
 1536 0a6a 01       		.byte	0x1
 1537 0a6b 16       		.byte	0x16
 1538 0a6c 00000000 		.4byte	.LFB222
 1539 0a70 24000000 		.4byte	.LFE222-.LFB222
ARM GAS  /var/folders/d2/nstgp4h54kz7g1l847x_b8wc0000gn/T//ccOi84Xu.s 			page 28


 1540 0a74 01       		.uleb128 0x1
 1541 0a75 9C       		.byte	0x9c
 1542 0a76 B50A0000 		.4byte	0xab5
 1543 0a7a 1E       		.uleb128 0x1e
 1544 0a7b 7000     		.ascii	"p\000"
 1545 0a7d 01       		.byte	0x1
 1546 0a7e 16       		.byte	0x16
 1547 0a7f 7F030000 		.4byte	0x37f
 1548 0a83 00000000 		.4byte	.LLST6
 1549 0a87 1F       		.uleb128 0x1f
 1550 0a88 44020000 		.4byte	.LASF168
 1551 0a8c 01       		.byte	0x1
 1552 0a8d 18       		.byte	0x18
 1553 0a8e B50A0000 		.4byte	0xab5
 1554 0a92 3A000000 		.4byte	.LLST7
 1555 0a96 20       		.uleb128 0x20
 1556 0a97 1C000000 		.4byte	.LVL14
 1557 0a9b AB0B0000 		.4byte	0xbab
 1558 0a9f AB0A0000 		.4byte	0xaab
 1559 0aa3 21       		.uleb128 0x21
 1560 0aa4 01       		.uleb128 0x1
 1561 0aa5 50       		.byte	0x50
 1562 0aa6 03       		.uleb128 0x3
 1563 0aa7 F3       		.byte	0xf3
 1564 0aa8 01       		.uleb128 0x1
 1565 0aa9 50       		.byte	0x50
 1566 0aaa 00       		.byte	0
 1567 0aab 22       		.uleb128 0x22
 1568 0aac 20000000 		.4byte	.LVL15
 1569 0ab0 B60B0000 		.4byte	0xbb6
 1570 0ab4 00       		.byte	0
 1571 0ab5 0A       		.uleb128 0xa
 1572 0ab6 04       		.byte	0x4
 1573 0ab7 050A0000 		.4byte	0xa05
 1574 0abb 1D       		.uleb128 0x1d
 1575 0abc 73060000 		.4byte	.LASF167
 1576 0ac0 01       		.byte	0x1
 1577 0ac1 10       		.byte	0x10
 1578 0ac2 00000000 		.4byte	.LFB221
 1579 0ac6 24000000 		.4byte	.LFE221-.LFB221
 1580 0aca 01       		.uleb128 0x1
 1581 0acb 9C       		.byte	0x9c
 1582 0acc 0B0B0000 		.4byte	0xb0b
 1583 0ad0 1E       		.uleb128 0x1e
 1584 0ad1 7000     		.ascii	"p\000"
 1585 0ad3 01       		.byte	0x1
 1586 0ad4 10       		.byte	0x10
 1587 0ad5 7F030000 		.4byte	0x37f
 1588 0ad9 74000000 		.4byte	.LLST4
 1589 0add 1F       		.uleb128 0x1f
 1590 0ade 44020000 		.4byte	.LASF168
 1591 0ae2 01       		.byte	0x1
 1592 0ae3 12       		.byte	0x12
 1593 0ae4 B50A0000 		.4byte	0xab5
 1594 0ae8 AE000000 		.4byte	.LLST5
 1595 0aec 20       		.uleb128 0x20
 1596 0aed 1C000000 		.4byte	.LVL10
ARM GAS  /var/folders/d2/nstgp4h54kz7g1l847x_b8wc0000gn/T//ccOi84Xu.s 			page 29


 1597 0af1 BF0B0000 		.4byte	0xbbf
 1598 0af5 010B0000 		.4byte	0xb01
 1599 0af9 21       		.uleb128 0x21
 1600 0afa 01       		.uleb128 0x1
 1601 0afb 50       		.byte	0x50
 1602 0afc 03       		.uleb128 0x3
 1603 0afd F3       		.byte	0xf3
 1604 0afe 01       		.uleb128 0x1
 1605 0aff 50       		.byte	0x50
 1606 0b00 00       		.byte	0
 1607 0b01 22       		.uleb128 0x22
 1608 0b02 20000000 		.4byte	.LVL11
 1609 0b06 B60B0000 		.4byte	0xbb6
 1610 0b0a 00       		.byte	0
 1611 0b0b 1D       		.uleb128 0x1d
 1612 0b0c BC080000 		.4byte	.LASF169
 1613 0b10 01       		.byte	0x1
 1614 0b11 0A       		.byte	0xa
 1615 0b12 00000000 		.4byte	.LFB220
 1616 0b16 24000000 		.4byte	.LFE220-.LFB220
 1617 0b1a 01       		.uleb128 0x1
 1618 0b1b 9C       		.byte	0x9c
 1619 0b1c 5B0B0000 		.4byte	0xb5b
 1620 0b20 1E       		.uleb128 0x1e
 1621 0b21 7000     		.ascii	"p\000"
 1622 0b23 01       		.byte	0x1
 1623 0b24 0A       		.byte	0xa
 1624 0b25 7F030000 		.4byte	0x37f
 1625 0b29 E8000000 		.4byte	.LLST2
 1626 0b2d 1F       		.uleb128 0x1f
 1627 0b2e 0F090000 		.4byte	.LASF170
 1628 0b32 01       		.byte	0x1
 1629 0b33 0C       		.byte	0xc
 1630 0b34 E6090000 		.4byte	0x9e6
 1631 0b38 22010000 		.4byte	.LLST3
 1632 0b3c 20       		.uleb128 0x20
 1633 0b3d 1C000000 		.4byte	.LVL6
 1634 0b41 CA0B0000 		.4byte	0xbca
 1635 0b45 510B0000 		.4byte	0xb51
 1636 0b49 21       		.uleb128 0x21
 1637 0b4a 01       		.uleb128 0x1
 1638 0b4b 50       		.byte	0x50
 1639 0b4c 03       		.uleb128 0x3
 1640 0b4d F3       		.byte	0xf3
 1641 0b4e 01       		.uleb128 0x1
 1642 0b4f 50       		.byte	0x50
 1643 0b50 00       		.byte	0
 1644 0b51 22       		.uleb128 0x22
 1645 0b52 20000000 		.4byte	.LVL7
 1646 0b56 B60B0000 		.4byte	0xbb6
 1647 0b5a 00       		.byte	0
 1648 0b5b 1D       		.uleb128 0x1d
 1649 0b5c F7080000 		.4byte	.LASF171
 1650 0b60 01       		.byte	0x1
 1651 0b61 04       		.byte	0x4
 1652 0b62 00000000 		.4byte	.LFB219
 1653 0b66 24000000 		.4byte	.LFE219-.LFB219
ARM GAS  /var/folders/d2/nstgp4h54kz7g1l847x_b8wc0000gn/T//ccOi84Xu.s 			page 30


 1654 0b6a 01       		.uleb128 0x1
 1655 0b6b 9C       		.byte	0x9c
 1656 0b6c AB0B0000 		.4byte	0xbab
 1657 0b70 1E       		.uleb128 0x1e
 1658 0b71 7000     		.ascii	"p\000"
 1659 0b73 01       		.byte	0x1
 1660 0b74 04       		.byte	0x4
 1661 0b75 7F030000 		.4byte	0x37f
 1662 0b79 5C010000 		.4byte	.LLST0
 1663 0b7d 1F       		.uleb128 0x1f
 1664 0b7e 0F090000 		.4byte	.LASF170
 1665 0b82 01       		.byte	0x1
 1666 0b83 06       		.byte	0x6
 1667 0b84 E6090000 		.4byte	0x9e6
 1668 0b88 96010000 		.4byte	.LLST1
 1669 0b8c 20       		.uleb128 0x20
 1670 0b8d 1C000000 		.4byte	.LVL2
 1671 0b91 D50B0000 		.4byte	0xbd5
 1672 0b95 A10B0000 		.4byte	0xba1
 1673 0b99 21       		.uleb128 0x21
 1674 0b9a 01       		.uleb128 0x1
 1675 0b9b 50       		.byte	0x50
 1676 0b9c 03       		.uleb128 0x3
 1677 0b9d F3       		.byte	0xf3
 1678 0b9e 01       		.uleb128 0x1
 1679 0b9f 50       		.byte	0x50
 1680 0ba0 00       		.byte	0
 1681 0ba1 22       		.uleb128 0x22
 1682 0ba2 20000000 		.4byte	.LVL3
 1683 0ba6 B60B0000 		.4byte	0xbb6
 1684 0baa 00       		.byte	0
 1685 0bab 23       		.uleb128 0x23
 1686 0bac 4F080000 		.4byte	.LASF172
 1687 0bb0 4F080000 		.4byte	.LASF172
 1688 0bb4 11       		.byte	0x11
 1689 0bb5 62       		.byte	0x62
 1690 0bb6 24       		.uleb128 0x24
 1691 0bb7 64070000 		.4byte	.LASF179
 1692 0bbb 64070000 		.4byte	.LASF179
 1693 0bbf 23       		.uleb128 0x23
 1694 0bc0 62010000 		.4byte	.LASF173
 1695 0bc4 62010000 		.4byte	.LASF173
 1696 0bc8 11       		.byte	0x11
 1697 0bc9 60       		.byte	0x60
 1698 0bca 23       		.uleb128 0x23
 1699 0bcb E3010000 		.4byte	.LASF174
 1700 0bcf E3010000 		.4byte	.LASF174
 1701 0bd3 0F       		.byte	0xf
 1702 0bd4 6C       		.byte	0x6c
 1703 0bd5 23       		.uleb128 0x23
 1704 0bd6 FF050000 		.4byte	.LASF175
 1705 0bda FF050000 		.4byte	.LASF175
 1706 0bde 0F       		.byte	0xf
 1707 0bdf 68       		.byte	0x68
 1708 0be0 00       		.byte	0
 1709              		.section	.debug_abbrev,"",%progbits
 1710              	.Ldebug_abbrev0:
ARM GAS  /var/folders/d2/nstgp4h54kz7g1l847x_b8wc0000gn/T//ccOi84Xu.s 			page 31


 1711 0000 01       		.uleb128 0x1
 1712 0001 11       		.uleb128 0x11
 1713 0002 01       		.byte	0x1
 1714 0003 25       		.uleb128 0x25
 1715 0004 0E       		.uleb128 0xe
 1716 0005 13       		.uleb128 0x13
 1717 0006 0B       		.uleb128 0xb
 1718 0007 03       		.uleb128 0x3
 1719 0008 0E       		.uleb128 0xe
 1720 0009 1B       		.uleb128 0x1b
 1721 000a 0E       		.uleb128 0xe
 1722 000b 55       		.uleb128 0x55
 1723 000c 17       		.uleb128 0x17
 1724 000d 11       		.uleb128 0x11
 1725 000e 01       		.uleb128 0x1
 1726 000f 10       		.uleb128 0x10
 1727 0010 17       		.uleb128 0x17
 1728 0011 00       		.byte	0
 1729 0012 00       		.byte	0
 1730 0013 02       		.uleb128 0x2
 1731 0014 24       		.uleb128 0x24
 1732 0015 00       		.byte	0
 1733 0016 0B       		.uleb128 0xb
 1734 0017 0B       		.uleb128 0xb
 1735 0018 3E       		.uleb128 0x3e
 1736 0019 0B       		.uleb128 0xb
 1737 001a 03       		.uleb128 0x3
 1738 001b 08       		.uleb128 0x8
 1739 001c 00       		.byte	0
 1740 001d 00       		.byte	0
 1741 001e 03       		.uleb128 0x3
 1742 001f 24       		.uleb128 0x24
 1743 0020 00       		.byte	0
 1744 0021 0B       		.uleb128 0xb
 1745 0022 0B       		.uleb128 0xb
 1746 0023 3E       		.uleb128 0x3e
 1747 0024 0B       		.uleb128 0xb
 1748 0025 03       		.uleb128 0x3
 1749 0026 0E       		.uleb128 0xe
 1750 0027 00       		.byte	0
 1751 0028 00       		.byte	0
 1752 0029 04       		.uleb128 0x4
 1753 002a 16       		.uleb128 0x16
 1754 002b 00       		.byte	0
 1755 002c 03       		.uleb128 0x3
 1756 002d 0E       		.uleb128 0xe
 1757 002e 3A       		.uleb128 0x3a
 1758 002f 0B       		.uleb128 0xb
 1759 0030 3B       		.uleb128 0x3b
 1760 0031 0B       		.uleb128 0xb
 1761 0032 49       		.uleb128 0x49
 1762 0033 13       		.uleb128 0x13
 1763 0034 00       		.byte	0
 1764 0035 00       		.byte	0
 1765 0036 05       		.uleb128 0x5
 1766 0037 35       		.uleb128 0x35
 1767 0038 00       		.byte	0
ARM GAS  /var/folders/d2/nstgp4h54kz7g1l847x_b8wc0000gn/T//ccOi84Xu.s 			page 32


 1768 0039 49       		.uleb128 0x49
 1769 003a 13       		.uleb128 0x13
 1770 003b 00       		.byte	0
 1771 003c 00       		.byte	0
 1772 003d 06       		.uleb128 0x6
 1773 003e 13       		.uleb128 0x13
 1774 003f 01       		.byte	0x1
 1775 0040 03       		.uleb128 0x3
 1776 0041 0E       		.uleb128 0xe
 1777 0042 0B       		.uleb128 0xb
 1778 0043 0B       		.uleb128 0xb
 1779 0044 3A       		.uleb128 0x3a
 1780 0045 0B       		.uleb128 0xb
 1781 0046 3B       		.uleb128 0x3b
 1782 0047 0B       		.uleb128 0xb
 1783 0048 01       		.uleb128 0x1
 1784 0049 13       		.uleb128 0x13
 1785 004a 00       		.byte	0
 1786 004b 00       		.byte	0
 1787 004c 07       		.uleb128 0x7
 1788 004d 0D       		.uleb128 0xd
 1789 004e 00       		.byte	0
 1790 004f 03       		.uleb128 0x3
 1791 0050 0E       		.uleb128 0xe
 1792 0051 3A       		.uleb128 0x3a
 1793 0052 0B       		.uleb128 0xb
 1794 0053 3B       		.uleb128 0x3b
 1795 0054 0B       		.uleb128 0xb
 1796 0055 49       		.uleb128 0x49
 1797 0056 13       		.uleb128 0x13
 1798 0057 38       		.uleb128 0x38
 1799 0058 0B       		.uleb128 0xb
 1800 0059 00       		.byte	0
 1801 005a 00       		.byte	0
 1802 005b 08       		.uleb128 0x8
 1803 005c 0D       		.uleb128 0xd
 1804 005d 00       		.byte	0
 1805 005e 03       		.uleb128 0x3
 1806 005f 08       		.uleb128 0x8
 1807 0060 3A       		.uleb128 0x3a
 1808 0061 0B       		.uleb128 0xb
 1809 0062 3B       		.uleb128 0x3b
 1810 0063 05       		.uleb128 0x5
 1811 0064 49       		.uleb128 0x49
 1812 0065 13       		.uleb128 0x13
 1813 0066 38       		.uleb128 0x38
 1814 0067 0B       		.uleb128 0xb
 1815 0068 00       		.byte	0
 1816 0069 00       		.byte	0
 1817 006a 09       		.uleb128 0x9
 1818 006b 0D       		.uleb128 0xd
 1819 006c 00       		.byte	0
 1820 006d 03       		.uleb128 0x3
 1821 006e 0E       		.uleb128 0xe
 1822 006f 3A       		.uleb128 0x3a
 1823 0070 0B       		.uleb128 0xb
 1824 0071 3B       		.uleb128 0x3b
ARM GAS  /var/folders/d2/nstgp4h54kz7g1l847x_b8wc0000gn/T//ccOi84Xu.s 			page 33


 1825 0072 05       		.uleb128 0x5
 1826 0073 49       		.uleb128 0x49
 1827 0074 13       		.uleb128 0x13
 1828 0075 38       		.uleb128 0x38
 1829 0076 0B       		.uleb128 0xb
 1830 0077 00       		.byte	0
 1831 0078 00       		.byte	0
 1832 0079 0A       		.uleb128 0xa
 1833 007a 0F       		.uleb128 0xf
 1834 007b 00       		.byte	0
 1835 007c 0B       		.uleb128 0xb
 1836 007d 0B       		.uleb128 0xb
 1837 007e 49       		.uleb128 0x49
 1838 007f 13       		.uleb128 0x13
 1839 0080 00       		.byte	0
 1840 0081 00       		.byte	0
 1841 0082 0B       		.uleb128 0xb
 1842 0083 13       		.uleb128 0x13
 1843 0084 01       		.byte	0x1
 1844 0085 03       		.uleb128 0x3
 1845 0086 0E       		.uleb128 0xe
 1846 0087 0B       		.uleb128 0xb
 1847 0088 0B       		.uleb128 0xb
 1848 0089 3A       		.uleb128 0x3a
 1849 008a 0B       		.uleb128 0xb
 1850 008b 3B       		.uleb128 0x3b
 1851 008c 05       		.uleb128 0x5
 1852 008d 01       		.uleb128 0x1
 1853 008e 13       		.uleb128 0x13
 1854 008f 00       		.byte	0
 1855 0090 00       		.byte	0
 1856 0091 0C       		.uleb128 0xc
 1857 0092 15       		.uleb128 0x15
 1858 0093 01       		.byte	0x1
 1859 0094 27       		.uleb128 0x27
 1860 0095 19       		.uleb128 0x19
 1861 0096 01       		.uleb128 0x1
 1862 0097 13       		.uleb128 0x13
 1863 0098 00       		.byte	0
 1864 0099 00       		.byte	0
 1865 009a 0D       		.uleb128 0xd
 1866 009b 05       		.uleb128 0x5
 1867 009c 00       		.byte	0
 1868 009d 49       		.uleb128 0x49
 1869 009e 13       		.uleb128 0x13
 1870 009f 00       		.byte	0
 1871 00a0 00       		.byte	0
 1872 00a1 0E       		.uleb128 0xe
 1873 00a2 0F       		.uleb128 0xf
 1874 00a3 00       		.byte	0
 1875 00a4 0B       		.uleb128 0xb
 1876 00a5 0B       		.uleb128 0xb
 1877 00a6 00       		.byte	0
 1878 00a7 00       		.byte	0
 1879 00a8 0F       		.uleb128 0xf
 1880 00a9 13       		.uleb128 0x13
 1881 00aa 01       		.byte	0x1
ARM GAS  /var/folders/d2/nstgp4h54kz7g1l847x_b8wc0000gn/T//ccOi84Xu.s 			page 34


 1882 00ab 03       		.uleb128 0x3
 1883 00ac 0E       		.uleb128 0xe
 1884 00ad 0B       		.uleb128 0xb
 1885 00ae 05       		.uleb128 0x5
 1886 00af 3A       		.uleb128 0x3a
 1887 00b0 0B       		.uleb128 0xb
 1888 00b1 3B       		.uleb128 0x3b
 1889 00b2 05       		.uleb128 0x5
 1890 00b3 01       		.uleb128 0x1
 1891 00b4 13       		.uleb128 0x13
 1892 00b5 00       		.byte	0
 1893 00b6 00       		.byte	0
 1894 00b7 10       		.uleb128 0x10
 1895 00b8 0D       		.uleb128 0xd
 1896 00b9 00       		.byte	0
 1897 00ba 03       		.uleb128 0x3
 1898 00bb 0E       		.uleb128 0xe
 1899 00bc 3A       		.uleb128 0x3a
 1900 00bd 0B       		.uleb128 0xb
 1901 00be 3B       		.uleb128 0x3b
 1902 00bf 05       		.uleb128 0x5
 1903 00c0 49       		.uleb128 0x49
 1904 00c1 13       		.uleb128 0x13
 1905 00c2 38       		.uleb128 0x38
 1906 00c3 05       		.uleb128 0x5
 1907 00c4 00       		.byte	0
 1908 00c5 00       		.byte	0
 1909 00c6 11       		.uleb128 0x11
 1910 00c7 0D       		.uleb128 0xd
 1911 00c8 00       		.byte	0
 1912 00c9 03       		.uleb128 0x3
 1913 00ca 08       		.uleb128 0x8
 1914 00cb 3A       		.uleb128 0x3a
 1915 00cc 0B       		.uleb128 0xb
 1916 00cd 3B       		.uleb128 0x3b
 1917 00ce 05       		.uleb128 0x5
 1918 00cf 49       		.uleb128 0x49
 1919 00d0 13       		.uleb128 0x13
 1920 00d1 38       		.uleb128 0x38
 1921 00d2 05       		.uleb128 0x5
 1922 00d3 00       		.byte	0
 1923 00d4 00       		.byte	0
 1924 00d5 12       		.uleb128 0x12
 1925 00d6 34       		.uleb128 0x34
 1926 00d7 00       		.byte	0
 1927 00d8 03       		.uleb128 0x3
 1928 00d9 0E       		.uleb128 0xe
 1929 00da 3A       		.uleb128 0x3a
 1930 00db 0B       		.uleb128 0xb
 1931 00dc 3B       		.uleb128 0x3b
 1932 00dd 05       		.uleb128 0x5
 1933 00de 49       		.uleb128 0x49
 1934 00df 13       		.uleb128 0x13
 1935 00e0 3F       		.uleb128 0x3f
 1936 00e1 19       		.uleb128 0x19
 1937 00e2 3C       		.uleb128 0x3c
 1938 00e3 19       		.uleb128 0x19
ARM GAS  /var/folders/d2/nstgp4h54kz7g1l847x_b8wc0000gn/T//ccOi84Xu.s 			page 35


 1939 00e4 00       		.byte	0
 1940 00e5 00       		.byte	0
 1941 00e6 13       		.uleb128 0x13
 1942 00e7 34       		.uleb128 0x34
 1943 00e8 00       		.byte	0
 1944 00e9 03       		.uleb128 0x3
 1945 00ea 0E       		.uleb128 0xe
 1946 00eb 3A       		.uleb128 0x3a
 1947 00ec 0B       		.uleb128 0xb
 1948 00ed 3B       		.uleb128 0x3b
 1949 00ee 0B       		.uleb128 0xb
 1950 00ef 49       		.uleb128 0x49
 1951 00f0 13       		.uleb128 0x13
 1952 00f1 3F       		.uleb128 0x3f
 1953 00f2 19       		.uleb128 0x19
 1954 00f3 3C       		.uleb128 0x3c
 1955 00f4 19       		.uleb128 0x19
 1956 00f5 00       		.byte	0
 1957 00f6 00       		.byte	0
 1958 00f7 14       		.uleb128 0x14
 1959 00f8 0D       		.uleb128 0xd
 1960 00f9 00       		.byte	0
 1961 00fa 03       		.uleb128 0x3
 1962 00fb 08       		.uleb128 0x8
 1963 00fc 3A       		.uleb128 0x3a
 1964 00fd 0B       		.uleb128 0xb
 1965 00fe 3B       		.uleb128 0x3b
 1966 00ff 0B       		.uleb128 0xb
 1967 0100 49       		.uleb128 0x49
 1968 0101 13       		.uleb128 0x13
 1969 0102 38       		.uleb128 0x38
 1970 0103 0B       		.uleb128 0xb
 1971 0104 00       		.byte	0
 1972 0105 00       		.byte	0
 1973 0106 15       		.uleb128 0x15
 1974 0107 13       		.uleb128 0x13
 1975 0108 01       		.byte	0x1
 1976 0109 0B       		.uleb128 0xb
 1977 010a 0B       		.uleb128 0xb
 1978 010b 3A       		.uleb128 0x3a
 1979 010c 0B       		.uleb128 0xb
 1980 010d 3B       		.uleb128 0x3b
 1981 010e 0B       		.uleb128 0xb
 1982 010f 01       		.uleb128 0x1
 1983 0110 13       		.uleb128 0x13
 1984 0111 00       		.byte	0
 1985 0112 00       		.byte	0
 1986 0113 16       		.uleb128 0x16
 1987 0114 13       		.uleb128 0x13
 1988 0115 01       		.byte	0x1
 1989 0116 0B       		.uleb128 0xb
 1990 0117 05       		.uleb128 0x5
 1991 0118 3A       		.uleb128 0x3a
 1992 0119 0B       		.uleb128 0xb
 1993 011a 3B       		.uleb128 0x3b
 1994 011b 0B       		.uleb128 0xb
 1995 011c 01       		.uleb128 0x1
ARM GAS  /var/folders/d2/nstgp4h54kz7g1l847x_b8wc0000gn/T//ccOi84Xu.s 			page 36


 1996 011d 13       		.uleb128 0x13
 1997 011e 00       		.byte	0
 1998 011f 00       		.byte	0
 1999 0120 17       		.uleb128 0x17
 2000 0121 01       		.uleb128 0x1
 2001 0122 01       		.byte	0x1
 2002 0123 49       		.uleb128 0x49
 2003 0124 13       		.uleb128 0x13
 2004 0125 01       		.uleb128 0x1
 2005 0126 13       		.uleb128 0x13
 2006 0127 00       		.byte	0
 2007 0128 00       		.byte	0
 2008 0129 18       		.uleb128 0x18
 2009 012a 21       		.uleb128 0x21
 2010 012b 00       		.byte	0
 2011 012c 49       		.uleb128 0x49
 2012 012d 13       		.uleb128 0x13
 2013 012e 2F       		.uleb128 0x2f
 2014 012f 0B       		.uleb128 0xb
 2015 0130 00       		.byte	0
 2016 0131 00       		.byte	0
 2017 0132 19       		.uleb128 0x19
 2018 0133 17       		.uleb128 0x17
 2019 0134 01       		.byte	0x1
 2020 0135 0B       		.uleb128 0xb
 2021 0136 0B       		.uleb128 0xb
 2022 0137 3A       		.uleb128 0x3a
 2023 0138 0B       		.uleb128 0xb
 2024 0139 3B       		.uleb128 0x3b
 2025 013a 0B       		.uleb128 0xb
 2026 013b 01       		.uleb128 0x1
 2027 013c 13       		.uleb128 0x13
 2028 013d 00       		.byte	0
 2029 013e 00       		.byte	0
 2030 013f 1A       		.uleb128 0x1a
 2031 0140 0D       		.uleb128 0xd
 2032 0141 00       		.byte	0
 2033 0142 03       		.uleb128 0x3
 2034 0143 0E       		.uleb128 0xe
 2035 0144 3A       		.uleb128 0x3a
 2036 0145 0B       		.uleb128 0xb
 2037 0146 3B       		.uleb128 0x3b
 2038 0147 05       		.uleb128 0x5
 2039 0148 49       		.uleb128 0x49
 2040 0149 13       		.uleb128 0x13
 2041 014a 00       		.byte	0
 2042 014b 00       		.byte	0
 2043 014c 1B       		.uleb128 0x1b
 2044 014d 26       		.uleb128 0x26
 2045 014e 00       		.byte	0
 2046 014f 49       		.uleb128 0x49
 2047 0150 13       		.uleb128 0x13
 2048 0151 00       		.byte	0
 2049 0152 00       		.byte	0
 2050 0153 1C       		.uleb128 0x1c
 2051 0154 34       		.uleb128 0x34
 2052 0155 00       		.byte	0
ARM GAS  /var/folders/d2/nstgp4h54kz7g1l847x_b8wc0000gn/T//ccOi84Xu.s 			page 37


 2053 0156 03       		.uleb128 0x3
 2054 0157 08       		.uleb128 0x8
 2055 0158 3A       		.uleb128 0x3a
 2056 0159 0B       		.uleb128 0xb
 2057 015a 3B       		.uleb128 0x3b
 2058 015b 05       		.uleb128 0x5
 2059 015c 49       		.uleb128 0x49
 2060 015d 13       		.uleb128 0x13
 2061 015e 3F       		.uleb128 0x3f
 2062 015f 19       		.uleb128 0x19
 2063 0160 3C       		.uleb128 0x3c
 2064 0161 19       		.uleb128 0x19
 2065 0162 00       		.byte	0
 2066 0163 00       		.byte	0
 2067 0164 1D       		.uleb128 0x1d
 2068 0165 2E       		.uleb128 0x2e
 2069 0166 01       		.byte	0x1
 2070 0167 3F       		.uleb128 0x3f
 2071 0168 19       		.uleb128 0x19
 2072 0169 03       		.uleb128 0x3
 2073 016a 0E       		.uleb128 0xe
 2074 016b 3A       		.uleb128 0x3a
 2075 016c 0B       		.uleb128 0xb
 2076 016d 3B       		.uleb128 0x3b
 2077 016e 0B       		.uleb128 0xb
 2078 016f 27       		.uleb128 0x27
 2079 0170 19       		.uleb128 0x19
 2080 0171 11       		.uleb128 0x11
 2081 0172 01       		.uleb128 0x1
 2082 0173 12       		.uleb128 0x12
 2083 0174 06       		.uleb128 0x6
 2084 0175 40       		.uleb128 0x40
 2085 0176 18       		.uleb128 0x18
 2086 0177 9742     		.uleb128 0x2117
 2087 0179 19       		.uleb128 0x19
 2088 017a 01       		.uleb128 0x1
 2089 017b 13       		.uleb128 0x13
 2090 017c 00       		.byte	0
 2091 017d 00       		.byte	0
 2092 017e 1E       		.uleb128 0x1e
 2093 017f 05       		.uleb128 0x5
 2094 0180 00       		.byte	0
 2095 0181 03       		.uleb128 0x3
 2096 0182 08       		.uleb128 0x8
 2097 0183 3A       		.uleb128 0x3a
 2098 0184 0B       		.uleb128 0xb
 2099 0185 3B       		.uleb128 0x3b
 2100 0186 0B       		.uleb128 0xb
 2101 0187 49       		.uleb128 0x49
 2102 0188 13       		.uleb128 0x13
 2103 0189 02       		.uleb128 0x2
 2104 018a 17       		.uleb128 0x17
 2105 018b 00       		.byte	0
 2106 018c 00       		.byte	0
 2107 018d 1F       		.uleb128 0x1f
 2108 018e 34       		.uleb128 0x34
 2109 018f 00       		.byte	0
ARM GAS  /var/folders/d2/nstgp4h54kz7g1l847x_b8wc0000gn/T//ccOi84Xu.s 			page 38


 2110 0190 03       		.uleb128 0x3
 2111 0191 0E       		.uleb128 0xe
 2112 0192 3A       		.uleb128 0x3a
 2113 0193 0B       		.uleb128 0xb
 2114 0194 3B       		.uleb128 0x3b
 2115 0195 0B       		.uleb128 0xb
 2116 0196 49       		.uleb128 0x49
 2117 0197 13       		.uleb128 0x13
 2118 0198 02       		.uleb128 0x2
 2119 0199 17       		.uleb128 0x17
 2120 019a 00       		.byte	0
 2121 019b 00       		.byte	0
 2122 019c 20       		.uleb128 0x20
 2123 019d 898201   		.uleb128 0x4109
 2124 01a0 01       		.byte	0x1
 2125 01a1 11       		.uleb128 0x11
 2126 01a2 01       		.uleb128 0x1
 2127 01a3 9542     		.uleb128 0x2115
 2128 01a5 19       		.uleb128 0x19
 2129 01a6 31       		.uleb128 0x31
 2130 01a7 13       		.uleb128 0x13
 2131 01a8 01       		.uleb128 0x1
 2132 01a9 13       		.uleb128 0x13
 2133 01aa 00       		.byte	0
 2134 01ab 00       		.byte	0
 2135 01ac 21       		.uleb128 0x21
 2136 01ad 8A8201   		.uleb128 0x410a
 2137 01b0 00       		.byte	0
 2138 01b1 02       		.uleb128 0x2
 2139 01b2 18       		.uleb128 0x18
 2140 01b3 9142     		.uleb128 0x2111
 2141 01b5 18       		.uleb128 0x18
 2142 01b6 00       		.byte	0
 2143 01b7 00       		.byte	0
 2144 01b8 22       		.uleb128 0x22
 2145 01b9 898201   		.uleb128 0x4109
 2146 01bc 00       		.byte	0
 2147 01bd 11       		.uleb128 0x11
 2148 01be 01       		.uleb128 0x1
 2149 01bf 31       		.uleb128 0x31
 2150 01c0 13       		.uleb128 0x13
 2151 01c1 00       		.byte	0
 2152 01c2 00       		.byte	0
 2153 01c3 23       		.uleb128 0x23
 2154 01c4 2E       		.uleb128 0x2e
 2155 01c5 00       		.byte	0
 2156 01c6 3F       		.uleb128 0x3f
 2157 01c7 19       		.uleb128 0x19
 2158 01c8 3C       		.uleb128 0x3c
 2159 01c9 19       		.uleb128 0x19
 2160 01ca 6E       		.uleb128 0x6e
 2161 01cb 0E       		.uleb128 0xe
 2162 01cc 03       		.uleb128 0x3
 2163 01cd 0E       		.uleb128 0xe
 2164 01ce 3A       		.uleb128 0x3a
 2165 01cf 0B       		.uleb128 0xb
 2166 01d0 3B       		.uleb128 0x3b
ARM GAS  /var/folders/d2/nstgp4h54kz7g1l847x_b8wc0000gn/T//ccOi84Xu.s 			page 39


 2167 01d1 0B       		.uleb128 0xb
 2168 01d2 00       		.byte	0
 2169 01d3 00       		.byte	0
 2170 01d4 24       		.uleb128 0x24
 2171 01d5 2E       		.uleb128 0x2e
 2172 01d6 00       		.byte	0
 2173 01d7 3F       		.uleb128 0x3f
 2174 01d8 19       		.uleb128 0x19
 2175 01d9 3C       		.uleb128 0x3c
 2176 01da 19       		.uleb128 0x19
 2177 01db 6E       		.uleb128 0x6e
 2178 01dc 0E       		.uleb128 0xe
 2179 01dd 03       		.uleb128 0x3
 2180 01de 0E       		.uleb128 0xe
 2181 01df 00       		.byte	0
 2182 01e0 00       		.byte	0
 2183 01e1 00       		.byte	0
 2184              		.section	.debug_loc,"",%progbits
 2185              	.Ldebug_loc0:
 2186              	.LLST6:
 2187 0000 00000000 		.4byte	.LVL12
 2188 0004 1B000000 		.4byte	.LVL14-1
 2189 0008 0100     		.2byte	0x1
 2190 000a 50       		.byte	0x50
 2191 000b 1B000000 		.4byte	.LVL14-1
 2192 000f 1C000000 		.4byte	.LVL14
 2193 0013 0400     		.2byte	0x4
 2194 0015 F3       		.byte	0xf3
 2195 0016 01       		.uleb128 0x1
 2196 0017 50       		.byte	0x50
 2197 0018 9F       		.byte	0x9f
 2198 0019 1C000000 		.4byte	.LVL14
 2199 001d 1F000000 		.4byte	.LVL15-1
 2200 0021 0100     		.2byte	0x1
 2201 0023 50       		.byte	0x50
 2202 0024 1F000000 		.4byte	.LVL15-1
 2203 0028 24000000 		.4byte	.LFE222
 2204 002c 0400     		.2byte	0x4
 2205 002e F3       		.byte	0xf3
 2206 002f 01       		.uleb128 0x1
 2207 0030 50       		.byte	0x50
 2208 0031 9F       		.byte	0x9f
 2209 0032 00000000 		.4byte	0
 2210 0036 00000000 		.4byte	0
 2211              	.LLST7:
 2212 003a 0A000000 		.4byte	.LVL13
 2213 003e 1B000000 		.4byte	.LVL14-1
 2214 0042 0100     		.2byte	0x1
 2215 0044 50       		.byte	0x50
 2216 0045 1B000000 		.4byte	.LVL14-1
 2217 0049 1C000000 		.4byte	.LVL14
 2218 004d 0400     		.2byte	0x4
 2219 004f F3       		.byte	0xf3
 2220 0050 01       		.uleb128 0x1
 2221 0051 50       		.byte	0x50
 2222 0052 9F       		.byte	0x9f
 2223 0053 1C000000 		.4byte	.LVL14
ARM GAS  /var/folders/d2/nstgp4h54kz7g1l847x_b8wc0000gn/T//ccOi84Xu.s 			page 40


 2224 0057 1F000000 		.4byte	.LVL15-1
 2225 005b 0100     		.2byte	0x1
 2226 005d 50       		.byte	0x50
 2227 005e 1F000000 		.4byte	.LVL15-1
 2228 0062 24000000 		.4byte	.LFE222
 2229 0066 0400     		.2byte	0x4
 2230 0068 F3       		.byte	0xf3
 2231 0069 01       		.uleb128 0x1
 2232 006a 50       		.byte	0x50
 2233 006b 9F       		.byte	0x9f
 2234 006c 00000000 		.4byte	0
 2235 0070 00000000 		.4byte	0
 2236              	.LLST4:
 2237 0074 00000000 		.4byte	.LVL8
 2238 0078 1B000000 		.4byte	.LVL10-1
 2239 007c 0100     		.2byte	0x1
 2240 007e 50       		.byte	0x50
 2241 007f 1B000000 		.4byte	.LVL10-1
 2242 0083 1C000000 		.4byte	.LVL10
 2243 0087 0400     		.2byte	0x4
 2244 0089 F3       		.byte	0xf3
 2245 008a 01       		.uleb128 0x1
 2246 008b 50       		.byte	0x50
 2247 008c 9F       		.byte	0x9f
 2248 008d 1C000000 		.4byte	.LVL10
 2249 0091 1F000000 		.4byte	.LVL11-1
 2250 0095 0100     		.2byte	0x1
 2251 0097 50       		.byte	0x50
 2252 0098 1F000000 		.4byte	.LVL11-1
 2253 009c 24000000 		.4byte	.LFE221
 2254 00a0 0400     		.2byte	0x4
 2255 00a2 F3       		.byte	0xf3
 2256 00a3 01       		.uleb128 0x1
 2257 00a4 50       		.byte	0x50
 2258 00a5 9F       		.byte	0x9f
 2259 00a6 00000000 		.4byte	0
 2260 00aa 00000000 		.4byte	0
 2261              	.LLST5:
 2262 00ae 0A000000 		.4byte	.LVL9
 2263 00b2 1B000000 		.4byte	.LVL10-1
 2264 00b6 0100     		.2byte	0x1
 2265 00b8 50       		.byte	0x50
 2266 00b9 1B000000 		.4byte	.LVL10-1
 2267 00bd 1C000000 		.4byte	.LVL10
 2268 00c1 0400     		.2byte	0x4
 2269 00c3 F3       		.byte	0xf3
 2270 00c4 01       		.uleb128 0x1
 2271 00c5 50       		.byte	0x50
 2272 00c6 9F       		.byte	0x9f
 2273 00c7 1C000000 		.4byte	.LVL10
 2274 00cb 1F000000 		.4byte	.LVL11-1
 2275 00cf 0100     		.2byte	0x1
 2276 00d1 50       		.byte	0x50
 2277 00d2 1F000000 		.4byte	.LVL11-1
 2278 00d6 24000000 		.4byte	.LFE221
 2279 00da 0400     		.2byte	0x4
 2280 00dc F3       		.byte	0xf3
ARM GAS  /var/folders/d2/nstgp4h54kz7g1l847x_b8wc0000gn/T//ccOi84Xu.s 			page 41


 2281 00dd 01       		.uleb128 0x1
 2282 00de 50       		.byte	0x50
 2283 00df 9F       		.byte	0x9f
 2284 00e0 00000000 		.4byte	0
 2285 00e4 00000000 		.4byte	0
 2286              	.LLST2:
 2287 00e8 00000000 		.4byte	.LVL4
 2288 00ec 1B000000 		.4byte	.LVL6-1
 2289 00f0 0100     		.2byte	0x1
 2290 00f2 50       		.byte	0x50
 2291 00f3 1B000000 		.4byte	.LVL6-1
 2292 00f7 1C000000 		.4byte	.LVL6
 2293 00fb 0400     		.2byte	0x4
 2294 00fd F3       		.byte	0xf3
 2295 00fe 01       		.uleb128 0x1
 2296 00ff 50       		.byte	0x50
 2297 0100 9F       		.byte	0x9f
 2298 0101 1C000000 		.4byte	.LVL6
 2299 0105 1F000000 		.4byte	.LVL7-1
 2300 0109 0100     		.2byte	0x1
 2301 010b 50       		.byte	0x50
 2302 010c 1F000000 		.4byte	.LVL7-1
 2303 0110 24000000 		.4byte	.LFE220
 2304 0114 0400     		.2byte	0x4
 2305 0116 F3       		.byte	0xf3
 2306 0117 01       		.uleb128 0x1
 2307 0118 50       		.byte	0x50
 2308 0119 9F       		.byte	0x9f
 2309 011a 00000000 		.4byte	0
 2310 011e 00000000 		.4byte	0
 2311              	.LLST3:
 2312 0122 0A000000 		.4byte	.LVL5
 2313 0126 1B000000 		.4byte	.LVL6-1
 2314 012a 0100     		.2byte	0x1
 2315 012c 50       		.byte	0x50
 2316 012d 1B000000 		.4byte	.LVL6-1
 2317 0131 1C000000 		.4byte	.LVL6
 2318 0135 0400     		.2byte	0x4
 2319 0137 F3       		.byte	0xf3
 2320 0138 01       		.uleb128 0x1
 2321 0139 50       		.byte	0x50
 2322 013a 9F       		.byte	0x9f
 2323 013b 1C000000 		.4byte	.LVL6
 2324 013f 1F000000 		.4byte	.LVL7-1
 2325 0143 0100     		.2byte	0x1
 2326 0145 50       		.byte	0x50
 2327 0146 1F000000 		.4byte	.LVL7-1
 2328 014a 24000000 		.4byte	.LFE220
 2329 014e 0400     		.2byte	0x4
 2330 0150 F3       		.byte	0xf3
 2331 0151 01       		.uleb128 0x1
 2332 0152 50       		.byte	0x50
 2333 0153 9F       		.byte	0x9f
 2334 0154 00000000 		.4byte	0
 2335 0158 00000000 		.4byte	0
 2336              	.LLST0:
 2337 015c 00000000 		.4byte	.LVL0
ARM GAS  /var/folders/d2/nstgp4h54kz7g1l847x_b8wc0000gn/T//ccOi84Xu.s 			page 42


 2338 0160 1B000000 		.4byte	.LVL2-1
 2339 0164 0100     		.2byte	0x1
 2340 0166 50       		.byte	0x50
 2341 0167 1B000000 		.4byte	.LVL2-1
 2342 016b 1C000000 		.4byte	.LVL2
 2343 016f 0400     		.2byte	0x4
 2344 0171 F3       		.byte	0xf3
 2345 0172 01       		.uleb128 0x1
 2346 0173 50       		.byte	0x50
 2347 0174 9F       		.byte	0x9f
 2348 0175 1C000000 		.4byte	.LVL2
 2349 0179 1F000000 		.4byte	.LVL3-1
 2350 017d 0100     		.2byte	0x1
 2351 017f 50       		.byte	0x50
 2352 0180 1F000000 		.4byte	.LVL3-1
 2353 0184 24000000 		.4byte	.LFE219
 2354 0188 0400     		.2byte	0x4
 2355 018a F3       		.byte	0xf3
 2356 018b 01       		.uleb128 0x1
 2357 018c 50       		.byte	0x50
 2358 018d 9F       		.byte	0x9f
 2359 018e 00000000 		.4byte	0
 2360 0192 00000000 		.4byte	0
 2361              	.LLST1:
 2362 0196 0A000000 		.4byte	.LVL1
 2363 019a 1B000000 		.4byte	.LVL2-1
 2364 019e 0100     		.2byte	0x1
 2365 01a0 50       		.byte	0x50
 2366 01a1 1B000000 		.4byte	.LVL2-1
 2367 01a5 1C000000 		.4byte	.LVL2
 2368 01a9 0400     		.2byte	0x4
 2369 01ab F3       		.byte	0xf3
 2370 01ac 01       		.uleb128 0x1
 2371 01ad 50       		.byte	0x50
 2372 01ae 9F       		.byte	0x9f
 2373 01af 1C000000 		.4byte	.LVL2
 2374 01b3 1F000000 		.4byte	.LVL3-1
 2375 01b7 0100     		.2byte	0x1
 2376 01b9 50       		.byte	0x50
 2377 01ba 1F000000 		.4byte	.LVL3-1
 2378 01be 24000000 		.4byte	.LFE219
 2379 01c2 0400     		.2byte	0x4
 2380 01c4 F3       		.byte	0xf3
 2381 01c5 01       		.uleb128 0x1
 2382 01c6 50       		.byte	0x50
 2383 01c7 9F       		.byte	0x9f
 2384 01c8 00000000 		.4byte	0
 2385 01cc 00000000 		.4byte	0
 2386              		.section	.debug_aranges,"",%progbits
 2387 0000 34000000 		.4byte	0x34
 2388 0004 0200     		.2byte	0x2
 2389 0006 00000000 		.4byte	.Ldebug_info0
 2390 000a 04       		.byte	0x4
 2391 000b 00       		.byte	0
 2392 000c 0000     		.2byte	0
 2393 000e 0000     		.2byte	0
 2394 0010 00000000 		.4byte	.LFB219
ARM GAS  /var/folders/d2/nstgp4h54kz7g1l847x_b8wc0000gn/T//ccOi84Xu.s 			page 43


 2395 0014 24000000 		.4byte	.LFE219-.LFB219
 2396 0018 00000000 		.4byte	.LFB220
 2397 001c 24000000 		.4byte	.LFE220-.LFB220
 2398 0020 00000000 		.4byte	.LFB221
 2399 0024 24000000 		.4byte	.LFE221-.LFB221
 2400 0028 00000000 		.4byte	.LFB222
 2401 002c 24000000 		.4byte	.LFE222-.LFB222
 2402 0030 00000000 		.4byte	0
 2403 0034 00000000 		.4byte	0
 2404              		.section	.debug_ranges,"",%progbits
 2405              	.Ldebug_ranges0:
 2406 0000 00000000 		.4byte	.LFB219
 2407 0004 24000000 		.4byte	.LFE219
 2408 0008 00000000 		.4byte	.LFB220
 2409 000c 24000000 		.4byte	.LFE220
 2410 0010 00000000 		.4byte	.LFB221
 2411 0014 24000000 		.4byte	.LFE221
 2412 0018 00000000 		.4byte	.LFB222
 2413 001c 24000000 		.4byte	.LFE222
 2414 0020 00000000 		.4byte	0
 2415 0024 00000000 		.4byte	0
 2416              		.section	.debug_line,"",%progbits
 2417              	.Ldebug_line0:
 2418 0000 A3030000 		.section	.debug_str,"MS",%progbits,1
 2418      02005303 
 2418      00000201 
 2418      FB0E0D00 
 2418      01010101 
 2419              	.LASF55:
 2420 0000 74687265 		.ascii	"threads_list_t\000"
 2420      6164735F 
 2420      6C697374 
 2420      5F7400
 2421              	.LASF145:
 2422 000f 63665F6F 		.ascii	"cf_off_older\000"
 2422      66665F6F 
 2422      6C646572 
 2422      00
 2423              	.LASF178:
 2424 001c 2F557365 		.ascii	"/Users/bharathkeshavamurthy/Workspaces/Talos/src/ma"
 2424      72732F62 
 2424      68617261 
 2424      74686B65 
 2424      73686176 
 2425 004f 696E2F63 		.ascii	"in/cpp/org/purdue/ece/talos/optimize/\000"
 2425      70702F6F 
 2425      72672F70 
 2425      75726475 
 2425      652F6563 
 2426              	.LASF60:
 2427 0075 72656164 		.ascii	"ready_list_t\000"
 2427      795F6C69 
 2427      73745F74 
 2427      00
 2428              	.LASF98:
 2429 0082 73655F74 		.ascii	"se_time\000"
 2429      696D6500 
ARM GAS  /var/folders/d2/nstgp4h54kz7g1l847x_b8wc0000gn/T//ccOi84Xu.s 			page 44


 2430              	.LASF122:
 2431 008a 77747472 		.ascii	"wttrp\000"
 2431      7000
 2432              	.LASF177:
 2433 0090 2E2E2F65 		.ascii	"../e-puck2_main-processor/src/msgbus/examples/chibi"
 2433      2D707563 
 2433      6B325F6D 
 2433      61696E2D 
 2433      70726F63 
 2434 00c3 6F732F70 		.ascii	"os/port.c\000"
 2434      6F72742E 
 2434      6300
 2435              	.LASF119:
 2436 00cd 7264796D 		.ascii	"rdymsg\000"
 2436      736700
 2437              	.LASF19:
 2438 00d4 75696E74 		.ascii	"uint64_t\000"
 2438      36345F74 
 2438      00
 2439              	.LASF90:
 2440 00dd 6B65726E 		.ascii	"kernel_stats\000"
 2440      656C5F73 
 2440      74617473 
 2440      00
 2441              	.LASF6:
 2442 00ea 5F5F7569 		.ascii	"__uint8_t\000"
 2442      6E74385F 
 2442      7400
 2443              	.LASF97:
 2444 00f4 706F7274 		.ascii	"port_intctx\000"
 2444      5F696E74 
 2444      63747800 
 2445              	.LASF59:
 2446 0100 63685F74 		.ascii	"ch_threads_queue\000"
 2446      68726561 
 2446      64735F71 
 2446      75657565 
 2446      00
 2447              	.LASF79:
 2448 0111 73797374 		.ascii	"system_debug_t\000"
 2448      656D5F64 
 2448      65627567 
 2448      5F7400
 2449              	.LASF110:
 2450 0120 776F7273 		.ascii	"worst\000"
 2450      7400
 2451              	.LASF113:
 2452 0126 74696D65 		.ascii	"time_measurement_t\000"
 2452      5F6D6561 
 2452      73757265 
 2452      6D656E74 
 2452      5F7400
 2453              	.LASF14:
 2454 0139 6C6F6E67 		.ascii	"long long unsigned int\000"
 2454      206C6F6E 
 2454      6720756E 
 2454      7369676E 
ARM GAS  /var/folders/d2/nstgp4h54kz7g1l847x_b8wc0000gn/T//ccOi84Xu.s 			page 45


 2454      65642069 
 2455              	.LASF106:
 2456 0150 63685F74 		.ascii	"ch_trace_buffer_t\000"
 2456      72616365 
 2456      5F627566 
 2456      6665725F 
 2456      7400
 2457              	.LASF173:
 2458 0162 6368436F 		.ascii	"chCondBroadcast\000"
 2458      6E644272 
 2458      6F616463 
 2458      61737400 
 2459              	.LASF141:
 2460 0172 63685F74 		.ascii	"ch_threadsize\000"
 2460      68726561 
 2460      6473697A 
 2460      6500
 2461              	.LASF120:
 2462 0180 65786974 		.ascii	"exitcode\000"
 2462      636F6465 
 2462      00
 2463              	.LASF89:
 2464 0189 6D61696E 		.ascii	"mainthread\000"
 2464      74687265 
 2464      616400
 2465              	.LASF76:
 2466 0194 76697274 		.ascii	"virtual_timers_list_t\000"
 2466      75616C5F 
 2466      74696D65 
 2466      72735F6C 
 2466      6973745F 
 2467              	.LASF92:
 2468 01aa 49544D5F 		.ascii	"ITM_RxBuffer\000"
 2468      52784275 
 2468      66666572 
 2468      00
 2469              	.LASF21:
 2470 01b7 72747469 		.ascii	"rttime_t\000"
 2470      6D655F74 
 2470      00
 2471              	.LASF162:
 2472 01c0 6F707465 		.ascii	"opterr\000"
 2472      727200
 2473              	.LASF35:
 2474 01c7 705F7072 		.ascii	"p_prio\000"
 2474      696F00
 2475              	.LASF148:
 2476 01ce 63665F6F 		.ascii	"cf_off_state\000"
 2476      66665F73 
 2476      74617465 
 2476      00
 2477              	.LASF155:
 2478 01db 6D757465 		.ascii	"mutex_t\000"
 2478      785F7400 
 2479              	.LASF174:
 2480 01e3 63684D74 		.ascii	"chMtxUnlock\000"
 2480      78556E6C 
ARM GAS  /var/folders/d2/nstgp4h54kz7g1l847x_b8wc0000gn/T//ccOi84Xu.s 			page 46


 2480      6F636B00 
 2481              	.LASF3:
 2482 01ef 7369676E 		.ascii	"signed char\000"
 2482      65642063 
 2482      68617200 
 2483              	.LASF158:
 2484 01fb 636F6E64 		.ascii	"condition_variable_t\000"
 2484      6974696F 
 2484      6E5F7661 
 2484      72696162 
 2484      6C655F74 
 2485              	.LASF147:
 2486 0210 63665F6F 		.ascii	"cf_off_stklimit\000"
 2486      66665F73 
 2486      746B6C69 
 2486      6D697400 
 2487              	.LASF149:
 2488 0220 63665F6F 		.ascii	"cf_off_flags\000"
 2488      66665F66 
 2488      6C616773 
 2488      00
 2489              	.LASF52:
 2490 022d 705F6D70 		.ascii	"p_mpool\000"
 2490      6F6F6C00 
 2491              	.LASF130:
 2492 0235 6D5F7175 		.ascii	"m_queue\000"
 2492      65756500 
 2493              	.LASF88:
 2494 023d 76746C69 		.ascii	"vtlist\000"
 2494      737400
 2495              	.LASF168:
 2496 0244 636F6E64 		.ascii	"cond\000"
 2496      00
 2497              	.LASF25:
 2498 0249 74736C69 		.ascii	"tslices_t\000"
 2498      6365735F 
 2498      7400
 2499              	.LASF86:
 2500 0253 63685F73 		.ascii	"ch_system\000"
 2500      79737465 
 2500      6D00
 2501              	.LASF10:
 2502 025d 6C6F6E67 		.ascii	"long int\000"
 2502      20696E74 
 2502      00
 2503              	.LASF166:
 2504 0266 6D657373 		.ascii	"messagebus_condvar_wait\000"
 2504      61676562 
 2504      75735F63 
 2504      6F6E6476 
 2504      61725F77 
 2505              	.LASF23:
 2506 027e 74737461 		.ascii	"tstate_t\000"
 2506      74655F74 
 2506      00
 2507              	.LASF99:
 2508 0287 73655F74 		.ascii	"se_tp\000"
ARM GAS  /var/folders/d2/nstgp4h54kz7g1l847x_b8wc0000gn/T//ccOi84Xu.s 			page 47


 2508      7000
 2509              	.LASF153:
 2510 028d 63686465 		.ascii	"chdebug_t\000"
 2510      6275675F 
 2510      7400
 2511              	.LASF37:
 2512 0297 705F6E65 		.ascii	"p_newer\000"
 2512      77657200 
 2513              	.LASF127:
 2514 029f 735F7175 		.ascii	"s_queue\000"
 2514      65756500 
 2515              	.LASF2:
 2516 02a7 6C6F6E67 		.ascii	"long double\000"
 2516      20646F75 
 2516      626C6500 
 2517              	.LASF103:
 2518 02b3 74625F73 		.ascii	"tb_size\000"
 2518      697A6500 
 2519              	.LASF65:
 2520 02bb 725F6E65 		.ascii	"r_newer\000"
 2520      77657200 
 2521              	.LASF94:
 2522 02c3 72656761 		.ascii	"regarm_t\000"
 2522      726D5F74 
 2522      00
 2523              	.LASF72:
 2524 02cc 76745F70 		.ascii	"vt_prev\000"
 2524      72657600 
 2525              	.LASF71:
 2526 02d4 76745F6E 		.ascii	"vt_next\000"
 2526      65787400 
 2527              	.LASF80:
 2528 02dc 63685F73 		.ascii	"ch_system_debug\000"
 2528      79737465 
 2528      6D5F6465 
 2528      62756700 
 2529              	.LASF133:
 2530 02ec 6D5F636E 		.ascii	"m_cnt\000"
 2530      7400
 2531              	.LASF1:
 2532 02f2 6C6F6E67 		.ascii	"long long int\000"
 2532      206C6F6E 
 2532      6720696E 
 2532      7400
 2533              	.LASF83:
 2534 0300 6C6F636B 		.ascii	"lock_cnt\000"
 2534      5F636E74 
 2534      00
 2535              	.LASF91:
 2536 0309 69646C65 		.ascii	"idle_thread_wa\000"
 2536      5F746872 
 2536      6561645F 
 2536      776100
 2537              	.LASF29:
 2538 0318 636E745F 		.ascii	"cnt_t\000"
 2538      7400
 2539              	.LASF40:
ARM GAS  /var/folders/d2/nstgp4h54kz7g1l847x_b8wc0000gn/T//ccOi84Xu.s 			page 48


 2540 031e 705F7374 		.ascii	"p_stklimit\000"
 2540      6B6C696D 
 2540      697400
 2541              	.LASF0:
 2542 0329 756E7369 		.ascii	"unsigned int\000"
 2542      676E6564 
 2542      20696E74 
 2542      00
 2543              	.LASF176:
 2544 0336 474E5520 		.ascii	"GNU C11 7.2.1 20170904 (release) [ARM/embedded-7-br"
 2544      43313120 
 2544      372E322E 
 2544      31203230 
 2544      31373039 
 2545 0369 616E6368 		.ascii	"anch revision 255204] -mcpu=cortex-m4 -mfloat-abi=h"
 2545      20726576 
 2545      6973696F 
 2545      6E203235 
 2545      35323034 
 2546 039c 61726420 		.ascii	"ard -mfpu=fpv4-sp-d16 -mno-thumb-interwork -mthumb "
 2546      2D6D6670 
 2546      753D6670 
 2546      76342D73 
 2546      702D6431 
 2547 03cf 2D676764 		.ascii	"-ggdb -O2 -fomit-frame-pointer -falign-functions=16"
 2547      62202D4F 
 2547      32202D66 
 2547      6F6D6974 
 2547      2D667261 
 2548 0402 202D666E 		.ascii	" -fno-strict-aliasing -fstack-protector-all -ffunct"
 2548      6F2D7374 
 2548      72696374 
 2548      2D616C69 
 2548      6173696E 
 2549 0435 696F6E2D 		.ascii	"ion-sections -fdata-sections -fno-common -fsingle-p"
 2549      73656374 
 2549      696F6E73 
 2549      202D6664 
 2549      6174612D 
 2550 0468 72656369 		.ascii	"recision-constant\000"
 2550      73696F6E 
 2550      2D636F6E 
 2550      7374616E 
 2550      7400
 2551              	.LASF16:
 2552 047a 75696E74 		.ascii	"uint16_t\000"
 2552      31365F74 
 2552      00
 2553              	.LASF93:
 2554 0483 53797374 		.ascii	"SystemCoreClock\000"
 2554      656D436F 
 2554      7265436C 
 2554      6F636B00 
 2555              	.LASF45:
 2556 0493 705F7469 		.ascii	"p_time\000"
 2556      6D6500
 2557              	.LASF123:
ARM GAS  /var/folders/d2/nstgp4h54kz7g1l847x_b8wc0000gn/T//ccOi84Xu.s 			page 49


 2558 049a 77747365 		.ascii	"wtsemp\000"
 2558      6D7000
 2559              	.LASF73:
 2560 04a1 76745F64 		.ascii	"vt_delta\000"
 2560      656C7461 
 2560      00
 2561              	.LASF47:
 2562 04aa 705F6D73 		.ascii	"p_msgqueue\000"
 2562      67717565 
 2562      756500
 2563              	.LASF154:
 2564 04b5 63685F64 		.ascii	"ch_debug\000"
 2564      65627567 
 2564      00
 2565              	.LASF140:
 2566 04be 63685F74 		.ascii	"ch_timesize\000"
 2566      696D6573 
 2566      697A6500 
 2567              	.LASF114:
 2568 04ca 6E5F6972 		.ascii	"n_irq\000"
 2568      7100
 2569              	.LASF128:
 2570 04d0 735F636E 		.ascii	"s_cnt\000"
 2570      7400
 2571              	.LASF8:
 2572 04d6 73686F72 		.ascii	"short unsigned int\000"
 2572      7420756E 
 2572      7369676E 
 2572      65642069 
 2572      6E7400
 2573              	.LASF118:
 2574 04e9 6B65726E 		.ascii	"kernel_stats_t\000"
 2574      656C5F73 
 2574      74617473 
 2574      5F7400
 2575              	.LASF56:
 2576 04f8 63685F74 		.ascii	"ch_thread\000"
 2576      68726561 
 2576      6400
 2577              	.LASF27:
 2578 0502 6D73675F 		.ascii	"msg_t\000"
 2578      7400
 2579              	.LASF111:
 2580 0508 6C617374 		.ascii	"last\000"
 2580      00
 2581              	.LASF30:
 2582 050d 75636E74 		.ascii	"ucnt_t\000"
 2582      5F7400
 2583              	.LASF85:
 2584 0514 63685F73 		.ascii	"ch_system_t\000"
 2584      79737465 
 2584      6D5F7400 
 2585              	.LASF159:
 2586 0520 656E7669 		.ascii	"environ\000"
 2586      726F6E00 
 2587              	.LASF152:
 2588 0528 63665F6F 		.ascii	"cf_off_time\000"
ARM GAS  /var/folders/d2/nstgp4h54kz7g1l847x_b8wc0000gn/T//ccOi84Xu.s 			page 50


 2588      66665F74 
 2588      696D6500 
 2589              	.LASF117:
 2590 0534 6D5F6372 		.ascii	"m_crit_isr\000"
 2590      69745F69 
 2590      737200
 2591              	.LASF61:
 2592 053f 63685F72 		.ascii	"ch_ready_list\000"
 2592      65616479 
 2592      5F6C6973 
 2592      7400
 2593              	.LASF28:
 2594 054d 6576656E 		.ascii	"eventmask_t\000"
 2594      746D6173 
 2594      6B5F7400 
 2595              	.LASF9:
 2596 0559 5F5F696E 		.ascii	"__int32_t\000"
 2596      7433325F 
 2596      7400
 2597              	.LASF95:
 2598 0563 73746B61 		.ascii	"stkalign_t\000"
 2598      6C69676E 
 2598      5F7400
 2599              	.LASF164:
 2600 056e 6F707472 		.ascii	"optreset\000"
 2600      65736574 
 2600      00
 2601              	.LASF157:
 2602 0577 635F7175 		.ascii	"c_queue\000"
 2602      65756500 
 2603              	.LASF136:
 2604 057f 63685F7A 		.ascii	"ch_zero\000"
 2604      65726F00 
 2605              	.LASF150:
 2606 0587 63665F6F 		.ascii	"cf_off_refs\000"
 2606      66665F72 
 2606      65667300 
 2607              	.LASF46:
 2608 0593 705F7761 		.ascii	"p_waiting\000"
 2608      6974696E 
 2608      6700
 2609              	.LASF160:
 2610 059d 6F707461 		.ascii	"optarg\000"
 2610      726700
 2611              	.LASF20:
 2612 05a4 7274636E 		.ascii	"rtcnt_t\000"
 2612      745F7400 
 2613              	.LASF77:
 2614 05ac 63685F76 		.ascii	"ch_virtual_timers_list\000"
 2614      69727475 
 2614      616C5F74 
 2614      696D6572 
 2614      735F6C69 
 2615              	.LASF156:
 2616 05c3 636F6E64 		.ascii	"condition_variable\000"
 2616      6974696F 
 2616      6E5F7661 
ARM GAS  /var/folders/d2/nstgp4h54kz7g1l847x_b8wc0000gn/T//ccOi84Xu.s 			page 51


 2616      72696162 
 2616      6C6500
 2617              	.LASF161:
 2618 05d6 6F707469 		.ascii	"optind\000"
 2618      6E6400
 2619              	.LASF104:
 2620 05dd 74625F70 		.ascii	"tb_ptr\000"
 2620      747200
 2621              	.LASF102:
 2622 05e4 63685F73 		.ascii	"ch_swc_event_t\000"
 2622      77635F65 
 2622      76656E74 
 2622      5F7400
 2623              	.LASF146:
 2624 05f3 63665F6F 		.ascii	"cf_off_name\000"
 2624      66665F6E 
 2624      616D6500 
 2625              	.LASF175:
 2626 05ff 63684D74 		.ascii	"chMtxLock\000"
 2626      784C6F63 
 2626      6B00
 2627              	.LASF38:
 2628 0609 705F6F6C 		.ascii	"p_older\000"
 2628      64657200 
 2629              	.LASF64:
 2630 0611 725F6374 		.ascii	"r_ctx\000"
 2630      7800
 2631              	.LASF36:
 2632 0617 705F6374 		.ascii	"p_ctx\000"
 2632      7800
 2633              	.LASF108:
 2634 061d 746D5F63 		.ascii	"tm_calibration_t\000"
 2634      616C6962 
 2634      72617469 
 2634      6F6E5F74 
 2634      00
 2635              	.LASF67:
 2636 062e 725F6375 		.ascii	"r_current\000"
 2636      7272656E 
 2636      7400
 2637              	.LASF66:
 2638 0638 725F6F6C 		.ascii	"r_older\000"
 2638      64657200 
 2639              	.LASF13:
 2640 0640 5F5F7569 		.ascii	"__uint64_t\000"
 2640      6E743634 
 2640      5F7400
 2641              	.LASF112:
 2642 064b 63756D75 		.ascii	"cumulative\000"
 2642      6C617469 
 2642      766500
 2643              	.LASF24:
 2644 0656 74726566 		.ascii	"trefs_t\000"
 2644      735F7400 
 2645              	.LASF105:
 2646 065e 74625F62 		.ascii	"tb_buffer\000"
 2646      75666665 
ARM GAS  /var/folders/d2/nstgp4h54kz7g1l847x_b8wc0000gn/T//ccOi84Xu.s 			page 52


 2646      7200
 2647              	.LASF139:
 2648 0668 63685F70 		.ascii	"ch_ptrsize\000"
 2648      74727369 
 2648      7A6500
 2649              	.LASF167:
 2650 0673 6D657373 		.ascii	"messagebus_condvar_broadcast\000"
 2650      61676562 
 2650      75735F63 
 2650      6F6E6476 
 2650      61725F62 
 2651              	.LASF69:
 2652 0690 76697274 		.ascii	"virtual_timer_t\000"
 2652      75616C5F 
 2652      74696D65 
 2652      725F7400 
 2653              	.LASF34:
 2654 06a0 705F7072 		.ascii	"p_prev\000"
 2654      657600
 2655              	.LASF26:
 2656 06a7 74707269 		.ascii	"tprio_t\000"
 2656      6F5F7400 
 2657              	.LASF115:
 2658 06af 6E5F6374 		.ascii	"n_ctxswc\000"
 2658      78737763 
 2658      00
 2659              	.LASF165:
 2660 06b8 5F426F6F 		.ascii	"_Bool\000"
 2660      6C00
 2661              	.LASF17:
 2662 06be 696E7433 		.ascii	"int32_t\000"
 2662      325F7400 
 2663              	.LASF4:
 2664 06c6 756E7369 		.ascii	"unsigned char\000"
 2664      676E6564 
 2664      20636861 
 2664      7200
 2665              	.LASF50:
 2666 06d4 705F6D74 		.ascii	"p_mtxlist\000"
 2666      786C6973 
 2666      7400
 2667              	.LASF5:
 2668 06de 73686F72 		.ascii	"short int\000"
 2668      7420696E 
 2668      7400
 2669              	.LASF41:
 2670 06e8 705F7374 		.ascii	"p_state\000"
 2670      61746500 
 2671              	.LASF44:
 2672 06f0 705F7072 		.ascii	"p_preempt\000"
 2672      65656D70 
 2672      7400
 2673              	.LASF63:
 2674 06fa 725F7072 		.ascii	"r_prio\000"
 2674      696F00
 2675              	.LASF125:
 2676 0701 65776D61 		.ascii	"ewmask\000"
ARM GAS  /var/folders/d2/nstgp4h54kz7g1l847x_b8wc0000gn/T//ccOi84Xu.s 			page 53


 2676      736B00
 2677              	.LASF33:
 2678 0708 705F6E65 		.ascii	"p_next\000"
 2678      787400
 2679              	.LASF22:
 2680 070f 746D6F64 		.ascii	"tmode_t\000"
 2680      655F7400 
 2681              	.LASF151:
 2682 0717 63665F6F 		.ascii	"cf_off_preempt\000"
 2682      66665F70 
 2682      7265656D 
 2682      707400
 2683              	.LASF42:
 2684 0726 705F666C 		.ascii	"p_flags\000"
 2684      61677300 
 2685              	.LASF53:
 2686 072e 705F7374 		.ascii	"p_stats\000"
 2686      61747300 
 2687              	.LASF58:
 2688 0736 74687265 		.ascii	"threads_queue_t\000"
 2688      6164735F 
 2688      71756575 
 2688      655F7400 
 2689              	.LASF70:
 2690 0746 63685F76 		.ascii	"ch_virtual_timer\000"
 2690      69727475 
 2690      616C5F74 
 2690      696D6572 
 2690      00
 2691              	.LASF144:
 2692 0757 63665F6F 		.ascii	"cf_off_newer\000"
 2692      66665F6E 
 2692      65776572 
 2692      00
 2693              	.LASF179:
 2694 0764 5F5F7374 		.ascii	"__stack_chk_fail\000"
 2694      61636B5F 
 2694      63686B5F 
 2694      6661696C 
 2694      00
 2695              	.LASF126:
 2696 0775 63685F73 		.ascii	"ch_semaphore\000"
 2696      656D6170 
 2696      686F7265 
 2696      00
 2697              	.LASF49:
 2698 0782 705F6570 		.ascii	"p_epending\000"
 2698      656E6469 
 2698      6E6700
 2699              	.LASF163:
 2700 078d 6F70746F 		.ascii	"optopt\000"
 2700      707400
 2701              	.LASF18:
 2702 0794 75696E74 		.ascii	"uint32_t\000"
 2702      33325F74 
 2702      00
 2703              	.LASF142:
ARM GAS  /var/folders/d2/nstgp4h54kz7g1l847x_b8wc0000gn/T//ccOi84Xu.s 			page 54


 2704 079d 63665F6F 		.ascii	"cf_off_prio\000"
 2704      66665F70 
 2704      72696F00 
 2705              	.LASF62:
 2706 07a9 725F7175 		.ascii	"r_queue\000"
 2706      65756500 
 2707              	.LASF57:
 2708 07b1 63685F74 		.ascii	"ch_threads_list\000"
 2708      68726561 
 2708      64735F6C 
 2708      69737400 
 2709              	.LASF137:
 2710 07c1 63685F73 		.ascii	"ch_size\000"
 2710      697A6500 
 2711              	.LASF12:
 2712 07c9 6C6F6E67 		.ascii	"long unsigned int\000"
 2712      20756E73 
 2712      69676E65 
 2712      6420696E 
 2712      7400
 2713              	.LASF134:
 2714 07db 63686172 		.ascii	"char\000"
 2714      00
 2715              	.LASF124:
 2716 07e0 77746D74 		.ascii	"wtmtxp\000"
 2716      787000
 2717              	.LASF7:
 2718 07e7 5F5F7569 		.ascii	"__uint16_t\000"
 2718      6E743136 
 2718      5F7400
 2719              	.LASF32:
 2720 07f2 74687265 		.ascii	"thread_t\000"
 2720      61645F74 
 2720      00
 2721              	.LASF109:
 2722 07fb 62657374 		.ascii	"best\000"
 2722      00
 2723              	.LASF132:
 2724 0800 6D5F6E65 		.ascii	"m_next\000"
 2724      787400
 2725              	.LASF31:
 2726 0807 73797374 		.ascii	"systime_t\000"
 2726      696D655F 
 2726      7400
 2727              	.LASF51:
 2728 0811 705F7265 		.ascii	"p_realprio\000"
 2728      616C7072 
 2728      696F00
 2729              	.LASF68:
 2730 081c 76746675 		.ascii	"vtfunc_t\000"
 2730      6E635F74 
 2730      00
 2731              	.LASF11:
 2732 0825 5F5F7569 		.ascii	"__uint32_t\000"
 2732      6E743332 
 2732      5F7400
 2733              	.LASF81:
ARM GAS  /var/folders/d2/nstgp4h54kz7g1l847x_b8wc0000gn/T//ccOi84Xu.s 			page 55


 2734 0830 70616E69 		.ascii	"panic_msg\000"
 2734      635F6D73 
 2734      6700
 2735              	.LASF107:
 2736 083a 6F666673 		.ascii	"offset\000"
 2736      657400
 2737              	.LASF96:
 2738 0841 636F6E74 		.ascii	"context\000"
 2738      65787400 
 2739              	.LASF48:
 2740 0849 705F6D73 		.ascii	"p_msg\000"
 2740      6700
 2741              	.LASF172:
 2742 084f 6368436F 		.ascii	"chCondWait\000"
 2742      6E645761 
 2742      697400
 2743              	.LASF75:
 2744 085a 76745F70 		.ascii	"vt_par\000"
 2744      617200
 2745              	.LASF143:
 2746 0861 63665F6F 		.ascii	"cf_off_ctx\000"
 2746      66665F63 
 2746      747800
 2747              	.LASF129:
 2748 086c 63685F6D 		.ascii	"ch_mutex\000"
 2748      75746578 
 2748      00
 2749              	.LASF43:
 2750 0875 705F7265 		.ascii	"p_refs\000"
 2750      667300
 2751              	.LASF82:
 2752 087c 6973725F 		.ascii	"isr_cnt\000"
 2752      636E7400 
 2753              	.LASF101:
 2754 0884 73655F73 		.ascii	"se_state\000"
 2754      74617465 
 2754      00
 2755              	.LASF87:
 2756 088d 726C6973 		.ascii	"rlist\000"
 2756      7400
 2757              	.LASF15:
 2758 0893 75696E74 		.ascii	"uint8_t\000"
 2758      385F7400 
 2759              	.LASF54:
 2760 089b 74687265 		.ascii	"thread_reference_t\000"
 2760      61645F72 
 2760      65666572 
 2760      656E6365 
 2760      5F7400
 2761              	.LASF121:
 2762 08ae 77746F62 		.ascii	"wtobjp\000"
 2762      6A7000
 2763              	.LASF39:
 2764 08b5 705F6E61 		.ascii	"p_name\000"
 2764      6D6500
 2765              	.LASF169:
 2766 08bc 6D657373 		.ascii	"messagebus_lock_release\000"
ARM GAS  /var/folders/d2/nstgp4h54kz7g1l847x_b8wc0000gn/T//ccOi84Xu.s 			page 56


 2766      61676562 
 2766      75735F6C 
 2766      6F636B5F 
 2766      72656C65 
 2767              	.LASF78:
 2768 08d4 76745F73 		.ascii	"vt_systime\000"
 2768      79737469 
 2768      6D6500
 2769              	.LASF84:
 2770 08df 74726163 		.ascii	"trace_buffer\000"
 2770      655F6275 
 2770      66666572 
 2770      00
 2771              	.LASF138:
 2772 08ec 63685F76 		.ascii	"ch_version\000"
 2772      65727369 
 2772      6F6E00
 2773              	.LASF171:
 2774 08f7 6D657373 		.ascii	"messagebus_lock_acquire\000"
 2774      61676562 
 2774      75735F6C 
 2774      6F636B5F 
 2774      61637175 
 2775              	.LASF170:
 2776 090f 6C6F636B 		.ascii	"lock\000"
 2776      00
 2777              	.LASF116:
 2778 0914 6D5F6372 		.ascii	"m_crit_thd\000"
 2778      69745F74 
 2778      686400
 2779              	.LASF131:
 2780 091f 6D5F6F77 		.ascii	"m_owner\000"
 2780      6E657200 
 2781              	.LASF100:
 2782 0927 73655F77 		.ascii	"se_wtobjp\000"
 2782      746F626A 
 2782      7000
 2783              	.LASF135:
 2784 0931 63685F69 		.ascii	"ch_identifier\000"
 2784      64656E74 
 2784      69666965 
 2784      7200
 2785              	.LASF74:
 2786 093f 76745F66 		.ascii	"vt_func\000"
 2786      756E6300 
 2787              		.ident	"GCC: (GNU Tools for Arm Embedded Processors 7-2017-q4-major) 7.2.1 20170904 (release) [ARM
ARM GAS  /var/folders/d2/nstgp4h54kz7g1l847x_b8wc0000gn/T//ccOi84Xu.s 			page 57


DEFINED SYMBOLS
                            *ABS*:0000000000000000 port.c
/var/folders/d2/nstgp4h54kz7g1l847x_b8wc0000gn/T//ccOi84Xu.s:18     .text.messagebus_lock_acquire:0000000000000000 $t
/var/folders/d2/nstgp4h54kz7g1l847x_b8wc0000gn/T//ccOi84Xu.s:26     .text.messagebus_lock_acquire:0000000000000000 messagebus_lock_acquire
/var/folders/d2/nstgp4h54kz7g1l847x_b8wc0000gn/T//ccOi84Xu.s:67     .text.messagebus_lock_acquire:0000000000000020 $d
/var/folders/d2/nstgp4h54kz7g1l847x_b8wc0000gn/T//ccOi84Xu.s:72     .text.messagebus_lock_release:0000000000000000 $t
/var/folders/d2/nstgp4h54kz7g1l847x_b8wc0000gn/T//ccOi84Xu.s:80     .text.messagebus_lock_release:0000000000000000 messagebus_lock_release
/var/folders/d2/nstgp4h54kz7g1l847x_b8wc0000gn/T//ccOi84Xu.s:120    .text.messagebus_lock_release:0000000000000020 $d
/var/folders/d2/nstgp4h54kz7g1l847x_b8wc0000gn/T//ccOi84Xu.s:125    .text.messagebus_condvar_broadcast:0000000000000000 $t
/var/folders/d2/nstgp4h54kz7g1l847x_b8wc0000gn/T//ccOi84Xu.s:133    .text.messagebus_condvar_broadcast:0000000000000000 messagebus_condvar_broadcast
/var/folders/d2/nstgp4h54kz7g1l847x_b8wc0000gn/T//ccOi84Xu.s:173    .text.messagebus_condvar_broadcast:0000000000000020 $d
/var/folders/d2/nstgp4h54kz7g1l847x_b8wc0000gn/T//ccOi84Xu.s:178    .text.messagebus_condvar_wait:0000000000000000 $t
/var/folders/d2/nstgp4h54kz7g1l847x_b8wc0000gn/T//ccOi84Xu.s:186    .text.messagebus_condvar_wait:0000000000000000 messagebus_condvar_wait
/var/folders/d2/nstgp4h54kz7g1l847x_b8wc0000gn/T//ccOi84Xu.s:226    .text.messagebus_condvar_wait:0000000000000020 $d

UNDEFINED SYMBOLS
chMtxLock
__stack_chk_fail
__stack_chk_guard
chMtxUnlock
chCondBroadcast
chCondWait
