ARM GAS  /var/folders/d2/nstgp4h54kz7g1l847x_b8wc0000gn/T//ccpEYjsf.s 			page 1


   1              		.cpu cortex-m4
   2              		.eabi_attribute 27, 1
   3              		.eabi_attribute 28, 1
   4              		.eabi_attribute 20, 1
   5              		.eabi_attribute 21, 1
   6              		.eabi_attribute 23, 3
   7              		.eabi_attribute 24, 1
   8              		.eabi_attribute 25, 1
   9              		.eabi_attribute 26, 1
  10              		.eabi_attribute 30, 6
  11              		.eabi_attribute 34, 1
  12              		.eabi_attribute 18, 4
  13              		.file	"pwm.c"
  14              		.section	.text.port_lock,"ax",%progbits
  15              		.align	1
  16              		.syntax unified
  17              		.thumb
  18              		.thumb_func
  19              		.fpu fpv4-sp-d16
  20              		.type	port_lock, %function
  21              	port_lock:
  22              		@ args = 0, pretend = 0, frame = 8
  23              		@ frame_needed = 1, uses_anonymous_args = 0
  24              		@ link register save eliminated.
  25 0000 80B4     		push	{r7}
  26 0002 83B0     		sub	sp, sp, #12
  27 0004 00AF     		add	r7, sp, #0
  28 0006 2023     		movs	r3, #32
  29 0008 7B60     		str	r3, [r7, #4]
  30 000a 7B68     		ldr	r3, [r7, #4]
  31              		.syntax unified
  32              	@ 546 "../e-puck2_main-processor/ChibiOS//os/ext/CMSIS/include/core_cmFunc.h" 1
  33 000c 83F31188 		MSR basepri, r3
  34              	@ 0 "" 2
  35              		.thumb
  36              		.syntax unified
  37 0010 00BF     		nop
  38 0012 0C37     		adds	r7, r7, #12
  39 0014 BD46     		mov	sp, r7
  40              		@ sp needed
  41 0016 5DF8047B 		ldr	r7, [sp], #4
  42 001a 7047     		bx	lr
  43              		.size	port_lock, .-port_lock
  44              		.section	.text.port_unlock,"ax",%progbits
  45              		.align	1
  46              		.syntax unified
  47              		.thumb
  48              		.thumb_func
  49              		.fpu fpv4-sp-d16
  50              		.type	port_unlock, %function
  51              	port_unlock:
  52              		@ args = 0, pretend = 0, frame = 8
  53              		@ frame_needed = 1, uses_anonymous_args = 0
  54              		@ link register save eliminated.
  55 0000 80B4     		push	{r7}
  56 0002 83B0     		sub	sp, sp, #12
  57 0004 00AF     		add	r7, sp, #0
ARM GAS  /var/folders/d2/nstgp4h54kz7g1l847x_b8wc0000gn/T//ccpEYjsf.s 			page 2


  58 0006 0023     		movs	r3, #0
  59 0008 7B60     		str	r3, [r7, #4]
  60 000a 7B68     		ldr	r3, [r7, #4]
  61              		.syntax unified
  62              	@ 546 "../e-puck2_main-processor/ChibiOS//os/ext/CMSIS/include/core_cmFunc.h" 1
  63 000c 83F31188 		MSR basepri, r3
  64              	@ 0 "" 2
  65              		.thumb
  66              		.syntax unified
  67 0010 00BF     		nop
  68 0012 0C37     		adds	r7, r7, #12
  69 0014 BD46     		mov	sp, r7
  70              		@ sp needed
  71 0016 5DF8047B 		ldr	r7, [sp], #4
  72 001a 7047     		bx	lr
  73              		.size	port_unlock, .-port_unlock
  74              		.section	.text.chSysLock,"ax",%progbits
  75              		.align	1
  76              		.syntax unified
  77              		.thumb
  78              		.thumb_func
  79              		.fpu fpv4-sp-d16
  80              		.type	chSysLock, %function
  81              	chSysLock:
  82              		@ args = 0, pretend = 0, frame = 0
  83              		@ frame_needed = 1, uses_anonymous_args = 0
  84 0000 80B5     		push	{r7, lr}
  85 0002 00AF     		add	r7, sp, #0
  86 0004 FFF7FEFF 		bl	port_lock
  87 0008 FFF7FEFF 		bl	_stats_start_measure_crit_thd
  88 000c FFF7FEFF 		bl	_dbg_check_lock
  89 0010 00BF     		nop
  90 0012 80BD     		pop	{r7, pc}
  91              		.size	chSysLock, .-chSysLock
  92              		.section	.text.chSysUnlock,"ax",%progbits
  93              		.align	1
  94              		.syntax unified
  95              		.thumb
  96              		.thumb_func
  97              		.fpu fpv4-sp-d16
  98              		.type	chSysUnlock, %function
  99              	chSysUnlock:
 100              		@ args = 0, pretend = 0, frame = 0
 101              		@ frame_needed = 1, uses_anonymous_args = 0
 102 0000 80B5     		push	{r7, lr}
 103 0002 00AF     		add	r7, sp, #0
 104 0004 FFF7FEFF 		bl	_dbg_check_unlock
 105 0008 FFF7FEFF 		bl	_stats_stop_measure_crit_thd
 106 000c 094B     		ldr	r3, .L6
 107 000e 1B68     		ldr	r3, [r3]
 108 0010 084A     		ldr	r2, .L6
 109 0012 9342     		cmp	r3, r2
 110 0014 0AD0     		beq	.L5
 111 0016 074B     		ldr	r3, .L6
 112 0018 9B69     		ldr	r3, [r3, #24]
 113 001a 9A68     		ldr	r2, [r3, #8]
 114 001c 054B     		ldr	r3, .L6
ARM GAS  /var/folders/d2/nstgp4h54kz7g1l847x_b8wc0000gn/T//ccpEYjsf.s 			page 3


 115 001e 1B68     		ldr	r3, [r3]
 116 0020 9B68     		ldr	r3, [r3, #8]
 117 0022 9A42     		cmp	r2, r3
 118 0024 02D2     		bcs	.L5
 119 0026 0448     		ldr	r0, .L6+4
 120 0028 FFF7FEFF 		bl	chSysHalt
 121              	.L5:
 122 002c FFF7FEFF 		bl	port_unlock
 123 0030 00BF     		nop
 124 0032 80BD     		pop	{r7, pc}
 125              	.L7:
 126              		.align	2
 127              	.L6:
 128 0034 00000000 		.word	ch
 129 0038 00000000 		.word	__func__.7153
 130              		.size	chSysUnlock, .-chSysUnlock
 131              		.section	.text.osalSysLock,"ax",%progbits
 132              		.align	1
 133              		.syntax unified
 134              		.thumb
 135              		.thumb_func
 136              		.fpu fpv4-sp-d16
 137              		.type	osalSysLock, %function
 138              	osalSysLock:
 139              		@ args = 0, pretend = 0, frame = 0
 140              		@ frame_needed = 1, uses_anonymous_args = 0
 141 0000 80B5     		push	{r7, lr}
 142 0002 00AF     		add	r7, sp, #0
 143 0004 FFF7FEFF 		bl	chSysLock
 144 0008 00BF     		nop
 145 000a 80BD     		pop	{r7, pc}
 146              		.size	osalSysLock, .-osalSysLock
 147              		.section	.text.osalSysUnlock,"ax",%progbits
 148              		.align	1
 149              		.syntax unified
 150              		.thumb
 151              		.thumb_func
 152              		.fpu fpv4-sp-d16
 153              		.type	osalSysUnlock, %function
 154              	osalSysUnlock:
 155              		@ args = 0, pretend = 0, frame = 0
 156              		@ frame_needed = 1, uses_anonymous_args = 0
 157 0000 80B5     		push	{r7, lr}
 158 0002 00AF     		add	r7, sp, #0
 159 0004 FFF7FEFF 		bl	chSysUnlock
 160 0008 00BF     		nop
 161 000a 80BD     		pop	{r7, pc}
 162              		.size	osalSysUnlock, .-osalSysUnlock
 163              		.section	.text.pwmInit,"ax",%progbits
 164              		.align	1
 165              		.global	pwmInit
 166              		.syntax unified
 167              		.thumb
 168              		.thumb_func
 169              		.fpu fpv4-sp-d16
 170              		.type	pwmInit, %function
 171              	pwmInit:
ARM GAS  /var/folders/d2/nstgp4h54kz7g1l847x_b8wc0000gn/T//ccpEYjsf.s 			page 4


 172              		@ args = 0, pretend = 0, frame = 0
 173              		@ frame_needed = 1, uses_anonymous_args = 0
 174 0000 80B5     		push	{r7, lr}
 175 0002 00AF     		add	r7, sp, #0
 176 0004 FFF7FEFF 		bl	pwm_lld_init
 177 0008 00BF     		nop
 178 000a 80BD     		pop	{r7, pc}
 179              		.size	pwmInit, .-pwmInit
 180              		.section	.text.pwmObjectInit,"ax",%progbits
 181              		.align	1
 182              		.global	pwmObjectInit
 183              		.syntax unified
 184              		.thumb
 185              		.thumb_func
 186              		.fpu fpv4-sp-d16
 187              		.type	pwmObjectInit, %function
 188              	pwmObjectInit:
 189              		@ args = 0, pretend = 0, frame = 8
 190              		@ frame_needed = 1, uses_anonymous_args = 0
 191              		@ link register save eliminated.
 192 0000 80B4     		push	{r7}
 193 0002 83B0     		sub	sp, sp, #12
 194 0004 00AF     		add	r7, sp, #0
 195 0006 7860     		str	r0, [r7, #4]
 196 0008 7B68     		ldr	r3, [r7, #4]
 197 000a 0122     		movs	r2, #1
 198 000c 1A70     		strb	r2, [r3]
 199 000e 7B68     		ldr	r3, [r7, #4]
 200 0010 0022     		movs	r2, #0
 201 0012 5A60     		str	r2, [r3, #4]
 202 0014 7B68     		ldr	r3, [r7, #4]
 203 0016 0022     		movs	r2, #0
 204 0018 DA60     		str	r2, [r3, #12]
 205 001a 7B68     		ldr	r3, [r7, #4]
 206 001c 0022     		movs	r2, #0
 207 001e 1A74     		strb	r2, [r3, #16]
 208 0020 00BF     		nop
 209 0022 0C37     		adds	r7, r7, #12
 210 0024 BD46     		mov	sp, r7
 211              		@ sp needed
 212 0026 5DF8047B 		ldr	r7, [sp], #4
 213 002a 7047     		bx	lr
 214              		.size	pwmObjectInit, .-pwmObjectInit
 215              		.section	.text.pwmStart,"ax",%progbits
 216              		.align	1
 217              		.global	pwmStart
 218              		.syntax unified
 219              		.thumb
 220              		.thumb_func
 221              		.fpu fpv4-sp-d16
 222              		.type	pwmStart, %function
 223              	pwmStart:
 224              		@ args = 0, pretend = 0, frame = 8
 225              		@ frame_needed = 1, uses_anonymous_args = 0
 226 0000 80B5     		push	{r7, lr}
 227 0002 82B0     		sub	sp, sp, #8
 228 0004 00AF     		add	r7, sp, #0
ARM GAS  /var/folders/d2/nstgp4h54kz7g1l847x_b8wc0000gn/T//ccpEYjsf.s 			page 5


 229 0006 7860     		str	r0, [r7, #4]
 230 0008 3960     		str	r1, [r7]
 231 000a 7B68     		ldr	r3, [r7, #4]
 232 000c 002B     		cmp	r3, #0
 233 000e 02D0     		beq	.L13
 234 0010 3B68     		ldr	r3, [r7]
 235 0012 002B     		cmp	r3, #0
 236 0014 02D1     		bne	.L14
 237              	.L13:
 238 0016 1348     		ldr	r0, .L16
 239 0018 FFF7FEFF 		bl	chSysHalt
 240              	.L14:
 241 001c FFF7FEFF 		bl	osalSysLock
 242 0020 7B68     		ldr	r3, [r7, #4]
 243 0022 1B78     		ldrb	r3, [r3]	@ zero_extendqisi2
 244 0024 012B     		cmp	r3, #1
 245 0026 06D0     		beq	.L15
 246 0028 7B68     		ldr	r3, [r7, #4]
 247 002a 1B78     		ldrb	r3, [r3]	@ zero_extendqisi2
 248 002c 022B     		cmp	r3, #2
 249 002e 02D0     		beq	.L15
 250 0030 0C48     		ldr	r0, .L16
 251 0032 FFF7FEFF 		bl	chSysHalt
 252              	.L15:
 253 0036 7B68     		ldr	r3, [r7, #4]
 254 0038 3A68     		ldr	r2, [r7]
 255 003a 5A60     		str	r2, [r3, #4]
 256 003c 3B68     		ldr	r3, [r7]
 257 003e 5A68     		ldr	r2, [r3, #4]
 258 0040 7B68     		ldr	r3, [r7, #4]
 259 0042 9A60     		str	r2, [r3, #8]
 260 0044 7868     		ldr	r0, [r7, #4]
 261 0046 FFF7FEFF 		bl	pwm_lld_start
 262 004a 7B68     		ldr	r3, [r7, #4]
 263 004c 0022     		movs	r2, #0
 264 004e DA60     		str	r2, [r3, #12]
 265 0050 7B68     		ldr	r3, [r7, #4]
 266 0052 0222     		movs	r2, #2
 267 0054 1A70     		strb	r2, [r3]
 268 0056 FFF7FEFF 		bl	osalSysUnlock
 269 005a 00BF     		nop
 270 005c 0837     		adds	r7, r7, #8
 271 005e BD46     		mov	sp, r7
 272              		@ sp needed
 273 0060 80BD     		pop	{r7, pc}
 274              	.L17:
 275 0062 00BF     		.align	2
 276              	.L16:
 277 0064 00000000 		.word	__func__.9848
 278              		.size	pwmStart, .-pwmStart
 279              		.section	.text.pwmStop,"ax",%progbits
 280              		.align	1
 281              		.global	pwmStop
 282              		.syntax unified
 283              		.thumb
 284              		.thumb_func
 285              		.fpu fpv4-sp-d16
ARM GAS  /var/folders/d2/nstgp4h54kz7g1l847x_b8wc0000gn/T//ccpEYjsf.s 			page 6


 286              		.type	pwmStop, %function
 287              	pwmStop:
 288              		@ args = 0, pretend = 0, frame = 8
 289              		@ frame_needed = 1, uses_anonymous_args = 0
 290 0000 80B5     		push	{r7, lr}
 291 0002 82B0     		sub	sp, sp, #8
 292 0004 00AF     		add	r7, sp, #0
 293 0006 7860     		str	r0, [r7, #4]
 294 0008 7B68     		ldr	r3, [r7, #4]
 295 000a 002B     		cmp	r3, #0
 296 000c 02D1     		bne	.L19
 297 000e 0F48     		ldr	r0, .L21
 298 0010 FFF7FEFF 		bl	chSysHalt
 299              	.L19:
 300 0014 FFF7FEFF 		bl	osalSysLock
 301 0018 7B68     		ldr	r3, [r7, #4]
 302 001a 1B78     		ldrb	r3, [r3]	@ zero_extendqisi2
 303 001c 012B     		cmp	r3, #1
 304 001e 06D0     		beq	.L20
 305 0020 7B68     		ldr	r3, [r7, #4]
 306 0022 1B78     		ldrb	r3, [r3]	@ zero_extendqisi2
 307 0024 022B     		cmp	r3, #2
 308 0026 02D0     		beq	.L20
 309 0028 0848     		ldr	r0, .L21
 310 002a FFF7FEFF 		bl	chSysHalt
 311              	.L20:
 312 002e 7868     		ldr	r0, [r7, #4]
 313 0030 FFF7FEFF 		bl	pwm_lld_stop
 314 0034 7B68     		ldr	r3, [r7, #4]
 315 0036 0022     		movs	r2, #0
 316 0038 DA60     		str	r2, [r3, #12]
 317 003a 7B68     		ldr	r3, [r7, #4]
 318 003c 0122     		movs	r2, #1
 319 003e 1A70     		strb	r2, [r3]
 320 0040 FFF7FEFF 		bl	osalSysUnlock
 321 0044 00BF     		nop
 322 0046 0837     		adds	r7, r7, #8
 323 0048 BD46     		mov	sp, r7
 324              		@ sp needed
 325 004a 80BD     		pop	{r7, pc}
 326              	.L22:
 327              		.align	2
 328              	.L21:
 329 004c 00000000 		.word	__func__.9852
 330              		.size	pwmStop, .-pwmStop
 331              		.section	.text.pwmChangePeriod,"ax",%progbits
 332              		.align	1
 333              		.global	pwmChangePeriod
 334              		.syntax unified
 335              		.thumb
 336              		.thumb_func
 337              		.fpu fpv4-sp-d16
 338              		.type	pwmChangePeriod, %function
 339              	pwmChangePeriod:
 340              		@ args = 0, pretend = 0, frame = 8
 341              		@ frame_needed = 1, uses_anonymous_args = 0
 342 0000 80B5     		push	{r7, lr}
ARM GAS  /var/folders/d2/nstgp4h54kz7g1l847x_b8wc0000gn/T//ccpEYjsf.s 			page 7


 343 0002 82B0     		sub	sp, sp, #8
 344 0004 00AF     		add	r7, sp, #0
 345 0006 7860     		str	r0, [r7, #4]
 346 0008 3960     		str	r1, [r7]
 347 000a 7B68     		ldr	r3, [r7, #4]
 348 000c 002B     		cmp	r3, #0
 349 000e 02D1     		bne	.L24
 350 0010 0C48     		ldr	r0, .L26
 351 0012 FFF7FEFF 		bl	chSysHalt
 352              	.L24:
 353 0016 FFF7FEFF 		bl	osalSysLock
 354 001a 7B68     		ldr	r3, [r7, #4]
 355 001c 1B78     		ldrb	r3, [r3]	@ zero_extendqisi2
 356 001e 022B     		cmp	r3, #2
 357 0020 02D0     		beq	.L25
 358 0022 0848     		ldr	r0, .L26
 359 0024 FFF7FEFF 		bl	chSysHalt
 360              	.L25:
 361 0028 7B68     		ldr	r3, [r7, #4]
 362 002a 3A68     		ldr	r2, [r7]
 363 002c 9A60     		str	r2, [r3, #8]
 364 002e 7B68     		ldr	r3, [r7, #4]
 365 0030 9B69     		ldr	r3, [r3, #24]
 366 0032 3A68     		ldr	r2, [r7]
 367 0034 013A     		subs	r2, r2, #1
 368 0036 DA62     		str	r2, [r3, #44]
 369 0038 FFF7FEFF 		bl	osalSysUnlock
 370 003c 00BF     		nop
 371 003e 0837     		adds	r7, r7, #8
 372 0040 BD46     		mov	sp, r7
 373              		@ sp needed
 374 0042 80BD     		pop	{r7, pc}
 375              	.L27:
 376              		.align	2
 377              	.L26:
 378 0044 00000000 		.word	__func__.9857
 379              		.size	pwmChangePeriod, .-pwmChangePeriod
 380              		.section	.text.pwmEnableChannel,"ax",%progbits
 381              		.align	1
 382              		.global	pwmEnableChannel
 383              		.syntax unified
 384              		.thumb
 385              		.thumb_func
 386              		.fpu fpv4-sp-d16
 387              		.type	pwmEnableChannel, %function
 388              	pwmEnableChannel:
 389              		@ args = 0, pretend = 0, frame = 16
 390              		@ frame_needed = 1, uses_anonymous_args = 0
 391 0000 80B5     		push	{r7, lr}
 392 0002 84B0     		sub	sp, sp, #16
 393 0004 00AF     		add	r7, sp, #0
 394 0006 F860     		str	r0, [r7, #12]
 395 0008 0B46     		mov	r3, r1
 396 000a 7A60     		str	r2, [r7, #4]
 397 000c FB72     		strb	r3, [r7, #11]
 398 000e FB68     		ldr	r3, [r7, #12]
 399 0010 002B     		cmp	r3, #0
ARM GAS  /var/folders/d2/nstgp4h54kz7g1l847x_b8wc0000gn/T//ccpEYjsf.s 			page 8


 400 0012 04D0     		beq	.L29
 401 0014 FB68     		ldr	r3, [r7, #12]
 402 0016 1B7C     		ldrb	r3, [r3, #16]	@ zero_extendqisi2
 403 0018 FA7A     		ldrb	r2, [r7, #11]	@ zero_extendqisi2
 404 001a 9A42     		cmp	r2, r3
 405 001c 02D3     		bcc	.L30
 406              	.L29:
 407 001e 1048     		ldr	r0, .L32
 408 0020 FFF7FEFF 		bl	chSysHalt
 409              	.L30:
 410 0024 FFF7FEFF 		bl	osalSysLock
 411 0028 FB68     		ldr	r3, [r7, #12]
 412 002a 1B78     		ldrb	r3, [r3]	@ zero_extendqisi2
 413 002c 022B     		cmp	r3, #2
 414 002e 02D0     		beq	.L31
 415 0030 0B48     		ldr	r0, .L32
 416 0032 FFF7FEFF 		bl	chSysHalt
 417              	.L31:
 418 0036 FB68     		ldr	r3, [r7, #12]
 419 0038 DA68     		ldr	r2, [r3, #12]
 420 003a FB7A     		ldrb	r3, [r7, #11]	@ zero_extendqisi2
 421 003c 0121     		movs	r1, #1
 422 003e 01FA03F3 		lsl	r3, r1, r3
 423 0042 1A43     		orrs	r2, r2, r3
 424 0044 FB68     		ldr	r3, [r7, #12]
 425 0046 DA60     		str	r2, [r3, #12]
 426 0048 FB7A     		ldrb	r3, [r7, #11]	@ zero_extendqisi2
 427 004a 7A68     		ldr	r2, [r7, #4]
 428 004c 1946     		mov	r1, r3
 429 004e F868     		ldr	r0, [r7, #12]
 430 0050 FFF7FEFF 		bl	pwm_lld_enable_channel
 431 0054 FFF7FEFF 		bl	osalSysUnlock
 432 0058 00BF     		nop
 433 005a 1037     		adds	r7, r7, #16
 434 005c BD46     		mov	sp, r7
 435              		@ sp needed
 436 005e 80BD     		pop	{r7, pc}
 437              	.L33:
 438              		.align	2
 439              	.L32:
 440 0060 00000000 		.word	__func__.9863
 441              		.size	pwmEnableChannel, .-pwmEnableChannel
 442              		.section	.text.pwmDisableChannel,"ax",%progbits
 443              		.align	1
 444              		.global	pwmDisableChannel
 445              		.syntax unified
 446              		.thumb
 447              		.thumb_func
 448              		.fpu fpv4-sp-d16
 449              		.type	pwmDisableChannel, %function
 450              	pwmDisableChannel:
 451              		@ args = 0, pretend = 0, frame = 8
 452              		@ frame_needed = 1, uses_anonymous_args = 0
 453 0000 80B5     		push	{r7, lr}
 454 0002 82B0     		sub	sp, sp, #8
 455 0004 00AF     		add	r7, sp, #0
 456 0006 7860     		str	r0, [r7, #4]
ARM GAS  /var/folders/d2/nstgp4h54kz7g1l847x_b8wc0000gn/T//ccpEYjsf.s 			page 9


 457 0008 0B46     		mov	r3, r1
 458 000a FB70     		strb	r3, [r7, #3]
 459 000c 7B68     		ldr	r3, [r7, #4]
 460 000e 002B     		cmp	r3, #0
 461 0010 04D0     		beq	.L35
 462 0012 7B68     		ldr	r3, [r7, #4]
 463 0014 1B7C     		ldrb	r3, [r3, #16]	@ zero_extendqisi2
 464 0016 FA78     		ldrb	r2, [r7, #3]	@ zero_extendqisi2
 465 0018 9A42     		cmp	r2, r3
 466 001a 02D3     		bcc	.L36
 467              	.L35:
 468 001c 1048     		ldr	r0, .L38
 469 001e FFF7FEFF 		bl	chSysHalt
 470              	.L36:
 471 0022 FFF7FEFF 		bl	osalSysLock
 472 0026 7B68     		ldr	r3, [r7, #4]
 473 0028 1B78     		ldrb	r3, [r3]	@ zero_extendqisi2
 474 002a 022B     		cmp	r3, #2
 475 002c 02D0     		beq	.L37
 476 002e 0C48     		ldr	r0, .L38
 477 0030 FFF7FEFF 		bl	chSysHalt
 478              	.L37:
 479 0034 7B68     		ldr	r3, [r7, #4]
 480 0036 DA68     		ldr	r2, [r3, #12]
 481 0038 FB78     		ldrb	r3, [r7, #3]	@ zero_extendqisi2
 482 003a 0121     		movs	r1, #1
 483 003c 01FA03F3 		lsl	r3, r1, r3
 484 0040 DB43     		mvns	r3, r3
 485 0042 1A40     		ands	r2, r2, r3
 486 0044 7B68     		ldr	r3, [r7, #4]
 487 0046 DA60     		str	r2, [r3, #12]
 488 0048 FB78     		ldrb	r3, [r7, #3]	@ zero_extendqisi2
 489 004a 1946     		mov	r1, r3
 490 004c 7868     		ldr	r0, [r7, #4]
 491 004e FFF7FEFF 		bl	pwm_lld_disable_channel
 492 0052 FFF7FEFF 		bl	osalSysUnlock
 493 0056 00BF     		nop
 494 0058 0837     		adds	r7, r7, #8
 495 005a BD46     		mov	sp, r7
 496              		@ sp needed
 497 005c 80BD     		pop	{r7, pc}
 498              	.L39:
 499 005e 00BF     		.align	2
 500              	.L38:
 501 0060 00000000 		.word	__func__.9868
 502              		.size	pwmDisableChannel, .-pwmDisableChannel
 503              		.section	.text.pwmEnablePeriodicNotification,"ax",%progbits
 504              		.align	1
 505              		.global	pwmEnablePeriodicNotification
 506              		.syntax unified
 507              		.thumb
 508              		.thumb_func
 509              		.fpu fpv4-sp-d16
 510              		.type	pwmEnablePeriodicNotification, %function
 511              	pwmEnablePeriodicNotification:
 512              		@ args = 0, pretend = 0, frame = 8
 513              		@ frame_needed = 1, uses_anonymous_args = 0
ARM GAS  /var/folders/d2/nstgp4h54kz7g1l847x_b8wc0000gn/T//ccpEYjsf.s 			page 10


 514 0000 80B5     		push	{r7, lr}
 515 0002 82B0     		sub	sp, sp, #8
 516 0004 00AF     		add	r7, sp, #0
 517 0006 7860     		str	r0, [r7, #4]
 518 0008 7B68     		ldr	r3, [r7, #4]
 519 000a 002B     		cmp	r3, #0
 520 000c 02D1     		bne	.L41
 521 000e 0E48     		ldr	r0, .L45
 522 0010 FFF7FEFF 		bl	chSysHalt
 523              	.L41:
 524 0014 FFF7FEFF 		bl	osalSysLock
 525 0018 7B68     		ldr	r3, [r7, #4]
 526 001a 1B78     		ldrb	r3, [r3]	@ zero_extendqisi2
 527 001c 022B     		cmp	r3, #2
 528 001e 02D0     		beq	.L44
 529 0020 0948     		ldr	r0, .L45
 530 0022 FFF7FEFF 		bl	chSysHalt
 531              	.L44:
 532 0026 7B68     		ldr	r3, [r7, #4]
 533 0028 5B68     		ldr	r3, [r3, #4]
 534 002a 9B68     		ldr	r3, [r3, #8]
 535 002c 002B     		cmp	r3, #0
 536 002e 02D1     		bne	.L43
 537 0030 0548     		ldr	r0, .L45
 538 0032 FFF7FEFF 		bl	chSysHalt
 539              	.L43:
 540 0036 7868     		ldr	r0, [r7, #4]
 541 0038 FFF7FEFF 		bl	pwm_lld_enable_periodic_notification
 542 003c FFF7FEFF 		bl	osalSysUnlock
 543 0040 00BF     		nop
 544 0042 0837     		adds	r7, r7, #8
 545 0044 BD46     		mov	sp, r7
 546              		@ sp needed
 547 0046 80BD     		pop	{r7, pc}
 548              	.L46:
 549              		.align	2
 550              	.L45:
 551 0048 00000000 		.word	__func__.9872
 552              		.size	pwmEnablePeriodicNotification, .-pwmEnablePeriodicNotification
 553              		.section	.text.pwmDisablePeriodicNotification,"ax",%progbits
 554              		.align	1
 555              		.global	pwmDisablePeriodicNotification
 556              		.syntax unified
 557              		.thumb
 558              		.thumb_func
 559              		.fpu fpv4-sp-d16
 560              		.type	pwmDisablePeriodicNotification, %function
 561              	pwmDisablePeriodicNotification:
 562              		@ args = 0, pretend = 0, frame = 8
 563              		@ frame_needed = 1, uses_anonymous_args = 0
 564 0000 80B5     		push	{r7, lr}
 565 0002 82B0     		sub	sp, sp, #8
 566 0004 00AF     		add	r7, sp, #0
 567 0006 7860     		str	r0, [r7, #4]
 568 0008 7B68     		ldr	r3, [r7, #4]
 569 000a 002B     		cmp	r3, #0
 570 000c 02D1     		bne	.L48
ARM GAS  /var/folders/d2/nstgp4h54kz7g1l847x_b8wc0000gn/T//ccpEYjsf.s 			page 11


 571 000e 0E48     		ldr	r0, .L52
 572 0010 FFF7FEFF 		bl	chSysHalt
 573              	.L48:
 574 0014 FFF7FEFF 		bl	osalSysLock
 575 0018 7B68     		ldr	r3, [r7, #4]
 576 001a 1B78     		ldrb	r3, [r3]	@ zero_extendqisi2
 577 001c 022B     		cmp	r3, #2
 578 001e 02D0     		beq	.L51
 579 0020 0948     		ldr	r0, .L52
 580 0022 FFF7FEFF 		bl	chSysHalt
 581              	.L51:
 582 0026 7B68     		ldr	r3, [r7, #4]
 583 0028 5B68     		ldr	r3, [r3, #4]
 584 002a 9B68     		ldr	r3, [r3, #8]
 585 002c 002B     		cmp	r3, #0
 586 002e 02D1     		bne	.L50
 587 0030 0548     		ldr	r0, .L52
 588 0032 FFF7FEFF 		bl	chSysHalt
 589              	.L50:
 590 0036 7868     		ldr	r0, [r7, #4]
 591 0038 FFF7FEFF 		bl	pwm_lld_disable_periodic_notification
 592 003c FFF7FEFF 		bl	osalSysUnlock
 593 0040 00BF     		nop
 594 0042 0837     		adds	r7, r7, #8
 595 0044 BD46     		mov	sp, r7
 596              		@ sp needed
 597 0046 80BD     		pop	{r7, pc}
 598              	.L53:
 599              		.align	2
 600              	.L52:
 601 0048 00000000 		.word	__func__.9876
 602              		.size	pwmDisablePeriodicNotification, .-pwmDisablePeriodicNotification
 603              		.section	.text.pwmEnableChannelNotification,"ax",%progbits
 604              		.align	1
 605              		.global	pwmEnableChannelNotification
 606              		.syntax unified
 607              		.thumb
 608              		.thumb_func
 609              		.fpu fpv4-sp-d16
 610              		.type	pwmEnableChannelNotification, %function
 611              	pwmEnableChannelNotification:
 612              		@ args = 0, pretend = 0, frame = 8
 613              		@ frame_needed = 1, uses_anonymous_args = 0
 614 0000 80B5     		push	{r7, lr}
 615 0002 82B0     		sub	sp, sp, #8
 616 0004 00AF     		add	r7, sp, #0
 617 0006 7860     		str	r0, [r7, #4]
 618 0008 0B46     		mov	r3, r1
 619 000a FB70     		strb	r3, [r7, #3]
 620 000c 7B68     		ldr	r3, [r7, #4]
 621 000e 002B     		cmp	r3, #0
 622 0010 04D0     		beq	.L55
 623 0012 7B68     		ldr	r3, [r7, #4]
 624 0014 1B7C     		ldrb	r3, [r3, #16]	@ zero_extendqisi2
 625 0016 FA78     		ldrb	r2, [r7, #3]	@ zero_extendqisi2
 626 0018 9A42     		cmp	r2, r3
 627 001a 02D3     		bcc	.L56
ARM GAS  /var/folders/d2/nstgp4h54kz7g1l847x_b8wc0000gn/T//ccpEYjsf.s 			page 12


 628              	.L55:
 629 001c 1748     		ldr	r0, .L62
 630 001e FFF7FEFF 		bl	chSysHalt
 631              	.L56:
 632 0022 FFF7FEFF 		bl	osalSysLock
 633 0026 7B68     		ldr	r3, [r7, #4]
 634 0028 1B78     		ldrb	r3, [r3]	@ zero_extendqisi2
 635 002a 022B     		cmp	r3, #2
 636 002c 02D0     		beq	.L60
 637 002e 1348     		ldr	r0, .L62
 638 0030 FFF7FEFF 		bl	chSysHalt
 639              	.L60:
 640 0034 7B68     		ldr	r3, [r7, #4]
 641 0036 DA68     		ldr	r2, [r3, #12]
 642 0038 FB78     		ldrb	r3, [r7, #3]	@ zero_extendqisi2
 643 003a 22FA03F3 		lsr	r3, r2, r3
 644 003e 03F00103 		and	r3, r3, #1
 645 0042 002B     		cmp	r3, #0
 646 0044 02D1     		bne	.L61
 647 0046 0D48     		ldr	r0, .L62
 648 0048 FFF7FEFF 		bl	chSysHalt
 649              	.L61:
 650 004c 7B68     		ldr	r3, [r7, #4]
 651 004e 5A68     		ldr	r2, [r3, #4]
 652 0050 FB78     		ldrb	r3, [r7, #3]	@ zero_extendqisi2
 653 0052 0133     		adds	r3, r3, #1
 654 0054 DB00     		lsls	r3, r3, #3
 655 0056 1344     		add	r3, r3, r2
 656 0058 9B68     		ldr	r3, [r3, #8]
 657 005a 002B     		cmp	r3, #0
 658 005c 02D1     		bne	.L59
 659 005e 0748     		ldr	r0, .L62
 660 0060 FFF7FEFF 		bl	chSysHalt
 661              	.L59:
 662 0064 FB78     		ldrb	r3, [r7, #3]	@ zero_extendqisi2
 663 0066 1946     		mov	r1, r3
 664 0068 7868     		ldr	r0, [r7, #4]
 665 006a FFF7FEFF 		bl	pwm_lld_enable_channel_notification
 666 006e FFF7FEFF 		bl	osalSysUnlock
 667 0072 00BF     		nop
 668 0074 0837     		adds	r7, r7, #8
 669 0076 BD46     		mov	sp, r7
 670              		@ sp needed
 671 0078 80BD     		pop	{r7, pc}
 672              	.L63:
 673 007a 00BF     		.align	2
 674              	.L62:
 675 007c 00000000 		.word	__func__.9881
 676              		.size	pwmEnableChannelNotification, .-pwmEnableChannelNotification
 677              		.section	.text.pwmDisableChannelNotification,"ax",%progbits
 678              		.align	1
 679              		.global	pwmDisableChannelNotification
 680              		.syntax unified
 681              		.thumb
 682              		.thumb_func
 683              		.fpu fpv4-sp-d16
 684              		.type	pwmDisableChannelNotification, %function
ARM GAS  /var/folders/d2/nstgp4h54kz7g1l847x_b8wc0000gn/T//ccpEYjsf.s 			page 13


 685              	pwmDisableChannelNotification:
 686              		@ args = 0, pretend = 0, frame = 8
 687              		@ frame_needed = 1, uses_anonymous_args = 0
 688 0000 80B5     		push	{r7, lr}
 689 0002 82B0     		sub	sp, sp, #8
 690 0004 00AF     		add	r7, sp, #0
 691 0006 7860     		str	r0, [r7, #4]
 692 0008 0B46     		mov	r3, r1
 693 000a FB70     		strb	r3, [r7, #3]
 694 000c 7B68     		ldr	r3, [r7, #4]
 695 000e 002B     		cmp	r3, #0
 696 0010 04D0     		beq	.L65
 697 0012 7B68     		ldr	r3, [r7, #4]
 698 0014 1B7C     		ldrb	r3, [r3, #16]	@ zero_extendqisi2
 699 0016 FA78     		ldrb	r2, [r7, #3]	@ zero_extendqisi2
 700 0018 9A42     		cmp	r2, r3
 701 001a 02D3     		bcc	.L66
 702              	.L65:
 703 001c 1748     		ldr	r0, .L72
 704 001e FFF7FEFF 		bl	chSysHalt
 705              	.L66:
 706 0022 FFF7FEFF 		bl	osalSysLock
 707 0026 7B68     		ldr	r3, [r7, #4]
 708 0028 1B78     		ldrb	r3, [r3]	@ zero_extendqisi2
 709 002a 022B     		cmp	r3, #2
 710 002c 02D0     		beq	.L70
 711 002e 1348     		ldr	r0, .L72
 712 0030 FFF7FEFF 		bl	chSysHalt
 713              	.L70:
 714 0034 7B68     		ldr	r3, [r7, #4]
 715 0036 DA68     		ldr	r2, [r3, #12]
 716 0038 FB78     		ldrb	r3, [r7, #3]	@ zero_extendqisi2
 717 003a 22FA03F3 		lsr	r3, r2, r3
 718 003e 03F00103 		and	r3, r3, #1
 719 0042 002B     		cmp	r3, #0
 720 0044 02D1     		bne	.L71
 721 0046 0D48     		ldr	r0, .L72
 722 0048 FFF7FEFF 		bl	chSysHalt
 723              	.L71:
 724 004c 7B68     		ldr	r3, [r7, #4]
 725 004e 5A68     		ldr	r2, [r3, #4]
 726 0050 FB78     		ldrb	r3, [r7, #3]	@ zero_extendqisi2
 727 0052 0133     		adds	r3, r3, #1
 728 0054 DB00     		lsls	r3, r3, #3
 729 0056 1344     		add	r3, r3, r2
 730 0058 9B68     		ldr	r3, [r3, #8]
 731 005a 002B     		cmp	r3, #0
 732 005c 02D1     		bne	.L69
 733 005e 0748     		ldr	r0, .L72
 734 0060 FFF7FEFF 		bl	chSysHalt
 735              	.L69:
 736 0064 FB78     		ldrb	r3, [r7, #3]	@ zero_extendqisi2
 737 0066 1946     		mov	r1, r3
 738 0068 7868     		ldr	r0, [r7, #4]
 739 006a FFF7FEFF 		bl	pwm_lld_disable_channel_notification
 740 006e FFF7FEFF 		bl	osalSysUnlock
 741 0072 00BF     		nop
ARM GAS  /var/folders/d2/nstgp4h54kz7g1l847x_b8wc0000gn/T//ccpEYjsf.s 			page 14


 742 0074 0837     		adds	r7, r7, #8
 743 0076 BD46     		mov	sp, r7
 744              		@ sp needed
 745 0078 80BD     		pop	{r7, pc}
 746              	.L73:
 747 007a 00BF     		.align	2
 748              	.L72:
 749 007c 00000000 		.word	__func__.9886
 750              		.size	pwmDisableChannelNotification, .-pwmDisableChannelNotification
 751              		.section	.rodata.__func__.9848,"a",%progbits
 752              		.align	2
 753              		.type	__func__.9848, %object
 754              		.size	__func__.9848, 9
 755              	__func__.9848:
 756 0000 70776D53 		.ascii	"pwmStart\000"
 756      74617274 
 756      00
 757              		.section	.rodata.__func__.7153,"a",%progbits
 758              		.align	2
 759              		.type	__func__.7153, %object
 760              		.size	__func__.7153, 12
 761              	__func__.7153:
 762 0000 63685379 		.ascii	"chSysUnlock\000"
 762      73556E6C 
 762      6F636B00 
 763              		.section	.rodata.__func__.9852,"a",%progbits
 764              		.align	2
 765              		.type	__func__.9852, %object
 766              		.size	__func__.9852, 8
 767              	__func__.9852:
 768 0000 70776D53 		.ascii	"pwmStop\000"
 768      746F7000 
 769              		.section	.rodata.__func__.9857,"a",%progbits
 770              		.align	2
 771              		.type	__func__.9857, %object
 772              		.size	__func__.9857, 16
 773              	__func__.9857:
 774 0000 70776D43 		.ascii	"pwmChangePeriod\000"
 774      68616E67 
 774      65506572 
 774      696F6400 
 775              		.section	.rodata.__func__.9863,"a",%progbits
 776              		.align	2
 777              		.type	__func__.9863, %object
 778              		.size	__func__.9863, 17
 779              	__func__.9863:
 780 0000 70776D45 		.ascii	"pwmEnableChannel\000"
 780      6E61626C 
 780      65436861 
 780      6E6E656C 
 780      00
 781              		.section	.rodata.__func__.9868,"a",%progbits
 782              		.align	2
 783              		.type	__func__.9868, %object
 784              		.size	__func__.9868, 18
 785              	__func__.9868:
 786 0000 70776D44 		.ascii	"pwmDisableChannel\000"
ARM GAS  /var/folders/d2/nstgp4h54kz7g1l847x_b8wc0000gn/T//ccpEYjsf.s 			page 15


 786      69736162 
 786      6C654368 
 786      616E6E65 
 786      6C00
 787              		.section	.rodata.__func__.9872,"a",%progbits
 788              		.align	2
 789              		.type	__func__.9872, %object
 790              		.size	__func__.9872, 30
 791              	__func__.9872:
 792 0000 70776D45 		.ascii	"pwmEnablePeriodicNotification\000"
 792      6E61626C 
 792      65506572 
 792      696F6469 
 792      634E6F74 
 793              		.section	.rodata.__func__.9876,"a",%progbits
 794              		.align	2
 795              		.type	__func__.9876, %object
 796              		.size	__func__.9876, 31
 797              	__func__.9876:
 798 0000 70776D44 		.ascii	"pwmDisablePeriodicNotification\000"
 798      69736162 
 798      6C655065 
 798      72696F64 
 798      69634E6F 
 799              		.section	.rodata.__func__.9881,"a",%progbits
 800              		.align	2
 801              		.type	__func__.9881, %object
 802              		.size	__func__.9881, 29
 803              	__func__.9881:
 804 0000 70776D45 		.ascii	"pwmEnableChannelNotification\000"
 804      6E61626C 
 804      65436861 
 804      6E6E656C 
 804      4E6F7469 
 805              		.section	.rodata.__func__.9886,"a",%progbits
 806              		.align	2
 807              		.type	__func__.9886, %object
 808              		.size	__func__.9886, 30
 809              	__func__.9886:
 810 0000 70776D44 		.ascii	"pwmDisableChannelNotification\000"
 810      69736162 
 810      6C654368 
 810      616E6E65 
 810      6C4E6F74 
 811              		.ident	"GCC: (GNU Tools for Arm Embedded Processors 7-2017-q4-major) 7.2.1 20170904 (release) [ARM
ARM GAS  /var/folders/d2/nstgp4h54kz7g1l847x_b8wc0000gn/T//ccpEYjsf.s 			page 16

