ARM GAS  /var/folders/d2/nstgp4h54kz7g1l847x_b8wc0000gn/T//ccZ2eucn.s 			page 1


   1              		.cpu cortex-m4
   2              		.eabi_attribute 27, 1
   3              		.eabi_attribute 28, 1
   4              		.eabi_attribute 20, 1
   5              		.eabi_attribute 21, 1
   6              		.eabi_attribute 23, 3
   7              		.eabi_attribute 24, 1
   8              		.eabi_attribute 25, 1
   9              		.eabi_attribute 26, 1
  10              		.eabi_attribute 30, 6
  11              		.eabi_attribute 34, 1
  12              		.eabi_attribute 18, 4
  13              		.file	"sdc.c"
  14              		.section	.text.port_lock,"ax",%progbits
  15              		.align	1
  16              		.syntax unified
  17              		.thumb
  18              		.thumb_func
  19              		.fpu fpv4-sp-d16
  20              		.type	port_lock, %function
  21              	port_lock:
  22              		@ args = 0, pretend = 0, frame = 8
  23              		@ frame_needed = 1, uses_anonymous_args = 0
  24              		@ link register save eliminated.
  25 0000 80B4     		push	{r7}
  26 0002 83B0     		sub	sp, sp, #12
  27 0004 00AF     		add	r7, sp, #0
  28 0006 2023     		movs	r3, #32
  29 0008 7B60     		str	r3, [r7, #4]
  30 000a 7B68     		ldr	r3, [r7, #4]
  31              		.syntax unified
  32              	@ 546 "../e-puck2_main-processor/ChibiOS//os/ext/CMSIS/include/core_cmFunc.h" 1
  33 000c 83F31188 		MSR basepri, r3
  34              	@ 0 "" 2
  35              		.thumb
  36              		.syntax unified
  37 0010 00BF     		nop
  38 0012 0C37     		adds	r7, r7, #12
  39 0014 BD46     		mov	sp, r7
  40              		@ sp needed
  41 0016 5DF8047B 		ldr	r7, [sp], #4
  42 001a 7047     		bx	lr
  43              		.size	port_lock, .-port_lock
  44              		.section	.text.port_unlock,"ax",%progbits
  45              		.align	1
  46              		.syntax unified
  47              		.thumb
  48              		.thumb_func
  49              		.fpu fpv4-sp-d16
  50              		.type	port_unlock, %function
  51              	port_unlock:
  52              		@ args = 0, pretend = 0, frame = 8
  53              		@ frame_needed = 1, uses_anonymous_args = 0
  54              		@ link register save eliminated.
  55 0000 80B4     		push	{r7}
  56 0002 83B0     		sub	sp, sp, #12
  57 0004 00AF     		add	r7, sp, #0
ARM GAS  /var/folders/d2/nstgp4h54kz7g1l847x_b8wc0000gn/T//ccZ2eucn.s 			page 2


  58 0006 0023     		movs	r3, #0
  59 0008 7B60     		str	r3, [r7, #4]
  60 000a 7B68     		ldr	r3, [r7, #4]
  61              		.syntax unified
  62              	@ 546 "../e-puck2_main-processor/ChibiOS//os/ext/CMSIS/include/core_cmFunc.h" 1
  63 000c 83F31188 		MSR basepri, r3
  64              	@ 0 "" 2
  65              		.thumb
  66              		.syntax unified
  67 0010 00BF     		nop
  68 0012 0C37     		adds	r7, r7, #12
  69 0014 BD46     		mov	sp, r7
  70              		@ sp needed
  71 0016 5DF8047B 		ldr	r7, [sp], #4
  72 001a 7047     		bx	lr
  73              		.size	port_unlock, .-port_unlock
  74              		.section	.text.chSysLock,"ax",%progbits
  75              		.align	1
  76              		.syntax unified
  77              		.thumb
  78              		.thumb_func
  79              		.fpu fpv4-sp-d16
  80              		.type	chSysLock, %function
  81              	chSysLock:
  82              		@ args = 0, pretend = 0, frame = 0
  83              		@ frame_needed = 1, uses_anonymous_args = 0
  84 0000 80B5     		push	{r7, lr}
  85 0002 00AF     		add	r7, sp, #0
  86 0004 FFF7FEFF 		bl	port_lock
  87 0008 FFF7FEFF 		bl	_stats_start_measure_crit_thd
  88 000c FFF7FEFF 		bl	_dbg_check_lock
  89 0010 00BF     		nop
  90 0012 80BD     		pop	{r7, pc}
  91              		.size	chSysLock, .-chSysLock
  92              		.section	.text.chSysUnlock,"ax",%progbits
  93              		.align	1
  94              		.syntax unified
  95              		.thumb
  96              		.thumb_func
  97              		.fpu fpv4-sp-d16
  98              		.type	chSysUnlock, %function
  99              	chSysUnlock:
 100              		@ args = 0, pretend = 0, frame = 0
 101              		@ frame_needed = 1, uses_anonymous_args = 0
 102 0000 80B5     		push	{r7, lr}
 103 0002 00AF     		add	r7, sp, #0
 104 0004 FFF7FEFF 		bl	_dbg_check_unlock
 105 0008 FFF7FEFF 		bl	_stats_stop_measure_crit_thd
 106 000c 094B     		ldr	r3, .L6
 107 000e 1B68     		ldr	r3, [r3]
 108 0010 084A     		ldr	r2, .L6
 109 0012 9342     		cmp	r3, r2
 110 0014 0AD0     		beq	.L5
 111 0016 074B     		ldr	r3, .L6
 112 0018 9B69     		ldr	r3, [r3, #24]
 113 001a 9A68     		ldr	r2, [r3, #8]
 114 001c 054B     		ldr	r3, .L6
ARM GAS  /var/folders/d2/nstgp4h54kz7g1l847x_b8wc0000gn/T//ccZ2eucn.s 			page 3


 115 001e 1B68     		ldr	r3, [r3]
 116 0020 9B68     		ldr	r3, [r3, #8]
 117 0022 9A42     		cmp	r2, r3
 118 0024 02D2     		bcs	.L5
 119 0026 0448     		ldr	r0, .L6+4
 120 0028 FFF7FEFF 		bl	chSysHalt
 121              	.L5:
 122 002c FFF7FEFF 		bl	port_unlock
 123 0030 00BF     		nop
 124 0032 80BD     		pop	{r7, pc}
 125              	.L7:
 126              		.align	2
 127              	.L6:
 128 0034 00000000 		.word	ch
 129 0038 00000000 		.word	__func__.7554
 130              		.size	chSysUnlock, .-chSysUnlock
 131              		.section	.text.osalSysLock,"ax",%progbits
 132              		.align	1
 133              		.syntax unified
 134              		.thumb
 135              		.thumb_func
 136              		.fpu fpv4-sp-d16
 137              		.type	osalSysLock, %function
 138              	osalSysLock:
 139              		@ args = 0, pretend = 0, frame = 0
 140              		@ frame_needed = 1, uses_anonymous_args = 0
 141 0000 80B5     		push	{r7, lr}
 142 0002 00AF     		add	r7, sp, #0
 143 0004 FFF7FEFF 		bl	chSysLock
 144 0008 00BF     		nop
 145 000a 80BD     		pop	{r7, pc}
 146              		.size	osalSysLock, .-osalSysLock
 147              		.section	.text.osalSysUnlock,"ax",%progbits
 148              		.align	1
 149              		.syntax unified
 150              		.thumb
 151              		.thumb_func
 152              		.fpu fpv4-sp-d16
 153              		.type	osalSysUnlock, %function
 154              	osalSysUnlock:
 155              		@ args = 0, pretend = 0, frame = 0
 156              		@ frame_needed = 1, uses_anonymous_args = 0
 157 0000 80B5     		push	{r7, lr}
 158 0002 00AF     		add	r7, sp, #0
 159 0004 FFF7FEFF 		bl	chSysUnlock
 160 0008 00BF     		nop
 161 000a 80BD     		pop	{r7, pc}
 162              		.size	osalSysUnlock, .-osalSysUnlock
 163              		.section	.text.osalThreadSleep,"ax",%progbits
 164              		.align	1
 165              		.syntax unified
 166              		.thumb
 167              		.thumb_func
 168              		.fpu fpv4-sp-d16
 169              		.type	osalThreadSleep, %function
 170              	osalThreadSleep:
 171              		@ args = 0, pretend = 0, frame = 8
ARM GAS  /var/folders/d2/nstgp4h54kz7g1l847x_b8wc0000gn/T//ccZ2eucn.s 			page 4


 172              		@ frame_needed = 1, uses_anonymous_args = 0
 173 0000 80B5     		push	{r7, lr}
 174 0002 82B0     		sub	sp, sp, #8
 175 0004 00AF     		add	r7, sp, #0
 176 0006 7860     		str	r0, [r7, #4]
 177 0008 7868     		ldr	r0, [r7, #4]
 178 000a FFF7FEFF 		bl	chThdSleep
 179 000e 00BF     		nop
 180 0010 0837     		adds	r7, r7, #8
 181 0012 BD46     		mov	sp, r7
 182              		@ sp needed
 183 0014 80BD     		pop	{r7, pc}
 184              		.size	osalThreadSleep, .-osalThreadSleep
 185              		.section	.rodata.sdc_vmt,"a",%progbits
 186              		.align	2
 187              		.type	sdc_vmt, %object
 188              		.size	sdc_vmt, 32
 189              	sdc_vmt:
 190 0000 00000000 		.word	sdc_lld_is_card_inserted
 191 0004 00000000 		.word	sdc_lld_is_write_protected
 192 0008 00000000 		.word	sdcConnect
 193 000c 00000000 		.word	sdcDisconnect
 194 0010 00000000 		.word	sdcRead
 195 0014 00000000 		.word	sdcWrite
 196 0018 00000000 		.word	sdcSync
 197 001c 00000000 		.word	sdcGetInfo
 198              		.section	.text.mode_detect,"ax",%progbits
 199              		.align	1
 200              		.syntax unified
 201              		.thumb
 202              		.thumb_func
 203              		.fpu fpv4-sp-d16
 204              		.type	mode_detect, %function
 205              	mode_detect:
 206              		@ args = 0, pretend = 0, frame = 16
 207              		@ frame_needed = 1, uses_anonymous_args = 0
 208 0000 80B5     		push	{r7, lr}
 209 0002 84B0     		sub	sp, sp, #16
 210 0004 00AF     		add	r7, sp, #0
 211 0006 7860     		str	r0, [r7, #4]
 212 0008 07F10C03 		add	r3, r7, #12
 213 000c 4FF4D572 		mov	r2, #426
 214 0010 0821     		movs	r1, #8
 215 0012 7868     		ldr	r0, [r7, #4]
 216 0014 FFF7FEFF 		bl	sdc_lld_send_cmd_short_crc
 217 0018 0346     		mov	r3, r0
 218 001a 83F00103 		eor	r3, r3, #1
 219 001e DBB2     		uxtb	r3, r3
 220 0020 002B     		cmp	r3, #0
 221 0022 1BD0     		beq	.L12
 222 0024 7B68     		ldr	r3, [r7, #4]
 223 0026 0122     		movs	r2, #1
 224 0028 1A63     		str	r2, [r3, #48]
 225 002a FB68     		ldr	r3, [r7, #12]
 226 002c 1B0A     		lsrs	r3, r3, #8
 227 002e 03F00F03 		and	r3, r3, #15
 228 0032 012B     		cmp	r3, #1
ARM GAS  /var/folders/d2/nstgp4h54kz7g1l847x_b8wc0000gn/T//ccZ2eucn.s 			page 5


 229 0034 01D0     		beq	.L13
 230 0036 0123     		movs	r3, #1
 231 0038 2CE0     		b	.L19
 232              	.L13:
 233 003a 07F10C03 		add	r3, r7, #12
 234 003e 0022     		movs	r2, #0
 235 0040 3721     		movs	r1, #55
 236 0042 7868     		ldr	r0, [r7, #4]
 237 0044 FFF7FEFF 		bl	sdc_lld_send_cmd_short_crc
 238 0048 0346     		mov	r3, r0
 239 004a 002B     		cmp	r3, #0
 240 004c 04D1     		bne	.L15
 241 004e FA68     		ldr	r2, [r7, #12]
 242 0050 124B     		ldr	r3, .L20
 243 0052 1340     		ands	r3, r3, r2
 244 0054 002B     		cmp	r3, #0
 245 0056 1CD0     		beq	.L16
 246              	.L15:
 247 0058 0123     		movs	r3, #1
 248 005a 1BE0     		b	.L19
 249              	.L12:
 250 005c 07F10C03 		add	r3, r7, #12
 251 0060 0022     		movs	r2, #0
 252 0062 3721     		movs	r1, #55
 253 0064 7868     		ldr	r0, [r7, #4]
 254 0066 FFF7FEFF 		bl	sdc_lld_send_cmd_short_crc
 255 006a 0346     		mov	r3, r0
 256 006c 002B     		cmp	r3, #0
 257 006e 04D1     		bne	.L17
 258 0070 FA68     		ldr	r2, [r7, #12]
 259 0072 0A4B     		ldr	r3, .L20
 260 0074 1340     		ands	r3, r3, r2
 261 0076 002B     		cmp	r3, #0
 262 0078 03D0     		beq	.L18
 263              	.L17:
 264 007a 7B68     		ldr	r3, [r7, #4]
 265 007c 0222     		movs	r2, #2
 266 007e 1A63     		str	r2, [r3, #48]
 267 0080 07E0     		b	.L16
 268              	.L18:
 269 0082 7B68     		ldr	r3, [r7, #4]
 270 0084 0022     		movs	r2, #0
 271 0086 1A63     		str	r2, [r3, #48]
 272 0088 0022     		movs	r2, #0
 273 008a 0021     		movs	r1, #0
 274 008c 7868     		ldr	r0, [r7, #4]
 275 008e FFF7FEFF 		bl	sdc_lld_send_cmd_none
 276              	.L16:
 277 0092 0023     		movs	r3, #0
 278              	.L19:
 279 0094 1846     		mov	r0, r3
 280 0096 1037     		adds	r7, r7, #16
 281 0098 BD46     		mov	sp, r7
 282              		@ sp needed
 283 009a 80BD     		pop	{r7, pc}
 284              	.L21:
 285              		.align	2
ARM GAS  /var/folders/d2/nstgp4h54kz7g1l847x_b8wc0000gn/T//ccZ2eucn.s 			page 6


 286              	.L20:
 287 009c 08E0FFFD 		.word	-33562616
 288              		.size	mode_detect, .-mode_detect
 289              		.section	.text.mmc_init,"ax",%progbits
 290              		.align	1
 291              		.syntax unified
 292              		.thumb
 293              		.thumb_func
 294              		.fpu fpv4-sp-d16
 295              		.type	mmc_init, %function
 296              	mmc_init:
 297              		@ args = 0, pretend = 0, frame = 24
 298              		@ frame_needed = 1, uses_anonymous_args = 0
 299 0000 80B5     		push	{r7, lr}
 300 0002 86B0     		sub	sp, sp, #24
 301 0004 00AF     		add	r7, sp, #0
 302 0006 7860     		str	r0, [r7, #4]
 303 0008 184B     		ldr	r3, .L32
 304 000a 3B61     		str	r3, [r7, #16]
 305 000c 0023     		movs	r3, #0
 306 000e 7B61     		str	r3, [r7, #20]
 307              	.L29:
 308 0010 07F10C03 		add	r3, r7, #12
 309 0014 3A69     		ldr	r2, [r7, #16]
 310 0016 0121     		movs	r1, #1
 311 0018 7868     		ldr	r0, [r7, #4]
 312 001a FFF7FEFF 		bl	sdc_lld_send_cmd_short
 313 001e 0346     		mov	r3, r0
 314 0020 002B     		cmp	r3, #0
 315 0022 01D0     		beq	.L23
 316 0024 0123     		movs	r3, #1
 317 0026 1CE0     		b	.L30
 318              	.L23:
 319 0028 FB68     		ldr	r3, [r7, #12]
 320 002a 002B     		cmp	r3, #0
 321 002c 0BDA     		bge	.L25
 322 002e FB68     		ldr	r3, [r7, #12]
 323 0030 03F08043 		and	r3, r3, #1073741824
 324 0034 002B     		cmp	r3, #0
 325 0036 12D0     		beq	.L31
 326 0038 7B68     		ldr	r3, [r7, #4]
 327 003a 1B6B     		ldr	r3, [r3, #48]
 328 003c 43F01002 		orr	r2, r3, #16
 329 0040 7B68     		ldr	r3, [r7, #4]
 330 0042 1A63     		str	r2, [r3, #48]
 331 0044 0BE0     		b	.L31
 332              	.L25:
 333 0046 7B69     		ldr	r3, [r7, #20]
 334 0048 0133     		adds	r3, r3, #1
 335 004a 7B61     		str	r3, [r7, #20]
 336 004c 7B69     		ldr	r3, [r7, #20]
 337 004e 632B     		cmp	r3, #99
 338 0050 01D9     		bls	.L28
 339 0052 0123     		movs	r3, #1
 340 0054 05E0     		b	.L30
 341              	.L28:
 342 0056 0A20     		movs	r0, #10
ARM GAS  /var/folders/d2/nstgp4h54kz7g1l847x_b8wc0000gn/T//ccZ2eucn.s 			page 7


 343 0058 FFF7FEFF 		bl	osalThreadSleep
 344 005c D8E7     		b	.L29
 345              	.L31:
 346 005e 00BF     		nop
 347 0060 0023     		movs	r3, #0
 348              	.L30:
 349 0062 1846     		mov	r0, r3
 350 0064 1837     		adds	r7, r7, #24
 351 0066 BD46     		mov	sp, r7
 352              		@ sp needed
 353 0068 80BD     		pop	{r7, pc}
 354              	.L33:
 355 006a 00BF     		.align	2
 356              	.L32:
 357 006c 0080FFC0 		.word	-1056997376
 358              		.size	mmc_init, .-mmc_init
 359              		.section	.text.sdc_init,"ax",%progbits
 360              		.align	1
 361              		.syntax unified
 362              		.thumb
 363              		.thumb_func
 364              		.fpu fpv4-sp-d16
 365              		.type	sdc_init, %function
 366              	sdc_init:
 367              		@ args = 0, pretend = 0, frame = 24
 368              		@ frame_needed = 1, uses_anonymous_args = 0
 369 0000 80B5     		push	{r7, lr}
 370 0002 86B0     		sub	sp, sp, #24
 371 0004 00AF     		add	r7, sp, #0
 372 0006 7860     		str	r0, [r7, #4]
 373 0008 7B68     		ldr	r3, [r7, #4]
 374 000a 1B6B     		ldr	r3, [r3, #48]
 375 000c 03F00F03 		and	r3, r3, #15
 376 0010 012B     		cmp	r3, #1
 377 0012 02D1     		bne	.L35
 378 0014 224B     		ldr	r3, .L48
 379 0016 3B61     		str	r3, [r7, #16]
 380 0018 01E0     		b	.L36
 381              	.L35:
 382 001a 224B     		ldr	r3, .L48+4
 383 001c 3B61     		str	r3, [r7, #16]
 384              	.L36:
 385 001e 0023     		movs	r3, #0
 386 0020 7B61     		str	r3, [r7, #20]
 387              	.L45:
 388 0022 07F10C03 		add	r3, r7, #12
 389 0026 0022     		movs	r2, #0
 390 0028 3721     		movs	r1, #55
 391 002a 7868     		ldr	r0, [r7, #4]
 392 002c FFF7FEFF 		bl	sdc_lld_send_cmd_short_crc
 393 0030 0346     		mov	r3, r0
 394 0032 002B     		cmp	r3, #0
 395 0034 04D1     		bne	.L37
 396 0036 FA68     		ldr	r2, [r7, #12]
 397 0038 1B4B     		ldr	r3, .L48+8
 398 003a 1340     		ands	r3, r3, r2
 399 003c 002B     		cmp	r3, #0
ARM GAS  /var/folders/d2/nstgp4h54kz7g1l847x_b8wc0000gn/T//ccZ2eucn.s 			page 8


 400 003e 01D0     		beq	.L38
 401              	.L37:
 402 0040 0123     		movs	r3, #1
 403 0042 28E0     		b	.L46
 404              	.L38:
 405 0044 07F10C03 		add	r3, r7, #12
 406 0048 3A69     		ldr	r2, [r7, #16]
 407 004a 2921     		movs	r1, #41
 408 004c 7868     		ldr	r0, [r7, #4]
 409 004e FFF7FEFF 		bl	sdc_lld_send_cmd_short
 410 0052 0346     		mov	r3, r0
 411 0054 002B     		cmp	r3, #0
 412 0056 01D0     		beq	.L40
 413 0058 0123     		movs	r3, #1
 414 005a 1CE0     		b	.L46
 415              	.L40:
 416 005c FB68     		ldr	r3, [r7, #12]
 417 005e 002B     		cmp	r3, #0
 418 0060 0BDA     		bge	.L41
 419 0062 FB68     		ldr	r3, [r7, #12]
 420 0064 03F08043 		and	r3, r3, #1073741824
 421 0068 002B     		cmp	r3, #0
 422 006a 12D0     		beq	.L47
 423 006c 7B68     		ldr	r3, [r7, #4]
 424 006e 1B6B     		ldr	r3, [r3, #48]
 425 0070 43F01002 		orr	r2, r3, #16
 426 0074 7B68     		ldr	r3, [r7, #4]
 427 0076 1A63     		str	r2, [r3, #48]
 428 0078 0BE0     		b	.L47
 429              	.L41:
 430 007a 7B69     		ldr	r3, [r7, #20]
 431 007c 0133     		adds	r3, r3, #1
 432 007e 7B61     		str	r3, [r7, #20]
 433 0080 7B69     		ldr	r3, [r7, #20]
 434 0082 632B     		cmp	r3, #99
 435 0084 01D9     		bls	.L44
 436 0086 0123     		movs	r3, #1
 437 0088 05E0     		b	.L46
 438              	.L44:
 439 008a 0A20     		movs	r0, #10
 440 008c FFF7FEFF 		bl	osalThreadSleep
 441 0090 C7E7     		b	.L45
 442              	.L47:
 443 0092 00BF     		nop
 444 0094 0023     		movs	r3, #0
 445              	.L46:
 446 0096 1846     		mov	r0, r3
 447 0098 1837     		adds	r7, r7, #24
 448 009a BD46     		mov	sp, r7
 449              		@ sp needed
 450 009c 80BD     		pop	{r7, pc}
 451              	.L49:
 452 009e 00BF     		.align	2
 453              	.L48:
 454 00a0 000010C0 		.word	-1072693248
 455 00a4 00001080 		.word	-2146435072
 456 00a8 08E0FFFD 		.word	-33562616
ARM GAS  /var/folders/d2/nstgp4h54kz7g1l847x_b8wc0000gn/T//ccZ2eucn.s 			page 9


 457              		.size	sdc_init, .-sdc_init
 458              		.section	.text.mmc_cmd6_construct,"ax",%progbits
 459              		.align	1
 460              		.syntax unified
 461              		.thumb
 462              		.thumb_func
 463              		.fpu fpv4-sp-d16
 464              		.type	mmc_cmd6_construct, %function
 465              	mmc_cmd6_construct:
 466              		@ args = 0, pretend = 0, frame = 16
 467              		@ frame_needed = 1, uses_anonymous_args = 0
 468 0000 80B5     		push	{r7, lr}
 469 0002 84B0     		sub	sp, sp, #16
 470 0004 00AF     		add	r7, sp, #0
 471 0006 B960     		str	r1, [r7, #8]
 472 0008 7A60     		str	r2, [r7, #4]
 473 000a 3B60     		str	r3, [r7]
 474 000c 0346     		mov	r3, r0
 475 000e FB73     		strb	r3, [r7, #15]
 476 0010 BB68     		ldr	r3, [r7, #8]
 477 0012 BF2B     		cmp	r3, #191
 478 0014 02D9     		bls	.L54
 479 0016 0B48     		ldr	r0, .L55
 480 0018 FFF7FEFF 		bl	chSysHalt
 481              	.L54:
 482 001c 3B68     		ldr	r3, [r7]
 483 001e 072B     		cmp	r3, #7
 484 0020 02D9     		bls	.L52
 485 0022 0848     		ldr	r0, .L55
 486 0024 FFF7FEFF 		bl	chSysHalt
 487              	.L52:
 488 0028 FB7B     		ldrb	r3, [r7, #15]	@ zero_extendqisi2
 489 002a 1A06     		lsls	r2, r3, #24
 490 002c BB68     		ldr	r3, [r7, #8]
 491 002e 1B04     		lsls	r3, r3, #16
 492 0030 1A43     		orrs	r2, r2, r3
 493 0032 7B68     		ldr	r3, [r7, #4]
 494 0034 1B02     		lsls	r3, r3, #8
 495 0036 1A43     		orrs	r2, r2, r3
 496 0038 3B68     		ldr	r3, [r7]
 497 003a 1343     		orrs	r3, r3, r2
 498 003c 1846     		mov	r0, r3
 499 003e 1037     		adds	r7, r7, #16
 500 0040 BD46     		mov	sp, r7
 501              		@ sp needed
 502 0042 80BD     		pop	{r7, pc}
 503              	.L56:
 504              		.align	2
 505              	.L55:
 506 0044 00000000 		.word	__func__.10297
 507              		.size	mmc_cmd6_construct, .-mmc_cmd6_construct
 508              		.section	.text.sdc_cmd6_construct,"ax",%progbits
 509              		.align	1
 510              		.syntax unified
 511              		.thumb
 512              		.thumb_func
 513              		.fpu fpv4-sp-d16
ARM GAS  /var/folders/d2/nstgp4h54kz7g1l847x_b8wc0000gn/T//ccZ2eucn.s 			page 10


 514              		.type	sdc_cmd6_construct, %function
 515              	sdc_cmd6_construct:
 516              		@ args = 0, pretend = 0, frame = 16
 517              		@ frame_needed = 1, uses_anonymous_args = 0
 518 0000 80B5     		push	{r7, lr}
 519 0002 84B0     		sub	sp, sp, #16
 520 0004 00AF     		add	r7, sp, #0
 521 0006 0346     		mov	r3, r0
 522 0008 3A60     		str	r2, [r7]
 523 000a FB71     		strb	r3, [r7, #7]
 524 000c 0B46     		mov	r3, r1
 525 000e BB71     		strb	r3, [r7, #6]
 526 0010 6FF07F43 		mvn	r3, #-16777216
 527 0014 FB60     		str	r3, [r7, #12]
 528 0016 3B68     		ldr	r3, [r7]
 529 0018 0F2B     		cmp	r3, #15
 530 001a 02D9     		bls	.L58
 531 001c 0D48     		ldr	r0, .L60
 532 001e FFF7FEFF 		bl	chSysHalt
 533              	.L58:
 534 0022 BB79     		ldrb	r3, [r7, #6]	@ zero_extendqisi2
 535 0024 9B00     		lsls	r3, r3, #2
 536 0026 0F22     		movs	r2, #15
 537 0028 02FA03F3 		lsl	r3, r2, r3
 538 002c DB43     		mvns	r3, r3
 539 002e FA68     		ldr	r2, [r7, #12]
 540 0030 1340     		ands	r3, r3, r2
 541 0032 FB60     		str	r3, [r7, #12]
 542 0034 BB79     		ldrb	r3, [r7, #6]	@ zero_extendqisi2
 543 0036 9B00     		lsls	r3, r3, #2
 544 0038 3A68     		ldr	r2, [r7]
 545 003a 02FA03F3 		lsl	r3, r2, r3
 546 003e FA68     		ldr	r2, [r7, #12]
 547 0040 1343     		orrs	r3, r3, r2
 548 0042 FB60     		str	r3, [r7, #12]
 549 0044 FB79     		ldrb	r3, [r7, #7]	@ zero_extendqisi2
 550 0046 DA07     		lsls	r2, r3, #31
 551 0048 FB68     		ldr	r3, [r7, #12]
 552 004a 1343     		orrs	r3, r3, r2
 553 004c 1846     		mov	r0, r3
 554 004e 1037     		adds	r7, r7, #16
 555 0050 BD46     		mov	sp, r7
 556              		@ sp needed
 557 0052 80BD     		pop	{r7, pc}
 558              	.L61:
 559              		.align	2
 560              	.L60:
 561 0054 00000000 		.word	__func__.10304
 562              		.size	sdc_cmd6_construct, .-sdc_cmd6_construct
 563              		.section	.text.sdc_cmd6_extract_info,"ax",%progbits
 564              		.align	1
 565              		.syntax unified
 566              		.thumb
 567              		.thumb_func
 568              		.fpu fpv4-sp-d16
 569              		.type	sdc_cmd6_extract_info, %function
 570              	sdc_cmd6_extract_info:
ARM GAS  /var/folders/d2/nstgp4h54kz7g1l847x_b8wc0000gn/T//ccZ2eucn.s 			page 11


 571              		@ args = 0, pretend = 0, frame = 16
 572              		@ frame_needed = 1, uses_anonymous_args = 0
 573              		@ link register save eliminated.
 574 0000 80B4     		push	{r7}
 575 0002 85B0     		sub	sp, sp, #20
 576 0004 00AF     		add	r7, sp, #0
 577 0006 0346     		mov	r3, r0
 578 0008 3960     		str	r1, [r7]
 579 000a FB71     		strb	r3, [r7, #7]
 580 000c FA79     		ldrb	r2, [r7, #7]	@ zero_extendqisi2
 581 000e 1346     		mov	r3, r2
 582 0010 DB07     		lsls	r3, r3, #31
 583 0012 9B1A     		subs	r3, r3, r2
 584 0014 5B00     		lsls	r3, r3, #1
 585 0016 0C33     		adds	r3, r3, #12
 586 0018 FB60     		str	r3, [r7, #12]
 587 001a 3A68     		ldr	r2, [r7]
 588 001c FB68     		ldr	r3, [r7, #12]
 589 001e 1344     		add	r3, r3, r2
 590 0020 1B78     		ldrb	r3, [r3]	@ zero_extendqisi2
 591 0022 1B02     		lsls	r3, r3, #8
 592 0024 1AB2     		sxth	r2, r3
 593 0026 FB68     		ldr	r3, [r7, #12]
 594 0028 0133     		adds	r3, r3, #1
 595 002a 3968     		ldr	r1, [r7]
 596 002c 0B44     		add	r3, r3, r1
 597 002e 1B78     		ldrb	r3, [r3]	@ zero_extendqisi2
 598 0030 1BB2     		sxth	r3, r3
 599 0032 1343     		orrs	r3, r3, r2
 600 0034 1BB2     		sxth	r3, r3
 601 0036 9BB2     		uxth	r3, r3
 602 0038 1846     		mov	r0, r3
 603 003a 1437     		adds	r7, r7, #20
 604 003c BD46     		mov	sp, r7
 605              		@ sp needed
 606 003e 5DF8047B 		ldr	r7, [sp], #4
 607 0042 7047     		bx	lr
 608              		.size	sdc_cmd6_extract_info, .-sdc_cmd6_extract_info
 609              		.section	.text.sdc_cmd6_check_status,"ax",%progbits
 610              		.align	1
 611              		.syntax unified
 612              		.thumb
 613              		.thumb_func
 614              		.fpu fpv4-sp-d16
 615              		.type	sdc_cmd6_check_status, %function
 616              	sdc_cmd6_check_status:
 617              		@ args = 0, pretend = 0, frame = 16
 618              		@ frame_needed = 1, uses_anonymous_args = 0
 619              		@ link register save eliminated.
 620 0000 80B4     		push	{r7}
 621 0002 85B0     		sub	sp, sp, #20
 622 0004 00AF     		add	r7, sp, #0
 623 0006 0346     		mov	r3, r0
 624 0008 3960     		str	r1, [r7]
 625 000a FB71     		strb	r3, [r7, #7]
 626 000c 3B68     		ldr	r3, [r7]
 627 000e 0E33     		adds	r3, r3, #14
ARM GAS  /var/folders/d2/nstgp4h54kz7g1l847x_b8wc0000gn/T//ccZ2eucn.s 			page 12


 628 0010 1B78     		ldrb	r3, [r3]	@ zero_extendqisi2
 629 0012 1A04     		lsls	r2, r3, #16
 630 0014 3B68     		ldr	r3, [r7]
 631 0016 0F33     		adds	r3, r3, #15
 632 0018 1B78     		ldrb	r3, [r3]	@ zero_extendqisi2
 633 001a 1B02     		lsls	r3, r3, #8
 634 001c 1343     		orrs	r3, r3, r2
 635 001e 3A68     		ldr	r2, [r7]
 636 0020 1032     		adds	r2, r2, #16
 637 0022 1278     		ldrb	r2, [r2]	@ zero_extendqisi2
 638 0024 1343     		orrs	r3, r3, r2
 639 0026 FB60     		str	r3, [r7, #12]
 640 0028 FB79     		ldrb	r3, [r7, #7]	@ zero_extendqisi2
 641 002a 9B00     		lsls	r3, r3, #2
 642 002c FA68     		ldr	r2, [r7, #12]
 643 002e 22FA03F3 		lsr	r3, r2, r3
 644 0032 03F00F03 		and	r3, r3, #15
 645 0036 BB60     		str	r3, [r7, #8]
 646 0038 BB68     		ldr	r3, [r7, #8]
 647 003a 0F2B     		cmp	r3, #15
 648 003c 01D0     		beq	.L65
 649 003e 0023     		movs	r3, #0
 650 0040 00E0     		b	.L66
 651              	.L65:
 652 0042 0123     		movs	r3, #1
 653              	.L66:
 654 0044 1846     		mov	r0, r3
 655 0046 1437     		adds	r7, r7, #20
 656 0048 BD46     		mov	sp, r7
 657              		@ sp needed
 658 004a 5DF8047B 		ldr	r7, [sp], #4
 659 004e 7047     		bx	lr
 660              		.size	sdc_cmd6_check_status, .-sdc_cmd6_check_status
 661              		.section	.text.sdc_detect_bus_clk,"ax",%progbits
 662              		.align	1
 663              		.syntax unified
 664              		.thumb
 665              		.thumb_func
 666              		.fpu fpv4-sp-d16
 667              		.type	sdc_detect_bus_clk, %function
 668              	sdc_detect_bus_clk:
 669              		@ args = 0, pretend = 0, frame = 24
 670              		@ frame_needed = 1, uses_anonymous_args = 0
 671 0000 B0B5     		push	{r4, r5, r7, lr}
 672 0002 88B0     		sub	sp, sp, #32
 673 0004 02AF     		add	r7, sp, #8
 674 0006 7860     		str	r0, [r7, #4]
 675 0008 3960     		str	r1, [r7]
 676 000a 6B46     		mov	r3, sp
 677 000c 1D46     		mov	r5, r3
 678 000e 4023     		movs	r3, #64
 679 0010 7B61     		str	r3, [r7, #20]
 680 0012 7B69     		ldr	r3, [r7, #20]
 681 0014 013B     		subs	r3, r3, #1
 682 0016 3B61     		str	r3, [r7, #16]
 683 0018 7B69     		ldr	r3, [r7, #20]
 684 001a 1946     		mov	r1, r3
ARM GAS  /var/folders/d2/nstgp4h54kz7g1l847x_b8wc0000gn/T//ccZ2eucn.s 			page 13


 685 001c 4FF00002 		mov	r2, #0
 686 0020 4FF00003 		mov	r3, #0
 687 0024 4FF00004 		mov	r4, #0
 688 0028 D400     		lsls	r4, r2, #3
 689 002a 44EA5174 		orr	r4, r4, r1, lsr #29
 690 002e CB00     		lsls	r3, r1, #3
 691 0030 7B69     		ldr	r3, [r7, #20]
 692 0032 1946     		mov	r1, r3
 693 0034 4FF00002 		mov	r2, #0
 694 0038 4FF00003 		mov	r3, #0
 695 003c 4FF00004 		mov	r4, #0
 696 0040 D400     		lsls	r4, r2, #3
 697 0042 44EA5174 		orr	r4, r4, r1, lsr #29
 698 0046 CB00     		lsls	r3, r1, #3
 699 0048 7B69     		ldr	r3, [r7, #20]
 700 004a 0733     		adds	r3, r3, #7
 701 004c DB08     		lsrs	r3, r3, #3
 702 004e DB00     		lsls	r3, r3, #3
 703 0050 ADEB030D 		sub	sp, sp, r3
 704 0054 02AB     		add	r3, sp, #8
 705 0056 0033     		adds	r3, r3, #0
 706 0058 FB60     		str	r3, [r7, #12]
 707 005a 3B68     		ldr	r3, [r7]
 708 005c 0022     		movs	r2, #0
 709 005e 1A70     		strb	r2, [r3]
 710 0060 7B68     		ldr	r3, [r7, #4]
 711 0062 1833     		adds	r3, r3, #24
 712 0064 7E22     		movs	r2, #126
 713 0066 7F21     		movs	r1, #127
 714 0068 1846     		mov	r0, r3
 715 006a FFF7FEFF 		bl	_mmcsd_get_slice
 716 006e 0346     		mov	r3, r0
 717 0070 002B     		cmp	r3, #0
 718 0072 04D1     		bne	.L68
 719 0074 3B68     		ldr	r3, [r7]
 720 0076 0022     		movs	r2, #0
 721 0078 1A70     		strb	r2, [r3]
 722 007a 0023     		movs	r3, #0
 723 007c 3CE0     		b	.L69
 724              	.L68:
 725 007e F968     		ldr	r1, [r7, #12]
 726 0080 0023     		movs	r3, #0
 727 0082 0093     		str	r3, [sp]
 728 0084 0623     		movs	r3, #6
 729 0086 7A69     		ldr	r2, [r7, #20]
 730 0088 7868     		ldr	r0, [r7, #4]
 731 008a FFF7FEFF 		bl	sdc_lld_read_special
 732 008e 0346     		mov	r3, r0
 733 0090 002B     		cmp	r3, #0
 734 0092 01D0     		beq	.L70
 735 0094 0123     		movs	r3, #1
 736 0096 2FE0     		b	.L69
 737              	.L70:
 738 0098 FB68     		ldr	r3, [r7, #12]
 739 009a 1946     		mov	r1, r3
 740 009c 0020     		movs	r0, #0
 741 009e FFF7FEFF 		bl	sdc_cmd6_extract_info
ARM GAS  /var/folders/d2/nstgp4h54kz7g1l847x_b8wc0000gn/T//ccZ2eucn.s 			page 14


 742 00a2 0346     		mov	r3, r0
 743 00a4 03F00203 		and	r3, r3, #2
 744 00a8 022B     		cmp	r3, #2
 745 00aa 24D1     		bne	.L71
 746 00ac 0122     		movs	r2, #1
 747 00ae 0021     		movs	r1, #0
 748 00b0 0120     		movs	r0, #1
 749 00b2 FFF7FEFF 		bl	sdc_cmd6_construct
 750 00b6 B860     		str	r0, [r7, #8]
 751 00b8 F968     		ldr	r1, [r7, #12]
 752 00ba BB68     		ldr	r3, [r7, #8]
 753 00bc 0093     		str	r3, [sp]
 754 00be 0623     		movs	r3, #6
 755 00c0 7A69     		ldr	r2, [r7, #20]
 756 00c2 7868     		ldr	r0, [r7, #4]
 757 00c4 FFF7FEFF 		bl	sdc_lld_read_special
 758 00c8 0346     		mov	r3, r0
 759 00ca 002B     		cmp	r3, #0
 760 00cc 01D0     		beq	.L72
 761 00ce 0123     		movs	r3, #1
 762 00d0 12E0     		b	.L69
 763              	.L72:
 764 00d2 FB68     		ldr	r3, [r7, #12]
 765 00d4 1946     		mov	r1, r3
 766 00d6 0020     		movs	r0, #0
 767 00d8 FFF7FEFF 		bl	sdc_cmd6_check_status
 768 00dc 0346     		mov	r3, r0
 769 00de 83F00103 		eor	r3, r3, #1
 770 00e2 DBB2     		uxtb	r3, r3
 771 00e4 002B     		cmp	r3, #0
 772 00e6 03D0     		beq	.L73
 773 00e8 3B68     		ldr	r3, [r7]
 774 00ea 0122     		movs	r2, #1
 775 00ec 1A70     		strb	r2, [r3]
 776 00ee 02E0     		b	.L71
 777              	.L73:
 778 00f0 3B68     		ldr	r3, [r7]
 779 00f2 0022     		movs	r2, #0
 780 00f4 1A70     		strb	r2, [r3]
 781              	.L71:
 782 00f6 0023     		movs	r3, #0
 783              	.L69:
 784 00f8 AD46     		mov	sp, r5
 785 00fa 1846     		mov	r0, r3
 786 00fc 1837     		adds	r7, r7, #24
 787 00fe BD46     		mov	sp, r7
 788              		@ sp needed
 789 0100 B0BD     		pop	{r4, r5, r7, pc}
 790              		.size	sdc_detect_bus_clk, .-sdc_detect_bus_clk
 791              		.section	.text.mmc_detect_bus_clk,"ax",%progbits
 792              		.align	1
 793              		.syntax unified
 794              		.thumb
 795              		.thumb_func
 796              		.fpu fpv4-sp-d16
 797              		.type	mmc_detect_bus_clk, %function
 798              	mmc_detect_bus_clk:
ARM GAS  /var/folders/d2/nstgp4h54kz7g1l847x_b8wc0000gn/T//ccZ2eucn.s 			page 15


 799              		@ args = 0, pretend = 0, frame = 24
 800              		@ frame_needed = 1, uses_anonymous_args = 0
 801 0000 80B5     		push	{r7, lr}
 802 0002 86B0     		sub	sp, sp, #24
 803 0004 00AF     		add	r7, sp, #0
 804 0006 7860     		str	r0, [r7, #4]
 805 0008 3960     		str	r1, [r7]
 806 000a 7B68     		ldr	r3, [r7, #4]
 807 000c DB6A     		ldr	r3, [r3, #44]
 808 000e 1B68     		ldr	r3, [r3]
 809 0010 7B61     		str	r3, [r7, #20]
 810 0012 3B68     		ldr	r3, [r7]
 811 0014 0022     		movs	r2, #0
 812 0016 1A70     		strb	r2, [r3]
 813 0018 7B69     		ldr	r3, [r7, #20]
 814 001a 002B     		cmp	r3, #0
 815 001c 01D1     		bne	.L76
 816 001e 0023     		movs	r3, #0
 817 0020 1CE0     		b	.L79
 818              	.L76:
 819 0022 0023     		movs	r3, #0
 820 0024 0122     		movs	r2, #1
 821 0026 B921     		movs	r1, #185
 822 0028 0320     		movs	r0, #3
 823 002a FFF7FEFF 		bl	mmc_cmd6_construct
 824 002e 3861     		str	r0, [r7, #16]
 825 0030 07F10C03 		add	r3, r7, #12
 826 0034 3A69     		ldr	r2, [r7, #16]
 827 0036 0621     		movs	r1, #6
 828 0038 7868     		ldr	r0, [r7, #4]
 829 003a FFF7FEFF 		bl	sdc_lld_send_cmd_short_crc
 830 003e 0346     		mov	r3, r0
 831 0040 83F00103 		eor	r3, r3, #1
 832 0044 DBB2     		uxtb	r3, r3
 833 0046 002B     		cmp	r3, #0
 834 0048 07D0     		beq	.L78
 835 004a FA68     		ldr	r2, [r7, #12]
 836 004c 054B     		ldr	r3, .L80
 837 004e 1340     		ands	r3, r3, r2
 838 0050 002B     		cmp	r3, #0
 839 0052 02D1     		bne	.L78
 840 0054 3B68     		ldr	r3, [r7]
 841 0056 0122     		movs	r2, #1
 842 0058 1A70     		strb	r2, [r3]
 843              	.L78:
 844 005a 0023     		movs	r3, #0
 845              	.L79:
 846 005c 1846     		mov	r0, r3
 847 005e 1837     		adds	r7, r7, #24
 848 0060 BD46     		mov	sp, r7
 849              		@ sp needed
 850 0062 80BD     		pop	{r7, pc}
 851              	.L81:
 852              		.align	2
 853              	.L80:
 854 0064 08E0FFFD 		.word	-33562616
 855              		.size	mmc_detect_bus_clk, .-mmc_detect_bus_clk
ARM GAS  /var/folders/d2/nstgp4h54kz7g1l847x_b8wc0000gn/T//ccZ2eucn.s 			page 16


 856              		.section	.text.detect_bus_clk,"ax",%progbits
 857              		.align	1
 858              		.syntax unified
 859              		.thumb
 860              		.thumb_func
 861              		.fpu fpv4-sp-d16
 862              		.type	detect_bus_clk, %function
 863              	detect_bus_clk:
 864              		@ args = 0, pretend = 0, frame = 8
 865              		@ frame_needed = 1, uses_anonymous_args = 0
 866 0000 80B5     		push	{r7, lr}
 867 0002 82B0     		sub	sp, sp, #8
 868 0004 00AF     		add	r7, sp, #0
 869 0006 7860     		str	r0, [r7, #4]
 870 0008 3960     		str	r1, [r7]
 871 000a 7B68     		ldr	r3, [r7, #4]
 872 000c 1B6B     		ldr	r3, [r3, #48]
 873 000e 03F00F03 		and	r3, r3, #15
 874 0012 022B     		cmp	r3, #2
 875 0014 05D1     		bne	.L83
 876 0016 3968     		ldr	r1, [r7]
 877 0018 7868     		ldr	r0, [r7, #4]
 878 001a FFF7FEFF 		bl	mmc_detect_bus_clk
 879 001e 0346     		mov	r3, r0
 880 0020 04E0     		b	.L84
 881              	.L83:
 882 0022 3968     		ldr	r1, [r7]
 883 0024 7868     		ldr	r0, [r7, #4]
 884 0026 FFF7FEFF 		bl	sdc_detect_bus_clk
 885 002a 0346     		mov	r3, r0
 886              	.L84:
 887 002c 1846     		mov	r0, r3
 888 002e 0837     		adds	r7, r7, #8
 889 0030 BD46     		mov	sp, r7
 890              		@ sp needed
 891 0032 80BD     		pop	{r7, pc}
 892              		.size	detect_bus_clk, .-detect_bus_clk
 893              		.section	.text.sdc_set_bus_width,"ax",%progbits
 894              		.align	1
 895              		.syntax unified
 896              		.thumb
 897              		.thumb_func
 898              		.fpu fpv4-sp-d16
 899              		.type	sdc_set_bus_width, %function
 900              	sdc_set_bus_width:
 901              		@ args = 0, pretend = 0, frame = 16
 902              		@ frame_needed = 1, uses_anonymous_args = 0
 903 0000 80B5     		push	{r7, lr}
 904 0002 84B0     		sub	sp, sp, #16
 905 0004 00AF     		add	r7, sp, #0
 906 0006 7860     		str	r0, [r7, #4]
 907 0008 7B68     		ldr	r3, [r7, #4]
 908 000a DB6A     		ldr	r3, [r3, #44]
 909 000c 1B79     		ldrb	r3, [r3, #4]	@ zero_extendqisi2
 910 000e 002B     		cmp	r3, #0
 911 0010 01D1     		bne	.L86
 912 0012 0023     		movs	r3, #0
ARM GAS  /var/folders/d2/nstgp4h54kz7g1l847x_b8wc0000gn/T//ccZ2eucn.s 			page 17


 913 0014 2EE0     		b	.L93
 914              	.L86:
 915 0016 7B68     		ldr	r3, [r7, #4]
 916 0018 DB6A     		ldr	r3, [r3, #44]
 917 001a 1B79     		ldrb	r3, [r3, #4]	@ zero_extendqisi2
 918 001c 012B     		cmp	r3, #1
 919 001e 26D1     		bne	.L88
 920 0020 0121     		movs	r1, #1
 921 0022 7868     		ldr	r0, [r7, #4]
 922 0024 FFF7FEFF 		bl	sdc_lld_set_bus_mode
 923 0028 7B68     		ldr	r3, [r7, #4]
 924 002a 9A6B     		ldr	r2, [r3, #56]
 925 002c 07F10C03 		add	r3, r7, #12
 926 0030 3721     		movs	r1, #55
 927 0032 7868     		ldr	r0, [r7, #4]
 928 0034 FFF7FEFF 		bl	sdc_lld_send_cmd_short_crc
 929 0038 0346     		mov	r3, r0
 930 003a 002B     		cmp	r3, #0
 931 003c 04D1     		bne	.L89
 932 003e FA68     		ldr	r2, [r7, #12]
 933 0040 0E4B     		ldr	r3, .L94
 934 0042 1340     		ands	r3, r3, r2
 935 0044 002B     		cmp	r3, #0
 936 0046 01D0     		beq	.L90
 937              	.L89:
 938 0048 0123     		movs	r3, #1
 939 004a 13E0     		b	.L93
 940              	.L90:
 941 004c 07F10C03 		add	r3, r7, #12
 942 0050 0222     		movs	r2, #2
 943 0052 0621     		movs	r1, #6
 944 0054 7868     		ldr	r0, [r7, #4]
 945 0056 FFF7FEFF 		bl	sdc_lld_send_cmd_short_crc
 946 005a 0346     		mov	r3, r0
 947 005c 002B     		cmp	r3, #0
 948 005e 04D1     		bne	.L91
 949 0060 FA68     		ldr	r2, [r7, #12]
 950 0062 064B     		ldr	r3, .L94
 951 0064 1340     		ands	r3, r3, r2
 952 0066 002B     		cmp	r3, #0
 953 0068 03D0     		beq	.L92
 954              	.L91:
 955 006a 0123     		movs	r3, #1
 956 006c 02E0     		b	.L93
 957              	.L88:
 958 006e 0123     		movs	r3, #1
 959 0070 00E0     		b	.L93
 960              	.L92:
 961 0072 0023     		movs	r3, #0
 962              	.L93:
 963 0074 1846     		mov	r0, r3
 964 0076 1037     		adds	r7, r7, #16
 965 0078 BD46     		mov	sp, r7
 966              		@ sp needed
 967 007a 80BD     		pop	{r7, pc}
 968              	.L95:
 969              		.align	2
ARM GAS  /var/folders/d2/nstgp4h54kz7g1l847x_b8wc0000gn/T//ccZ2eucn.s 			page 18


 970              	.L94:
 971 007c 08E0FFFD 		.word	-33562616
 972              		.size	sdc_set_bus_width, .-sdc_set_bus_width
 973              		.section	.text.mmc_set_bus_width,"ax",%progbits
 974              		.align	1
 975              		.syntax unified
 976              		.thumb
 977              		.thumb_func
 978              		.fpu fpv4-sp-d16
 979              		.type	mmc_set_bus_width, %function
 980              	mmc_set_bus_width:
 981              		@ args = 0, pretend = 0, frame = 16
 982              		@ frame_needed = 1, uses_anonymous_args = 0
 983 0000 80B5     		push	{r7, lr}
 984 0002 84B0     		sub	sp, sp, #16
 985 0004 00AF     		add	r7, sp, #0
 986 0006 7860     		str	r0, [r7, #4]
 987 0008 0023     		movs	r3, #0
 988 000a 0022     		movs	r2, #0
 989 000c B721     		movs	r1, #183
 990 000e 0320     		movs	r0, #3
 991 0010 FFF7FEFF 		bl	mmc_cmd6_construct
 992 0014 F860     		str	r0, [r7, #12]
 993 0016 7B68     		ldr	r3, [r7, #4]
 994 0018 DB6A     		ldr	r3, [r3, #44]
 995 001a 1B79     		ldrb	r3, [r3, #4]	@ zero_extendqisi2
 996 001c 012B     		cmp	r3, #1
 997 001e 05D0     		beq	.L98
 998 0020 022B     		cmp	r3, #2
 999 0022 0BD0     		beq	.L99
 1000 0024 002B     		cmp	r3, #0
 1001 0026 11D1     		bne	.L107
 1002 0028 0023     		movs	r3, #0
 1003 002a 2CE0     		b	.L105
 1004              	.L98:
 1005 002c 0023     		movs	r3, #0
 1006 002e 0122     		movs	r2, #1
 1007 0030 B721     		movs	r1, #183
 1008 0032 0320     		movs	r0, #3
 1009 0034 FFF7FEFF 		bl	mmc_cmd6_construct
 1010 0038 F860     		str	r0, [r7, #12]
 1011 003a 0BE0     		b	.L102
 1012              	.L99:
 1013 003c 0023     		movs	r3, #0
 1014 003e 0222     		movs	r2, #2
 1015 0040 B721     		movs	r1, #183
 1016 0042 0320     		movs	r0, #3
 1017 0044 FFF7FEFF 		bl	mmc_cmd6_construct
 1018 0048 F860     		str	r0, [r7, #12]
 1019 004a 03E0     		b	.L102
 1020              	.L107:
 1021 004c 1048     		ldr	r0, .L108
 1022 004e FFF7FEFF 		bl	chSysHalt
 1023 0052 00BF     		nop
 1024              	.L102:
 1025 0054 7B68     		ldr	r3, [r7, #4]
 1026 0056 DB6A     		ldr	r3, [r3, #44]
ARM GAS  /var/folders/d2/nstgp4h54kz7g1l847x_b8wc0000gn/T//ccZ2eucn.s 			page 19


 1027 0058 1B79     		ldrb	r3, [r3, #4]	@ zero_extendqisi2
 1028 005a 1946     		mov	r1, r3
 1029 005c 7868     		ldr	r0, [r7, #4]
 1030 005e FFF7FEFF 		bl	sdc_lld_set_bus_mode
 1031 0062 07F10803 		add	r3, r7, #8
 1032 0066 FA68     		ldr	r2, [r7, #12]
 1033 0068 0621     		movs	r1, #6
 1034 006a 7868     		ldr	r0, [r7, #4]
 1035 006c FFF7FEFF 		bl	sdc_lld_send_cmd_short_crc
 1036 0070 0346     		mov	r3, r0
 1037 0072 002B     		cmp	r3, #0
 1038 0074 04D1     		bne	.L103
 1039 0076 BA68     		ldr	r2, [r7, #8]
 1040 0078 064B     		ldr	r3, .L108+4
 1041 007a 1340     		ands	r3, r3, r2
 1042 007c 002B     		cmp	r3, #0
 1043 007e 01D0     		beq	.L104
 1044              	.L103:
 1045 0080 0123     		movs	r3, #1
 1046 0082 00E0     		b	.L105
 1047              	.L104:
 1048 0084 0023     		movs	r3, #0
 1049              	.L105:
 1050 0086 1846     		mov	r0, r3
 1051 0088 1037     		adds	r7, r7, #16
 1052 008a BD46     		mov	sp, r7
 1053              		@ sp needed
 1054 008c 80BD     		pop	{r7, pc}
 1055              	.L109:
 1056 008e 00BF     		.align	2
 1057              	.L108:
 1058 0090 00000000 		.word	__func__.10348
 1059 0094 08E0FFFD 		.word	-33562616
 1060              		.size	mmc_set_bus_width, .-mmc_set_bus_width
 1061              		.section	.text._sdc_wait_for_transfer_state,"ax",%progbits
 1062              		.align	1
 1063              		.global	_sdc_wait_for_transfer_state
 1064              		.syntax unified
 1065              		.thumb
 1066              		.thumb_func
 1067              		.fpu fpv4-sp-d16
 1068              		.type	_sdc_wait_for_transfer_state, %function
 1069              	_sdc_wait_for_transfer_state:
 1070              		@ args = 0, pretend = 0, frame = 16
 1071              		@ frame_needed = 1, uses_anonymous_args = 0
 1072 0000 80B5     		push	{r7, lr}
 1073 0002 84B0     		sub	sp, sp, #16
 1074 0004 00AF     		add	r7, sp, #0
 1075 0006 7860     		str	r0, [r7, #4]
 1076              	.L117:
 1077 0008 7B68     		ldr	r3, [r7, #4]
 1078 000a 9A6B     		ldr	r2, [r3, #56]
 1079 000c 07F10C03 		add	r3, r7, #12
 1080 0010 0D21     		movs	r1, #13
 1081 0012 7868     		ldr	r0, [r7, #4]
 1082 0014 FFF7FEFF 		bl	sdc_lld_send_cmd_short_crc
 1083 0018 0346     		mov	r3, r0
ARM GAS  /var/folders/d2/nstgp4h54kz7g1l847x_b8wc0000gn/T//ccZ2eucn.s 			page 20


 1084 001a 002B     		cmp	r3, #0
 1085 001c 04D1     		bne	.L111
 1086 001e FA68     		ldr	r2, [r7, #12]
 1087 0020 0D4B     		ldr	r3, .L120
 1088 0022 1340     		ands	r3, r3, r2
 1089 0024 002B     		cmp	r3, #0
 1090 0026 01D0     		beq	.L112
 1091              	.L111:
 1092 0028 0123     		movs	r3, #1
 1093 002a 11E0     		b	.L118
 1094              	.L112:
 1095 002c FB68     		ldr	r3, [r7, #12]
 1096 002e 5B0A     		lsrs	r3, r3, #9
 1097 0030 03F00F03 		and	r3, r3, #15
 1098 0034 042B     		cmp	r3, #4
 1099 0036 04D0     		beq	.L115
 1100 0038 042B     		cmp	r3, #4
 1101 003a 08D3     		bcc	.L114
 1102 003c 072B     		cmp	r3, #7
 1103 003e 06D8     		bhi	.L114
 1104 0040 01E0     		b	.L119
 1105              	.L115:
 1106 0042 0023     		movs	r3, #0
 1107 0044 04E0     		b	.L118
 1108              	.L119:
 1109 0046 0120     		movs	r0, #1
 1110 0048 FFF7FEFF 		bl	osalThreadSleep
 1111 004c DCE7     		b	.L117
 1112              	.L114:
 1113 004e 0123     		movs	r3, #1
 1114              	.L118:
 1115 0050 1846     		mov	r0, r3
 1116 0052 1037     		adds	r7, r7, #16
 1117 0054 BD46     		mov	sp, r7
 1118              		@ sp needed
 1119 0056 80BD     		pop	{r7, pc}
 1120              	.L121:
 1121              		.align	2
 1122              	.L120:
 1123 0058 08E0FFFD 		.word	-33562616
 1124              		.size	_sdc_wait_for_transfer_state, .-_sdc_wait_for_transfer_state
 1125              		.section	.text.sdcInit,"ax",%progbits
 1126              		.align	1
 1127              		.global	sdcInit
 1128              		.syntax unified
 1129              		.thumb
 1130              		.thumb_func
 1131              		.fpu fpv4-sp-d16
 1132              		.type	sdcInit, %function
 1133              	sdcInit:
 1134              		@ args = 0, pretend = 0, frame = 0
 1135              		@ frame_needed = 1, uses_anonymous_args = 0
 1136 0000 80B5     		push	{r7, lr}
 1137 0002 00AF     		add	r7, sp, #0
 1138 0004 FFF7FEFF 		bl	sdc_lld_init
 1139 0008 00BF     		nop
 1140 000a 80BD     		pop	{r7, pc}
ARM GAS  /var/folders/d2/nstgp4h54kz7g1l847x_b8wc0000gn/T//ccZ2eucn.s 			page 21


 1141              		.size	sdcInit, .-sdcInit
 1142              		.section	.text.sdcObjectInit,"ax",%progbits
 1143              		.align	1
 1144              		.global	sdcObjectInit
 1145              		.syntax unified
 1146              		.thumb
 1147              		.thumb_func
 1148              		.fpu fpv4-sp-d16
 1149              		.type	sdcObjectInit, %function
 1150              	sdcObjectInit:
 1151              		@ args = 0, pretend = 0, frame = 8
 1152              		@ frame_needed = 1, uses_anonymous_args = 0
 1153              		@ link register save eliminated.
 1154 0000 80B4     		push	{r7}
 1155 0002 83B0     		sub	sp, sp, #12
 1156 0004 00AF     		add	r7, sp, #0
 1157 0006 7860     		str	r0, [r7, #4]
 1158 0008 7B68     		ldr	r3, [r7, #4]
 1159 000a 0A4A     		ldr	r2, .L124
 1160 000c 1A60     		str	r2, [r3]
 1161 000e 7B68     		ldr	r3, [r7, #4]
 1162 0010 0122     		movs	r2, #1
 1163 0012 1A71     		strb	r2, [r3, #4]
 1164 0014 7B68     		ldr	r3, [r7, #4]
 1165 0016 0022     		movs	r2, #0
 1166 0018 5A63     		str	r2, [r3, #52]
 1167 001a 7B68     		ldr	r3, [r7, #4]
 1168 001c 0022     		movs	r2, #0
 1169 001e DA62     		str	r2, [r3, #44]
 1170 0020 7B68     		ldr	r3, [r7, #4]
 1171 0022 0022     		movs	r2, #0
 1172 0024 9A62     		str	r2, [r3, #40]
 1173 0026 00BF     		nop
 1174 0028 0C37     		adds	r7, r7, #12
 1175 002a BD46     		mov	sp, r7
 1176              		@ sp needed
 1177 002c 5DF8047B 		ldr	r7, [sp], #4
 1178 0030 7047     		bx	lr
 1179              	.L125:
 1180 0032 00BF     		.align	2
 1181              	.L124:
 1182 0034 00000000 		.word	sdc_vmt
 1183              		.size	sdcObjectInit, .-sdcObjectInit
 1184              		.section	.text.sdcStart,"ax",%progbits
 1185              		.align	1
 1186              		.global	sdcStart
 1187              		.syntax unified
 1188              		.thumb
 1189              		.thumb_func
 1190              		.fpu fpv4-sp-d16
 1191              		.type	sdcStart, %function
 1192              	sdcStart:
 1193              		@ args = 0, pretend = 0, frame = 8
 1194              		@ frame_needed = 1, uses_anonymous_args = 0
 1195 0000 80B5     		push	{r7, lr}
 1196 0002 82B0     		sub	sp, sp, #8
 1197 0004 00AF     		add	r7, sp, #0
ARM GAS  /var/folders/d2/nstgp4h54kz7g1l847x_b8wc0000gn/T//ccZ2eucn.s 			page 22


 1198 0006 7860     		str	r0, [r7, #4]
 1199 0008 3960     		str	r1, [r7]
 1200 000a 7B68     		ldr	r3, [r7, #4]
 1201 000c 002B     		cmp	r3, #0
 1202 000e 02D1     		bne	.L127
 1203 0010 0F48     		ldr	r0, .L129
 1204 0012 FFF7FEFF 		bl	chSysHalt
 1205              	.L127:
 1206 0016 FFF7FEFF 		bl	osalSysLock
 1207 001a 7B68     		ldr	r3, [r7, #4]
 1208 001c 1B79     		ldrb	r3, [r3, #4]	@ zero_extendqisi2
 1209 001e 012B     		cmp	r3, #1
 1210 0020 06D0     		beq	.L128
 1211 0022 7B68     		ldr	r3, [r7, #4]
 1212 0024 1B79     		ldrb	r3, [r3, #4]	@ zero_extendqisi2
 1213 0026 022B     		cmp	r3, #2
 1214 0028 02D0     		beq	.L128
 1215 002a 0948     		ldr	r0, .L129
 1216 002c FFF7FEFF 		bl	chSysHalt
 1217              	.L128:
 1218 0030 7B68     		ldr	r3, [r7, #4]
 1219 0032 3A68     		ldr	r2, [r7]
 1220 0034 DA62     		str	r2, [r3, #44]
 1221 0036 7868     		ldr	r0, [r7, #4]
 1222 0038 FFF7FEFF 		bl	sdc_lld_start
 1223 003c 7B68     		ldr	r3, [r7, #4]
 1224 003e 0222     		movs	r2, #2
 1225 0040 1A71     		strb	r2, [r3, #4]
 1226 0042 FFF7FEFF 		bl	osalSysUnlock
 1227 0046 00BF     		nop
 1228 0048 0837     		adds	r7, r7, #8
 1229 004a BD46     		mov	sp, r7
 1230              		@ sp needed
 1231 004c 80BD     		pop	{r7, pc}
 1232              	.L130:
 1233 004e 00BF     		.align	2
 1234              	.L129:
 1235 0050 00000000 		.word	__func__.10370
 1236              		.size	sdcStart, .-sdcStart
 1237              		.section	.text.sdcStop,"ax",%progbits
 1238              		.align	1
 1239              		.global	sdcStop
 1240              		.syntax unified
 1241              		.thumb
 1242              		.thumb_func
 1243              		.fpu fpv4-sp-d16
 1244              		.type	sdcStop, %function
 1245              	sdcStop:
 1246              		@ args = 0, pretend = 0, frame = 8
 1247              		@ frame_needed = 1, uses_anonymous_args = 0
 1248 0000 80B5     		push	{r7, lr}
 1249 0002 82B0     		sub	sp, sp, #8
 1250 0004 00AF     		add	r7, sp, #0
 1251 0006 7860     		str	r0, [r7, #4]
 1252 0008 7B68     		ldr	r3, [r7, #4]
 1253 000a 002B     		cmp	r3, #0
 1254 000c 02D1     		bne	.L132
ARM GAS  /var/folders/d2/nstgp4h54kz7g1l847x_b8wc0000gn/T//ccZ2eucn.s 			page 23


 1255 000e 0E48     		ldr	r0, .L134
 1256 0010 FFF7FEFF 		bl	chSysHalt
 1257              	.L132:
 1258 0014 FFF7FEFF 		bl	osalSysLock
 1259 0018 7B68     		ldr	r3, [r7, #4]
 1260 001a 1B79     		ldrb	r3, [r3, #4]	@ zero_extendqisi2
 1261 001c 012B     		cmp	r3, #1
 1262 001e 06D0     		beq	.L133
 1263 0020 7B68     		ldr	r3, [r7, #4]
 1264 0022 1B79     		ldrb	r3, [r3, #4]	@ zero_extendqisi2
 1265 0024 022B     		cmp	r3, #2
 1266 0026 02D0     		beq	.L133
 1267 0028 0748     		ldr	r0, .L134
 1268 002a FFF7FEFF 		bl	chSysHalt
 1269              	.L133:
 1270 002e 7868     		ldr	r0, [r7, #4]
 1271 0030 FFF7FEFF 		bl	sdc_lld_stop
 1272 0034 7B68     		ldr	r3, [r7, #4]
 1273 0036 0122     		movs	r2, #1
 1274 0038 1A71     		strb	r2, [r3, #4]
 1275 003a FFF7FEFF 		bl	osalSysUnlock
 1276 003e 00BF     		nop
 1277 0040 0837     		adds	r7, r7, #8
 1278 0042 BD46     		mov	sp, r7
 1279              		@ sp needed
 1280 0044 80BD     		pop	{r7, pc}
 1281              	.L135:
 1282 0046 00BF     		.align	2
 1283              	.L134:
 1284 0048 00000000 		.word	__func__.10374
 1285              		.size	sdcStop, .-sdcStop
 1286              		.section	.text.sdcConnect,"ax",%progbits
 1287              		.align	1
 1288              		.global	sdcConnect
 1289              		.syntax unified
 1290              		.thumb
 1291              		.thumb_func
 1292              		.fpu fpv4-sp-d16
 1293              		.type	sdcConnect, %function
 1294              	sdcConnect:
 1295              		@ args = 0, pretend = 0, frame = 24
 1296              		@ frame_needed = 1, uses_anonymous_args = 0
 1297 0000 80B5     		push	{r7, lr}
 1298 0002 88B0     		sub	sp, sp, #32
 1299 0004 02AF     		add	r7, sp, #8
 1300 0006 7860     		str	r0, [r7, #4]
 1301 0008 0023     		movs	r3, #0
 1302 000a FB73     		strb	r3, [r7, #15]
 1303 000c 7B68     		ldr	r3, [r7, #4]
 1304 000e 002B     		cmp	r3, #0
 1305 0010 02D1     		bne	.L162
 1306 0012 7B48     		ldr	r0, .L175
 1307 0014 FFF7FEFF 		bl	chSysHalt
 1308              	.L162:
 1309 0018 7B68     		ldr	r3, [r7, #4]
 1310 001a 1B79     		ldrb	r3, [r3, #4]	@ zero_extendqisi2
 1311 001c 022B     		cmp	r3, #2
ARM GAS  /var/folders/d2/nstgp4h54kz7g1l847x_b8wc0000gn/T//ccZ2eucn.s 			page 24


 1312 001e 06D0     		beq	.L138
 1313 0020 7B68     		ldr	r3, [r7, #4]
 1314 0022 1B79     		ldrb	r3, [r3, #4]	@ zero_extendqisi2
 1315 0024 052B     		cmp	r3, #5
 1316 0026 02D0     		beq	.L138
 1317 0028 7548     		ldr	r0, .L175
 1318 002a FFF7FEFF 		bl	chSysHalt
 1319              	.L138:
 1320 002e 7B68     		ldr	r3, [r7, #4]
 1321 0030 0322     		movs	r2, #3
 1322 0032 1A71     		strb	r2, [r3, #4]
 1323 0034 7868     		ldr	r0, [r7, #4]
 1324 0036 FFF7FEFF 		bl	sdc_lld_start_clk
 1325 003a 0022     		movs	r2, #0
 1326 003c 0021     		movs	r1, #0
 1327 003e 7868     		ldr	r0, [r7, #4]
 1328 0040 FFF7FEFF 		bl	sdc_lld_send_cmd_none
 1329 0044 7868     		ldr	r0, [r7, #4]
 1330 0046 FFF7FEFF 		bl	mode_detect
 1331 004a 0346     		mov	r3, r0
 1332 004c 002B     		cmp	r3, #0
 1333 004e 40F0B780 		bne	.L163
 1334 0052 7B68     		ldr	r3, [r7, #4]
 1335 0054 1B6B     		ldr	r3, [r3, #48]
 1336 0056 03F00F03 		and	r3, r3, #15
 1337 005a 022B     		cmp	r3, #2
 1338 005c 06D1     		bne	.L141
 1339 005e 7868     		ldr	r0, [r7, #4]
 1340 0060 FFF7FEFF 		bl	mmc_init
 1341 0064 0346     		mov	r3, r0
 1342 0066 002B     		cmp	r3, #0
 1343 0068 07D0     		beq	.L142
 1344 006a BEE0     		b	.L140
 1345              	.L141:
 1346 006c 7868     		ldr	r0, [r7, #4]
 1347 006e FFF7FEFF 		bl	sdc_init
 1348 0072 0346     		mov	r3, r0
 1349 0074 002B     		cmp	r3, #0
 1350 0076 40F0A580 		bne	.L164
 1351              	.L142:
 1352 007a 7B68     		ldr	r3, [r7, #4]
 1353 007c 0833     		adds	r3, r3, #8
 1354 007e 0022     		movs	r2, #0
 1355 0080 0221     		movs	r1, #2
 1356 0082 7868     		ldr	r0, [r7, #4]
 1357 0084 FFF7FEFF 		bl	sdc_lld_send_cmd_long_crc
 1358 0088 0346     		mov	r3, r0
 1359 008a 002B     		cmp	r3, #0
 1360 008c 40F09C80 		bne	.L165
 1361 0090 7B68     		ldr	r3, [r7, #4]
 1362 0092 3833     		adds	r3, r3, #56
 1363 0094 0022     		movs	r2, #0
 1364 0096 0321     		movs	r1, #3
 1365 0098 7868     		ldr	r0, [r7, #4]
 1366 009a FFF7FEFF 		bl	sdc_lld_send_cmd_short_crc
 1367 009e 0346     		mov	r3, r0
 1368 00a0 002B     		cmp	r3, #0
ARM GAS  /var/folders/d2/nstgp4h54kz7g1l847x_b8wc0000gn/T//ccZ2eucn.s 			page 25


 1369 00a2 40F09380 		bne	.L166
 1370 00a6 7B68     		ldr	r3, [r7, #4]
 1371 00a8 9A6B     		ldr	r2, [r3, #56]
 1372 00aa 7B68     		ldr	r3, [r7, #4]
 1373 00ac 1833     		adds	r3, r3, #24
 1374 00ae 0921     		movs	r1, #9
 1375 00b0 7868     		ldr	r0, [r7, #4]
 1376 00b2 FFF7FEFF 		bl	sdc_lld_send_cmd_long_crc
 1377 00b6 0346     		mov	r3, r0
 1378 00b8 002B     		cmp	r3, #0
 1379 00ba 40F08980 		bne	.L167
 1380 00be 7B68     		ldr	r3, [r7, #4]
 1381 00c0 9A6B     		ldr	r2, [r3, #56]
 1382 00c2 07F11003 		add	r3, r7, #16
 1383 00c6 0721     		movs	r1, #7
 1384 00c8 7868     		ldr	r0, [r7, #4]
 1385 00ca FFF7FEFF 		bl	sdc_lld_send_cmd_short_crc
 1386 00ce 0346     		mov	r3, r0
 1387 00d0 002B     		cmp	r3, #0
 1388 00d2 7FD1     		bne	.L168
 1389 00d4 07F10F03 		add	r3, r7, #15
 1390 00d8 1946     		mov	r1, r3
 1391 00da 7868     		ldr	r0, [r7, #4]
 1392 00dc FFF7FEFF 		bl	detect_bus_clk
 1393 00e0 0346     		mov	r3, r0
 1394 00e2 002B     		cmp	r3, #0
 1395 00e4 78D1     		bne	.L169
 1396 00e6 FB7B     		ldrb	r3, [r7, #15]	@ zero_extendqisi2
 1397 00e8 1946     		mov	r1, r3
 1398 00ea 7868     		ldr	r0, [r7, #4]
 1399 00ec FFF7FEFF 		bl	sdc_lld_set_data_clk
 1400 00f0 7B68     		ldr	r3, [r7, #4]
 1401 00f2 1B6B     		ldr	r3, [r3, #48]
 1402 00f4 03F00F03 		and	r3, r3, #15
 1403 00f8 022B     		cmp	r3, #2
 1404 00fa 2CD1     		bne	.L148
 1405 00fc 7B68     		ldr	r3, [r7, #4]
 1406 00fe 1833     		adds	r3, r3, #24
 1407 0100 7E22     		movs	r2, #126
 1408 0102 7F21     		movs	r1, #127
 1409 0104 1846     		mov	r0, r3
 1410 0106 FFF7FEFF 		bl	_mmcsd_get_slice
 1411 010a 0346     		mov	r3, r0
 1412 010c 012B     		cmp	r3, #1
 1413 010e 19D9     		bls	.L149
 1414 0110 7B68     		ldr	r3, [r7, #4]
 1415 0112 DB6A     		ldr	r3, [r3, #44]
 1416 0114 1B68     		ldr	r3, [r3]
 1417 0116 7B61     		str	r3, [r7, #20]
 1418 0118 7B69     		ldr	r3, [r7, #20]
 1419 011a 002B     		cmp	r3, #0
 1420 011c 5ED0     		beq	.L170
 1421 011e 0023     		movs	r3, #0
 1422 0120 0093     		str	r3, [sp]
 1423 0122 0823     		movs	r3, #8
 1424 0124 4FF40072 		mov	r2, #512
 1425 0128 7969     		ldr	r1, [r7, #20]
ARM GAS  /var/folders/d2/nstgp4h54kz7g1l847x_b8wc0000gn/T//ccZ2eucn.s 			page 26


 1426 012a 7868     		ldr	r0, [r7, #4]
 1427 012c FFF7FEFF 		bl	sdc_lld_read_special
 1428 0130 0346     		mov	r3, r0
 1429 0132 002B     		cmp	r3, #0
 1430 0134 54D1     		bne	.L171
 1431 0136 7869     		ldr	r0, [r7, #20]
 1432 0138 FFF7FEFF 		bl	_mmcsd_get_capacity_ext
 1433 013c 0246     		mov	r2, r0
 1434 013e 7B68     		ldr	r3, [r7, #4]
 1435 0140 9A62     		str	r2, [r3, #40]
 1436 0142 10E0     		b	.L153
 1437              	.L149:
 1438 0144 7B68     		ldr	r3, [r7, #4]
 1439 0146 1833     		adds	r3, r3, #24
 1440 0148 1846     		mov	r0, r3
 1441 014a FFF7FEFF 		bl	_mmcsd_get_capacity
 1442 014e 0246     		mov	r2, r0
 1443 0150 7B68     		ldr	r3, [r7, #4]
 1444 0152 9A62     		str	r2, [r3, #40]
 1445 0154 07E0     		b	.L153
 1446              	.L148:
 1447 0156 7B68     		ldr	r3, [r7, #4]
 1448 0158 1833     		adds	r3, r3, #24
 1449 015a 1846     		mov	r0, r3
 1450 015c FFF7FEFF 		bl	_mmcsd_get_capacity
 1451 0160 0246     		mov	r2, r0
 1452 0162 7B68     		ldr	r3, [r7, #4]
 1453 0164 9A62     		str	r2, [r3, #40]
 1454              	.L153:
 1455 0166 07F11003 		add	r3, r7, #16
 1456 016a 4FF40072 		mov	r2, #512
 1457 016e 1021     		movs	r1, #16
 1458 0170 7868     		ldr	r0, [r7, #4]
 1459 0172 FFF7FEFF 		bl	sdc_lld_send_cmd_short_crc
 1460 0176 0346     		mov	r3, r0
 1461 0178 002B     		cmp	r3, #0
 1462 017a 33D1     		bne	.L172
 1463 017c 3A69     		ldr	r2, [r7, #16]
 1464 017e 214B     		ldr	r3, .L175+4
 1465 0180 1340     		ands	r3, r3, r2
 1466 0182 002B     		cmp	r3, #0
 1467 0184 2ED1     		bne	.L172
 1468 0186 7B68     		ldr	r3, [r7, #4]
 1469 0188 1B6B     		ldr	r3, [r3, #48]
 1470 018a 03F00F03 		and	r3, r3, #15
 1471 018e 012B     		cmp	r3, #1
 1472 0190 02D9     		bls	.L155
 1473 0192 022B     		cmp	r3, #2
 1474 0194 07D0     		beq	.L156
 1475 0196 28E0     		b	.L140
 1476              	.L155:
 1477 0198 7868     		ldr	r0, [r7, #4]
 1478 019a FFF7FEFF 		bl	sdc_set_bus_width
 1479 019e 0346     		mov	r3, r0
 1480 01a0 002B     		cmp	r3, #0
 1481 01a2 07D0     		beq	.L173
 1482 01a4 21E0     		b	.L140
ARM GAS  /var/folders/d2/nstgp4h54kz7g1l847x_b8wc0000gn/T//ccZ2eucn.s 			page 27


 1483              	.L156:
 1484 01a6 7868     		ldr	r0, [r7, #4]
 1485 01a8 FFF7FEFF 		bl	mmc_set_bus_width
 1486 01ac 0346     		mov	r3, r0
 1487 01ae 002B     		cmp	r3, #0
 1488 01b0 1AD1     		bne	.L174
 1489 01b2 00E0     		b	.L158
 1490              	.L173:
 1491 01b4 00BF     		nop
 1492              	.L158:
 1493 01b6 7B68     		ldr	r3, [r7, #4]
 1494 01b8 0522     		movs	r2, #5
 1495 01ba 1A71     		strb	r2, [r3, #4]
 1496 01bc 0023     		movs	r3, #0
 1497 01be 1BE0     		b	.L161
 1498              	.L163:
 1499 01c0 00BF     		nop
 1500 01c2 12E0     		b	.L140
 1501              	.L164:
 1502 01c4 00BF     		nop
 1503 01c6 10E0     		b	.L140
 1504              	.L165:
 1505 01c8 00BF     		nop
 1506 01ca 0EE0     		b	.L140
 1507              	.L166:
 1508 01cc 00BF     		nop
 1509 01ce 0CE0     		b	.L140
 1510              	.L167:
 1511 01d0 00BF     		nop
 1512 01d2 0AE0     		b	.L140
 1513              	.L168:
 1514 01d4 00BF     		nop
 1515 01d6 08E0     		b	.L140
 1516              	.L169:
 1517 01d8 00BF     		nop
 1518 01da 06E0     		b	.L140
 1519              	.L170:
 1520 01dc 00BF     		nop
 1521 01de 04E0     		b	.L140
 1522              	.L171:
 1523 01e0 00BF     		nop
 1524 01e2 02E0     		b	.L140
 1525              	.L172:
 1526 01e4 00BF     		nop
 1527 01e6 00E0     		b	.L140
 1528              	.L174:
 1529 01e8 00BF     		nop
 1530              	.L140:
 1531 01ea 7868     		ldr	r0, [r7, #4]
 1532 01ec FFF7FEFF 		bl	sdc_lld_stop_clk
 1533 01f0 7B68     		ldr	r3, [r7, #4]
 1534 01f2 0222     		movs	r2, #2
 1535 01f4 1A71     		strb	r2, [r3, #4]
 1536 01f6 0123     		movs	r3, #1
 1537              	.L161:
 1538 01f8 1846     		mov	r0, r3
 1539 01fa 1837     		adds	r7, r7, #24
ARM GAS  /var/folders/d2/nstgp4h54kz7g1l847x_b8wc0000gn/T//ccZ2eucn.s 			page 28


 1540 01fc BD46     		mov	sp, r7
 1541              		@ sp needed
 1542 01fe 80BD     		pop	{r7, pc}
 1543              	.L176:
 1544              		.align	2
 1545              	.L175:
 1546 0200 00000000 		.word	__func__.10380
 1547 0204 08E0FFFD 		.word	-33562616
 1548              		.size	sdcConnect, .-sdcConnect
 1549              		.section	.text.sdcDisconnect,"ax",%progbits
 1550              		.align	1
 1551              		.global	sdcDisconnect
 1552              		.syntax unified
 1553              		.thumb
 1554              		.thumb_func
 1555              		.fpu fpv4-sp-d16
 1556              		.type	sdcDisconnect, %function
 1557              	sdcDisconnect:
 1558              		@ args = 0, pretend = 0, frame = 8
 1559              		@ frame_needed = 1, uses_anonymous_args = 0
 1560 0000 80B5     		push	{r7, lr}
 1561 0002 82B0     		sub	sp, sp, #8
 1562 0004 00AF     		add	r7, sp, #0
 1563 0006 7860     		str	r0, [r7, #4]
 1564 0008 7B68     		ldr	r3, [r7, #4]
 1565 000a 002B     		cmp	r3, #0
 1566 000c 02D1     		bne	.L178
 1567 000e 1B48     		ldr	r0, .L183
 1568 0010 FFF7FEFF 		bl	chSysHalt
 1569              	.L178:
 1570 0014 FFF7FEFF 		bl	osalSysLock
 1571 0018 7B68     		ldr	r3, [r7, #4]
 1572 001a 1B79     		ldrb	r3, [r3, #4]	@ zero_extendqisi2
 1573 001c 022B     		cmp	r3, #2
 1574 001e 06D0     		beq	.L179
 1575 0020 7B68     		ldr	r3, [r7, #4]
 1576 0022 1B79     		ldrb	r3, [r3, #4]	@ zero_extendqisi2
 1577 0024 052B     		cmp	r3, #5
 1578 0026 02D0     		beq	.L179
 1579 0028 1448     		ldr	r0, .L183
 1580 002a FFF7FEFF 		bl	chSysHalt
 1581              	.L179:
 1582 002e 7B68     		ldr	r3, [r7, #4]
 1583 0030 1B79     		ldrb	r3, [r3, #4]	@ zero_extendqisi2
 1584 0032 022B     		cmp	r3, #2
 1585 0034 03D1     		bne	.L180
 1586 0036 FFF7FEFF 		bl	osalSysUnlock
 1587 003a 0023     		movs	r3, #0
 1588 003c 19E0     		b	.L181
 1589              	.L180:
 1590 003e 7B68     		ldr	r3, [r7, #4]
 1591 0040 0422     		movs	r2, #4
 1592 0042 1A71     		strb	r2, [r3, #4]
 1593 0044 FFF7FEFF 		bl	osalSysUnlock
 1594 0048 7868     		ldr	r0, [r7, #4]
 1595 004a FFF7FEFF 		bl	_sdc_wait_for_transfer_state
 1596 004e 0346     		mov	r3, r0
ARM GAS  /var/folders/d2/nstgp4h54kz7g1l847x_b8wc0000gn/T//ccZ2eucn.s 			page 29


 1597 0050 002B     		cmp	r3, #0
 1598 0052 07D0     		beq	.L182
 1599 0054 7868     		ldr	r0, [r7, #4]
 1600 0056 FFF7FEFF 		bl	sdc_lld_stop_clk
 1601 005a 7B68     		ldr	r3, [r7, #4]
 1602 005c 0222     		movs	r2, #2
 1603 005e 1A71     		strb	r2, [r3, #4]
 1604 0060 0123     		movs	r3, #1
 1605 0062 06E0     		b	.L181
 1606              	.L182:
 1607 0064 7868     		ldr	r0, [r7, #4]
 1608 0066 FFF7FEFF 		bl	sdc_lld_stop_clk
 1609 006a 7B68     		ldr	r3, [r7, #4]
 1610 006c 0222     		movs	r2, #2
 1611 006e 1A71     		strb	r2, [r3, #4]
 1612 0070 0023     		movs	r3, #0
 1613              	.L181:
 1614 0072 1846     		mov	r0, r3
 1615 0074 0837     		adds	r7, r7, #8
 1616 0076 BD46     		mov	sp, r7
 1617              		@ sp needed
 1618 0078 80BD     		pop	{r7, pc}
 1619              	.L184:
 1620 007a 00BF     		.align	2
 1621              	.L183:
 1622 007c 00000000 		.word	__func__.10391
 1623              		.size	sdcDisconnect, .-sdcDisconnect
 1624              		.section	.text.sdcRead,"ax",%progbits
 1625              		.align	1
 1626              		.global	sdcRead
 1627              		.syntax unified
 1628              		.thumb
 1629              		.thumb_func
 1630              		.fpu fpv4-sp-d16
 1631              		.type	sdcRead, %function
 1632              	sdcRead:
 1633              		@ args = 0, pretend = 0, frame = 24
 1634              		@ frame_needed = 1, uses_anonymous_args = 0
 1635 0000 80B5     		push	{r7, lr}
 1636 0002 86B0     		sub	sp, sp, #24
 1637 0004 00AF     		add	r7, sp, #0
 1638 0006 F860     		str	r0, [r7, #12]
 1639 0008 B960     		str	r1, [r7, #8]
 1640 000a 7A60     		str	r2, [r7, #4]
 1641 000c 3B60     		str	r3, [r7]
 1642 000e FB68     		ldr	r3, [r7, #12]
 1643 0010 002B     		cmp	r3, #0
 1644 0012 05D0     		beq	.L186
 1645 0014 7B68     		ldr	r3, [r7, #4]
 1646 0016 002B     		cmp	r3, #0
 1647 0018 02D0     		beq	.L186
 1648 001a 3B68     		ldr	r3, [r7]
 1649 001c 002B     		cmp	r3, #0
 1650 001e 02D1     		bne	.L191
 1651              	.L186:
 1652 0020 1648     		ldr	r0, .L192
 1653 0022 FFF7FEFF 		bl	chSysHalt
ARM GAS  /var/folders/d2/nstgp4h54kz7g1l847x_b8wc0000gn/T//ccZ2eucn.s 			page 30


 1654              	.L191:
 1655 0026 FB68     		ldr	r3, [r7, #12]
 1656 0028 1B79     		ldrb	r3, [r3, #4]	@ zero_extendqisi2
 1657 002a 052B     		cmp	r3, #5
 1658 002c 02D0     		beq	.L188
 1659 002e 1348     		ldr	r0, .L192
 1660 0030 FFF7FEFF 		bl	chSysHalt
 1661              	.L188:
 1662 0034 BA68     		ldr	r2, [r7, #8]
 1663 0036 3B68     		ldr	r3, [r7]
 1664 0038 1344     		add	r3, r3, r2
 1665 003a 5A1E     		subs	r2, r3, #1
 1666 003c FB68     		ldr	r3, [r7, #12]
 1667 003e 9B6A     		ldr	r3, [r3, #40]
 1668 0040 9A42     		cmp	r2, r3
 1669 0042 07D9     		bls	.L189
 1670 0044 FB68     		ldr	r3, [r7, #12]
 1671 0046 5B6B     		ldr	r3, [r3, #52]
 1672 0048 43F08002 		orr	r2, r3, #128
 1673 004c FB68     		ldr	r3, [r7, #12]
 1674 004e 5A63     		str	r2, [r3, #52]
 1675 0050 0123     		movs	r3, #1
 1676 0052 0EE0     		b	.L190
 1677              	.L189:
 1678 0054 FB68     		ldr	r3, [r7, #12]
 1679 0056 0622     		movs	r2, #6
 1680 0058 1A71     		strb	r2, [r3, #4]
 1681 005a 3B68     		ldr	r3, [r7]
 1682 005c 7A68     		ldr	r2, [r7, #4]
 1683 005e B968     		ldr	r1, [r7, #8]
 1684 0060 F868     		ldr	r0, [r7, #12]
 1685 0062 FFF7FEFF 		bl	sdc_lld_read
 1686 0066 0346     		mov	r3, r0
 1687 0068 FB75     		strb	r3, [r7, #23]
 1688 006a FB68     		ldr	r3, [r7, #12]
 1689 006c 0522     		movs	r2, #5
 1690 006e 1A71     		strb	r2, [r3, #4]
 1691 0070 FB7D     		ldrb	r3, [r7, #23]	@ zero_extendqisi2
 1692              	.L190:
 1693 0072 1846     		mov	r0, r3
 1694 0074 1837     		adds	r7, r7, #24
 1695 0076 BD46     		mov	sp, r7
 1696              		@ sp needed
 1697 0078 80BD     		pop	{r7, pc}
 1698              	.L193:
 1699 007a 00BF     		.align	2
 1700              	.L192:
 1701 007c 00000000 		.word	__func__.10399
 1702              		.size	sdcRead, .-sdcRead
 1703              		.section	.text.sdcWrite,"ax",%progbits
 1704              		.align	1
 1705              		.global	sdcWrite
 1706              		.syntax unified
 1707              		.thumb
 1708              		.thumb_func
 1709              		.fpu fpv4-sp-d16
 1710              		.type	sdcWrite, %function
ARM GAS  /var/folders/d2/nstgp4h54kz7g1l847x_b8wc0000gn/T//ccZ2eucn.s 			page 31


 1711              	sdcWrite:
 1712              		@ args = 0, pretend = 0, frame = 24
 1713              		@ frame_needed = 1, uses_anonymous_args = 0
 1714 0000 80B5     		push	{r7, lr}
 1715 0002 86B0     		sub	sp, sp, #24
 1716 0004 00AF     		add	r7, sp, #0
 1717 0006 F860     		str	r0, [r7, #12]
 1718 0008 B960     		str	r1, [r7, #8]
 1719 000a 7A60     		str	r2, [r7, #4]
 1720 000c 3B60     		str	r3, [r7]
 1721 000e FB68     		ldr	r3, [r7, #12]
 1722 0010 002B     		cmp	r3, #0
 1723 0012 05D0     		beq	.L195
 1724 0014 7B68     		ldr	r3, [r7, #4]
 1725 0016 002B     		cmp	r3, #0
 1726 0018 02D0     		beq	.L195
 1727 001a 3B68     		ldr	r3, [r7]
 1728 001c 002B     		cmp	r3, #0
 1729 001e 02D1     		bne	.L200
 1730              	.L195:
 1731 0020 1648     		ldr	r0, .L201
 1732 0022 FFF7FEFF 		bl	chSysHalt
 1733              	.L200:
 1734 0026 FB68     		ldr	r3, [r7, #12]
 1735 0028 1B79     		ldrb	r3, [r3, #4]	@ zero_extendqisi2
 1736 002a 052B     		cmp	r3, #5
 1737 002c 02D0     		beq	.L197
 1738 002e 1348     		ldr	r0, .L201
 1739 0030 FFF7FEFF 		bl	chSysHalt
 1740              	.L197:
 1741 0034 BA68     		ldr	r2, [r7, #8]
 1742 0036 3B68     		ldr	r3, [r7]
 1743 0038 1344     		add	r3, r3, r2
 1744 003a 5A1E     		subs	r2, r3, #1
 1745 003c FB68     		ldr	r3, [r7, #12]
 1746 003e 9B6A     		ldr	r3, [r3, #40]
 1747 0040 9A42     		cmp	r2, r3
 1748 0042 07D9     		bls	.L198
 1749 0044 FB68     		ldr	r3, [r7, #12]
 1750 0046 5B6B     		ldr	r3, [r3, #52]
 1751 0048 43F08002 		orr	r2, r3, #128
 1752 004c FB68     		ldr	r3, [r7, #12]
 1753 004e 5A63     		str	r2, [r3, #52]
 1754 0050 0123     		movs	r3, #1
 1755 0052 0EE0     		b	.L199
 1756              	.L198:
 1757 0054 FB68     		ldr	r3, [r7, #12]
 1758 0056 0722     		movs	r2, #7
 1759 0058 1A71     		strb	r2, [r3, #4]
 1760 005a 3B68     		ldr	r3, [r7]
 1761 005c 7A68     		ldr	r2, [r7, #4]
 1762 005e B968     		ldr	r1, [r7, #8]
 1763 0060 F868     		ldr	r0, [r7, #12]
 1764 0062 FFF7FEFF 		bl	sdc_lld_write
 1765 0066 0346     		mov	r3, r0
 1766 0068 FB75     		strb	r3, [r7, #23]
 1767 006a FB68     		ldr	r3, [r7, #12]
ARM GAS  /var/folders/d2/nstgp4h54kz7g1l847x_b8wc0000gn/T//ccZ2eucn.s 			page 32


 1768 006c 0522     		movs	r2, #5
 1769 006e 1A71     		strb	r2, [r3, #4]
 1770 0070 FB7D     		ldrb	r3, [r7, #23]	@ zero_extendqisi2
 1771              	.L199:
 1772 0072 1846     		mov	r0, r3
 1773 0074 1837     		adds	r7, r7, #24
 1774 0076 BD46     		mov	sp, r7
 1775              		@ sp needed
 1776 0078 80BD     		pop	{r7, pc}
 1777              	.L202:
 1778 007a 00BF     		.align	2
 1779              	.L201:
 1780 007c 00000000 		.word	__func__.10407
 1781              		.size	sdcWrite, .-sdcWrite
 1782              		.section	.text.sdcGetAndClearErrors,"ax",%progbits
 1783              		.align	1
 1784              		.global	sdcGetAndClearErrors
 1785              		.syntax unified
 1786              		.thumb
 1787              		.thumb_func
 1788              		.fpu fpv4-sp-d16
 1789              		.type	sdcGetAndClearErrors, %function
 1790              	sdcGetAndClearErrors:
 1791              		@ args = 0, pretend = 0, frame = 16
 1792              		@ frame_needed = 1, uses_anonymous_args = 0
 1793 0000 80B5     		push	{r7, lr}
 1794 0002 84B0     		sub	sp, sp, #16
 1795 0004 00AF     		add	r7, sp, #0
 1796 0006 7860     		str	r0, [r7, #4]
 1797 0008 7B68     		ldr	r3, [r7, #4]
 1798 000a 002B     		cmp	r3, #0
 1799 000c 02D1     		bne	.L207
 1800 000e 0C48     		ldr	r0, .L208
 1801 0010 FFF7FEFF 		bl	chSysHalt
 1802              	.L207:
 1803 0014 7B68     		ldr	r3, [r7, #4]
 1804 0016 1B79     		ldrb	r3, [r3, #4]	@ zero_extendqisi2
 1805 0018 052B     		cmp	r3, #5
 1806 001a 02D0     		beq	.L205
 1807 001c 0848     		ldr	r0, .L208
 1808 001e FFF7FEFF 		bl	chSysHalt
 1809              	.L205:
 1810 0022 FFF7FEFF 		bl	osalSysLock
 1811 0026 7B68     		ldr	r3, [r7, #4]
 1812 0028 5B6B     		ldr	r3, [r3, #52]
 1813 002a FB60     		str	r3, [r7, #12]
 1814 002c 7B68     		ldr	r3, [r7, #4]
 1815 002e 0022     		movs	r2, #0
 1816 0030 5A63     		str	r2, [r3, #52]
 1817 0032 FFF7FEFF 		bl	osalSysUnlock
 1818 0036 FB68     		ldr	r3, [r7, #12]
 1819 0038 1846     		mov	r0, r3
 1820 003a 1037     		adds	r7, r7, #16
 1821 003c BD46     		mov	sp, r7
 1822              		@ sp needed
 1823 003e 80BD     		pop	{r7, pc}
 1824              	.L209:
ARM GAS  /var/folders/d2/nstgp4h54kz7g1l847x_b8wc0000gn/T//ccZ2eucn.s 			page 33


 1825              		.align	2
 1826              	.L208:
 1827 0040 00000000 		.word	__func__.10412
 1828              		.size	sdcGetAndClearErrors, .-sdcGetAndClearErrors
 1829              		.section	.text.sdcSync,"ax",%progbits
 1830              		.align	1
 1831              		.global	sdcSync
 1832              		.syntax unified
 1833              		.thumb
 1834              		.thumb_func
 1835              		.fpu fpv4-sp-d16
 1836              		.type	sdcSync, %function
 1837              	sdcSync:
 1838              		@ args = 0, pretend = 0, frame = 16
 1839              		@ frame_needed = 1, uses_anonymous_args = 0
 1840 0000 80B5     		push	{r7, lr}
 1841 0002 84B0     		sub	sp, sp, #16
 1842 0004 00AF     		add	r7, sp, #0
 1843 0006 7860     		str	r0, [r7, #4]
 1844 0008 7B68     		ldr	r3, [r7, #4]
 1845 000a 002B     		cmp	r3, #0
 1846 000c 02D1     		bne	.L211
 1847 000e 0C48     		ldr	r0, .L214
 1848 0010 FFF7FEFF 		bl	chSysHalt
 1849              	.L211:
 1850 0014 7B68     		ldr	r3, [r7, #4]
 1851 0016 1B79     		ldrb	r3, [r3, #4]	@ zero_extendqisi2
 1852 0018 052B     		cmp	r3, #5
 1853 001a 01D0     		beq	.L212
 1854 001c 0123     		movs	r3, #1
 1855 001e 0BE0     		b	.L213
 1856              	.L212:
 1857 0020 7B68     		ldr	r3, [r7, #4]
 1858 0022 0822     		movs	r2, #8
 1859 0024 1A71     		strb	r2, [r3, #4]
 1860 0026 7868     		ldr	r0, [r7, #4]
 1861 0028 FFF7FEFF 		bl	sdc_lld_sync
 1862 002c 0346     		mov	r3, r0
 1863 002e FB73     		strb	r3, [r7, #15]
 1864 0030 7B68     		ldr	r3, [r7, #4]
 1865 0032 0522     		movs	r2, #5
 1866 0034 1A71     		strb	r2, [r3, #4]
 1867 0036 FB7B     		ldrb	r3, [r7, #15]	@ zero_extendqisi2
 1868              	.L213:
 1869 0038 1846     		mov	r0, r3
 1870 003a 1037     		adds	r7, r7, #16
 1871 003c BD46     		mov	sp, r7
 1872              		@ sp needed
 1873 003e 80BD     		pop	{r7, pc}
 1874              	.L215:
 1875              		.align	2
 1876              	.L214:
 1877 0040 00000000 		.word	__func__.10417
 1878              		.size	sdcSync, .-sdcSync
 1879              		.section	.text.sdcGetInfo,"ax",%progbits
 1880              		.align	1
 1881              		.global	sdcGetInfo
ARM GAS  /var/folders/d2/nstgp4h54kz7g1l847x_b8wc0000gn/T//ccZ2eucn.s 			page 34


 1882              		.syntax unified
 1883              		.thumb
 1884              		.thumb_func
 1885              		.fpu fpv4-sp-d16
 1886              		.type	sdcGetInfo, %function
 1887              	sdcGetInfo:
 1888              		@ args = 0, pretend = 0, frame = 8
 1889              		@ frame_needed = 1, uses_anonymous_args = 0
 1890 0000 80B5     		push	{r7, lr}
 1891 0002 82B0     		sub	sp, sp, #8
 1892 0004 00AF     		add	r7, sp, #0
 1893 0006 7860     		str	r0, [r7, #4]
 1894 0008 3960     		str	r1, [r7]
 1895 000a 7B68     		ldr	r3, [r7, #4]
 1896 000c 002B     		cmp	r3, #0
 1897 000e 02D0     		beq	.L217
 1898 0010 3B68     		ldr	r3, [r7]
 1899 0012 002B     		cmp	r3, #0
 1900 0014 02D1     		bne	.L218
 1901              	.L217:
 1902 0016 0B48     		ldr	r0, .L221
 1903 0018 FFF7FEFF 		bl	chSysHalt
 1904              	.L218:
 1905 001c 7B68     		ldr	r3, [r7, #4]
 1906 001e 1B79     		ldrb	r3, [r3, #4]	@ zero_extendqisi2
 1907 0020 052B     		cmp	r3, #5
 1908 0022 01D0     		beq	.L219
 1909 0024 0123     		movs	r3, #1
 1910 0026 08E0     		b	.L220
 1911              	.L219:
 1912 0028 7B68     		ldr	r3, [r7, #4]
 1913 002a 9A6A     		ldr	r2, [r3, #40]
 1914 002c 3B68     		ldr	r3, [r7]
 1915 002e 5A60     		str	r2, [r3, #4]
 1916 0030 3B68     		ldr	r3, [r7]
 1917 0032 4FF40072 		mov	r2, #512
 1918 0036 1A60     		str	r2, [r3]
 1919 0038 0023     		movs	r3, #0
 1920              	.L220:
 1921 003a 1846     		mov	r0, r3
 1922 003c 0837     		adds	r7, r7, #8
 1923 003e BD46     		mov	sp, r7
 1924              		@ sp needed
 1925 0040 80BD     		pop	{r7, pc}
 1926              	.L222:
 1927 0042 00BF     		.align	2
 1928              	.L221:
 1929 0044 00000000 		.word	__func__.10422
 1930              		.size	sdcGetInfo, .-sdcGetInfo
 1931              		.section	.text.sdcErase,"ax",%progbits
 1932              		.align	1
 1933              		.global	sdcErase
 1934              		.syntax unified
 1935              		.thumb
 1936              		.thumb_func
 1937              		.fpu fpv4-sp-d16
 1938              		.type	sdcErase, %function
ARM GAS  /var/folders/d2/nstgp4h54kz7g1l847x_b8wc0000gn/T//ccZ2eucn.s 			page 35


 1939              	sdcErase:
 1940              		@ args = 0, pretend = 0, frame = 24
 1941              		@ frame_needed = 1, uses_anonymous_args = 0
 1942 0000 80B5     		push	{r7, lr}
 1943 0002 86B0     		sub	sp, sp, #24
 1944 0004 00AF     		add	r7, sp, #0
 1945 0006 F860     		str	r0, [r7, #12]
 1946 0008 B960     		str	r1, [r7, #8]
 1947 000a 7A60     		str	r2, [r7, #4]
 1948 000c FB68     		ldr	r3, [r7, #12]
 1949 000e 002B     		cmp	r3, #0
 1950 0010 02D1     		bne	.L232
 1951 0012 3248     		ldr	r0, .L236
 1952 0014 FFF7FEFF 		bl	chSysHalt
 1953              	.L232:
 1954 0018 FB68     		ldr	r3, [r7, #12]
 1955 001a 1B79     		ldrb	r3, [r3, #4]	@ zero_extendqisi2
 1956 001c 052B     		cmp	r3, #5
 1957 001e 02D0     		beq	.L225
 1958 0020 2E48     		ldr	r0, .L236
 1959 0022 FFF7FEFF 		bl	chSysHalt
 1960              	.L225:
 1961 0026 FB68     		ldr	r3, [r7, #12]
 1962 0028 0722     		movs	r2, #7
 1963 002a 1A71     		strb	r2, [r3, #4]
 1964 002c FB68     		ldr	r3, [r7, #12]
 1965 002e 1B6B     		ldr	r3, [r3, #48]
 1966 0030 03F01003 		and	r3, r3, #16
 1967 0034 002B     		cmp	r3, #0
 1968 0036 05D0     		beq	.L226
 1969 0038 BB68     		ldr	r3, [r7, #8]
 1970 003a 5B02     		lsls	r3, r3, #9
 1971 003c BB60     		str	r3, [r7, #8]
 1972 003e 7B68     		ldr	r3, [r7, #4]
 1973 0040 5B02     		lsls	r3, r3, #9
 1974 0042 7B60     		str	r3, [r7, #4]
 1975              	.L226:
 1976 0044 F868     		ldr	r0, [r7, #12]
 1977 0046 FFF7FEFF 		bl	_sdc_wait_for_transfer_state
 1978 004a 0346     		mov	r3, r0
 1979 004c 002B     		cmp	r3, #0
 1980 004e 37D1     		bne	.L233
 1981 0050 07F11403 		add	r3, r7, #20
 1982 0054 BA68     		ldr	r2, [r7, #8]
 1983 0056 2021     		movs	r1, #32
 1984 0058 F868     		ldr	r0, [r7, #12]
 1985 005a FFF7FEFF 		bl	sdc_lld_send_cmd_short_crc
 1986 005e 0346     		mov	r3, r0
 1987 0060 002B     		cmp	r3, #0
 1988 0062 2FD1     		bne	.L234
 1989 0064 7A69     		ldr	r2, [r7, #20]
 1990 0066 1E4B     		ldr	r3, .L236+4
 1991 0068 1340     		ands	r3, r3, r2
 1992 006a 002B     		cmp	r3, #0
 1993 006c 2AD1     		bne	.L234
 1994 006e 07F11403 		add	r3, r7, #20
 1995 0072 7A68     		ldr	r2, [r7, #4]
ARM GAS  /var/folders/d2/nstgp4h54kz7g1l847x_b8wc0000gn/T//ccZ2eucn.s 			page 36


 1996 0074 2121     		movs	r1, #33
 1997 0076 F868     		ldr	r0, [r7, #12]
 1998 0078 FFF7FEFF 		bl	sdc_lld_send_cmd_short_crc
 1999 007c 0346     		mov	r3, r0
 2000 007e 002B     		cmp	r3, #0
 2001 0080 20D1     		bne	.L234
 2002 0082 7A69     		ldr	r2, [r7, #20]
 2003 0084 164B     		ldr	r3, .L236+4
 2004 0086 1340     		ands	r3, r3, r2
 2005 0088 002B     		cmp	r3, #0
 2006 008a 1BD1     		bne	.L234
 2007 008c 07F11403 		add	r3, r7, #20
 2008 0090 0022     		movs	r2, #0
 2009 0092 2621     		movs	r1, #38
 2010 0094 F868     		ldr	r0, [r7, #12]
 2011 0096 FFF7FEFF 		bl	sdc_lld_send_cmd_short_crc
 2012 009a 0346     		mov	r3, r0
 2013 009c 002B     		cmp	r3, #0
 2014 009e 11D1     		bne	.L234
 2015 00a0 7A69     		ldr	r2, [r7, #20]
 2016 00a2 0F4B     		ldr	r3, .L236+4
 2017 00a4 1340     		ands	r3, r3, r2
 2018 00a6 002B     		cmp	r3, #0
 2019 00a8 0CD1     		bne	.L234
 2020 00aa F868     		ldr	r0, [r7, #12]
 2021 00ac FFF7FEFF 		bl	_sdc_wait_for_transfer_state
 2022 00b0 0346     		mov	r3, r0
 2023 00b2 002B     		cmp	r3, #0
 2024 00b4 08D1     		bne	.L235
 2025 00b6 FB68     		ldr	r3, [r7, #12]
 2026 00b8 0522     		movs	r2, #5
 2027 00ba 1A71     		strb	r2, [r3, #4]
 2028 00bc 0023     		movs	r3, #0
 2029 00be 08E0     		b	.L231
 2030              	.L233:
 2031 00c0 00BF     		nop
 2032 00c2 02E0     		b	.L228
 2033              	.L234:
 2034 00c4 00BF     		nop
 2035 00c6 00E0     		b	.L228
 2036              	.L235:
 2037 00c8 00BF     		nop
 2038              	.L228:
 2039 00ca FB68     		ldr	r3, [r7, #12]
 2040 00cc 0522     		movs	r2, #5
 2041 00ce 1A71     		strb	r2, [r3, #4]
 2042 00d0 0123     		movs	r3, #1
 2043              	.L231:
 2044 00d2 1846     		mov	r0, r3
 2045 00d4 1837     		adds	r7, r7, #24
 2046 00d6 BD46     		mov	sp, r7
 2047              		@ sp needed
 2048 00d8 80BD     		pop	{r7, pc}
 2049              	.L237:
 2050 00da 00BF     		.align	2
 2051              	.L236:
 2052 00dc 00000000 		.word	__func__.10429
ARM GAS  /var/folders/d2/nstgp4h54kz7g1l847x_b8wc0000gn/T//ccZ2eucn.s 			page 37


 2053 00e0 08E0FFFD 		.word	-33562616
 2054              		.size	sdcErase, .-sdcErase
 2055              		.section	.rodata.__func__.10297,"a",%progbits
 2056              		.align	2
 2057              		.type	__func__.10297, %object
 2058              		.size	__func__.10297, 19
 2059              	__func__.10297:
 2060 0000 6D6D635F 		.ascii	"mmc_cmd6_construct\000"
 2060      636D6436 
 2060      5F636F6E 
 2060      73747275 
 2060      637400
 2061              		.section	.rodata.__func__.10304,"a",%progbits
 2062              		.align	2
 2063              		.type	__func__.10304, %object
 2064              		.size	__func__.10304, 19
 2065              	__func__.10304:
 2066 0000 7364635F 		.ascii	"sdc_cmd6_construct\000"
 2066      636D6436 
 2066      5F636F6E 
 2066      73747275 
 2066      637400
 2067              		.section	.rodata.__func__.10348,"a",%progbits
 2068              		.align	2
 2069              		.type	__func__.10348, %object
 2070              		.size	__func__.10348, 18
 2071              	__func__.10348:
 2072 0000 6D6D635F 		.ascii	"mmc_set_bus_width\000"
 2072      7365745F 
 2072      6275735F 
 2072      77696474 
 2072      6800
 2073              		.section	.rodata.__func__.10370,"a",%progbits
 2074              		.align	2
 2075              		.type	__func__.10370, %object
 2076              		.size	__func__.10370, 9
 2077              	__func__.10370:
 2078 0000 73646353 		.ascii	"sdcStart\000"
 2078      74617274 
 2078      00
 2079              		.section	.rodata.__func__.7554,"a",%progbits
 2080              		.align	2
 2081              		.type	__func__.7554, %object
 2082              		.size	__func__.7554, 12
 2083              	__func__.7554:
 2084 0000 63685379 		.ascii	"chSysUnlock\000"
 2084      73556E6C 
 2084      6F636B00 
 2085              		.section	.rodata.__func__.10374,"a",%progbits
 2086              		.align	2
 2087              		.type	__func__.10374, %object
 2088              		.size	__func__.10374, 8
 2089              	__func__.10374:
 2090 0000 73646353 		.ascii	"sdcStop\000"
 2090      746F7000 
 2091              		.section	.rodata.__func__.10380,"a",%progbits
 2092              		.align	2
ARM GAS  /var/folders/d2/nstgp4h54kz7g1l847x_b8wc0000gn/T//ccZ2eucn.s 			page 38


 2093              		.type	__func__.10380, %object
 2094              		.size	__func__.10380, 11
 2095              	__func__.10380:
 2096 0000 73646343 		.ascii	"sdcConnect\000"
 2096      6F6E6E65 
 2096      637400
 2097              		.section	.rodata.__func__.10391,"a",%progbits
 2098              		.align	2
 2099              		.type	__func__.10391, %object
 2100              		.size	__func__.10391, 14
 2101              	__func__.10391:
 2102 0000 73646344 		.ascii	"sdcDisconnect\000"
 2102      6973636F 
 2102      6E6E6563 
 2102      7400
 2103              		.section	.rodata.__func__.10399,"a",%progbits
 2104              		.align	2
 2105              		.type	__func__.10399, %object
 2106              		.size	__func__.10399, 8
 2107              	__func__.10399:
 2108 0000 73646352 		.ascii	"sdcRead\000"
 2108      65616400 
 2109              		.section	.rodata.__func__.10407,"a",%progbits
 2110              		.align	2
 2111              		.type	__func__.10407, %object
 2112              		.size	__func__.10407, 9
 2113              	__func__.10407:
 2114 0000 73646357 		.ascii	"sdcWrite\000"
 2114      72697465 
 2114      00
 2115              		.section	.rodata.__func__.10412,"a",%progbits
 2116              		.align	2
 2117              		.type	__func__.10412, %object
 2118              		.size	__func__.10412, 21
 2119              	__func__.10412:
 2120 0000 73646347 		.ascii	"sdcGetAndClearErrors\000"
 2120      6574416E 
 2120      64436C65 
 2120      61724572 
 2120      726F7273 
 2121              		.section	.rodata.__func__.10417,"a",%progbits
 2122              		.align	2
 2123              		.type	__func__.10417, %object
 2124              		.size	__func__.10417, 8
 2125              	__func__.10417:
 2126 0000 73646353 		.ascii	"sdcSync\000"
 2126      796E6300 
 2127              		.section	.rodata.__func__.10422,"a",%progbits
 2128              		.align	2
 2129              		.type	__func__.10422, %object
 2130              		.size	__func__.10422, 11
 2131              	__func__.10422:
 2132 0000 73646347 		.ascii	"sdcGetInfo\000"
 2132      6574496E 
 2132      666F00
 2133              		.section	.rodata.__func__.10429,"a",%progbits
 2134              		.align	2
ARM GAS  /var/folders/d2/nstgp4h54kz7g1l847x_b8wc0000gn/T//ccZ2eucn.s 			page 39


 2135              		.type	__func__.10429, %object
 2136              		.size	__func__.10429, 9
 2137              	__func__.10429:
 2138 0000 73646345 		.ascii	"sdcErase\000"
 2138      72617365 
 2138      00
 2139              		.ident	"GCC: (GNU Tools for Arm Embedded Processors 7-2017-q4-major) 7.2.1 20170904 (release) [ARM
ARM GAS  /var/folders/d2/nstgp4h54kz7g1l847x_b8wc0000gn/T//ccZ2eucn.s 			page 40

