ARM GAS  /var/folders/d2/nstgp4h54kz7g1l847x_b8wc0000gn/T//cczi8De5.s 			page 1


   1              		.cpu cortex-m4
   2              		.eabi_attribute 27, 1
   3              		.eabi_attribute 28, 1
   4              		.eabi_attribute 20, 1
   5              		.eabi_attribute 21, 1
   6              		.eabi_attribute 23, 3
   7              		.eabi_attribute 24, 1
   8              		.eabi_attribute 25, 1
   9              		.eabi_attribute 26, 1
  10              		.eabi_attribute 30, 6
  11              		.eabi_attribute 34, 1
  12              		.eabi_attribute 18, 4
  13              		.file	"sdc_lld.c"
  14              		.section	.text.port_lock,"ax",%progbits
  15              		.align	1
  16              		.syntax unified
  17              		.thumb
  18              		.thumb_func
  19              		.fpu fpv4-sp-d16
  20              		.type	port_lock, %function
  21              	port_lock:
  22              		@ args = 0, pretend = 0, frame = 8
  23              		@ frame_needed = 1, uses_anonymous_args = 0
  24              		@ link register save eliminated.
  25 0000 80B4     		push	{r7}
  26 0002 83B0     		sub	sp, sp, #12
  27 0004 00AF     		add	r7, sp, #0
  28 0006 2023     		movs	r3, #32
  29 0008 7B60     		str	r3, [r7, #4]
  30 000a 7B68     		ldr	r3, [r7, #4]
  31              		.syntax unified
  32              	@ 546 "../e-puck2_main-processor/ChibiOS//os/ext/CMSIS/include/core_cmFunc.h" 1
  33 000c 83F31188 		MSR basepri, r3
  34              	@ 0 "" 2
  35              		.thumb
  36              		.syntax unified
  37 0010 00BF     		nop
  38 0012 0C37     		adds	r7, r7, #12
  39 0014 BD46     		mov	sp, r7
  40              		@ sp needed
  41 0016 5DF8047B 		ldr	r7, [sp], #4
  42 001a 7047     		bx	lr
  43              		.size	port_lock, .-port_lock
  44              		.section	.text.port_unlock,"ax",%progbits
  45              		.align	1
  46              		.syntax unified
  47              		.thumb
  48              		.thumb_func
  49              		.fpu fpv4-sp-d16
  50              		.type	port_unlock, %function
  51              	port_unlock:
  52              		@ args = 0, pretend = 0, frame = 8
  53              		@ frame_needed = 1, uses_anonymous_args = 0
  54              		@ link register save eliminated.
  55 0000 80B4     		push	{r7}
  56 0002 83B0     		sub	sp, sp, #12
  57 0004 00AF     		add	r7, sp, #0
ARM GAS  /var/folders/d2/nstgp4h54kz7g1l847x_b8wc0000gn/T//cczi8De5.s 			page 2


  58 0006 0023     		movs	r3, #0
  59 0008 7B60     		str	r3, [r7, #4]
  60 000a 7B68     		ldr	r3, [r7, #4]
  61              		.syntax unified
  62              	@ 546 "../e-puck2_main-processor/ChibiOS//os/ext/CMSIS/include/core_cmFunc.h" 1
  63 000c 83F31188 		MSR basepri, r3
  64              	@ 0 "" 2
  65              		.thumb
  66              		.syntax unified
  67 0010 00BF     		nop
  68 0012 0C37     		adds	r7, r7, #12
  69 0014 BD46     		mov	sp, r7
  70              		@ sp needed
  71 0016 5DF8047B 		ldr	r7, [sp], #4
  72 001a 7047     		bx	lr
  73              		.size	port_unlock, .-port_unlock
  74              		.section	.text.port_lock_from_isr,"ax",%progbits
  75              		.align	1
  76              		.syntax unified
  77              		.thumb
  78              		.thumb_func
  79              		.fpu fpv4-sp-d16
  80              		.type	port_lock_from_isr, %function
  81              	port_lock_from_isr:
  82              		@ args = 0, pretend = 0, frame = 0
  83              		@ frame_needed = 1, uses_anonymous_args = 0
  84 0000 80B5     		push	{r7, lr}
  85 0002 00AF     		add	r7, sp, #0
  86 0004 FFF7FEFF 		bl	port_lock
  87 0008 00BF     		nop
  88 000a 80BD     		pop	{r7, pc}
  89              		.size	port_lock_from_isr, .-port_lock_from_isr
  90              		.section	.text.port_unlock_from_isr,"ax",%progbits
  91              		.align	1
  92              		.syntax unified
  93              		.thumb
  94              		.thumb_func
  95              		.fpu fpv4-sp-d16
  96              		.type	port_unlock_from_isr, %function
  97              	port_unlock_from_isr:
  98              		@ args = 0, pretend = 0, frame = 0
  99              		@ frame_needed = 1, uses_anonymous_args = 0
 100 0000 80B5     		push	{r7, lr}
 101 0002 00AF     		add	r7, sp, #0
 102 0004 FFF7FEFF 		bl	port_unlock
 103 0008 00BF     		nop
 104 000a 80BD     		pop	{r7, pc}
 105              		.size	port_unlock_from_isr, .-port_unlock_from_isr
 106              		.section	.text.chSysLock,"ax",%progbits
 107              		.align	1
 108              		.syntax unified
 109              		.thumb
 110              		.thumb_func
 111              		.fpu fpv4-sp-d16
 112              		.type	chSysLock, %function
 113              	chSysLock:
 114              		@ args = 0, pretend = 0, frame = 0
ARM GAS  /var/folders/d2/nstgp4h54kz7g1l847x_b8wc0000gn/T//cczi8De5.s 			page 3


 115              		@ frame_needed = 1, uses_anonymous_args = 0
 116 0000 80B5     		push	{r7, lr}
 117 0002 00AF     		add	r7, sp, #0
 118 0004 FFF7FEFF 		bl	port_lock
 119 0008 FFF7FEFF 		bl	_stats_start_measure_crit_thd
 120 000c FFF7FEFF 		bl	_dbg_check_lock
 121 0010 00BF     		nop
 122 0012 80BD     		pop	{r7, pc}
 123              		.size	chSysLock, .-chSysLock
 124              		.section	.text.chSysUnlock,"ax",%progbits
 125              		.align	1
 126              		.syntax unified
 127              		.thumb
 128              		.thumb_func
 129              		.fpu fpv4-sp-d16
 130              		.type	chSysUnlock, %function
 131              	chSysUnlock:
 132              		@ args = 0, pretend = 0, frame = 0
 133              		@ frame_needed = 1, uses_anonymous_args = 0
 134 0000 80B5     		push	{r7, lr}
 135 0002 00AF     		add	r7, sp, #0
 136 0004 FFF7FEFF 		bl	_dbg_check_unlock
 137 0008 FFF7FEFF 		bl	_stats_stop_measure_crit_thd
 138 000c 094B     		ldr	r3, .L8
 139 000e 1B68     		ldr	r3, [r3]
 140 0010 084A     		ldr	r2, .L8
 141 0012 9342     		cmp	r3, r2
 142 0014 0AD0     		beq	.L7
 143 0016 074B     		ldr	r3, .L8
 144 0018 9B69     		ldr	r3, [r3, #24]
 145 001a 9A68     		ldr	r2, [r3, #8]
 146 001c 054B     		ldr	r3, .L8
 147 001e 1B68     		ldr	r3, [r3]
 148 0020 9B68     		ldr	r3, [r3, #8]
 149 0022 9A42     		cmp	r2, r3
 150 0024 02D2     		bcs	.L7
 151 0026 0448     		ldr	r0, .L8+4
 152 0028 FFF7FEFF 		bl	chSysHalt
 153              	.L7:
 154 002c FFF7FEFF 		bl	port_unlock
 155 0030 00BF     		nop
 156 0032 80BD     		pop	{r7, pc}
 157              	.L9:
 158              		.align	2
 159              	.L8:
 160 0034 00000000 		.word	ch
 161 0038 00000000 		.word	__func__.7554
 162              		.size	chSysUnlock, .-chSysUnlock
 163              		.section	.text.chSysLockFromISR,"ax",%progbits
 164              		.align	1
 165              		.syntax unified
 166              		.thumb
 167              		.thumb_func
 168              		.fpu fpv4-sp-d16
 169              		.type	chSysLockFromISR, %function
 170              	chSysLockFromISR:
 171              		@ args = 0, pretend = 0, frame = 0
ARM GAS  /var/folders/d2/nstgp4h54kz7g1l847x_b8wc0000gn/T//cczi8De5.s 			page 4


 172              		@ frame_needed = 1, uses_anonymous_args = 0
 173 0000 80B5     		push	{r7, lr}
 174 0002 00AF     		add	r7, sp, #0
 175 0004 FFF7FEFF 		bl	port_lock_from_isr
 176 0008 FFF7FEFF 		bl	_stats_start_measure_crit_isr
 177 000c FFF7FEFF 		bl	_dbg_check_lock_from_isr
 178 0010 00BF     		nop
 179 0012 80BD     		pop	{r7, pc}
 180              		.size	chSysLockFromISR, .-chSysLockFromISR
 181              		.section	.text.chSysUnlockFromISR,"ax",%progbits
 182              		.align	1
 183              		.syntax unified
 184              		.thumb
 185              		.thumb_func
 186              		.fpu fpv4-sp-d16
 187              		.type	chSysUnlockFromISR, %function
 188              	chSysUnlockFromISR:
 189              		@ args = 0, pretend = 0, frame = 0
 190              		@ frame_needed = 1, uses_anonymous_args = 0
 191 0000 80B5     		push	{r7, lr}
 192 0002 00AF     		add	r7, sp, #0
 193 0004 FFF7FEFF 		bl	_dbg_check_unlock_from_isr
 194 0008 FFF7FEFF 		bl	_stats_stop_measure_crit_isr
 195 000c FFF7FEFF 		bl	port_unlock_from_isr
 196 0010 00BF     		nop
 197 0012 80BD     		pop	{r7, pc}
 198              		.size	chSysUnlockFromISR, .-chSysUnlockFromISR
 199              		.section	.text.osalSysLock,"ax",%progbits
 200              		.align	1
 201              		.syntax unified
 202              		.thumb
 203              		.thumb_func
 204              		.fpu fpv4-sp-d16
 205              		.type	osalSysLock, %function
 206              	osalSysLock:
 207              		@ args = 0, pretend = 0, frame = 0
 208              		@ frame_needed = 1, uses_anonymous_args = 0
 209 0000 80B5     		push	{r7, lr}
 210 0002 00AF     		add	r7, sp, #0
 211 0004 FFF7FEFF 		bl	chSysLock
 212 0008 00BF     		nop
 213 000a 80BD     		pop	{r7, pc}
 214              		.size	osalSysLock, .-osalSysLock
 215              		.section	.text.osalSysUnlock,"ax",%progbits
 216              		.align	1
 217              		.syntax unified
 218              		.thumb
 219              		.thumb_func
 220              		.fpu fpv4-sp-d16
 221              		.type	osalSysUnlock, %function
 222              	osalSysUnlock:
 223              		@ args = 0, pretend = 0, frame = 0
 224              		@ frame_needed = 1, uses_anonymous_args = 0
 225 0000 80B5     		push	{r7, lr}
 226 0002 00AF     		add	r7, sp, #0
 227 0004 FFF7FEFF 		bl	chSysUnlock
 228 0008 00BF     		nop
ARM GAS  /var/folders/d2/nstgp4h54kz7g1l847x_b8wc0000gn/T//cczi8De5.s 			page 5


 229 000a 80BD     		pop	{r7, pc}
 230              		.size	osalSysUnlock, .-osalSysUnlock
 231              		.section	.text.osalSysLockFromISR,"ax",%progbits
 232              		.align	1
 233              		.syntax unified
 234              		.thumb
 235              		.thumb_func
 236              		.fpu fpv4-sp-d16
 237              		.type	osalSysLockFromISR, %function
 238              	osalSysLockFromISR:
 239              		@ args = 0, pretend = 0, frame = 0
 240              		@ frame_needed = 1, uses_anonymous_args = 0
 241 0000 80B5     		push	{r7, lr}
 242 0002 00AF     		add	r7, sp, #0
 243 0004 FFF7FEFF 		bl	chSysLockFromISR
 244 0008 00BF     		nop
 245 000a 80BD     		pop	{r7, pc}
 246              		.size	osalSysLockFromISR, .-osalSysLockFromISR
 247              		.section	.text.osalSysUnlockFromISR,"ax",%progbits
 248              		.align	1
 249              		.syntax unified
 250              		.thumb
 251              		.thumb_func
 252              		.fpu fpv4-sp-d16
 253              		.type	osalSysUnlockFromISR, %function
 254              	osalSysUnlockFromISR:
 255              		@ args = 0, pretend = 0, frame = 0
 256              		@ frame_needed = 1, uses_anonymous_args = 0
 257 0000 80B5     		push	{r7, lr}
 258 0002 00AF     		add	r7, sp, #0
 259 0004 FFF7FEFF 		bl	chSysUnlockFromISR
 260 0008 00BF     		nop
 261 000a 80BD     		pop	{r7, pc}
 262              		.size	osalSysUnlockFromISR, .-osalSysUnlockFromISR
 263              		.section	.text.osalThreadSleep,"ax",%progbits
 264              		.align	1
 265              		.syntax unified
 266              		.thumb
 267              		.thumb_func
 268              		.fpu fpv4-sp-d16
 269              		.type	osalThreadSleep, %function
 270              	osalThreadSleep:
 271              		@ args = 0, pretend = 0, frame = 8
 272              		@ frame_needed = 1, uses_anonymous_args = 0
 273 0000 80B5     		push	{r7, lr}
 274 0002 82B0     		sub	sp, sp, #8
 275 0004 00AF     		add	r7, sp, #0
 276 0006 7860     		str	r0, [r7, #4]
 277 0008 7868     		ldr	r0, [r7, #4]
 278 000a FFF7FEFF 		bl	chThdSleep
 279 000e 00BF     		nop
 280 0010 0837     		adds	r7, r7, #8
 281 0012 BD46     		mov	sp, r7
 282              		@ sp needed
 283 0014 80BD     		pop	{r7, pc}
 284              		.size	osalThreadSleep, .-osalThreadSleep
 285              		.section	.text.osalThreadSuspendS,"ax",%progbits
ARM GAS  /var/folders/d2/nstgp4h54kz7g1l847x_b8wc0000gn/T//cczi8De5.s 			page 6


 286              		.align	1
 287              		.syntax unified
 288              		.thumb
 289              		.thumb_func
 290              		.fpu fpv4-sp-d16
 291              		.type	osalThreadSuspendS, %function
 292              	osalThreadSuspendS:
 293              		@ args = 0, pretend = 0, frame = 8
 294              		@ frame_needed = 1, uses_anonymous_args = 0
 295 0000 80B5     		push	{r7, lr}
 296 0002 82B0     		sub	sp, sp, #8
 297 0004 00AF     		add	r7, sp, #0
 298 0006 7860     		str	r0, [r7, #4]
 299 0008 7868     		ldr	r0, [r7, #4]
 300 000a FFF7FEFF 		bl	chThdSuspendS
 301 000e 0346     		mov	r3, r0
 302 0010 1846     		mov	r0, r3
 303 0012 0837     		adds	r7, r7, #8
 304 0014 BD46     		mov	sp, r7
 305              		@ sp needed
 306 0016 80BD     		pop	{r7, pc}
 307              		.size	osalThreadSuspendS, .-osalThreadSuspendS
 308              		.section	.text.osalThreadResumeI,"ax",%progbits
 309              		.align	1
 310              		.syntax unified
 311              		.thumb
 312              		.thumb_func
 313              		.fpu fpv4-sp-d16
 314              		.type	osalThreadResumeI, %function
 315              	osalThreadResumeI:
 316              		@ args = 0, pretend = 0, frame = 8
 317              		@ frame_needed = 1, uses_anonymous_args = 0
 318 0000 80B5     		push	{r7, lr}
 319 0002 82B0     		sub	sp, sp, #8
 320 0004 00AF     		add	r7, sp, #0
 321 0006 7860     		str	r0, [r7, #4]
 322 0008 3960     		str	r1, [r7]
 323 000a 3968     		ldr	r1, [r7]
 324 000c 7868     		ldr	r0, [r7, #4]
 325 000e FFF7FEFF 		bl	chThdResumeI
 326 0012 00BF     		nop
 327 0014 0837     		adds	r7, r7, #8
 328 0016 BD46     		mov	sp, r7
 329              		@ sp needed
 330 0018 80BD     		pop	{r7, pc}
 331              		.size	osalThreadResumeI, .-osalThreadResumeI
 332              		.global	SDCD1
 333              		.section	.bss.SDCD1,"aw",%nobits
 334              		.align	2
 335              		.type	SDCD1, %object
 336              		.size	SDCD1, 76
 337              	SDCD1:
 338 0000 00000000 		.space	76
 338      00000000 
 338      00000000 
 338      00000000 
 338      00000000 
ARM GAS  /var/folders/d2/nstgp4h54kz7g1l847x_b8wc0000gn/T//cczi8De5.s 			page 7


 339              		.section	.bss.u,"aw",%nobits
 340              		.align	2
 341              		.type	u, %object
 342              		.size	u, 512
 343              	u:
 344 0000 00000000 		.space	512
 344      00000000 
 344      00000000 
 344      00000000 
 344      00000000 
 345              		.section	.rodata.sdc_default_cfg,"a",%progbits
 346              		.align	2
 347              		.type	sdc_default_cfg, %object
 348              		.size	sdc_default_cfg, 8
 349              	sdc_default_cfg:
 350 0000 00000000 		.word	0
 351 0004 01       		.byte	1
 352 0005 000000   		.space	3
 353              		.section	.text.sdc_lld_prepare_read_bytes,"ax",%progbits
 354              		.align	1
 355              		.syntax unified
 356              		.thumb
 357              		.thumb_func
 358              		.fpu fpv4-sp-d16
 359              		.type	sdc_lld_prepare_read_bytes, %function
 360              	sdc_lld_prepare_read_bytes:
 361              		@ args = 0, pretend = 0, frame = 16
 362              		@ frame_needed = 1, uses_anonymous_args = 0
 363 0000 80B5     		push	{r7, lr}
 364 0002 84B0     		sub	sp, sp, #16
 365 0004 00AF     		add	r7, sp, #0
 366 0006 F860     		str	r0, [r7, #12]
 367 0008 B960     		str	r1, [r7, #8]
 368 000a 7A60     		str	r2, [r7, #4]
 369 000c 7B68     		ldr	r3, [r7, #4]
 370 000e B3F1807F 		cmp	r3, #16777216
 371 0012 02D3     		bcc	.L21
 372 0014 1F48     		ldr	r0, .L24
 373 0016 FFF7FEFF 		bl	chSysHalt
 374              	.L21:
 375 001a FB68     		ldr	r3, [r7, #12]
 376 001c 9B6C     		ldr	r3, [r3, #72]
 377 001e 1E4A     		ldr	r2, .L24+4
 378 0020 5A62     		str	r2, [r3, #36]
 379 0022 F868     		ldr	r0, [r7, #12]
 380 0024 FFF7FEFF 		bl	_sdc_wait_for_transfer_state
 381 0028 0346     		mov	r3, r0
 382 002a 002B     		cmp	r3, #0
 383 002c 01D0     		beq	.L22
 384 002e 0123     		movs	r3, #1
 385 0030 2CE0     		b	.L23
 386              	.L22:
 387 0032 FB68     		ldr	r3, [r7, #12]
 388 0034 5B6C     		ldr	r3, [r3, #68]
 389 0036 1B68     		ldr	r3, [r3]
 390 0038 BA68     		ldr	r2, [r7, #8]
 391 003a DA60     		str	r2, [r3, #12]
ARM GAS  /var/folders/d2/nstgp4h54kz7g1l847x_b8wc0000gn/T//cczi8De5.s 			page 8


 392 003c FB68     		ldr	r3, [r7, #12]
 393 003e 5B6C     		ldr	r3, [r3, #68]
 394 0040 1B68     		ldr	r3, [r3]
 395 0042 7A68     		ldr	r2, [r7, #4]
 396 0044 9208     		lsrs	r2, r2, #2
 397 0046 5A60     		str	r2, [r3, #4]
 398 0048 FB68     		ldr	r3, [r7, #12]
 399 004a 5B6C     		ldr	r3, [r3, #68]
 400 004c 1B68     		ldr	r3, [r3]
 401 004e FA68     		ldr	r2, [r7, #12]
 402 0050 126C     		ldr	r2, [r2, #64]
 403 0052 1A60     		str	r2, [r3]
 404 0054 FB68     		ldr	r3, [r7, #12]
 405 0056 5B6C     		ldr	r3, [r3, #68]
 406 0058 1B68     		ldr	r3, [r3]
 407 005a 1A68     		ldr	r2, [r3]
 408 005c FB68     		ldr	r3, [r7, #12]
 409 005e 5B6C     		ldr	r3, [r3, #68]
 410 0060 1B68     		ldr	r3, [r3]
 411 0062 42F00102 		orr	r2, r2, #1
 412 0066 1A60     		str	r2, [r3]
 413 0068 FB68     		ldr	r3, [r7, #12]
 414 006a 9B6C     		ldr	r3, [r3, #72]
 415 006c 0B4A     		ldr	r2, .L24+8
 416 006e 9A63     		str	r2, [r3, #56]
 417 0070 FB68     		ldr	r3, [r7, #12]
 418 0072 9B6C     		ldr	r3, [r3, #72]
 419 0074 40F22A32 		movw	r2, #810
 420 0078 DA63     		str	r2, [r3, #60]
 421 007a FB68     		ldr	r3, [r7, #12]
 422 007c 9B6C     		ldr	r3, [r3, #72]
 423 007e 7A68     		ldr	r2, [r7, #4]
 424 0080 9A62     		str	r2, [r3, #40]
 425 0082 FB68     		ldr	r3, [r7, #12]
 426 0084 9B6C     		ldr	r3, [r3, #72]
 427 0086 0F22     		movs	r2, #15
 428 0088 DA62     		str	r2, [r3, #44]
 429 008a 0023     		movs	r3, #0
 430              	.L23:
 431 008c 1846     		mov	r0, r3
 432 008e 1037     		adds	r7, r7, #16
 433 0090 BD46     		mov	sp, r7
 434              		@ sp needed
 435 0092 80BD     		pop	{r7, pc}
 436              	.L25:
 437              		.align	2
 438              	.L24:
 439 0094 00000000 		.word	__func__.10250
 440 0098 C0270900 		.word	600000
 441 009c FF07C000 		.word	12584959
 442              		.size	sdc_lld_prepare_read_bytes, .-sdc_lld_prepare_read_bytes
 443              		.section	.text.sdc_lld_prepare_read,"ax",%progbits
 444              		.align	1
 445              		.syntax unified
 446              		.thumb
 447              		.thumb_func
 448              		.fpu fpv4-sp-d16
ARM GAS  /var/folders/d2/nstgp4h54kz7g1l847x_b8wc0000gn/T//cczi8De5.s 			page 9


 449              		.type	sdc_lld_prepare_read, %function
 450              	sdc_lld_prepare_read:
 451              		@ args = 0, pretend = 0, frame = 16
 452              		@ frame_needed = 1, uses_anonymous_args = 0
 453 0000 80B5     		push	{r7, lr}
 454 0002 84B0     		sub	sp, sp, #16
 455 0004 00AF     		add	r7, sp, #0
 456 0006 F860     		str	r0, [r7, #12]
 457 0008 B960     		str	r1, [r7, #8]
 458 000a 7A60     		str	r2, [r7, #4]
 459 000c 3B60     		str	r3, [r7]
 460 000e FB68     		ldr	r3, [r7, #12]
 461 0010 1B6B     		ldr	r3, [r3, #48]
 462 0012 03F01003 		and	r3, r3, #16
 463 0016 002B     		cmp	r3, #0
 464 0018 02D1     		bne	.L27
 465 001a BB68     		ldr	r3, [r7, #8]
 466 001c 5B02     		lsls	r3, r3, #9
 467 001e BB60     		str	r3, [r7, #8]
 468              	.L27:
 469 0020 7B68     		ldr	r3, [r7, #4]
 470 0022 012B     		cmp	r3, #1
 471 0024 10D9     		bls	.L28
 472 0026 3B68     		ldr	r3, [r7]
 473 0028 BA68     		ldr	r2, [r7, #8]
 474 002a 1221     		movs	r1, #18
 475 002c F868     		ldr	r0, [r7, #12]
 476 002e FFF7FEFF 		bl	sdc_lld_send_cmd_short_crc
 477 0032 0346     		mov	r3, r0
 478 0034 002B     		cmp	r3, #0
 479 0036 05D1     		bne	.L29
 480 0038 3B68     		ldr	r3, [r7]
 481 003a 1A68     		ldr	r2, [r3]
 482 003c 0D4B     		ldr	r3, .L33
 483 003e 1340     		ands	r3, r3, r2
 484 0040 002B     		cmp	r3, #0
 485 0042 12D0     		beq	.L30
 486              	.L29:
 487 0044 0123     		movs	r3, #1
 488 0046 11E0     		b	.L31
 489              	.L28:
 490 0048 3B68     		ldr	r3, [r7]
 491 004a BA68     		ldr	r2, [r7, #8]
 492 004c 1121     		movs	r1, #17
 493 004e F868     		ldr	r0, [r7, #12]
 494 0050 FFF7FEFF 		bl	sdc_lld_send_cmd_short_crc
 495 0054 0346     		mov	r3, r0
 496 0056 002B     		cmp	r3, #0
 497 0058 05D1     		bne	.L32
 498 005a 3B68     		ldr	r3, [r7]
 499 005c 1A68     		ldr	r2, [r3]
 500 005e 054B     		ldr	r3, .L33
 501 0060 1340     		ands	r3, r3, r2
 502 0062 002B     		cmp	r3, #0
 503 0064 01D0     		beq	.L30
 504              	.L32:
 505 0066 0123     		movs	r3, #1
ARM GAS  /var/folders/d2/nstgp4h54kz7g1l847x_b8wc0000gn/T//cczi8De5.s 			page 10


 506 0068 00E0     		b	.L31
 507              	.L30:
 508 006a 0023     		movs	r3, #0
 509              	.L31:
 510 006c 1846     		mov	r0, r3
 511 006e 1037     		adds	r7, r7, #16
 512 0070 BD46     		mov	sp, r7
 513              		@ sp needed
 514 0072 80BD     		pop	{r7, pc}
 515              	.L34:
 516              		.align	2
 517              	.L33:
 518 0074 08E0FFFD 		.word	-33562616
 519              		.size	sdc_lld_prepare_read, .-sdc_lld_prepare_read
 520              		.section	.text.sdc_lld_prepare_write,"ax",%progbits
 521              		.align	1
 522              		.syntax unified
 523              		.thumb
 524              		.thumb_func
 525              		.fpu fpv4-sp-d16
 526              		.type	sdc_lld_prepare_write, %function
 527              	sdc_lld_prepare_write:
 528              		@ args = 0, pretend = 0, frame = 16
 529              		@ frame_needed = 1, uses_anonymous_args = 0
 530 0000 80B5     		push	{r7, lr}
 531 0002 84B0     		sub	sp, sp, #16
 532 0004 00AF     		add	r7, sp, #0
 533 0006 F860     		str	r0, [r7, #12]
 534 0008 B960     		str	r1, [r7, #8]
 535 000a 7A60     		str	r2, [r7, #4]
 536 000c 3B60     		str	r3, [r7]
 537 000e FB68     		ldr	r3, [r7, #12]
 538 0010 1B6B     		ldr	r3, [r3, #48]
 539 0012 03F01003 		and	r3, r3, #16
 540 0016 002B     		cmp	r3, #0
 541 0018 02D1     		bne	.L36
 542 001a BB68     		ldr	r3, [r7, #8]
 543 001c 5B02     		lsls	r3, r3, #9
 544 001e BB60     		str	r3, [r7, #8]
 545              	.L36:
 546 0020 7B68     		ldr	r3, [r7, #4]
 547 0022 012B     		cmp	r3, #1
 548 0024 10D9     		bls	.L37
 549 0026 3B68     		ldr	r3, [r7]
 550 0028 BA68     		ldr	r2, [r7, #8]
 551 002a 1921     		movs	r1, #25
 552 002c F868     		ldr	r0, [r7, #12]
 553 002e FFF7FEFF 		bl	sdc_lld_send_cmd_short_crc
 554 0032 0346     		mov	r3, r0
 555 0034 002B     		cmp	r3, #0
 556 0036 05D1     		bne	.L38
 557 0038 3B68     		ldr	r3, [r7]
 558 003a 1A68     		ldr	r2, [r3]
 559 003c 0D4B     		ldr	r3, .L42
 560 003e 1340     		ands	r3, r3, r2
 561 0040 002B     		cmp	r3, #0
 562 0042 12D0     		beq	.L39
ARM GAS  /var/folders/d2/nstgp4h54kz7g1l847x_b8wc0000gn/T//cczi8De5.s 			page 11


 563              	.L38:
 564 0044 0123     		movs	r3, #1
 565 0046 11E0     		b	.L40
 566              	.L37:
 567 0048 3B68     		ldr	r3, [r7]
 568 004a BA68     		ldr	r2, [r7, #8]
 569 004c 1821     		movs	r1, #24
 570 004e F868     		ldr	r0, [r7, #12]
 571 0050 FFF7FEFF 		bl	sdc_lld_send_cmd_short_crc
 572 0054 0346     		mov	r3, r0
 573 0056 002B     		cmp	r3, #0
 574 0058 05D1     		bne	.L41
 575 005a 3B68     		ldr	r3, [r7]
 576 005c 1A68     		ldr	r2, [r3]
 577 005e 054B     		ldr	r3, .L42
 578 0060 1340     		ands	r3, r3, r2
 579 0062 002B     		cmp	r3, #0
 580 0064 01D0     		beq	.L39
 581              	.L41:
 582 0066 0123     		movs	r3, #1
 583 0068 00E0     		b	.L40
 584              	.L39:
 585 006a 0023     		movs	r3, #0
 586              	.L40:
 587 006c 1846     		mov	r0, r3
 588 006e 1037     		adds	r7, r7, #16
 589 0070 BD46     		mov	sp, r7
 590              		@ sp needed
 591 0072 80BD     		pop	{r7, pc}
 592              	.L43:
 593              		.align	2
 594              	.L42:
 595 0074 08E0FFFD 		.word	-33562616
 596              		.size	sdc_lld_prepare_write, .-sdc_lld_prepare_write
 597              		.section	.text.sdc_lld_wait_transaction_end,"ax",%progbits
 598              		.align	1
 599              		.syntax unified
 600              		.thumb
 601              		.thumb_func
 602              		.fpu fpv4-sp-d16
 603              		.type	sdc_lld_wait_transaction_end, %function
 604              	sdc_lld_wait_transaction_end:
 605              		@ args = 0, pretend = 0, frame = 16
 606              		@ frame_needed = 1, uses_anonymous_args = 0
 607 0000 80B5     		push	{r7, lr}
 608 0002 84B0     		sub	sp, sp, #16
 609 0004 00AF     		add	r7, sp, #0
 610 0006 F860     		str	r0, [r7, #12]
 611 0008 B960     		str	r1, [r7, #8]
 612 000a 7A60     		str	r2, [r7, #4]
 613 000c FFF7FEFF 		bl	osalSysLock
 614 0010 FB68     		ldr	r3, [r7, #12]
 615 0012 9B6C     		ldr	r3, [r3, #72]
 616 0014 DB6B     		ldr	r3, [r3, #60]
 617 0016 002B     		cmp	r3, #0
 618 0018 04D0     		beq	.L45
 619 001a FB68     		ldr	r3, [r7, #12]
ARM GAS  /var/folders/d2/nstgp4h54kz7g1l847x_b8wc0000gn/T//cczi8De5.s 			page 12


 620 001c 3C33     		adds	r3, r3, #60
 621 001e 1846     		mov	r0, r3
 622 0020 FFF7FEFF 		bl	osalThreadSuspendS
 623              	.L45:
 624 0024 FB68     		ldr	r3, [r7, #12]
 625 0026 9B6C     		ldr	r3, [r3, #72]
 626 0028 5B6B     		ldr	r3, [r3, #52]
 627 002a 03F48073 		and	r3, r3, #256
 628 002e 002B     		cmp	r3, #0
 629 0030 03D1     		bne	.L50
 630 0032 FFF7FEFF 		bl	osalSysUnlock
 631 0036 0123     		movs	r3, #1
 632 0038 29E0     		b	.L47
 633              	.L50:
 634 003a 00BF     		nop
 635              	.L48:
 636 003c FB68     		ldr	r3, [r7, #12]
 637 003e 5B6C     		ldr	r3, [r3, #68]
 638 0040 1B68     		ldr	r3, [r3]
 639 0042 1B68     		ldr	r3, [r3]
 640 0044 03F00103 		and	r3, r3, #1
 641 0048 002B     		cmp	r3, #0
 642 004a F7D1     		bne	.L48
 643 004c FB68     		ldr	r3, [r7, #12]
 644 004e 5B6C     		ldr	r3, [r3, #68]
 645 0050 1B7A     		ldrb	r3, [r3, #8]	@ zero_extendqisi2
 646 0052 1A46     		mov	r2, r3
 647 0054 3D23     		movs	r3, #61
 648 0056 03FA02F2 		lsl	r2, r3, r2
 649 005a FB68     		ldr	r3, [r7, #12]
 650 005c 5B6C     		ldr	r3, [r3, #68]
 651 005e 5B68     		ldr	r3, [r3, #4]
 652 0060 1A60     		str	r2, [r3]
 653 0062 FB68     		ldr	r3, [r7, #12]
 654 0064 9B6C     		ldr	r3, [r3, #72]
 655 0066 0C4A     		ldr	r2, .L51
 656 0068 9A63     		str	r2, [r3, #56]
 657 006a FB68     		ldr	r3, [r7, #12]
 658 006c 9B6C     		ldr	r3, [r3, #72]
 659 006e 0022     		movs	r2, #0
 660 0070 DA62     		str	r2, [r3, #44]
 661 0072 FFF7FEFF 		bl	osalSysUnlock
 662 0076 BB68     		ldr	r3, [r7, #8]
 663 0078 012B     		cmp	r3, #1
 664 007a 07D9     		bls	.L49
 665 007c 7B68     		ldr	r3, [r7, #4]
 666 007e 0022     		movs	r2, #0
 667 0080 0C21     		movs	r1, #12
 668 0082 F868     		ldr	r0, [r7, #12]
 669 0084 FFF7FEFF 		bl	sdc_lld_send_cmd_short_crc
 670 0088 0346     		mov	r3, r0
 671 008a 00E0     		b	.L47
 672              	.L49:
 673 008c 0023     		movs	r3, #0
 674              	.L47:
 675 008e 1846     		mov	r0, r3
 676 0090 1037     		adds	r7, r7, #16
ARM GAS  /var/folders/d2/nstgp4h54kz7g1l847x_b8wc0000gn/T//cczi8De5.s 			page 13


 677 0092 BD46     		mov	sp, r7
 678              		@ sp needed
 679 0094 80BD     		pop	{r7, pc}
 680              	.L52:
 681 0096 00BF     		.align	2
 682              	.L51:
 683 0098 FF07C000 		.word	12584959
 684              		.size	sdc_lld_wait_transaction_end, .-sdc_lld_wait_transaction_end
 685              		.section	.text.sdc_lld_collect_errors,"ax",%progbits
 686              		.align	1
 687              		.syntax unified
 688              		.thumb
 689              		.thumb_func
 690              		.fpu fpv4-sp-d16
 691              		.type	sdc_lld_collect_errors, %function
 692              	sdc_lld_collect_errors:
 693              		@ args = 0, pretend = 0, frame = 16
 694              		@ frame_needed = 1, uses_anonymous_args = 0
 695              		@ link register save eliminated.
 696 0000 80B4     		push	{r7}
 697 0002 85B0     		sub	sp, sp, #20
 698 0004 00AF     		add	r7, sp, #0
 699 0006 7860     		str	r0, [r7, #4]
 700 0008 3960     		str	r1, [r7]
 701 000a 0023     		movs	r3, #0
 702 000c FB60     		str	r3, [r7, #12]
 703 000e 3B68     		ldr	r3, [r7]
 704 0010 03F00103 		and	r3, r3, #1
 705 0014 002B     		cmp	r3, #0
 706 0016 03D0     		beq	.L54
 707 0018 FB68     		ldr	r3, [r7, #12]
 708 001a 43F00103 		orr	r3, r3, #1
 709 001e FB60     		str	r3, [r7, #12]
 710              	.L54:
 711 0020 3B68     		ldr	r3, [r7]
 712 0022 03F00203 		and	r3, r3, #2
 713 0026 002B     		cmp	r3, #0
 714 0028 03D0     		beq	.L55
 715 002a FB68     		ldr	r3, [r7, #12]
 716 002c 43F00203 		orr	r3, r3, #2
 717 0030 FB60     		str	r3, [r7, #12]
 718              	.L55:
 719 0032 3B68     		ldr	r3, [r7]
 720 0034 03F00403 		and	r3, r3, #4
 721 0038 002B     		cmp	r3, #0
 722 003a 03D0     		beq	.L56
 723 003c FB68     		ldr	r3, [r7, #12]
 724 003e 43F00803 		orr	r3, r3, #8
 725 0042 FB60     		str	r3, [r7, #12]
 726              	.L56:
 727 0044 3B68     		ldr	r3, [r7]
 728 0046 03F00803 		and	r3, r3, #8
 729 004a 002B     		cmp	r3, #0
 730 004c 03D0     		beq	.L57
 731 004e FB68     		ldr	r3, [r7, #12]
 732 0050 43F00403 		orr	r3, r3, #4
 733 0054 FB60     		str	r3, [r7, #12]
ARM GAS  /var/folders/d2/nstgp4h54kz7g1l847x_b8wc0000gn/T//cczi8De5.s 			page 14


 734              	.L57:
 735 0056 3B68     		ldr	r3, [r7]
 736 0058 03F01003 		and	r3, r3, #16
 737 005c 002B     		cmp	r3, #0
 738 005e 03D0     		beq	.L58
 739 0060 FB68     		ldr	r3, [r7, #12]
 740 0062 43F01003 		orr	r3, r3, #16
 741 0066 FB60     		str	r3, [r7, #12]
 742              	.L58:
 743 0068 3B68     		ldr	r3, [r7]
 744 006a 03F02003 		and	r3, r3, #32
 745 006e 002B     		cmp	r3, #0
 746 0070 03D0     		beq	.L59
 747 0072 FB68     		ldr	r3, [r7, #12]
 748 0074 43F02003 		orr	r3, r3, #32
 749 0078 FB60     		str	r3, [r7, #12]
 750              	.L59:
 751 007a 3B68     		ldr	r3, [r7]
 752 007c 03F40073 		and	r3, r3, #512
 753 0080 002B     		cmp	r3, #0
 754 0082 03D0     		beq	.L60
 755 0084 FB68     		ldr	r3, [r7, #12]
 756 0086 43F04003 		orr	r3, r3, #64
 757 008a FB60     		str	r3, [r7, #12]
 758              	.L60:
 759 008c 7B68     		ldr	r3, [r7, #4]
 760 008e 5A6B     		ldr	r2, [r3, #52]
 761 0090 FB68     		ldr	r3, [r7, #12]
 762 0092 1A43     		orrs	r2, r2, r3
 763 0094 7B68     		ldr	r3, [r7, #4]
 764 0096 5A63     		str	r2, [r3, #52]
 765 0098 00BF     		nop
 766 009a 1437     		adds	r7, r7, #20
 767 009c BD46     		mov	sp, r7
 768              		@ sp needed
 769 009e 5DF8047B 		ldr	r7, [sp], #4
 770 00a2 7047     		bx	lr
 771              		.size	sdc_lld_collect_errors, .-sdc_lld_collect_errors
 772              		.section	.text.sdc_lld_error_cleanup,"ax",%progbits
 773              		.align	1
 774              		.syntax unified
 775              		.thumb
 776              		.thumb_func
 777              		.fpu fpv4-sp-d16
 778              		.type	sdc_lld_error_cleanup, %function
 779              	sdc_lld_error_cleanup:
 780              		@ args = 0, pretend = 0, frame = 24
 781              		@ frame_needed = 1, uses_anonymous_args = 0
 782 0000 80B5     		push	{r7, lr}
 783 0002 86B0     		sub	sp, sp, #24
 784 0004 00AF     		add	r7, sp, #0
 785 0006 F860     		str	r0, [r7, #12]
 786 0008 B960     		str	r1, [r7, #8]
 787 000a 7A60     		str	r2, [r7, #4]
 788 000c FB68     		ldr	r3, [r7, #12]
 789 000e 9B6C     		ldr	r3, [r3, #72]
 790 0010 5B6B     		ldr	r3, [r3, #52]
ARM GAS  /var/folders/d2/nstgp4h54kz7g1l847x_b8wc0000gn/T//cczi8De5.s 			page 15


 791 0012 7B61     		str	r3, [r7, #20]
 792 0014 FB68     		ldr	r3, [r7, #12]
 793 0016 5B6C     		ldr	r3, [r3, #68]
 794 0018 1B7A     		ldrb	r3, [r3, #8]	@ zero_extendqisi2
 795 001a 1A46     		mov	r2, r3
 796 001c 3D23     		movs	r3, #61
 797 001e 03FA02F2 		lsl	r2, r3, r2
 798 0022 FB68     		ldr	r3, [r7, #12]
 799 0024 5B6C     		ldr	r3, [r3, #68]
 800 0026 5B68     		ldr	r3, [r3, #4]
 801 0028 1A60     		str	r2, [r3]
 802 002a FB68     		ldr	r3, [r7, #12]
 803 002c 5B6C     		ldr	r3, [r3, #68]
 804 002e 1B68     		ldr	r3, [r3]
 805 0030 1A68     		ldr	r2, [r3]
 806 0032 FB68     		ldr	r3, [r7, #12]
 807 0034 5B6C     		ldr	r3, [r3, #68]
 808 0036 1B68     		ldr	r3, [r3]
 809 0038 22F01F02 		bic	r2, r2, #31
 810 003c 1A60     		str	r2, [r3]
 811 003e 00BF     		nop
 812              	.L62:
 813 0040 FB68     		ldr	r3, [r7, #12]
 814 0042 5B6C     		ldr	r3, [r3, #68]
 815 0044 1B68     		ldr	r3, [r3]
 816 0046 1B68     		ldr	r3, [r3]
 817 0048 03F00103 		and	r3, r3, #1
 818 004c 002B     		cmp	r3, #0
 819 004e F7D1     		bne	.L62
 820 0050 FB68     		ldr	r3, [r7, #12]
 821 0052 5B6C     		ldr	r3, [r3, #68]
 822 0054 1B7A     		ldrb	r3, [r3, #8]	@ zero_extendqisi2
 823 0056 1A46     		mov	r2, r3
 824 0058 3D23     		movs	r3, #61
 825 005a 03FA02F2 		lsl	r2, r3, r2
 826 005e FB68     		ldr	r3, [r7, #12]
 827 0060 5B6C     		ldr	r3, [r3, #68]
 828 0062 5B68     		ldr	r3, [r3, #4]
 829 0064 1A60     		str	r2, [r3]
 830 0066 FB68     		ldr	r3, [r7, #12]
 831 0068 9B6C     		ldr	r3, [r3, #72]
 832 006a 0D4A     		ldr	r2, .L65
 833 006c 9A63     		str	r2, [r3, #56]
 834 006e FB68     		ldr	r3, [r7, #12]
 835 0070 9B6C     		ldr	r3, [r3, #72]
 836 0072 0022     		movs	r2, #0
 837 0074 DA63     		str	r2, [r3, #60]
 838 0076 FB68     		ldr	r3, [r7, #12]
 839 0078 9B6C     		ldr	r3, [r3, #72]
 840 007a 0022     		movs	r2, #0
 841 007c DA62     		str	r2, [r3, #44]
 842 007e 7969     		ldr	r1, [r7, #20]
 843 0080 F868     		ldr	r0, [r7, #12]
 844 0082 FFF7FEFF 		bl	sdc_lld_collect_errors
 845 0086 BB68     		ldr	r3, [r7, #8]
 846 0088 012B     		cmp	r3, #1
 847 008a 05D9     		bls	.L64
ARM GAS  /var/folders/d2/nstgp4h54kz7g1l847x_b8wc0000gn/T//cczi8De5.s 			page 16


 848 008c 7B68     		ldr	r3, [r7, #4]
 849 008e 0022     		movs	r2, #0
 850 0090 0C21     		movs	r1, #12
 851 0092 F868     		ldr	r0, [r7, #12]
 852 0094 FFF7FEFF 		bl	sdc_lld_send_cmd_short_crc
 853              	.L64:
 854 0098 00BF     		nop
 855 009a 1837     		adds	r7, r7, #24
 856 009c BD46     		mov	sp, r7
 857              		@ sp needed
 858 009e 80BD     		pop	{r7, pc}
 859              	.L66:
 860              		.align	2
 861              	.L65:
 862 00a0 FF07C000 		.word	12584959
 863              		.size	sdc_lld_error_cleanup, .-sdc_lld_error_cleanup
 864              		.section	.text.Vector104,"ax",%progbits
 865              		.align	1
 866              		.global	Vector104
 867              		.syntax unified
 868              		.thumb
 869              		.thumb_func
 870              		.fpu fpv4-sp-d16
 871              		.type	Vector104, %function
 872              	Vector104:
 873              		@ args = 0, pretend = 0, frame = 0
 874              		@ frame_needed = 1, uses_anonymous_args = 0
 875 0000 80B5     		push	{r7, lr}
 876 0002 00AF     		add	r7, sp, #0
 877 0004 FFF7FEFF 		bl	_stats_increase_irq
 878 0008 FFF7FEFF 		bl	_dbg_check_enter_isr
 879 000c FFF7FEFF 		bl	osalSysLockFromISR
 880 0010 074B     		ldr	r3, .L68
 881 0012 0022     		movs	r2, #0
 882 0014 DA63     		str	r2, [r3, #60]
 883 0016 0021     		movs	r1, #0
 884 0018 0648     		ldr	r0, .L68+4
 885 001a FFF7FEFF 		bl	osalThreadResumeI
 886 001e FFF7FEFF 		bl	osalSysUnlockFromISR
 887 0022 FFF7FEFF 		bl	_dbg_check_leave_isr
 888 0026 FFF7FEFF 		bl	_port_irq_epilogue
 889 002a 00BF     		nop
 890 002c 80BD     		pop	{r7, pc}
 891              	.L69:
 892 002e 00BF     		.align	2
 893              	.L68:
 894 0030 002C0140 		.word	1073818624
 895 0034 3C000000 		.word	SDCD1+60
 896              		.size	Vector104, .-Vector104
 897              		.section	.text.sdc_lld_init,"ax",%progbits
 898              		.align	1
 899              		.global	sdc_lld_init
 900              		.syntax unified
 901              		.thumb
 902              		.thumb_func
 903              		.fpu fpv4-sp-d16
 904              		.type	sdc_lld_init, %function
ARM GAS  /var/folders/d2/nstgp4h54kz7g1l847x_b8wc0000gn/T//cczi8De5.s 			page 17


 905              	sdc_lld_init:
 906              		@ args = 0, pretend = 0, frame = 0
 907              		@ frame_needed = 1, uses_anonymous_args = 0
 908 0000 80B5     		push	{r7, lr}
 909 0002 00AF     		add	r7, sp, #0
 910 0004 0648     		ldr	r0, .L71
 911 0006 FFF7FEFF 		bl	sdcObjectInit
 912 000a 054B     		ldr	r3, .L71
 913 000c 0022     		movs	r2, #0
 914 000e DA63     		str	r2, [r3, #60]
 915 0010 034B     		ldr	r3, .L71
 916 0012 044A     		ldr	r2, .L71+4
 917 0014 5A64     		str	r2, [r3, #68]
 918 0016 024B     		ldr	r3, .L71
 919 0018 034A     		ldr	r2, .L71+8
 920 001a 9A64     		str	r2, [r3, #72]
 921 001c 00BF     		nop
 922 001e 80BD     		pop	{r7, pc}
 923              	.L72:
 924              		.align	2
 925              	.L71:
 926 0020 00000000 		.word	SDCD1
 927 0024 84000000 		.word	_stm32_dma_streams+132
 928 0028 002C0140 		.word	1073818624
 929              		.size	sdc_lld_init, .-sdc_lld_init
 930              		.section	.text.sdc_lld_start,"ax",%progbits
 931              		.align	1
 932              		.global	sdc_lld_start
 933              		.syntax unified
 934              		.thumb
 935              		.thumb_func
 936              		.fpu fpv4-sp-d16
 937              		.type	sdc_lld_start, %function
 938              	sdc_lld_start:
 939              		@ args = 0, pretend = 0, frame = 16
 940              		@ frame_needed = 1, uses_anonymous_args = 0
 941 0000 80B5     		push	{r7, lr}
 942 0002 84B0     		sub	sp, sp, #16
 943 0004 00AF     		add	r7, sp, #0
 944 0006 7860     		str	r0, [r7, #4]
 945 0008 7B68     		ldr	r3, [r7, #4]
 946 000a DB6A     		ldr	r3, [r3, #44]
 947 000c 002B     		cmp	r3, #0
 948 000e 02D1     		bne	.L74
 949 0010 7B68     		ldr	r3, [r7, #4]
 950 0012 254A     		ldr	r2, .L77
 951 0014 DA62     		str	r2, [r3, #44]
 952              	.L74:
 953 0016 7B68     		ldr	r3, [r7, #4]
 954 0018 244A     		ldr	r2, .L77+4
 955 001a 1A64     		str	r2, [r3, #64]
 956 001c 7B68     		ldr	r3, [r7, #4]
 957 001e 1B6C     		ldr	r3, [r3, #64]
 958 0020 43F42003 		orr	r3, r3, #10485760
 959 0024 43F02003 		orr	r3, r3, #32
 960 0028 7A68     		ldr	r2, [r7, #4]
 961 002a 1364     		str	r3, [r2, #64]
ARM GAS  /var/folders/d2/nstgp4h54kz7g1l847x_b8wc0000gn/T//cczi8De5.s 			page 18


 962 002c 7B68     		ldr	r3, [r7, #4]
 963 002e 1B79     		ldrb	r3, [r3, #4]	@ zero_extendqisi2
 964 0030 012B     		cmp	r3, #1
 965 0032 25D1     		bne	.L75
 966 0034 7B68     		ldr	r3, [r7, #4]
 967 0036 586C     		ldr	r0, [r3, #68]
 968 0038 0023     		movs	r3, #0
 969 003a 0022     		movs	r2, #0
 970 003c 0921     		movs	r1, #9
 971 003e FFF7FEFF 		bl	dmaStreamAllocate
 972 0042 0346     		mov	r3, r0
 973 0044 FB73     		strb	r3, [r7, #15]
 974 0046 FB7B     		ldrb	r3, [r7, #15]	@ zero_extendqisi2
 975 0048 002B     		cmp	r3, #0
 976 004a 02D0     		beq	.L76
 977 004c 1848     		ldr	r0, .L77+8
 978 004e FFF7FEFF 		bl	chSysHalt
 979              	.L76:
 980 0052 7B68     		ldr	r3, [r7, #4]
 981 0054 9B6C     		ldr	r3, [r3, #72]
 982 0056 03F18002 		add	r2, r3, #128
 983 005a 7B68     		ldr	r3, [r7, #4]
 984 005c 5B6C     		ldr	r3, [r3, #68]
 985 005e 1B68     		ldr	r3, [r3]
 986 0060 9A60     		str	r2, [r3, #8]
 987 0062 7B68     		ldr	r3, [r7, #4]
 988 0064 5B6C     		ldr	r3, [r3, #68]
 989 0066 1B68     		ldr	r3, [r3]
 990 0068 0722     		movs	r2, #7
 991 006a 5A61     		str	r2, [r3, #20]
 992 006c 0921     		movs	r1, #9
 993 006e 3120     		movs	r0, #49
 994 0070 FFF7FEFF 		bl	nvicEnableVector
 995 0074 0F4B     		ldr	r3, .L77+12
 996 0076 5B6C     		ldr	r3, [r3, #68]
 997 0078 0E4A     		ldr	r2, .L77+12
 998 007a 43F40063 		orr	r3, r3, #2048
 999 007e 5364     		str	r3, [r2, #68]
 1000              	.L75:
 1001 0080 7B68     		ldr	r3, [r7, #4]
 1002 0082 9B6C     		ldr	r3, [r3, #72]
 1003 0084 0022     		movs	r2, #0
 1004 0086 1A60     		str	r2, [r3]
 1005 0088 7B68     		ldr	r3, [r7, #4]
 1006 008a 9B6C     		ldr	r3, [r3, #72]
 1007 008c 0022     		movs	r2, #0
 1008 008e 5A60     		str	r2, [r3, #4]
 1009 0090 7B68     		ldr	r3, [r7, #4]
 1010 0092 9B6C     		ldr	r3, [r3, #72]
 1011 0094 0022     		movs	r2, #0
 1012 0096 DA62     		str	r2, [r3, #44]
 1013 0098 7B68     		ldr	r3, [r7, #4]
 1014 009a 9B6C     		ldr	r3, [r3, #72]
 1015 009c 0022     		movs	r2, #0
 1016 009e 5A62     		str	r2, [r3, #36]
 1017 00a0 00BF     		nop
 1018 00a2 1037     		adds	r7, r7, #16
ARM GAS  /var/folders/d2/nstgp4h54kz7g1l847x_b8wc0000gn/T//cczi8De5.s 			page 19


 1019 00a4 BD46     		mov	sp, r7
 1020              		@ sp needed
 1021 00a6 80BD     		pop	{r7, pc}
 1022              	.L78:
 1023              		.align	2
 1024              	.L77:
 1025 00a8 00000000 		.word	sdc_default_cfg
 1026 00ac 00540308 		.word	134435840
 1027 00b0 00000000 		.word	__func__.10295
 1028 00b4 00380240 		.word	1073887232
 1029              		.size	sdc_lld_start, .-sdc_lld_start
 1030              		.section	.text.sdc_lld_stop,"ax",%progbits
 1031              		.align	1
 1032              		.global	sdc_lld_stop
 1033              		.syntax unified
 1034              		.thumb
 1035              		.thumb_func
 1036              		.fpu fpv4-sp-d16
 1037              		.type	sdc_lld_stop, %function
 1038              	sdc_lld_stop:
 1039              		@ args = 0, pretend = 0, frame = 8
 1040              		@ frame_needed = 1, uses_anonymous_args = 0
 1041 0000 80B5     		push	{r7, lr}
 1042 0002 82B0     		sub	sp, sp, #8
 1043 0004 00AF     		add	r7, sp, #0
 1044 0006 7860     		str	r0, [r7, #4]
 1045 0008 7B68     		ldr	r3, [r7, #4]
 1046 000a 1B79     		ldrb	r3, [r3, #4]	@ zero_extendqisi2
 1047 000c 012B     		cmp	r3, #1
 1048 000e 1DD0     		beq	.L81
 1049 0010 7B68     		ldr	r3, [r7, #4]
 1050 0012 9B6C     		ldr	r3, [r3, #72]
 1051 0014 0022     		movs	r2, #0
 1052 0016 1A60     		str	r2, [r3]
 1053 0018 7B68     		ldr	r3, [r7, #4]
 1054 001a 9B6C     		ldr	r3, [r3, #72]
 1055 001c 0022     		movs	r2, #0
 1056 001e 5A60     		str	r2, [r3, #4]
 1057 0020 7B68     		ldr	r3, [r7, #4]
 1058 0022 9B6C     		ldr	r3, [r3, #72]
 1059 0024 0022     		movs	r2, #0
 1060 0026 DA62     		str	r2, [r3, #44]
 1061 0028 7B68     		ldr	r3, [r7, #4]
 1062 002a 9B6C     		ldr	r3, [r3, #72]
 1063 002c 0022     		movs	r2, #0
 1064 002e 5A62     		str	r2, [r3, #36]
 1065 0030 3120     		movs	r0, #49
 1066 0032 FFF7FEFF 		bl	nvicDisableVector
 1067 0036 7B68     		ldr	r3, [r7, #4]
 1068 0038 5B6C     		ldr	r3, [r3, #68]
 1069 003a 1846     		mov	r0, r3
 1070 003c FFF7FEFF 		bl	dmaStreamRelease
 1071 0040 044B     		ldr	r3, .L82
 1072 0042 5B6C     		ldr	r3, [r3, #68]
 1073 0044 034A     		ldr	r2, .L82
 1074 0046 23F40063 		bic	r3, r3, #2048
 1075 004a 5364     		str	r3, [r2, #68]
ARM GAS  /var/folders/d2/nstgp4h54kz7g1l847x_b8wc0000gn/T//cczi8De5.s 			page 20


 1076              	.L81:
 1077 004c 00BF     		nop
 1078 004e 0837     		adds	r7, r7, #8
 1079 0050 BD46     		mov	sp, r7
 1080              		@ sp needed
 1081 0052 80BD     		pop	{r7, pc}
 1082              	.L83:
 1083              		.align	2
 1084              	.L82:
 1085 0054 00380240 		.word	1073887232
 1086              		.size	sdc_lld_stop, .-sdc_lld_stop
 1087              		.section	.text.sdc_lld_start_clk,"ax",%progbits
 1088              		.align	1
 1089              		.global	sdc_lld_start_clk
 1090              		.syntax unified
 1091              		.thumb
 1092              		.thumb_func
 1093              		.fpu fpv4-sp-d16
 1094              		.type	sdc_lld_start_clk, %function
 1095              	sdc_lld_start_clk:
 1096              		@ args = 0, pretend = 0, frame = 8
 1097              		@ frame_needed = 1, uses_anonymous_args = 0
 1098 0000 80B5     		push	{r7, lr}
 1099 0002 82B0     		sub	sp, sp, #8
 1100 0004 00AF     		add	r7, sp, #0
 1101 0006 7860     		str	r0, [r7, #4]
 1102 0008 7B68     		ldr	r3, [r7, #4]
 1103 000a 9B6C     		ldr	r3, [r3, #72]
 1104 000c 7822     		movs	r2, #120
 1105 000e 5A60     		str	r2, [r3, #4]
 1106 0010 7B68     		ldr	r3, [r7, #4]
 1107 0012 9B6C     		ldr	r3, [r3, #72]
 1108 0014 1A68     		ldr	r2, [r3]
 1109 0016 7B68     		ldr	r3, [r7, #4]
 1110 0018 9B6C     		ldr	r3, [r3, #72]
 1111 001a 42F00302 		orr	r2, r2, #3
 1112 001e 1A60     		str	r2, [r3]
 1113 0020 7B68     		ldr	r3, [r7, #4]
 1114 0022 9B6C     		ldr	r3, [r3, #72]
 1115 0024 5A68     		ldr	r2, [r3, #4]
 1116 0026 7B68     		ldr	r3, [r7, #4]
 1117 0028 9B6C     		ldr	r3, [r3, #72]
 1118 002a 42F48072 		orr	r2, r2, #256
 1119 002e 5A60     		str	r2, [r3, #4]
 1120 0030 0A20     		movs	r0, #10
 1121 0032 FFF7FEFF 		bl	osalThreadSleep
 1122 0036 00BF     		nop
 1123 0038 0837     		adds	r7, r7, #8
 1124 003a BD46     		mov	sp, r7
 1125              		@ sp needed
 1126 003c 80BD     		pop	{r7, pc}
 1127              		.size	sdc_lld_start_clk, .-sdc_lld_start_clk
 1128              		.section	.text.sdc_lld_set_data_clk,"ax",%progbits
 1129              		.align	1
 1130              		.global	sdc_lld_set_data_clk
 1131              		.syntax unified
 1132              		.thumb
ARM GAS  /var/folders/d2/nstgp4h54kz7g1l847x_b8wc0000gn/T//cczi8De5.s 			page 21


 1133              		.thumb_func
 1134              		.fpu fpv4-sp-d16
 1135              		.type	sdc_lld_set_data_clk, %function
 1136              	sdc_lld_set_data_clk:
 1137              		@ args = 0, pretend = 0, frame = 8
 1138              		@ frame_needed = 1, uses_anonymous_args = 0
 1139              		@ link register save eliminated.
 1140 0000 80B4     		push	{r7}
 1141 0002 83B0     		sub	sp, sp, #12
 1142 0004 00AF     		add	r7, sp, #0
 1143 0006 7860     		str	r0, [r7, #4]
 1144 0008 0B46     		mov	r3, r1
 1145 000a FB70     		strb	r3, [r7, #3]
 1146 000c 7B68     		ldr	r3, [r7, #4]
 1147 000e 9B6C     		ldr	r3, [r3, #72]
 1148 0010 5A68     		ldr	r2, [r3, #4]
 1149 0012 7B68     		ldr	r3, [r7, #4]
 1150 0014 9B6C     		ldr	r3, [r3, #72]
 1151 0016 22F0FF02 		bic	r2, r2, #255
 1152 001a 5A60     		str	r2, [r3, #4]
 1153 001c 00BF     		nop
 1154 001e 0C37     		adds	r7, r7, #12
 1155 0020 BD46     		mov	sp, r7
 1156              		@ sp needed
 1157 0022 5DF8047B 		ldr	r7, [sp], #4
 1158 0026 7047     		bx	lr
 1159              		.size	sdc_lld_set_data_clk, .-sdc_lld_set_data_clk
 1160              		.section	.text.sdc_lld_stop_clk,"ax",%progbits
 1161              		.align	1
 1162              		.global	sdc_lld_stop_clk
 1163              		.syntax unified
 1164              		.thumb
 1165              		.thumb_func
 1166              		.fpu fpv4-sp-d16
 1167              		.type	sdc_lld_stop_clk, %function
 1168              	sdc_lld_stop_clk:
 1169              		@ args = 0, pretend = 0, frame = 8
 1170              		@ frame_needed = 1, uses_anonymous_args = 0
 1171              		@ link register save eliminated.
 1172 0000 80B4     		push	{r7}
 1173 0002 83B0     		sub	sp, sp, #12
 1174 0004 00AF     		add	r7, sp, #0
 1175 0006 7860     		str	r0, [r7, #4]
 1176 0008 7B68     		ldr	r3, [r7, #4]
 1177 000a 9B6C     		ldr	r3, [r3, #72]
 1178 000c 0022     		movs	r2, #0
 1179 000e 5A60     		str	r2, [r3, #4]
 1180 0010 7B68     		ldr	r3, [r7, #4]
 1181 0012 9B6C     		ldr	r3, [r3, #72]
 1182 0014 0022     		movs	r2, #0
 1183 0016 1A60     		str	r2, [r3]
 1184 0018 00BF     		nop
 1185 001a 0C37     		adds	r7, r7, #12
 1186 001c BD46     		mov	sp, r7
 1187              		@ sp needed
 1188 001e 5DF8047B 		ldr	r7, [sp], #4
 1189 0022 7047     		bx	lr
ARM GAS  /var/folders/d2/nstgp4h54kz7g1l847x_b8wc0000gn/T//cczi8De5.s 			page 22


 1190              		.size	sdc_lld_stop_clk, .-sdc_lld_stop_clk
 1191              		.section	.text.sdc_lld_set_bus_mode,"ax",%progbits
 1192              		.align	1
 1193              		.global	sdc_lld_set_bus_mode
 1194              		.syntax unified
 1195              		.thumb
 1196              		.thumb_func
 1197              		.fpu fpv4-sp-d16
 1198              		.type	sdc_lld_set_bus_mode, %function
 1199              	sdc_lld_set_bus_mode:
 1200              		@ args = 0, pretend = 0, frame = 16
 1201              		@ frame_needed = 1, uses_anonymous_args = 0
 1202              		@ link register save eliminated.
 1203 0000 80B4     		push	{r7}
 1204 0002 85B0     		sub	sp, sp, #20
 1205 0004 00AF     		add	r7, sp, #0
 1206 0006 7860     		str	r0, [r7, #4]
 1207 0008 0B46     		mov	r3, r1
 1208 000a FB70     		strb	r3, [r7, #3]
 1209 000c 7B68     		ldr	r3, [r7, #4]
 1210 000e 9B6C     		ldr	r3, [r3, #72]
 1211 0010 5B68     		ldr	r3, [r3, #4]
 1212 0012 23F4C053 		bic	r3, r3, #6144
 1213 0016 FB60     		str	r3, [r7, #12]
 1214 0018 FB78     		ldrb	r3, [r7, #3]	@ zero_extendqisi2
 1215 001a 012B     		cmp	r3, #1
 1216 001c 09D0     		beq	.L89
 1217 001e 022B     		cmp	r3, #2
 1218 0020 0ED0     		beq	.L90
 1219 0022 002B     		cmp	r3, #0
 1220 0024 00D0     		beq	.L91
 1221 0026 12E0     		b	.L92
 1222              	.L91:
 1223 0028 7B68     		ldr	r3, [r7, #4]
 1224 002a 9B6C     		ldr	r3, [r3, #72]
 1225 002c FA68     		ldr	r2, [r7, #12]
 1226 002e 5A60     		str	r2, [r3, #4]
 1227 0030 0DE0     		b	.L88
 1228              	.L89:
 1229 0032 7B68     		ldr	r3, [r7, #4]
 1230 0034 9B6C     		ldr	r3, [r3, #72]
 1231 0036 FA68     		ldr	r2, [r7, #12]
 1232 0038 42F40062 		orr	r2, r2, #2048
 1233 003c 5A60     		str	r2, [r3, #4]
 1234 003e 06E0     		b	.L88
 1235              	.L90:
 1236 0040 7B68     		ldr	r3, [r7, #4]
 1237 0042 9B6C     		ldr	r3, [r3, #72]
 1238 0044 FA68     		ldr	r2, [r7, #12]
 1239 0046 42F48052 		orr	r2, r2, #4096
 1240 004a 5A60     		str	r2, [r3, #4]
 1241 004c 00BF     		nop
 1242              	.L88:
 1243              	.L92:
 1244 004e 00BF     		nop
 1245 0050 1437     		adds	r7, r7, #20
 1246 0052 BD46     		mov	sp, r7
ARM GAS  /var/folders/d2/nstgp4h54kz7g1l847x_b8wc0000gn/T//cczi8De5.s 			page 23


 1247              		@ sp needed
 1248 0054 5DF8047B 		ldr	r7, [sp], #4
 1249 0058 7047     		bx	lr
 1250              		.size	sdc_lld_set_bus_mode, .-sdc_lld_set_bus_mode
 1251              		.section	.text.sdc_lld_send_cmd_none,"ax",%progbits
 1252              		.align	1
 1253              		.global	sdc_lld_send_cmd_none
 1254              		.syntax unified
 1255              		.thumb
 1256              		.thumb_func
 1257              		.fpu fpv4-sp-d16
 1258              		.type	sdc_lld_send_cmd_none, %function
 1259              	sdc_lld_send_cmd_none:
 1260              		@ args = 0, pretend = 0, frame = 16
 1261              		@ frame_needed = 1, uses_anonymous_args = 0
 1262              		@ link register save eliminated.
 1263 0000 80B4     		push	{r7}
 1264 0002 85B0     		sub	sp, sp, #20
 1265 0004 00AF     		add	r7, sp, #0
 1266 0006 F860     		str	r0, [r7, #12]
 1267 0008 0B46     		mov	r3, r1
 1268 000a 7A60     		str	r2, [r7, #4]
 1269 000c FB72     		strb	r3, [r7, #11]
 1270 000e FB68     		ldr	r3, [r7, #12]
 1271 0010 9B6C     		ldr	r3, [r3, #72]
 1272 0012 7A68     		ldr	r2, [r7, #4]
 1273 0014 9A60     		str	r2, [r3, #8]
 1274 0016 FA7A     		ldrb	r2, [r7, #11]	@ zero_extendqisi2
 1275 0018 FB68     		ldr	r3, [r7, #12]
 1276 001a 9B6C     		ldr	r3, [r3, #72]
 1277 001c 42F48062 		orr	r2, r2, #1024
 1278 0020 DA60     		str	r2, [r3, #12]
 1279 0022 00BF     		nop
 1280              	.L94:
 1281 0024 FB68     		ldr	r3, [r7, #12]
 1282 0026 9B6C     		ldr	r3, [r3, #72]
 1283 0028 5B6B     		ldr	r3, [r3, #52]
 1284 002a 03F08003 		and	r3, r3, #128
 1285 002e 002B     		cmp	r3, #0
 1286 0030 F8D0     		beq	.L94
 1287 0032 FB68     		ldr	r3, [r7, #12]
 1288 0034 9B6C     		ldr	r3, [r3, #72]
 1289 0036 8022     		movs	r2, #128
 1290 0038 9A63     		str	r2, [r3, #56]
 1291 003a 00BF     		nop
 1292 003c 1437     		adds	r7, r7, #20
 1293 003e BD46     		mov	sp, r7
 1294              		@ sp needed
 1295 0040 5DF8047B 		ldr	r7, [sp], #4
 1296 0044 7047     		bx	lr
 1297              		.size	sdc_lld_send_cmd_none, .-sdc_lld_send_cmd_none
 1298              		.section	.text.sdc_lld_send_cmd_short,"ax",%progbits
 1299              		.align	1
 1300              		.global	sdc_lld_send_cmd_short
 1301              		.syntax unified
 1302              		.thumb
 1303              		.thumb_func
ARM GAS  /var/folders/d2/nstgp4h54kz7g1l847x_b8wc0000gn/T//cczi8De5.s 			page 24


 1304              		.fpu fpv4-sp-d16
 1305              		.type	sdc_lld_send_cmd_short, %function
 1306              	sdc_lld_send_cmd_short:
 1307              		@ args = 0, pretend = 0, frame = 24
 1308              		@ frame_needed = 1, uses_anonymous_args = 0
 1309 0000 80B5     		push	{r7, lr}
 1310 0002 86B0     		sub	sp, sp, #24
 1311 0004 00AF     		add	r7, sp, #0
 1312 0006 F860     		str	r0, [r7, #12]
 1313 0008 7A60     		str	r2, [r7, #4]
 1314 000a 3B60     		str	r3, [r7]
 1315 000c 0B46     		mov	r3, r1
 1316 000e FB72     		strb	r3, [r7, #11]
 1317 0010 FB68     		ldr	r3, [r7, #12]
 1318 0012 9B6C     		ldr	r3, [r3, #72]
 1319 0014 7A68     		ldr	r2, [r7, #4]
 1320 0016 9A60     		str	r2, [r3, #8]
 1321 0018 FB7A     		ldrb	r3, [r7, #11]
 1322 001a 43F04003 		orr	r3, r3, #64
 1323 001e DBB2     		uxtb	r3, r3
 1324 0020 1A46     		mov	r2, r3
 1325 0022 FB68     		ldr	r3, [r7, #12]
 1326 0024 9B6C     		ldr	r3, [r3, #72]
 1327 0026 42F48062 		orr	r2, r2, #1024
 1328 002a DA60     		str	r2, [r3, #12]
 1329 002c 00BF     		nop
 1330              	.L96:
 1331 002e FB68     		ldr	r3, [r7, #12]
 1332 0030 9B6C     		ldr	r3, [r3, #72]
 1333 0032 5B6B     		ldr	r3, [r3, #52]
 1334 0034 7B61     		str	r3, [r7, #20]
 1335 0036 7B69     		ldr	r3, [r7, #20]
 1336 0038 03F04503 		and	r3, r3, #69
 1337 003c 002B     		cmp	r3, #0
 1338 003e F6D0     		beq	.L96
 1339 0040 FB68     		ldr	r3, [r7, #12]
 1340 0042 9B6C     		ldr	r3, [r3, #72]
 1341 0044 7A69     		ldr	r2, [r7, #20]
 1342 0046 02F04502 		and	r2, r2, #69
 1343 004a 9A63     		str	r2, [r3, #56]
 1344 004c 7B69     		ldr	r3, [r7, #20]
 1345 004e 03F00403 		and	r3, r3, #4
 1346 0052 002B     		cmp	r3, #0
 1347 0054 05D0     		beq	.L97
 1348 0056 7969     		ldr	r1, [r7, #20]
 1349 0058 F868     		ldr	r0, [r7, #12]
 1350 005a FFF7FEFF 		bl	sdc_lld_collect_errors
 1351 005e 0123     		movs	r3, #1
 1352 0060 05E0     		b	.L98
 1353              	.L97:
 1354 0062 FB68     		ldr	r3, [r7, #12]
 1355 0064 9B6C     		ldr	r3, [r3, #72]
 1356 0066 5A69     		ldr	r2, [r3, #20]
 1357 0068 3B68     		ldr	r3, [r7]
 1358 006a 1A60     		str	r2, [r3]
 1359 006c 0023     		movs	r3, #0
 1360              	.L98:
ARM GAS  /var/folders/d2/nstgp4h54kz7g1l847x_b8wc0000gn/T//cczi8De5.s 			page 25


 1361 006e 1846     		mov	r0, r3
 1362 0070 1837     		adds	r7, r7, #24
 1363 0072 BD46     		mov	sp, r7
 1364              		@ sp needed
 1365 0074 80BD     		pop	{r7, pc}
 1366              		.size	sdc_lld_send_cmd_short, .-sdc_lld_send_cmd_short
 1367              		.section	.text.sdc_lld_send_cmd_short_crc,"ax",%progbits
 1368              		.align	1
 1369              		.global	sdc_lld_send_cmd_short_crc
 1370              		.syntax unified
 1371              		.thumb
 1372              		.thumb_func
 1373              		.fpu fpv4-sp-d16
 1374              		.type	sdc_lld_send_cmd_short_crc, %function
 1375              	sdc_lld_send_cmd_short_crc:
 1376              		@ args = 0, pretend = 0, frame = 24
 1377              		@ frame_needed = 1, uses_anonymous_args = 0
 1378 0000 80B5     		push	{r7, lr}
 1379 0002 86B0     		sub	sp, sp, #24
 1380 0004 00AF     		add	r7, sp, #0
 1381 0006 F860     		str	r0, [r7, #12]
 1382 0008 7A60     		str	r2, [r7, #4]
 1383 000a 3B60     		str	r3, [r7]
 1384 000c 0B46     		mov	r3, r1
 1385 000e FB72     		strb	r3, [r7, #11]
 1386 0010 FB68     		ldr	r3, [r7, #12]
 1387 0012 9B6C     		ldr	r3, [r3, #72]
 1388 0014 7A68     		ldr	r2, [r7, #4]
 1389 0016 9A60     		str	r2, [r3, #8]
 1390 0018 FB7A     		ldrb	r3, [r7, #11]
 1391 001a 43F04003 		orr	r3, r3, #64
 1392 001e DBB2     		uxtb	r3, r3
 1393 0020 1A46     		mov	r2, r3
 1394 0022 FB68     		ldr	r3, [r7, #12]
 1395 0024 9B6C     		ldr	r3, [r3, #72]
 1396 0026 42F48062 		orr	r2, r2, #1024
 1397 002a DA60     		str	r2, [r3, #12]
 1398 002c 00BF     		nop
 1399              	.L100:
 1400 002e FB68     		ldr	r3, [r7, #12]
 1401 0030 9B6C     		ldr	r3, [r3, #72]
 1402 0032 5B6B     		ldr	r3, [r3, #52]
 1403 0034 7B61     		str	r3, [r7, #20]
 1404 0036 7B69     		ldr	r3, [r7, #20]
 1405 0038 03F04503 		and	r3, r3, #69
 1406 003c 002B     		cmp	r3, #0
 1407 003e F6D0     		beq	.L100
 1408 0040 FB68     		ldr	r3, [r7, #12]
 1409 0042 9B6C     		ldr	r3, [r3, #72]
 1410 0044 7A69     		ldr	r2, [r7, #20]
 1411 0046 02F04502 		and	r2, r2, #69
 1412 004a 9A63     		str	r2, [r3, #56]
 1413 004c 7B69     		ldr	r3, [r7, #20]
 1414 004e 03F00503 		and	r3, r3, #5
 1415 0052 002B     		cmp	r3, #0
 1416 0054 05D0     		beq	.L101
 1417 0056 7969     		ldr	r1, [r7, #20]
ARM GAS  /var/folders/d2/nstgp4h54kz7g1l847x_b8wc0000gn/T//cczi8De5.s 			page 26


 1418 0058 F868     		ldr	r0, [r7, #12]
 1419 005a FFF7FEFF 		bl	sdc_lld_collect_errors
 1420 005e 0123     		movs	r3, #1
 1421 0060 05E0     		b	.L102
 1422              	.L101:
 1423 0062 FB68     		ldr	r3, [r7, #12]
 1424 0064 9B6C     		ldr	r3, [r3, #72]
 1425 0066 5A69     		ldr	r2, [r3, #20]
 1426 0068 3B68     		ldr	r3, [r7]
 1427 006a 1A60     		str	r2, [r3]
 1428 006c 0023     		movs	r3, #0
 1429              	.L102:
 1430 006e 1846     		mov	r0, r3
 1431 0070 1837     		adds	r7, r7, #24
 1432 0072 BD46     		mov	sp, r7
 1433              		@ sp needed
 1434 0074 80BD     		pop	{r7, pc}
 1435              		.size	sdc_lld_send_cmd_short_crc, .-sdc_lld_send_cmd_short_crc
 1436              		.section	.text.sdc_lld_send_cmd_long_crc,"ax",%progbits
 1437              		.align	1
 1438              		.global	sdc_lld_send_cmd_long_crc
 1439              		.syntax unified
 1440              		.thumb
 1441              		.thumb_func
 1442              		.fpu fpv4-sp-d16
 1443              		.type	sdc_lld_send_cmd_long_crc, %function
 1444              	sdc_lld_send_cmd_long_crc:
 1445              		@ args = 0, pretend = 0, frame = 24
 1446              		@ frame_needed = 1, uses_anonymous_args = 0
 1447 0000 80B5     		push	{r7, lr}
 1448 0002 86B0     		sub	sp, sp, #24
 1449 0004 00AF     		add	r7, sp, #0
 1450 0006 F860     		str	r0, [r7, #12]
 1451 0008 7A60     		str	r2, [r7, #4]
 1452 000a 3B60     		str	r3, [r7]
 1453 000c 0B46     		mov	r3, r1
 1454 000e FB72     		strb	r3, [r7, #11]
 1455 0010 FB68     		ldr	r3, [r7, #12]
 1456 0012 9B6C     		ldr	r3, [r3, #72]
 1457 0014 7A68     		ldr	r2, [r7, #4]
 1458 0016 9A60     		str	r2, [r3, #8]
 1459 0018 FB7A     		ldrb	r3, [r7, #11]
 1460 001a 63F03F03 		orn	r3, r3, #63
 1461 001e DBB2     		uxtb	r3, r3
 1462 0020 1A46     		mov	r2, r3
 1463 0022 FB68     		ldr	r3, [r7, #12]
 1464 0024 9B6C     		ldr	r3, [r3, #72]
 1465 0026 42F48062 		orr	r2, r2, #1024
 1466 002a DA60     		str	r2, [r3, #12]
 1467 002c 00BF     		nop
 1468              	.L104:
 1469 002e FB68     		ldr	r3, [r7, #12]
 1470 0030 9B6C     		ldr	r3, [r3, #72]
 1471 0032 5B6B     		ldr	r3, [r3, #52]
 1472 0034 7B61     		str	r3, [r7, #20]
 1473 0036 7B69     		ldr	r3, [r7, #20]
 1474 0038 03F04503 		and	r3, r3, #69
ARM GAS  /var/folders/d2/nstgp4h54kz7g1l847x_b8wc0000gn/T//cczi8De5.s 			page 27


 1475 003c 002B     		cmp	r3, #0
 1476 003e F6D0     		beq	.L104
 1477 0040 FB68     		ldr	r3, [r7, #12]
 1478 0042 9B6C     		ldr	r3, [r3, #72]
 1479 0044 7A69     		ldr	r2, [r7, #20]
 1480 0046 02F04502 		and	r2, r2, #69
 1481 004a 9A63     		str	r2, [r3, #56]
 1482 004c 7B69     		ldr	r3, [r7, #20]
 1483 004e 03F03F03 		and	r3, r3, #63
 1484 0052 002B     		cmp	r3, #0
 1485 0054 05D0     		beq	.L105
 1486 0056 7969     		ldr	r1, [r7, #20]
 1487 0058 F868     		ldr	r0, [r7, #12]
 1488 005a FFF7FEFF 		bl	sdc_lld_collect_errors
 1489 005e 0123     		movs	r3, #1
 1490 0060 1AE0     		b	.L106
 1491              	.L105:
 1492 0062 FB68     		ldr	r3, [r7, #12]
 1493 0064 9A6C     		ldr	r2, [r3, #72]
 1494 0066 3B68     		ldr	r3, [r7]
 1495 0068 191D     		adds	r1, r3, #4
 1496 006a 3960     		str	r1, [r7]
 1497 006c 126A     		ldr	r2, [r2, #32]
 1498 006e 1A60     		str	r2, [r3]
 1499 0070 FB68     		ldr	r3, [r7, #12]
 1500 0072 9A6C     		ldr	r2, [r3, #72]
 1501 0074 3B68     		ldr	r3, [r7]
 1502 0076 191D     		adds	r1, r3, #4
 1503 0078 3960     		str	r1, [r7]
 1504 007a D269     		ldr	r2, [r2, #28]
 1505 007c 1A60     		str	r2, [r3]
 1506 007e FB68     		ldr	r3, [r7, #12]
 1507 0080 9A6C     		ldr	r2, [r3, #72]
 1508 0082 3B68     		ldr	r3, [r7]
 1509 0084 191D     		adds	r1, r3, #4
 1510 0086 3960     		str	r1, [r7]
 1511 0088 9269     		ldr	r2, [r2, #24]
 1512 008a 1A60     		str	r2, [r3]
 1513 008c FB68     		ldr	r3, [r7, #12]
 1514 008e 9B6C     		ldr	r3, [r3, #72]
 1515 0090 5A69     		ldr	r2, [r3, #20]
 1516 0092 3B68     		ldr	r3, [r7]
 1517 0094 1A60     		str	r2, [r3]
 1518 0096 0023     		movs	r3, #0
 1519              	.L106:
 1520 0098 1846     		mov	r0, r3
 1521 009a 1837     		adds	r7, r7, #24
 1522 009c BD46     		mov	sp, r7
 1523              		@ sp needed
 1524 009e 80BD     		pop	{r7, pc}
 1525              		.size	sdc_lld_send_cmd_long_crc, .-sdc_lld_send_cmd_long_crc
 1526              		.section	.text.sdc_lld_read_special,"ax",%progbits
 1527              		.align	1
 1528              		.global	sdc_lld_read_special
 1529              		.syntax unified
 1530              		.thumb
 1531              		.thumb_func
ARM GAS  /var/folders/d2/nstgp4h54kz7g1l847x_b8wc0000gn/T//cczi8De5.s 			page 28


 1532              		.fpu fpv4-sp-d16
 1533              		.type	sdc_lld_read_special, %function
 1534              	sdc_lld_read_special:
 1535              		@ args = 4, pretend = 0, frame = 24
 1536              		@ frame_needed = 1, uses_anonymous_args = 0
 1537 0000 80B5     		push	{r7, lr}
 1538 0002 86B0     		sub	sp, sp, #24
 1539 0004 00AF     		add	r7, sp, #0
 1540 0006 F860     		str	r0, [r7, #12]
 1541 0008 B960     		str	r1, [r7, #8]
 1542 000a 7A60     		str	r2, [r7, #4]
 1543 000c FB70     		strb	r3, [r7, #3]
 1544 000e 7A68     		ldr	r2, [r7, #4]
 1545 0010 B968     		ldr	r1, [r7, #8]
 1546 0012 F868     		ldr	r0, [r7, #12]
 1547 0014 FFF7FEFF 		bl	sdc_lld_prepare_read_bytes
 1548 0018 0346     		mov	r3, r0
 1549 001a 002B     		cmp	r3, #0
 1550 001c 1AD1     		bne	.L113
 1551 001e 07F11403 		add	r3, r7, #20
 1552 0022 F978     		ldrb	r1, [r7, #3]	@ zero_extendqisi2
 1553 0024 3A6A     		ldr	r2, [r7, #32]
 1554 0026 F868     		ldr	r0, [r7, #12]
 1555 0028 FFF7FEFF 		bl	sdc_lld_send_cmd_short_crc
 1556 002c 0346     		mov	r3, r0
 1557 002e 002B     		cmp	r3, #0
 1558 0030 12D1     		bne	.L114
 1559 0032 7A69     		ldr	r2, [r7, #20]
 1560 0034 104B     		ldr	r3, .L116
 1561 0036 1340     		ands	r3, r3, r2
 1562 0038 002B     		cmp	r3, #0
 1563 003a 0DD1     		bne	.L114
 1564 003c 07F11403 		add	r3, r7, #20
 1565 0040 1A46     		mov	r2, r3
 1566 0042 0121     		movs	r1, #1
 1567 0044 F868     		ldr	r0, [r7, #12]
 1568 0046 FFF7FEFF 		bl	sdc_lld_wait_transaction_end
 1569 004a 0346     		mov	r3, r0
 1570 004c 002B     		cmp	r3, #0
 1571 004e 05D1     		bne	.L115
 1572 0050 0023     		movs	r3, #0
 1573 0052 0CE0     		b	.L112
 1574              	.L113:
 1575 0054 00BF     		nop
 1576 0056 02E0     		b	.L109
 1577              	.L114:
 1578 0058 00BF     		nop
 1579 005a 00E0     		b	.L109
 1580              	.L115:
 1581 005c 00BF     		nop
 1582              	.L109:
 1583 005e 07F11403 		add	r3, r7, #20
 1584 0062 1A46     		mov	r2, r3
 1585 0064 0121     		movs	r1, #1
 1586 0066 F868     		ldr	r0, [r7, #12]
 1587 0068 FFF7FEFF 		bl	sdc_lld_error_cleanup
 1588 006c 0123     		movs	r3, #1
ARM GAS  /var/folders/d2/nstgp4h54kz7g1l847x_b8wc0000gn/T//cczi8De5.s 			page 29


 1589              	.L112:
 1590 006e 1846     		mov	r0, r3
 1591 0070 1837     		adds	r7, r7, #24
 1592 0072 BD46     		mov	sp, r7
 1593              		@ sp needed
 1594 0074 80BD     		pop	{r7, pc}
 1595              	.L117:
 1596 0076 00BF     		.align	2
 1597              	.L116:
 1598 0078 08E0FFFD 		.word	-33562616
 1599              		.size	sdc_lld_read_special, .-sdc_lld_read_special
 1600              		.section	.text.sdc_lld_read_aligned,"ax",%progbits
 1601              		.align	1
 1602              		.global	sdc_lld_read_aligned
 1603              		.syntax unified
 1604              		.thumb
 1605              		.thumb_func
 1606              		.fpu fpv4-sp-d16
 1607              		.type	sdc_lld_read_aligned, %function
 1608              	sdc_lld_read_aligned:
 1609              		@ args = 0, pretend = 0, frame = 24
 1610              		@ frame_needed = 1, uses_anonymous_args = 0
 1611 0000 80B5     		push	{r7, lr}
 1612 0002 86B0     		sub	sp, sp, #24
 1613 0004 00AF     		add	r7, sp, #0
 1614 0006 F860     		str	r0, [r7, #12]
 1615 0008 B960     		str	r1, [r7, #8]
 1616 000a 7A60     		str	r2, [r7, #4]
 1617 000c 3B60     		str	r3, [r7]
 1618 000e 3B68     		ldr	r3, [r7]
 1619 0010 B3F5004F 		cmp	r3, #32768
 1620 0014 02D3     		bcc	.L119
 1621 0016 3148     		ldr	r0, .L128
 1622 0018 FFF7FEFF 		bl	chSysHalt
 1623              	.L119:
 1624 001c FB68     		ldr	r3, [r7, #12]
 1625 001e 9B6C     		ldr	r3, [r3, #72]
 1626 0020 2F4A     		ldr	r2, .L128+4
 1627 0022 5A62     		str	r2, [r3, #36]
 1628 0024 F868     		ldr	r0, [r7, #12]
 1629 0026 FFF7FEFF 		bl	_sdc_wait_for_transfer_state
 1630 002a 0346     		mov	r3, r0
 1631 002c 002B     		cmp	r3, #0
 1632 002e 01D0     		beq	.L120
 1633 0030 0123     		movs	r3, #1
 1634 0032 4EE0     		b	.L125
 1635              	.L120:
 1636 0034 FB68     		ldr	r3, [r7, #12]
 1637 0036 5B6C     		ldr	r3, [r3, #68]
 1638 0038 1B68     		ldr	r3, [r3]
 1639 003a 7A68     		ldr	r2, [r7, #4]
 1640 003c DA60     		str	r2, [r3, #12]
 1641 003e 3B68     		ldr	r3, [r7]
 1642 0040 5A02     		lsls	r2, r3, #9
 1643 0042 FB68     		ldr	r3, [r7, #12]
 1644 0044 5B6C     		ldr	r3, [r3, #68]
 1645 0046 1B68     		ldr	r3, [r3]
ARM GAS  /var/folders/d2/nstgp4h54kz7g1l847x_b8wc0000gn/T//cczi8De5.s 			page 30


 1646 0048 9208     		lsrs	r2, r2, #2
 1647 004a 5A60     		str	r2, [r3, #4]
 1648 004c FB68     		ldr	r3, [r7, #12]
 1649 004e 5B6C     		ldr	r3, [r3, #68]
 1650 0050 1B68     		ldr	r3, [r3]
 1651 0052 FA68     		ldr	r2, [r7, #12]
 1652 0054 126C     		ldr	r2, [r2, #64]
 1653 0056 1A60     		str	r2, [r3]
 1654 0058 FB68     		ldr	r3, [r7, #12]
 1655 005a 5B6C     		ldr	r3, [r3, #68]
 1656 005c 1B68     		ldr	r3, [r3]
 1657 005e 1A68     		ldr	r2, [r3]
 1658 0060 FB68     		ldr	r3, [r7, #12]
 1659 0062 5B6C     		ldr	r3, [r3, #68]
 1660 0064 1B68     		ldr	r3, [r3]
 1661 0066 42F00102 		orr	r2, r2, #1
 1662 006a 1A60     		str	r2, [r3]
 1663 006c FB68     		ldr	r3, [r7, #12]
 1664 006e 9B6C     		ldr	r3, [r3, #72]
 1665 0070 1C4A     		ldr	r2, .L128+8
 1666 0072 9A63     		str	r2, [r3, #56]
 1667 0074 FB68     		ldr	r3, [r7, #12]
 1668 0076 9B6C     		ldr	r3, [r3, #72]
 1669 0078 40F22A32 		movw	r2, #810
 1670 007c DA63     		str	r2, [r3, #60]
 1671 007e FB68     		ldr	r3, [r7, #12]
 1672 0080 9B6C     		ldr	r3, [r3, #72]
 1673 0082 3A68     		ldr	r2, [r7]
 1674 0084 5202     		lsls	r2, r2, #9
 1675 0086 9A62     		str	r2, [r3, #40]
 1676 0088 FB68     		ldr	r3, [r7, #12]
 1677 008a 9B6C     		ldr	r3, [r3, #72]
 1678 008c 9B22     		movs	r2, #155
 1679 008e DA62     		str	r2, [r3, #44]
 1680 0090 07F11403 		add	r3, r7, #20
 1681 0094 3A68     		ldr	r2, [r7]
 1682 0096 B968     		ldr	r1, [r7, #8]
 1683 0098 F868     		ldr	r0, [r7, #12]
 1684 009a FFF7FEFF 		bl	sdc_lld_prepare_read
 1685 009e 0346     		mov	r3, r0
 1686 00a0 002B     		cmp	r3, #0
 1687 00a2 0BD1     		bne	.L126
 1688 00a4 07F11403 		add	r3, r7, #20
 1689 00a8 1A46     		mov	r2, r3
 1690 00aa 3968     		ldr	r1, [r7]
 1691 00ac F868     		ldr	r0, [r7, #12]
 1692 00ae FFF7FEFF 		bl	sdc_lld_wait_transaction_end
 1693 00b2 0346     		mov	r3, r0
 1694 00b4 002B     		cmp	r3, #0
 1695 00b6 03D1     		bne	.L127
 1696 00b8 0023     		movs	r3, #0
 1697 00ba 0AE0     		b	.L125
 1698              	.L126:
 1699 00bc 00BF     		nop
 1700 00be 00E0     		b	.L123
 1701              	.L127:
 1702 00c0 00BF     		nop
ARM GAS  /var/folders/d2/nstgp4h54kz7g1l847x_b8wc0000gn/T//cczi8De5.s 			page 31


 1703              	.L123:
 1704 00c2 07F11403 		add	r3, r7, #20
 1705 00c6 1A46     		mov	r2, r3
 1706 00c8 3968     		ldr	r1, [r7]
 1707 00ca F868     		ldr	r0, [r7, #12]
 1708 00cc FFF7FEFF 		bl	sdc_lld_error_cleanup
 1709 00d0 0123     		movs	r3, #1
 1710              	.L125:
 1711 00d2 1846     		mov	r0, r3
 1712 00d4 1837     		adds	r7, r7, #24
 1713 00d6 BD46     		mov	sp, r7
 1714              		@ sp needed
 1715 00d8 80BD     		pop	{r7, pc}
 1716              	.L129:
 1717 00da 00BF     		.align	2
 1718              	.L128:
 1719 00dc 00000000 		.word	__func__.10372
 1720 00e0 C0270900 		.word	600000
 1721 00e4 FF07C000 		.word	12584959
 1722              		.size	sdc_lld_read_aligned, .-sdc_lld_read_aligned
 1723              		.section	.text.sdc_lld_write_aligned,"ax",%progbits
 1724              		.align	1
 1725              		.global	sdc_lld_write_aligned
 1726              		.syntax unified
 1727              		.thumb
 1728              		.thumb_func
 1729              		.fpu fpv4-sp-d16
 1730              		.type	sdc_lld_write_aligned, %function
 1731              	sdc_lld_write_aligned:
 1732              		@ args = 0, pretend = 0, frame = 24
 1733              		@ frame_needed = 1, uses_anonymous_args = 0
 1734 0000 80B5     		push	{r7, lr}
 1735 0002 86B0     		sub	sp, sp, #24
 1736 0004 00AF     		add	r7, sp, #0
 1737 0006 F860     		str	r0, [r7, #12]
 1738 0008 B960     		str	r1, [r7, #8]
 1739 000a 7A60     		str	r2, [r7, #4]
 1740 000c 3B60     		str	r3, [r7]
 1741 000e 3B68     		ldr	r3, [r7]
 1742 0010 B3F5004F 		cmp	r3, #32768
 1743 0014 02D3     		bcc	.L131
 1744 0016 3248     		ldr	r0, .L140
 1745 0018 FFF7FEFF 		bl	chSysHalt
 1746              	.L131:
 1747 001c FB68     		ldr	r3, [r7, #12]
 1748 001e 9B6C     		ldr	r3, [r3, #72]
 1749 0020 304A     		ldr	r2, .L140+4
 1750 0022 5A62     		str	r2, [r3, #36]
 1751 0024 F868     		ldr	r0, [r7, #12]
 1752 0026 FFF7FEFF 		bl	_sdc_wait_for_transfer_state
 1753 002a 0346     		mov	r3, r0
 1754 002c 002B     		cmp	r3, #0
 1755 002e 01D0     		beq	.L132
 1756 0030 0123     		movs	r3, #1
 1757 0032 50E0     		b	.L137
 1758              	.L132:
 1759 0034 FB68     		ldr	r3, [r7, #12]
ARM GAS  /var/folders/d2/nstgp4h54kz7g1l847x_b8wc0000gn/T//cczi8De5.s 			page 32


 1760 0036 5B6C     		ldr	r3, [r3, #68]
 1761 0038 1B68     		ldr	r3, [r3]
 1762 003a 7A68     		ldr	r2, [r7, #4]
 1763 003c DA60     		str	r2, [r3, #12]
 1764 003e 3B68     		ldr	r3, [r7]
 1765 0040 5A02     		lsls	r2, r3, #9
 1766 0042 FB68     		ldr	r3, [r7, #12]
 1767 0044 5B6C     		ldr	r3, [r3, #68]
 1768 0046 1B68     		ldr	r3, [r3]
 1769 0048 9208     		lsrs	r2, r2, #2
 1770 004a 5A60     		str	r2, [r3, #4]
 1771 004c FB68     		ldr	r3, [r7, #12]
 1772 004e 1A6C     		ldr	r2, [r3, #64]
 1773 0050 FB68     		ldr	r3, [r7, #12]
 1774 0052 5B6C     		ldr	r3, [r3, #68]
 1775 0054 1B68     		ldr	r3, [r3]
 1776 0056 42F04002 		orr	r2, r2, #64
 1777 005a 1A60     		str	r2, [r3]
 1778 005c FB68     		ldr	r3, [r7, #12]
 1779 005e 5B6C     		ldr	r3, [r3, #68]
 1780 0060 1B68     		ldr	r3, [r3]
 1781 0062 1A68     		ldr	r2, [r3]
 1782 0064 FB68     		ldr	r3, [r7, #12]
 1783 0066 5B6C     		ldr	r3, [r3, #68]
 1784 0068 1B68     		ldr	r3, [r3]
 1785 006a 42F00102 		orr	r2, r2, #1
 1786 006e 1A60     		str	r2, [r3]
 1787 0070 FB68     		ldr	r3, [r7, #12]
 1788 0072 9B6C     		ldr	r3, [r3, #72]
 1789 0074 1C4A     		ldr	r2, .L140+8
 1790 0076 9A63     		str	r2, [r3, #56]
 1791 0078 FB68     		ldr	r3, [r7, #12]
 1792 007a 9B6C     		ldr	r3, [r3, #72]
 1793 007c 40F21A32 		movw	r2, #794
 1794 0080 DA63     		str	r2, [r3, #60]
 1795 0082 FB68     		ldr	r3, [r7, #12]
 1796 0084 9B6C     		ldr	r3, [r3, #72]
 1797 0086 3A68     		ldr	r2, [r7]
 1798 0088 5202     		lsls	r2, r2, #9
 1799 008a 9A62     		str	r2, [r3, #40]
 1800 008c 07F11403 		add	r3, r7, #20
 1801 0090 3A68     		ldr	r2, [r7]
 1802 0092 B968     		ldr	r1, [r7, #8]
 1803 0094 F868     		ldr	r0, [r7, #12]
 1804 0096 FFF7FEFF 		bl	sdc_lld_prepare_write
 1805 009a 0346     		mov	r3, r0
 1806 009c 002B     		cmp	r3, #0
 1807 009e 0FD1     		bne	.L138
 1808 00a0 FB68     		ldr	r3, [r7, #12]
 1809 00a2 9B6C     		ldr	r3, [r3, #72]
 1810 00a4 9922     		movs	r2, #153
 1811 00a6 DA62     		str	r2, [r3, #44]
 1812 00a8 07F11403 		add	r3, r7, #20
 1813 00ac 1A46     		mov	r2, r3
 1814 00ae 3968     		ldr	r1, [r7]
 1815 00b0 F868     		ldr	r0, [r7, #12]
 1816 00b2 FFF7FEFF 		bl	sdc_lld_wait_transaction_end
ARM GAS  /var/folders/d2/nstgp4h54kz7g1l847x_b8wc0000gn/T//cczi8De5.s 			page 33


 1817 00b6 0346     		mov	r3, r0
 1818 00b8 002B     		cmp	r3, #0
 1819 00ba 03D1     		bne	.L139
 1820 00bc 0023     		movs	r3, #0
 1821 00be 0AE0     		b	.L137
 1822              	.L138:
 1823 00c0 00BF     		nop
 1824 00c2 00E0     		b	.L135
 1825              	.L139:
 1826 00c4 00BF     		nop
 1827              	.L135:
 1828 00c6 07F11403 		add	r3, r7, #20
 1829 00ca 1A46     		mov	r2, r3
 1830 00cc 3968     		ldr	r1, [r7]
 1831 00ce F868     		ldr	r0, [r7, #12]
 1832 00d0 FFF7FEFF 		bl	sdc_lld_error_cleanup
 1833 00d4 0123     		movs	r3, #1
 1834              	.L137:
 1835 00d6 1846     		mov	r0, r3
 1836 00d8 1837     		adds	r7, r7, #24
 1837 00da BD46     		mov	sp, r7
 1838              		@ sp needed
 1839 00dc 80BD     		pop	{r7, pc}
 1840              	.L141:
 1841 00de 00BF     		.align	2
 1842              	.L140:
 1843 00e0 00000000 		.word	__func__.10381
 1844 00e4 808D5B00 		.word	6000000
 1845 00e8 FF07C000 		.word	12584959
 1846              		.size	sdc_lld_write_aligned, .-sdc_lld_write_aligned
 1847              		.section	.text.sdc_lld_read,"ax",%progbits
 1848              		.align	1
 1849              		.global	sdc_lld_read
 1850              		.syntax unified
 1851              		.thumb
 1852              		.thumb_func
 1853              		.fpu fpv4-sp-d16
 1854              		.type	sdc_lld_read, %function
 1855              	sdc_lld_read:
 1856              		@ args = 0, pretend = 0, frame = 24
 1857              		@ frame_needed = 1, uses_anonymous_args = 0
 1858 0000 80B5     		push	{r7, lr}
 1859 0002 86B0     		sub	sp, sp, #24
 1860 0004 00AF     		add	r7, sp, #0
 1861 0006 F860     		str	r0, [r7, #12]
 1862 0008 B960     		str	r1, [r7, #8]
 1863 000a 7A60     		str	r2, [r7, #4]
 1864 000c 3B60     		str	r3, [r7]
 1865 000e 7B68     		ldr	r3, [r7, #4]
 1866 0010 03F00303 		and	r3, r3, #3
 1867 0014 002B     		cmp	r3, #0
 1868 0016 26D0     		beq	.L143
 1869 0018 0023     		movs	r3, #0
 1870 001a 7B61     		str	r3, [r7, #20]
 1871 001c 1DE0     		b	.L144
 1872              	.L147:
 1873 001e 0123     		movs	r3, #1
ARM GAS  /var/folders/d2/nstgp4h54kz7g1l847x_b8wc0000gn/T//cczi8De5.s 			page 34


 1874 0020 164A     		ldr	r2, .L148
 1875 0022 B968     		ldr	r1, [r7, #8]
 1876 0024 F868     		ldr	r0, [r7, #12]
 1877 0026 FFF7FEFF 		bl	sdc_lld_read_aligned
 1878 002a 0346     		mov	r3, r0
 1879 002c 002B     		cmp	r3, #0
 1880 002e 01D0     		beq	.L145
 1881 0030 0123     		movs	r3, #1
 1882 0032 1FE0     		b	.L146
 1883              	.L145:
 1884 0034 7B68     		ldr	r3, [r7, #4]
 1885 0036 114A     		ldr	r2, .L148
 1886 0038 1846     		mov	r0, r3
 1887 003a 1146     		mov	r1, r2
 1888 003c 4FF40073 		mov	r3, #512
 1889 0040 1A46     		mov	r2, r3
 1890 0042 FFF7FEFF 		bl	memcpy
 1891 0046 7B68     		ldr	r3, [r7, #4]
 1892 0048 03F50073 		add	r3, r3, #512
 1893 004c 7B60     		str	r3, [r7, #4]
 1894 004e BB68     		ldr	r3, [r7, #8]
 1895 0050 0133     		adds	r3, r3, #1
 1896 0052 BB60     		str	r3, [r7, #8]
 1897 0054 7B69     		ldr	r3, [r7, #20]
 1898 0056 0133     		adds	r3, r3, #1
 1899 0058 7B61     		str	r3, [r7, #20]
 1900              	.L144:
 1901 005a 7A69     		ldr	r2, [r7, #20]
 1902 005c 3B68     		ldr	r3, [r7]
 1903 005e 9A42     		cmp	r2, r3
 1904 0060 DDD3     		bcc	.L147
 1905 0062 0023     		movs	r3, #0
 1906 0064 06E0     		b	.L146
 1907              	.L143:
 1908 0066 3B68     		ldr	r3, [r7]
 1909 0068 7A68     		ldr	r2, [r7, #4]
 1910 006a B968     		ldr	r1, [r7, #8]
 1911 006c F868     		ldr	r0, [r7, #12]
 1912 006e FFF7FEFF 		bl	sdc_lld_read_aligned
 1913 0072 0346     		mov	r3, r0
 1914              	.L146:
 1915 0074 1846     		mov	r0, r3
 1916 0076 1837     		adds	r7, r7, #24
 1917 0078 BD46     		mov	sp, r7
 1918              		@ sp needed
 1919 007a 80BD     		pop	{r7, pc}
 1920              	.L149:
 1921              		.align	2
 1922              	.L148:
 1923 007c 00000000 		.word	u
 1924              		.size	sdc_lld_read, .-sdc_lld_read
 1925              		.section	.text.sdc_lld_write,"ax",%progbits
 1926              		.align	1
 1927              		.global	sdc_lld_write
 1928              		.syntax unified
 1929              		.thumb
 1930              		.thumb_func
ARM GAS  /var/folders/d2/nstgp4h54kz7g1l847x_b8wc0000gn/T//cczi8De5.s 			page 35


 1931              		.fpu fpv4-sp-d16
 1932              		.type	sdc_lld_write, %function
 1933              	sdc_lld_write:
 1934              		@ args = 0, pretend = 0, frame = 24
 1935              		@ frame_needed = 1, uses_anonymous_args = 0
 1936 0000 80B5     		push	{r7, lr}
 1937 0002 86B0     		sub	sp, sp, #24
 1938 0004 00AF     		add	r7, sp, #0
 1939 0006 F860     		str	r0, [r7, #12]
 1940 0008 B960     		str	r1, [r7, #8]
 1941 000a 7A60     		str	r2, [r7, #4]
 1942 000c 3B60     		str	r3, [r7]
 1943 000e 7B68     		ldr	r3, [r7, #4]
 1944 0010 03F00303 		and	r3, r3, #3
 1945 0014 002B     		cmp	r3, #0
 1946 0016 26D0     		beq	.L151
 1947 0018 0023     		movs	r3, #0
 1948 001a 7B61     		str	r3, [r7, #20]
 1949 001c 1DE0     		b	.L152
 1950              	.L155:
 1951 001e 174A     		ldr	r2, .L156
 1952 0020 7B68     		ldr	r3, [r7, #4]
 1953 0022 1046     		mov	r0, r2
 1954 0024 1946     		mov	r1, r3
 1955 0026 4FF40073 		mov	r3, #512
 1956 002a 1A46     		mov	r2, r3
 1957 002c FFF7FEFF 		bl	memcpy
 1958 0030 7B68     		ldr	r3, [r7, #4]
 1959 0032 03F50073 		add	r3, r3, #512
 1960 0036 7B60     		str	r3, [r7, #4]
 1961 0038 0123     		movs	r3, #1
 1962 003a 104A     		ldr	r2, .L156
 1963 003c B968     		ldr	r1, [r7, #8]
 1964 003e F868     		ldr	r0, [r7, #12]
 1965 0040 FFF7FEFF 		bl	sdc_lld_write_aligned
 1966 0044 0346     		mov	r3, r0
 1967 0046 002B     		cmp	r3, #0
 1968 0048 01D0     		beq	.L153
 1969 004a 0123     		movs	r3, #1
 1970 004c 12E0     		b	.L154
 1971              	.L153:
 1972 004e BB68     		ldr	r3, [r7, #8]
 1973 0050 0133     		adds	r3, r3, #1
 1974 0052 BB60     		str	r3, [r7, #8]
 1975 0054 7B69     		ldr	r3, [r7, #20]
 1976 0056 0133     		adds	r3, r3, #1
 1977 0058 7B61     		str	r3, [r7, #20]
 1978              	.L152:
 1979 005a 7A69     		ldr	r2, [r7, #20]
 1980 005c 3B68     		ldr	r3, [r7]
 1981 005e 9A42     		cmp	r2, r3
 1982 0060 DDD3     		bcc	.L155
 1983 0062 0023     		movs	r3, #0
 1984 0064 06E0     		b	.L154
 1985              	.L151:
 1986 0066 3B68     		ldr	r3, [r7]
 1987 0068 7A68     		ldr	r2, [r7, #4]
ARM GAS  /var/folders/d2/nstgp4h54kz7g1l847x_b8wc0000gn/T//cczi8De5.s 			page 36


 1988 006a B968     		ldr	r1, [r7, #8]
 1989 006c F868     		ldr	r0, [r7, #12]
 1990 006e FFF7FEFF 		bl	sdc_lld_write_aligned
 1991 0072 0346     		mov	r3, r0
 1992              	.L154:
 1993 0074 1846     		mov	r0, r3
 1994 0076 1837     		adds	r7, r7, #24
 1995 0078 BD46     		mov	sp, r7
 1996              		@ sp needed
 1997 007a 80BD     		pop	{r7, pc}
 1998              	.L157:
 1999              		.align	2
 2000              	.L156:
 2001 007c 00000000 		.word	u
 2002              		.size	sdc_lld_write, .-sdc_lld_write
 2003              		.section	.text.sdc_lld_sync,"ax",%progbits
 2004              		.align	1
 2005              		.global	sdc_lld_sync
 2006              		.syntax unified
 2007              		.thumb
 2008              		.thumb_func
 2009              		.fpu fpv4-sp-d16
 2010              		.type	sdc_lld_sync, %function
 2011              	sdc_lld_sync:
 2012              		@ args = 0, pretend = 0, frame = 8
 2013              		@ frame_needed = 1, uses_anonymous_args = 0
 2014              		@ link register save eliminated.
 2015 0000 80B4     		push	{r7}
 2016 0002 83B0     		sub	sp, sp, #12
 2017 0004 00AF     		add	r7, sp, #0
 2018 0006 7860     		str	r0, [r7, #4]
 2019 0008 0023     		movs	r3, #0
 2020 000a 1846     		mov	r0, r3
 2021 000c 0C37     		adds	r7, r7, #12
 2022 000e BD46     		mov	sp, r7
 2023              		@ sp needed
 2024 0010 5DF8047B 		ldr	r7, [sp], #4
 2025 0014 7047     		bx	lr
 2026              		.size	sdc_lld_sync, .-sdc_lld_sync
 2027              		.section	.rodata.__func__.10250,"a",%progbits
 2028              		.align	2
 2029              		.type	__func__.10250, %object
 2030              		.size	__func__.10250, 27
 2031              	__func__.10250:
 2032 0000 7364635F 		.ascii	"sdc_lld_prepare_read_bytes\000"
 2032      6C6C645F 
 2032      70726570 
 2032      6172655F 
 2032      72656164 
 2033              		.section	.rodata.__func__.7554,"a",%progbits
 2034              		.align	2
 2035              		.type	__func__.7554, %object
 2036              		.size	__func__.7554, 12
 2037              	__func__.7554:
 2038 0000 63685379 		.ascii	"chSysUnlock\000"
 2038      73556E6C 
 2038      6F636B00 
ARM GAS  /var/folders/d2/nstgp4h54kz7g1l847x_b8wc0000gn/T//cczi8De5.s 			page 37


 2039              		.section	.rodata.__func__.10295,"a",%progbits
 2040              		.align	2
 2041              		.type	__func__.10295, %object
 2042              		.size	__func__.10295, 14
 2043              	__func__.10295:
 2044 0000 7364635F 		.ascii	"sdc_lld_start\000"
 2044      6C6C645F 
 2044      73746172 
 2044      7400
 2045              		.section	.rodata.__func__.10372,"a",%progbits
 2046              		.align	2
 2047              		.type	__func__.10372, %object
 2048              		.size	__func__.10372, 21
 2049              	__func__.10372:
 2050 0000 7364635F 		.ascii	"sdc_lld_read_aligned\000"
 2050      6C6C645F 
 2050      72656164 
 2050      5F616C69 
 2050      676E6564 
 2051              		.section	.rodata.__func__.10381,"a",%progbits
 2052              		.align	2
 2053              		.type	__func__.10381, %object
 2054              		.size	__func__.10381, 22
 2055              	__func__.10381:
 2056 0000 7364635F 		.ascii	"sdc_lld_write_aligned\000"
 2056      6C6C645F 
 2056      77726974 
 2056      655F616C 
 2056      69676E65 
 2057              		.ident	"GCC: (GNU Tools for Arm Embedded Processors 7-2017-q4-major) 7.2.1 20170904 (release) [ARM
ARM GAS  /var/folders/d2/nstgp4h54kz7g1l847x_b8wc0000gn/T//cczi8De5.s 			page 38

