ARM GAS  /var/folders/d2/nstgp4h54kz7g1l847x_b8wc0000gn/T//ccyr9ge8.s 			page 1


   1              		.cpu cortex-m4
   2              		.eabi_attribute 27, 1
   3              		.eabi_attribute 28, 1
   4              		.eabi_attribute 20, 1
   5              		.eabi_attribute 21, 1
   6              		.eabi_attribute 23, 3
   7              		.eabi_attribute 24, 1
   8              		.eabi_attribute 25, 1
   9              		.eabi_attribute 26, 1
  10              		.eabi_attribute 30, 2
  11              		.eabi_attribute 34, 1
  12              		.eabi_attribute 18, 4
  13              		.file	"selector.c"
  14              		.text
  15              	.Ltext0:
  16              		.cfi_sections	.debug_frame
  17              		.section	.text.get_selector,"ax",%progbits
  18              		.align	1
  19              		.p2align 4,,15
  20              		.global	get_selector
  21              		.syntax unified
  22              		.thumb
  23              		.thumb_func
  24              		.fpu fpv4-sp-d16
  25              		.type	get_selector, %function
  26              	get_selector:
  27              	.LFB256:
  28              		.file 1 "../e-puck2_main-processor/src/selector.c"
  29              		.loc 1 4 0
  30              		.cfi_startproc
  31              		@ args = 0, pretend = 0, frame = 8
  32              		@ frame_needed = 0, uses_anonymous_args = 0
  33 0000 30B5     		push	{r4, r5, lr}
  34              		.cfi_def_cfa_offset 12
  35              		.cfi_offset 4, -12
  36              		.cfi_offset 5, -8
  37              		.cfi_offset 14, -4
  38 0002 104C     		ldr	r4, .L6
  39              		.loc 1 5 0
  40 0004 104B     		ldr	r3, .L6+4
  41              		.loc 1 4 0
  42 0006 2268     		ldr	r2, [r4]
  43              		.loc 1 5 0
  44 0008 1049     		ldr	r1, .L6+8
  45              		.loc 1 4 0
  46 000a 83B0     		sub	sp, sp, #12
  47              		.cfi_def_cfa_offset 24
  48              		.loc 1 4 0
  49 000c 0192     		str	r2, [sp, #4]
  50              		.loc 1 5 0
  51 000e 1869     		ldr	r0, [r3, #16]
  52 0010 1A69     		ldr	r2, [r3, #16]
  53 0012 0969     		ldr	r1, [r1, #16]
  54 0014 1B69     		ldr	r3, [r3, #16]
  55              		.loc 1 6 0
  56 0016 019D     		ldr	r5, [sp, #4]
  57 0018 2468     		ldr	r4, [r4]
ARM GAS  /var/folders/d2/nstgp4h54kz7g1l847x_b8wc0000gn/T//ccyr9ge8.s 			page 2


  58              		.loc 1 5 0
  59 001a C2F3C032 		ubfx	r2, r2, #15, #1
  60 001e C1F30011 		ubfx	r1, r1, #4, #1
  61 0022 02EB4102 		add	r2, r2, r1, lsl #1
  62 0026 C3F38033 		ubfx	r3, r3, #14, #1
  63 002a C0F34030 		ubfx	r0, r0, #13, #1
  64 002e 03EB4203 		add	r3, r3, r2, lsl #1
  65              		.loc 1 6 0
  66 0032 A542     		cmp	r5, r4
  67 0034 00EB4300 		add	r0, r0, r3, lsl #1
  68 0038 01D1     		bne	.L5
  69 003a 03B0     		add	sp, sp, #12
  70              		.cfi_remember_state
  71              		.cfi_def_cfa_offset 12
  72              		@ sp needed
  73 003c 30BD     		pop	{r4, r5, pc}
  74              	.L5:
  75              		.cfi_restore_state
  76 003e FFF7FEFF 		bl	__stack_chk_fail
  77              	.LVL0:
  78              	.L7:
  79 0042 00BF     		.align	2
  80              	.L6:
  81 0044 00000000 		.word	__stack_chk_guard
  82 0048 00080240 		.word	1073874944
  83 004c 000C0240 		.word	1073875968
  84              		.cfi_endproc
  85              	.LFE256:
  86              		.size	get_selector, .-get_selector
  87              		.text
  88              	.Letext0:
  89              		.file 2 "/Applications/Eclipse_e-puck2.app/Contents/Eclipse_e-puck2/Tools/gcc-arm-none-eabi-7-2017
  90              		.file 3 "/Applications/Eclipse_e-puck2.app/Contents/Eclipse_e-puck2/Tools/gcc-arm-none-eabi-7-2017
  91              		.file 4 "/Applications/Eclipse_e-puck2.app/Contents/Eclipse_e-puck2/Tools/gcc-arm-none-eabi-7-2017
  92              		.file 5 "../e-puck2_main-processor/ChibiOS//os/rt/ports/ARMCMx/compilers/GCC/chtypes.h"
  93              		.file 6 "../e-puck2_main-processor/ChibiOS//os/rt/include/chsystypes.h"
  94              		.file 7 "../e-puck2_main-processor/ChibiOS//os/rt/include/chschd.h"
  95              		.file 8 "../e-puck2_main-processor/ChibiOS//os/ext/CMSIS/include/core_cm4.h"
  96              		.file 9 "../e-puck2_main-processor/ChibiOS//os/ext/CMSIS/ST/system_stm32f4xx.h"
  97              		.file 10 "../e-puck2_main-processor/ChibiOS//os/ext/CMSIS/ST/stm32f407xx.h"
  98              		.file 11 "../e-puck2_main-processor/ChibiOS//os/rt/ports/ARMCMx/chcore.h"
  99              		.file 12 "../e-puck2_main-processor/ChibiOS//os/rt/ports/ARMCMx/chcore_v7m.h"
 100              		.file 13 "../e-puck2_main-processor/ChibiOS//os/rt/include/chdebug.h"
 101              		.file 14 "../e-puck2_main-processor/ChibiOS//os/rt/include/chtm.h"
 102              		.file 15 "../e-puck2_main-processor/ChibiOS//os/rt/include/chstats.h"
 103              		.file 16 "../e-puck2_main-processor/ChibiOS//os/rt/include/chsem.h"
 104              		.file 17 "../e-puck2_main-processor/ChibiOS//os/rt/include/chmtx.h"
 105              		.file 18 "../e-puck2_main-processor/ChibiOS//os/rt/include/chregistry.h"
 106              		.file 19 "../e-puck2_main-processor/ChibiOS//os/rt/include/chevents.h"
 107              		.file 20 "../e-puck2_main-processor/ChibiOS//os/rt/include/chqueues.h"
 108              		.file 21 "../e-puck2_main-processor/ChibiOS//os/hal/ports/STM32/STM32F4xx/stm32_dma.h"
 109              		.file 22 "../e-puck2_main-processor/ChibiOS//os/hal/include/hal_ioblock.h"
 110              		.file 23 "../e-puck2_main-processor/ChibiOS//os/hal/ports/STM32/LLD/GPIOv2/pal_lld.h"
 111              		.file 24 "../e-puck2_main-processor/ChibiOS//os/hal/include/adc.h"
 112              		.file 25 "../e-puck2_main-processor/ChibiOS//os/hal/ports/STM32/STM32F4xx/adc_lld.h"
 113              		.file 26 "../e-puck2_main-processor/ChibiOS//os/hal/include/can.h"
 114              		.file 27 "../e-puck2_main-processor/ChibiOS//os/hal/ports/STM32/LLD/can_lld.h"
ARM GAS  /var/folders/d2/nstgp4h54kz7g1l847x_b8wc0000gn/T//ccyr9ge8.s 			page 3


 115              		.file 28 "../e-puck2_main-processor/ChibiOS//os/hal/include/dac.h"
 116              		.file 29 "../e-puck2_main-processor/ChibiOS//os/hal/ports/STM32/LLD/DACv1/dac_lld.h"
 117              		.file 30 "../e-puck2_main-processor/ChibiOS//os/hal/include/ext.h"
 118              		.file 31 "../e-puck2_main-processor/ChibiOS//os/hal/ports/STM32/LLD/ext_lld.h"
 119              		.file 32 "../e-puck2_main-processor/ChibiOS//os/hal/include/gpt.h"
 120              		.file 33 "../e-puck2_main-processor/ChibiOS//os/hal/ports/STM32/LLD/TIMv1/gpt_lld.h"
 121              		.file 34 "../e-puck2_main-processor/ChibiOS//os/hal/ports/STM32/LLD/TIMv1/stm32_tim.h"
 122              		.file 35 "../e-puck2_main-processor/ChibiOS//os/hal/include/i2c.h"
 123              		.file 36 "../e-puck2_main-processor/ChibiOS//os/hal/ports/STM32/LLD/I2Cv1/i2c_lld.h"
 124              		.file 37 "../e-puck2_main-processor/ChibiOS//os/hal/include/i2s.h"
 125              		.file 38 "../e-puck2_main-processor/ChibiOS//os/hal/ports/STM32/LLD/SPIv1/i2s_lld.h"
 126              		.file 39 "../e-puck2_main-processor/ChibiOS//os/hal/include/pwm.h"
 127              		.file 40 "../e-puck2_main-processor/ChibiOS//os/hal/ports/STM32/LLD/TIMv1/pwm_lld.h"
 128              		.file 41 "../e-puck2_main-processor/ChibiOS//os/hal/include/serial.h"
 129              		.file 42 "../e-puck2_main-processor/ChibiOS//os/hal/ports/STM32/LLD/USARTv1/serial_lld.h"
 130              		.file 43 "../e-puck2_main-processor/ChibiOS//os/hal/include/sdc.h"
 131              		.file 44 "../e-puck2_main-processor/ChibiOS//os/hal/ports/STM32/LLD/sdc_lld.h"
 132              		.file 45 "../e-puck2_main-processor/ChibiOS//os/hal/include/spi.h"
 133              		.file 46 "../e-puck2_main-processor/ChibiOS//os/hal/ports/STM32/LLD/SPIv1/spi_lld.h"
 134              		.file 47 "../e-puck2_main-processor/ChibiOS//os/hal/include/usb.h"
 135              		.file 48 "../e-puck2_main-processor/ChibiOS//os/hal/ports/STM32/LLD/OTGv1/usb_lld.h"
 136              		.file 49 "../e-puck2_main-processor/ChibiOS//os/hal/ports/STM32/LLD/OTGv1/stm32_otg.h"