ARM GAS  /var/folders/d2/nstgp4h54kz7g1l847x_b8wc0000gn/T//ccDcdLGY.s 			page 1


   1              		.cpu cortex-m4
   2              		.eabi_attribute 27, 1
   3              		.eabi_attribute 28, 1
   4              		.eabi_attribute 20, 1
   5              		.eabi_attribute 21, 1
   6              		.eabi_attribute 23, 3
   7              		.eabi_attribute 24, 1
   8              		.eabi_attribute 25, 1
   9              		.eabi_attribute 26, 1
  10              		.eabi_attribute 30, 6
  11              		.eabi_attribute 34, 1
  12              		.eabi_attribute 18, 4
  13              		.file	"serial_lld.c"
  14              		.section	.text.port_lock,"ax",%progbits
  15              		.align	1
  16              		.syntax unified
  17              		.thumb
  18              		.thumb_func
  19              		.fpu fpv4-sp-d16
  20              		.type	port_lock, %function
  21              	port_lock:
  22              		@ args = 0, pretend = 0, frame = 8
  23              		@ frame_needed = 1, uses_anonymous_args = 0
  24              		@ link register save eliminated.
  25 0000 80B4     		push	{r7}
  26 0002 83B0     		sub	sp, sp, #12
  27 0004 00AF     		add	r7, sp, #0
  28 0006 2023     		movs	r3, #32
  29 0008 7B60     		str	r3, [r7, #4]
  30 000a 7B68     		ldr	r3, [r7, #4]
  31              		.syntax unified
  32              	@ 546 "../e-puck2_main-processor/ChibiOS//os/ext/CMSIS/include/core_cmFunc.h" 1
  33 000c 83F31188 		MSR basepri, r3
  34              	@ 0 "" 2
  35              		.thumb
  36              		.syntax unified
  37 0010 00BF     		nop
  38 0012 0C37     		adds	r7, r7, #12
  39 0014 BD46     		mov	sp, r7
  40              		@ sp needed
  41 0016 5DF8047B 		ldr	r7, [sp], #4
  42 001a 7047     		bx	lr
  43              		.size	port_lock, .-port_lock
  44              		.section	.text.port_unlock,"ax",%progbits
  45              		.align	1
  46              		.syntax unified
  47              		.thumb
  48              		.thumb_func
  49              		.fpu fpv4-sp-d16
  50              		.type	port_unlock, %function
  51              	port_unlock:
  52              		@ args = 0, pretend = 0, frame = 8
  53              		@ frame_needed = 1, uses_anonymous_args = 0
  54              		@ link register save eliminated.
  55 0000 80B4     		push	{r7}
  56 0002 83B0     		sub	sp, sp, #12
  57 0004 00AF     		add	r7, sp, #0
ARM GAS  /var/folders/d2/nstgp4h54kz7g1l847x_b8wc0000gn/T//ccDcdLGY.s 			page 2


  58 0006 0023     		movs	r3, #0
  59 0008 7B60     		str	r3, [r7, #4]
  60 000a 7B68     		ldr	r3, [r7, #4]
  61              		.syntax unified
  62              	@ 546 "../e-puck2_main-processor/ChibiOS//os/ext/CMSIS/include/core_cmFunc.h" 1
  63 000c 83F31188 		MSR basepri, r3
  64              	@ 0 "" 2
  65              		.thumb
  66              		.syntax unified
  67 0010 00BF     		nop
  68 0012 0C37     		adds	r7, r7, #12
  69 0014 BD46     		mov	sp, r7
  70              		@ sp needed
  71 0016 5DF8047B 		ldr	r7, [sp], #4
  72 001a 7047     		bx	lr
  73              		.size	port_unlock, .-port_unlock
  74              		.section	.text.port_lock_from_isr,"ax",%progbits
  75              		.align	1
  76              		.syntax unified
  77              		.thumb
  78              		.thumb_func
  79              		.fpu fpv4-sp-d16
  80              		.type	port_lock_from_isr, %function
  81              	port_lock_from_isr:
  82              		@ args = 0, pretend = 0, frame = 0
  83              		@ frame_needed = 1, uses_anonymous_args = 0
  84 0000 80B5     		push	{r7, lr}
  85 0002 00AF     		add	r7, sp, #0
  86 0004 FFF7FEFF 		bl	port_lock
  87 0008 00BF     		nop
  88 000a 80BD     		pop	{r7, pc}
  89              		.size	port_lock_from_isr, .-port_lock_from_isr
  90              		.section	.text.port_unlock_from_isr,"ax",%progbits
  91              		.align	1
  92              		.syntax unified
  93              		.thumb
  94              		.thumb_func
  95              		.fpu fpv4-sp-d16
  96              		.type	port_unlock_from_isr, %function
  97              	port_unlock_from_isr:
  98              		@ args = 0, pretend = 0, frame = 0
  99              		@ frame_needed = 1, uses_anonymous_args = 0
 100 0000 80B5     		push	{r7, lr}
 101 0002 00AF     		add	r7, sp, #0
 102 0004 FFF7FEFF 		bl	port_unlock
 103 0008 00BF     		nop
 104 000a 80BD     		pop	{r7, pc}
 105              		.size	port_unlock_from_isr, .-port_unlock_from_isr
 106              		.section	.text.chSysLockFromISR,"ax",%progbits
 107              		.align	1
 108              		.syntax unified
 109              		.thumb
 110              		.thumb_func
 111              		.fpu fpv4-sp-d16
 112              		.type	chSysLockFromISR, %function
 113              	chSysLockFromISR:
 114              		@ args = 0, pretend = 0, frame = 0
ARM GAS  /var/folders/d2/nstgp4h54kz7g1l847x_b8wc0000gn/T//ccDcdLGY.s 			page 3


 115              		@ frame_needed = 1, uses_anonymous_args = 0
 116 0000 80B5     		push	{r7, lr}
 117 0002 00AF     		add	r7, sp, #0
 118 0004 FFF7FEFF 		bl	port_lock_from_isr
 119 0008 FFF7FEFF 		bl	_stats_start_measure_crit_isr
 120 000c FFF7FEFF 		bl	_dbg_check_lock_from_isr
 121 0010 00BF     		nop
 122 0012 80BD     		pop	{r7, pc}
 123              		.size	chSysLockFromISR, .-chSysLockFromISR
 124              		.section	.text.chSysUnlockFromISR,"ax",%progbits
 125              		.align	1
 126              		.syntax unified
 127              		.thumb
 128              		.thumb_func
 129              		.fpu fpv4-sp-d16
 130              		.type	chSysUnlockFromISR, %function
 131              	chSysUnlockFromISR:
 132              		@ args = 0, pretend = 0, frame = 0
 133              		@ frame_needed = 1, uses_anonymous_args = 0
 134 0000 80B5     		push	{r7, lr}
 135 0002 00AF     		add	r7, sp, #0
 136 0004 FFF7FEFF 		bl	_dbg_check_unlock_from_isr
 137 0008 FFF7FEFF 		bl	_stats_stop_measure_crit_isr
 138 000c FFF7FEFF 		bl	port_unlock_from_isr
 139 0010 00BF     		nop
 140 0012 80BD     		pop	{r7, pc}
 141              		.size	chSysUnlockFromISR, .-chSysUnlockFromISR
 142              		.section	.text.chOQIsEmptyI,"ax",%progbits
 143              		.align	1
 144              		.syntax unified
 145              		.thumb
 146              		.thumb_func
 147              		.fpu fpv4-sp-d16
 148              		.type	chOQIsEmptyI, %function
 149              	chOQIsEmptyI:
 150              		@ args = 0, pretend = 0, frame = 8
 151              		@ frame_needed = 1, uses_anonymous_args = 0
 152 0000 80B5     		push	{r7, lr}
 153 0002 82B0     		sub	sp, sp, #8
 154 0004 00AF     		add	r7, sp, #0
 155 0006 7860     		str	r0, [r7, #4]
 156 0008 FFF7FEFF 		bl	chDbgCheckClassI
 157 000c 7B68     		ldr	r3, [r7, #4]
 158 000e 5A69     		ldr	r2, [r3, #20]
 159 0010 7B68     		ldr	r3, [r7, #4]
 160 0012 9B69     		ldr	r3, [r3, #24]
 161 0014 9A42     		cmp	r2, r3
 162 0016 05D1     		bne	.L8
 163 0018 7B68     		ldr	r3, [r7, #4]
 164 001a 9B68     		ldr	r3, [r3, #8]
 165 001c 002B     		cmp	r3, #0
 166 001e 01D0     		beq	.L8
 167 0020 0123     		movs	r3, #1
 168 0022 00E0     		b	.L9
 169              	.L8:
 170 0024 0023     		movs	r3, #0
 171              	.L9:
ARM GAS  /var/folders/d2/nstgp4h54kz7g1l847x_b8wc0000gn/T//ccDcdLGY.s 			page 4


 172 0026 03F00103 		and	r3, r3, #1
 173 002a DBB2     		uxtb	r3, r3
 174 002c 1846     		mov	r0, r3
 175 002e 0837     		adds	r7, r7, #8
 176 0030 BD46     		mov	sp, r7
 177              		@ sp needed
 178 0032 80BD     		pop	{r7, pc}
 179              		.size	chOQIsEmptyI, .-chOQIsEmptyI
 180              		.section	.text.osalSysLockFromISR,"ax",%progbits
 181              		.align	1
 182              		.syntax unified
 183              		.thumb
 184              		.thumb_func
 185              		.fpu fpv4-sp-d16
 186              		.type	osalSysLockFromISR, %function
 187              	osalSysLockFromISR:
 188              		@ args = 0, pretend = 0, frame = 0
 189              		@ frame_needed = 1, uses_anonymous_args = 0
 190 0000 80B5     		push	{r7, lr}
 191 0002 00AF     		add	r7, sp, #0
 192 0004 FFF7FEFF 		bl	chSysLockFromISR
 193 0008 00BF     		nop
 194 000a 80BD     		pop	{r7, pc}
 195              		.size	osalSysLockFromISR, .-osalSysLockFromISR
 196              		.section	.text.osalSysUnlockFromISR,"ax",%progbits
 197              		.align	1
 198              		.syntax unified
 199              		.thumb
 200              		.thumb_func
 201              		.fpu fpv4-sp-d16
 202              		.type	osalSysUnlockFromISR, %function
 203              	osalSysUnlockFromISR:
 204              		@ args = 0, pretend = 0, frame = 0
 205              		@ frame_needed = 1, uses_anonymous_args = 0
 206 0000 80B5     		push	{r7, lr}
 207 0002 00AF     		add	r7, sp, #0
 208 0004 FFF7FEFF 		bl	chSysUnlockFromISR
 209 0008 00BF     		nop
 210 000a 80BD     		pop	{r7, pc}
 211              		.size	osalSysUnlockFromISR, .-osalSysUnlockFromISR
 212              		.section	.text.osalEventBroadcastFlagsI,"ax",%progbits
 213              		.align	1
 214              		.syntax unified
 215              		.thumb
 216              		.thumb_func
 217              		.fpu fpv4-sp-d16
 218              		.type	osalEventBroadcastFlagsI, %function
 219              	osalEventBroadcastFlagsI:
 220              		@ args = 0, pretend = 0, frame = 8
 221              		@ frame_needed = 1, uses_anonymous_args = 0
 222 0000 80B5     		push	{r7, lr}
 223 0002 82B0     		sub	sp, sp, #8
 224 0004 00AF     		add	r7, sp, #0
 225 0006 7860     		str	r0, [r7, #4]
 226 0008 3960     		str	r1, [r7]
 227 000a 3968     		ldr	r1, [r7]
 228 000c 7868     		ldr	r0, [r7, #4]
ARM GAS  /var/folders/d2/nstgp4h54kz7g1l847x_b8wc0000gn/T//ccDcdLGY.s 			page 5


 229 000e FFF7FEFF 		bl	chEvtBroadcastFlagsI
 230 0012 00BF     		nop
 231 0014 0837     		adds	r7, r7, #8
 232 0016 BD46     		mov	sp, r7
 233              		@ sp needed
 234 0018 80BD     		pop	{r7, pc}
 235              		.size	osalEventBroadcastFlagsI, .-osalEventBroadcastFlagsI
 236              		.global	SD3
 237              		.section	.bss.SD3,"aw",%nobits
 238              		.align	2
 239              		.type	SD3, %object
 240              		.size	SD3, 344
 241              	SD3:
 242 0000 00000000 		.space	344
 242      00000000 
 242      00000000 
 242      00000000 
 242      00000000 
 243              		.section	.rodata.default_config,"a",%progbits
 244              		.align	2
 245              		.type	default_config, %object
 246              		.size	default_config, 12
 247              	default_config:
 248 0000 00C20100 		.word	115200
 249 0004 0000     		.short	0
 250 0006 0040     		.short	16384
 251 0008 0000     		.short	0
 252 000a 0000     		.space	2
 253              		.section	.text.usart_init,"ax",%progbits
 254              		.align	1
 255              		.syntax unified
 256              		.thumb
 257              		.thumb_func
 258              		.fpu fpv4-sp-d16
 259              		.type	usart_init, %function
 260              	usart_init:
 261              		@ args = 0, pretend = 0, frame = 16
 262              		@ frame_needed = 1, uses_anonymous_args = 0
 263              		@ link register save eliminated.
 264 0000 80B4     		push	{r7}
 265 0002 85B0     		sub	sp, sp, #20
 266 0004 00AF     		add	r7, sp, #0
 267 0006 7860     		str	r0, [r7, #4]
 268 0008 3960     		str	r1, [r7]
 269 000a 7B68     		ldr	r3, [r7, #4]
 270 000c D3F85431 		ldr	r3, [r3, #340]
 271 0010 FB60     		str	r3, [r7, #12]
 272 0012 7B68     		ldr	r3, [r7, #4]
 273 0014 D3F85431 		ldr	r3, [r3, #340]
 274 0018 1F4A     		ldr	r2, .L18
 275 001a 9342     		cmp	r3, r2
 276 001c 05D0     		beq	.L15
 277 001e 7B68     		ldr	r3, [r7, #4]
 278 0020 D3F85431 		ldr	r3, [r3, #340]
 279 0024 1D4A     		ldr	r2, .L18+4
 280 0026 9342     		cmp	r3, r2
 281 0028 07D1     		bne	.L16
ARM GAS  /var/folders/d2/nstgp4h54kz7g1l847x_b8wc0000gn/T//ccDcdLGY.s 			page 6


 282              	.L15:
 283 002a 3B68     		ldr	r3, [r7]
 284 002c 1B68     		ldr	r3, [r3]
 285 002e 1C4A     		ldr	r2, .L18+8
 286 0030 B2FBF3F2 		udiv	r2, r2, r3
 287 0034 FB68     		ldr	r3, [r7, #12]
 288 0036 9A60     		str	r2, [r3, #8]
 289 0038 06E0     		b	.L17
 290              	.L16:
 291 003a 3B68     		ldr	r3, [r7]
 292 003c 1B68     		ldr	r3, [r3]
 293 003e 194A     		ldr	r2, .L18+12
 294 0040 B2FBF3F2 		udiv	r2, r2, r3
 295 0044 FB68     		ldr	r3, [r7, #12]
 296 0046 9A60     		str	r2, [r3, #8]
 297              	.L17:
 298 0048 3B68     		ldr	r3, [r7]
 299 004a DB88     		ldrh	r3, [r3, #6]
 300 004c 43F04003 		orr	r3, r3, #64
 301 0050 9BB2     		uxth	r3, r3
 302 0052 1A46     		mov	r2, r3
 303 0054 FB68     		ldr	r3, [r7, #12]
 304 0056 1A61     		str	r2, [r3, #16]
 305 0058 3B68     		ldr	r3, [r7]
 306 005a 1B89     		ldrh	r3, [r3, #8]
 307 005c 43F00103 		orr	r3, r3, #1
 308 0060 9BB2     		uxth	r3, r3
 309 0062 1A46     		mov	r2, r3
 310 0064 FB68     		ldr	r3, [r7, #12]
 311 0066 5A61     		str	r2, [r3, #20]
 312 0068 3B68     		ldr	r3, [r7]
 313 006a 9B88     		ldrh	r3, [r3, #4]
 314 006c 43F40453 		orr	r3, r3, #8448
 315 0070 43F02C03 		orr	r3, r3, #44
 316 0074 9BB2     		uxth	r3, r3
 317 0076 1A46     		mov	r2, r3
 318 0078 FB68     		ldr	r3, [r7, #12]
 319 007a DA60     		str	r2, [r3, #12]
 320 007c FB68     		ldr	r3, [r7, #12]
 321 007e 0022     		movs	r2, #0
 322 0080 1A60     		str	r2, [r3]
 323 0082 FB68     		ldr	r3, [r7, #12]
 324 0084 1B68     		ldr	r3, [r3]
 325 0086 FB68     		ldr	r3, [r7, #12]
 326 0088 5B68     		ldr	r3, [r3, #4]
 327 008a 00BF     		nop
 328 008c 1437     		adds	r7, r7, #20
 329 008e BD46     		mov	sp, r7
 330              		@ sp needed
 331 0090 5DF8047B 		ldr	r7, [sp], #4
 332 0094 7047     		bx	lr
 333              	.L19:
 334 0096 00BF     		.align	2
 335              	.L18:
 336 0098 00100140 		.word	1073811456
 337 009c 00140140 		.word	1073812480
 338 00a0 00BD0105 		.word	84000000
ARM GAS  /var/folders/d2/nstgp4h54kz7g1l847x_b8wc0000gn/T//ccDcdLGY.s 			page 7


 339 00a4 80DE8002 		.word	42000000
 340              		.size	usart_init, .-usart_init
 341              		.section	.text.usart_deinit,"ax",%progbits
 342              		.align	1
 343              		.syntax unified
 344              		.thumb
 345              		.thumb_func
 346              		.fpu fpv4-sp-d16
 347              		.type	usart_deinit, %function
 348              	usart_deinit:
 349              		@ args = 0, pretend = 0, frame = 8
 350              		@ frame_needed = 1, uses_anonymous_args = 0
 351              		@ link register save eliminated.
 352 0000 80B4     		push	{r7}
 353 0002 83B0     		sub	sp, sp, #12
 354 0004 00AF     		add	r7, sp, #0
 355 0006 7860     		str	r0, [r7, #4]
 356 0008 7B68     		ldr	r3, [r7, #4]
 357 000a 0022     		movs	r2, #0
 358 000c DA60     		str	r2, [r3, #12]
 359 000e 7B68     		ldr	r3, [r7, #4]
 360 0010 0022     		movs	r2, #0
 361 0012 1A61     		str	r2, [r3, #16]
 362 0014 7B68     		ldr	r3, [r7, #4]
 363 0016 0022     		movs	r2, #0
 364 0018 5A61     		str	r2, [r3, #20]
 365 001a 00BF     		nop
 366 001c 0C37     		adds	r7, r7, #12
 367 001e BD46     		mov	sp, r7
 368              		@ sp needed
 369 0020 5DF8047B 		ldr	r7, [sp], #4
 370 0024 7047     		bx	lr
 371              		.size	usart_deinit, .-usart_deinit
 372              		.section	.text.set_error,"ax",%progbits
 373              		.align	1
 374              		.syntax unified
 375              		.thumb
 376              		.thumb_func
 377              		.fpu fpv4-sp-d16
 378              		.type	set_error, %function
 379              	set_error:
 380              		@ args = 0, pretend = 0, frame = 16
 381              		@ frame_needed = 1, uses_anonymous_args = 0
 382 0000 80B5     		push	{r7, lr}
 383 0002 84B0     		sub	sp, sp, #16
 384 0004 00AF     		add	r7, sp, #0
 385 0006 7860     		str	r0, [r7, #4]
 386 0008 0B46     		mov	r3, r1
 387 000a 7B80     		strh	r3, [r7, #2]	@ movhi
 388 000c 0023     		movs	r3, #0
 389 000e FB60     		str	r3, [r7, #12]
 390 0010 7B88     		ldrh	r3, [r7, #2]
 391 0012 03F00803 		and	r3, r3, #8
 392 0016 002B     		cmp	r3, #0
 393 0018 03D0     		beq	.L22
 394 001a FB68     		ldr	r3, [r7, #12]
 395 001c 43F08003 		orr	r3, r3, #128
ARM GAS  /var/folders/d2/nstgp4h54kz7g1l847x_b8wc0000gn/T//ccDcdLGY.s 			page 8


 396 0020 FB60     		str	r3, [r7, #12]
 397              	.L22:
 398 0022 7B88     		ldrh	r3, [r7, #2]
 399 0024 03F00103 		and	r3, r3, #1
 400 0028 002B     		cmp	r3, #0
 401 002a 03D0     		beq	.L23
 402 002c FB68     		ldr	r3, [r7, #12]
 403 002e 43F02003 		orr	r3, r3, #32
 404 0032 FB60     		str	r3, [r7, #12]
 405              	.L23:
 406 0034 7B88     		ldrh	r3, [r7, #2]
 407 0036 03F00203 		and	r3, r3, #2
 408 003a 002B     		cmp	r3, #0
 409 003c 03D0     		beq	.L24
 410 003e FB68     		ldr	r3, [r7, #12]
 411 0040 43F04003 		orr	r3, r3, #64
 412 0044 FB60     		str	r3, [r7, #12]
 413              	.L24:
 414 0046 7B88     		ldrh	r3, [r7, #2]
 415 0048 03F00403 		and	r3, r3, #4
 416 004c 002B     		cmp	r3, #0
 417 004e 03D0     		beq	.L25
 418 0050 FB68     		ldr	r3, [r7, #12]
 419 0052 43F48073 		orr	r3, r3, #256
 420 0056 FB60     		str	r3, [r7, #12]
 421              	.L25:
 422 0058 7B68     		ldr	r3, [r7, #4]
 423 005a 0433     		adds	r3, r3, #4
 424 005c F968     		ldr	r1, [r7, #12]
 425 005e 1846     		mov	r0, r3
 426 0060 FFF7FEFF 		bl	osalEventBroadcastFlagsI
 427 0064 00BF     		nop
 428 0066 1037     		adds	r7, r7, #16
 429 0068 BD46     		mov	sp, r7
 430              		@ sp needed
 431 006a 80BD     		pop	{r7, pc}
 432              		.size	set_error, .-set_error
 433              		.section	.text.serve_interrupt,"ax",%progbits
 434              		.align	1
 435              		.syntax unified
 436              		.thumb
 437              		.thumb_func
 438              		.fpu fpv4-sp-d16
 439              		.type	serve_interrupt, %function
 440              	serve_interrupt:
 441              		@ args = 0, pretend = 0, frame = 32
 442              		@ frame_needed = 1, uses_anonymous_args = 0
 443 0000 80B5     		push	{r7, lr}
 444 0002 88B0     		sub	sp, sp, #32
 445 0004 00AF     		add	r7, sp, #0
 446 0006 7860     		str	r0, [r7, #4]
 447 0008 7B68     		ldr	r3, [r7, #4]
 448 000a D3F85431 		ldr	r3, [r3, #340]
 449 000e BB61     		str	r3, [r7, #24]
 450 0010 BB69     		ldr	r3, [r7, #24]
 451 0012 DB68     		ldr	r3, [r3, #12]
 452 0014 FB82     		strh	r3, [r7, #22]	@ movhi
ARM GAS  /var/folders/d2/nstgp4h54kz7g1l847x_b8wc0000gn/T//ccDcdLGY.s 			page 9


 453 0016 BB69     		ldr	r3, [r7, #24]
 454 0018 1B68     		ldr	r3, [r3]
 455 001a FB83     		strh	r3, [r7, #30]	@ movhi
 456 001c FB8B     		ldrh	r3, [r7, #30]
 457 001e 03F48073 		and	r3, r3, #256
 458 0022 002B     		cmp	r3, #0
 459 0024 0ED0     		beq	.L27
 460 0026 FFF7FEFF 		bl	osalSysLockFromISR
 461 002a 7B68     		ldr	r3, [r7, #4]
 462 002c 0433     		adds	r3, r3, #4
 463 002e 4FF40071 		mov	r1, #512
 464 0032 1846     		mov	r0, r3
 465 0034 FFF7FEFF 		bl	osalEventBroadcastFlagsI
 466 0038 BB69     		ldr	r3, [r7, #24]
 467 003a 6FF48072 		mvn	r2, #256
 468 003e 1A60     		str	r2, [r3]
 469 0040 FFF7FEFF 		bl	osalSysUnlockFromISR
 470              	.L27:
 471 0044 FFF7FEFF 		bl	osalSysLockFromISR
 472 0048 19E0     		b	.L28
 473              	.L31:
 474 004a FB8B     		ldrh	r3, [r7, #30]
 475 004c 03F00F03 		and	r3, r3, #15
 476 0050 002B     		cmp	r3, #0
 477 0052 04D0     		beq	.L29
 478 0054 FB8B     		ldrh	r3, [r7, #30]
 479 0056 1946     		mov	r1, r3
 480 0058 7868     		ldr	r0, [r7, #4]
 481 005a FFF7FEFF 		bl	set_error
 482              	.L29:
 483 005e BB69     		ldr	r3, [r7, #24]
 484 0060 5B68     		ldr	r3, [r3, #4]
 485 0062 FB73     		strb	r3, [r7, #15]
 486 0064 FB8B     		ldrh	r3, [r7, #30]
 487 0066 03F02003 		and	r3, r3, #32
 488 006a 002B     		cmp	r3, #0
 489 006c 04D0     		beq	.L30
 490 006e FB7B     		ldrb	r3, [r7, #15]	@ zero_extendqisi2
 491 0070 1946     		mov	r1, r3
 492 0072 7868     		ldr	r0, [r7, #4]
 493 0074 FFF7FEFF 		bl	sdIncomingDataI
 494              	.L30:
 495 0078 BB69     		ldr	r3, [r7, #24]
 496 007a 1B68     		ldr	r3, [r3]
 497 007c FB83     		strh	r3, [r7, #30]	@ movhi
 498              	.L28:
 499 007e FB8B     		ldrh	r3, [r7, #30]
 500 0080 03F02F03 		and	r3, r3, #47
 501 0084 002B     		cmp	r3, #0
 502 0086 E0D1     		bne	.L31
 503 0088 FFF7FEFF 		bl	osalSysUnlockFromISR
 504 008c FB8A     		ldrh	r3, [r7, #22]
 505 008e 03F08003 		and	r3, r3, #128
 506 0092 002B     		cmp	r3, #0
 507 0094 22D0     		beq	.L32
 508 0096 FB8B     		ldrh	r3, [r7, #30]
 509 0098 03F08003 		and	r3, r3, #128
ARM GAS  /var/folders/d2/nstgp4h54kz7g1l847x_b8wc0000gn/T//ccDcdLGY.s 			page 10


 510 009c 002B     		cmp	r3, #0
 511 009e 1DD0     		beq	.L32
 512 00a0 FFF7FEFF 		bl	osalSysLockFromISR
 513 00a4 7B68     		ldr	r3, [r7, #4]
 514 00a6 3033     		adds	r3, r3, #48
 515 00a8 1846     		mov	r0, r3
 516 00aa FFF7FEFF 		bl	chOQGetI
 517 00ae 3861     		str	r0, [r7, #16]
 518 00b0 3B69     		ldr	r3, [r7, #16]
 519 00b2 002B     		cmp	r3, #0
 520 00b4 0DDA     		bge	.L33
 521 00b6 7B68     		ldr	r3, [r7, #4]
 522 00b8 0433     		adds	r3, r3, #4
 523 00ba 0821     		movs	r1, #8
 524 00bc 1846     		mov	r0, r3
 525 00be FFF7FEFF 		bl	osalEventBroadcastFlagsI
 526 00c2 FB8A     		ldrh	r3, [r7, #22]
 527 00c4 23F0C003 		bic	r3, r3, #192
 528 00c8 43F04002 		orr	r2, r3, #64
 529 00cc BB69     		ldr	r3, [r7, #24]
 530 00ce DA60     		str	r2, [r3, #12]
 531 00d0 02E0     		b	.L34
 532              	.L33:
 533 00d2 3A69     		ldr	r2, [r7, #16]
 534 00d4 BB69     		ldr	r3, [r7, #24]
 535 00d6 5A60     		str	r2, [r3, #4]
 536              	.L34:
 537 00d8 FFF7FEFF 		bl	osalSysUnlockFromISR
 538              	.L32:
 539 00dc FB8B     		ldrh	r3, [r7, #30]
 540 00de 03F04003 		and	r3, r3, #64
 541 00e2 002B     		cmp	r3, #0
 542 00e4 1AD0     		beq	.L37
 543 00e6 FFF7FEFF 		bl	osalSysLockFromISR
 544 00ea 7B68     		ldr	r3, [r7, #4]
 545 00ec 3033     		adds	r3, r3, #48
 546 00ee 1846     		mov	r0, r3
 547 00f0 FFF7FEFF 		bl	chOQIsEmptyI
 548 00f4 0346     		mov	r3, r0
 549 00f6 002B     		cmp	r3, #0
 550 00f8 05D0     		beq	.L36
 551 00fa 7B68     		ldr	r3, [r7, #4]
 552 00fc 0433     		adds	r3, r3, #4
 553 00fe 1021     		movs	r1, #16
 554 0100 1846     		mov	r0, r3
 555 0102 FFF7FEFF 		bl	osalEventBroadcastFlagsI
 556              	.L36:
 557 0106 FB8A     		ldrh	r3, [r7, #22]
 558 0108 23F04002 		bic	r2, r3, #64
 559 010c BB69     		ldr	r3, [r7, #24]
 560 010e DA60     		str	r2, [r3, #12]
 561 0110 BB69     		ldr	r3, [r7, #24]
 562 0112 6FF04002 		mvn	r2, #64
 563 0116 1A60     		str	r2, [r3]
 564 0118 FFF7FEFF 		bl	osalSysUnlockFromISR
 565              	.L37:
 566 011c 00BF     		nop
ARM GAS  /var/folders/d2/nstgp4h54kz7g1l847x_b8wc0000gn/T//ccDcdLGY.s 			page 11


 567 011e 2037     		adds	r7, r7, #32
 568 0120 BD46     		mov	sp, r7
 569              		@ sp needed
 570 0122 80BD     		pop	{r7, pc}
 571              		.size	serve_interrupt, .-serve_interrupt
 572              		.section	.text.notify3,"ax",%progbits
 573              		.align	1
 574              		.syntax unified
 575              		.thumb
 576              		.thumb_func
 577              		.fpu fpv4-sp-d16
 578              		.type	notify3, %function
 579              	notify3:
 580              		@ args = 0, pretend = 0, frame = 8
 581              		@ frame_needed = 1, uses_anonymous_args = 0
 582              		@ link register save eliminated.
 583 0000 80B4     		push	{r7}
 584 0002 83B0     		sub	sp, sp, #12
 585 0004 00AF     		add	r7, sp, #0
 586 0006 7860     		str	r0, [r7, #4]
 587 0008 054B     		ldr	r3, .L39
 588 000a DB68     		ldr	r3, [r3, #12]
 589 000c 044A     		ldr	r2, .L39
 590 000e 43F08003 		orr	r3, r3, #128
 591 0012 D360     		str	r3, [r2, #12]
 592 0014 00BF     		nop
 593 0016 0C37     		adds	r7, r7, #12
 594 0018 BD46     		mov	sp, r7
 595              		@ sp needed
 596 001a 5DF8047B 		ldr	r7, [sp], #4
 597 001e 7047     		bx	lr
 598              	.L40:
 599              		.align	2
 600              	.L39:
 601 0020 00480040 		.word	1073760256
 602              		.size	notify3, .-notify3
 603              		.section	.text.VectorDC,"ax",%progbits
 604              		.align	1
 605              		.global	VectorDC
 606              		.syntax unified
 607              		.thumb
 608              		.thumb_func
 609              		.fpu fpv4-sp-d16
 610              		.type	VectorDC, %function
 611              	VectorDC:
 612              		@ args = 0, pretend = 0, frame = 0
 613              		@ frame_needed = 1, uses_anonymous_args = 0
 614 0000 80B5     		push	{r7, lr}
 615 0002 00AF     		add	r7, sp, #0
 616 0004 FFF7FEFF 		bl	_stats_increase_irq
 617 0008 FFF7FEFF 		bl	_dbg_check_enter_isr
 618 000c 0448     		ldr	r0, .L42
 619 000e FFF7FEFF 		bl	serve_interrupt
 620 0012 FFF7FEFF 		bl	_dbg_check_leave_isr
 621 0016 FFF7FEFF 		bl	_port_irq_epilogue
 622 001a 00BF     		nop
 623 001c 80BD     		pop	{r7, pc}
ARM GAS  /var/folders/d2/nstgp4h54kz7g1l847x_b8wc0000gn/T//ccDcdLGY.s 			page 12


 624              	.L43:
 625 001e 00BF     		.align	2
 626              	.L42:
 627 0020 00000000 		.word	SD3
 628              		.size	VectorDC, .-VectorDC
 629              		.section	.text.sd_lld_init,"ax",%progbits
 630              		.align	1
 631              		.global	sd_lld_init
 632              		.syntax unified
 633              		.thumb
 634              		.thumb_func
 635              		.fpu fpv4-sp-d16
 636              		.type	sd_lld_init, %function
 637              	sd_lld_init:
 638              		@ args = 0, pretend = 0, frame = 0
 639              		@ frame_needed = 1, uses_anonymous_args = 0
 640 0000 80B5     		push	{r7, lr}
 641 0002 00AF     		add	r7, sp, #0
 642 0004 054A     		ldr	r2, .L45
 643 0006 0021     		movs	r1, #0
 644 0008 0548     		ldr	r0, .L45+4
 645 000a FFF7FEFF 		bl	sdObjectInit
 646 000e 044B     		ldr	r3, .L45+4
 647 0010 044A     		ldr	r2, .L45+8
 648 0012 C3F85421 		str	r2, [r3, #340]
 649 0016 00BF     		nop
 650 0018 80BD     		pop	{r7, pc}
 651              	.L46:
 652 001a 00BF     		.align	2
 653              	.L45:
 654 001c 00000000 		.word	notify3
 655 0020 00000000 		.word	SD3
 656 0024 00480040 		.word	1073760256
 657              		.size	sd_lld_init, .-sd_lld_init
 658              		.section	.text.sd_lld_start,"ax",%progbits
 659              		.align	1
 660              		.global	sd_lld_start
 661              		.syntax unified
 662              		.thumb
 663              		.thumb_func
 664              		.fpu fpv4-sp-d16
 665              		.type	sd_lld_start, %function
 666              	sd_lld_start:
 667              		@ args = 0, pretend = 0, frame = 8
 668              		@ frame_needed = 1, uses_anonymous_args = 0
 669 0000 80B5     		push	{r7, lr}
 670 0002 82B0     		sub	sp, sp, #8
 671 0004 00AF     		add	r7, sp, #0
 672 0006 7860     		str	r0, [r7, #4]
 673 0008 3960     		str	r1, [r7]
 674 000a 3B68     		ldr	r3, [r7]
 675 000c 002B     		cmp	r3, #0
 676 000e 01D1     		bne	.L48
 677 0010 0D4B     		ldr	r3, .L50
 678 0012 3B60     		str	r3, [r7]
 679              	.L48:
 680 0014 7B68     		ldr	r3, [r7, #4]
ARM GAS  /var/folders/d2/nstgp4h54kz7g1l847x_b8wc0000gn/T//ccDcdLGY.s 			page 13


 681 0016 1B7A     		ldrb	r3, [r3, #8]	@ zero_extendqisi2
 682 0018 012B     		cmp	r3, #1
 683 001a 0DD1     		bne	.L49
 684 001c 7B68     		ldr	r3, [r7, #4]
 685 001e 0B4A     		ldr	r2, .L50+4
 686 0020 9342     		cmp	r3, r2
 687 0022 09D1     		bne	.L49
 688 0024 0A4B     		ldr	r3, .L50+8
 689 0026 1B6C     		ldr	r3, [r3, #64]
 690 0028 094A     		ldr	r2, .L50+8
 691 002a 43F48023 		orr	r3, r3, #262144
 692 002e 1364     		str	r3, [r2, #64]
 693 0030 0C21     		movs	r1, #12
 694 0032 2720     		movs	r0, #39
 695 0034 FFF7FEFF 		bl	nvicEnableVector
 696              	.L49:
 697 0038 3968     		ldr	r1, [r7]
 698 003a 7868     		ldr	r0, [r7, #4]
 699 003c FFF7FEFF 		bl	usart_init
 700 0040 00BF     		nop
 701 0042 0837     		adds	r7, r7, #8
 702 0044 BD46     		mov	sp, r7
 703              		@ sp needed
 704 0046 80BD     		pop	{r7, pc}
 705              	.L51:
 706              		.align	2
 707              	.L50:
 708 0048 00000000 		.word	default_config
 709 004c 00000000 		.word	SD3
 710 0050 00380240 		.word	1073887232
 711              		.size	sd_lld_start, .-sd_lld_start
 712              		.section	.text.sd_lld_stop,"ax",%progbits
 713              		.align	1
 714              		.global	sd_lld_stop
 715              		.syntax unified
 716              		.thumb
 717              		.thumb_func
 718              		.fpu fpv4-sp-d16
 719              		.type	sd_lld_stop, %function
 720              	sd_lld_stop:
 721              		@ args = 0, pretend = 0, frame = 8
 722              		@ frame_needed = 1, uses_anonymous_args = 0
 723 0000 80B5     		push	{r7, lr}
 724 0002 82B0     		sub	sp, sp, #8
 725 0004 00AF     		add	r7, sp, #0
 726 0006 7860     		str	r0, [r7, #4]
 727 0008 7B68     		ldr	r3, [r7, #4]
 728 000a 1B7A     		ldrb	r3, [r3, #8]	@ zero_extendqisi2
 729 000c 022B     		cmp	r3, #2
 730 000e 13D1     		bne	.L52
 731 0010 7B68     		ldr	r3, [r7, #4]
 732 0012 D3F85431 		ldr	r3, [r3, #340]
 733 0016 1846     		mov	r0, r3
 734 0018 FFF7FEFF 		bl	usart_deinit
 735 001c 7B68     		ldr	r3, [r7, #4]
 736 001e 084A     		ldr	r2, .L54
 737 0020 9342     		cmp	r3, r2
ARM GAS  /var/folders/d2/nstgp4h54kz7g1l847x_b8wc0000gn/T//ccDcdLGY.s 			page 14


 738 0022 09D1     		bne	.L52
 739 0024 074B     		ldr	r3, .L54+4
 740 0026 1B6C     		ldr	r3, [r3, #64]
 741 0028 064A     		ldr	r2, .L54+4
 742 002a 23F48023 		bic	r3, r3, #262144
 743 002e 1364     		str	r3, [r2, #64]
 744 0030 2720     		movs	r0, #39
 745 0032 FFF7FEFF 		bl	nvicDisableVector
 746 0036 00BF     		nop
 747              	.L52:
 748 0038 0837     		adds	r7, r7, #8
 749 003a BD46     		mov	sp, r7
 750              		@ sp needed
 751 003c 80BD     		pop	{r7, pc}
 752              	.L55:
 753 003e 00BF     		.align	2
 754              	.L54:
 755 0040 00000000 		.word	SD3
 756 0044 00380240 		.word	1073887232
 757              		.size	sd_lld_stop, .-sd_lld_stop
 758              		.ident	"GCC: (GNU Tools for Arm Embedded Processors 7-2017-q4-major) 7.2.1 20170904 (release) [ARM
ARM GAS  /var/folders/d2/nstgp4h54kz7g1l847x_b8wc0000gn/T//ccDcdLGY.s 			page 15

