ARM GAS  /var/folders/d2/nstgp4h54kz7g1l847x_b8wc0000gn/T//ccJo2A5k.s 			page 1


   1              		.cpu cortex-m4
   2              		.eabi_attribute 27, 1
   3              		.eabi_attribute 28, 1
   4              		.eabi_attribute 20, 1
   5              		.eabi_attribute 21, 1
   6              		.eabi_attribute 23, 3
   7              		.eabi_attribute 24, 1
   8              		.eabi_attribute 25, 1
   9              		.eabi_attribute 26, 1
  10              		.eabi_attribute 30, 2
  11              		.eabi_attribute 34, 1
  12              		.eabi_attribute 18, 4
  13              		.file	"serial_datagram.c"
  14              		.text
  15              	.Ltext0:
  16              		.cfi_sections	.debug_frame
  17              		.section	.text.serial_datagram_send_chunk,"ax",%progbits
  18              		.align	1
  19              		.p2align 4,,15
  20              		.global	serial_datagram_send_chunk
  21              		.syntax unified
  22              		.thumb
  23              		.thumb_func
  24              		.fpu fpv4-sp-d16
  25              		.type	serial_datagram_send_chunk, %function
  26              	serial_datagram_send_chunk:
  27              	.LFB1:
  28              		.file 1 "../e-puck2_main-processor/src/serial-datagram/serial_datagram.c"
  29              		.loc 1 22 0
  30              		.cfi_startproc
  31              		@ args = 4, pretend = 0, frame = 8
  32              		@ frame_needed = 0, uses_anonymous_args = 0
  33              	.LVL0:
  34 0000 2DE9F04F 		push	{r4, r5, r6, r7, r8, r9, r10, fp, lr}
  35              		.cfi_def_cfa_offset 36
  36              		.cfi_offset 4, -36
  37              		.cfi_offset 5, -32
  38              		.cfi_offset 6, -28
  39              		.cfi_offset 7, -24
  40              		.cfi_offset 8, -20
  41              		.cfi_offset 9, -16
  42              		.cfi_offset 10, -12
  43              		.cfi_offset 11, -8
  44              		.cfi_offset 14, -4
  45 0004 264C     		ldr	r4, .L14
  46 0006 83B0     		sub	sp, sp, #12
  47              		.cfi_def_cfa_offset 48
  48              		.loc 1 22 0
  49 0008 2468     		ldr	r4, [r4]
  50 000a 0C9E     		ldr	r6, [sp, #48]
  51 000c 0194     		str	r4, [sp, #4]
  52 000e 0746     		mov	r7, r0
  53              	.LVL1:
  54 0010 9346     		mov	fp, r2
  55 0012 1D46     		mov	r5, r3
  56              		.loc 1 26 0
  57 0014 8846     		mov	r8, r1
ARM GAS  /var/folders/d2/nstgp4h54kz7g1l847x_b8wc0000gn/T//ccJo2A5k.s 			page 2


  58 0016 0029     		cmp	r1, #0
  59 0018 3CD0     		beq	.L7
  60              		.loc 1 25 0
  61 001a 0020     		movs	r0, #0
  62              	.LVL2:
  63              		.loc 1 29 0
  64 001c DFF88890 		ldr	r9, .L14+8
  65              		.loc 1 25 0
  66 0020 0246     		mov	r2, r0
  67              	.LVL3:
  68              		.loc 1 26 0
  69 0022 BA46     		mov	r10, r7
  70 0024 0BE0     		b	.L5
  71              	.LVL4:
  72              	.L12:
  73              		.loc 1 28 0
  74 0026 821A     		subs	r2, r0, r2
  75              	.LVL5:
  76 0028 3046     		mov	r0, r6
  77 002a A847     		blx	r5
  78              	.LVL6:
  79              		.loc 1 29 0
  80 002c 0222     		movs	r2, #2
  81 002e 4946     		mov	r1, r9
  82 0030 3046     		mov	r0, r6
  83 0032 A847     		blx	r5
  84              	.LVL7:
  85 0034 5146     		mov	r1, r10
  86 0036 2246     		mov	r2, r4
  87              	.L4:
  88              	.LVL8:
  89              		.loc 1 26 0
  90 0038 4445     		cmp	r4, r8
  91 003a 2046     		mov	r0, r4
  92 003c 16D0     		beq	.L11
  93              	.LVL9:
  94              	.L5:
  95              		.loc 1 27 0
  96 003e 1AF8013B 		ldrb	r3, [r10], #1	@ zero_extendqisi2
  97 0042 C02B     		cmp	r3, #192
  98 0044 07EB0201 		add	r1, r7, r2
  99 0048 00F10104 		add	r4, r0, #1
 100 004c EBD0     		beq	.L12
 101              		.loc 1 31 0
 102 004e DB2B     		cmp	r3, #219
 103 0050 F2D1     		bne	.L4
 104              		.loc 1 32 0
 105 0052 821A     		subs	r2, r0, r2
 106              	.LVL10:
 107 0054 3046     		mov	r0, r6
 108 0056 A847     		blx	r5
 109              	.LVL11:
 110              		.loc 1 33 0
 111 0058 0222     		movs	r2, #2
 112 005a 1249     		ldr	r1, .L14+4
 113 005c 3046     		mov	r0, r6
 114 005e A847     		blx	r5
ARM GAS  /var/folders/d2/nstgp4h54kz7g1l847x_b8wc0000gn/T//ccJo2A5k.s 			page 3


 115              	.LVL12:
 116              		.loc 1 26 0
 117 0060 4445     		cmp	r4, r8
 118 0062 07EB0401 		add	r1, r7, r4
 119              		.loc 1 33 0
 120 0066 2246     		mov	r2, r4
 121              	.LVL13:
 122 0068 2046     		mov	r0, r4
 123              		.loc 1 26 0
 124 006a E8D1     		bne	.L5
 125              	.LVL14:
 126              	.L11:
 127 006c A8EB0202 		sub	r2, r8, r2
 128              	.LVL15:
 129              	.L2:
 130              		.loc 1 38 0
 131 0070 3046     		mov	r0, r6
 132 0072 A847     		blx	r5
 133              	.LVL16:
 134              		.loc 1 41 0
 135 0074 4246     		mov	r2, r8
 136 0076 3946     		mov	r1, r7
 137 0078 DBF80000 		ldr	r0, [fp]
 138 007c FFF7FEFF 		bl	crc32
 139              	.LVL17:
 140              		.loc 1 42 0
 141 0080 074B     		ldr	r3, .L14
 142              		.loc 1 41 0
 143 0082 CBF80000 		str	r0, [fp]
 144              		.loc 1 42 0
 145 0086 019A     		ldr	r2, [sp, #4]
 146 0088 1B68     		ldr	r3, [r3]
 147 008a 9A42     		cmp	r2, r3
 148 008c 05D1     		bne	.L13
 149 008e 03B0     		add	sp, sp, #12
 150              		.cfi_remember_state
 151              		.cfi_def_cfa_offset 36
 152              		@ sp needed
 153 0090 BDE8F08F 		pop	{r4, r5, r6, r7, r8, r9, r10, fp, pc}
 154              	.LVL18:
 155              	.L7:
 156              		.cfi_restore_state
 157              		.loc 1 26 0
 158 0094 0A46     		mov	r2, r1
 159              	.LVL19:
 160 0096 0146     		mov	r1, r0
 161              	.LVL20:
 162 0098 EAE7     		b	.L2
 163              	.LVL21:
 164              	.L13:
 165              		.loc 1 42 0
 166 009a FFF7FEFF 		bl	__stack_chk_fail
 167              	.LVL22:
 168              	.L15:
 169 009e 00BF     		.align	2
 170              	.L14:
 171 00a0 00000000 		.word	__stack_chk_guard
ARM GAS  /var/folders/d2/nstgp4h54kz7g1l847x_b8wc0000gn/T//ccJo2A5k.s 			page 4


 172 00a4 00000000 		.word	.LANCHOR1
 173 00a8 00000000 		.word	.LANCHOR0
 174              		.cfi_endproc
 175              	.LFE1:
 176              		.size	serial_datagram_send_chunk, .-serial_datagram_send_chunk
 177              		.section	.text.serial_datagram_send_end,"ax",%progbits
 178              		.align	1
 179              		.p2align 4,,15
 180              		.global	serial_datagram_send_end
 181              		.syntax unified
 182              		.thumb
 183              		.thumb_func
 184              		.fpu fpv4-sp-d16
 185              		.type	serial_datagram_send_end, %function
 186              	serial_datagram_send_end:
 187              	.LFB2:
 188              		.loc 1 46 0
 189              		.cfi_startproc
 190              		@ args = 0, pretend = 0, frame = 16
 191              		@ frame_needed = 0, uses_anonymous_args = 0
 192              	.LVL23:
 193 0000 2DE9F043 		push	{r4, r5, r6, r7, r8, r9, lr}
 194              		.cfi_def_cfa_offset 28
 195              		.cfi_offset 4, -28
 196              		.cfi_offset 5, -24
 197              		.cfi_offset 6, -20
 198              		.cfi_offset 7, -16
 199              		.cfi_offset 8, -12
 200              		.cfi_offset 9, -8
 201              		.cfi_offset 14, -4
 202 0004 204F     		ldr	r7, .L27
 203 0006 85B0     		sub	sp, sp, #20
 204              		.cfi_def_cfa_offset 48
 205              		.loc 1 46 0
 206 0008 3B68     		ldr	r3, [r7]
 207 000a 0393     		str	r3, [sp, #12]
 208              	.LVL24:
 209 000c 8846     		mov	r8, r1
 210              		.loc 1 49 0
 211 000e 0023     		movs	r3, #0
 212              		.loc 1 51 0
 213 0010 1821     		movs	r1, #24
 214              	.LVL25:
 215              		.loc 1 56 0
 216 0012 4FF0DB09 		mov	r9, #219
 217              		.loc 1 57 0
 218 0016 4FF0DC0E 		mov	lr, #220
 219              		.loc 1 54 0
 220 001a 4FF0DD0C 		mov	ip, #221
 221              	.LVL26:
 222              	.L20:
 223              		.loc 1 52 0
 224 001e 20FA01F6 		lsr	r6, r0, r1
 225 0022 F5B2     		uxtb	r5, r6
 226 0024 DB2D     		cmp	r5, #219
 227 0026 03F10104 		add	r4, r3, #1
 228 002a 1AD0     		beq	.L24
ARM GAS  /var/folders/d2/nstgp4h54kz7g1l847x_b8wc0000gn/T//ccJo2A5k.s 			page 5


 229              		.loc 1 55 0
 230 002c C02D     		cmp	r5, #192
 231              		.loc 1 57 0
 232 002e 04AD     		add	r5, sp, #16
 233              		.loc 1 55 0
 234 0030 20D0     		beq	.L25
 235              	.LVL27:
 236              		.loc 1 59 0
 237 0032 1D44     		add	r5, r5, r3
 238 0034 2346     		mov	r3, r4
 239 0036 05F8106C 		strb	r6, [r5, #-16]
 240              	.LVL28:
 241              	.L18:
 242              		.loc 1 51 0 discriminator 2
 243 003a 0839     		subs	r1, r1, #8
 244              	.LVL29:
 245 003c 11F1080F 		cmn	r1, #8
 246 0040 EDD1     		bne	.L20
 247              	.LVL30:
 248              		.loc 1 62 0
 249 0042 04A9     		add	r1, sp, #16
 250              	.LVL31:
 251 0044 CC18     		adds	r4, r1, r3
 252              		.loc 1 63 0
 253 0046 1046     		mov	r0, r2
 254              	.LVL32:
 255 0048 6946     		mov	r1, sp
 256 004a 5A1C     		adds	r2, r3, #1
 257              	.LVL33:
 258              		.loc 1 62 0
 259 004c C023     		movs	r3, #192
 260 004e 04F8103C 		strb	r3, [r4, #-16]
 261              		.loc 1 63 0
 262 0052 C047     		blx	r8
 263              	.LVL34:
 264              		.loc 1 64 0
 265 0054 039A     		ldr	r2, [sp, #12]
 266 0056 3B68     		ldr	r3, [r7]
 267 0058 9A42     		cmp	r2, r3
 268 005a 13D1     		bne	.L26
 269 005c 05B0     		add	sp, sp, #20
 270              		.cfi_remember_state
 271              		.cfi_def_cfa_offset 28
 272              		@ sp needed
 273 005e BDE8F083 		pop	{r4, r5, r6, r7, r8, r9, pc}
 274              	.LVL35:
 275              	.L24:
 276              		.cfi_restore_state
 277              		.loc 1 54 0
 278 0062 04AE     		add	r6, sp, #16
 279 0064 3444     		add	r4, r4, r6
 280              		.loc 1 53 0
 281 0066 1E44     		add	r6, r6, r3
 282 0068 0233     		adds	r3, r3, #2
 283              	.LVL36:
 284 006a 06F8105C 		strb	r5, [r6, #-16]
 285              		.loc 1 54 0
ARM GAS  /var/folders/d2/nstgp4h54kz7g1l847x_b8wc0000gn/T//ccJo2A5k.s 			page 6


 286 006e 04F810CC 		strb	ip, [r4, #-16]
 287 0072 E2E7     		b	.L18
 288              	.LVL37:
 289              	.L25:
 290              		.loc 1 57 0
 291 0074 2C44     		add	r4, r4, r5
 292              		.loc 1 56 0
 293 0076 1D44     		add	r5, r5, r3
 294 0078 0233     		adds	r3, r3, #2
 295              	.LVL38:
 296 007a 05F8109C 		strb	r9, [r5, #-16]
 297              		.loc 1 57 0
 298 007e 04F810EC 		strb	lr, [r4, #-16]
 299 0082 DAE7     		b	.L18
 300              	.LVL39:
 301              	.L26:
 302              		.loc 1 64 0
 303 0084 FFF7FEFF 		bl	__stack_chk_fail
 304              	.LVL40:
 305              	.L28:
 306              		.align	2
 307              	.L27:
 308 0088 00000000 		.word	__stack_chk_guard
 309              		.cfi_endproc
 310              	.LFE2:
 311              		.size	serial_datagram_send_end, .-serial_datagram_send_end
 312              		.section	.text.serial_datagram_send,"ax",%progbits
 313              		.align	1
 314              		.p2align 4,,15
 315              		.global	serial_datagram_send
 316              		.syntax unified
 317              		.thumb
 318              		.thumb_func
 319              		.fpu fpv4-sp-d16
 320              		.type	serial_datagram_send, %function
 321              	serial_datagram_send:
 322              	.LFB3:
 323              		.loc 1 68 0
 324              		.cfi_startproc
 325              		@ args = 0, pretend = 0, frame = 8
 326              		@ frame_needed = 0, uses_anonymous_args = 0
 327              	.LVL41:
 328 0000 F0B5     		push	{r4, r5, r6, r7, lr}
 329              		.cfi_def_cfa_offset 20
 330              		.cfi_offset 4, -20
 331              		.cfi_offset 5, -16
 332              		.cfi_offset 6, -12
 333              		.cfi_offset 7, -8
 334              		.cfi_offset 14, -4
 335 0002 85B0     		sub	sp, sp, #20
 336              		.cfi_def_cfa_offset 40
 337              		.loc 1 69 0
 338 0004 04AC     		add	r4, sp, #16
 339 0006 0025     		movs	r5, #0
 340 0008 44F8085D 		str	r5, [r4, #-8]!
 341              		.loc 1 68 0
 342 000c 0B4D     		ldr	r5, .L33
ARM GAS  /var/folders/d2/nstgp4h54kz7g1l847x_b8wc0000gn/T//ccJo2A5k.s 			page 7


 343              		.loc 1 70 0
 344 000e 0093     		str	r3, [sp]
 345              		.loc 1 68 0
 346 0010 1646     		mov	r6, r2
 347 0012 1F46     		mov	r7, r3
 348 0014 2B68     		ldr	r3, [r5]
 349              	.LVL42:
 350 0016 0393     		str	r3, [sp, #12]
 351              		.loc 1 70 0
 352 0018 2246     		mov	r2, r4
 353              	.LVL43:
 354 001a 3346     		mov	r3, r6
 355 001c FFF7FEFF 		bl	serial_datagram_send_chunk
 356              	.LVL44:
 357              		.loc 1 71 0
 358 0020 3A46     		mov	r2, r7
 359 0022 3146     		mov	r1, r6
 360 0024 0298     		ldr	r0, [sp, #8]
 361 0026 FFF7FEFF 		bl	serial_datagram_send_end
 362              	.LVL45:
 363              		.loc 1 72 0
 364 002a 039A     		ldr	r2, [sp, #12]
 365 002c 2B68     		ldr	r3, [r5]
 366 002e 9A42     		cmp	r2, r3
 367 0030 01D1     		bne	.L32
 368 0032 05B0     		add	sp, sp, #20
 369              		.cfi_remember_state
 370              		.cfi_def_cfa_offset 20
 371              		@ sp needed
 372 0034 F0BD     		pop	{r4, r5, r6, r7, pc}
 373              	.LVL46:
 374              	.L32:
 375              		.cfi_restore_state
 376 0036 FFF7FEFF 		bl	__stack_chk_fail
 377              	.LVL47:
 378              	.L34:
 379 003a 00BF     		.align	2
 380              	.L33:
 381 003c 00000000 		.word	__stack_chk_guard
 382              		.cfi_endproc
 383              	.LFE3:
 384              		.size	serial_datagram_send, .-serial_datagram_send
 385              		.section	.text.serial_datagram_rcv_handler_init,"ax",%progbits
 386              		.align	1
 387              		.p2align 4,,15
 388              		.global	serial_datagram_rcv_handler_init
 389              		.syntax unified
 390              		.thumb
 391              		.thumb_func
 392              		.fpu fpv4-sp-d16
 393              		.type	serial_datagram_rcv_handler_init, %function
 394              	serial_datagram_rcv_handler_init:
 395              	.LFB5:
 396              		.loc 1 83 0
 397              		.cfi_startproc
 398              		@ args = 4, pretend = 0, frame = 8
 399              		@ frame_needed = 0, uses_anonymous_args = 0
ARM GAS  /var/folders/d2/nstgp4h54kz7g1l847x_b8wc0000gn/T//ccJo2A5k.s 			page 8


 400              	.LVL48:
 401 0000 70B5     		push	{r4, r5, r6, lr}
 402              		.cfi_def_cfa_offset 16
 403              		.cfi_offset 4, -16
 404              		.cfi_offset 5, -12
 405              		.cfi_offset 6, -8
 406              		.cfi_offset 14, -4
 407 0002 0A4C     		ldr	r4, .L39
 408              		.loc 1 85 0
 409 0004 4260     		str	r2, [r0, #4]
 410              		.loc 1 83 0
 411 0006 82B0     		sub	sp, sp, #8
 412              		.cfi_def_cfa_offset 24
 413              		.loc 1 83 0
 414 0008 2668     		ldr	r6, [r4]
 415 000a 0196     		str	r6, [sp, #4]
 416              		.loc 1 84 0
 417 000c 0160     		str	r1, [r0]
 418              		.loc 1 89 0
 419 000e 019E     		ldr	r6, [sp, #4]
 420 0010 2168     		ldr	r1, [r4]
 421              	.LVL49:
 422              		.loc 1 83 0
 423 0012 069D     		ldr	r5, [sp, #24]
 424              	.LBB12:
 425              	.LBB13:
 426              		.loc 1 76 0
 427 0014 0022     		movs	r2, #0
 428              	.LVL50:
 429              	.LBE13:
 430              	.LBE12:
 431              		.loc 1 89 0
 432 0016 8E42     		cmp	r6, r1
 433              		.loc 1 87 0
 434 0018 C0E90335 		strd	r3, r5, [r0, #12]
 435              	.LVL51:
 436              	.LBB15:
 437              	.LBB14:
 438              		.loc 1 76 0
 439 001c 8260     		str	r2, [r0, #8]
 440              		.loc 1 77 0
 441 001e 0275     		strb	r2, [r0, #20]
 442              		.loc 1 78 0
 443 0020 4275     		strb	r2, [r0, #21]
 444              	.LVL52:
 445              	.LBE14:
 446              	.LBE15:
 447              		.loc 1 89 0
 448 0022 01D1     		bne	.L38
 449 0024 02B0     		add	sp, sp, #8
 450              		.cfi_remember_state
 451              		.cfi_def_cfa_offset 16
 452              		@ sp needed
 453 0026 70BD     		pop	{r4, r5, r6, pc}
 454              	.LVL53:
 455              	.L38:
 456              		.cfi_restore_state
ARM GAS  /var/folders/d2/nstgp4h54kz7g1l847x_b8wc0000gn/T//ccJo2A5k.s 			page 9


 457 0028 FFF7FEFF 		bl	__stack_chk_fail
 458              	.LVL54:
 459              	.L40:
 460              		.align	2
 461              	.L39:
 462 002c 00000000 		.word	__stack_chk_guard
 463              		.cfi_endproc
 464              	.LFE5:
 465              		.size	serial_datagram_rcv_handler_init, .-serial_datagram_rcv_handler_init
 466              		.section	.text.serial_datagram_receive,"ax",%progbits
 467              		.align	1
 468              		.p2align 4,,15
 469              		.global	serial_datagram_receive
 470              		.syntax unified
 471              		.thumb
 472              		.thumb_func
 473              		.fpu fpv4-sp-d16
 474              		.type	serial_datagram_receive, %function
 475              	serial_datagram_receive:
 476              	.LFB6:
 477              		.loc 1 93 0
 478              		.cfi_startproc
 479              		@ args = 0, pretend = 0, frame = 8
 480              		@ frame_needed = 0, uses_anonymous_args = 0
 481              	.LVL55:
 482 0000 2DE9F04F 		push	{r4, r5, r6, r7, r8, r9, r10, fp, lr}
 483              		.cfi_def_cfa_offset 36
 484              		.cfi_offset 4, -36
 485              		.cfi_offset 5, -32
 486              		.cfi_offset 6, -28
 487              		.cfi_offset 7, -24
 488              		.cfi_offset 8, -20
 489              		.cfi_offset 9, -16
 490              		.cfi_offset 10, -12
 491              		.cfi_offset 11, -8
 492              		.cfi_offset 14, -4
 493 0004 DFF81891 		ldr	r9, .L68
 494 0008 83B0     		sub	sp, sp, #12
 495              		.cfi_def_cfa_offset 48
 496              		.loc 1 93 0
 497 000a D9F80030 		ldr	r3, [r9]
 498 000e 0193     		str	r3, [sp, #4]
 499              	.LVL56:
 500              		.loc 1 96 0
 501 0010 002A     		cmp	r2, #0
 502 0012 72D0     		beq	.L55
 503 0014 561E     		subs	r6, r2, #1
 504              	.LVL57:
 505              		.loc 1 95 0
 506 0016 0027     		movs	r7, #0
 507 0018 0446     		mov	r4, r0
 508 001a 0E44     		add	r6, r6, r1
 509              	.LVL58:
 510 001c 4D1E     		subs	r5, r1, #1
 511              		.loc 1 131 0
 512 001e B846     		mov	r8, r7
 513              		.loc 1 133 0
ARM GAS  /var/folders/d2/nstgp4h54kz7g1l847x_b8wc0000gn/T//ccJo2A5k.s 			page 10


 514 0020 4FF0010A 		mov	r10, #1
 515 0024 03E0     		b	.L53
 516              	.LVL59:
 517              	.L60:
 518              		.loc 1 98 0
 519 0026 C02B     		cmp	r3, #192
 520 0028 40D0     		beq	.L46
 521              	.L44:
 522              	.LVL60:
 523              		.loc 1 96 0
 524 002a B542     		cmp	r5, r6
 525 002c 18D0     		beq	.L41
 526              	.LVL61:
 527              	.L53:
 528              		.loc 1 97 0
 529 002e 207D     		ldrb	r0, [r4, #20]	@ zero_extendqisi2
 530 0030 15F8013F 		ldrb	r3, [r5, #1]!	@ zero_extendqisi2
 531              	.LVL62:
 532 0034 0028     		cmp	r0, #0
 533 0036 F6D1     		bne	.L60
 534              		.loc 1 101 0
 535 0038 C02B     		cmp	r3, #192
 536 003a A168     		ldr	r1, [r4, #8]
 537 003c 3DD0     		beq	.L61
 538              		.loc 1 119 0
 539 003e 6268     		ldr	r2, [r4, #4]
 540 0040 8A42     		cmp	r2, r1
 541 0042 45D0     		beq	.L62
 542              		.loc 1 122 0
 543 0044 627D     		ldrb	r2, [r4, #21]	@ zero_extendqisi2
 544 0046 002A     		cmp	r2, #0
 545 0048 46D0     		beq	.L48
 546              		.loc 1 123 0
 547 004a DD2B     		cmp	r3, #221
 548 004c 4FD0     		beq	.L63
 549              		.loc 1 125 0
 550 004e DC2B     		cmp	r3, #220
 551 0050 55D0     		beq	.L64
 552              	.LVL63:
 553              		.loc 1 129 0
 554 0052 84F814A0 		strb	r10, [r4, #20]
 555              		.loc 1 128 0
 556 0056 0327     		movs	r7, #3
 557              	.LVL64:
 558              	.L50:
 559              		.loc 1 96 0
 560 0058 B542     		cmp	r5, r6
 561              		.loc 1 131 0
 562 005a 84F81580 		strb	r8, [r4, #21]
 563              	.LVL65:
 564              		.loc 1 96 0
 565 005e E6D1     		bne	.L53
 566              	.LVL66:
 567              	.L41:
 568              		.loc 1 140 0
 569 0060 019A     		ldr	r2, [sp, #4]
 570 0062 D9F80030 		ldr	r3, [r9]
ARM GAS  /var/folders/d2/nstgp4h54kz7g1l847x_b8wc0000gn/T//ccJo2A5k.s 			page 11


 571 0066 9A42     		cmp	r2, r3
 572 0068 3846     		mov	r0, r7
 573 006a 56D1     		bne	.L65
 574 006c 03B0     		add	sp, sp, #12
 575              		.cfi_remember_state
 576              		.cfi_def_cfa_offset 36
 577              		@ sp needed
 578 006e BDE8F08F 		pop	{r4, r5, r6, r7, r8, r9, r10, fp, pc}
 579              	.LVL67:
 580              	.L66:
 581              		.cfi_restore_state
 582              	.LBB16:
 583              	.LBB17:
 584              	.LBB18:
 585              	.LBB19:
 586              		.loc 1 14 0
 587 0072 5A46     		mov	r2, fp
 588 0074 2168     		ldr	r1, [r4]
 589 0076 FFF7FEFF 		bl	crc32
 590              	.LVL68:
 591              	.LBE19:
 592              	.LBE18:
 593              		.loc 1 106 0
 594 007a 2268     		ldr	r2, [r4]
 595 007c A168     		ldr	r1, [r4, #8]
 596              	.LVL69:
 597 007e 1144     		add	r1, r1, r2
 598              	.LVL70:
 599              		.loc 1 107 0
 600 0080 11F8033C 		ldrb	r3, [r1, #-3]	@ zero_extendqisi2
 601              		.loc 1 106 0
 602 0084 11F804EC 		ldrb	lr, [r1, #-4]	@ zero_extendqisi2
 603              		.loc 1 109 0
 604 0088 11F801CC 		ldrb	ip, [r1, #-1]	@ zero_extendqisi2
 605              		.loc 1 108 0
 606 008c 11F8021C 		ldrb	r1, [r1, #-2]	@ zero_extendqisi2
 607              	.LVL71:
 608              		.loc 1 107 0
 609 0090 1B04     		lsls	r3, r3, #16
 610              		.loc 1 106 0
 611 0092 43EA0E63 		orr	r3, r3, lr, lsl #24
 612              		.loc 1 105 0
 613 0096 43EA0C03 		orr	r3, r3, ip
 614 009a 43EA0123 		orr	r3, r3, r1, lsl #8
 615              		.loc 1 110 0
 616 009e 8342     		cmp	r3, r0
 617 00a0 33D1     		bne	.L57
 618              		.loc 1 113 0
 619 00a2 1046     		mov	r0, r2
 620 00a4 5946     		mov	r1, fp
 621 00a6 D4E90332 		ldrd	r3, r2, [r4, #12]
 622              	.LVL72:
 623 00aa 9847     		blx	r3
 624              	.LVL73:
 625              	.L46:
 626              	.LBE17:
 627              	.LBB20:
ARM GAS  /var/folders/d2/nstgp4h54kz7g1l847x_b8wc0000gn/T//ccJo2A5k.s 			page 12


 628              	.LBB21:
 629              		.loc 1 76 0
 630 00ac C4F80880 		str	r8, [r4, #8]
 631              		.loc 1 77 0
 632 00b0 84F81480 		strb	r8, [r4, #20]
 633              		.loc 1 78 0
 634 00b4 84F81580 		strb	r8, [r4, #21]
 635 00b8 B7E7     		b	.L44
 636              	.LVL74:
 637              	.L61:
 638              	.LBE21:
 639              	.LBE20:
 640              		.loc 1 103 0
 641 00ba B1F1040B 		subs	fp, r1, #4
 642              	.LVL75:
 643 00be D8D5     		bpl	.L66
 644              		.loc 1 116 0
 645 00c0 0327     		movs	r7, #3
 646              	.LVL76:
 647              	.LBB24:
 648              	.LBB22:
 649              		.loc 1 76 0
 650 00c2 C4F80880 		str	r8, [r4, #8]
 651              		.loc 1 77 0
 652 00c6 84F81480 		strb	r8, [r4, #20]
 653              		.loc 1 78 0
 654 00ca 84F81580 		strb	r8, [r4, #21]
 655 00ce ACE7     		b	.L44
 656              	.LVL77:
 657              	.L62:
 658              	.LBE22:
 659              	.LBE24:
 660              	.LBE16:
 661              		.loc 1 120 0
 662 00d0 84F814A0 		strb	r10, [r4, #20]
 663              	.LVL78:
 664              		.loc 1 121 0
 665 00d4 0127     		movs	r7, #1
 666 00d6 A8E7     		b	.L44
 667              	.LVL79:
 668              	.L48:
 669              		.loc 1 132 0
 670 00d8 DB2B     		cmp	r3, #219
 671 00da 05D0     		beq	.L67
 672              		.loc 1 135 0
 673 00dc 4B1C     		adds	r3, r1, #1
 674 00de A360     		str	r3, [r4, #8]
 675 00e0 2368     		ldr	r3, [r4]
 676 00e2 2A78     		ldrb	r2, [r5]	@ zero_extendqisi2
 677 00e4 5A54     		strb	r2, [r3, r1]
 678 00e6 A0E7     		b	.L44
 679              	.L67:
 680              		.loc 1 133 0
 681 00e8 84F815A0 		strb	r10, [r4, #21]
 682 00ec 9DE7     		b	.L44
 683              	.L63:
 684              		.loc 1 124 0
ARM GAS  /var/folders/d2/nstgp4h54kz7g1l847x_b8wc0000gn/T//ccJo2A5k.s 			page 13


 685 00ee 2368     		ldr	r3, [r4]
 686 00f0 481C     		adds	r0, r1, #1
 687 00f2 DB22     		movs	r2, #219
 688 00f4 A060     		str	r0, [r4, #8]
 689 00f6 5A54     		strb	r2, [r3, r1]
 690 00f8 AEE7     		b	.L50
 691              	.LVL80:
 692              	.L55:
 693              		.loc 1 95 0
 694 00fa 1746     		mov	r7, r2
 695              		.loc 1 139 0
 696 00fc B0E7     		b	.L41
 697              	.LVL81:
 698              	.L64:
 699              		.loc 1 126 0
 700 00fe 2368     		ldr	r3, [r4]
 701 0100 481C     		adds	r0, r1, #1
 702 0102 C022     		movs	r2, #192
 703 0104 A060     		str	r0, [r4, #8]
 704 0106 5A54     		strb	r2, [r3, r1]
 705 0108 A6E7     		b	.L50
 706              	.LVL82:
 707              	.L57:
 708              	.LBB27:
 709              	.LBB25:
 710              		.loc 1 111 0
 711 010a 0227     		movs	r7, #2
 712              	.LVL83:
 713              	.LBE25:
 714              	.LBB26:
 715              	.LBB23:
 716              		.loc 1 76 0
 717 010c C4F80880 		str	r8, [r4, #8]
 718              	.LVL84:
 719              		.loc 1 77 0
 720 0110 84F81480 		strb	r8, [r4, #20]
 721              		.loc 1 78 0
 722 0114 84F81580 		strb	r8, [r4, #21]
 723 0118 87E7     		b	.L44
 724              	.LVL85:
 725              	.L65:
 726              	.LBE23:
 727              	.LBE26:
 728              	.LBE27:
 729              		.loc 1 140 0
 730 011a FFF7FEFF 		bl	__stack_chk_fail
 731              	.LVL86:
 732              	.L69:
 733 011e 00BF     		.align	2
 734              	.L68:
 735 0120 00000000 		.word	__stack_chk_guard
 736              		.cfi_endproc
 737              	.LFE6:
 738              		.size	serial_datagram_receive, .-serial_datagram_receive
 739              		.section	.rodata.esc_end,"a",%progbits
 740              		.align	2
 741              		.set	.LANCHOR0,. + 0
ARM GAS  /var/folders/d2/nstgp4h54kz7g1l847x_b8wc0000gn/T//ccJo2A5k.s 			page 14


 742              		.type	esc_end, %object
 743              		.size	esc_end, 2
 744              	esc_end:
 745 0000 DB       		.byte	-37
 746 0001 DC       		.byte	-36
 747              		.section	.rodata.esc_esc,"a",%progbits
 748              		.align	2
 749              		.set	.LANCHOR1,. + 0
 750              		.type	esc_esc, %object
 751              		.size	esc_esc, 2
 752              	esc_esc:
 753 0000 DB       		.byte	-37
 754 0001 DD       		.byte	-35
 755              		.text
 756              	.Letext0:
 757              		.file 2 "/Applications/Eclipse_e-puck2.app/Contents/Eclipse_e-puck2/Tools/gcc-arm-none-eabi-7-2017
 758              		.file 3 "/Applications/Eclipse_e-puck2.app/Contents/Eclipse_e-puck2/Tools/gcc-arm-none-eabi-7-2017
 759              		.file 4 "/Applications/Eclipse_e-puck2.app/Contents/Eclipse_e-puck2/Tools/gcc-arm-none-eabi-7-2017
 760              		.file 5 "/Applications/Eclipse_e-puck2.app/Contents/Eclipse_e-puck2/Tools/gcc-arm-none-eabi-7-2017
 761              		.file 6 "/Applications/Eclipse_e-puck2.app/Contents/Eclipse_e-puck2/Tools/gcc-arm-none-eabi-7-2017
 762              		.file 7 "/Applications/Eclipse_e-puck2.app/Contents/Eclipse_e-puck2/Tools/gcc-arm-none-eabi-7-2017
 763              		.file 8 "/Applications/Eclipse_e-puck2.app/Contents/Eclipse_e-puck2/Tools/gcc-arm-none-eabi-7-2017
 764              		.file 9 "../e-puck2_main-processor/src/serial-datagram/serial_datagram.h"
 765              		.file 10 "../e-puck2_main-processor/src/crc/crc32.h"
 766              		.section	.debug_info,"",%progbits
 767              	.Ldebug_info0:
 768 0000 300E0000 		.4byte	0xe30
 769 0004 0400     		.2byte	0x4
 770 0006 00000000 		.4byte	.Ldebug_abbrev0
 771 000a 04       		.byte	0x4
 772 000b 01       		.uleb128 0x1
 773 000c BC020000 		.4byte	.LASF156
 774 0010 0C       		.byte	0xc
 775 0011 6F020000 		.4byte	.LASF157
 776 0015 0C000000 		.4byte	.LASF158
 777 0019 68000000 		.4byte	.Ldebug_ranges0+0x68
 778 001d 00000000 		.4byte	0
 779 0021 00000000 		.4byte	.Ldebug_line0
 780 0025 02       		.uleb128 0x2
 781 0026 01       		.byte	0x1
 782 0027 06       		.byte	0x6
 783 0028 57010000 		.4byte	.LASF0
 784 002c 03       		.uleb128 0x3
 785 002d A3000000 		.4byte	.LASF4
 786 0031 02       		.byte	0x2
 787 0032 2B       		.byte	0x2b
 788 0033 37000000 		.4byte	0x37
 789 0037 02       		.uleb128 0x2
 790 0038 01       		.byte	0x1
 791 0039 08       		.byte	0x8
 792 003a 98050000 		.4byte	.LASF1
 793 003e 02       		.uleb128 0x2
 794 003f 02       		.byte	0x2
 795 0040 05       		.byte	0x5
 796 0041 B4050000 		.4byte	.LASF2
 797 0045 02       		.uleb128 0x2
 798 0046 02       		.byte	0x2
ARM GAS  /var/folders/d2/nstgp4h54kz7g1l847x_b8wc0000gn/T//ccJo2A5k.s 			page 15


 799 0047 07       		.byte	0x7
 800 0048 63040000 		.4byte	.LASF3
 801 004c 03       		.uleb128 0x3
 802 004d 00070000 		.4byte	.LASF5
 803 0051 02       		.byte	0x2
 804 0052 4D       		.byte	0x4d
 805 0053 57000000 		.4byte	0x57
 806 0057 02       		.uleb128 0x2
 807 0058 04       		.byte	0x4
 808 0059 05       		.byte	0x5
 809 005a 9C010000 		.4byte	.LASF6
 810 005e 03       		.uleb128 0x3
 811 005f 21020000 		.4byte	.LASF7
 812 0063 02       		.byte	0x2
 813 0064 4F       		.byte	0x4f
 814 0065 69000000 		.4byte	0x69
 815 0069 02       		.uleb128 0x2
 816 006a 04       		.byte	0x4
 817 006b 07       		.byte	0x7
 818 006c 32040000 		.4byte	.LASF8
 819 0070 02       		.uleb128 0x2
 820 0071 08       		.byte	0x8
 821 0072 05       		.byte	0x5
 822 0073 49010000 		.4byte	.LASF9
 823 0077 02       		.uleb128 0x2
 824 0078 08       		.byte	0x8
 825 0079 07       		.byte	0x7
 826 007a E0000000 		.4byte	.LASF10
 827 007e 04       		.uleb128 0x4
 828 007f 04       		.byte	0x4
 829 0080 05       		.byte	0x5
 830 0081 696E7400 		.ascii	"int\000"
 831 0085 02       		.uleb128 0x2
 832 0086 04       		.byte	0x4
 833 0087 07       		.byte	0x7
 834 0088 AF020000 		.4byte	.LASF11
 835 008c 03       		.uleb128 0x3
 836 008d AD070000 		.4byte	.LASF12
 837 0091 03       		.byte	0x3
 838 0092 18       		.byte	0x18
 839 0093 2C000000 		.4byte	0x2c
 840 0097 05       		.uleb128 0x5
 841 0098 8C000000 		.4byte	0x8c
 842 009c 03       		.uleb128 0x3
 843 009d 90050000 		.4byte	.LASF13
 844 00a1 03       		.byte	0x3
 845 00a2 2C       		.byte	0x2c
 846 00a3 4C000000 		.4byte	0x4c
 847 00a7 03       		.uleb128 0x3
 848 00a8 8E060000 		.4byte	.LASF14
 849 00ac 03       		.byte	0x3
 850 00ad 30       		.byte	0x30
 851 00ae 5E000000 		.4byte	0x5e
 852 00b2 03       		.uleb128 0x3
 853 00b3 6B000000 		.4byte	.LASF15
 854 00b7 04       		.byte	0x4
 855 00b8 D8       		.byte	0xd8
ARM GAS  /var/folders/d2/nstgp4h54kz7g1l847x_b8wc0000gn/T//ccJo2A5k.s 			page 16


 856 00b9 85000000 		.4byte	0x85
 857 00bd 02       		.uleb128 0x2
 858 00be 08       		.byte	0x8
 859 00bf 04       		.byte	0x4
 860 00c0 FA040000 		.4byte	.LASF16
 861 00c4 03       		.uleb128 0x3
 862 00c5 BB040000 		.4byte	.LASF17
 863 00c9 05       		.byte	0x5
 864 00ca 22       		.byte	0x22
 865 00cb CF000000 		.4byte	0xcf
 866 00cf 06       		.uleb128 0x6
 867 00d0 04       		.byte	0x4
 868 00d1 D5000000 		.4byte	0xd5
 869 00d5 07       		.uleb128 0x7
 870 00d6 87060000 		.4byte	.LASF124
 871 00da 03       		.uleb128 0x3
 872 00db 33050000 		.4byte	.LASF18
 873 00df 06       		.byte	0x6
 874 00e0 2C       		.byte	0x2c
 875 00e1 57000000 		.4byte	0x57
 876 00e5 03       		.uleb128 0x3
 877 00e6 A9060000 		.4byte	.LASF19
 878 00ea 06       		.byte	0x6
 879 00eb 72       		.byte	0x72
 880 00ec 57000000 		.4byte	0x57
 881 00f0 08       		.uleb128 0x8
 882 00f1 C3040000 		.4byte	.LASF20
 883 00f5 04       		.byte	0x4
 884 00f6 6501     		.2byte	0x165
 885 00f8 85000000 		.4byte	0x85
 886 00fc 09       		.uleb128 0x9
 887 00fd 04       		.byte	0x4
 888 00fe 06       		.byte	0x6
 889 00ff A6       		.byte	0xa6
 890 0100 1B010000 		.4byte	0x11b
 891 0104 0A       		.uleb128 0xa
 892 0105 AC040000 		.4byte	.LASF21
 893 0109 06       		.byte	0x6
 894 010a A8       		.byte	0xa8
 895 010b F0000000 		.4byte	0xf0
 896 010f 0A       		.uleb128 0xa
 897 0110 00040000 		.4byte	.LASF22
 898 0114 06       		.byte	0x6
 899 0115 A9       		.byte	0xa9
 900 0116 1B010000 		.4byte	0x11b
 901 011a 00       		.byte	0
 902 011b 0B       		.uleb128 0xb
 903 011c 37000000 		.4byte	0x37
 904 0120 2B010000 		.4byte	0x12b
 905 0124 0C       		.uleb128 0xc
 906 0125 85000000 		.4byte	0x85
 907 0129 03       		.byte	0x3
 908 012a 00       		.byte	0
 909 012b 0D       		.uleb128 0xd
 910 012c 08       		.byte	0x8
 911 012d 06       		.byte	0x6
 912 012e A3       		.byte	0xa3
ARM GAS  /var/folders/d2/nstgp4h54kz7g1l847x_b8wc0000gn/T//ccJo2A5k.s 			page 17


 913 012f 4C010000 		.4byte	0x14c
 914 0133 0E       		.uleb128 0xe
 915 0134 7F060000 		.4byte	.LASF23
 916 0138 06       		.byte	0x6
 917 0139 A5       		.byte	0xa5
 918 013a 7E000000 		.4byte	0x7e
 919 013e 00       		.byte	0
 920 013f 0E       		.uleb128 0xe
 921 0140 23070000 		.4byte	.LASF24
 922 0144 06       		.byte	0x6
 923 0145 AA       		.byte	0xaa
 924 0146 FC000000 		.4byte	0xfc
 925 014a 04       		.byte	0x4
 926 014b 00       		.byte	0
 927 014c 03       		.uleb128 0x3
 928 014d DC050000 		.4byte	.LASF25
 929 0151 06       		.byte	0x6
 930 0152 AB       		.byte	0xab
 931 0153 2B010000 		.4byte	0x12b
 932 0157 03       		.uleb128 0x3
 933 0158 32020000 		.4byte	.LASF26
 934 015c 06       		.byte	0x6
 935 015d AF       		.byte	0xaf
 936 015e C4000000 		.4byte	0xc4
 937 0162 0F       		.uleb128 0xf
 938 0163 04       		.byte	0x4
 939 0164 06       		.uleb128 0x6
 940 0165 04       		.byte	0x4
 941 0166 6A010000 		.4byte	0x16a
 942 016a 02       		.uleb128 0x2
 943 016b 01       		.byte	0x1
 944 016c 08       		.byte	0x8
 945 016d B8060000 		.4byte	.LASF27
 946 0171 05       		.uleb128 0x5
 947 0172 6A010000 		.4byte	0x16a
 948 0176 03       		.uleb128 0x3
 949 0177 39070000 		.4byte	.LASF28
 950 017b 07       		.byte	0x7
 951 017c 16       		.byte	0x16
 952 017d 69000000 		.4byte	0x69
 953 0181 10       		.uleb128 0x10
 954 0182 43020000 		.4byte	.LASF33
 955 0186 18       		.byte	0x18
 956 0187 07       		.byte	0x7
 957 0188 2F       		.byte	0x2f
 958 0189 D4010000 		.4byte	0x1d4
 959 018d 0E       		.uleb128 0xe
 960 018e 10070000 		.4byte	.LASF29
 961 0192 07       		.byte	0x7
 962 0193 31       		.byte	0x31
 963 0194 D4010000 		.4byte	0x1d4
 964 0198 00       		.byte	0
 965 0199 11       		.uleb128 0x11
 966 019a 5F6B00   		.ascii	"_k\000"
 967 019d 07       		.byte	0x7
 968 019e 32       		.byte	0x32
 969 019f 7E000000 		.4byte	0x7e
ARM GAS  /var/folders/d2/nstgp4h54kz7g1l847x_b8wc0000gn/T//ccJo2A5k.s 			page 18


 970 01a3 04       		.byte	0x4
 971 01a4 0E       		.uleb128 0xe
 972 01a5 6A060000 		.4byte	.LASF30
 973 01a9 07       		.byte	0x7
 974 01aa 32       		.byte	0x32
 975 01ab 7E000000 		.4byte	0x7e
 976 01af 08       		.byte	0x8
 977 01b0 0E       		.uleb128 0xe
 978 01b1 2C020000 		.4byte	.LASF31
 979 01b5 07       		.byte	0x7
 980 01b6 32       		.byte	0x32
 981 01b7 7E000000 		.4byte	0x7e
 982 01bb 0C       		.byte	0xc
 983 01bc 0E       		.uleb128 0xe
 984 01bd 90070000 		.4byte	.LASF32
 985 01c1 07       		.byte	0x7
 986 01c2 32       		.byte	0x32
 987 01c3 7E000000 		.4byte	0x7e
 988 01c7 10       		.byte	0x10
 989 01c8 11       		.uleb128 0x11
 990 01c9 5F7800   		.ascii	"_x\000"
 991 01cc 07       		.byte	0x7
 992 01cd 33       		.byte	0x33
 993 01ce DA010000 		.4byte	0x1da
 994 01d2 14       		.byte	0x14
 995 01d3 00       		.byte	0
 996 01d4 06       		.uleb128 0x6
 997 01d5 04       		.byte	0x4
 998 01d6 81010000 		.4byte	0x181
 999 01da 0B       		.uleb128 0xb
 1000 01db 76010000 		.4byte	0x176
 1001 01df EA010000 		.4byte	0x1ea
 1002 01e3 0C       		.uleb128 0xc
 1003 01e4 85000000 		.4byte	0x85
 1004 01e8 00       		.byte	0
 1005 01e9 00       		.byte	0
 1006 01ea 10       		.uleb128 0x10
 1007 01eb 6A020000 		.4byte	.LASF34
 1008 01ef 24       		.byte	0x24
 1009 01f0 07       		.byte	0x7
 1010 01f1 37       		.byte	0x37
 1011 01f2 63020000 		.4byte	0x263
 1012 01f6 0E       		.uleb128 0xe
 1013 01f7 2B010000 		.4byte	.LASF35
 1014 01fb 07       		.byte	0x7
 1015 01fc 39       		.byte	0x39
 1016 01fd 7E000000 		.4byte	0x7e
 1017 0201 00       		.byte	0
 1018 0202 0E       		.uleb128 0xe
 1019 0203 BD060000 		.4byte	.LASF36
 1020 0207 07       		.byte	0x7
 1021 0208 3A       		.byte	0x3a
 1022 0209 7E000000 		.4byte	0x7e
 1023 020d 04       		.byte	0x4
 1024 020e 0E       		.uleb128 0xe
 1025 020f 6F010000 		.4byte	.LASF37
 1026 0213 07       		.byte	0x7
ARM GAS  /var/folders/d2/nstgp4h54kz7g1l847x_b8wc0000gn/T//ccJo2A5k.s 			page 19


 1027 0214 3B       		.byte	0x3b
 1028 0215 7E000000 		.4byte	0x7e
 1029 0219 08       		.byte	0x8
 1030 021a 0E       		.uleb128 0xe
 1031 021b 36080000 		.4byte	.LASF38
 1032 021f 07       		.byte	0x7
 1033 0220 3C       		.byte	0x3c
 1034 0221 7E000000 		.4byte	0x7e
 1035 0225 0C       		.byte	0xc
 1036 0226 0E       		.uleb128 0xe
 1037 0227 0D050000 		.4byte	.LASF39
 1038 022b 07       		.byte	0x7
 1039 022c 3D       		.byte	0x3d
 1040 022d 7E000000 		.4byte	0x7e
 1041 0231 10       		.byte	0x10
 1042 0232 0E       		.uleb128 0xe
 1043 0233 E7040000 		.4byte	.LASF40
 1044 0237 07       		.byte	0x7
 1045 0238 3E       		.byte	0x3e
 1046 0239 7E000000 		.4byte	0x7e
 1047 023d 14       		.byte	0x14
 1048 023e 0E       		.uleb128 0xe
 1049 023f 95070000 		.4byte	.LASF41
 1050 0243 07       		.byte	0x7
 1051 0244 3F       		.byte	0x3f
 1052 0245 7E000000 		.4byte	0x7e
 1053 0249 18       		.byte	0x18
 1054 024a 0E       		.uleb128 0xe
 1055 024b BE050000 		.4byte	.LASF42
 1056 024f 07       		.byte	0x7
 1057 0250 40       		.byte	0x40
 1058 0251 7E000000 		.4byte	0x7e
 1059 0255 1C       		.byte	0x1c
 1060 0256 0E       		.uleb128 0xe
 1061 0257 DF070000 		.4byte	.LASF43
 1062 025b 07       		.byte	0x7
 1063 025c 41       		.byte	0x41
 1064 025d 7E000000 		.4byte	0x7e
 1065 0261 20       		.byte	0x20
 1066 0262 00       		.byte	0
 1067 0263 12       		.uleb128 0x12
 1068 0264 7E010000 		.4byte	.LASF44
 1069 0268 0801     		.2byte	0x108
 1070 026a 07       		.byte	0x7
 1071 026b 4A       		.byte	0x4a
 1072 026c A3020000 		.4byte	0x2a3
 1073 0270 0E       		.uleb128 0xe
 1074 0271 F3010000 		.4byte	.LASF45
 1075 0275 07       		.byte	0x7
 1076 0276 4B       		.byte	0x4b
 1077 0277 A3020000 		.4byte	0x2a3
 1078 027b 00       		.byte	0
 1079 027c 0E       		.uleb128 0xe
 1080 027d 00000000 		.4byte	.LASF46
 1081 0281 07       		.byte	0x7
 1082 0282 4C       		.byte	0x4c
 1083 0283 A3020000 		.4byte	0x2a3
ARM GAS  /var/folders/d2/nstgp4h54kz7g1l847x_b8wc0000gn/T//ccJo2A5k.s 			page 20


 1084 0287 80       		.byte	0x80
 1085 0288 13       		.uleb128 0x13
 1086 0289 2B070000 		.4byte	.LASF47
 1087 028d 07       		.byte	0x7
 1088 028e 4E       		.byte	0x4e
 1089 028f 76010000 		.4byte	0x176
 1090 0293 0001     		.2byte	0x100
 1091 0295 13       		.uleb128 0x13
 1092 0296 AC010000 		.4byte	.LASF48
 1093 029a 07       		.byte	0x7
 1094 029b 51       		.byte	0x51
 1095 029c 76010000 		.4byte	0x176
 1096 02a0 0401     		.2byte	0x104
 1097 02a2 00       		.byte	0
 1098 02a3 0B       		.uleb128 0xb
 1099 02a4 62010000 		.4byte	0x162
 1100 02a8 B3020000 		.4byte	0x2b3
 1101 02ac 0C       		.uleb128 0xc
 1102 02ad 85000000 		.4byte	0x85
 1103 02b1 1F       		.byte	0x1f
 1104 02b2 00       		.byte	0
 1105 02b3 12       		.uleb128 0x12
 1106 02b4 16050000 		.4byte	.LASF49
 1107 02b8 9001     		.2byte	0x190
 1108 02ba 07       		.byte	0x7
 1109 02bb 5D       		.byte	0x5d
 1110 02bc F1020000 		.4byte	0x2f1
 1111 02c0 0E       		.uleb128 0xe
 1112 02c1 10070000 		.4byte	.LASF29
 1113 02c5 07       		.byte	0x7
 1114 02c6 5E       		.byte	0x5e
 1115 02c7 F1020000 		.4byte	0x2f1
 1116 02cb 00       		.byte	0
 1117 02cc 0E       		.uleb128 0xe
 1118 02cd 29060000 		.4byte	.LASF50
 1119 02d1 07       		.byte	0x7
 1120 02d2 5F       		.byte	0x5f
 1121 02d3 7E000000 		.4byte	0x7e
 1122 02d7 04       		.byte	0x4
 1123 02d8 0E       		.uleb128 0xe
 1124 02d9 1C020000 		.4byte	.LASF51
 1125 02dd 07       		.byte	0x7
 1126 02de 61       		.byte	0x61
 1127 02df F7020000 		.4byte	0x2f7
 1128 02e3 08       		.byte	0x8
 1129 02e4 0E       		.uleb128 0xe
 1130 02e5 7E010000 		.4byte	.LASF44
 1131 02e9 07       		.byte	0x7
 1132 02ea 62       		.byte	0x62
 1133 02eb 63020000 		.4byte	0x263
 1134 02ef 88       		.byte	0x88
 1135 02f0 00       		.byte	0
 1136 02f1 06       		.uleb128 0x6
 1137 02f2 04       		.byte	0x4
 1138 02f3 B3020000 		.4byte	0x2b3
 1139 02f7 0B       		.uleb128 0xb
 1140 02f8 07030000 		.4byte	0x307
ARM GAS  /var/folders/d2/nstgp4h54kz7g1l847x_b8wc0000gn/T//ccJo2A5k.s 			page 21


 1141 02fc 07030000 		.4byte	0x307
 1142 0300 0C       		.uleb128 0xc
 1143 0301 85000000 		.4byte	0x85
 1144 0305 1F       		.byte	0x1f
 1145 0306 00       		.byte	0
 1146 0307 06       		.uleb128 0x6
 1147 0308 04       		.byte	0x4
 1148 0309 0D030000 		.4byte	0x30d
 1149 030d 14       		.uleb128 0x14
 1150 030e 10       		.uleb128 0x10
 1151 030f C8050000 		.4byte	.LASF52
 1152 0313 08       		.byte	0x8
 1153 0314 07       		.byte	0x7
 1154 0315 75       		.byte	0x75
 1155 0316 33030000 		.4byte	0x333
 1156 031a 0E       		.uleb128 0xe
 1157 031b 69010000 		.4byte	.LASF53
 1158 031f 07       		.byte	0x7
 1159 0320 76       		.byte	0x76
 1160 0321 33030000 		.4byte	0x333
 1161 0325 00       		.byte	0
 1162 0326 0E       		.uleb128 0xe
 1163 0327 65000000 		.4byte	.LASF54
 1164 032b 07       		.byte	0x7
 1165 032c 77       		.byte	0x77
 1166 032d 7E000000 		.4byte	0x7e
 1167 0331 04       		.byte	0x4
 1168 0332 00       		.byte	0
 1169 0333 06       		.uleb128 0x6
 1170 0334 04       		.byte	0x4
 1171 0335 37000000 		.4byte	0x37
 1172 0339 10       		.uleb128 0x10
 1173 033a E7050000 		.4byte	.LASF55
 1174 033e 68       		.byte	0x68
 1175 033f 07       		.byte	0x7
 1176 0340 B5       		.byte	0xb5
 1177 0341 63040000 		.4byte	0x463
 1178 0345 11       		.uleb128 0x11
 1179 0346 5F7000   		.ascii	"_p\000"
 1180 0349 07       		.byte	0x7
 1181 034a B6       		.byte	0xb6
 1182 034b 33030000 		.4byte	0x333
 1183 034f 00       		.byte	0
 1184 0350 11       		.uleb128 0x11
 1185 0351 5F7200   		.ascii	"_r\000"
 1186 0354 07       		.byte	0x7
 1187 0355 B7       		.byte	0xb7
 1188 0356 7E000000 		.4byte	0x7e
 1189 035a 04       		.byte	0x4
 1190 035b 11       		.uleb128 0x11
 1191 035c 5F7700   		.ascii	"_w\000"
 1192 035f 07       		.byte	0x7
 1193 0360 B8       		.byte	0xb8
 1194 0361 7E000000 		.4byte	0x7e
 1195 0365 08       		.byte	0x8
 1196 0366 0E       		.uleb128 0xe
 1197 0367 A5010000 		.4byte	.LASF56
ARM GAS  /var/folders/d2/nstgp4h54kz7g1l847x_b8wc0000gn/T//ccJo2A5k.s 			page 22


 1198 036b 07       		.byte	0x7
 1199 036c B9       		.byte	0xb9
 1200 036d 3E000000 		.4byte	0x3e
 1201 0371 0C       		.byte	0xc
 1202 0372 0E       		.uleb128 0xe
 1203 0373 44040000 		.4byte	.LASF57
 1204 0377 07       		.byte	0x7
 1205 0378 BA       		.byte	0xba
 1206 0379 3E000000 		.4byte	0x3e
 1207 037d 0E       		.byte	0xe
 1208 037e 11       		.uleb128 0x11
 1209 037f 5F626600 		.ascii	"_bf\000"
 1210 0383 07       		.byte	0x7
 1211 0384 BB       		.byte	0xbb
 1212 0385 0E030000 		.4byte	0x30e
 1213 0389 10       		.byte	0x10
 1214 038a 0E       		.uleb128 0xe
 1215 038b F7000000 		.4byte	.LASF58
 1216 038f 07       		.byte	0x7
 1217 0390 BC       		.byte	0xbc
 1218 0391 7E000000 		.4byte	0x7e
 1219 0395 18       		.byte	0x18
 1220 0396 0E       		.uleb128 0xe
 1221 0397 8C010000 		.4byte	.LASF59
 1222 039b 07       		.byte	0x7
 1223 039c C3       		.byte	0xc3
 1224 039d 62010000 		.4byte	0x162
 1225 03a1 1C       		.byte	0x1c
 1226 03a2 0E       		.uleb128 0xe
 1227 03a3 5A020000 		.4byte	.LASF60
 1228 03a7 07       		.byte	0x7
 1229 03a8 C5       		.byte	0xc5
 1230 03a9 BE050000 		.4byte	0x5be
 1231 03ad 20       		.byte	0x20
 1232 03ae 0E       		.uleb128 0xe
 1233 03af E0040000 		.4byte	.LASF61
 1234 03b3 07       		.byte	0x7
 1235 03b4 C7       		.byte	0xc7
 1236 03b5 E8050000 		.4byte	0x5e8
 1237 03b9 24       		.byte	0x24
 1238 03ba 0E       		.uleb128 0xe
 1239 03bb 97060000 		.4byte	.LASF62
 1240 03bf 07       		.byte	0x7
 1241 03c0 CA       		.byte	0xca
 1242 03c1 0C060000 		.4byte	0x60c
 1243 03c5 28       		.byte	0x28
 1244 03c6 0E       		.uleb128 0xe
 1245 03c7 0B080000 		.4byte	.LASF63
 1246 03cb 07       		.byte	0x7
 1247 03cc CB       		.byte	0xcb
 1248 03cd 26060000 		.4byte	0x626
 1249 03d1 2C       		.byte	0x2c
 1250 03d2 11       		.uleb128 0x11
 1251 03d3 5F756200 		.ascii	"_ub\000"
 1252 03d7 07       		.byte	0x7
 1253 03d8 CE       		.byte	0xce
 1254 03d9 0E030000 		.4byte	0x30e
ARM GAS  /var/folders/d2/nstgp4h54kz7g1l847x_b8wc0000gn/T//ccJo2A5k.s 			page 23


 1255 03dd 30       		.byte	0x30
 1256 03de 11       		.uleb128 0x11
 1257 03df 5F757000 		.ascii	"_up\000"
 1258 03e3 07       		.byte	0x7
 1259 03e4 CF       		.byte	0xcf
 1260 03e5 33030000 		.4byte	0x333
 1261 03e9 38       		.byte	0x38
 1262 03ea 11       		.uleb128 0x11
 1263 03eb 5F757200 		.ascii	"_ur\000"
 1264 03ef 07       		.byte	0x7
 1265 03f0 D0       		.byte	0xd0
 1266 03f1 7E000000 		.4byte	0x7e
 1267 03f5 3C       		.byte	0x3c
 1268 03f6 0E       		.uleb128 0xe
 1269 03f7 63010000 		.4byte	.LASF64
 1270 03fb 07       		.byte	0x7
 1271 03fc D3       		.byte	0xd3
 1272 03fd 2C060000 		.4byte	0x62c
 1273 0401 40       		.byte	0x40
 1274 0402 0E       		.uleb128 0xe
 1275 0403 D1070000 		.4byte	.LASF65
 1276 0407 07       		.byte	0x7
 1277 0408 D4       		.byte	0xd4
 1278 0409 3C060000 		.4byte	0x63c
 1279 040d 43       		.byte	0x43
 1280 040e 11       		.uleb128 0x11
 1281 040f 5F6C6200 		.ascii	"_lb\000"
 1282 0413 07       		.byte	0x7
 1283 0414 D7       		.byte	0xd7
 1284 0415 0E030000 		.4byte	0x30e
 1285 0419 44       		.byte	0x44
 1286 041a 0E       		.uleb128 0xe
 1287 041b BB010000 		.4byte	.LASF66
 1288 041f 07       		.byte	0x7
 1289 0420 DA       		.byte	0xda
 1290 0421 7E000000 		.4byte	0x7e
 1291 0425 4C       		.byte	0x4c
 1292 0426 0E       		.uleb128 0xe
 1293 0427 CC010000 		.4byte	.LASF67
 1294 042b 07       		.byte	0x7
 1295 042c DB       		.byte	0xdb
 1296 042d DA000000 		.4byte	0xda
 1297 0431 50       		.byte	0x50
 1298 0432 0E       		.uleb128 0xe
 1299 0433 BA000000 		.4byte	.LASF68
 1300 0437 07       		.byte	0x7
 1301 0438 DE       		.byte	0xde
 1302 0439 81040000 		.4byte	0x481
 1303 043d 54       		.byte	0x54
 1304 043e 0E       		.uleb128 0xe
 1305 043f CA040000 		.4byte	.LASF69
 1306 0443 07       		.byte	0x7
 1307 0444 E2       		.byte	0xe2
 1308 0445 57010000 		.4byte	0x157
 1309 0449 58       		.byte	0x58
 1310 044a 0E       		.uleb128 0xe
 1311 044b EF050000 		.4byte	.LASF70
ARM GAS  /var/folders/d2/nstgp4h54kz7g1l847x_b8wc0000gn/T//ccJo2A5k.s 			page 24


 1312 044f 07       		.byte	0x7
 1313 0450 E4       		.byte	0xe4
 1314 0451 4C010000 		.4byte	0x14c
 1315 0455 5C       		.byte	0x5c
 1316 0456 0E       		.uleb128 0xe
 1317 0457 D8040000 		.4byte	.LASF71
 1318 045b 07       		.byte	0x7
 1319 045c E5       		.byte	0xe5
 1320 045d 7E000000 		.4byte	0x7e
 1321 0461 64       		.byte	0x64
 1322 0462 00       		.byte	0
 1323 0463 15       		.uleb128 0x15
 1324 0464 7E000000 		.4byte	0x7e
 1325 0468 81040000 		.4byte	0x481
 1326 046c 16       		.uleb128 0x16
 1327 046d 81040000 		.4byte	0x481
 1328 0471 16       		.uleb128 0x16
 1329 0472 62010000 		.4byte	0x162
 1330 0476 16       		.uleb128 0x16
 1331 0477 64010000 		.4byte	0x164
 1332 047b 16       		.uleb128 0x16
 1333 047c 7E000000 		.4byte	0x7e
 1334 0480 00       		.byte	0
 1335 0481 06       		.uleb128 0x6
 1336 0482 04       		.byte	0x4
 1337 0483 8C040000 		.4byte	0x48c
 1338 0487 05       		.uleb128 0x5
 1339 0488 81040000 		.4byte	0x481
 1340 048c 17       		.uleb128 0x17
 1341 048d 72060000 		.4byte	.LASF72
 1342 0491 2804     		.2byte	0x428
 1343 0493 07       		.byte	0x7
 1344 0494 3902     		.2byte	0x239
 1345 0496 BE050000 		.4byte	0x5be
 1346 049a 18       		.uleb128 0x18
 1347 049b B1060000 		.4byte	.LASF73
 1348 049f 07       		.byte	0x7
 1349 04a0 3B02     		.2byte	0x23b
 1350 04a2 7E000000 		.4byte	0x7e
 1351 04a6 00       		.byte	0
 1352 04a7 18       		.uleb128 0x18
 1353 04a8 B4010000 		.4byte	.LASF74
 1354 04ac 07       		.byte	0x7
 1355 04ad 4002     		.2byte	0x240
 1356 04af 93060000 		.4byte	0x693
 1357 04b3 04       		.byte	0x4
 1358 04b4 18       		.uleb128 0x18
 1359 04b5 0E040000 		.4byte	.LASF75
 1360 04b9 07       		.byte	0x7
 1361 04ba 4002     		.2byte	0x240
 1362 04bc 93060000 		.4byte	0x693
 1363 04c0 08       		.byte	0x8
 1364 04c1 18       		.uleb128 0x18
 1365 04c2 3B020000 		.4byte	.LASF76
 1366 04c6 07       		.byte	0x7
 1367 04c7 4002     		.2byte	0x240
 1368 04c9 93060000 		.4byte	0x693
ARM GAS  /var/folders/d2/nstgp4h54kz7g1l847x_b8wc0000gn/T//ccJo2A5k.s 			page 25


 1369 04cd 0C       		.byte	0xc
 1370 04ce 18       		.uleb128 0x18
 1371 04cf 24060000 		.4byte	.LASF77
 1372 04d3 07       		.byte	0x7
 1373 04d4 4202     		.2byte	0x242
 1374 04d6 7E000000 		.4byte	0x7e
 1375 04da 10       		.byte	0x10
 1376 04db 18       		.uleb128 0x18
 1377 04dc 8D000000 		.4byte	.LASF78
 1378 04e0 07       		.byte	0x7
 1379 04e1 4302     		.2byte	0x243
 1380 04e3 75080000 		.4byte	0x875
 1381 04e7 14       		.byte	0x14
 1382 04e8 18       		.uleb128 0x18
 1383 04e9 40060000 		.4byte	.LASF79
 1384 04ed 07       		.byte	0x7
 1385 04ee 4602     		.2byte	0x246
 1386 04f0 7E000000 		.4byte	0x7e
 1387 04f4 30       		.byte	0x30
 1388 04f5 18       		.uleb128 0x18
 1389 04f6 2E060000 		.4byte	.LASF80
 1390 04fa 07       		.byte	0x7
 1391 04fb 4702     		.2byte	0x247
 1392 04fd 8A080000 		.4byte	0x88a
 1393 0501 34       		.byte	0x34
 1394 0502 18       		.uleb128 0x18
 1395 0503 28050000 		.4byte	.LASF81
 1396 0507 07       		.byte	0x7
 1397 0508 4902     		.2byte	0x249
 1398 050a 7E000000 		.4byte	0x7e
 1399 050e 38       		.byte	0x38
 1400 050f 18       		.uleb128 0x18
 1401 0510 36060000 		.4byte	.LASF82
 1402 0514 07       		.byte	0x7
 1403 0515 4B02     		.2byte	0x24b
 1404 0517 9B080000 		.4byte	0x89b
 1405 051b 3C       		.byte	0x3c
 1406 051c 18       		.uleb128 0x18
 1407 051d A4040000 		.4byte	.LASF83
 1408 0521 07       		.byte	0x7
 1409 0522 4E02     		.2byte	0x24e
 1410 0524 D4010000 		.4byte	0x1d4
 1411 0528 40       		.byte	0x40
 1412 0529 18       		.uleb128 0x18
 1413 052a 60020000 		.4byte	.LASF84
 1414 052e 07       		.byte	0x7
 1415 052f 4F02     		.2byte	0x24f
 1416 0531 7E000000 		.4byte	0x7e
 1417 0535 44       		.byte	0x44
 1418 0536 18       		.uleb128 0x18
 1419 0537 31080000 		.4byte	.LASF85
 1420 053b 07       		.byte	0x7
 1421 053c 5002     		.2byte	0x250
 1422 053e D4010000 		.4byte	0x1d4
 1423 0542 48       		.byte	0x48
 1424 0543 18       		.uleb128 0x18
 1425 0544 5A050000 		.4byte	.LASF86
ARM GAS  /var/folders/d2/nstgp4h54kz7g1l847x_b8wc0000gn/T//ccJo2A5k.s 			page 26


 1426 0548 07       		.byte	0x7
 1427 0549 5102     		.2byte	0x251
 1428 054b A1080000 		.4byte	0x8a1
 1429 054f 4C       		.byte	0x4c
 1430 0550 18       		.uleb128 0x18
 1431 0551 16040000 		.4byte	.LASF87
 1432 0555 07       		.byte	0x7
 1433 0556 5402     		.2byte	0x254
 1434 0558 7E000000 		.4byte	0x7e
 1435 055c 50       		.byte	0x50
 1436 055d 18       		.uleb128 0x18
 1437 055e C4010000 		.4byte	.LASF88
 1438 0562 07       		.byte	0x7
 1439 0563 5502     		.2byte	0x255
 1440 0565 64010000 		.4byte	0x164
 1441 0569 54       		.byte	0x54
 1442 056a 18       		.uleb128 0x18
 1443 056b A6050000 		.4byte	.LASF89
 1444 056f 07       		.byte	0x7
 1445 0570 7802     		.2byte	0x278
 1446 0572 53080000 		.4byte	0x853
 1447 0576 58       		.byte	0x58
 1448 0577 19       		.uleb128 0x19
 1449 0578 16050000 		.4byte	.LASF49
 1450 057c 07       		.byte	0x7
 1451 057d 7C02     		.2byte	0x27c
 1452 057f F1020000 		.4byte	0x2f1
 1453 0583 4801     		.2byte	0x148
 1454 0585 19       		.uleb128 0x19
 1455 0586 82040000 		.4byte	.LASF90
 1456 058a 07       		.byte	0x7
 1457 058b 7D02     		.2byte	0x27d
 1458 058d B3020000 		.4byte	0x2b3
 1459 0591 4C01     		.2byte	0x14c
 1460 0593 19       		.uleb128 0x19
 1461 0594 C7070000 		.4byte	.LASF91
 1462 0598 07       		.byte	0x7
 1463 0599 8102     		.2byte	0x281
 1464 059b B2080000 		.4byte	0x8b2
 1465 059f DC02     		.2byte	0x2dc
 1466 05a1 19       		.uleb128 0x19
 1467 05a2 94010000 		.4byte	.LASF92
 1468 05a6 07       		.byte	0x7
 1469 05a7 8602     		.2byte	0x286
 1470 05a9 58060000 		.4byte	0x658
 1471 05ad E002     		.2byte	0x2e0
 1472 05af 19       		.uleb128 0x19
 1473 05b0 79010000 		.4byte	.LASF93
 1474 05b4 07       		.byte	0x7
 1475 05b5 8802     		.2byte	0x288
 1476 05b7 BE080000 		.4byte	0x8be
 1477 05bb EC02     		.2byte	0x2ec
 1478 05bd 00       		.byte	0
 1479 05be 06       		.uleb128 0x6
 1480 05bf 04       		.byte	0x4
 1481 05c0 63040000 		.4byte	0x463
 1482 05c4 15       		.uleb128 0x15
ARM GAS  /var/folders/d2/nstgp4h54kz7g1l847x_b8wc0000gn/T//ccJo2A5k.s 			page 27


 1483 05c5 7E000000 		.4byte	0x7e
 1484 05c9 E2050000 		.4byte	0x5e2
 1485 05cd 16       		.uleb128 0x16
 1486 05ce 81040000 		.4byte	0x481
 1487 05d2 16       		.uleb128 0x16
 1488 05d3 62010000 		.4byte	0x162
 1489 05d7 16       		.uleb128 0x16
 1490 05d8 E2050000 		.4byte	0x5e2
 1491 05dc 16       		.uleb128 0x16
 1492 05dd 7E000000 		.4byte	0x7e
 1493 05e1 00       		.byte	0
 1494 05e2 06       		.uleb128 0x6
 1495 05e3 04       		.byte	0x4
 1496 05e4 71010000 		.4byte	0x171
 1497 05e8 06       		.uleb128 0x6
 1498 05e9 04       		.byte	0x4
 1499 05ea C4050000 		.4byte	0x5c4
 1500 05ee 15       		.uleb128 0x15
 1501 05ef E5000000 		.4byte	0xe5
 1502 05f3 0C060000 		.4byte	0x60c
 1503 05f7 16       		.uleb128 0x16
 1504 05f8 81040000 		.4byte	0x481
 1505 05fc 16       		.uleb128 0x16
 1506 05fd 62010000 		.4byte	0x162
 1507 0601 16       		.uleb128 0x16
 1508 0602 E5000000 		.4byte	0xe5
 1509 0606 16       		.uleb128 0x16
 1510 0607 7E000000 		.4byte	0x7e
 1511 060b 00       		.byte	0
 1512 060c 06       		.uleb128 0x6
 1513 060d 04       		.byte	0x4
 1514 060e EE050000 		.4byte	0x5ee
 1515 0612 15       		.uleb128 0x15
 1516 0613 7E000000 		.4byte	0x7e
 1517 0617 26060000 		.4byte	0x626
 1518 061b 16       		.uleb128 0x16
 1519 061c 81040000 		.4byte	0x481
 1520 0620 16       		.uleb128 0x16
 1521 0621 62010000 		.4byte	0x162
 1522 0625 00       		.byte	0
 1523 0626 06       		.uleb128 0x6
 1524 0627 04       		.byte	0x4
 1525 0628 12060000 		.4byte	0x612
 1526 062c 0B       		.uleb128 0xb
 1527 062d 37000000 		.4byte	0x37
 1528 0631 3C060000 		.4byte	0x63c
 1529 0635 0C       		.uleb128 0xc
 1530 0636 85000000 		.4byte	0x85
 1531 063a 02       		.byte	0x2
 1532 063b 00       		.byte	0
 1533 063c 0B       		.uleb128 0xb
 1534 063d 37000000 		.4byte	0x37
 1535 0641 4C060000 		.4byte	0x64c
 1536 0645 0C       		.uleb128 0xc
 1537 0646 85000000 		.4byte	0x85
 1538 064a 00       		.byte	0
 1539 064b 00       		.byte	0
ARM GAS  /var/folders/d2/nstgp4h54kz7g1l847x_b8wc0000gn/T//ccJo2A5k.s 			page 28


 1540 064c 08       		.uleb128 0x8
 1541 064d D5050000 		.4byte	.LASF94
 1542 0651 07       		.byte	0x7
 1543 0652 1F01     		.2byte	0x11f
 1544 0654 39030000 		.4byte	0x339
 1545 0658 1A       		.uleb128 0x1a
 1546 0659 9F070000 		.4byte	.LASF95
 1547 065d 0C       		.byte	0xc
 1548 065e 07       		.byte	0x7
 1549 065f 2301     		.2byte	0x123
 1550 0661 8D060000 		.4byte	0x68d
 1551 0665 18       		.uleb128 0x18
 1552 0666 10070000 		.4byte	.LASF29
 1553 066a 07       		.byte	0x7
 1554 066b 2501     		.2byte	0x125
 1555 066d 8D060000 		.4byte	0x68d
 1556 0671 00       		.byte	0
 1557 0672 18       		.uleb128 0x18
 1558 0673 57040000 		.4byte	.LASF96
 1559 0677 07       		.byte	0x7
 1560 0678 2601     		.2byte	0x126
 1561 067a 7E000000 		.4byte	0x7e
 1562 067e 04       		.byte	0x4
 1563 067f 18       		.uleb128 0x18
 1564 0680 CF050000 		.4byte	.LASF97
 1565 0684 07       		.byte	0x7
 1566 0685 2701     		.2byte	0x127
 1567 0687 93060000 		.4byte	0x693
 1568 068b 08       		.byte	0x8
 1569 068c 00       		.byte	0
 1570 068d 06       		.uleb128 0x6
 1571 068e 04       		.byte	0x4
 1572 068f 58060000 		.4byte	0x658
 1573 0693 06       		.uleb128 0x6
 1574 0694 04       		.byte	0x4
 1575 0695 4C060000 		.4byte	0x64c
 1576 0699 1A       		.uleb128 0x1a
 1577 069a 78000000 		.4byte	.LASF98
 1578 069e 0E       		.byte	0xe
 1579 069f 07       		.byte	0x7
 1580 06a0 3F01     		.2byte	0x13f
 1581 06a2 CE060000 		.4byte	0x6ce
 1582 06a6 18       		.uleb128 0x18
 1583 06a7 79060000 		.4byte	.LASF99
 1584 06ab 07       		.byte	0x7
 1585 06ac 4001     		.2byte	0x140
 1586 06ae CE060000 		.4byte	0x6ce
 1587 06b2 00       		.byte	0
 1588 06b3 18       		.uleb128 0x18
 1589 06b4 0A070000 		.4byte	.LASF100
 1590 06b8 07       		.byte	0x7
 1591 06b9 4101     		.2byte	0x141
 1592 06bb CE060000 		.4byte	0x6ce
 1593 06bf 06       		.byte	0x6
 1594 06c0 18       		.uleb128 0x18
 1595 06c1 34070000 		.4byte	.LASF101
 1596 06c5 07       		.byte	0x7
ARM GAS  /var/folders/d2/nstgp4h54kz7g1l847x_b8wc0000gn/T//ccJo2A5k.s 			page 29


 1597 06c6 4201     		.2byte	0x142
 1598 06c8 45000000 		.4byte	0x45
 1599 06cc 0C       		.byte	0xc
 1600 06cd 00       		.byte	0
 1601 06ce 0B       		.uleb128 0xb
 1602 06cf 45000000 		.4byte	0x45
 1603 06d3 DE060000 		.4byte	0x6de
 1604 06d7 0C       		.uleb128 0xc
 1605 06d8 85000000 		.4byte	0x85
 1606 06dc 02       		.byte	0x2
 1607 06dd 00       		.byte	0
 1608 06de 1B       		.uleb128 0x1b
 1609 06df D0       		.byte	0xd0
 1610 06e0 07       		.byte	0x7
 1611 06e1 5902     		.2byte	0x259
 1612 06e3 DF070000 		.4byte	0x7df
 1613 06e7 18       		.uleb128 0x18
 1614 06e8 5F070000 		.4byte	.LASF102
 1615 06ec 07       		.byte	0x7
 1616 06ed 5B02     		.2byte	0x25b
 1617 06ef 85000000 		.4byte	0x85
 1618 06f3 00       		.byte	0
 1619 06f4 18       		.uleb128 0x18
 1620 06f5 16070000 		.4byte	.LASF103
 1621 06f9 07       		.byte	0x7
 1622 06fa 5C02     		.2byte	0x25c
 1623 06fc 64010000 		.4byte	0x164
 1624 0700 04       		.byte	0x4
 1625 0701 18       		.uleb128 0x18
 1626 0702 97040000 		.4byte	.LASF104
 1627 0706 07       		.byte	0x7
 1628 0707 5D02     		.2byte	0x25d
 1629 0709 DF070000 		.4byte	0x7df
 1630 070d 08       		.byte	0x8
 1631 070e 18       		.uleb128 0x18
 1632 070f EA070000 		.4byte	.LASF105
 1633 0713 07       		.byte	0x7
 1634 0714 5E02     		.2byte	0x25e
 1635 0716 EA010000 		.4byte	0x1ea
 1636 071a 24       		.byte	0x24
 1637 071b 18       		.uleb128 0x18
 1638 071c 4B020000 		.4byte	.LASF106
 1639 0720 07       		.byte	0x7
 1640 0721 5F02     		.2byte	0x25f
 1641 0723 7E000000 		.4byte	0x7e
 1642 0727 48       		.byte	0x48
 1643 0728 18       		.uleb128 0x18
 1644 0729 F8050000 		.4byte	.LASF107
 1645 072d 07       		.byte	0x7
 1646 072e 6002     		.2byte	0x260
 1647 0730 77000000 		.4byte	0x77
 1648 0734 50       		.byte	0x50
 1649 0735 18       		.uleb128 0x18
 1650 0736 12080000 		.4byte	.LASF108
 1651 073a 07       		.byte	0x7
 1652 073b 6102     		.2byte	0x261
 1653 073d 99060000 		.4byte	0x699
ARM GAS  /var/folders/d2/nstgp4h54kz7g1l847x_b8wc0000gn/T//ccJo2A5k.s 			page 30


 1654 0741 58       		.byte	0x58
 1655 0742 18       		.uleb128 0x18
 1656 0743 17060000 		.4byte	.LASF109
 1657 0747 07       		.byte	0x7
 1658 0748 6202     		.2byte	0x262
 1659 074a 4C010000 		.4byte	0x14c
 1660 074e 68       		.byte	0x68
 1661 074f 18       		.uleb128 0x18
 1662 0750 23080000 		.4byte	.LASF110
 1663 0754 07       		.byte	0x7
 1664 0755 6302     		.2byte	0x263
 1665 0757 4C010000 		.4byte	0x14c
 1666 075b 70       		.byte	0x70
 1667 075c 18       		.uleb128 0x18
 1668 075d 64050000 		.4byte	.LASF111
 1669 0761 07       		.byte	0x7
 1670 0762 6402     		.2byte	0x264
 1671 0764 4C010000 		.4byte	0x14c
 1672 0768 78       		.byte	0x78
 1673 0769 18       		.uleb128 0x18
 1674 076a B5070000 		.4byte	.LASF112
 1675 076e 07       		.byte	0x7
 1676 076f 6502     		.2byte	0x265
 1677 0771 EF070000 		.4byte	0x7ef
 1678 0775 80       		.byte	0x80
 1679 0776 18       		.uleb128 0x18
 1680 0777 8B040000 		.4byte	.LASF113
 1681 077b 07       		.byte	0x7
 1682 077c 6602     		.2byte	0x266
 1683 077e FF070000 		.4byte	0x7ff
 1684 0782 88       		.byte	0x88
 1685 0783 18       		.uleb128 0x18
 1686 0784 AD000000 		.4byte	.LASF114
 1687 0788 07       		.byte	0x7
 1688 0789 6702     		.2byte	0x267
 1689 078b 7E000000 		.4byte	0x7e
 1690 078f A0       		.byte	0xa0
 1691 0790 18       		.uleb128 0x18
 1692 0791 E5010000 		.4byte	.LASF115
 1693 0795 07       		.byte	0x7
 1694 0796 6802     		.2byte	0x268
 1695 0798 4C010000 		.4byte	0x14c
 1696 079c A4       		.byte	0xa4
 1697 079d 18       		.uleb128 0x18
 1698 079e 16010000 		.4byte	.LASF116
 1699 07a2 07       		.byte	0x7
 1700 07a3 6902     		.2byte	0x269
 1701 07a5 4C010000 		.4byte	0x14c
 1702 07a9 AC       		.byte	0xac
 1703 07aa 18       		.uleb128 0x18
 1704 07ab D4010000 		.4byte	.LASF117
 1705 07af 07       		.byte	0x7
 1706 07b0 6A02     		.2byte	0x26a
 1707 07b2 4C010000 		.4byte	0x14c
 1708 07b6 B4       		.byte	0xb4
 1709 07b7 18       		.uleb128 0x18
 1710 07b8 C0000000 		.4byte	.LASF118
ARM GAS  /var/folders/d2/nstgp4h54kz7g1l847x_b8wc0000gn/T//ccJo2A5k.s 			page 31


 1711 07bc 07       		.byte	0x7
 1712 07bd 6B02     		.2byte	0x26b
 1713 07bf 4C010000 		.4byte	0x14c
 1714 07c3 BC       		.byte	0xbc
 1715 07c4 18       		.uleb128 0x18
 1716 07c5 CF000000 		.4byte	.LASF119
 1717 07c9 07       		.byte	0x7
 1718 07ca 6C02     		.2byte	0x26c
 1719 07cc 4C010000 		.4byte	0x14c
 1720 07d0 C4       		.byte	0xc4
 1721 07d1 18       		.uleb128 0x18
 1722 07d2 AB050000 		.4byte	.LASF120
 1723 07d6 07       		.byte	0x7
 1724 07d7 6D02     		.2byte	0x26d
 1725 07d9 7E000000 		.4byte	0x7e
 1726 07dd CC       		.byte	0xcc
 1727 07de 00       		.byte	0
 1728 07df 0B       		.uleb128 0xb
 1729 07e0 6A010000 		.4byte	0x16a
 1730 07e4 EF070000 		.4byte	0x7ef
 1731 07e8 0C       		.uleb128 0xc
 1732 07e9 85000000 		.4byte	0x85
 1733 07ed 19       		.byte	0x19
 1734 07ee 00       		.byte	0
 1735 07ef 0B       		.uleb128 0xb
 1736 07f0 6A010000 		.4byte	0x16a
 1737 07f4 FF070000 		.4byte	0x7ff
 1738 07f8 0C       		.uleb128 0xc
 1739 07f9 85000000 		.4byte	0x85
 1740 07fd 07       		.byte	0x7
 1741 07fe 00       		.byte	0
 1742 07ff 0B       		.uleb128 0xb
 1743 0800 6A010000 		.4byte	0x16a
 1744 0804 0F080000 		.4byte	0x80f
 1745 0808 0C       		.uleb128 0xc
 1746 0809 85000000 		.4byte	0x85
 1747 080d 17       		.byte	0x17
 1748 080e 00       		.byte	0
 1749 080f 1B       		.uleb128 0x1b
 1750 0810 F0       		.byte	0xf0
 1751 0811 07       		.byte	0x7
 1752 0812 7202     		.2byte	0x272
 1753 0814 33080000 		.4byte	0x833
 1754 0818 18       		.uleb128 0x18
 1755 0819 06050000 		.4byte	.LASF121
 1756 081d 07       		.byte	0x7
 1757 081e 7502     		.2byte	0x275
 1758 0820 33080000 		.4byte	0x833
 1759 0824 00       		.byte	0
 1760 0825 18       		.uleb128 0x18
 1761 0826 F1040000 		.4byte	.LASF122
 1762 082a 07       		.byte	0x7
 1763 082b 7602     		.2byte	0x276
 1764 082d 43080000 		.4byte	0x843
 1765 0831 78       		.byte	0x78
 1766 0832 00       		.byte	0
 1767 0833 0B       		.uleb128 0xb
ARM GAS  /var/folders/d2/nstgp4h54kz7g1l847x_b8wc0000gn/T//ccJo2A5k.s 			page 32


 1768 0834 33030000 		.4byte	0x333
 1769 0838 43080000 		.4byte	0x843
 1770 083c 0C       		.uleb128 0xc
 1771 083d 85000000 		.4byte	0x85
 1772 0841 1D       		.byte	0x1d
 1773 0842 00       		.byte	0
 1774 0843 0B       		.uleb128 0xb
 1775 0844 85000000 		.4byte	0x85
 1776 0848 53080000 		.4byte	0x853
 1777 084c 0C       		.uleb128 0xc
 1778 084d 85000000 		.4byte	0x85
 1779 0851 1D       		.byte	0x1d
 1780 0852 00       		.byte	0
 1781 0853 1C       		.uleb128 0x1c
 1782 0854 F0       		.byte	0xf0
 1783 0855 07       		.byte	0x7
 1784 0856 5702     		.2byte	0x257
 1785 0858 75080000 		.4byte	0x875
 1786 085c 1D       		.uleb128 0x1d
 1787 085d 72060000 		.4byte	.LASF72
 1788 0861 07       		.byte	0x7
 1789 0862 6E02     		.2byte	0x26e
 1790 0864 DE060000 		.4byte	0x6de
 1791 0868 1D       		.uleb128 0x1d
 1792 0869 D7070000 		.4byte	.LASF123
 1793 086d 07       		.byte	0x7
 1794 086e 7702     		.2byte	0x277
 1795 0870 0F080000 		.4byte	0x80f
 1796 0874 00       		.byte	0
 1797 0875 0B       		.uleb128 0xb
 1798 0876 6A010000 		.4byte	0x16a
 1799 087a 85080000 		.4byte	0x885
 1800 087e 0C       		.uleb128 0xc
 1801 087f 85000000 		.4byte	0x85
 1802 0883 18       		.byte	0x18
 1803 0884 00       		.byte	0
 1804 0885 07       		.uleb128 0x7
 1805 0886 0B010000 		.4byte	.LASF125
 1806 088a 06       		.uleb128 0x6
 1807 088b 04       		.byte	0x4
 1808 088c 85080000 		.4byte	0x885
 1809 0890 1E       		.uleb128 0x1e
 1810 0891 9B080000 		.4byte	0x89b
 1811 0895 16       		.uleb128 0x16
 1812 0896 81040000 		.4byte	0x481
 1813 089a 00       		.byte	0
 1814 089b 06       		.uleb128 0x6
 1815 089c 04       		.byte	0x4
 1816 089d 90080000 		.4byte	0x890
 1817 08a1 06       		.uleb128 0x6
 1818 08a2 04       		.byte	0x4
 1819 08a3 D4010000 		.4byte	0x1d4
 1820 08a7 1E       		.uleb128 0x1e
 1821 08a8 B2080000 		.4byte	0x8b2
 1822 08ac 16       		.uleb128 0x16
 1823 08ad 7E000000 		.4byte	0x7e
 1824 08b1 00       		.byte	0
ARM GAS  /var/folders/d2/nstgp4h54kz7g1l847x_b8wc0000gn/T//ccJo2A5k.s 			page 33


 1825 08b2 06       		.uleb128 0x6
 1826 08b3 04       		.byte	0x4
 1827 08b4 B8080000 		.4byte	0x8b8
 1828 08b8 06       		.uleb128 0x6
 1829 08b9 04       		.byte	0x4
 1830 08ba A7080000 		.4byte	0x8a7
 1831 08be 0B       		.uleb128 0xb
 1832 08bf 4C060000 		.4byte	0x64c
 1833 08c3 CE080000 		.4byte	0x8ce
 1834 08c7 0C       		.uleb128 0xc
 1835 08c8 85000000 		.4byte	0x85
 1836 08cc 02       		.byte	0x2
 1837 08cd 00       		.byte	0
 1838 08ce 1F       		.uleb128 0x1f
 1839 08cf 9D060000 		.4byte	.LASF126
 1840 08d3 07       		.byte	0x7
 1841 08d4 0703     		.2byte	0x307
 1842 08d6 81040000 		.4byte	0x481
 1843 08da 1F       		.uleb128 0x1f
 1844 08db 41070000 		.4byte	.LASF127
 1845 08df 07       		.byte	0x7
 1846 08e0 0803     		.2byte	0x308
 1847 08e2 87040000 		.4byte	0x487
 1848 08e6 06       		.uleb128 0x6
 1849 08e7 04       		.byte	0x4
 1850 08e8 EC080000 		.4byte	0x8ec
 1851 08ec 20       		.uleb128 0x20
 1852 08ed 21       		.uleb128 0x21
 1853 08ee 1E050000 		.4byte	.LASF128
 1854 08f2 08       		.byte	0x8
 1855 08f3 63       		.byte	0x63
 1856 08f4 64010000 		.4byte	0x164
 1857 08f8 03       		.uleb128 0x3
 1858 08f9 34010000 		.4byte	.LASF129
 1859 08fd 09       		.byte	0x9
 1860 08fe 0F       		.byte	0xf
 1861 08ff 03090000 		.4byte	0x903
 1862 0903 06       		.uleb128 0x6
 1863 0904 04       		.byte	0x4
 1864 0905 09090000 		.4byte	0x909
 1865 0909 1E       		.uleb128 0x1e
 1866 090a 1E090000 		.4byte	0x91e
 1867 090e 16       		.uleb128 0x16
 1868 090f E6080000 		.4byte	0x8e6
 1869 0913 16       		.uleb128 0x16
 1870 0914 B2000000 		.4byte	0xb2
 1871 0918 16       		.uleb128 0x16
 1872 0919 62010000 		.4byte	0x162
 1873 091d 00       		.byte	0
 1874 091e 0D       		.uleb128 0xd
 1875 091f 18       		.byte	0x18
 1876 0920 09       		.byte	0x9
 1877 0921 15       		.byte	0x15
 1878 0922 7B090000 		.4byte	0x97b
 1879 0926 0E       		.uleb128 0xe
 1880 0927 03060000 		.4byte	.LASF130
 1881 092b 09       		.byte	0x9
ARM GAS  /var/folders/d2/nstgp4h54kz7g1l847x_b8wc0000gn/T//ccJo2A5k.s 			page 34


 1882 092c 16       		.byte	0x16
 1883 092d 7B090000 		.4byte	0x97b
 1884 0931 00       		.byte	0
 1885 0932 0E       		.uleb128 0xe
 1886 0933 5E040000 		.4byte	.LASF131
 1887 0937 09       		.byte	0x9
 1888 0938 17       		.byte	0x17
 1889 0939 B2000000 		.4byte	0xb2
 1890 093d 04       		.byte	0x4
 1891 093e 0E       		.uleb128 0xe
 1892 093f F4060000 		.4byte	.LASF132
 1893 0943 09       		.byte	0x9
 1894 0944 18       		.byte	0x18
 1895 0945 A7000000 		.4byte	0xa7
 1896 0949 08       		.byte	0x8
 1897 094a 0E       		.uleb128 0xe
 1898 094b 76040000 		.4byte	.LASF133
 1899 094f 09       		.byte	0x9
 1900 0950 19       		.byte	0x19
 1901 0951 F8080000 		.4byte	0x8f8
 1902 0955 0C       		.byte	0xc
 1903 0956 0E       		.uleb128 0xe
 1904 0957 80000000 		.4byte	.LASF134
 1905 095b 09       		.byte	0x9
 1906 095c 1A       		.byte	0x1a
 1907 095d 62010000 		.4byte	0x162
 1908 0961 10       		.byte	0x10
 1909 0962 0E       		.uleb128 0xe
 1910 0963 54070000 		.4byte	.LASF135
 1911 0967 09       		.byte	0x9
 1912 0968 1B       		.byte	0x1b
 1913 0969 81090000 		.4byte	0x981
 1914 096d 14       		.byte	0x14
 1915 096e 0E       		.uleb128 0xe
 1916 096f B2040000 		.4byte	.LASF136
 1917 0973 09       		.byte	0x9
 1918 0974 1C       		.byte	0x1c
 1919 0975 81090000 		.4byte	0x981
 1920 0979 15       		.byte	0x15
 1921 097a 00       		.byte	0
 1922 097b 06       		.uleb128 0x6
 1923 097c 04       		.byte	0x4
 1924 097d 8C000000 		.4byte	0x8c
 1925 0981 02       		.uleb128 0x2
 1926 0982 01       		.byte	0x1
 1927 0983 02       		.byte	0x2
 1928 0984 8A050000 		.4byte	.LASF137
 1929 0988 03       		.uleb128 0x3
 1930 0989 72070000 		.4byte	.LASF138
 1931 098d 09       		.byte	0x9
 1932 098e 1D       		.byte	0x1d
 1933 098f 1E090000 		.4byte	0x91e
 1934 0993 0B       		.uleb128 0xb
 1935 0994 97000000 		.4byte	0x97
 1936 0998 A3090000 		.4byte	0x9a3
 1937 099c 0C       		.uleb128 0xc
 1938 099d 85000000 		.4byte	0x85
ARM GAS  /var/folders/d2/nstgp4h54kz7g1l847x_b8wc0000gn/T//ccJo2A5k.s 			page 35


 1939 09a1 01       		.byte	0x1
 1940 09a2 00       		.byte	0
 1941 09a3 05       		.uleb128 0x5
 1942 09a4 93090000 		.4byte	0x993
 1943 09a8 22       		.uleb128 0x22
 1944 09a9 A5070000 		.4byte	.LASF139
 1945 09ad 01       		.byte	0x1
 1946 09ae 11       		.byte	0x11
 1947 09af A3090000 		.4byte	0x9a3
 1948 09b3 05       		.uleb128 0x5
 1949 09b4 03       		.byte	0x3
 1950 09b5 00000000 		.4byte	esc_end
 1951 09b9 22       		.uleb128 0x22
 1952 09ba 1E040000 		.4byte	.LASF140
 1953 09be 01       		.byte	0x1
 1954 09bf 12       		.byte	0x12
 1955 09c0 A3090000 		.4byte	0x9a3
 1956 09c4 05       		.uleb128 0x5
 1957 09c5 03       		.byte	0x3
 1958 09c6 00000000 		.4byte	esc_esc
 1959 09ca 23       		.uleb128 0x23
 1960 09cb 72050000 		.4byte	.LASF159
 1961 09cf 01       		.byte	0x1
 1962 09d0 5B       		.byte	0x5b
 1963 09d1 7E000000 		.4byte	0x7e
 1964 09d5 00000000 		.4byte	.LFB6
 1965 09d9 24010000 		.4byte	.LFE6-.LFB6
 1966 09dd 01       		.uleb128 0x1
 1967 09de 9C       		.byte	0x9c
 1968 09df CD0A0000 		.4byte	0xacd
 1969 09e3 24       		.uleb128 0x24
 1970 09e4 6800     		.ascii	"h\000"
 1971 09e6 01       		.byte	0x1
 1972 09e7 5B       		.byte	0x5b
 1973 09e8 CD0A0000 		.4byte	0xacd
 1974 09ec 00000000 		.4byte	.LLST23
 1975 09f0 24       		.uleb128 0x24
 1976 09f1 696E00   		.ascii	"in\000"
 1977 09f4 01       		.byte	0x1
 1978 09f5 5B       		.byte	0x5b
 1979 09f6 E6080000 		.4byte	0x8e6
 1980 09fa 5B000000 		.4byte	.LLST24
 1981 09fe 24       		.uleb128 0x24
 1982 09ff 6C656E00 		.ascii	"len\000"
 1983 0a03 01       		.byte	0x1
 1984 0a04 5C       		.byte	0x5c
 1985 0a05 B2000000 		.4byte	0xb2
 1986 0a09 95000000 		.4byte	.LLST25
 1987 0a0d 25       		.uleb128 0x25
 1988 0a0e 3A050000 		.4byte	.LASF141
 1989 0a12 01       		.byte	0x1
 1990 0a13 5E       		.byte	0x5e
 1991 0a14 D30A0000 		.4byte	0xad3
 1992 0a18 60010000 		.4byte	.LLST26
 1993 0a1c 25       		.uleb128 0x25
 1994 0a1d 98000000 		.4byte	.LASF142
 1995 0a21 01       		.byte	0x1
ARM GAS  /var/folders/d2/nstgp4h54kz7g1l847x_b8wc0000gn/T//ccJo2A5k.s 			page 36


 1996 0a22 5F       		.byte	0x5f
 1997 0a23 7E000000 		.4byte	0x7e
 1998 0a27 C4010000 		.4byte	.LLST27
 1999 0a2b 26       		.uleb128 0x26
 2000 0a2c 18000000 		.4byte	.Ldebug_ranges0+0x18
 2001 0a30 C30A0000 		.4byte	0xac3
 2002 0a34 25       		.uleb128 0x25
 2003 0a35 4A040000 		.4byte	.LASF143
 2004 0a39 01       		.byte	0x1
 2005 0a3a 66       		.byte	0x66
 2006 0a3b 7E000000 		.4byte	0x7e
 2007 0a3f FC010000 		.4byte	.LLST28
 2008 0a43 26       		.uleb128 0x26
 2009 0a44 30000000 		.4byte	.Ldebug_ranges0+0x30
 2010 0a48 A90A0000 		.4byte	0xaa9
 2011 0a4c 27       		.uleb128 0x27
 2012 0a4d 63726300 		.ascii	"crc\000"
 2013 0a51 01       		.byte	0x1
 2014 0a52 68       		.byte	0x68
 2015 0a53 A7000000 		.4byte	0xa7
 2016 0a57 25       		.uleb128 0x25
 2017 0a58 0A060000 		.4byte	.LASF144
 2018 0a5c 01       		.byte	0x1
 2019 0a5d 69       		.byte	0x69
 2020 0a5e A7000000 		.4byte	0xa7
 2021 0a62 32020000 		.4byte	.LLST29
 2022 0a66 28       		.uleb128 0x28
 2023 0a67 F80D0000 		.4byte	0xdf8
 2024 0a6b 72000000 		.4byte	.LBB18
 2025 0a6f 08000000 		.4byte	.LBE18-.LBB18
 2026 0a73 01       		.byte	0x1
 2027 0a74 68       		.byte	0x68
 2028 0a75 9C0A0000 		.4byte	0xa9c
 2029 0a79 29       		.uleb128 0x29
 2030 0a7a 130E0000 		.4byte	0xe13
 2031 0a7e 98030000 		.4byte	.LLST30
 2032 0a82 29       		.uleb128 0x29
 2033 0a83 080E0000 		.4byte	0xe08
 2034 0a87 AB030000 		.4byte	.LLST31
 2035 0a8b 2A       		.uleb128 0x2a
 2036 0a8c 7A000000 		.4byte	.LVL68
 2037 0a90 1F0E0000 		.4byte	0xe1f
 2038 0a94 2B       		.uleb128 0x2b
 2039 0a95 01       		.uleb128 0x1
 2040 0a96 52       		.byte	0x52
 2041 0a97 02       		.uleb128 0x2
 2042 0a98 7B       		.byte	0x7b
 2043 0a99 00       		.sleb128 0
 2044 0a9a 00       		.byte	0
 2045 0a9b 00       		.byte	0
 2046 0a9c 2C       		.uleb128 0x2c
 2047 0a9d AC000000 		.4byte	.LVL73
 2048 0aa1 2B       		.uleb128 0x2b
 2049 0aa2 01       		.uleb128 0x1
 2050 0aa3 51       		.byte	0x51
 2051 0aa4 02       		.uleb128 0x2
 2052 0aa5 7B       		.byte	0x7b
ARM GAS  /var/folders/d2/nstgp4h54kz7g1l847x_b8wc0000gn/T//ccJo2A5k.s 			page 37


 2053 0aa6 00       		.sleb128 0
 2054 0aa7 00       		.byte	0
 2055 0aa8 00       		.byte	0
 2056 0aa9 2D       		.uleb128 0x2d
 2057 0aaa 5E0B0000 		.4byte	0xb5e
 2058 0aae AC000000 		.4byte	.LBB20
 2059 0ab2 48000000 		.4byte	.Ldebug_ranges0+0x48
 2060 0ab6 01       		.byte	0x1
 2061 0ab7 76       		.byte	0x76
 2062 0ab8 29       		.uleb128 0x29
 2063 0ab9 6A0B0000 		.4byte	0xb6a
 2064 0abd BF030000 		.4byte	.LLST32
 2065 0ac1 00       		.byte	0
 2066 0ac2 00       		.byte	0
 2067 0ac3 2E       		.uleb128 0x2e
 2068 0ac4 1E010000 		.4byte	.LVL86
 2069 0ac8 2A0E0000 		.4byte	0xe2a
 2070 0acc 00       		.byte	0
 2071 0acd 06       		.uleb128 0x6
 2072 0ace 04       		.byte	0x4
 2073 0acf 88090000 		.4byte	0x988
 2074 0ad3 06       		.uleb128 0x6
 2075 0ad4 04       		.byte	0x4
 2076 0ad5 97000000 		.4byte	0x97
 2077 0ad9 2F       		.uleb128 0x2f
 2078 0ada FB010000 		.4byte	.LASF147
 2079 0ade 01       		.byte	0x1
 2080 0adf 51       		.byte	0x51
 2081 0ae0 00000000 		.4byte	.LFB5
 2082 0ae4 30000000 		.4byte	.LFE5-.LFB5
 2083 0ae8 01       		.uleb128 0x1
 2084 0ae9 9C       		.byte	0x9c
 2085 0aea 5E0B0000 		.4byte	0xb5e
 2086 0aee 24       		.uleb128 0x24
 2087 0aef 6800     		.ascii	"h\000"
 2088 0af1 01       		.byte	0x1
 2089 0af2 51       		.byte	0x51
 2090 0af3 CD0A0000 		.4byte	0xacd
 2091 0af7 E8030000 		.4byte	.LLST17
 2092 0afb 30       		.uleb128 0x30
 2093 0afc 03060000 		.4byte	.LASF130
 2094 0b00 01       		.byte	0x1
 2095 0b01 52       		.byte	0x52
 2096 0b02 62010000 		.4byte	0x162
 2097 0b06 09040000 		.4byte	.LLST18
 2098 0b0a 30       		.uleb128 0x30
 2099 0b0b 5E040000 		.4byte	.LASF131
 2100 0b0f 01       		.byte	0x1
 2101 0b10 52       		.byte	0x52
 2102 0b11 B2000000 		.4byte	0xb2
 2103 0b15 36040000 		.4byte	.LLST19
 2104 0b19 30       		.uleb128 0x30
 2105 0b1a 6C070000 		.4byte	.LASF145
 2106 0b1e 01       		.byte	0x1
 2107 0b1f 52       		.byte	0x52
 2108 0b20 F8080000 		.4byte	0x8f8
 2109 0b24 63040000 		.4byte	.LLST20
ARM GAS  /var/folders/d2/nstgp4h54kz7g1l847x_b8wc0000gn/T//ccJo2A5k.s 			page 38


 2110 0b28 30       		.uleb128 0x30
 2111 0b29 07040000 		.4byte	.LASF146
 2112 0b2d 01       		.byte	0x1
 2113 0b2e 52       		.byte	0x52
 2114 0b2f 62010000 		.4byte	0x162
 2115 0b33 84040000 		.4byte	.LLST21
 2116 0b37 31       		.uleb128 0x31
 2117 0b38 5E0B0000 		.4byte	0xb5e
 2118 0b3c 14000000 		.4byte	.LBB12
 2119 0b40 00000000 		.4byte	.Ldebug_ranges0+0
 2120 0b44 01       		.byte	0x1
 2121 0b45 58       		.byte	0x58
 2122 0b46 540B0000 		.4byte	0xb54
 2123 0b4a 29       		.uleb128 0x29
 2124 0b4b 6A0B0000 		.4byte	0xb6a
 2125 0b4f A4040000 		.4byte	.LLST22
 2126 0b53 00       		.byte	0
 2127 0b54 2E       		.uleb128 0x2e
 2128 0b55 2C000000 		.4byte	.LVL54
 2129 0b59 2A0E0000 		.4byte	0xe2a
 2130 0b5d 00       		.byte	0
 2131 0b5e 32       		.uleb128 0x32
 2132 0b5f F9070000 		.4byte	.LASF160
 2133 0b63 01       		.byte	0x1
 2134 0b64 4A       		.byte	0x4a
 2135 0b65 01       		.byte	0x1
 2136 0b66 740B0000 		.4byte	0xb74
 2137 0b6a 33       		.uleb128 0x33
 2138 0b6b 6800     		.ascii	"h\000"
 2139 0b6d 01       		.byte	0x1
 2140 0b6e 4A       		.byte	0x4a
 2141 0b6f CD0A0000 		.4byte	0xacd
 2142 0b73 00       		.byte	0
 2143 0b74 2F       		.uleb128 0x2f
 2144 0b75 C6060000 		.4byte	.LASF148
 2145 0b79 01       		.byte	0x1
 2146 0b7a 42       		.byte	0x42
 2147 0b7b 00000000 		.4byte	.LFB3
 2148 0b7f 40000000 		.4byte	.LFE3-.LFB3
 2149 0b83 01       		.uleb128 0x1
 2150 0b84 9C       		.byte	0x9c
 2151 0b85 260C0000 		.4byte	0xc26
 2152 0b89 30       		.uleb128 0x30
 2153 0b8a 25010000 		.4byte	.LASF149
 2154 0b8e 01       		.byte	0x1
 2155 0b8f 42       		.byte	0x42
 2156 0b90 E6080000 		.4byte	0x8e6
 2157 0b94 B7040000 		.4byte	.LLST13
 2158 0b98 24       		.uleb128 0x24
 2159 0b99 6C656E00 		.ascii	"len\000"
 2160 0b9d 01       		.byte	0x1
 2161 0b9e 42       		.byte	0x42
 2162 0b9f B2000000 		.4byte	0xb2
 2163 0ba3 D8040000 		.4byte	.LLST14
 2164 0ba7 30       		.uleb128 0x30
 2165 0ba8 D0040000 		.4byte	.LASF150
 2166 0bac 01       		.byte	0x1
ARM GAS  /var/folders/d2/nstgp4h54kz7g1l847x_b8wc0000gn/T//ccJo2A5k.s 			page 39


 2167 0bad 43       		.byte	0x43
 2168 0bae 3B0C0000 		.4byte	0xc3b
 2169 0bb2 F9040000 		.4byte	.LLST15
 2170 0bb6 30       		.uleb128 0x30
 2171 0bb7 BF070000 		.4byte	.LASF151
 2172 0bbb 01       		.byte	0x1
 2173 0bbc 43       		.byte	0x43
 2174 0bbd 62010000 		.4byte	0x162
 2175 0bc1 17050000 		.4byte	.LLST16
 2176 0bc5 34       		.uleb128 0x34
 2177 0bc6 63726300 		.ascii	"crc\000"
 2178 0bca 01       		.byte	0x1
 2179 0bcb 45       		.byte	0x45
 2180 0bcc A7000000 		.4byte	0xa7
 2181 0bd0 02       		.uleb128 0x2
 2182 0bd1 91       		.byte	0x91
 2183 0bd2 60       		.sleb128 -32
 2184 0bd3 35       		.uleb128 0x35
 2185 0bd4 20000000 		.4byte	.LVL44
 2186 0bd8 DC0C0000 		.4byte	0xcdc
 2187 0bdc 020C0000 		.4byte	0xc02
 2188 0be0 2B       		.uleb128 0x2b
 2189 0be1 01       		.uleb128 0x1
 2190 0be2 50       		.byte	0x50
 2191 0be3 03       		.uleb128 0x3
 2192 0be4 F3       		.byte	0xf3
 2193 0be5 01       		.uleb128 0x1
 2194 0be6 50       		.byte	0x50
 2195 0be7 2B       		.uleb128 0x2b
 2196 0be8 01       		.uleb128 0x1
 2197 0be9 51       		.byte	0x51
 2198 0bea 03       		.uleb128 0x3
 2199 0beb F3       		.byte	0xf3
 2200 0bec 01       		.uleb128 0x1
 2201 0bed 51       		.byte	0x51
 2202 0bee 2B       		.uleb128 0x2b
 2203 0bef 01       		.uleb128 0x1
 2204 0bf0 52       		.byte	0x52
 2205 0bf1 02       		.uleb128 0x2
 2206 0bf2 74       		.byte	0x74
 2207 0bf3 00       		.sleb128 0
 2208 0bf4 2B       		.uleb128 0x2b
 2209 0bf5 01       		.uleb128 0x1
 2210 0bf6 53       		.byte	0x53
 2211 0bf7 02       		.uleb128 0x2
 2212 0bf8 76       		.byte	0x76
 2213 0bf9 00       		.sleb128 0
 2214 0bfa 2B       		.uleb128 0x2b
 2215 0bfb 02       		.uleb128 0x2
 2216 0bfc 7D       		.byte	0x7d
 2217 0bfd 00       		.sleb128 0
 2218 0bfe 02       		.uleb128 0x2
 2219 0bff 77       		.byte	0x77
 2220 0c00 00       		.sleb128 0
 2221 0c01 00       		.byte	0
 2222 0c02 35       		.uleb128 0x35
 2223 0c03 2A000000 		.4byte	.LVL45
ARM GAS  /var/folders/d2/nstgp4h54kz7g1l847x_b8wc0000gn/T//ccJo2A5k.s 			page 40


 2224 0c07 410C0000 		.4byte	0xc41
 2225 0c0b 1C0C0000 		.4byte	0xc1c
 2226 0c0f 2B       		.uleb128 0x2b
 2227 0c10 01       		.uleb128 0x1
 2228 0c11 51       		.byte	0x51
 2229 0c12 02       		.uleb128 0x2
 2230 0c13 76       		.byte	0x76
 2231 0c14 00       		.sleb128 0
 2232 0c15 2B       		.uleb128 0x2b
 2233 0c16 01       		.uleb128 0x1
 2234 0c17 52       		.byte	0x52
 2235 0c18 02       		.uleb128 0x2
 2236 0c19 77       		.byte	0x77
 2237 0c1a 00       		.sleb128 0
 2238 0c1b 00       		.byte	0
 2239 0c1c 2E       		.uleb128 0x2e
 2240 0c1d 3A000000 		.4byte	.LVL47
 2241 0c21 2A0E0000 		.4byte	0xe2a
 2242 0c25 00       		.byte	0
 2243 0c26 1E       		.uleb128 0x1e
 2244 0c27 3B0C0000 		.4byte	0xc3b
 2245 0c2b 16       		.uleb128 0x16
 2246 0c2c 62010000 		.4byte	0x162
 2247 0c30 16       		.uleb128 0x16
 2248 0c31 E6080000 		.4byte	0x8e6
 2249 0c35 16       		.uleb128 0x16
 2250 0c36 B2000000 		.4byte	0xb2
 2251 0c3a 00       		.byte	0
 2252 0c3b 06       		.uleb128 0x6
 2253 0c3c 04       		.byte	0x4
 2254 0c3d 260C0000 		.4byte	0xc26
 2255 0c41 2F       		.uleb128 0x2f
 2256 0c42 DB060000 		.4byte	.LASF152
 2257 0c46 01       		.byte	0x1
 2258 0c47 2C       		.byte	0x2c
 2259 0c48 00000000 		.4byte	.LFB2
 2260 0c4c 8C000000 		.4byte	.LFE2-.LFB2
 2261 0c50 01       		.uleb128 0x1
 2262 0c51 9C       		.byte	0x9c
 2263 0c52 CC0C0000 		.4byte	0xccc
 2264 0c56 24       		.uleb128 0x24
 2265 0c57 63726300 		.ascii	"crc\000"
 2266 0c5b 01       		.byte	0x1
 2267 0c5c 2C       		.byte	0x2c
 2268 0c5d A7000000 		.4byte	0xa7
 2269 0c61 35050000 		.4byte	.LLST8
 2270 0c65 30       		.uleb128 0x30
 2271 0c66 D0040000 		.4byte	.LASF150
 2272 0c6a 01       		.byte	0x1
 2273 0c6b 2D       		.byte	0x2d
 2274 0c6c 3B0C0000 		.4byte	0xc3b
 2275 0c70 6F050000 		.4byte	.LLST9
 2276 0c74 30       		.uleb128 0x30
 2277 0c75 BF070000 		.4byte	.LASF151
 2278 0c79 01       		.byte	0x1
 2279 0c7a 2D       		.byte	0x2d
 2280 0c7b 62010000 		.4byte	0x162
ARM GAS  /var/folders/d2/nstgp4h54kz7g1l847x_b8wc0000gn/T//ccJo2A5k.s 			page 41


 2281 0c7f 8D050000 		.4byte	.LLST10
 2282 0c83 22       		.uleb128 0x22
 2283 0c84 17080000 		.4byte	.LASF153
 2284 0c88 01       		.byte	0x1
 2285 0c89 30       		.byte	0x30
 2286 0c8a CC0C0000 		.4byte	0xccc
 2287 0c8e 02       		.uleb128 0x2
 2288 0c8f 91       		.byte	0x91
 2289 0c90 50       		.sleb128 -48
 2290 0c91 36       		.uleb128 0x36
 2291 0c92 6900     		.ascii	"i\000"
 2292 0c94 01       		.byte	0x1
 2293 0c95 31       		.byte	0x31
 2294 0c96 A7000000 		.4byte	0xa7
 2295 0c9a D2050000 		.4byte	.LLST11
 2296 0c9e 36       		.uleb128 0x36
 2297 0c9f 6A00     		.ascii	"j\000"
 2298 0ca1 01       		.byte	0x1
 2299 0ca2 32       		.byte	0x32
 2300 0ca3 9C000000 		.4byte	0x9c
 2301 0ca7 4F060000 		.4byte	.LLST12
 2302 0cab 37       		.uleb128 0x37
 2303 0cac 54000000 		.4byte	.LVL34
 2304 0cb0 C20C0000 		.4byte	0xcc2
 2305 0cb4 2B       		.uleb128 0x2b
 2306 0cb5 01       		.uleb128 0x1
 2307 0cb6 50       		.byte	0x50
 2308 0cb7 03       		.uleb128 0x3
 2309 0cb8 F3       		.byte	0xf3
 2310 0cb9 01       		.uleb128 0x1
 2311 0cba 52       		.byte	0x52
 2312 0cbb 2B       		.uleb128 0x2b
 2313 0cbc 01       		.uleb128 0x1
 2314 0cbd 51       		.byte	0x51
 2315 0cbe 02       		.uleb128 0x2
 2316 0cbf 7D       		.byte	0x7d
 2317 0cc0 00       		.sleb128 0
 2318 0cc1 00       		.byte	0
 2319 0cc2 2E       		.uleb128 0x2e
 2320 0cc3 88000000 		.4byte	.LVL40
 2321 0cc7 2A0E0000 		.4byte	0xe2a
 2322 0ccb 00       		.byte	0
 2323 0ccc 0B       		.uleb128 0xb
 2324 0ccd 8C000000 		.4byte	0x8c
 2325 0cd1 DC0C0000 		.4byte	0xcdc
 2326 0cd5 0C       		.uleb128 0xc
 2327 0cd6 85000000 		.4byte	0x85
 2328 0cda 08       		.byte	0x8
 2329 0cdb 00       		.byte	0
 2330 0cdc 2F       		.uleb128 0x2f
 2331 0cdd 3F050000 		.4byte	.LASF154
 2332 0ce1 01       		.byte	0x1
 2333 0ce2 14       		.byte	0x14
 2334 0ce3 00000000 		.4byte	.LFB1
 2335 0ce7 AC000000 		.4byte	.LFE1-.LFB1
 2336 0ceb 01       		.uleb128 0x1
 2337 0cec 9C       		.byte	0x9c
ARM GAS  /var/folders/d2/nstgp4h54kz7g1l847x_b8wc0000gn/T//ccJo2A5k.s 			page 42


 2338 0ced F20D0000 		.4byte	0xdf2
 2339 0cf1 30       		.uleb128 0x30
 2340 0cf2 25010000 		.4byte	.LASF149
 2341 0cf6 01       		.byte	0x1
 2342 0cf7 14       		.byte	0x14
 2343 0cf8 E6080000 		.4byte	0x8e6
 2344 0cfc 79060000 		.4byte	.LLST0
 2345 0d00 24       		.uleb128 0x24
 2346 0d01 6C656E00 		.ascii	"len\000"
 2347 0d05 01       		.byte	0x1
 2348 0d06 14       		.byte	0x14
 2349 0d07 B2000000 		.4byte	0xb2
 2350 0d0b AD060000 		.4byte	.LLST1
 2351 0d0f 24       		.uleb128 0x24
 2352 0d10 63726300 		.ascii	"crc\000"
 2353 0d14 01       		.byte	0x1
 2354 0d15 14       		.byte	0x14
 2355 0d16 F20D0000 		.4byte	0xdf2
 2356 0d1a E1060000 		.4byte	.LLST2
 2357 0d1e 30       		.uleb128 0x30
 2358 0d1f D0040000 		.4byte	.LASF150
 2359 0d23 01       		.byte	0x1
 2360 0d24 15       		.byte	0x15
 2361 0d25 3B0C0000 		.4byte	0xc3b
 2362 0d29 15070000 		.4byte	.LLST3
 2363 0d2d 30       		.uleb128 0x30
 2364 0d2e BF070000 		.4byte	.LASF151
 2365 0d32 01       		.byte	0x1
 2366 0d33 15       		.byte	0x15
 2367 0d34 62010000 		.4byte	0x162
 2368 0d38 49070000 		.4byte	.LLST4
 2369 0d3c 25       		.uleb128 0x25
 2370 0d3d 00010000 		.4byte	.LASF155
 2371 0d41 01       		.byte	0x1
 2372 0d42 17       		.byte	0x17
 2373 0d43 D30A0000 		.4byte	0xad3
 2374 0d47 69070000 		.4byte	.LLST5
 2375 0d4b 36       		.uleb128 0x36
 2376 0d4c 6100     		.ascii	"a\000"
 2377 0d4e 01       		.byte	0x1
 2378 0d4f 19       		.byte	0x19
 2379 0d50 A7000000 		.4byte	0xa7
 2380 0d54 9D070000 		.4byte	.LLST6
 2381 0d58 36       		.uleb128 0x36
 2382 0d59 6200     		.ascii	"b\000"
 2383 0d5b 01       		.byte	0x1
 2384 0d5c 19       		.byte	0x19
 2385 0d5d A7000000 		.4byte	0xa7
 2386 0d61 E9070000 		.4byte	.LLST7
 2387 0d65 37       		.uleb128 0x37
 2388 0d66 2C000000 		.4byte	.LVL6
 2389 0d6a 750D0000 		.4byte	0xd75
 2390 0d6e 2B       		.uleb128 0x2b
 2391 0d6f 01       		.uleb128 0x1
 2392 0d70 50       		.byte	0x50
 2393 0d71 02       		.uleb128 0x2
 2394 0d72 76       		.byte	0x76
ARM GAS  /var/folders/d2/nstgp4h54kz7g1l847x_b8wc0000gn/T//ccJo2A5k.s 			page 43


 2395 0d73 00       		.sleb128 0
 2396 0d74 00       		.byte	0
 2397 0d75 37       		.uleb128 0x37
 2398 0d76 34000000 		.4byte	.LVL7
 2399 0d7a 900D0000 		.4byte	0xd90
 2400 0d7e 2B       		.uleb128 0x2b
 2401 0d7f 01       		.uleb128 0x1
 2402 0d80 50       		.byte	0x50
 2403 0d81 02       		.uleb128 0x2
 2404 0d82 76       		.byte	0x76
 2405 0d83 00       		.sleb128 0
 2406 0d84 2B       		.uleb128 0x2b
 2407 0d85 01       		.uleb128 0x1
 2408 0d86 51       		.byte	0x51
 2409 0d87 02       		.uleb128 0x2
 2410 0d88 79       		.byte	0x79
 2411 0d89 00       		.sleb128 0
 2412 0d8a 2B       		.uleb128 0x2b
 2413 0d8b 01       		.uleb128 0x1
 2414 0d8c 52       		.byte	0x52
 2415 0d8d 01       		.uleb128 0x1
 2416 0d8e 32       		.byte	0x32
 2417 0d8f 00       		.byte	0
 2418 0d90 37       		.uleb128 0x37
 2419 0d91 58000000 		.4byte	.LVL11
 2420 0d95 A00D0000 		.4byte	0xda0
 2421 0d99 2B       		.uleb128 0x2b
 2422 0d9a 01       		.uleb128 0x1
 2423 0d9b 50       		.byte	0x50
 2424 0d9c 02       		.uleb128 0x2
 2425 0d9d 76       		.byte	0x76
 2426 0d9e 00       		.sleb128 0
 2427 0d9f 00       		.byte	0
 2428 0da0 37       		.uleb128 0x37
 2429 0da1 60000000 		.4byte	.LVL12
 2430 0da5 BE0D0000 		.4byte	0xdbe
 2431 0da9 2B       		.uleb128 0x2b
 2432 0daa 01       		.uleb128 0x1
 2433 0dab 50       		.byte	0x50
 2434 0dac 02       		.uleb128 0x2
 2435 0dad 76       		.byte	0x76
 2436 0dae 00       		.sleb128 0
 2437 0daf 2B       		.uleb128 0x2b
 2438 0db0 01       		.uleb128 0x1
 2439 0db1 51       		.byte	0x51
 2440 0db2 05       		.uleb128 0x5
 2441 0db3 03       		.byte	0x3
 2442 0db4 00000000 		.4byte	.LANCHOR1
 2443 0db8 2B       		.uleb128 0x2b
 2444 0db9 01       		.uleb128 0x1
 2445 0dba 52       		.byte	0x52
 2446 0dbb 01       		.uleb128 0x1
 2447 0dbc 32       		.byte	0x32
 2448 0dbd 00       		.byte	0
 2449 0dbe 37       		.uleb128 0x37
 2450 0dbf 74000000 		.4byte	.LVL16
 2451 0dc3 CE0D0000 		.4byte	0xdce
ARM GAS  /var/folders/d2/nstgp4h54kz7g1l847x_b8wc0000gn/T//ccJo2A5k.s 			page 44


 2452 0dc7 2B       		.uleb128 0x2b
 2453 0dc8 01       		.uleb128 0x1
 2454 0dc9 50       		.byte	0x50
 2455 0dca 02       		.uleb128 0x2
 2456 0dcb 76       		.byte	0x76
 2457 0dcc 00       		.sleb128 0
 2458 0dcd 00       		.byte	0
 2459 0dce 35       		.uleb128 0x35
 2460 0dcf 80000000 		.4byte	.LVL17
 2461 0dd3 1F0E0000 		.4byte	0xe1f
 2462 0dd7 E80D0000 		.4byte	0xde8
 2463 0ddb 2B       		.uleb128 0x2b
 2464 0ddc 01       		.uleb128 0x1
 2465 0ddd 51       		.byte	0x51
 2466 0dde 02       		.uleb128 0x2
 2467 0ddf 77       		.byte	0x77
 2468 0de0 00       		.sleb128 0
 2469 0de1 2B       		.uleb128 0x2b
 2470 0de2 01       		.uleb128 0x1
 2471 0de3 52       		.byte	0x52
 2472 0de4 02       		.uleb128 0x2
 2473 0de5 78       		.byte	0x78
 2474 0de6 00       		.sleb128 0
 2475 0de7 00       		.byte	0
 2476 0de8 2E       		.uleb128 0x2e
 2477 0de9 9E000000 		.4byte	.LVL22
 2478 0ded 2A0E0000 		.4byte	0xe2a
 2479 0df1 00       		.byte	0
 2480 0df2 06       		.uleb128 0x6
 2481 0df3 04       		.byte	0x4
 2482 0df4 A7000000 		.4byte	0xa7
 2483 0df8 38       		.uleb128 0x38
 2484 0df9 26040000 		.4byte	.LASF161
 2485 0dfd 01       		.byte	0x1
 2486 0dfe 0C       		.byte	0xc
 2487 0dff A7000000 		.4byte	0xa7
 2488 0e03 01       		.byte	0x1
 2489 0e04 1F0E0000 		.4byte	0xe1f
 2490 0e08 33       		.uleb128 0x33
 2491 0e09 62756600 		.ascii	"buf\000"
 2492 0e0d 01       		.byte	0x1
 2493 0e0e 0C       		.byte	0xc
 2494 0e0f E6080000 		.4byte	0x8e6
 2495 0e13 33       		.uleb128 0x33
 2496 0e14 6C656E00 		.ascii	"len\000"
 2497 0e18 01       		.byte	0x1
 2498 0e19 0C       		.byte	0xc
 2499 0e1a B2000000 		.4byte	0xb2
 2500 0e1e 00       		.byte	0
 2501 0e1f 39       		.uleb128 0x39
 2502 0e20 72000000 		.4byte	.LASF162
 2503 0e24 72000000 		.4byte	.LASF162
 2504 0e28 0A       		.byte	0xa
 2505 0e29 0C       		.byte	0xc
 2506 0e2a 3A       		.uleb128 0x3a
 2507 0e2b 59060000 		.4byte	.LASF163
 2508 0e2f 59060000 		.4byte	.LASF163
ARM GAS  /var/folders/d2/nstgp4h54kz7g1l847x_b8wc0000gn/T//ccJo2A5k.s 			page 45


 2509 0e33 00       		.byte	0
 2510              		.section	.debug_abbrev,"",%progbits
 2511              	.Ldebug_abbrev0:
 2512 0000 01       		.uleb128 0x1
 2513 0001 11       		.uleb128 0x11
 2514 0002 01       		.byte	0x1
 2515 0003 25       		.uleb128 0x25
 2516 0004 0E       		.uleb128 0xe
 2517 0005 13       		.uleb128 0x13
 2518 0006 0B       		.uleb128 0xb
 2519 0007 03       		.uleb128 0x3
 2520 0008 0E       		.uleb128 0xe
 2521 0009 1B       		.uleb128 0x1b
 2522 000a 0E       		.uleb128 0xe
 2523 000b 55       		.uleb128 0x55
 2524 000c 17       		.uleb128 0x17
 2525 000d 11       		.uleb128 0x11
 2526 000e 01       		.uleb128 0x1
 2527 000f 10       		.uleb128 0x10
 2528 0010 17       		.uleb128 0x17
 2529 0011 00       		.byte	0
 2530 0012 00       		.byte	0
 2531 0013 02       		.uleb128 0x2
 2532 0014 24       		.uleb128 0x24
 2533 0015 00       		.byte	0
 2534 0016 0B       		.uleb128 0xb
 2535 0017 0B       		.uleb128 0xb
 2536 0018 3E       		.uleb128 0x3e
 2537 0019 0B       		.uleb128 0xb
 2538 001a 03       		.uleb128 0x3
 2539 001b 0E       		.uleb128 0xe
 2540 001c 00       		.byte	0
 2541 001d 00       		.byte	0
 2542 001e 03       		.uleb128 0x3
 2543 001f 16       		.uleb128 0x16
 2544 0020 00       		.byte	0
 2545 0021 03       		.uleb128 0x3
 2546 0022 0E       		.uleb128 0xe
 2547 0023 3A       		.uleb128 0x3a
 2548 0024 0B       		.uleb128 0xb
 2549 0025 3B       		.uleb128 0x3b
 2550 0026 0B       		.uleb128 0xb
 2551 0027 49       		.uleb128 0x49
 2552 0028 13       		.uleb128 0x13
 2553 0029 00       		.byte	0
 2554 002a 00       		.byte	0
 2555 002b 04       		.uleb128 0x4
 2556 002c 24       		.uleb128 0x24
 2557 002d 00       		.byte	0
 2558 002e 0B       		.uleb128 0xb
 2559 002f 0B       		.uleb128 0xb
 2560 0030 3E       		.uleb128 0x3e
 2561 0031 0B       		.uleb128 0xb
 2562 0032 03       		.uleb128 0x3
 2563 0033 08       		.uleb128 0x8
 2564 0034 00       		.byte	0
 2565 0035 00       		.byte	0
ARM GAS  /var/folders/d2/nstgp4h54kz7g1l847x_b8wc0000gn/T//ccJo2A5k.s 			page 46


 2566 0036 05       		.uleb128 0x5
 2567 0037 26       		.uleb128 0x26
 2568 0038 00       		.byte	0
 2569 0039 49       		.uleb128 0x49
 2570 003a 13       		.uleb128 0x13
 2571 003b 00       		.byte	0
 2572 003c 00       		.byte	0
 2573 003d 06       		.uleb128 0x6
 2574 003e 0F       		.uleb128 0xf
 2575 003f 00       		.byte	0
 2576 0040 0B       		.uleb128 0xb
 2577 0041 0B       		.uleb128 0xb
 2578 0042 49       		.uleb128 0x49
 2579 0043 13       		.uleb128 0x13
 2580 0044 00       		.byte	0
 2581 0045 00       		.byte	0
 2582 0046 07       		.uleb128 0x7
 2583 0047 13       		.uleb128 0x13
 2584 0048 00       		.byte	0
 2585 0049 03       		.uleb128 0x3
 2586 004a 0E       		.uleb128 0xe
 2587 004b 3C       		.uleb128 0x3c
 2588 004c 19       		.uleb128 0x19
 2589 004d 00       		.byte	0
 2590 004e 00       		.byte	0
 2591 004f 08       		.uleb128 0x8
 2592 0050 16       		.uleb128 0x16
 2593 0051 00       		.byte	0
 2594 0052 03       		.uleb128 0x3
 2595 0053 0E       		.uleb128 0xe
 2596 0054 3A       		.uleb128 0x3a
 2597 0055 0B       		.uleb128 0xb
 2598 0056 3B       		.uleb128 0x3b
 2599 0057 05       		.uleb128 0x5
 2600 0058 49       		.uleb128 0x49
 2601 0059 13       		.uleb128 0x13
 2602 005a 00       		.byte	0
 2603 005b 00       		.byte	0
 2604 005c 09       		.uleb128 0x9
 2605 005d 17       		.uleb128 0x17
 2606 005e 01       		.byte	0x1
 2607 005f 0B       		.uleb128 0xb
 2608 0060 0B       		.uleb128 0xb
 2609 0061 3A       		.uleb128 0x3a
 2610 0062 0B       		.uleb128 0xb
 2611 0063 3B       		.uleb128 0x3b
 2612 0064 0B       		.uleb128 0xb
 2613 0065 01       		.uleb128 0x1
 2614 0066 13       		.uleb128 0x13
 2615 0067 00       		.byte	0
 2616 0068 00       		.byte	0
 2617 0069 0A       		.uleb128 0xa
 2618 006a 0D       		.uleb128 0xd
 2619 006b 00       		.byte	0
 2620 006c 03       		.uleb128 0x3
 2621 006d 0E       		.uleb128 0xe
 2622 006e 3A       		.uleb128 0x3a
ARM GAS  /var/folders/d2/nstgp4h54kz7g1l847x_b8wc0000gn/T//ccJo2A5k.s 			page 47


 2623 006f 0B       		.uleb128 0xb
 2624 0070 3B       		.uleb128 0x3b
 2625 0071 0B       		.uleb128 0xb
 2626 0072 49       		.uleb128 0x49
 2627 0073 13       		.uleb128 0x13
 2628 0074 00       		.byte	0
 2629 0075 00       		.byte	0
 2630 0076 0B       		.uleb128 0xb
 2631 0077 01       		.uleb128 0x1
 2632 0078 01       		.byte	0x1
 2633 0079 49       		.uleb128 0x49
 2634 007a 13       		.uleb128 0x13
 2635 007b 01       		.uleb128 0x1
 2636 007c 13       		.uleb128 0x13
 2637 007d 00       		.byte	0
 2638 007e 00       		.byte	0
 2639 007f 0C       		.uleb128 0xc
 2640 0080 21       		.uleb128 0x21
 2641 0081 00       		.byte	0
 2642 0082 49       		.uleb128 0x49
 2643 0083 13       		.uleb128 0x13
 2644 0084 2F       		.uleb128 0x2f
 2645 0085 0B       		.uleb128 0xb
 2646 0086 00       		.byte	0
 2647 0087 00       		.byte	0
 2648 0088 0D       		.uleb128 0xd
 2649 0089 13       		.uleb128 0x13
 2650 008a 01       		.byte	0x1
 2651 008b 0B       		.uleb128 0xb
 2652 008c 0B       		.uleb128 0xb
 2653 008d 3A       		.uleb128 0x3a
 2654 008e 0B       		.uleb128 0xb
 2655 008f 3B       		.uleb128 0x3b
 2656 0090 0B       		.uleb128 0xb
 2657 0091 01       		.uleb128 0x1
 2658 0092 13       		.uleb128 0x13
 2659 0093 00       		.byte	0
 2660 0094 00       		.byte	0
 2661 0095 0E       		.uleb128 0xe
 2662 0096 0D       		.uleb128 0xd
 2663 0097 00       		.byte	0
 2664 0098 03       		.uleb128 0x3
 2665 0099 0E       		.uleb128 0xe
 2666 009a 3A       		.uleb128 0x3a
 2667 009b 0B       		.uleb128 0xb
 2668 009c 3B       		.uleb128 0x3b
 2669 009d 0B       		.uleb128 0xb
 2670 009e 49       		.uleb128 0x49
 2671 009f 13       		.uleb128 0x13
 2672 00a0 38       		.uleb128 0x38
 2673 00a1 0B       		.uleb128 0xb
 2674 00a2 00       		.byte	0
 2675 00a3 00       		.byte	0
 2676 00a4 0F       		.uleb128 0xf
 2677 00a5 0F       		.uleb128 0xf
 2678 00a6 00       		.byte	0
 2679 00a7 0B       		.uleb128 0xb
ARM GAS  /var/folders/d2/nstgp4h54kz7g1l847x_b8wc0000gn/T//ccJo2A5k.s 			page 48


 2680 00a8 0B       		.uleb128 0xb
 2681 00a9 00       		.byte	0
 2682 00aa 00       		.byte	0
 2683 00ab 10       		.uleb128 0x10
 2684 00ac 13       		.uleb128 0x13
 2685 00ad 01       		.byte	0x1
 2686 00ae 03       		.uleb128 0x3
 2687 00af 0E       		.uleb128 0xe
 2688 00b0 0B       		.uleb128 0xb
 2689 00b1 0B       		.uleb128 0xb
 2690 00b2 3A       		.uleb128 0x3a
 2691 00b3 0B       		.uleb128 0xb
 2692 00b4 3B       		.uleb128 0x3b
 2693 00b5 0B       		.uleb128 0xb
 2694 00b6 01       		.uleb128 0x1
 2695 00b7 13       		.uleb128 0x13
 2696 00b8 00       		.byte	0
 2697 00b9 00       		.byte	0
 2698 00ba 11       		.uleb128 0x11
 2699 00bb 0D       		.uleb128 0xd
 2700 00bc 00       		.byte	0
 2701 00bd 03       		.uleb128 0x3
 2702 00be 08       		.uleb128 0x8
 2703 00bf 3A       		.uleb128 0x3a
 2704 00c0 0B       		.uleb128 0xb
 2705 00c1 3B       		.uleb128 0x3b
 2706 00c2 0B       		.uleb128 0xb
 2707 00c3 49       		.uleb128 0x49
 2708 00c4 13       		.uleb128 0x13
 2709 00c5 38       		.uleb128 0x38
 2710 00c6 0B       		.uleb128 0xb
 2711 00c7 00       		.byte	0
 2712 00c8 00       		.byte	0
 2713 00c9 12       		.uleb128 0x12
 2714 00ca 13       		.uleb128 0x13
 2715 00cb 01       		.byte	0x1
 2716 00cc 03       		.uleb128 0x3
 2717 00cd 0E       		.uleb128 0xe
 2718 00ce 0B       		.uleb128 0xb
 2719 00cf 05       		.uleb128 0x5
 2720 00d0 3A       		.uleb128 0x3a
 2721 00d1 0B       		.uleb128 0xb
 2722 00d2 3B       		.uleb128 0x3b
 2723 00d3 0B       		.uleb128 0xb
 2724 00d4 01       		.uleb128 0x1
 2725 00d5 13       		.uleb128 0x13
 2726 00d6 00       		.byte	0
 2727 00d7 00       		.byte	0
 2728 00d8 13       		.uleb128 0x13
 2729 00d9 0D       		.uleb128 0xd
 2730 00da 00       		.byte	0
 2731 00db 03       		.uleb128 0x3
 2732 00dc 0E       		.uleb128 0xe
 2733 00dd 3A       		.uleb128 0x3a
 2734 00de 0B       		.uleb128 0xb
 2735 00df 3B       		.uleb128 0x3b
 2736 00e0 0B       		.uleb128 0xb
ARM GAS  /var/folders/d2/nstgp4h54kz7g1l847x_b8wc0000gn/T//ccJo2A5k.s 			page 49


 2737 00e1 49       		.uleb128 0x49
 2738 00e2 13       		.uleb128 0x13
 2739 00e3 38       		.uleb128 0x38
 2740 00e4 05       		.uleb128 0x5
 2741 00e5 00       		.byte	0
 2742 00e6 00       		.byte	0
 2743 00e7 14       		.uleb128 0x14
 2744 00e8 15       		.uleb128 0x15
 2745 00e9 00       		.byte	0
 2746 00ea 27       		.uleb128 0x27
 2747 00eb 19       		.uleb128 0x19
 2748 00ec 00       		.byte	0
 2749 00ed 00       		.byte	0
 2750 00ee 15       		.uleb128 0x15
 2751 00ef 15       		.uleb128 0x15
 2752 00f0 01       		.byte	0x1
 2753 00f1 27       		.uleb128 0x27
 2754 00f2 19       		.uleb128 0x19
 2755 00f3 49       		.uleb128 0x49
 2756 00f4 13       		.uleb128 0x13
 2757 00f5 01       		.uleb128 0x1
 2758 00f6 13       		.uleb128 0x13
 2759 00f7 00       		.byte	0
 2760 00f8 00       		.byte	0
 2761 00f9 16       		.uleb128 0x16
 2762 00fa 05       		.uleb128 0x5
 2763 00fb 00       		.byte	0
 2764 00fc 49       		.uleb128 0x49
 2765 00fd 13       		.uleb128 0x13
 2766 00fe 00       		.byte	0
 2767 00ff 00       		.byte	0
 2768 0100 17       		.uleb128 0x17
 2769 0101 13       		.uleb128 0x13
 2770 0102 01       		.byte	0x1
 2771 0103 03       		.uleb128 0x3
 2772 0104 0E       		.uleb128 0xe
 2773 0105 0B       		.uleb128 0xb
 2774 0106 05       		.uleb128 0x5
 2775 0107 3A       		.uleb128 0x3a
 2776 0108 0B       		.uleb128 0xb
 2777 0109 3B       		.uleb128 0x3b
 2778 010a 05       		.uleb128 0x5
 2779 010b 01       		.uleb128 0x1
 2780 010c 13       		.uleb128 0x13
 2781 010d 00       		.byte	0
 2782 010e 00       		.byte	0
 2783 010f 18       		.uleb128 0x18
 2784 0110 0D       		.uleb128 0xd
 2785 0111 00       		.byte	0
 2786 0112 03       		.uleb128 0x3
 2787 0113 0E       		.uleb128 0xe
 2788 0114 3A       		.uleb128 0x3a
 2789 0115 0B       		.uleb128 0xb
 2790 0116 3B       		.uleb128 0x3b
 2791 0117 05       		.uleb128 0x5
 2792 0118 49       		.uleb128 0x49
 2793 0119 13       		.uleb128 0x13
ARM GAS  /var/folders/d2/nstgp4h54kz7g1l847x_b8wc0000gn/T//ccJo2A5k.s 			page 50


 2794 011a 38       		.uleb128 0x38
 2795 011b 0B       		.uleb128 0xb
 2796 011c 00       		.byte	0
 2797 011d 00       		.byte	0
 2798 011e 19       		.uleb128 0x19
 2799 011f 0D       		.uleb128 0xd
 2800 0120 00       		.byte	0
 2801 0121 03       		.uleb128 0x3
 2802 0122 0E       		.uleb128 0xe
 2803 0123 3A       		.uleb128 0x3a
 2804 0124 0B       		.uleb128 0xb
 2805 0125 3B       		.uleb128 0x3b
 2806 0126 05       		.uleb128 0x5
 2807 0127 49       		.uleb128 0x49
 2808 0128 13       		.uleb128 0x13
 2809 0129 38       		.uleb128 0x38
 2810 012a 05       		.uleb128 0x5
 2811 012b 00       		.byte	0
 2812 012c 00       		.byte	0
 2813 012d 1A       		.uleb128 0x1a
 2814 012e 13       		.uleb128 0x13
 2815 012f 01       		.byte	0x1
 2816 0130 03       		.uleb128 0x3
 2817 0131 0E       		.uleb128 0xe
 2818 0132 0B       		.uleb128 0xb
 2819 0133 0B       		.uleb128 0xb
 2820 0134 3A       		.uleb128 0x3a
 2821 0135 0B       		.uleb128 0xb
 2822 0136 3B       		.uleb128 0x3b
 2823 0137 05       		.uleb128 0x5
 2824 0138 01       		.uleb128 0x1
 2825 0139 13       		.uleb128 0x13
 2826 013a 00       		.byte	0
 2827 013b 00       		.byte	0
 2828 013c 1B       		.uleb128 0x1b
 2829 013d 13       		.uleb128 0x13
 2830 013e 01       		.byte	0x1
 2831 013f 0B       		.uleb128 0xb
 2832 0140 0B       		.uleb128 0xb
 2833 0141 3A       		.uleb128 0x3a
 2834 0142 0B       		.uleb128 0xb
 2835 0143 3B       		.uleb128 0x3b
 2836 0144 05       		.uleb128 0x5
 2837 0145 01       		.uleb128 0x1
 2838 0146 13       		.uleb128 0x13
 2839 0147 00       		.byte	0
 2840 0148 00       		.byte	0
 2841 0149 1C       		.uleb128 0x1c
 2842 014a 17       		.uleb128 0x17
 2843 014b 01       		.byte	0x1
 2844 014c 0B       		.uleb128 0xb
 2845 014d 0B       		.uleb128 0xb
 2846 014e 3A       		.uleb128 0x3a
 2847 014f 0B       		.uleb128 0xb
 2848 0150 3B       		.uleb128 0x3b
 2849 0151 05       		.uleb128 0x5
 2850 0152 01       		.uleb128 0x1
ARM GAS  /var/folders/d2/nstgp4h54kz7g1l847x_b8wc0000gn/T//ccJo2A5k.s 			page 51


 2851 0153 13       		.uleb128 0x13
 2852 0154 00       		.byte	0
 2853 0155 00       		.byte	0
 2854 0156 1D       		.uleb128 0x1d
 2855 0157 0D       		.uleb128 0xd
 2856 0158 00       		.byte	0
 2857 0159 03       		.uleb128 0x3
 2858 015a 0E       		.uleb128 0xe
 2859 015b 3A       		.uleb128 0x3a
 2860 015c 0B       		.uleb128 0xb
 2861 015d 3B       		.uleb128 0x3b
 2862 015e 05       		.uleb128 0x5
 2863 015f 49       		.uleb128 0x49
 2864 0160 13       		.uleb128 0x13
 2865 0161 00       		.byte	0
 2866 0162 00       		.byte	0
 2867 0163 1E       		.uleb128 0x1e
 2868 0164 15       		.uleb128 0x15
 2869 0165 01       		.byte	0x1
 2870 0166 27       		.uleb128 0x27
 2871 0167 19       		.uleb128 0x19
 2872 0168 01       		.uleb128 0x1
 2873 0169 13       		.uleb128 0x13
 2874 016a 00       		.byte	0
 2875 016b 00       		.byte	0
 2876 016c 1F       		.uleb128 0x1f
 2877 016d 34       		.uleb128 0x34
 2878 016e 00       		.byte	0
 2879 016f 03       		.uleb128 0x3
 2880 0170 0E       		.uleb128 0xe
 2881 0171 3A       		.uleb128 0x3a
 2882 0172 0B       		.uleb128 0xb
 2883 0173 3B       		.uleb128 0x3b
 2884 0174 05       		.uleb128 0x5
 2885 0175 49       		.uleb128 0x49
 2886 0176 13       		.uleb128 0x13
 2887 0177 3F       		.uleb128 0x3f
 2888 0178 19       		.uleb128 0x19
 2889 0179 3C       		.uleb128 0x3c
 2890 017a 19       		.uleb128 0x19
 2891 017b 00       		.byte	0
 2892 017c 00       		.byte	0
 2893 017d 20       		.uleb128 0x20
 2894 017e 26       		.uleb128 0x26
 2895 017f 00       		.byte	0
 2896 0180 00       		.byte	0
 2897 0181 00       		.byte	0
 2898 0182 21       		.uleb128 0x21
 2899 0183 34       		.uleb128 0x34
 2900 0184 00       		.byte	0
 2901 0185 03       		.uleb128 0x3
 2902 0186 0E       		.uleb128 0xe
 2903 0187 3A       		.uleb128 0x3a
 2904 0188 0B       		.uleb128 0xb
 2905 0189 3B       		.uleb128 0x3b
 2906 018a 0B       		.uleb128 0xb
 2907 018b 49       		.uleb128 0x49
ARM GAS  /var/folders/d2/nstgp4h54kz7g1l847x_b8wc0000gn/T//ccJo2A5k.s 			page 52


 2908 018c 13       		.uleb128 0x13
 2909 018d 3F       		.uleb128 0x3f
 2910 018e 19       		.uleb128 0x19
 2911 018f 3C       		.uleb128 0x3c
 2912 0190 19       		.uleb128 0x19
 2913 0191 00       		.byte	0
 2914 0192 00       		.byte	0
 2915 0193 22       		.uleb128 0x22
 2916 0194 34       		.uleb128 0x34
 2917 0195 00       		.byte	0
 2918 0196 03       		.uleb128 0x3
 2919 0197 0E       		.uleb128 0xe
 2920 0198 3A       		.uleb128 0x3a
 2921 0199 0B       		.uleb128 0xb
 2922 019a 3B       		.uleb128 0x3b
 2923 019b 0B       		.uleb128 0xb
 2924 019c 49       		.uleb128 0x49
 2925 019d 13       		.uleb128 0x13
 2926 019e 02       		.uleb128 0x2
 2927 019f 18       		.uleb128 0x18
 2928 01a0 00       		.byte	0
 2929 01a1 00       		.byte	0
 2930 01a2 23       		.uleb128 0x23
 2931 01a3 2E       		.uleb128 0x2e
 2932 01a4 01       		.byte	0x1
 2933 01a5 3F       		.uleb128 0x3f
 2934 01a6 19       		.uleb128 0x19
 2935 01a7 03       		.uleb128 0x3
 2936 01a8 0E       		.uleb128 0xe
 2937 01a9 3A       		.uleb128 0x3a
 2938 01aa 0B       		.uleb128 0xb
 2939 01ab 3B       		.uleb128 0x3b
 2940 01ac 0B       		.uleb128 0xb
 2941 01ad 27       		.uleb128 0x27
 2942 01ae 19       		.uleb128 0x19
 2943 01af 49       		.uleb128 0x49
 2944 01b0 13       		.uleb128 0x13
 2945 01b1 11       		.uleb128 0x11
 2946 01b2 01       		.uleb128 0x1
 2947 01b3 12       		.uleb128 0x12
 2948 01b4 06       		.uleb128 0x6
 2949 01b5 40       		.uleb128 0x40
 2950 01b6 18       		.uleb128 0x18
 2951 01b7 9742     		.uleb128 0x2117
 2952 01b9 19       		.uleb128 0x19
 2953 01ba 01       		.uleb128 0x1
 2954 01bb 13       		.uleb128 0x13
 2955 01bc 00       		.byte	0
 2956 01bd 00       		.byte	0
 2957 01be 24       		.uleb128 0x24
 2958 01bf 05       		.uleb128 0x5
 2959 01c0 00       		.byte	0
 2960 01c1 03       		.uleb128 0x3
 2961 01c2 08       		.uleb128 0x8
 2962 01c3 3A       		.uleb128 0x3a
 2963 01c4 0B       		.uleb128 0xb
 2964 01c5 3B       		.uleb128 0x3b
ARM GAS  /var/folders/d2/nstgp4h54kz7g1l847x_b8wc0000gn/T//ccJo2A5k.s 			page 53


 2965 01c6 0B       		.uleb128 0xb
 2966 01c7 49       		.uleb128 0x49
 2967 01c8 13       		.uleb128 0x13
 2968 01c9 02       		.uleb128 0x2
 2969 01ca 17       		.uleb128 0x17
 2970 01cb 00       		.byte	0
 2971 01cc 00       		.byte	0
 2972 01cd 25       		.uleb128 0x25
 2973 01ce 34       		.uleb128 0x34
 2974 01cf 00       		.byte	0
 2975 01d0 03       		.uleb128 0x3
 2976 01d1 0E       		.uleb128 0xe
 2977 01d2 3A       		.uleb128 0x3a
 2978 01d3 0B       		.uleb128 0xb
 2979 01d4 3B       		.uleb128 0x3b
 2980 01d5 0B       		.uleb128 0xb
 2981 01d6 49       		.uleb128 0x49
 2982 01d7 13       		.uleb128 0x13
 2983 01d8 02       		.uleb128 0x2
 2984 01d9 17       		.uleb128 0x17
 2985 01da 00       		.byte	0
 2986 01db 00       		.byte	0
 2987 01dc 26       		.uleb128 0x26
 2988 01dd 0B       		.uleb128 0xb
 2989 01de 01       		.byte	0x1
 2990 01df 55       		.uleb128 0x55
 2991 01e0 17       		.uleb128 0x17
 2992 01e1 01       		.uleb128 0x1
 2993 01e2 13       		.uleb128 0x13
 2994 01e3 00       		.byte	0
 2995 01e4 00       		.byte	0
 2996 01e5 27       		.uleb128 0x27
 2997 01e6 34       		.uleb128 0x34
 2998 01e7 00       		.byte	0
 2999 01e8 03       		.uleb128 0x3
 3000 01e9 08       		.uleb128 0x8
 3001 01ea 3A       		.uleb128 0x3a
 3002 01eb 0B       		.uleb128 0xb
 3003 01ec 3B       		.uleb128 0x3b
 3004 01ed 0B       		.uleb128 0xb
 3005 01ee 49       		.uleb128 0x49
 3006 01ef 13       		.uleb128 0x13
 3007 01f0 00       		.byte	0
 3008 01f1 00       		.byte	0
 3009 01f2 28       		.uleb128 0x28
 3010 01f3 1D       		.uleb128 0x1d
 3011 01f4 01       		.byte	0x1
 3012 01f5 31       		.uleb128 0x31
 3013 01f6 13       		.uleb128 0x13
 3014 01f7 11       		.uleb128 0x11
 3015 01f8 01       		.uleb128 0x1
 3016 01f9 12       		.uleb128 0x12
 3017 01fa 06       		.uleb128 0x6
 3018 01fb 58       		.uleb128 0x58
 3019 01fc 0B       		.uleb128 0xb
 3020 01fd 59       		.uleb128 0x59
 3021 01fe 0B       		.uleb128 0xb
ARM GAS  /var/folders/d2/nstgp4h54kz7g1l847x_b8wc0000gn/T//ccJo2A5k.s 			page 54


 3022 01ff 01       		.uleb128 0x1
 3023 0200 13       		.uleb128 0x13
 3024 0201 00       		.byte	0
 3025 0202 00       		.byte	0
 3026 0203 29       		.uleb128 0x29
 3027 0204 05       		.uleb128 0x5
 3028 0205 00       		.byte	0
 3029 0206 31       		.uleb128 0x31
 3030 0207 13       		.uleb128 0x13
 3031 0208 02       		.uleb128 0x2
 3032 0209 17       		.uleb128 0x17
 3033 020a 00       		.byte	0
 3034 020b 00       		.byte	0
 3035 020c 2A       		.uleb128 0x2a
 3036 020d 898201   		.uleb128 0x4109
 3037 0210 01       		.byte	0x1
 3038 0211 11       		.uleb128 0x11
 3039 0212 01       		.uleb128 0x1
 3040 0213 31       		.uleb128 0x31
 3041 0214 13       		.uleb128 0x13
 3042 0215 00       		.byte	0
 3043 0216 00       		.byte	0
 3044 0217 2B       		.uleb128 0x2b
 3045 0218 8A8201   		.uleb128 0x410a
 3046 021b 00       		.byte	0
 3047 021c 02       		.uleb128 0x2
 3048 021d 18       		.uleb128 0x18
 3049 021e 9142     		.uleb128 0x2111
 3050 0220 18       		.uleb128 0x18
 3051 0221 00       		.byte	0
 3052 0222 00       		.byte	0
 3053 0223 2C       		.uleb128 0x2c
 3054 0224 898201   		.uleb128 0x4109
 3055 0227 01       		.byte	0x1
 3056 0228 11       		.uleb128 0x11
 3057 0229 01       		.uleb128 0x1
 3058 022a 00       		.byte	0
 3059 022b 00       		.byte	0
 3060 022c 2D       		.uleb128 0x2d
 3061 022d 1D       		.uleb128 0x1d
 3062 022e 01       		.byte	0x1
 3063 022f 31       		.uleb128 0x31
 3064 0230 13       		.uleb128 0x13
 3065 0231 52       		.uleb128 0x52
 3066 0232 01       		.uleb128 0x1
 3067 0233 55       		.uleb128 0x55
 3068 0234 17       		.uleb128 0x17
 3069 0235 58       		.uleb128 0x58
 3070 0236 0B       		.uleb128 0xb
 3071 0237 59       		.uleb128 0x59
 3072 0238 0B       		.uleb128 0xb
 3073 0239 00       		.byte	0
 3074 023a 00       		.byte	0
 3075 023b 2E       		.uleb128 0x2e
 3076 023c 898201   		.uleb128 0x4109
 3077 023f 00       		.byte	0
 3078 0240 11       		.uleb128 0x11
ARM GAS  /var/folders/d2/nstgp4h54kz7g1l847x_b8wc0000gn/T//ccJo2A5k.s 			page 55


 3079 0241 01       		.uleb128 0x1
 3080 0242 31       		.uleb128 0x31
 3081 0243 13       		.uleb128 0x13
 3082 0244 00       		.byte	0
 3083 0245 00       		.byte	0
 3084 0246 2F       		.uleb128 0x2f
 3085 0247 2E       		.uleb128 0x2e
 3086 0248 01       		.byte	0x1
 3087 0249 3F       		.uleb128 0x3f
 3088 024a 19       		.uleb128 0x19
 3089 024b 03       		.uleb128 0x3
 3090 024c 0E       		.uleb128 0xe
 3091 024d 3A       		.uleb128 0x3a
 3092 024e 0B       		.uleb128 0xb
 3093 024f 3B       		.uleb128 0x3b
 3094 0250 0B       		.uleb128 0xb
 3095 0251 27       		.uleb128 0x27
 3096 0252 19       		.uleb128 0x19
 3097 0253 11       		.uleb128 0x11
 3098 0254 01       		.uleb128 0x1
 3099 0255 12       		.uleb128 0x12
 3100 0256 06       		.uleb128 0x6
 3101 0257 40       		.uleb128 0x40
 3102 0258 18       		.uleb128 0x18
 3103 0259 9742     		.uleb128 0x2117
 3104 025b 19       		.uleb128 0x19
 3105 025c 01       		.uleb128 0x1
 3106 025d 13       		.uleb128 0x13
 3107 025e 00       		.byte	0
 3108 025f 00       		.byte	0
 3109 0260 30       		.uleb128 0x30
 3110 0261 05       		.uleb128 0x5
 3111 0262 00       		.byte	0
 3112 0263 03       		.uleb128 0x3
 3113 0264 0E       		.uleb128 0xe
 3114 0265 3A       		.uleb128 0x3a
 3115 0266 0B       		.uleb128 0xb
 3116 0267 3B       		.uleb128 0x3b
 3117 0268 0B       		.uleb128 0xb
 3118 0269 49       		.uleb128 0x49
 3119 026a 13       		.uleb128 0x13
 3120 026b 02       		.uleb128 0x2
 3121 026c 17       		.uleb128 0x17
 3122 026d 00       		.byte	0
 3123 026e 00       		.byte	0
 3124 026f 31       		.uleb128 0x31
 3125 0270 1D       		.uleb128 0x1d
 3126 0271 01       		.byte	0x1
 3127 0272 31       		.uleb128 0x31
 3128 0273 13       		.uleb128 0x13
 3129 0274 52       		.uleb128 0x52
 3130 0275 01       		.uleb128 0x1
 3131 0276 55       		.uleb128 0x55
 3132 0277 17       		.uleb128 0x17
 3133 0278 58       		.uleb128 0x58
 3134 0279 0B       		.uleb128 0xb
 3135 027a 59       		.uleb128 0x59
ARM GAS  /var/folders/d2/nstgp4h54kz7g1l847x_b8wc0000gn/T//ccJo2A5k.s 			page 56


 3136 027b 0B       		.uleb128 0xb
 3137 027c 01       		.uleb128 0x1
 3138 027d 13       		.uleb128 0x13
 3139 027e 00       		.byte	0
 3140 027f 00       		.byte	0
 3141 0280 32       		.uleb128 0x32
 3142 0281 2E       		.uleb128 0x2e
 3143 0282 01       		.byte	0x1
 3144 0283 03       		.uleb128 0x3
 3145 0284 0E       		.uleb128 0xe
 3146 0285 3A       		.uleb128 0x3a
 3147 0286 0B       		.uleb128 0xb
 3148 0287 3B       		.uleb128 0x3b
 3149 0288 0B       		.uleb128 0xb
 3150 0289 27       		.uleb128 0x27
 3151 028a 19       		.uleb128 0x19
 3152 028b 20       		.uleb128 0x20
 3153 028c 0B       		.uleb128 0xb
 3154 028d 01       		.uleb128 0x1
 3155 028e 13       		.uleb128 0x13
 3156 028f 00       		.byte	0
 3157 0290 00       		.byte	0
 3158 0291 33       		.uleb128 0x33
 3159 0292 05       		.uleb128 0x5
 3160 0293 00       		.byte	0
 3161 0294 03       		.uleb128 0x3
 3162 0295 08       		.uleb128 0x8
 3163 0296 3A       		.uleb128 0x3a
 3164 0297 0B       		.uleb128 0xb
 3165 0298 3B       		.uleb128 0x3b
 3166 0299 0B       		.uleb128 0xb
 3167 029a 49       		.uleb128 0x49
 3168 029b 13       		.uleb128 0x13
 3169 029c 00       		.byte	0
 3170 029d 00       		.byte	0
 3171 029e 34       		.uleb128 0x34
 3172 029f 34       		.uleb128 0x34
 3173 02a0 00       		.byte	0
 3174 02a1 03       		.uleb128 0x3
 3175 02a2 08       		.uleb128 0x8
 3176 02a3 3A       		.uleb128 0x3a
 3177 02a4 0B       		.uleb128 0xb
 3178 02a5 3B       		.uleb128 0x3b
 3179 02a6 0B       		.uleb128 0xb
 3180 02a7 49       		.uleb128 0x49
 3181 02a8 13       		.uleb128 0x13
 3182 02a9 02       		.uleb128 0x2
 3183 02aa 18       		.uleb128 0x18
 3184 02ab 00       		.byte	0
 3185 02ac 00       		.byte	0
 3186 02ad 35       		.uleb128 0x35
 3187 02ae 898201   		.uleb128 0x4109
 3188 02b1 01       		.byte	0x1
 3189 02b2 11       		.uleb128 0x11
 3190 02b3 01       		.uleb128 0x1
 3191 02b4 31       		.uleb128 0x31
 3192 02b5 13       		.uleb128 0x13
ARM GAS  /var/folders/d2/nstgp4h54kz7g1l847x_b8wc0000gn/T//ccJo2A5k.s 			page 57


 3193 02b6 01       		.uleb128 0x1
 3194 02b7 13       		.uleb128 0x13
 3195 02b8 00       		.byte	0
 3196 02b9 00       		.byte	0
 3197 02ba 36       		.uleb128 0x36
 3198 02bb 34       		.uleb128 0x34
 3199 02bc 00       		.byte	0
 3200 02bd 03       		.uleb128 0x3
 3201 02be 08       		.uleb128 0x8
 3202 02bf 3A       		.uleb128 0x3a
 3203 02c0 0B       		.uleb128 0xb
 3204 02c1 3B       		.uleb128 0x3b
 3205 02c2 0B       		.uleb128 0xb
 3206 02c3 49       		.uleb128 0x49
 3207 02c4 13       		.uleb128 0x13
 3208 02c5 02       		.uleb128 0x2
 3209 02c6 17       		.uleb128 0x17
 3210 02c7 00       		.byte	0
 3211 02c8 00       		.byte	0
 3212 02c9 37       		.uleb128 0x37
 3213 02ca 898201   		.uleb128 0x4109
 3214 02cd 01       		.byte	0x1
 3215 02ce 11       		.uleb128 0x11
 3216 02cf 01       		.uleb128 0x1
 3217 02d0 01       		.uleb128 0x1
 3218 02d1 13       		.uleb128 0x13
 3219 02d2 00       		.byte	0
 3220 02d3 00       		.byte	0
 3221 02d4 38       		.uleb128 0x38
 3222 02d5 2E       		.uleb128 0x2e
 3223 02d6 01       		.byte	0x1
 3224 02d7 03       		.uleb128 0x3
 3225 02d8 0E       		.uleb128 0xe
 3226 02d9 3A       		.uleb128 0x3a
 3227 02da 0B       		.uleb128 0xb
 3228 02db 3B       		.uleb128 0x3b
 3229 02dc 0B       		.uleb128 0xb
 3230 02dd 27       		.uleb128 0x27
 3231 02de 19       		.uleb128 0x19
 3232 02df 49       		.uleb128 0x49
 3233 02e0 13       		.uleb128 0x13
 3234 02e1 20       		.uleb128 0x20
 3235 02e2 0B       		.uleb128 0xb
 3236 02e3 01       		.uleb128 0x1
 3237 02e4 13       		.uleb128 0x13
 3238 02e5 00       		.byte	0
 3239 02e6 00       		.byte	0
 3240 02e7 39       		.uleb128 0x39
 3241 02e8 2E       		.uleb128 0x2e
 3242 02e9 00       		.byte	0
 3243 02ea 3F       		.uleb128 0x3f
 3244 02eb 19       		.uleb128 0x19
 3245 02ec 3C       		.uleb128 0x3c
 3246 02ed 19       		.uleb128 0x19
 3247 02ee 6E       		.uleb128 0x6e
 3248 02ef 0E       		.uleb128 0xe
 3249 02f0 03       		.uleb128 0x3
ARM GAS  /var/folders/d2/nstgp4h54kz7g1l847x_b8wc0000gn/T//ccJo2A5k.s 			page 58


 3250 02f1 0E       		.uleb128 0xe
 3251 02f2 3A       		.uleb128 0x3a
 3252 02f3 0B       		.uleb128 0xb
 3253 02f4 3B       		.uleb128 0x3b
 3254 02f5 0B       		.uleb128 0xb
 3255 02f6 00       		.byte	0
 3256 02f7 00       		.byte	0
 3257 02f8 3A       		.uleb128 0x3a
 3258 02f9 2E       		.uleb128 0x2e
 3259 02fa 00       		.byte	0
 3260 02fb 3F       		.uleb128 0x3f
 3261 02fc 19       		.uleb128 0x19
 3262 02fd 3C       		.uleb128 0x3c
 3263 02fe 19       		.uleb128 0x19
 3264 02ff 6E       		.uleb128 0x6e
 3265 0300 0E       		.uleb128 0xe
 3266 0301 03       		.uleb128 0x3
 3267 0302 0E       		.uleb128 0xe
 3268 0303 00       		.byte	0
 3269 0304 00       		.byte	0
 3270 0305 00       		.byte	0
 3271              		.section	.debug_loc,"",%progbits
 3272              	.Ldebug_loc0:
 3273              	.LLST23:
 3274 0000 00000000 		.4byte	.LVL55
 3275 0004 26000000 		.4byte	.LVL59
 3276 0008 0100     		.2byte	0x1
 3277 000a 50       		.byte	0x50
 3278 000b 26000000 		.4byte	.LVL59
 3279 000f 60000000 		.4byte	.LVL66
 3280 0013 0100     		.2byte	0x1
 3281 0015 54       		.byte	0x54
 3282 0016 60000000 		.4byte	.LVL66
 3283 001a 72000000 		.4byte	.LVL67
 3284 001e 0400     		.2byte	0x4
 3285 0020 F3       		.byte	0xf3
 3286 0021 01       		.uleb128 0x1
 3287 0022 50       		.byte	0x50
 3288 0023 9F       		.byte	0x9f
 3289 0024 72000000 		.4byte	.LVL67
 3290 0028 FA000000 		.4byte	.LVL80
 3291 002c 0100     		.2byte	0x1
 3292 002e 54       		.byte	0x54
 3293 002f FA000000 		.4byte	.LVL80
 3294 0033 FE000000 		.4byte	.LVL81
 3295 0037 0100     		.2byte	0x1
 3296 0039 50       		.byte	0x50
 3297 003a FE000000 		.4byte	.LVL81
 3298 003e 1A010000 		.4byte	.LVL85
 3299 0042 0100     		.2byte	0x1
 3300 0044 54       		.byte	0x54
 3301 0045 1A010000 		.4byte	.LVL85
 3302 0049 24010000 		.4byte	.LFE6
 3303 004d 0400     		.2byte	0x4
 3304 004f F3       		.byte	0xf3
 3305 0050 01       		.uleb128 0x1
 3306 0051 50       		.byte	0x50
ARM GAS  /var/folders/d2/nstgp4h54kz7g1l847x_b8wc0000gn/T//ccJo2A5k.s 			page 59


 3307 0052 9F       		.byte	0x9f
 3308 0053 00000000 		.4byte	0
 3309 0057 00000000 		.4byte	0
 3310              	.LLST24:
 3311 005b 00000000 		.4byte	.LVL55
 3312 005f 26000000 		.4byte	.LVL59
 3313 0063 0100     		.2byte	0x1
 3314 0065 51       		.byte	0x51
 3315 0066 26000000 		.4byte	.LVL59
 3316 006a FA000000 		.4byte	.LVL80
 3317 006e 0400     		.2byte	0x4
 3318 0070 F3       		.byte	0xf3
 3319 0071 01       		.uleb128 0x1
 3320 0072 51       		.byte	0x51
 3321 0073 9F       		.byte	0x9f
 3322 0074 FA000000 		.4byte	.LVL80
 3323 0078 FE000000 		.4byte	.LVL81
 3324 007c 0100     		.2byte	0x1
 3325 007e 51       		.byte	0x51
 3326 007f FE000000 		.4byte	.LVL81
 3327 0083 24010000 		.4byte	.LFE6
 3328 0087 0400     		.2byte	0x4
 3329 0089 F3       		.byte	0xf3
 3330 008a 01       		.uleb128 0x1
 3331 008b 51       		.byte	0x51
 3332 008c 9F       		.byte	0x9f
 3333 008d 00000000 		.4byte	0
 3334 0091 00000000 		.4byte	0
 3335              	.LLST25:
 3336 0095 00000000 		.4byte	.LVL55
 3337 0099 10000000 		.4byte	.LVL56
 3338 009d 0100     		.2byte	0x1
 3339 009f 52       		.byte	0x52
 3340 00a0 10000000 		.4byte	.LVL56
 3341 00a4 16000000 		.4byte	.LVL57
 3342 00a8 0300     		.2byte	0x3
 3343 00aa 72       		.byte	0x72
 3344 00ab 7F       		.sleb128 -1
 3345 00ac 9F       		.byte	0x9f
 3346 00ad 16000000 		.4byte	.LVL57
 3347 00b1 1C000000 		.4byte	.LVL58
 3348 00b5 0100     		.2byte	0x1
 3349 00b7 56       		.byte	0x56
 3350 00b8 1C000000 		.4byte	.LVL58
 3351 00bc 26000000 		.4byte	.LVL59
 3352 00c0 0300     		.2byte	0x3
 3353 00c2 72       		.byte	0x72
 3354 00c3 7F       		.sleb128 -1
 3355 00c4 9F       		.byte	0x9f
 3356 00c5 26000000 		.4byte	.LVL59
 3357 00c9 2A000000 		.4byte	.LVL60
 3358 00cd 0C00     		.2byte	0xc
 3359 00cf 75       		.byte	0x75
 3360 00d0 00       		.sleb128 0
 3361 00d1 20       		.byte	0x20
 3362 00d2 F3       		.byte	0xf3
 3363 00d3 01       		.uleb128 0x1
ARM GAS  /var/folders/d2/nstgp4h54kz7g1l847x_b8wc0000gn/T//ccJo2A5k.s 			page 60


 3364 00d4 51       		.byte	0x51
 3365 00d5 22       		.byte	0x22
 3366 00d6 F3       		.byte	0xf3
 3367 00d7 01       		.uleb128 0x1
 3368 00d8 52       		.byte	0x52
 3369 00d9 22       		.byte	0x22
 3370 00da 9F       		.byte	0x9f
 3371 00db 2A000000 		.4byte	.LVL60
 3372 00df 34000000 		.4byte	.LVL62
 3373 00e3 0D00     		.2byte	0xd
 3374 00e5 F3       		.byte	0xf3
 3375 00e6 01       		.uleb128 0x1
 3376 00e7 51       		.byte	0x51
 3377 00e8 75       		.byte	0x75
 3378 00e9 00       		.sleb128 0
 3379 00ea 1C       		.byte	0x1c
 3380 00eb F3       		.byte	0xf3
 3381 00ec 01       		.uleb128 0x1
 3382 00ed 52       		.byte	0x52
 3383 00ee 22       		.byte	0x22
 3384 00ef 32       		.byte	0x32
 3385 00f0 1C       		.byte	0x1c
 3386 00f1 9F       		.byte	0x9f
 3387 00f2 34000000 		.4byte	.LVL62
 3388 00f6 5E000000 		.4byte	.LVL65
 3389 00fa 0C00     		.2byte	0xc
 3390 00fc 75       		.byte	0x75
 3391 00fd 00       		.sleb128 0
 3392 00fe 20       		.byte	0x20
 3393 00ff F3       		.byte	0xf3
 3394 0100 01       		.uleb128 0x1
 3395 0101 51       		.byte	0x51
 3396 0102 22       		.byte	0x22
 3397 0103 F3       		.byte	0xf3
 3398 0104 01       		.uleb128 0x1
 3399 0105 52       		.byte	0x52
 3400 0106 22       		.byte	0x22
 3401 0107 9F       		.byte	0x9f
 3402 0108 5E000000 		.4byte	.LVL65
 3403 010c 60000000 		.4byte	.LVL66
 3404 0110 0D00     		.2byte	0xd
 3405 0112 F3       		.byte	0xf3
 3406 0113 01       		.uleb128 0x1
 3407 0114 51       		.byte	0x51
 3408 0115 75       		.byte	0x75
 3409 0116 00       		.sleb128 0
 3410 0117 1C       		.byte	0x1c
 3411 0118 F3       		.byte	0xf3
 3412 0119 01       		.uleb128 0x1
 3413 011a 52       		.byte	0x52
 3414 011b 22       		.byte	0x22
 3415 011c 32       		.byte	0x32
 3416 011d 1C       		.byte	0x1c
 3417 011e 9F       		.byte	0x9f
 3418 011f 72000000 		.4byte	.LVL67
 3419 0123 FA000000 		.4byte	.LVL80
 3420 0127 0C00     		.2byte	0xc
ARM GAS  /var/folders/d2/nstgp4h54kz7g1l847x_b8wc0000gn/T//ccJo2A5k.s 			page 61


 3421 0129 75       		.byte	0x75
 3422 012a 00       		.sleb128 0
 3423 012b 20       		.byte	0x20
 3424 012c F3       		.byte	0xf3
 3425 012d 01       		.uleb128 0x1
 3426 012e 51       		.byte	0x51
 3427 012f 22       		.byte	0x22
 3428 0130 F3       		.byte	0xf3
 3429 0131 01       		.uleb128 0x1
 3430 0132 52       		.byte	0x52
 3431 0133 22       		.byte	0x22
 3432 0134 9F       		.byte	0x9f
 3433 0135 FA000000 		.4byte	.LVL80
 3434 0139 FE000000 		.4byte	.LVL81
 3435 013d 0300     		.2byte	0x3
 3436 013f 72       		.byte	0x72
 3437 0140 7F       		.sleb128 -1
 3438 0141 9F       		.byte	0x9f
 3439 0142 FE000000 		.4byte	.LVL81
 3440 0146 1A010000 		.4byte	.LVL85
 3441 014a 0C00     		.2byte	0xc
 3442 014c 75       		.byte	0x75
 3443 014d 00       		.sleb128 0
 3444 014e 20       		.byte	0x20
 3445 014f F3       		.byte	0xf3
 3446 0150 01       		.uleb128 0x1
 3447 0151 51       		.byte	0x51
 3448 0152 22       		.byte	0x22
 3449 0153 F3       		.byte	0xf3
 3450 0154 01       		.uleb128 0x1
 3451 0155 52       		.byte	0x52
 3452 0156 22       		.byte	0x22
 3453 0157 9F       		.byte	0x9f
 3454 0158 00000000 		.4byte	0
 3455 015c 00000000 		.4byte	0
 3456              	.LLST26:
 3457 0160 10000000 		.4byte	.LVL56
 3458 0164 26000000 		.4byte	.LVL59
 3459 0168 0100     		.2byte	0x1
 3460 016a 51       		.byte	0x51
 3461 016b 26000000 		.4byte	.LVL59
 3462 016f 2A000000 		.4byte	.LVL60
 3463 0173 0100     		.2byte	0x1
 3464 0175 55       		.byte	0x55
 3465 0176 2A000000 		.4byte	.LVL60
 3466 017a 34000000 		.4byte	.LVL62
 3467 017e 0300     		.2byte	0x3
 3468 0180 75       		.byte	0x75
 3469 0181 01       		.sleb128 1
 3470 0182 9F       		.byte	0x9f
 3471 0183 34000000 		.4byte	.LVL62
 3472 0187 5E000000 		.4byte	.LVL65
 3473 018b 0100     		.2byte	0x1
 3474 018d 55       		.byte	0x55
 3475 018e 5E000000 		.4byte	.LVL65
 3476 0192 60000000 		.4byte	.LVL66
 3477 0196 0300     		.2byte	0x3
ARM GAS  /var/folders/d2/nstgp4h54kz7g1l847x_b8wc0000gn/T//ccJo2A5k.s 			page 62


 3478 0198 75       		.byte	0x75
 3479 0199 01       		.sleb128 1
 3480 019a 9F       		.byte	0x9f
 3481 019b 72000000 		.4byte	.LVL67
 3482 019f FA000000 		.4byte	.LVL80
 3483 01a3 0100     		.2byte	0x1
 3484 01a5 55       		.byte	0x55
 3485 01a6 FA000000 		.4byte	.LVL80
 3486 01aa FE000000 		.4byte	.LVL81
 3487 01ae 0100     		.2byte	0x1
 3488 01b0 51       		.byte	0x51
 3489 01b1 FE000000 		.4byte	.LVL81
 3490 01b5 1A010000 		.4byte	.LVL85
 3491 01b9 0100     		.2byte	0x1
 3492 01bb 55       		.byte	0x55
 3493 01bc 00000000 		.4byte	0
 3494 01c0 00000000 		.4byte	0
 3495              	.LLST27:
 3496 01c4 10000000 		.4byte	.LVL56
 3497 01c8 26000000 		.4byte	.LVL59
 3498 01cc 0200     		.2byte	0x2
 3499 01ce 30       		.byte	0x30
 3500 01cf 9F       		.byte	0x9f
 3501 01d0 52000000 		.4byte	.LVL63
 3502 01d4 58000000 		.4byte	.LVL64
 3503 01d8 0200     		.2byte	0x2
 3504 01da 33       		.byte	0x33
 3505 01db 9F       		.byte	0x9f
 3506 01dc D4000000 		.4byte	.LVL78
 3507 01e0 D8000000 		.4byte	.LVL79
 3508 01e4 0200     		.2byte	0x2
 3509 01e6 31       		.byte	0x31
 3510 01e7 9F       		.byte	0x9f
 3511 01e8 FA000000 		.4byte	.LVL80
 3512 01ec FE000000 		.4byte	.LVL81
 3513 01f0 0200     		.2byte	0x2
 3514 01f2 30       		.byte	0x30
 3515 01f3 9F       		.byte	0x9f
 3516 01f4 00000000 		.4byte	0
 3517 01f8 00000000 		.4byte	0
 3518              	.LLST28:
 3519 01fc 72000000 		.4byte	.LVL67
 3520 0200 AC000000 		.4byte	.LVL73
 3521 0204 0100     		.2byte	0x1
 3522 0206 5B       		.byte	0x5b
 3523 0207 BA000000 		.4byte	.LVL74
 3524 020b BE000000 		.4byte	.LVL75
 3525 020f 0300     		.2byte	0x3
 3526 0211 71       		.byte	0x71
 3527 0212 7C       		.sleb128 -4
 3528 0213 9F       		.byte	0x9f
 3529 0214 BE000000 		.4byte	.LVL75
 3530 0218 D0000000 		.4byte	.LVL77
 3531 021c 0100     		.2byte	0x1
 3532 021e 5B       		.byte	0x5b
 3533 021f 0A010000 		.4byte	.LVL82
 3534 0223 1A010000 		.4byte	.LVL85
ARM GAS  /var/folders/d2/nstgp4h54kz7g1l847x_b8wc0000gn/T//ccJo2A5k.s 			page 63


 3535 0227 0100     		.2byte	0x1
 3536 0229 5B       		.byte	0x5b
 3537 022a 00000000 		.4byte	0
 3538 022e 00000000 		.4byte	0
 3539              	.LLST29:
 3540 0232 7E000000 		.4byte	.LVL69
 3541 0236 80000000 		.4byte	.LVL70
 3542 023a 3A00     		.2byte	0x3a
 3543 023c 72       		.byte	0x72
 3544 023d 00       		.sleb128 0
 3545 023e 71       		.byte	0x71
 3546 023f 00       		.sleb128 0
 3547 0240 22       		.byte	0x22
 3548 0241 34       		.byte	0x34
 3549 0242 1C       		.byte	0x1c
 3550 0243 94       		.byte	0x94
 3551 0244 01       		.byte	0x1
 3552 0245 08       		.byte	0x8
 3553 0246 FF       		.byte	0xff
 3554 0247 1A       		.byte	0x1a
 3555 0248 48       		.byte	0x48
 3556 0249 24       		.byte	0x24
 3557 024a 72       		.byte	0x72
 3558 024b 00       		.sleb128 0
 3559 024c 71       		.byte	0x71
 3560 024d 00       		.sleb128 0
 3561 024e 22       		.byte	0x22
 3562 024f 33       		.byte	0x33
 3563 0250 1C       		.byte	0x1c
 3564 0251 94       		.byte	0x94
 3565 0252 01       		.byte	0x1
 3566 0253 08       		.byte	0x8
 3567 0254 FF       		.byte	0xff
 3568 0255 1A       		.byte	0x1a
 3569 0256 40       		.byte	0x40
 3570 0257 24       		.byte	0x24
 3571 0258 21       		.byte	0x21
 3572 0259 72       		.byte	0x72
 3573 025a 00       		.sleb128 0
 3574 025b 71       		.byte	0x71
 3575 025c 00       		.sleb128 0
 3576 025d 22       		.byte	0x22
 3577 025e 32       		.byte	0x32
 3578 025f 1C       		.byte	0x1c
 3579 0260 94       		.byte	0x94
 3580 0261 01       		.byte	0x1
 3581 0262 08       		.byte	0x8
 3582 0263 FF       		.byte	0xff
 3583 0264 1A       		.byte	0x1a
 3584 0265 38       		.byte	0x38
 3585 0266 24       		.byte	0x24
 3586 0267 21       		.byte	0x21
 3587 0268 72       		.byte	0x72
 3588 0269 00       		.sleb128 0
 3589 026a 71       		.byte	0x71
 3590 026b 00       		.sleb128 0
 3591 026c 22       		.byte	0x22
ARM GAS  /var/folders/d2/nstgp4h54kz7g1l847x_b8wc0000gn/T//ccJo2A5k.s 			page 64


 3592 026d 31       		.byte	0x31
 3593 026e 1C       		.byte	0x1c
 3594 026f 94       		.byte	0x94
 3595 0270 01       		.byte	0x1
 3596 0271 08       		.byte	0x8
 3597 0272 FF       		.byte	0xff
 3598 0273 1A       		.byte	0x1a
 3599 0274 21       		.byte	0x21
 3600 0275 9F       		.byte	0x9f
 3601 0276 80000000 		.4byte	.LVL70
 3602 027a 90000000 		.4byte	.LVL71
 3603 027e 3800     		.2byte	0x38
 3604 0280 72       		.byte	0x72
 3605 0281 00       		.sleb128 0
 3606 0282 74       		.byte	0x74
 3607 0283 08       		.sleb128 8
 3608 0284 06       		.byte	0x6
 3609 0285 22       		.byte	0x22
 3610 0286 34       		.byte	0x34
 3611 0287 1C       		.byte	0x1c
 3612 0288 94       		.byte	0x94
 3613 0289 01       		.byte	0x1
 3614 028a 08       		.byte	0x8
 3615 028b FF       		.byte	0xff
 3616 028c 1A       		.byte	0x1a
 3617 028d 48       		.byte	0x48
 3618 028e 24       		.byte	0x24
 3619 028f 72       		.byte	0x72
 3620 0290 00       		.sleb128 0
 3621 0291 74       		.byte	0x74
 3622 0292 08       		.sleb128 8
 3623 0293 06       		.byte	0x6
 3624 0294 22       		.byte	0x22
 3625 0295 33       		.byte	0x33
 3626 0296 1C       		.byte	0x1c
 3627 0297 94       		.byte	0x94
 3628 0298 01       		.byte	0x1
 3629 0299 08       		.byte	0x8
 3630 029a FF       		.byte	0xff
 3631 029b 1A       		.byte	0x1a
 3632 029c 40       		.byte	0x40
 3633 029d 24       		.byte	0x24
 3634 029e 21       		.byte	0x21
 3635 029f 72       		.byte	0x72
 3636 02a0 00       		.sleb128 0
 3637 02a1 74       		.byte	0x74
 3638 02a2 08       		.sleb128 8
 3639 02a3 06       		.byte	0x6
 3640 02a4 22       		.byte	0x22
 3641 02a5 32       		.byte	0x32
 3642 02a6 1C       		.byte	0x1c
 3643 02a7 94       		.byte	0x94
 3644 02a8 01       		.byte	0x1
 3645 02a9 08       		.byte	0x8
 3646 02aa FF       		.byte	0xff
 3647 02ab 1A       		.byte	0x1a
 3648 02ac 38       		.byte	0x38
ARM GAS  /var/folders/d2/nstgp4h54kz7g1l847x_b8wc0000gn/T//ccJo2A5k.s 			page 65


 3649 02ad 24       		.byte	0x24
 3650 02ae 21       		.byte	0x21
 3651 02af 71       		.byte	0x71
 3652 02b0 7F       		.sleb128 -1
 3653 02b1 94       		.byte	0x94
 3654 02b2 01       		.byte	0x1
 3655 02b3 08       		.byte	0x8
 3656 02b4 FF       		.byte	0xff
 3657 02b5 1A       		.byte	0x1a
 3658 02b6 21       		.byte	0x21
 3659 02b7 9F       		.byte	0x9f
 3660 02b8 90000000 		.4byte	.LVL71
 3661 02bc AA000000 		.4byte	.LVL72
 3662 02c0 3E00     		.2byte	0x3e
 3663 02c2 72       		.byte	0x72
 3664 02c3 00       		.sleb128 0
 3665 02c4 74       		.byte	0x74
 3666 02c5 08       		.sleb128 8
 3667 02c6 06       		.byte	0x6
 3668 02c7 22       		.byte	0x22
 3669 02c8 34       		.byte	0x34
 3670 02c9 1C       		.byte	0x1c
 3671 02ca 94       		.byte	0x94
 3672 02cb 01       		.byte	0x1
 3673 02cc 08       		.byte	0x8
 3674 02cd FF       		.byte	0xff
 3675 02ce 1A       		.byte	0x1a
 3676 02cf 48       		.byte	0x48
 3677 02d0 24       		.byte	0x24
 3678 02d1 72       		.byte	0x72
 3679 02d2 00       		.sleb128 0
 3680 02d3 74       		.byte	0x74
 3681 02d4 08       		.sleb128 8
 3682 02d5 06       		.byte	0x6
 3683 02d6 22       		.byte	0x22
 3684 02d7 33       		.byte	0x33
 3685 02d8 1C       		.byte	0x1c
 3686 02d9 94       		.byte	0x94
 3687 02da 01       		.byte	0x1
 3688 02db 08       		.byte	0x8
 3689 02dc FF       		.byte	0xff
 3690 02dd 1A       		.byte	0x1a
 3691 02de 40       		.byte	0x40
 3692 02df 24       		.byte	0x24
 3693 02e0 21       		.byte	0x21
 3694 02e1 72       		.byte	0x72
 3695 02e2 00       		.sleb128 0
 3696 02e3 74       		.byte	0x74
 3697 02e4 08       		.sleb128 8
 3698 02e5 06       		.byte	0x6
 3699 02e6 22       		.byte	0x22
 3700 02e7 32       		.byte	0x32
 3701 02e8 1C       		.byte	0x1c
 3702 02e9 94       		.byte	0x94
 3703 02ea 01       		.byte	0x1
 3704 02eb 08       		.byte	0x8
 3705 02ec FF       		.byte	0xff
ARM GAS  /var/folders/d2/nstgp4h54kz7g1l847x_b8wc0000gn/T//ccJo2A5k.s 			page 66


 3706 02ed 1A       		.byte	0x1a
 3707 02ee 38       		.byte	0x38
 3708 02ef 24       		.byte	0x24
 3709 02f0 21       		.byte	0x21
 3710 02f1 72       		.byte	0x72
 3711 02f2 00       		.sleb128 0
 3712 02f3 74       		.byte	0x74
 3713 02f4 08       		.sleb128 8
 3714 02f5 06       		.byte	0x6
 3715 02f6 22       		.byte	0x22
 3716 02f7 31       		.byte	0x31
 3717 02f8 1C       		.byte	0x1c
 3718 02f9 94       		.byte	0x94
 3719 02fa 01       		.byte	0x1
 3720 02fb 08       		.byte	0x8
 3721 02fc FF       		.byte	0xff
 3722 02fd 1A       		.byte	0x1a
 3723 02fe 21       		.byte	0x21
 3724 02ff 9F       		.byte	0x9f
 3725 0300 AA000000 		.4byte	.LVL72
 3726 0304 AB000000 		.4byte	.LVL73-1
 3727 0308 3E00     		.2byte	0x3e
 3728 030a 74       		.byte	0x74
 3729 030b 08       		.sleb128 8
 3730 030c 06       		.byte	0x6
 3731 030d 70       		.byte	0x70
 3732 030e 00       		.sleb128 0
 3733 030f 22       		.byte	0x22
 3734 0310 34       		.byte	0x34
 3735 0311 1C       		.byte	0x1c
 3736 0312 94       		.byte	0x94
 3737 0313 01       		.byte	0x1
 3738 0314 08       		.byte	0x8
 3739 0315 FF       		.byte	0xff
 3740 0316 1A       		.byte	0x1a
 3741 0317 48       		.byte	0x48
 3742 0318 24       		.byte	0x24
 3743 0319 74       		.byte	0x74
 3744 031a 08       		.sleb128 8
 3745 031b 06       		.byte	0x6
 3746 031c 70       		.byte	0x70
 3747 031d 00       		.sleb128 0
 3748 031e 22       		.byte	0x22
 3749 031f 33       		.byte	0x33
 3750 0320 1C       		.byte	0x1c
 3751 0321 94       		.byte	0x94
 3752 0322 01       		.byte	0x1
 3753 0323 08       		.byte	0x8
 3754 0324 FF       		.byte	0xff
 3755 0325 1A       		.byte	0x1a
 3756 0326 40       		.byte	0x40
 3757 0327 24       		.byte	0x24
 3758 0328 21       		.byte	0x21
 3759 0329 70       		.byte	0x70
 3760 032a 00       		.sleb128 0
 3761 032b 74       		.byte	0x74
 3762 032c 08       		.sleb128 8
ARM GAS  /var/folders/d2/nstgp4h54kz7g1l847x_b8wc0000gn/T//ccJo2A5k.s 			page 67


 3763 032d 06       		.byte	0x6
 3764 032e 22       		.byte	0x22
 3765 032f 32       		.byte	0x32
 3766 0330 1C       		.byte	0x1c
 3767 0331 94       		.byte	0x94
 3768 0332 01       		.byte	0x1
 3769 0333 08       		.byte	0x8
 3770 0334 FF       		.byte	0xff
 3771 0335 1A       		.byte	0x1a
 3772 0336 38       		.byte	0x38
 3773 0337 24       		.byte	0x24
 3774 0338 21       		.byte	0x21
 3775 0339 70       		.byte	0x70
 3776 033a 00       		.sleb128 0
 3777 033b 74       		.byte	0x74
 3778 033c 08       		.sleb128 8
 3779 033d 06       		.byte	0x6
 3780 033e 22       		.byte	0x22
 3781 033f 31       		.byte	0x31
 3782 0340 1C       		.byte	0x1c
 3783 0341 94       		.byte	0x94
 3784 0342 01       		.byte	0x1
 3785 0343 08       		.byte	0x8
 3786 0344 FF       		.byte	0xff
 3787 0345 1A       		.byte	0x1a
 3788 0346 21       		.byte	0x21
 3789 0347 9F       		.byte	0x9f
 3790 0348 0A010000 		.4byte	.LVL82
 3791 034c 10010000 		.4byte	.LVL84
 3792 0350 3E00     		.2byte	0x3e
 3793 0352 72       		.byte	0x72
 3794 0353 00       		.sleb128 0
 3795 0354 74       		.byte	0x74
 3796 0355 08       		.sleb128 8
 3797 0356 06       		.byte	0x6
 3798 0357 22       		.byte	0x22
 3799 0358 34       		.byte	0x34
 3800 0359 1C       		.byte	0x1c
 3801 035a 94       		.byte	0x94
 3802 035b 01       		.byte	0x1
 3803 035c 08       		.byte	0x8
 3804 035d FF       		.byte	0xff
 3805 035e 1A       		.byte	0x1a
 3806 035f 48       		.byte	0x48
 3807 0360 24       		.byte	0x24
 3808 0361 72       		.byte	0x72
 3809 0362 00       		.sleb128 0
 3810 0363 74       		.byte	0x74
 3811 0364 08       		.sleb128 8
 3812 0365 06       		.byte	0x6
 3813 0366 22       		.byte	0x22
 3814 0367 33       		.byte	0x33
 3815 0368 1C       		.byte	0x1c
 3816 0369 94       		.byte	0x94
 3817 036a 01       		.byte	0x1
 3818 036b 08       		.byte	0x8
 3819 036c FF       		.byte	0xff
ARM GAS  /var/folders/d2/nstgp4h54kz7g1l847x_b8wc0000gn/T//ccJo2A5k.s 			page 68


 3820 036d 1A       		.byte	0x1a
 3821 036e 40       		.byte	0x40
 3822 036f 24       		.byte	0x24
 3823 0370 21       		.byte	0x21
 3824 0371 72       		.byte	0x72
 3825 0372 00       		.sleb128 0
 3826 0373 74       		.byte	0x74
 3827 0374 08       		.sleb128 8
 3828 0375 06       		.byte	0x6
 3829 0376 22       		.byte	0x22
 3830 0377 32       		.byte	0x32
 3831 0378 1C       		.byte	0x1c
 3832 0379 94       		.byte	0x94
 3833 037a 01       		.byte	0x1
 3834 037b 08       		.byte	0x8
 3835 037c FF       		.byte	0xff
 3836 037d 1A       		.byte	0x1a
 3837 037e 38       		.byte	0x38
 3838 037f 24       		.byte	0x24
 3839 0380 21       		.byte	0x21
 3840 0381 72       		.byte	0x72
 3841 0382 00       		.sleb128 0
 3842 0383 74       		.byte	0x74
 3843 0384 08       		.sleb128 8
 3844 0385 06       		.byte	0x6
 3845 0386 22       		.byte	0x22
 3846 0387 31       		.byte	0x31
 3847 0388 1C       		.byte	0x1c
 3848 0389 94       		.byte	0x94
 3849 038a 01       		.byte	0x1
 3850 038b 08       		.byte	0x8
 3851 038c FF       		.byte	0xff
 3852 038d 1A       		.byte	0x1a
 3853 038e 21       		.byte	0x21
 3854 038f 9F       		.byte	0x9f
 3855 0390 00000000 		.4byte	0
 3856 0394 00000000 		.4byte	0
 3857              	.LLST30:
 3858 0398 72000000 		.4byte	.LVL67
 3859 039c 7A000000 		.4byte	.LVL68
 3860 03a0 0100     		.2byte	0x1
 3861 03a2 5B       		.byte	0x5b
 3862 03a3 00000000 		.4byte	0
 3863 03a7 00000000 		.4byte	0
 3864              	.LLST31:
 3865 03ab 72000000 		.4byte	.LVL67
 3866 03af 79000000 		.4byte	.LVL68-1
 3867 03b3 0200     		.2byte	0x2
 3868 03b5 74       		.byte	0x74
 3869 03b6 00       		.sleb128 0
 3870 03b7 00000000 		.4byte	0
 3871 03bb 00000000 		.4byte	0
 3872              	.LLST32:
 3873 03bf AC000000 		.4byte	.LVL73
 3874 03c3 BA000000 		.4byte	.LVL74
 3875 03c7 0100     		.2byte	0x1
 3876 03c9 54       		.byte	0x54
ARM GAS  /var/folders/d2/nstgp4h54kz7g1l847x_b8wc0000gn/T//ccJo2A5k.s 			page 69


 3877 03ca C2000000 		.4byte	.LVL76
 3878 03ce D0000000 		.4byte	.LVL77
 3879 03d2 0100     		.2byte	0x1
 3880 03d4 54       		.byte	0x54
 3881 03d5 0C010000 		.4byte	.LVL83
 3882 03d9 1A010000 		.4byte	.LVL85
 3883 03dd 0100     		.2byte	0x1
 3884 03df 54       		.byte	0x54
 3885 03e0 00000000 		.4byte	0
 3886 03e4 00000000 		.4byte	0
 3887              	.LLST17:
 3888 03e8 00000000 		.4byte	.LVL48
 3889 03ec 2B000000 		.4byte	.LVL54-1
 3890 03f0 0100     		.2byte	0x1
 3891 03f2 50       		.byte	0x50
 3892 03f3 2B000000 		.4byte	.LVL54-1
 3893 03f7 30000000 		.4byte	.LFE5
 3894 03fb 0400     		.2byte	0x4
 3895 03fd F3       		.byte	0xf3
 3896 03fe 01       		.uleb128 0x1
 3897 03ff 50       		.byte	0x50
 3898 0400 9F       		.byte	0x9f
 3899 0401 00000000 		.4byte	0
 3900 0405 00000000 		.4byte	0
 3901              	.LLST18:
 3902 0409 00000000 		.4byte	.LVL48
 3903 040d 12000000 		.4byte	.LVL49
 3904 0411 0100     		.2byte	0x1
 3905 0413 51       		.byte	0x51
 3906 0414 12000000 		.4byte	.LVL49
 3907 0418 2B000000 		.4byte	.LVL54-1
 3908 041c 0200     		.2byte	0x2
 3909 041e 70       		.byte	0x70
 3910 041f 00       		.sleb128 0
 3911 0420 2B000000 		.4byte	.LVL54-1
 3912 0424 30000000 		.4byte	.LFE5
 3913 0428 0400     		.2byte	0x4
 3914 042a F3       		.byte	0xf3
 3915 042b 01       		.uleb128 0x1
 3916 042c 51       		.byte	0x51
 3917 042d 9F       		.byte	0x9f
 3918 042e 00000000 		.4byte	0
 3919 0432 00000000 		.4byte	0
 3920              	.LLST19:
 3921 0436 00000000 		.4byte	.LVL48
 3922 043a 16000000 		.4byte	.LVL50
 3923 043e 0100     		.2byte	0x1
 3924 0440 52       		.byte	0x52
 3925 0441 16000000 		.4byte	.LVL50
 3926 0445 2B000000 		.4byte	.LVL54-1
 3927 0449 0200     		.2byte	0x2
 3928 044b 70       		.byte	0x70
 3929 044c 04       		.sleb128 4
 3930 044d 2B000000 		.4byte	.LVL54-1
 3931 0451 30000000 		.4byte	.LFE5
 3932 0455 0400     		.2byte	0x4
 3933 0457 F3       		.byte	0xf3
ARM GAS  /var/folders/d2/nstgp4h54kz7g1l847x_b8wc0000gn/T//ccJo2A5k.s 			page 70


 3934 0458 01       		.uleb128 0x1
 3935 0459 52       		.byte	0x52
 3936 045a 9F       		.byte	0x9f
 3937 045b 00000000 		.4byte	0
 3938 045f 00000000 		.4byte	0
 3939              	.LLST20:
 3940 0463 00000000 		.4byte	.LVL48
 3941 0467 2B000000 		.4byte	.LVL54-1
 3942 046b 0100     		.2byte	0x1
 3943 046d 53       		.byte	0x53
 3944 046e 2B000000 		.4byte	.LVL54-1
 3945 0472 30000000 		.4byte	.LFE5
 3946 0476 0400     		.2byte	0x4
 3947 0478 F3       		.byte	0xf3
 3948 0479 01       		.uleb128 0x1
 3949 047a 53       		.byte	0x53
 3950 047b 9F       		.byte	0x9f
 3951 047c 00000000 		.4byte	0
 3952 0480 00000000 		.4byte	0
 3953              	.LLST21:
 3954 0484 00000000 		.4byte	.LVL48
 3955 0488 28000000 		.4byte	.LVL53
 3956 048c 0200     		.2byte	0x2
 3957 048e 91       		.byte	0x91
 3958 048f 00       		.sleb128 0
 3959 0490 28000000 		.4byte	.LVL53
 3960 0494 30000000 		.4byte	.LFE5
 3961 0498 0200     		.2byte	0x2
 3962 049a 91       		.byte	0x91
 3963 049b 00       		.sleb128 0
 3964 049c 00000000 		.4byte	0
 3965 04a0 00000000 		.4byte	0
 3966              	.LLST22:
 3967 04a4 1C000000 		.4byte	.LVL51
 3968 04a8 22000000 		.4byte	.LVL52
 3969 04ac 0100     		.2byte	0x1
 3970 04ae 50       		.byte	0x50
 3971 04af 00000000 		.4byte	0
 3972 04b3 00000000 		.4byte	0
 3973              	.LLST13:
 3974 04b7 00000000 		.4byte	.LVL41
 3975 04bb 1F000000 		.4byte	.LVL44-1
 3976 04bf 0100     		.2byte	0x1
 3977 04c1 50       		.byte	0x50
 3978 04c2 1F000000 		.4byte	.LVL44-1
 3979 04c6 40000000 		.4byte	.LFE3
 3980 04ca 0400     		.2byte	0x4
 3981 04cc F3       		.byte	0xf3
 3982 04cd 01       		.uleb128 0x1
 3983 04ce 50       		.byte	0x50
 3984 04cf 9F       		.byte	0x9f
 3985 04d0 00000000 		.4byte	0
 3986 04d4 00000000 		.4byte	0
 3987              	.LLST14:
 3988 04d8 00000000 		.4byte	.LVL41
 3989 04dc 1F000000 		.4byte	.LVL44-1
 3990 04e0 0100     		.2byte	0x1
ARM GAS  /var/folders/d2/nstgp4h54kz7g1l847x_b8wc0000gn/T//ccJo2A5k.s 			page 71


 3991 04e2 51       		.byte	0x51
 3992 04e3 1F000000 		.4byte	.LVL44-1
 3993 04e7 40000000 		.4byte	.LFE3
 3994 04eb 0400     		.2byte	0x4
 3995 04ed F3       		.byte	0xf3
 3996 04ee 01       		.uleb128 0x1
 3997 04ef 51       		.byte	0x51
 3998 04f0 9F       		.byte	0x9f
 3999 04f1 00000000 		.4byte	0
 4000 04f5 00000000 		.4byte	0
 4001              	.LLST15:
 4002 04f9 00000000 		.4byte	.LVL41
 4003 04fd 1A000000 		.4byte	.LVL43
 4004 0501 0100     		.2byte	0x1
 4005 0503 52       		.byte	0x52
 4006 0504 1A000000 		.4byte	.LVL43
 4007 0508 40000000 		.4byte	.LFE3
 4008 050c 0100     		.2byte	0x1
 4009 050e 56       		.byte	0x56
 4010 050f 00000000 		.4byte	0
 4011 0513 00000000 		.4byte	0
 4012              	.LLST16:
 4013 0517 00000000 		.4byte	.LVL41
 4014 051b 16000000 		.4byte	.LVL42
 4015 051f 0100     		.2byte	0x1
 4016 0521 53       		.byte	0x53
 4017 0522 16000000 		.4byte	.LVL42
 4018 0526 40000000 		.4byte	.LFE3
 4019 052a 0100     		.2byte	0x1
 4020 052c 57       		.byte	0x57
 4021 052d 00000000 		.4byte	0
 4022 0531 00000000 		.4byte	0
 4023              	.LLST8:
 4024 0535 00000000 		.4byte	.LVL23
 4025 0539 48000000 		.4byte	.LVL32
 4026 053d 0100     		.2byte	0x1
 4027 053f 50       		.byte	0x50
 4028 0540 48000000 		.4byte	.LVL32
 4029 0544 62000000 		.4byte	.LVL35
 4030 0548 0400     		.2byte	0x4
 4031 054a F3       		.byte	0xf3
 4032 054b 01       		.uleb128 0x1
 4033 054c 50       		.byte	0x50
 4034 054d 9F       		.byte	0x9f
 4035 054e 62000000 		.4byte	.LVL35
 4036 0552 84000000 		.4byte	.LVL39
 4037 0556 0100     		.2byte	0x1
 4038 0558 50       		.byte	0x50
 4039 0559 84000000 		.4byte	.LVL39
 4040 055d 8C000000 		.4byte	.LFE2
 4041 0561 0400     		.2byte	0x4
 4042 0563 F3       		.byte	0xf3
 4043 0564 01       		.uleb128 0x1
 4044 0565 50       		.byte	0x50
 4045 0566 9F       		.byte	0x9f
 4046 0567 00000000 		.4byte	0
 4047 056b 00000000 		.4byte	0
ARM GAS  /var/folders/d2/nstgp4h54kz7g1l847x_b8wc0000gn/T//ccJo2A5k.s 			page 72


 4048              	.LLST9:
 4049 056f 00000000 		.4byte	.LVL23
 4050 0573 12000000 		.4byte	.LVL25
 4051 0577 0100     		.2byte	0x1
 4052 0579 51       		.byte	0x51
 4053 057a 12000000 		.4byte	.LVL25
 4054 057e 8C000000 		.4byte	.LFE2
 4055 0582 0100     		.2byte	0x1
 4056 0584 58       		.byte	0x58
 4057 0585 00000000 		.4byte	0
 4058 0589 00000000 		.4byte	0
 4059              	.LLST10:
 4060 058d 00000000 		.4byte	.LVL23
 4061 0591 4C000000 		.4byte	.LVL33
 4062 0595 0100     		.2byte	0x1
 4063 0597 52       		.byte	0x52
 4064 0598 4C000000 		.4byte	.LVL33
 4065 059c 53000000 		.4byte	.LVL34-1
 4066 05a0 0100     		.2byte	0x1
 4067 05a2 50       		.byte	0x50
 4068 05a3 53000000 		.4byte	.LVL34-1
 4069 05a7 62000000 		.4byte	.LVL35
 4070 05ab 0400     		.2byte	0x4
 4071 05ad F3       		.byte	0xf3
 4072 05ae 01       		.uleb128 0x1
 4073 05af 52       		.byte	0x52
 4074 05b0 9F       		.byte	0x9f
 4075 05b1 62000000 		.4byte	.LVL35
 4076 05b5 84000000 		.4byte	.LVL39
 4077 05b9 0100     		.2byte	0x1
 4078 05bb 52       		.byte	0x52
 4079 05bc 84000000 		.4byte	.LVL39
 4080 05c0 8C000000 		.4byte	.LFE2
 4081 05c4 0400     		.2byte	0x4
 4082 05c6 F3       		.byte	0xf3
 4083 05c7 01       		.uleb128 0x1
 4084 05c8 52       		.byte	0x52
 4085 05c9 9F       		.byte	0x9f
 4086 05ca 00000000 		.4byte	0
 4087 05ce 00000000 		.4byte	0
 4088              	.LLST11:
 4089 05d2 0C000000 		.4byte	.LVL24
 4090 05d6 1E000000 		.4byte	.LVL26
 4091 05da 0200     		.2byte	0x2
 4092 05dc 30       		.byte	0x30
 4093 05dd 9F       		.byte	0x9f
 4094 05de 1E000000 		.4byte	.LVL26
 4095 05e2 32000000 		.4byte	.LVL27
 4096 05e6 0100     		.2byte	0x1
 4097 05e8 53       		.byte	0x53
 4098 05e9 32000000 		.4byte	.LVL27
 4099 05ed 3A000000 		.4byte	.LVL28
 4100 05f1 0100     		.2byte	0x1
 4101 05f3 54       		.byte	0x54
 4102 05f4 3A000000 		.4byte	.LVL28
 4103 05f8 42000000 		.4byte	.LVL30
 4104 05fc 0100     		.2byte	0x1
ARM GAS  /var/folders/d2/nstgp4h54kz7g1l847x_b8wc0000gn/T//ccJo2A5k.s 			page 73


 4105 05fe 53       		.byte	0x53
 4106 05ff 42000000 		.4byte	.LVL30
 4107 0603 4C000000 		.4byte	.LVL33
 4108 0607 0300     		.2byte	0x3
 4109 0609 73       		.byte	0x73
 4110 060a 01       		.sleb128 1
 4111 060b 9F       		.byte	0x9f
 4112 060c 4C000000 		.4byte	.LVL33
 4113 0610 53000000 		.4byte	.LVL34-1
 4114 0614 0100     		.2byte	0x1
 4115 0616 52       		.byte	0x52
 4116 0617 62000000 		.4byte	.LVL35
 4117 061b 6A000000 		.4byte	.LVL36
 4118 061f 0100     		.2byte	0x1
 4119 0621 53       		.byte	0x53
 4120 0622 6A000000 		.4byte	.LVL36
 4121 0626 74000000 		.4byte	.LVL37
 4122 062a 0300     		.2byte	0x3
 4123 062c 73       		.byte	0x73
 4124 062d 7E       		.sleb128 -2
 4125 062e 9F       		.byte	0x9f
 4126 062f 74000000 		.4byte	.LVL37
 4127 0633 7A000000 		.4byte	.LVL38
 4128 0637 0100     		.2byte	0x1
 4129 0639 53       		.byte	0x53
 4130 063a 7A000000 		.4byte	.LVL38
 4131 063e 84000000 		.4byte	.LVL39
 4132 0642 0300     		.2byte	0x3
 4133 0644 73       		.byte	0x73
 4134 0645 7E       		.sleb128 -2
 4135 0646 9F       		.byte	0x9f
 4136 0647 00000000 		.4byte	0
 4137 064b 00000000 		.4byte	0
 4138              	.LLST12:
 4139 064f 0C000000 		.4byte	.LVL24
 4140 0653 1E000000 		.4byte	.LVL26
 4141 0657 0200     		.2byte	0x2
 4142 0659 48       		.byte	0x48
 4143 065a 9F       		.byte	0x9f
 4144 065b 1E000000 		.4byte	.LVL26
 4145 065f 44000000 		.4byte	.LVL31
 4146 0663 0100     		.2byte	0x1
 4147 0665 51       		.byte	0x51
 4148 0666 62000000 		.4byte	.LVL35
 4149 066a 84000000 		.4byte	.LVL39
 4150 066e 0100     		.2byte	0x1
 4151 0670 51       		.byte	0x51
 4152 0671 00000000 		.4byte	0
 4153 0675 00000000 		.4byte	0
 4154              	.LLST0:
 4155 0679 00000000 		.4byte	.LVL0
 4156 067d 1C000000 		.4byte	.LVL2
 4157 0681 0100     		.2byte	0x1
 4158 0683 50       		.byte	0x50
 4159 0684 1C000000 		.4byte	.LVL2
 4160 0688 94000000 		.4byte	.LVL18
 4161 068c 0100     		.2byte	0x1
ARM GAS  /var/folders/d2/nstgp4h54kz7g1l847x_b8wc0000gn/T//ccJo2A5k.s 			page 74


 4162 068e 57       		.byte	0x57
 4163 068f 94000000 		.4byte	.LVL18
 4164 0693 9A000000 		.4byte	.LVL21
 4165 0697 0100     		.2byte	0x1
 4166 0699 50       		.byte	0x50
 4167 069a 9A000000 		.4byte	.LVL21
 4168 069e AC000000 		.4byte	.LFE1
 4169 06a2 0100     		.2byte	0x1
 4170 06a4 57       		.byte	0x57
 4171 06a5 00000000 		.4byte	0
 4172 06a9 00000000 		.4byte	0
 4173              	.LLST1:
 4174 06ad 00000000 		.4byte	.LVL0
 4175 06b1 26000000 		.4byte	.LVL4
 4176 06b5 0100     		.2byte	0x1
 4177 06b7 51       		.byte	0x51
 4178 06b8 26000000 		.4byte	.LVL4
 4179 06bc 94000000 		.4byte	.LVL18
 4180 06c0 0100     		.2byte	0x1
 4181 06c2 58       		.byte	0x58
 4182 06c3 94000000 		.4byte	.LVL18
 4183 06c7 98000000 		.4byte	.LVL20
 4184 06cb 0100     		.2byte	0x1
 4185 06cd 51       		.byte	0x51
 4186 06ce 98000000 		.4byte	.LVL20
 4187 06d2 AC000000 		.4byte	.LFE1
 4188 06d6 0100     		.2byte	0x1
 4189 06d8 58       		.byte	0x58
 4190 06d9 00000000 		.4byte	0
 4191 06dd 00000000 		.4byte	0
 4192              	.LLST2:
 4193 06e1 00000000 		.4byte	.LVL0
 4194 06e5 22000000 		.4byte	.LVL3
 4195 06e9 0100     		.2byte	0x1
 4196 06eb 52       		.byte	0x52
 4197 06ec 22000000 		.4byte	.LVL3
 4198 06f0 94000000 		.4byte	.LVL18
 4199 06f4 0100     		.2byte	0x1
 4200 06f6 5B       		.byte	0x5b
 4201 06f7 94000000 		.4byte	.LVL18
 4202 06fb 96000000 		.4byte	.LVL19
 4203 06ff 0100     		.2byte	0x1
 4204 0701 52       		.byte	0x52
 4205 0702 96000000 		.4byte	.LVL19
 4206 0706 AC000000 		.4byte	.LFE1
 4207 070a 0100     		.2byte	0x1
 4208 070c 5B       		.byte	0x5b
 4209 070d 00000000 		.4byte	0
 4210 0711 00000000 		.4byte	0
 4211              	.LLST3:
 4212 0715 00000000 		.4byte	.LVL0
 4213 0719 26000000 		.4byte	.LVL4
 4214 071d 0100     		.2byte	0x1
 4215 071f 53       		.byte	0x53
 4216 0720 26000000 		.4byte	.LVL4
 4217 0724 94000000 		.4byte	.LVL18
 4218 0728 0100     		.2byte	0x1
ARM GAS  /var/folders/d2/nstgp4h54kz7g1l847x_b8wc0000gn/T//ccJo2A5k.s 			page 75


 4219 072a 55       		.byte	0x55
 4220 072b 94000000 		.4byte	.LVL18
 4221 072f 9A000000 		.4byte	.LVL21
 4222 0733 0100     		.2byte	0x1
 4223 0735 53       		.byte	0x53
 4224 0736 9A000000 		.4byte	.LVL21
 4225 073a AC000000 		.4byte	.LFE1
 4226 073e 0100     		.2byte	0x1
 4227 0740 55       		.byte	0x55
 4228 0741 00000000 		.4byte	0
 4229 0745 00000000 		.4byte	0
 4230              	.LLST4:
 4231 0749 00000000 		.4byte	.LVL0
 4232 074d 94000000 		.4byte	.LVL18
 4233 0751 0200     		.2byte	0x2
 4234 0753 91       		.byte	0x91
 4235 0754 00       		.sleb128 0
 4236 0755 94000000 		.4byte	.LVL18
 4237 0759 AC000000 		.4byte	.LFE1
 4238 075d 0200     		.2byte	0x2
 4239 075f 91       		.byte	0x91
 4240 0760 00       		.sleb128 0
 4241 0761 00000000 		.4byte	0
 4242 0765 00000000 		.4byte	0
 4243              	.LLST5:
 4244 0769 10000000 		.4byte	.LVL1
 4245 076d 1C000000 		.4byte	.LVL2
 4246 0771 0100     		.2byte	0x1
 4247 0773 50       		.byte	0x50
 4248 0774 1C000000 		.4byte	.LVL2
 4249 0778 94000000 		.4byte	.LVL18
 4250 077c 0100     		.2byte	0x1
 4251 077e 57       		.byte	0x57
 4252 077f 94000000 		.4byte	.LVL18
 4253 0783 9A000000 		.4byte	.LVL21
 4254 0787 0100     		.2byte	0x1
 4255 0789 50       		.byte	0x50
 4256 078a 9A000000 		.4byte	.LVL21
 4257 078e AC000000 		.4byte	.LFE1
 4258 0792 0100     		.2byte	0x1
 4259 0794 57       		.byte	0x57
 4260 0795 00000000 		.4byte	0
 4261 0799 00000000 		.4byte	0
 4262              	.LLST6:
 4263 079d 10000000 		.4byte	.LVL1
 4264 07a1 26000000 		.4byte	.LVL4
 4265 07a5 0200     		.2byte	0x2
 4266 07a7 30       		.byte	0x30
 4267 07a8 9F       		.byte	0x9f
 4268 07a9 26000000 		.4byte	.LVL4
 4269 07ad 28000000 		.4byte	.LVL5
 4270 07b1 0100     		.2byte	0x1
 4271 07b3 52       		.byte	0x52
 4272 07b4 38000000 		.4byte	.LVL8
 4273 07b8 54000000 		.4byte	.LVL10
 4274 07bc 0100     		.2byte	0x1
 4275 07be 52       		.byte	0x52
ARM GAS  /var/folders/d2/nstgp4h54kz7g1l847x_b8wc0000gn/T//ccJo2A5k.s 			page 76


 4276 07bf 68000000 		.4byte	.LVL13
 4277 07c3 6C000000 		.4byte	.LVL14
 4278 07c7 0100     		.2byte	0x1
 4279 07c9 54       		.byte	0x54
 4280 07ca 6C000000 		.4byte	.LVL14
 4281 07ce 70000000 		.4byte	.LVL15
 4282 07d2 0100     		.2byte	0x1
 4283 07d4 52       		.byte	0x52
 4284 07d5 94000000 		.4byte	.LVL18
 4285 07d9 9A000000 		.4byte	.LVL21
 4286 07dd 0200     		.2byte	0x2
 4287 07df 30       		.byte	0x30
 4288 07e0 9F       		.byte	0x9f
 4289 07e1 00000000 		.4byte	0
 4290 07e5 00000000 		.4byte	0
 4291              	.LLST7:
 4292 07e9 10000000 		.4byte	.LVL1
 4293 07ed 26000000 		.4byte	.LVL4
 4294 07f1 0200     		.2byte	0x2
 4295 07f3 30       		.byte	0x30
 4296 07f4 9F       		.byte	0x9f
 4297 07f5 38000000 		.4byte	.LVL8
 4298 07f9 3E000000 		.4byte	.LVL9
 4299 07fd 0300     		.2byte	0x3
 4300 07ff 74       		.byte	0x74
 4301 0800 01       		.sleb128 1
 4302 0801 9F       		.byte	0x9f
 4303 0802 68000000 		.4byte	.LVL13
 4304 0806 6C000000 		.4byte	.LVL14
 4305 080a 0300     		.2byte	0x3
 4306 080c 74       		.byte	0x74
 4307 080d 01       		.sleb128 1
 4308 080e 9F       		.byte	0x9f
 4309 080f 94000000 		.4byte	.LVL18
 4310 0813 9A000000 		.4byte	.LVL21
 4311 0817 0200     		.2byte	0x2
 4312 0819 30       		.byte	0x30
 4313 081a 9F       		.byte	0x9f
 4314 081b 00000000 		.4byte	0
 4315 081f 00000000 		.4byte	0
 4316              		.section	.debug_aranges,"",%progbits
 4317 0000 3C000000 		.4byte	0x3c
 4318 0004 0200     		.2byte	0x2
 4319 0006 00000000 		.4byte	.Ldebug_info0
 4320 000a 04       		.byte	0x4
 4321 000b 00       		.byte	0
 4322 000c 0000     		.2byte	0
 4323 000e 0000     		.2byte	0
 4324 0010 00000000 		.4byte	.LFB1
 4325 0014 AC000000 		.4byte	.LFE1-.LFB1
 4326 0018 00000000 		.4byte	.LFB2
 4327 001c 8C000000 		.4byte	.LFE2-.LFB2
 4328 0020 00000000 		.4byte	.LFB3
 4329 0024 40000000 		.4byte	.LFE3-.LFB3
 4330 0028 00000000 		.4byte	.LFB5
 4331 002c 30000000 		.4byte	.LFE5-.LFB5
 4332 0030 00000000 		.4byte	.LFB6
ARM GAS  /var/folders/d2/nstgp4h54kz7g1l847x_b8wc0000gn/T//ccJo2A5k.s 			page 77


 4333 0034 24010000 		.4byte	.LFE6-.LFB6
 4334 0038 00000000 		.4byte	0
 4335 003c 00000000 		.4byte	0
 4336              		.section	.debug_ranges,"",%progbits
 4337              	.Ldebug_ranges0:
 4338 0000 14000000 		.4byte	.LBB12
 4339 0004 16000000 		.4byte	.LBE12
 4340 0008 1C000000 		.4byte	.LBB15
 4341 000c 22000000 		.4byte	.LBE15
 4342 0010 00000000 		.4byte	0
 4343 0014 00000000 		.4byte	0
 4344 0018 72000000 		.4byte	.LBB16
 4345 001c D0000000 		.4byte	.LBE16
 4346 0020 0A010000 		.4byte	.LBB27
 4347 0024 1A010000 		.4byte	.LBE27
 4348 0028 00000000 		.4byte	0
 4349 002c 00000000 		.4byte	0
 4350 0030 72000000 		.4byte	.LBB17
 4351 0034 AC000000 		.4byte	.LBE17
 4352 0038 0A010000 		.4byte	.LBB25
 4353 003c 0C010000 		.4byte	.LBE25
 4354 0040 00000000 		.4byte	0
 4355 0044 00000000 		.4byte	0
 4356 0048 AC000000 		.4byte	.LBB20
 4357 004c BA000000 		.4byte	.LBE20
 4358 0050 C2000000 		.4byte	.LBB24
 4359 0054 D0000000 		.4byte	.LBE24
 4360 0058 0C010000 		.4byte	.LBB26
 4361 005c 1A010000 		.4byte	.LBE26
 4362 0060 00000000 		.4byte	0
 4363 0064 00000000 		.4byte	0
 4364 0068 00000000 		.4byte	.LFB1
 4365 006c AC000000 		.4byte	.LFE1
 4366 0070 00000000 		.4byte	.LFB2
 4367 0074 8C000000 		.4byte	.LFE2
 4368 0078 00000000 		.4byte	.LFB3
 4369 007c 40000000 		.4byte	.LFE3
 4370 0080 00000000 		.4byte	.LFB5
 4371 0084 30000000 		.4byte	.LFE5
 4372 0088 00000000 		.4byte	.LFB6
 4373 008c 24010000 		.4byte	.LFE6
 4374 0090 00000000 		.4byte	0
 4375 0094 00000000 		.4byte	0
 4376              		.section	.debug_line,"",%progbits
 4377              	.Ldebug_line0:
 4378 0000 07040000 		.section	.debug_str,"MS",%progbits,1
 4378      0200F002 
 4378      00000201 
 4378      FB0E0D00 
 4378      01010101 
 4379              	.LASF46:
 4380 0000 5F64736F 		.ascii	"_dso_handle\000"
 4380      5F68616E 
 4380      646C6500 
 4381              	.LASF158:
 4382 000c 2F557365 		.ascii	"/Users/bharathkeshavamurthy/Workspaces/Talos/src/ma"
 4382      72732F62 
ARM GAS  /var/folders/d2/nstgp4h54kz7g1l847x_b8wc0000gn/T//ccJo2A5k.s 			page 78


 4382      68617261 
 4382      74686B65 
 4382      73686176 
 4383 003f 696E2F63 		.ascii	"in/cpp/org/purdue/ece/talos/optimize/\000"
 4383      70702F6F 
 4383      72672F70 
 4383      75726475 
 4383      652F6563 
 4384              	.LASF54:
 4385 0065 5F73697A 		.ascii	"_size\000"
 4385      6500
 4386              	.LASF15:
 4387 006b 73697A65 		.ascii	"size_t\000"
 4387      5F7400
 4388              	.LASF162:
 4389 0072 63726333 		.ascii	"crc32\000"
 4389      3200
 4390              	.LASF98:
 4391 0078 5F72616E 		.ascii	"_rand48\000"
 4391      64343800 
 4392              	.LASF134:
 4393 0080 63616C6C 		.ascii	"callback_arg\000"
 4393      6261636B 
 4393      5F617267 
 4393      00
 4394              	.LASF78:
 4395 008d 5F656D65 		.ascii	"_emergency\000"
 4395      7267656E 
 4395      637900
 4396              	.LASF142:
 4397 0098 6572726F 		.ascii	"error_code\000"
 4397      725F636F 
 4397      646500
 4398              	.LASF4:
 4399 00a3 5F5F7569 		.ascii	"__uint8_t\000"
 4399      6E74385F 
 4399      7400
 4400              	.LASF114:
 4401 00ad 5F676574 		.ascii	"_getdate_err\000"
 4401      64617465 
 4401      5F657272 
 4401      00
 4402              	.LASF68:
 4403 00ba 5F646174 		.ascii	"_data\000"
 4403      6100
 4404              	.LASF118:
 4405 00c0 5F776372 		.ascii	"_wcrtomb_state\000"
 4405      746F6D62 
 4405      5F737461 
 4405      746500
 4406              	.LASF119:
 4407 00cf 5F776373 		.ascii	"_wcsrtombs_state\000"
 4407      72746F6D 
 4407      62735F73 
 4407      74617465 
 4407      00
 4408              	.LASF10:
ARM GAS  /var/folders/d2/nstgp4h54kz7g1l847x_b8wc0000gn/T//ccJo2A5k.s 			page 79


 4409 00e0 6C6F6E67 		.ascii	"long long unsigned int\000"
 4409      206C6F6E 
 4409      6720756E 
 4409      7369676E 
 4409      65642069 
 4410              	.LASF58:
 4411 00f7 5F6C6266 		.ascii	"_lbfsize\000"
 4411      73697A65 
 4411      00
 4412              	.LASF155:
 4413 0100 64746772 		.ascii	"dtgrm_byte\000"
 4413      6D5F6279 
 4413      746500
 4414              	.LASF125:
 4415 010b 5F5F6C6F 		.ascii	"__locale_t\000"
 4415      63616C65 
 4415      5F7400
 4416              	.LASF116:
 4417 0116 5F6D6272 		.ascii	"_mbrtowc_state\000"
 4417      746F7763 
 4417      5F737461 
 4417      746500
 4418              	.LASF149:
 4419 0125 64746772 		.ascii	"dtgrm\000"
 4419      6D00
 4420              	.LASF35:
 4421 012b 5F5F746D 		.ascii	"__tm_sec\000"
 4421      5F736563 
 4421      00
 4422              	.LASF129:
 4423 0134 73657269 		.ascii	"serial_datagram_cb_t\000"
 4423      616C5F64 
 4423      61746167 
 4423      72616D5F 
 4423      63625F74 
 4424              	.LASF9:
 4425 0149 6C6F6E67 		.ascii	"long long int\000"
 4425      206C6F6E 
 4425      6720696E 
 4425      7400
 4426              	.LASF0:
 4427 0157 7369676E 		.ascii	"signed char\000"
 4427      65642063 
 4427      68617200 
 4428              	.LASF64:
 4429 0163 5F756275 		.ascii	"_ubuf\000"
 4429      6600
 4430              	.LASF53:
 4431 0169 5F626173 		.ascii	"_base\000"
 4431      6500
 4432              	.LASF37:
 4433 016f 5F5F746D 		.ascii	"__tm_hour\000"
 4433      5F686F75 
 4433      7200
 4434              	.LASF93:
 4435 0179 5F5F7366 		.ascii	"__sf\000"
 4435      00
ARM GAS  /var/folders/d2/nstgp4h54kz7g1l847x_b8wc0000gn/T//ccJo2A5k.s 			page 80


 4436              	.LASF44:
 4437 017e 5F6F6E5F 		.ascii	"_on_exit_args\000"
 4437      65786974 
 4437      5F617267 
 4437      7300
 4438              	.LASF59:
 4439 018c 5F636F6F 		.ascii	"_cookie\000"
 4439      6B696500 
 4440              	.LASF92:
 4441 0194 5F5F7367 		.ascii	"__sglue\000"
 4441      6C756500 
 4442              	.LASF6:
 4443 019c 6C6F6E67 		.ascii	"long int\000"
 4443      20696E74 
 4443      00
 4444              	.LASF56:
 4445 01a5 5F666C61 		.ascii	"_flags\000"
 4445      677300
 4446              	.LASF48:
 4447 01ac 5F69735F 		.ascii	"_is_cxa\000"
 4447      63786100 
 4448              	.LASF74:
 4449 01b4 5F737464 		.ascii	"_stdin\000"
 4449      696E00
 4450              	.LASF66:
 4451 01bb 5F626C6B 		.ascii	"_blksize\000"
 4451      73697A65 
 4451      00
 4452              	.LASF88:
 4453 01c4 5F637674 		.ascii	"_cvtbuf\000"
 4453      62756600 
 4454              	.LASF67:
 4455 01cc 5F6F6666 		.ascii	"_offset\000"
 4455      73657400 
 4456              	.LASF117:
 4457 01d4 5F6D6273 		.ascii	"_mbsrtowcs_state\000"
 4457      72746F77 
 4457      63735F73 
 4457      74617465 
 4457      00
 4458              	.LASF115:
 4459 01e5 5F6D6272 		.ascii	"_mbrlen_state\000"
 4459      6C656E5F 
 4459      73746174 
 4459      6500
 4460              	.LASF45:
 4461 01f3 5F666E61 		.ascii	"_fnargs\000"
 4461      72677300 
 4462              	.LASF147:
 4463 01fb 73657269 		.ascii	"serial_datagram_rcv_handler_init\000"
 4463      616C5F64 
 4463      61746167 
 4463      72616D5F 
 4463      7263765F 
 4464              	.LASF51:
 4465 021c 5F666E73 		.ascii	"_fns\000"
 4465      00
ARM GAS  /var/folders/d2/nstgp4h54kz7g1l847x_b8wc0000gn/T//ccJo2A5k.s 			page 81


 4466              	.LASF7:
 4467 0221 5F5F7569 		.ascii	"__uint32_t\000"
 4467      6E743332 
 4467      5F7400
 4468              	.LASF31:
 4469 022c 5F736967 		.ascii	"_sign\000"
 4469      6E00
 4470              	.LASF26:
 4471 0232 5F666C6F 		.ascii	"_flock_t\000"
 4471      636B5F74 
 4471      00
 4472              	.LASF76:
 4473 023b 5F737464 		.ascii	"_stderr\000"
 4473      65727200 
 4474              	.LASF33:
 4475 0243 5F426967 		.ascii	"_Bigint\000"
 4475      696E7400 
 4476              	.LASF106:
 4477 024b 5F67616D 		.ascii	"_gamma_signgam\000"
 4477      6D615F73 
 4477      69676E67 
 4477      616D00
 4478              	.LASF60:
 4479 025a 5F726561 		.ascii	"_read\000"
 4479      6400
 4480              	.LASF84:
 4481 0260 5F726573 		.ascii	"_result_k\000"
 4481      756C745F 
 4481      6B00
 4482              	.LASF34:
 4483 026a 5F5F746D 		.ascii	"__tm\000"
 4483      00
 4484              	.LASF157:
 4485 026f 2E2E2F65 		.ascii	"../e-puck2_main-processor/src/serial-datagram/seria"
 4485      2D707563 
 4485      6B325F6D 
 4485      61696E2D 
 4485      70726F63 
 4486 02a2 6C5F6461 		.ascii	"l_datagram.c\000"
 4486      74616772 
 4486      616D2E63 
 4486      00
 4487              	.LASF11:
 4488 02af 756E7369 		.ascii	"unsigned int\000"
 4488      676E6564 
 4488      20696E74 
 4488      00
 4489              	.LASF156:
 4490 02bc 474E5520 		.ascii	"GNU C11 7.2.1 20170904 (release) [ARM/embedded-7-br"
 4490      43313120 
 4490      372E322E 
 4490      31203230 
 4490      31373039 
 4491 02ef 616E6368 		.ascii	"anch revision 255204] -mcpu=cortex-m4 -mfloat-abi=h"
 4491      20726576 
 4491      6973696F 
 4491      6E203235 
ARM GAS  /var/folders/d2/nstgp4h54kz7g1l847x_b8wc0000gn/T//ccJo2A5k.s 			page 82


 4491      35323034 
 4492 0322 61726420 		.ascii	"ard -mfpu=fpv4-sp-d16 -mno-thumb-interwork -mthumb "
 4492      2D6D6670 
 4492      753D6670 
 4492      76342D73 
 4492      702D6431 
 4493 0355 2D676764 		.ascii	"-ggdb -O2 -fomit-frame-pointer -falign-functions=16"
 4493      62202D4F 
 4493      32202D66 
 4493      6F6D6974 
 4493      2D667261 
 4494 0388 202D666E 		.ascii	" -fno-strict-aliasing -fstack-protector-all -ffunct"
 4494      6F2D7374 
 4494      72696374 
 4494      2D616C69 
 4494      6173696E 
 4495 03bb 696F6E2D 		.ascii	"ion-sections -fdata-sections -fno-common -fsingle-p"
 4495      73656374 
 4495      696F6E73 
 4495      202D6664 
 4495      6174612D 
 4496 03ee 72656369 		.ascii	"recision-constant\000"
 4496      73696F6E 
 4496      2D636F6E 
 4496      7374616E 
 4496      7400
 4497              	.LASF22:
 4498 0400 5F5F7763 		.ascii	"__wchb\000"
 4498      686200
 4499              	.LASF146:
 4500 0407 63625F61 		.ascii	"cb_arg\000"
 4500      726700
 4501              	.LASF75:
 4502 040e 5F737464 		.ascii	"_stdout\000"
 4502      6F757400 
 4503              	.LASF87:
 4504 0416 5F637674 		.ascii	"_cvtlen\000"
 4504      6C656E00 
 4505              	.LASF140:
 4506 041e 6573635F 		.ascii	"esc_esc\000"
 4506      65736300 
 4507              	.LASF161:
 4508 0426 636F6D70 		.ascii	"compute_crc\000"
 4508      7574655F 
 4508      63726300 
 4509              	.LASF8:
 4510 0432 6C6F6E67 		.ascii	"long unsigned int\000"
 4510      20756E73 
 4510      69676E65 
 4510      6420696E 
 4510      7400
 4511              	.LASF57:
 4512 0444 5F66696C 		.ascii	"_file\000"
 4512      6500
 4513              	.LASF143:
 4514 044a 64617461 		.ascii	"datagram_len\000"
 4514      6772616D 
ARM GAS  /var/folders/d2/nstgp4h54kz7g1l847x_b8wc0000gn/T//ccJo2A5k.s 			page 83


 4514      5F6C656E 
 4514      00
 4515              	.LASF96:
 4516 0457 5F6E696F 		.ascii	"_niobs\000"
 4516      627300
 4517              	.LASF131:
 4518 045e 73697A65 		.ascii	"size\000"
 4518      00
 4519              	.LASF3:
 4520 0463 73686F72 		.ascii	"short unsigned int\000"
 4520      7420756E 
 4520      7369676E 
 4520      65642069 
 4520      6E7400
 4521              	.LASF133:
 4522 0476 63616C6C 		.ascii	"callback_fn\000"
 4522      6261636B 
 4522      5F666E00 
 4523              	.LASF90:
 4524 0482 5F617465 		.ascii	"_atexit0\000"
 4524      78697430 
 4524      00
 4525              	.LASF113:
 4526 048b 5F736967 		.ascii	"_signal_buf\000"
 4526      6E616C5F 
 4526      62756600 
 4527              	.LASF104:
 4528 0497 5F617363 		.ascii	"_asctime_buf\000"
 4528      74696D65 
 4528      5F627566 
 4528      00
 4529              	.LASF83:
 4530 04a4 5F726573 		.ascii	"_result\000"
 4530      756C7400 
 4531              	.LASF21:
 4532 04ac 5F5F7763 		.ascii	"__wch\000"
 4532      6800
 4533              	.LASF136:
 4534 04b2 6573635F 		.ascii	"esc_flag\000"
 4534      666C6167 
 4534      00
 4535              	.LASF17:
 4536 04bb 5F4C4F43 		.ascii	"_LOCK_T\000"
 4536      4B5F5400 
 4537              	.LASF20:
 4538 04c3 77696E74 		.ascii	"wint_t\000"
 4538      5F7400
 4539              	.LASF69:
 4540 04ca 5F6C6F63 		.ascii	"_lock\000"
 4540      6B00
 4541              	.LASF150:
 4542 04d0 73656E64 		.ascii	"send_fn\000"
 4542      5F666E00 
 4543              	.LASF71:
 4544 04d8 5F666C61 		.ascii	"_flags2\000"
 4544      67733200 
 4545              	.LASF61:
ARM GAS  /var/folders/d2/nstgp4h54kz7g1l847x_b8wc0000gn/T//ccJo2A5k.s 			page 84


 4546 04e0 5F777269 		.ascii	"_write\000"
 4546      746500
 4547              	.LASF40:
 4548 04e7 5F5F746D 		.ascii	"__tm_year\000"
 4548      5F796561 
 4548      7200
 4549              	.LASF122:
 4550 04f1 5F6E6D61 		.ascii	"_nmalloc\000"
 4550      6C6C6F63 
 4550      00
 4551              	.LASF16:
 4552 04fa 6C6F6E67 		.ascii	"long double\000"
 4552      20646F75 
 4552      626C6500 
 4553              	.LASF121:
 4554 0506 5F6E6578 		.ascii	"_nextf\000"
 4554      746600
 4555              	.LASF39:
 4556 050d 5F5F746D 		.ascii	"__tm_mon\000"
 4556      5F6D6F6E 
 4556      00
 4557              	.LASF49:
 4558 0516 5F617465 		.ascii	"_atexit\000"
 4558      78697400 
 4559              	.LASF128:
 4560 051e 7375626F 		.ascii	"suboptarg\000"
 4560      70746172 
 4560      6700
 4561              	.LASF81:
 4562 0528 5F5F7364 		.ascii	"__sdidinit\000"
 4562      6964696E 
 4562      697400
 4563              	.LASF18:
 4564 0533 5F6F6666 		.ascii	"_off_t\000"
 4564      5F7400
 4565              	.LASF141:
 4566 053a 72656164 		.ascii	"read\000"
 4566      00
 4567              	.LASF154:
 4568 053f 73657269 		.ascii	"serial_datagram_send_chunk\000"
 4568      616C5F64 
 4568      61746167 
 4568      72616D5F 
 4568      73656E64 
 4569              	.LASF86:
 4570 055a 5F667265 		.ascii	"_freelist\000"
 4570      656C6973 
 4570      7400
 4571              	.LASF111:
 4572 0564 5F776374 		.ascii	"_wctomb_state\000"
 4572      6F6D625F 
 4572      73746174 
 4572      6500
 4573              	.LASF159:
 4574 0572 73657269 		.ascii	"serial_datagram_receive\000"
 4574      616C5F64 
 4574      61746167 
ARM GAS  /var/folders/d2/nstgp4h54kz7g1l847x_b8wc0000gn/T//ccJo2A5k.s 			page 85


 4574      72616D5F 
 4574      72656365 
 4575              	.LASF137:
 4576 058a 5F426F6F 		.ascii	"_Bool\000"
 4576      6C00
 4577              	.LASF13:
 4578 0590 696E7433 		.ascii	"int32_t\000"
 4578      325F7400 
 4579              	.LASF1:
 4580 0598 756E7369 		.ascii	"unsigned char\000"
 4580      676E6564 
 4580      20636861 
 4580      7200
 4581              	.LASF89:
 4582 05a6 5F6E6577 		.ascii	"_new\000"
 4582      00
 4583              	.LASF120:
 4584 05ab 5F685F65 		.ascii	"_h_errno\000"
 4584      72726E6F 
 4584      00
 4585              	.LASF2:
 4586 05b4 73686F72 		.ascii	"short int\000"
 4586      7420696E 
 4586      7400
 4587              	.LASF42:
 4588 05be 5F5F746D 		.ascii	"__tm_yday\000"
 4588      5F796461 
 4588      7900
 4589              	.LASF52:
 4590 05c8 5F5F7362 		.ascii	"__sbuf\000"
 4590      756600
 4591              	.LASF97:
 4592 05cf 5F696F62 		.ascii	"_iobs\000"
 4592      7300
 4593              	.LASF94:
 4594 05d5 5F5F4649 		.ascii	"__FILE\000"
 4594      4C4500
 4595              	.LASF25:
 4596 05dc 5F6D6273 		.ascii	"_mbstate_t\000"
 4596      74617465 
 4596      5F7400
 4597              	.LASF55:
 4598 05e7 5F5F7346 		.ascii	"__sFILE\000"
 4598      494C4500 
 4599              	.LASF70:
 4600 05ef 5F6D6273 		.ascii	"_mbstate\000"
 4600      74617465 
 4600      00
 4601              	.LASF107:
 4602 05f8 5F72616E 		.ascii	"_rand_next\000"
 4602      645F6E65 
 4602      787400
 4603              	.LASF130:
 4604 0603 62756666 		.ascii	"buffer\000"
 4604      657200
 4605              	.LASF144:
 4606 060a 72656365 		.ascii	"received_crc\000"
ARM GAS  /var/folders/d2/nstgp4h54kz7g1l847x_b8wc0000gn/T//ccJo2A5k.s 			page 86


 4606      69766564 
 4606      5F637263 
 4606      00
 4607              	.LASF109:
 4608 0617 5F6D626C 		.ascii	"_mblen_state\000"
 4608      656E5F73 
 4608      74617465 
 4608      00
 4609              	.LASF77:
 4610 0624 5F696E63 		.ascii	"_inc\000"
 4610      00
 4611              	.LASF50:
 4612 0629 5F696E64 		.ascii	"_ind\000"
 4612      00
 4613              	.LASF80:
 4614 062e 5F6C6F63 		.ascii	"_locale\000"
 4614      616C6500 
 4615              	.LASF82:
 4616 0636 5F5F636C 		.ascii	"__cleanup\000"
 4616      65616E75 
 4616      7000
 4617              	.LASF79:
 4618 0640 5F756E73 		.ascii	"_unspecified_locale_info\000"
 4618      70656369 
 4618      66696564 
 4618      5F6C6F63 
 4618      616C655F 
 4619              	.LASF163:
 4620 0659 5F5F7374 		.ascii	"__stack_chk_fail\000"
 4620      61636B5F 
 4620      63686B5F 
 4620      6661696C 
 4620      00
 4621              	.LASF30:
 4622 066a 5F6D6178 		.ascii	"_maxwds\000"
 4622      77647300 
 4623              	.LASF72:
 4624 0672 5F726565 		.ascii	"_reent\000"
 4624      6E7400
 4625              	.LASF99:
 4626 0679 5F736565 		.ascii	"_seed\000"
 4626      6400
 4627              	.LASF23:
 4628 067f 5F5F636F 		.ascii	"__count\000"
 4628      756E7400 
 4629              	.LASF124:
 4630 0687 5F5F6C6F 		.ascii	"__lock\000"
 4630      636B00
 4631              	.LASF14:
 4632 068e 75696E74 		.ascii	"uint32_t\000"
 4632      33325F74 
 4632      00
 4633              	.LASF62:
 4634 0697 5F736565 		.ascii	"_seek\000"
 4634      6B00
 4635              	.LASF126:
 4636 069d 5F696D70 		.ascii	"_impure_ptr\000"
ARM GAS  /var/folders/d2/nstgp4h54kz7g1l847x_b8wc0000gn/T//ccJo2A5k.s 			page 87


 4636      7572655F 
 4636      70747200 
 4637              	.LASF19:
 4638 06a9 5F66706F 		.ascii	"_fpos_t\000"
 4638      735F7400 
 4639              	.LASF73:
 4640 06b1 5F657272 		.ascii	"_errno\000"
 4640      6E6F00
 4641              	.LASF27:
 4642 06b8 63686172 		.ascii	"char\000"
 4642      00
 4643              	.LASF36:
 4644 06bd 5F5F746D 		.ascii	"__tm_min\000"
 4644      5F6D696E 
 4644      00
 4645              	.LASF148:
 4646 06c6 73657269 		.ascii	"serial_datagram_send\000"
 4646      616C5F64 
 4646      61746167 
 4646      72616D5F 
 4646      73656E64 
 4647              	.LASF152:
 4648 06db 73657269 		.ascii	"serial_datagram_send_end\000"
 4648      616C5F64 
 4648      61746167 
 4648      72616D5F 
 4648      73656E64 
 4649              	.LASF132:
 4650 06f4 77726974 		.ascii	"write_index\000"
 4650      655F696E 
 4650      64657800 
 4651              	.LASF5:
 4652 0700 5F5F696E 		.ascii	"__int32_t\000"
 4652      7433325F 
 4652      7400
 4653              	.LASF100:
 4654 070a 5F6D756C 		.ascii	"_mult\000"
 4654      7400
 4655              	.LASF29:
 4656 0710 5F6E6578 		.ascii	"_next\000"
 4656      7400
 4657              	.LASF103:
 4658 0716 5F737472 		.ascii	"_strtok_last\000"
 4658      746F6B5F 
 4658      6C617374 
 4658      00
 4659              	.LASF24:
 4660 0723 5F5F7661 		.ascii	"__value\000"
 4660      6C756500 
 4661              	.LASF47:
 4662 072b 5F666E74 		.ascii	"_fntypes\000"
 4662      79706573 
 4662      00
 4663              	.LASF101:
 4664 0734 5F616464 		.ascii	"_add\000"
 4664      00
 4665              	.LASF28:
ARM GAS  /var/folders/d2/nstgp4h54kz7g1l847x_b8wc0000gn/T//ccJo2A5k.s 			page 88


 4666 0739 5F5F554C 		.ascii	"__ULong\000"
 4666      6F6E6700 
 4667              	.LASF127:
 4668 0741 5F676C6F 		.ascii	"_global_impure_ptr\000"
 4668      62616C5F 
 4668      696D7075 
 4668      72655F70 
 4668      747200
 4669              	.LASF135:
 4670 0754 6572726F 		.ascii	"error_flag\000"
 4670      725F666C 
 4670      616700
 4671              	.LASF102:
 4672 075f 5F756E75 		.ascii	"_unused_rand\000"
 4672      7365645F 
 4672      72616E64 
 4672      00
 4673              	.LASF145:
 4674 076c 63625F66 		.ascii	"cb_fn\000"
 4674      6E00
 4675              	.LASF138:
 4676 0772 73657269 		.ascii	"serial_datagram_rcv_handler_t\000"
 4676      616C5F64 
 4676      61746167 
 4676      72616D5F 
 4676      7263765F 
 4677              	.LASF32:
 4678 0790 5F776473 		.ascii	"_wds\000"
 4678      00
 4679              	.LASF41:
 4680 0795 5F5F746D 		.ascii	"__tm_wday\000"
 4680      5F776461 
 4680      7900
 4681              	.LASF95:
 4682 079f 5F676C75 		.ascii	"_glue\000"
 4682      6500
 4683              	.LASF139:
 4684 07a5 6573635F 		.ascii	"esc_end\000"
 4684      656E6400 
 4685              	.LASF12:
 4686 07ad 75696E74 		.ascii	"uint8_t\000"
 4686      385F7400 
 4687              	.LASF112:
 4688 07b5 5F6C3634 		.ascii	"_l64a_buf\000"
 4688      615F6275 
 4688      6600
 4689              	.LASF151:
 4690 07bf 73656E64 		.ascii	"sendarg\000"
 4690      61726700 
 4691              	.LASF91:
 4692 07c7 5F736967 		.ascii	"_sig_func\000"
 4692      5F66756E 
 4692      6300
 4693              	.LASF65:
 4694 07d1 5F6E6275 		.ascii	"_nbuf\000"
 4694      6600
 4695              	.LASF123:
ARM GAS  /var/folders/d2/nstgp4h54kz7g1l847x_b8wc0000gn/T//ccJo2A5k.s 			page 89


 4696 07d7 5F756E75 		.ascii	"_unused\000"
 4696      73656400 
 4697              	.LASF43:
 4698 07df 5F5F746D 		.ascii	"__tm_isdst\000"
 4698      5F697364 
 4698      737400
 4699              	.LASF105:
 4700 07ea 5F6C6F63 		.ascii	"_localtime_buf\000"
 4700      616C7469 
 4700      6D655F62 
 4700      756600
 4701              	.LASF160:
 4702 07f9 7263765F 		.ascii	"rcv_handler_reset\000"
 4702      68616E64 
 4702      6C65725F 
 4702      72657365 
 4702      7400
 4703              	.LASF63:
 4704 080b 5F636C6F 		.ascii	"_close\000"
 4704      736500
 4705              	.LASF108:
 4706 0812 5F723438 		.ascii	"_r48\000"
 4706      00
 4707              	.LASF153:
 4708 0817 6372635F 		.ascii	"crc_and_end\000"
 4708      616E645F 
 4708      656E6400 
 4709              	.LASF110:
 4710 0823 5F6D6274 		.ascii	"_mbtowc_state\000"
 4710      6F77635F 
 4710      73746174 
 4710      6500
 4711              	.LASF85:
 4712 0831 5F703573 		.ascii	"_p5s\000"
 4712      00
 4713              	.LASF38:
 4714 0836 5F5F746D 		.ascii	"__tm_mday\000"
 4714      5F6D6461 
 4714      7900
 4715              		.ident	"GCC: (GNU Tools for Arm Embedded Processors 7-2017-q4-major) 7.2.1 20170904 (release) [ARM
ARM GAS  /var/folders/d2/nstgp4h54kz7g1l847x_b8wc0000gn/T//ccJo2A5k.s 			page 90


DEFINED SYMBOLS
                            *ABS*:0000000000000000 serial_datagram.c
/var/folders/d2/nstgp4h54kz7g1l847x_b8wc0000gn/T//ccJo2A5k.s:18     .text.serial_datagram_send_chunk:0000000000000000 $t
/var/folders/d2/nstgp4h54kz7g1l847x_b8wc0000gn/T//ccJo2A5k.s:26     .text.serial_datagram_send_chunk:0000000000000000 serial_datagram_send_chunk
/var/folders/d2/nstgp4h54kz7g1l847x_b8wc0000gn/T//ccJo2A5k.s:171    .text.serial_datagram_send_chunk:00000000000000a0 $d
/var/folders/d2/nstgp4h54kz7g1l847x_b8wc0000gn/T//ccJo2A5k.s:178    .text.serial_datagram_send_end:0000000000000000 $t
/var/folders/d2/nstgp4h54kz7g1l847x_b8wc0000gn/T//ccJo2A5k.s:186    .text.serial_datagram_send_end:0000000000000000 serial_datagram_send_end
/var/folders/d2/nstgp4h54kz7g1l847x_b8wc0000gn/T//ccJo2A5k.s:308    .text.serial_datagram_send_end:0000000000000088 $d
/var/folders/d2/nstgp4h54kz7g1l847x_b8wc0000gn/T//ccJo2A5k.s:313    .text.serial_datagram_send:0000000000000000 $t
/var/folders/d2/nstgp4h54kz7g1l847x_b8wc0000gn/T//ccJo2A5k.s:321    .text.serial_datagram_send:0000000000000000 serial_datagram_send
/var/folders/d2/nstgp4h54kz7g1l847x_b8wc0000gn/T//ccJo2A5k.s:381    .text.serial_datagram_send:000000000000003c $d
/var/folders/d2/nstgp4h54kz7g1l847x_b8wc0000gn/T//ccJo2A5k.s:386    .text.serial_datagram_rcv_handler_init:0000000000000000 $t
/var/folders/d2/nstgp4h54kz7g1l847x_b8wc0000gn/T//ccJo2A5k.s:394    .text.serial_datagram_rcv_handler_init:0000000000000000 serial_datagram_rcv_handler_init
/var/folders/d2/nstgp4h54kz7g1l847x_b8wc0000gn/T//ccJo2A5k.s:462    .text.serial_datagram_rcv_handler_init:000000000000002c $d
/var/folders/d2/nstgp4h54kz7g1l847x_b8wc0000gn/T//ccJo2A5k.s:467    .text.serial_datagram_receive:0000000000000000 $t
/var/folders/d2/nstgp4h54kz7g1l847x_b8wc0000gn/T//ccJo2A5k.s:475    .text.serial_datagram_receive:0000000000000000 serial_datagram_receive
/var/folders/d2/nstgp4h54kz7g1l847x_b8wc0000gn/T//ccJo2A5k.s:735    .text.serial_datagram_receive:0000000000000120 $d
/var/folders/d2/nstgp4h54kz7g1l847x_b8wc0000gn/T//ccJo2A5k.s:740    .rodata.esc_end:0000000000000000 $d
/var/folders/d2/nstgp4h54kz7g1l847x_b8wc0000gn/T//ccJo2A5k.s:744    .rodata.esc_end:0000000000000000 esc_end
/var/folders/d2/nstgp4h54kz7g1l847x_b8wc0000gn/T//ccJo2A5k.s:748    .rodata.esc_esc:0000000000000000 $d
/var/folders/d2/nstgp4h54kz7g1l847x_b8wc0000gn/T//ccJo2A5k.s:752    .rodata.esc_esc:0000000000000000 esc_esc

UNDEFINED SYMBOLS
crc32
__stack_chk_fail
__stack_chk_guard
