ARM GAS  /var/folders/d2/nstgp4h54kz7g1l847x_b8wc0000gn/T//cc9Joghr.s 			page 1


   1              		.cpu cortex-m4
   2              		.eabi_attribute 27, 1
   3              		.eabi_attribute 28, 1
   4              		.eabi_attribute 20, 1
   5              		.eabi_attribute 21, 1
   6              		.eabi_attribute 23, 3
   7              		.eabi_attribute 24, 1
   8              		.eabi_attribute 25, 1
   9              		.eabi_attribute 26, 1
  10              		.eabi_attribute 30, 6
  11              		.eabi_attribute 34, 1
  12              		.eabi_attribute 18, 4
  13              		.file	"serial_datagram.c"
  14              		.section	.text.compute_crc,"ax",%progbits
  15              		.align	1
  16              		.syntax unified
  17              		.thumb
  18              		.thumb_func
  19              		.fpu fpv4-sp-d16
  20              		.type	compute_crc, %function
  21              	compute_crc:
  22              		@ args = 0, pretend = 0, frame = 8
  23              		@ frame_needed = 1, uses_anonymous_args = 0
  24 0000 80B5     		push	{r7, lr}
  25 0002 82B0     		sub	sp, sp, #8
  26 0004 00AF     		add	r7, sp, #0
  27 0006 7860     		str	r0, [r7, #4]
  28 0008 3960     		str	r1, [r7]
  29 000a 3A68     		ldr	r2, [r7]
  30 000c 7968     		ldr	r1, [r7, #4]
  31 000e 0020     		movs	r0, #0
  32 0010 FFF7FEFF 		bl	crc32
  33 0014 0346     		mov	r3, r0
  34 0016 1846     		mov	r0, r3
  35 0018 0837     		adds	r7, r7, #8
  36 001a BD46     		mov	sp, r7
  37              		@ sp needed
  38 001c 80BD     		pop	{r7, pc}
  39              		.size	compute_crc, .-compute_crc
  40              		.section	.rodata.esc_end,"a",%progbits
  41              		.align	2
  42              		.type	esc_end, %object
  43              		.size	esc_end, 2
  44              	esc_end:
  45 0000 DB       		.byte	-37
  46 0001 DC       		.byte	-36
  47              		.section	.rodata.esc_esc,"a",%progbits
  48              		.align	2
  49              		.type	esc_esc, %object
  50              		.size	esc_esc, 2
  51              	esc_esc:
  52 0000 DB       		.byte	-37
  53 0001 DD       		.byte	-35
  54              		.section	.text.serial_datagram_send_chunk,"ax",%progbits
  55              		.align	1
  56              		.global	serial_datagram_send_chunk
  57              		.syntax unified
ARM GAS  /var/folders/d2/nstgp4h54kz7g1l847x_b8wc0000gn/T//cc9Joghr.s 			page 2


  58              		.thumb
  59              		.thumb_func
  60              		.fpu fpv4-sp-d16
  61              		.type	serial_datagram_send_chunk, %function
  62              	serial_datagram_send_chunk:
  63              		@ args = 4, pretend = 0, frame = 32
  64              		@ frame_needed = 1, uses_anonymous_args = 0
  65 0000 80B5     		push	{r7, lr}
  66 0002 88B0     		sub	sp, sp, #32
  67 0004 00AF     		add	r7, sp, #0
  68 0006 F860     		str	r0, [r7, #12]
  69 0008 B960     		str	r1, [r7, #8]
  70 000a 7A60     		str	r2, [r7, #4]
  71 000c 3B60     		str	r3, [r7]
  72 000e FB68     		ldr	r3, [r7, #12]
  73 0010 7B61     		str	r3, [r7, #20]
  74 0012 0023     		movs	r3, #0
  75 0014 FB61     		str	r3, [r7, #28]
  76 0016 0023     		movs	r3, #0
  77 0018 BB61     		str	r3, [r7, #24]
  78 001a 31E0     		b	.L4
  79              	.L7:
  80 001c 7A69     		ldr	r2, [r7, #20]
  81 001e BB69     		ldr	r3, [r7, #24]
  82 0020 1344     		add	r3, r3, r2
  83 0022 1B78     		ldrb	r3, [r3]	@ zero_extendqisi2
  84 0024 C02B     		cmp	r3, #192
  85 0026 11D1     		bne	.L5
  86 0028 7A69     		ldr	r2, [r7, #20]
  87 002a FB69     		ldr	r3, [r7, #28]
  88 002c D118     		adds	r1, r2, r3
  89 002e BA69     		ldr	r2, [r7, #24]
  90 0030 FB69     		ldr	r3, [r7, #28]
  91 0032 D21A     		subs	r2, r2, r3
  92 0034 3B68     		ldr	r3, [r7]
  93 0036 B86A     		ldr	r0, [r7, #40]
  94 0038 9847     		blx	r3
  95 003a 3B68     		ldr	r3, [r7]
  96 003c 0222     		movs	r2, #2
  97 003e 1E49     		ldr	r1, .L8
  98 0040 B86A     		ldr	r0, [r7, #40]
  99 0042 9847     		blx	r3
 100 0044 BB69     		ldr	r3, [r7, #24]
 101 0046 0133     		adds	r3, r3, #1
 102 0048 FB61     		str	r3, [r7, #28]
 103 004a 16E0     		b	.L6
 104              	.L5:
 105 004c 7A69     		ldr	r2, [r7, #20]
 106 004e BB69     		ldr	r3, [r7, #24]
 107 0050 1344     		add	r3, r3, r2
 108 0052 1B78     		ldrb	r3, [r3]	@ zero_extendqisi2
 109 0054 DB2B     		cmp	r3, #219
 110 0056 10D1     		bne	.L6
 111 0058 7A69     		ldr	r2, [r7, #20]
 112 005a FB69     		ldr	r3, [r7, #28]
 113 005c D118     		adds	r1, r2, r3
 114 005e BA69     		ldr	r2, [r7, #24]
ARM GAS  /var/folders/d2/nstgp4h54kz7g1l847x_b8wc0000gn/T//cc9Joghr.s 			page 3


 115 0060 FB69     		ldr	r3, [r7, #28]
 116 0062 D21A     		subs	r2, r2, r3
 117 0064 3B68     		ldr	r3, [r7]
 118 0066 B86A     		ldr	r0, [r7, #40]
 119 0068 9847     		blx	r3
 120 006a 3B68     		ldr	r3, [r7]
 121 006c 0222     		movs	r2, #2
 122 006e 1349     		ldr	r1, .L8+4
 123 0070 B86A     		ldr	r0, [r7, #40]
 124 0072 9847     		blx	r3
 125 0074 BB69     		ldr	r3, [r7, #24]
 126 0076 0133     		adds	r3, r3, #1
 127 0078 FB61     		str	r3, [r7, #28]
 128              	.L6:
 129 007a BB69     		ldr	r3, [r7, #24]
 130 007c 0133     		adds	r3, r3, #1
 131 007e BB61     		str	r3, [r7, #24]
 132              	.L4:
 133 0080 BA69     		ldr	r2, [r7, #24]
 134 0082 BB68     		ldr	r3, [r7, #8]
 135 0084 9A42     		cmp	r2, r3
 136 0086 C9D3     		bcc	.L7
 137 0088 7A69     		ldr	r2, [r7, #20]
 138 008a FB69     		ldr	r3, [r7, #28]
 139 008c D118     		adds	r1, r2, r3
 140 008e BA69     		ldr	r2, [r7, #24]
 141 0090 FB69     		ldr	r3, [r7, #28]
 142 0092 D21A     		subs	r2, r2, r3
 143 0094 3B68     		ldr	r3, [r7]
 144 0096 B86A     		ldr	r0, [r7, #40]
 145 0098 9847     		blx	r3
 146 009a 7B68     		ldr	r3, [r7, #4]
 147 009c 1B68     		ldr	r3, [r3]
 148 009e BA68     		ldr	r2, [r7, #8]
 149 00a0 F968     		ldr	r1, [r7, #12]
 150 00a2 1846     		mov	r0, r3
 151 00a4 FFF7FEFF 		bl	crc32
 152 00a8 0246     		mov	r2, r0
 153 00aa 7B68     		ldr	r3, [r7, #4]
 154 00ac 1A60     		str	r2, [r3]
 155 00ae 00BF     		nop
 156 00b0 2037     		adds	r7, r7, #32
 157 00b2 BD46     		mov	sp, r7
 158              		@ sp needed
 159 00b4 80BD     		pop	{r7, pc}
 160              	.L9:
 161 00b6 00BF     		.align	2
 162              	.L8:
 163 00b8 00000000 		.word	esc_end
 164 00bc 00000000 		.word	esc_esc
 165              		.size	serial_datagram_send_chunk, .-serial_datagram_send_chunk
 166              		.section	.text.serial_datagram_send_end,"ax",%progbits
 167              		.align	1
 168              		.global	serial_datagram_send_end
 169              		.syntax unified
 170              		.thumb
 171              		.thumb_func
ARM GAS  /var/folders/d2/nstgp4h54kz7g1l847x_b8wc0000gn/T//cc9Joghr.s 			page 4


 172              		.fpu fpv4-sp-d16
 173              		.type	serial_datagram_send_end, %function
 174              	serial_datagram_send_end:
 175              		@ args = 0, pretend = 0, frame = 40
 176              		@ frame_needed = 1, uses_anonymous_args = 0
 177 0000 80B5     		push	{r7, lr}
 178 0002 8AB0     		sub	sp, sp, #40
 179 0004 00AF     		add	r7, sp, #0
 180 0006 F860     		str	r0, [r7, #12]
 181 0008 B960     		str	r1, [r7, #8]
 182 000a 7A60     		str	r2, [r7, #4]
 183 000c 0023     		movs	r3, #0
 184 000e 7B62     		str	r3, [r7, #36]
 185 0010 1823     		movs	r3, #24
 186 0012 3B62     		str	r3, [r7, #32]
 187 0014 43E0     		b	.L11
 188              	.L15:
 189 0016 FA68     		ldr	r2, [r7, #12]
 190 0018 3B6A     		ldr	r3, [r7, #32]
 191 001a 22FA03F3 		lsr	r3, r2, r3
 192 001e DBB2     		uxtb	r3, r3
 193 0020 DB2B     		cmp	r3, #219
 194 0022 12D1     		bne	.L12
 195 0024 7B6A     		ldr	r3, [r7, #36]
 196 0026 5A1C     		adds	r2, r3, #1
 197 0028 7A62     		str	r2, [r7, #36]
 198 002a DB22     		movs	r2, #219
 199 002c 07F12801 		add	r1, r7, #40
 200 0030 0B44     		add	r3, r3, r1
 201 0032 03F8142C 		strb	r2, [r3, #-20]
 202 0036 7B6A     		ldr	r3, [r7, #36]
 203 0038 5A1C     		adds	r2, r3, #1
 204 003a 7A62     		str	r2, [r7, #36]
 205 003c DD22     		movs	r2, #221
 206 003e 07F12801 		add	r1, r7, #40
 207 0042 0B44     		add	r3, r3, r1
 208 0044 03F8142C 		strb	r2, [r3, #-20]
 209 0048 26E0     		b	.L13
 210              	.L12:
 211 004a FA68     		ldr	r2, [r7, #12]
 212 004c 3B6A     		ldr	r3, [r7, #32]
 213 004e 22FA03F3 		lsr	r3, r2, r3
 214 0052 DBB2     		uxtb	r3, r3
 215 0054 C02B     		cmp	r3, #192
 216 0056 12D1     		bne	.L14
 217 0058 7B6A     		ldr	r3, [r7, #36]
 218 005a 5A1C     		adds	r2, r3, #1
 219 005c 7A62     		str	r2, [r7, #36]
 220 005e DB22     		movs	r2, #219
 221 0060 07F12801 		add	r1, r7, #40
 222 0064 0B44     		add	r3, r3, r1
 223 0066 03F8142C 		strb	r2, [r3, #-20]
 224 006a 7B6A     		ldr	r3, [r7, #36]
 225 006c 5A1C     		adds	r2, r3, #1
 226 006e 7A62     		str	r2, [r7, #36]
 227 0070 DC22     		movs	r2, #220
 228 0072 07F12801 		add	r1, r7, #40
ARM GAS  /var/folders/d2/nstgp4h54kz7g1l847x_b8wc0000gn/T//cc9Joghr.s 			page 5


 229 0076 0B44     		add	r3, r3, r1
 230 0078 03F8142C 		strb	r2, [r3, #-20]
 231 007c 0CE0     		b	.L13
 232              	.L14:
 233 007e FA68     		ldr	r2, [r7, #12]
 234 0080 3B6A     		ldr	r3, [r7, #32]
 235 0082 22FA03F1 		lsr	r1, r2, r3
 236 0086 7B6A     		ldr	r3, [r7, #36]
 237 0088 5A1C     		adds	r2, r3, #1
 238 008a 7A62     		str	r2, [r7, #36]
 239 008c CAB2     		uxtb	r2, r1
 240 008e 07F12801 		add	r1, r7, #40
 241 0092 0B44     		add	r3, r3, r1
 242 0094 03F8142C 		strb	r2, [r3, #-20]
 243              	.L13:
 244 0098 3B6A     		ldr	r3, [r7, #32]
 245 009a 083B     		subs	r3, r3, #8
 246 009c 3B62     		str	r3, [r7, #32]
 247              	.L11:
 248 009e 3B6A     		ldr	r3, [r7, #32]
 249 00a0 002B     		cmp	r3, #0
 250 00a2 B8DA     		bge	.L15
 251 00a4 7B6A     		ldr	r3, [r7, #36]
 252 00a6 5A1C     		adds	r2, r3, #1
 253 00a8 7A62     		str	r2, [r7, #36]
 254 00aa 07F12802 		add	r2, r7, #40
 255 00ae 1344     		add	r3, r3, r2
 256 00b0 C022     		movs	r2, #192
 257 00b2 03F8142C 		strb	r2, [r3, #-20]
 258 00b6 07F11401 		add	r1, r7, #20
 259 00ba BB68     		ldr	r3, [r7, #8]
 260 00bc 7A6A     		ldr	r2, [r7, #36]
 261 00be 7868     		ldr	r0, [r7, #4]
 262 00c0 9847     		blx	r3
 263 00c2 00BF     		nop
 264 00c4 2837     		adds	r7, r7, #40
 265 00c6 BD46     		mov	sp, r7
 266              		@ sp needed
 267 00c8 80BD     		pop	{r7, pc}
 268              		.size	serial_datagram_send_end, .-serial_datagram_send_end
 269              		.section	.text.serial_datagram_send,"ax",%progbits
 270              		.align	1
 271              		.global	serial_datagram_send
 272              		.syntax unified
 273              		.thumb
 274              		.thumb_func
 275              		.fpu fpv4-sp-d16
 276              		.type	serial_datagram_send, %function
 277              	serial_datagram_send:
 278              		@ args = 0, pretend = 0, frame = 24
 279              		@ frame_needed = 1, uses_anonymous_args = 0
 280 0000 80B5     		push	{r7, lr}
 281 0002 88B0     		sub	sp, sp, #32
 282 0004 02AF     		add	r7, sp, #8
 283 0006 F860     		str	r0, [r7, #12]
 284 0008 B960     		str	r1, [r7, #8]
 285 000a 7A60     		str	r2, [r7, #4]
ARM GAS  /var/folders/d2/nstgp4h54kz7g1l847x_b8wc0000gn/T//cc9Joghr.s 			page 6


 286 000c 3B60     		str	r3, [r7]
 287 000e 0023     		movs	r3, #0
 288 0010 7B61     		str	r3, [r7, #20]
 289 0012 07F11402 		add	r2, r7, #20
 290 0016 3B68     		ldr	r3, [r7]
 291 0018 0093     		str	r3, [sp]
 292 001a 7B68     		ldr	r3, [r7, #4]
 293 001c B968     		ldr	r1, [r7, #8]
 294 001e F868     		ldr	r0, [r7, #12]
 295 0020 FFF7FEFF 		bl	serial_datagram_send_chunk
 296 0024 7B69     		ldr	r3, [r7, #20]
 297 0026 3A68     		ldr	r2, [r7]
 298 0028 7968     		ldr	r1, [r7, #4]
 299 002a 1846     		mov	r0, r3
 300 002c FFF7FEFF 		bl	serial_datagram_send_end
 301 0030 00BF     		nop
 302 0032 1837     		adds	r7, r7, #24
 303 0034 BD46     		mov	sp, r7
 304              		@ sp needed
 305 0036 80BD     		pop	{r7, pc}
 306              		.size	serial_datagram_send, .-serial_datagram_send
 307              		.section	.text.rcv_handler_reset,"ax",%progbits
 308              		.align	1
 309              		.syntax unified
 310              		.thumb
 311              		.thumb_func
 312              		.fpu fpv4-sp-d16
 313              		.type	rcv_handler_reset, %function
 314              	rcv_handler_reset:
 315              		@ args = 0, pretend = 0, frame = 8
 316              		@ frame_needed = 1, uses_anonymous_args = 0
 317              		@ link register save eliminated.
 318 0000 80B4     		push	{r7}
 319 0002 83B0     		sub	sp, sp, #12
 320 0004 00AF     		add	r7, sp, #0
 321 0006 7860     		str	r0, [r7, #4]
 322 0008 7B68     		ldr	r3, [r7, #4]
 323 000a 0022     		movs	r2, #0
 324 000c 9A60     		str	r2, [r3, #8]
 325 000e 7B68     		ldr	r3, [r7, #4]
 326 0010 0022     		movs	r2, #0
 327 0012 1A75     		strb	r2, [r3, #20]
 328 0014 7B68     		ldr	r3, [r7, #4]
 329 0016 0022     		movs	r2, #0
 330 0018 5A75     		strb	r2, [r3, #21]
 331 001a 00BF     		nop
 332 001c 0C37     		adds	r7, r7, #12
 333 001e BD46     		mov	sp, r7
 334              		@ sp needed
 335 0020 5DF8047B 		ldr	r7, [sp], #4
 336 0024 7047     		bx	lr
 337              		.size	rcv_handler_reset, .-rcv_handler_reset
 338              		.section	.text.serial_datagram_rcv_handler_init,"ax",%progbits
 339              		.align	1
 340              		.global	serial_datagram_rcv_handler_init
 341              		.syntax unified
 342              		.thumb
ARM GAS  /var/folders/d2/nstgp4h54kz7g1l847x_b8wc0000gn/T//cc9Joghr.s 			page 7


 343              		.thumb_func
 344              		.fpu fpv4-sp-d16
 345              		.type	serial_datagram_rcv_handler_init, %function
 346              	serial_datagram_rcv_handler_init:
 347              		@ args = 4, pretend = 0, frame = 16
 348              		@ frame_needed = 1, uses_anonymous_args = 0
 349 0000 80B5     		push	{r7, lr}
 350 0002 84B0     		sub	sp, sp, #16
 351 0004 00AF     		add	r7, sp, #0
 352 0006 F860     		str	r0, [r7, #12]
 353 0008 B960     		str	r1, [r7, #8]
 354 000a 7A60     		str	r2, [r7, #4]
 355 000c 3B60     		str	r3, [r7]
 356 000e FB68     		ldr	r3, [r7, #12]
 357 0010 BA68     		ldr	r2, [r7, #8]
 358 0012 1A60     		str	r2, [r3]
 359 0014 FB68     		ldr	r3, [r7, #12]
 360 0016 7A68     		ldr	r2, [r7, #4]
 361 0018 5A60     		str	r2, [r3, #4]
 362 001a FB68     		ldr	r3, [r7, #12]
 363 001c 3A68     		ldr	r2, [r7]
 364 001e DA60     		str	r2, [r3, #12]
 365 0020 FB68     		ldr	r3, [r7, #12]
 366 0022 BA69     		ldr	r2, [r7, #24]
 367 0024 1A61     		str	r2, [r3, #16]
 368 0026 F868     		ldr	r0, [r7, #12]
 369 0028 FFF7FEFF 		bl	rcv_handler_reset
 370 002c 00BF     		nop
 371 002e 1037     		adds	r7, r7, #16
 372 0030 BD46     		mov	sp, r7
 373              		@ sp needed
 374 0032 80BD     		pop	{r7, pc}
 375              		.size	serial_datagram_rcv_handler_init, .-serial_datagram_rcv_handler_init
 376              		.section	.text.serial_datagram_receive,"ax",%progbits
 377              		.align	1
 378              		.global	serial_datagram_receive
 379              		.syntax unified
 380              		.thumb
 381              		.thumb_func
 382              		.fpu fpv4-sp-d16
 383              		.type	serial_datagram_receive, %function
 384              	serial_datagram_receive:
 385              		@ args = 0, pretend = 0, frame = 40
 386              		@ frame_needed = 1, uses_anonymous_args = 0
 387 0000 80B5     		push	{r7, lr}
 388 0002 8AB0     		sub	sp, sp, #40
 389 0004 00AF     		add	r7, sp, #0
 390 0006 F860     		str	r0, [r7, #12]
 391 0008 B960     		str	r1, [r7, #8]
 392 000a 7A60     		str	r2, [r7, #4]
 393 000c BB68     		ldr	r3, [r7, #8]
 394 000e 7B62     		str	r3, [r7, #36]
 395 0010 0023     		movs	r3, #0
 396 0012 3B62     		str	r3, [r7, #32]
 397 0014 A5E0     		b	.L20
 398              	.L35:
 399 0016 FB68     		ldr	r3, [r7, #12]
ARM GAS  /var/folders/d2/nstgp4h54kz7g1l847x_b8wc0000gn/T//cc9Joghr.s 			page 8


 400 0018 1B7D     		ldrb	r3, [r3, #20]	@ zero_extendqisi2
 401 001a 002B     		cmp	r3, #0
 402 001c 08D0     		beq	.L21
 403 001e 7B6A     		ldr	r3, [r7, #36]
 404 0020 1B78     		ldrb	r3, [r3]	@ zero_extendqisi2
 405 0022 C02B     		cmp	r3, #192
 406 0024 40F09A80 		bne	.L23
 407 0028 F868     		ldr	r0, [r7, #12]
 408 002a FFF7FEFF 		bl	rcv_handler_reset
 409 002e 95E0     		b	.L23
 410              	.L21:
 411 0030 7B6A     		ldr	r3, [r7, #36]
 412 0032 1B78     		ldrb	r3, [r3]	@ zero_extendqisi2
 413 0034 C02B     		cmp	r3, #192
 414 0036 47D1     		bne	.L24
 415 0038 FB68     		ldr	r3, [r7, #12]
 416 003a 9B68     		ldr	r3, [r3, #8]
 417 003c 043B     		subs	r3, r3, #4
 418 003e FB61     		str	r3, [r7, #28]
 419 0040 FB69     		ldr	r3, [r7, #28]
 420 0042 002B     		cmp	r3, #0
 421 0044 3ADB     		blt	.L25
 422 0046 FB68     		ldr	r3, [r7, #12]
 423 0048 1B68     		ldr	r3, [r3]
 424 004a FA69     		ldr	r2, [r7, #28]
 425 004c 1146     		mov	r1, r2
 426 004e 1846     		mov	r0, r3
 427 0050 FFF7FEFF 		bl	compute_crc
 428 0054 B861     		str	r0, [r7, #24]
 429 0056 FB68     		ldr	r3, [r7, #12]
 430 0058 1A68     		ldr	r2, [r3]
 431 005a FB68     		ldr	r3, [r7, #12]
 432 005c 9B68     		ldr	r3, [r3, #8]
 433 005e 043B     		subs	r3, r3, #4
 434 0060 1344     		add	r3, r3, r2
 435 0062 1B78     		ldrb	r3, [r3]	@ zero_extendqisi2
 436 0064 1A06     		lsls	r2, r3, #24
 437 0066 FB68     		ldr	r3, [r7, #12]
 438 0068 1968     		ldr	r1, [r3]
 439 006a FB68     		ldr	r3, [r7, #12]
 440 006c 9B68     		ldr	r3, [r3, #8]
 441 006e 033B     		subs	r3, r3, #3
 442 0070 0B44     		add	r3, r3, r1
 443 0072 1B78     		ldrb	r3, [r3]	@ zero_extendqisi2
 444 0074 1B04     		lsls	r3, r3, #16
 445 0076 1A43     		orrs	r2, r2, r3
 446 0078 FB68     		ldr	r3, [r7, #12]
 447 007a 1968     		ldr	r1, [r3]
 448 007c FB68     		ldr	r3, [r7, #12]
 449 007e 9B68     		ldr	r3, [r3, #8]
 450 0080 023B     		subs	r3, r3, #2
 451 0082 0B44     		add	r3, r3, r1
 452 0084 1B78     		ldrb	r3, [r3]	@ zero_extendqisi2
 453 0086 1B02     		lsls	r3, r3, #8
 454 0088 1343     		orrs	r3, r3, r2
 455 008a FA68     		ldr	r2, [r7, #12]
 456 008c 1168     		ldr	r1, [r2]
ARM GAS  /var/folders/d2/nstgp4h54kz7g1l847x_b8wc0000gn/T//cc9Joghr.s 			page 9


 457 008e FA68     		ldr	r2, [r7, #12]
 458 0090 9268     		ldr	r2, [r2, #8]
 459 0092 013A     		subs	r2, r2, #1
 460 0094 0A44     		add	r2, r2, r1
 461 0096 1278     		ldrb	r2, [r2]	@ zero_extendqisi2
 462 0098 1343     		orrs	r3, r3, r2
 463 009a 7B61     		str	r3, [r7, #20]
 464 009c BA69     		ldr	r2, [r7, #24]
 465 009e 7B69     		ldr	r3, [r7, #20]
 466 00a0 9A42     		cmp	r2, r3
 467 00a2 02D0     		beq	.L26
 468 00a4 0223     		movs	r3, #2
 469 00a6 3B62     		str	r3, [r7, #32]
 470 00a8 0AE0     		b	.L28
 471              	.L26:
 472 00aa FB68     		ldr	r3, [r7, #12]
 473 00ac DB68     		ldr	r3, [r3, #12]
 474 00ae FA68     		ldr	r2, [r7, #12]
 475 00b0 1068     		ldr	r0, [r2]
 476 00b2 F969     		ldr	r1, [r7, #28]
 477 00b4 FA68     		ldr	r2, [r7, #12]
 478 00b6 1269     		ldr	r2, [r2, #16]
 479 00b8 9847     		blx	r3
 480 00ba 01E0     		b	.L28
 481              	.L25:
 482 00bc 0323     		movs	r3, #3
 483 00be 3B62     		str	r3, [r7, #32]
 484              	.L28:
 485 00c0 F868     		ldr	r0, [r7, #12]
 486 00c2 FFF7FEFF 		bl	rcv_handler_reset
 487 00c6 49E0     		b	.L23
 488              	.L24:
 489 00c8 FB68     		ldr	r3, [r7, #12]
 490 00ca 9A68     		ldr	r2, [r3, #8]
 491 00cc FB68     		ldr	r3, [r7, #12]
 492 00ce 5B68     		ldr	r3, [r3, #4]
 493 00d0 9A42     		cmp	r2, r3
 494 00d2 05D1     		bne	.L29
 495 00d4 FB68     		ldr	r3, [r7, #12]
 496 00d6 0122     		movs	r2, #1
 497 00d8 1A75     		strb	r2, [r3, #20]
 498 00da 0123     		movs	r3, #1
 499 00dc 3B62     		str	r3, [r7, #32]
 500 00de 3DE0     		b	.L23
 501              	.L29:
 502 00e0 FB68     		ldr	r3, [r7, #12]
 503 00e2 5B7D     		ldrb	r3, [r3, #21]	@ zero_extendqisi2
 504 00e4 002B     		cmp	r3, #0
 505 00e6 26D0     		beq	.L30
 506 00e8 7B6A     		ldr	r3, [r7, #36]
 507 00ea 1B78     		ldrb	r3, [r3]	@ zero_extendqisi2
 508 00ec DD2B     		cmp	r3, #221
 509 00ee 0AD1     		bne	.L31
 510 00f0 FB68     		ldr	r3, [r7, #12]
 511 00f2 1A68     		ldr	r2, [r3]
 512 00f4 FB68     		ldr	r3, [r7, #12]
 513 00f6 9B68     		ldr	r3, [r3, #8]
ARM GAS  /var/folders/d2/nstgp4h54kz7g1l847x_b8wc0000gn/T//cc9Joghr.s 			page 10


 514 00f8 581C     		adds	r0, r3, #1
 515 00fa F968     		ldr	r1, [r7, #12]
 516 00fc 8860     		str	r0, [r1, #8]
 517 00fe 1344     		add	r3, r3, r2
 518 0100 DB22     		movs	r2, #219
 519 0102 1A70     		strb	r2, [r3]
 520 0104 13E0     		b	.L32
 521              	.L31:
 522 0106 7B6A     		ldr	r3, [r7, #36]
 523 0108 1B78     		ldrb	r3, [r3]	@ zero_extendqisi2
 524 010a DC2B     		cmp	r3, #220
 525 010c 0AD1     		bne	.L33
 526 010e FB68     		ldr	r3, [r7, #12]
 527 0110 1A68     		ldr	r2, [r3]
 528 0112 FB68     		ldr	r3, [r7, #12]
 529 0114 9B68     		ldr	r3, [r3, #8]
 530 0116 581C     		adds	r0, r3, #1
 531 0118 F968     		ldr	r1, [r7, #12]
 532 011a 8860     		str	r0, [r1, #8]
 533 011c 1344     		add	r3, r3, r2
 534 011e C022     		movs	r2, #192
 535 0120 1A70     		strb	r2, [r3]
 536 0122 04E0     		b	.L32
 537              	.L33:
 538 0124 0323     		movs	r3, #3
 539 0126 3B62     		str	r3, [r7, #32]
 540 0128 FB68     		ldr	r3, [r7, #12]
 541 012a 0122     		movs	r2, #1
 542 012c 1A75     		strb	r2, [r3, #20]
 543              	.L32:
 544 012e FB68     		ldr	r3, [r7, #12]
 545 0130 0022     		movs	r2, #0
 546 0132 5A75     		strb	r2, [r3, #21]
 547 0134 12E0     		b	.L23
 548              	.L30:
 549 0136 7B6A     		ldr	r3, [r7, #36]
 550 0138 1B78     		ldrb	r3, [r3]	@ zero_extendqisi2
 551 013a DB2B     		cmp	r3, #219
 552 013c 03D1     		bne	.L34
 553 013e FB68     		ldr	r3, [r7, #12]
 554 0140 0122     		movs	r2, #1
 555 0142 5A75     		strb	r2, [r3, #21]
 556 0144 0AE0     		b	.L23
 557              	.L34:
 558 0146 FB68     		ldr	r3, [r7, #12]
 559 0148 1A68     		ldr	r2, [r3]
 560 014a FB68     		ldr	r3, [r7, #12]
 561 014c 9B68     		ldr	r3, [r3, #8]
 562 014e 581C     		adds	r0, r3, #1
 563 0150 F968     		ldr	r1, [r7, #12]
 564 0152 8860     		str	r0, [r1, #8]
 565 0154 1344     		add	r3, r3, r2
 566 0156 7A6A     		ldr	r2, [r7, #36]
 567 0158 1278     		ldrb	r2, [r2]	@ zero_extendqisi2
 568 015a 1A70     		strb	r2, [r3]
 569              	.L23:
 570 015c 7B6A     		ldr	r3, [r7, #36]
ARM GAS  /var/folders/d2/nstgp4h54kz7g1l847x_b8wc0000gn/T//cc9Joghr.s 			page 11


 571 015e 0133     		adds	r3, r3, #1
 572 0160 7B62     		str	r3, [r7, #36]
 573              	.L20:
 574 0162 7B68     		ldr	r3, [r7, #4]
 575 0164 5A1E     		subs	r2, r3, #1
 576 0166 7A60     		str	r2, [r7, #4]
 577 0168 002B     		cmp	r3, #0
 578 016a 7FF454AF 		bne	.L35
 579 016e 3B6A     		ldr	r3, [r7, #32]
 580 0170 1846     		mov	r0, r3
 581 0172 2837     		adds	r7, r7, #40
 582 0174 BD46     		mov	sp, r7
 583              		@ sp needed
 584 0176 80BD     		pop	{r7, pc}
 585              		.size	serial_datagram_receive, .-serial_datagram_receive
 586              		.ident	"GCC: (GNU Tools for Arm Embedded Processors 7-2017-q4-major) 7.2.1 20170904 (release) [ARM
ARM GAS  /var/folders/d2/nstgp4h54kz7g1l847x_b8wc0000gn/T//cc9Joghr.s 			page 12

