ARM GAS  /var/folders/d2/nstgp4h54kz7g1l847x_b8wc0000gn/T//cceUJmQ1.s 			page 1


   1              		.cpu cortex-m4
   2              		.eabi_attribute 27, 1
   3              		.eabi_attribute 28, 1
   4              		.eabi_attribute 20, 1
   5              		.eabi_attribute 21, 1
   6              		.eabi_attribute 23, 3
   7              		.eabi_attribute 24, 1
   8              		.eabi_attribute 25, 1
   9              		.eabi_attribute 26, 1
  10              		.eabi_attribute 30, 6
  11              		.eabi_attribute 34, 1
  12              		.eabi_attribute 18, 4
  13              		.file	"serial_comm.c"
  14              		.global	flags
  15              		.section	.bss.flags,"aw",%nobits
  16              		.align	2
  17              		.type	flags, %object
  18              		.size	flags, 4
  19              	flags:
  20 0000 00000000 		.space	4
  21              		.section	.bss.serial_listener_thd_wa,"aw",%nobits
  22              		.align	3
  23              		.type	serial_listener_thd_wa, %object
  24              		.size	serial_listener_thd_wa, 632
  25              	serial_listener_thd_wa:
  26 0000 00000000 		.space	632
  26      00000000 
  26      00000000 
  26      00000000 
  26      00000000 
  27              		.section	.text.serial_listener_thd,"ax",%progbits
  28              		.align	1
  29              		.syntax unified
  30              		.thumb
  31              		.thumb_func
  32              		.fpu fpv4-sp-d16
  33              		.type	serial_listener_thd, %function
  34              	serial_listener_thd:
  35              		@ args = 0, pretend = 0, frame = 32
  36              		@ frame_needed = 1, uses_anonymous_args = 0
  37 0000 80B5     		push	{r7, lr}
  38 0002 88B0     		sub	sp, sp, #32
  39 0004 00AF     		add	r7, sp, #0
  40 0006 7860     		str	r0, [r7, #4]
  41 0008 07F10C01 		add	r1, r7, #12
  42 000c 4FF4F073 		mov	r3, #480
  43 0010 0122     		movs	r2, #1
  44 0012 0748     		ldr	r0, .L3
  45 0014 FFF7FEFF 		bl	chEvtRegisterMaskWithFlags
  46              	.L2:
  47 0018 0120     		movs	r0, #1
  48 001a FFF7FEFF 		bl	chEvtWaitAny
  49 001e 07F10C03 		add	r3, r7, #12
  50 0022 1846     		mov	r0, r3
  51 0024 FFF7FEFF 		bl	chEvtGetAndClearFlags
  52 0028 0246     		mov	r2, r0
  53 002a 024B     		ldr	r3, .L3+4
ARM GAS  /var/folders/d2/nstgp4h54kz7g1l847x_b8wc0000gn/T//cceUJmQ1.s 			page 2


  54 002c 1A60     		str	r2, [r3]
  55 002e F3E7     		b	.L2
  56              	.L4:
  57              		.align	2
  58              	.L3:
  59 0030 04000000 		.word	SD3+4
  60 0034 00000000 		.word	flags
  61              		.size	serial_listener_thd, .-serial_listener_thd
  62              		.section	.text.serial_start,"ax",%progbits
  63              		.align	1
  64              		.global	serial_start
  65              		.syntax unified
  66              		.thumb
  67              		.thumb_func
  68              		.fpu fpv4-sp-d16
  69              		.type	serial_start, %function
  70              	serial_start:
  71              		@ args = 0, pretend = 0, frame = 0
  72              		@ frame_needed = 1, uses_anonymous_args = 0
  73 0000 80B5     		push	{r7, lr}
  74 0002 82B0     		sub	sp, sp, #8
  75 0004 02AF     		add	r7, sp, #8
  76 0006 0849     		ldr	r1, .L6
  77 0008 0848     		ldr	r0, .L6+4
  78 000a FFF7FEFF 		bl	sdStart
  79 000e 0023     		movs	r3, #0
  80 0010 0093     		str	r3, [sp]
  81 0012 074B     		ldr	r3, .L6+8
  82 0014 4022     		movs	r2, #64
  83 0016 4FF41E71 		mov	r1, #632
  84 001a 0648     		ldr	r0, .L6+12
  85 001c FFF7FEFF 		bl	chThdCreateStatic
  86 0020 00BF     		nop
  87 0022 BD46     		mov	sp, r7
  88              		@ sp needed
  89 0024 80BD     		pop	{r7, pc}
  90              	.L7:
  91 0026 00BF     		.align	2
  92              	.L6:
  93 0028 00000000 		.word	ser_cfg.10690
  94 002c 00000000 		.word	SD3
  95 0030 00000000 		.word	serial_listener_thd
  96 0034 00000000 		.word	serial_listener_thd_wa
  97              		.size	serial_start, .-serial_start
  98              		.section	.text.serial_get_last_errors,"ax",%progbits
  99              		.align	1
 100              		.global	serial_get_last_errors
 101              		.syntax unified
 102              		.thumb
 103              		.thumb_func
 104              		.fpu fpv4-sp-d16
 105              		.type	serial_get_last_errors, %function
 106              	serial_get_last_errors:
 107              		@ args = 0, pretend = 0, frame = 0
 108              		@ frame_needed = 1, uses_anonymous_args = 0
 109              		@ link register save eliminated.
 110 0000 80B4     		push	{r7}
ARM GAS  /var/folders/d2/nstgp4h54kz7g1l847x_b8wc0000gn/T//cceUJmQ1.s 			page 3


 111 0002 00AF     		add	r7, sp, #0
 112 0004 034B     		ldr	r3, .L10
 113 0006 1B68     		ldr	r3, [r3]
 114 0008 1846     		mov	r0, r3
 115 000a BD46     		mov	sp, r7
 116              		@ sp needed
 117 000c 5DF8047B 		ldr	r7, [sp], #4
 118 0010 7047     		bx	lr
 119              	.L11:
 120 0012 00BF     		.align	2
 121              	.L10:
 122 0014 00000000 		.word	flags
 123              		.size	serial_get_last_errors, .-serial_get_last_errors
 124              		.section	.text.serial_clear_last_errors,"ax",%progbits
 125              		.align	1
 126              		.global	serial_clear_last_errors
 127              		.syntax unified
 128              		.thumb
 129              		.thumb_func
 130              		.fpu fpv4-sp-d16
 131              		.type	serial_clear_last_errors, %function
 132              	serial_clear_last_errors:
 133              		@ args = 0, pretend = 0, frame = 0
 134              		@ frame_needed = 1, uses_anonymous_args = 0
 135              		@ link register save eliminated.
 136 0000 80B4     		push	{r7}
 137 0002 00AF     		add	r7, sp, #0
 138 0004 034B     		ldr	r3, .L13
 139 0006 0022     		movs	r2, #0
 140 0008 1A60     		str	r2, [r3]
 141 000a 00BF     		nop
 142 000c BD46     		mov	sp, r7
 143              		@ sp needed
 144 000e 5DF8047B 		ldr	r7, [sp], #4
 145 0012 7047     		bx	lr
 146              	.L14:
 147              		.align	2
 148              	.L13:
 149 0014 00000000 		.word	flags
 150              		.size	serial_clear_last_errors, .-serial_clear_last_errors
 151              		.section	.data.ser_cfg.10690,"aw",%progbits
 152              		.align	2
 153              		.type	ser_cfg.10690, %object
 154              		.size	ser_cfg.10690, 12
 155              	ser_cfg.10690:
 156 0000 00C20100 		.word	115200
 157 0004 0000     		.short	0
 158 0006 0000     		.short	0
 159 0008 0000     		.short	0
 160 000a 0000     		.space	2
 161              		.ident	"GCC: (GNU Tools for Arm Embedded Processors 7-2017-q4-major) 7.2.1 20170904 (release) [ARM
ARM GAS  /var/folders/d2/nstgp4h54kz7g1l847x_b8wc0000gn/T//cceUJmQ1.s 			page 4

