ARM GAS  /var/folders/d2/nstgp4h54kz7g1l847x_b8wc0000gn/T//ccPmio4t.s 			page 1


   1              		.cpu cortex-m4
   2              		.eabi_attribute 27, 1
   3              		.eabi_attribute 28, 1
   4              		.eabi_attribute 20, 1
   5              		.eabi_attribute 21, 1
   6              		.eabi_attribute 23, 3
   7              		.eabi_attribute 24, 1
   8              		.eabi_attribute 25, 1
   9              		.eabi_attribute 26, 1
  10              		.eabi_attribute 30, 6
  11              		.eabi_attribute 34, 1
  12              		.eabi_attribute 18, 4
  13              		.file	"shell.c"
  14              		.section	.text.port_lock,"ax",%progbits
  15              		.align	1
  16              		.syntax unified
  17              		.thumb
  18              		.thumb_func
  19              		.fpu fpv4-sp-d16
  20              		.type	port_lock, %function
  21              	port_lock:
  22              		@ args = 0, pretend = 0, frame = 8
  23              		@ frame_needed = 1, uses_anonymous_args = 0
  24              		@ link register save eliminated.
  25 0000 80B4     		push	{r7}
  26 0002 83B0     		sub	sp, sp, #12
  27 0004 00AF     		add	r7, sp, #0
  28 0006 2023     		movs	r3, #32
  29 0008 7B60     		str	r3, [r7, #4]
  30 000a 7B68     		ldr	r3, [r7, #4]
  31              		.syntax unified
  32              	@ 546 "../e-puck2_main-processor/ChibiOS//os/ext/CMSIS/include/core_cmFunc.h" 1
  33 000c 83F31188 		MSR basepri, r3
  34              	@ 0 "" 2
  35              		.thumb
  36              		.syntax unified
  37 0010 00BF     		nop
  38 0012 0C37     		adds	r7, r7, #12
  39 0014 BD46     		mov	sp, r7
  40              		@ sp needed
  41 0016 5DF8047B 		ldr	r7, [sp], #4
  42 001a 7047     		bx	lr
  43              		.size	port_lock, .-port_lock
  44              		.section	.text.port_unlock,"ax",%progbits
  45              		.align	1
  46              		.syntax unified
  47              		.thumb
  48              		.thumb_func
  49              		.fpu fpv4-sp-d16
  50              		.type	port_unlock, %function
  51              	port_unlock:
  52              		@ args = 0, pretend = 0, frame = 8
  53              		@ frame_needed = 1, uses_anonymous_args = 0
  54              		@ link register save eliminated.
  55 0000 80B4     		push	{r7}
  56 0002 83B0     		sub	sp, sp, #12
  57 0004 00AF     		add	r7, sp, #0
ARM GAS  /var/folders/d2/nstgp4h54kz7g1l847x_b8wc0000gn/T//ccPmio4t.s 			page 2


  58 0006 0023     		movs	r3, #0
  59 0008 7B60     		str	r3, [r7, #4]
  60 000a 7B68     		ldr	r3, [r7, #4]
  61              		.syntax unified
  62              	@ 546 "../e-puck2_main-processor/ChibiOS//os/ext/CMSIS/include/core_cmFunc.h" 1
  63 000c 83F31188 		MSR basepri, r3
  64              	@ 0 "" 2
  65              		.thumb
  66              		.syntax unified
  67 0010 00BF     		nop
  68 0012 0C37     		adds	r7, r7, #12
  69 0014 BD46     		mov	sp, r7
  70              		@ sp needed
  71 0016 5DF8047B 		ldr	r7, [sp], #4
  72 001a 7047     		bx	lr
  73              		.size	port_unlock, .-port_unlock
  74              		.section	.text.chSysLock,"ax",%progbits
  75              		.align	1
  76              		.syntax unified
  77              		.thumb
  78              		.thumb_func
  79              		.fpu fpv4-sp-d16
  80              		.type	chSysLock, %function
  81              	chSysLock:
  82              		@ args = 0, pretend = 0, frame = 0
  83              		@ frame_needed = 1, uses_anonymous_args = 0
  84 0000 80B5     		push	{r7, lr}
  85 0002 00AF     		add	r7, sp, #0
  86 0004 FFF7FEFF 		bl	port_lock
  87 0008 FFF7FEFF 		bl	_stats_start_measure_crit_thd
  88 000c FFF7FEFF 		bl	_dbg_check_lock
  89 0010 00BF     		nop
  90 0012 80BD     		pop	{r7, pc}
  91              		.size	chSysLock, .-chSysLock
  92              		.section	.text.chSysUnlock,"ax",%progbits
  93              		.align	1
  94              		.syntax unified
  95              		.thumb
  96              		.thumb_func
  97              		.fpu fpv4-sp-d16
  98              		.type	chSysUnlock, %function
  99              	chSysUnlock:
 100              		@ args = 0, pretend = 0, frame = 0
 101              		@ frame_needed = 1, uses_anonymous_args = 0
 102 0000 80B5     		push	{r7, lr}
 103 0002 00AF     		add	r7, sp, #0
 104 0004 FFF7FEFF 		bl	_dbg_check_unlock
 105 0008 FFF7FEFF 		bl	_stats_stop_measure_crit_thd
 106 000c 094B     		ldr	r3, .L6
 107 000e 1B68     		ldr	r3, [r3]
 108 0010 084A     		ldr	r2, .L6
 109 0012 9342     		cmp	r3, r2
 110 0014 0AD0     		beq	.L5
 111 0016 074B     		ldr	r3, .L6
 112 0018 9B69     		ldr	r3, [r3, #24]
 113 001a 9A68     		ldr	r2, [r3, #8]
 114 001c 054B     		ldr	r3, .L6
ARM GAS  /var/folders/d2/nstgp4h54kz7g1l847x_b8wc0000gn/T//ccPmio4t.s 			page 3


 115 001e 1B68     		ldr	r3, [r3]
 116 0020 9B68     		ldr	r3, [r3, #8]
 117 0022 9A42     		cmp	r2, r3
 118 0024 02D2     		bcs	.L5
 119 0026 0448     		ldr	r0, .L6+4
 120 0028 FFF7FEFF 		bl	chSysHalt
 121              	.L5:
 122 002c FFF7FEFF 		bl	port_unlock
 123 0030 00BF     		nop
 124 0032 80BD     		pop	{r7, pc}
 125              	.L7:
 126              		.align	2
 127              	.L6:
 128 0034 00000000 		.word	ch
 129 0038 00000000 		.word	__func__.7554
 130              		.size	chSysUnlock, .-chSysUnlock
 131              		.section	.text.chVTGetSystemTimeX,"ax",%progbits
 132              		.align	1
 133              		.syntax unified
 134              		.thumb
 135              		.thumb_func
 136              		.fpu fpv4-sp-d16
 137              		.type	chVTGetSystemTimeX, %function
 138              	chVTGetSystemTimeX:
 139              		@ args = 0, pretend = 0, frame = 0
 140              		@ frame_needed = 1, uses_anonymous_args = 0
 141              		@ link register save eliminated.
 142 0000 80B4     		push	{r7}
 143 0002 00AF     		add	r7, sp, #0
 144 0004 034B     		ldr	r3, .L10
 145 0006 9B6A     		ldr	r3, [r3, #40]
 146 0008 1846     		mov	r0, r3
 147 000a BD46     		mov	sp, r7
 148              		@ sp needed
 149 000c 5DF8047B 		ldr	r7, [sp], #4
 150 0010 7047     		bx	lr
 151              	.L11:
 152 0012 00BF     		.align	2
 153              	.L10:
 154 0014 00000000 		.word	ch
 155              		.size	chVTGetSystemTimeX, .-chVTGetSystemTimeX
 156              		.section	.text.chVTGetSystemTime,"ax",%progbits
 157              		.align	1
 158              		.syntax unified
 159              		.thumb
 160              		.thumb_func
 161              		.fpu fpv4-sp-d16
 162              		.type	chVTGetSystemTime, %function
 163              	chVTGetSystemTime:
 164              		@ args = 0, pretend = 0, frame = 8
 165              		@ frame_needed = 1, uses_anonymous_args = 0
 166 0000 80B5     		push	{r7, lr}
 167 0002 82B0     		sub	sp, sp, #8
 168 0004 00AF     		add	r7, sp, #0
 169 0006 FFF7FEFF 		bl	chSysLock
 170 000a FFF7FEFF 		bl	chVTGetSystemTimeX
 171 000e 7860     		str	r0, [r7, #4]
ARM GAS  /var/folders/d2/nstgp4h54kz7g1l847x_b8wc0000gn/T//ccPmio4t.s 			page 4


 172 0010 FFF7FEFF 		bl	chSysUnlock
 173 0014 7B68     		ldr	r3, [r7, #4]
 174 0016 1846     		mov	r0, r3
 175 0018 0837     		adds	r7, r7, #8
 176 001a BD46     		mov	sp, r7
 177              		@ sp needed
 178 001c 80BD     		pop	{r7, pc}
 179              		.size	chVTGetSystemTime, .-chVTGetSystemTime
 180              		.section	.text.chRegSetThreadName,"ax",%progbits
 181              		.align	1
 182              		.syntax unified
 183              		.thumb
 184              		.thumb_func
 185              		.fpu fpv4-sp-d16
 186              		.type	chRegSetThreadName, %function
 187              	chRegSetThreadName:
 188              		@ args = 0, pretend = 0, frame = 8
 189              		@ frame_needed = 1, uses_anonymous_args = 0
 190              		@ link register save eliminated.
 191 0000 80B4     		push	{r7}
 192 0002 83B0     		sub	sp, sp, #12
 193 0004 00AF     		add	r7, sp, #0
 194 0006 7860     		str	r0, [r7, #4]
 195 0008 044B     		ldr	r3, .L15
 196 000a 9B69     		ldr	r3, [r3, #24]
 197 000c 7A68     		ldr	r2, [r7, #4]
 198 000e 9A61     		str	r2, [r3, #24]
 199 0010 00BF     		nop
 200 0012 0C37     		adds	r7, r7, #12
 201 0014 BD46     		mov	sp, r7
 202              		@ sp needed
 203 0016 5DF8047B 		ldr	r7, [sp], #4
 204 001a 7047     		bx	lr
 205              	.L16:
 206              		.align	2
 207              	.L15:
 208 001c 00000000 		.word	ch
 209              		.size	chRegSetThreadName, .-chRegSetThreadName
 210              		.section	.text.chEvtObjectInit,"ax",%progbits
 211              		.align	1
 212              		.syntax unified
 213              		.thumb
 214              		.thumb_func
 215              		.fpu fpv4-sp-d16
 216              		.type	chEvtObjectInit, %function
 217              	chEvtObjectInit:
 218              		@ args = 0, pretend = 0, frame = 8
 219              		@ frame_needed = 1, uses_anonymous_args = 0
 220              		@ link register save eliminated.
 221 0000 80B4     		push	{r7}
 222 0002 83B0     		sub	sp, sp, #12
 223 0004 00AF     		add	r7, sp, #0
 224 0006 7860     		str	r0, [r7, #4]
 225 0008 7B68     		ldr	r3, [r7, #4]
 226 000a 7A68     		ldr	r2, [r7, #4]
 227 000c 1A60     		str	r2, [r3]
 228 000e 00BF     		nop
ARM GAS  /var/folders/d2/nstgp4h54kz7g1l847x_b8wc0000gn/T//ccPmio4t.s 			page 5


 229 0010 0C37     		adds	r7, r7, #12
 230 0012 BD46     		mov	sp, r7
 231              		@ sp needed
 232 0014 5DF8047B 		ldr	r7, [sp], #4
 233 0018 7047     		bx	lr
 234              		.size	chEvtObjectInit, .-chEvtObjectInit
 235              		.section	.text.chEvtBroadcastI,"ax",%progbits
 236              		.align	1
 237              		.syntax unified
 238              		.thumb
 239              		.thumb_func
 240              		.fpu fpv4-sp-d16
 241              		.type	chEvtBroadcastI, %function
 242              	chEvtBroadcastI:
 243              		@ args = 0, pretend = 0, frame = 8
 244              		@ frame_needed = 1, uses_anonymous_args = 0
 245 0000 80B5     		push	{r7, lr}
 246 0002 82B0     		sub	sp, sp, #8
 247 0004 00AF     		add	r7, sp, #0
 248 0006 7860     		str	r0, [r7, #4]
 249 0008 0021     		movs	r1, #0
 250 000a 7868     		ldr	r0, [r7, #4]
 251 000c FFF7FEFF 		bl	chEvtBroadcastFlagsI
 252 0010 00BF     		nop
 253 0012 0837     		adds	r7, r7, #8
 254 0014 BD46     		mov	sp, r7
 255              		@ sp needed
 256 0016 80BD     		pop	{r7, pc}
 257              		.size	chEvtBroadcastI, .-chEvtBroadcastI
 258              		.section	.text.chprintf,"ax",%progbits
 259              		.align	1
 260              		.syntax unified
 261              		.thumb
 262              		.thumb_func
 263              		.fpu fpv4-sp-d16
 264              		.type	chprintf, %function
 265              	chprintf:
 266              		@ args = 4, pretend = 12, frame = 16
 267              		@ frame_needed = 1, uses_anonymous_args = 1
 268 0000 0EB4     		push	{r1, r2, r3}
 269 0002 80B5     		push	{r7, lr}
 270 0004 85B0     		sub	sp, sp, #20
 271 0006 00AF     		add	r7, sp, #0
 272 0008 7860     		str	r0, [r7, #4]
 273 000a 07F12003 		add	r3, r7, #32
 274 000e BB60     		str	r3, [r7, #8]
 275 0010 BA68     		ldr	r2, [r7, #8]
 276 0012 F969     		ldr	r1, [r7, #28]
 277 0014 7868     		ldr	r0, [r7, #4]
 278 0016 FFF7FEFF 		bl	chvprintf
 279 001a F860     		str	r0, [r7, #12]
 280 001c FB68     		ldr	r3, [r7, #12]
 281 001e 1846     		mov	r0, r3
 282 0020 1437     		adds	r7, r7, #20
 283 0022 BD46     		mov	sp, r7
 284              		@ sp needed
 285 0024 BDE88040 		pop	{r7, lr}
ARM GAS  /var/folders/d2/nstgp4h54kz7g1l847x_b8wc0000gn/T//ccPmio4t.s 			page 6


 286 0028 03B0     		add	sp, sp, #12
 287 002a 7047     		bx	lr
 288              		.size	chprintf, .-chprintf
 289              		.global	shell_terminated
 290              		.section	.bss.shell_terminated,"aw",%nobits
 291              		.align	2
 292              		.type	shell_terminated, %object
 293              		.size	shell_terminated, 4
 294              	shell_terminated:
 295 0000 00000000 		.space	4
 296              		.section	.text._strtok,"ax",%progbits
 297              		.align	1
 298              		.syntax unified
 299              		.thumb
 300              		.thumb_func
 301              		.fpu fpv4-sp-d16
 302              		.type	_strtok, %function
 303              	_strtok:
 304              		@ args = 0, pretend = 0, frame = 24
 305              		@ frame_needed = 1, uses_anonymous_args = 0
 306 0000 80B5     		push	{r7, lr}
 307 0002 86B0     		sub	sp, sp, #24
 308 0004 00AF     		add	r7, sp, #0
 309 0006 F860     		str	r0, [r7, #12]
 310 0008 B960     		str	r1, [r7, #8]
 311 000a 7A60     		str	r2, [r7, #4]
 312 000c FB68     		ldr	r3, [r7, #12]
 313 000e 002B     		cmp	r3, #0
 314 0010 02D0     		beq	.L22
 315 0012 7B68     		ldr	r3, [r7, #4]
 316 0014 FA68     		ldr	r2, [r7, #12]
 317 0016 1A60     		str	r2, [r3]
 318              	.L22:
 319 0018 7B68     		ldr	r3, [r7, #4]
 320 001a 1B68     		ldr	r3, [r3]
 321 001c 7B61     		str	r3, [r7, #20]
 322 001e 7B69     		ldr	r3, [r7, #20]
 323 0020 002B     		cmp	r3, #0
 324 0022 01D1     		bne	.L23
 325 0024 0023     		movs	r3, #0
 326 0026 20E0     		b	.L24
 327              	.L23:
 328 0028 B968     		ldr	r1, [r7, #8]
 329 002a 7869     		ldr	r0, [r7, #20]
 330 002c FFF7FEFF 		bl	strspn
 331 0030 0246     		mov	r2, r0
 332 0032 7B69     		ldr	r3, [r7, #20]
 333 0034 1344     		add	r3, r3, r2
 334 0036 7B61     		str	r3, [r7, #20]
 335 0038 B968     		ldr	r1, [r7, #8]
 336 003a 7869     		ldr	r0, [r7, #20]
 337 003c FFF7FEFF 		bl	strpbrk
 338 0040 0246     		mov	r2, r0
 339 0042 7B68     		ldr	r3, [r7, #4]
 340 0044 1A60     		str	r2, [r3]
 341 0046 7B68     		ldr	r3, [r7, #4]
 342 0048 1B68     		ldr	r3, [r3]
ARM GAS  /var/folders/d2/nstgp4h54kz7g1l847x_b8wc0000gn/T//ccPmio4t.s 			page 7


 343 004a 002B     		cmp	r3, #0
 344 004c 06D0     		beq	.L25
 345 004e 7B68     		ldr	r3, [r7, #4]
 346 0050 1B68     		ldr	r3, [r3]
 347 0052 591C     		adds	r1, r3, #1
 348 0054 7A68     		ldr	r2, [r7, #4]
 349 0056 1160     		str	r1, [r2]
 350 0058 0022     		movs	r2, #0
 351 005a 1A70     		strb	r2, [r3]
 352              	.L25:
 353 005c 7B69     		ldr	r3, [r7, #20]
 354 005e 1B78     		ldrb	r3, [r3]	@ zero_extendqisi2
 355 0060 002B     		cmp	r3, #0
 356 0062 01D0     		beq	.L26
 357 0064 7B69     		ldr	r3, [r7, #20]
 358 0066 00E0     		b	.L24
 359              	.L26:
 360 0068 0023     		movs	r3, #0
 361              	.L24:
 362 006a 1846     		mov	r0, r3
 363 006c 1837     		adds	r7, r7, #24
 364 006e BD46     		mov	sp, r7
 365              		@ sp needed
 366 0070 80BD     		pop	{r7, pc}
 367              		.size	_strtok, .-_strtok
 368              		.section	.rodata
 369              		.align	2
 370              	.LC0:
 371 0000 55736167 		.ascii	"Usage: %s\015\012\000"
 371      653A2025 
 371      730D0A00 
 372              		.section	.text.usage,"ax",%progbits
 373              		.align	1
 374              		.syntax unified
 375              		.thumb
 376              		.thumb_func
 377              		.fpu fpv4-sp-d16
 378              		.type	usage, %function
 379              	usage:
 380              		@ args = 0, pretend = 0, frame = 8
 381              		@ frame_needed = 1, uses_anonymous_args = 0
 382 0000 80B5     		push	{r7, lr}
 383 0002 82B0     		sub	sp, sp, #8
 384 0004 00AF     		add	r7, sp, #0
 385 0006 7860     		str	r0, [r7, #4]
 386 0008 3960     		str	r1, [r7]
 387 000a 3A68     		ldr	r2, [r7]
 388 000c 0349     		ldr	r1, .L29
 389 000e 7868     		ldr	r0, [r7, #4]
 390 0010 FFF7FEFF 		bl	chprintf
 391 0014 00BF     		nop
 392 0016 0837     		adds	r7, r7, #8
 393 0018 BD46     		mov	sp, r7
 394              		@ sp needed
 395 001a 80BD     		pop	{r7, pc}
 396              	.L30:
 397              		.align	2
ARM GAS  /var/folders/d2/nstgp4h54kz7g1l847x_b8wc0000gn/T//ccPmio4t.s 			page 8


 398              	.L29:
 399 001c 00000000 		.word	.LC0
 400              		.size	usage, .-usage
 401              		.section	.rodata
 402              		.align	2
 403              	.LC1:
 404 000c 25732000 		.ascii	"%s \000"
 405              		.section	.text.list_commands,"ax",%progbits
 406              		.align	1
 407              		.syntax unified
 408              		.thumb
 409              		.thumb_func
 410              		.fpu fpv4-sp-d16
 411              		.type	list_commands, %function
 412              	list_commands:
 413              		@ args = 0, pretend = 0, frame = 8
 414              		@ frame_needed = 1, uses_anonymous_args = 0
 415 0000 80B5     		push	{r7, lr}
 416 0002 82B0     		sub	sp, sp, #8
 417 0004 00AF     		add	r7, sp, #0
 418 0006 7860     		str	r0, [r7, #4]
 419 0008 3960     		str	r1, [r7]
 420 000a 09E0     		b	.L32
 421              	.L33:
 422 000c 3B68     		ldr	r3, [r7]
 423 000e 1B68     		ldr	r3, [r3]
 424 0010 1A46     		mov	r2, r3
 425 0012 0749     		ldr	r1, .L34
 426 0014 7868     		ldr	r0, [r7, #4]
 427 0016 FFF7FEFF 		bl	chprintf
 428 001a 3B68     		ldr	r3, [r7]
 429 001c 0833     		adds	r3, r3, #8
 430 001e 3B60     		str	r3, [r7]
 431              	.L32:
 432 0020 3B68     		ldr	r3, [r7]
 433 0022 1B68     		ldr	r3, [r3]
 434 0024 002B     		cmp	r3, #0
 435 0026 F1D1     		bne	.L33
 436 0028 00BF     		nop
 437 002a 0837     		adds	r7, r7, #8
 438 002c BD46     		mov	sp, r7
 439              		@ sp needed
 440 002e 80BD     		pop	{r7, pc}
 441              	.L35:
 442              		.align	2
 443              	.L34:
 444 0030 0C000000 		.word	.LC1
 445              		.size	list_commands, .-list_commands
 446              		.section	.rodata
 447              		.align	2
 448              	.LC2:
 449 0010 696E666F 		.ascii	"info\000"
 449      00
 450 0015 000000   		.align	2
 451              	.LC3:
 452 0018 332E302E 		.ascii	"3.0.0\000"
 452      3000
ARM GAS  /var/folders/d2/nstgp4h54kz7g1l847x_b8wc0000gn/T//ccPmio4t.s 			page 9


 453 001e 0000     		.align	2
 454              	.LC4:
 455 0020 4B65726E 		.ascii	"Kernel:       %s\015\012\000"
 455      656C3A20 
 455      20202020 
 455      20202573 
 455      0D0A00
 456 0033 00       		.align	2
 457              	.LC5:
 458 0034 47434320 		.ascii	"GCC 7.2.1 20170904 (release) [ARM/embedded-7-branch"
 458      372E322E 
 458      31203230 
 458      31373039 
 458      30342028 
 459 0067 20726576 		.ascii	" revision 255204]\000"
 459      6973696F 
 459      6E203235 
 459      35323034 
 459      5D00
 460 0079 000000   		.align	2
 461              	.LC6:
 462 007c 436F6D70 		.ascii	"Compiler:     %s\015\012\000"
 462      696C6572 
 462      3A202020 
 462      20202573 
 462      0D0A00
 463 008f 00       		.align	2
 464              	.LC7:
 465 0090 41524D76 		.ascii	"ARMv7-ME\000"
 465      372D4D45 
 465      00
 466 0099 000000   		.align	2
 467              	.LC8:
 468 009c 41726368 		.ascii	"Architecture: %s\015\012\000"
 468      69746563 
 468      74757265 
 468      3A202573 
 468      0D0A00
 469 00af 00       		.align	2
 470              	.LC9:
 471 00b0 436F7274 		.ascii	"Cortex-M4F\000"
 471      65782D4D 
 471      344600
 472 00bb 00       		.align	2
 473              	.LC10:
 474 00bc 436F7265 		.ascii	"Core Variant: %s\015\012\000"
 474      20566172 
 474      69616E74 
 474      3A202573 
 474      0D0A00
 475 00cf 00       		.align	2
 476              	.LC11:
 477 00d0 41647661 		.ascii	"Advanced kernel mode\000"
 477      6E636564 
 477      206B6572 
 477      6E656C20 
 477      6D6F6465 
ARM GAS  /var/folders/d2/nstgp4h54kz7g1l847x_b8wc0000gn/T//ccPmio4t.s 			page 10


 478 00e5 000000   		.align	2
 479              	.LC12:
 480 00e8 506F7274 		.ascii	"Port Info:    %s\015\012\000"
 480      20496E66 
 480      6F3A2020 
 480      20202573 
 480      0D0A00
 481 00fb 00       		.align	2
 482              	.LC13:
 483 00fc 53544D33 		.ascii	"STM32F407 High Performance with DSP and FPU\000"
 483      32463430 
 483      37204869 
 483      67682050 
 483      6572666F 
 484              		.align	2
 485              	.LC14:
 486 0128 506C6174 		.ascii	"Platform:     %s\015\012\000"
 486      666F726D 
 486      3A202020 
 486      20202573 
 486      0D0A00
 487 013b 00       		.align	2
 488              	.LC15:
 489 013c 47435472 		.ascii	"GCTronic-MobotsEPFL e-puck V2.0_F\000"
 489      6F6E6963 
 489      2D4D6F62 
 489      6F747345 
 489      50464C20 
 490 015e 0000     		.align	2
 491              	.LC16:
 492 0160 426F6172 		.ascii	"Board:        %s\015\012\000"
 492      643A2020 
 492      20202020 
 492      20202573 
 492      0D0A00
 493 0173 00       		.align	2
 494              	.LC17:
 495 0174 202D2000 		.ascii	" - \000"
 496              		.align	2
 497              	.LC18:
 498 0178 4F637420 		.ascii	"Oct 16 2019\000"
 498      31362032 
 498      30313900 
 499              		.align	2
 500              	.LC19:
 501 0184 4275696C 		.ascii	"Build time:   %s%s%s\015\012\000"
 501      64207469 
 501      6D653A20 
 501      20202573 
 501      25732573 
 502 019b 00       		.align	2
 503              	.LC20:
 504 019c 30333A32 		.ascii	"03:29:16\000"
 504      393A3136 
 504      00
 505              		.section	.text.cmd_info,"ax",%progbits
 506              		.align	1
ARM GAS  /var/folders/d2/nstgp4h54kz7g1l847x_b8wc0000gn/T//ccPmio4t.s 			page 11


 507              		.syntax unified
 508              		.thumb
 509              		.thumb_func
 510              		.fpu fpv4-sp-d16
 511              		.type	cmd_info, %function
 512              	cmd_info:
 513              		@ args = 0, pretend = 0, frame = 16
 514              		@ frame_needed = 1, uses_anonymous_args = 0
 515 0000 80B5     		push	{r7, lr}
 516 0002 86B0     		sub	sp, sp, #24
 517 0004 02AF     		add	r7, sp, #8
 518 0006 F860     		str	r0, [r7, #12]
 519 0008 B960     		str	r1, [r7, #8]
 520 000a 7A60     		str	r2, [r7, #4]
 521 000c BB68     		ldr	r3, [r7, #8]
 522 000e 002B     		cmp	r3, #0
 523 0010 04DD     		ble	.L37
 524 0012 1949     		ldr	r1, .L39
 525 0014 F868     		ldr	r0, [r7, #12]
 526 0016 FFF7FEFF 		bl	usage
 527 001a 2AE0     		b	.L36
 528              	.L37:
 529 001c 174A     		ldr	r2, .L39+4
 530 001e 1849     		ldr	r1, .L39+8
 531 0020 F868     		ldr	r0, [r7, #12]
 532 0022 FFF7FEFF 		bl	chprintf
 533 0026 174A     		ldr	r2, .L39+12
 534 0028 1749     		ldr	r1, .L39+16
 535 002a F868     		ldr	r0, [r7, #12]
 536 002c FFF7FEFF 		bl	chprintf
 537 0030 164A     		ldr	r2, .L39+20
 538 0032 1749     		ldr	r1, .L39+24
 539 0034 F868     		ldr	r0, [r7, #12]
 540 0036 FFF7FEFF 		bl	chprintf
 541 003a 164A     		ldr	r2, .L39+28
 542 003c 1649     		ldr	r1, .L39+32
 543 003e F868     		ldr	r0, [r7, #12]
 544 0040 FFF7FEFF 		bl	chprintf
 545 0044 154A     		ldr	r2, .L39+36
 546 0046 1649     		ldr	r1, .L39+40
 547 0048 F868     		ldr	r0, [r7, #12]
 548 004a FFF7FEFF 		bl	chprintf
 549 004e 154A     		ldr	r2, .L39+44
 550 0050 1549     		ldr	r1, .L39+48
 551 0052 F868     		ldr	r0, [r7, #12]
 552 0054 FFF7FEFF 		bl	chprintf
 553 0058 144A     		ldr	r2, .L39+52
 554 005a 1549     		ldr	r1, .L39+56
 555 005c F868     		ldr	r0, [r7, #12]
 556 005e FFF7FEFF 		bl	chprintf
 557 0062 144B     		ldr	r3, .L39+60
 558 0064 0093     		str	r3, [sp]
 559 0066 144B     		ldr	r3, .L39+64
 560 0068 144A     		ldr	r2, .L39+68
 561 006a 1549     		ldr	r1, .L39+72
 562 006c F868     		ldr	r0, [r7, #12]
 563 006e FFF7FEFF 		bl	chprintf
ARM GAS  /var/folders/d2/nstgp4h54kz7g1l847x_b8wc0000gn/T//ccPmio4t.s 			page 12


 564              	.L36:
 565 0072 1037     		adds	r7, r7, #16
 566 0074 BD46     		mov	sp, r7
 567              		@ sp needed
 568 0076 80BD     		pop	{r7, pc}
 569              	.L40:
 570              		.align	2
 571              	.L39:
 572 0078 10000000 		.word	.LC2
 573 007c 18000000 		.word	.LC3
 574 0080 20000000 		.word	.LC4
 575 0084 34000000 		.word	.LC5
 576 0088 7C000000 		.word	.LC6
 577 008c 90000000 		.word	.LC7
 578 0090 9C000000 		.word	.LC8
 579 0094 B0000000 		.word	.LC9
 580 0098 BC000000 		.word	.LC10
 581 009c D0000000 		.word	.LC11
 582 00a0 E8000000 		.word	.LC12
 583 00a4 FC000000 		.word	.LC13
 584 00a8 28010000 		.word	.LC14
 585 00ac 3C010000 		.word	.LC15
 586 00b0 60010000 		.word	.LC16
 587 00b4 9C010000 		.word	.LC20
 588 00b8 74010000 		.word	.LC17
 589 00bc 78010000 		.word	.LC18
 590 00c0 84010000 		.word	.LC19
 591              		.size	cmd_info, .-cmd_info
 592              		.section	.rodata
 593 01a5 000000   		.align	2
 594              	.LC21:
 595 01a8 73797374 		.ascii	"systime\000"
 595      696D6500 
 596              		.align	2
 597              	.LC22:
 598 01b0 256C750D 		.ascii	"%lu\015\012\000"
 598      0A00
 599              		.section	.text.cmd_systime,"ax",%progbits
 600              		.align	1
 601              		.syntax unified
 602              		.thumb
 603              		.thumb_func
 604              		.fpu fpv4-sp-d16
 605              		.type	cmd_systime, %function
 606              	cmd_systime:
 607              		@ args = 0, pretend = 0, frame = 16
 608              		@ frame_needed = 1, uses_anonymous_args = 0
 609 0000 80B5     		push	{r7, lr}
 610 0002 84B0     		sub	sp, sp, #16
 611 0004 00AF     		add	r7, sp, #0
 612 0006 F860     		str	r0, [r7, #12]
 613 0008 B960     		str	r1, [r7, #8]
 614 000a 7A60     		str	r2, [r7, #4]
 615 000c BB68     		ldr	r3, [r7, #8]
 616 000e 002B     		cmp	r3, #0
 617 0010 04DD     		ble	.L42
 618 0012 0849     		ldr	r1, .L44
ARM GAS  /var/folders/d2/nstgp4h54kz7g1l847x_b8wc0000gn/T//ccPmio4t.s 			page 13


 619 0014 F868     		ldr	r0, [r7, #12]
 620 0016 FFF7FEFF 		bl	usage
 621 001a 07E0     		b	.L41
 622              	.L42:
 623 001c FFF7FEFF 		bl	chVTGetSystemTime
 624 0020 0346     		mov	r3, r0
 625 0022 1A46     		mov	r2, r3
 626 0024 0449     		ldr	r1, .L44+4
 627 0026 F868     		ldr	r0, [r7, #12]
 628 0028 FFF7FEFF 		bl	chprintf
 629              	.L41:
 630 002c 1037     		adds	r7, r7, #16
 631 002e BD46     		mov	sp, r7
 632              		@ sp needed
 633 0030 80BD     		pop	{r7, pc}
 634              	.L45:
 635 0032 00BF     		.align	2
 636              	.L44:
 637 0034 A8010000 		.word	.LC21
 638 0038 B0010000 		.word	.LC22
 639              		.size	cmd_systime, .-cmd_systime
 640              		.section	.data.local_commands,"aw",%progbits
 641              		.align	2
 642              		.type	local_commands, %object
 643              		.size	local_commands, 24
 644              	local_commands:
 645 0000 10000000 		.word	.LC2
 646 0004 00000000 		.word	cmd_info
 647 0008 A8010000 		.word	.LC21
 648 000c 00000000 		.word	cmd_systime
 649 0010 00000000 		.word	0
 650 0014 00000000 		.word	0
 651              		.section	.text.cmdexec,"ax",%progbits
 652              		.align	1
 653              		.syntax unified
 654              		.thumb
 655              		.thumb_func
 656              		.fpu fpv4-sp-d16
 657              		.type	cmdexec, %function
 658              	cmdexec:
 659              		@ args = 4, pretend = 0, frame = 16
 660              		@ frame_needed = 1, uses_anonymous_args = 0
 661 0000 80B5     		push	{r7, lr}
 662 0002 84B0     		sub	sp, sp, #16
 663 0004 00AF     		add	r7, sp, #0
 664 0006 F860     		str	r0, [r7, #12]
 665 0008 B960     		str	r1, [r7, #8]
 666 000a 7A60     		str	r2, [r7, #4]
 667 000c 3B60     		str	r3, [r7]
 668 000e 13E0     		b	.L47
 669              	.L50:
 670 0010 FB68     		ldr	r3, [r7, #12]
 671 0012 1B68     		ldr	r3, [r3]
 672 0014 7968     		ldr	r1, [r7, #4]
 673 0016 1846     		mov	r0, r3
 674 0018 FFF7FEFF 		bl	strcasecmp
 675 001c 0346     		mov	r3, r0
ARM GAS  /var/folders/d2/nstgp4h54kz7g1l847x_b8wc0000gn/T//ccPmio4t.s 			page 14


 676 001e 002B     		cmp	r3, #0
 677 0020 07D1     		bne	.L48
 678 0022 FB68     		ldr	r3, [r7, #12]
 679 0024 5B68     		ldr	r3, [r3, #4]
 680 0026 BA69     		ldr	r2, [r7, #24]
 681 0028 3968     		ldr	r1, [r7]
 682 002a B868     		ldr	r0, [r7, #8]
 683 002c 9847     		blx	r3
 684 002e 0023     		movs	r3, #0
 685 0030 07E0     		b	.L49
 686              	.L48:
 687 0032 FB68     		ldr	r3, [r7, #12]
 688 0034 0833     		adds	r3, r3, #8
 689 0036 FB60     		str	r3, [r7, #12]
 690              	.L47:
 691 0038 FB68     		ldr	r3, [r7, #12]
 692 003a 1B68     		ldr	r3, [r3]
 693 003c 002B     		cmp	r3, #0
 694 003e E7D1     		bne	.L50
 695 0040 0123     		movs	r3, #1
 696              	.L49:
 697 0042 1846     		mov	r0, r3
 698 0044 1037     		adds	r7, r7, #16
 699 0046 BD46     		mov	sp, r7
 700              		@ sp needed
 701 0048 80BD     		pop	{r7, pc}
 702              		.size	cmdexec, .-cmdexec
 703              		.section	.rodata
 704 01b6 0000     		.align	2
 705              	.LC23:
 706 01b8 7368656C 		.ascii	"shell\000"
 706      6C00
 707 01be 0000     		.align	2
 708              	.LC24:
 709 01c0 0D0A4368 		.ascii	"\015\012ChibiOS/RT Shell\015\012\000"
 709      6962694F 
 709      532F5254 
 709      20536865 
 709      6C6C0D0A 
 710 01d5 000000   		.align	2
 711              	.LC25:
 712 01d8 63683E20 		.ascii	"ch> \000"
 712      00
 713 01dd 000000   		.align	2
 714              	.LC26:
 715 01e0 0D0A6C6F 		.ascii	"\015\012logout\000"
 715      676F7574 
 715      00
 716 01e9 000000   		.align	2
 717              	.LC27:
 718 01ec 200900   		.ascii	" \011\000"
 719 01ef 00       		.align	2
 720              	.LC28:
 721 01f0 746F6F20 		.ascii	"too many arguments\015\012\000"
 721      6D616E79 
 721      20617267 
 721      756D656E 
ARM GAS  /var/folders/d2/nstgp4h54kz7g1l847x_b8wc0000gn/T//ccPmio4t.s 			page 15


 721      74730D0A 
 722 0205 000000   		.align	2
 723              	.LC29:
 724 0208 65786974 		.ascii	"exit\000"
 724      00
 725 020d 000000   		.align	2
 726              	.LC30:
 727 0210 68656C70 		.ascii	"help\000"
 727      00
 728 0215 000000   		.align	2
 729              	.LC31:
 730 0218 436F6D6D 		.ascii	"Commands: help exit \000"
 730      616E6473 
 730      3A206865 
 730      6C702065 
 730      78697420 
 731 022d 000000   		.align	2
 732              	.LC32:
 733 0230 0D0A00   		.ascii	"\015\012\000"
 734 0233 00       		.align	2
 735              	.LC33:
 736 0234 257300   		.ascii	"%s\000"
 737 0237 00       		.align	2
 738              	.LC34:
 739 0238 203F0D0A 		.ascii	" ?\015\012\000"
 739      00
 740              		.section	.text.shell_thread,"ax",%progbits
 741              		.align	1
 742              		.syntax unified
 743              		.thumb
 744              		.thumb_func
 745              		.fpu fpv4-sp-d16
 746              		.type	shell_thread, %function
 747              	shell_thread:
 748              		@ args = 0, pretend = 0, frame = 120
 749              		@ frame_needed = 1, uses_anonymous_args = 0
 750 0000 80B5     		push	{r7, lr}
 751 0002 A0B0     		sub	sp, sp, #128
 752 0004 02AF     		add	r7, sp, #8
 753 0006 7860     		str	r0, [r7, #4]
 754 0008 7B68     		ldr	r3, [r7, #4]
 755 000a 1B68     		ldr	r3, [r3]
 756 000c FB66     		str	r3, [r7, #108]
 757 000e 7B68     		ldr	r3, [r7, #4]
 758 0010 5B68     		ldr	r3, [r3, #4]
 759 0012 BB66     		str	r3, [r7, #104]
 760 0014 5948     		ldr	r0, .L67
 761 0016 FFF7FEFF 		bl	chRegSetThreadName
 762 001a 5949     		ldr	r1, .L67+4
 763 001c F86E     		ldr	r0, [r7, #108]
 764 001e FFF7FEFF 		bl	chprintf
 765              	.L65:
 766 0022 5849     		ldr	r1, .L67+8
 767 0024 F86E     		ldr	r0, [r7, #108]
 768 0026 FFF7FEFF 		bl	chprintf
 769 002a 07F12003 		add	r3, r7, #32
 770 002e 4022     		movs	r2, #64
ARM GAS  /var/folders/d2/nstgp4h54kz7g1l847x_b8wc0000gn/T//ccPmio4t.s 			page 16


 771 0030 1946     		mov	r1, r3
 772 0032 F86E     		ldr	r0, [r7, #108]
 773 0034 FFF7FEFF 		bl	shellGetLine
 774 0038 0346     		mov	r3, r0
 775 003a 002B     		cmp	r3, #0
 776 003c 04D0     		beq	.L52
 777 003e 5249     		ldr	r1, .L67+12
 778 0040 F86E     		ldr	r0, [r7, #108]
 779 0042 FFF7FEFF 		bl	chprintf
 780 0046 91E0     		b	.L53
 781              	.L52:
 782 0048 07F16002 		add	r2, r7, #96
 783 004c 07F12003 		add	r3, r7, #32
 784 0050 4E49     		ldr	r1, .L67+16
 785 0052 1846     		mov	r0, r3
 786 0054 FFF7FEFF 		bl	_strtok
 787 0058 7866     		str	r0, [r7, #100]
 788 005a 7B6E     		ldr	r3, [r7, #100]
 789 005c 3B67     		str	r3, [r7, #112]
 790 005e 0023     		movs	r3, #0
 791 0060 7B67     		str	r3, [r7, #116]
 792 0062 13E0     		b	.L54
 793              	.L57:
 794 0064 7B6F     		ldr	r3, [r7, #116]
 795 0066 032B     		cmp	r3, #3
 796 0068 06DD     		ble	.L55
 797 006a 4949     		ldr	r1, .L67+20
 798 006c F86E     		ldr	r0, [r7, #108]
 799 006e FFF7FEFF 		bl	chprintf
 800 0072 0023     		movs	r3, #0
 801 0074 3B67     		str	r3, [r7, #112]
 802 0076 14E0     		b	.L56
 803              	.L55:
 804 0078 7B6F     		ldr	r3, [r7, #116]
 805 007a 5A1C     		adds	r2, r3, #1
 806 007c 7A67     		str	r2, [r7, #116]
 807 007e 9B00     		lsls	r3, r3, #2
 808 0080 07F17802 		add	r2, r7, #120
 809 0084 1344     		add	r3, r3, r2
 810 0086 7A6E     		ldr	r2, [r7, #100]
 811 0088 43F86C2C 		str	r2, [r3, #-108]
 812              	.L54:
 813 008c 07F16003 		add	r3, r7, #96
 814 0090 1A46     		mov	r2, r3
 815 0092 3E49     		ldr	r1, .L67+16
 816 0094 0020     		movs	r0, #0
 817 0096 FFF7FEFF 		bl	_strtok
 818 009a 7866     		str	r0, [r7, #100]
 819 009c 7B6E     		ldr	r3, [r7, #100]
 820 009e 002B     		cmp	r3, #0
 821 00a0 E0D1     		bne	.L57
 822              	.L56:
 823 00a2 7B6F     		ldr	r3, [r7, #116]
 824 00a4 9B00     		lsls	r3, r3, #2
 825 00a6 07F17802 		add	r2, r7, #120
 826 00aa 1344     		add	r3, r3, r2
 827 00ac 0022     		movs	r2, #0
ARM GAS  /var/folders/d2/nstgp4h54kz7g1l847x_b8wc0000gn/T//ccPmio4t.s 			page 17


 828 00ae 43F86C2C 		str	r2, [r3, #-108]
 829 00b2 3B6F     		ldr	r3, [r7, #112]
 830 00b4 002B     		cmp	r3, #0
 831 00b6 B4D0     		beq	.L65
 832 00b8 3649     		ldr	r1, .L67+24
 833 00ba 386F     		ldr	r0, [r7, #112]
 834 00bc FFF7FEFF 		bl	strcasecmp
 835 00c0 0346     		mov	r3, r0
 836 00c2 002B     		cmp	r3, #0
 837 00c4 07D1     		bne	.L59
 838 00c6 7B6F     		ldr	r3, [r7, #116]
 839 00c8 002B     		cmp	r3, #0
 840 00ca 4EDD     		ble	.L66
 841 00cc 3149     		ldr	r1, .L67+24
 842 00ce F86E     		ldr	r0, [r7, #108]
 843 00d0 FFF7FEFF 		bl	usage
 844 00d4 48E0     		b	.L58
 845              	.L59:
 846 00d6 3049     		ldr	r1, .L67+28
 847 00d8 386F     		ldr	r0, [r7, #112]
 848 00da FFF7FEFF 		bl	strcasecmp
 849 00de 0346     		mov	r3, r0
 850 00e0 002B     		cmp	r3, #0
 851 00e2 1BD1     		bne	.L61
 852 00e4 7B6F     		ldr	r3, [r7, #116]
 853 00e6 002B     		cmp	r3, #0
 854 00e8 04DD     		ble	.L62
 855 00ea 2B49     		ldr	r1, .L67+28
 856 00ec F86E     		ldr	r0, [r7, #108]
 857 00ee FFF7FEFF 		bl	usage
 858 00f2 39E0     		b	.L58
 859              	.L62:
 860 00f4 2949     		ldr	r1, .L67+32
 861 00f6 F86E     		ldr	r0, [r7, #108]
 862 00f8 FFF7FEFF 		bl	chprintf
 863 00fc 2849     		ldr	r1, .L67+36
 864 00fe F86E     		ldr	r0, [r7, #108]
 865 0100 FFF7FEFF 		bl	list_commands
 866 0104 BB6E     		ldr	r3, [r7, #104]
 867 0106 002B     		cmp	r3, #0
 868 0108 03D0     		beq	.L63
 869 010a B96E     		ldr	r1, [r7, #104]
 870 010c F86E     		ldr	r0, [r7, #108]
 871 010e FFF7FEFF 		bl	list_commands
 872              	.L63:
 873 0112 2449     		ldr	r1, .L67+40
 874 0114 F86E     		ldr	r0, [r7, #108]
 875 0116 FFF7FEFF 		bl	chprintf
 876 011a 82E7     		b	.L65
 877              	.L61:
 878 011c 07F10C03 		add	r3, r7, #12
 879 0120 0093     		str	r3, [sp]
 880 0122 7B6F     		ldr	r3, [r7, #116]
 881 0124 3A6F     		ldr	r2, [r7, #112]
 882 0126 F96E     		ldr	r1, [r7, #108]
 883 0128 1D48     		ldr	r0, .L67+36
 884 012a FFF7FEFF 		bl	cmdexec
ARM GAS  /var/folders/d2/nstgp4h54kz7g1l847x_b8wc0000gn/T//ccPmio4t.s 			page 18


 885 012e 0346     		mov	r3, r0
 886 0130 002B     		cmp	r3, #0
 887 0132 3FF476AF 		beq	.L65
 888 0136 BB6E     		ldr	r3, [r7, #104]
 889 0138 002B     		cmp	r3, #0
 890 013a 0CD0     		beq	.L64
 891 013c 07F10C03 		add	r3, r7, #12
 892 0140 0093     		str	r3, [sp]
 893 0142 7B6F     		ldr	r3, [r7, #116]
 894 0144 3A6F     		ldr	r2, [r7, #112]
 895 0146 F96E     		ldr	r1, [r7, #108]
 896 0148 B86E     		ldr	r0, [r7, #104]
 897 014a FFF7FEFF 		bl	cmdexec
 898 014e 0346     		mov	r3, r0
 899 0150 002B     		cmp	r3, #0
 900 0152 3FF466AF 		beq	.L65
 901              	.L64:
 902 0156 3A6F     		ldr	r2, [r7, #112]
 903 0158 1349     		ldr	r1, .L67+44
 904 015a F86E     		ldr	r0, [r7, #108]
 905 015c FFF7FEFF 		bl	chprintf
 906 0160 1249     		ldr	r1, .L67+48
 907 0162 F86E     		ldr	r0, [r7, #108]
 908 0164 FFF7FEFF 		bl	chprintf
 909              	.L58:
 910 0168 5BE7     		b	.L65
 911              	.L66:
 912 016a 00BF     		nop
 913              	.L53:
 914 016c 0020     		movs	r0, #0
 915 016e FFF7FEFF 		bl	shellExit
 916 0172 00BF     		nop
 917 0174 7837     		adds	r7, r7, #120
 918 0176 BD46     		mov	sp, r7
 919              		@ sp needed
 920 0178 80BD     		pop	{r7, pc}
 921              	.L68:
 922 017a 00BF     		.align	2
 923              	.L67:
 924 017c B8010000 		.word	.LC23
 925 0180 C0010000 		.word	.LC24
 926 0184 D8010000 		.word	.LC25
 927 0188 E0010000 		.word	.LC26
 928 018c EC010000 		.word	.LC27
 929 0190 F0010000 		.word	.LC28
 930 0194 08020000 		.word	.LC29
 931 0198 10020000 		.word	.LC30
 932 019c 18020000 		.word	.LC31
 933 01a0 00000000 		.word	local_commands
 934 01a4 30020000 		.word	.LC32
 935 01a8 34020000 		.word	.LC33
 936 01ac 38020000 		.word	.LC34
 937              		.size	shell_thread, .-shell_thread
 938              		.section	.text.shellInit,"ax",%progbits
 939              		.align	1
 940              		.global	shellInit
 941              		.syntax unified
ARM GAS  /var/folders/d2/nstgp4h54kz7g1l847x_b8wc0000gn/T//ccPmio4t.s 			page 19


 942              		.thumb
 943              		.thumb_func
 944              		.fpu fpv4-sp-d16
 945              		.type	shellInit, %function
 946              	shellInit:
 947              		@ args = 0, pretend = 0, frame = 0
 948              		@ frame_needed = 1, uses_anonymous_args = 0
 949 0000 80B5     		push	{r7, lr}
 950 0002 00AF     		add	r7, sp, #0
 951 0004 0248     		ldr	r0, .L70
 952 0006 FFF7FEFF 		bl	chEvtObjectInit
 953 000a 00BF     		nop
 954 000c 80BD     		pop	{r7, pc}
 955              	.L71:
 956 000e 00BF     		.align	2
 957              	.L70:
 958 0010 00000000 		.word	shell_terminated
 959              		.size	shellInit, .-shellInit
 960              		.section	.text.shellExit,"ax",%progbits
 961              		.align	1
 962              		.global	shellExit
 963              		.syntax unified
 964              		.thumb
 965              		.thumb_func
 966              		.fpu fpv4-sp-d16
 967              		.type	shellExit, %function
 968              	shellExit:
 969              		@ args = 0, pretend = 0, frame = 8
 970              		@ frame_needed = 1, uses_anonymous_args = 0
 971 0000 80B5     		push	{r7, lr}
 972 0002 82B0     		sub	sp, sp, #8
 973 0004 00AF     		add	r7, sp, #0
 974 0006 7860     		str	r0, [r7, #4]
 975 0008 FFF7FEFF 		bl	chSysLock
 976 000c 0448     		ldr	r0, .L73
 977 000e FFF7FEFF 		bl	chEvtBroadcastI
 978 0012 7868     		ldr	r0, [r7, #4]
 979 0014 FFF7FEFF 		bl	chThdExitS
 980 0018 00BF     		nop
 981 001a 0837     		adds	r7, r7, #8
 982 001c BD46     		mov	sp, r7
 983              		@ sp needed
 984 001e 80BD     		pop	{r7, pc}
 985              	.L74:
 986              		.align	2
 987              	.L73:
 988 0020 00000000 		.word	shell_terminated
 989              		.size	shellExit, .-shellExit
 990              		.section	.text.shellCreate,"ax",%progbits
 991              		.align	1
 992              		.global	shellCreate
 993              		.syntax unified
 994              		.thumb
 995              		.thumb_func
 996              		.fpu fpv4-sp-d16
 997              		.type	shellCreate, %function
 998              	shellCreate:
ARM GAS  /var/folders/d2/nstgp4h54kz7g1l847x_b8wc0000gn/T//ccPmio4t.s 			page 20


 999              		@ args = 0, pretend = 0, frame = 16
 1000              		@ frame_needed = 1, uses_anonymous_args = 0
 1001 0000 80B5     		push	{r7, lr}
 1002 0002 86B0     		sub	sp, sp, #24
 1003 0004 02AF     		add	r7, sp, #8
 1004 0006 F860     		str	r0, [r7, #12]
 1005 0008 B960     		str	r1, [r7, #8]
 1006 000a 7A60     		str	r2, [r7, #4]
 1007 000c FB68     		ldr	r3, [r7, #12]
 1008 000e 0093     		str	r3, [sp]
 1009 0010 054B     		ldr	r3, .L77
 1010 0012 7A68     		ldr	r2, [r7, #4]
 1011 0014 B968     		ldr	r1, [r7, #8]
 1012 0016 0020     		movs	r0, #0
 1013 0018 FFF7FEFF 		bl	chThdCreateFromHeap
 1014 001c 0346     		mov	r3, r0
 1015 001e 1846     		mov	r0, r3
 1016 0020 1037     		adds	r7, r7, #16
 1017 0022 BD46     		mov	sp, r7
 1018              		@ sp needed
 1019 0024 80BD     		pop	{r7, pc}
 1020              	.L78:
 1021 0026 00BF     		.align	2
 1022              	.L77:
 1023 0028 00000000 		.word	shell_thread
 1024              		.size	shellCreate, .-shellCreate
 1025              		.section	.text.shellCreateStatic,"ax",%progbits
 1026              		.align	1
 1027              		.global	shellCreateStatic
 1028              		.syntax unified
 1029              		.thumb
 1030              		.thumb_func
 1031              		.fpu fpv4-sp-d16
 1032              		.type	shellCreateStatic, %function
 1033              	shellCreateStatic:
 1034              		@ args = 0, pretend = 0, frame = 16
 1035              		@ frame_needed = 1, uses_anonymous_args = 0
 1036 0000 80B5     		push	{r7, lr}
 1037 0002 86B0     		sub	sp, sp, #24
 1038 0004 02AF     		add	r7, sp, #8
 1039 0006 F860     		str	r0, [r7, #12]
 1040 0008 B960     		str	r1, [r7, #8]
 1041 000a 7A60     		str	r2, [r7, #4]
 1042 000c 3B60     		str	r3, [r7]
 1043 000e FB68     		ldr	r3, [r7, #12]
 1044 0010 0093     		str	r3, [sp]
 1045 0012 054B     		ldr	r3, .L81
 1046 0014 3A68     		ldr	r2, [r7]
 1047 0016 7968     		ldr	r1, [r7, #4]
 1048 0018 B868     		ldr	r0, [r7, #8]
 1049 001a FFF7FEFF 		bl	chThdCreateStatic
 1050 001e 0346     		mov	r3, r0
 1051 0020 1846     		mov	r0, r3
 1052 0022 1037     		adds	r7, r7, #16
 1053 0024 BD46     		mov	sp, r7
 1054              		@ sp needed
 1055 0026 80BD     		pop	{r7, pc}
ARM GAS  /var/folders/d2/nstgp4h54kz7g1l847x_b8wc0000gn/T//ccPmio4t.s 			page 21


 1056              	.L82:
 1057              		.align	2
 1058              	.L81:
 1059 0028 00000000 		.word	shell_thread
 1060              		.size	shellCreateStatic, .-shellCreateStatic
 1061              		.section	.rodata
 1062 023d 000000   		.align	2
 1063              	.LC35:
 1064 0240 5E4400   		.ascii	"^D\000"
 1065              		.section	.text.shellGetLine,"ax",%progbits
 1066              		.align	1
 1067              		.global	shellGetLine
 1068              		.syntax unified
 1069              		.thumb
 1070              		.thumb_func
 1071              		.fpu fpv4-sp-d16
 1072              		.type	shellGetLine, %function
 1073              	shellGetLine:
 1074              		@ args = 0, pretend = 0, frame = 24
 1075              		@ frame_needed = 1, uses_anonymous_args = 0
 1076 0000 80B5     		push	{r7, lr}
 1077 0002 86B0     		sub	sp, sp, #24
 1078 0004 00AF     		add	r7, sp, #0
 1079 0006 F860     		str	r0, [r7, #12]
 1080 0008 B960     		str	r1, [r7, #8]
 1081 000a 7A60     		str	r2, [r7, #4]
 1082 000c BB68     		ldr	r3, [r7, #8]
 1083 000e 7B61     		str	r3, [r7, #20]
 1084              	.L96:
 1085 0010 FB68     		ldr	r3, [r7, #12]
 1086 0012 1B68     		ldr	r3, [r3]
 1087 0014 5B68     		ldr	r3, [r3, #4]
 1088 0016 07F11301 		add	r1, r7, #19
 1089 001a 0122     		movs	r2, #1
 1090 001c F868     		ldr	r0, [r7, #12]
 1091 001e 9847     		blx	r3
 1092 0020 0346     		mov	r3, r0
 1093 0022 002B     		cmp	r3, #0
 1094 0024 01D1     		bne	.L84
 1095 0026 0123     		movs	r3, #1
 1096 0028 51E0     		b	.L95
 1097              	.L84:
 1098 002a FB7C     		ldrb	r3, [r7, #19]	@ zero_extendqisi2
 1099 002c 042B     		cmp	r3, #4
 1100 002e 05D1     		bne	.L86
 1101 0030 2949     		ldr	r1, .L99
 1102 0032 F868     		ldr	r0, [r7, #12]
 1103 0034 FFF7FEFF 		bl	chprintf
 1104 0038 0123     		movs	r3, #1
 1105 003a 48E0     		b	.L95
 1106              	.L86:
 1107 003c FB7C     		ldrb	r3, [r7, #19]	@ zero_extendqisi2
 1108 003e 082B     		cmp	r3, #8
 1109 0040 02D0     		beq	.L87
 1110 0042 FB7C     		ldrb	r3, [r7, #19]	@ zero_extendqisi2
 1111 0044 7F2B     		cmp	r3, #127
 1112 0046 1BD1     		bne	.L88
ARM GAS  /var/folders/d2/nstgp4h54kz7g1l847x_b8wc0000gn/T//ccPmio4t.s 			page 22


 1113              	.L87:
 1114 0048 7A69     		ldr	r2, [r7, #20]
 1115 004a BB68     		ldr	r3, [r7, #8]
 1116 004c 9A42     		cmp	r2, r3
 1117 004e 3AD0     		beq	.L97
 1118 0050 FB68     		ldr	r3, [r7, #12]
 1119 0052 1B68     		ldr	r3, [r3]
 1120 0054 9B68     		ldr	r3, [r3, #8]
 1121 0056 FA7C     		ldrb	r2, [r7, #19]	@ zero_extendqisi2
 1122 0058 1146     		mov	r1, r2
 1123 005a F868     		ldr	r0, [r7, #12]
 1124 005c 9847     		blx	r3
 1125 005e FB68     		ldr	r3, [r7, #12]
 1126 0060 1B68     		ldr	r3, [r3]
 1127 0062 9B68     		ldr	r3, [r3, #8]
 1128 0064 2021     		movs	r1, #32
 1129 0066 F868     		ldr	r0, [r7, #12]
 1130 0068 9847     		blx	r3
 1131 006a FB68     		ldr	r3, [r7, #12]
 1132 006c 1B68     		ldr	r3, [r3]
 1133 006e 9B68     		ldr	r3, [r3, #8]
 1134 0070 FA7C     		ldrb	r2, [r7, #19]	@ zero_extendqisi2
 1135 0072 1146     		mov	r1, r2
 1136 0074 F868     		ldr	r0, [r7, #12]
 1137 0076 9847     		blx	r3
 1138 0078 7B69     		ldr	r3, [r7, #20]
 1139 007a 013B     		subs	r3, r3, #1
 1140 007c 7B61     		str	r3, [r7, #20]
 1141 007e 22E0     		b	.L97
 1142              	.L88:
 1143 0080 FB7C     		ldrb	r3, [r7, #19]	@ zero_extendqisi2
 1144 0082 0D2B     		cmp	r3, #13
 1145 0084 08D1     		bne	.L91
 1146 0086 1549     		ldr	r1, .L99+4
 1147 0088 F868     		ldr	r0, [r7, #12]
 1148 008a FFF7FEFF 		bl	chprintf
 1149 008e 7B69     		ldr	r3, [r7, #20]
 1150 0090 0022     		movs	r2, #0
 1151 0092 1A70     		strb	r2, [r3]
 1152 0094 0023     		movs	r3, #0
 1153 0096 1AE0     		b	.L95
 1154              	.L91:
 1155 0098 FB7C     		ldrb	r3, [r7, #19]	@ zero_extendqisi2
 1156 009a 1F2B     		cmp	r3, #31
 1157 009c 15D9     		bls	.L98
 1158 009e 7B68     		ldr	r3, [r7, #4]
 1159 00a0 013B     		subs	r3, r3, #1
 1160 00a2 BA68     		ldr	r2, [r7, #8]
 1161 00a4 1344     		add	r3, r3, r2
 1162 00a6 7A69     		ldr	r2, [r7, #20]
 1163 00a8 9A42     		cmp	r2, r3
 1164 00aa B1D2     		bcs	.L96
 1165 00ac FB68     		ldr	r3, [r7, #12]
 1166 00ae 1B68     		ldr	r3, [r3]
 1167 00b0 9B68     		ldr	r3, [r3, #8]
 1168 00b2 FA7C     		ldrb	r2, [r7, #19]	@ zero_extendqisi2
 1169 00b4 1146     		mov	r1, r2
ARM GAS  /var/folders/d2/nstgp4h54kz7g1l847x_b8wc0000gn/T//ccPmio4t.s 			page 23


 1170 00b6 F868     		ldr	r0, [r7, #12]
 1171 00b8 9847     		blx	r3
 1172 00ba 7B69     		ldr	r3, [r7, #20]
 1173 00bc 5A1C     		adds	r2, r3, #1
 1174 00be 7A61     		str	r2, [r7, #20]
 1175 00c0 FA7C     		ldrb	r2, [r7, #19]	@ zero_extendqisi2
 1176 00c2 1A70     		strb	r2, [r3]
 1177 00c4 A4E7     		b	.L96
 1178              	.L97:
 1179 00c6 00BF     		nop
 1180 00c8 A2E7     		b	.L96
 1181              	.L98:
 1182 00ca 00BF     		nop
 1183 00cc A0E7     		b	.L96
 1184              	.L95:
 1185 00ce 1846     		mov	r0, r3
 1186 00d0 1837     		adds	r7, r7, #24
 1187 00d2 BD46     		mov	sp, r7
 1188              		@ sp needed
 1189 00d4 80BD     		pop	{r7, pc}
 1190              	.L100:
 1191 00d6 00BF     		.align	2
 1192              	.L99:
 1193 00d8 40020000 		.word	.LC35
 1194 00dc 30020000 		.word	.LC32
 1195              		.size	shellGetLine, .-shellGetLine
 1196              		.section	.rodata.__func__.7554,"a",%progbits
 1197              		.align	2
 1198              		.type	__func__.7554, %object
 1199              		.size	__func__.7554, 12
 1200              	__func__.7554:
 1201 0000 63685379 		.ascii	"chSysUnlock\000"
 1201      73556E6C 
 1201      6F636B00 
 1202              		.ident	"GCC: (GNU Tools for Arm Embedded Processors 7-2017-q4-major) 7.2.1 20170904 (release) [ARM
ARM GAS  /var/folders/d2/nstgp4h54kz7g1l847x_b8wc0000gn/T//ccPmio4t.s 			page 24


DEFINED SYMBOLS
                            *ABS*:0000000000000000 shell.c
/var/folders/d2/nstgp4h54kz7g1l847x_b8wc0000gn/T//ccPmio4t.s:15     .text.port_lock:0000000000000000 $t
/var/folders/d2/nstgp4h54kz7g1l847x_b8wc0000gn/T//ccPmio4t.s:21     .text.port_lock:0000000000000000 port_lock
/var/folders/d2/nstgp4h54kz7g1l847x_b8wc0000gn/T//ccPmio4t.s:45     .text.port_unlock:0000000000000000 $t
/var/folders/d2/nstgp4h54kz7g1l847x_b8wc0000gn/T//ccPmio4t.s:51     .text.port_unlock:0000000000000000 port_unlock
/var/folders/d2/nstgp4h54kz7g1l847x_b8wc0000gn/T//ccPmio4t.s:75     .text.chSysLock:0000000000000000 $t
/var/folders/d2/nstgp4h54kz7g1l847x_b8wc0000gn/T//ccPmio4t.s:81     .text.chSysLock:0000000000000000 chSysLock
/var/folders/d2/nstgp4h54kz7g1l847x_b8wc0000gn/T//ccPmio4t.s:93     .text.chSysUnlock:0000000000000000 $t
/var/folders/d2/nstgp4h54kz7g1l847x_b8wc0000gn/T//ccPmio4t.s:99     .text.chSysUnlock:0000000000000000 chSysUnlock
/var/folders/d2/nstgp4h54kz7g1l847x_b8wc0000gn/T//ccPmio4t.s:128    .text.chSysUnlock:0000000000000034 $d
/var/folders/d2/nstgp4h54kz7g1l847x_b8wc0000gn/T//ccPmio4t.s:1200   .rodata.__func__.7554:0000000000000000 __func__.7554
/var/folders/d2/nstgp4h54kz7g1l847x_b8wc0000gn/T//ccPmio4t.s:132    .text.chVTGetSystemTimeX:0000000000000000 $t
/var/folders/d2/nstgp4h54kz7g1l847x_b8wc0000gn/T//ccPmio4t.s:138    .text.chVTGetSystemTimeX:0000000000000000 chVTGetSystemTimeX
/var/folders/d2/nstgp4h54kz7g1l847x_b8wc0000gn/T//ccPmio4t.s:154    .text.chVTGetSystemTimeX:0000000000000014 $d
/var/folders/d2/nstgp4h54kz7g1l847x_b8wc0000gn/T//ccPmio4t.s:157    .text.chVTGetSystemTime:0000000000000000 $t
/var/folders/d2/nstgp4h54kz7g1l847x_b8wc0000gn/T//ccPmio4t.s:163    .text.chVTGetSystemTime:0000000000000000 chVTGetSystemTime
/var/folders/d2/nstgp4h54kz7g1l847x_b8wc0000gn/T//ccPmio4t.s:181    .text.chRegSetThreadName:0000000000000000 $t
/var/folders/d2/nstgp4h54kz7g1l847x_b8wc0000gn/T//ccPmio4t.s:187    .text.chRegSetThreadName:0000000000000000 chRegSetThreadName
/var/folders/d2/nstgp4h54kz7g1l847x_b8wc0000gn/T//ccPmio4t.s:208    .text.chRegSetThreadName:000000000000001c $d
/var/folders/d2/nstgp4h54kz7g1l847x_b8wc0000gn/T//ccPmio4t.s:211    .text.chEvtObjectInit:0000000000000000 $t
/var/folders/d2/nstgp4h54kz7g1l847x_b8wc0000gn/T//ccPmio4t.s:217    .text.chEvtObjectInit:0000000000000000 chEvtObjectInit
/var/folders/d2/nstgp4h54kz7g1l847x_b8wc0000gn/T//ccPmio4t.s:236    .text.chEvtBroadcastI:0000000000000000 $t
/var/folders/d2/nstgp4h54kz7g1l847x_b8wc0000gn/T//ccPmio4t.s:242    .text.chEvtBroadcastI:0000000000000000 chEvtBroadcastI
/var/folders/d2/nstgp4h54kz7g1l847x_b8wc0000gn/T//ccPmio4t.s:259    .text.chprintf:0000000000000000 $t
/var/folders/d2/nstgp4h54kz7g1l847x_b8wc0000gn/T//ccPmio4t.s:265    .text.chprintf:0000000000000000 chprintf
/var/folders/d2/nstgp4h54kz7g1l847x_b8wc0000gn/T//ccPmio4t.s:294    .bss.shell_terminated:0000000000000000 shell_terminated
/var/folders/d2/nstgp4h54kz7g1l847x_b8wc0000gn/T//ccPmio4t.s:291    .bss.shell_terminated:0000000000000000 $d
/var/folders/d2/nstgp4h54kz7g1l847x_b8wc0000gn/T//ccPmio4t.s:297    .text._strtok:0000000000000000 $t
/var/folders/d2/nstgp4h54kz7g1l847x_b8wc0000gn/T//ccPmio4t.s:303    .text._strtok:0000000000000000 _strtok
/var/folders/d2/nstgp4h54kz7g1l847x_b8wc0000gn/T//ccPmio4t.s:369    .rodata:0000000000000000 $d
/var/folders/d2/nstgp4h54kz7g1l847x_b8wc0000gn/T//ccPmio4t.s:373    .text.usage:0000000000000000 $t
/var/folders/d2/nstgp4h54kz7g1l847x_b8wc0000gn/T//ccPmio4t.s:379    .text.usage:0000000000000000 usage
/var/folders/d2/nstgp4h54kz7g1l847x_b8wc0000gn/T//ccPmio4t.s:399    .text.usage:000000000000001c $d
/var/folders/d2/nstgp4h54kz7g1l847x_b8wc0000gn/T//ccPmio4t.s:406    .text.list_commands:0000000000000000 $t
/var/folders/d2/nstgp4h54kz7g1l847x_b8wc0000gn/T//ccPmio4t.s:412    .text.list_commands:0000000000000000 list_commands
/var/folders/d2/nstgp4h54kz7g1l847x_b8wc0000gn/T//ccPmio4t.s:444    .text.list_commands:0000000000000030 $d
/var/folders/d2/nstgp4h54kz7g1l847x_b8wc0000gn/T//ccPmio4t.s:506    .text.cmd_info:0000000000000000 $t
/var/folders/d2/nstgp4h54kz7g1l847x_b8wc0000gn/T//ccPmio4t.s:512    .text.cmd_info:0000000000000000 cmd_info
/var/folders/d2/nstgp4h54kz7g1l847x_b8wc0000gn/T//ccPmio4t.s:572    .text.cmd_info:0000000000000078 $d
/var/folders/d2/nstgp4h54kz7g1l847x_b8wc0000gn/T//ccPmio4t.s:600    .text.cmd_systime:0000000000000000 $t
/var/folders/d2/nstgp4h54kz7g1l847x_b8wc0000gn/T//ccPmio4t.s:606    .text.cmd_systime:0000000000000000 cmd_systime
/var/folders/d2/nstgp4h54kz7g1l847x_b8wc0000gn/T//ccPmio4t.s:637    .text.cmd_systime:0000000000000034 $d
/var/folders/d2/nstgp4h54kz7g1l847x_b8wc0000gn/T//ccPmio4t.s:641    .data.local_commands:0000000000000000 $d
/var/folders/d2/nstgp4h54kz7g1l847x_b8wc0000gn/T//ccPmio4t.s:644    .data.local_commands:0000000000000000 local_commands
/var/folders/d2/nstgp4h54kz7g1l847x_b8wc0000gn/T//ccPmio4t.s:652    .text.cmdexec:0000000000000000 $t
/var/folders/d2/nstgp4h54kz7g1l847x_b8wc0000gn/T//ccPmio4t.s:658    .text.cmdexec:0000000000000000 cmdexec
/var/folders/d2/nstgp4h54kz7g1l847x_b8wc0000gn/T//ccPmio4t.s:741    .text.shell_thread:0000000000000000 $t
/var/folders/d2/nstgp4h54kz7g1l847x_b8wc0000gn/T//ccPmio4t.s:747    .text.shell_thread:0000000000000000 shell_thread
/var/folders/d2/nstgp4h54kz7g1l847x_b8wc0000gn/T//ccPmio4t.s:1073   .text.shellGetLine:0000000000000000 shellGetLine
/var/folders/d2/nstgp4h54kz7g1l847x_b8wc0000gn/T//ccPmio4t.s:968    .text.shellExit:0000000000000000 shellExit
/var/folders/d2/nstgp4h54kz7g1l847x_b8wc0000gn/T//ccPmio4t.s:924    .text.shell_thread:000000000000017c $d
/var/folders/d2/nstgp4h54kz7g1l847x_b8wc0000gn/T//ccPmio4t.s:939    .text.shellInit:0000000000000000 $t
/var/folders/d2/nstgp4h54kz7g1l847x_b8wc0000gn/T//ccPmio4t.s:946    .text.shellInit:0000000000000000 shellInit
/var/folders/d2/nstgp4h54kz7g1l847x_b8wc0000gn/T//ccPmio4t.s:958    .text.shellInit:0000000000000010 $d
/var/folders/d2/nstgp4h54kz7g1l847x_b8wc0000gn/T//ccPmio4t.s:961    .text.shellExit:0000000000000000 $t
/var/folders/d2/nstgp4h54kz7g1l847x_b8wc0000gn/T//ccPmio4t.s:988    .text.shellExit:0000000000000020 $d
ARM GAS  /var/folders/d2/nstgp4h54kz7g1l847x_b8wc0000gn/T//ccPmio4t.s 			page 25


/var/folders/d2/nstgp4h54kz7g1l847x_b8wc0000gn/T//ccPmio4t.s:991    .text.shellCreate:0000000000000000 $t
/var/folders/d2/nstgp4h54kz7g1l847x_b8wc0000gn/T//ccPmio4t.s:998    .text.shellCreate:0000000000000000 shellCreate
/var/folders/d2/nstgp4h54kz7g1l847x_b8wc0000gn/T//ccPmio4t.s:1023   .text.shellCreate:0000000000000028 $d
/var/folders/d2/nstgp4h54kz7g1l847x_b8wc0000gn/T//ccPmio4t.s:1026   .text.shellCreateStatic:0000000000000000 $t
/var/folders/d2/nstgp4h54kz7g1l847x_b8wc0000gn/T//ccPmio4t.s:1033   .text.shellCreateStatic:0000000000000000 shellCreateStatic
/var/folders/d2/nstgp4h54kz7g1l847x_b8wc0000gn/T//ccPmio4t.s:1059   .text.shellCreateStatic:0000000000000028 $d
/var/folders/d2/nstgp4h54kz7g1l847x_b8wc0000gn/T//ccPmio4t.s:1066   .text.shellGetLine:0000000000000000 $t
/var/folders/d2/nstgp4h54kz7g1l847x_b8wc0000gn/T//ccPmio4t.s:1193   .text.shellGetLine:00000000000000d8 $d
/var/folders/d2/nstgp4h54kz7g1l847x_b8wc0000gn/T//ccPmio4t.s:1197   .rodata.__func__.7554:0000000000000000 $d

UNDEFINED SYMBOLS
_stats_start_measure_crit_thd
_dbg_check_lock
_dbg_check_unlock
_stats_stop_measure_crit_thd
chSysHalt
ch
chEvtBroadcastFlagsI
chvprintf
strspn
strpbrk
strcasecmp
chThdExitS
chThdCreateFromHeap
chThdCreateStatic
