ARM GAS  /var/folders/d2/nstgp4h54kz7g1l847x_b8wc0000gn/T//cc2TsnSH.s 			page 1


   1              		.cpu cortex-m4
   2              		.eabi_attribute 27, 1
   3              		.eabi_attribute 28, 1
   4              		.eabi_attribute 20, 1
   5              		.eabi_attribute 21, 1
   6              		.eabi_attribute 23, 3
   7              		.eabi_attribute 24, 1
   8              		.eabi_attribute 25, 1
   9              		.eabi_attribute 26, 1
  10              		.eabi_attribute 30, 6
  11              		.eabi_attribute 34, 1
  12              		.eabi_attribute 18, 4
  13              		.file	"spi3_slave.c"
  14              		.section	.text.port_lock,"ax",%progbits
  15              		.align	1
  16              		.syntax unified
  17              		.thumb
  18              		.thumb_func
  19              		.fpu fpv4-sp-d16
  20              		.type	port_lock, %function
  21              	port_lock:
  22              		@ args = 0, pretend = 0, frame = 8
  23              		@ frame_needed = 1, uses_anonymous_args = 0
  24              		@ link register save eliminated.
  25 0000 80B4     		push	{r7}
  26 0002 83B0     		sub	sp, sp, #12
  27 0004 00AF     		add	r7, sp, #0
  28 0006 2023     		movs	r3, #32
  29 0008 7B60     		str	r3, [r7, #4]
  30 000a 7B68     		ldr	r3, [r7, #4]
  31              		.syntax unified
  32              	@ 546 "../e-puck2_main-processor/ChibiOS//os/ext/CMSIS/include/core_cmFunc.h" 1
  33 000c 83F31188 		MSR basepri, r3
  34              	@ 0 "" 2
  35              		.thumb
  36              		.syntax unified
  37 0010 00BF     		nop
  38 0012 0C37     		adds	r7, r7, #12
  39 0014 BD46     		mov	sp, r7
  40              		@ sp needed
  41 0016 5DF8047B 		ldr	r7, [sp], #4
  42 001a 7047     		bx	lr
  43              		.size	port_lock, .-port_lock
  44              		.section	.text.port_unlock,"ax",%progbits
  45              		.align	1
  46              		.syntax unified
  47              		.thumb
  48              		.thumb_func
  49              		.fpu fpv4-sp-d16
  50              		.type	port_unlock, %function
  51              	port_unlock:
  52              		@ args = 0, pretend = 0, frame = 8
  53              		@ frame_needed = 1, uses_anonymous_args = 0
  54              		@ link register save eliminated.
  55 0000 80B4     		push	{r7}
  56 0002 83B0     		sub	sp, sp, #12
  57 0004 00AF     		add	r7, sp, #0
ARM GAS  /var/folders/d2/nstgp4h54kz7g1l847x_b8wc0000gn/T//cc2TsnSH.s 			page 2


  58 0006 0023     		movs	r3, #0
  59 0008 7B60     		str	r3, [r7, #4]
  60 000a 7B68     		ldr	r3, [r7, #4]
  61              		.syntax unified
  62              	@ 546 "../e-puck2_main-processor/ChibiOS//os/ext/CMSIS/include/core_cmFunc.h" 1
  63 000c 83F31188 		MSR basepri, r3
  64              	@ 0 "" 2
  65              		.thumb
  66              		.syntax unified
  67 0010 00BF     		nop
  68 0012 0C37     		adds	r7, r7, #12
  69 0014 BD46     		mov	sp, r7
  70              		@ sp needed
  71 0016 5DF8047B 		ldr	r7, [sp], #4
  72 001a 7047     		bx	lr
  73              		.size	port_unlock, .-port_unlock
  74              		.section	.text.chSysLock,"ax",%progbits
  75              		.align	1
  76              		.syntax unified
  77              		.thumb
  78              		.thumb_func
  79              		.fpu fpv4-sp-d16
  80              		.type	chSysLock, %function
  81              	chSysLock:
  82              		@ args = 0, pretend = 0, frame = 0
  83              		@ frame_needed = 1, uses_anonymous_args = 0
  84 0000 80B5     		push	{r7, lr}
  85 0002 00AF     		add	r7, sp, #0
  86 0004 FFF7FEFF 		bl	port_lock
  87 0008 FFF7FEFF 		bl	_stats_start_measure_crit_thd
  88 000c FFF7FEFF 		bl	_dbg_check_lock
  89 0010 00BF     		nop
  90 0012 80BD     		pop	{r7, pc}
  91              		.size	chSysLock, .-chSysLock
  92              		.section	.text.chSysUnlock,"ax",%progbits
  93              		.align	1
  94              		.syntax unified
  95              		.thumb
  96              		.thumb_func
  97              		.fpu fpv4-sp-d16
  98              		.type	chSysUnlock, %function
  99              	chSysUnlock:
 100              		@ args = 0, pretend = 0, frame = 0
 101              		@ frame_needed = 1, uses_anonymous_args = 0
 102 0000 80B5     		push	{r7, lr}
 103 0002 00AF     		add	r7, sp, #0
 104 0004 FFF7FEFF 		bl	_dbg_check_unlock
 105 0008 FFF7FEFF 		bl	_stats_stop_measure_crit_thd
 106 000c 094B     		ldr	r3, .L6
 107 000e 1B68     		ldr	r3, [r3]
 108 0010 084A     		ldr	r2, .L6
 109 0012 9342     		cmp	r3, r2
 110 0014 0AD0     		beq	.L5
 111 0016 074B     		ldr	r3, .L6
 112 0018 9B69     		ldr	r3, [r3, #24]
 113 001a 9A68     		ldr	r2, [r3, #8]
 114 001c 054B     		ldr	r3, .L6
ARM GAS  /var/folders/d2/nstgp4h54kz7g1l847x_b8wc0000gn/T//cc2TsnSH.s 			page 3


 115 001e 1B68     		ldr	r3, [r3]
 116 0020 9B68     		ldr	r3, [r3, #8]
 117 0022 9A42     		cmp	r2, r3
 118 0024 02D2     		bcs	.L5
 119 0026 0448     		ldr	r0, .L6+4
 120 0028 FFF7FEFF 		bl	chSysHalt
 121              	.L5:
 122 002c FFF7FEFF 		bl	port_unlock
 123 0030 00BF     		nop
 124 0032 80BD     		pop	{r7, pc}
 125              	.L7:
 126              		.align	2
 127              	.L6:
 128 0034 00000000 		.word	ch
 129 0038 00000000 		.word	__func__.7153
 130              		.size	chSysUnlock, .-chSysUnlock
 131              		.section	.text.osalSysLock,"ax",%progbits
 132              		.align	1
 133              		.syntax unified
 134              		.thumb
 135              		.thumb_func
 136              		.fpu fpv4-sp-d16
 137              		.type	osalSysLock, %function
 138              	osalSysLock:
 139              		@ args = 0, pretend = 0, frame = 0
 140              		@ frame_needed = 1, uses_anonymous_args = 0
 141 0000 80B5     		push	{r7, lr}
 142 0002 00AF     		add	r7, sp, #0
 143 0004 FFF7FEFF 		bl	chSysLock
 144 0008 00BF     		nop
 145 000a 80BD     		pop	{r7, pc}
 146              		.size	osalSysLock, .-osalSysLock
 147              		.section	.text.osalSysUnlock,"ax",%progbits
 148              		.align	1
 149              		.syntax unified
 150              		.thumb
 151              		.thumb_func
 152              		.fpu fpv4-sp-d16
 153              		.type	osalSysUnlock, %function
 154              	osalSysUnlock:
 155              		@ args = 0, pretend = 0, frame = 0
 156              		@ frame_needed = 1, uses_anonymous_args = 0
 157 0000 80B5     		push	{r7, lr}
 158 0002 00AF     		add	r7, sp, #0
 159 0004 FFF7FEFF 		bl	chSysUnlock
 160 0008 00BF     		nop
 161 000a 80BD     		pop	{r7, pc}
 162              		.size	osalSysUnlock, .-osalSysUnlock
 163              		.section	.text.osalThreadSuspendS,"ax",%progbits
 164              		.align	1
 165              		.syntax unified
 166              		.thumb
 167              		.thumb_func
 168              		.fpu fpv4-sp-d16
 169              		.type	osalThreadSuspendS, %function
 170              	osalThreadSuspendS:
 171              		@ args = 0, pretend = 0, frame = 8
ARM GAS  /var/folders/d2/nstgp4h54kz7g1l847x_b8wc0000gn/T//cc2TsnSH.s 			page 4


 172              		@ frame_needed = 1, uses_anonymous_args = 0
 173 0000 80B5     		push	{r7, lr}
 174 0002 82B0     		sub	sp, sp, #8
 175 0004 00AF     		add	r7, sp, #0
 176 0006 7860     		str	r0, [r7, #4]
 177 0008 7868     		ldr	r0, [r7, #4]
 178 000a FFF7FEFF 		bl	chThdSuspendS
 179 000e 0346     		mov	r3, r0
 180 0010 1846     		mov	r0, r3
 181 0012 0837     		adds	r7, r7, #8
 182 0014 BD46     		mov	sp, r7
 183              		@ sp needed
 184 0016 80BD     		pop	{r7, pc}
 185              		.size	osalThreadSuspendS, .-osalThreadSuspendS
 186              		.section	.text.osalMutexObjectInit,"ax",%progbits
 187              		.align	1
 188              		.syntax unified
 189              		.thumb
 190              		.thumb_func
 191              		.fpu fpv4-sp-d16
 192              		.type	osalMutexObjectInit, %function
 193              	osalMutexObjectInit:
 194              		@ args = 0, pretend = 0, frame = 8
 195              		@ frame_needed = 1, uses_anonymous_args = 0
 196 0000 80B5     		push	{r7, lr}
 197 0002 82B0     		sub	sp, sp, #8
 198 0004 00AF     		add	r7, sp, #0
 199 0006 7860     		str	r0, [r7, #4]
 200 0008 7868     		ldr	r0, [r7, #4]
 201 000a FFF7FEFF 		bl	chMtxObjectInit
 202 000e 00BF     		nop
 203 0010 0837     		adds	r7, r7, #8
 204 0012 BD46     		mov	sp, r7
 205              		@ sp needed
 206 0014 80BD     		pop	{r7, pc}
 207              		.size	osalMutexObjectInit, .-osalMutexObjectInit
 208              		.section	.text.osalMutexLock,"ax",%progbits
 209              		.align	1
 210              		.syntax unified
 211              		.thumb
 212              		.thumb_func
 213              		.fpu fpv4-sp-d16
 214              		.type	osalMutexLock, %function
 215              	osalMutexLock:
 216              		@ args = 0, pretend = 0, frame = 8
 217              		@ frame_needed = 1, uses_anonymous_args = 0
 218 0000 80B5     		push	{r7, lr}
 219 0002 82B0     		sub	sp, sp, #8
 220 0004 00AF     		add	r7, sp, #0
 221 0006 7860     		str	r0, [r7, #4]
 222 0008 7868     		ldr	r0, [r7, #4]
 223 000a FFF7FEFF 		bl	chMtxLock
 224 000e 00BF     		nop
 225 0010 0837     		adds	r7, r7, #8
 226 0012 BD46     		mov	sp, r7
 227              		@ sp needed
 228 0014 80BD     		pop	{r7, pc}
ARM GAS  /var/folders/d2/nstgp4h54kz7g1l847x_b8wc0000gn/T//cc2TsnSH.s 			page 5


 229              		.size	osalMutexLock, .-osalMutexLock
 230              		.section	.text.osalMutexUnlock,"ax",%progbits
 231              		.align	1
 232              		.syntax unified
 233              		.thumb
 234              		.thumb_func
 235              		.fpu fpv4-sp-d16
 236              		.type	osalMutexUnlock, %function
 237              	osalMutexUnlock:
 238              		@ args = 0, pretend = 0, frame = 8
 239              		@ frame_needed = 1, uses_anonymous_args = 0
 240 0000 80B5     		push	{r7, lr}
 241 0002 82B0     		sub	sp, sp, #8
 242 0004 00AF     		add	r7, sp, #0
 243 0006 7860     		str	r0, [r7, #4]
 244 0008 7868     		ldr	r0, [r7, #4]
 245 000a FFF7FEFF 		bl	chMtxUnlock
 246 000e 00BF     		nop
 247 0010 0837     		adds	r7, r7, #8
 248 0012 BD46     		mov	sp, r7
 249              		@ sp needed
 250 0014 80BD     		pop	{r7, pc}
 251              		.size	osalMutexUnlock, .-osalMutexUnlock
 252              		.global	SPISLAVED3
 253              		.section	.bss.SPISLAVED3,"aw",%nobits
 254              		.align	2
 255              		.type	SPISLAVED3, %object
 256              		.size	SPISLAVED3, 52
 257              	SPISLAVED3:
 258 0000 00000000 		.space	52
 258      00000000 
 258      00000000 
 258      00000000 
 258      00000000 
 259              		.section	.text.spi3SlaveInit,"ax",%progbits
 260              		.align	1
 261              		.global	spi3SlaveInit
 262              		.syntax unified
 263              		.thumb
 264              		.thumb_func
 265              		.fpu fpv4-sp-d16
 266              		.type	spi3SlaveInit, %function
 267              	spi3SlaveInit:
 268              		@ args = 0, pretend = 0, frame = 0
 269              		@ frame_needed = 1, uses_anonymous_args = 0
 270 0000 80B5     		push	{r7, lr}
 271 0002 00AF     		add	r7, sp, #0
 272 0004 FFF7FEFF 		bl	spi3_slave_lld_init
 273 0008 00BF     		nop
 274 000a 80BD     		pop	{r7, pc}
 275              		.size	spi3SlaveInit, .-spi3SlaveInit
 276              		.section	.text.spi3SlaveObjectInit,"ax",%progbits
 277              		.align	1
 278              		.global	spi3SlaveObjectInit
 279              		.syntax unified
 280              		.thumb
 281              		.thumb_func
ARM GAS  /var/folders/d2/nstgp4h54kz7g1l847x_b8wc0000gn/T//cc2TsnSH.s 			page 6


 282              		.fpu fpv4-sp-d16
 283              		.type	spi3SlaveObjectInit, %function
 284              	spi3SlaveObjectInit:
 285              		@ args = 0, pretend = 0, frame = 8
 286              		@ frame_needed = 1, uses_anonymous_args = 0
 287 0000 80B5     		push	{r7, lr}
 288 0002 82B0     		sub	sp, sp, #8
 289 0004 00AF     		add	r7, sp, #0
 290 0006 7860     		str	r0, [r7, #4]
 291 0008 7B68     		ldr	r3, [r7, #4]
 292 000a 0122     		movs	r2, #1
 293 000c 1A70     		strb	r2, [r3]
 294 000e 7B68     		ldr	r3, [r7, #4]
 295 0010 0022     		movs	r2, #0
 296 0012 5A60     		str	r2, [r3, #4]
 297 0014 7B68     		ldr	r3, [r7, #4]
 298 0016 0022     		movs	r2, #0
 299 0018 9A60     		str	r2, [r3, #8]
 300 001a 7B68     		ldr	r3, [r7, #4]
 301 001c 0C33     		adds	r3, r3, #12
 302 001e 1846     		mov	r0, r3
 303 0020 FFF7FEFF 		bl	osalMutexObjectInit
 304 0024 00BF     		nop
 305 0026 0837     		adds	r7, r7, #8
 306 0028 BD46     		mov	sp, r7
 307              		@ sp needed
 308 002a 80BD     		pop	{r7, pc}
 309              		.size	spi3SlaveObjectInit, .-spi3SlaveObjectInit
 310              		.section	.text.spi3SlaveStart,"ax",%progbits
 311              		.align	1
 312              		.global	spi3SlaveStart
 313              		.syntax unified
 314              		.thumb
 315              		.thumb_func
 316              		.fpu fpv4-sp-d16
 317              		.type	spi3SlaveStart, %function
 318              	spi3SlaveStart:
 319              		@ args = 0, pretend = 0, frame = 8
 320              		@ frame_needed = 1, uses_anonymous_args = 0
 321 0000 80B5     		push	{r7, lr}
 322 0002 82B0     		sub	sp, sp, #8
 323 0004 00AF     		add	r7, sp, #0
 324 0006 7860     		str	r0, [r7, #4]
 325 0008 3960     		str	r1, [r7]
 326 000a 7B68     		ldr	r3, [r7, #4]
 327 000c 002B     		cmp	r3, #0
 328 000e 02D0     		beq	.L18
 329 0010 3B68     		ldr	r3, [r7]
 330 0012 002B     		cmp	r3, #0
 331 0014 02D1     		bne	.L19
 332              	.L18:
 333 0016 0F48     		ldr	r0, .L21
 334 0018 FFF7FEFF 		bl	chSysHalt
 335              	.L19:
 336 001c FFF7FEFF 		bl	osalSysLock
 337 0020 7B68     		ldr	r3, [r7, #4]
 338 0022 1B78     		ldrb	r3, [r3]	@ zero_extendqisi2
ARM GAS  /var/folders/d2/nstgp4h54kz7g1l847x_b8wc0000gn/T//cc2TsnSH.s 			page 7


 339 0024 012B     		cmp	r3, #1
 340 0026 06D0     		beq	.L20
 341 0028 7B68     		ldr	r3, [r7, #4]
 342 002a 1B78     		ldrb	r3, [r3]	@ zero_extendqisi2
 343 002c 022B     		cmp	r3, #2
 344 002e 02D0     		beq	.L20
 345 0030 0848     		ldr	r0, .L21
 346 0032 FFF7FEFF 		bl	chSysHalt
 347              	.L20:
 348 0036 7B68     		ldr	r3, [r7, #4]
 349 0038 3A68     		ldr	r2, [r7]
 350 003a 5A60     		str	r2, [r3, #4]
 351 003c 7868     		ldr	r0, [r7, #4]
 352 003e FFF7FEFF 		bl	spi3_slave_lld_start
 353 0042 7B68     		ldr	r3, [r7, #4]
 354 0044 0222     		movs	r2, #2
 355 0046 1A70     		strb	r2, [r3]
 356 0048 FFF7FEFF 		bl	osalSysUnlock
 357 004c 00BF     		nop
 358 004e 0837     		adds	r7, r7, #8
 359 0050 BD46     		mov	sp, r7
 360              		@ sp needed
 361 0052 80BD     		pop	{r7, pc}
 362              	.L22:
 363              		.align	2
 364              	.L21:
 365 0054 00000000 		.word	__func__.9954
 366              		.size	spi3SlaveStart, .-spi3SlaveStart
 367              		.section	.text.spi3SlaveStop,"ax",%progbits
 368              		.align	1
 369              		.global	spi3SlaveStop
 370              		.syntax unified
 371              		.thumb
 372              		.thumb_func
 373              		.fpu fpv4-sp-d16
 374              		.type	spi3SlaveStop, %function
 375              	spi3SlaveStop:
 376              		@ args = 0, pretend = 0, frame = 8
 377              		@ frame_needed = 1, uses_anonymous_args = 0
 378 0000 80B5     		push	{r7, lr}
 379 0002 82B0     		sub	sp, sp, #8
 380 0004 00AF     		add	r7, sp, #0
 381 0006 7860     		str	r0, [r7, #4]
 382 0008 7B68     		ldr	r3, [r7, #4]
 383 000a 002B     		cmp	r3, #0
 384 000c 02D1     		bne	.L24
 385 000e 0E48     		ldr	r0, .L26
 386 0010 FFF7FEFF 		bl	chSysHalt
 387              	.L24:
 388 0014 FFF7FEFF 		bl	osalSysLock
 389 0018 7B68     		ldr	r3, [r7, #4]
 390 001a 1B78     		ldrb	r3, [r3]	@ zero_extendqisi2
 391 001c 012B     		cmp	r3, #1
 392 001e 06D0     		beq	.L25
 393 0020 7B68     		ldr	r3, [r7, #4]
 394 0022 1B78     		ldrb	r3, [r3]	@ zero_extendqisi2
 395 0024 022B     		cmp	r3, #2
ARM GAS  /var/folders/d2/nstgp4h54kz7g1l847x_b8wc0000gn/T//cc2TsnSH.s 			page 8


 396 0026 02D0     		beq	.L25
 397 0028 0748     		ldr	r0, .L26
 398 002a FFF7FEFF 		bl	chSysHalt
 399              	.L25:
 400 002e 7868     		ldr	r0, [r7, #4]
 401 0030 FFF7FEFF 		bl	spi3_slave_lld_stop
 402 0034 7B68     		ldr	r3, [r7, #4]
 403 0036 0122     		movs	r2, #1
 404 0038 1A70     		strb	r2, [r3]
 405 003a FFF7FEFF 		bl	osalSysUnlock
 406 003e 00BF     		nop
 407 0040 0837     		adds	r7, r7, #8
 408 0042 BD46     		mov	sp, r7
 409              		@ sp needed
 410 0044 80BD     		pop	{r7, pc}
 411              	.L27:
 412 0046 00BF     		.align	2
 413              	.L26:
 414 0048 00000000 		.word	__func__.9958
 415              		.size	spi3SlaveStop, .-spi3SlaveStop
 416              		.section	.text.spi3SlaveStartIgnore,"ax",%progbits
 417              		.align	1
 418              		.global	spi3SlaveStartIgnore
 419              		.syntax unified
 420              		.thumb
 421              		.thumb_func
 422              		.fpu fpv4-sp-d16
 423              		.type	spi3SlaveStartIgnore, %function
 424              	spi3SlaveStartIgnore:
 425              		@ args = 0, pretend = 0, frame = 8
 426              		@ frame_needed = 1, uses_anonymous_args = 0
 427 0000 80B5     		push	{r7, lr}
 428 0002 82B0     		sub	sp, sp, #8
 429 0004 00AF     		add	r7, sp, #0
 430 0006 7860     		str	r0, [r7, #4]
 431 0008 3960     		str	r1, [r7]
 432 000a 7B68     		ldr	r3, [r7, #4]
 433 000c 002B     		cmp	r3, #0
 434 000e 02D0     		beq	.L29
 435 0010 3B68     		ldr	r3, [r7]
 436 0012 002B     		cmp	r3, #0
 437 0014 02D1     		bne	.L30
 438              	.L29:
 439 0016 0C48     		ldr	r0, .L32
 440 0018 FFF7FEFF 		bl	chSysHalt
 441              	.L30:
 442 001c FFF7FEFF 		bl	osalSysLock
 443 0020 7B68     		ldr	r3, [r7, #4]
 444 0022 1B78     		ldrb	r3, [r3]	@ zero_extendqisi2
 445 0024 022B     		cmp	r3, #2
 446 0026 02D0     		beq	.L31
 447 0028 0748     		ldr	r0, .L32
 448 002a FFF7FEFF 		bl	chSysHalt
 449              	.L31:
 450 002e 7B68     		ldr	r3, [r7, #4]
 451 0030 0322     		movs	r2, #3
 452 0032 1A70     		strb	r2, [r3]
ARM GAS  /var/folders/d2/nstgp4h54kz7g1l847x_b8wc0000gn/T//cc2TsnSH.s 			page 9


 453 0034 3968     		ldr	r1, [r7]
 454 0036 7868     		ldr	r0, [r7, #4]
 455 0038 FFF7FEFF 		bl	spi3_slave_lld_ignore
 456 003c FFF7FEFF 		bl	osalSysUnlock
 457 0040 00BF     		nop
 458 0042 0837     		adds	r7, r7, #8
 459 0044 BD46     		mov	sp, r7
 460              		@ sp needed
 461 0046 80BD     		pop	{r7, pc}
 462              	.L33:
 463              		.align	2
 464              	.L32:
 465 0048 00000000 		.word	__func__.9963
 466              		.size	spi3SlaveStartIgnore, .-spi3SlaveStartIgnore
 467              		.section	.text.spi3SlaveStartExchange,"ax",%progbits
 468              		.align	1
 469              		.global	spi3SlaveStartExchange
 470              		.syntax unified
 471              		.thumb
 472              		.thumb_func
 473              		.fpu fpv4-sp-d16
 474              		.type	spi3SlaveStartExchange, %function
 475              	spi3SlaveStartExchange:
 476              		@ args = 0, pretend = 0, frame = 16
 477              		@ frame_needed = 1, uses_anonymous_args = 0
 478 0000 80B5     		push	{r7, lr}
 479 0002 84B0     		sub	sp, sp, #16
 480 0004 00AF     		add	r7, sp, #0
 481 0006 F860     		str	r0, [r7, #12]
 482 0008 B960     		str	r1, [r7, #8]
 483 000a 7A60     		str	r2, [r7, #4]
 484 000c 3B60     		str	r3, [r7]
 485 000e FB68     		ldr	r3, [r7, #12]
 486 0010 002B     		cmp	r3, #0
 487 0012 08D0     		beq	.L35
 488 0014 BB68     		ldr	r3, [r7, #8]
 489 0016 002B     		cmp	r3, #0
 490 0018 05D0     		beq	.L35
 491 001a 3B68     		ldr	r3, [r7]
 492 001c 002B     		cmp	r3, #0
 493 001e 02D0     		beq	.L35
 494 0020 7B68     		ldr	r3, [r7, #4]
 495 0022 002B     		cmp	r3, #0
 496 0024 02D1     		bne	.L36
 497              	.L35:
 498 0026 0D48     		ldr	r0, .L38
 499 0028 FFF7FEFF 		bl	chSysHalt
 500              	.L36:
 501 002c FFF7FEFF 		bl	osalSysLock
 502 0030 FB68     		ldr	r3, [r7, #12]
 503 0032 1B78     		ldrb	r3, [r3]	@ zero_extendqisi2
 504 0034 022B     		cmp	r3, #2
 505 0036 02D0     		beq	.L37
 506 0038 0848     		ldr	r0, .L38
 507 003a FFF7FEFF 		bl	chSysHalt
 508              	.L37:
 509 003e FB68     		ldr	r3, [r7, #12]
ARM GAS  /var/folders/d2/nstgp4h54kz7g1l847x_b8wc0000gn/T//cc2TsnSH.s 			page 10


 510 0040 0322     		movs	r2, #3
 511 0042 1A70     		strb	r2, [r3]
 512 0044 3B68     		ldr	r3, [r7]
 513 0046 7A68     		ldr	r2, [r7, #4]
 514 0048 B968     		ldr	r1, [r7, #8]
 515 004a F868     		ldr	r0, [r7, #12]
 516 004c FFF7FEFF 		bl	spi3_slave_lld_exchange
 517 0050 FFF7FEFF 		bl	osalSysUnlock
 518 0054 00BF     		nop
 519 0056 1037     		adds	r7, r7, #16
 520 0058 BD46     		mov	sp, r7
 521              		@ sp needed
 522 005a 80BD     		pop	{r7, pc}
 523              	.L39:
 524              		.align	2
 525              	.L38:
 526 005c 00000000 		.word	__func__.9970
 527              		.size	spi3SlaveStartExchange, .-spi3SlaveStartExchange
 528              		.section	.text.spi3SlaveStartSend,"ax",%progbits
 529              		.align	1
 530              		.global	spi3SlaveStartSend
 531              		.syntax unified
 532              		.thumb
 533              		.thumb_func
 534              		.fpu fpv4-sp-d16
 535              		.type	spi3SlaveStartSend, %function
 536              	spi3SlaveStartSend:
 537              		@ args = 0, pretend = 0, frame = 16
 538              		@ frame_needed = 1, uses_anonymous_args = 0
 539 0000 80B5     		push	{r7, lr}
 540 0002 84B0     		sub	sp, sp, #16
 541 0004 00AF     		add	r7, sp, #0
 542 0006 F860     		str	r0, [r7, #12]
 543 0008 B960     		str	r1, [r7, #8]
 544 000a 7A60     		str	r2, [r7, #4]
 545 000c FB68     		ldr	r3, [r7, #12]
 546 000e 002B     		cmp	r3, #0
 547 0010 05D0     		beq	.L41
 548 0012 BB68     		ldr	r3, [r7, #8]
 549 0014 002B     		cmp	r3, #0
 550 0016 02D0     		beq	.L41
 551 0018 7B68     		ldr	r3, [r7, #4]
 552 001a 002B     		cmp	r3, #0
 553 001c 02D1     		bne	.L42
 554              	.L41:
 555 001e 0D48     		ldr	r0, .L44
 556 0020 FFF7FEFF 		bl	chSysHalt
 557              	.L42:
 558 0024 FFF7FEFF 		bl	osalSysLock
 559 0028 FB68     		ldr	r3, [r7, #12]
 560 002a 1B78     		ldrb	r3, [r3]	@ zero_extendqisi2
 561 002c 022B     		cmp	r3, #2
 562 002e 02D0     		beq	.L43
 563 0030 0848     		ldr	r0, .L44
 564 0032 FFF7FEFF 		bl	chSysHalt
 565              	.L43:
 566 0036 FB68     		ldr	r3, [r7, #12]
ARM GAS  /var/folders/d2/nstgp4h54kz7g1l847x_b8wc0000gn/T//cc2TsnSH.s 			page 11


 567 0038 0322     		movs	r2, #3
 568 003a 1A70     		strb	r2, [r3]
 569 003c 7A68     		ldr	r2, [r7, #4]
 570 003e B968     		ldr	r1, [r7, #8]
 571 0040 F868     		ldr	r0, [r7, #12]
 572 0042 FFF7FEFF 		bl	spi3_slave_lld_send
 573 0046 FFF7FEFF 		bl	osalSysUnlock
 574 004a 00BF     		nop
 575 004c 1037     		adds	r7, r7, #16
 576 004e BD46     		mov	sp, r7
 577              		@ sp needed
 578 0050 80BD     		pop	{r7, pc}
 579              	.L45:
 580 0052 00BF     		.align	2
 581              	.L44:
 582 0054 00000000 		.word	__func__.9976
 583              		.size	spi3SlaveStartSend, .-spi3SlaveStartSend
 584              		.section	.text.spi3SlaveStartReceive,"ax",%progbits
 585              		.align	1
 586              		.global	spi3SlaveStartReceive
 587              		.syntax unified
 588              		.thumb
 589              		.thumb_func
 590              		.fpu fpv4-sp-d16
 591              		.type	spi3SlaveStartReceive, %function
 592              	spi3SlaveStartReceive:
 593              		@ args = 0, pretend = 0, frame = 16
 594              		@ frame_needed = 1, uses_anonymous_args = 0
 595 0000 80B5     		push	{r7, lr}
 596 0002 84B0     		sub	sp, sp, #16
 597 0004 00AF     		add	r7, sp, #0
 598 0006 F860     		str	r0, [r7, #12]
 599 0008 B960     		str	r1, [r7, #8]
 600 000a 7A60     		str	r2, [r7, #4]
 601 000c FB68     		ldr	r3, [r7, #12]
 602 000e 002B     		cmp	r3, #0
 603 0010 05D0     		beq	.L47
 604 0012 BB68     		ldr	r3, [r7, #8]
 605 0014 002B     		cmp	r3, #0
 606 0016 02D0     		beq	.L47
 607 0018 7B68     		ldr	r3, [r7, #4]
 608 001a 002B     		cmp	r3, #0
 609 001c 02D1     		bne	.L48
 610              	.L47:
 611 001e 0D48     		ldr	r0, .L50
 612 0020 FFF7FEFF 		bl	chSysHalt
 613              	.L48:
 614 0024 FFF7FEFF 		bl	osalSysLock
 615 0028 FB68     		ldr	r3, [r7, #12]
 616 002a 1B78     		ldrb	r3, [r3]	@ zero_extendqisi2
 617 002c 022B     		cmp	r3, #2
 618 002e 02D0     		beq	.L49
 619 0030 0848     		ldr	r0, .L50
 620 0032 FFF7FEFF 		bl	chSysHalt
 621              	.L49:
 622 0036 FB68     		ldr	r3, [r7, #12]
 623 0038 0322     		movs	r2, #3
ARM GAS  /var/folders/d2/nstgp4h54kz7g1l847x_b8wc0000gn/T//cc2TsnSH.s 			page 12


 624 003a 1A70     		strb	r2, [r3]
 625 003c 7A68     		ldr	r2, [r7, #4]
 626 003e B968     		ldr	r1, [r7, #8]
 627 0040 F868     		ldr	r0, [r7, #12]
 628 0042 FFF7FEFF 		bl	spi3_slave_lld_receive
 629 0046 FFF7FEFF 		bl	osalSysUnlock
 630 004a 00BF     		nop
 631 004c 1037     		adds	r7, r7, #16
 632 004e BD46     		mov	sp, r7
 633              		@ sp needed
 634 0050 80BD     		pop	{r7, pc}
 635              	.L51:
 636 0052 00BF     		.align	2
 637              	.L50:
 638 0054 00000000 		.word	__func__.9982
 639              		.size	spi3SlaveStartReceive, .-spi3SlaveStartReceive
 640              		.section	.text.spi3SlaveIgnore,"ax",%progbits
 641              		.align	1
 642              		.global	spi3SlaveIgnore
 643              		.syntax unified
 644              		.thumb
 645              		.thumb_func
 646              		.fpu fpv4-sp-d16
 647              		.type	spi3SlaveIgnore, %function
 648              	spi3SlaveIgnore:
 649              		@ args = 0, pretend = 0, frame = 8
 650              		@ frame_needed = 1, uses_anonymous_args = 0
 651 0000 80B5     		push	{r7, lr}
 652 0002 82B0     		sub	sp, sp, #8
 653 0004 00AF     		add	r7, sp, #0
 654 0006 7860     		str	r0, [r7, #4]
 655 0008 3960     		str	r1, [r7]
 656 000a 7B68     		ldr	r3, [r7, #4]
 657 000c 002B     		cmp	r3, #0
 658 000e 02D0     		beq	.L53
 659 0010 3B68     		ldr	r3, [r7]
 660 0012 002B     		cmp	r3, #0
 661 0014 02D1     		bne	.L54
 662              	.L53:
 663 0016 1348     		ldr	r0, .L58
 664 0018 FFF7FEFF 		bl	chSysHalt
 665              	.L54:
 666 001c FFF7FEFF 		bl	osalSysLock
 667 0020 7B68     		ldr	r3, [r7, #4]
 668 0022 1B78     		ldrb	r3, [r3]	@ zero_extendqisi2
 669 0024 022B     		cmp	r3, #2
 670 0026 02D0     		beq	.L57
 671 0028 0E48     		ldr	r0, .L58
 672 002a FFF7FEFF 		bl	chSysHalt
 673              	.L57:
 674 002e 7B68     		ldr	r3, [r7, #4]
 675 0030 5B68     		ldr	r3, [r3, #4]
 676 0032 1B68     		ldr	r3, [r3]
 677 0034 002B     		cmp	r3, #0
 678 0036 02D0     		beq	.L56
 679 0038 0A48     		ldr	r0, .L58
 680 003a FFF7FEFF 		bl	chSysHalt
ARM GAS  /var/folders/d2/nstgp4h54kz7g1l847x_b8wc0000gn/T//cc2TsnSH.s 			page 13


 681              	.L56:
 682 003e 7B68     		ldr	r3, [r7, #4]
 683 0040 0322     		movs	r2, #3
 684 0042 1A70     		strb	r2, [r3]
 685 0044 3968     		ldr	r1, [r7]
 686 0046 7868     		ldr	r0, [r7, #4]
 687 0048 FFF7FEFF 		bl	spi3_slave_lld_ignore
 688 004c 7B68     		ldr	r3, [r7, #4]
 689 004e 0833     		adds	r3, r3, #8
 690 0050 1846     		mov	r0, r3
 691 0052 FFF7FEFF 		bl	osalThreadSuspendS
 692 0056 FFF7FEFF 		bl	osalSysUnlock
 693 005a 00BF     		nop
 694 005c 0837     		adds	r7, r7, #8
 695 005e BD46     		mov	sp, r7
 696              		@ sp needed
 697 0060 80BD     		pop	{r7, pc}
 698              	.L59:
 699 0062 00BF     		.align	2
 700              	.L58:
 701 0064 00000000 		.word	__func__.9987
 702              		.size	spi3SlaveIgnore, .-spi3SlaveIgnore
 703              		.section	.text.spi3SlaveExchange,"ax",%progbits
 704              		.align	1
 705              		.global	spi3SlaveExchange
 706              		.syntax unified
 707              		.thumb
 708              		.thumb_func
 709              		.fpu fpv4-sp-d16
 710              		.type	spi3SlaveExchange, %function
 711              	spi3SlaveExchange:
 712              		@ args = 0, pretend = 0, frame = 16
 713              		@ frame_needed = 1, uses_anonymous_args = 0
 714 0000 80B5     		push	{r7, lr}
 715 0002 84B0     		sub	sp, sp, #16
 716 0004 00AF     		add	r7, sp, #0
 717 0006 F860     		str	r0, [r7, #12]
 718 0008 B960     		str	r1, [r7, #8]
 719 000a 7A60     		str	r2, [r7, #4]
 720 000c 3B60     		str	r3, [r7]
 721 000e FB68     		ldr	r3, [r7, #12]
 722 0010 002B     		cmp	r3, #0
 723 0012 08D0     		beq	.L61
 724 0014 BB68     		ldr	r3, [r7, #8]
 725 0016 002B     		cmp	r3, #0
 726 0018 05D0     		beq	.L61
 727 001a 3B68     		ldr	r3, [r7]
 728 001c 002B     		cmp	r3, #0
 729 001e 02D0     		beq	.L61
 730 0020 7B68     		ldr	r3, [r7, #4]
 731 0022 002B     		cmp	r3, #0
 732 0024 02D1     		bne	.L62
 733              	.L61:
 734 0026 1448     		ldr	r0, .L66
 735 0028 FFF7FEFF 		bl	chSysHalt
 736              	.L62:
 737 002c FFF7FEFF 		bl	osalSysLock
ARM GAS  /var/folders/d2/nstgp4h54kz7g1l847x_b8wc0000gn/T//cc2TsnSH.s 			page 14


 738 0030 FB68     		ldr	r3, [r7, #12]
 739 0032 1B78     		ldrb	r3, [r3]	@ zero_extendqisi2
 740 0034 022B     		cmp	r3, #2
 741 0036 02D0     		beq	.L65
 742 0038 0F48     		ldr	r0, .L66
 743 003a FFF7FEFF 		bl	chSysHalt
 744              	.L65:
 745 003e FB68     		ldr	r3, [r7, #12]
 746 0040 5B68     		ldr	r3, [r3, #4]
 747 0042 1B68     		ldr	r3, [r3]
 748 0044 002B     		cmp	r3, #0
 749 0046 02D0     		beq	.L64
 750 0048 0B48     		ldr	r0, .L66
 751 004a FFF7FEFF 		bl	chSysHalt
 752              	.L64:
 753 004e FB68     		ldr	r3, [r7, #12]
 754 0050 0322     		movs	r2, #3
 755 0052 1A70     		strb	r2, [r3]
 756 0054 3B68     		ldr	r3, [r7]
 757 0056 7A68     		ldr	r2, [r7, #4]
 758 0058 B968     		ldr	r1, [r7, #8]
 759 005a F868     		ldr	r0, [r7, #12]
 760 005c FFF7FEFF 		bl	spi3_slave_lld_exchange
 761 0060 FB68     		ldr	r3, [r7, #12]
 762 0062 0833     		adds	r3, r3, #8
 763 0064 1846     		mov	r0, r3
 764 0066 FFF7FEFF 		bl	osalThreadSuspendS
 765 006a FFF7FEFF 		bl	osalSysUnlock
 766 006e 00BF     		nop
 767 0070 1037     		adds	r7, r7, #16
 768 0072 BD46     		mov	sp, r7
 769              		@ sp needed
 770 0074 80BD     		pop	{r7, pc}
 771              	.L67:
 772 0076 00BF     		.align	2
 773              	.L66:
 774 0078 00000000 		.word	__func__.9994
 775              		.size	spi3SlaveExchange, .-spi3SlaveExchange
 776              		.section	.text.spi3SlaveSend,"ax",%progbits
 777              		.align	1
 778              		.global	spi3SlaveSend
 779              		.syntax unified
 780              		.thumb
 781              		.thumb_func
 782              		.fpu fpv4-sp-d16
 783              		.type	spi3SlaveSend, %function
 784              	spi3SlaveSend:
 785              		@ args = 0, pretend = 0, frame = 16
 786              		@ frame_needed = 1, uses_anonymous_args = 0
 787 0000 80B5     		push	{r7, lr}
 788 0002 84B0     		sub	sp, sp, #16
 789 0004 00AF     		add	r7, sp, #0
 790 0006 F860     		str	r0, [r7, #12]
 791 0008 B960     		str	r1, [r7, #8]
 792 000a 7A60     		str	r2, [r7, #4]
 793 000c FB68     		ldr	r3, [r7, #12]
 794 000e 002B     		cmp	r3, #0
ARM GAS  /var/folders/d2/nstgp4h54kz7g1l847x_b8wc0000gn/T//cc2TsnSH.s 			page 15


 795 0010 05D0     		beq	.L69
 796 0012 BB68     		ldr	r3, [r7, #8]
 797 0014 002B     		cmp	r3, #0
 798 0016 02D0     		beq	.L69
 799 0018 7B68     		ldr	r3, [r7, #4]
 800 001a 002B     		cmp	r3, #0
 801 001c 02D1     		bne	.L70
 802              	.L69:
 803 001e 1348     		ldr	r0, .L74
 804 0020 FFF7FEFF 		bl	chSysHalt
 805              	.L70:
 806 0024 FFF7FEFF 		bl	osalSysLock
 807 0028 FB68     		ldr	r3, [r7, #12]
 808 002a 1B78     		ldrb	r3, [r3]	@ zero_extendqisi2
 809 002c 022B     		cmp	r3, #2
 810 002e 02D0     		beq	.L73
 811 0030 0E48     		ldr	r0, .L74
 812 0032 FFF7FEFF 		bl	chSysHalt
 813              	.L73:
 814 0036 FB68     		ldr	r3, [r7, #12]
 815 0038 5B68     		ldr	r3, [r3, #4]
 816 003a 1B68     		ldr	r3, [r3]
 817 003c 002B     		cmp	r3, #0
 818 003e 02D0     		beq	.L72
 819 0040 0A48     		ldr	r0, .L74
 820 0042 FFF7FEFF 		bl	chSysHalt
 821              	.L72:
 822 0046 FB68     		ldr	r3, [r7, #12]
 823 0048 0322     		movs	r2, #3
 824 004a 1A70     		strb	r2, [r3]
 825 004c 7A68     		ldr	r2, [r7, #4]
 826 004e B968     		ldr	r1, [r7, #8]
 827 0050 F868     		ldr	r0, [r7, #12]
 828 0052 FFF7FEFF 		bl	spi3_slave_lld_send
 829 0056 FB68     		ldr	r3, [r7, #12]
 830 0058 0833     		adds	r3, r3, #8
 831 005a 1846     		mov	r0, r3
 832 005c FFF7FEFF 		bl	osalThreadSuspendS
 833 0060 FFF7FEFF 		bl	osalSysUnlock
 834 0064 00BF     		nop
 835 0066 1037     		adds	r7, r7, #16
 836 0068 BD46     		mov	sp, r7
 837              		@ sp needed
 838 006a 80BD     		pop	{r7, pc}
 839              	.L75:
 840              		.align	2
 841              	.L74:
 842 006c 00000000 		.word	__func__.10000
 843              		.size	spi3SlaveSend, .-spi3SlaveSend
 844              		.section	.text.spi3SlaveReceive,"ax",%progbits
 845              		.align	1
 846              		.global	spi3SlaveReceive
 847              		.syntax unified
 848              		.thumb
 849              		.thumb_func
 850              		.fpu fpv4-sp-d16
 851              		.type	spi3SlaveReceive, %function
ARM GAS  /var/folders/d2/nstgp4h54kz7g1l847x_b8wc0000gn/T//cc2TsnSH.s 			page 16


 852              	spi3SlaveReceive:
 853              		@ args = 0, pretend = 0, frame = 16
 854              		@ frame_needed = 1, uses_anonymous_args = 0
 855 0000 80B5     		push	{r7, lr}
 856 0002 84B0     		sub	sp, sp, #16
 857 0004 00AF     		add	r7, sp, #0
 858 0006 F860     		str	r0, [r7, #12]
 859 0008 B960     		str	r1, [r7, #8]
 860 000a 7A60     		str	r2, [r7, #4]
 861 000c FB68     		ldr	r3, [r7, #12]
 862 000e 002B     		cmp	r3, #0
 863 0010 05D0     		beq	.L77
 864 0012 BB68     		ldr	r3, [r7, #8]
 865 0014 002B     		cmp	r3, #0
 866 0016 02D0     		beq	.L77
 867 0018 7B68     		ldr	r3, [r7, #4]
 868 001a 002B     		cmp	r3, #0
 869 001c 02D1     		bne	.L78
 870              	.L77:
 871 001e 1348     		ldr	r0, .L82
 872 0020 FFF7FEFF 		bl	chSysHalt
 873              	.L78:
 874 0024 FFF7FEFF 		bl	osalSysLock
 875 0028 FB68     		ldr	r3, [r7, #12]
 876 002a 1B78     		ldrb	r3, [r3]	@ zero_extendqisi2
 877 002c 022B     		cmp	r3, #2
 878 002e 02D0     		beq	.L81
 879 0030 0E48     		ldr	r0, .L82
 880 0032 FFF7FEFF 		bl	chSysHalt
 881              	.L81:
 882 0036 FB68     		ldr	r3, [r7, #12]
 883 0038 5B68     		ldr	r3, [r3, #4]
 884 003a 1B68     		ldr	r3, [r3]
 885 003c 002B     		cmp	r3, #0
 886 003e 02D0     		beq	.L80
 887 0040 0A48     		ldr	r0, .L82
 888 0042 FFF7FEFF 		bl	chSysHalt
 889              	.L80:
 890 0046 FB68     		ldr	r3, [r7, #12]
 891 0048 0322     		movs	r2, #3
 892 004a 1A70     		strb	r2, [r3]
 893 004c 7A68     		ldr	r2, [r7, #4]
 894 004e B968     		ldr	r1, [r7, #8]
 895 0050 F868     		ldr	r0, [r7, #12]
 896 0052 FFF7FEFF 		bl	spi3_slave_lld_receive
 897 0056 FB68     		ldr	r3, [r7, #12]
 898 0058 0833     		adds	r3, r3, #8
 899 005a 1846     		mov	r0, r3
 900 005c FFF7FEFF 		bl	osalThreadSuspendS
 901 0060 FFF7FEFF 		bl	osalSysUnlock
 902 0064 00BF     		nop
 903 0066 1037     		adds	r7, r7, #16
 904 0068 BD46     		mov	sp, r7
 905              		@ sp needed
 906 006a 80BD     		pop	{r7, pc}
 907              	.L83:
 908              		.align	2
ARM GAS  /var/folders/d2/nstgp4h54kz7g1l847x_b8wc0000gn/T//cc2TsnSH.s 			page 17


 909              	.L82:
 910 006c 00000000 		.word	__func__.10006
 911              		.size	spi3SlaveReceive, .-spi3SlaveReceive
 912              		.section	.text.spi3SlaveAcquireBus,"ax",%progbits
 913              		.align	1
 914              		.global	spi3SlaveAcquireBus
 915              		.syntax unified
 916              		.thumb
 917              		.thumb_func
 918              		.fpu fpv4-sp-d16
 919              		.type	spi3SlaveAcquireBus, %function
 920              	spi3SlaveAcquireBus:
 921              		@ args = 0, pretend = 0, frame = 8
 922              		@ frame_needed = 1, uses_anonymous_args = 0
 923 0000 80B5     		push	{r7, lr}
 924 0002 82B0     		sub	sp, sp, #8
 925 0004 00AF     		add	r7, sp, #0
 926 0006 7860     		str	r0, [r7, #4]
 927 0008 7B68     		ldr	r3, [r7, #4]
 928 000a 002B     		cmp	r3, #0
 929 000c 02D1     		bne	.L85
 930 000e 0648     		ldr	r0, .L86
 931 0010 FFF7FEFF 		bl	chSysHalt
 932              	.L85:
 933 0014 7B68     		ldr	r3, [r7, #4]
 934 0016 0C33     		adds	r3, r3, #12
 935 0018 1846     		mov	r0, r3
 936 001a FFF7FEFF 		bl	osalMutexLock
 937 001e 00BF     		nop
 938 0020 0837     		adds	r7, r7, #8
 939 0022 BD46     		mov	sp, r7
 940              		@ sp needed
 941 0024 80BD     		pop	{r7, pc}
 942              	.L87:
 943 0026 00BF     		.align	2
 944              	.L86:
 945 0028 00000000 		.word	__func__.10010
 946              		.size	spi3SlaveAcquireBus, .-spi3SlaveAcquireBus
 947              		.section	.text.spi3SlaveReleaseBus,"ax",%progbits
 948              		.align	1
 949              		.global	spi3SlaveReleaseBus
 950              		.syntax unified
 951              		.thumb
 952              		.thumb_func
 953              		.fpu fpv4-sp-d16
 954              		.type	spi3SlaveReleaseBus, %function
 955              	spi3SlaveReleaseBus:
 956              		@ args = 0, pretend = 0, frame = 8
 957              		@ frame_needed = 1, uses_anonymous_args = 0
 958 0000 80B5     		push	{r7, lr}
 959 0002 82B0     		sub	sp, sp, #8
 960 0004 00AF     		add	r7, sp, #0
 961 0006 7860     		str	r0, [r7, #4]
 962 0008 7B68     		ldr	r3, [r7, #4]
 963 000a 002B     		cmp	r3, #0
 964 000c 02D1     		bne	.L89
 965 000e 0648     		ldr	r0, .L90
ARM GAS  /var/folders/d2/nstgp4h54kz7g1l847x_b8wc0000gn/T//cc2TsnSH.s 			page 18


 966 0010 FFF7FEFF 		bl	chSysHalt
 967              	.L89:
 968 0014 7B68     		ldr	r3, [r7, #4]
 969 0016 0C33     		adds	r3, r3, #12
 970 0018 1846     		mov	r0, r3
 971 001a FFF7FEFF 		bl	osalMutexUnlock
 972 001e 00BF     		nop
 973 0020 0837     		adds	r7, r7, #8
 974 0022 BD46     		mov	sp, r7
 975              		@ sp needed
 976 0024 80BD     		pop	{r7, pc}
 977              	.L91:
 978 0026 00BF     		.align	2
 979              	.L90:
 980 0028 00000000 		.word	__func__.10014
 981              		.size	spi3SlaveReleaseBus, .-spi3SlaveReleaseBus
 982              		.section	.text.spi3SlaveStopExchange,"ax",%progbits
 983              		.align	1
 984              		.global	spi3SlaveStopExchange
 985              		.syntax unified
 986              		.thumb
 987              		.thumb_func
 988              		.fpu fpv4-sp-d16
 989              		.type	spi3SlaveStopExchange, %function
 990              	spi3SlaveStopExchange:
 991              		@ args = 0, pretend = 0, frame = 8
 992              		@ frame_needed = 1, uses_anonymous_args = 0
 993 0000 80B5     		push	{r7, lr}
 994 0002 82B0     		sub	sp, sp, #8
 995 0004 00AF     		add	r7, sp, #0
 996 0006 7860     		str	r0, [r7, #4]
 997 0008 7B68     		ldr	r3, [r7, #4]
 998 000a 002B     		cmp	r3, #0
 999 000c 02D1     		bne	.L93
 1000 000e 1048     		ldr	r0, .L95
 1001 0010 FFF7FEFF 		bl	chSysHalt
 1002              	.L93:
 1003 0014 FFF7FEFF 		bl	osalSysLock
 1004 0018 7B68     		ldr	r3, [r7, #4]
 1005 001a 1B78     		ldrb	r3, [r3]	@ zero_extendqisi2
 1006 001c 022B     		cmp	r3, #2
 1007 001e 0AD0     		beq	.L94
 1008 0020 7B68     		ldr	r3, [r7, #4]
 1009 0022 1B78     		ldrb	r3, [r3]	@ zero_extendqisi2
 1010 0024 032B     		cmp	r3, #3
 1011 0026 06D0     		beq	.L94
 1012 0028 7B68     		ldr	r3, [r7, #4]
 1013 002a 1B78     		ldrb	r3, [r3]	@ zero_extendqisi2
 1014 002c 042B     		cmp	r3, #4
 1015 002e 02D0     		beq	.L94
 1016 0030 0748     		ldr	r0, .L95
 1017 0032 FFF7FEFF 		bl	chSysHalt
 1018              	.L94:
 1019 0036 7868     		ldr	r0, [r7, #4]
 1020 0038 FFF7FEFF 		bl	spi3_slave_lld_stop_exchange
 1021 003c 7B68     		ldr	r3, [r7, #4]
 1022 003e 0222     		movs	r2, #2
ARM GAS  /var/folders/d2/nstgp4h54kz7g1l847x_b8wc0000gn/T//cc2TsnSH.s 			page 19


 1023 0040 1A70     		strb	r2, [r3]
 1024 0042 FFF7FEFF 		bl	osalSysUnlock
 1025 0046 00BF     		nop
 1026 0048 0837     		adds	r7, r7, #8
 1027 004a BD46     		mov	sp, r7
 1028              		@ sp needed
 1029 004c 80BD     		pop	{r7, pc}
 1030              	.L96:
 1031 004e 00BF     		.align	2
 1032              	.L95:
 1033 0050 00000000 		.word	__func__.10018
 1034              		.size	spi3SlaveStopExchange, .-spi3SlaveStopExchange
 1035              		.section	.rodata.__func__.9954,"a",%progbits
 1036              		.align	2
 1037              		.type	__func__.9954, %object
 1038              		.size	__func__.9954, 15
 1039              	__func__.9954:
 1040 0000 73706933 		.ascii	"spi3SlaveStart\000"
 1040      536C6176 
 1040      65537461 
 1040      727400
 1041              		.section	.rodata.__func__.7153,"a",%progbits
 1042              		.align	2
 1043              		.type	__func__.7153, %object
 1044              		.size	__func__.7153, 12
 1045              	__func__.7153:
 1046 0000 63685379 		.ascii	"chSysUnlock\000"
 1046      73556E6C 
 1046      6F636B00 
 1047              		.section	.rodata.__func__.9958,"a",%progbits
 1048              		.align	2
 1049              		.type	__func__.9958, %object
 1050              		.size	__func__.9958, 14
 1051              	__func__.9958:
 1052 0000 73706933 		.ascii	"spi3SlaveStop\000"
 1052      536C6176 
 1052      6553746F 
 1052      7000
 1053              		.section	.rodata.__func__.9963,"a",%progbits
 1054              		.align	2
 1055              		.type	__func__.9963, %object
 1056              		.size	__func__.9963, 21
 1057              	__func__.9963:
 1058 0000 73706933 		.ascii	"spi3SlaveStartIgnore\000"
 1058      536C6176 
 1058      65537461 
 1058      72744967 
 1058      6E6F7265 
 1059              		.section	.rodata.__func__.9970,"a",%progbits
 1060              		.align	2
 1061              		.type	__func__.9970, %object
 1062              		.size	__func__.9970, 23
 1063              	__func__.9970:
 1064 0000 73706933 		.ascii	"spi3SlaveStartExchange\000"
 1064      536C6176 
 1064      65537461 
 1064      72744578 
ARM GAS  /var/folders/d2/nstgp4h54kz7g1l847x_b8wc0000gn/T//cc2TsnSH.s 			page 20


 1064      6368616E 
 1065              		.section	.rodata.__func__.9976,"a",%progbits
 1066              		.align	2
 1067              		.type	__func__.9976, %object
 1068              		.size	__func__.9976, 19
 1069              	__func__.9976:
 1070 0000 73706933 		.ascii	"spi3SlaveStartSend\000"
 1070      536C6176 
 1070      65537461 
 1070      72745365 
 1070      6E6400
 1071              		.section	.rodata.__func__.9982,"a",%progbits
 1072              		.align	2
 1073              		.type	__func__.9982, %object
 1074              		.size	__func__.9982, 22
 1075              	__func__.9982:
 1076 0000 73706933 		.ascii	"spi3SlaveStartReceive\000"
 1076      536C6176 
 1076      65537461 
 1076      72745265 
 1076      63656976 
 1077              		.section	.rodata.__func__.9987,"a",%progbits
 1078              		.align	2
 1079              		.type	__func__.9987, %object
 1080              		.size	__func__.9987, 16
 1081              	__func__.9987:
 1082 0000 73706933 		.ascii	"spi3SlaveIgnore\000"
 1082      536C6176 
 1082      6549676E 
 1082      6F726500 
 1083              		.section	.rodata.__func__.9994,"a",%progbits
 1084              		.align	2
 1085              		.type	__func__.9994, %object
 1086              		.size	__func__.9994, 18
 1087              	__func__.9994:
 1088 0000 73706933 		.ascii	"spi3SlaveExchange\000"
 1088      536C6176 
 1088      65457863 
 1088      68616E67 
 1088      6500
 1089              		.section	.rodata.__func__.10000,"a",%progbits
 1090              		.align	2
 1091              		.type	__func__.10000, %object
 1092              		.size	__func__.10000, 14
 1093              	__func__.10000:
 1094 0000 73706933 		.ascii	"spi3SlaveSend\000"
 1094      536C6176 
 1094      6553656E 
 1094      6400
 1095              		.section	.rodata.__func__.10006,"a",%progbits
 1096              		.align	2
 1097              		.type	__func__.10006, %object
 1098              		.size	__func__.10006, 17
 1099              	__func__.10006:
 1100 0000 73706933 		.ascii	"spi3SlaveReceive\000"
 1100      536C6176 
 1100      65526563 
ARM GAS  /var/folders/d2/nstgp4h54kz7g1l847x_b8wc0000gn/T//cc2TsnSH.s 			page 21


 1100      65697665 
 1100      00
 1101              		.section	.rodata.__func__.10010,"a",%progbits
 1102              		.align	2
 1103              		.type	__func__.10010, %object
 1104              		.size	__func__.10010, 20
 1105              	__func__.10010:
 1106 0000 73706933 		.ascii	"spi3SlaveAcquireBus\000"
 1106      536C6176 
 1106      65416371 
 1106      75697265 
 1106      42757300 
 1107              		.section	.rodata.__func__.10014,"a",%progbits
 1108              		.align	2
 1109              		.type	__func__.10014, %object
 1110              		.size	__func__.10014, 20
 1111              	__func__.10014:
 1112 0000 73706933 		.ascii	"spi3SlaveReleaseBus\000"
 1112      536C6176 
 1112      6552656C 
 1112      65617365 
 1112      42757300 
 1113              		.section	.rodata.__func__.10018,"a",%progbits
 1114              		.align	2
 1115              		.type	__func__.10018, %object
 1116              		.size	__func__.10018, 22
 1117              	__func__.10018:
 1118 0000 73706933 		.ascii	"spi3SlaveStopExchange\000"
 1118      536C6176 
 1118      6553746F 
 1118      70457863 
 1118      68616E67 
 1119              		.ident	"GCC: (GNU Tools for Arm Embedded Processors 7-2017-q4-major) 7.2.1 20170904 (release) [ARM
ARM GAS  /var/folders/d2/nstgp4h54kz7g1l847x_b8wc0000gn/T//cc2TsnSH.s 			page 22


DEFINED SYMBOLS
                            *ABS*:0000000000000000 spi3_slave.c
/var/folders/d2/nstgp4h54kz7g1l847x_b8wc0000gn/T//cc2TsnSH.s:15     .text.port_lock:0000000000000000 $t
/var/folders/d2/nstgp4h54kz7g1l847x_b8wc0000gn/T//cc2TsnSH.s:21     .text.port_lock:0000000000000000 port_lock
/var/folders/d2/nstgp4h54kz7g1l847x_b8wc0000gn/T//cc2TsnSH.s:45     .text.port_unlock:0000000000000000 $t
/var/folders/d2/nstgp4h54kz7g1l847x_b8wc0000gn/T//cc2TsnSH.s:51     .text.port_unlock:0000000000000000 port_unlock
/var/folders/d2/nstgp4h54kz7g1l847x_b8wc0000gn/T//cc2TsnSH.s:75     .text.chSysLock:0000000000000000 $t
/var/folders/d2/nstgp4h54kz7g1l847x_b8wc0000gn/T//cc2TsnSH.s:81     .text.chSysLock:0000000000000000 chSysLock
/var/folders/d2/nstgp4h54kz7g1l847x_b8wc0000gn/T//cc2TsnSH.s:93     .text.chSysUnlock:0000000000000000 $t
/var/folders/d2/nstgp4h54kz7g1l847x_b8wc0000gn/T//cc2TsnSH.s:99     .text.chSysUnlock:0000000000000000 chSysUnlock
/var/folders/d2/nstgp4h54kz7g1l847x_b8wc0000gn/T//cc2TsnSH.s:128    .text.chSysUnlock:0000000000000034 $d
/var/folders/d2/nstgp4h54kz7g1l847x_b8wc0000gn/T//cc2TsnSH.s:1045   .rodata.__func__.7153:0000000000000000 __func__.7153
/var/folders/d2/nstgp4h54kz7g1l847x_b8wc0000gn/T//cc2TsnSH.s:132    .text.osalSysLock:0000000000000000 $t
/var/folders/d2/nstgp4h54kz7g1l847x_b8wc0000gn/T//cc2TsnSH.s:138    .text.osalSysLock:0000000000000000 osalSysLock
/var/folders/d2/nstgp4h54kz7g1l847x_b8wc0000gn/T//cc2TsnSH.s:148    .text.osalSysUnlock:0000000000000000 $t
/var/folders/d2/nstgp4h54kz7g1l847x_b8wc0000gn/T//cc2TsnSH.s:154    .text.osalSysUnlock:0000000000000000 osalSysUnlock
/var/folders/d2/nstgp4h54kz7g1l847x_b8wc0000gn/T//cc2TsnSH.s:164    .text.osalThreadSuspendS:0000000000000000 $t
/var/folders/d2/nstgp4h54kz7g1l847x_b8wc0000gn/T//cc2TsnSH.s:170    .text.osalThreadSuspendS:0000000000000000 osalThreadSuspendS
/var/folders/d2/nstgp4h54kz7g1l847x_b8wc0000gn/T//cc2TsnSH.s:187    .text.osalMutexObjectInit:0000000000000000 $t
/var/folders/d2/nstgp4h54kz7g1l847x_b8wc0000gn/T//cc2TsnSH.s:193    .text.osalMutexObjectInit:0000000000000000 osalMutexObjectInit
/var/folders/d2/nstgp4h54kz7g1l847x_b8wc0000gn/T//cc2TsnSH.s:209    .text.osalMutexLock:0000000000000000 $t
/var/folders/d2/nstgp4h54kz7g1l847x_b8wc0000gn/T//cc2TsnSH.s:215    .text.osalMutexLock:0000000000000000 osalMutexLock
/var/folders/d2/nstgp4h54kz7g1l847x_b8wc0000gn/T//cc2TsnSH.s:231    .text.osalMutexUnlock:0000000000000000 $t
/var/folders/d2/nstgp4h54kz7g1l847x_b8wc0000gn/T//cc2TsnSH.s:237    .text.osalMutexUnlock:0000000000000000 osalMutexUnlock
/var/folders/d2/nstgp4h54kz7g1l847x_b8wc0000gn/T//cc2TsnSH.s:257    .bss.SPISLAVED3:0000000000000000 SPISLAVED3
/var/folders/d2/nstgp4h54kz7g1l847x_b8wc0000gn/T//cc2TsnSH.s:254    .bss.SPISLAVED3:0000000000000000 $d
/var/folders/d2/nstgp4h54kz7g1l847x_b8wc0000gn/T//cc2TsnSH.s:260    .text.spi3SlaveInit:0000000000000000 $t
/var/folders/d2/nstgp4h54kz7g1l847x_b8wc0000gn/T//cc2TsnSH.s:267    .text.spi3SlaveInit:0000000000000000 spi3SlaveInit
/var/folders/d2/nstgp4h54kz7g1l847x_b8wc0000gn/T//cc2TsnSH.s:277    .text.spi3SlaveObjectInit:0000000000000000 $t
/var/folders/d2/nstgp4h54kz7g1l847x_b8wc0000gn/T//cc2TsnSH.s:284    .text.spi3SlaveObjectInit:0000000000000000 spi3SlaveObjectInit
/var/folders/d2/nstgp4h54kz7g1l847x_b8wc0000gn/T//cc2TsnSH.s:311    .text.spi3SlaveStart:0000000000000000 $t
/var/folders/d2/nstgp4h54kz7g1l847x_b8wc0000gn/T//cc2TsnSH.s:318    .text.spi3SlaveStart:0000000000000000 spi3SlaveStart
/var/folders/d2/nstgp4h54kz7g1l847x_b8wc0000gn/T//cc2TsnSH.s:365    .text.spi3SlaveStart:0000000000000054 $d
/var/folders/d2/nstgp4h54kz7g1l847x_b8wc0000gn/T//cc2TsnSH.s:1039   .rodata.__func__.9954:0000000000000000 __func__.9954
/var/folders/d2/nstgp4h54kz7g1l847x_b8wc0000gn/T//cc2TsnSH.s:368    .text.spi3SlaveStop:0000000000000000 $t
/var/folders/d2/nstgp4h54kz7g1l847x_b8wc0000gn/T//cc2TsnSH.s:375    .text.spi3SlaveStop:0000000000000000 spi3SlaveStop
/var/folders/d2/nstgp4h54kz7g1l847x_b8wc0000gn/T//cc2TsnSH.s:414    .text.spi3SlaveStop:0000000000000048 $d
/var/folders/d2/nstgp4h54kz7g1l847x_b8wc0000gn/T//cc2TsnSH.s:1051   .rodata.__func__.9958:0000000000000000 __func__.9958
/var/folders/d2/nstgp4h54kz7g1l847x_b8wc0000gn/T//cc2TsnSH.s:417    .text.spi3SlaveStartIgnore:0000000000000000 $t
/var/folders/d2/nstgp4h54kz7g1l847x_b8wc0000gn/T//cc2TsnSH.s:424    .text.spi3SlaveStartIgnore:0000000000000000 spi3SlaveStartIgnore
/var/folders/d2/nstgp4h54kz7g1l847x_b8wc0000gn/T//cc2TsnSH.s:465    .text.spi3SlaveStartIgnore:0000000000000048 $d
/var/folders/d2/nstgp4h54kz7g1l847x_b8wc0000gn/T//cc2TsnSH.s:1057   .rodata.__func__.9963:0000000000000000 __func__.9963
/var/folders/d2/nstgp4h54kz7g1l847x_b8wc0000gn/T//cc2TsnSH.s:468    .text.spi3SlaveStartExchange:0000000000000000 $t
/var/folders/d2/nstgp4h54kz7g1l847x_b8wc0000gn/T//cc2TsnSH.s:475    .text.spi3SlaveStartExchange:0000000000000000 spi3SlaveStartExchange
/var/folders/d2/nstgp4h54kz7g1l847x_b8wc0000gn/T//cc2TsnSH.s:526    .text.spi3SlaveStartExchange:000000000000005c $d
/var/folders/d2/nstgp4h54kz7g1l847x_b8wc0000gn/T//cc2TsnSH.s:1063   .rodata.__func__.9970:0000000000000000 __func__.9970
/var/folders/d2/nstgp4h54kz7g1l847x_b8wc0000gn/T//cc2TsnSH.s:529    .text.spi3SlaveStartSend:0000000000000000 $t
/var/folders/d2/nstgp4h54kz7g1l847x_b8wc0000gn/T//cc2TsnSH.s:536    .text.spi3SlaveStartSend:0000000000000000 spi3SlaveStartSend
/var/folders/d2/nstgp4h54kz7g1l847x_b8wc0000gn/T//cc2TsnSH.s:582    .text.spi3SlaveStartSend:0000000000000054 $d
/var/folders/d2/nstgp4h54kz7g1l847x_b8wc0000gn/T//cc2TsnSH.s:1069   .rodata.__func__.9976:0000000000000000 __func__.9976
/var/folders/d2/nstgp4h54kz7g1l847x_b8wc0000gn/T//cc2TsnSH.s:585    .text.spi3SlaveStartReceive:0000000000000000 $t
/var/folders/d2/nstgp4h54kz7g1l847x_b8wc0000gn/T//cc2TsnSH.s:592    .text.spi3SlaveStartReceive:0000000000000000 spi3SlaveStartReceive
/var/folders/d2/nstgp4h54kz7g1l847x_b8wc0000gn/T//cc2TsnSH.s:638    .text.spi3SlaveStartReceive:0000000000000054 $d
/var/folders/d2/nstgp4h54kz7g1l847x_b8wc0000gn/T//cc2TsnSH.s:1075   .rodata.__func__.9982:0000000000000000 __func__.9982
/var/folders/d2/nstgp4h54kz7g1l847x_b8wc0000gn/T//cc2TsnSH.s:641    .text.spi3SlaveIgnore:0000000000000000 $t
/var/folders/d2/nstgp4h54kz7g1l847x_b8wc0000gn/T//cc2TsnSH.s:648    .text.spi3SlaveIgnore:0000000000000000 spi3SlaveIgnore
/var/folders/d2/nstgp4h54kz7g1l847x_b8wc0000gn/T//cc2TsnSH.s:701    .text.spi3SlaveIgnore:0000000000000064 $d
ARM GAS  /var/folders/d2/nstgp4h54kz7g1l847x_b8wc0000gn/T//cc2TsnSH.s 			page 23


/var/folders/d2/nstgp4h54kz7g1l847x_b8wc0000gn/T//cc2TsnSH.s:1081   .rodata.__func__.9987:0000000000000000 __func__.9987
/var/folders/d2/nstgp4h54kz7g1l847x_b8wc0000gn/T//cc2TsnSH.s:704    .text.spi3SlaveExchange:0000000000000000 $t
/var/folders/d2/nstgp4h54kz7g1l847x_b8wc0000gn/T//cc2TsnSH.s:711    .text.spi3SlaveExchange:0000000000000000 spi3SlaveExchange
/var/folders/d2/nstgp4h54kz7g1l847x_b8wc0000gn/T//cc2TsnSH.s:774    .text.spi3SlaveExchange:0000000000000078 $d
/var/folders/d2/nstgp4h54kz7g1l847x_b8wc0000gn/T//cc2TsnSH.s:1087   .rodata.__func__.9994:0000000000000000 __func__.9994
/var/folders/d2/nstgp4h54kz7g1l847x_b8wc0000gn/T//cc2TsnSH.s:777    .text.spi3SlaveSend:0000000000000000 $t
/var/folders/d2/nstgp4h54kz7g1l847x_b8wc0000gn/T//cc2TsnSH.s:784    .text.spi3SlaveSend:0000000000000000 spi3SlaveSend
/var/folders/d2/nstgp4h54kz7g1l847x_b8wc0000gn/T//cc2TsnSH.s:842    .text.spi3SlaveSend:000000000000006c $d
/var/folders/d2/nstgp4h54kz7g1l847x_b8wc0000gn/T//cc2TsnSH.s:1093   .rodata.__func__.10000:0000000000000000 __func__.10000
/var/folders/d2/nstgp4h54kz7g1l847x_b8wc0000gn/T//cc2TsnSH.s:845    .text.spi3SlaveReceive:0000000000000000 $t
/var/folders/d2/nstgp4h54kz7g1l847x_b8wc0000gn/T//cc2TsnSH.s:852    .text.spi3SlaveReceive:0000000000000000 spi3SlaveReceive
/var/folders/d2/nstgp4h54kz7g1l847x_b8wc0000gn/T//cc2TsnSH.s:910    .text.spi3SlaveReceive:000000000000006c $d
/var/folders/d2/nstgp4h54kz7g1l847x_b8wc0000gn/T//cc2TsnSH.s:1099   .rodata.__func__.10006:0000000000000000 __func__.10006
/var/folders/d2/nstgp4h54kz7g1l847x_b8wc0000gn/T//cc2TsnSH.s:913    .text.spi3SlaveAcquireBus:0000000000000000 $t
/var/folders/d2/nstgp4h54kz7g1l847x_b8wc0000gn/T//cc2TsnSH.s:920    .text.spi3SlaveAcquireBus:0000000000000000 spi3SlaveAcquireBus
/var/folders/d2/nstgp4h54kz7g1l847x_b8wc0000gn/T//cc2TsnSH.s:945    .text.spi3SlaveAcquireBus:0000000000000028 $d
/var/folders/d2/nstgp4h54kz7g1l847x_b8wc0000gn/T//cc2TsnSH.s:1105   .rodata.__func__.10010:0000000000000000 __func__.10010
/var/folders/d2/nstgp4h54kz7g1l847x_b8wc0000gn/T//cc2TsnSH.s:948    .text.spi3SlaveReleaseBus:0000000000000000 $t
/var/folders/d2/nstgp4h54kz7g1l847x_b8wc0000gn/T//cc2TsnSH.s:955    .text.spi3SlaveReleaseBus:0000000000000000 spi3SlaveReleaseBus
/var/folders/d2/nstgp4h54kz7g1l847x_b8wc0000gn/T//cc2TsnSH.s:980    .text.spi3SlaveReleaseBus:0000000000000028 $d
/var/folders/d2/nstgp4h54kz7g1l847x_b8wc0000gn/T//cc2TsnSH.s:1111   .rodata.__func__.10014:0000000000000000 __func__.10014
/var/folders/d2/nstgp4h54kz7g1l847x_b8wc0000gn/T//cc2TsnSH.s:983    .text.spi3SlaveStopExchange:0000000000000000 $t
/var/folders/d2/nstgp4h54kz7g1l847x_b8wc0000gn/T//cc2TsnSH.s:990    .text.spi3SlaveStopExchange:0000000000000000 spi3SlaveStopExchange
/var/folders/d2/nstgp4h54kz7g1l847x_b8wc0000gn/T//cc2TsnSH.s:1033   .text.spi3SlaveStopExchange:0000000000000050 $d
/var/folders/d2/nstgp4h54kz7g1l847x_b8wc0000gn/T//cc2TsnSH.s:1117   .rodata.__func__.10018:0000000000000000 __func__.10018
/var/folders/d2/nstgp4h54kz7g1l847x_b8wc0000gn/T//cc2TsnSH.s:1036   .rodata.__func__.9954:0000000000000000 $d
/var/folders/d2/nstgp4h54kz7g1l847x_b8wc0000gn/T//cc2TsnSH.s:1042   .rodata.__func__.7153:0000000000000000 $d
/var/folders/d2/nstgp4h54kz7g1l847x_b8wc0000gn/T//cc2TsnSH.s:1048   .rodata.__func__.9958:0000000000000000 $d
/var/folders/d2/nstgp4h54kz7g1l847x_b8wc0000gn/T//cc2TsnSH.s:1054   .rodata.__func__.9963:0000000000000000 $d
/var/folders/d2/nstgp4h54kz7g1l847x_b8wc0000gn/T//cc2TsnSH.s:1060   .rodata.__func__.9970:0000000000000000 $d
/var/folders/d2/nstgp4h54kz7g1l847x_b8wc0000gn/T//cc2TsnSH.s:1066   .rodata.__func__.9976:0000000000000000 $d
/var/folders/d2/nstgp4h54kz7g1l847x_b8wc0000gn/T//cc2TsnSH.s:1072   .rodata.__func__.9982:0000000000000000 $d
/var/folders/d2/nstgp4h54kz7g1l847x_b8wc0000gn/T//cc2TsnSH.s:1078   .rodata.__func__.9987:0000000000000000 $d
/var/folders/d2/nstgp4h54kz7g1l847x_b8wc0000gn/T//cc2TsnSH.s:1084   .rodata.__func__.9994:0000000000000000 $d
/var/folders/d2/nstgp4h54kz7g1l847x_b8wc0000gn/T//cc2TsnSH.s:1090   .rodata.__func__.10000:0000000000000000 $d
/var/folders/d2/nstgp4h54kz7g1l847x_b8wc0000gn/T//cc2TsnSH.s:1096   .rodata.__func__.10006:0000000000000000 $d
/var/folders/d2/nstgp4h54kz7g1l847x_b8wc0000gn/T//cc2TsnSH.s:1102   .rodata.__func__.10010:0000000000000000 $d
/var/folders/d2/nstgp4h54kz7g1l847x_b8wc0000gn/T//cc2TsnSH.s:1108   .rodata.__func__.10014:0000000000000000 $d
/var/folders/d2/nstgp4h54kz7g1l847x_b8wc0000gn/T//cc2TsnSH.s:1114   .rodata.__func__.10018:0000000000000000 $d

UNDEFINED SYMBOLS
_stats_start_measure_crit_thd
_dbg_check_lock
_dbg_check_unlock
_stats_stop_measure_crit_thd
chSysHalt
ch
chThdSuspendS
chMtxObjectInit
chMtxLock
chMtxUnlock
spi3_slave_lld_init
spi3_slave_lld_start
spi3_slave_lld_stop
spi3_slave_lld_ignore
spi3_slave_lld_exchange
spi3_slave_lld_send
ARM GAS  /var/folders/d2/nstgp4h54kz7g1l847x_b8wc0000gn/T//cc2TsnSH.s 			page 24


spi3_slave_lld_receive
spi3_slave_lld_stop_exchange
