ARM GAS  /var/folders/d2/nstgp4h54kz7g1l847x_b8wc0000gn/T//cc0ROsI1.s 			page 1


   1              		.cpu cortex-m4
   2              		.eabi_attribute 27, 1
   3              		.eabi_attribute 28, 1
   4              		.eabi_attribute 20, 1
   5              		.eabi_attribute 21, 1
   6              		.eabi_attribute 23, 3
   7              		.eabi_attribute 24, 1
   8              		.eabi_attribute 25, 1
   9              		.eabi_attribute 26, 1
  10              		.eabi_attribute 30, 2
  11              		.eabi_attribute 34, 1
  12              		.eabi_attribute 18, 4
  13              		.file	"spi_comm.c"
  14              		.text
  15              	.Ltext0:
  16              		.cfi_sections	.debug_frame
  17              		.section	.text.spi_thread,"ax",%progbits
  18              		.align	1
  19              		.p2align 4,,15
  20              		.syntax unified
  21              		.thumb
  22              		.thumb_func
  23              		.fpu fpv4-sp-d16
  24              		.type	spi_thread, %function
  25              	spi_thread:
  26              	.LFB257:
  27              		.file 1 "../e-puck2_main-processor/src/spi_comm.c"
  28              		.loc 1 25 0
  29              		.cfi_startproc
  30              		@ args = 0, pretend = 0, frame = 16
  31              		@ frame_needed = 0, uses_anonymous_args = 0
  32              	.LVL0:
  33 0000 2DE9F04F 		push	{r4, r5, r6, r7, r8, r9, r10, fp, lr}
  34              		.cfi_def_cfa_offset 36
  35              		.cfi_offset 4, -36
  36              		.cfi_offset 5, -32
  37              		.cfi_offset 6, -28
  38              		.cfi_offset 7, -24
  39              		.cfi_offset 8, -20
  40              		.cfi_offset 9, -16
  41              		.cfi_offset 10, -12
  42              		.cfi_offset 11, -8
  43              		.cfi_offset 14, -4
  44              	.LBB92:
  45              	.LBB93:
  46              		.file 2 "../e-puck2_main-processor/ChibiOS//os/rt/include/chregistry.h"
  47              		.loc 2 135 0
  48 0004 884C     		ldr	r4, .L42
  49              	.LBE93:
  50              	.LBE92:
  51              		.loc 1 25 0
  52 0006 894A     		ldr	r2, .L42+4
  53              	.LBB96:
  54              	.LBB94:
  55              		.loc 2 135 0
  56 0008 A369     		ldr	r3, [r4, #24]
  57 000a 8949     		ldr	r1, .L42+8
ARM GAS  /var/folders/d2/nstgp4h54kz7g1l847x_b8wc0000gn/T//cc0ROsI1.s 			page 2


  58              	.LBE94:
  59              	.LBE96:
  60              		.loc 1 25 0
  61 000c 1268     		ldr	r2, [r2]
  62              	.LBB97:
  63              	.LBB95:
  64              		.loc 2 135 0
  65 000e 9961     		str	r1, [r3, #24]
  66              	.LBE95:
  67              	.LBE97:
  68              		.loc 1 25 0
  69 0010 85B0     		sub	sp, sp, #20
  70              		.cfi_def_cfa_offset 56
  71              		.loc 1 30 0
  72 0012 0023     		movs	r3, #0
  73              		.loc 1 36 0
  74 0014 3220     		movs	r0, #50
  75              	.LVL1:
  76              		.loc 1 25 0
  77 0016 0392     		str	r2, [sp, #12]
  78              	.LVL2:
  79              		.loc 1 30 0
  80 0018 0293     		str	r3, [sp, #8]
  81              	.LVL3:
  82              		.loc 1 36 0
  83 001a FFF7FEFF 		bl	chThdSleep
  84              	.LVL4:
  85 001e DFF83082 		ldr	r8, .L42+40
  86 0022 DFF830A2 		ldr	r10, .L42+44
  87 0026 DFF81C92 		ldr	r9, .L42+28
  88 002a DFF80CB2 		ldr	fp, .L42+16
  89              	.LBB98:
  90              	.LBB99:
  91              	.LBB100:
  92              	.LBB101:
  93              	.LBB102:
  94              	.LBB103:
  95              	.LBB104:
  96              		.file 3 "../e-puck2_main-processor/ChibiOS//os/ext/CMSIS/include/core_cmFunc.h"
  97              		.loc 3 546 0
  98 002e 2025     		movs	r5, #32
  99              	.LVL5:
 100              	.L2:
 101              		.syntax unified
 102              	@ 546 "../e-puck2_main-processor/ChibiOS//os/ext/CMSIS/include/core_cmFunc.h" 1
 103 0030 85F31188 		MSR basepri, r5
 104              	@ 0 "" 2
 105              	.LVL6:
 106              		.thumb
 107              		.syntax unified
 108              	.LBE104:
 109              	.LBE103:
 110              	.LBE102:
 111              		.file 4 "../e-puck2_main-processor/ChibiOS//os/rt/include/chsys.h"
 112              		.loc 4 349 0
 113 0034 FFF7FEFF 		bl	_stats_start_measure_crit_thd
 114              	.LVL7:
ARM GAS  /var/folders/d2/nstgp4h54kz7g1l847x_b8wc0000gn/T//cc0ROsI1.s 			page 3


 115              		.loc 4 350 0
 116 0038 FFF7FEFF 		bl	_dbg_check_lock
 117              	.LVL8:
 118              	.LBE101:
 119              	.LBE100:
 120              	.LBB105:
 121              	.LBB106:
 122              		.file 5 "../e-puck2_main-processor/ChibiOS//os/rt/include/chvt.h"
 123              		.loc 5 231 0
 124 003c A66A     		ldr	r6, [r4, #40]
 125              	.LBE106:
 126              	.LBE105:
 127              	.LBB107:
 128              	.LBB108:
 129              		.loc 4 360 0
 130 003e FFF7FEFF 		bl	_dbg_check_unlock
 131              	.LVL9:
 132              		.loc 4 361 0
 133 0042 FFF7FEFF 		bl	_stats_stop_measure_crit_thd
 134              	.LVL10:
 135              		.loc 4 367 0
 136 0046 2368     		ldr	r3, [r4]
 137 0048 A342     		cmp	r3, r4
 138 004a 07D0     		beq	.L3
 139 004c A269     		ldr	r2, [r4, #24]
 140 004e 9B68     		ldr	r3, [r3, #8]
 141 0050 9268     		ldr	r2, [r2, #8]
 142 0052 9A42     		cmp	r2, r3
 143 0054 02D2     		bcs	.L3
 144 0056 7748     		ldr	r0, .L42+12
 145 0058 FFF7FEFF 		bl	chSysHalt
 146              	.LVL11:
 147              	.L3:
 148              	.LBB109:
 149              	.LBB110:
 150              	.LBB111:
 151              		.loc 3 546 0
 152 005c 0023     		movs	r3, #0
 153              		.syntax unified
 154              	@ 546 "../e-puck2_main-processor/ChibiOS//os/ext/CMSIS/include/core_cmFunc.h" 1
 155 005e 83F31188 		MSR basepri, r3
 156              	@ 0 "" 2
 157              	.LVL12:
 158              		.thumb
 159              		.syntax unified
 160              	.LBE111:
 161              	.LBE110:
 162              	.LBE109:
 163              	.LBE108:
 164              	.LBE107:
 165              	.LBE99:
 166              	.LBE98:
 167              	.LBB112:
 168              	.LBB113:
 169              	.LBB114:
 170              	.LBB115:
 171              	.LBB116:
ARM GAS  /var/folders/d2/nstgp4h54kz7g1l847x_b8wc0000gn/T//cc0ROsI1.s 			page 4


 172              		.syntax unified
 173              	@ 546 "../e-puck2_main-processor/ChibiOS//os/ext/CMSIS/include/core_cmFunc.h" 1
 174 0062 85F31188 		MSR basepri, r5
 175              	@ 0 "" 2
 176              	.LVL13:
 177              		.thumb
 178              		.syntax unified
 179              	.LBE116:
 180              	.LBE115:
 181              	.LBE114:
 182              		.loc 4 349 0
 183 0066 FFF7FEFF 		bl	_stats_start_measure_crit_thd
 184              	.LVL14:
 185              		.loc 4 350 0
 186 006a FFF7FEFF 		bl	_dbg_check_lock
 187              	.LVL15:
 188              	.LBE113:
 189              	.LBE112:
 190              		.loc 1 98 0
 191 006e 98F80030 		ldrb	r3, [r8]	@ zero_extendqisi2
 192 0072 012B     		cmp	r3, #1
 193 0074 00F0A380 		beq	.L38
 194              	.L4:
 195              	.LBB117:
 196              	.LBB118:
 197              		.loc 4 360 0
 198 0078 FFF7FEFF 		bl	_dbg_check_unlock
 199              	.LVL16:
 200              		.loc 4 361 0
 201 007c FFF7FEFF 		bl	_stats_stop_measure_crit_thd
 202              	.LVL17:
 203              		.loc 4 367 0
 204 0080 2368     		ldr	r3, [r4]
 205 0082 A342     		cmp	r3, r4
 206 0084 07D0     		beq	.L5
 207 0086 A269     		ldr	r2, [r4, #24]
 208 0088 9B68     		ldr	r3, [r3, #8]
 209 008a 9268     		ldr	r2, [r2, #8]
 210 008c 9A42     		cmp	r2, r3
 211 008e 02D2     		bcs	.L5
 212 0090 6848     		ldr	r0, .L42+12
 213 0092 FFF7FEFF 		bl	chSysHalt
 214              	.LVL18:
 215              	.L5:
 216              	.LBB119:
 217              	.LBB120:
 218              	.LBB121:
 219              		.loc 3 546 0
 220 0096 0023     		movs	r3, #0
 221              		.syntax unified
 222              	@ 546 "../e-puck2_main-processor/ChibiOS//os/ext/CMSIS/include/core_cmFunc.h" 1
 223 0098 83F31188 		MSR basepri, r3
 224              	@ 0 "" 2
 225              	.LVL19:
 226              		.thumb
 227              		.syntax unified
 228              	.LBE121:
ARM GAS  /var/folders/d2/nstgp4h54kz7g1l847x_b8wc0000gn/T//cc0ROsI1.s 			page 5


 229              	.LBE120:
 230              	.LBE119:
 231              	.LBE118:
 232              	.LBE117:
 233              		.loc 1 103 0
 234 009c 9AF80030 		ldrb	r3, [r10]	@ zero_extendqisi2
 235 00a0 012B     		cmp	r3, #1
 236 00a2 06D1     		bne	.L6
 237              		.loc 1 106 0
 238 00a4 FFF7FEFF 		bl	dcmi_capture_start
 239              	.LVL20:
 240              		.loc 1 107 0
 241 00a8 FFF7FEFF 		bl	wait_image_ready
 242              	.LVL21:
 243 00ac 0028     		cmp	r0, #0
 244 00ae 40F08A80 		bne	.L39
 245              	.L6:
 246              		.loc 1 113 0
 247 00b2 40F6FC72 		movw	r2, #4092
 248 00b6 FF21     		movs	r1, #255
 249 00b8 5F48     		ldr	r0, .L42+16
 250 00ba FFF7FEFF 		bl	memset
 251              	.LVL22:
 252              		.loc 1 114 0
 253 00be 5F4B     		ldr	r3, .L42+20
 254 00c0 1B78     		ldrb	r3, [r3]	@ zero_extendqisi2
 255 00c2 012B     		cmp	r3, #1
 256 00c4 77D0     		beq	.L40
 257              		.loc 1 117 0
 258 00c6 4FF06533 		mov	r3, #1701143909
 259 00ca C9E90033 		strd	r3, r3, [r9]
 260 00ce C9F80830 		str	r3, [r9, #8]
 261              	.L9:
 262              		.loc 1 120 0
 263 00d2 5B48     		ldr	r0, .L42+24
 264 00d4 FFF7FEFF 		bl	spiSelect
 265              	.LVL23:
 266              		.loc 1 121 0
 267 00d8 574B     		ldr	r3, .L42+16
 268 00da 5A4A     		ldr	r2, .L42+28
 269 00dc 5848     		ldr	r0, .L42+24
 270 00de 0C21     		movs	r1, #12
 271 00e0 FFF7FEFF 		bl	spiExchange
 272              	.LVL24:
 273              		.loc 1 122 0
 274 00e4 5648     		ldr	r0, .L42+24
 275 00e6 FFF7FEFF 		bl	spiUnselect
 276              	.LVL25:
 277              		.loc 1 125 0
 278 00ea 0023     		movs	r3, #0
 279 00ec 0293     		str	r3, [sp, #8]
 280 00ee 029B     		ldr	r3, [sp, #8]
 281 00f0 42F20F72 		movw	r2, #9999
 282 00f4 9342     		cmp	r3, r2
 283 00f6 06D8     		bhi	.L10
 284              	.L11:
 285              	.LBB122:
ARM GAS  /var/folders/d2/nstgp4h54kz7g1l847x_b8wc0000gn/T//cc0ROsI1.s 			page 6


 286              	.LBB123:
 287              		.file 6 "../e-puck2_main-processor/ChibiOS//os/ext/CMSIS/include/core_cmInstr.h"
 288              		.loc 6 327 0
 289              		.syntax unified
 290              	@ 327 "../e-puck2_main-processor/ChibiOS//os/ext/CMSIS/include/core_cmInstr.h" 1
 291 00f8 00BF     		nop
 292              	@ 0 "" 2
 293              		.thumb
 294              		.syntax unified
 295              	.LBE123:
 296              	.LBE122:
 297              		.loc 1 125 0
 298 00fa 029B     		ldr	r3, [sp, #8]
 299 00fc 0133     		adds	r3, r3, #1
 300 00fe 0293     		str	r3, [sp, #8]
 301 0100 029B     		ldr	r3, [sp, #8]
 302 0102 9342     		cmp	r3, r2
 303 0104 F8D9     		bls	.L11
 304              	.L10:
 305              		.loc 1 129 0
 306 0106 9BF80000 		ldrb	r0, [fp]	@ zero_extendqisi2
 307 010a FFF7FEFF 		bl	button_set_state
 308              	.LVL26:
 309              		.loc 1 131 0
 310 010e 9AF80030 		ldrb	r3, [r10]	@ zero_extendqisi2
 311 0112 012B     		cmp	r3, #1
 312 0114 49D1     		bne	.L12
 313              		.loc 1 132 0
 314 0116 9BF80130 		ldrb	r3, [fp, #1]	@ zero_extendqisi2
 315 011a B72B     		cmp	r3, #183
 316 011c 88D1     		bne	.L2
 317              		.loc 1 134 0
 318 011e FFF7FEFF 		bl	cam_get_image_size
 319              	.LVL27:
 320 0122 494E     		ldr	r6, .L42+32
 321 0124 8308     		lsrs	r3, r0, #2
 322 0126 A6FB0323 		umull	r2, r3, r6, r3
 323 012a C3F3CF17 		ubfx	r7, r3, #7, #16
 324 012e 0097     		str	r7, [sp]
 325              	.LVL28:
 326              		.loc 1 135 0
 327 0130 FFF7FEFF 		bl	cam_get_image_size
 328              	.LVL29:
 329 0134 8308     		lsrs	r3, r0, #2
 330 0136 A6FB0323 		umull	r2, r3, r6, r3
 331 013a DB09     		lsrs	r3, r3, #7
 332 013c C3EB8323 		rsb	r3, r3, r3, lsl #10
 333 0140 A0EB8303 		sub	r3, r0, r3, lsl #2
 334 0144 0193     		str	r3, [sp, #4]
 335              	.LVL30:
 336              		.loc 1 139 0
 337 0146 FFF7FEFF 		bl	cam_get_last_image_ptr
 338              	.LVL31:
 339 014a 404B     		ldr	r3, .L42+36
 340 014c 1860     		str	r0, [r3]
 341              	.LVL32:
 342              		.loc 1 144 0
ARM GAS  /var/folders/d2/nstgp4h54kz7g1l847x_b8wc0000gn/T//cc0ROsI1.s 			page 7


 343 014e 3FB3     		cbz	r7, .L13
 344 0150 0027     		movs	r7, #0
 345              	.LVL33:
 346 0152 3E46     		mov	r6, r7
 347              	.LVL34:
 348              	.L18:
 349              		.loc 1 145 0
 350 0154 3A48     		ldr	r0, .L42+24
 351 0156 FFF7FEFF 		bl	spiSelect
 352              	.LVL35:
 353              		.loc 1 146 0
 354 015a 3C4B     		ldr	r3, .L42+36
 355 015c 3848     		ldr	r0, .L42+24
 356 015e 1A68     		ldr	r2, [r3]
 357 0160 354B     		ldr	r3, .L42+16
 358 0162 3A44     		add	r2, r2, r7
 359 0164 40F6FC71 		movw	r1, #4092
 360 0168 FFF7FEFF 		bl	spiExchange
 361              	.LVL36:
 362              		.loc 1 147 0
 363 016c 3448     		ldr	r0, .L42+24
 364 016e FFF7FEFF 		bl	spiUnselect
 365              	.LVL37:
 366              		.loc 1 152 0
 367 0172 0023     		movs	r3, #0
 368 0174 0293     		str	r3, [sp, #8]
 369              		.loc 1 151 0
 370 0176 062E     		cmp	r6, #6
 371              		.loc 1 152 0
 372 0178 029B     		ldr	r3, [sp, #8]
 373              		.loc 1 151 0
 374 017a 48D9     		bls	.L14
 375              		.loc 1 152 0
 376 017c 43F69722 		movw	r2, #14999
 377 0180 9342     		cmp	r3, r2
 378 0182 06D8     		bhi	.L15
 379              	.L16:
 380              	.LBB124:
 381              	.LBB125:
 382              		.loc 6 327 0
 383              		.syntax unified
 384              	@ 327 "../e-puck2_main-processor/ChibiOS//os/ext/CMSIS/include/core_cmInstr.h" 1
 385 0184 00BF     		nop
 386              	@ 0 "" 2
 387              		.thumb
 388              		.syntax unified
 389              	.LBE125:
 390              	.LBE124:
 391              		.loc 1 152 0
 392 0186 029B     		ldr	r3, [sp, #8]
 393 0188 0133     		adds	r3, r3, #1
 394 018a 0293     		str	r3, [sp, #8]
 395 018c 029B     		ldr	r3, [sp, #8]
 396 018e 9342     		cmp	r3, r2
 397 0190 F8D9     		bls	.L16
 398              	.L15:
 399              	.LVL38:
ARM GAS  /var/folders/d2/nstgp4h54kz7g1l847x_b8wc0000gn/T//cc0ROsI1.s 			page 8


 400 0192 0136     		adds	r6, r6, #1
 401              	.LVL39:
 402              		.loc 1 144 0
 403 0194 009A     		ldr	r2, [sp]
 404 0196 B3B2     		uxth	r3, r6
 405 0198 9A42     		cmp	r2, r3
 406 019a 07F6FC77 		addw	r7, r7, #4092
 407 019e D9D8     		bhi	.L18
 408              	.L13:
 409              		.loc 1 168 0
 410 01a0 019B     		ldr	r3, [sp, #4]
 411 01a2 9BB9     		cbnz	r3, .L41
 412              	.L19:
 413              		.loc 1 184 0
 414 01a4 FFF7FEFF 		bl	dcmi_release_last_image_ptr
 415              	.LVL40:
 416 01a8 42E7     		b	.L2
 417              	.LVL41:
 418              	.L12:
 419              		.loc 1 190 0
 420 01aa 06F13201 		add	r1, r6, #50
 421 01ae 3046     		mov	r0, r6
 422 01b0 FFF7FEFF 		bl	chThdSleepUntilWindowed
 423              	.LVL42:
 424 01b4 3CE7     		b	.L2
 425              	.L40:
 426              		.loc 1 115 0
 427 01b6 2348     		ldr	r0, .L42+28
 428 01b8 FFF7FEFF 		bl	get_all_rgb_state
 429              	.LVL43:
 430 01bc 89E7     		b	.L9
 431              	.L38:
 432              		.loc 1 99 0
 433 01be 0320     		movs	r0, #3
 434 01c0 FFF7FEFF 		bl	chSchGoSleepS
 435              	.LVL44:
 436 01c4 58E7     		b	.L4
 437              	.L39:
 438              		.loc 1 108 0
 439 01c6 FFF7FEFF 		bl	dcmi_restart
 440              	.LVL45:
 441              		.loc 1 109 0
 442 01ca 31E7     		b	.L2
 443              	.LVL46:
 444              	.L41:
 445              		.loc 1 169 0
 446 01cc 1C48     		ldr	r0, .L42+24
 447 01ce FFF7FEFF 		bl	spiSelect
 448              	.LVL47:
 449              		.loc 1 170 0
 450 01d2 1E4B     		ldr	r3, .L42+36
 451 01d4 009A     		ldr	r2, [sp]
 452 01d6 1E68     		ldr	r6, [r3]
 453 01d8 1948     		ldr	r0, .L42+24
 454 01da 174B     		ldr	r3, .L42+16
 455 01dc 0199     		ldr	r1, [sp, #4]
 456 01de C2EB8222 		rsb	r2, r2, r2, lsl #10
ARM GAS  /var/folders/d2/nstgp4h54kz7g1l847x_b8wc0000gn/T//cc0ROsI1.s 			page 9


 457 01e2 06EB8202 		add	r2, r6, r2, lsl #2
 458 01e6 FFF7FEFF 		bl	spiExchange
 459              	.LVL48:
 460              		.loc 1 171 0
 461 01ea 1548     		ldr	r0, .L42+24
 462 01ec FFF7FEFF 		bl	spiUnselect
 463              	.LVL49:
 464              		.loc 1 174 0
 465 01f0 0023     		movs	r3, #0
 466 01f2 0293     		str	r3, [sp, #8]
 467 01f4 029B     		ldr	r3, [sp, #8]
 468 01f6 43F69722 		movw	r2, #14999
 469 01fa 9342     		cmp	r3, r2
 470 01fc D2D8     		bhi	.L19
 471              	.L20:
 472              	.LBB126:
 473              	.LBB127:
 474              		.loc 6 327 0
 475              		.syntax unified
 476              	@ 327 "../e-puck2_main-processor/ChibiOS//os/ext/CMSIS/include/core_cmInstr.h" 1
 477 01fe 00BF     		nop
 478              	@ 0 "" 2
 479              		.thumb
 480              		.syntax unified
 481              	.LBE127:
 482              	.LBE126:
 483              		.loc 1 174 0
 484 0200 029B     		ldr	r3, [sp, #8]
 485 0202 0133     		adds	r3, r3, #1
 486 0204 0293     		str	r3, [sp, #8]
 487 0206 029B     		ldr	r3, [sp, #8]
 488 0208 9342     		cmp	r3, r2
 489 020a F8D9     		bls	.L20
 490 020c CAE7     		b	.L19
 491              	.LVL50:
 492              	.L14:
 493              		.loc 1 157 0
 494 020e 41F28732 		movw	r2, #4999
 495 0212 9342     		cmp	r3, r2
 496 0214 BDD8     		bhi	.L15
 497              	.L17:
 498              	.LBB128:
 499              	.LBB129:
 500              		.loc 6 327 0
 501              		.syntax unified
 502              	@ 327 "../e-puck2_main-processor/ChibiOS//os/ext/CMSIS/include/core_cmInstr.h" 1
 503 0216 00BF     		nop
 504              	@ 0 "" 2
 505              		.thumb
 506              		.syntax unified
 507              	.LBE129:
 508              	.LBE128:
 509              		.loc 1 157 0
 510 0218 029B     		ldr	r3, [sp, #8]
 511 021a 0133     		adds	r3, r3, #1
 512 021c 0293     		str	r3, [sp, #8]
 513 021e 029B     		ldr	r3, [sp, #8]
ARM GAS  /var/folders/d2/nstgp4h54kz7g1l847x_b8wc0000gn/T//cc0ROsI1.s 			page 10


 514 0220 9342     		cmp	r3, r2
 515 0222 F8D9     		bls	.L17
 516 0224 B5E7     		b	.L15
 517              	.L43:
 518 0226 00BF     		.align	2
 519              	.L42:
 520 0228 00000000 		.word	ch
 521 022c 00000000 		.word	__stack_chk_guard
 522 0230 00000000 		.word	.LC0
 523 0234 00000000 		.word	.LANCHOR0
 524 0238 00000000 		.word	.LANCHOR3
 525 023c 00000000 		.word	.LANCHOR4
 526 0240 00000000 		.word	SPID1
 527 0244 00000000 		.word	.LANCHOR5
 528 0248 01020820 		.word	537395713
 529 024c 00000000 		.word	.LANCHOR6
 530 0250 00000000 		.word	.LANCHOR1
 531 0254 00000000 		.word	.LANCHOR2
 532              		.cfi_endproc
 533              	.LFE257:
 534              		.size	spi_thread, .-spi_thread
 535              		.section	.text.spi_comm_start,"ax",%progbits
 536              		.align	1
 537              		.p2align 4,,15
 538              		.global	spi_comm_start
 539              		.syntax unified
 540              		.thumb
 541              		.thumb_func
 542              		.fpu fpv4-sp-d16
 543              		.type	spi_comm_start, %function
 544              	spi_comm_start:
 545              	.LFB258:
 546              		.loc 1 197 0
 547              		.cfi_startproc
 548              		@ args = 0, pretend = 0, frame = 8
 549              		@ frame_needed = 0, uses_anonymous_args = 0
 550 0000 10B5     		push	{r4, lr}
 551              		.cfi_def_cfa_offset 8
 552              		.cfi_offset 4, -8
 553              		.cfi_offset 14, -4
 554 0002 0D4C     		ldr	r4, .L48
 555              		.loc 1 207 0
 556 0004 0D49     		ldr	r1, .L48+4
 557              		.loc 1 197 0
 558 0006 2368     		ldr	r3, [r4]
 559              		.loc 1 207 0
 560 0008 0D48     		ldr	r0, .L48+8
 561              		.loc 1 197 0
 562 000a 84B0     		sub	sp, sp, #16
 563              		.cfi_def_cfa_offset 24
 564              		.loc 1 197 0
 565 000c 0393     		str	r3, [sp, #12]
 566              		.loc 1 207 0
 567 000e FFF7FEFF 		bl	spiStart
 568              	.LVL51:
 569              		.loc 1 208 0
 570 0012 0023     		movs	r3, #0
ARM GAS  /var/folders/d2/nstgp4h54kz7g1l847x_b8wc0000gn/T//cc0ROsI1.s 			page 11


 571 0014 0093     		str	r3, [sp]
 572 0016 4022     		movs	r2, #64
 573 0018 0A4B     		ldr	r3, .L48+12
 574 001a 0B48     		ldr	r0, .L48+16
 575 001c 4FF4AF61 		mov	r1, #1400
 576 0020 FFF7FEFF 		bl	chThdCreateStatic
 577              	.LVL52:
 578              		.loc 1 209 0
 579 0024 039A     		ldr	r2, [sp, #12]
 580 0026 2368     		ldr	r3, [r4]
 581              		.loc 1 208 0
 582 0028 0849     		ldr	r1, .L48+20
 583              		.loc 1 209 0
 584 002a 9A42     		cmp	r2, r3
 585              		.loc 1 208 0
 586 002c 0860     		str	r0, [r1]
 587              		.loc 1 209 0
 588 002e 01D1     		bne	.L47
 589 0030 04B0     		add	sp, sp, #16
 590              		.cfi_remember_state
 591              		.cfi_def_cfa_offset 8
 592              		@ sp needed
 593 0032 10BD     		pop	{r4, pc}
 594              	.L47:
 595              		.cfi_restore_state
 596 0034 FFF7FEFF 		bl	__stack_chk_fail
 597              	.LVL53:
 598              	.L49:
 599              		.align	2
 600              	.L48:
 601 0038 00000000 		.word	__stack_chk_guard
 602 003c 00000000 		.word	.LANCHOR7
 603 0040 00000000 		.word	SPID1
 604 0044 00000000 		.word	spi_thread
 605 0048 00000000 		.word	.LANCHOR8
 606 004c 00000000 		.word	.LANCHOR9
 607              		.cfi_endproc
 608              	.LFE258:
 609              		.size	spi_comm_start, .-spi_comm_start
 610              		.section	.text.spi_image_transfer_enable,"ax",%progbits
 611              		.align	1
 612              		.p2align 4,,15
 613              		.global	spi_image_transfer_enable
 614              		.syntax unified
 615              		.thumb
 616              		.thumb_func
 617              		.fpu fpv4-sp-d16
 618              		.type	spi_image_transfer_enable, %function
 619              	spi_image_transfer_enable:
 620              	.LFB259:
 621              		.loc 1 211 0
 622              		.cfi_startproc
 623              		@ args = 0, pretend = 0, frame = 8
 624              		@ frame_needed = 0, uses_anonymous_args = 0
 625 0000 00B5     		push	{lr}
 626              		.cfi_def_cfa_offset 4
 627              		.cfi_offset 14, -4
ARM GAS  /var/folders/d2/nstgp4h54kz7g1l847x_b8wc0000gn/T//cc0ROsI1.s 			page 12


 628 0002 084B     		ldr	r3, .L54
 629              		.loc 1 212 0
 630 0004 0849     		ldr	r1, .L54+4
 631              		.loc 1 211 0
 632 0006 1A68     		ldr	r2, [r3]
 633 0008 83B0     		sub	sp, sp, #12
 634              		.cfi_def_cfa_offset 16
 635              		.loc 1 212 0
 636 000a 0120     		movs	r0, #1
 637              		.loc 1 211 0
 638 000c 0192     		str	r2, [sp, #4]
 639              		.loc 1 213 0
 640 000e 019A     		ldr	r2, [sp, #4]
 641 0010 1B68     		ldr	r3, [r3]
 642              		.loc 1 212 0
 643 0012 0870     		strb	r0, [r1]
 644              		.loc 1 213 0
 645 0014 9A42     		cmp	r2, r3
 646 0016 02D1     		bne	.L53
 647 0018 03B0     		add	sp, sp, #12
 648              		.cfi_remember_state
 649              		.cfi_def_cfa_offset 4
 650              		@ sp needed
 651 001a 5DF804FB 		ldr	pc, [sp], #4
 652              	.L53:
 653              		.cfi_restore_state
 654 001e FFF7FEFF 		bl	__stack_chk_fail
 655              	.LVL54:
 656              	.L55:
 657 0022 00BF     		.align	2
 658              	.L54:
 659 0024 00000000 		.word	__stack_chk_guard
 660 0028 00000000 		.word	.LANCHOR2
 661              		.cfi_endproc
 662              	.LFE259:
 663              		.size	spi_image_transfer_enable, .-spi_image_transfer_enable
 664              		.section	.text.spi_image_transfer_disable,"ax",%progbits
 665              		.align	1
 666              		.p2align 4,,15
 667              		.global	spi_image_transfer_disable
 668              		.syntax unified
 669              		.thumb
 670              		.thumb_func
 671              		.fpu fpv4-sp-d16
 672              		.type	spi_image_transfer_disable, %function
 673              	spi_image_transfer_disable:
 674              	.LFB260:
 675              		.loc 1 215 0
 676              		.cfi_startproc
 677              		@ args = 0, pretend = 0, frame = 8
 678              		@ frame_needed = 0, uses_anonymous_args = 0
 679 0000 00B5     		push	{lr}
 680              		.cfi_def_cfa_offset 4
 681              		.cfi_offset 14, -4
 682 0002 084B     		ldr	r3, .L60
 683              		.loc 1 216 0
 684 0004 0849     		ldr	r1, .L60+4
ARM GAS  /var/folders/d2/nstgp4h54kz7g1l847x_b8wc0000gn/T//cc0ROsI1.s 			page 13


 685              		.loc 1 215 0
 686 0006 1A68     		ldr	r2, [r3]
 687 0008 83B0     		sub	sp, sp, #12
 688              		.cfi_def_cfa_offset 16
 689              		.loc 1 216 0
 690 000a 0020     		movs	r0, #0
 691              		.loc 1 215 0
 692 000c 0192     		str	r2, [sp, #4]
 693              		.loc 1 217 0
 694 000e 019A     		ldr	r2, [sp, #4]
 695 0010 1B68     		ldr	r3, [r3]
 696              		.loc 1 216 0
 697 0012 0870     		strb	r0, [r1]
 698              		.loc 1 217 0
 699 0014 9A42     		cmp	r2, r3
 700 0016 02D1     		bne	.L59
 701 0018 03B0     		add	sp, sp, #12
 702              		.cfi_remember_state
 703              		.cfi_def_cfa_offset 4
 704              		@ sp needed
 705 001a 5DF804FB 		ldr	pc, [sp], #4
 706              	.L59:
 707              		.cfi_restore_state
 708 001e FFF7FEFF 		bl	__stack_chk_fail
 709              	.LVL55:
 710              	.L61:
 711 0022 00BF     		.align	2
 712              	.L60:
 713 0024 00000000 		.word	__stack_chk_guard
 714 0028 00000000 		.word	.LANCHOR2
 715              		.cfi_endproc
 716              	.LFE260:
 717              		.size	spi_image_transfer_disable, .-spi_image_transfer_disable
 718              		.section	.text.spi_rgb_setting_enable,"ax",%progbits
 719              		.align	1
 720              		.p2align 4,,15
 721              		.global	spi_rgb_setting_enable
 722              		.syntax unified
 723              		.thumb
 724              		.thumb_func
 725              		.fpu fpv4-sp-d16
 726              		.type	spi_rgb_setting_enable, %function
 727              	spi_rgb_setting_enable:
 728              	.LFB261:
 729              		.loc 1 219 0
 730              		.cfi_startproc
 731              		@ args = 0, pretend = 0, frame = 8
 732              		@ frame_needed = 0, uses_anonymous_args = 0
 733 0000 00B5     		push	{lr}
 734              		.cfi_def_cfa_offset 4
 735              		.cfi_offset 14, -4
 736 0002 084B     		ldr	r3, .L66
 737              		.loc 1 220 0
 738 0004 0849     		ldr	r1, .L66+4
 739              		.loc 1 219 0
 740 0006 1A68     		ldr	r2, [r3]
 741 0008 83B0     		sub	sp, sp, #12
ARM GAS  /var/folders/d2/nstgp4h54kz7g1l847x_b8wc0000gn/T//cc0ROsI1.s 			page 14


 742              		.cfi_def_cfa_offset 16
 743              		.loc 1 220 0
 744 000a 0120     		movs	r0, #1
 745              		.loc 1 219 0
 746 000c 0192     		str	r2, [sp, #4]
 747              		.loc 1 221 0
 748 000e 019A     		ldr	r2, [sp, #4]
 749 0010 1B68     		ldr	r3, [r3]
 750              		.loc 1 220 0
 751 0012 0870     		strb	r0, [r1]
 752              		.loc 1 221 0
 753 0014 9A42     		cmp	r2, r3
 754 0016 02D1     		bne	.L65
 755 0018 03B0     		add	sp, sp, #12
 756              		.cfi_remember_state
 757              		.cfi_def_cfa_offset 4
 758              		@ sp needed
 759 001a 5DF804FB 		ldr	pc, [sp], #4
 760              	.L65:
 761              		.cfi_restore_state
 762 001e FFF7FEFF 		bl	__stack_chk_fail
 763              	.LVL56:
 764              	.L67:
 765 0022 00BF     		.align	2
 766              	.L66:
 767 0024 00000000 		.word	__stack_chk_guard
 768 0028 00000000 		.word	.LANCHOR4
 769              		.cfi_endproc
 770              	.LFE261:
 771              		.size	spi_rgb_setting_enable, .-spi_rgb_setting_enable
 772              		.section	.text.spi_rgb_setting_disable,"ax",%progbits
 773              		.align	1
 774              		.p2align 4,,15
 775              		.global	spi_rgb_setting_disable
 776              		.syntax unified
 777              		.thumb
 778              		.thumb_func
 779              		.fpu fpv4-sp-d16
 780              		.type	spi_rgb_setting_disable, %function
 781              	spi_rgb_setting_disable:
 782              	.LFB262:
 783              		.loc 1 223 0
 784              		.cfi_startproc
 785              		@ args = 0, pretend = 0, frame = 8
 786              		@ frame_needed = 0, uses_anonymous_args = 0
 787 0000 00B5     		push	{lr}
 788              		.cfi_def_cfa_offset 4
 789              		.cfi_offset 14, -4
 790 0002 084B     		ldr	r3, .L72
 791              		.loc 1 224 0
 792 0004 0849     		ldr	r1, .L72+4
 793              		.loc 1 223 0
 794 0006 1A68     		ldr	r2, [r3]
 795 0008 83B0     		sub	sp, sp, #12
 796              		.cfi_def_cfa_offset 16
 797              		.loc 1 224 0
 798 000a 0020     		movs	r0, #0
ARM GAS  /var/folders/d2/nstgp4h54kz7g1l847x_b8wc0000gn/T//cc0ROsI1.s 			page 15


 799              		.loc 1 223 0
 800 000c 0192     		str	r2, [sp, #4]
 801              		.loc 1 225 0
 802 000e 019A     		ldr	r2, [sp, #4]
 803 0010 1B68     		ldr	r3, [r3]
 804              		.loc 1 224 0
 805 0012 0870     		strb	r0, [r1]
 806              		.loc 1 225 0
 807 0014 9A42     		cmp	r2, r3
 808 0016 02D1     		bne	.L71
 809 0018 03B0     		add	sp, sp, #12
 810              		.cfi_remember_state
 811              		.cfi_def_cfa_offset 4
 812              		@ sp needed
 813 001a 5DF804FB 		ldr	pc, [sp], #4
 814              	.L71:
 815              		.cfi_restore_state
 816 001e FFF7FEFF 		bl	__stack_chk_fail
 817              	.LVL57:
 818              	.L73:
 819 0022 00BF     		.align	2
 820              	.L72:
 821 0024 00000000 		.word	__stack_chk_guard
 822 0028 00000000 		.word	.LANCHOR4
 823              		.cfi_endproc
 824              	.LFE262:
 825              		.size	spi_rgb_setting_disable, .-spi_rgb_setting_disable
 826              		.section	.text.spi_rgb_setting_is_enabled,"ax",%progbits
 827              		.align	1
 828              		.p2align 4,,15
 829              		.global	spi_rgb_setting_is_enabled
 830              		.syntax unified
 831              		.thumb
 832              		.thumb_func
 833              		.fpu fpv4-sp-d16
 834              		.type	spi_rgb_setting_is_enabled, %function
 835              	spi_rgb_setting_is_enabled:
 836              	.LFB263:
 837              		.loc 1 227 0
 838              		.cfi_startproc
 839              		@ args = 0, pretend = 0, frame = 8
 840              		@ frame_needed = 0, uses_anonymous_args = 0
 841 0000 00B5     		push	{lr}
 842              		.cfi_def_cfa_offset 4
 843              		.cfi_offset 14, -4
 844 0002 074B     		ldr	r3, .L78
 845              		.loc 1 228 0
 846 0004 0749     		ldr	r1, .L78+4
 847              		.loc 1 227 0
 848 0006 1A68     		ldr	r2, [r3]
 849              		.loc 1 229 0
 850 0008 0878     		ldrb	r0, [r1]	@ zero_extendqisi2
 851              		.loc 1 227 0
 852 000a 83B0     		sub	sp, sp, #12
 853              		.cfi_def_cfa_offset 16
 854              		.loc 1 227 0
 855 000c 0192     		str	r2, [sp, #4]
ARM GAS  /var/folders/d2/nstgp4h54kz7g1l847x_b8wc0000gn/T//cc0ROsI1.s 			page 16


 856              		.loc 1 229 0
 857 000e 019A     		ldr	r2, [sp, #4]
 858 0010 1B68     		ldr	r3, [r3]
 859 0012 9A42     		cmp	r2, r3
 860 0014 02D1     		bne	.L77
 861 0016 03B0     		add	sp, sp, #12
 862              		.cfi_remember_state
 863              		.cfi_def_cfa_offset 4
 864              		@ sp needed
 865 0018 5DF804FB 		ldr	pc, [sp], #4
 866              	.L77:
 867              		.cfi_restore_state
 868 001c FFF7FEFF 		bl	__stack_chk_fail
 869              	.LVL58:
 870              	.L79:
 871              		.align	2
 872              	.L78:
 873 0020 00000000 		.word	__stack_chk_guard
 874 0024 00000000 		.word	.LANCHOR4
 875              		.cfi_endproc
 876              	.LFE263:
 877              		.size	spi_rgb_setting_is_enabled, .-spi_rgb_setting_is_enabled
 878              		.section	.text.spi_comm_suspend,"ax",%progbits
 879              		.align	1
 880              		.p2align 4,,15
 881              		.global	spi_comm_suspend
 882              		.syntax unified
 883              		.thumb
 884              		.thumb_func
 885              		.fpu fpv4-sp-d16
 886              		.type	spi_comm_suspend, %function
 887              	spi_comm_suspend:
 888              	.LFB264:
 889              		.loc 1 231 0
 890              		.cfi_startproc
 891              		@ args = 0, pretend = 0, frame = 8
 892              		@ frame_needed = 0, uses_anonymous_args = 0
 893 0000 30B5     		push	{r4, r5, lr}
 894              		.cfi_def_cfa_offset 12
 895              		.cfi_offset 4, -12
 896              		.cfi_offset 5, -8
 897              		.cfi_offset 14, -4
 898              		.loc 1 232 0
 899 0002 0F4B     		ldr	r3, .L90
 900              		.loc 1 231 0
 901 0004 0F4D     		ldr	r5, .L90+4
 902              		.loc 1 232 0
 903 0006 1A78     		ldrb	r2, [r3]	@ zero_extendqisi2
 904              		.loc 1 231 0
 905 0008 2968     		ldr	r1, [r5]
 906 000a 83B0     		sub	sp, sp, #12
 907              		.cfi_def_cfa_offset 24
 908              		.loc 1 231 0
 909 000c 0191     		str	r1, [sp, #4]
 910              		.loc 1 232 0
 911 000e 7AB9     		cbnz	r2, .L80
 912              		.loc 1 234 0
ARM GAS  /var/folders/d2/nstgp4h54kz7g1l847x_b8wc0000gn/T//cc0ROsI1.s 			page 17


 913 0010 0D4C     		ldr	r4, .L90+8
 914 0012 2268     		ldr	r2, [r4]
 915 0014 92F82020 		ldrb	r2, [r2, #32]	@ zero_extendqisi2
 916              		.loc 1 233 0
 917 0018 0121     		movs	r1, #1
 918              		.loc 1 234 0
 919 001a 032A     		cmp	r2, #3
 920              		.loc 1 233 0
 921 001c 1970     		strb	r1, [r3]
 922              		.loc 1 234 0
 923 001e 07D0     		beq	.L80
 924              	.L82:
 925              		.loc 1 235 0
 926 0020 0220     		movs	r0, #2
 927 0022 FFF7FEFF 		bl	chThdSleep
 928              	.LVL59:
 929              		.loc 1 234 0
 930 0026 2368     		ldr	r3, [r4]
 931 0028 93F82030 		ldrb	r3, [r3, #32]	@ zero_extendqisi2
 932 002c 032B     		cmp	r3, #3
 933 002e F7D1     		bne	.L82
 934              	.L80:
 935              		.loc 1 238 0
 936 0030 019A     		ldr	r2, [sp, #4]
 937 0032 2B68     		ldr	r3, [r5]
 938 0034 9A42     		cmp	r2, r3
 939 0036 01D1     		bne	.L89
 940 0038 03B0     		add	sp, sp, #12
 941              		.cfi_remember_state
 942              		.cfi_def_cfa_offset 12
 943              		@ sp needed
 944 003a 30BD     		pop	{r4, r5, pc}
 945              	.L89:
 946              		.cfi_restore_state
 947 003c FFF7FEFF 		bl	__stack_chk_fail
 948              	.LVL60:
 949              	.L91:
 950              		.align	2
 951              	.L90:
 952 0040 00000000 		.word	.LANCHOR1
 953 0044 00000000 		.word	__stack_chk_guard
 954 0048 00000000 		.word	.LANCHOR9
 955              		.cfi_endproc
 956              	.LFE264:
 957              		.size	spi_comm_suspend, .-spi_comm_suspend
 958              		.section	.text.spi_comm_resume,"ax",%progbits
 959              		.align	1
 960              		.p2align 4,,15
 961              		.global	spi_comm_resume
 962              		.syntax unified
 963              		.thumb
 964              		.thumb_func
 965              		.fpu fpv4-sp-d16
 966              		.type	spi_comm_resume, %function
 967              	spi_comm_resume:
 968              	.LFB265:
 969              		.loc 1 240 0
ARM GAS  /var/folders/d2/nstgp4h54kz7g1l847x_b8wc0000gn/T//cc0ROsI1.s 			page 18


 970              		.cfi_startproc
 971              		@ args = 0, pretend = 0, frame = 8
 972              		@ frame_needed = 0, uses_anonymous_args = 0
 973 0000 30B5     		push	{r4, r5, lr}
 974              		.cfi_def_cfa_offset 12
 975              		.cfi_offset 4, -12
 976              		.cfi_offset 5, -8
 977              		.cfi_offset 14, -4
 978              		.loc 1 241 0
 979 0002 194D     		ldr	r5, .L99
 980              		.loc 1 240 0
 981 0004 194C     		ldr	r4, .L99+4
 982              		.loc 1 241 0
 983 0006 2B78     		ldrb	r3, [r5]	@ zero_extendqisi2
 984              		.loc 1 240 0
 985 0008 2268     		ldr	r2, [r4]
 986 000a 83B0     		sub	sp, sp, #12
 987              		.cfi_def_cfa_offset 24
 988              		.loc 1 241 0
 989 000c 012B     		cmp	r3, #1
 990              		.loc 1 240 0
 991 000e 0192     		str	r2, [sp, #4]
 992              		.loc 1 241 0
 993 0010 05D0     		beq	.L97
 994              	.L92:
 995              		.loc 1 247 0
 996 0012 019A     		ldr	r2, [sp, #4]
 997 0014 2368     		ldr	r3, [r4]
 998 0016 9A42     		cmp	r2, r3
 999 0018 23D1     		bne	.L98
 1000 001a 03B0     		add	sp, sp, #12
 1001              		.cfi_remember_state
 1002              		.cfi_def_cfa_offset 12
 1003              		@ sp needed
 1004 001c 30BD     		pop	{r4, r5, pc}
 1005              	.L97:
 1006              		.cfi_restore_state
 1007              	.LVL61:
 1008              	.LBB140:
 1009              	.LBB141:
 1010              	.LBB142:
 1011              	.LBB143:
 1012              	.LBB144:
 1013              		.loc 3 546 0
 1014 001e 2023     		movs	r3, #32
 1015              		.syntax unified
 1016              	@ 546 "../e-puck2_main-processor/ChibiOS//os/ext/CMSIS/include/core_cmFunc.h" 1
 1017 0020 83F31188 		MSR basepri, r3
 1018              	@ 0 "" 2
 1019              	.LVL62:
 1020              		.thumb
 1021              		.syntax unified
 1022              	.LBE144:
 1023              	.LBE143:
 1024              	.LBE142:
 1025              		.loc 4 349 0
 1026 0024 FFF7FEFF 		bl	_stats_start_measure_crit_thd
ARM GAS  /var/folders/d2/nstgp4h54kz7g1l847x_b8wc0000gn/T//cc0ROsI1.s 			page 19


 1027              	.LVL63:
 1028              		.loc 4 350 0
 1029 0028 FFF7FEFF 		bl	_dbg_check_lock
 1030              	.LVL64:
 1031              	.LBE141:
 1032              	.LBE140:
 1033              		.loc 1 243 0
 1034 002c 104B     		ldr	r3, .L99+8
 1035 002e 0021     		movs	r1, #0
 1036 0030 1868     		ldr	r0, [r3]
 1037 0032 FFF7FEFF 		bl	chSchWakeupS
 1038              	.LVL65:
 1039              		.loc 1 244 0
 1040 0036 0023     		movs	r3, #0
 1041 0038 2B70     		strb	r3, [r5]
 1042              	.LBB145:
 1043              	.LBB146:
 1044              		.loc 4 360 0
 1045 003a FFF7FEFF 		bl	_dbg_check_unlock
 1046              	.LVL66:
 1047              		.loc 4 361 0
 1048 003e FFF7FEFF 		bl	_stats_stop_measure_crit_thd
 1049              	.LVL67:
 1050              		.loc 4 367 0
 1051 0042 0C4B     		ldr	r3, .L99+12
 1052 0044 1A68     		ldr	r2, [r3]
 1053 0046 9A42     		cmp	r2, r3
 1054 0048 07D0     		beq	.L94
 1055 004a 9969     		ldr	r1, [r3, #24]
 1056 004c 9368     		ldr	r3, [r2, #8]
 1057 004e 8A68     		ldr	r2, [r1, #8]
 1058 0050 9A42     		cmp	r2, r3
 1059 0052 02D2     		bcs	.L94
 1060 0054 0848     		ldr	r0, .L99+16
 1061 0056 FFF7FEFF 		bl	chSysHalt
 1062              	.LVL68:
 1063              	.L94:
 1064              	.LBB147:
 1065              	.LBB148:
 1066              	.LBB149:
 1067              		.loc 3 546 0
 1068 005a 0023     		movs	r3, #0
 1069              		.syntax unified
 1070              	@ 546 "../e-puck2_main-processor/ChibiOS//os/ext/CMSIS/include/core_cmFunc.h" 1
 1071 005c 83F31188 		MSR basepri, r3
 1072              	@ 0 "" 2
 1073              	.LVL69:
 1074              		.thumb
 1075              		.syntax unified
 1076              	.LBE149:
 1077              	.LBE148:
 1078              	.LBE147:
 1079              	.LBE146:
 1080              	.LBE145:
 1081              		.loc 1 247 0
 1082 0060 D7E7     		b	.L92
 1083              	.L98:
ARM GAS  /var/folders/d2/nstgp4h54kz7g1l847x_b8wc0000gn/T//cc0ROsI1.s 			page 20


 1084 0062 FFF7FEFF 		bl	__stack_chk_fail
 1085              	.LVL70:
 1086              	.L100:
 1087 0066 00BF     		.align	2
 1088              	.L99:
 1089 0068 00000000 		.word	.LANCHOR1
 1090 006c 00000000 		.word	__stack_chk_guard
 1091 0070 00000000 		.word	.LANCHOR9
 1092 0074 00000000 		.word	ch
 1093 0078 00000000 		.word	.LANCHOR0
 1094              		.cfi_endproc
 1095              	.LFE265:
 1096              		.size	spi_comm_resume, .-spi_comm_resume
 1097              		.global	spi_suspend_flag
 1098              		.global	rgb_setting_enabled
 1099              		.global	image_transfer_enabled
 1100              		.global	last_img_ptr
 1101              		.global	spi_tx_buff
 1102              		.global	spi_rx_buff
 1103              		.section	.bss.image_transfer_enabled,"aw",%nobits
 1104              		.set	.LANCHOR2,. + 0
 1105              		.type	image_transfer_enabled, %object
 1106              		.size	image_transfer_enabled, 1
 1107              	image_transfer_enabled:
 1108 0000 00       		.space	1
 1109              		.section	.bss.last_img_ptr,"aw",%nobits
 1110              		.align	2
 1111              		.set	.LANCHOR6,. + 0
 1112              		.type	last_img_ptr, %object
 1113              		.size	last_img_ptr, 4
 1114              	last_img_ptr:
 1115 0000 00000000 		.space	4
 1116              		.section	.bss.rgb_setting_enabled,"aw",%nobits
 1117              		.set	.LANCHOR4,. + 0
 1118              		.type	rgb_setting_enabled, %object
 1119              		.size	rgb_setting_enabled, 1
 1120              	rgb_setting_enabled:
 1121 0000 00       		.space	1
 1122              		.section	.bss.spi_rx_buff,"aw",%nobits
 1123              		.align	2
 1124              		.set	.LANCHOR3,. + 0
 1125              		.type	spi_rx_buff, %object
 1126              		.size	spi_rx_buff, 4092
 1127              	spi_rx_buff:
 1128 0000 00000000 		.space	4092
 1128      00000000 
 1128      00000000 
 1128      00000000 
 1128      00000000 
 1129              		.section	.bss.spi_suspend_flag,"aw",%nobits
 1130              		.set	.LANCHOR1,. + 0
 1131              		.type	spi_suspend_flag, %object
 1132              		.size	spi_suspend_flag, 1
 1133              	spi_suspend_flag:
 1134 0000 00       		.space	1
 1135              		.section	.bss.spi_thd_ptr,"aw",%nobits
 1136              		.align	2
ARM GAS  /var/folders/d2/nstgp4h54kz7g1l847x_b8wc0000gn/T//cc0ROsI1.s 			page 21


 1137              		.set	.LANCHOR9,. + 0
 1138              		.type	spi_thd_ptr, %object
 1139              		.size	spi_thd_ptr, 4
 1140              	spi_thd_ptr:
 1141 0000 00000000 		.space	4
 1142              		.section	.bss.spi_thread_wa,"aw",%nobits
 1143              		.align	3
 1144              		.set	.LANCHOR8,. + 0
 1145              		.type	spi_thread_wa, %object
 1146              		.size	spi_thread_wa, 1400
 1147              	spi_thread_wa:
 1148 0000 00000000 		.space	1400
 1148      00000000 
 1148      00000000 
 1148      00000000 
 1148      00000000 
 1149              		.section	.bss.spi_tx_buff,"aw",%nobits
 1150              		.align	2
 1151              		.set	.LANCHOR5,. + 0
 1152              		.type	spi_tx_buff, %object
 1153              		.size	spi_tx_buff, 4092
 1154              	spi_tx_buff:
 1155 0000 00000000 		.space	4092
 1155      00000000 
 1155      00000000 
 1155      00000000 
 1155      00000000 
 1156              		.section	.rodata.__func__.7968,"a",%progbits
 1157              		.align	2
 1158              		.set	.LANCHOR0,. + 0
 1159              		.type	__func__.7968, %object
 1160              		.size	__func__.7968, 12
 1161              	__func__.7968:
 1162 0000 63685379 		.ascii	"chSysUnlock\000"
 1162      73556E6C 
 1162      6F636B00 
 1163              		.section	.rodata.hs_spicfg.10951,"a",%progbits
 1164              		.align	2
 1165              		.set	.LANCHOR7,. + 0
 1166              		.type	hs_spicfg.10951, %object
 1167              		.size	hs_spicfg.10951, 12
 1168              	hs_spicfg.10951:
 1169 0000 00000000 		.word	0
 1170 0004 00000240 		.word	1073872896
 1171 0008 0F00     		.short	15
 1172 000a 1000     		.short	16
 1173              		.section	.rodata.spi_thread.str1.4,"aMS",%progbits,1
 1174              		.align	2
 1175              	.LC0:
 1176 0000 53504920 		.ascii	"SPI thread\000"
 1176      74687265 
 1176      616400
 1177              		.text
 1178              	.Letext0:
 1179              		.file 7 "/Applications/Eclipse_e-puck2.app/Contents/Eclipse_e-puck2/Tools/gcc-arm-none-eabi-7-2017
 1180              		.file 8 "/Applications/Eclipse_e-puck2.app/Contents/Eclipse_e-puck2/Tools/gcc-arm-none-eabi-7-2017
 1181              		.file 9 "/Applications/Eclipse_e-puck2.app/Contents/Eclipse_e-puck2/Tools/gcc-arm-none-eabi-7-2017
ARM GAS  /var/folders/d2/nstgp4h54kz7g1l847x_b8wc0000gn/T//cc0ROsI1.s 			page 22


 1182              		.file 10 "/Applications/Eclipse_e-puck2.app/Contents/Eclipse_e-puck2/Tools/gcc-arm-none-eabi-7-201
 1183              		.file 11 "/Applications/Eclipse_e-puck2.app/Contents/Eclipse_e-puck2/Tools/gcc-arm-none-eabi-7-201
 1184              		.file 12 "/Applications/Eclipse_e-puck2.app/Contents/Eclipse_e-puck2/Tools/gcc-arm-none-eabi-7-201
 1185              		.file 13 "/Applications/Eclipse_e-puck2.app/Contents/Eclipse_e-puck2/Tools/gcc-arm-none-eabi-7-201
 1186              		.file 14 "../e-puck2_main-processor/ChibiOS//os/rt/ports/ARMCMx/compilers/GCC/chtypes.h"
 1187              		.file 15 "../e-puck2_main-processor/ChibiOS//os/rt/include/chsystypes.h"
 1188              		.file 16 "../e-puck2_main-processor/ChibiOS//os/rt/include/chschd.h"
 1189              		.file 17 "../e-puck2_main-processor/ChibiOS//os/ext/CMSIS/include/core_cm4.h"
 1190              		.file 18 "../e-puck2_main-processor/ChibiOS//os/ext/CMSIS/ST/system_stm32f4xx.h"
 1191              		.file 19 "../e-puck2_main-processor/ChibiOS//os/ext/CMSIS/ST/stm32f407xx.h"
 1192              		.file 20 "../e-puck2_main-processor/ChibiOS//os/rt/ports/ARMCMx/chcore.h"
 1193              		.file 21 "../e-puck2_main-processor/ChibiOS//os/rt/ports/ARMCMx/chcore_v7m.h"
 1194              		.file 22 "../e-puck2_main-processor/ChibiOS//os/rt/include/chdebug.h"
 1195              		.file 23 "../e-puck2_main-processor/ChibiOS//os/rt/include/chtm.h"
 1196              		.file 24 "../e-puck2_main-processor/ChibiOS//os/rt/include/chstats.h"
 1197              		.file 25 "../e-puck2_main-processor/ChibiOS//os/rt/include/chsem.h"
 1198              		.file 26 "../e-puck2_main-processor/ChibiOS//os/rt/include/chmtx.h"
 1199              		.file 27 "../e-puck2_main-processor/ChibiOS//os/rt/include/chevents.h"
 1200              		.file 28 "../e-puck2_main-processor/ChibiOS//os/rt/include/chqueues.h"
 1201              		.file 29 "../e-puck2_main-processor/ChibiOS//os/hal/ports/STM32/STM32F4xx/stm32_dma.h"
 1202              		.file 30 "../e-puck2_main-processor/ChibiOS//os/hal/include/hal_ioblock.h"
 1203              		.file 31 "../e-puck2_main-processor/ChibiOS//os/hal/ports/STM32/LLD/GPIOv2/pal_lld.h"
 1204              		.file 32 "../e-puck2_main-processor/ChibiOS//os/hal/include/adc.h"
 1205              		.file 33 "../e-puck2_main-processor/ChibiOS//os/hal/ports/STM32/STM32F4xx/adc_lld.h"
 1206              		.file 34 "../e-puck2_main-processor/ChibiOS//os/hal/include/can.h"
 1207              		.file 35 "../e-puck2_main-processor/ChibiOS//os/hal/ports/STM32/LLD/can_lld.h"
 1208              		.file 36 "../e-puck2_main-processor/ChibiOS//os/hal/include/dac.h"
 1209              		.file 37 "../e-puck2_main-processor/ChibiOS//os/hal/ports/STM32/LLD/DACv1/dac_lld.h"
 1210              		.file 38 "../e-puck2_main-processor/ChibiOS//os/hal/include/ext.h"
 1211              		.file 39 "../e-puck2_main-processor/ChibiOS//os/hal/ports/STM32/LLD/ext_lld.h"
 1212              		.file 40 "../e-puck2_main-processor/ChibiOS//os/hal/include/gpt.h"
 1213              		.file 41 "../e-puck2_main-processor/ChibiOS//os/hal/ports/STM32/LLD/TIMv1/gpt_lld.h"
 1214              		.file 42 "../e-puck2_main-processor/ChibiOS//os/hal/ports/STM32/LLD/TIMv1/stm32_tim.h"
 1215              		.file 43 "../e-puck2_main-processor/ChibiOS//os/hal/include/i2c.h"
 1216              		.file 44 "../e-puck2_main-processor/ChibiOS//os/hal/ports/STM32/LLD/I2Cv1/i2c_lld.h"
 1217              		.file 45 "../e-puck2_main-processor/ChibiOS//os/hal/include/i2s.h"
 1218              		.file 46 "../e-puck2_main-processor/ChibiOS//os/hal/ports/STM32/LLD/SPIv1/i2s_lld.h"
 1219              		.file 47 "../e-puck2_main-processor/ChibiOS//os/hal/include/pwm.h"
 1220              		.file 48 "../e-puck2_main-processor/ChibiOS//os/hal/ports/STM32/LLD/TIMv1/pwm_lld.h"
 1221              		.file 49 "../e-puck2_main-processor/ChibiOS//os/hal/include/serial.h"
 1222              		.file 50 "../e-puck2_main-processor/ChibiOS//os/hal/ports/STM32/LLD/USARTv1/serial_lld.h"
 1223              		.file 51 "../e-puck2_main-processor/ChibiOS//os/hal/include/sdc.h"
 1224              		.file 52 "../e-puck2_main-processor/ChibiOS//os/hal/ports/STM32/LLD/sdc_lld.h"
 1225              		.file 53 "../e-puck2_main-processor/ChibiOS//os/hal/include/spi.h"
 1226              		.file 54 "../e-puck2_main-processor/ChibiOS//os/hal/ports/STM32/LLD/SPIv1/spi_lld.h"
 1227              		.file 55 "../e-puck2_main-processor/ChibiOS//os/hal/include/usb.h"
 1228              		.file 56 "../e-puck2_main-processor/ChibiOS//os/hal/ports/STM32/LLD/OTGv1/usb_lld.h"
 1229              		.file 57 "../e-puck2_main-processor/ChibiOS//os/hal/ports/STM32/LLD/OTGv1/stm32_otg.h"
 1230              		.file 58 "../e-puck2_main-processor/ChibiOS//os/hal/include/serial_usb.h"
 1231              		.file 59 "../e-puck2_main-processor/ChibiOS_ext/os/hal/include/../ports/STM32/STM32F4xx/dcmi_lld.h
 1232              		.file 60 "../e-puck2_main-processor/src/usbcfg.h"
 1233              		.file 61 "../e-puck2_main-processor/ChibiOS//os/rt/include/chthreads.h"
 1234              		.file 62 "../e-puck2_main-processor/src/camera/dcmi_camera.h"
 1235              		.file 63 "/Applications/Eclipse_e-puck2.app/Contents/Eclipse_e-puck2/Tools/gcc-arm-none-eabi-7-201
 1236              		.file 64 "../e-puck2_main-processor/src/button.h"
 1237              		.file 65 "../e-puck2_main-processor/src/camera/camera.h"
 1238              		.file 66 "../e-puck2_main-processor/src/leds.h"
ARM GAS  /var/folders/d2/nstgp4h54kz7g1l847x_b8wc0000gn/T//cc0ROsI1.s 			page 23

