ARM GAS  /var/folders/d2/nstgp4h54kz7g1l847x_b8wc0000gn/T//ccRPE2uY.s 			page 1


   1              		.cpu cortex-m4
   2              		.eabi_attribute 27, 1
   3              		.eabi_attribute 28, 1
   4              		.eabi_attribute 20, 1
   5              		.eabi_attribute 21, 1
   6              		.eabi_attribute 23, 3
   7              		.eabi_attribute 24, 1
   8              		.eabi_attribute 25, 1
   9              		.eabi_attribute 26, 1
  10              		.eabi_attribute 30, 6
  11              		.eabi_attribute 34, 1
  12              		.eabi_attribute 18, 4
  13              		.file	"st.c"
  14              		.section	.text.st_lld_start_alarm,"ax",%progbits
  15              		.align	1
  16              		.syntax unified
  17              		.thumb
  18              		.thumb_func
  19              		.fpu fpv4-sp-d16
  20              		.type	st_lld_start_alarm, %function
  21              	st_lld_start_alarm:
  22              		@ args = 0, pretend = 0, frame = 8
  23              		@ frame_needed = 1, uses_anonymous_args = 0
  24              		@ link register save eliminated.
  25 0000 80B4     		push	{r7}
  26 0002 83B0     		sub	sp, sp, #12
  27 0004 00AF     		add	r7, sp, #0
  28 0006 7860     		str	r0, [r7, #4]
  29 0008 4FF08042 		mov	r2, #1073741824
  30 000c 7B68     		ldr	r3, [r7, #4]
  31 000e 5363     		str	r3, [r2, #52]
  32 0010 4FF08043 		mov	r3, #1073741824
  33 0014 0022     		movs	r2, #0
  34 0016 1A61     		str	r2, [r3, #16]
  35 0018 4FF08043 		mov	r3, #1073741824
  36 001c 0222     		movs	r2, #2
  37 001e DA60     		str	r2, [r3, #12]
  38 0020 00BF     		nop
  39 0022 0C37     		adds	r7, r7, #12
  40 0024 BD46     		mov	sp, r7
  41              		@ sp needed
  42 0026 5DF8047B 		ldr	r7, [sp], #4
  43 002a 7047     		bx	lr
  44              		.size	st_lld_start_alarm, .-st_lld_start_alarm
  45              		.section	.text.st_lld_stop_alarm,"ax",%progbits
  46              		.align	1
  47              		.syntax unified
  48              		.thumb
  49              		.thumb_func
  50              		.fpu fpv4-sp-d16
  51              		.type	st_lld_stop_alarm, %function
  52              	st_lld_stop_alarm:
  53              		@ args = 0, pretend = 0, frame = 0
  54              		@ frame_needed = 1, uses_anonymous_args = 0
  55              		@ link register save eliminated.
  56 0000 80B4     		push	{r7}
  57 0002 00AF     		add	r7, sp, #0
ARM GAS  /var/folders/d2/nstgp4h54kz7g1l847x_b8wc0000gn/T//ccRPE2uY.s 			page 2


  58 0004 4FF08043 		mov	r3, #1073741824
  59 0008 0022     		movs	r2, #0
  60 000a DA60     		str	r2, [r3, #12]
  61 000c 00BF     		nop
  62 000e BD46     		mov	sp, r7
  63              		@ sp needed
  64 0010 5DF8047B 		ldr	r7, [sp], #4
  65 0014 7047     		bx	lr
  66              		.size	st_lld_stop_alarm, .-st_lld_stop_alarm
  67              		.section	.text.st_lld_set_alarm,"ax",%progbits
  68              		.align	1
  69              		.syntax unified
  70              		.thumb
  71              		.thumb_func
  72              		.fpu fpv4-sp-d16
  73              		.type	st_lld_set_alarm, %function
  74              	st_lld_set_alarm:
  75              		@ args = 0, pretend = 0, frame = 8
  76              		@ frame_needed = 1, uses_anonymous_args = 0
  77              		@ link register save eliminated.
  78 0000 80B4     		push	{r7}
  79 0002 83B0     		sub	sp, sp, #12
  80 0004 00AF     		add	r7, sp, #0
  81 0006 7860     		str	r0, [r7, #4]
  82 0008 4FF08042 		mov	r2, #1073741824
  83 000c 7B68     		ldr	r3, [r7, #4]
  84 000e 5363     		str	r3, [r2, #52]
  85 0010 00BF     		nop
  86 0012 0C37     		adds	r7, r7, #12
  87 0014 BD46     		mov	sp, r7
  88              		@ sp needed
  89 0016 5DF8047B 		ldr	r7, [sp], #4
  90 001a 7047     		bx	lr
  91              		.size	st_lld_set_alarm, .-st_lld_set_alarm
  92              		.section	.text.st_lld_get_alarm,"ax",%progbits
  93              		.align	1
  94              		.syntax unified
  95              		.thumb
  96              		.thumb_func
  97              		.fpu fpv4-sp-d16
  98              		.type	st_lld_get_alarm, %function
  99              	st_lld_get_alarm:
 100              		@ args = 0, pretend = 0, frame = 0
 101              		@ frame_needed = 1, uses_anonymous_args = 0
 102              		@ link register save eliminated.
 103 0000 80B4     		push	{r7}
 104 0002 00AF     		add	r7, sp, #0
 105 0004 4FF08043 		mov	r3, #1073741824
 106 0008 5B6B     		ldr	r3, [r3, #52]
 107 000a 1846     		mov	r0, r3
 108 000c BD46     		mov	sp, r7
 109              		@ sp needed
 110 000e 5DF8047B 		ldr	r7, [sp], #4
 111 0012 7047     		bx	lr
 112              		.size	st_lld_get_alarm, .-st_lld_get_alarm
 113              		.section	.text.st_lld_is_alarm_active,"ax",%progbits
 114              		.align	1
ARM GAS  /var/folders/d2/nstgp4h54kz7g1l847x_b8wc0000gn/T//ccRPE2uY.s 			page 3


 115              		.syntax unified
 116              		.thumb
 117              		.thumb_func
 118              		.fpu fpv4-sp-d16
 119              		.type	st_lld_is_alarm_active, %function
 120              	st_lld_is_alarm_active:
 121              		@ args = 0, pretend = 0, frame = 0
 122              		@ frame_needed = 1, uses_anonymous_args = 0
 123              		@ link register save eliminated.
 124 0000 80B4     		push	{r7}
 125 0002 00AF     		add	r7, sp, #0
 126 0004 4FF08043 		mov	r3, #1073741824
 127 0008 DB68     		ldr	r3, [r3, #12]
 128 000a 03F00203 		and	r3, r3, #2
 129 000e 002B     		cmp	r3, #0
 130 0010 14BF     		ite	ne
 131 0012 0123     		movne	r3, #1
 132 0014 0023     		moveq	r3, #0
 133 0016 DBB2     		uxtb	r3, r3
 134 0018 1846     		mov	r0, r3
 135 001a BD46     		mov	sp, r7
 136              		@ sp needed
 137 001c 5DF8047B 		ldr	r7, [sp], #4
 138 0020 7047     		bx	lr
 139              		.size	st_lld_is_alarm_active, .-st_lld_is_alarm_active
 140              		.section	.text.stInit,"ax",%progbits
 141              		.align	1
 142              		.global	stInit
 143              		.syntax unified
 144              		.thumb
 145              		.thumb_func
 146              		.fpu fpv4-sp-d16
 147              		.type	stInit, %function
 148              	stInit:
 149              		@ args = 0, pretend = 0, frame = 0
 150              		@ frame_needed = 1, uses_anonymous_args = 0
 151 0000 80B5     		push	{r7, lr}
 152 0002 00AF     		add	r7, sp, #0
 153 0004 FFF7FEFF 		bl	st_lld_init
 154 0008 00BF     		nop
 155 000a 80BD     		pop	{r7, pc}
 156              		.size	stInit, .-stInit
 157              		.section	.text.stStartAlarm,"ax",%progbits
 158              		.align	1
 159              		.global	stStartAlarm
 160              		.syntax unified
 161              		.thumb
 162              		.thumb_func
 163              		.fpu fpv4-sp-d16
 164              		.type	stStartAlarm, %function
 165              	stStartAlarm:
 166              		@ args = 0, pretend = 0, frame = 8
 167              		@ frame_needed = 1, uses_anonymous_args = 0
 168 0000 80B5     		push	{r7, lr}
 169 0002 82B0     		sub	sp, sp, #8
 170 0004 00AF     		add	r7, sp, #0
 171 0006 7860     		str	r0, [r7, #4]
ARM GAS  /var/folders/d2/nstgp4h54kz7g1l847x_b8wc0000gn/T//ccRPE2uY.s 			page 4


 172 0008 FFF7FEFF 		bl	st_lld_is_alarm_active
 173 000c 0346     		mov	r3, r0
 174 000e 002B     		cmp	r3, #0
 175 0010 02D0     		beq	.L10
 176 0012 0548     		ldr	r0, .L11
 177 0014 FFF7FEFF 		bl	chSysHalt
 178              	.L10:
 179 0018 7868     		ldr	r0, [r7, #4]
 180 001a FFF7FEFF 		bl	st_lld_start_alarm
 181 001e 00BF     		nop
 182 0020 0837     		adds	r7, r7, #8
 183 0022 BD46     		mov	sp, r7
 184              		@ sp needed
 185 0024 80BD     		pop	{r7, pc}
 186              	.L12:
 187 0026 00BF     		.align	2
 188              	.L11:
 189 0028 00000000 		.word	__func__.9844
 190              		.size	stStartAlarm, .-stStartAlarm
 191              		.section	.text.stStopAlarm,"ax",%progbits
 192              		.align	1
 193              		.global	stStopAlarm
 194              		.syntax unified
 195              		.thumb
 196              		.thumb_func
 197              		.fpu fpv4-sp-d16
 198              		.type	stStopAlarm, %function
 199              	stStopAlarm:
 200              		@ args = 0, pretend = 0, frame = 0
 201              		@ frame_needed = 1, uses_anonymous_args = 0
 202 0000 80B5     		push	{r7, lr}
 203 0002 00AF     		add	r7, sp, #0
 204 0004 FFF7FEFF 		bl	st_lld_stop_alarm
 205 0008 00BF     		nop
 206 000a 80BD     		pop	{r7, pc}
 207              		.size	stStopAlarm, .-stStopAlarm
 208              		.section	.text.stSetAlarm,"ax",%progbits
 209              		.align	1
 210              		.global	stSetAlarm
 211              		.syntax unified
 212              		.thumb
 213              		.thumb_func
 214              		.fpu fpv4-sp-d16
 215              		.type	stSetAlarm, %function
 216              	stSetAlarm:
 217              		@ args = 0, pretend = 0, frame = 8
 218              		@ frame_needed = 1, uses_anonymous_args = 0
 219 0000 80B5     		push	{r7, lr}
 220 0002 82B0     		sub	sp, sp, #8
 221 0004 00AF     		add	r7, sp, #0
 222 0006 7860     		str	r0, [r7, #4]
 223 0008 FFF7FEFF 		bl	st_lld_is_alarm_active
 224 000c 0346     		mov	r3, r0
 225 000e 83F00103 		eor	r3, r3, #1
 226 0012 DBB2     		uxtb	r3, r3
 227 0014 002B     		cmp	r3, #0
 228 0016 02D0     		beq	.L15
ARM GAS  /var/folders/d2/nstgp4h54kz7g1l847x_b8wc0000gn/T//ccRPE2uY.s 			page 5


 229 0018 0448     		ldr	r0, .L16
 230 001a FFF7FEFF 		bl	chSysHalt
 231              	.L15:
 232 001e 7868     		ldr	r0, [r7, #4]
 233 0020 FFF7FEFF 		bl	st_lld_set_alarm
 234 0024 00BF     		nop
 235 0026 0837     		adds	r7, r7, #8
 236 0028 BD46     		mov	sp, r7
 237              		@ sp needed
 238 002a 80BD     		pop	{r7, pc}
 239              	.L17:
 240              		.align	2
 241              	.L16:
 242 002c 00000000 		.word	__func__.9851
 243              		.size	stSetAlarm, .-stSetAlarm
 244              		.section	.text.stGetAlarm,"ax",%progbits
 245              		.align	1
 246              		.global	stGetAlarm
 247              		.syntax unified
 248              		.thumb
 249              		.thumb_func
 250              		.fpu fpv4-sp-d16
 251              		.type	stGetAlarm, %function
 252              	stGetAlarm:
 253              		@ args = 0, pretend = 0, frame = 0
 254              		@ frame_needed = 1, uses_anonymous_args = 0
 255 0000 80B5     		push	{r7, lr}
 256 0002 00AF     		add	r7, sp, #0
 257 0004 FFF7FEFF 		bl	st_lld_is_alarm_active
 258 0008 0346     		mov	r3, r0
 259 000a 83F00103 		eor	r3, r3, #1
 260 000e DBB2     		uxtb	r3, r3
 261 0010 002B     		cmp	r3, #0
 262 0012 02D0     		beq	.L19
 263 0014 0348     		ldr	r0, .L21
 264 0016 FFF7FEFF 		bl	chSysHalt
 265              	.L19:
 266 001a FFF7FEFF 		bl	st_lld_get_alarm
 267 001e 0346     		mov	r3, r0
 268 0020 1846     		mov	r0, r3
 269 0022 80BD     		pop	{r7, pc}
 270              	.L22:
 271              		.align	2
 272              	.L21:
 273 0024 00000000 		.word	__func__.9855
 274              		.size	stGetAlarm, .-stGetAlarm
 275              		.section	.rodata.__func__.9844,"a",%progbits
 276              		.align	2
 277              		.type	__func__.9844, %object
 278              		.size	__func__.9844, 13
 279              	__func__.9844:
 280 0000 73745374 		.ascii	"stStartAlarm\000"
 280      61727441 
 280      6C61726D 
 280      00
 281              		.section	.rodata.__func__.9851,"a",%progbits
 282              		.align	2
ARM GAS  /var/folders/d2/nstgp4h54kz7g1l847x_b8wc0000gn/T//ccRPE2uY.s 			page 6


 283              		.type	__func__.9851, %object
 284              		.size	__func__.9851, 11
 285              	__func__.9851:
 286 0000 73745365 		.ascii	"stSetAlarm\000"
 286      74416C61 
 286      726D00
 287              		.section	.rodata.__func__.9855,"a",%progbits
 288              		.align	2
 289              		.type	__func__.9855, %object
 290              		.size	__func__.9855, 11
 291              	__func__.9855:
 292 0000 73744765 		.ascii	"stGetAlarm\000"
 292      74416C61 
 292      726D00
 293              		.ident	"GCC: (GNU Tools for Arm Embedded Processors 7-2017-q4-major) 7.2.1 20170904 (release) [ARM
ARM GAS  /var/folders/d2/nstgp4h54kz7g1l847x_b8wc0000gn/T//ccRPE2uY.s 			page 7

