ARM GAS  /var/folders/d2/nstgp4h54kz7g1l847x_b8wc0000gn/T//ccFF270y.s 			page 1


   1              		.cpu cortex-m4
   2              		.eabi_attribute 27, 1
   3              		.eabi_attribute 28, 1
   4              		.eabi_attribute 20, 1
   5              		.eabi_attribute 21, 1
   6              		.eabi_attribute 23, 3
   7              		.eabi_attribute 24, 1
   8              		.eabi_attribute 25, 1
   9              		.eabi_attribute 26, 1
  10              		.eabi_attribute 30, 2
  11              		.eabi_attribute 34, 1
  12              		.eabi_attribute 18, 4
  13              		.file	"talos_leds.c"
  14              		.text
  15              	.Ltext0:
  16              		.cfi_sections	.debug_frame
  17              		.section	.text.talos_set_led,"ax",%progbits
  18              		.align	1
  19              		.p2align 4,,15
  20              		.global	talos_set_led
  21              		.syntax unified
  22              		.thumb
  23              		.thumb_func
  24              		.fpu fpv4-sp-d16
  25              		.type	talos_set_led, %function
  26              	talos_set_led:
  27              	.LFB257:
  28              		.file 1 "talos_leds.c"
  29              		.loc 1 7 0
  30              		.cfi_startproc
  31              		@ args = 0, pretend = 0, frame = 8
  32              		@ frame_needed = 0, uses_anonymous_args = 0
  33              	.LVL0:
  34 0000 70B5     		push	{r4, r5, r6, lr}
  35              		.cfi_def_cfa_offset 16
  36              		.cfi_offset 4, -16
  37              		.cfi_offset 5, -12
  38              		.cfi_offset 6, -8
  39              		.cfi_offset 14, -4
  40 0002 294D     		ldr	r5, .L24
  41 0004 82B0     		sub	sp, sp, #8
  42              		.cfi_def_cfa_offset 24
  43              		.loc 1 7 0
  44 0006 2B68     		ldr	r3, [r5]
  45 0008 0193     		str	r3, [sp, #4]
  46 000a 0E46     		mov	r6, r1
  47              		.loc 1 8 0
  48 000c 0328     		cmp	r0, #3
  49 000e 41D8     		bhi	.L18
  50 0010 DFE800F0 		tbb	[pc, r0]
  51              	.L4:
  52 0014 1A       		.byte	(.L3-.L4)/2
  53 0015 12       		.byte	(.L5-.L4)/2
  54 0016 0A       		.byte	(.L6-.L4)/2
  55 0017 02       		.byte	(.L7-.L4)/2
  56              		.p2align 1
  57              	.L7:
ARM GAS  /var/folders/d2/nstgp4h54kz7g1l847x_b8wc0000gn/T//ccFF270y.s 			page 2


  58              		.loc 1 31 0
  59 0018 0129     		cmp	r1, #1
  60 001a 22D9     		bls	.L15
  61              		.loc 1 32 0
  62 001c 234A     		ldr	r2, .L24+4
  63 001e 5369     		ldr	r3, [r2, #20]
  64 0020 83F40063 		eor	r3, r3, #2048
  65 0024 5361     		str	r3, [r2, #20]
  66 0026 16E0     		b	.L1
  67              	.L6:
  68              		.loc 1 24 0
  69 0028 0129     		cmp	r1, #1
  70 002a 26D9     		bls	.L13
  71              		.loc 1 25 0
  72 002c 1F4A     		ldr	r2, .L24+4
  73 002e 5369     		ldr	r3, [r2, #20]
  74 0030 83F48063 		eor	r3, r3, #1024
  75 0034 5361     		str	r3, [r2, #20]
  76 0036 0EE0     		b	.L1
  77              	.L5:
  78              		.loc 1 17 0
  79 0038 0129     		cmp	r1, #1
  80 003a 18D9     		bls	.L11
  81              		.loc 1 18 0
  82 003c 1B4A     		ldr	r2, .L24+4
  83 003e 5369     		ldr	r3, [r2, #20]
  84 0040 83F04003 		eor	r3, r3, #64
  85 0044 5361     		str	r3, [r2, #20]
  86 0046 06E0     		b	.L1
  87              	.L3:
  88              		.loc 1 10 0
  89 0048 0129     		cmp	r1, #1
  90 004a 1CD9     		bls	.L8
  91              		.loc 1 11 0
  92 004c 174A     		ldr	r2, .L24+4
  93 004e 5369     		ldr	r3, [r2, #20]
  94 0050 83F02003 		eor	r3, r3, #32
  95 0054 5361     		str	r3, [r2, #20]
  96              	.LVL1:
  97              	.L1:
  98              		.loc 1 42 0
  99 0056 019A     		ldr	r2, [sp, #4]
 100 0058 2B68     		ldr	r3, [r5]
 101 005a 9A42     		cmp	r2, r3
 102 005c 18D1     		bne	.L23
 103 005e 02B0     		add	sp, sp, #8
 104              		.cfi_remember_state
 105              		.cfi_def_cfa_offset 16
 106              		@ sp needed
 107 0060 70BD     		pop	{r4, r5, r6, pc}
 108              	.LVL2:
 109              	.L15:
 110              		.cfi_restore_state
 111              		.loc 1 34 0
 112 0062 124B     		ldr	r3, .L24+4
 113 0064 4FF40062 		mov	r2, #2048
 114 0068 29B1     		cbz	r1, .L16
ARM GAS  /var/folders/d2/nstgp4h54kz7g1l847x_b8wc0000gn/T//ccFF270y.s 			page 3


 115              	.L21:
 116              		.loc 1 34 0 is_stmt 0 discriminator 1
 117 006a 5A83     		strh	r2, [r3, #26]	@ movhi
 118 006c F3E7     		b	.L1
 119              	.L11:
 120              		.loc 1 20 0 is_stmt 1
 121 006e 0F4B     		ldr	r3, .L24+4
 122 0070 4022     		movs	r2, #64
 123 0072 0029     		cmp	r1, #0
 124 0074 F9D1     		bne	.L21
 125              	.L16:
 126              		.loc 1 34 0 discriminator 2
 127 0076 1A83     		strh	r2, [r3, #24]	@ movhi
 128 0078 EDE7     		b	.L1
 129              	.L13:
 130              		.loc 1 27 0
 131 007a 0C4B     		ldr	r3, .L24+4
 132 007c 4FF48062 		mov	r2, #1024
 133 0080 0029     		cmp	r1, #0
 134 0082 F8D0     		beq	.L16
 135 0084 F1E7     		b	.L21
 136              	.L8:
 137              		.loc 1 13 0
 138 0086 094B     		ldr	r3, .L24+4
 139 0088 2022     		movs	r2, #32
 140 008a 0029     		cmp	r1, #0
 141 008c F3D0     		beq	.L16
 142 008e ECE7     		b	.L21
 143              	.LVL3:
 144              	.L23:
 145              		.loc 1 42 0
 146 0090 FFF7FEFF 		bl	__stack_chk_fail
 147              	.LVL4:
 148              	.L18:
 149              	.LBB5:
 150              		.loc 1 38 0
 151 0094 0024     		movs	r4, #0
 152              	.LVL5:
 153              	.L2:
 154              		.loc 1 39 0 discriminator 3
 155 0096 E0B2     		uxtb	r0, r4
 156 0098 3146     		mov	r1, r6
 157              		.loc 1 38 0 discriminator 3
 158 009a 0134     		adds	r4, r4, #1
 159              	.LVL6:
 160              		.loc 1 39 0 discriminator 3
 161 009c FFF7FEFF 		bl	talos_set_led
 162              	.LVL7:
 163              		.loc 1 38 0 discriminator 3
 164 00a0 042C     		cmp	r4, #4
 165 00a2 F8D1     		bne	.L2
 166 00a4 D7E7     		b	.L1
 167              	.L25:
 168 00a6 00BF     		.align	2
 169              	.L24:
 170 00a8 00000000 		.word	__stack_chk_guard
 171 00ac 000C0240 		.word	1073875968
ARM GAS  /var/folders/d2/nstgp4h54kz7g1l847x_b8wc0000gn/T//ccFF270y.s 			page 4


 172              	.LBE5:
 173              		.cfi_endproc
 174              	.LFE257:
 175              		.size	talos_set_led, .-talos_set_led
 176              		.section	.text.talos_set_rgb_led,"ax",%progbits
 177              		.align	1
 178              		.p2align 4,,15
 179              		.global	talos_set_rgb_led
 180              		.syntax unified
 181              		.thumb
 182              		.thumb_func
 183              		.fpu fpv4-sp-d16
 184              		.type	talos_set_rgb_led, %function
 185              	talos_set_rgb_led:
 186              	.LFB258:
 187              		.loc 1 44 0
 188              		.cfi_startproc
 189              		@ args = 0, pretend = 0, frame = 8
 190              		@ frame_needed = 0, uses_anonymous_args = 0
 191              	.LVL8:
 192 0000 2DE9F041 		push	{r4, r5, r6, r7, r8, lr}
 193              		.cfi_def_cfa_offset 24
 194              		.cfi_offset 4, -24
 195              		.cfi_offset 5, -20
 196              		.cfi_offset 6, -16
 197              		.cfi_offset 7, -12
 198              		.cfi_offset 8, -8
 199              		.cfi_offset 14, -4
 200 0004 0E4D     		ldr	r5, .L31
 201 0006 82B0     		sub	sp, sp, #8
 202              		.cfi_def_cfa_offset 32
 203              		.loc 1 44 0
 204 0008 2C68     		ldr	r4, [r5]
 205 000a 0194     		str	r4, [sp, #4]
 206 000c 8846     		mov	r8, r1
 207 000e 0446     		mov	r4, r0
 208 0010 1746     		mov	r7, r2
 209 0012 1E46     		mov	r6, r3
 210              		.loc 1 45 0
 211 0014 FFF7FEFF 		bl	talos_spi_rgb_setting_is_enabled
 212              	.LVL9:
 213 0018 08B9     		cbnz	r0, .L27
 214              		.loc 1 46 0
 215 001a FFF7FEFF 		bl	talos_spi_rgb_setting_enable
 216              	.LVL10:
 217              	.L27:
 218              		.loc 1 48 0
 219 001e 094A     		ldr	r2, .L31+4
 220              		.loc 1 51 0
 221 0020 0198     		ldr	r0, [sp, #4]
 222 0022 2968     		ldr	r1, [r5]
 223              		.loc 1 48 0
 224 0024 04EB4404 		add	r4, r4, r4, lsl #1
 225 0028 1319     		adds	r3, r2, r4
 226              		.loc 1 51 0
 227 002a 8842     		cmp	r0, r1
 228              		.loc 1 48 0
ARM GAS  /var/folders/d2/nstgp4h54kz7g1l847x_b8wc0000gn/T//ccFF270y.s 			page 5


 229 002c 02F80480 		strb	r8, [r2, r4]
 230              		.loc 1 49 0
 231 0030 5F70     		strb	r7, [r3, #1]
 232              		.loc 1 50 0
 233 0032 9E70     		strb	r6, [r3, #2]
 234              		.loc 1 51 0
 235 0034 02D1     		bne	.L30
 236 0036 02B0     		add	sp, sp, #8
 237              		.cfi_remember_state
 238              		.cfi_def_cfa_offset 24
 239              		@ sp needed
 240 0038 BDE8F081 		pop	{r4, r5, r6, r7, r8, pc}
 241              	.L30:
 242              		.cfi_restore_state
 243 003c FFF7FEFF 		bl	__stack_chk_fail
 244              	.LVL11:
 245              	.L32:
 246              		.align	2
 247              	.L31:
 248 0040 00000000 		.word	__stack_chk_guard
 249 0044 00000000 		.word	.LANCHOR0
 250              		.cfi_endproc
 251              	.LFE258:
 252              		.size	talos_set_rgb_led, .-talos_set_rgb_led
 253              		.section	.text.talos_toggle_rgb_led,"ax",%progbits
 254              		.align	1
 255              		.p2align 4,,15
 256              		.global	talos_toggle_rgb_led
 257              		.syntax unified
 258              		.thumb
 259              		.thumb_func
 260              		.fpu fpv4-sp-d16
 261              		.type	talos_toggle_rgb_led, %function
 262              	talos_toggle_rgb_led:
 263              	.LFB259:
 264              		.loc 1 53 0
 265              		.cfi_startproc
 266              		@ args = 0, pretend = 0, frame = 8
 267              		@ frame_needed = 0, uses_anonymous_args = 0
 268              	.LVL12:
 269 0000 F0B5     		push	{r4, r5, r6, r7, lr}
 270              		.cfi_def_cfa_offset 20
 271              		.cfi_offset 4, -20
 272              		.cfi_offset 5, -16
 273              		.cfi_offset 6, -12
 274              		.cfi_offset 7, -8
 275              		.cfi_offset 14, -4
 276 0002 0F4D     		ldr	r5, .L42
 277 0004 83B0     		sub	sp, sp, #12
 278              		.cfi_def_cfa_offset 32
 279              		.loc 1 53 0
 280 0006 2B68     		ldr	r3, [r5]
 281 0008 0193     		str	r3, [sp, #4]
 282 000a 0446     		mov	r4, r0
 283 000c 0E46     		mov	r6, r1
 284 000e 1746     		mov	r7, r2
 285              		.loc 1 54 0
ARM GAS  /var/folders/d2/nstgp4h54kz7g1l847x_b8wc0000gn/T//ccFF270y.s 			page 6


 286 0010 FFF7FEFF 		bl	talos_spi_rgb_setting_is_enabled
 287              	.LVL13:
 288 0014 78B1     		cbz	r0, .L39
 289              	.L34:
 290              		.loc 1 57 0
 291 0016 0B48     		ldr	r0, .L42+4
 292 0018 04EB4404 		add	r4, r4, r4, lsl #1
 293 001c 2044     		add	r0, r0, r4
 294 001e 835D     		ldrb	r3, [r0, r6]	@ zero_extendqisi2
 295 0020 33B9     		cbnz	r3, .L40
 296              		.loc 1 60 0
 297 0022 8755     		strb	r7, [r0, r6]
 298              	.L33:
 299              		.loc 1 62 0
 300 0024 019A     		ldr	r2, [sp, #4]
 301 0026 2B68     		ldr	r3, [r5]
 302 0028 9A42     		cmp	r2, r3
 303 002a 07D1     		bne	.L41
 304 002c 03B0     		add	sp, sp, #12
 305              		.cfi_remember_state
 306              		.cfi_def_cfa_offset 20
 307              		@ sp needed
 308 002e F0BD     		pop	{r4, r5, r6, r7, pc}
 309              	.L40:
 310              		.cfi_restore_state
 311              		.loc 1 58 0
 312 0030 0023     		movs	r3, #0
 313 0032 8355     		strb	r3, [r0, r6]
 314 0034 F6E7     		b	.L33
 315              	.L39:
 316              		.loc 1 55 0
 317 0036 FFF7FEFF 		bl	talos_spi_rgb_setting_enable
 318              	.LVL14:
 319 003a ECE7     		b	.L34
 320              	.L41:
 321              		.loc 1 62 0
 322 003c FFF7FEFF 		bl	__stack_chk_fail
 323              	.LVL15:
 324              	.L43:
 325              		.align	2
 326              	.L42:
 327 0040 00000000 		.word	__stack_chk_guard
 328 0044 00000000 		.word	.LANCHOR0
 329              		.cfi_endproc
 330              	.LFE259:
 331              		.size	talos_toggle_rgb_led, .-talos_toggle_rgb_led
 332              		.section	.text.talos_set_body_led,"ax",%progbits
 333              		.align	1
 334              		.p2align 4,,15
 335              		.global	talos_set_body_led
 336              		.syntax unified
 337              		.thumb
 338              		.thumb_func
 339              		.fpu fpv4-sp-d16
 340              		.type	talos_set_body_led, %function
 341              	talos_set_body_led:
 342              	.LFB260:
ARM GAS  /var/folders/d2/nstgp4h54kz7g1l847x_b8wc0000gn/T//ccFF270y.s 			page 7


 343              		.loc 1 64 0
 344              		.cfi_startproc
 345              		@ args = 0, pretend = 0, frame = 8
 346              		@ frame_needed = 0, uses_anonymous_args = 0
 347              	.LVL16:
 348 0000 00B5     		push	{lr}
 349              		.cfi_def_cfa_offset 4
 350              		.cfi_offset 14, -4
 351 0002 0D4B     		ldr	r3, .L52
 352 0004 83B0     		sub	sp, sp, #12
 353              		.cfi_def_cfa_offset 16
 354              		.loc 1 64 0
 355 0006 1A68     		ldr	r2, [r3]
 356 0008 0192     		str	r2, [sp, #4]
 357              		.loc 1 65 0
 358 000a 0128     		cmp	r0, #1
 359 000c 0BD9     		bls	.L45
 360              		.loc 1 66 0
 361 000e 0B49     		ldr	r1, .L52+4
 362 0010 4A69     		ldr	r2, [r1, #20]
 363 0012 82F00402 		eor	r2, r2, #4
 364 0016 4A61     		str	r2, [r1, #20]
 365              	.L44:
 366              		.loc 1 70 0
 367 0018 019A     		ldr	r2, [sp, #4]
 368 001a 1B68     		ldr	r3, [r3]
 369 001c 9A42     		cmp	r2, r3
 370 001e 09D1     		bne	.L50
 371 0020 03B0     		add	sp, sp, #12
 372              		.cfi_remember_state
 373              		.cfi_def_cfa_offset 4
 374              		@ sp needed
 375 0022 5DF804FB 		ldr	pc, [sp], #4
 376              	.L45:
 377              		.cfi_restore_state
 378              		.loc 1 68 0
 379 0026 054A     		ldr	r2, .L52+4
 380 0028 0421     		movs	r1, #4
 381 002a 08B9     		cbnz	r0, .L51
 382              		.loc 1 68 0 is_stmt 0 discriminator 2
 383 002c 5183     		strh	r1, [r2, #26]	@ movhi
 384              		.loc 1 70 0 is_stmt 1 discriminator 2
 385 002e F3E7     		b	.L44
 386              	.L51:
 387              		.loc 1 68 0 discriminator 1
 388 0030 1183     		strh	r1, [r2, #24]	@ movhi
 389 0032 F1E7     		b	.L44
 390              	.L50:
 391              		.loc 1 70 0
 392 0034 FFF7FEFF 		bl	__stack_chk_fail
 393              	.LVL17:
 394              	.L53:
 395              		.align	2
 396              	.L52:
 397 0038 00000000 		.word	__stack_chk_guard
 398 003c 00040240 		.word	1073873920
 399              		.cfi_endproc
ARM GAS  /var/folders/d2/nstgp4h54kz7g1l847x_b8wc0000gn/T//ccFF270y.s 			page 8


 400              	.LFE260:
 401              		.size	talos_set_body_led, .-talos_set_body_led
 402              		.section	.text.talos_set_front_led,"ax",%progbits
 403              		.align	1
 404              		.p2align 4,,15
 405              		.global	talos_set_front_led
 406              		.syntax unified
 407              		.thumb
 408              		.thumb_func
 409              		.fpu fpv4-sp-d16
 410              		.type	talos_set_front_led, %function
 411              	talos_set_front_led:
 412              	.LFB261:
 413              		.loc 1 72 0
 414              		.cfi_startproc
 415              		@ args = 0, pretend = 0, frame = 8
 416              		@ frame_needed = 0, uses_anonymous_args = 0
 417              	.LVL18:
 418 0000 00B5     		push	{lr}
 419              		.cfi_def_cfa_offset 4
 420              		.cfi_offset 14, -4
 421 0002 0E4B     		ldr	r3, .L62
 422 0004 83B0     		sub	sp, sp, #12
 423              		.cfi_def_cfa_offset 16
 424              		.loc 1 72 0
 425 0006 1A68     		ldr	r2, [r3]
 426 0008 0192     		str	r2, [sp, #4]
 427              		.loc 1 73 0
 428 000a 0128     		cmp	r0, #1
 429 000c 0BD9     		bls	.L55
 430              		.loc 1 74 0
 431 000e 0C49     		ldr	r1, .L62+4
 432 0010 4A69     		ldr	r2, [r1, #20]
 433 0012 82F48042 		eor	r2, r2, #16384
 434 0016 4A61     		str	r2, [r1, #20]
 435              	.L54:
 436              		.loc 1 78 0
 437 0018 019A     		ldr	r2, [sp, #4]
 438 001a 1B68     		ldr	r3, [r3]
 439 001c 9A42     		cmp	r2, r3
 440 001e 0AD1     		bne	.L60
 441 0020 03B0     		add	sp, sp, #12
 442              		.cfi_remember_state
 443              		.cfi_def_cfa_offset 4
 444              		@ sp needed
 445 0022 5DF804FB 		ldr	pc, [sp], #4
 446              	.L55:
 447              		.cfi_restore_state
 448              		.loc 1 76 0
 449 0026 064A     		ldr	r2, .L62+4
 450 0028 4FF48041 		mov	r1, #16384
 451 002c 08B9     		cbnz	r0, .L61
 452              		.loc 1 76 0 is_stmt 0 discriminator 2
 453 002e 5183     		strh	r1, [r2, #26]	@ movhi
 454              		.loc 1 78 0 is_stmt 1 discriminator 2
 455 0030 F2E7     		b	.L54
 456              	.L61:
ARM GAS  /var/folders/d2/nstgp4h54kz7g1l847x_b8wc0000gn/T//ccFF270y.s 			page 9


 457              		.loc 1 76 0 discriminator 1
 458 0032 1183     		strh	r1, [r2, #24]	@ movhi
 459 0034 F0E7     		b	.L54
 460              	.L60:
 461              		.loc 1 78 0
 462 0036 FFF7FEFF 		bl	__stack_chk_fail
 463              	.LVL19:
 464              	.L63:
 465 003a 00BF     		.align	2
 466              	.L62:
 467 003c 00000000 		.word	__stack_chk_guard
 468 0040 000C0240 		.word	1073875968
 469              		.cfi_endproc
 470              	.LFE261:
 471              		.size	talos_set_front_led, .-talos_set_front_led
 472              		.section	.text.talos_clear_leds,"ax",%progbits
 473              		.align	1
 474              		.p2align 4,,15
 475              		.global	talos_clear_leds
 476              		.syntax unified
 477              		.thumb
 478              		.thumb_func
 479              		.fpu fpv4-sp-d16
 480              		.type	talos_clear_leds, %function
 481              	talos_clear_leds:
 482              	.LFB262:
 483              		.loc 1 81 0
 484              		.cfi_startproc
 485              		@ args = 0, pretend = 0, frame = 8
 486              		@ frame_needed = 0, uses_anonymous_args = 0
 487 0000 F0B5     		push	{r4, r5, r6, r7, lr}
 488              		.cfi_def_cfa_offset 20
 489              		.cfi_offset 4, -20
 490              		.cfi_offset 5, -16
 491              		.cfi_offset 6, -12
 492              		.cfi_offset 7, -8
 493              		.cfi_offset 14, -4
 494 0002 104F     		ldr	r7, .L72
 495 0004 104C     		ldr	r4, .L72+4
 496 0006 3B68     		ldr	r3, [r7]
 497 0008 83B0     		sub	sp, sp, #12
 498              		.cfi_def_cfa_offset 32
 499              	.LBB6:
 500              		.loc 1 82 0
 501 000a 0025     		movs	r5, #0
 502              	.LBE6:
 503              		.loc 1 81 0
 504 000c 0193     		str	r3, [sp, #4]
 505              	.LVL20:
 506              	.LBB13:
 507              		.loc 1 83 0
 508 000e 2E46     		mov	r6, r5
 509              	.LVL21:
 510              	.L66:
 511              		.loc 1 83 0 is_stmt 0 discriminator 3
 512 0010 0021     		movs	r1, #0
 513 0012 E8B2     		uxtb	r0, r5
ARM GAS  /var/folders/d2/nstgp4h54kz7g1l847x_b8wc0000gn/T//ccFF270y.s 			page 10


 514 0014 FFF7FEFF 		bl	talos_set_led
 515              	.LVL22:
 516              	.LBB7:
 517              	.LBB8:
 518              		.loc 1 45 0 is_stmt 1 discriminator 3
 519 0018 FFF7FEFF 		bl	talos_spi_rgb_setting_is_enabled
 520              	.LVL23:
 521 001c 68B1     		cbz	r0, .L70
 522              	.L65:
 523              	.LBE8:
 524              	.LBE7:
 525              		.loc 1 82 0
 526 001e 0135     		adds	r5, r5, #1
 527              	.LVL24:
 528 0020 042D     		cmp	r5, #4
 529              	.LBB11:
 530              	.LBB9:
 531              		.loc 1 48 0
 532 0022 2670     		strb	r6, [r4]
 533              		.loc 1 49 0
 534 0024 6670     		strb	r6, [r4, #1]
 535              		.loc 1 50 0
 536 0026 A670     		strb	r6, [r4, #2]
 537              	.LVL25:
 538 0028 04F10304 		add	r4, r4, #3
 539              	.LBE9:
 540              	.LBE11:
 541              		.loc 1 82 0
 542 002c F0D1     		bne	.L66
 543              	.LBE13:
 544              		.loc 1 86 0
 545 002e 019A     		ldr	r2, [sp, #4]
 546 0030 3B68     		ldr	r3, [r7]
 547 0032 9A42     		cmp	r2, r3
 548 0034 04D1     		bne	.L71
 549 0036 03B0     		add	sp, sp, #12
 550              		.cfi_remember_state
 551              		.cfi_def_cfa_offset 20
 552              		@ sp needed
 553 0038 F0BD     		pop	{r4, r5, r6, r7, pc}
 554              	.LVL26:
 555              	.L70:
 556              		.cfi_restore_state
 557              	.LBB14:
 558              	.LBB12:
 559              	.LBB10:
 560              		.loc 1 46 0
 561 003a FFF7FEFF 		bl	talos_spi_rgb_setting_enable
 562              	.LVL27:
 563 003e EEE7     		b	.L65
 564              	.LVL28:
 565              	.L71:
 566              	.LBE10:
 567              	.LBE12:
 568              	.LBE14:
 569              		.loc 1 86 0
 570 0040 FFF7FEFF 		bl	__stack_chk_fail
ARM GAS  /var/folders/d2/nstgp4h54kz7g1l847x_b8wc0000gn/T//ccFF270y.s 			page 11


 571              	.LVL29:
 572              	.L73:
 573              		.align	2
 574              	.L72:
 575 0044 00000000 		.word	__stack_chk_guard
 576 0048 00000000 		.word	.LANCHOR0
 577              		.cfi_endproc
 578              	.LFE262:
 579              		.size	talos_clear_leds, .-talos_clear_leds
 580              		.section	.text.talos_get_all_rgb_state,"ax",%progbits
 581              		.align	1
 582              		.p2align 4,,15
 583              		.global	talos_get_all_rgb_state
 584              		.syntax unified
 585              		.thumb
 586              		.thumb_func
 587              		.fpu fpv4-sp-d16
 588              		.type	talos_get_all_rgb_state, %function
 589              	talos_get_all_rgb_state:
 590              	.LFB263:
 591              		.loc 1 88 0
 592              		.cfi_startproc
 593              		@ args = 0, pretend = 0, frame = 8
 594              		@ frame_needed = 0, uses_anonymous_args = 0
 595              	.LVL30:
 596 0000 30B5     		push	{r4, r5, lr}
 597              		.cfi_def_cfa_offset 12
 598              		.cfi_offset 4, -12
 599              		.cfi_offset 5, -8
 600              		.cfi_offset 14, -4
 601              		.loc 1 89 0
 602 0002 094B     		ldr	r3, .L78
 603              		.loc 1 88 0
 604 0004 094D     		ldr	r5, .L78+4
 605 0006 0446     		mov	r4, r0
 606              		.loc 1 89 0
 607 0008 07CB     		ldmia	r3!, {r0, r1, r2}
 608              	.LVL31:
 609              		.loc 1 88 0
 610 000a 83B0     		sub	sp, sp, #12
 611              		.cfi_def_cfa_offset 24
 612              		.loc 1 88 0
 613 000c 2B68     		ldr	r3, [r5]
 614 000e 0193     		str	r3, [sp, #4]
 615              		.loc 1 89 0
 616 0010 2060     		str	r0, [r4]	@ unaligned
 617              		.loc 1 90 0
 618 0012 0198     		ldr	r0, [sp, #4]
 619 0014 2B68     		ldr	r3, [r5]
 620              		.loc 1 89 0
 621 0016 6160     		str	r1, [r4, #4]	@ unaligned
 622              		.loc 1 90 0
 623 0018 9842     		cmp	r0, r3
 624              		.loc 1 89 0
 625 001a A260     		str	r2, [r4, #8]	@ unaligned
 626              		.loc 1 90 0
 627 001c 01D1     		bne	.L77
ARM GAS  /var/folders/d2/nstgp4h54kz7g1l847x_b8wc0000gn/T//ccFF270y.s 			page 12


 628 001e 03B0     		add	sp, sp, #12
 629              		.cfi_remember_state
 630              		.cfi_def_cfa_offset 12
 631              		@ sp needed
 632 0020 30BD     		pop	{r4, r5, pc}
 633              	.LVL32:
 634              	.L77:
 635              		.cfi_restore_state
 636 0022 FFF7FEFF 		bl	__stack_chk_fail
 637              	.LVL33:
 638              	.L79:
 639 0026 00BF     		.align	2
 640              	.L78:
 641 0028 00000000 		.word	.LANCHOR0
 642 002c 00000000 		.word	__stack_chk_guard
 643              		.cfi_endproc
 644              	.LFE263:
 645              		.size	talos_get_all_rgb_state, .-talos_get_all_rgb_state
 646              		.section	.bss.talos_rgb_led,"aw",%nobits
 647              		.align	2
 648              		.set	.LANCHOR0,. + 0
 649              		.type	talos_rgb_led, %object
 650              		.size	talos_rgb_led, 12
 651              	talos_rgb_led:
 652 0000 00000000 		.space	12
 652      00000000 
 652      00000000 
 653              		.text
 654              	.Letext0:
 655              		.file 2 "/Applications/Eclipse_e-puck2.app/Contents/Eclipse_e-puck2/Tools/gcc-arm-none-eabi-7-2017
 656              		.file 3 "/Applications/Eclipse_e-puck2.app/Contents/Eclipse_e-puck2/Tools/gcc-arm-none-eabi-7-2017
 657              		.file 4 "/Applications/Eclipse_e-puck2.app/Contents/Eclipse_e-puck2/Tools/gcc-arm-none-eabi-7-2017
 658              		.file 5 "../e-puck2_main-processor/ChibiOS//os/rt/ports/ARMCMx/compilers/GCC/chtypes.h"
 659              		.file 6 "../e-puck2_main-processor/ChibiOS//os/rt/include/chsystypes.h"
 660              		.file 7 "../e-puck2_main-processor/ChibiOS//os/rt/include/chschd.h"
 661              		.file 8 "../e-puck2_main-processor/ChibiOS//os/ext/CMSIS/include/core_cm4.h"
 662              		.file 9 "../e-puck2_main-processor/ChibiOS//os/ext/CMSIS/ST/system_stm32f4xx.h"
 663              		.file 10 "../e-puck2_main-processor/ChibiOS//os/ext/CMSIS/ST/stm32f407xx.h"
 664              		.file 11 "../e-puck2_main-processor/ChibiOS//os/rt/ports/ARMCMx/chcore.h"
 665              		.file 12 "../e-puck2_main-processor/ChibiOS//os/rt/ports/ARMCMx/chcore_v7m.h"
 666              		.file 13 "../e-puck2_main-processor/ChibiOS//os/rt/include/chdebug.h"
 667              		.file 14 "../e-puck2_main-processor/ChibiOS//os/rt/include/chtm.h"
 668              		.file 15 "../e-puck2_main-processor/ChibiOS//os/rt/include/chstats.h"
 669              		.file 16 "../e-puck2_main-processor/ChibiOS//os/rt/include/chsem.h"
 670              		.file 17 "../e-puck2_main-processor/ChibiOS//os/rt/include/chmtx.h"
 671              		.file 18 "../e-puck2_main-processor/ChibiOS//os/rt/include/chregistry.h"
 672              		.file 19 "../e-puck2_main-processor/ChibiOS//os/rt/include/chevents.h"
 673              		.file 20 "../e-puck2_main-processor/ChibiOS//os/rt/include/chqueues.h"
 674              		.file 21 "../e-puck2_main-processor/ChibiOS//os/hal/ports/STM32/STM32F4xx/stm32_dma.h"
 675              		.file 22 "../e-puck2_main-processor/ChibiOS//os/hal/include/hal_ioblock.h"
 676              		.file 23 "../e-puck2_main-processor/ChibiOS//os/hal/ports/STM32/LLD/GPIOv2/pal_lld.h"
 677              		.file 24 "../e-puck2_main-processor/ChibiOS//os/hal/include/adc.h"
 678              		.file 25 "../e-puck2_main-processor/ChibiOS//os/hal/ports/STM32/STM32F4xx/adc_lld.h"
 679              		.file 26 "../e-puck2_main-processor/ChibiOS//os/hal/include/can.h"
 680              		.file 27 "../e-puck2_main-processor/ChibiOS//os/hal/ports/STM32/LLD/can_lld.h"
 681              		.file 28 "../e-puck2_main-processor/ChibiOS//os/hal/include/dac.h"
 682              		.file 29 "../e-puck2_main-processor/ChibiOS//os/hal/ports/STM32/LLD/DACv1/dac_lld.h"
ARM GAS  /var/folders/d2/nstgp4h54kz7g1l847x_b8wc0000gn/T//ccFF270y.s 			page 13


 683              		.file 30 "../e-puck2_main-processor/ChibiOS//os/hal/include/ext.h"
 684              		.file 31 "../e-puck2_main-processor/ChibiOS//os/hal/ports/STM32/LLD/ext_lld.h"
 685              		.file 32 "../e-puck2_main-processor/ChibiOS//os/hal/include/gpt.h"
 686              		.file 33 "../e-puck2_main-processor/ChibiOS//os/hal/ports/STM32/LLD/TIMv1/gpt_lld.h"
 687              		.file 34 "../e-puck2_main-processor/ChibiOS//os/hal/ports/STM32/LLD/TIMv1/stm32_tim.h"
 688              		.file 35 "../e-puck2_main-processor/ChibiOS//os/hal/include/i2c.h"
 689              		.file 36 "../e-puck2_main-processor/ChibiOS//os/hal/ports/STM32/LLD/I2Cv1/i2c_lld.h"
 690              		.file 37 "../e-puck2_main-processor/ChibiOS//os/hal/include/i2s.h"
 691              		.file 38 "../e-puck2_main-processor/ChibiOS//os/hal/ports/STM32/LLD/SPIv1/i2s_lld.h"
 692              		.file 39 "../e-puck2_main-processor/ChibiOS//os/hal/include/pwm.h"
 693              		.file 40 "../e-puck2_main-processor/ChibiOS//os/hal/ports/STM32/LLD/TIMv1/pwm_lld.h"
 694              		.file 41 "../e-puck2_main-processor/ChibiOS//os/hal/include/serial.h"
 695              		.file 42 "../e-puck2_main-processor/ChibiOS//os/hal/ports/STM32/LLD/USARTv1/serial_lld.h"
 696              		.file 43 "../e-puck2_main-processor/ChibiOS//os/hal/include/sdc.h"
 697              		.file 44 "../e-puck2_main-processor/ChibiOS//os/hal/ports/STM32/LLD/sdc_lld.h"
 698              		.file 45 "../e-puck2_main-processor/ChibiOS//os/hal/include/spi.h"
 699              		.file 46 "../e-puck2_main-processor/ChibiOS//os/hal/ports/STM32/LLD/SPIv1/spi_lld.h"
 700              		.file 47 "../e-puck2_main-processor/ChibiOS//os/hal/include/usb.h"
 701              		.file 48 "../e-puck2_main-processor/ChibiOS//os/hal/ports/STM32/LLD/OTGv1/usb_lld.h"
 702              		.file 49 "../e-puck2_main-processor/ChibiOS//os/hal/ports/STM32/LLD/OTGv1/stm32_otg.h"
 703              		.file 50 "../e-puck2_main-processor/ChibiOS//os/hal/include/serial_usb.h"
 704              		.file 51 "/Applications/Eclipse_e-puck2.app/Contents/Eclipse_e-puck2/Tools/gcc-arm-none-eabi-7-201
 705              		.file 52 "/Applications/Eclipse_e-puck2.app/Contents/Eclipse_e-puck2/Tools/gcc-arm-none-eabi-7-201
 706              		.file 53 "/Applications/Eclipse_e-puck2.app/Contents/Eclipse_e-puck2/Tools/gcc-arm-none-eabi-7-201
 707              		.file 54 "/Applications/Eclipse_e-puck2.app/Contents/Eclipse_e-puck2/Tools/gcc-arm-none-eabi-7-201
 708              		.file 55 "../e-puck2_main-processor/src/usbcfg.h"
 709              		.file 56 "talos_leds.h"
 710              		.file 57 "spi_communication.h"