ARM GAS  /var/folders/d2/nstgp4h54kz7g1l847x_b8wc0000gn/T//ccFwmztN.s 			page 1


   1              		.cpu cortex-m4
   2              		.eabi_attribute 27, 1
   3              		.eabi_attribute 28, 1
   4              		.eabi_attribute 20, 1
   5              		.eabi_attribute 21, 1
   6              		.eabi_attribute 23, 3
   7              		.eabi_attribute 24, 1
   8              		.eabi_attribute 25, 1
   9              		.eabi_attribute 26, 1
  10              		.eabi_attribute 30, 2
  11              		.eabi_attribute 34, 1
  12              		.eabi_attribute 18, 4
  13              		.file	"talos.c"
  14              		.text
  15              	.Ltext0:
  16              		.cfi_sections	.debug_frame
  17              		.section	.text.obstacle_avoidance,"ax",%progbits
  18              		.align	1
  19              		.p2align 4,,15
  20              		.global	obstacle_avoidance
  21              		.syntax unified
  22              		.thumb
  23              		.thumb_func
  24              		.fpu fpv4-sp-d16
  25              		.type	obstacle_avoidance, %function
  26              	obstacle_avoidance:
  27              	.LFB262:
  28              		.file 1 "talos.c"
  29              		.loc 1 35 0
  30              		.cfi_startproc
  31              		@ args = 0, pretend = 0, frame = 152
  32              		@ frame_needed = 0, uses_anonymous_args = 0
  33 0000 2DE9F04F 		push	{r4, r5, r6, r7, r8, r9, r10, fp, lr}
  34              		.cfi_def_cfa_offset 36
  35              		.cfi_offset 4, -36
  36              		.cfi_offset 5, -32
  37              		.cfi_offset 6, -28
  38              		.cfi_offset 7, -24
  39              		.cfi_offset 8, -20
  40              		.cfi_offset 9, -16
  41              		.cfi_offset 10, -12
  42              		.cfi_offset 11, -8
  43              		.cfi_offset 14, -4
  44 0004 664B     		ldr	r3, .L34
  45 0006 674F     		ldr	r7, .L34+4
  46 0008 1B68     		ldr	r3, [r3]
  47              	.LBB84:
  48              		.loc 1 122 0
  49 000a DFF8A0A1 		ldr	r10, .L34+12
  50 000e DFF8A091 		ldr	r9, .L34+16
  51              	.LBE84:
  52              		.loc 1 35 0
  53 0012 A7B0     		sub	sp, sp, #156
  54              		.cfi_def_cfa_offset 192
  55              		.loc 1 40 0
  56 0014 0120     		movs	r0, #1
  57              		.loc 1 35 0
ARM GAS  /var/folders/d2/nstgp4h54kz7g1l847x_b8wc0000gn/T//ccFwmztN.s 			page 2


  58 0016 2593     		str	r3, [sp, #148]
  59              		.loc 1 40 0
  60 0018 FFF7FEFF 		bl	talos_set_body_led
  61              	.LVL0:
  62              		.loc 1 43 0
  63 001c 0120     		movs	r0, #1
  64 001e FFF7FEFF 		bl	talos_set_front_led
  65              	.LVL1:
  66              		.loc 1 50 0
  67 0022 FFF7FEFF 		bl	calibrate_ir
  68              	.LVL2:
  69              		.loc 1 47 0
  70 0026 0025     		movs	r5, #0
  71              		.loc 1 45 0
  72 0028 2E46     		mov	r6, r5
  73              	.LVL3:
  74              	.L14:
  75              	.LBB108:
  76              	.LBB85:
  77              	.LBB86:
  78              	.LBB87:
  79              	.LBB88:
  80              	.LBB89:
  81              	.LBB90:
  82              	.LBB91:
  83              		.file 2 "../e-puck2_main-processor/ChibiOS//os/ext/CMSIS/include/core_cmFunc.h"
  84              		.loc 2 546 0
  85 002a 2023     		movs	r3, #32
  86              		.syntax unified
  87              	@ 546 "../e-puck2_main-processor/ChibiOS//os/ext/CMSIS/include/core_cmFunc.h" 1
  88 002c 83F31188 		MSR basepri, r3
  89              	@ 0 "" 2
  90              	.LVL4:
  91              		.thumb
  92              		.syntax unified
  93              	.LBE91:
  94              	.LBE90:
  95              	.LBE89:
  96              		.file 3 "../e-puck2_main-processor/ChibiOS//os/rt/include/chsys.h"
  97              		.loc 3 349 0
  98 0030 FFF7FEFF 		bl	_stats_start_measure_crit_thd
  99              	.LVL5:
 100              		.loc 3 350 0
 101 0034 FFF7FEFF 		bl	_dbg_check_lock
 102              	.LVL6:
 103              	.LBE88:
 104              	.LBE87:
 105              	.LBB92:
 106              	.LBB93:
 107              		.file 4 "../e-puck2_main-processor/ChibiOS//os/rt/include/chvt.h"
 108              		.loc 4 231 0
 109 0038 D7F82880 		ldr	r8, [r7, #40]
 110              	.LBE93:
 111              	.LBE92:
 112              	.LBB94:
 113              	.LBB95:
 114              		.loc 3 360 0
ARM GAS  /var/folders/d2/nstgp4h54kz7g1l847x_b8wc0000gn/T//ccFwmztN.s 			page 3


 115 003c FFF7FEFF 		bl	_dbg_check_unlock
 116              	.LVL7:
 117              		.loc 3 361 0
 118 0040 FFF7FEFF 		bl	_stats_stop_measure_crit_thd
 119              	.LVL8:
 120              		.loc 3 367 0
 121 0044 3B68     		ldr	r3, [r7]
 122 0046 BB42     		cmp	r3, r7
 123 0048 07D0     		beq	.L2
 124 004a BA69     		ldr	r2, [r7, #24]
 125 004c 9B68     		ldr	r3, [r3, #8]
 126 004e 9268     		ldr	r2, [r2, #8]
 127 0050 9A42     		cmp	r2, r3
 128 0052 02D2     		bcs	.L2
 129 0054 5448     		ldr	r0, .L34+8
 130 0056 FFF7FEFF 		bl	chSysHalt
 131              	.LVL9:
 132              	.L2:
 133              	.LBB96:
 134              	.LBB97:
 135              	.LBB98:
 136              		.loc 2 546 0
 137 005a 0024     		movs	r4, #0
 138              		.syntax unified
 139              	@ 546 "../e-puck2_main-processor/ChibiOS//os/ext/CMSIS/include/core_cmFunc.h" 1
 140 005c 84F31188 		MSR basepri, r4
 141              	@ 0 "" 2
 142              	.LVL10:
 143              		.thumb
 144              		.syntax unified
 145              	.LBE98:
 146              	.LBE97:
 147              	.LBE96:
 148              	.LBE95:
 149              	.LBE94:
 150              	.LBE86:
 151              	.LBE85:
 152              		.loc 1 58 0
 153 0060 2246     		mov	r2, r4
 154 0062 2146     		mov	r1, r4
 155 0064 2046     		mov	r0, r4
 156 0066 FFF7FEFF 		bl	playMelody
 157              	.LVL11:
 158 006a 86F00106 		eor	r6, r6, #1
 159              	.LVL12:
 160              	.L3:
 161              	.LBB99:
 162              		.loc 1 63 0 discriminator 3
 163 006e E0B2     		uxtb	r0, r4
 164 0070 3146     		mov	r1, r6
 165              		.loc 1 62 0 discriminator 3
 166 0072 0134     		adds	r4, r4, #1
 167              	.LVL13:
 168              		.loc 1 63 0 discriminator 3
 169 0074 FFF7FEFF 		bl	talos_set_led
 170              	.LVL14:
 171              		.loc 1 62 0 discriminator 3
ARM GAS  /var/folders/d2/nstgp4h54kz7g1l847x_b8wc0000gn/T//ccFwmztN.s 			page 4


 172 0078 042C     		cmp	r4, #4
 173 007a F8D1     		bne	.L3
 174              	.LBE99:
 175              		.loc 1 67 0
 176 007c 062D     		cmp	r5, #6
 177 007e 0FD8     		bhi	.L4
 178 0080 DFE805F0 		tbb	[pc, r5]
 179              	.L6:
 180 0084 04       		.byte	(.L5-.L6)/2
 181 0085 82       		.byte	(.L16-.L6)/2
 182 0086 6B       		.byte	(.L17-.L6)/2
 183 0087 77       		.byte	(.L18-.L6)/2
 184 0088 5F       		.byte	(.L19-.L6)/2
 185 0089 53       		.byte	(.L20-.L6)/2
 186 008a 47       		.byte	(.L21-.L6)/2
 187              	.LVL15:
 188 008b 00       		.p2align 1
 189              	.L5:
 190              	.LBB100:
 191              		.loc 1 71 0
 192 008c 0023     		movs	r3, #0
 193 008e E8B2     		uxtb	r0, r5
 194 0090 1A46     		mov	r2, r3
 195 0092 0A21     		movs	r1, #10
 196              		.loc 1 70 0
 197 0094 0135     		adds	r5, r5, #1
 198              	.LVL16:
 199              		.loc 1 71 0
 200 0096 FFF7FEFF 		bl	talos_set_rgb_led
 201              	.LVL17:
 202              		.loc 1 69 0
 203 009a 042D     		cmp	r5, #4
 204 009c F6D1     		bne	.L5
 205              	.LBE100:
 206              		.loc 1 73 0
 207 009e 0125     		movs	r5, #1
 208              	.LVL18:
 209              	.L4:
 210              		.loc 1 122 0
 211 00a0 5146     		mov	r1, r10
 212 00a2 4846     		mov	r0, r9
 213 00a4 FFF7FEFF 		bl	messagebus_find_topic_blocking
 214              	.LVL19:
 215              		.loc 1 124 0
 216 00a8 8022     		movs	r2, #128
 217 00aa 05A9     		add	r1, sp, #20
 218 00ac FFF7FEFF 		bl	messagebus_topic_wait
 219              	.LVL20:
 220 00b0 0DF1020B 		add	fp, sp, #2
 221              	.LBB101:
 222              		.loc 1 125 0
 223 00b4 0024     		movs	r4, #0
 224              	.LVL21:
 225              	.L13:
 226              		.loc 1 126 0 discriminator 3
 227 00b6 2046     		mov	r0, r4
 228 00b8 FFF7FEFF 		bl	get_calibrated_prox
ARM GAS  /var/folders/d2/nstgp4h54kz7g1l847x_b8wc0000gn/T//ccFwmztN.s 			page 5


 229              	.LVL22:
 230              		.loc 1 125 0 discriminator 3
 231 00bc 0134     		adds	r4, r4, #1
 232              	.LVL23:
 233 00be 082C     		cmp	r4, #8
 234              		.loc 1 126 0 discriminator 3
 235 00c0 2BF8020F 		strh	r0, [fp, #2]!	@ movhi
 236              		.loc 1 125 0 discriminator 3
 237 00c4 F7D1     		bne	.L13
 238              	.LBE101:
 239              		.loc 1 132 0
 240 00c6 BDF81030 		ldrh	r3, [sp, #16]
 241 00ca BDF81220 		ldrh	r2, [sp, #18]
 242 00ce BDF80E00 		ldrh	r0, [sp, #14]
 243 00d2 40F22624 		movw	r4, #550
 244              	.LVL24:
 245 00d6 9B00     		lsls	r3, r3, #2
 246 00d8 03EBC203 		add	r3, r3, r2, lsl #3
 247 00dc A4EB4000 		sub	r0, r4, r0, lsl #1
 248 00e0 C01A     		subs	r0, r0, r3
 249              		.loc 1 130 0
 250 00e2 00B2     		sxth	r0, r0
 251 00e4 FFF7FEFF 		bl	right_motor_set_speed
 252              	.LVL25:
 253              		.loc 1 135 0
 254 00e8 BDF80600 		ldrh	r0, [sp, #6]
 255 00ec BDF80820 		ldrh	r2, [sp, #8]
 256 00f0 BDF80430 		ldrh	r3, [sp, #4]
 257 00f4 8000     		lsls	r0, r0, #2
 258 00f6 A4EB4204 		sub	r4, r4, r2, lsl #1
 259 00fa 00EBC300 		add	r0, r0, r3, lsl #3
 260 00fe 201A     		subs	r0, r4, r0
 261              		.loc 1 133 0
 262 0100 00B2     		sxth	r0, r0
 263 0102 FFF7FEFF 		bl	left_motor_set_speed
 264              	.LVL26:
 265              		.loc 1 138 0
 266 0106 08F16401 		add	r1, r8, #100
 267 010a 4046     		mov	r0, r8
 268 010c FFF7FEFF 		bl	chThdSleepUntilWindowed
 269              	.LVL27:
 270              	.LBE108:
 271              		.loc 1 53 0
 272 0110 8BE7     		b	.L14
 273              	.LVL28:
 274              	.L21:
 275              	.LBB109:
 276              	.LBB102:
 277              		.loc 1 111 0
 278 0112 0024     		movs	r4, #0
 279              	.LVL29:
 280              	.L12:
 281              		.loc 1 113 0
 282 0114 0A23     		movs	r3, #10
 283 0116 E0B2     		uxtb	r0, r4
 284 0118 1946     		mov	r1, r3
 285 011a 0022     		movs	r2, #0
ARM GAS  /var/folders/d2/nstgp4h54kz7g1l847x_b8wc0000gn/T//ccFwmztN.s 			page 6


 286              		.loc 1 112 0
 287 011c 0134     		adds	r4, r4, #1
 288              	.LVL30:
 289              		.loc 1 113 0
 290 011e FFF7FEFF 		bl	talos_set_rgb_led
 291              	.LVL31:
 292              		.loc 1 111 0
 293 0122 042C     		cmp	r4, #4
 294 0124 F6D1     		bne	.L12
 295              	.LBE102:
 296              		.loc 1 115 0
 297 0126 0025     		movs	r5, #0
 298              	.LVL32:
 299 0128 BAE7     		b	.L4
 300              	.LVL33:
 301              	.L20:
 302              	.LBB103:
 303              		.loc 1 104 0
 304 012a 0024     		movs	r4, #0
 305              	.LVL34:
 306              	.L11:
 307              		.loc 1 106 0
 308 012c 0A23     		movs	r3, #10
 309 012e E0B2     		uxtb	r0, r4
 310 0130 1946     		mov	r1, r3
 311 0132 0022     		movs	r2, #0
 312              		.loc 1 105 0
 313 0134 0134     		adds	r4, r4, #1
 314              	.LVL35:
 315              		.loc 1 106 0
 316 0136 FFF7FEFF 		bl	talos_set_rgb_led
 317              	.LVL36:
 318              		.loc 1 104 0
 319 013a 042C     		cmp	r4, #4
 320 013c F6D1     		bne	.L11
 321              	.LBE103:
 322              		.loc 1 108 0
 323 013e 0625     		movs	r5, #6
 324              	.LVL37:
 325 0140 AEE7     		b	.L4
 326              	.LVL38:
 327              	.L19:
 328              	.LBB104:
 329              		.loc 1 97 0
 330 0142 0024     		movs	r4, #0
 331              	.LVL39:
 332              	.L10:
 333              		.loc 1 99 0
 334 0144 0A23     		movs	r3, #10
 335 0146 E0B2     		uxtb	r0, r4
 336 0148 1A46     		mov	r2, r3
 337 014a 0021     		movs	r1, #0
 338              		.loc 1 98 0
 339 014c 0134     		adds	r4, r4, #1
 340              	.LVL40:
 341              		.loc 1 99 0
 342 014e FFF7FEFF 		bl	talos_set_rgb_led
ARM GAS  /var/folders/d2/nstgp4h54kz7g1l847x_b8wc0000gn/T//ccFwmztN.s 			page 7


 343              	.LVL41:
 344              		.loc 1 97 0
 345 0152 042C     		cmp	r4, #4
 346 0154 F6D1     		bne	.L10
 347              	.LBE104:
 348              		.loc 1 101 0
 349 0156 0525     		movs	r5, #5
 350              	.LVL42:
 351 0158 A2E7     		b	.L4
 352              	.LVL43:
 353              	.L17:
 354              	.LBB105:
 355              		.loc 1 83 0
 356 015a 0024     		movs	r4, #0
 357              	.LVL44:
 358              	.L8:
 359              		.loc 1 85 0
 360 015c 0022     		movs	r2, #0
 361 015e E0B2     		uxtb	r0, r4
 362 0160 1146     		mov	r1, r2
 363 0162 0A23     		movs	r3, #10
 364              		.loc 1 84 0
 365 0164 0134     		adds	r4, r4, #1
 366              	.LVL45:
 367              		.loc 1 85 0
 368 0166 FFF7FEFF 		bl	talos_set_rgb_led
 369              	.LVL46:
 370              		.loc 1 83 0
 371 016a 042C     		cmp	r4, #4
 372 016c F6D1     		bne	.L8
 373              	.LBE105:
 374              		.loc 1 87 0
 375 016e 0325     		movs	r5, #3
 376              	.LVL47:
 377 0170 96E7     		b	.L4
 378              	.LVL48:
 379              	.L18:
 380              	.LBB106:
 381              		.loc 1 90 0
 382 0172 0025     		movs	r5, #0
 383              	.LVL49:
 384              	.L9:
 385              		.loc 1 92 0
 386 0174 0A22     		movs	r2, #10
 387 0176 E8B2     		uxtb	r0, r5
 388 0178 1146     		mov	r1, r2
 389 017a 0023     		movs	r3, #0
 390              		.loc 1 91 0
 391 017c 0135     		adds	r5, r5, #1
 392              	.LVL50:
 393              		.loc 1 92 0
 394 017e FFF7FEFF 		bl	talos_set_rgb_led
 395              	.LVL51:
 396              		.loc 1 90 0
 397 0182 042D     		cmp	r5, #4
 398 0184 F6D1     		bne	.L9
 399 0186 8BE7     		b	.L4
ARM GAS  /var/folders/d2/nstgp4h54kz7g1l847x_b8wc0000gn/T//ccFwmztN.s 			page 8


 400              	.LVL52:
 401              	.L16:
 402              	.LBE106:
 403              	.LBB107:
 404              		.loc 1 76 0
 405 0188 0024     		movs	r4, #0
 406              	.LVL53:
 407              	.L7:
 408              		.loc 1 78 0
 409 018a 0023     		movs	r3, #0
 410 018c E0B2     		uxtb	r0, r4
 411 018e 1946     		mov	r1, r3
 412 0190 0A22     		movs	r2, #10
 413              		.loc 1 77 0
 414 0192 0134     		adds	r4, r4, #1
 415              	.LVL54:
 416              		.loc 1 78 0
 417 0194 FFF7FEFF 		bl	talos_set_rgb_led
 418              	.LVL55:
 419              		.loc 1 76 0
 420 0198 042C     		cmp	r4, #4
 421 019a F6D1     		bne	.L7
 422              	.LBE107:
 423              		.loc 1 80 0
 424 019c 0225     		movs	r5, #2
 425              	.LVL56:
 426 019e 7FE7     		b	.L4
 427              	.L35:
 428              		.align	2
 429              	.L34:
 430 01a0 00000000 		.word	__stack_chk_guard
 431 01a4 00000000 		.word	ch
 432 01a8 00000000 		.word	.LANCHOR0
 433 01ac 00000000 		.word	.LC0
 434 01b0 00000000 		.word	.LANCHOR1
 435              	.LBE109:
 436              		.cfi_endproc
 437              	.LFE262:
 438              		.size	obstacle_avoidance, .-obstacle_avoidance
 439              		.section	.text.rotation_using_gyro,"ax",%progbits
 440              		.align	1
 441              		.p2align 4,,15
 442              		.global	rotation_using_gyro
 443              		.syntax unified
 444              		.thumb
 445              		.thumb_func
 446              		.fpu fpv4-sp-d16
 447              		.type	rotation_using_gyro, %function
 448              	rotation_using_gyro:
 449              	.LFB263:
 450              		.loc 1 143 0
 451              		.cfi_startproc
 452              		@ args = 0, pretend = 0, frame = 120
 453              		@ frame_needed = 0, uses_anonymous_args = 0
 454 0000 2DE9F047 		push	{r4, r5, r6, r7, r8, r9, r10, lr}
 455              		.cfi_def_cfa_offset 32
 456              		.cfi_offset 4, -32
ARM GAS  /var/folders/d2/nstgp4h54kz7g1l847x_b8wc0000gn/T//ccFwmztN.s 			page 9


 457              		.cfi_offset 5, -28
 458              		.cfi_offset 6, -24
 459              		.cfi_offset 7, -20
 460              		.cfi_offset 8, -16
 461              		.cfi_offset 9, -12
 462              		.cfi_offset 10, -8
 463              		.cfi_offset 14, -4
 464 0004 2DED048B 		vpush.64	{d8, d9}
 465              		.cfi_def_cfa_offset 48
 466              		.cfi_offset 80, -48
 467              		.cfi_offset 81, -44
 468              		.cfi_offset 82, -40
 469              		.cfi_offset 83, -36
 470 0008 674B     		ldr	r3, .L73
 471              		.loc 1 150 0
 472 000a DFED688A 		vldr.32	s17, .L73+4
 473              		.loc 1 143 0
 474 000e 1B68     		ldr	r3, [r3]
 475 0010 674F     		ldr	r7, .L73+8
 476              	.LBB133:
 477              	.LBB134:
 478              	.LBB135:
 479              	.LBB136:
 480              	.LBB137:
 481              		.loc 3 367 0
 482 0012 DFF8B0A1 		ldr	r10, .L73+28
 483              	.LBE137:
 484              	.LBE136:
 485              	.LBE135:
 486              	.LBE134:
 487              		.loc 1 238 0
 488 0016 DFED679A 		vldr.32	s19, .L73+12
 489              		.loc 1 239 0
 490 001a 9FED679A 		vldr.32	s18, .L73+16
 491              	.LBE133:
 492              		.loc 1 143 0
 493 001e 9EB0     		sub	sp, sp, #120
 494              		.cfi_def_cfa_offset 168
 495              		.loc 1 154 0
 496 0020 0025     		movs	r5, #0
 497              		.loc 1 143 0
 498 0022 1D93     		str	r3, [sp, #116]
 499              	.LVL57:
 500              		.loc 1 152 0
 501 0024 2E46     		mov	r6, r5
 502              		.loc 1 148 0
 503 0026 A946     		mov	r9, r5
 504              	.LVL58:
 505              	.L52:
 506              	.LBB160:
 507              	.LBB151:
 508              	.LBB150:
 509              	.LBB142:
 510              	.LBB143:
 511              	.LBB144:
 512              	.LBB145:
 513              	.LBB146:
ARM GAS  /var/folders/d2/nstgp4h54kz7g1l847x_b8wc0000gn/T//ccFwmztN.s 			page 10


 514              		.loc 2 546 0
 515 0028 2023     		movs	r3, #32
 516              		.syntax unified
 517              	@ 546 "../e-puck2_main-processor/ChibiOS//os/ext/CMSIS/include/core_cmFunc.h" 1
 518 002a 83F31188 		MSR basepri, r3
 519              	@ 0 "" 2
 520              	.LVL59:
 521              		.thumb
 522              		.syntax unified
 523              	.LBE146:
 524              	.LBE145:
 525              	.LBE144:
 526              		.loc 3 349 0
 527 002e FFF7FEFF 		bl	_stats_start_measure_crit_thd
 528              	.LVL60:
 529              		.loc 3 350 0
 530 0032 FFF7FEFF 		bl	_dbg_check_lock
 531              	.LVL61:
 532              	.LBE143:
 533              	.LBE142:
 534              	.LBB147:
 535              	.LBB148:
 536              		.loc 4 231 0
 537 0036 D7F82880 		ldr	r8, [r7, #40]
 538              	.LBE148:
 539              	.LBE147:
 540              	.LBB149:
 541              	.LBB141:
 542              		.loc 3 360 0
 543 003a FFF7FEFF 		bl	_dbg_check_unlock
 544              	.LVL62:
 545              		.loc 3 361 0
 546 003e FFF7FEFF 		bl	_stats_stop_measure_crit_thd
 547              	.LVL63:
 548              		.loc 3 367 0
 549 0042 3B68     		ldr	r3, [r7]
 550 0044 BB42     		cmp	r3, r7
 551 0046 07D0     		beq	.L37
 552 0048 BA69     		ldr	r2, [r7, #24]
 553 004a 9B68     		ldr	r3, [r3, #8]
 554 004c 9268     		ldr	r2, [r2, #8]
 555 004e 9A42     		cmp	r2, r3
 556 0050 02D2     		bcs	.L37
 557 0052 5046     		mov	r0, r10
 558 0054 FFF7FEFF 		bl	chSysHalt
 559              	.LVL64:
 560              	.L37:
 561              	.LBB138:
 562              	.LBB139:
 563              	.LBB140:
 564              		.loc 2 546 0
 565 0058 0024     		movs	r4, #0
 566              		.syntax unified
 567              	@ 546 "../e-puck2_main-processor/ChibiOS//os/ext/CMSIS/include/core_cmFunc.h" 1
 568 005a 84F31188 		MSR basepri, r4
 569              	@ 0 "" 2
 570              	.LVL65:
ARM GAS  /var/folders/d2/nstgp4h54kz7g1l847x_b8wc0000gn/T//ccFwmztN.s 			page 11


 571              		.thumb
 572              		.syntax unified
 573              	.LBE140:
 574              	.LBE139:
 575              	.LBE138:
 576              	.LBE141:
 577              	.LBE149:
 578              	.LBE150:
 579              	.LBE151:
 580              		.loc 1 162 0
 581 005e 0D20     		movs	r0, #13
 582 0060 2246     		mov	r2, r4
 583 0062 2146     		mov	r1, r4
 584 0064 FFF7FEFF 		bl	playMelody
 585              	.LVL66:
 586 0068 86F00106 		eor	r6, r6, #1
 587              	.LVL67:
 588              	.L38:
 589              	.LBB152:
 590              		.loc 1 167 0 discriminator 3
 591 006c E0B2     		uxtb	r0, r4
 592 006e 3146     		mov	r1, r6
 593              		.loc 1 166 0 discriminator 3
 594 0070 0134     		adds	r4, r4, #1
 595              	.LVL68:
 596              		.loc 1 167 0 discriminator 3
 597 0072 FFF7FEFF 		bl	talos_set_led
 598              	.LVL69:
 599              		.loc 1 166 0 discriminator 3
 600 0076 042C     		cmp	r4, #4
 601 0078 F8D1     		bne	.L38
 602              	.LBE152:
 603              		.loc 1 171 0
 604 007a 062D     		cmp	r5, #6
 605 007c 0FD8     		bhi	.L39
 606 007e DFE805F0 		tbb	[pc, r5]
 607              	.L41:
 608 0082 04       		.byte	(.L40-.L41)/2
 609 0083 7D       		.byte	(.L54-.L41)/2
 610 0084 66       		.byte	(.L55-.L41)/2
 611 0085 72       		.byte	(.L56-.L41)/2
 612 0086 5A       		.byte	(.L57-.L41)/2
 613 0087 4E       		.byte	(.L58-.L41)/2
 614 0088 38       		.byte	(.L59-.L41)/2
 615              	.LVL70:
 616 0089 00       		.p2align 1
 617              	.L40:
 618              	.LBB153:
 619              		.loc 1 175 0
 620 008a 0023     		movs	r3, #0
 621 008c E8B2     		uxtb	r0, r5
 622 008e 1A46     		mov	r2, r3
 623 0090 0A21     		movs	r1, #10
 624              		.loc 1 174 0
 625 0092 0135     		adds	r5, r5, #1
 626              	.LVL71:
 627              		.loc 1 175 0
ARM GAS  /var/folders/d2/nstgp4h54kz7g1l847x_b8wc0000gn/T//ccFwmztN.s 			page 12


 628 0094 FFF7FEFF 		bl	talos_set_rgb_led
 629              	.LVL72:
 630              		.loc 1 173 0
 631 0098 042D     		cmp	r5, #4
 632 009a F6D1     		bne	.L40
 633              	.LBE153:
 634              		.loc 1 177 0
 635 009c 0125     		movs	r5, #1
 636              	.LVL73:
 637              	.L39:
 638              		.loc 1 225 0
 639 009e C820     		movs	r0, #200
 640              		.loc 1 223 0
 641 00a0 B9F1000F 		cmp	r9, #0
 642 00a4 34D1     		bne	.L48
 643              	.L72:
 644              		.loc 1 225 0
 645 00a6 FFF7FEFF 		bl	right_motor_set_speed
 646              	.LVL74:
 647              		.loc 1 226 0
 648 00aa 6FF0C700 		mvn	r0, #199
 649 00ae FFF7FEFF 		bl	left_motor_set_speed
 650              	.LVL75:
 651              	.L49:
 652              		.loc 1 235 0
 653 00b2 4249     		ldr	r1, .L73+20
 654 00b4 4248     		ldr	r0, .L73+24
 655 00b6 FFF7FEFF 		bl	messagebus_find_topic_blocking
 656              	.LVL76:
 657              		.loc 1 237 0
 658 00ba 7422     		movs	r2, #116
 659 00bc 6946     		mov	r1, sp
 660 00be FFF7FEFF 		bl	messagebus_topic_wait
 661              	.LVL77:
 662              		.loc 1 238 0
 663 00c2 0220     		movs	r0, #2
 664 00c4 FFF7FEFF 		bl	get_gyro_rate
 665              	.LVL78:
 666 00c8 B0EE408A 		vmov.f32	s16, s0
 667 00cc FFF7FEFF 		bl	getDiffTimeMsAndReset
 668              	.LVL79:
 669 00d0 28EE000A 		vmul.f32	s0, s16, s0
 670 00d4 E0EE298A 		vfma.f32	s17, s0, s19
 671              	.LVL80:
 672              		.loc 1 239 0
 673 00d8 F0EEE87A 		vabs.f32	s15, s17
 674 00dc F4EEC97A 		vcmpe.f32	s15, s18
 675 00e0 F1EE10FA 		vmrs	APSR_nzcv, FPSCR
 676 00e4 56DA     		bge	.L71
 677              	.LVL81:
 678              	.L50:
 679              		.loc 1 247 0
 680 00e6 08F16401 		add	r1, r8, #100
 681 00ea 4046     		mov	r0, r8
 682 00ec FFF7FEFF 		bl	chThdSleepUntilWindowed
 683              	.LVL82:
 684              	.LBE160:
ARM GAS  /var/folders/d2/nstgp4h54kz7g1l847x_b8wc0000gn/T//ccFwmztN.s 			page 13


 685              		.loc 1 157 0
 686 00f0 9AE7     		b	.L52
 687              	.LVL83:
 688              	.L59:
 689              	.LBB161:
 690              	.LBB154:
 691              		.loc 1 215 0
 692 00f2 0024     		movs	r4, #0
 693              	.LVL84:
 694              	.L47:
 695              		.loc 1 217 0
 696 00f4 0A23     		movs	r3, #10
 697 00f6 E0B2     		uxtb	r0, r4
 698 00f8 1946     		mov	r1, r3
 699 00fa 0022     		movs	r2, #0
 700              		.loc 1 216 0
 701 00fc 0134     		adds	r4, r4, #1
 702              	.LVL85:
 703              		.loc 1 217 0
 704 00fe FFF7FEFF 		bl	talos_set_rgb_led
 705              	.LVL86:
 706              		.loc 1 215 0
 707 0102 042C     		cmp	r4, #4
 708 0104 F6D1     		bne	.L47
 709              	.LBE154:
 710              		.loc 1 219 0
 711 0106 0025     		movs	r5, #0
 712              	.LVL87:
 713              		.loc 1 225 0
 714 0108 C820     		movs	r0, #200
 715              		.loc 1 223 0
 716 010a B9F1000F 		cmp	r9, #0
 717 010e CAD0     		beq	.L72
 718              	.LVL88:
 719              	.L48:
 720              		.loc 1 229 0
 721 0110 FFF7FEFF 		bl	left_motor_set_speed
 722              	.LVL89:
 723              		.loc 1 230 0
 724 0114 6FF0C700 		mvn	r0, #199
 725 0118 FFF7FEFF 		bl	right_motor_set_speed
 726              	.LVL90:
 727 011c C9E7     		b	.L49
 728              	.LVL91:
 729              	.L58:
 730              	.LBB155:
 731              		.loc 1 208 0
 732 011e 0024     		movs	r4, #0
 733              	.LVL92:
 734              	.L46:
 735              		.loc 1 210 0
 736 0120 0A23     		movs	r3, #10
 737 0122 E0B2     		uxtb	r0, r4
 738 0124 1946     		mov	r1, r3
 739 0126 0022     		movs	r2, #0
 740              		.loc 1 209 0
 741 0128 0134     		adds	r4, r4, #1
ARM GAS  /var/folders/d2/nstgp4h54kz7g1l847x_b8wc0000gn/T//ccFwmztN.s 			page 14


 742              	.LVL93:
 743              		.loc 1 210 0
 744 012a FFF7FEFF 		bl	talos_set_rgb_led
 745              	.LVL94:
 746              		.loc 1 208 0
 747 012e 042C     		cmp	r4, #4
 748 0130 F6D1     		bne	.L46
 749              	.LBE155:
 750              		.loc 1 212 0
 751 0132 0625     		movs	r5, #6
 752              	.LVL95:
 753 0134 B3E7     		b	.L39
 754              	.LVL96:
 755              	.L57:
 756              	.LBB156:
 757              		.loc 1 201 0
 758 0136 0024     		movs	r4, #0
 759              	.LVL97:
 760              	.L45:
 761              		.loc 1 203 0
 762 0138 0A23     		movs	r3, #10
 763 013a E0B2     		uxtb	r0, r4
 764 013c 1A46     		mov	r2, r3
 765 013e 0021     		movs	r1, #0
 766              		.loc 1 202 0
 767 0140 0134     		adds	r4, r4, #1
 768              	.LVL98:
 769              		.loc 1 203 0
 770 0142 FFF7FEFF 		bl	talos_set_rgb_led
 771              	.LVL99:
 772              		.loc 1 201 0
 773 0146 042C     		cmp	r4, #4
 774 0148 F6D1     		bne	.L45
 775              	.LBE156:
 776              		.loc 1 205 0
 777 014a 0525     		movs	r5, #5
 778              	.LVL100:
 779 014c A7E7     		b	.L39
 780              	.LVL101:
 781              	.L55:
 782              	.LBB157:
 783              		.loc 1 187 0
 784 014e 0024     		movs	r4, #0
 785              	.LVL102:
 786              	.L43:
 787              		.loc 1 189 0
 788 0150 0022     		movs	r2, #0
 789 0152 E0B2     		uxtb	r0, r4
 790 0154 1146     		mov	r1, r2
 791 0156 0A23     		movs	r3, #10
 792              		.loc 1 188 0
 793 0158 0134     		adds	r4, r4, #1
 794              	.LVL103:
 795              		.loc 1 189 0
 796 015a FFF7FEFF 		bl	talos_set_rgb_led
 797              	.LVL104:
 798              		.loc 1 187 0
ARM GAS  /var/folders/d2/nstgp4h54kz7g1l847x_b8wc0000gn/T//ccFwmztN.s 			page 15


 799 015e 042C     		cmp	r4, #4
 800 0160 F6D1     		bne	.L43
 801              	.LBE157:
 802              		.loc 1 191 0
 803 0162 0325     		movs	r5, #3
 804              	.LVL105:
 805 0164 9BE7     		b	.L39
 806              	.LVL106:
 807              	.L56:
 808              	.LBB158:
 809              		.loc 1 194 0
 810 0166 0025     		movs	r5, #0
 811              	.LVL107:
 812              	.L44:
 813              		.loc 1 196 0
 814 0168 0A22     		movs	r2, #10
 815 016a E8B2     		uxtb	r0, r5
 816 016c 1146     		mov	r1, r2
 817 016e 0023     		movs	r3, #0
 818              		.loc 1 195 0
 819 0170 0135     		adds	r5, r5, #1
 820              	.LVL108:
 821              		.loc 1 196 0
 822 0172 FFF7FEFF 		bl	talos_set_rgb_led
 823              	.LVL109:
 824              		.loc 1 194 0
 825 0176 042D     		cmp	r5, #4
 826 0178 F6D1     		bne	.L44
 827 017a 90E7     		b	.L39
 828              	.LVL110:
 829              	.L54:
 830              	.LBE158:
 831              	.LBB159:
 832              		.loc 1 180 0
 833 017c 0024     		movs	r4, #0
 834              	.LVL111:
 835              	.L42:
 836              		.loc 1 182 0
 837 017e 0023     		movs	r3, #0
 838 0180 E0B2     		uxtb	r0, r4
 839 0182 1946     		mov	r1, r3
 840 0184 0A22     		movs	r2, #10
 841              		.loc 1 181 0
 842 0186 0134     		adds	r4, r4, #1
 843              	.LVL112:
 844              		.loc 1 182 0
 845 0188 FFF7FEFF 		bl	talos_set_rgb_led
 846              	.LVL113:
 847              		.loc 1 180 0
 848 018c 042C     		cmp	r4, #4
 849 018e F6D1     		bne	.L42
 850              	.LBE159:
 851              		.loc 1 184 0
 852 0190 0225     		movs	r5, #2
 853              	.LVL114:
 854 0192 84E7     		b	.L39
 855              	.LVL115:
ARM GAS  /var/folders/d2/nstgp4h54kz7g1l847x_b8wc0000gn/T//ccFwmztN.s 			page 16


 856              	.L71:
 857              		.loc 1 241 0
 858 0194 08F5FA61 		add	r1, r8, #2000
 859 0198 4046     		mov	r0, r8
 860 019a FFF7FEFF 		bl	chThdSleepUntilWindowed
 861              	.LVL116:
 862              		.loc 1 242 0
 863 019e DFED038A 		vldr.32	s17, .L73+4
 864 01a2 89F00109 		eor	r9, r9, #1
 865              	.LVL117:
 866 01a6 9EE7     		b	.L50
 867              	.L74:
 868              		.align	2
 869              	.L73:
 870 01a8 00000000 		.word	__stack_chk_guard
 871 01ac 00000000 		.word	0
 872 01b0 00000000 		.word	ch
 873 01b4 6F12833A 		.word	981668463
 874 01b8 ABF4B440 		.word	1085600939
 875 01bc 00000000 		.word	.LC1
 876 01c0 00000000 		.word	.LANCHOR1
 877 01c4 00000000 		.word	.LANCHOR0
 878              	.LBE161:
 879              		.cfi_endproc
 880              	.LFE263:
 881              		.size	rotation_using_gyro, .-rotation_using_gyro
 882              		.section	.text.cliff_fall_avoidance,"ax",%progbits
 883              		.align	1
 884              		.p2align 4,,15
 885              		.global	cliff_fall_avoidance
 886              		.syntax unified
 887              		.thumb
 888              		.thumb_func
 889              		.fpu fpv4-sp-d16
 890              		.type	cliff_fall_avoidance, %function
 891              	cliff_fall_avoidance:
 892              	.LFB264:
 893              		.loc 1 253 0
 894              		.cfi_startproc
 895              		@ args = 0, pretend = 0, frame = 48
 896              		@ frame_needed = 0, uses_anonymous_args = 0
 897 0000 70B5     		push	{r4, r5, r6, lr}
 898              		.cfi_def_cfa_offset 16
 899              		.cfi_offset 4, -16
 900              		.cfi_offset 5, -12
 901              		.cfi_offset 6, -8
 902              		.cfi_offset 14, -4
 903 0002 1B4B     		ldr	r3, .L85
 904 0004 8CB0     		sub	sp, sp, #48
 905              		.cfi_def_cfa_offset 64
 906              		.loc 1 253 0
 907 0006 1B68     		ldr	r3, [r3]
 908 0008 0B93     		str	r3, [sp, #44]
 909              		.loc 1 258 0
 910 000a 0120     		movs	r0, #1
 911 000c FFF7FEFF 		bl	talos_set_body_led
 912              	.LVL118:
ARM GAS  /var/folders/d2/nstgp4h54kz7g1l847x_b8wc0000gn/T//ccFwmztN.s 			page 17


 913              		.loc 1 261 0
 914 0010 0120     		movs	r0, #1
 915 0012 FFF7FEFF 		bl	talos_set_front_led
 916              	.LVL119:
 917 0016 06AD     		add	r5, sp, #24
 918              	.LBB162:
 919              		.loc 1 265 0
 920 0018 0024     		movs	r4, #0
 921              	.LVL120:
 922              	.L76:
 923              		.loc 1 266 0 discriminator 3
 924 001a 2046     		mov	r0, r4
 925 001c FFF7FEFF 		bl	get_ground_prox
 926              	.LVL121:
 927              		.loc 1 265 0 discriminator 3
 928 0020 0134     		adds	r4, r4, #1
 929              	.LVL122:
 930 0022 052C     		cmp	r4, #5
 931              		.loc 1 266 0 discriminator 3
 932 0024 45F8040B 		str	r0, [r5], #4
 933              		.loc 1 265 0 discriminator 3
 934 0028 F7D1     		bne	.L76
 935 002a 069E     		ldr	r6, [sp, #24]
 936              	.LVL123:
 937              	.L77:
 938              	.LBE162:
 939              		.loc 1 271 0
 940 002c 0022     		movs	r2, #0
 941 002e 1146     		mov	r1, r2
 942 0030 0920     		movs	r0, #9
 943 0032 FFF7FEFF 		bl	playMelody
 944              	.LVL124:
 945 0036 01AD     		add	r5, sp, #4
 946              	.LBB163:
 947              		.loc 1 278 0
 948 0038 0024     		movs	r4, #0
 949              	.LVL125:
 950              	.L78:
 951              		.loc 1 279 0 discriminator 3
 952 003a 2046     		mov	r0, r4
 953 003c FFF7FEFF 		bl	get_ground_prox
 954              	.LVL126:
 955              		.loc 1 278 0 discriminator 3
 956 0040 0134     		adds	r4, r4, #1
 957              	.LVL127:
 958 0042 052C     		cmp	r4, #5
 959              		.loc 1 279 0 discriminator 3
 960 0044 45F8040B 		str	r0, [r5], #4
 961              		.loc 1 278 0 discriminator 3
 962 0048 F7D1     		bne	.L78
 963              	.LBE163:
 964              		.loc 1 282 0
 965 004a 019B     		ldr	r3, [sp, #4]
 966 004c B342     		cmp	r3, r6
 967 004e 07DC     		bgt	.L79
 968              		.loc 1 283 0
 969 0050 029A     		ldr	r2, [sp, #8]
ARM GAS  /var/folders/d2/nstgp4h54kz7g1l847x_b8wc0000gn/T//ccFwmztN.s 			page 18


 970 0052 079B     		ldr	r3, [sp, #28]
 971 0054 9A42     		cmp	r2, r3
 972 0056 03DC     		bgt	.L79
 973              		.loc 1 284 0
 974 0058 039A     		ldr	r2, [sp, #12]
 975 005a 089B     		ldr	r3, [sp, #32]
 976 005c 9A42     		cmp	r2, r3
 977 005e E5DD     		ble	.L77
 978              	.L79:
 979              		.loc 1 286 0
 980 0060 0020     		movs	r0, #0
 981 0062 FFF7FEFF 		bl	talos_set_body_led
 982              	.LVL128:
 983              		.loc 1 288 0
 984 0066 0020     		movs	r0, #0
 985 0068 FFF7FEFF 		bl	talos_set_front_led
 986              	.LVL129:
 987 006c DEE7     		b	.L77
 988              	.L86:
 989 006e 00BF     		.align	2
 990              	.L85:
 991 0070 00000000 		.word	__stack_chk_guard
 992              		.cfi_endproc
 993              	.LFE264:
 994              		.size	cliff_fall_avoidance, .-cliff_fall_avoidance
 995              		.section	.text.startup.main,"ax",%progbits
 996              		.align	1
 997              		.p2align 4,,15
 998              		.global	main
 999              		.syntax unified
 1000              		.thumb
 1001              		.thumb_func
 1002              		.fpu fpv4-sp-d16
 1003              		.type	main, %function
 1004              	main:
 1005              	.LFB265:
 1006              		.loc 1 322 0
 1007              		.cfi_startproc
 1008              		@ Volatile: function does not return.
 1009              		@ args = 0, pretend = 0, frame = 8
 1010              		@ frame_needed = 0, uses_anonymous_args = 0
 1011 0000 00B5     		push	{lr}
 1012              		.cfi_def_cfa_offset 4
 1013              		.cfi_offset 14, -4
 1014 0002 2C4B     		ldr	r3, .L90
 1015              		.loc 1 337 0
 1016 0004 2C4C     		ldr	r4, .L90+4
 1017              		.loc 1 322 0
 1018 0006 1B68     		ldr	r3, [r3]
 1019              		.loc 1 364 0
 1020 0008 2C4D     		ldr	r5, .L90+8
 1021              		.loc 1 322 0
 1022 000a 83B0     		sub	sp, sp, #12
 1023              		.cfi_def_cfa_offset 16
 1024              		.loc 1 322 0
 1025 000c 0193     		str	r3, [sp, #4]
 1026              		.loc 1 326 0
ARM GAS  /var/folders/d2/nstgp4h54kz7g1l847x_b8wc0000gn/T//ccFwmztN.s 			page 19


 1027 000e FFF7FEFF 		bl	halInit
 1028              	.LVL130:
 1029              		.loc 1 329 0
 1030 0012 FFF7FEFF 		bl	chSysInit
 1031              	.LVL131:
 1032              		.loc 1 332 0
 1033 0016 FFF7FEFF 		bl	mpu_init
 1034              	.LVL132:
 1035              		.loc 1 335 0
 1036 001a 294A     		ldr	r2, .L90+12
 1037 001c 2949     		ldr	r1, .L90+16
 1038 001e 2A48     		ldr	r0, .L90+20
 1039 0020 FFF7FEFF 		bl	messagebus_init
 1040              	.LVL133:
 1041              		.loc 1 337 0
 1042 0024 0022     		movs	r2, #0
 1043 0026 1146     		mov	r1, r2
 1044 0028 2046     		mov	r0, r4
 1045 002a FFF7FEFF 		bl	parameter_namespace_declare
 1046              	.LVL134:
 1047              		.loc 1 340 0
 1048 002e FFF7FEFF 		bl	talos_clear_leds
 1049              	.LVL135:
 1050              		.loc 1 341 0
 1051 0032 0020     		movs	r0, #0
 1052 0034 FFF7FEFF 		bl	talos_set_body_led
 1053              	.LVL136:
 1054              		.loc 1 342 0
 1055 0038 0020     		movs	r0, #0
 1056 003a FFF7FEFF 		bl	talos_set_front_led
 1057              	.LVL137:
 1058              		.loc 1 343 0
 1059 003e FFF7FEFF 		bl	usb_start
 1060              	.LVL138:
 1061              		.loc 1 344 0
 1062 0042 FFF7FEFF 		bl	dcmi_start
 1063              	.LVL139:
 1064              		.loc 1 345 0
 1065 0046 FFF7FEFF 		bl	cam_start
 1066              	.LVL140:
 1067              		.loc 1 346 0
 1068 004a FFF7FEFF 		bl	motors_init
 1069              	.LVL141:
 1070              		.loc 1 347 0
 1071 004e FFF7FEFF 		bl	proximity_start
 1072              	.LVL142:
 1073              		.loc 1 348 0
 1074 0052 FFF7FEFF 		bl	battery_level_start
 1075              	.LVL143:
 1076              		.loc 1 349 0
 1077 0056 FFF7FEFF 		bl	dac_start
 1078              	.LVL144:
 1079              		.loc 1 350 0
 1080 005a FFF7FEFF 		bl	exti_start
 1081              	.LVL145:
 1082              		.loc 1 351 0
 1083 005e FFF7FEFF 		bl	imu_start
ARM GAS  /var/folders/d2/nstgp4h54kz7g1l847x_b8wc0000gn/T//ccFwmztN.s 			page 20


 1084              	.LVL146:
 1085              		.loc 1 352 0
 1086 0062 FFF7FEFF 		bl	ir_remote_start
 1087              	.LVL147:
 1088              		.loc 1 353 0
 1089 0066 FFF7FEFF 		bl	spi_communication_start
 1090              	.LVL148:
 1091              		.loc 1 354 0
 1092 006a FFF7FEFF 		bl	VL53L0X_start
 1093              	.LVL149:
 1094              		.loc 1 355 0
 1095 006e FFF7FEFF 		bl	serial_start
 1096              	.LVL150:
 1097              		.loc 1 356 0
 1098 0072 0020     		movs	r0, #0
 1099 0074 FFF7FEFF 		bl	mic_start
 1100              	.LVL151:
 1101              		.loc 1 357 0
 1102 0078 FFF7FEFF 		bl	sdio_start
 1103              	.LVL152:
 1104              		.loc 1 358 0
 1105 007c FFF7FEFF 		bl	playMelodyStart
 1106              	.LVL153:
 1107              		.loc 1 359 0
 1108 0080 FFF7FEFF 		bl	playSoundFileStart
 1109              	.LVL154:
 1110              		.loc 1 360 0
 1111 0084 FFF7FEFF 		bl	ground_start
 1112              	.LVL155:
 1113              		.loc 1 361 0
 1114 0088 FFF7FEFF 		bl	behaviors_start
 1115              	.LVL156:
 1116              		.loc 1 364 0
 1117 008c 0F4A     		ldr	r2, .L90+24
 1118 008e 2146     		mov	r1, r4
 1119 0090 2846     		mov	r0, r5
 1120 0092 FFF7FEFF 		bl	parameter_namespace_declare
 1121              	.LVL157:
 1122              		.loc 1 365 0
 1123 0096 2846     		mov	r0, r5
 1124 0098 FFF7FEFF 		bl	aseba_declare_parameters
 1125              	.LVL158:
 1126              	.LBB164:
 1127              	.LBB165:
 1128              		.loc 1 31 0
 1129 009c 0C49     		ldr	r1, .L90+28
 1130 009e 2046     		mov	r0, r4
 1131 00a0 FFF7FEFF 		bl	config_load
 1132              	.LVL159:
 1133              	.LBE165:
 1134              	.LBE164:
 1135              		.loc 1 369 0
 1136 00a4 FFF7FEFF 		bl	aseba_vm_init
 1137              	.LVL160:
 1138              		.loc 1 370 0
 1139 00a8 0A48     		ldr	r0, .L90+32
 1140 00aa FFF7FEFF 		bl	aseba_can_start
ARM GAS  /var/folders/d2/nstgp4h54kz7g1l847x_b8wc0000gn/T//ccFwmztN.s 			page 21


 1141              	.LVL161:
 1142              		.loc 1 377 0
 1143 00ae FFF7FEFF 		bl	obstacle_avoidance
 1144              	.LVL162:
 1145              	.L91:
 1146 00b2 00BF     		.align	2
 1147              	.L90:
 1148 00b4 00000000 		.word	__stack_chk_guard
 1149 00b8 00000000 		.word	.LANCHOR4
 1150 00bc 00000000 		.word	.LANCHOR5
 1151 00c0 00000000 		.word	.LANCHOR2
 1152 00c4 00000000 		.word	.LANCHOR3
 1153 00c8 00000000 		.word	.LANCHOR1
 1154 00cc 00000000 		.word	.LC2
 1155 00d0 00000000 		.word	_config_start
 1156 00d4 00000000 		.word	vmState
 1157              		.cfi_endproc
 1158              	.LFE265:
 1159              		.size	main, .-main
 1160              		.section	.text.__stack_chk_fail,"ax",%progbits
 1161              		.align	1
 1162              		.p2align 4,,15
 1163              		.global	__stack_chk_fail
 1164              		.syntax unified
 1165              		.thumb
 1166              		.thumb_func
 1167              		.fpu fpv4-sp-d16
 1168              		.type	__stack_chk_fail, %function
 1169              	__stack_chk_fail:
 1170              	.LFB266:
 1171              		.loc 1 390 0
 1172              		.cfi_startproc
 1173              		@ args = 0, pretend = 0, frame = 8
 1174              		@ frame_needed = 0, uses_anonymous_args = 0
 1175 0000 00B5     		push	{lr}
 1176              		.cfi_def_cfa_offset 4
 1177              		.cfi_offset 14, -4
 1178 0002 084B     		ldr	r3, .L97
 1179 0004 83B0     		sub	sp, sp, #12
 1180              		.cfi_def_cfa_offset 16
 1181              		.loc 1 390 0
 1182 0006 1A68     		ldr	r2, [r3]
 1183 0008 0192     		str	r2, [sp, #4]
 1184              		.loc 1 391 0
 1185 000a 019A     		ldr	r2, [sp, #4]
 1186 000c 1B68     		ldr	r3, [r3]
 1187 000e 9A42     		cmp	r2, r3
 1188 0010 05D1     		bne	.L96
 1189 0012 0548     		ldr	r0, .L97+4
 1190              		.loc 1 392 0
 1191 0014 03B0     		add	sp, sp, #12
 1192              		.cfi_remember_state
 1193              		.cfi_def_cfa_offset 4
 1194              		@ sp needed
 1195 0016 5DF804EB 		ldr	lr, [sp], #4
 1196              		.cfi_restore 14
 1197              		.cfi_def_cfa_offset 0
ARM GAS  /var/folders/d2/nstgp4h54kz7g1l847x_b8wc0000gn/T//ccFwmztN.s 			page 22


 1198              		.loc 1 391 0
 1199 001a FFF7FEBF 		b	chSysHalt
 1200              	.LVL163:
 1201              	.L96:
 1202              		.cfi_restore_state
 1203 001e FFF7FEFF 		bl	__stack_chk_fail
 1204              	.LVL164:
 1205              	.L98:
 1206 0022 00BF     		.align	2
 1207              	.L97:
 1208 0024 00000000 		.word	__stack_chk_guard
 1209 0028 00000000 		.word	.LC3
 1210              		.cfi_endproc
 1211              	.LFE266:
 1212              		.size	__stack_chk_fail, .-__stack_chk_fail
 1213              		.global	__stack_chk_guard
 1214              		.global	aseba_ns
 1215              		.global	parameter_root
 1216              		.global	bus_condvar
 1217              		.global	bus_lock
 1218              		.global	bus
 1219              		.section	.bss.aseba_ns,"aw",%nobits
 1220              		.align	2
 1221              		.set	.LANCHOR5,. + 0
 1222              		.type	aseba_ns, %object
 1223              		.size	aseba_ns, 24
 1224              	aseba_ns:
 1225 0000 00000000 		.space	24
 1225      00000000 
 1225      00000000 
 1225      00000000 
 1225      00000000 
 1226              		.section	.bss.bus,"aw",%nobits
 1227              		.align	2
 1228              		.set	.LANCHOR1,. + 0
 1229              		.type	bus, %object
 1230              		.size	bus, 12
 1231              	bus:
 1232 0000 00000000 		.space	12
 1232      00000000 
 1232      00000000 
 1233              		.section	.bss.parameter_root,"aw",%nobits
 1234              		.align	2
 1235              		.set	.LANCHOR4,. + 0
 1236              		.type	parameter_root, %object
 1237              		.size	parameter_root, 24
 1238              	parameter_root:
 1239 0000 00000000 		.space	24
 1239      00000000 
 1239      00000000 
 1239      00000000 
 1239      00000000 
 1240              		.section	.data.__stack_chk_guard,"aw",%progbits
 1241              		.align	2
 1242              		.type	__stack_chk_guard, %object
 1243              		.size	__stack_chk_guard, 4
 1244              	__stack_chk_guard:
ARM GAS  /var/folders/d2/nstgp4h54kz7g1l847x_b8wc0000gn/T//ccFwmztN.s 			page 23


 1245 0000 96E3DEE2 		.word	-488709226
 1246              		.section	.data.bus_condvar,"aw",%progbits
 1247              		.align	2
 1248              		.set	.LANCHOR2,. + 0
 1249              		.type	bus_condvar, %object
 1250              		.size	bus_condvar, 8
 1251              	bus_condvar:
 1252 0000 00000000 		.word	bus_condvar
 1253 0004 00000000 		.word	bus_condvar
 1254              		.section	.data.bus_lock,"aw",%progbits
 1255              		.align	2
 1256              		.set	.LANCHOR3,. + 0
 1257              		.type	bus_lock, %object
 1258              		.size	bus_lock, 20
 1259              	bus_lock:
 1260 0000 00000000 		.word	bus_lock
 1261 0004 00000000 		.word	bus_lock
 1262 0008 00000000 		.word	0
 1263 000c 00000000 		.word	0
 1264 0010 00000000 		.word	0
 1265              		.section	.rodata.__func__.9289,"a",%progbits
 1266              		.align	2
 1267              		.set	.LANCHOR0,. + 0
 1268              		.type	__func__.9289, %object
 1269              		.size	__func__.9289, 12
 1270              	__func__.9289:
 1271 0000 63685379 		.ascii	"chSysUnlock\000"
 1271      73556E6C 
 1271      6F636B00 
 1272              		.section	.rodata.__stack_chk_fail.str1.4,"aMS",%progbits,1
 1273              		.align	2
 1274              	.LC3:
 1275 0000 53746163 		.ascii	"Stack smashing detected\000"
 1275      6B20736D 
 1275      61736869 
 1275      6E672064 
 1275      65746563 
 1276              		.section	.rodata.main.str1.4,"aMS",%progbits,1
 1277              		.align	2
 1278              	.LC2:
 1279 0000 61736562 		.ascii	"aseba\000"
 1279      6100
 1280              		.section	.rodata.obstacle_avoidance.str1.4,"aMS",%progbits,1
 1281              		.align	2
 1282              	.LC0:
 1283 0000 2F70726F 		.ascii	"/proximity\000"
 1283      78696D69 
 1283      747900
 1284              		.section	.rodata.rotation_using_gyro.str1.4,"aMS",%progbits,1
 1285              		.align	2
 1286              	.LC1:
 1287 0000 2F696D75 		.ascii	"/imu\000"
 1287      00
 1288              		.text
 1289              	.Letext0:
 1290              		.file 5 "/Applications/Eclipse_e-puck2.app/Contents/Eclipse_e-puck2/Tools/gcc-arm-none-eabi-7-2017
 1291              		.file 6 "/Applications/Eclipse_e-puck2.app/Contents/Eclipse_e-puck2/Tools/gcc-arm-none-eabi-7-2017
ARM GAS  /var/folders/d2/nstgp4h54kz7g1l847x_b8wc0000gn/T//ccFwmztN.s 			page 24


 1292              		.file 7 "/Applications/Eclipse_e-puck2.app/Contents/Eclipse_e-puck2/Tools/gcc-arm-none-eabi-7-2017
 1293              		.file 8 "/Applications/Eclipse_e-puck2.app/Contents/Eclipse_e-puck2/Tools/gcc-arm-none-eabi-7-2017
 1294              		.file 9 "/Applications/Eclipse_e-puck2.app/Contents/Eclipse_e-puck2/Tools/gcc-arm-none-eabi-7-2017
 1295              		.file 10 "/Applications/Eclipse_e-puck2.app/Contents/Eclipse_e-puck2/Tools/gcc-arm-none-eabi-7-201
 1296              		.file 11 "/Applications/Eclipse_e-puck2.app/Contents/Eclipse_e-puck2/Tools/gcc-arm-none-eabi-7-201
 1297              		.file 12 "/Applications/Eclipse_e-puck2.app/Contents/Eclipse_e-puck2/Tools/gcc-arm-none-eabi-7-201
 1298              		.file 13 "../e-puck2_main-processor/ChibiOS//os/rt/ports/ARMCMx/compilers/GCC/chtypes.h"
 1299              		.file 14 "../e-puck2_main-processor/ChibiOS//os/rt/include/chsystypes.h"
 1300              		.file 15 "../e-puck2_main-processor/ChibiOS//os/rt/include/chschd.h"
 1301              		.file 16 "../e-puck2_main-processor/ChibiOS//os/ext/CMSIS/include/core_cm4.h"
 1302              		.file 17 "../e-puck2_main-processor/ChibiOS//os/ext/CMSIS/ST/system_stm32f4xx.h"
 1303              		.file 18 "../e-puck2_main-processor/ChibiOS//os/ext/CMSIS/ST/stm32f407xx.h"
 1304              		.file 19 "../e-puck2_main-processor/ChibiOS//os/rt/ports/ARMCMx/chcore.h"
 1305              		.file 20 "../e-puck2_main-processor/ChibiOS//os/rt/ports/ARMCMx/chcore_v7m.h"
 1306              		.file 21 "../e-puck2_main-processor/ChibiOS//os/rt/include/chdebug.h"
 1307              		.file 22 "../e-puck2_main-processor/ChibiOS//os/rt/include/chtm.h"
 1308              		.file 23 "../e-puck2_main-processor/ChibiOS//os/rt/include/chstats.h"
 1309              		.file 24 "../e-puck2_main-processor/ChibiOS//os/rt/include/chsem.h"
 1310              		.file 25 "../e-puck2_main-processor/ChibiOS//os/rt/include/chmtx.h"
 1311              		.file 26 "../e-puck2_main-processor/ChibiOS//os/rt/include/chregistry.h"
 1312              		.file 27 "../e-puck2_main-processor/ChibiOS//os/rt/include/chcond.h"
 1313              		.file 28 "../e-puck2_main-processor/ChibiOS//os/rt/include/chevents.h"
 1314              		.file 29 "../e-puck2_main-processor/ChibiOS//os/rt/include/chqueues.h"
 1315              		.file 30 "../e-puck2_main-processor/ChibiOS//os/hal/ports/STM32/STM32F4xx/stm32_dma.h"
 1316              		.file 31 "../e-puck2_main-processor/ChibiOS//os/hal/include/hal_ioblock.h"
 1317              		.file 32 "../e-puck2_main-processor/ChibiOS//os/hal/ports/STM32/LLD/GPIOv2/pal_lld.h"
 1318              		.file 33 "../e-puck2_main-processor/ChibiOS//os/hal/include/adc.h"
 1319              		.file 34 "../e-puck2_main-processor/ChibiOS//os/hal/ports/STM32/STM32F4xx/adc_lld.h"
 1320              		.file 35 "../e-puck2_main-processor/ChibiOS//os/hal/include/can.h"
 1321              		.file 36 "../e-puck2_main-processor/ChibiOS//os/hal/ports/STM32/LLD/can_lld.h"
 1322              		.file 37 "../e-puck2_main-processor/ChibiOS//os/hal/include/dac.h"
 1323              		.file 38 "../e-puck2_main-processor/ChibiOS//os/hal/ports/STM32/LLD/DACv1/dac_lld.h"
 1324              		.file 39 "../e-puck2_main-processor/ChibiOS//os/hal/include/ext.h"
 1325              		.file 40 "../e-puck2_main-processor/ChibiOS//os/hal/ports/STM32/LLD/ext_lld.h"
 1326              		.file 41 "../e-puck2_main-processor/ChibiOS//os/hal/include/gpt.h"
 1327              		.file 42 "../e-puck2_main-processor/ChibiOS//os/hal/ports/STM32/LLD/TIMv1/gpt_lld.h"
 1328              		.file 43 "../e-puck2_main-processor/ChibiOS//os/hal/ports/STM32/LLD/TIMv1/stm32_tim.h"
 1329              		.file 44 "../e-puck2_main-processor/ChibiOS//os/hal/include/i2c.h"
 1330              		.file 45 "../e-puck2_main-processor/ChibiOS//os/hal/ports/STM32/LLD/I2Cv1/i2c_lld.h"
 1331              		.file 46 "../e-puck2_main-processor/ChibiOS//os/hal/include/i2s.h"
 1332              		.file 47 "../e-puck2_main-processor/ChibiOS//os/hal/ports/STM32/LLD/SPIv1/i2s_lld.h"
 1333              		.file 48 "../e-puck2_main-processor/ChibiOS//os/hal/include/pwm.h"
 1334              		.file 49 "../e-puck2_main-processor/ChibiOS//os/hal/ports/STM32/LLD/TIMv1/pwm_lld.h"
 1335              		.file 50 "../e-puck2_main-processor/ChibiOS//os/hal/include/serial.h"
 1336              		.file 51 "../e-puck2_main-processor/ChibiOS//os/hal/ports/STM32/LLD/USARTv1/serial_lld.h"
 1337              		.file 52 "../e-puck2_main-processor/ChibiOS//os/hal/include/sdc.h"
 1338              		.file 53 "../e-puck2_main-processor/ChibiOS//os/hal/ports/STM32/LLD/sdc_lld.h"
 1339              		.file 54 "../e-puck2_main-processor/ChibiOS//os/hal/include/spi.h"
 1340              		.file 55 "../e-puck2_main-processor/ChibiOS//os/hal/ports/STM32/LLD/SPIv1/spi_lld.h"
 1341              		.file 56 "../e-puck2_main-processor/ChibiOS//os/hal/include/usb.h"
 1342              		.file 57 "../e-puck2_main-processor/ChibiOS//os/hal/ports/STM32/LLD/OTGv1/usb_lld.h"
 1343              		.file 58 "../e-puck2_main-processor/ChibiOS//os/hal/ports/STM32/LLD/OTGv1/stm32_otg.h"
 1344              		.file 59 "../e-puck2_main-processor/ChibiOS//os/hal/include/serial_usb.h"
 1345              		.file 60 "../e-puck2_main-processor/src/exti.h"
 1346              		.file 61 "../e-puck2_main-processor/ChibiOS//os/various/shell.h"
 1347              		.file 62 "../e-puck2_main-processor/src/usbcfg.h"
 1348              		.file 63 "talos_leds.h"
ARM GAS  /var/folders/d2/nstgp4h54kz7g1l847x_b8wc0000gn/T//ccFwmztN.s 			page 25


 1349              		.file 64 "../e-puck2_main-processor/src/sensors/mpu9250.h"
 1350              		.file 65 "../e-puck2_main-processor/src/sensors/imu.h"
 1351              		.file 66 "../e-puck2_main-processor/src/audio/play_melody.h"
 1352              		.file 67 "../e-puck2_main-processor/src/sensors/proximity.h"
 1353              		.file 68 "/Applications/Eclipse_e-puck2.app/Contents/Eclipse_e-puck2/Tools/gcc-arm-none-eabi-7-201
 1354              		.file 69 "../e-puck2_main-processor/src/msgbus/messagebus.h"
 1355              		.file 70 "../e-puck2_main-processor/ChibiOS_ext/os/hal/include/../ports/STM32/STM32F4xx/dcmi_lld.h
 1356              		.file 71 "../e-puck2_main-processor/aseba/common/types.h"
 1357              		.file 72 "../e-puck2_main-processor/aseba/vm/vm.h"
 1358              		.file 73 "../e-puck2_main-processor/aseba/vm/natives.h"
 1359              		.file 74 "../e-puck2_main-processor/src/parameter/parameter.h"
 1360              		.file 75 "../e-puck2_main-processor/src/leds.h"
 1361              		.file 76 "../e-puck2_main-processor/src/aseba_vm/skel_user.h"
 1362              		.file 77 "../e-puck2_main-processor/src/aseba_vm/aseba_node.h"
 1363              		.file 78 "talos.h"
 1364              		.file 79 "../e-puck2_main-processor/src/config_flash_storage.h"
 1365              		.file 80 "../e-puck2_main-processor/ChibiOS//os/hal/include/hal.h"
 1366              		.file 81 "../e-puck2_main-processor/src/memory_protection.h"
 1367              		.file 82 "../e-puck2_main-processor/src/camera/dcmi_camera.h"
 1368              		.file 83 "../e-puck2_main-processor/src/camera/camera.h"
 1369              		.file 84 "../e-puck2_main-processor/src/motors.h"
 1370              		.file 85 "../e-puck2_main-processor/src/sensors/battery_level.h"
 1371              		.file 86 "../e-puck2_main-processor/src/audio/audio_thread.h"
 1372              		.file 87 "../e-puck2_main-processor/src/ir_remote.h"
 1373              		.file 88 "spi_communication.h"
 1374              		.file 89 "../e-puck2_main-processor/src/sensors/VL53L0X/VL53L0X.h"
 1375              		.file 90 "../e-puck2_main-processor/src/serial_comm.h"
 1376              		.file 91 "../e-puck2_main-processor/src/audio/microphone.h"
 1377              		.file 92 "../e-puck2_main-processor/src/sdio.h"
 1378              		.file 93 "../e-puck2_main-processor/src/audio/play_sound_file.h"
 1379              		.file 94 "../e-puck2_main-processor/src/sensors/ground.h"
 1380              		.file 95 "../e-puck2_main-processor/src/behaviors.h"
 1381              		.file 96 "../e-puck2_main-processor/src/aseba_vm/aseba_can_interface.h"
 1382              		.file 97 "../e-puck2_main-processor/src/epuck1x/utility/utility.h"
 1383              		.file 98 "../e-puck2_main-processor/ChibiOS//os/rt/include/chthreads.h"