ARM GAS  /var/folders/d2/nstgp4h54kz7g1l847x_b8wc0000gn/T//cc6ckQq1.s 			page 1


   1              		.cpu cortex-m4
   2              		.eabi_attribute 27, 1
   3              		.eabi_attribute 28, 1
   4              		.eabi_attribute 20, 1
   5              		.eabi_attribute 21, 1
   6              		.eabi_attribute 23, 3
   7              		.eabi_attribute 24, 1
   8              		.eabi_attribute 25, 1
   9              		.eabi_attribute 26, 1
  10              		.eabi_attribute 30, 2
  11              		.eabi_attribute 34, 1
  12              		.eabi_attribute 18, 4
  13              		.file	"testheap.c"
  14              		.text
  15              	.Ltext0:
  16              		.cfi_sections	.debug_frame
  17              		.section	.text.heap1_execute,"ax",%progbits
  18              		.align	1
  19              		.p2align 4,,15
  20              		.syntax unified
  21              		.thumb
  22              		.thumb_func
  23              		.fpu fpv4-sp-d16
  24              		.type	heap1_execute, %function
  25              	heap1_execute:
  26              	.LFB220:
  27              		.file 1 "../e-puck2_main-processor/ChibiOS//test/rt/testheap.c"
  28              		.loc 1 69 0
  29              		.cfi_startproc
  30              		@ args = 0, pretend = 0, frame = 16
  31              		@ frame_needed = 0, uses_anonymous_args = 0
  32 0000 F0B5     		push	{r4, r5, r6, r7, lr}
  33              		.cfi_def_cfa_offset 20
  34              		.cfi_offset 4, -20
  35              		.cfi_offset 5, -16
  36              		.cfi_offset 6, -12
  37              		.cfi_offset 7, -8
  38              		.cfi_offset 14, -4
  39 0002 954C     		ldr	r4, .L12
  40 0004 85B0     		sub	sp, sp, #20
  41              		.cfi_def_cfa_offset 40
  42              		.loc 1 69 0
  43 0006 2368     		ldr	r3, [r4]
  44 0008 0393     		str	r3, [sp, #12]
  45              		.loc 1 74 0
  46 000a FFF7FEFF 		bl	chCoreGetStatusX
  47              	.LVL0:
  48              		.loc 1 80 0
  49 000e 02A9     		add	r1, sp, #8
  50 0010 0020     		movs	r0, #0
  51 0012 FFF7FEFF 		bl	chHeapStatus
  52              	.LVL1:
  53              		.loc 1 81 0
  54 0016 1021     		movs	r1, #16
  55 0018 0020     		movs	r0, #0
  56 001a FFF7FEFF 		bl	chHeapAlloc
  57              	.LVL2:
ARM GAS  /var/folders/d2/nstgp4h54kz7g1l847x_b8wc0000gn/T//cc6ckQq1.s 			page 2


  58              		.loc 1 82 0
  59 001e 011C     		adds	r1, r0, #0
  60 0020 0646     		mov	r6, r0
  61 0022 18BF     		it	ne
  62 0024 0121     		movne	r1, #1
  63 0026 0120     		movs	r0, #1
  64              	.LVL3:
  65 0028 FFF7FEFF 		bl	_test_assert
  66              	.LVL4:
  67 002c 30B1     		cbz	r0, .L10
  68              	.LVL5:
  69              	.L1:
  70              		.loc 1 140 0
  71 002e 039A     		ldr	r2, [sp, #12]
  72 0030 2368     		ldr	r3, [r4]
  73 0032 9A42     		cmp	r2, r3
  74 0034 40F00E81 		bne	.L11
  75 0038 05B0     		add	sp, sp, #20
  76              		.cfi_remember_state
  77              		.cfi_def_cfa_offset 20
  78              		@ sp needed
  79 003a F0BD     		pop	{r4, r5, r6, r7, pc}
  80              	.LVL6:
  81              	.L10:
  82              		.cfi_restore_state
  83 003c 0546     		mov	r5, r0
  84              		.loc 1 83 0
  85 003e 3046     		mov	r0, r6
  86 0040 FFF7FEFF 		bl	chHeapFree
  87              	.LVL7:
  88              		.loc 1 84 0
  89 0044 6FF0FF01 		mvn	r1, #255
  90 0048 2846     		mov	r0, r5
  91 004a FFF7FEFF 		bl	chHeapAlloc
  92              	.LVL8:
  93              		.loc 1 85 0
  94 004e B0FA80F1 		clz	r1, r0
  95 0052 4909     		lsrs	r1, r1, #5
  96 0054 0220     		movs	r0, #2
  97              	.LVL9:
  98 0056 FFF7FEFF 		bl	_test_assert
  99              	.LVL10:
 100 005a 0028     		cmp	r0, #0
 101 005c E7D1     		bne	.L1
 102              		.loc 1 88 0
 103 005e 02A9     		add	r1, sp, #8
 104 0060 7E48     		ldr	r0, .L12+4
 105 0062 FFF7FEFF 		bl	chHeapStatus
 106              	.LVL11:
 107              		.loc 1 91 0
 108 0066 1021     		movs	r1, #16
 109 0068 7C48     		ldr	r0, .L12+4
 110 006a FFF7FEFF 		bl	chHeapAlloc
 111              	.LVL12:
 112              		.loc 1 92 0
 113 006e 1021     		movs	r1, #16
 114              		.loc 1 91 0
ARM GAS  /var/folders/d2/nstgp4h54kz7g1l847x_b8wc0000gn/T//cc6ckQq1.s 			page 3


 115 0070 0746     		mov	r7, r0
 116              	.LVL13:
 117              		.loc 1 92 0
 118 0072 7A48     		ldr	r0, .L12+4
 119              	.LVL14:
 120 0074 FFF7FEFF 		bl	chHeapAlloc
 121              	.LVL15:
 122              		.loc 1 93 0
 123 0078 1021     		movs	r1, #16
 124              		.loc 1 92 0
 125 007a 0646     		mov	r6, r0
 126              	.LVL16:
 127              		.loc 1 93 0
 128 007c 7748     		ldr	r0, .L12+4
 129              	.LVL17:
 130 007e FFF7FEFF 		bl	chHeapAlloc
 131              	.LVL18:
 132 0082 0546     		mov	r5, r0
 133              	.LVL19:
 134              		.loc 1 94 0
 135 0084 3846     		mov	r0, r7
 136              	.LVL20:
 137 0086 FFF7FEFF 		bl	chHeapFree
 138              	.LVL21:
 139              		.loc 1 95 0
 140 008a 3046     		mov	r0, r6
 141 008c FFF7FEFF 		bl	chHeapFree
 142              	.LVL22:
 143              		.loc 1 96 0
 144 0090 2846     		mov	r0, r5
 145 0092 FFF7FEFF 		bl	chHeapFree
 146              	.LVL23:
 147              		.loc 1 97 0
 148 0096 01A9     		add	r1, sp, #4
 149 0098 7048     		ldr	r0, .L12+4
 150 009a FFF7FEFF 		bl	chHeapStatus
 151              	.LVL24:
 152 009e A0F10101 		sub	r1, r0, #1
 153 00a2 B1FA81F1 		clz	r1, r1
 154 00a6 4909     		lsrs	r1, r1, #5
 155 00a8 0320     		movs	r0, #3
 156 00aa FFF7FEFF 		bl	_test_assert
 157              	.LVL25:
 158 00ae 0028     		cmp	r0, #0
 159 00b0 BDD1     		bne	.L1
 160              		.loc 1 100 0
 161 00b2 1021     		movs	r1, #16
 162 00b4 6948     		ldr	r0, .L12+4
 163 00b6 FFF7FEFF 		bl	chHeapAlloc
 164              	.LVL26:
 165              		.loc 1 101 0
 166 00ba 1021     		movs	r1, #16
 167              		.loc 1 100 0
 168 00bc 0546     		mov	r5, r0
 169              	.LVL27:
 170              		.loc 1 101 0
 171 00be 6748     		ldr	r0, .L12+4
ARM GAS  /var/folders/d2/nstgp4h54kz7g1l847x_b8wc0000gn/T//cc6ckQq1.s 			page 4


 172              	.LVL28:
 173 00c0 FFF7FEFF 		bl	chHeapAlloc
 174              	.LVL29:
 175              		.loc 1 102 0
 176 00c4 1021     		movs	r1, #16
 177              		.loc 1 101 0
 178 00c6 0646     		mov	r6, r0
 179              	.LVL30:
 180              		.loc 1 102 0
 181 00c8 6448     		ldr	r0, .L12+4
 182              	.LVL31:
 183 00ca FFF7FEFF 		bl	chHeapAlloc
 184              	.LVL32:
 185              		.loc 1 103 0
 186 00ce FFF7FEFF 		bl	chHeapFree
 187              	.LVL33:
 188              		.loc 1 104 0
 189 00d2 3046     		mov	r0, r6
 190 00d4 FFF7FEFF 		bl	chHeapFree
 191              	.LVL34:
 192              		.loc 1 105 0
 193 00d8 2846     		mov	r0, r5
 194 00da FFF7FEFF 		bl	chHeapFree
 195              	.LVL35:
 196              		.loc 1 106 0
 197 00de 01A9     		add	r1, sp, #4
 198 00e0 5E48     		ldr	r0, .L12+4
 199 00e2 FFF7FEFF 		bl	chHeapStatus
 200              	.LVL36:
 201 00e6 A0F10101 		sub	r1, r0, #1
 202 00ea B1FA81F1 		clz	r1, r1
 203 00ee 4909     		lsrs	r1, r1, #5
 204 00f0 0420     		movs	r0, #4
 205 00f2 FFF7FEFF 		bl	_test_assert
 206              	.LVL37:
 207 00f6 0028     		cmp	r0, #0
 208 00f8 99D1     		bne	.L1
 209              		.loc 1 109 0
 210 00fa 1121     		movs	r1, #17
 211 00fc 5748     		ldr	r0, .L12+4
 212 00fe FFF7FEFF 		bl	chHeapAlloc
 213              	.LVL38:
 214              		.loc 1 110 0
 215 0102 1021     		movs	r1, #16
 216              		.loc 1 109 0
 217 0104 0546     		mov	r5, r0
 218              	.LVL39:
 219              		.loc 1 110 0
 220 0106 5548     		ldr	r0, .L12+4
 221              	.LVL40:
 222 0108 FFF7FEFF 		bl	chHeapAlloc
 223              	.LVL41:
 224 010c 0646     		mov	r6, r0
 225              	.LVL42:
 226              		.loc 1 111 0
 227 010e 2846     		mov	r0, r5
 228              	.LVL43:
ARM GAS  /var/folders/d2/nstgp4h54kz7g1l847x_b8wc0000gn/T//cc6ckQq1.s 			page 5


 229 0110 FFF7FEFF 		bl	chHeapFree
 230              	.LVL44:
 231              		.loc 1 112 0
 232 0114 01A9     		add	r1, sp, #4
 233 0116 5148     		ldr	r0, .L12+4
 234 0118 FFF7FEFF 		bl	chHeapStatus
 235              	.LVL45:
 236 011c A0F10201 		sub	r1, r0, #2
 237 0120 B1FA81F1 		clz	r1, r1
 238 0124 4909     		lsrs	r1, r1, #5
 239 0126 0520     		movs	r0, #5
 240 0128 FFF7FEFF 		bl	_test_assert
 241              	.LVL46:
 242 012c 0028     		cmp	r0, #0
 243 012e 7FF47EAF 		bne	.L1
 244              		.loc 1 113 0
 245 0132 1021     		movs	r1, #16
 246 0134 4948     		ldr	r0, .L12+4
 247 0136 FFF7FEFF 		bl	chHeapAlloc
 248              	.LVL47:
 249              		.loc 1 116 0
 250 013a 01A9     		add	r1, sp, #4
 251              		.loc 1 113 0
 252 013c 0546     		mov	r5, r0
 253              	.LVL48:
 254              		.loc 1 116 0
 255 013e 4748     		ldr	r0, .L12+4
 256              	.LVL49:
 257 0140 FFF7FEFF 		bl	chHeapStatus
 258              	.LVL50:
 259 0144 0128     		cmp	r0, #1
 260 0146 00F08380 		beq	.L7
 261              		.loc 1 116 0 is_stmt 0 discriminator 2
 262 014a 01A9     		add	r1, sp, #4
 263 014c 4348     		ldr	r0, .L12+4
 264 014e FFF7FEFF 		bl	chHeapStatus
 265              	.LVL51:
 266 0152 A0F10201 		sub	r1, r0, #2
 267 0156 B1FA81F1 		clz	r1, r1
 268 015a 4909     		lsrs	r1, r1, #5
 269              	.L5:
 270              		.loc 1 116 0 discriminator 6
 271 015c 0620     		movs	r0, #6
 272 015e FFF7FEFF 		bl	_test_assert
 273              	.LVL52:
 274 0162 0028     		cmp	r0, #0
 275 0164 7FF463AF 		bne	.L1
 276              		.loc 1 118 0 is_stmt 1
 277 0168 3046     		mov	r0, r6
 278 016a FFF7FEFF 		bl	chHeapFree
 279              	.LVL53:
 280              		.loc 1 119 0
 281 016e 2846     		mov	r0, r5
 282 0170 FFF7FEFF 		bl	chHeapFree
 283              	.LVL54:
 284              		.loc 1 120 0
 285 0174 01A9     		add	r1, sp, #4
ARM GAS  /var/folders/d2/nstgp4h54kz7g1l847x_b8wc0000gn/T//cc6ckQq1.s 			page 6


 286 0176 3948     		ldr	r0, .L12+4
 287 0178 FFF7FEFF 		bl	chHeapStatus
 288              	.LVL55:
 289 017c A0F10101 		sub	r1, r0, #1
 290 0180 B1FA81F1 		clz	r1, r1
 291 0184 4909     		lsrs	r1, r1, #5
 292 0186 0720     		movs	r0, #7
 293 0188 FFF7FEFF 		bl	_test_assert
 294              	.LVL56:
 295 018c 0028     		cmp	r0, #0
 296 018e 7FF44EAF 		bne	.L1
 297              		.loc 1 123 0
 298 0192 1021     		movs	r1, #16
 299 0194 3148     		ldr	r0, .L12+4
 300 0196 FFF7FEFF 		bl	chHeapAlloc
 301              	.LVL57:
 302              		.loc 1 124 0
 303 019a 1021     		movs	r1, #16
 304              		.loc 1 123 0
 305 019c 0646     		mov	r6, r0
 306              	.LVL58:
 307              		.loc 1 124 0
 308 019e 2F48     		ldr	r0, .L12+4
 309              	.LVL59:
 310 01a0 FFF7FEFF 		bl	chHeapAlloc
 311              	.LVL60:
 312 01a4 0546     		mov	r5, r0
 313              	.LVL61:
 314              		.loc 1 125 0
 315 01a6 3046     		mov	r0, r6
 316              	.LVL62:
 317 01a8 FFF7FEFF 		bl	chHeapFree
 318              	.LVL63:
 319              		.loc 1 126 0
 320 01ac 01A9     		add	r1, sp, #4
 321 01ae 2B48     		ldr	r0, .L12+4
 322 01b0 FFF7FEFF 		bl	chHeapStatus
 323              	.LVL64:
 324 01b4 861E     		subs	r6, r0, #2
 325              	.LVL65:
 326 01b6 7142     		rsbs	r1, r6, #0
 327 01b8 7141     		adcs	r1, r1, r6
 328 01ba 0820     		movs	r0, #8
 329 01bc FFF7FEFF 		bl	_test_assert
 330              	.LVL66:
 331 01c0 0028     		cmp	r0, #0
 332 01c2 7FF434AF 		bne	.L1
 333              		.loc 1 127 0
 334 01c6 2021     		movs	r1, #32
 335 01c8 2448     		ldr	r0, .L12+4
 336 01ca FFF7FEFF 		bl	chHeapAlloc
 337              	.LVL67:
 338              		.loc 1 128 0
 339 01ce FFF7FEFF 		bl	chHeapFree
 340              	.LVL68:
 341              		.loc 1 129 0
 342 01d2 2846     		mov	r0, r5
ARM GAS  /var/folders/d2/nstgp4h54kz7g1l847x_b8wc0000gn/T//cc6ckQq1.s 			page 7


 343 01d4 FFF7FEFF 		bl	chHeapFree
 344              	.LVL69:
 345              		.loc 1 130 0
 346 01d8 01A9     		add	r1, sp, #4
 347 01da 2048     		ldr	r0, .L12+4
 348 01dc FFF7FEFF 		bl	chHeapStatus
 349              	.LVL70:
 350 01e0 0138     		subs	r0, r0, #1
 351 01e2 4142     		rsbs	r1, r0, #0
 352 01e4 4141     		adcs	r1, r1, r0
 353 01e6 0920     		movs	r0, #9
 354 01e8 FFF7FEFF 		bl	_test_assert
 355              	.LVL71:
 356 01ec 0028     		cmp	r0, #0
 357 01ee 7FF41EAF 		bne	.L1
 358              		.loc 1 133 0
 359 01f2 01A9     		add	r1, sp, #4
 360 01f4 1948     		ldr	r0, .L12+4
 361 01f6 FFF7FEFF 		bl	chHeapStatus
 362              	.LVL72:
 363              		.loc 1 134 0
 364 01fa 0199     		ldr	r1, [sp, #4]
 365 01fc 1748     		ldr	r0, .L12+4
 366 01fe FFF7FEFF 		bl	chHeapAlloc
 367              	.LVL73:
 368              		.loc 1 135 0
 369 0202 01A9     		add	r1, sp, #4
 370              		.loc 1 134 0
 371 0204 0546     		mov	r5, r0
 372              	.LVL74:
 373              		.loc 1 135 0
 374 0206 1548     		ldr	r0, .L12+4
 375              	.LVL75:
 376 0208 FFF7FEFF 		bl	chHeapStatus
 377              	.LVL76:
 378 020c B0FA80F1 		clz	r1, r0
 379 0210 4909     		lsrs	r1, r1, #5
 380 0212 0A20     		movs	r0, #10
 381 0214 FFF7FEFF 		bl	_test_assert
 382              	.LVL77:
 383 0218 0028     		cmp	r0, #0
 384 021a 7FF408AF 		bne	.L1
 385              		.loc 1 136 0
 386 021e 2846     		mov	r0, r5
 387 0220 FFF7FEFF 		bl	chHeapFree
 388              	.LVL78:
 389              		.loc 1 138 0
 390 0224 01A9     		add	r1, sp, #4
 391 0226 0D48     		ldr	r0, .L12+4
 392 0228 FFF7FEFF 		bl	chHeapStatus
 393              	.LVL79:
 394 022c 421E     		subs	r2, r0, #1
 395 022e 5142     		rsbs	r1, r2, #0
 396 0230 5141     		adcs	r1, r1, r2
 397 0232 0B20     		movs	r0, #11
 398 0234 FFF7FEFF 		bl	_test_assert
 399              	.LVL80:
ARM GAS  /var/folders/d2/nstgp4h54kz7g1l847x_b8wc0000gn/T//cc6ckQq1.s 			page 8


 400 0238 0028     		cmp	r0, #0
 401 023a 7FF4F8AE 		bne	.L1
 402              		.loc 1 139 0
 403 023e DDE90113 		ldrd	r1, r3, [sp, #4]
 404 0242 CB1A     		subs	r3, r1, r3
 405 0244 5942     		rsbs	r1, r3, #0
 406 0246 5941     		adcs	r1, r1, r3
 407 0248 0C20     		movs	r0, #12
 408 024a FFF7FEFF 		bl	_test_assert
 409              	.LVL81:
 410 024e EEE6     		b	.L1
 411              	.LVL82:
 412              	.L7:
 413 0250 0146     		mov	r1, r0
 414 0252 83E7     		b	.L5
 415              	.LVL83:
 416              	.L11:
 417              		.loc 1 140 0
 418 0254 FFF7FEFF 		bl	__stack_chk_fail
 419              	.LVL84:
 420              	.L13:
 421              		.align	2
 422              	.L12:
 423 0258 00000000 		.word	__stack_chk_guard
 424 025c 00000000 		.word	.LANCHOR0
 425              		.cfi_endproc
 426              	.LFE220:
 427              		.size	heap1_execute, .-heap1_execute
 428              		.section	.text.heap1_setup,"ax",%progbits
 429              		.align	1
 430              		.p2align 4,,15
 431              		.syntax unified
 432              		.thumb
 433              		.thumb_func
 434              		.fpu fpv4-sp-d16
 435              		.type	heap1_setup, %function
 436              	heap1_setup:
 437              	.LFB219:
 438              		.loc 1 64 0
 439              		.cfi_startproc
 440              		@ args = 0, pretend = 0, frame = 8
 441              		@ frame_needed = 0, uses_anonymous_args = 0
 442 0000 00B5     		push	{lr}
 443              		.cfi_def_cfa_offset 4
 444              		.cfi_offset 14, -4
 445 0002 094B     		ldr	r3, .L19
 446 0004 83B0     		sub	sp, sp, #12
 447              		.cfi_def_cfa_offset 16
 448              		.loc 1 64 0
 449 0006 1A68     		ldr	r2, [r3]
 450 0008 0192     		str	r2, [sp, #4]
 451              		.loc 1 66 0
 452 000a 019A     		ldr	r2, [sp, #4]
 453 000c 1B68     		ldr	r3, [r3]
 454 000e 9A42     		cmp	r2, r3
 455 0010 08D1     		bne	.L18
 456 0012 0649     		ldr	r1, .L19+4
ARM GAS  /var/folders/d2/nstgp4h54kz7g1l847x_b8wc0000gn/T//cc6ckQq1.s 			page 9


 457 0014 0648     		ldr	r0, .L19+8
 458 0016 40F6D812 		movw	r2, #2520
 459              		.loc 1 67 0
 460 001a 03B0     		add	sp, sp, #12
 461              		.cfi_remember_state
 462              		.cfi_def_cfa_offset 4
 463              		@ sp needed
 464 001c 5DF804EB 		ldr	lr, [sp], #4
 465              		.cfi_restore 14
 466              		.cfi_def_cfa_offset 0
 467              		.loc 1 66 0
 468 0020 FFF7FEBF 		b	chHeapObjectInit
 469              	.LVL85:
 470              	.L18:
 471              		.cfi_restore_state
 472 0024 FFF7FEFF 		bl	__stack_chk_fail
 473              	.LVL86:
 474              	.L20:
 475              		.align	2
 476              	.L19:
 477 0028 00000000 		.word	__stack_chk_guard
 478 002c 00000000 		.word	test
 479 0030 00000000 		.word	.LANCHOR0
 480              		.cfi_endproc
 481              	.LFE219:
 482              		.size	heap1_setup, .-heap1_setup
 483              		.global	patternheap
 484              		.global	testheap1
 485              		.section	.bss.test_heap,"aw",%nobits
 486              		.align	3
 487              		.set	.LANCHOR0,. + 0
 488              		.type	test_heap, %object
 489              		.size	test_heap, 40
 490              	test_heap:
 491 0000 00000000 		.space	40
 491      00000000 
 491      00000000 
 491      00000000 
 491      00000000 
 492              		.section	.rodata.patternheap,"a",%progbits
 493              		.align	2
 494              		.type	patternheap, %object
 495              		.size	patternheap, 8
 496              	patternheap:
 497 0000 00000000 		.word	testheap1
 498 0004 00000000 		.word	0
 499              		.section	.rodata.str1.4,"aMS",%progbits,1
 500              		.align	2
 501              	.LC0:
 502 0000 48656170 		.ascii	"Heap, allocation and fragmentation test\000"
 502      2C20616C 
 502      6C6F6361 
 502      74696F6E 
 502      20616E64 
 503              		.section	.rodata.testheap1,"a",%progbits
 504              		.align	2
 505              		.type	testheap1, %object
ARM GAS  /var/folders/d2/nstgp4h54kz7g1l847x_b8wc0000gn/T//cc6ckQq1.s 			page 10


 506              		.size	testheap1, 16
 507              	testheap1:
 508 0000 00000000 		.word	.LC0
 509 0004 00000000 		.word	heap1_setup
 510 0008 00000000 		.word	0
 511 000c 00000000 		.word	heap1_execute
 512              		.text
 513              	.Letext0:
 514              		.file 2 "/Applications/Eclipse_e-puck2.app/Contents/Eclipse_e-puck2/Tools/gcc-arm-none-eabi-7-2017
 515              		.file 3 "/Applications/Eclipse_e-puck2.app/Contents/Eclipse_e-puck2/Tools/gcc-arm-none-eabi-7-2017
 516              		.file 4 "/Applications/Eclipse_e-puck2.app/Contents/Eclipse_e-puck2/Tools/gcc-arm-none-eabi-7-2017
 517              		.file 5 "../e-puck2_main-processor/ChibiOS//os/rt/ports/ARMCMx/compilers/GCC/chtypes.h"
 518              		.file 6 "../e-puck2_main-processor/ChibiOS//os/rt/include/chsystypes.h"
 519              		.file 7 "../e-puck2_main-processor/ChibiOS//os/rt/include/chschd.h"
 520              		.file 8 "../e-puck2_main-processor/ChibiOS//os/ext/CMSIS/include/core_cm4.h"
 521              		.file 9 "../e-puck2_main-processor/ChibiOS//os/ext/CMSIS/ST/system_stm32f4xx.h"
 522              		.file 10 "../e-puck2_main-processor/ChibiOS//os/rt/ports/ARMCMx/chcore.h"
 523              		.file 11 "../e-puck2_main-processor/ChibiOS//os/rt/ports/ARMCMx/chcore_v7m.h"
 524              		.file 12 "../e-puck2_main-processor/ChibiOS//os/rt/include/chdebug.h"
 525              		.file 13 "../e-puck2_main-processor/ChibiOS//os/rt/include/chtm.h"
 526              		.file 14 "../e-puck2_main-processor/ChibiOS//os/rt/include/chstats.h"
 527              		.file 15 "../e-puck2_main-processor/ChibiOS//os/rt/include/chsem.h"
 528              		.file 16 "../e-puck2_main-processor/ChibiOS//os/rt/include/chmtx.h"
 529              		.file 17 "../e-puck2_main-processor/ChibiOS//os/rt/include/chregistry.h"
 530              		.file 18 "../e-puck2_main-processor/ChibiOS//os/rt/include/chmemcore.h"
 531              		.file 19 "../e-puck2_main-processor/ChibiOS//os/rt/include/chheap.h"
 532              		.file 20 "../e-puck2_main-processor/ChibiOS//test/rt/test.h"
 533              		.section	.debug_info,"",%progbits
 534              	.Ldebug_info0:
 535 0000 43120000 		.4byte	0x1243
 536 0004 0400     		.2byte	0x4
 537 0006 00000000 		.4byte	.Ldebug_abbrev0
 538 000a 04       		.byte	0x4
 539 000b 01       		.uleb128 0x1
 540 000c F8020000 		.4byte	.LASF191
 541 0010 0C       		.byte	0xc
 542 0011 29090000 		.4byte	.LASF192
 543 0015 0F000000 		.4byte	.LASF193
 544 0019 00000000 		.4byte	.Ldebug_ranges0+0
 545 001d 00000000 		.4byte	0
 546 0021 00000000 		.4byte	.Ldebug_line0
 547 0025 02       		.uleb128 0x2
 548 0026 04       		.byte	0x4
 549 0027 05       		.byte	0x5
 550 0028 696E7400 		.ascii	"int\000"
 551 002c 03       		.uleb128 0x3
 552 002d 7D000000 		.4byte	.LASF4
 553 0031 02       		.byte	0x2
 554 0032 D8       		.byte	0xd8
 555 0033 37000000 		.4byte	0x37
 556 0037 04       		.uleb128 0x4
 557 0038 04       		.byte	0x4
 558 0039 07       		.byte	0x7
 559 003a EB020000 		.4byte	.LASF0
 560 003e 04       		.uleb128 0x4
 561 003f 08       		.byte	0x8
 562 0040 05       		.byte	0x5
ARM GAS  /var/folders/d2/nstgp4h54kz7g1l847x_b8wc0000gn/T//cc6ckQq1.s 			page 11


 563 0041 B5010000 		.4byte	.LASF1
 564 0045 04       		.uleb128 0x4
 565 0046 08       		.byte	0x8
 566 0047 04       		.byte	0x4
 567 0048 A8050000 		.4byte	.LASF2
 568 004c 04       		.uleb128 0x4
 569 004d 01       		.byte	0x1
 570 004e 06       		.byte	0x6
 571 004f C3010000 		.4byte	.LASF3
 572 0053 03       		.uleb128 0x3
 573 0054 A6000000 		.4byte	.LASF5
 574 0058 03       		.byte	0x3
 575 0059 2B       		.byte	0x2b
 576 005a 5E000000 		.4byte	0x5e
 577 005e 04       		.uleb128 0x4
 578 005f 01       		.byte	0x1
 579 0060 08       		.byte	0x8
 580 0061 9C060000 		.4byte	.LASF6
 581 0065 04       		.uleb128 0x4
 582 0066 02       		.byte	0x2
 583 0067 05       		.byte	0x5
 584 0068 C0060000 		.4byte	.LASF7
 585 006c 03       		.uleb128 0x3
 586 006d D9070000 		.4byte	.LASF8
 587 0071 03       		.byte	0x3
 588 0072 39       		.byte	0x39
 589 0073 77000000 		.4byte	0x77
 590 0077 04       		.uleb128 0x4
 591 0078 02       		.byte	0x2
 592 0079 07       		.byte	0x7
 593 007a A3040000 		.4byte	.LASF9
 594 007e 03       		.uleb128 0x3
 595 007f 34050000 		.4byte	.LASF10
 596 0083 03       		.byte	0x3
 597 0084 4D       		.byte	0x4d
 598 0085 89000000 		.4byte	0x89
 599 0089 04       		.uleb128 0x4
 600 008a 04       		.byte	0x4
 601 008b 05       		.byte	0x5
 602 008c 2E020000 		.4byte	.LASF11
 603 0090 03       		.uleb128 0x3
 604 0091 1F080000 		.4byte	.LASF12
 605 0095 03       		.byte	0x3
 606 0096 4F       		.byte	0x4f
 607 0097 9B000000 		.4byte	0x9b
 608 009b 04       		.uleb128 0x4
 609 009c 04       		.byte	0x4
 610 009d 07       		.byte	0x7
 611 009e B5070000 		.4byte	.LASF13
 612 00a2 03       		.uleb128 0x3
 613 00a3 1F060000 		.4byte	.LASF14
 614 00a7 03       		.byte	0x3
 615 00a8 69       		.byte	0x69
 616 00a9 AD000000 		.4byte	0xad
 617 00ad 04       		.uleb128 0x4
 618 00ae 08       		.byte	0x8
 619 00af 07       		.byte	0x7
ARM GAS  /var/folders/d2/nstgp4h54kz7g1l847x_b8wc0000gn/T//cc6ckQq1.s 			page 12


 620 00b0 F5000000 		.4byte	.LASF15
 621 00b4 03       		.uleb128 0x3
 622 00b5 B6080000 		.4byte	.LASF16
 623 00b9 04       		.byte	0x4
 624 00ba 18       		.byte	0x18
 625 00bb 53000000 		.4byte	0x53
 626 00bf 03       		.uleb128 0x3
 627 00c0 3C040000 		.4byte	.LASF17
 628 00c4 04       		.byte	0x4
 629 00c5 24       		.byte	0x24
 630 00c6 6C000000 		.4byte	0x6c
 631 00ca 03       		.uleb128 0x3
 632 00cb 94060000 		.4byte	.LASF18
 633 00cf 04       		.byte	0x4
 634 00d0 2C       		.byte	0x2c
 635 00d1 7E000000 		.4byte	0x7e
 636 00d5 05       		.uleb128 0x5
 637 00d6 CA000000 		.4byte	0xca
 638 00da 03       		.uleb128 0x3
 639 00db 7B070000 		.4byte	.LASF19
 640 00df 04       		.byte	0x4
 641 00e0 30       		.byte	0x30
 642 00e1 90000000 		.4byte	0x90
 643 00e5 03       		.uleb128 0x3
 644 00e6 90000000 		.4byte	.LASF20
 645 00ea 04       		.byte	0x4
 646 00eb 3C       		.byte	0x3c
 647 00ec A2000000 		.4byte	0xa2
 648 00f0 03       		.uleb128 0x3
 649 00f1 89050000 		.4byte	.LASF21
 650 00f5 05       		.byte	0x5
 651 00f6 45       		.byte	0x45
 652 00f7 DA000000 		.4byte	0xda
 653 00fb 03       		.uleb128 0x3
 654 00fc 7B010000 		.4byte	.LASF22
 655 0100 05       		.byte	0x5
 656 0101 46       		.byte	0x46
 657 0102 E5000000 		.4byte	0xe5
 658 0106 03       		.uleb128 0x3
 659 0107 02070000 		.4byte	.LASF23
 660 010b 05       		.byte	0x5
 661 010c 48       		.byte	0x48
 662 010d B4000000 		.4byte	0xb4
 663 0111 03       		.uleb128 0x3
 664 0112 37020000 		.4byte	.LASF24
 665 0116 05       		.byte	0x5
 666 0117 49       		.byte	0x49
 667 0118 B4000000 		.4byte	0xb4
 668 011c 03       		.uleb128 0x3
 669 011d 35060000 		.4byte	.LASF25
 670 0121 05       		.byte	0x5
 671 0122 4A       		.byte	0x4a
 672 0123 B4000000 		.4byte	0xb4
 673 0127 03       		.uleb128 0x3
 674 0128 14020000 		.4byte	.LASF26
 675 012c 05       		.byte	0x5
 676 012d 4B       		.byte	0x4b
ARM GAS  /var/folders/d2/nstgp4h54kz7g1l847x_b8wc0000gn/T//cc6ckQq1.s 			page 13


 677 012e B4000000 		.4byte	0xb4
 678 0132 03       		.uleb128 0x3
 679 0133 71060000 		.4byte	.LASF27
 680 0137 05       		.byte	0x5
 681 0138 4C       		.byte	0x4c
 682 0139 DA000000 		.4byte	0xda
 683 013d 03       		.uleb128 0x3
 684 013e DA040000 		.4byte	.LASF28
 685 0142 05       		.byte	0x5
 686 0143 4D       		.byte	0x4d
 687 0144 CA000000 		.4byte	0xca
 688 0148 03       		.uleb128 0x3
 689 0149 28050000 		.4byte	.LASF29
 690 014d 05       		.byte	0x5
 691 014e 4F       		.byte	0x4f
 692 014f DA000000 		.4byte	0xda
 693 0153 03       		.uleb128 0x3
 694 0154 DA020000 		.4byte	.LASF30
 695 0158 05       		.byte	0x5
 696 0159 51       		.byte	0x51
 697 015a CA000000 		.4byte	0xca
 698 015e 03       		.uleb128 0x3
 699 015f E5040000 		.4byte	.LASF31
 700 0163 05       		.byte	0x5
 701 0164 52       		.byte	0x52
 702 0165 DA000000 		.4byte	0xda
 703 0169 03       		.uleb128 0x3
 704 016a 01080000 		.4byte	.LASF32
 705 016e 06       		.byte	0x6
 706 016f 33       		.byte	0x33
 707 0170 DA000000 		.4byte	0xda
 708 0174 05       		.uleb128 0x5
 709 0175 69010000 		.4byte	0x169
 710 0179 03       		.uleb128 0x3
 711 017a E4070000 		.4byte	.LASF33
 712 017e 06       		.byte	0x6
 713 017f 3F       		.byte	0x3f
 714 0180 84010000 		.4byte	0x184
 715 0184 06       		.uleb128 0x6
 716 0185 C5040000 		.4byte	.LASF57
 717 0189 68       		.byte	0x68
 718 018a 07       		.byte	0x7
 719 018b C2       		.byte	0xc2
 720 018c A2020000 		.4byte	0x2a2
 721 0190 07       		.uleb128 0x7
 722 0191 FB060000 		.4byte	.LASF34
 723 0195 07       		.byte	0x7
 724 0196 C3       		.byte	0xc3
 725 0197 AD020000 		.4byte	0x2ad
 726 019b 00       		.byte	0
 727 019c 07       		.uleb128 0x7
 728 019d 62060000 		.4byte	.LASF35
 729 01a1 07       		.byte	0x7
 730 01a2 C5       		.byte	0xc5
 731 01a3 AD020000 		.4byte	0x2ad
 732 01a7 04       		.byte	0x4
 733 01a8 07       		.uleb128 0x7
ARM GAS  /var/folders/d2/nstgp4h54kz7g1l847x_b8wc0000gn/T//cc6ckQq1.s 			page 14


 734 01a9 84010000 		.4byte	.LASF36
 735 01ad 07       		.byte	0x7
 736 01ae C7       		.byte	0xc7
 737 01af 32010000 		.4byte	0x132
 738 01b3 08       		.byte	0x8
 739 01b4 07       		.uleb128 0x7
 740 01b5 F0050000 		.4byte	.LASF37
 741 01b9 07       		.byte	0x7
 742 01ba C8       		.byte	0xc8
 743 01bb 2B050000 		.4byte	0x52b
 744 01bf 0C       		.byte	0xc
 745 01c0 07       		.uleb128 0x7
 746 01c1 65020000 		.4byte	.LASF38
 747 01c5 07       		.byte	0x7
 748 01c6 CA       		.byte	0xca
 749 01c7 AD020000 		.4byte	0x2ad
 750 01cb 10       		.byte	0x10
 751 01cc 07       		.uleb128 0x7
 752 01cd E2050000 		.4byte	.LASF39
 753 01d1 07       		.byte	0x7
 754 01d2 CB       		.byte	0xcb
 755 01d3 AD020000 		.4byte	0x2ad
 756 01d7 14       		.byte	0x14
 757 01d8 07       		.uleb128 0x7
 758 01d9 ED080000 		.4byte	.LASF40
 759 01dd 07       		.byte	0x7
 760 01de D2       		.byte	0xd2
 761 01df A1080000 		.4byte	0x8a1
 762 01e3 18       		.byte	0x18
 763 01e4 07       		.uleb128 0x7
 764 01e5 E0020000 		.4byte	.LASF41
 765 01e9 07       		.byte	0x7
 766 01ea D8       		.byte	0xd8
 767 01eb B8080000 		.4byte	0x8b8
 768 01ef 1C       		.byte	0x1c
 769 01f0 07       		.uleb128 0x7
 770 01f1 CA060000 		.4byte	.LASF42
 771 01f5 07       		.byte	0x7
 772 01f6 DD       		.byte	0xdd
 773 01f7 11010000 		.4byte	0x111
 774 01fb 20       		.byte	0x20
 775 01fc 07       		.uleb128 0x7
 776 01fd 19070000 		.4byte	.LASF43
 777 0201 07       		.byte	0x7
 778 0202 E1       		.byte	0xe1
 779 0203 06010000 		.4byte	0x106
 780 0207 21       		.byte	0x21
 781 0208 07       		.uleb128 0x7
 782 0209 98080000 		.4byte	.LASF44
 783 020d 07       		.byte	0x7
 784 020e E6       		.byte	0xe6
 785 020f 1C010000 		.4byte	0x11c
 786 0213 22       		.byte	0x22
 787 0214 07       		.uleb128 0x7
 788 0215 D2060000 		.4byte	.LASF45
 789 0219 07       		.byte	0x7
 790 021a EC       		.byte	0xec
ARM GAS  /var/folders/d2/nstgp4h54kz7g1l847x_b8wc0000gn/T//cc6ckQq1.s 			page 15


 791 021b 27010000 		.4byte	0x127
 792 021f 23       		.byte	0x23
 793 0220 07       		.uleb128 0x7
 794 0221 55040000 		.4byte	.LASF46
 795 0225 07       		.byte	0x7
 796 0226 F3       		.byte	0xf3
 797 0227 74010000 		.4byte	0x174
 798 022b 24       		.byte	0x24
 799 022c 08       		.uleb128 0x8
 800 022d 705F7500 		.ascii	"p_u\000"
 801 0231 07       		.byte	0x7
 802 0232 3101     		.2byte	0x131
 803 0234 D0070000 		.4byte	0x7d0
 804 0238 28       		.byte	0x28
 805 0239 09       		.uleb128 0x9
 806 023a 7F050000 		.4byte	.LASF47
 807 023e 07       		.byte	0x7
 808 023f 3601     		.2byte	0x136
 809 0241 B3020000 		.4byte	0x2b3
 810 0245 2C       		.byte	0x2c
 811 0246 09       		.uleb128 0x9
 812 0247 79040000 		.4byte	.LASF48
 813 024b 07       		.byte	0x7
 814 024c 3C01     		.2byte	0x13c
 815 024e D7020000 		.4byte	0x2d7
 816 0252 30       		.byte	0x30
 817 0253 09       		.uleb128 0x9
 818 0254 D3070000 		.4byte	.LASF49
 819 0258 07       		.byte	0x7
 820 0259 4001     		.2byte	0x140
 821 025b 3D010000 		.4byte	0x13d
 822 025f 38       		.byte	0x38
 823 0260 09       		.uleb128 0x9
 824 0261 70070000 		.4byte	.LASF50
 825 0265 07       		.byte	0x7
 826 0266 4601     		.2byte	0x146
 827 0268 48010000 		.4byte	0x148
 828 026c 3C       		.byte	0x3c
 829 026d 09       		.uleb128 0x9
 830 026e B6060000 		.4byte	.LASF51
 831 0272 07       		.byte	0x7
 832 0273 4D01     		.2byte	0x14d
 833 0275 9B080000 		.4byte	0x89b
 834 0279 40       		.byte	0x40
 835 027a 09       		.uleb128 0x9
 836 027b 0B080000 		.4byte	.LASF52
 837 027f 07       		.byte	0x7
 838 0280 5101     		.2byte	0x151
 839 0282 32010000 		.4byte	0x132
 840 0286 44       		.byte	0x44
 841 0287 09       		.uleb128 0x9
 842 0288 F2010000 		.4byte	.LASF53
 843 028c 07       		.byte	0x7
 844 028d 5801     		.2byte	0x158
 845 028f 8A030000 		.4byte	0x38a
 846 0293 48       		.byte	0x48
 847 0294 09       		.uleb128 0x9
ARM GAS  /var/folders/d2/nstgp4h54kz7g1l847x_b8wc0000gn/T//cc6ckQq1.s 			page 16


 848 0295 21070000 		.4byte	.LASF54
 849 0299 07       		.byte	0x7
 850 029a 5E01     		.2byte	0x15e
 851 029c 81070000 		.4byte	0x781
 852 02a0 50       		.byte	0x50
 853 02a1 00       		.byte	0
 854 02a2 03       		.uleb128 0x3
 855 02a3 D3080000 		.4byte	.LASF55
 856 02a7 06       		.byte	0x6
 857 02a8 44       		.byte	0x44
 858 02a9 AD020000 		.4byte	0x2ad
 859 02ad 0A       		.uleb128 0xa
 860 02ae 04       		.byte	0x4
 861 02af 79010000 		.4byte	0x179
 862 02b3 03       		.uleb128 0x3
 863 02b4 00000000 		.4byte	.LASF56
 864 02b8 06       		.byte	0x6
 865 02b9 49       		.byte	0x49
 866 02ba BE020000 		.4byte	0x2be
 867 02be 06       		.uleb128 0x6
 868 02bf 98070000 		.4byte	.LASF58
 869 02c3 04       		.byte	0x4
 870 02c4 07       		.byte	0x7
 871 02c5 B0       		.byte	0xb0
 872 02c6 D7020000 		.4byte	0x2d7
 873 02ca 07       		.uleb128 0x7
 874 02cb FB060000 		.4byte	.LASF34
 875 02cf 07       		.byte	0x7
 876 02d0 B1       		.byte	0xb1
 877 02d1 AD020000 		.4byte	0x2ad
 878 02d5 00       		.byte	0
 879 02d6 00       		.byte	0
 880 02d7 03       		.uleb128 0x3
 881 02d8 29070000 		.4byte	.LASF59
 882 02dc 06       		.byte	0x6
 883 02dd 50       		.byte	0x50
 884 02de E2020000 		.4byte	0x2e2
 885 02e2 06       		.uleb128 0x6
 886 02e3 BC000000 		.4byte	.LASF60
 887 02e7 08       		.byte	0x8
 888 02e8 07       		.byte	0x7
 889 02e9 B7       		.byte	0xb7
 890 02ea 07030000 		.4byte	0x307
 891 02ee 07       		.uleb128 0x7
 892 02ef FB060000 		.4byte	.LASF34
 893 02f3 07       		.byte	0x7
 894 02f4 B8       		.byte	0xb8
 895 02f5 AD020000 		.4byte	0x2ad
 896 02f9 00       		.byte	0
 897 02fa 07       		.uleb128 0x7
 898 02fb 62060000 		.4byte	.LASF35
 899 02ff 07       		.byte	0x7
 900 0300 B9       		.byte	0xb9
 901 0301 AD020000 		.4byte	0x2ad
 902 0305 04       		.byte	0x4
 903 0306 00       		.byte	0
 904 0307 03       		.uleb128 0x3
ARM GAS  /var/folders/d2/nstgp4h54kz7g1l847x_b8wc0000gn/T//cc6ckQq1.s 			page 17


 905 0308 68000000 		.4byte	.LASF61
 906 030c 06       		.byte	0x6
 907 030d 57       		.byte	0x57
 908 030e 12030000 		.4byte	0x312
 909 0312 0B       		.uleb128 0xb
 910 0313 1A050000 		.4byte	.LASF62
 911 0317 1C       		.byte	0x1c
 912 0318 07       		.byte	0x7
 913 0319 9001     		.2byte	0x190
 914 031b 6E030000 		.4byte	0x36e
 915 031f 09       		.uleb128 0x9
 916 0320 90070000 		.4byte	.LASF63
 917 0324 07       		.byte	0x7
 918 0325 9101     		.2byte	0x191
 919 0327 D7020000 		.4byte	0x2d7
 920 032b 00       		.byte	0
 921 032c 09       		.uleb128 0x9
 922 032d 78050000 		.4byte	.LASF64
 923 0331 07       		.byte	0x7
 924 0332 9201     		.2byte	0x192
 925 0334 32010000 		.4byte	0x132
 926 0338 08       		.byte	0x8
 927 0339 09       		.uleb128 0x9
 928 033a EA050000 		.4byte	.LASF65
 929 033e 07       		.byte	0x7
 930 033f 9401     		.2byte	0x194
 931 0341 2B050000 		.4byte	0x52b
 932 0345 0C       		.byte	0xc
 933 0346 09       		.uleb128 0x9
 934 0347 7D020000 		.4byte	.LASF66
 935 034b 07       		.byte	0x7
 936 034c 9701     		.2byte	0x197
 937 034e AD020000 		.4byte	0x2ad
 938 0352 10       		.byte	0x10
 939 0353 09       		.uleb128 0x9
 940 0354 17060000 		.4byte	.LASF67
 941 0358 07       		.byte	0x7
 942 0359 9801     		.2byte	0x198
 943 035b AD020000 		.4byte	0x2ad
 944 035f 14       		.byte	0x14
 945 0360 09       		.uleb128 0x9
 946 0361 0D060000 		.4byte	.LASF68
 947 0365 07       		.byte	0x7
 948 0366 9B01     		.2byte	0x19b
 949 0368 AD020000 		.4byte	0x2ad
 950 036c 18       		.byte	0x18
 951 036d 00       		.byte	0
 952 036e 03       		.uleb128 0x3
 953 036f 16080000 		.4byte	.LASF69
 954 0373 06       		.byte	0x6
 955 0374 5C       		.byte	0x5c
 956 0375 79030000 		.4byte	0x379
 957 0379 0A       		.uleb128 0xa
 958 037a 04       		.byte	0x4
 959 037b 7F030000 		.4byte	0x37f
 960 037f 0C       		.uleb128 0xc
 961 0380 8A030000 		.4byte	0x38a
ARM GAS  /var/folders/d2/nstgp4h54kz7g1l847x_b8wc0000gn/T//cc6ckQq1.s 			page 18


 962 0384 0D       		.uleb128 0xd
 963 0385 8A030000 		.4byte	0x38a
 964 0389 00       		.byte	0
 965 038a 0E       		.uleb128 0xe
 966 038b 04       		.byte	0x4
 967 038c 0F       		.uleb128 0xf
 968 038d 8A030000 		.4byte	0x38a
 969 0391 03       		.uleb128 0x3
 970 0392 52060000 		.4byte	.LASF70
 971 0396 06       		.byte	0x6
 972 0397 61       		.byte	0x61
 973 0398 9C030000 		.4byte	0x39c
 974 039c 0B       		.uleb128 0xb
 975 039d 54080000 		.4byte	.LASF71
 976 03a1 14       		.byte	0x14
 977 03a2 07       		.byte	0x7
 978 03a3 6B01     		.2byte	0x16b
 979 03a5 EB030000 		.4byte	0x3eb
 980 03a9 09       		.uleb128 0x9
 981 03aa 96020000 		.4byte	.LASF72
 982 03ae 07       		.byte	0x7
 983 03af 6C01     		.2byte	0x16c
 984 03b1 BE080000 		.4byte	0x8be
 985 03b5 00       		.byte	0
 986 03b6 09       		.uleb128 0x9
 987 03b7 8E020000 		.4byte	.LASF73
 988 03bb 07       		.byte	0x7
 989 03bc 6D01     		.2byte	0x16d
 990 03be BE080000 		.4byte	0x8be
 991 03c2 04       		.byte	0x4
 992 03c3 09       		.uleb128 0x9
 993 03c4 70040000 		.4byte	.LASF74
 994 03c8 07       		.byte	0x7
 995 03c9 6E01     		.2byte	0x16e
 996 03cb 69010000 		.4byte	0x169
 997 03cf 08       		.byte	0x8
 998 03d0 09       		.uleb128 0x9
 999 03d1 8A090000 		.4byte	.LASF75
 1000 03d5 07       		.byte	0x7
 1001 03d6 6F01     		.2byte	0x16f
 1002 03d8 6E030000 		.4byte	0x36e
 1003 03dc 0C       		.byte	0xc
 1004 03dd 09       		.uleb128 0x9
 1005 03de 72080000 		.4byte	.LASF76
 1006 03e2 07       		.byte	0x7
 1007 03e3 7101     		.2byte	0x171
 1008 03e5 8A030000 		.4byte	0x38a
 1009 03e9 10       		.byte	0x10
 1010 03ea 00       		.byte	0
 1011 03eb 03       		.uleb128 0x3
 1012 03ec 52010000 		.4byte	.LASF77
 1013 03f0 06       		.byte	0x6
 1014 03f1 66       		.byte	0x66
 1015 03f2 F6030000 		.4byte	0x3f6
 1016 03f6 0B       		.uleb128 0xb
 1017 03f7 91050000 		.4byte	.LASF78
 1018 03fb 10       		.byte	0x10
ARM GAS  /var/folders/d2/nstgp4h54kz7g1l847x_b8wc0000gn/T//cc6ckQq1.s 			page 19


 1019 03fc 07       		.byte	0x7
 1020 03fd 7B01     		.2byte	0x17b
 1021 03ff 38040000 		.4byte	0x438
 1022 0403 09       		.uleb128 0x9
 1023 0404 96020000 		.4byte	.LASF72
 1024 0408 07       		.byte	0x7
 1025 0409 7C01     		.2byte	0x17c
 1026 040b BE080000 		.4byte	0x8be
 1027 040f 00       		.byte	0
 1028 0410 09       		.uleb128 0x9
 1029 0411 8E020000 		.4byte	.LASF73
 1030 0415 07       		.byte	0x7
 1031 0416 7E01     		.2byte	0x17e
 1032 0418 BE080000 		.4byte	0x8be
 1033 041c 04       		.byte	0x4
 1034 041d 09       		.uleb128 0x9
 1035 041e 70040000 		.4byte	.LASF74
 1036 0422 07       		.byte	0x7
 1037 0423 8001     		.2byte	0x180
 1038 0425 69010000 		.4byte	0x169
 1039 0429 08       		.byte	0x8
 1040 042a 09       		.uleb128 0x9
 1041 042b 06090000 		.4byte	.LASF79
 1042 042f 07       		.byte	0x7
 1043 0430 8201     		.2byte	0x182
 1044 0432 74010000 		.4byte	0x174
 1045 0436 0C       		.byte	0xc
 1046 0437 00       		.byte	0
 1047 0438 03       		.uleb128 0x3
 1048 0439 CD000000 		.4byte	.LASF80
 1049 043d 06       		.byte	0x6
 1050 043e 6B       		.byte	0x6b
 1051 043f 43040000 		.4byte	0x443
 1052 0443 10       		.uleb128 0x10
 1053 0444 9E020000 		.4byte	.LASF81
 1054 0448 1404     		.2byte	0x414
 1055 044a 07       		.byte	0x7
 1056 044b A201     		.2byte	0x1a2
 1057 044d 86040000 		.4byte	0x486
 1058 0451 09       		.uleb128 0x9
 1059 0452 2A080000 		.4byte	.LASF82
 1060 0456 07       		.byte	0x7
 1061 0457 AA01     		.2byte	0x1aa
 1062 0459 A7080000 		.4byte	0x8a7
 1063 045d 00       		.byte	0
 1064 045e 09       		.uleb128 0x9
 1065 045f 9F080000 		.4byte	.LASF83
 1066 0463 07       		.byte	0x7
 1067 0464 AF01     		.2byte	0x1af
 1068 0466 53010000 		.4byte	0x153
 1069 046a 04       		.byte	0x4
 1070 046b 09       		.uleb128 0x9
 1071 046c C2020000 		.4byte	.LASF84
 1072 0470 07       		.byte	0x7
 1073 0471 B301     		.2byte	0x1b3
 1074 0473 53010000 		.4byte	0x153
 1075 0477 08       		.byte	0x8
ARM GAS  /var/folders/d2/nstgp4h54kz7g1l847x_b8wc0000gn/T//cc6ckQq1.s 			page 20


 1076 0478 09       		.uleb128 0x9
 1077 0479 11090000 		.4byte	.LASF85
 1078 047d 07       		.byte	0x7
 1079 047e B901     		.2byte	0x1b9
 1080 0480 13070000 		.4byte	0x713
 1081 0484 0C       		.byte	0xc
 1082 0485 00       		.byte	0
 1083 0486 03       		.uleb128 0x3
 1084 0487 EC040000 		.4byte	.LASF86
 1085 048b 06       		.byte	0x6
 1086 048c 70       		.byte	0x70
 1087 048d 91040000 		.4byte	0x491
 1088 0491 10       		.uleb128 0x10
 1089 0492 24020000 		.4byte	.LASF87
 1090 0496 7006     		.2byte	0x670
 1091 0498 07       		.byte	0x7
 1092 0499 C201     		.2byte	0x1c2
 1093 049b FE040000 		.4byte	0x4fe
 1094 049f 09       		.uleb128 0x9
 1095 04a0 B0080000 		.4byte	.LASF88
 1096 04a4 07       		.byte	0x7
 1097 04a5 C601     		.2byte	0x1c6
 1098 04a7 07030000 		.4byte	0x307
 1099 04ab 00       		.byte	0
 1100 04ac 09       		.uleb128 0x9
 1101 04ad 0D020000 		.4byte	.LASF89
 1102 04b1 07       		.byte	0x7
 1103 04b2 CA01     		.2byte	0x1ca
 1104 04b4 EB030000 		.4byte	0x3eb
 1105 04b8 1C       		.byte	0x1c
 1106 04b9 08       		.uleb128 0x8
 1107 04ba 64626700 		.ascii	"dbg\000"
 1108 04be 07       		.byte	0x7
 1109 04bf CE01     		.2byte	0x1ce
 1110 04c1 38040000 		.4byte	0x438
 1111 04c5 2C       		.byte	0x2c
 1112 04c6 11       		.uleb128 0x11
 1113 04c7 CF040000 		.4byte	.LASF90
 1114 04cb 07       		.byte	0x7
 1115 04cc D201     		.2byte	0x1d2
 1116 04ce 79010000 		.4byte	0x179
 1117 04d2 4004     		.2byte	0x440
 1118 04d4 12       		.uleb128 0x12
 1119 04d5 746D00   		.ascii	"tm\000"
 1120 04d8 07       		.byte	0x7
 1121 04d9 D701     		.2byte	0x1d7
 1122 04db 33070000 		.4byte	0x733
 1123 04df A804     		.2byte	0x4a8
 1124 04e1 11       		.uleb128 0x11
 1125 04e2 99000000 		.4byte	.LASF91
 1126 04e6 07       		.byte	0x7
 1127 04e7 DD01     		.2byte	0x1dd
 1128 04e9 C5070000 		.4byte	0x7c5
 1129 04ed B004     		.2byte	0x4b0
 1130 04ef 11       		.uleb128 0x11
 1131 04f0 CB020000 		.4byte	.LASF92
 1132 04f4 07       		.byte	0x7
ARM GAS  /var/folders/d2/nstgp4h54kz7g1l847x_b8wc0000gn/T//cc6ckQq1.s 			page 21


 1133 04f5 E301     		.2byte	0x1e3
 1134 04f7 C4080000 		.4byte	0x8c4
 1135 04fb E804     		.2byte	0x4e8
 1136 04fd 00       		.byte	0
 1137 04fe 13       		.uleb128 0x13
 1138 04ff 68010000 		.4byte	.LASF93
 1139 0503 08       		.byte	0x8
 1140 0504 A706     		.2byte	0x6a7
 1141 0506 D5000000 		.4byte	0xd5
 1142 050a 14       		.uleb128 0x14
 1143 050b 45040000 		.4byte	.LASF94
 1144 050f 09       		.byte	0x9
 1145 0510 4C       		.byte	0x4c
 1146 0511 DA000000 		.4byte	0xda
 1147 0515 03       		.uleb128 0x3
 1148 0516 85020000 		.4byte	.LASF95
 1149 051a 0A       		.byte	0xa
 1150 051b 65       		.byte	0x65
 1151 051c 8A030000 		.4byte	0x38a
 1152 0520 03       		.uleb128 0x3
 1153 0521 3E050000 		.4byte	.LASF96
 1154 0525 0A       		.byte	0xa
 1155 0526 6D       		.byte	0x6d
 1156 0527 E5000000 		.4byte	0xe5
 1157 052b 06       		.uleb128 0x6
 1158 052c 4C080000 		.4byte	.LASF97
 1159 0530 04       		.byte	0x4
 1160 0531 0A       		.byte	0xa
 1161 0532 89       		.byte	0x89
 1162 0533 44050000 		.4byte	0x544
 1163 0537 15       		.uleb128 0x15
 1164 0538 72313300 		.ascii	"r13\000"
 1165 053c 0A       		.byte	0xa
 1166 053d 8A       		.byte	0x8a
 1167 053e 85060000 		.4byte	0x685
 1168 0542 00       		.byte	0
 1169 0543 00       		.byte	0
 1170 0544 06       		.uleb128 0x6
 1171 0545 B0000000 		.4byte	.LASF98
 1172 0549 64       		.byte	0x64
 1173 054a 0B       		.byte	0xb
 1174 054b F4       		.byte	0xf4
 1175 054c 85060000 		.4byte	0x685
 1176 0550 15       		.uleb128 0x15
 1177 0551 73313600 		.ascii	"s16\000"
 1178 0555 0B       		.byte	0xb
 1179 0556 F6       		.byte	0xf6
 1180 0557 15050000 		.4byte	0x515
 1181 055b 00       		.byte	0
 1182 055c 15       		.uleb128 0x15
 1183 055d 73313700 		.ascii	"s17\000"
 1184 0561 0B       		.byte	0xb
 1185 0562 F7       		.byte	0xf7
 1186 0563 15050000 		.4byte	0x515
 1187 0567 04       		.byte	0x4
 1188 0568 15       		.uleb128 0x15
 1189 0569 73313800 		.ascii	"s18\000"
ARM GAS  /var/folders/d2/nstgp4h54kz7g1l847x_b8wc0000gn/T//cc6ckQq1.s 			page 22


 1190 056d 0B       		.byte	0xb
 1191 056e F8       		.byte	0xf8
 1192 056f 15050000 		.4byte	0x515
 1193 0573 08       		.byte	0x8
 1194 0574 15       		.uleb128 0x15
 1195 0575 73313900 		.ascii	"s19\000"
 1196 0579 0B       		.byte	0xb
 1197 057a F9       		.byte	0xf9
 1198 057b 15050000 		.4byte	0x515
 1199 057f 0C       		.byte	0xc
 1200 0580 15       		.uleb128 0x15
 1201 0581 73323000 		.ascii	"s20\000"
 1202 0585 0B       		.byte	0xb
 1203 0586 FA       		.byte	0xfa
 1204 0587 15050000 		.4byte	0x515
 1205 058b 10       		.byte	0x10
 1206 058c 15       		.uleb128 0x15
 1207 058d 73323100 		.ascii	"s21\000"
 1208 0591 0B       		.byte	0xb
 1209 0592 FB       		.byte	0xfb
 1210 0593 15050000 		.4byte	0x515
 1211 0597 14       		.byte	0x14
 1212 0598 15       		.uleb128 0x15
 1213 0599 73323200 		.ascii	"s22\000"
 1214 059d 0B       		.byte	0xb
 1215 059e FC       		.byte	0xfc
 1216 059f 15050000 		.4byte	0x515
 1217 05a3 18       		.byte	0x18
 1218 05a4 15       		.uleb128 0x15
 1219 05a5 73323300 		.ascii	"s23\000"
 1220 05a9 0B       		.byte	0xb
 1221 05aa FD       		.byte	0xfd
 1222 05ab 15050000 		.4byte	0x515
 1223 05af 1C       		.byte	0x1c
 1224 05b0 15       		.uleb128 0x15
 1225 05b1 73323400 		.ascii	"s24\000"
 1226 05b5 0B       		.byte	0xb
 1227 05b6 FE       		.byte	0xfe
 1228 05b7 15050000 		.4byte	0x515
 1229 05bb 20       		.byte	0x20
 1230 05bc 15       		.uleb128 0x15
 1231 05bd 73323500 		.ascii	"s25\000"
 1232 05c1 0B       		.byte	0xb
 1233 05c2 FF       		.byte	0xff
 1234 05c3 15050000 		.4byte	0x515
 1235 05c7 24       		.byte	0x24
 1236 05c8 08       		.uleb128 0x8
 1237 05c9 73323600 		.ascii	"s26\000"
 1238 05cd 0B       		.byte	0xb
 1239 05ce 0001     		.2byte	0x100
 1240 05d0 15050000 		.4byte	0x515
 1241 05d4 28       		.byte	0x28
 1242 05d5 08       		.uleb128 0x8
 1243 05d6 73323700 		.ascii	"s27\000"
 1244 05da 0B       		.byte	0xb
 1245 05db 0101     		.2byte	0x101
 1246 05dd 15050000 		.4byte	0x515
ARM GAS  /var/folders/d2/nstgp4h54kz7g1l847x_b8wc0000gn/T//cc6ckQq1.s 			page 23


 1247 05e1 2C       		.byte	0x2c
 1248 05e2 08       		.uleb128 0x8
 1249 05e3 73323800 		.ascii	"s28\000"
 1250 05e7 0B       		.byte	0xb
 1251 05e8 0201     		.2byte	0x102
 1252 05ea 15050000 		.4byte	0x515
 1253 05ee 30       		.byte	0x30
 1254 05ef 08       		.uleb128 0x8
 1255 05f0 73323900 		.ascii	"s29\000"
 1256 05f4 0B       		.byte	0xb
 1257 05f5 0301     		.2byte	0x103
 1258 05f7 15050000 		.4byte	0x515
 1259 05fb 34       		.byte	0x34
 1260 05fc 08       		.uleb128 0x8
 1261 05fd 73333000 		.ascii	"s30\000"
 1262 0601 0B       		.byte	0xb
 1263 0602 0401     		.2byte	0x104
 1264 0604 15050000 		.4byte	0x515
 1265 0608 38       		.byte	0x38
 1266 0609 08       		.uleb128 0x8
 1267 060a 73333100 		.ascii	"s31\000"
 1268 060e 0B       		.byte	0xb
 1269 060f 0501     		.2byte	0x105
 1270 0611 15050000 		.4byte	0x515
 1271 0615 3C       		.byte	0x3c
 1272 0616 08       		.uleb128 0x8
 1273 0617 723400   		.ascii	"r4\000"
 1274 061a 0B       		.byte	0xb
 1275 061b 0701     		.2byte	0x107
 1276 061d 15050000 		.4byte	0x515
 1277 0621 40       		.byte	0x40
 1278 0622 08       		.uleb128 0x8
 1279 0623 723500   		.ascii	"r5\000"
 1280 0626 0B       		.byte	0xb
 1281 0627 0801     		.2byte	0x108
 1282 0629 15050000 		.4byte	0x515
 1283 062d 44       		.byte	0x44
 1284 062e 08       		.uleb128 0x8
 1285 062f 723600   		.ascii	"r6\000"
 1286 0632 0B       		.byte	0xb
 1287 0633 0901     		.2byte	0x109
 1288 0635 15050000 		.4byte	0x515
 1289 0639 48       		.byte	0x48
 1290 063a 08       		.uleb128 0x8
 1291 063b 723700   		.ascii	"r7\000"
 1292 063e 0B       		.byte	0xb
 1293 063f 0A01     		.2byte	0x10a
 1294 0641 15050000 		.4byte	0x515
 1295 0645 4C       		.byte	0x4c
 1296 0646 08       		.uleb128 0x8
 1297 0647 723800   		.ascii	"r8\000"
 1298 064a 0B       		.byte	0xb
 1299 064b 0B01     		.2byte	0x10b
 1300 064d 15050000 		.4byte	0x515
 1301 0651 50       		.byte	0x50
 1302 0652 08       		.uleb128 0x8
 1303 0653 723900   		.ascii	"r9\000"
ARM GAS  /var/folders/d2/nstgp4h54kz7g1l847x_b8wc0000gn/T//cc6ckQq1.s 			page 24


 1304 0656 0B       		.byte	0xb
 1305 0657 0C01     		.2byte	0x10c
 1306 0659 15050000 		.4byte	0x515
 1307 065d 54       		.byte	0x54
 1308 065e 08       		.uleb128 0x8
 1309 065f 72313000 		.ascii	"r10\000"
 1310 0663 0B       		.byte	0xb
 1311 0664 0D01     		.2byte	0x10d
 1312 0666 15050000 		.4byte	0x515
 1313 066a 58       		.byte	0x58
 1314 066b 08       		.uleb128 0x8
 1315 066c 72313100 		.ascii	"r11\000"
 1316 0670 0B       		.byte	0xb
 1317 0671 0E01     		.2byte	0x10e
 1318 0673 15050000 		.4byte	0x515
 1319 0677 5C       		.byte	0x5c
 1320 0678 08       		.uleb128 0x8
 1321 0679 6C7200   		.ascii	"lr\000"
 1322 067c 0B       		.byte	0xb
 1323 067d 0F01     		.2byte	0x10f
 1324 067f 15050000 		.4byte	0x515
 1325 0683 60       		.byte	0x60
 1326 0684 00       		.byte	0
 1327 0685 0A       		.uleb128 0xa
 1328 0686 04       		.byte	0x4
 1329 0687 44050000 		.4byte	0x544
 1330 068b 16       		.uleb128 0x16
 1331 068c 10       		.byte	0x10
 1332 068d 0C       		.byte	0xc
 1333 068e 51       		.byte	0x51
 1334 068f C4060000 		.4byte	0x6c4
 1335 0693 07       		.uleb128 0x7
 1336 0694 75000000 		.4byte	.LASF99
 1337 0698 0C       		.byte	0xc
 1338 0699 55       		.byte	0x55
 1339 069a 69010000 		.4byte	0x169
 1340 069e 00       		.byte	0
 1341 069f 07       		.uleb128 0x7
 1342 06a0 4E020000 		.4byte	.LASF100
 1343 06a4 0C       		.byte	0xc
 1344 06a5 59       		.byte	0x59
 1345 06a6 AD020000 		.4byte	0x2ad
 1346 06aa 04       		.byte	0x4
 1347 06ab 07       		.uleb128 0x7
 1348 06ac 72090000 		.4byte	.LASF101
 1349 06b0 0C       		.byte	0xc
 1350 06b1 5D       		.byte	0x5d
 1351 06b2 8A030000 		.4byte	0x38a
 1352 06b6 08       		.byte	0x8
 1353 06b7 07       		.uleb128 0x7
 1354 06b8 A7080000 		.4byte	.LASF102
 1355 06bc 0C       		.byte	0xc
 1356 06bd 61       		.byte	0x61
 1357 06be B4000000 		.4byte	0xb4
 1358 06c2 0C       		.byte	0xc
 1359 06c3 00       		.byte	0
 1360 06c4 03       		.uleb128 0x3
ARM GAS  /var/folders/d2/nstgp4h54kz7g1l847x_b8wc0000gn/T//cc6ckQq1.s 			page 25


 1361 06c5 C7050000 		.4byte	.LASF103
 1362 06c9 0C       		.byte	0xc
 1363 06ca 62       		.byte	0x62
 1364 06cb 8B060000 		.4byte	0x68b
 1365 06cf 17       		.uleb128 0x17
 1366 06d0 0804     		.2byte	0x408
 1367 06d2 0C       		.byte	0xc
 1368 06d3 67       		.byte	0x67
 1369 06d4 FD060000 		.4byte	0x6fd
 1370 06d8 07       		.uleb128 0x7
 1371 06d9 75020000 		.4byte	.LASF104
 1372 06dd 0C       		.byte	0xc
 1373 06de 6B       		.byte	0x6b
 1374 06df 37000000 		.4byte	0x37
 1375 06e3 00       		.byte	0
 1376 06e4 07       		.uleb128 0x7
 1377 06e5 C0050000 		.4byte	.LASF105
 1378 06e9 0C       		.byte	0xc
 1379 06ea 6F       		.byte	0x6f
 1380 06eb FD060000 		.4byte	0x6fd
 1381 06ef 04       		.byte	0x4
 1382 06f0 07       		.uleb128 0x7
 1383 06f1 3D060000 		.4byte	.LASF106
 1384 06f5 0C       		.byte	0xc
 1385 06f6 73       		.byte	0x73
 1386 06f7 03070000 		.4byte	0x703
 1387 06fb 08       		.byte	0x8
 1388 06fc 00       		.byte	0
 1389 06fd 0A       		.uleb128 0xa
 1390 06fe 04       		.byte	0x4
 1391 06ff C4060000 		.4byte	0x6c4
 1392 0703 18       		.uleb128 0x18
 1393 0704 C4060000 		.4byte	0x6c4
 1394 0708 13070000 		.4byte	0x713
 1395 070c 19       		.uleb128 0x19
 1396 070d 37000000 		.4byte	0x37
 1397 0711 3F       		.byte	0x3f
 1398 0712 00       		.byte	0
 1399 0713 03       		.uleb128 0x3
 1400 0714 0C010000 		.4byte	.LASF107
 1401 0718 0C       		.byte	0xc
 1402 0719 74       		.byte	0x74
 1403 071a CF060000 		.4byte	0x6cf
 1404 071e 16       		.uleb128 0x16
 1405 071f 04       		.byte	0x4
 1406 0720 0D       		.byte	0xd
 1407 0721 38       		.byte	0x38
 1408 0722 33070000 		.4byte	0x733
 1409 0726 07       		.uleb128 0x7
 1410 0727 45080000 		.4byte	.LASF108
 1411 072b 0D       		.byte	0xd
 1412 072c 3C       		.byte	0x3c
 1413 072d F0000000 		.4byte	0xf0
 1414 0731 00       		.byte	0
 1415 0732 00       		.byte	0
 1416 0733 03       		.uleb128 0x3
 1417 0734 F6050000 		.4byte	.LASF109
ARM GAS  /var/folders/d2/nstgp4h54kz7g1l847x_b8wc0000gn/T//cc6ckQq1.s 			page 26


 1418 0738 0D       		.byte	0xd
 1419 0739 3D       		.byte	0x3d
 1420 073a 1E070000 		.4byte	0x71e
 1421 073e 16       		.uleb128 0x16
 1422 073f 18       		.byte	0x18
 1423 0740 0D       		.byte	0xd
 1424 0741 48       		.byte	0x48
 1425 0742 81070000 		.4byte	0x781
 1426 0746 07       		.uleb128 0x7
 1427 0747 9E040000 		.4byte	.LASF110
 1428 074b 0D       		.byte	0xd
 1429 074c 49       		.byte	0x49
 1430 074d F0000000 		.4byte	0xf0
 1431 0751 00       		.byte	0
 1432 0752 07       		.uleb128 0x7
 1433 0753 DC000000 		.4byte	.LASF111
 1434 0757 0D       		.byte	0xd
 1435 0758 4A       		.byte	0x4a
 1436 0759 F0000000 		.4byte	0xf0
 1437 075d 04       		.byte	0x4
 1438 075e 07       		.uleb128 0x7
 1439 075f E0040000 		.4byte	.LASF112
 1440 0763 0D       		.byte	0xd
 1441 0764 4B       		.byte	0x4b
 1442 0765 F0000000 		.4byte	0xf0
 1443 0769 08       		.byte	0x8
 1444 076a 15       		.uleb128 0x15
 1445 076b 6E00     		.ascii	"n\000"
 1446 076d 0D       		.byte	0xd
 1447 076e 4C       		.byte	0x4c
 1448 076f 5E010000 		.4byte	0x15e
 1449 0773 0C       		.byte	0xc
 1450 0774 07       		.uleb128 0x7
 1451 0775 2A060000 		.4byte	.LASF113
 1452 0779 0D       		.byte	0xd
 1453 077a 4D       		.byte	0x4d
 1454 077b FB000000 		.4byte	0xfb
 1455 077f 10       		.byte	0x10
 1456 0780 00       		.byte	0
 1457 0781 03       		.uleb128 0x3
 1458 0782 E2000000 		.4byte	.LASF114
 1459 0786 0D       		.byte	0xd
 1460 0787 4E       		.byte	0x4e
 1461 0788 3E070000 		.4byte	0x73e
 1462 078c 16       		.uleb128 0x16
 1463 078d 38       		.byte	0x38
 1464 078e 0E       		.byte	0xe
 1465 078f 38       		.byte	0x38
 1466 0790 C5070000 		.4byte	0x7c5
 1467 0794 07       		.uleb128 0x7
 1468 0795 8D040000 		.4byte	.LASF115
 1469 0799 0E       		.byte	0xe
 1470 079a 39       		.byte	0x39
 1471 079b 5E010000 		.4byte	0x15e
 1472 079f 00       		.byte	0
 1473 07a0 07       		.uleb128 0x7
 1474 07a1 85060000 		.4byte	.LASF116
ARM GAS  /var/folders/d2/nstgp4h54kz7g1l847x_b8wc0000gn/T//cc6ckQq1.s 			page 27


 1475 07a5 0E       		.byte	0xe
 1476 07a6 3A       		.byte	0x3a
 1477 07a7 5E010000 		.4byte	0x15e
 1478 07ab 04       		.byte	0x4
 1479 07ac 07       		.uleb128 0x7
 1480 07ad 5F090000 		.4byte	.LASF117
 1481 07b1 0E       		.byte	0xe
 1482 07b2 3B       		.byte	0x3b
 1483 07b3 81070000 		.4byte	0x781
 1484 07b7 08       		.byte	0x8
 1485 07b8 07       		.uleb128 0x7
 1486 07b9 0F050000 		.4byte	.LASF118
 1487 07bd 0E       		.byte	0xe
 1488 07be 3D       		.byte	0x3d
 1489 07bf 81070000 		.4byte	0x781
 1490 07c3 20       		.byte	0x20
 1491 07c4 00       		.byte	0
 1492 07c5 03       		.uleb128 0x3
 1493 07c6 B6040000 		.4byte	.LASF119
 1494 07ca 0E       		.byte	0xe
 1495 07cb 3F       		.byte	0x3f
 1496 07cc 8C070000 		.4byte	0x78c
 1497 07d0 1A       		.uleb128 0x1a
 1498 07d1 04       		.byte	0x4
 1499 07d2 07       		.byte	0x7
 1500 07d3 FA       		.byte	0xfa
 1501 07d4 2D080000 		.4byte	0x82d
 1502 07d8 1B       		.uleb128 0x1b
 1503 07d9 89000000 		.4byte	.LASF120
 1504 07dd 07       		.byte	0x7
 1505 07de 0101     		.2byte	0x101
 1506 07e0 3D010000 		.4byte	0x13d
 1507 07e4 1B       		.uleb128 0x1b
 1508 07e5 3D010000 		.4byte	.LASF121
 1509 07e9 07       		.byte	0x7
 1510 07ea 0801     		.2byte	0x108
 1511 07ec 3D010000 		.4byte	0x13d
 1512 07f0 1B       		.uleb128 0x1b
 1513 07f1 E6080000 		.4byte	.LASF122
 1514 07f5 07       		.byte	0x7
 1515 07f6 0F01     		.2byte	0x10f
 1516 07f8 8A030000 		.4byte	0x38a
 1517 07fc 1B       		.uleb128 0x1b
 1518 07fd 1E020000 		.4byte	.LASF123
 1519 0801 07       		.byte	0x7
 1520 0802 1601     		.2byte	0x116
 1521 0804 2D080000 		.4byte	0x82d
 1522 0808 1B       		.uleb128 0x1b
 1523 0809 5C040000 		.4byte	.LASF124
 1524 080d 07       		.byte	0x7
 1525 080e 1E01     		.2byte	0x11e
 1526 0810 58080000 		.4byte	0x858
 1527 0814 1B       		.uleb128 0x1b
 1528 0815 CC070000 		.4byte	.LASF125
 1529 0819 07       		.byte	0x7
 1530 081a 2701     		.2byte	0x127
 1531 081c 9B080000 		.4byte	0x89b
ARM GAS  /var/folders/d2/nstgp4h54kz7g1l847x_b8wc0000gn/T//cc6ckQq1.s 			page 28


 1532 0820 1B       		.uleb128 0x1b
 1533 0821 F4060000 		.4byte	.LASF126
 1534 0825 07       		.byte	0x7
 1535 0826 2F01     		.2byte	0x12f
 1536 0828 48010000 		.4byte	0x148
 1537 082c 00       		.byte	0
 1538 082d 0A       		.uleb128 0xa
 1539 082e 04       		.byte	0x4
 1540 082f A2020000 		.4byte	0x2a2
 1541 0833 06       		.uleb128 0x6
 1542 0834 63070000 		.4byte	.LASF127
 1543 0838 0C       		.byte	0xc
 1544 0839 0F       		.byte	0xf
 1545 083a 34       		.byte	0x34
 1546 083b 58080000 		.4byte	0x858
 1547 083f 07       		.uleb128 0x7
 1548 0840 6D020000 		.4byte	.LASF128
 1549 0844 0F       		.byte	0xf
 1550 0845 35       		.byte	0x35
 1551 0846 D7020000 		.4byte	0x2d7
 1552 084a 00       		.byte	0
 1553 084b 07       		.uleb128 0x7
 1554 084c 93040000 		.4byte	.LASF129
 1555 0850 0F       		.byte	0xf
 1556 0851 37       		.byte	0x37
 1557 0852 53010000 		.4byte	0x153
 1558 0856 08       		.byte	0x8
 1559 0857 00       		.byte	0
 1560 0858 0A       		.uleb128 0xa
 1561 0859 04       		.byte	0x4
 1562 085a 33080000 		.4byte	0x833
 1563 085e 06       		.uleb128 0x6
 1564 085f 8F080000 		.4byte	.LASF130
 1565 0863 14       		.byte	0x14
 1566 0864 10       		.byte	0x10
 1567 0865 39       		.byte	0x39
 1568 0866 9B080000 		.4byte	0x89b
 1569 086a 07       		.uleb128 0x7
 1570 086b FA010000 		.4byte	.LASF131
 1571 086f 10       		.byte	0x10
 1572 0870 3A       		.byte	0x3a
 1573 0871 D7020000 		.4byte	0x2d7
 1574 0875 00       		.byte	0
 1575 0876 07       		.uleb128 0x7
 1576 0877 6A090000 		.4byte	.LASF132
 1577 087b 10       		.byte	0x10
 1578 087c 3C       		.byte	0x3c
 1579 087d AD020000 		.4byte	0x2ad
 1580 0881 08       		.byte	0x8
 1581 0882 07       		.uleb128 0x7
 1582 0883 FA070000 		.4byte	.LASF133
 1583 0887 10       		.byte	0x10
 1584 0888 3E       		.byte	0x3e
 1585 0889 F6090000 		.4byte	0x9f6
 1586 088d 0C       		.byte	0xc
 1587 088e 07       		.uleb128 0x7
 1588 088f AE020000 		.4byte	.LASF134
ARM GAS  /var/folders/d2/nstgp4h54kz7g1l847x_b8wc0000gn/T//cc6ckQq1.s 			page 29


 1589 0893 10       		.byte	0x10
 1590 0894 41       		.byte	0x41
 1591 0895 53010000 		.4byte	0x153
 1592 0899 10       		.byte	0x10
 1593 089a 00       		.byte	0
 1594 089b 0A       		.uleb128 0xa
 1595 089c 04       		.byte	0x4
 1596 089d 5E080000 		.4byte	0x85e
 1597 08a1 0A       		.uleb128 0xa
 1598 08a2 04       		.byte	0x4
 1599 08a3 B3080000 		.4byte	0x8b3
 1600 08a7 05       		.uleb128 0x5
 1601 08a8 A1080000 		.4byte	0x8a1
 1602 08ac 04       		.uleb128 0x4
 1603 08ad 01       		.byte	0x1
 1604 08ae 08       		.byte	0x8
 1605 08af C7070000 		.4byte	.LASF135
 1606 08b3 0F       		.uleb128 0xf
 1607 08b4 AC080000 		.4byte	0x8ac
 1608 08b8 0A       		.uleb128 0xa
 1609 08b9 04       		.byte	0x4
 1610 08ba 20050000 		.4byte	0x520
 1611 08be 0A       		.uleb128 0xa
 1612 08bf 04       		.byte	0x4
 1613 08c0 91030000 		.4byte	0x391
 1614 08c4 18       		.uleb128 0x18
 1615 08c5 20050000 		.4byte	0x520
 1616 08c9 D4080000 		.4byte	0x8d4
 1617 08cd 19       		.uleb128 0x19
 1618 08ce 37000000 		.4byte	0x37
 1619 08d2 30       		.byte	0x30
 1620 08d3 00       		.byte	0
 1621 08d4 1C       		.uleb128 0x1c
 1622 08d5 636800   		.ascii	"ch\000"
 1623 08d8 07       		.byte	0x7
 1624 08d9 0902     		.2byte	0x209
 1625 08db 86040000 		.4byte	0x486
 1626 08df 16       		.uleb128 0x16
 1627 08e0 16       		.byte	0x16
 1628 08e1 11       		.byte	0x11
 1629 08e2 34       		.byte	0x34
 1630 08e3 C0090000 		.4byte	0x9c0
 1631 08e7 07       		.uleb128 0x7
 1632 08e8 7C090000 		.4byte	.LASF136
 1633 08ec 11       		.byte	0x11
 1634 08ed 35       		.byte	0x35
 1635 08ee C0090000 		.4byte	0x9c0
 1636 08f2 00       		.byte	0
 1637 08f3 07       		.uleb128 0x7
 1638 08f4 64050000 		.4byte	.LASF137
 1639 08f8 11       		.byte	0x11
 1640 08f9 36       		.byte	0x36
 1641 08fa B4000000 		.4byte	0xb4
 1642 08fe 04       		.byte	0x4
 1643 08ff 07       		.uleb128 0x7
 1644 0900 A8070000 		.4byte	.LASF138
 1645 0904 11       		.byte	0x11
ARM GAS  /var/folders/d2/nstgp4h54kz7g1l847x_b8wc0000gn/T//cc6ckQq1.s 			page 30


 1646 0905 37       		.byte	0x37
 1647 0906 B4000000 		.4byte	0xb4
 1648 090a 05       		.byte	0x5
 1649 090b 07       		.uleb128 0x7
 1650 090c 1E090000 		.4byte	.LASF139
 1651 0910 11       		.byte	0x11
 1652 0911 38       		.byte	0x38
 1653 0912 BF000000 		.4byte	0xbf
 1654 0916 06       		.byte	0x6
 1655 0917 07       		.uleb128 0x7
 1656 0918 47060000 		.4byte	.LASF140
 1657 091c 11       		.byte	0x11
 1658 091d 39       		.byte	0x39
 1659 091e B4000000 		.4byte	0xb4
 1660 0922 08       		.byte	0x8
 1661 0923 07       		.uleb128 0x7
 1662 0924 B4050000 		.4byte	.LASF141
 1663 0928 11       		.byte	0x11
 1664 0929 3A       		.byte	0x3a
 1665 092a B4000000 		.4byte	0xb4
 1666 092e 09       		.byte	0x9
 1667 092f 07       		.uleb128 0x7
 1668 0930 2F010000 		.4byte	.LASF142
 1669 0934 11       		.byte	0x11
 1670 0935 3B       		.byte	0x3b
 1671 0936 B4000000 		.4byte	0xb4
 1672 093a 0A       		.byte	0xa
 1673 093b 07       		.uleb128 0x7
 1674 093c 84070000 		.4byte	.LASF143
 1675 0940 11       		.byte	0x11
 1676 0941 3C       		.byte	0x3c
 1677 0942 B4000000 		.4byte	0xb4
 1678 0946 0B       		.byte	0xb
 1679 0947 07       		.uleb128 0x7
 1680 0948 F8040000 		.4byte	.LASF144
 1681 094c 11       		.byte	0x11
 1682 094d 3D       		.byte	0x3d
 1683 094e B4000000 		.4byte	0xb4
 1684 0952 0C       		.byte	0xc
 1685 0953 07       		.uleb128 0x7
 1686 0954 45070000 		.4byte	.LASF145
 1687 0958 11       		.byte	0x11
 1688 0959 3E       		.byte	0x3e
 1689 095a B4000000 		.4byte	0xb4
 1690 095e 0D       		.byte	0xd
 1691 095f 07       		.uleb128 0x7
 1692 0960 63040000 		.4byte	.LASF146
 1693 0964 11       		.byte	0x11
 1694 0965 3F       		.byte	0x3f
 1695 0966 B4000000 		.4byte	0xb4
 1696 096a 0E       		.byte	0xe
 1697 096b 07       		.uleb128 0x7
 1698 096c D6050000 		.4byte	.LASF147
 1699 0970 11       		.byte	0x11
 1700 0971 40       		.byte	0x40
 1701 0972 B4000000 		.4byte	0xb4
 1702 0976 0F       		.byte	0xf
ARM GAS  /var/folders/d2/nstgp4h54kz7g1l847x_b8wc0000gn/T//cc6ckQq1.s 			page 31


 1703 0977 07       		.uleb128 0x7
 1704 0978 D5010000 		.4byte	.LASF148
 1705 097c 11       		.byte	0x11
 1706 097d 41       		.byte	0x41
 1707 097e B4000000 		.4byte	0xb4
 1708 0982 10       		.byte	0x10
 1709 0983 07       		.uleb128 0x7
 1710 0984 8B010000 		.4byte	.LASF149
 1711 0988 11       		.byte	0x11
 1712 0989 43       		.byte	0x43
 1713 098a B4000000 		.4byte	0xb4
 1714 098e 11       		.byte	0x11
 1715 098f 07       		.uleb128 0x7
 1716 0990 E5010000 		.4byte	.LASF150
 1717 0994 11       		.byte	0x11
 1718 0995 44       		.byte	0x44
 1719 0996 B4000000 		.4byte	0xb4
 1720 099a 12       		.byte	0x12
 1721 099b 07       		.uleb128 0x7
 1722 099c 6C050000 		.4byte	.LASF151
 1723 09a0 11       		.byte	0x11
 1724 09a1 45       		.byte	0x45
 1725 09a2 B4000000 		.4byte	0xb4
 1726 09a6 13       		.byte	0x13
 1727 09a7 07       		.uleb128 0x7
 1728 09a8 0A070000 		.4byte	.LASF152
 1729 09ac 11       		.byte	0x11
 1730 09ad 46       		.byte	0x46
 1731 09ae B4000000 		.4byte	0xb4
 1732 09b2 14       		.byte	0x14
 1733 09b3 07       		.uleb128 0x7
 1734 09b4 03050000 		.4byte	.LASF153
 1735 09b8 11       		.byte	0x11
 1736 09b9 48       		.byte	0x48
 1737 09ba B4000000 		.4byte	0xb4
 1738 09be 15       		.byte	0x15
 1739 09bf 00       		.byte	0
 1740 09c0 18       		.uleb128 0x18
 1741 09c1 AC080000 		.4byte	0x8ac
 1742 09c5 D0090000 		.4byte	0x9d0
 1743 09c9 19       		.uleb128 0x19
 1744 09ca 37000000 		.4byte	0x37
 1745 09ce 03       		.byte	0x3
 1746 09cf 00       		.byte	0
 1747 09d0 03       		.uleb128 0x3
 1748 09d1 54020000 		.4byte	.LASF154
 1749 09d5 11       		.byte	0x11
 1750 09d6 49       		.byte	0x49
 1751 09d7 DF080000 		.4byte	0x8df
 1752 09db 0F       		.uleb128 0xf
 1753 09dc D0090000 		.4byte	0x9d0
 1754 09e0 14       		.uleb128 0x14
 1755 09e1 84040000 		.4byte	.LASF155
 1756 09e5 11       		.byte	0x11
 1757 09e6 6E       		.byte	0x6e
 1758 09e7 DB090000 		.4byte	0x9db
 1759 09eb 03       		.uleb128 0x3
ARM GAS  /var/folders/d2/nstgp4h54kz7g1l847x_b8wc0000gn/T//cc6ckQq1.s 			page 32


 1760 09ec AD010000 		.4byte	.LASF156
 1761 09f0 10       		.byte	0x10
 1762 09f1 34       		.byte	0x34
 1763 09f2 5E080000 		.4byte	0x85e
 1764 09f6 0A       		.uleb128 0xa
 1765 09f7 04       		.byte	0x4
 1766 09f8 EB090000 		.4byte	0x9eb
 1767 09fc 03       		.uleb128 0x3
 1768 09fd 65080000 		.4byte	.LASF157
 1769 0a01 12       		.byte	0x12
 1770 0a02 36       		.byte	0x36
 1771 0a03 070A0000 		.4byte	0xa07
 1772 0a07 0A       		.uleb128 0xa
 1773 0a08 04       		.byte	0x4
 1774 0a09 0D0A0000 		.4byte	0xa0d
 1775 0a0d 1D       		.uleb128 0x1d
 1776 0a0e 8A030000 		.4byte	0x38a
 1777 0a12 1C0A0000 		.4byte	0xa1c
 1778 0a16 0D       		.uleb128 0xd
 1779 0a17 2C000000 		.4byte	0x2c
 1780 0a1b 00       		.byte	0
 1781 0a1c 03       		.uleb128 0x3
 1782 0a1d 40020000 		.4byte	.LASF158
 1783 0a21 13       		.byte	0x13
 1784 0a22 3C       		.byte	0x3c
 1785 0a23 270A0000 		.4byte	0xa27
 1786 0a27 06       		.uleb128 0x6
 1787 0a28 92090000 		.4byte	.LASF159
 1788 0a2c 28       		.byte	0x28
 1789 0a2d 13       		.byte	0x13
 1790 0a2e 4F       		.byte	0x4f
 1791 0a2f 580A0000 		.4byte	0xa58
 1792 0a33 07       		.uleb128 0x7
 1793 0a34 C8080000 		.4byte	.LASF160
 1794 0a38 13       		.byte	0x13
 1795 0a39 50       		.byte	0x50
 1796 0a3a FC090000 		.4byte	0x9fc
 1797 0a3e 00       		.byte	0
 1798 0a3f 07       		.uleb128 0x7
 1799 0a40 46010000 		.4byte	.LASF161
 1800 0a44 13       		.byte	0x13
 1801 0a45 52       		.byte	0x52
 1802 0a46 770A0000 		.4byte	0xa77
 1803 0a4a 08       		.byte	0x8
 1804 0a4b 07       		.uleb128 0x7
 1805 0a4c CF010000 		.4byte	.LASF162
 1806 0a50 13       		.byte	0x13
 1807 0a51 54       		.byte	0x54
 1808 0a52 EB090000 		.4byte	0x9eb
 1809 0a56 10       		.byte	0x10
 1810 0a57 00       		.byte	0
 1811 0a58 1A       		.uleb128 0x1a
 1812 0a59 04       		.byte	0x4
 1813 0a5a 13       		.byte	0x13
 1814 0a5b 44       		.byte	0x44
 1815 0a5c 770A0000 		.4byte	0xa77
 1816 0a60 1E       		.uleb128 0x1e
ARM GAS  /var/folders/d2/nstgp4h54kz7g1l847x_b8wc0000gn/T//cc6ckQq1.s 			page 33


 1817 0a61 84000000 		.4byte	.LASF163
 1818 0a65 13       		.byte	0x13
 1819 0a66 45       		.byte	0x45
 1820 0a67 980A0000 		.4byte	0xa98
 1821 0a6b 1E       		.uleb128 0x1e
 1822 0a6c B0070000 		.4byte	.LASF164
 1823 0a70 13       		.byte	0x13
 1824 0a71 46       		.byte	0x46
 1825 0a72 9E0A0000 		.4byte	0xa9e
 1826 0a76 00       		.byte	0
 1827 0a77 1F       		.uleb128 0x1f
 1828 0a78 AA060000 		.4byte	.LASF172
 1829 0a7c 08       		.byte	0x8
 1830 0a7d 13       		.byte	0x13
 1831 0a7e 41       		.byte	0x41
 1832 0a7f 980A0000 		.4byte	0xa98
 1833 0a83 1E       		.uleb128 0x1e
 1834 0a84 75010000 		.4byte	.LASF165
 1835 0a88 13       		.byte	0x13
 1836 0a89 42       		.byte	0x42
 1837 0a8a 20050000 		.4byte	0x520
 1838 0a8e 20       		.uleb128 0x20
 1839 0a8f 6800     		.ascii	"h\000"
 1840 0a91 13       		.byte	0x13
 1841 0a92 49       		.byte	0x49
 1842 0a93 A40A0000 		.4byte	0xaa4
 1843 0a97 00       		.byte	0
 1844 0a98 0A       		.uleb128 0xa
 1845 0a99 04       		.byte	0x4
 1846 0a9a 770A0000 		.4byte	0xa77
 1847 0a9e 0A       		.uleb128 0xa
 1848 0a9f 04       		.byte	0x4
 1849 0aa0 1C0A0000 		.4byte	0xa1c
 1850 0aa4 16       		.uleb128 0x16
 1851 0aa5 08       		.byte	0x8
 1852 0aa6 13       		.byte	0x13
 1853 0aa7 43       		.byte	0x43
 1854 0aa8 C30A0000 		.4byte	0xac3
 1855 0aac 15       		.uleb128 0x15
 1856 0aad 7500     		.ascii	"u\000"
 1857 0aaf 13       		.byte	0x13
 1858 0ab0 47       		.byte	0x47
 1859 0ab1 580A0000 		.4byte	0xa58
 1860 0ab5 00       		.byte	0
 1861 0ab6 07       		.uleb128 0x7
 1862 0ab7 F4080000 		.4byte	.LASF166
 1863 0abb 13       		.byte	0x13
 1864 0abc 48       		.byte	0x48
 1865 0abd 2C000000 		.4byte	0x2c
 1866 0ac1 04       		.byte	0x4
 1867 0ac2 00       		.byte	0
 1868 0ac3 06       		.uleb128 0x6
 1869 0ac4 79080000 		.4byte	.LASF167
 1870 0ac8 10       		.byte	0x10
 1871 0ac9 14       		.byte	0x14
 1872 0aca 3B       		.byte	0x3b
 1873 0acb 000B0000 		.4byte	0xb00
ARM GAS  /var/folders/d2/nstgp4h54kz7g1l847x_b8wc0000gn/T//cc6ckQq1.s 			page 34


 1874 0acf 07       		.uleb128 0x7
 1875 0ad0 99040000 		.4byte	.LASF168
 1876 0ad4 14       		.byte	0x14
 1877 0ad5 3C       		.byte	0x3c
 1878 0ad6 A1080000 		.4byte	0x8a1
 1879 0ada 00       		.byte	0
 1880 0adb 07       		.uleb128 0x7
 1881 0adc 07060000 		.4byte	.LASF169
 1882 0ae0 14       		.byte	0x14
 1883 0ae1 3D       		.byte	0x3d
 1884 0ae2 060B0000 		.4byte	0xb06
 1885 0ae6 04       		.byte	0x4
 1886 0ae7 07       		.uleb128 0x7
 1887 0ae8 98010000 		.4byte	.LASF170
 1888 0aec 14       		.byte	0x14
 1889 0aed 3E       		.byte	0x3e
 1890 0aee 060B0000 		.4byte	0xb06
 1891 0af2 08       		.byte	0x8
 1892 0af3 07       		.uleb128 0x7
 1893 0af4 69060000 		.4byte	.LASF171
 1894 0af8 14       		.byte	0x14
 1895 0af9 3F       		.byte	0x3f
 1896 0afa 060B0000 		.4byte	0xb06
 1897 0afe 0C       		.byte	0xc
 1898 0aff 00       		.byte	0
 1899 0b00 0F       		.uleb128 0xf
 1900 0b01 C30A0000 		.4byte	0xac3
 1901 0b05 21       		.uleb128 0x21
 1902 0b06 0A       		.uleb128 0xa
 1903 0b07 04       		.byte	0x4
 1904 0b08 050B0000 		.4byte	0xb05
 1905 0b0c 17       		.uleb128 0x17
 1906 0b0d D809     		.2byte	0x9d8
 1907 0b0f 14       		.byte	0x14
 1908 0b10 44       		.byte	0x44
 1909 0b11 510B0000 		.4byte	0xb51
 1910 0b15 15       		.uleb128 0x15
 1911 0b16 543000   		.ascii	"T0\000"
 1912 0b19 14       		.byte	0x14
 1913 0b1a 45       		.byte	0x45
 1914 0b1b 510B0000 		.4byte	0xb51
 1915 0b1f 00       		.byte	0
 1916 0b20 22       		.uleb128 0x22
 1917 0b21 543100   		.ascii	"T1\000"
 1918 0b24 14       		.byte	0x14
 1919 0b25 46       		.byte	0x46
 1920 0b26 510B0000 		.4byte	0xb51
 1921 0b2a F801     		.2byte	0x1f8
 1922 0b2c 22       		.uleb128 0x22
 1923 0b2d 543200   		.ascii	"T2\000"
 1924 0b30 14       		.byte	0x14
 1925 0b31 47       		.byte	0x47
 1926 0b32 510B0000 		.4byte	0xb51
 1927 0b36 F003     		.2byte	0x3f0
 1928 0b38 22       		.uleb128 0x22
 1929 0b39 543300   		.ascii	"T3\000"
 1930 0b3c 14       		.byte	0x14
ARM GAS  /var/folders/d2/nstgp4h54kz7g1l847x_b8wc0000gn/T//cc6ckQq1.s 			page 35


 1931 0b3d 48       		.byte	0x48
 1932 0b3e 510B0000 		.4byte	0xb51
 1933 0b42 E805     		.2byte	0x5e8
 1934 0b44 22       		.uleb128 0x22
 1935 0b45 543400   		.ascii	"T4\000"
 1936 0b48 14       		.byte	0x14
 1937 0b49 49       		.byte	0x49
 1938 0b4a 510B0000 		.4byte	0xb51
 1939 0b4e E007     		.2byte	0x7e0
 1940 0b50 00       		.byte	0
 1941 0b51 18       		.uleb128 0x18
 1942 0b52 20050000 		.4byte	0x520
 1943 0b56 610B0000 		.4byte	0xb61
 1944 0b5a 19       		.uleb128 0x19
 1945 0b5b 37000000 		.4byte	0x37
 1946 0b5f 3E       		.byte	0x3e
 1947 0b60 00       		.byte	0
 1948 0b61 23       		.uleb128 0x23
 1949 0b62 82080000 		.4byte	.LASF173
 1950 0b66 D809     		.2byte	0x9d8
 1951 0b68 14       		.byte	0x14
 1952 0b69 43       		.byte	0x43
 1953 0b6a 840B0000 		.4byte	0xb84
 1954 0b6e 20       		.uleb128 0x20
 1955 0b6f 776100   		.ascii	"wa\000"
 1956 0b72 14       		.byte	0x14
 1957 0b73 4A       		.byte	0x4a
 1958 0b74 0C0B0000 		.4byte	0xb0c
 1959 0b78 1E       		.uleb128 0x1e
 1960 0b79 5E020000 		.4byte	.LASF174
 1961 0b7d 14       		.byte	0x14
 1962 0b7e 4B       		.byte	0x4b
 1963 0b7f 840B0000 		.4byte	0xb84
 1964 0b83 00       		.byte	0
 1965 0b84 18       		.uleb128 0x18
 1966 0b85 B4000000 		.4byte	0xb4
 1967 0b89 950B0000 		.4byte	0xb95
 1968 0b8d 24       		.uleb128 0x24
 1969 0b8e 37000000 		.4byte	0x37
 1970 0b92 D709     		.2byte	0x9d7
 1971 0b94 00       		.byte	0
 1972 0b95 14       		.uleb128 0x14
 1973 0b96 34080000 		.4byte	.LASF175
 1974 0b9a 14       		.byte	0x14
 1975 0b9b 4F       		.byte	0x4f
 1976 0b9c A00B0000 		.4byte	0xba0
 1977 0ba0 04       		.uleb128 0x4
 1978 0ba1 01       		.byte	0x1
 1979 0ba2 02       		.byte	0x2
 1980 0ba3 8E060000 		.4byte	.LASF176
 1981 0ba7 18       		.uleb128 0x18
 1982 0ba8 AD020000 		.4byte	0x2ad
 1983 0bac B70B0000 		.4byte	0xbb7
 1984 0bb0 19       		.uleb128 0x19
 1985 0bb1 37000000 		.4byte	0x37
 1986 0bb5 04       		.byte	0x4
 1987 0bb6 00       		.byte	0
ARM GAS  /var/folders/d2/nstgp4h54kz7g1l847x_b8wc0000gn/T//cc6ckQq1.s 			page 36


 1988 0bb7 14       		.uleb128 0x14
 1989 0bb8 DC060000 		.4byte	.LASF177
 1990 0bbc 14       		.byte	0x14
 1991 0bbd A7       		.byte	0xa7
 1992 0bbe A70B0000 		.4byte	0xba7
 1993 0bc2 14       		.uleb128 0x14
 1994 0bc3 4D010000 		.4byte	.LASF178
 1995 0bc7 14       		.byte	0x14
 1996 0bc8 A8       		.byte	0xa8
 1997 0bc9 610B0000 		.4byte	0xb61
 1998 0bcd 18       		.uleb128 0x18
 1999 0bce 8C030000 		.4byte	0x38c
 2000 0bd2 D80B0000 		.4byte	0xbd8
 2001 0bd6 25       		.uleb128 0x25
 2002 0bd7 00       		.byte	0
 2003 0bd8 0F       		.uleb128 0xf
 2004 0bd9 CD0B0000 		.4byte	0xbcd
 2005 0bdd 26       		.uleb128 0x26
 2006 0bde 776100   		.ascii	"wa\000"
 2007 0be1 14       		.byte	0x14
 2008 0be2 A9       		.byte	0xa9
 2009 0be3 D80B0000 		.4byte	0xbd8
 2010 0be7 14       		.uleb128 0x14
 2011 0be8 E4060000 		.4byte	.LASF179
 2012 0bec 14       		.byte	0x14
 2013 0bed AA       		.byte	0xaa
 2014 0bee A00B0000 		.4byte	0xba0
 2015 0bf2 27       		.uleb128 0x27
 2016 0bf3 BE080000 		.4byte	.LASF182
 2017 0bf7 01       		.byte	0x1
 2018 0bf8 33       		.byte	0x33
 2019 0bf9 1C0A0000 		.4byte	0xa1c
 2020 0bfd 05       		.uleb128 0x5
 2021 0bfe 03       		.byte	0x3
 2022 0bff 00000000 		.4byte	test_heap
 2023 0c03 28       		.uleb128 0x28
 2024 0c04 49050000 		.4byte	.LASF180
 2025 0c08 01       		.byte	0x1
 2026 0c09 8E       		.byte	0x8e
 2027 0c0a 000B0000 		.4byte	0xb00
 2028 0c0e 05       		.uleb128 0x5
 2029 0c0f 03       		.byte	0x3
 2030 0c10 00000000 		.4byte	testheap1
 2031 0c14 18       		.uleb128 0x18
 2032 0c15 2F0C0000 		.4byte	0xc2f
 2033 0c19 240C0000 		.4byte	0xc24
 2034 0c1d 19       		.uleb128 0x19
 2035 0c1e 37000000 		.4byte	0x37
 2036 0c22 01       		.byte	0x1
 2037 0c23 00       		.byte	0
 2038 0c24 0F       		.uleb128 0xf
 2039 0c25 140C0000 		.4byte	0xc14
 2040 0c29 0A       		.uleb128 0xa
 2041 0c2a 04       		.byte	0x4
 2042 0c2b 000B0000 		.4byte	0xb00
 2043 0c2f 0F       		.uleb128 0xf
 2044 0c30 290C0000 		.4byte	0xc29
ARM GAS  /var/folders/d2/nstgp4h54kz7g1l847x_b8wc0000gn/T//cc6ckQq1.s 			page 37


 2045 0c34 28       		.uleb128 0x28
 2046 0c35 A1010000 		.4byte	.LASF181
 2047 0c39 01       		.byte	0x1
 2048 0c3a 9A       		.byte	0x9a
 2049 0c3b 240C0000 		.4byte	0xc24
 2050 0c3f 05       		.uleb128 0x5
 2051 0c40 03       		.byte	0x3
 2052 0c41 00000000 		.4byte	patternheap
 2053 0c45 29       		.uleb128 0x29
 2054 0c46 B4020000 		.4byte	.LASF183
 2055 0c4a 01       		.byte	0x1
 2056 0c4b 45       		.byte	0x45
 2057 0c4c 00000000 		.4byte	.LFB220
 2058 0c50 60020000 		.4byte	.LFE220-.LFB220
 2059 0c54 01       		.uleb128 0x1
 2060 0c55 9C       		.byte	0x9c
 2061 0c56 BE110000 		.4byte	0x11be
 2062 0c5a 2A       		.uleb128 0x2a
 2063 0c5b 703100   		.ascii	"p1\000"
 2064 0c5e 01       		.byte	0x1
 2065 0c5f 46       		.byte	0x46
 2066 0c60 8A030000 		.4byte	0x38a
 2067 0c64 00000000 		.4byte	.LLST0
 2068 0c68 2A       		.uleb128 0x2a
 2069 0c69 703200   		.ascii	"p2\000"
 2070 0c6c 01       		.byte	0x1
 2071 0c6d 46       		.byte	0x46
 2072 0c6e 8A030000 		.4byte	0x38a
 2073 0c72 C3000000 		.4byte	.LLST1
 2074 0c76 2A       		.uleb128 0x2a
 2075 0c77 703300   		.ascii	"p3\000"
 2076 0c7a 01       		.byte	0x1
 2077 0c7b 46       		.byte	0x46
 2078 0c7c 8A030000 		.4byte	0x38a
 2079 0c80 2E010000 		.4byte	.LLST2
 2080 0c84 2B       		.uleb128 0x2b
 2081 0c85 6E00     		.ascii	"n\000"
 2082 0c87 01       		.byte	0x1
 2083 0c88 47       		.byte	0x47
 2084 0c89 2C000000 		.4byte	0x2c
 2085 0c8d 02       		.uleb128 0x2
 2086 0c8e 91       		.byte	0x91
 2087 0c8f 5C       		.sleb128 -36
 2088 0c90 2B       		.uleb128 0x2b
 2089 0c91 737A00   		.ascii	"sz\000"
 2090 0c94 01       		.byte	0x1
 2091 0c95 47       		.byte	0x47
 2092 0c96 2C000000 		.4byte	0x2c
 2093 0c9a 02       		.uleb128 0x2
 2094 0c9b 91       		.byte	0x91
 2095 0c9c 60       		.sleb128 -32
 2096 0c9d 2C       		.uleb128 0x2c
 2097 0c9e 0E000000 		.4byte	.LVL0
 2098 0ca2 FB110000 		.4byte	0x11fb
 2099 0ca6 2D       		.uleb128 0x2d
 2100 0ca7 16000000 		.4byte	.LVL1
 2101 0cab 06120000 		.4byte	0x1206
ARM GAS  /var/folders/d2/nstgp4h54kz7g1l847x_b8wc0000gn/T//cc6ckQq1.s 			page 38


 2102 0caf BF0C0000 		.4byte	0xcbf
 2103 0cb3 2E       		.uleb128 0x2e
 2104 0cb4 01       		.uleb128 0x1
 2105 0cb5 50       		.byte	0x50
 2106 0cb6 01       		.uleb128 0x1
 2107 0cb7 30       		.byte	0x30
 2108 0cb8 2E       		.uleb128 0x2e
 2109 0cb9 01       		.uleb128 0x1
 2110 0cba 51       		.byte	0x51
 2111 0cbb 02       		.uleb128 0x2
 2112 0cbc 91       		.byte	0x91
 2113 0cbd 60       		.sleb128 -32
 2114 0cbe 00       		.byte	0
 2115 0cbf 2D       		.uleb128 0x2d
 2116 0cc0 1E000000 		.4byte	.LVL2
 2117 0cc4 11120000 		.4byte	0x1211
 2118 0cc8 D70C0000 		.4byte	0xcd7
 2119 0ccc 2E       		.uleb128 0x2e
 2120 0ccd 01       		.uleb128 0x1
 2121 0cce 50       		.byte	0x50
 2122 0ccf 01       		.uleb128 0x1
 2123 0cd0 30       		.byte	0x30
 2124 0cd1 2E       		.uleb128 0x2e
 2125 0cd2 01       		.uleb128 0x1
 2126 0cd3 51       		.byte	0x51
 2127 0cd4 01       		.uleb128 0x1
 2128 0cd5 40       		.byte	0x40
 2129 0cd6 00       		.byte	0
 2130 0cd7 2D       		.uleb128 0x2d
 2131 0cd8 2C000000 		.4byte	.LVL4
 2132 0cdc 1C120000 		.4byte	0x121c
 2133 0ce0 FA0C0000 		.4byte	0xcfa
 2134 0ce4 2E       		.uleb128 0x2e
 2135 0ce5 01       		.uleb128 0x1
 2136 0ce6 50       		.byte	0x50
 2137 0ce7 01       		.uleb128 0x1
 2138 0ce8 31       		.byte	0x31
 2139 0ce9 2E       		.uleb128 0x2e
 2140 0cea 01       		.uleb128 0x1
 2141 0ceb 51       		.byte	0x51
 2142 0cec 0C       		.uleb128 0xc
 2143 0ced 31       		.byte	0x31
 2144 0cee 76       		.byte	0x76
 2145 0cef 00       		.sleb128 0
 2146 0cf0 76       		.byte	0x76
 2147 0cf1 00       		.sleb128 0
 2148 0cf2 30       		.byte	0x30
 2149 0cf3 2E       		.byte	0x2e
 2150 0cf4 28       		.byte	0x28
 2151 0cf5 0100     		.2byte	0x1
 2152 0cf7 16       		.byte	0x16
 2153 0cf8 13       		.byte	0x13
 2154 0cf9 00       		.byte	0
 2155 0cfa 2D       		.uleb128 0x2d
 2156 0cfb 44000000 		.4byte	.LVL7
 2157 0cff 27120000 		.4byte	0x1227
 2158 0d03 0E0D0000 		.4byte	0xd0e
ARM GAS  /var/folders/d2/nstgp4h54kz7g1l847x_b8wc0000gn/T//cc6ckQq1.s 			page 39


 2159 0d07 2E       		.uleb128 0x2e
 2160 0d08 01       		.uleb128 0x1
 2161 0d09 50       		.byte	0x50
 2162 0d0a 02       		.uleb128 0x2
 2163 0d0b 76       		.byte	0x76
 2164 0d0c 00       		.sleb128 0
 2165 0d0d 00       		.byte	0
 2166 0d0e 2D       		.uleb128 0x2d
 2167 0d0f 4E000000 		.4byte	.LVL8
 2168 0d13 11120000 		.4byte	0x1211
 2169 0d17 290D0000 		.4byte	0xd29
 2170 0d1b 2E       		.uleb128 0x2e
 2171 0d1c 01       		.uleb128 0x1
 2172 0d1d 50       		.byte	0x50
 2173 0d1e 02       		.uleb128 0x2
 2174 0d1f 75       		.byte	0x75
 2175 0d20 00       		.sleb128 0
 2176 0d21 2E       		.uleb128 0x2e
 2177 0d22 01       		.uleb128 0x1
 2178 0d23 51       		.byte	0x51
 2179 0d24 03       		.uleb128 0x3
 2180 0d25 0B       		.byte	0xb
 2181 0d26 00FF     		.2byte	0xff00
 2182 0d28 00       		.byte	0
 2183 0d29 2D       		.uleb128 0x2d
 2184 0d2a 5A000000 		.4byte	.LVL10
 2185 0d2e 1C120000 		.4byte	0x121c
 2186 0d32 3C0D0000 		.4byte	0xd3c
 2187 0d36 2E       		.uleb128 0x2e
 2188 0d37 01       		.uleb128 0x1
 2189 0d38 50       		.byte	0x50
 2190 0d39 01       		.uleb128 0x1
 2191 0d3a 32       		.byte	0x32
 2192 0d3b 00       		.byte	0
 2193 0d3c 2D       		.uleb128 0x2d
 2194 0d3d 66000000 		.4byte	.LVL11
 2195 0d41 06120000 		.4byte	0x1206
 2196 0d45 590D0000 		.4byte	0xd59
 2197 0d49 2E       		.uleb128 0x2e
 2198 0d4a 01       		.uleb128 0x1
 2199 0d4b 50       		.byte	0x50
 2200 0d4c 05       		.uleb128 0x5
 2201 0d4d 03       		.byte	0x3
 2202 0d4e 00000000 		.4byte	.LANCHOR0
 2203 0d52 2E       		.uleb128 0x2e
 2204 0d53 01       		.uleb128 0x1
 2205 0d54 51       		.byte	0x51
 2206 0d55 02       		.uleb128 0x2
 2207 0d56 91       		.byte	0x91
 2208 0d57 60       		.sleb128 -32
 2209 0d58 00       		.byte	0
 2210 0d59 2D       		.uleb128 0x2d
 2211 0d5a 6E000000 		.4byte	.LVL12
 2212 0d5e 11120000 		.4byte	0x1211
 2213 0d62 750D0000 		.4byte	0xd75
 2214 0d66 2E       		.uleb128 0x2e
 2215 0d67 01       		.uleb128 0x1
ARM GAS  /var/folders/d2/nstgp4h54kz7g1l847x_b8wc0000gn/T//cc6ckQq1.s 			page 40


 2216 0d68 50       		.byte	0x50
 2217 0d69 05       		.uleb128 0x5
 2218 0d6a 03       		.byte	0x3
 2219 0d6b 00000000 		.4byte	.LANCHOR0
 2220 0d6f 2E       		.uleb128 0x2e
 2221 0d70 01       		.uleb128 0x1
 2222 0d71 51       		.byte	0x51
 2223 0d72 01       		.uleb128 0x1
 2224 0d73 40       		.byte	0x40
 2225 0d74 00       		.byte	0
 2226 0d75 2D       		.uleb128 0x2d
 2227 0d76 78000000 		.4byte	.LVL15
 2228 0d7a 11120000 		.4byte	0x1211
 2229 0d7e 910D0000 		.4byte	0xd91
 2230 0d82 2E       		.uleb128 0x2e
 2231 0d83 01       		.uleb128 0x1
 2232 0d84 50       		.byte	0x50
 2233 0d85 05       		.uleb128 0x5
 2234 0d86 03       		.byte	0x3
 2235 0d87 00000000 		.4byte	.LANCHOR0
 2236 0d8b 2E       		.uleb128 0x2e
 2237 0d8c 01       		.uleb128 0x1
 2238 0d8d 51       		.byte	0x51
 2239 0d8e 01       		.uleb128 0x1
 2240 0d8f 40       		.byte	0x40
 2241 0d90 00       		.byte	0
 2242 0d91 2D       		.uleb128 0x2d
 2243 0d92 82000000 		.4byte	.LVL18
 2244 0d96 11120000 		.4byte	0x1211
 2245 0d9a AD0D0000 		.4byte	0xdad
 2246 0d9e 2E       		.uleb128 0x2e
 2247 0d9f 01       		.uleb128 0x1
 2248 0da0 50       		.byte	0x50
 2249 0da1 05       		.uleb128 0x5
 2250 0da2 03       		.byte	0x3
 2251 0da3 00000000 		.4byte	.LANCHOR0
 2252 0da7 2E       		.uleb128 0x2e
 2253 0da8 01       		.uleb128 0x1
 2254 0da9 51       		.byte	0x51
 2255 0daa 01       		.uleb128 0x1
 2256 0dab 40       		.byte	0x40
 2257 0dac 00       		.byte	0
 2258 0dad 2D       		.uleb128 0x2d
 2259 0dae 8A000000 		.4byte	.LVL21
 2260 0db2 27120000 		.4byte	0x1227
 2261 0db6 C10D0000 		.4byte	0xdc1
 2262 0dba 2E       		.uleb128 0x2e
 2263 0dbb 01       		.uleb128 0x1
 2264 0dbc 50       		.byte	0x50
 2265 0dbd 02       		.uleb128 0x2
 2266 0dbe 77       		.byte	0x77
 2267 0dbf 00       		.sleb128 0
 2268 0dc0 00       		.byte	0
 2269 0dc1 2D       		.uleb128 0x2d
 2270 0dc2 90000000 		.4byte	.LVL22
 2271 0dc6 27120000 		.4byte	0x1227
 2272 0dca D50D0000 		.4byte	0xdd5
ARM GAS  /var/folders/d2/nstgp4h54kz7g1l847x_b8wc0000gn/T//cc6ckQq1.s 			page 41


 2273 0dce 2E       		.uleb128 0x2e
 2274 0dcf 01       		.uleb128 0x1
 2275 0dd0 50       		.byte	0x50
 2276 0dd1 02       		.uleb128 0x2
 2277 0dd2 76       		.byte	0x76
 2278 0dd3 00       		.sleb128 0
 2279 0dd4 00       		.byte	0
 2280 0dd5 2D       		.uleb128 0x2d
 2281 0dd6 96000000 		.4byte	.LVL23
 2282 0dda 27120000 		.4byte	0x1227
 2283 0dde E90D0000 		.4byte	0xde9
 2284 0de2 2E       		.uleb128 0x2e
 2285 0de3 01       		.uleb128 0x1
 2286 0de4 50       		.byte	0x50
 2287 0de5 02       		.uleb128 0x2
 2288 0de6 75       		.byte	0x75
 2289 0de7 00       		.sleb128 0
 2290 0de8 00       		.byte	0
 2291 0de9 2D       		.uleb128 0x2d
 2292 0dea 9E000000 		.4byte	.LVL24
 2293 0dee 06120000 		.4byte	0x1206
 2294 0df2 060E0000 		.4byte	0xe06
 2295 0df6 2E       		.uleb128 0x2e
 2296 0df7 01       		.uleb128 0x1
 2297 0df8 50       		.byte	0x50
 2298 0df9 05       		.uleb128 0x5
 2299 0dfa 03       		.byte	0x3
 2300 0dfb 00000000 		.4byte	.LANCHOR0
 2301 0dff 2E       		.uleb128 0x2e
 2302 0e00 01       		.uleb128 0x1
 2303 0e01 51       		.byte	0x51
 2304 0e02 02       		.uleb128 0x2
 2305 0e03 91       		.byte	0x91
 2306 0e04 5C       		.sleb128 -36
 2307 0e05 00       		.byte	0
 2308 0e06 2D       		.uleb128 0x2d
 2309 0e07 AE000000 		.4byte	.LVL25
 2310 0e0b 1C120000 		.4byte	0x121c
 2311 0e0f 190E0000 		.4byte	0xe19
 2312 0e13 2E       		.uleb128 0x2e
 2313 0e14 01       		.uleb128 0x1
 2314 0e15 50       		.byte	0x50
 2315 0e16 01       		.uleb128 0x1
 2316 0e17 33       		.byte	0x33
 2317 0e18 00       		.byte	0
 2318 0e19 2D       		.uleb128 0x2d
 2319 0e1a BA000000 		.4byte	.LVL26
 2320 0e1e 11120000 		.4byte	0x1211
 2321 0e22 350E0000 		.4byte	0xe35
 2322 0e26 2E       		.uleb128 0x2e
 2323 0e27 01       		.uleb128 0x1
 2324 0e28 50       		.byte	0x50
 2325 0e29 05       		.uleb128 0x5
 2326 0e2a 03       		.byte	0x3
 2327 0e2b 00000000 		.4byte	.LANCHOR0
 2328 0e2f 2E       		.uleb128 0x2e
 2329 0e30 01       		.uleb128 0x1
ARM GAS  /var/folders/d2/nstgp4h54kz7g1l847x_b8wc0000gn/T//cc6ckQq1.s 			page 42


 2330 0e31 51       		.byte	0x51
 2331 0e32 01       		.uleb128 0x1
 2332 0e33 40       		.byte	0x40
 2333 0e34 00       		.byte	0
 2334 0e35 2D       		.uleb128 0x2d
 2335 0e36 C4000000 		.4byte	.LVL29
 2336 0e3a 11120000 		.4byte	0x1211
 2337 0e3e 510E0000 		.4byte	0xe51
 2338 0e42 2E       		.uleb128 0x2e
 2339 0e43 01       		.uleb128 0x1
 2340 0e44 50       		.byte	0x50
 2341 0e45 05       		.uleb128 0x5
 2342 0e46 03       		.byte	0x3
 2343 0e47 00000000 		.4byte	.LANCHOR0
 2344 0e4b 2E       		.uleb128 0x2e
 2345 0e4c 01       		.uleb128 0x1
 2346 0e4d 51       		.byte	0x51
 2347 0e4e 01       		.uleb128 0x1
 2348 0e4f 40       		.byte	0x40
 2349 0e50 00       		.byte	0
 2350 0e51 2D       		.uleb128 0x2d
 2351 0e52 CE000000 		.4byte	.LVL32
 2352 0e56 11120000 		.4byte	0x1211
 2353 0e5a 6D0E0000 		.4byte	0xe6d
 2354 0e5e 2E       		.uleb128 0x2e
 2355 0e5f 01       		.uleb128 0x1
 2356 0e60 50       		.byte	0x50
 2357 0e61 05       		.uleb128 0x5
 2358 0e62 03       		.byte	0x3
 2359 0e63 00000000 		.4byte	.LANCHOR0
 2360 0e67 2E       		.uleb128 0x2e
 2361 0e68 01       		.uleb128 0x1
 2362 0e69 51       		.byte	0x51
 2363 0e6a 01       		.uleb128 0x1
 2364 0e6b 40       		.byte	0x40
 2365 0e6c 00       		.byte	0
 2366 0e6d 2C       		.uleb128 0x2c
 2367 0e6e D2000000 		.4byte	.LVL33
 2368 0e72 27120000 		.4byte	0x1227
 2369 0e76 2D       		.uleb128 0x2d
 2370 0e77 D8000000 		.4byte	.LVL34
 2371 0e7b 27120000 		.4byte	0x1227
 2372 0e7f 8A0E0000 		.4byte	0xe8a
 2373 0e83 2E       		.uleb128 0x2e
 2374 0e84 01       		.uleb128 0x1
 2375 0e85 50       		.byte	0x50
 2376 0e86 02       		.uleb128 0x2
 2377 0e87 76       		.byte	0x76
 2378 0e88 00       		.sleb128 0
 2379 0e89 00       		.byte	0
 2380 0e8a 2D       		.uleb128 0x2d
 2381 0e8b DE000000 		.4byte	.LVL35
 2382 0e8f 27120000 		.4byte	0x1227
 2383 0e93 9E0E0000 		.4byte	0xe9e
 2384 0e97 2E       		.uleb128 0x2e
 2385 0e98 01       		.uleb128 0x1
 2386 0e99 50       		.byte	0x50
ARM GAS  /var/folders/d2/nstgp4h54kz7g1l847x_b8wc0000gn/T//cc6ckQq1.s 			page 43


 2387 0e9a 02       		.uleb128 0x2
 2388 0e9b 75       		.byte	0x75
 2389 0e9c 00       		.sleb128 0
 2390 0e9d 00       		.byte	0
 2391 0e9e 2D       		.uleb128 0x2d
 2392 0e9f E6000000 		.4byte	.LVL36
 2393 0ea3 06120000 		.4byte	0x1206
 2394 0ea7 BB0E0000 		.4byte	0xebb
 2395 0eab 2E       		.uleb128 0x2e
 2396 0eac 01       		.uleb128 0x1
 2397 0ead 50       		.byte	0x50
 2398 0eae 05       		.uleb128 0x5
 2399 0eaf 03       		.byte	0x3
 2400 0eb0 00000000 		.4byte	.LANCHOR0
 2401 0eb4 2E       		.uleb128 0x2e
 2402 0eb5 01       		.uleb128 0x1
 2403 0eb6 51       		.byte	0x51
 2404 0eb7 02       		.uleb128 0x2
 2405 0eb8 91       		.byte	0x91
 2406 0eb9 5C       		.sleb128 -36
 2407 0eba 00       		.byte	0
 2408 0ebb 2D       		.uleb128 0x2d
 2409 0ebc F6000000 		.4byte	.LVL37
 2410 0ec0 1C120000 		.4byte	0x121c
 2411 0ec4 CE0E0000 		.4byte	0xece
 2412 0ec8 2E       		.uleb128 0x2e
 2413 0ec9 01       		.uleb128 0x1
 2414 0eca 50       		.byte	0x50
 2415 0ecb 01       		.uleb128 0x1
 2416 0ecc 34       		.byte	0x34
 2417 0ecd 00       		.byte	0
 2418 0ece 2D       		.uleb128 0x2d
 2419 0ecf 02010000 		.4byte	.LVL38
 2420 0ed3 11120000 		.4byte	0x1211
 2421 0ed7 EA0E0000 		.4byte	0xeea
 2422 0edb 2E       		.uleb128 0x2e
 2423 0edc 01       		.uleb128 0x1
 2424 0edd 50       		.byte	0x50
 2425 0ede 05       		.uleb128 0x5
 2426 0edf 03       		.byte	0x3
 2427 0ee0 00000000 		.4byte	.LANCHOR0
 2428 0ee4 2E       		.uleb128 0x2e
 2429 0ee5 01       		.uleb128 0x1
 2430 0ee6 51       		.byte	0x51
 2431 0ee7 01       		.uleb128 0x1
 2432 0ee8 41       		.byte	0x41
 2433 0ee9 00       		.byte	0
 2434 0eea 2D       		.uleb128 0x2d
 2435 0eeb 0C010000 		.4byte	.LVL41
 2436 0eef 11120000 		.4byte	0x1211
 2437 0ef3 060F0000 		.4byte	0xf06
 2438 0ef7 2E       		.uleb128 0x2e
 2439 0ef8 01       		.uleb128 0x1
 2440 0ef9 50       		.byte	0x50
 2441 0efa 05       		.uleb128 0x5
 2442 0efb 03       		.byte	0x3
 2443 0efc 00000000 		.4byte	.LANCHOR0
ARM GAS  /var/folders/d2/nstgp4h54kz7g1l847x_b8wc0000gn/T//cc6ckQq1.s 			page 44


 2444 0f00 2E       		.uleb128 0x2e
 2445 0f01 01       		.uleb128 0x1
 2446 0f02 51       		.byte	0x51
 2447 0f03 01       		.uleb128 0x1
 2448 0f04 40       		.byte	0x40
 2449 0f05 00       		.byte	0
 2450 0f06 2D       		.uleb128 0x2d
 2451 0f07 14010000 		.4byte	.LVL44
 2452 0f0b 27120000 		.4byte	0x1227
 2453 0f0f 1A0F0000 		.4byte	0xf1a
 2454 0f13 2E       		.uleb128 0x2e
 2455 0f14 01       		.uleb128 0x1
 2456 0f15 50       		.byte	0x50
 2457 0f16 02       		.uleb128 0x2
 2458 0f17 75       		.byte	0x75
 2459 0f18 00       		.sleb128 0
 2460 0f19 00       		.byte	0
 2461 0f1a 2D       		.uleb128 0x2d
 2462 0f1b 1C010000 		.4byte	.LVL45
 2463 0f1f 06120000 		.4byte	0x1206
 2464 0f23 370F0000 		.4byte	0xf37
 2465 0f27 2E       		.uleb128 0x2e
 2466 0f28 01       		.uleb128 0x1
 2467 0f29 50       		.byte	0x50
 2468 0f2a 05       		.uleb128 0x5
 2469 0f2b 03       		.byte	0x3
 2470 0f2c 00000000 		.4byte	.LANCHOR0
 2471 0f30 2E       		.uleb128 0x2e
 2472 0f31 01       		.uleb128 0x1
 2473 0f32 51       		.byte	0x51
 2474 0f33 02       		.uleb128 0x2
 2475 0f34 91       		.byte	0x91
 2476 0f35 5C       		.sleb128 -36
 2477 0f36 00       		.byte	0
 2478 0f37 2D       		.uleb128 0x2d
 2479 0f38 2C010000 		.4byte	.LVL46
 2480 0f3c 1C120000 		.4byte	0x121c
 2481 0f40 4A0F0000 		.4byte	0xf4a
 2482 0f44 2E       		.uleb128 0x2e
 2483 0f45 01       		.uleb128 0x1
 2484 0f46 50       		.byte	0x50
 2485 0f47 01       		.uleb128 0x1
 2486 0f48 35       		.byte	0x35
 2487 0f49 00       		.byte	0
 2488 0f4a 2D       		.uleb128 0x2d
 2489 0f4b 3A010000 		.4byte	.LVL47
 2490 0f4f 11120000 		.4byte	0x1211
 2491 0f53 660F0000 		.4byte	0xf66
 2492 0f57 2E       		.uleb128 0x2e
 2493 0f58 01       		.uleb128 0x1
 2494 0f59 50       		.byte	0x50
 2495 0f5a 05       		.uleb128 0x5
 2496 0f5b 03       		.byte	0x3
 2497 0f5c 00000000 		.4byte	.LANCHOR0
 2498 0f60 2E       		.uleb128 0x2e
 2499 0f61 01       		.uleb128 0x1
 2500 0f62 51       		.byte	0x51
ARM GAS  /var/folders/d2/nstgp4h54kz7g1l847x_b8wc0000gn/T//cc6ckQq1.s 			page 45


 2501 0f63 01       		.uleb128 0x1
 2502 0f64 40       		.byte	0x40
 2503 0f65 00       		.byte	0
 2504 0f66 2D       		.uleb128 0x2d
 2505 0f67 44010000 		.4byte	.LVL50
 2506 0f6b 06120000 		.4byte	0x1206
 2507 0f6f 830F0000 		.4byte	0xf83
 2508 0f73 2E       		.uleb128 0x2e
 2509 0f74 01       		.uleb128 0x1
 2510 0f75 50       		.byte	0x50
 2511 0f76 05       		.uleb128 0x5
 2512 0f77 03       		.byte	0x3
 2513 0f78 00000000 		.4byte	.LANCHOR0
 2514 0f7c 2E       		.uleb128 0x2e
 2515 0f7d 01       		.uleb128 0x1
 2516 0f7e 51       		.byte	0x51
 2517 0f7f 02       		.uleb128 0x2
 2518 0f80 91       		.byte	0x91
 2519 0f81 5C       		.sleb128 -36
 2520 0f82 00       		.byte	0
 2521 0f83 2D       		.uleb128 0x2d
 2522 0f84 52010000 		.4byte	.LVL51
 2523 0f88 06120000 		.4byte	0x1206
 2524 0f8c A00F0000 		.4byte	0xfa0
 2525 0f90 2E       		.uleb128 0x2e
 2526 0f91 01       		.uleb128 0x1
 2527 0f92 50       		.byte	0x50
 2528 0f93 05       		.uleb128 0x5
 2529 0f94 03       		.byte	0x3
 2530 0f95 00000000 		.4byte	.LANCHOR0
 2531 0f99 2E       		.uleb128 0x2e
 2532 0f9a 01       		.uleb128 0x1
 2533 0f9b 51       		.byte	0x51
 2534 0f9c 02       		.uleb128 0x2
 2535 0f9d 91       		.byte	0x91
 2536 0f9e 5C       		.sleb128 -36
 2537 0f9f 00       		.byte	0
 2538 0fa0 2D       		.uleb128 0x2d
 2539 0fa1 62010000 		.4byte	.LVL52
 2540 0fa5 1C120000 		.4byte	0x121c
 2541 0fa9 B30F0000 		.4byte	0xfb3
 2542 0fad 2E       		.uleb128 0x2e
 2543 0fae 01       		.uleb128 0x1
 2544 0faf 50       		.byte	0x50
 2545 0fb0 01       		.uleb128 0x1
 2546 0fb1 36       		.byte	0x36
 2547 0fb2 00       		.byte	0
 2548 0fb3 2D       		.uleb128 0x2d
 2549 0fb4 6E010000 		.4byte	.LVL53
 2550 0fb8 27120000 		.4byte	0x1227
 2551 0fbc C70F0000 		.4byte	0xfc7
 2552 0fc0 2E       		.uleb128 0x2e
 2553 0fc1 01       		.uleb128 0x1
 2554 0fc2 50       		.byte	0x50
 2555 0fc3 02       		.uleb128 0x2
 2556 0fc4 76       		.byte	0x76
 2557 0fc5 00       		.sleb128 0
ARM GAS  /var/folders/d2/nstgp4h54kz7g1l847x_b8wc0000gn/T//cc6ckQq1.s 			page 46


 2558 0fc6 00       		.byte	0
 2559 0fc7 2D       		.uleb128 0x2d
 2560 0fc8 74010000 		.4byte	.LVL54
 2561 0fcc 27120000 		.4byte	0x1227
 2562 0fd0 DB0F0000 		.4byte	0xfdb
 2563 0fd4 2E       		.uleb128 0x2e
 2564 0fd5 01       		.uleb128 0x1
 2565 0fd6 50       		.byte	0x50
 2566 0fd7 02       		.uleb128 0x2
 2567 0fd8 75       		.byte	0x75
 2568 0fd9 00       		.sleb128 0
 2569 0fda 00       		.byte	0
 2570 0fdb 2D       		.uleb128 0x2d
 2571 0fdc 7C010000 		.4byte	.LVL55
 2572 0fe0 06120000 		.4byte	0x1206
 2573 0fe4 F80F0000 		.4byte	0xff8
 2574 0fe8 2E       		.uleb128 0x2e
 2575 0fe9 01       		.uleb128 0x1
 2576 0fea 50       		.byte	0x50
 2577 0feb 05       		.uleb128 0x5
 2578 0fec 03       		.byte	0x3
 2579 0fed 00000000 		.4byte	.LANCHOR0
 2580 0ff1 2E       		.uleb128 0x2e
 2581 0ff2 01       		.uleb128 0x1
 2582 0ff3 51       		.byte	0x51
 2583 0ff4 02       		.uleb128 0x2
 2584 0ff5 91       		.byte	0x91
 2585 0ff6 5C       		.sleb128 -36
 2586 0ff7 00       		.byte	0
 2587 0ff8 2D       		.uleb128 0x2d
 2588 0ff9 8C010000 		.4byte	.LVL56
 2589 0ffd 1C120000 		.4byte	0x121c
 2590 1001 0B100000 		.4byte	0x100b
 2591 1005 2E       		.uleb128 0x2e
 2592 1006 01       		.uleb128 0x1
 2593 1007 50       		.byte	0x50
 2594 1008 01       		.uleb128 0x1
 2595 1009 37       		.byte	0x37
 2596 100a 00       		.byte	0
 2597 100b 2D       		.uleb128 0x2d
 2598 100c 9A010000 		.4byte	.LVL57
 2599 1010 11120000 		.4byte	0x1211
 2600 1014 27100000 		.4byte	0x1027
 2601 1018 2E       		.uleb128 0x2e
 2602 1019 01       		.uleb128 0x1
 2603 101a 50       		.byte	0x50
 2604 101b 05       		.uleb128 0x5
 2605 101c 03       		.byte	0x3
 2606 101d 00000000 		.4byte	.LANCHOR0
 2607 1021 2E       		.uleb128 0x2e
 2608 1022 01       		.uleb128 0x1
 2609 1023 51       		.byte	0x51
 2610 1024 01       		.uleb128 0x1
 2611 1025 40       		.byte	0x40
 2612 1026 00       		.byte	0
 2613 1027 2D       		.uleb128 0x2d
 2614 1028 A4010000 		.4byte	.LVL60
ARM GAS  /var/folders/d2/nstgp4h54kz7g1l847x_b8wc0000gn/T//cc6ckQq1.s 			page 47


 2615 102c 11120000 		.4byte	0x1211
 2616 1030 43100000 		.4byte	0x1043
 2617 1034 2E       		.uleb128 0x2e
 2618 1035 01       		.uleb128 0x1
 2619 1036 50       		.byte	0x50
 2620 1037 05       		.uleb128 0x5
 2621 1038 03       		.byte	0x3
 2622 1039 00000000 		.4byte	.LANCHOR0
 2623 103d 2E       		.uleb128 0x2e
 2624 103e 01       		.uleb128 0x1
 2625 103f 51       		.byte	0x51
 2626 1040 01       		.uleb128 0x1
 2627 1041 40       		.byte	0x40
 2628 1042 00       		.byte	0
 2629 1043 2D       		.uleb128 0x2d
 2630 1044 AC010000 		.4byte	.LVL63
 2631 1048 27120000 		.4byte	0x1227
 2632 104c 57100000 		.4byte	0x1057
 2633 1050 2E       		.uleb128 0x2e
 2634 1051 01       		.uleb128 0x1
 2635 1052 50       		.byte	0x50
 2636 1053 02       		.uleb128 0x2
 2637 1054 76       		.byte	0x76
 2638 1055 00       		.sleb128 0
 2639 1056 00       		.byte	0
 2640 1057 2D       		.uleb128 0x2d
 2641 1058 B4010000 		.4byte	.LVL64
 2642 105c 06120000 		.4byte	0x1206
 2643 1060 74100000 		.4byte	0x1074
 2644 1064 2E       		.uleb128 0x2e
 2645 1065 01       		.uleb128 0x1
 2646 1066 50       		.byte	0x50
 2647 1067 05       		.uleb128 0x5
 2648 1068 03       		.byte	0x3
 2649 1069 00000000 		.4byte	.LANCHOR0
 2650 106d 2E       		.uleb128 0x2e
 2651 106e 01       		.uleb128 0x1
 2652 106f 51       		.byte	0x51
 2653 1070 02       		.uleb128 0x2
 2654 1071 91       		.byte	0x91
 2655 1072 5C       		.sleb128 -36
 2656 1073 00       		.byte	0
 2657 1074 2D       		.uleb128 0x2d
 2658 1075 C0010000 		.4byte	.LVL66
 2659 1079 1C120000 		.4byte	0x121c
 2660 107d 8F100000 		.4byte	0x108f
 2661 1081 2E       		.uleb128 0x2e
 2662 1082 01       		.uleb128 0x1
 2663 1083 50       		.byte	0x50
 2664 1084 01       		.uleb128 0x1
 2665 1085 38       		.byte	0x38
 2666 1086 2E       		.uleb128 0x2e
 2667 1087 01       		.uleb128 0x1
 2668 1088 51       		.byte	0x51
 2669 1089 04       		.uleb128 0x4
 2670 108a 76       		.byte	0x76
 2671 108b 00       		.sleb128 0
ARM GAS  /var/folders/d2/nstgp4h54kz7g1l847x_b8wc0000gn/T//cc6ckQq1.s 			page 48


 2672 108c 30       		.byte	0x30
 2673 108d 29       		.byte	0x29
 2674 108e 00       		.byte	0
 2675 108f 2D       		.uleb128 0x2d
 2676 1090 CE010000 		.4byte	.LVL67
 2677 1094 11120000 		.4byte	0x1211
 2678 1098 AC100000 		.4byte	0x10ac
 2679 109c 2E       		.uleb128 0x2e
 2680 109d 01       		.uleb128 0x1
 2681 109e 50       		.byte	0x50
 2682 109f 05       		.uleb128 0x5
 2683 10a0 03       		.byte	0x3
 2684 10a1 00000000 		.4byte	.LANCHOR0
 2685 10a5 2E       		.uleb128 0x2e
 2686 10a6 01       		.uleb128 0x1
 2687 10a7 51       		.byte	0x51
 2688 10a8 02       		.uleb128 0x2
 2689 10a9 08       		.byte	0x8
 2690 10aa 20       		.byte	0x20
 2691 10ab 00       		.byte	0
 2692 10ac 2C       		.uleb128 0x2c
 2693 10ad D2010000 		.4byte	.LVL68
 2694 10b1 27120000 		.4byte	0x1227
 2695 10b5 2D       		.uleb128 0x2d
 2696 10b6 D8010000 		.4byte	.LVL69
 2697 10ba 27120000 		.4byte	0x1227
 2698 10be C9100000 		.4byte	0x10c9
 2699 10c2 2E       		.uleb128 0x2e
 2700 10c3 01       		.uleb128 0x1
 2701 10c4 50       		.byte	0x50
 2702 10c5 02       		.uleb128 0x2
 2703 10c6 75       		.byte	0x75
 2704 10c7 00       		.sleb128 0
 2705 10c8 00       		.byte	0
 2706 10c9 2D       		.uleb128 0x2d
 2707 10ca E0010000 		.4byte	.LVL70
 2708 10ce 06120000 		.4byte	0x1206
 2709 10d2 E6100000 		.4byte	0x10e6
 2710 10d6 2E       		.uleb128 0x2e
 2711 10d7 01       		.uleb128 0x1
 2712 10d8 50       		.byte	0x50
 2713 10d9 05       		.uleb128 0x5
 2714 10da 03       		.byte	0x3
 2715 10db 00000000 		.4byte	.LANCHOR0
 2716 10df 2E       		.uleb128 0x2e
 2717 10e0 01       		.uleb128 0x1
 2718 10e1 51       		.byte	0x51
 2719 10e2 02       		.uleb128 0x2
 2720 10e3 91       		.byte	0x91
 2721 10e4 5C       		.sleb128 -36
 2722 10e5 00       		.byte	0
 2723 10e6 2D       		.uleb128 0x2d
 2724 10e7 EC010000 		.4byte	.LVL71
 2725 10eb 1C120000 		.4byte	0x121c
 2726 10ef F9100000 		.4byte	0x10f9
 2727 10f3 2E       		.uleb128 0x2e
 2728 10f4 01       		.uleb128 0x1
ARM GAS  /var/folders/d2/nstgp4h54kz7g1l847x_b8wc0000gn/T//cc6ckQq1.s 			page 49


 2729 10f5 50       		.byte	0x50
 2730 10f6 01       		.uleb128 0x1
 2731 10f7 39       		.byte	0x39
 2732 10f8 00       		.byte	0
 2733 10f9 2D       		.uleb128 0x2d
 2734 10fa FA010000 		.4byte	.LVL72
 2735 10fe 06120000 		.4byte	0x1206
 2736 1102 16110000 		.4byte	0x1116
 2737 1106 2E       		.uleb128 0x2e
 2738 1107 01       		.uleb128 0x1
 2739 1108 50       		.byte	0x50
 2740 1109 05       		.uleb128 0x5
 2741 110a 03       		.byte	0x3
 2742 110b 00000000 		.4byte	.LANCHOR0
 2743 110f 2E       		.uleb128 0x2e
 2744 1110 01       		.uleb128 0x1
 2745 1111 51       		.byte	0x51
 2746 1112 02       		.uleb128 0x2
 2747 1113 91       		.byte	0x91
 2748 1114 5C       		.sleb128 -36
 2749 1115 00       		.byte	0
 2750 1116 2D       		.uleb128 0x2d
 2751 1117 02020000 		.4byte	.LVL73
 2752 111b 11120000 		.4byte	0x1211
 2753 111f 2D110000 		.4byte	0x112d
 2754 1123 2E       		.uleb128 0x2e
 2755 1124 01       		.uleb128 0x1
 2756 1125 50       		.byte	0x50
 2757 1126 05       		.uleb128 0x5
 2758 1127 03       		.byte	0x3
 2759 1128 00000000 		.4byte	.LANCHOR0
 2760 112c 00       		.byte	0
 2761 112d 2D       		.uleb128 0x2d
 2762 112e 0C020000 		.4byte	.LVL76
 2763 1132 06120000 		.4byte	0x1206
 2764 1136 4A110000 		.4byte	0x114a
 2765 113a 2E       		.uleb128 0x2e
 2766 113b 01       		.uleb128 0x1
 2767 113c 50       		.byte	0x50
 2768 113d 05       		.uleb128 0x5
 2769 113e 03       		.byte	0x3
 2770 113f 00000000 		.4byte	.LANCHOR0
 2771 1143 2E       		.uleb128 0x2e
 2772 1144 01       		.uleb128 0x1
 2773 1145 51       		.byte	0x51
 2774 1146 02       		.uleb128 0x2
 2775 1147 91       		.byte	0x91
 2776 1148 5C       		.sleb128 -36
 2777 1149 00       		.byte	0
 2778 114a 2D       		.uleb128 0x2d
 2779 114b 18020000 		.4byte	.LVL77
 2780 114f 1C120000 		.4byte	0x121c
 2781 1153 5D110000 		.4byte	0x115d
 2782 1157 2E       		.uleb128 0x2e
 2783 1158 01       		.uleb128 0x1
 2784 1159 50       		.byte	0x50
 2785 115a 01       		.uleb128 0x1
ARM GAS  /var/folders/d2/nstgp4h54kz7g1l847x_b8wc0000gn/T//cc6ckQq1.s 			page 50


 2786 115b 3A       		.byte	0x3a
 2787 115c 00       		.byte	0
 2788 115d 2D       		.uleb128 0x2d
 2789 115e 24020000 		.4byte	.LVL78
 2790 1162 27120000 		.4byte	0x1227
 2791 1166 71110000 		.4byte	0x1171
 2792 116a 2E       		.uleb128 0x2e
 2793 116b 01       		.uleb128 0x1
 2794 116c 50       		.byte	0x50
 2795 116d 02       		.uleb128 0x2
 2796 116e 75       		.byte	0x75
 2797 116f 00       		.sleb128 0
 2798 1170 00       		.byte	0
 2799 1171 2D       		.uleb128 0x2d
 2800 1172 2C020000 		.4byte	.LVL79
 2801 1176 06120000 		.4byte	0x1206
 2802 117a 8E110000 		.4byte	0x118e
 2803 117e 2E       		.uleb128 0x2e
 2804 117f 01       		.uleb128 0x1
 2805 1180 50       		.byte	0x50
 2806 1181 05       		.uleb128 0x5
 2807 1182 03       		.byte	0x3
 2808 1183 00000000 		.4byte	.LANCHOR0
 2809 1187 2E       		.uleb128 0x2e
 2810 1188 01       		.uleb128 0x1
 2811 1189 51       		.byte	0x51
 2812 118a 02       		.uleb128 0x2
 2813 118b 91       		.byte	0x91
 2814 118c 5C       		.sleb128 -36
 2815 118d 00       		.byte	0
 2816 118e 2D       		.uleb128 0x2d
 2817 118f 38020000 		.4byte	.LVL80
 2818 1193 1C120000 		.4byte	0x121c
 2819 1197 A1110000 		.4byte	0x11a1
 2820 119b 2E       		.uleb128 0x2e
 2821 119c 01       		.uleb128 0x1
 2822 119d 50       		.byte	0x50
 2823 119e 01       		.uleb128 0x1
 2824 119f 3B       		.byte	0x3b
 2825 11a0 00       		.byte	0
 2826 11a1 2D       		.uleb128 0x2d
 2827 11a2 4E020000 		.4byte	.LVL81
 2828 11a6 1C120000 		.4byte	0x121c
 2829 11aa B4110000 		.4byte	0x11b4
 2830 11ae 2E       		.uleb128 0x2e
 2831 11af 01       		.uleb128 0x1
 2832 11b0 50       		.byte	0x50
 2833 11b1 01       		.uleb128 0x1
 2834 11b2 3C       		.byte	0x3c
 2835 11b3 00       		.byte	0
 2836 11b4 2C       		.uleb128 0x2c
 2837 11b5 58020000 		.4byte	.LVL84
 2838 11b9 32120000 		.4byte	0x1232
 2839 11bd 00       		.byte	0
 2840 11be 29       		.uleb128 0x29
 2841 11bf 79060000 		.4byte	.LASF184
 2842 11c3 01       		.byte	0x1
ARM GAS  /var/folders/d2/nstgp4h54kz7g1l847x_b8wc0000gn/T//cc6ckQq1.s 			page 51


 2843 11c4 40       		.byte	0x40
 2844 11c5 00000000 		.4byte	.LFB219
 2845 11c9 34000000 		.4byte	.LFE219-.LFB219
 2846 11cd 01       		.uleb128 0x1
 2847 11ce 9C       		.byte	0x9c
 2848 11cf FB110000 		.4byte	0x11fb
 2849 11d3 2F       		.uleb128 0x2f
 2850 11d4 24000000 		.4byte	.LVL85
 2851 11d8 3B120000 		.4byte	0x123b
 2852 11dc F1110000 		.4byte	0x11f1
 2853 11e0 2E       		.uleb128 0x2e
 2854 11e1 01       		.uleb128 0x1
 2855 11e2 50       		.byte	0x50
 2856 11e3 05       		.uleb128 0x5
 2857 11e4 03       		.byte	0x3
 2858 11e5 00000000 		.4byte	.LANCHOR0
 2859 11e9 2E       		.uleb128 0x2e
 2860 11ea 01       		.uleb128 0x1
 2861 11eb 52       		.byte	0x52
 2862 11ec 03       		.uleb128 0x3
 2863 11ed 0A       		.byte	0xa
 2864 11ee D809     		.2byte	0x9d8
 2865 11f0 00       		.byte	0
 2866 11f1 2C       		.uleb128 0x2c
 2867 11f2 28000000 		.4byte	.LVL86
 2868 11f6 32120000 		.4byte	0x1232
 2869 11fa 00       		.byte	0
 2870 11fb 30       		.uleb128 0x30
 2871 11fc 1E010000 		.4byte	.LASF185
 2872 1200 1E010000 		.4byte	.LASF185
 2873 1204 12       		.byte	0x12
 2874 1205 64       		.byte	0x64
 2875 1206 30       		.uleb128 0x30
 2876 1207 ED070000 		.4byte	.LASF186
 2877 120b ED070000 		.4byte	.LASF186
 2878 120f 13       		.byte	0x13
 2879 1210 69       		.byte	0x69
 2880 1211 30       		.uleb128 0x30
 2881 1212 39070000 		.4byte	.LASF187
 2882 1216 39070000 		.4byte	.LASF187
 2883 121a 13       		.byte	0x13
 2884 121b 67       		.byte	0x67
 2885 121c 30       		.uleb128 0x30
 2886 121d F9080000 		.4byte	.LASF188
 2887 1221 F9080000 		.4byte	.LASF188
 2888 1225 14       		.byte	0x14
 2889 1226 5A       		.byte	0x5a
 2890 1227 30       		.uleb128 0x30
 2891 1228 02020000 		.4byte	.LASF189
 2892 122c 02020000 		.4byte	.LASF189
 2893 1230 13       		.byte	0x13
 2894 1231 68       		.byte	0x68
 2895 1232 31       		.uleb128 0x31
 2896 1233 52070000 		.4byte	.LASF194
 2897 1237 52070000 		.4byte	.LASF194
 2898 123b 30       		.uleb128 0x30
 2899 123c 53050000 		.4byte	.LASF190
ARM GAS  /var/folders/d2/nstgp4h54kz7g1l847x_b8wc0000gn/T//cc6ckQq1.s 			page 52


 2900 1240 53050000 		.4byte	.LASF190
 2901 1244 13       		.byte	0x13
 2902 1245 66       		.byte	0x66
 2903 1246 00       		.byte	0
 2904              		.section	.debug_abbrev,"",%progbits
 2905              	.Ldebug_abbrev0:
 2906 0000 01       		.uleb128 0x1
 2907 0001 11       		.uleb128 0x11
 2908 0002 01       		.byte	0x1
 2909 0003 25       		.uleb128 0x25
 2910 0004 0E       		.uleb128 0xe
 2911 0005 13       		.uleb128 0x13
 2912 0006 0B       		.uleb128 0xb
 2913 0007 03       		.uleb128 0x3
 2914 0008 0E       		.uleb128 0xe
 2915 0009 1B       		.uleb128 0x1b
 2916 000a 0E       		.uleb128 0xe
 2917 000b 55       		.uleb128 0x55
 2918 000c 17       		.uleb128 0x17
 2919 000d 11       		.uleb128 0x11
 2920 000e 01       		.uleb128 0x1
 2921 000f 10       		.uleb128 0x10
 2922 0010 17       		.uleb128 0x17
 2923 0011 00       		.byte	0
 2924 0012 00       		.byte	0
 2925 0013 02       		.uleb128 0x2
 2926 0014 24       		.uleb128 0x24
 2927 0015 00       		.byte	0
 2928 0016 0B       		.uleb128 0xb
 2929 0017 0B       		.uleb128 0xb
 2930 0018 3E       		.uleb128 0x3e
 2931 0019 0B       		.uleb128 0xb
 2932 001a 03       		.uleb128 0x3
 2933 001b 08       		.uleb128 0x8
 2934 001c 00       		.byte	0
 2935 001d 00       		.byte	0
 2936 001e 03       		.uleb128 0x3
 2937 001f 16       		.uleb128 0x16
 2938 0020 00       		.byte	0
 2939 0021 03       		.uleb128 0x3
 2940 0022 0E       		.uleb128 0xe
 2941 0023 3A       		.uleb128 0x3a
 2942 0024 0B       		.uleb128 0xb
 2943 0025 3B       		.uleb128 0x3b
 2944 0026 0B       		.uleb128 0xb
 2945 0027 49       		.uleb128 0x49
 2946 0028 13       		.uleb128 0x13
 2947 0029 00       		.byte	0
 2948 002a 00       		.byte	0
 2949 002b 04       		.uleb128 0x4
 2950 002c 24       		.uleb128 0x24
 2951 002d 00       		.byte	0
 2952 002e 0B       		.uleb128 0xb
 2953 002f 0B       		.uleb128 0xb
 2954 0030 3E       		.uleb128 0x3e
 2955 0031 0B       		.uleb128 0xb
 2956 0032 03       		.uleb128 0x3
ARM GAS  /var/folders/d2/nstgp4h54kz7g1l847x_b8wc0000gn/T//cc6ckQq1.s 			page 53


 2957 0033 0E       		.uleb128 0xe
 2958 0034 00       		.byte	0
 2959 0035 00       		.byte	0
 2960 0036 05       		.uleb128 0x5
 2961 0037 35       		.uleb128 0x35
 2962 0038 00       		.byte	0
 2963 0039 49       		.uleb128 0x49
 2964 003a 13       		.uleb128 0x13
 2965 003b 00       		.byte	0
 2966 003c 00       		.byte	0
 2967 003d 06       		.uleb128 0x6
 2968 003e 13       		.uleb128 0x13
 2969 003f 01       		.byte	0x1
 2970 0040 03       		.uleb128 0x3
 2971 0041 0E       		.uleb128 0xe
 2972 0042 0B       		.uleb128 0xb
 2973 0043 0B       		.uleb128 0xb
 2974 0044 3A       		.uleb128 0x3a
 2975 0045 0B       		.uleb128 0xb
 2976 0046 3B       		.uleb128 0x3b
 2977 0047 0B       		.uleb128 0xb
 2978 0048 01       		.uleb128 0x1
 2979 0049 13       		.uleb128 0x13
 2980 004a 00       		.byte	0
 2981 004b 00       		.byte	0
 2982 004c 07       		.uleb128 0x7
 2983 004d 0D       		.uleb128 0xd
 2984 004e 00       		.byte	0
 2985 004f 03       		.uleb128 0x3
 2986 0050 0E       		.uleb128 0xe
 2987 0051 3A       		.uleb128 0x3a
 2988 0052 0B       		.uleb128 0xb
 2989 0053 3B       		.uleb128 0x3b
 2990 0054 0B       		.uleb128 0xb
 2991 0055 49       		.uleb128 0x49
 2992 0056 13       		.uleb128 0x13
 2993 0057 38       		.uleb128 0x38
 2994 0058 0B       		.uleb128 0xb
 2995 0059 00       		.byte	0
 2996 005a 00       		.byte	0
 2997 005b 08       		.uleb128 0x8
 2998 005c 0D       		.uleb128 0xd
 2999 005d 00       		.byte	0
 3000 005e 03       		.uleb128 0x3
 3001 005f 08       		.uleb128 0x8
 3002 0060 3A       		.uleb128 0x3a
 3003 0061 0B       		.uleb128 0xb
 3004 0062 3B       		.uleb128 0x3b
 3005 0063 05       		.uleb128 0x5
 3006 0064 49       		.uleb128 0x49
 3007 0065 13       		.uleb128 0x13
 3008 0066 38       		.uleb128 0x38
 3009 0067 0B       		.uleb128 0xb
 3010 0068 00       		.byte	0
 3011 0069 00       		.byte	0
 3012 006a 09       		.uleb128 0x9
 3013 006b 0D       		.uleb128 0xd
ARM GAS  /var/folders/d2/nstgp4h54kz7g1l847x_b8wc0000gn/T//cc6ckQq1.s 			page 54


 3014 006c 00       		.byte	0
 3015 006d 03       		.uleb128 0x3
 3016 006e 0E       		.uleb128 0xe
 3017 006f 3A       		.uleb128 0x3a
 3018 0070 0B       		.uleb128 0xb
 3019 0071 3B       		.uleb128 0x3b
 3020 0072 05       		.uleb128 0x5
 3021 0073 49       		.uleb128 0x49
 3022 0074 13       		.uleb128 0x13
 3023 0075 38       		.uleb128 0x38
 3024 0076 0B       		.uleb128 0xb
 3025 0077 00       		.byte	0
 3026 0078 00       		.byte	0
 3027 0079 0A       		.uleb128 0xa
 3028 007a 0F       		.uleb128 0xf
 3029 007b 00       		.byte	0
 3030 007c 0B       		.uleb128 0xb
 3031 007d 0B       		.uleb128 0xb
 3032 007e 49       		.uleb128 0x49
 3033 007f 13       		.uleb128 0x13
 3034 0080 00       		.byte	0
 3035 0081 00       		.byte	0
 3036 0082 0B       		.uleb128 0xb
 3037 0083 13       		.uleb128 0x13
 3038 0084 01       		.byte	0x1
 3039 0085 03       		.uleb128 0x3
 3040 0086 0E       		.uleb128 0xe
 3041 0087 0B       		.uleb128 0xb
 3042 0088 0B       		.uleb128 0xb
 3043 0089 3A       		.uleb128 0x3a
 3044 008a 0B       		.uleb128 0xb
 3045 008b 3B       		.uleb128 0x3b
 3046 008c 05       		.uleb128 0x5
 3047 008d 01       		.uleb128 0x1
 3048 008e 13       		.uleb128 0x13
 3049 008f 00       		.byte	0
 3050 0090 00       		.byte	0
 3051 0091 0C       		.uleb128 0xc
 3052 0092 15       		.uleb128 0x15
 3053 0093 01       		.byte	0x1
 3054 0094 27       		.uleb128 0x27
 3055 0095 19       		.uleb128 0x19
 3056 0096 01       		.uleb128 0x1
 3057 0097 13       		.uleb128 0x13
 3058 0098 00       		.byte	0
 3059 0099 00       		.byte	0
 3060 009a 0D       		.uleb128 0xd
 3061 009b 05       		.uleb128 0x5
 3062 009c 00       		.byte	0
 3063 009d 49       		.uleb128 0x49
 3064 009e 13       		.uleb128 0x13
 3065 009f 00       		.byte	0
 3066 00a0 00       		.byte	0
 3067 00a1 0E       		.uleb128 0xe
 3068 00a2 0F       		.uleb128 0xf
 3069 00a3 00       		.byte	0
 3070 00a4 0B       		.uleb128 0xb
ARM GAS  /var/folders/d2/nstgp4h54kz7g1l847x_b8wc0000gn/T//cc6ckQq1.s 			page 55


 3071 00a5 0B       		.uleb128 0xb
 3072 00a6 00       		.byte	0
 3073 00a7 00       		.byte	0
 3074 00a8 0F       		.uleb128 0xf
 3075 00a9 26       		.uleb128 0x26
 3076 00aa 00       		.byte	0
 3077 00ab 49       		.uleb128 0x49
 3078 00ac 13       		.uleb128 0x13
 3079 00ad 00       		.byte	0
 3080 00ae 00       		.byte	0
 3081 00af 10       		.uleb128 0x10
 3082 00b0 13       		.uleb128 0x13
 3083 00b1 01       		.byte	0x1
 3084 00b2 03       		.uleb128 0x3
 3085 00b3 0E       		.uleb128 0xe
 3086 00b4 0B       		.uleb128 0xb
 3087 00b5 05       		.uleb128 0x5
 3088 00b6 3A       		.uleb128 0x3a
 3089 00b7 0B       		.uleb128 0xb
 3090 00b8 3B       		.uleb128 0x3b
 3091 00b9 05       		.uleb128 0x5
 3092 00ba 01       		.uleb128 0x1
 3093 00bb 13       		.uleb128 0x13
 3094 00bc 00       		.byte	0
 3095 00bd 00       		.byte	0
 3096 00be 11       		.uleb128 0x11
 3097 00bf 0D       		.uleb128 0xd
 3098 00c0 00       		.byte	0
 3099 00c1 03       		.uleb128 0x3
 3100 00c2 0E       		.uleb128 0xe
 3101 00c3 3A       		.uleb128 0x3a
 3102 00c4 0B       		.uleb128 0xb
 3103 00c5 3B       		.uleb128 0x3b
 3104 00c6 05       		.uleb128 0x5
 3105 00c7 49       		.uleb128 0x49
 3106 00c8 13       		.uleb128 0x13
 3107 00c9 38       		.uleb128 0x38
 3108 00ca 05       		.uleb128 0x5
 3109 00cb 00       		.byte	0
 3110 00cc 00       		.byte	0
 3111 00cd 12       		.uleb128 0x12
 3112 00ce 0D       		.uleb128 0xd
 3113 00cf 00       		.byte	0
 3114 00d0 03       		.uleb128 0x3
 3115 00d1 08       		.uleb128 0x8
 3116 00d2 3A       		.uleb128 0x3a
 3117 00d3 0B       		.uleb128 0xb
 3118 00d4 3B       		.uleb128 0x3b
 3119 00d5 05       		.uleb128 0x5
 3120 00d6 49       		.uleb128 0x49
 3121 00d7 13       		.uleb128 0x13
 3122 00d8 38       		.uleb128 0x38
 3123 00d9 05       		.uleb128 0x5
 3124 00da 00       		.byte	0
 3125 00db 00       		.byte	0
 3126 00dc 13       		.uleb128 0x13
 3127 00dd 34       		.uleb128 0x34
ARM GAS  /var/folders/d2/nstgp4h54kz7g1l847x_b8wc0000gn/T//cc6ckQq1.s 			page 56


 3128 00de 00       		.byte	0
 3129 00df 03       		.uleb128 0x3
 3130 00e0 0E       		.uleb128 0xe
 3131 00e1 3A       		.uleb128 0x3a
 3132 00e2 0B       		.uleb128 0xb
 3133 00e3 3B       		.uleb128 0x3b
 3134 00e4 05       		.uleb128 0x5
 3135 00e5 49       		.uleb128 0x49
 3136 00e6 13       		.uleb128 0x13
 3137 00e7 3F       		.uleb128 0x3f
 3138 00e8 19       		.uleb128 0x19
 3139 00e9 3C       		.uleb128 0x3c
 3140 00ea 19       		.uleb128 0x19
 3141 00eb 00       		.byte	0
 3142 00ec 00       		.byte	0
 3143 00ed 14       		.uleb128 0x14
 3144 00ee 34       		.uleb128 0x34
 3145 00ef 00       		.byte	0
 3146 00f0 03       		.uleb128 0x3
 3147 00f1 0E       		.uleb128 0xe
 3148 00f2 3A       		.uleb128 0x3a
 3149 00f3 0B       		.uleb128 0xb
 3150 00f4 3B       		.uleb128 0x3b
 3151 00f5 0B       		.uleb128 0xb
 3152 00f6 49       		.uleb128 0x49
 3153 00f7 13       		.uleb128 0x13
 3154 00f8 3F       		.uleb128 0x3f
 3155 00f9 19       		.uleb128 0x19
 3156 00fa 3C       		.uleb128 0x3c
 3157 00fb 19       		.uleb128 0x19
 3158 00fc 00       		.byte	0
 3159 00fd 00       		.byte	0
 3160 00fe 15       		.uleb128 0x15
 3161 00ff 0D       		.uleb128 0xd
 3162 0100 00       		.byte	0
 3163 0101 03       		.uleb128 0x3
 3164 0102 08       		.uleb128 0x8
 3165 0103 3A       		.uleb128 0x3a
 3166 0104 0B       		.uleb128 0xb
 3167 0105 3B       		.uleb128 0x3b
 3168 0106 0B       		.uleb128 0xb
 3169 0107 49       		.uleb128 0x49
 3170 0108 13       		.uleb128 0x13
 3171 0109 38       		.uleb128 0x38
 3172 010a 0B       		.uleb128 0xb
 3173 010b 00       		.byte	0
 3174 010c 00       		.byte	0
 3175 010d 16       		.uleb128 0x16
 3176 010e 13       		.uleb128 0x13
 3177 010f 01       		.byte	0x1
 3178 0110 0B       		.uleb128 0xb
 3179 0111 0B       		.uleb128 0xb
 3180 0112 3A       		.uleb128 0x3a
 3181 0113 0B       		.uleb128 0xb
 3182 0114 3B       		.uleb128 0x3b
 3183 0115 0B       		.uleb128 0xb
 3184 0116 01       		.uleb128 0x1
ARM GAS  /var/folders/d2/nstgp4h54kz7g1l847x_b8wc0000gn/T//cc6ckQq1.s 			page 57


 3185 0117 13       		.uleb128 0x13
 3186 0118 00       		.byte	0
 3187 0119 00       		.byte	0
 3188 011a 17       		.uleb128 0x17
 3189 011b 13       		.uleb128 0x13
 3190 011c 01       		.byte	0x1
 3191 011d 0B       		.uleb128 0xb
 3192 011e 05       		.uleb128 0x5
 3193 011f 3A       		.uleb128 0x3a
 3194 0120 0B       		.uleb128 0xb
 3195 0121 3B       		.uleb128 0x3b
 3196 0122 0B       		.uleb128 0xb
 3197 0123 01       		.uleb128 0x1
 3198 0124 13       		.uleb128 0x13
 3199 0125 00       		.byte	0
 3200 0126 00       		.byte	0
 3201 0127 18       		.uleb128 0x18
 3202 0128 01       		.uleb128 0x1
 3203 0129 01       		.byte	0x1
 3204 012a 49       		.uleb128 0x49
 3205 012b 13       		.uleb128 0x13
 3206 012c 01       		.uleb128 0x1
 3207 012d 13       		.uleb128 0x13
 3208 012e 00       		.byte	0
 3209 012f 00       		.byte	0
 3210 0130 19       		.uleb128 0x19
 3211 0131 21       		.uleb128 0x21
 3212 0132 00       		.byte	0
 3213 0133 49       		.uleb128 0x49
 3214 0134 13       		.uleb128 0x13
 3215 0135 2F       		.uleb128 0x2f
 3216 0136 0B       		.uleb128 0xb
 3217 0137 00       		.byte	0
 3218 0138 00       		.byte	0
 3219 0139 1A       		.uleb128 0x1a
 3220 013a 17       		.uleb128 0x17
 3221 013b 01       		.byte	0x1
 3222 013c 0B       		.uleb128 0xb
 3223 013d 0B       		.uleb128 0xb
 3224 013e 3A       		.uleb128 0x3a
 3225 013f 0B       		.uleb128 0xb
 3226 0140 3B       		.uleb128 0x3b
 3227 0141 0B       		.uleb128 0xb
 3228 0142 01       		.uleb128 0x1
 3229 0143 13       		.uleb128 0x13
 3230 0144 00       		.byte	0
 3231 0145 00       		.byte	0
 3232 0146 1B       		.uleb128 0x1b
 3233 0147 0D       		.uleb128 0xd
 3234 0148 00       		.byte	0
 3235 0149 03       		.uleb128 0x3
 3236 014a 0E       		.uleb128 0xe
 3237 014b 3A       		.uleb128 0x3a
 3238 014c 0B       		.uleb128 0xb
 3239 014d 3B       		.uleb128 0x3b
 3240 014e 05       		.uleb128 0x5
 3241 014f 49       		.uleb128 0x49
ARM GAS  /var/folders/d2/nstgp4h54kz7g1l847x_b8wc0000gn/T//cc6ckQq1.s 			page 58


 3242 0150 13       		.uleb128 0x13
 3243 0151 00       		.byte	0
 3244 0152 00       		.byte	0
 3245 0153 1C       		.uleb128 0x1c
 3246 0154 34       		.uleb128 0x34
 3247 0155 00       		.byte	0
 3248 0156 03       		.uleb128 0x3
 3249 0157 08       		.uleb128 0x8
 3250 0158 3A       		.uleb128 0x3a
 3251 0159 0B       		.uleb128 0xb
 3252 015a 3B       		.uleb128 0x3b
 3253 015b 05       		.uleb128 0x5
 3254 015c 49       		.uleb128 0x49
 3255 015d 13       		.uleb128 0x13
 3256 015e 3F       		.uleb128 0x3f
 3257 015f 19       		.uleb128 0x19
 3258 0160 3C       		.uleb128 0x3c
 3259 0161 19       		.uleb128 0x19
 3260 0162 00       		.byte	0
 3261 0163 00       		.byte	0
 3262 0164 1D       		.uleb128 0x1d
 3263 0165 15       		.uleb128 0x15
 3264 0166 01       		.byte	0x1
 3265 0167 27       		.uleb128 0x27
 3266 0168 19       		.uleb128 0x19
 3267 0169 49       		.uleb128 0x49
 3268 016a 13       		.uleb128 0x13
 3269 016b 01       		.uleb128 0x1
 3270 016c 13       		.uleb128 0x13
 3271 016d 00       		.byte	0
 3272 016e 00       		.byte	0
 3273 016f 1E       		.uleb128 0x1e
 3274 0170 0D       		.uleb128 0xd
 3275 0171 00       		.byte	0
 3276 0172 03       		.uleb128 0x3
 3277 0173 0E       		.uleb128 0xe
 3278 0174 3A       		.uleb128 0x3a
 3279 0175 0B       		.uleb128 0xb
 3280 0176 3B       		.uleb128 0x3b
 3281 0177 0B       		.uleb128 0xb
 3282 0178 49       		.uleb128 0x49
 3283 0179 13       		.uleb128 0x13
 3284 017a 00       		.byte	0
 3285 017b 00       		.byte	0
 3286 017c 1F       		.uleb128 0x1f
 3287 017d 17       		.uleb128 0x17
 3288 017e 01       		.byte	0x1
 3289 017f 03       		.uleb128 0x3
 3290 0180 0E       		.uleb128 0xe
 3291 0181 0B       		.uleb128 0xb
 3292 0182 0B       		.uleb128 0xb
 3293 0183 3A       		.uleb128 0x3a
 3294 0184 0B       		.uleb128 0xb
 3295 0185 3B       		.uleb128 0x3b
 3296 0186 0B       		.uleb128 0xb
 3297 0187 01       		.uleb128 0x1
 3298 0188 13       		.uleb128 0x13
ARM GAS  /var/folders/d2/nstgp4h54kz7g1l847x_b8wc0000gn/T//cc6ckQq1.s 			page 59


 3299 0189 00       		.byte	0
 3300 018a 00       		.byte	0
 3301 018b 20       		.uleb128 0x20
 3302 018c 0D       		.uleb128 0xd
 3303 018d 00       		.byte	0
 3304 018e 03       		.uleb128 0x3
 3305 018f 08       		.uleb128 0x8
 3306 0190 3A       		.uleb128 0x3a
 3307 0191 0B       		.uleb128 0xb
 3308 0192 3B       		.uleb128 0x3b
 3309 0193 0B       		.uleb128 0xb
 3310 0194 49       		.uleb128 0x49
 3311 0195 13       		.uleb128 0x13
 3312 0196 00       		.byte	0
 3313 0197 00       		.byte	0
 3314 0198 21       		.uleb128 0x21
 3315 0199 15       		.uleb128 0x15
 3316 019a 00       		.byte	0
 3317 019b 27       		.uleb128 0x27
 3318 019c 19       		.uleb128 0x19
 3319 019d 00       		.byte	0
 3320 019e 00       		.byte	0
 3321 019f 22       		.uleb128 0x22
 3322 01a0 0D       		.uleb128 0xd
 3323 01a1 00       		.byte	0
 3324 01a2 03       		.uleb128 0x3
 3325 01a3 08       		.uleb128 0x8
 3326 01a4 3A       		.uleb128 0x3a
 3327 01a5 0B       		.uleb128 0xb
 3328 01a6 3B       		.uleb128 0x3b
 3329 01a7 0B       		.uleb128 0xb
 3330 01a8 49       		.uleb128 0x49
 3331 01a9 13       		.uleb128 0x13
 3332 01aa 38       		.uleb128 0x38
 3333 01ab 05       		.uleb128 0x5
 3334 01ac 00       		.byte	0
 3335 01ad 00       		.byte	0
 3336 01ae 23       		.uleb128 0x23
 3337 01af 17       		.uleb128 0x17
 3338 01b0 01       		.byte	0x1
 3339 01b1 03       		.uleb128 0x3
 3340 01b2 0E       		.uleb128 0xe
 3341 01b3 0B       		.uleb128 0xb
 3342 01b4 05       		.uleb128 0x5
 3343 01b5 3A       		.uleb128 0x3a
 3344 01b6 0B       		.uleb128 0xb
 3345 01b7 3B       		.uleb128 0x3b
 3346 01b8 0B       		.uleb128 0xb
 3347 01b9 01       		.uleb128 0x1
 3348 01ba 13       		.uleb128 0x13
 3349 01bb 00       		.byte	0
 3350 01bc 00       		.byte	0
 3351 01bd 24       		.uleb128 0x24
 3352 01be 21       		.uleb128 0x21
 3353 01bf 00       		.byte	0
 3354 01c0 49       		.uleb128 0x49
 3355 01c1 13       		.uleb128 0x13
ARM GAS  /var/folders/d2/nstgp4h54kz7g1l847x_b8wc0000gn/T//cc6ckQq1.s 			page 60


 3356 01c2 2F       		.uleb128 0x2f
 3357 01c3 05       		.uleb128 0x5
 3358 01c4 00       		.byte	0
 3359 01c5 00       		.byte	0
 3360 01c6 25       		.uleb128 0x25
 3361 01c7 21       		.uleb128 0x21
 3362 01c8 00       		.byte	0
 3363 01c9 00       		.byte	0
 3364 01ca 00       		.byte	0
 3365 01cb 26       		.uleb128 0x26
 3366 01cc 34       		.uleb128 0x34
 3367 01cd 00       		.byte	0
 3368 01ce 03       		.uleb128 0x3
 3369 01cf 08       		.uleb128 0x8
 3370 01d0 3A       		.uleb128 0x3a
 3371 01d1 0B       		.uleb128 0xb
 3372 01d2 3B       		.uleb128 0x3b
 3373 01d3 0B       		.uleb128 0xb
 3374 01d4 49       		.uleb128 0x49
 3375 01d5 13       		.uleb128 0x13
 3376 01d6 3F       		.uleb128 0x3f
 3377 01d7 19       		.uleb128 0x19
 3378 01d8 3C       		.uleb128 0x3c
 3379 01d9 19       		.uleb128 0x19
 3380 01da 00       		.byte	0
 3381 01db 00       		.byte	0
 3382 01dc 27       		.uleb128 0x27
 3383 01dd 34       		.uleb128 0x34
 3384 01de 00       		.byte	0
 3385 01df 03       		.uleb128 0x3
 3386 01e0 0E       		.uleb128 0xe
 3387 01e1 3A       		.uleb128 0x3a
 3388 01e2 0B       		.uleb128 0xb
 3389 01e3 3B       		.uleb128 0x3b
 3390 01e4 0B       		.uleb128 0xb
 3391 01e5 49       		.uleb128 0x49
 3392 01e6 13       		.uleb128 0x13
 3393 01e7 02       		.uleb128 0x2
 3394 01e8 18       		.uleb128 0x18
 3395 01e9 00       		.byte	0
 3396 01ea 00       		.byte	0
 3397 01eb 28       		.uleb128 0x28
 3398 01ec 34       		.uleb128 0x34
 3399 01ed 00       		.byte	0
 3400 01ee 03       		.uleb128 0x3
 3401 01ef 0E       		.uleb128 0xe
 3402 01f0 3A       		.uleb128 0x3a
 3403 01f1 0B       		.uleb128 0xb
 3404 01f2 3B       		.uleb128 0x3b
 3405 01f3 0B       		.uleb128 0xb
 3406 01f4 49       		.uleb128 0x49
 3407 01f5 13       		.uleb128 0x13
 3408 01f6 3F       		.uleb128 0x3f
 3409 01f7 19       		.uleb128 0x19
 3410 01f8 02       		.uleb128 0x2
 3411 01f9 18       		.uleb128 0x18
 3412 01fa 00       		.byte	0
ARM GAS  /var/folders/d2/nstgp4h54kz7g1l847x_b8wc0000gn/T//cc6ckQq1.s 			page 61


 3413 01fb 00       		.byte	0
 3414 01fc 29       		.uleb128 0x29
 3415 01fd 2E       		.uleb128 0x2e
 3416 01fe 01       		.byte	0x1
 3417 01ff 03       		.uleb128 0x3
 3418 0200 0E       		.uleb128 0xe
 3419 0201 3A       		.uleb128 0x3a
 3420 0202 0B       		.uleb128 0xb
 3421 0203 3B       		.uleb128 0x3b
 3422 0204 0B       		.uleb128 0xb
 3423 0205 27       		.uleb128 0x27
 3424 0206 19       		.uleb128 0x19
 3425 0207 11       		.uleb128 0x11
 3426 0208 01       		.uleb128 0x1
 3427 0209 12       		.uleb128 0x12
 3428 020a 06       		.uleb128 0x6
 3429 020b 40       		.uleb128 0x40
 3430 020c 18       		.uleb128 0x18
 3431 020d 9742     		.uleb128 0x2117
 3432 020f 19       		.uleb128 0x19
 3433 0210 01       		.uleb128 0x1
 3434 0211 13       		.uleb128 0x13
 3435 0212 00       		.byte	0
 3436 0213 00       		.byte	0
 3437 0214 2A       		.uleb128 0x2a
 3438 0215 34       		.uleb128 0x34
 3439 0216 00       		.byte	0
 3440 0217 03       		.uleb128 0x3
 3441 0218 08       		.uleb128 0x8
 3442 0219 3A       		.uleb128 0x3a
 3443 021a 0B       		.uleb128 0xb
 3444 021b 3B       		.uleb128 0x3b
 3445 021c 0B       		.uleb128 0xb
 3446 021d 49       		.uleb128 0x49
 3447 021e 13       		.uleb128 0x13
 3448 021f 02       		.uleb128 0x2
 3449 0220 17       		.uleb128 0x17
 3450 0221 00       		.byte	0
 3451 0222 00       		.byte	0
 3452 0223 2B       		.uleb128 0x2b
 3453 0224 34       		.uleb128 0x34
 3454 0225 00       		.byte	0
 3455 0226 03       		.uleb128 0x3
 3456 0227 08       		.uleb128 0x8
 3457 0228 3A       		.uleb128 0x3a
 3458 0229 0B       		.uleb128 0xb
 3459 022a 3B       		.uleb128 0x3b
 3460 022b 0B       		.uleb128 0xb
 3461 022c 49       		.uleb128 0x49
 3462 022d 13       		.uleb128 0x13
 3463 022e 02       		.uleb128 0x2
 3464 022f 18       		.uleb128 0x18
 3465 0230 00       		.byte	0
 3466 0231 00       		.byte	0
 3467 0232 2C       		.uleb128 0x2c
 3468 0233 898201   		.uleb128 0x4109
 3469 0236 00       		.byte	0
ARM GAS  /var/folders/d2/nstgp4h54kz7g1l847x_b8wc0000gn/T//cc6ckQq1.s 			page 62


 3470 0237 11       		.uleb128 0x11
 3471 0238 01       		.uleb128 0x1
 3472 0239 31       		.uleb128 0x31
 3473 023a 13       		.uleb128 0x13
 3474 023b 00       		.byte	0
 3475 023c 00       		.byte	0
 3476 023d 2D       		.uleb128 0x2d
 3477 023e 898201   		.uleb128 0x4109
 3478 0241 01       		.byte	0x1
 3479 0242 11       		.uleb128 0x11
 3480 0243 01       		.uleb128 0x1
 3481 0244 31       		.uleb128 0x31
 3482 0245 13       		.uleb128 0x13
 3483 0246 01       		.uleb128 0x1
 3484 0247 13       		.uleb128 0x13
 3485 0248 00       		.byte	0
 3486 0249 00       		.byte	0
 3487 024a 2E       		.uleb128 0x2e
 3488 024b 8A8201   		.uleb128 0x410a
 3489 024e 00       		.byte	0
 3490 024f 02       		.uleb128 0x2
 3491 0250 18       		.uleb128 0x18
 3492 0251 9142     		.uleb128 0x2111
 3493 0253 18       		.uleb128 0x18
 3494 0254 00       		.byte	0
 3495 0255 00       		.byte	0
 3496 0256 2F       		.uleb128 0x2f
 3497 0257 898201   		.uleb128 0x4109
 3498 025a 01       		.byte	0x1
 3499 025b 11       		.uleb128 0x11
 3500 025c 01       		.uleb128 0x1
 3501 025d 9542     		.uleb128 0x2115
 3502 025f 19       		.uleb128 0x19
 3503 0260 31       		.uleb128 0x31
 3504 0261 13       		.uleb128 0x13
 3505 0262 01       		.uleb128 0x1
 3506 0263 13       		.uleb128 0x13
 3507 0264 00       		.byte	0
 3508 0265 00       		.byte	0
 3509 0266 30       		.uleb128 0x30
 3510 0267 2E       		.uleb128 0x2e
 3511 0268 00       		.byte	0
 3512 0269 3F       		.uleb128 0x3f
 3513 026a 19       		.uleb128 0x19
 3514 026b 3C       		.uleb128 0x3c
 3515 026c 19       		.uleb128 0x19
 3516 026d 6E       		.uleb128 0x6e
 3517 026e 0E       		.uleb128 0xe
 3518 026f 03       		.uleb128 0x3
 3519 0270 0E       		.uleb128 0xe
 3520 0271 3A       		.uleb128 0x3a
 3521 0272 0B       		.uleb128 0xb
 3522 0273 3B       		.uleb128 0x3b
 3523 0274 0B       		.uleb128 0xb
 3524 0275 00       		.byte	0
 3525 0276 00       		.byte	0
 3526 0277 31       		.uleb128 0x31
ARM GAS  /var/folders/d2/nstgp4h54kz7g1l847x_b8wc0000gn/T//cc6ckQq1.s 			page 63


 3527 0278 2E       		.uleb128 0x2e
 3528 0279 00       		.byte	0
 3529 027a 3F       		.uleb128 0x3f
 3530 027b 19       		.uleb128 0x19
 3531 027c 3C       		.uleb128 0x3c
 3532 027d 19       		.uleb128 0x19
 3533 027e 6E       		.uleb128 0x6e
 3534 027f 0E       		.uleb128 0xe
 3535 0280 03       		.uleb128 0x3
 3536 0281 0E       		.uleb128 0xe
 3537 0282 00       		.byte	0
 3538 0283 00       		.byte	0
 3539 0284 00       		.byte	0
 3540              		.section	.debug_loc,"",%progbits
 3541              	.Ldebug_loc0:
 3542              	.LLST0:
 3543 0000 1E000000 		.4byte	.LVL2
 3544 0004 28000000 		.4byte	.LVL3
 3545 0008 0100     		.2byte	0x1
 3546 000a 50       		.byte	0x50
 3547 000b 28000000 		.4byte	.LVL3
 3548 000f 2E000000 		.4byte	.LVL5
 3549 0013 0100     		.2byte	0x1
 3550 0015 56       		.byte	0x56
 3551 0016 3C000000 		.4byte	.LVL6
 3552 001a 4E000000 		.4byte	.LVL8
 3553 001e 0100     		.2byte	0x1
 3554 0020 56       		.byte	0x56
 3555 0021 4E000000 		.4byte	.LVL8
 3556 0025 56000000 		.4byte	.LVL9
 3557 0029 0100     		.2byte	0x1
 3558 002b 50       		.byte	0x50
 3559 002c 72000000 		.4byte	.LVL13
 3560 0030 74000000 		.4byte	.LVL14
 3561 0034 0100     		.2byte	0x1
 3562 0036 50       		.byte	0x50
 3563 0037 74000000 		.4byte	.LVL14
 3564 003b BE000000 		.4byte	.LVL27
 3565 003f 0100     		.2byte	0x1
 3566 0041 57       		.byte	0x57
 3567 0042 BE000000 		.4byte	.LVL27
 3568 0046 C0000000 		.4byte	.LVL28
 3569 004a 0100     		.2byte	0x1
 3570 004c 50       		.byte	0x50
 3571 004d C0000000 		.4byte	.LVL28
 3572 0051 06010000 		.4byte	.LVL39
 3573 0055 0100     		.2byte	0x1
 3574 0057 55       		.byte	0x55
 3575 0058 06010000 		.4byte	.LVL39
 3576 005c 08010000 		.4byte	.LVL40
 3577 0060 0100     		.2byte	0x1
 3578 0062 50       		.byte	0x50
 3579 0063 08010000 		.4byte	.LVL40
 3580 0067 3E010000 		.4byte	.LVL48
 3581 006b 0100     		.2byte	0x1
 3582 006d 55       		.byte	0x55
 3583 006e 3E010000 		.4byte	.LVL48
ARM GAS  /var/folders/d2/nstgp4h54kz7g1l847x_b8wc0000gn/T//cc6ckQq1.s 			page 64


 3584 0072 40010000 		.4byte	.LVL49
 3585 0076 0100     		.2byte	0x1
 3586 0078 50       		.byte	0x50
 3587 0079 40010000 		.4byte	.LVL49
 3588 007d 9E010000 		.4byte	.LVL58
 3589 0081 0100     		.2byte	0x1
 3590 0083 55       		.byte	0x55
 3591 0084 9E010000 		.4byte	.LVL58
 3592 0088 A0010000 		.4byte	.LVL59
 3593 008c 0100     		.2byte	0x1
 3594 008e 50       		.byte	0x50
 3595 008f A0010000 		.4byte	.LVL59
 3596 0093 B6010000 		.4byte	.LVL65
 3597 0097 0100     		.2byte	0x1
 3598 0099 56       		.byte	0x56
 3599 009a CE010000 		.4byte	.LVL67
 3600 009e D1010000 		.4byte	.LVL68-1
 3601 00a2 0100     		.2byte	0x1
 3602 00a4 50       		.byte	0x50
 3603 00a5 06020000 		.4byte	.LVL74
 3604 00a9 08020000 		.4byte	.LVL75
 3605 00ad 0100     		.2byte	0x1
 3606 00af 50       		.byte	0x50
 3607 00b0 08020000 		.4byte	.LVL75
 3608 00b4 54020000 		.4byte	.LVL83
 3609 00b8 0100     		.2byte	0x1
 3610 00ba 55       		.byte	0x55
 3611 00bb 00000000 		.4byte	0
 3612 00bf 00000000 		.4byte	0
 3613              	.LLST1:
 3614 00c3 7C000000 		.4byte	.LVL16
 3615 00c7 7E000000 		.4byte	.LVL17
 3616 00cb 0100     		.2byte	0x1
 3617 00cd 50       		.byte	0x50
 3618 00ce 7E000000 		.4byte	.LVL17
 3619 00d2 C8000000 		.4byte	.LVL30
 3620 00d6 0100     		.2byte	0x1
 3621 00d8 56       		.byte	0x56
 3622 00d9 C8000000 		.4byte	.LVL30
 3623 00dd CA000000 		.4byte	.LVL31
 3624 00e1 0100     		.2byte	0x1
 3625 00e3 50       		.byte	0x50
 3626 00e4 CA000000 		.4byte	.LVL31
 3627 00e8 0E010000 		.4byte	.LVL42
 3628 00ec 0100     		.2byte	0x1
 3629 00ee 56       		.byte	0x56
 3630 00ef 0E010000 		.4byte	.LVL42
 3631 00f3 10010000 		.4byte	.LVL43
 3632 00f7 0100     		.2byte	0x1
 3633 00f9 50       		.byte	0x50
 3634 00fa 10010000 		.4byte	.LVL43
 3635 00fe 9E010000 		.4byte	.LVL58
 3636 0102 0100     		.2byte	0x1
 3637 0104 56       		.byte	0x56
 3638 0105 A6010000 		.4byte	.LVL61
 3639 0109 A8010000 		.4byte	.LVL62
 3640 010d 0100     		.2byte	0x1
ARM GAS  /var/folders/d2/nstgp4h54kz7g1l847x_b8wc0000gn/T//cc6ckQq1.s 			page 65


 3641 010f 50       		.byte	0x50
 3642 0110 A8010000 		.4byte	.LVL62
 3643 0114 06020000 		.4byte	.LVL74
 3644 0118 0100     		.2byte	0x1
 3645 011a 55       		.byte	0x55
 3646 011b 50020000 		.4byte	.LVL82
 3647 011f 54020000 		.4byte	.LVL83
 3648 0123 0100     		.2byte	0x1
 3649 0125 56       		.byte	0x56
 3650 0126 00000000 		.4byte	0
 3651 012a 00000000 		.4byte	0
 3652              	.LLST2:
 3653 012e 84000000 		.4byte	.LVL19
 3654 0132 86000000 		.4byte	.LVL20
 3655 0136 0100     		.2byte	0x1
 3656 0138 50       		.byte	0x50
 3657 0139 86000000 		.4byte	.LVL20
 3658 013d BE000000 		.4byte	.LVL27
 3659 0141 0100     		.2byte	0x1
 3660 0143 55       		.byte	0x55
 3661 0144 CE000000 		.4byte	.LVL32
 3662 0148 D1000000 		.4byte	.LVL33-1
 3663 014c 0100     		.2byte	0x1
 3664 014e 50       		.byte	0x50
 3665 014f 00000000 		.4byte	0
 3666 0153 00000000 		.4byte	0
 3667              		.section	.debug_aranges,"",%progbits
 3668 0000 24000000 		.4byte	0x24
 3669 0004 0200     		.2byte	0x2
 3670 0006 00000000 		.4byte	.Ldebug_info0
 3671 000a 04       		.byte	0x4
 3672 000b 00       		.byte	0
 3673 000c 0000     		.2byte	0
 3674 000e 0000     		.2byte	0
 3675 0010 00000000 		.4byte	.LFB220
 3676 0014 60020000 		.4byte	.LFE220-.LFB220
 3677 0018 00000000 		.4byte	.LFB219
 3678 001c 34000000 		.4byte	.LFE219-.LFB219
 3679 0020 00000000 		.4byte	0
 3680 0024 00000000 		.4byte	0
 3681              		.section	.debug_ranges,"",%progbits
 3682              	.Ldebug_ranges0:
 3683 0000 00000000 		.4byte	.LFB220
 3684 0004 60020000 		.4byte	.LFE220
 3685 0008 00000000 		.4byte	.LFB219
 3686 000c 34000000 		.4byte	.LFE219
 3687 0010 00000000 		.4byte	0
 3688 0014 00000000 		.4byte	0
 3689              		.section	.debug_line,"",%progbits
 3690              	.Ldebug_line0:
 3691 0000 65040000 		.section	.debug_str,"MS",%progbits,1
 3691      0200EC03 
 3691      00000201 
 3691      FB0E0D00 
 3691      01010101 
 3692              	.LASF56:
 3693 0000 74687265 		.ascii	"threads_list_t\000"
ARM GAS  /var/folders/d2/nstgp4h54kz7g1l847x_b8wc0000gn/T//cc6ckQq1.s 			page 66


 3693      6164735F 
 3693      6C697374 
 3693      5F7400
 3694              	.LASF193:
 3695 000f 2F557365 		.ascii	"/Users/bharathkeshavamurthy/Workspaces/Talos/src/ma"
 3695      72732F62 
 3695      68617261 
 3695      74686B65 
 3695      73686176 
 3696 0042 696E2F63 		.ascii	"in/cpp/org/purdue/ece/talos/optimize/\000"
 3696      70702F6F 
 3696      72672F70 
 3696      75726475 
 3696      652F6563 
 3697              	.LASF61:
 3698 0068 72656164 		.ascii	"ready_list_t\000"
 3698      795F6C69 
 3698      73745F74 
 3698      00
 3699              	.LASF99:
 3700 0075 73655F74 		.ascii	"se_time\000"
 3700      696D6500 
 3701              	.LASF4:
 3702 007d 73697A65 		.ascii	"size_t\000"
 3702      5F7400
 3703              	.LASF163:
 3704 0084 6E657874 		.ascii	"next\000"
 3704      00
 3705              	.LASF120:
 3706 0089 7264796D 		.ascii	"rdymsg\000"
 3706      736700
 3707              	.LASF20:
 3708 0090 75696E74 		.ascii	"uint64_t\000"
 3708      36345F74 
 3708      00
 3709              	.LASF91:
 3710 0099 6B65726E 		.ascii	"kernel_stats\000"
 3710      656C5F73 
 3710      74617473 
 3710      00
 3711              	.LASF5:
 3712 00a6 5F5F7569 		.ascii	"__uint8_t\000"
 3712      6E74385F 
 3712      7400
 3713              	.LASF98:
 3714 00b0 706F7274 		.ascii	"port_intctx\000"
 3714      5F696E74 
 3714      63747800 
 3715              	.LASF60:
 3716 00bc 63685F74 		.ascii	"ch_threads_queue\000"
 3716      68726561 
 3716      64735F71 
 3716      75657565 
 3716      00
 3717              	.LASF80:
 3718 00cd 73797374 		.ascii	"system_debug_t\000"
 3718      656D5F64 
ARM GAS  /var/folders/d2/nstgp4h54kz7g1l847x_b8wc0000gn/T//cc6ckQq1.s 			page 67


 3718      65627567 
 3718      5F7400
 3719              	.LASF111:
 3720 00dc 776F7273 		.ascii	"worst\000"
 3720      7400
 3721              	.LASF114:
 3722 00e2 74696D65 		.ascii	"time_measurement_t\000"
 3722      5F6D6561 
 3722      73757265 
 3722      6D656E74 
 3722      5F7400
 3723              	.LASF15:
 3724 00f5 6C6F6E67 		.ascii	"long long unsigned int\000"
 3724      206C6F6E 
 3724      6720756E 
 3724      7369676E 
 3724      65642069 
 3725              	.LASF107:
 3726 010c 63685F74 		.ascii	"ch_trace_buffer_t\000"
 3726      72616365 
 3726      5F627566 
 3726      6665725F 
 3726      7400
 3727              	.LASF185:
 3728 011e 6368436F 		.ascii	"chCoreGetStatusX\000"
 3728      72654765 
 3728      74537461 
 3728      74757358 
 3728      00
 3729              	.LASF142:
 3730 012f 63685F74 		.ascii	"ch_threadsize\000"
 3730      68726561 
 3730      6473697A 
 3730      6500
 3731              	.LASF121:
 3732 013d 65786974 		.ascii	"exitcode\000"
 3732      636F6465 
 3732      00
 3733              	.LASF161:
 3734 0146 685F6672 		.ascii	"h_free\000"
 3734      656500
 3735              	.LASF178:
 3736 014d 74657374 		.ascii	"test\000"
 3736      00
 3737              	.LASF77:
 3738 0152 76697274 		.ascii	"virtual_timers_list_t\000"
 3738      75616C5F 
 3738      74696D65 
 3738      72735F6C 
 3738      6973745F 
 3739              	.LASF93:
 3740 0168 49544D5F 		.ascii	"ITM_RxBuffer\000"
 3740      52784275 
 3740      66666572 
 3740      00
 3741              	.LASF165:
 3742 0175 616C6967 		.ascii	"align\000"
ARM GAS  /var/folders/d2/nstgp4h54kz7g1l847x_b8wc0000gn/T//cc6ckQq1.s 			page 68


 3742      6E00
 3743              	.LASF22:
 3744 017b 72747469 		.ascii	"rttime_t\000"
 3744      6D655F74 
 3744      00
 3745              	.LASF36:
 3746 0184 705F7072 		.ascii	"p_prio\000"
 3746      696F00
 3747              	.LASF149:
 3748 018b 63665F6F 		.ascii	"cf_off_state\000"
 3748      66665F73 
 3748      74617465 
 3748      00
 3749              	.LASF170:
 3750 0198 74656172 		.ascii	"teardown\000"
 3750      646F776E 
 3750      00
 3751              	.LASF181:
 3752 01a1 70617474 		.ascii	"patternheap\000"
 3752      65726E68 
 3752      65617000 
 3753              	.LASF156:
 3754 01ad 6D757465 		.ascii	"mutex_t\000"
 3754      785F7400 
 3755              	.LASF1:
 3756 01b5 6C6F6E67 		.ascii	"long long int\000"
 3756      206C6F6E 
 3756      6720696E 
 3756      7400
 3757              	.LASF3:
 3758 01c3 7369676E 		.ascii	"signed char\000"
 3758      65642063 
 3758      68617200 
 3759              	.LASF162:
 3760 01cf 685F6D74 		.ascii	"h_mtx\000"
 3760      7800
 3761              	.LASF148:
 3762 01d5 63665F6F 		.ascii	"cf_off_stklimit\000"
 3762      66665F73 
 3762      746B6C69 
 3762      6D697400 
 3763              	.LASF150:
 3764 01e5 63665F6F 		.ascii	"cf_off_flags\000"
 3764      66665F66 
 3764      6C616773 
 3764      00
 3765              	.LASF53:
 3766 01f2 705F6D70 		.ascii	"p_mpool\000"
 3766      6F6F6C00 
 3767              	.LASF131:
 3768 01fa 6D5F7175 		.ascii	"m_queue\000"
 3768      65756500 
 3769              	.LASF189:
 3770 0202 63684865 		.ascii	"chHeapFree\000"
 3770      61704672 
 3770      656500
 3771              	.LASF89:
ARM GAS  /var/folders/d2/nstgp4h54kz7g1l847x_b8wc0000gn/T//cc6ckQq1.s 			page 69


 3772 020d 76746C69 		.ascii	"vtlist\000"
 3772      737400
 3773              	.LASF26:
 3774 0214 74736C69 		.ascii	"tslices_t\000"
 3774      6365735F 
 3774      7400
 3775              	.LASF123:
 3776 021e 77747472 		.ascii	"wttrp\000"
 3776      7000
 3777              	.LASF87:
 3778 0224 63685F73 		.ascii	"ch_system\000"
 3778      79737465 
 3778      6D00
 3779              	.LASF11:
 3780 022e 6C6F6E67 		.ascii	"long int\000"
 3780      20696E74 
 3780      00
 3781              	.LASF24:
 3782 0237 74737461 		.ascii	"tstate_t\000"
 3782      74655F74 
 3782      00
 3783              	.LASF158:
 3784 0240 6D656D6F 		.ascii	"memory_heap_t\000"
 3784      72795F68 
 3784      6561705F 
 3784      7400
 3785              	.LASF100:
 3786 024e 73655F74 		.ascii	"se_tp\000"
 3786      7000
 3787              	.LASF154:
 3788 0254 63686465 		.ascii	"chdebug_t\000"
 3788      6275675F 
 3788      7400
 3789              	.LASF174:
 3790 025e 62756666 		.ascii	"buffer\000"
 3790      657200
 3791              	.LASF38:
 3792 0265 705F6E65 		.ascii	"p_newer\000"
 3792      77657200 
 3793              	.LASF128:
 3794 026d 735F7175 		.ascii	"s_queue\000"
 3794      65756500 
 3795              	.LASF104:
 3796 0275 74625F73 		.ascii	"tb_size\000"
 3796      697A6500 
 3797              	.LASF66:
 3798 027d 725F6E65 		.ascii	"r_newer\000"
 3798      77657200 
 3799              	.LASF95:
 3800 0285 72656761 		.ascii	"regarm_t\000"
 3800      726D5F74 
 3800      00
 3801              	.LASF73:
 3802 028e 76745F70 		.ascii	"vt_prev\000"
 3802      72657600 
 3803              	.LASF72:
 3804 0296 76745F6E 		.ascii	"vt_next\000"
ARM GAS  /var/folders/d2/nstgp4h54kz7g1l847x_b8wc0000gn/T//cc6ckQq1.s 			page 70


 3804      65787400 
 3805              	.LASF81:
 3806 029e 63685F73 		.ascii	"ch_system_debug\000"
 3806      79737465 
 3806      6D5F6465 
 3806      62756700 
 3807              	.LASF134:
 3808 02ae 6D5F636E 		.ascii	"m_cnt\000"
 3808      7400
 3809              	.LASF183:
 3810 02b4 68656170 		.ascii	"heap1_execute\000"
 3810      315F6578 
 3810      65637574 
 3810      6500
 3811              	.LASF84:
 3812 02c2 6C6F636B 		.ascii	"lock_cnt\000"
 3812      5F636E74 
 3812      00
 3813              	.LASF92:
 3814 02cb 69646C65 		.ascii	"idle_thread_wa\000"
 3814      5F746872 
 3814      6561645F 
 3814      776100
 3815              	.LASF30:
 3816 02da 636E745F 		.ascii	"cnt_t\000"
 3816      7400
 3817              	.LASF41:
 3818 02e0 705F7374 		.ascii	"p_stklimit\000"
 3818      6B6C696D 
 3818      697400
 3819              	.LASF0:
 3820 02eb 756E7369 		.ascii	"unsigned int\000"
 3820      676E6564 
 3820      20696E74 
 3820      00
 3821              	.LASF191:
 3822 02f8 474E5520 		.ascii	"GNU C11 7.2.1 20170904 (release) [ARM/embedded-7-br"
 3822      43313120 
 3822      372E322E 
 3822      31203230 
 3822      31373039 
 3823 032b 616E6368 		.ascii	"anch revision 255204] -mcpu=cortex-m4 -mfloat-abi=h"
 3823      20726576 
 3823      6973696F 
 3823      6E203235 
 3823      35323034 
 3824 035e 61726420 		.ascii	"ard -mfpu=fpv4-sp-d16 -mno-thumb-interwork -mthumb "
 3824      2D6D6670 
 3824      753D6670 
 3824      76342D73 
 3824      702D6431 
 3825 0391 2D676764 		.ascii	"-ggdb -O2 -fomit-frame-pointer -falign-functions=16"
 3825      62202D4F 
 3825      32202D66 
 3825      6F6D6974 
 3825      2D667261 
 3826 03c4 202D666E 		.ascii	" -fno-strict-aliasing -fstack-protector-all -ffunct"
ARM GAS  /var/folders/d2/nstgp4h54kz7g1l847x_b8wc0000gn/T//cc6ckQq1.s 			page 71


 3826      6F2D7374 
 3826      72696374 
 3826      2D616C69 
 3826      6173696E 
 3827 03f7 696F6E2D 		.ascii	"ion-sections -fdata-sections -fno-common -fsingle-p"
 3827      73656374 
 3827      696F6E73 
 3827      202D6664 
 3827      6174612D 
 3828 042a 72656369 		.ascii	"recision-constant\000"
 3828      73696F6E 
 3828      2D636F6E 
 3828      7374616E 
 3828      7400
 3829              	.LASF17:
 3830 043c 75696E74 		.ascii	"uint16_t\000"
 3830      31365F74 
 3830      00
 3831              	.LASF94:
 3832 0445 53797374 		.ascii	"SystemCoreClock\000"
 3832      656D436F 
 3832      7265436C 
 3832      6F636B00 
 3833              	.LASF46:
 3834 0455 705F7469 		.ascii	"p_time\000"
 3834      6D6500
 3835              	.LASF124:
 3836 045c 77747365 		.ascii	"wtsemp\000"
 3836      6D7000
 3837              	.LASF146:
 3838 0463 63665F6F 		.ascii	"cf_off_older\000"
 3838      66665F6F 
 3838      6C646572 
 3838      00
 3839              	.LASF74:
 3840 0470 76745F64 		.ascii	"vt_delta\000"
 3840      656C7461 
 3840      00
 3841              	.LASF48:
 3842 0479 705F6D73 		.ascii	"p_msgqueue\000"
 3842      67717565 
 3842      756500
 3843              	.LASF155:
 3844 0484 63685F64 		.ascii	"ch_debug\000"
 3844      65627567 
 3844      00
 3845              	.LASF115:
 3846 048d 6E5F6972 		.ascii	"n_irq\000"
 3846      7100
 3847              	.LASF129:
 3848 0493 735F636E 		.ascii	"s_cnt\000"
 3848      7400
 3849              	.LASF168:
 3850 0499 6E616D65 		.ascii	"name\000"
 3850      00
 3851              	.LASF110:
 3852 049e 62657374 		.ascii	"best\000"
ARM GAS  /var/folders/d2/nstgp4h54kz7g1l847x_b8wc0000gn/T//cc6ckQq1.s 			page 72


 3852      00
 3853              	.LASF9:
 3854 04a3 73686F72 		.ascii	"short unsigned int\000"
 3854      7420756E 
 3854      7369676E 
 3854      65642069 
 3854      6E7400
 3855              	.LASF119:
 3856 04b6 6B65726E 		.ascii	"kernel_stats_t\000"
 3856      656C5F73 
 3856      74617473 
 3856      5F7400
 3857              	.LASF57:
 3858 04c5 63685F74 		.ascii	"ch_thread\000"
 3858      68726561 
 3858      6400
 3859              	.LASF90:
 3860 04cf 6D61696E 		.ascii	"mainthread\000"
 3860      74687265 
 3860      616400
 3861              	.LASF28:
 3862 04da 6D73675F 		.ascii	"msg_t\000"
 3862      7400
 3863              	.LASF112:
 3864 04e0 6C617374 		.ascii	"last\000"
 3864      00
 3865              	.LASF31:
 3866 04e5 75636E74 		.ascii	"ucnt_t\000"
 3866      5F7400
 3867              	.LASF86:
 3868 04ec 63685F73 		.ascii	"ch_system_t\000"
 3868      79737465 
 3868      6D5F7400 
 3869              	.LASF144:
 3870 04f8 63665F6F 		.ascii	"cf_off_ctx\000"
 3870      66665F63 
 3870      747800
 3871              	.LASF153:
 3872 0503 63665F6F 		.ascii	"cf_off_time\000"
 3872      66665F74 
 3872      696D6500 
 3873              	.LASF118:
 3874 050f 6D5F6372 		.ascii	"m_crit_isr\000"
 3874      69745F69 
 3874      737200
 3875              	.LASF62:
 3876 051a 63685F72 		.ascii	"ch_ready_list\000"
 3876      65616479 
 3876      5F6C6973 
 3876      7400
 3877              	.LASF29:
 3878 0528 6576656E 		.ascii	"eventmask_t\000"
 3878      746D6173 
 3878      6B5F7400 
 3879              	.LASF10:
 3880 0534 5F5F696E 		.ascii	"__int32_t\000"
 3880      7433325F 
ARM GAS  /var/folders/d2/nstgp4h54kz7g1l847x_b8wc0000gn/T//cc6ckQq1.s 			page 73


 3880      7400
 3881              	.LASF96:
 3882 053e 73746B61 		.ascii	"stkalign_t\000"
 3882      6C69676E 
 3882      5F7400
 3883              	.LASF180:
 3884 0549 74657374 		.ascii	"testheap1\000"
 3884      68656170 
 3884      3100
 3885              	.LASF190:
 3886 0553 63684865 		.ascii	"chHeapObjectInit\000"
 3886      61704F62 
 3886      6A656374 
 3886      496E6974 
 3886      00
 3887              	.LASF137:
 3888 0564 63685F7A 		.ascii	"ch_zero\000"
 3888      65726F00 
 3889              	.LASF151:
 3890 056c 63665F6F 		.ascii	"cf_off_refs\000"
 3890      66665F72 
 3890      65667300 
 3891              	.LASF64:
 3892 0578 725F7072 		.ascii	"r_prio\000"
 3892      696F00
 3893              	.LASF47:
 3894 057f 705F7761 		.ascii	"p_waiting\000"
 3894      6974696E 
 3894      6700
 3895              	.LASF21:
 3896 0589 7274636E 		.ascii	"rtcnt_t\000"
 3896      745F7400 
 3897              	.LASF78:
 3898 0591 63685F76 		.ascii	"ch_virtual_timers_list\000"
 3898      69727475 
 3898      616C5F74 
 3898      696D6572 
 3898      735F6C69 
 3899              	.LASF2:
 3900 05a8 6C6F6E67 		.ascii	"long double\000"
 3900      20646F75 
 3900      626C6500 
 3901              	.LASF141:
 3902 05b4 63685F74 		.ascii	"ch_timesize\000"
 3902      696D6573 
 3902      697A6500 
 3903              	.LASF105:
 3904 05c0 74625F70 		.ascii	"tb_ptr\000"
 3904      747200
 3905              	.LASF103:
 3906 05c7 63685F73 		.ascii	"ch_swc_event_t\000"
 3906      77635F65 
 3906      76656E74 
 3906      5F7400
 3907              	.LASF147:
 3908 05d6 63665F6F 		.ascii	"cf_off_name\000"
 3908      66665F6E 
ARM GAS  /var/folders/d2/nstgp4h54kz7g1l847x_b8wc0000gn/T//cc6ckQq1.s 			page 74


 3908      616D6500 
 3909              	.LASF39:
 3910 05e2 705F6F6C 		.ascii	"p_older\000"
 3910      64657200 
 3911              	.LASF65:
 3912 05ea 725F6374 		.ascii	"r_ctx\000"
 3912      7800
 3913              	.LASF37:
 3914 05f0 705F6374 		.ascii	"p_ctx\000"
 3914      7800
 3915              	.LASF109:
 3916 05f6 746D5F63 		.ascii	"tm_calibration_t\000"
 3916      616C6962 
 3916      72617469 
 3916      6F6E5F74 
 3916      00
 3917              	.LASF169:
 3918 0607 73657475 		.ascii	"setup\000"
 3918      7000
 3919              	.LASF68:
 3920 060d 725F6375 		.ascii	"r_current\000"
 3920      7272656E 
 3920      7400
 3921              	.LASF67:
 3922 0617 725F6F6C 		.ascii	"r_older\000"
 3922      64657200 
 3923              	.LASF14:
 3924 061f 5F5F7569 		.ascii	"__uint64_t\000"
 3924      6E743634 
 3924      5F7400
 3925              	.LASF113:
 3926 062a 63756D75 		.ascii	"cumulative\000"
 3926      6C617469 
 3926      766500
 3927              	.LASF25:
 3928 0635 74726566 		.ascii	"trefs_t\000"
 3928      735F7400 
 3929              	.LASF106:
 3930 063d 74625F62 		.ascii	"tb_buffer\000"
 3930      75666665 
 3930      7200
 3931              	.LASF140:
 3932 0647 63685F70 		.ascii	"ch_ptrsize\000"
 3932      74727369 
 3932      7A6500
 3933              	.LASF70:
 3934 0652 76697274 		.ascii	"virtual_timer_t\000"
 3934      75616C5F 
 3934      74696D65 
 3934      725F7400 
 3935              	.LASF35:
 3936 0662 705F7072 		.ascii	"p_prev\000"
 3936      657600
 3937              	.LASF171:
 3938 0669 65786563 		.ascii	"execute\000"
 3938      75746500 
 3939              	.LASF27:
ARM GAS  /var/folders/d2/nstgp4h54kz7g1l847x_b8wc0000gn/T//cc6ckQq1.s 			page 75


 3940 0671 74707269 		.ascii	"tprio_t\000"
 3940      6F5F7400 
 3941              	.LASF184:
 3942 0679 68656170 		.ascii	"heap1_setup\000"
 3942      315F7365 
 3942      74757000 
 3943              	.LASF116:
 3944 0685 6E5F6374 		.ascii	"n_ctxswc\000"
 3944      78737763 
 3944      00
 3945              	.LASF176:
 3946 068e 5F426F6F 		.ascii	"_Bool\000"
 3946      6C00
 3947              	.LASF18:
 3948 0694 696E7433 		.ascii	"int32_t\000"
 3948      325F7400 
 3949              	.LASF6:
 3950 069c 756E7369 		.ascii	"unsigned char\000"
 3950      676E6564 
 3950      20636861 
 3950      7200
 3951              	.LASF172:
 3952 06aa 68656170 		.ascii	"heap_header\000"
 3952      5F686561 
 3952      64657200 
 3953              	.LASF51:
 3954 06b6 705F6D74 		.ascii	"p_mtxlist\000"
 3954      786C6973 
 3954      7400
 3955              	.LASF7:
 3956 06c0 73686F72 		.ascii	"short int\000"
 3956      7420696E 
 3956      7400
 3957              	.LASF42:
 3958 06ca 705F7374 		.ascii	"p_state\000"
 3958      61746500 
 3959              	.LASF45:
 3960 06d2 705F7072 		.ascii	"p_preempt\000"
 3960      65656D70 
 3960      7400
 3961              	.LASF177:
 3962 06dc 74687265 		.ascii	"threads\000"
 3962      61647300 
 3963              	.LASF179:
 3964 06e4 74657374 		.ascii	"test_timer_done\000"
 3964      5F74696D 
 3964      65725F64 
 3964      6F6E6500 
 3965              	.LASF126:
 3966 06f4 65776D61 		.ascii	"ewmask\000"
 3966      736B00
 3967              	.LASF34:
 3968 06fb 705F6E65 		.ascii	"p_next\000"
 3968      787400
 3969              	.LASF23:
 3970 0702 746D6F64 		.ascii	"tmode_t\000"
 3970      655F7400 
ARM GAS  /var/folders/d2/nstgp4h54kz7g1l847x_b8wc0000gn/T//cc6ckQq1.s 			page 76


 3971              	.LASF152:
 3972 070a 63665F6F 		.ascii	"cf_off_preempt\000"
 3972      66665F70 
 3972      7265656D 
 3972      707400
 3973              	.LASF43:
 3974 0719 705F666C 		.ascii	"p_flags\000"
 3974      61677300 
 3975              	.LASF54:
 3976 0721 705F7374 		.ascii	"p_stats\000"
 3976      61747300 
 3977              	.LASF59:
 3978 0729 74687265 		.ascii	"threads_queue_t\000"
 3978      6164735F 
 3978      71756575 
 3978      655F7400 
 3979              	.LASF187:
 3980 0739 63684865 		.ascii	"chHeapAlloc\000"
 3980      6170416C 
 3980      6C6F6300 
 3981              	.LASF145:
 3982 0745 63665F6F 		.ascii	"cf_off_newer\000"
 3982      66665F6E 
 3982      65776572 
 3982      00
 3983              	.LASF194:
 3984 0752 5F5F7374 		.ascii	"__stack_chk_fail\000"
 3984      61636B5F 
 3984      63686B5F 
 3984      6661696C 
 3984      00
 3985              	.LASF127:
 3986 0763 63685F73 		.ascii	"ch_semaphore\000"
 3986      656D6170 
 3986      686F7265 
 3986      00
 3987              	.LASF50:
 3988 0770 705F6570 		.ascii	"p_epending\000"
 3988      656E6469 
 3988      6E6700
 3989              	.LASF19:
 3990 077b 75696E74 		.ascii	"uint32_t\000"
 3990      33325F74 
 3990      00
 3991              	.LASF143:
 3992 0784 63665F6F 		.ascii	"cf_off_prio\000"
 3992      66665F70 
 3992      72696F00 
 3993              	.LASF63:
 3994 0790 725F7175 		.ascii	"r_queue\000"
 3994      65756500 
 3995              	.LASF58:
 3996 0798 63685F74 		.ascii	"ch_threads_list\000"
 3996      68726561 
 3996      64735F6C 
 3996      69737400 
 3997              	.LASF138:
ARM GAS  /var/folders/d2/nstgp4h54kz7g1l847x_b8wc0000gn/T//cc6ckQq1.s 			page 77


 3998 07a8 63685F73 		.ascii	"ch_size\000"
 3998      697A6500 
 3999              	.LASF164:
 4000 07b0 68656170 		.ascii	"heap\000"
 4000      00
 4001              	.LASF13:
 4002 07b5 6C6F6E67 		.ascii	"long unsigned int\000"
 4002      20756E73 
 4002      69676E65 
 4002      6420696E 
 4002      7400
 4003              	.LASF135:
 4004 07c7 63686172 		.ascii	"char\000"
 4004      00
 4005              	.LASF125:
 4006 07cc 77746D74 		.ascii	"wtmtxp\000"
 4006      787000
 4007              	.LASF49:
 4008 07d3 705F6D73 		.ascii	"p_msg\000"
 4008      6700
 4009              	.LASF8:
 4010 07d9 5F5F7569 		.ascii	"__uint16_t\000"
 4010      6E743136 
 4010      5F7400
 4011              	.LASF33:
 4012 07e4 74687265 		.ascii	"thread_t\000"
 4012      61645F74 
 4012      00
 4013              	.LASF186:
 4014 07ed 63684865 		.ascii	"chHeapStatus\000"
 4014      61705374 
 4014      61747573 
 4014      00
 4015              	.LASF133:
 4016 07fa 6D5F6E65 		.ascii	"m_next\000"
 4016      787400
 4017              	.LASF32:
 4018 0801 73797374 		.ascii	"systime_t\000"
 4018      696D655F 
 4018      7400
 4019              	.LASF52:
 4020 080b 705F7265 		.ascii	"p_realprio\000"
 4020      616C7072 
 4020      696F00
 4021              	.LASF69:
 4022 0816 76746675 		.ascii	"vtfunc_t\000"
 4022      6E635F74 
 4022      00
 4023              	.LASF12:
 4024 081f 5F5F7569 		.ascii	"__uint32_t\000"
 4024      6E743332 
 4024      5F7400
 4025              	.LASF82:
 4026 082a 70616E69 		.ascii	"panic_msg\000"
 4026      635F6D73 
 4026      6700
 4027              	.LASF175:
ARM GAS  /var/folders/d2/nstgp4h54kz7g1l847x_b8wc0000gn/T//cc6ckQq1.s 			page 78


 4028 0834 74657374 		.ascii	"test_global_fail\000"
 4028      5F676C6F 
 4028      62616C5F 
 4028      6661696C 
 4028      00
 4029              	.LASF108:
 4030 0845 6F666673 		.ascii	"offset\000"
 4030      657400
 4031              	.LASF97:
 4032 084c 636F6E74 		.ascii	"context\000"
 4032      65787400 
 4033              	.LASF71:
 4034 0854 63685F76 		.ascii	"ch_virtual_timer\000"
 4034      69727475 
 4034      616C5F74 
 4034      696D6572 
 4034      00
 4035              	.LASF157:
 4036 0865 6D656D67 		.ascii	"memgetfunc_t\000"
 4036      65746675 
 4036      6E635F74 
 4036      00
 4037              	.LASF76:
 4038 0872 76745F70 		.ascii	"vt_par\000"
 4038      617200
 4039              	.LASF167:
 4040 0879 74657374 		.ascii	"testcase\000"
 4040      63617365 
 4040      00
 4041              	.LASF173:
 4042 0882 74657374 		.ascii	"test_buffers\000"
 4042      5F627566 
 4042      66657273 
 4042      00
 4043              	.LASF130:
 4044 088f 63685F6D 		.ascii	"ch_mutex\000"
 4044      75746578 
 4044      00
 4045              	.LASF44:
 4046 0898 705F7265 		.ascii	"p_refs\000"
 4046      667300
 4047              	.LASF83:
 4048 089f 6973725F 		.ascii	"isr_cnt\000"
 4048      636E7400 
 4049              	.LASF102:
 4050 08a7 73655F73 		.ascii	"se_state\000"
 4050      74617465 
 4050      00
 4051              	.LASF88:
 4052 08b0 726C6973 		.ascii	"rlist\000"
 4052      7400
 4053              	.LASF16:
 4054 08b6 75696E74 		.ascii	"uint8_t\000"
 4054      385F7400 
 4055              	.LASF182:
 4056 08be 74657374 		.ascii	"test_heap\000"
 4056      5F686561 
ARM GAS  /var/folders/d2/nstgp4h54kz7g1l847x_b8wc0000gn/T//cc6ckQq1.s 			page 79


 4056      7000
 4057              	.LASF160:
 4058 08c8 685F7072 		.ascii	"h_provider\000"
 4058      6F766964 
 4058      657200
 4059              	.LASF55:
 4060 08d3 74687265 		.ascii	"thread_reference_t\000"
 4060      61645F72 
 4060      65666572 
 4060      656E6365 
 4060      5F7400
 4061              	.LASF122:
 4062 08e6 77746F62 		.ascii	"wtobjp\000"
 4062      6A7000
 4063              	.LASF40:
 4064 08ed 705F6E61 		.ascii	"p_name\000"
 4064      6D6500
 4065              	.LASF166:
 4066 08f4 73697A65 		.ascii	"size\000"
 4066      00
 4067              	.LASF188:
 4068 08f9 5F746573 		.ascii	"_test_assert\000"
 4068      745F6173 
 4068      73657274 
 4068      00
 4069              	.LASF79:
 4070 0906 76745F73 		.ascii	"vt_systime\000"
 4070      79737469 
 4070      6D6500
 4071              	.LASF85:
 4072 0911 74726163 		.ascii	"trace_buffer\000"
 4072      655F6275 
 4072      66666572 
 4072      00
 4073              	.LASF139:
 4074 091e 63685F76 		.ascii	"ch_version\000"
 4074      65727369 
 4074      6F6E00
 4075              	.LASF192:
 4076 0929 2E2E2F65 		.ascii	"../e-puck2_main-processor/ChibiOS//test/rt/testheap"
 4076      2D707563 
 4076      6B325F6D 
 4076      61696E2D 
 4076      70726F63 
 4077 095c 2E6300   		.ascii	".c\000"
 4078              	.LASF117:
 4079 095f 6D5F6372 		.ascii	"m_crit_thd\000"
 4079      69745F74 
 4079      686400
 4080              	.LASF132:
 4081 096a 6D5F6F77 		.ascii	"m_owner\000"
 4081      6E657200 
 4082              	.LASF101:
 4083 0972 73655F77 		.ascii	"se_wtobjp\000"
 4083      746F626A 
 4083      7000
 4084              	.LASF136:
ARM GAS  /var/folders/d2/nstgp4h54kz7g1l847x_b8wc0000gn/T//cc6ckQq1.s 			page 80


 4085 097c 63685F69 		.ascii	"ch_identifier\000"
 4085      64656E74 
 4085      69666965 
 4085      7200
 4086              	.LASF75:
 4087 098a 76745F66 		.ascii	"vt_func\000"
 4087      756E6300 
 4088              	.LASF159:
 4089 0992 6D656D6F 		.ascii	"memory_heap\000"
 4089      72795F68 
 4089      65617000 
 4090              		.ident	"GCC: (GNU Tools for Arm Embedded Processors 7-2017-q4-major) 7.2.1 20170904 (release) [ARM
ARM GAS  /var/folders/d2/nstgp4h54kz7g1l847x_b8wc0000gn/T//cc6ckQq1.s 			page 81


DEFINED SYMBOLS
                            *ABS*:0000000000000000 testheap.c
/var/folders/d2/nstgp4h54kz7g1l847x_b8wc0000gn/T//cc6ckQq1.s:18     .text.heap1_execute:0000000000000000 $t
/var/folders/d2/nstgp4h54kz7g1l847x_b8wc0000gn/T//cc6ckQq1.s:25     .text.heap1_execute:0000000000000000 heap1_execute
/var/folders/d2/nstgp4h54kz7g1l847x_b8wc0000gn/T//cc6ckQq1.s:423    .text.heap1_execute:0000000000000258 $d
/var/folders/d2/nstgp4h54kz7g1l847x_b8wc0000gn/T//cc6ckQq1.s:429    .text.heap1_setup:0000000000000000 $t
/var/folders/d2/nstgp4h54kz7g1l847x_b8wc0000gn/T//cc6ckQq1.s:436    .text.heap1_setup:0000000000000000 heap1_setup
/var/folders/d2/nstgp4h54kz7g1l847x_b8wc0000gn/T//cc6ckQq1.s:477    .text.heap1_setup:0000000000000028 $d
/var/folders/d2/nstgp4h54kz7g1l847x_b8wc0000gn/T//cc6ckQq1.s:496    .rodata.patternheap:0000000000000000 patternheap
/var/folders/d2/nstgp4h54kz7g1l847x_b8wc0000gn/T//cc6ckQq1.s:507    .rodata.testheap1:0000000000000000 testheap1
/var/folders/d2/nstgp4h54kz7g1l847x_b8wc0000gn/T//cc6ckQq1.s:486    .bss.test_heap:0000000000000000 $d
/var/folders/d2/nstgp4h54kz7g1l847x_b8wc0000gn/T//cc6ckQq1.s:490    .bss.test_heap:0000000000000000 test_heap
/var/folders/d2/nstgp4h54kz7g1l847x_b8wc0000gn/T//cc6ckQq1.s:493    .rodata.patternheap:0000000000000000 $d
/var/folders/d2/nstgp4h54kz7g1l847x_b8wc0000gn/T//cc6ckQq1.s:500    .rodata.str1.4:0000000000000000 $d
/var/folders/d2/nstgp4h54kz7g1l847x_b8wc0000gn/T//cc6ckQq1.s:504    .rodata.testheap1:0000000000000000 $d

UNDEFINED SYMBOLS
chCoreGetStatusX
chHeapStatus
chHeapAlloc
_test_assert
chHeapFree
__stack_chk_fail
__stack_chk_guard
chHeapObjectInit
test
