ARM GAS  /var/folders/d2/nstgp4h54kz7g1l847x_b8wc0000gn/T//ccAw0sCv.s 			page 1


   1              		.cpu cortex-m4
   2              		.eabi_attribute 27, 1
   3              		.eabi_attribute 28, 1
   4              		.eabi_attribute 20, 1
   5              		.eabi_attribute 21, 1
   6              		.eabi_attribute 23, 3
   7              		.eabi_attribute 24, 1
   8              		.eabi_attribute 25, 1
   9              		.eabi_attribute 26, 1
  10              		.eabi_attribute 30, 6
  11              		.eabi_attribute 34, 1
  12              		.eabi_attribute 18, 4
  13              		.file	"testmtx.c"
  14              		.section	.text.port_lock,"ax",%progbits
  15              		.align	1
  16              		.syntax unified
  17              		.thumb
  18              		.thumb_func
  19              		.fpu fpv4-sp-d16
  20              		.type	port_lock, %function
  21              	port_lock:
  22              		@ args = 0, pretend = 0, frame = 8
  23              		@ frame_needed = 1, uses_anonymous_args = 0
  24              		@ link register save eliminated.
  25 0000 80B4     		push	{r7}
  26 0002 83B0     		sub	sp, sp, #12
  27 0004 00AF     		add	r7, sp, #0
  28 0006 2023     		movs	r3, #32
  29 0008 7B60     		str	r3, [r7, #4]
  30 000a 7B68     		ldr	r3, [r7, #4]
  31              		.syntax unified
  32              	@ 546 "../e-puck2_main-processor/ChibiOS//os/ext/CMSIS/include/core_cmFunc.h" 1
  33 000c 83F31188 		MSR basepri, r3
  34              	@ 0 "" 2
  35              		.thumb
  36              		.syntax unified
  37 0010 00BF     		nop
  38 0012 0C37     		adds	r7, r7, #12
  39 0014 BD46     		mov	sp, r7
  40              		@ sp needed
  41 0016 5DF8047B 		ldr	r7, [sp], #4
  42 001a 7047     		bx	lr
  43              		.size	port_lock, .-port_lock
  44              		.section	.text.port_unlock,"ax",%progbits
  45              		.align	1
  46              		.syntax unified
  47              		.thumb
  48              		.thumb_func
  49              		.fpu fpv4-sp-d16
  50              		.type	port_unlock, %function
  51              	port_unlock:
  52              		@ args = 0, pretend = 0, frame = 8
  53              		@ frame_needed = 1, uses_anonymous_args = 0
  54              		@ link register save eliminated.
  55 0000 80B4     		push	{r7}
  56 0002 83B0     		sub	sp, sp, #12
  57 0004 00AF     		add	r7, sp, #0
ARM GAS  /var/folders/d2/nstgp4h54kz7g1l847x_b8wc0000gn/T//ccAw0sCv.s 			page 2


  58 0006 0023     		movs	r3, #0
  59 0008 7B60     		str	r3, [r7, #4]
  60 000a 7B68     		ldr	r3, [r7, #4]
  61              		.syntax unified
  62              	@ 546 "../e-puck2_main-processor/ChibiOS//os/ext/CMSIS/include/core_cmFunc.h" 1
  63 000c 83F31188 		MSR basepri, r3
  64              	@ 0 "" 2
  65              		.thumb
  66              		.syntax unified
  67 0010 00BF     		nop
  68 0012 0C37     		adds	r7, r7, #12
  69 0014 BD46     		mov	sp, r7
  70              		@ sp needed
  71 0016 5DF8047B 		ldr	r7, [sp], #4
  72 001a 7047     		bx	lr
  73              		.size	port_unlock, .-port_unlock
  74              		.section	.text.queue_isempty,"ax",%progbits
  75              		.align	1
  76              		.syntax unified
  77              		.thumb
  78              		.thumb_func
  79              		.fpu fpv4-sp-d16
  80              		.type	queue_isempty, %function
  81              	queue_isempty:
  82              		@ args = 0, pretend = 0, frame = 8
  83              		@ frame_needed = 1, uses_anonymous_args = 0
  84              		@ link register save eliminated.
  85 0000 80B4     		push	{r7}
  86 0002 83B0     		sub	sp, sp, #12
  87 0004 00AF     		add	r7, sp, #0
  88 0006 7860     		str	r0, [r7, #4]
  89 0008 7B68     		ldr	r3, [r7, #4]
  90 000a 1B68     		ldr	r3, [r3]
  91 000c 7A68     		ldr	r2, [r7, #4]
  92 000e 9A42     		cmp	r2, r3
  93 0010 0CBF     		ite	eq
  94 0012 0123     		moveq	r3, #1
  95 0014 0023     		movne	r3, #0
  96 0016 DBB2     		uxtb	r3, r3
  97 0018 1846     		mov	r0, r3
  98 001a 0C37     		adds	r7, r7, #12
  99 001c BD46     		mov	sp, r7
 100              		@ sp needed
 101 001e 5DF8047B 		ldr	r7, [sp], #4
 102 0022 7047     		bx	lr
 103              		.size	queue_isempty, .-queue_isempty
 104              		.section	.text.chSysLock,"ax",%progbits
 105              		.align	1
 106              		.syntax unified
 107              		.thumb
 108              		.thumb_func
 109              		.fpu fpv4-sp-d16
 110              		.type	chSysLock, %function
 111              	chSysLock:
 112              		@ args = 0, pretend = 0, frame = 0
 113              		@ frame_needed = 1, uses_anonymous_args = 0
 114 0000 80B5     		push	{r7, lr}
ARM GAS  /var/folders/d2/nstgp4h54kz7g1l847x_b8wc0000gn/T//ccAw0sCv.s 			page 3


 115 0002 00AF     		add	r7, sp, #0
 116 0004 FFF7FEFF 		bl	port_lock
 117 0008 FFF7FEFF 		bl	_stats_start_measure_crit_thd
 118 000c FFF7FEFF 		bl	_dbg_check_lock
 119 0010 00BF     		nop
 120 0012 80BD     		pop	{r7, pc}
 121              		.size	chSysLock, .-chSysLock
 122              		.section	.text.chSysUnlock,"ax",%progbits
 123              		.align	1
 124              		.syntax unified
 125              		.thumb
 126              		.thumb_func
 127              		.fpu fpv4-sp-d16
 128              		.type	chSysUnlock, %function
 129              	chSysUnlock:
 130              		@ args = 0, pretend = 0, frame = 0
 131              		@ frame_needed = 1, uses_anonymous_args = 0
 132 0000 80B5     		push	{r7, lr}
 133 0002 00AF     		add	r7, sp, #0
 134 0004 FFF7FEFF 		bl	_dbg_check_unlock
 135 0008 FFF7FEFF 		bl	_stats_stop_measure_crit_thd
 136 000c 094B     		ldr	r3, .L8
 137 000e 1B68     		ldr	r3, [r3]
 138 0010 084A     		ldr	r2, .L8
 139 0012 9342     		cmp	r3, r2
 140 0014 0AD0     		beq	.L7
 141 0016 074B     		ldr	r3, .L8
 142 0018 9B69     		ldr	r3, [r3, #24]
 143 001a 9A68     		ldr	r2, [r3, #8]
 144 001c 054B     		ldr	r3, .L8
 145 001e 1B68     		ldr	r3, [r3]
 146 0020 9B68     		ldr	r3, [r3, #8]
 147 0022 9A42     		cmp	r2, r3
 148 0024 02D2     		bcs	.L7
 149 0026 0448     		ldr	r0, .L8+4
 150 0028 FFF7FEFF 		bl	chSysHalt
 151              	.L7:
 152 002c FFF7FEFF 		bl	port_unlock
 153 0030 00BF     		nop
 154 0032 80BD     		pop	{r7, pc}
 155              	.L9:
 156              		.align	2
 157              	.L8:
 158 0034 00000000 		.word	ch
 159 0038 00000000 		.word	__func__.7153
 160              		.size	chSysUnlock, .-chSysUnlock
 161              		.section	.text.chVTGetSystemTimeX,"ax",%progbits
 162              		.align	1
 163              		.syntax unified
 164              		.thumb
 165              		.thumb_func
 166              		.fpu fpv4-sp-d16
 167              		.type	chVTGetSystemTimeX, %function
 168              	chVTGetSystemTimeX:
 169              		@ args = 0, pretend = 0, frame = 0
 170              		@ frame_needed = 1, uses_anonymous_args = 0
 171              		@ link register save eliminated.
ARM GAS  /var/folders/d2/nstgp4h54kz7g1l847x_b8wc0000gn/T//ccAw0sCv.s 			page 4


 172 0000 80B4     		push	{r7}
 173 0002 00AF     		add	r7, sp, #0
 174 0004 034B     		ldr	r3, .L12
 175 0006 9B6A     		ldr	r3, [r3, #40]
 176 0008 1846     		mov	r0, r3
 177 000a BD46     		mov	sp, r7
 178              		@ sp needed
 179 000c 5DF8047B 		ldr	r7, [sp], #4
 180 0010 7047     		bx	lr
 181              	.L13:
 182 0012 00BF     		.align	2
 183              	.L12:
 184 0014 00000000 		.word	ch
 185              		.size	chVTGetSystemTimeX, .-chVTGetSystemTimeX
 186              		.section	.text.chVTGetSystemTime,"ax",%progbits
 187              		.align	1
 188              		.syntax unified
 189              		.thumb
 190              		.thumb_func
 191              		.fpu fpv4-sp-d16
 192              		.type	chVTGetSystemTime, %function
 193              	chVTGetSystemTime:
 194              		@ args = 0, pretend = 0, frame = 8
 195              		@ frame_needed = 1, uses_anonymous_args = 0
 196 0000 80B5     		push	{r7, lr}
 197 0002 82B0     		sub	sp, sp, #8
 198 0004 00AF     		add	r7, sp, #0
 199 0006 FFF7FEFF 		bl	chSysLock
 200 000a FFF7FEFF 		bl	chVTGetSystemTimeX
 201 000e 7860     		str	r0, [r7, #4]
 202 0010 FFF7FEFF 		bl	chSysUnlock
 203 0014 7B68     		ldr	r3, [r7, #4]
 204 0016 1846     		mov	r0, r3
 205 0018 0837     		adds	r7, r7, #8
 206 001a BD46     		mov	sp, r7
 207              		@ sp needed
 208 001c 80BD     		pop	{r7, pc}
 209              		.size	chVTGetSystemTime, .-chVTGetSystemTime
 210              		.section	.text.chThdGetSelfX,"ax",%progbits
 211              		.align	1
 212              		.syntax unified
 213              		.thumb
 214              		.thumb_func
 215              		.fpu fpv4-sp-d16
 216              		.type	chThdGetSelfX, %function
 217              	chThdGetSelfX:
 218              		@ args = 0, pretend = 0, frame = 0
 219              		@ frame_needed = 1, uses_anonymous_args = 0
 220              		@ link register save eliminated.
 221 0000 80B4     		push	{r7}
 222 0002 00AF     		add	r7, sp, #0
 223 0004 034B     		ldr	r3, .L18
 224 0006 9B69     		ldr	r3, [r3, #24]
 225 0008 1846     		mov	r0, r3
 226 000a BD46     		mov	sp, r7
 227              		@ sp needed
 228 000c 5DF8047B 		ldr	r7, [sp], #4
ARM GAS  /var/folders/d2/nstgp4h54kz7g1l847x_b8wc0000gn/T//ccAw0sCv.s 			page 5


 229 0010 7047     		bx	lr
 230              	.L19:
 231 0012 00BF     		.align	2
 232              	.L18:
 233 0014 00000000 		.word	ch
 234              		.size	chThdGetSelfX, .-chThdGetSelfX
 235              		.section	.text.chThdGetPriorityX,"ax",%progbits
 236              		.align	1
 237              		.syntax unified
 238              		.thumb
 239              		.thumb_func
 240              		.fpu fpv4-sp-d16
 241              		.type	chThdGetPriorityX, %function
 242              	chThdGetPriorityX:
 243              		@ args = 0, pretend = 0, frame = 0
 244              		@ frame_needed = 1, uses_anonymous_args = 0
 245 0000 80B5     		push	{r7, lr}
 246 0002 00AF     		add	r7, sp, #0
 247 0004 FFF7FEFF 		bl	chThdGetSelfX
 248 0008 0346     		mov	r3, r0
 249 000a 9B68     		ldr	r3, [r3, #8]
 250 000c 1846     		mov	r0, r3
 251 000e 80BD     		pop	{r7, pc}
 252              		.size	chThdGetPriorityX, .-chThdGetPriorityX
 253              		.section	.data.m1,"aw",%progbits
 254              		.align	2
 255              		.type	m1, %object
 256              		.size	m1, 20
 257              	m1:
 258 0000 00000000 		.word	m1
 259 0004 00000000 		.word	m1
 260 0008 00000000 		.word	0
 261 000c 00000000 		.word	0
 262 0010 00000000 		.word	0
 263              		.section	.data.m2,"aw",%progbits
 264              		.align	2
 265              		.type	m2, %object
 266              		.size	m2, 20
 267              	m2:
 268 0000 00000000 		.word	m2
 269 0004 00000000 		.word	m2
 270 0008 00000000 		.word	0
 271 000c 00000000 		.word	0
 272 0010 00000000 		.word	0
 273              		.section	.data.c1,"aw",%progbits
 274              		.align	2
 275              		.type	c1, %object
 276              		.size	c1, 8
 277              	c1:
 278 0000 00000000 		.word	c1
 279 0004 00000000 		.word	c1
 280              		.section	.text.mtx1_setup,"ax",%progbits
 281              		.align	1
 282              		.syntax unified
 283              		.thumb
 284              		.thumb_func
 285              		.fpu fpv4-sp-d16
ARM GAS  /var/folders/d2/nstgp4h54kz7g1l847x_b8wc0000gn/T//ccAw0sCv.s 			page 6


 286              		.type	mtx1_setup, %function
 287              	mtx1_setup:
 288              		@ args = 0, pretend = 0, frame = 0
 289              		@ frame_needed = 1, uses_anonymous_args = 0
 290 0000 80B5     		push	{r7, lr}
 291 0002 00AF     		add	r7, sp, #0
 292 0004 0248     		ldr	r0, .L23
 293 0006 FFF7FEFF 		bl	chMtxObjectInit
 294 000a 00BF     		nop
 295 000c 80BD     		pop	{r7, pc}
 296              	.L24:
 297 000e 00BF     		.align	2
 298              	.L23:
 299 0010 00000000 		.word	m1
 300              		.size	mtx1_setup, .-mtx1_setup
 301              		.section	.text.thread1,"ax",%progbits
 302              		.align	1
 303              		.syntax unified
 304              		.thumb
 305              		.thumb_func
 306              		.fpu fpv4-sp-d16
 307              		.type	thread1, %function
 308              	thread1:
 309              		@ args = 0, pretend = 0, frame = 8
 310              		@ frame_needed = 1, uses_anonymous_args = 0
 311 0000 80B5     		push	{r7, lr}
 312 0002 82B0     		sub	sp, sp, #8
 313 0004 00AF     		add	r7, sp, #0
 314 0006 7860     		str	r0, [r7, #4]
 315 0008 0748     		ldr	r0, .L26
 316 000a FFF7FEFF 		bl	chMtxLock
 317 000e 7B68     		ldr	r3, [r7, #4]
 318 0010 1B78     		ldrb	r3, [r3]	@ zero_extendqisi2
 319 0012 1846     		mov	r0, r3
 320 0014 FFF7FEFF 		bl	test_emit_token
 321 0018 0348     		ldr	r0, .L26
 322 001a FFF7FEFF 		bl	chMtxUnlock
 323 001e 00BF     		nop
 324 0020 0837     		adds	r7, r7, #8
 325 0022 BD46     		mov	sp, r7
 326              		@ sp needed
 327 0024 80BD     		pop	{r7, pc}
 328              	.L27:
 329 0026 00BF     		.align	2
 330              	.L26:
 331 0028 00000000 		.word	m1
 332              		.size	thread1, .-thread1
 333              		.section	.rodata
 334              		.align	2
 335              	.LC0:
 336 0000 4500     		.ascii	"E\000"
 337 0002 0000     		.align	2
 338              	.LC1:
 339 0004 4400     		.ascii	"D\000"
 340 0006 0000     		.align	2
 341              	.LC2:
 342 0008 4300     		.ascii	"C\000"
ARM GAS  /var/folders/d2/nstgp4h54kz7g1l847x_b8wc0000gn/T//ccAw0sCv.s 			page 7


 343 000a 0000     		.align	2
 344              	.LC3:
 345 000c 4200     		.ascii	"B\000"
 346 000e 0000     		.align	2
 347              	.LC4:
 348 0010 4100     		.ascii	"A\000"
 349 0012 0000     		.align	2
 350              	.LC5:
 351 0014 41424344 		.ascii	"ABCDE\000"
 351      4500
 352              		.section	.text.mtx1_execute,"ax",%progbits
 353              		.align	1
 354              		.syntax unified
 355              		.thumb
 356              		.thumb_func
 357              		.fpu fpv4-sp-d16
 358              		.type	mtx1_execute, %function
 359              	mtx1_execute:
 360              		@ args = 0, pretend = 0, frame = 8
 361              		@ frame_needed = 1, uses_anonymous_args = 0
 362 0000 80B5     		push	{r7, lr}
 363 0002 84B0     		sub	sp, sp, #16
 364 0004 02AF     		add	r7, sp, #8
 365 0006 FFF7FEFF 		bl	chThdGetPriorityX
 366 000a 7860     		str	r0, [r7, #4]
 367 000c 3448     		ldr	r0, .L32
 368 000e FFF7FEFF 		bl	chMtxLock
 369 0012 344B     		ldr	r3, .L32+4
 370 0014 1868     		ldr	r0, [r3]
 371 0016 7B68     		ldr	r3, [r7, #4]
 372 0018 5A1C     		adds	r2, r3, #1
 373 001a 334B     		ldr	r3, .L32+8
 374 001c 0093     		str	r3, [sp]
 375 001e 334B     		ldr	r3, .L32+12
 376 0020 4FF4FC71 		mov	r1, #504
 377 0024 FFF7FEFF 		bl	chThdCreateStatic
 378 0028 0246     		mov	r2, r0
 379 002a 314B     		ldr	r3, .L32+16
 380 002c 1A60     		str	r2, [r3]
 381 002e 2D4B     		ldr	r3, .L32+4
 382 0030 5868     		ldr	r0, [r3, #4]
 383 0032 7B68     		ldr	r3, [r7, #4]
 384 0034 9A1C     		adds	r2, r3, #2
 385 0036 2F4B     		ldr	r3, .L32+20
 386 0038 0093     		str	r3, [sp]
 387 003a 2C4B     		ldr	r3, .L32+12
 388 003c 4FF4FC71 		mov	r1, #504
 389 0040 FFF7FEFF 		bl	chThdCreateStatic
 390 0044 0246     		mov	r2, r0
 391 0046 2A4B     		ldr	r3, .L32+16
 392 0048 5A60     		str	r2, [r3, #4]
 393 004a 264B     		ldr	r3, .L32+4
 394 004c 9868     		ldr	r0, [r3, #8]
 395 004e 7B68     		ldr	r3, [r7, #4]
 396 0050 DA1C     		adds	r2, r3, #3
 397 0052 294B     		ldr	r3, .L32+24
 398 0054 0093     		str	r3, [sp]
ARM GAS  /var/folders/d2/nstgp4h54kz7g1l847x_b8wc0000gn/T//ccAw0sCv.s 			page 8


 399 0056 254B     		ldr	r3, .L32+12
 400 0058 4FF4FC71 		mov	r1, #504
 401 005c FFF7FEFF 		bl	chThdCreateStatic
 402 0060 0246     		mov	r2, r0
 403 0062 234B     		ldr	r3, .L32+16
 404 0064 9A60     		str	r2, [r3, #8]
 405 0066 1F4B     		ldr	r3, .L32+4
 406 0068 D868     		ldr	r0, [r3, #12]
 407 006a 7B68     		ldr	r3, [r7, #4]
 408 006c 1A1D     		adds	r2, r3, #4
 409 006e 234B     		ldr	r3, .L32+28
 410 0070 0093     		str	r3, [sp]
 411 0072 1E4B     		ldr	r3, .L32+12
 412 0074 4FF4FC71 		mov	r1, #504
 413 0078 FFF7FEFF 		bl	chThdCreateStatic
 414 007c 0246     		mov	r2, r0
 415 007e 1C4B     		ldr	r3, .L32+16
 416 0080 DA60     		str	r2, [r3, #12]
 417 0082 184B     		ldr	r3, .L32+4
 418 0084 1869     		ldr	r0, [r3, #16]
 419 0086 7B68     		ldr	r3, [r7, #4]
 420 0088 5A1D     		adds	r2, r3, #5
 421 008a 1D4B     		ldr	r3, .L32+32
 422 008c 0093     		str	r3, [sp]
 423 008e 174B     		ldr	r3, .L32+12
 424 0090 4FF4FC71 		mov	r1, #504
 425 0094 FFF7FEFF 		bl	chThdCreateStatic
 426 0098 0246     		mov	r2, r0
 427 009a 154B     		ldr	r3, .L32+16
 428 009c 1A61     		str	r2, [r3, #16]
 429 009e 1048     		ldr	r0, .L32
 430 00a0 FFF7FEFF 		bl	chMtxUnlock
 431 00a4 FFF7FEFF 		bl	test_wait_threads
 432 00a8 FFF7FEFF 		bl	chThdGetPriorityX
 433 00ac 0246     		mov	r2, r0
 434 00ae 7B68     		ldr	r3, [r7, #4]
 435 00b0 9342     		cmp	r3, r2
 436 00b2 0CBF     		ite	eq
 437 00b4 0123     		moveq	r3, #1
 438 00b6 0023     		movne	r3, #0
 439 00b8 DBB2     		uxtb	r3, r3
 440 00ba 1946     		mov	r1, r3
 441 00bc 0120     		movs	r0, #1
 442 00be FFF7FEFF 		bl	_test_assert
 443 00c2 0346     		mov	r3, r0
 444 00c4 002B     		cmp	r3, #0
 445 00c6 06D1     		bne	.L31
 446 00c8 0E49     		ldr	r1, .L32+36
 447 00ca 0220     		movs	r0, #2
 448 00cc FFF7FEFF 		bl	_test_assert_sequence
 449 00d0 0346     		mov	r3, r0
 450 00d2 002B     		cmp	r3, #0
 451 00d4 00E0     		b	.L28
 452              	.L31:
 453 00d6 00BF     		nop
 454              	.L28:
 455 00d8 0837     		adds	r7, r7, #8
ARM GAS  /var/folders/d2/nstgp4h54kz7g1l847x_b8wc0000gn/T//ccAw0sCv.s 			page 9


 456 00da BD46     		mov	sp, r7
 457              		@ sp needed
 458 00dc 80BD     		pop	{r7, pc}
 459              	.L33:
 460 00de 00BF     		.align	2
 461              	.L32:
 462 00e0 00000000 		.word	m1
 463 00e4 00000000 		.word	wa
 464 00e8 00000000 		.word	.LC0
 465 00ec 00000000 		.word	thread1
 466 00f0 00000000 		.word	threads
 467 00f4 04000000 		.word	.LC1
 468 00f8 08000000 		.word	.LC2
 469 00fc 0C000000 		.word	.LC3
 470 0100 10000000 		.word	.LC4
 471 0104 14000000 		.word	.LC5
 472              		.size	mtx1_execute, .-mtx1_execute
 473              		.global	testmtx1
 474              		.section	.rodata
 475 001a 0000     		.align	2
 476              	.LC6:
 477 001c 4D757465 		.ascii	"Mutexes, priority enqueuing test\000"
 477      7865732C 
 477      20707269 
 477      6F726974 
 477      7920656E 
 478              		.section	.rodata.testmtx1,"a",%progbits
 479              		.align	2
 480              		.type	testmtx1, %object
 481              		.size	testmtx1, 16
 482              	testmtx1:
 483 0000 1C000000 		.word	.LC6
 484 0004 00000000 		.word	mtx1_setup
 485 0008 00000000 		.word	0
 486 000c 00000000 		.word	mtx1_execute
 487              		.section	.text.mtx2_setup,"ax",%progbits
 488              		.align	1
 489              		.syntax unified
 490              		.thumb
 491              		.thumb_func
 492              		.fpu fpv4-sp-d16
 493              		.type	mtx2_setup, %function
 494              	mtx2_setup:
 495              		@ args = 0, pretend = 0, frame = 0
 496              		@ frame_needed = 1, uses_anonymous_args = 0
 497 0000 80B5     		push	{r7, lr}
 498 0002 00AF     		add	r7, sp, #0
 499 0004 0248     		ldr	r0, .L35
 500 0006 FFF7FEFF 		bl	chMtxObjectInit
 501 000a 00BF     		nop
 502 000c 80BD     		pop	{r7, pc}
 503              	.L36:
 504 000e 00BF     		.align	2
 505              	.L35:
 506 0010 00000000 		.word	m1
 507              		.size	mtx2_setup, .-mtx2_setup
 508              		.section	.text.thread2L,"ax",%progbits
ARM GAS  /var/folders/d2/nstgp4h54kz7g1l847x_b8wc0000gn/T//ccAw0sCv.s 			page 10


 509              		.align	1
 510              		.syntax unified
 511              		.thumb
 512              		.thumb_func
 513              		.fpu fpv4-sp-d16
 514              		.type	thread2L, %function
 515              	thread2L:
 516              		@ args = 0, pretend = 0, frame = 8
 517              		@ frame_needed = 1, uses_anonymous_args = 0
 518 0000 80B5     		push	{r7, lr}
 519 0002 82B0     		sub	sp, sp, #8
 520 0004 00AF     		add	r7, sp, #0
 521 0006 7860     		str	r0, [r7, #4]
 522 0008 0948     		ldr	r0, .L38
 523 000a FFF7FEFF 		bl	chMtxLock
 524 000e 2820     		movs	r0, #40
 525 0010 FFF7FEFF 		bl	test_cpu_pulse
 526 0014 0648     		ldr	r0, .L38
 527 0016 FFF7FEFF 		bl	chMtxUnlock
 528 001a 0A20     		movs	r0, #10
 529 001c FFF7FEFF 		bl	test_cpu_pulse
 530 0020 4320     		movs	r0, #67
 531 0022 FFF7FEFF 		bl	test_emit_token
 532 0026 00BF     		nop
 533 0028 0837     		adds	r7, r7, #8
 534 002a BD46     		mov	sp, r7
 535              		@ sp needed
 536 002c 80BD     		pop	{r7, pc}
 537              	.L39:
 538 002e 00BF     		.align	2
 539              	.L38:
 540 0030 00000000 		.word	m1
 541              		.size	thread2L, .-thread2L
 542              		.section	.text.thread2M,"ax",%progbits
 543              		.align	1
 544              		.syntax unified
 545              		.thumb
 546              		.thumb_func
 547              		.fpu fpv4-sp-d16
 548              		.type	thread2M, %function
 549              	thread2M:
 550              		@ args = 0, pretend = 0, frame = 8
 551              		@ frame_needed = 1, uses_anonymous_args = 0
 552 0000 80B5     		push	{r7, lr}
 553 0002 82B0     		sub	sp, sp, #8
 554 0004 00AF     		add	r7, sp, #0
 555 0006 7860     		str	r0, [r7, #4]
 556 0008 1420     		movs	r0, #20
 557 000a FFF7FEFF 		bl	chThdSleep
 558 000e 2820     		movs	r0, #40
 559 0010 FFF7FEFF 		bl	test_cpu_pulse
 560 0014 4220     		movs	r0, #66
 561 0016 FFF7FEFF 		bl	test_emit_token
 562 001a 00BF     		nop
 563 001c 0837     		adds	r7, r7, #8
 564 001e BD46     		mov	sp, r7
 565              		@ sp needed
ARM GAS  /var/folders/d2/nstgp4h54kz7g1l847x_b8wc0000gn/T//ccAw0sCv.s 			page 11


 566 0020 80BD     		pop	{r7, pc}
 567              		.size	thread2M, .-thread2M
 568              		.section	.text.thread2H,"ax",%progbits
 569              		.align	1
 570              		.syntax unified
 571              		.thumb
 572              		.thumb_func
 573              		.fpu fpv4-sp-d16
 574              		.type	thread2H, %function
 575              	thread2H:
 576              		@ args = 0, pretend = 0, frame = 8
 577              		@ frame_needed = 1, uses_anonymous_args = 0
 578 0000 80B5     		push	{r7, lr}
 579 0002 82B0     		sub	sp, sp, #8
 580 0004 00AF     		add	r7, sp, #0
 581 0006 7860     		str	r0, [r7, #4]
 582 0008 2820     		movs	r0, #40
 583 000a FFF7FEFF 		bl	chThdSleep
 584 000e 0848     		ldr	r0, .L42
 585 0010 FFF7FEFF 		bl	chMtxLock
 586 0014 0A20     		movs	r0, #10
 587 0016 FFF7FEFF 		bl	test_cpu_pulse
 588 001a 0548     		ldr	r0, .L42
 589 001c FFF7FEFF 		bl	chMtxUnlock
 590 0020 4120     		movs	r0, #65
 591 0022 FFF7FEFF 		bl	test_emit_token
 592 0026 00BF     		nop
 593 0028 0837     		adds	r7, r7, #8
 594 002a BD46     		mov	sp, r7
 595              		@ sp needed
 596 002c 80BD     		pop	{r7, pc}
 597              	.L43:
 598 002e 00BF     		.align	2
 599              	.L42:
 600 0030 00000000 		.word	m1
 601              		.size	thread2H, .-thread2H
 602              		.section	.rodata
 603 003d 000000   		.align	2
 604              	.LC7:
 605 0040 41424300 		.ascii	"ABC\000"
 606              		.section	.text.mtx2_execute,"ax",%progbits
 607              		.align	1
 608              		.syntax unified
 609              		.thumb
 610              		.thumb_func
 611              		.fpu fpv4-sp-d16
 612              		.type	mtx2_execute, %function
 613              	mtx2_execute:
 614              		@ args = 0, pretend = 0, frame = 8
 615              		@ frame_needed = 1, uses_anonymous_args = 0
 616 0000 90B5     		push	{r4, r7, lr}
 617 0002 85B0     		sub	sp, sp, #20
 618 0004 02AF     		add	r7, sp, #8
 619 0006 FFF7FEFF 		bl	test_wait_tick
 620 000a FFF7FEFF 		bl	chVTGetSystemTime
 621 000e 7860     		str	r0, [r7, #4]
 622 0010 254B     		ldr	r3, .L48
ARM GAS  /var/folders/d2/nstgp4h54kz7g1l847x_b8wc0000gn/T//ccAw0sCv.s 			page 12


 623 0012 1C68     		ldr	r4, [r3]
 624 0014 FFF7FEFF 		bl	chThdGetPriorityX
 625 0018 0346     		mov	r3, r0
 626 001a 5A1E     		subs	r2, r3, #1
 627 001c 0023     		movs	r3, #0
 628 001e 0093     		str	r3, [sp]
 629 0020 224B     		ldr	r3, .L48+4
 630 0022 4FF4FC71 		mov	r1, #504
 631 0026 2046     		mov	r0, r4
 632 0028 FFF7FEFF 		bl	chThdCreateStatic
 633 002c 0246     		mov	r2, r0
 634 002e 204B     		ldr	r3, .L48+8
 635 0030 1A60     		str	r2, [r3]
 636 0032 1D4B     		ldr	r3, .L48
 637 0034 5C68     		ldr	r4, [r3, #4]
 638 0036 FFF7FEFF 		bl	chThdGetPriorityX
 639 003a 0346     		mov	r3, r0
 640 003c 9A1E     		subs	r2, r3, #2
 641 003e 0023     		movs	r3, #0
 642 0040 0093     		str	r3, [sp]
 643 0042 1C4B     		ldr	r3, .L48+12
 644 0044 4FF4FC71 		mov	r1, #504
 645 0048 2046     		mov	r0, r4
 646 004a FFF7FEFF 		bl	chThdCreateStatic
 647 004e 0246     		mov	r2, r0
 648 0050 174B     		ldr	r3, .L48+8
 649 0052 5A60     		str	r2, [r3, #4]
 650 0054 144B     		ldr	r3, .L48
 651 0056 9C68     		ldr	r4, [r3, #8]
 652 0058 FFF7FEFF 		bl	chThdGetPriorityX
 653 005c 0346     		mov	r3, r0
 654 005e DA1E     		subs	r2, r3, #3
 655 0060 0023     		movs	r3, #0
 656 0062 0093     		str	r3, [sp]
 657 0064 144B     		ldr	r3, .L48+16
 658 0066 4FF4FC71 		mov	r1, #504
 659 006a 2046     		mov	r0, r4
 660 006c FFF7FEFF 		bl	chThdCreateStatic
 661 0070 0246     		mov	r2, r0
 662 0072 0F4B     		ldr	r3, .L48+8
 663 0074 9A60     		str	r2, [r3, #8]
 664 0076 FFF7FEFF 		bl	test_wait_threads
 665 007a 1049     		ldr	r1, .L48+20
 666 007c 0120     		movs	r0, #1
 667 007e FFF7FEFF 		bl	_test_assert_sequence
 668 0082 0346     		mov	r3, r0
 669 0084 002B     		cmp	r3, #0
 670 0086 0BD1     		bne	.L47
 671 0088 7B68     		ldr	r3, [r7, #4]
 672 008a 03F16401 		add	r1, r3, #100
 673 008e 7B68     		ldr	r3, [r7, #4]
 674 0090 6933     		adds	r3, r3, #105
 675 0092 1A46     		mov	r2, r3
 676 0094 0220     		movs	r0, #2
 677 0096 FFF7FEFF 		bl	_test_assert_time_window
 678 009a 0346     		mov	r3, r0
 679 009c 002B     		cmp	r3, #0
ARM GAS  /var/folders/d2/nstgp4h54kz7g1l847x_b8wc0000gn/T//ccAw0sCv.s 			page 13


 680 009e 00E0     		b	.L44
 681              	.L47:
 682 00a0 00BF     		nop
 683              	.L44:
 684 00a2 0C37     		adds	r7, r7, #12
 685 00a4 BD46     		mov	sp, r7
 686              		@ sp needed
 687 00a6 90BD     		pop	{r4, r7, pc}
 688              	.L49:
 689              		.align	2
 690              	.L48:
 691 00a8 00000000 		.word	wa
 692 00ac 00000000 		.word	thread2H
 693 00b0 00000000 		.word	threads
 694 00b4 00000000 		.word	thread2M
 695 00b8 00000000 		.word	thread2L
 696 00bc 40000000 		.word	.LC7
 697              		.size	mtx2_execute, .-mtx2_execute
 698              		.global	testmtx2
 699              		.section	.rodata
 700              		.align	2
 701              	.LC8:
 702 0044 4D757465 		.ascii	"Mutexes, priority inheritance, simple case\000"
 702      7865732C 
 702      20707269 
 702      6F726974 
 702      7920696E 
 703              		.section	.rodata.testmtx2,"a",%progbits
 704              		.align	2
 705              		.type	testmtx2, %object
 706              		.size	testmtx2, 16
 707              	testmtx2:
 708 0000 44000000 		.word	.LC8
 709 0004 00000000 		.word	mtx2_setup
 710 0008 00000000 		.word	0
 711 000c 00000000 		.word	mtx2_execute
 712              		.section	.text.mtx3_setup,"ax",%progbits
 713              		.align	1
 714              		.syntax unified
 715              		.thumb
 716              		.thumb_func
 717              		.fpu fpv4-sp-d16
 718              		.type	mtx3_setup, %function
 719              	mtx3_setup:
 720              		@ args = 0, pretend = 0, frame = 0
 721              		@ frame_needed = 1, uses_anonymous_args = 0
 722 0000 80B5     		push	{r7, lr}
 723 0002 00AF     		add	r7, sp, #0
 724 0004 0348     		ldr	r0, .L51
 725 0006 FFF7FEFF 		bl	chMtxObjectInit
 726 000a 0348     		ldr	r0, .L51+4
 727 000c FFF7FEFF 		bl	chMtxObjectInit
 728 0010 00BF     		nop
 729 0012 80BD     		pop	{r7, pc}
 730              	.L52:
 731              		.align	2
 732              	.L51:
ARM GAS  /var/folders/d2/nstgp4h54kz7g1l847x_b8wc0000gn/T//ccAw0sCv.s 			page 14


 733 0014 00000000 		.word	m1
 734 0018 00000000 		.word	m2
 735              		.size	mtx3_setup, .-mtx3_setup
 736              		.section	.text.thread3LL,"ax",%progbits
 737              		.align	1
 738              		.syntax unified
 739              		.thumb
 740              		.thumb_func
 741              		.fpu fpv4-sp-d16
 742              		.type	thread3LL, %function
 743              	thread3LL:
 744              		@ args = 0, pretend = 0, frame = 8
 745              		@ frame_needed = 1, uses_anonymous_args = 0
 746 0000 80B5     		push	{r7, lr}
 747 0002 82B0     		sub	sp, sp, #8
 748 0004 00AF     		add	r7, sp, #0
 749 0006 7860     		str	r0, [r7, #4]
 750 0008 0748     		ldr	r0, .L54
 751 000a FFF7FEFF 		bl	chMtxLock
 752 000e 1E20     		movs	r0, #30
 753 0010 FFF7FEFF 		bl	test_cpu_pulse
 754 0014 0448     		ldr	r0, .L54
 755 0016 FFF7FEFF 		bl	chMtxUnlock
 756 001a 4520     		movs	r0, #69
 757 001c FFF7FEFF 		bl	test_emit_token
 758 0020 00BF     		nop
 759 0022 0837     		adds	r7, r7, #8
 760 0024 BD46     		mov	sp, r7
 761              		@ sp needed
 762 0026 80BD     		pop	{r7, pc}
 763              	.L55:
 764              		.align	2
 765              	.L54:
 766 0028 00000000 		.word	m1
 767              		.size	thread3LL, .-thread3LL
 768              		.section	.text.thread3L,"ax",%progbits
 769              		.align	1
 770              		.syntax unified
 771              		.thumb
 772              		.thumb_func
 773              		.fpu fpv4-sp-d16
 774              		.type	thread3L, %function
 775              	thread3L:
 776              		@ args = 0, pretend = 0, frame = 8
 777              		@ frame_needed = 1, uses_anonymous_args = 0
 778 0000 80B5     		push	{r7, lr}
 779 0002 82B0     		sub	sp, sp, #8
 780 0004 00AF     		add	r7, sp, #0
 781 0006 7860     		str	r0, [r7, #4]
 782 0008 0A20     		movs	r0, #10
 783 000a FFF7FEFF 		bl	chThdSleep
 784 000e 0E48     		ldr	r0, .L57
 785 0010 FFF7FEFF 		bl	chMtxLock
 786 0014 1420     		movs	r0, #20
 787 0016 FFF7FEFF 		bl	test_cpu_pulse
 788 001a 0C48     		ldr	r0, .L57+4
 789 001c FFF7FEFF 		bl	chMtxLock
ARM GAS  /var/folders/d2/nstgp4h54kz7g1l847x_b8wc0000gn/T//ccAw0sCv.s 			page 15


 790 0020 0A20     		movs	r0, #10
 791 0022 FFF7FEFF 		bl	test_cpu_pulse
 792 0026 0948     		ldr	r0, .L57+4
 793 0028 FFF7FEFF 		bl	chMtxUnlock
 794 002c 0A20     		movs	r0, #10
 795 002e FFF7FEFF 		bl	test_cpu_pulse
 796 0032 0548     		ldr	r0, .L57
 797 0034 FFF7FEFF 		bl	chMtxUnlock
 798 0038 4420     		movs	r0, #68
 799 003a FFF7FEFF 		bl	test_emit_token
 800 003e 00BF     		nop
 801 0040 0837     		adds	r7, r7, #8
 802 0042 BD46     		mov	sp, r7
 803              		@ sp needed
 804 0044 80BD     		pop	{r7, pc}
 805              	.L58:
 806 0046 00BF     		.align	2
 807              	.L57:
 808 0048 00000000 		.word	m2
 809 004c 00000000 		.word	m1
 810              		.size	thread3L, .-thread3L
 811              		.section	.text.thread3M,"ax",%progbits
 812              		.align	1
 813              		.syntax unified
 814              		.thumb
 815              		.thumb_func
 816              		.fpu fpv4-sp-d16
 817              		.type	thread3M, %function
 818              	thread3M:
 819              		@ args = 0, pretend = 0, frame = 8
 820              		@ frame_needed = 1, uses_anonymous_args = 0
 821 0000 80B5     		push	{r7, lr}
 822 0002 82B0     		sub	sp, sp, #8
 823 0004 00AF     		add	r7, sp, #0
 824 0006 7860     		str	r0, [r7, #4]
 825 0008 1420     		movs	r0, #20
 826 000a FFF7FEFF 		bl	chThdSleep
 827 000e 0848     		ldr	r0, .L60
 828 0010 FFF7FEFF 		bl	chMtxLock
 829 0014 0A20     		movs	r0, #10
 830 0016 FFF7FEFF 		bl	test_cpu_pulse
 831 001a 0548     		ldr	r0, .L60
 832 001c FFF7FEFF 		bl	chMtxUnlock
 833 0020 4320     		movs	r0, #67
 834 0022 FFF7FEFF 		bl	test_emit_token
 835 0026 00BF     		nop
 836 0028 0837     		adds	r7, r7, #8
 837 002a BD46     		mov	sp, r7
 838              		@ sp needed
 839 002c 80BD     		pop	{r7, pc}
 840              	.L61:
 841 002e 00BF     		.align	2
 842              	.L60:
 843 0030 00000000 		.word	m2
 844              		.size	thread3M, .-thread3M
 845              		.section	.text.thread3H,"ax",%progbits
 846              		.align	1
ARM GAS  /var/folders/d2/nstgp4h54kz7g1l847x_b8wc0000gn/T//ccAw0sCv.s 			page 16


 847              		.syntax unified
 848              		.thumb
 849              		.thumb_func
 850              		.fpu fpv4-sp-d16
 851              		.type	thread3H, %function
 852              	thread3H:
 853              		@ args = 0, pretend = 0, frame = 8
 854              		@ frame_needed = 1, uses_anonymous_args = 0
 855 0000 80B5     		push	{r7, lr}
 856 0002 82B0     		sub	sp, sp, #8
 857 0004 00AF     		add	r7, sp, #0
 858 0006 7860     		str	r0, [r7, #4]
 859 0008 2820     		movs	r0, #40
 860 000a FFF7FEFF 		bl	chThdSleep
 861 000e 1420     		movs	r0, #20
 862 0010 FFF7FEFF 		bl	test_cpu_pulse
 863 0014 4220     		movs	r0, #66
 864 0016 FFF7FEFF 		bl	test_emit_token
 865 001a 00BF     		nop
 866 001c 0837     		adds	r7, r7, #8
 867 001e BD46     		mov	sp, r7
 868              		@ sp needed
 869 0020 80BD     		pop	{r7, pc}
 870              		.size	thread3H, .-thread3H
 871              		.section	.text.thread3HH,"ax",%progbits
 872              		.align	1
 873              		.syntax unified
 874              		.thumb
 875              		.thumb_func
 876              		.fpu fpv4-sp-d16
 877              		.type	thread3HH, %function
 878              	thread3HH:
 879              		@ args = 0, pretend = 0, frame = 8
 880              		@ frame_needed = 1, uses_anonymous_args = 0
 881 0000 80B5     		push	{r7, lr}
 882 0002 82B0     		sub	sp, sp, #8
 883 0004 00AF     		add	r7, sp, #0
 884 0006 7860     		str	r0, [r7, #4]
 885 0008 3220     		movs	r0, #50
 886 000a FFF7FEFF 		bl	chThdSleep
 887 000e 0848     		ldr	r0, .L64
 888 0010 FFF7FEFF 		bl	chMtxLock
 889 0014 0A20     		movs	r0, #10
 890 0016 FFF7FEFF 		bl	test_cpu_pulse
 891 001a 0548     		ldr	r0, .L64
 892 001c FFF7FEFF 		bl	chMtxUnlock
 893 0020 4120     		movs	r0, #65
 894 0022 FFF7FEFF 		bl	test_emit_token
 895 0026 00BF     		nop
 896 0028 0837     		adds	r7, r7, #8
 897 002a BD46     		mov	sp, r7
 898              		@ sp needed
 899 002c 80BD     		pop	{r7, pc}
 900              	.L65:
 901 002e 00BF     		.align	2
 902              	.L64:
 903 0030 00000000 		.word	m2
ARM GAS  /var/folders/d2/nstgp4h54kz7g1l847x_b8wc0000gn/T//ccAw0sCv.s 			page 17


 904              		.size	thread3HH, .-thread3HH
 905              		.section	.text.mtx3_execute,"ax",%progbits
 906              		.align	1
 907              		.syntax unified
 908              		.thumb
 909              		.thumb_func
 910              		.fpu fpv4-sp-d16
 911              		.type	mtx3_execute, %function
 912              	mtx3_execute:
 913              		@ args = 0, pretend = 0, frame = 8
 914              		@ frame_needed = 1, uses_anonymous_args = 0
 915 0000 90B5     		push	{r4, r7, lr}
 916 0002 85B0     		sub	sp, sp, #20
 917 0004 02AF     		add	r7, sp, #8
 918 0006 FFF7FEFF 		bl	test_wait_tick
 919 000a FFF7FEFF 		bl	chVTGetSystemTime
 920 000e 7860     		str	r0, [r7, #4]
 921 0010 364B     		ldr	r3, .L70
 922 0012 1C68     		ldr	r4, [r3]
 923 0014 FFF7FEFF 		bl	chThdGetPriorityX
 924 0018 0346     		mov	r3, r0
 925 001a 5A1F     		subs	r2, r3, #5
 926 001c 0023     		movs	r3, #0
 927 001e 0093     		str	r3, [sp]
 928 0020 334B     		ldr	r3, .L70+4
 929 0022 4FF4FC71 		mov	r1, #504
 930 0026 2046     		mov	r0, r4
 931 0028 FFF7FEFF 		bl	chThdCreateStatic
 932 002c 0246     		mov	r2, r0
 933 002e 314B     		ldr	r3, .L70+8
 934 0030 1A60     		str	r2, [r3]
 935 0032 2E4B     		ldr	r3, .L70
 936 0034 5C68     		ldr	r4, [r3, #4]
 937 0036 FFF7FEFF 		bl	chThdGetPriorityX
 938 003a 0346     		mov	r3, r0
 939 003c 1A1F     		subs	r2, r3, #4
 940 003e 0023     		movs	r3, #0
 941 0040 0093     		str	r3, [sp]
 942 0042 2D4B     		ldr	r3, .L70+12
 943 0044 4FF4FC71 		mov	r1, #504
 944 0048 2046     		mov	r0, r4
 945 004a FFF7FEFF 		bl	chThdCreateStatic
 946 004e 0246     		mov	r2, r0
 947 0050 284B     		ldr	r3, .L70+8
 948 0052 5A60     		str	r2, [r3, #4]
 949 0054 254B     		ldr	r3, .L70
 950 0056 9C68     		ldr	r4, [r3, #8]
 951 0058 FFF7FEFF 		bl	chThdGetPriorityX
 952 005c 0346     		mov	r3, r0
 953 005e DA1E     		subs	r2, r3, #3
 954 0060 0023     		movs	r3, #0
 955 0062 0093     		str	r3, [sp]
 956 0064 254B     		ldr	r3, .L70+16
 957 0066 4FF4FC71 		mov	r1, #504
 958 006a 2046     		mov	r0, r4
 959 006c FFF7FEFF 		bl	chThdCreateStatic
 960 0070 0246     		mov	r2, r0
ARM GAS  /var/folders/d2/nstgp4h54kz7g1l847x_b8wc0000gn/T//ccAw0sCv.s 			page 18


 961 0072 204B     		ldr	r3, .L70+8
 962 0074 9A60     		str	r2, [r3, #8]
 963 0076 1D4B     		ldr	r3, .L70
 964 0078 DC68     		ldr	r4, [r3, #12]
 965 007a FFF7FEFF 		bl	chThdGetPriorityX
 966 007e 0346     		mov	r3, r0
 967 0080 9A1E     		subs	r2, r3, #2
 968 0082 0023     		movs	r3, #0
 969 0084 0093     		str	r3, [sp]
 970 0086 1E4B     		ldr	r3, .L70+20
 971 0088 4FF4FC71 		mov	r1, #504
 972 008c 2046     		mov	r0, r4
 973 008e FFF7FEFF 		bl	chThdCreateStatic
 974 0092 0246     		mov	r2, r0
 975 0094 174B     		ldr	r3, .L70+8
 976 0096 DA60     		str	r2, [r3, #12]
 977 0098 144B     		ldr	r3, .L70
 978 009a 1C69     		ldr	r4, [r3, #16]
 979 009c FFF7FEFF 		bl	chThdGetPriorityX
 980 00a0 0346     		mov	r3, r0
 981 00a2 5A1E     		subs	r2, r3, #1
 982 00a4 0023     		movs	r3, #0
 983 00a6 0093     		str	r3, [sp]
 984 00a8 164B     		ldr	r3, .L70+24
 985 00aa 4FF4FC71 		mov	r1, #504
 986 00ae 2046     		mov	r0, r4
 987 00b0 FFF7FEFF 		bl	chThdCreateStatic
 988 00b4 0246     		mov	r2, r0
 989 00b6 0F4B     		ldr	r3, .L70+8
 990 00b8 1A61     		str	r2, [r3, #16]
 991 00ba FFF7FEFF 		bl	test_wait_threads
 992 00be 1249     		ldr	r1, .L70+28
 993 00c0 0120     		movs	r0, #1
 994 00c2 FFF7FEFF 		bl	_test_assert_sequence
 995 00c6 0346     		mov	r3, r0
 996 00c8 002B     		cmp	r3, #0
 997 00ca 0BD1     		bne	.L69
 998 00cc 7B68     		ldr	r3, [r7, #4]
 999 00ce 03F16E01 		add	r1, r3, #110
 1000 00d2 7B68     		ldr	r3, [r7, #4]
 1001 00d4 7333     		adds	r3, r3, #115
 1002 00d6 1A46     		mov	r2, r3
 1003 00d8 0220     		movs	r0, #2
 1004 00da FFF7FEFF 		bl	_test_assert_time_window
 1005 00de 0346     		mov	r3, r0
 1006 00e0 002B     		cmp	r3, #0
 1007 00e2 00E0     		b	.L66
 1008              	.L69:
 1009 00e4 00BF     		nop
 1010              	.L66:
 1011 00e6 0C37     		adds	r7, r7, #12
 1012 00e8 BD46     		mov	sp, r7
 1013              		@ sp needed
 1014 00ea 90BD     		pop	{r4, r7, pc}
 1015              	.L71:
 1016              		.align	2
 1017              	.L70:
ARM GAS  /var/folders/d2/nstgp4h54kz7g1l847x_b8wc0000gn/T//ccAw0sCv.s 			page 19


 1018 00ec 00000000 		.word	wa
 1019 00f0 00000000 		.word	thread3LL
 1020 00f4 00000000 		.word	threads
 1021 00f8 00000000 		.word	thread3L
 1022 00fc 00000000 		.word	thread3M
 1023 0100 00000000 		.word	thread3H
 1024 0104 00000000 		.word	thread3HH
 1025 0108 14000000 		.word	.LC5
 1026              		.size	mtx3_execute, .-mtx3_execute
 1027              		.global	testmtx3
 1028              		.section	.rodata
 1029 006f 00       		.align	2
 1030              	.LC9:
 1031 0070 4D757465 		.ascii	"Mutexes, priority inheritance, complex case\000"
 1031      7865732C 
 1031      20707269 
 1031      6F726974 
 1031      7920696E 
 1032              		.section	.rodata.testmtx3,"a",%progbits
 1033              		.align	2
 1034              		.type	testmtx3, %object
 1035              		.size	testmtx3, 16
 1036              	testmtx3:
 1037 0000 70000000 		.word	.LC9
 1038 0004 00000000 		.word	mtx3_setup
 1039 0008 00000000 		.word	0
 1040 000c 00000000 		.word	mtx3_execute
 1041              		.section	.text.mtx4_setup,"ax",%progbits
 1042              		.align	1
 1043              		.syntax unified
 1044              		.thumb
 1045              		.thumb_func
 1046              		.fpu fpv4-sp-d16
 1047              		.type	mtx4_setup, %function
 1048              	mtx4_setup:
 1049              		@ args = 0, pretend = 0, frame = 0
 1050              		@ frame_needed = 1, uses_anonymous_args = 0
 1051 0000 80B5     		push	{r7, lr}
 1052 0002 00AF     		add	r7, sp, #0
 1053 0004 0348     		ldr	r0, .L73
 1054 0006 FFF7FEFF 		bl	chMtxObjectInit
 1055 000a 0348     		ldr	r0, .L73+4
 1056 000c FFF7FEFF 		bl	chMtxObjectInit
 1057 0010 00BF     		nop
 1058 0012 80BD     		pop	{r7, pc}
 1059              	.L74:
 1060              		.align	2
 1061              	.L73:
 1062 0014 00000000 		.word	m1
 1063 0018 00000000 		.word	m2
 1064              		.size	mtx4_setup, .-mtx4_setup
 1065              		.section	.text.thread4a,"ax",%progbits
 1066              		.align	1
 1067              		.syntax unified
 1068              		.thumb
 1069              		.thumb_func
 1070              		.fpu fpv4-sp-d16
ARM GAS  /var/folders/d2/nstgp4h54kz7g1l847x_b8wc0000gn/T//ccAw0sCv.s 			page 20


 1071              		.type	thread4a, %function
 1072              	thread4a:
 1073              		@ args = 0, pretend = 0, frame = 8
 1074              		@ frame_needed = 1, uses_anonymous_args = 0
 1075 0000 80B5     		push	{r7, lr}
 1076 0002 82B0     		sub	sp, sp, #8
 1077 0004 00AF     		add	r7, sp, #0
 1078 0006 7860     		str	r0, [r7, #4]
 1079 0008 3220     		movs	r0, #50
 1080 000a FFF7FEFF 		bl	chThdSleep
 1081 000e 0548     		ldr	r0, .L76
 1082 0010 FFF7FEFF 		bl	chMtxLock
 1083 0014 0348     		ldr	r0, .L76
 1084 0016 FFF7FEFF 		bl	chMtxUnlock
 1085 001a 00BF     		nop
 1086 001c 0837     		adds	r7, r7, #8
 1087 001e BD46     		mov	sp, r7
 1088              		@ sp needed
 1089 0020 80BD     		pop	{r7, pc}
 1090              	.L77:
 1091 0022 00BF     		.align	2
 1092              	.L76:
 1093 0024 00000000 		.word	m2
 1094              		.size	thread4a, .-thread4a
 1095              		.section	.text.thread4b,"ax",%progbits
 1096              		.align	1
 1097              		.syntax unified
 1098              		.thumb
 1099              		.thumb_func
 1100              		.fpu fpv4-sp-d16
 1101              		.type	thread4b, %function
 1102              	thread4b:
 1103              		@ args = 0, pretend = 0, frame = 8
 1104              		@ frame_needed = 1, uses_anonymous_args = 0
 1105 0000 80B5     		push	{r7, lr}
 1106 0002 82B0     		sub	sp, sp, #8
 1107 0004 00AF     		add	r7, sp, #0
 1108 0006 7860     		str	r0, [r7, #4]
 1109 0008 9620     		movs	r0, #150
 1110 000a FFF7FEFF 		bl	chThdSleep
 1111 000e 0548     		ldr	r0, .L79
 1112 0010 FFF7FEFF 		bl	chMtxLock
 1113 0014 0348     		ldr	r0, .L79
 1114 0016 FFF7FEFF 		bl	chMtxUnlock
 1115 001a 00BF     		nop
 1116 001c 0837     		adds	r7, r7, #8
 1117 001e BD46     		mov	sp, r7
 1118              		@ sp needed
 1119 0020 80BD     		pop	{r7, pc}
 1120              	.L80:
 1121 0022 00BF     		.align	2
 1122              	.L79:
 1123 0024 00000000 		.word	m1
 1124              		.size	thread4b, .-thread4b
 1125              		.section	.text.mtx4_execute,"ax",%progbits
 1126              		.align	1
 1127              		.syntax unified
ARM GAS  /var/folders/d2/nstgp4h54kz7g1l847x_b8wc0000gn/T//ccAw0sCv.s 			page 21


 1128              		.thumb
 1129              		.thumb_func
 1130              		.fpu fpv4-sp-d16
 1131              		.type	mtx4_execute, %function
 1132              	mtx4_execute:
 1133              		@ args = 0, pretend = 0, frame = 16
 1134              		@ frame_needed = 1, uses_anonymous_args = 0
 1135 0000 80B5     		push	{r7, lr}
 1136 0002 86B0     		sub	sp, sp, #24
 1137 0004 02AF     		add	r7, sp, #8
 1138 0006 FFF7FEFF 		bl	chThdGetPriorityX
 1139 000a F860     		str	r0, [r7, #12]
 1140 000c FB68     		ldr	r3, [r7, #12]
 1141 000e 0133     		adds	r3, r3, #1
 1142 0010 BB60     		str	r3, [r7, #8]
 1143 0012 FB68     		ldr	r3, [r7, #12]
 1144 0014 0233     		adds	r3, r3, #2
 1145 0016 7B60     		str	r3, [r7, #4]
 1146 0018 B64B     		ldr	r3, .L111
 1147 001a 1868     		ldr	r0, [r3]
 1148 001c B64B     		ldr	r3, .L111+4
 1149 001e 0093     		str	r3, [sp]
 1150 0020 B64B     		ldr	r3, .L111+8
 1151 0022 BA68     		ldr	r2, [r7, #8]
 1152 0024 4FF4FC71 		mov	r1, #504
 1153 0028 FFF7FEFF 		bl	chThdCreateStatic
 1154 002c 0246     		mov	r2, r0
 1155 002e B44B     		ldr	r3, .L111+12
 1156 0030 1A60     		str	r2, [r3]
 1157 0032 B04B     		ldr	r3, .L111
 1158 0034 5868     		ldr	r0, [r3, #4]
 1159 0036 B34B     		ldr	r3, .L111+16
 1160 0038 0093     		str	r3, [sp]
 1161 003a B34B     		ldr	r3, .L111+20
 1162 003c 7A68     		ldr	r2, [r7, #4]
 1163 003e 4FF4FC71 		mov	r1, #504
 1164 0042 FFF7FEFF 		bl	chThdCreateStatic
 1165 0046 0246     		mov	r2, r0
 1166 0048 AD4B     		ldr	r3, .L111+12
 1167 004a 5A60     		str	r2, [r3, #4]
 1168 004c AF48     		ldr	r0, .L111+24
 1169 004e FFF7FEFF 		bl	chMtxLock
 1170 0052 FFF7FEFF 		bl	chThdGetPriorityX
 1171 0056 0246     		mov	r2, r0
 1172 0058 FB68     		ldr	r3, [r7, #12]
 1173 005a 9342     		cmp	r3, r2
 1174 005c 0CBF     		ite	eq
 1175 005e 0123     		moveq	r3, #1
 1176 0060 0023     		movne	r3, #0
 1177 0062 DBB2     		uxtb	r3, r3
 1178 0064 1946     		mov	r1, r3
 1179 0066 0120     		movs	r0, #1
 1180 0068 FFF7FEFF 		bl	_test_assert
 1181 006c 0346     		mov	r3, r0
 1182 006e 002B     		cmp	r3, #0
 1183 0070 40F02181 		bne	.L97
 1184 0074 6420     		movs	r0, #100
ARM GAS  /var/folders/d2/nstgp4h54kz7g1l847x_b8wc0000gn/T//ccAw0sCv.s 			page 22


 1185 0076 FFF7FEFF 		bl	chThdSleep
 1186 007a FFF7FEFF 		bl	chThdGetPriorityX
 1187 007e 0246     		mov	r2, r0
 1188 0080 BB68     		ldr	r3, [r7, #8]
 1189 0082 9342     		cmp	r3, r2
 1190 0084 0CBF     		ite	eq
 1191 0086 0123     		moveq	r3, #1
 1192 0088 0023     		movne	r3, #0
 1193 008a DBB2     		uxtb	r3, r3
 1194 008c 1946     		mov	r1, r3
 1195 008e 0220     		movs	r0, #2
 1196 0090 FFF7FEFF 		bl	_test_assert
 1197 0094 0346     		mov	r3, r0
 1198 0096 002B     		cmp	r3, #0
 1199 0098 40F00F81 		bne	.L98
 1200 009c 9C48     		ldr	r0, .L111+28
 1201 009e FFF7FEFF 		bl	chMtxLock
 1202 00a2 FFF7FEFF 		bl	chThdGetPriorityX
 1203 00a6 0246     		mov	r2, r0
 1204 00a8 BB68     		ldr	r3, [r7, #8]
 1205 00aa 9342     		cmp	r3, r2
 1206 00ac 0CBF     		ite	eq
 1207 00ae 0123     		moveq	r3, #1
 1208 00b0 0023     		movne	r3, #0
 1209 00b2 DBB2     		uxtb	r3, r3
 1210 00b4 1946     		mov	r1, r3
 1211 00b6 0320     		movs	r0, #3
 1212 00b8 FFF7FEFF 		bl	_test_assert
 1213 00bc 0346     		mov	r3, r0
 1214 00be 002B     		cmp	r3, #0
 1215 00c0 40F0FD80 		bne	.L99
 1216 00c4 6420     		movs	r0, #100
 1217 00c6 FFF7FEFF 		bl	chThdSleep
 1218 00ca FFF7FEFF 		bl	chThdGetPriorityX
 1219 00ce 0246     		mov	r2, r0
 1220 00d0 7B68     		ldr	r3, [r7, #4]
 1221 00d2 9342     		cmp	r3, r2
 1222 00d4 0CBF     		ite	eq
 1223 00d6 0123     		moveq	r3, #1
 1224 00d8 0023     		movne	r3, #0
 1225 00da DBB2     		uxtb	r3, r3
 1226 00dc 1946     		mov	r1, r3
 1227 00de 0420     		movs	r0, #4
 1228 00e0 FFF7FEFF 		bl	_test_assert
 1229 00e4 0346     		mov	r3, r0
 1230 00e6 002B     		cmp	r3, #0
 1231 00e8 40F0EB80 		bne	.L100
 1232 00ec 8848     		ldr	r0, .L111+28
 1233 00ee FFF7FEFF 		bl	chMtxUnlock
 1234 00f2 FFF7FEFF 		bl	chThdGetPriorityX
 1235 00f6 0246     		mov	r2, r0
 1236 00f8 BB68     		ldr	r3, [r7, #8]
 1237 00fa 9342     		cmp	r3, r2
 1238 00fc 0CBF     		ite	eq
 1239 00fe 0123     		moveq	r3, #1
 1240 0100 0023     		movne	r3, #0
 1241 0102 DBB2     		uxtb	r3, r3
ARM GAS  /var/folders/d2/nstgp4h54kz7g1l847x_b8wc0000gn/T//ccAw0sCv.s 			page 23


 1242 0104 1946     		mov	r1, r3
 1243 0106 0520     		movs	r0, #5
 1244 0108 FFF7FEFF 		bl	_test_assert
 1245 010c 0346     		mov	r3, r0
 1246 010e 002B     		cmp	r3, #0
 1247 0110 40F0D980 		bne	.L101
 1248 0114 6420     		movs	r0, #100
 1249 0116 FFF7FEFF 		bl	chThdSleep
 1250 011a FFF7FEFF 		bl	chThdGetPriorityX
 1251 011e 0246     		mov	r2, r0
 1252 0120 BB68     		ldr	r3, [r7, #8]
 1253 0122 9342     		cmp	r3, r2
 1254 0124 0CBF     		ite	eq
 1255 0126 0123     		moveq	r3, #1
 1256 0128 0023     		movne	r3, #0
 1257 012a DBB2     		uxtb	r3, r3
 1258 012c 1946     		mov	r1, r3
 1259 012e 0620     		movs	r0, #6
 1260 0130 FFF7FEFF 		bl	_test_assert
 1261 0134 0346     		mov	r3, r0
 1262 0136 002B     		cmp	r3, #0
 1263 0138 40F0C780 		bne	.L102
 1264 013c FFF7FEFF 		bl	chMtxUnlockAll
 1265 0140 FFF7FEFF 		bl	chThdGetPriorityX
 1266 0144 0246     		mov	r2, r0
 1267 0146 FB68     		ldr	r3, [r7, #12]
 1268 0148 9342     		cmp	r3, r2
 1269 014a 0CBF     		ite	eq
 1270 014c 0123     		moveq	r3, #1
 1271 014e 0023     		movne	r3, #0
 1272 0150 DBB2     		uxtb	r3, r3
 1273 0152 1946     		mov	r1, r3
 1274 0154 0720     		movs	r0, #7
 1275 0156 FFF7FEFF 		bl	_test_assert
 1276 015a 0346     		mov	r3, r0
 1277 015c 002B     		cmp	r3, #0
 1278 015e 40F0B680 		bne	.L103
 1279 0162 FFF7FEFF 		bl	test_wait_threads
 1280 0166 634B     		ldr	r3, .L111
 1281 0168 1868     		ldr	r0, [r3]
 1282 016a 6A4B     		ldr	r3, .L111+32
 1283 016c 0093     		str	r3, [sp]
 1284 016e 634B     		ldr	r3, .L111+8
 1285 0170 BA68     		ldr	r2, [r7, #8]
 1286 0172 4FF4FC71 		mov	r1, #504
 1287 0176 FFF7FEFF 		bl	chThdCreateStatic
 1288 017a 0246     		mov	r2, r0
 1289 017c 604B     		ldr	r3, .L111+12
 1290 017e 1A60     		str	r2, [r3]
 1291 0180 5C4B     		ldr	r3, .L111
 1292 0182 5868     		ldr	r0, [r3, #4]
 1293 0184 644B     		ldr	r3, .L111+36
 1294 0186 0093     		str	r3, [sp]
 1295 0188 5F4B     		ldr	r3, .L111+20
 1296 018a 7A68     		ldr	r2, [r7, #4]
 1297 018c 4FF4FC71 		mov	r1, #504
 1298 0190 FFF7FEFF 		bl	chThdCreateStatic
ARM GAS  /var/folders/d2/nstgp4h54kz7g1l847x_b8wc0000gn/T//ccAw0sCv.s 			page 24


 1299 0194 0246     		mov	r2, r0
 1300 0196 5A4B     		ldr	r3, .L111+12
 1301 0198 5A60     		str	r2, [r3, #4]
 1302 019a 5C48     		ldr	r0, .L111+24
 1303 019c FFF7FEFF 		bl	chMtxLock
 1304 01a0 FFF7FEFF 		bl	chThdGetPriorityX
 1305 01a4 0246     		mov	r2, r0
 1306 01a6 FB68     		ldr	r3, [r7, #12]
 1307 01a8 9342     		cmp	r3, r2
 1308 01aa 0CBF     		ite	eq
 1309 01ac 0123     		moveq	r3, #1
 1310 01ae 0023     		movne	r3, #0
 1311 01b0 DBB2     		uxtb	r3, r3
 1312 01b2 1946     		mov	r1, r3
 1313 01b4 0820     		movs	r0, #8
 1314 01b6 FFF7FEFF 		bl	_test_assert
 1315 01ba 0346     		mov	r3, r0
 1316 01bc 002B     		cmp	r3, #0
 1317 01be 40F08880 		bne	.L104
 1318 01c2 6420     		movs	r0, #100
 1319 01c4 FFF7FEFF 		bl	chThdSleep
 1320 01c8 FFF7FEFF 		bl	chThdGetPriorityX
 1321 01cc 0246     		mov	r2, r0
 1322 01ce BB68     		ldr	r3, [r7, #8]
 1323 01d0 9342     		cmp	r3, r2
 1324 01d2 0CBF     		ite	eq
 1325 01d4 0123     		moveq	r3, #1
 1326 01d6 0023     		movne	r3, #0
 1327 01d8 DBB2     		uxtb	r3, r3
 1328 01da 1946     		mov	r1, r3
 1329 01dc 0920     		movs	r0, #9
 1330 01de FFF7FEFF 		bl	_test_assert
 1331 01e2 0346     		mov	r3, r0
 1332 01e4 002B     		cmp	r3, #0
 1333 01e6 76D1     		bne	.L105
 1334 01e8 4948     		ldr	r0, .L111+28
 1335 01ea FFF7FEFF 		bl	chMtxLock
 1336 01ee FFF7FEFF 		bl	chThdGetPriorityX
 1337 01f2 0246     		mov	r2, r0
 1338 01f4 BB68     		ldr	r3, [r7, #8]
 1339 01f6 9342     		cmp	r3, r2
 1340 01f8 0CBF     		ite	eq
 1341 01fa 0123     		moveq	r3, #1
 1342 01fc 0023     		movne	r3, #0
 1343 01fe DBB2     		uxtb	r3, r3
 1344 0200 1946     		mov	r1, r3
 1345 0202 0A20     		movs	r0, #10
 1346 0204 FFF7FEFF 		bl	_test_assert
 1347 0208 0346     		mov	r3, r0
 1348 020a 002B     		cmp	r3, #0
 1349 020c 65D1     		bne	.L106
 1350 020e 6420     		movs	r0, #100
 1351 0210 FFF7FEFF 		bl	chThdSleep
 1352 0214 FFF7FEFF 		bl	chThdGetPriorityX
 1353 0218 0246     		mov	r2, r0
 1354 021a 7B68     		ldr	r3, [r7, #4]
 1355 021c 9342     		cmp	r3, r2
ARM GAS  /var/folders/d2/nstgp4h54kz7g1l847x_b8wc0000gn/T//ccAw0sCv.s 			page 25


 1356 021e 0CBF     		ite	eq
 1357 0220 0123     		moveq	r3, #1
 1358 0222 0023     		movne	r3, #0
 1359 0224 DBB2     		uxtb	r3, r3
 1360 0226 1946     		mov	r1, r3
 1361 0228 0B20     		movs	r0, #11
 1362 022a FFF7FEFF 		bl	_test_assert
 1363 022e 0346     		mov	r3, r0
 1364 0230 002B     		cmp	r3, #0
 1365 0232 54D1     		bne	.L107
 1366 0234 FFF7FEFF 		bl	chSysLock
 1367 0238 3548     		ldr	r0, .L111+28
 1368 023a FFF7FEFF 		bl	chMtxUnlockS
 1369 023e FFF7FEFF 		bl	chSchRescheduleS
 1370 0242 FFF7FEFF 		bl	chSysUnlock
 1371 0246 FFF7FEFF 		bl	chThdGetPriorityX
 1372 024a 0246     		mov	r2, r0
 1373 024c BB68     		ldr	r3, [r7, #8]
 1374 024e 9342     		cmp	r3, r2
 1375 0250 0CBF     		ite	eq
 1376 0252 0123     		moveq	r3, #1
 1377 0254 0023     		movne	r3, #0
 1378 0256 DBB2     		uxtb	r3, r3
 1379 0258 1946     		mov	r1, r3
 1380 025a 0C20     		movs	r0, #12
 1381 025c FFF7FEFF 		bl	_test_assert
 1382 0260 0346     		mov	r3, r0
 1383 0262 002B     		cmp	r3, #0
 1384 0264 3DD1     		bne	.L108
 1385 0266 6420     		movs	r0, #100
 1386 0268 FFF7FEFF 		bl	chThdSleep
 1387 026c FFF7FEFF 		bl	chThdGetPriorityX
 1388 0270 0246     		mov	r2, r0
 1389 0272 BB68     		ldr	r3, [r7, #8]
 1390 0274 9342     		cmp	r3, r2
 1391 0276 0CBF     		ite	eq
 1392 0278 0123     		moveq	r3, #1
 1393 027a 0023     		movne	r3, #0
 1394 027c DBB2     		uxtb	r3, r3
 1395 027e 1946     		mov	r1, r3
 1396 0280 0D20     		movs	r0, #13
 1397 0282 FFF7FEFF 		bl	_test_assert
 1398 0286 0346     		mov	r3, r0
 1399 0288 002B     		cmp	r3, #0
 1400 028a 2CD1     		bne	.L109
 1401 028c FFF7FEFF 		bl	chMtxUnlockAll
 1402 0290 FFF7FEFF 		bl	chThdGetPriorityX
 1403 0294 0246     		mov	r2, r0
 1404 0296 FB68     		ldr	r3, [r7, #12]
 1405 0298 9342     		cmp	r3, r2
 1406 029a 0CBF     		ite	eq
 1407 029c 0123     		moveq	r3, #1
 1408 029e 0023     		movne	r3, #0
 1409 02a0 DBB2     		uxtb	r3, r3
 1410 02a2 1946     		mov	r1, r3
 1411 02a4 0E20     		movs	r0, #14
 1412 02a6 FFF7FEFF 		bl	_test_assert
ARM GAS  /var/folders/d2/nstgp4h54kz7g1l847x_b8wc0000gn/T//ccAw0sCv.s 			page 26


 1413 02aa 0346     		mov	r3, r0
 1414 02ac 002B     		cmp	r3, #0
 1415 02ae 1CD1     		bne	.L110
 1416 02b0 FFF7FEFF 		bl	test_wait_threads
 1417 02b4 1AE0     		b	.L81
 1418              	.L97:
 1419 02b6 00BF     		nop
 1420 02b8 18E0     		b	.L81
 1421              	.L98:
 1422 02ba 00BF     		nop
 1423 02bc 16E0     		b	.L81
 1424              	.L99:
 1425 02be 00BF     		nop
 1426 02c0 14E0     		b	.L81
 1427              	.L100:
 1428 02c2 00BF     		nop
 1429 02c4 12E0     		b	.L81
 1430              	.L101:
 1431 02c6 00BF     		nop
 1432 02c8 10E0     		b	.L81
 1433              	.L102:
 1434 02ca 00BF     		nop
 1435 02cc 0EE0     		b	.L81
 1436              	.L103:
 1437 02ce 00BF     		nop
 1438 02d0 0CE0     		b	.L81
 1439              	.L104:
 1440 02d2 00BF     		nop
 1441 02d4 0AE0     		b	.L81
 1442              	.L105:
 1443 02d6 00BF     		nop
 1444 02d8 08E0     		b	.L81
 1445              	.L106:
 1446 02da 00BF     		nop
 1447 02dc 06E0     		b	.L81
 1448              	.L107:
 1449 02de 00BF     		nop
 1450 02e0 04E0     		b	.L81
 1451              	.L108:
 1452 02e2 00BF     		nop
 1453 02e4 02E0     		b	.L81
 1454              	.L109:
 1455 02e6 00BF     		nop
 1456 02e8 00E0     		b	.L81
 1457              	.L110:
 1458 02ea 00BF     		nop
 1459              	.L81:
 1460 02ec 1037     		adds	r7, r7, #16
 1461 02ee BD46     		mov	sp, r7
 1462              		@ sp needed
 1463 02f0 80BD     		pop	{r7, pc}
 1464              	.L112:
 1465 02f2 00BF     		.align	2
 1466              	.L111:
 1467 02f4 00000000 		.word	wa
 1468 02f8 0C000000 		.word	.LC3
 1469 02fc 00000000 		.word	thread4a
ARM GAS  /var/folders/d2/nstgp4h54kz7g1l847x_b8wc0000gn/T//ccAw0sCv.s 			page 27


 1470 0300 00000000 		.word	threads
 1471 0304 10000000 		.word	.LC4
 1472 0308 00000000 		.word	thread4b
 1473 030c 00000000 		.word	m2
 1474 0310 00000000 		.word	m1
 1475 0314 04000000 		.word	.LC1
 1476 0318 08000000 		.word	.LC2
 1477              		.size	mtx4_execute, .-mtx4_execute
 1478              		.global	testmtx4
 1479              		.section	.rodata
 1480              		.align	2
 1481              	.LC10:
 1482 009c 4D757465 		.ascii	"Mutexes, priority return\000"
 1482      7865732C 
 1482      20707269 
 1482      6F726974 
 1482      79207265 
 1483              		.section	.rodata.testmtx4,"a",%progbits
 1484              		.align	2
 1485              		.type	testmtx4, %object
 1486              		.size	testmtx4, 16
 1487              	testmtx4:
 1488 0000 9C000000 		.word	.LC10
 1489 0004 00000000 		.word	mtx4_setup
 1490 0008 00000000 		.word	0
 1491 000c 00000000 		.word	mtx4_execute
 1492              		.section	.text.mtx5_setup,"ax",%progbits
 1493              		.align	1
 1494              		.syntax unified
 1495              		.thumb
 1496              		.thumb_func
 1497              		.fpu fpv4-sp-d16
 1498              		.type	mtx5_setup, %function
 1499              	mtx5_setup:
 1500              		@ args = 0, pretend = 0, frame = 0
 1501              		@ frame_needed = 1, uses_anonymous_args = 0
 1502 0000 80B5     		push	{r7, lr}
 1503 0002 00AF     		add	r7, sp, #0
 1504 0004 0248     		ldr	r0, .L114
 1505 0006 FFF7FEFF 		bl	chMtxObjectInit
 1506 000a 00BF     		nop
 1507 000c 80BD     		pop	{r7, pc}
 1508              	.L115:
 1509 000e 00BF     		.align	2
 1510              	.L114:
 1511 0010 00000000 		.word	m1
 1512              		.size	mtx5_setup, .-mtx5_setup
 1513              		.section	.text.mtx5_execute,"ax",%progbits
 1514              		.align	1
 1515              		.syntax unified
 1516              		.thumb
 1517              		.thumb_func
 1518              		.fpu fpv4-sp-d16
 1519              		.type	mtx5_execute, %function
 1520              	mtx5_execute:
 1521              		@ args = 0, pretend = 0, frame = 0
 1522              		@ frame_needed = 1, uses_anonymous_args = 0
ARM GAS  /var/folders/d2/nstgp4h54kz7g1l847x_b8wc0000gn/T//ccAw0sCv.s 			page 28


 1523 0000 80B5     		push	{r7, lr}
 1524 0002 00AF     		add	r7, sp, #0
 1525 0004 0F48     		ldr	r0, .L120
 1526 0006 FFF7FEFF 		bl	chMtxLock
 1527 000a FFF7FEFF 		bl	chMtxUnlockAll
 1528 000e 0D48     		ldr	r0, .L120
 1529 0010 FFF7FEFF 		bl	queue_isempty
 1530 0014 0346     		mov	r3, r0
 1531 0016 1946     		mov	r1, r3
 1532 0018 0620     		movs	r0, #6
 1533 001a FFF7FEFF 		bl	_test_assert
 1534 001e 0346     		mov	r3, r0
 1535 0020 002B     		cmp	r3, #0
 1536 0022 0DD1     		bne	.L119
 1537 0024 074B     		ldr	r3, .L120
 1538 0026 9B68     		ldr	r3, [r3, #8]
 1539 0028 002B     		cmp	r3, #0
 1540 002a 0CBF     		ite	eq
 1541 002c 0123     		moveq	r3, #1
 1542 002e 0023     		movne	r3, #0
 1543 0030 DBB2     		uxtb	r3, r3
 1544 0032 1946     		mov	r1, r3
 1545 0034 0720     		movs	r0, #7
 1546 0036 FFF7FEFF 		bl	_test_assert
 1547 003a 0346     		mov	r3, r0
 1548 003c 002B     		cmp	r3, #0
 1549 003e 00E0     		b	.L116
 1550              	.L119:
 1551 0040 00BF     		nop
 1552              	.L116:
 1553 0042 80BD     		pop	{r7, pc}
 1554              	.L121:
 1555              		.align	2
 1556              	.L120:
 1557 0044 00000000 		.word	m1
 1558              		.size	mtx5_execute, .-mtx5_execute
 1559              		.global	testmtx5
 1560              		.section	.rodata
 1561 00b5 000000   		.align	2
 1562              	.LC11:
 1563 00b8 4D757465 		.ascii	"Mutexes, status\000"
 1563      7865732C 
 1563      20737461 
 1563      74757300 
 1564              		.section	.rodata.testmtx5,"a",%progbits
 1565              		.align	2
 1566              		.type	testmtx5, %object
 1567              		.size	testmtx5, 16
 1568              	testmtx5:
 1569 0000 B8000000 		.word	.LC11
 1570 0004 00000000 		.word	mtx5_setup
 1571 0008 00000000 		.word	0
 1572 000c 00000000 		.word	mtx5_execute
 1573              		.section	.text.mtx6_setup,"ax",%progbits
 1574              		.align	1
 1575              		.syntax unified
 1576              		.thumb
ARM GAS  /var/folders/d2/nstgp4h54kz7g1l847x_b8wc0000gn/T//ccAw0sCv.s 			page 29


 1577              		.thumb_func
 1578              		.fpu fpv4-sp-d16
 1579              		.type	mtx6_setup, %function
 1580              	mtx6_setup:
 1581              		@ args = 0, pretend = 0, frame = 0
 1582              		@ frame_needed = 1, uses_anonymous_args = 0
 1583 0000 80B5     		push	{r7, lr}
 1584 0002 00AF     		add	r7, sp, #0
 1585 0004 0348     		ldr	r0, .L123
 1586 0006 FFF7FEFF 		bl	chCondObjectInit
 1587 000a 0348     		ldr	r0, .L123+4
 1588 000c FFF7FEFF 		bl	chMtxObjectInit
 1589 0010 00BF     		nop
 1590 0012 80BD     		pop	{r7, pc}
 1591              	.L124:
 1592              		.align	2
 1593              	.L123:
 1594 0014 00000000 		.word	c1
 1595 0018 00000000 		.word	m1
 1596              		.size	mtx6_setup, .-mtx6_setup
 1597              		.section	.text.thread10,"ax",%progbits
 1598              		.align	1
 1599              		.syntax unified
 1600              		.thumb
 1601              		.thumb_func
 1602              		.fpu fpv4-sp-d16
 1603              		.type	thread10, %function
 1604              	thread10:
 1605              		@ args = 0, pretend = 0, frame = 8
 1606              		@ frame_needed = 1, uses_anonymous_args = 0
 1607 0000 80B5     		push	{r7, lr}
 1608 0002 82B0     		sub	sp, sp, #8
 1609 0004 00AF     		add	r7, sp, #0
 1610 0006 7860     		str	r0, [r7, #4]
 1611 0008 0848     		ldr	r0, .L126
 1612 000a FFF7FEFF 		bl	chMtxLock
 1613 000e 0848     		ldr	r0, .L126+4
 1614 0010 FFF7FEFF 		bl	chCondWait
 1615 0014 7B68     		ldr	r3, [r7, #4]
 1616 0016 1B78     		ldrb	r3, [r3]	@ zero_extendqisi2
 1617 0018 1846     		mov	r0, r3
 1618 001a FFF7FEFF 		bl	test_emit_token
 1619 001e 0348     		ldr	r0, .L126
 1620 0020 FFF7FEFF 		bl	chMtxUnlock
 1621 0024 00BF     		nop
 1622 0026 0837     		adds	r7, r7, #8
 1623 0028 BD46     		mov	sp, r7
 1624              		@ sp needed
 1625 002a 80BD     		pop	{r7, pc}
 1626              	.L127:
 1627              		.align	2
 1628              	.L126:
 1629 002c 00000000 		.word	m1
 1630 0030 00000000 		.word	c1
 1631              		.size	thread10, .-thread10
 1632              		.section	.text.mtx6_execute,"ax",%progbits
 1633              		.align	1
ARM GAS  /var/folders/d2/nstgp4h54kz7g1l847x_b8wc0000gn/T//ccAw0sCv.s 			page 30


 1634              		.syntax unified
 1635              		.thumb
 1636              		.thumb_func
 1637              		.fpu fpv4-sp-d16
 1638              		.type	mtx6_execute, %function
 1639              	mtx6_execute:
 1640              		@ args = 0, pretend = 0, frame = 8
 1641              		@ frame_needed = 1, uses_anonymous_args = 0
 1642 0000 80B5     		push	{r7, lr}
 1643 0002 84B0     		sub	sp, sp, #16
 1644 0004 02AF     		add	r7, sp, #8
 1645 0006 FFF7FEFF 		bl	chThdGetPriorityX
 1646 000a 7860     		str	r0, [r7, #4]
 1647 000c 324B     		ldr	r3, .L130
 1648 000e 1868     		ldr	r0, [r3]
 1649 0010 7B68     		ldr	r3, [r7, #4]
 1650 0012 5A1C     		adds	r2, r3, #1
 1651 0014 314B     		ldr	r3, .L130+4
 1652 0016 0093     		str	r3, [sp]
 1653 0018 314B     		ldr	r3, .L130+8
 1654 001a 4FF4FC71 		mov	r1, #504
 1655 001e FFF7FEFF 		bl	chThdCreateStatic
 1656 0022 0246     		mov	r2, r0
 1657 0024 2F4B     		ldr	r3, .L130+12
 1658 0026 1A60     		str	r2, [r3]
 1659 0028 2B4B     		ldr	r3, .L130
 1660 002a 5868     		ldr	r0, [r3, #4]
 1661 002c 7B68     		ldr	r3, [r7, #4]
 1662 002e 9A1C     		adds	r2, r3, #2
 1663 0030 2D4B     		ldr	r3, .L130+16
 1664 0032 0093     		str	r3, [sp]
 1665 0034 2A4B     		ldr	r3, .L130+8
 1666 0036 4FF4FC71 		mov	r1, #504
 1667 003a FFF7FEFF 		bl	chThdCreateStatic
 1668 003e 0246     		mov	r2, r0
 1669 0040 284B     		ldr	r3, .L130+12
 1670 0042 5A60     		str	r2, [r3, #4]
 1671 0044 244B     		ldr	r3, .L130
 1672 0046 9868     		ldr	r0, [r3, #8]
 1673 0048 7B68     		ldr	r3, [r7, #4]
 1674 004a DA1C     		adds	r2, r3, #3
 1675 004c 274B     		ldr	r3, .L130+20
 1676 004e 0093     		str	r3, [sp]
 1677 0050 234B     		ldr	r3, .L130+8
 1678 0052 4FF4FC71 		mov	r1, #504
 1679 0056 FFF7FEFF 		bl	chThdCreateStatic
 1680 005a 0246     		mov	r2, r0
 1681 005c 214B     		ldr	r3, .L130+12
 1682 005e 9A60     		str	r2, [r3, #8]
 1683 0060 1D4B     		ldr	r3, .L130
 1684 0062 D868     		ldr	r0, [r3, #12]
 1685 0064 7B68     		ldr	r3, [r7, #4]
 1686 0066 1A1D     		adds	r2, r3, #4
 1687 0068 214B     		ldr	r3, .L130+24
 1688 006a 0093     		str	r3, [sp]
 1689 006c 1C4B     		ldr	r3, .L130+8
 1690 006e 4FF4FC71 		mov	r1, #504
ARM GAS  /var/folders/d2/nstgp4h54kz7g1l847x_b8wc0000gn/T//ccAw0sCv.s 			page 31


 1691 0072 FFF7FEFF 		bl	chThdCreateStatic
 1692 0076 0246     		mov	r2, r0
 1693 0078 1A4B     		ldr	r3, .L130+12
 1694 007a DA60     		str	r2, [r3, #12]
 1695 007c 164B     		ldr	r3, .L130
 1696 007e 1869     		ldr	r0, [r3, #16]
 1697 0080 7B68     		ldr	r3, [r7, #4]
 1698 0082 5A1D     		adds	r2, r3, #5
 1699 0084 1B4B     		ldr	r3, .L130+28
 1700 0086 0093     		str	r3, [sp]
 1701 0088 154B     		ldr	r3, .L130+8
 1702 008a 4FF4FC71 		mov	r1, #504
 1703 008e FFF7FEFF 		bl	chThdCreateStatic
 1704 0092 0246     		mov	r2, r0
 1705 0094 134B     		ldr	r3, .L130+12
 1706 0096 1A61     		str	r2, [r3, #16]
 1707 0098 FFF7FEFF 		bl	chSysLock
 1708 009c 1648     		ldr	r0, .L130+32
 1709 009e FFF7FEFF 		bl	chCondSignalI
 1710 00a2 1548     		ldr	r0, .L130+32
 1711 00a4 FFF7FEFF 		bl	chCondSignalI
 1712 00a8 1348     		ldr	r0, .L130+32
 1713 00aa FFF7FEFF 		bl	chCondSignalI
 1714 00ae 1248     		ldr	r0, .L130+32
 1715 00b0 FFF7FEFF 		bl	chCondSignalI
 1716 00b4 1048     		ldr	r0, .L130+32
 1717 00b6 FFF7FEFF 		bl	chCondSignalI
 1718 00ba FFF7FEFF 		bl	chSchRescheduleS
 1719 00be FFF7FEFF 		bl	chSysUnlock
 1720 00c2 FFF7FEFF 		bl	test_wait_threads
 1721 00c6 0D49     		ldr	r1, .L130+36
 1722 00c8 0120     		movs	r0, #1
 1723 00ca FFF7FEFF 		bl	_test_assert_sequence
 1724 00ce 0346     		mov	r3, r0
 1725 00d0 002B     		cmp	r3, #0
 1726 00d2 0837     		adds	r7, r7, #8
 1727 00d4 BD46     		mov	sp, r7
 1728              		@ sp needed
 1729 00d6 80BD     		pop	{r7, pc}
 1730              	.L131:
 1731              		.align	2
 1732              	.L130:
 1733 00d8 00000000 		.word	wa
 1734 00dc 00000000 		.word	.LC0
 1735 00e0 00000000 		.word	thread10
 1736 00e4 00000000 		.word	threads
 1737 00e8 04000000 		.word	.LC1
 1738 00ec 08000000 		.word	.LC2
 1739 00f0 0C000000 		.word	.LC3
 1740 00f4 10000000 		.word	.LC4
 1741 00f8 00000000 		.word	c1
 1742 00fc 14000000 		.word	.LC5
 1743              		.size	mtx6_execute, .-mtx6_execute
 1744              		.global	testmtx6
 1745              		.section	.rodata
 1746              		.align	2
 1747              	.LC12:
ARM GAS  /var/folders/d2/nstgp4h54kz7g1l847x_b8wc0000gn/T//ccAw0sCv.s 			page 32


 1748 00c8 436F6E64 		.ascii	"CondVar, signal test\000"
 1748      5661722C 
 1748      20736967 
 1748      6E616C20 
 1748      74657374 
 1749              		.section	.rodata.testmtx6,"a",%progbits
 1750              		.align	2
 1751              		.type	testmtx6, %object
 1752              		.size	testmtx6, 16
 1753              	testmtx6:
 1754 0000 C8000000 		.word	.LC12
 1755 0004 00000000 		.word	mtx6_setup
 1756 0008 00000000 		.word	0
 1757 000c 00000000 		.word	mtx6_execute
 1758              		.section	.text.mtx7_setup,"ax",%progbits
 1759              		.align	1
 1760              		.syntax unified
 1761              		.thumb
 1762              		.thumb_func
 1763              		.fpu fpv4-sp-d16
 1764              		.type	mtx7_setup, %function
 1765              	mtx7_setup:
 1766              		@ args = 0, pretend = 0, frame = 0
 1767              		@ frame_needed = 1, uses_anonymous_args = 0
 1768 0000 80B5     		push	{r7, lr}
 1769 0002 00AF     		add	r7, sp, #0
 1770 0004 0348     		ldr	r0, .L133
 1771 0006 FFF7FEFF 		bl	chCondObjectInit
 1772 000a 0348     		ldr	r0, .L133+4
 1773 000c FFF7FEFF 		bl	chMtxObjectInit
 1774 0010 00BF     		nop
 1775 0012 80BD     		pop	{r7, pc}
 1776              	.L134:
 1777              		.align	2
 1778              	.L133:
 1779 0014 00000000 		.word	c1
 1780 0018 00000000 		.word	m1
 1781              		.size	mtx7_setup, .-mtx7_setup
 1782              		.section	.text.mtx7_execute,"ax",%progbits
 1783              		.align	1
 1784              		.syntax unified
 1785              		.thumb
 1786              		.thumb_func
 1787              		.fpu fpv4-sp-d16
 1788              		.type	mtx7_execute, %function
 1789              	mtx7_execute:
 1790              		@ args = 0, pretend = 0, frame = 8
 1791              		@ frame_needed = 1, uses_anonymous_args = 0
 1792 0000 80B5     		push	{r7, lr}
 1793 0002 84B0     		sub	sp, sp, #16
 1794 0004 02AF     		add	r7, sp, #8
 1795 0006 FFF7FEFF 		bl	chThdGetPriorityX
 1796 000a 7860     		str	r0, [r7, #4]
 1797 000c 294B     		ldr	r3, .L137
 1798 000e 1868     		ldr	r0, [r3]
 1799 0010 7B68     		ldr	r3, [r7, #4]
 1800 0012 5A1C     		adds	r2, r3, #1
ARM GAS  /var/folders/d2/nstgp4h54kz7g1l847x_b8wc0000gn/T//ccAw0sCv.s 			page 33


 1801 0014 284B     		ldr	r3, .L137+4
 1802 0016 0093     		str	r3, [sp]
 1803 0018 284B     		ldr	r3, .L137+8
 1804 001a 4FF4FC71 		mov	r1, #504
 1805 001e FFF7FEFF 		bl	chThdCreateStatic
 1806 0022 0246     		mov	r2, r0
 1807 0024 264B     		ldr	r3, .L137+12
 1808 0026 1A60     		str	r2, [r3]
 1809 0028 224B     		ldr	r3, .L137
 1810 002a 5868     		ldr	r0, [r3, #4]
 1811 002c 7B68     		ldr	r3, [r7, #4]
 1812 002e 9A1C     		adds	r2, r3, #2
 1813 0030 244B     		ldr	r3, .L137+16
 1814 0032 0093     		str	r3, [sp]
 1815 0034 214B     		ldr	r3, .L137+8
 1816 0036 4FF4FC71 		mov	r1, #504
 1817 003a FFF7FEFF 		bl	chThdCreateStatic
 1818 003e 0246     		mov	r2, r0
 1819 0040 1F4B     		ldr	r3, .L137+12
 1820 0042 5A60     		str	r2, [r3, #4]
 1821 0044 1B4B     		ldr	r3, .L137
 1822 0046 9868     		ldr	r0, [r3, #8]
 1823 0048 7B68     		ldr	r3, [r7, #4]
 1824 004a DA1C     		adds	r2, r3, #3
 1825 004c 1E4B     		ldr	r3, .L137+20
 1826 004e 0093     		str	r3, [sp]
 1827 0050 1A4B     		ldr	r3, .L137+8
 1828 0052 4FF4FC71 		mov	r1, #504
 1829 0056 FFF7FEFF 		bl	chThdCreateStatic
 1830 005a 0246     		mov	r2, r0
 1831 005c 184B     		ldr	r3, .L137+12
 1832 005e 9A60     		str	r2, [r3, #8]
 1833 0060 144B     		ldr	r3, .L137
 1834 0062 D868     		ldr	r0, [r3, #12]
 1835 0064 7B68     		ldr	r3, [r7, #4]
 1836 0066 1A1D     		adds	r2, r3, #4
 1837 0068 184B     		ldr	r3, .L137+24
 1838 006a 0093     		str	r3, [sp]
 1839 006c 134B     		ldr	r3, .L137+8
 1840 006e 4FF4FC71 		mov	r1, #504
 1841 0072 FFF7FEFF 		bl	chThdCreateStatic
 1842 0076 0246     		mov	r2, r0
 1843 0078 114B     		ldr	r3, .L137+12
 1844 007a DA60     		str	r2, [r3, #12]
 1845 007c 0D4B     		ldr	r3, .L137
 1846 007e 1869     		ldr	r0, [r3, #16]
 1847 0080 7B68     		ldr	r3, [r7, #4]
 1848 0082 5A1D     		adds	r2, r3, #5
 1849 0084 124B     		ldr	r3, .L137+28
 1850 0086 0093     		str	r3, [sp]
 1851 0088 0C4B     		ldr	r3, .L137+8
 1852 008a 4FF4FC71 		mov	r1, #504
 1853 008e FFF7FEFF 		bl	chThdCreateStatic
 1854 0092 0246     		mov	r2, r0
 1855 0094 0A4B     		ldr	r3, .L137+12
 1856 0096 1A61     		str	r2, [r3, #16]
 1857 0098 0E48     		ldr	r0, .L137+32
ARM GAS  /var/folders/d2/nstgp4h54kz7g1l847x_b8wc0000gn/T//ccAw0sCv.s 			page 34


 1858 009a FFF7FEFF 		bl	chCondBroadcast
 1859 009e FFF7FEFF 		bl	test_wait_threads
 1860 00a2 0D49     		ldr	r1, .L137+36
 1861 00a4 0120     		movs	r0, #1
 1862 00a6 FFF7FEFF 		bl	_test_assert_sequence
 1863 00aa 0346     		mov	r3, r0
 1864 00ac 002B     		cmp	r3, #0
 1865 00ae 0837     		adds	r7, r7, #8
 1866 00b0 BD46     		mov	sp, r7
 1867              		@ sp needed
 1868 00b2 80BD     		pop	{r7, pc}
 1869              	.L138:
 1870              		.align	2
 1871              	.L137:
 1872 00b4 00000000 		.word	wa
 1873 00b8 00000000 		.word	.LC0
 1874 00bc 00000000 		.word	thread10
 1875 00c0 00000000 		.word	threads
 1876 00c4 04000000 		.word	.LC1
 1877 00c8 08000000 		.word	.LC2
 1878 00cc 0C000000 		.word	.LC3
 1879 00d0 10000000 		.word	.LC4
 1880 00d4 00000000 		.word	c1
 1881 00d8 14000000 		.word	.LC5
 1882              		.size	mtx7_execute, .-mtx7_execute
 1883              		.global	testmtx7
 1884              		.section	.rodata
 1885 00dd 000000   		.align	2
 1886              	.LC13:
 1887 00e0 436F6E64 		.ascii	"CondVar, broadcast test\000"
 1887      5661722C 
 1887      2062726F 
 1887      61646361 
 1887      73742074 
 1888              		.section	.rodata.testmtx7,"a",%progbits
 1889              		.align	2
 1890              		.type	testmtx7, %object
 1891              		.size	testmtx7, 16
 1892              	testmtx7:
 1893 0000 E0000000 		.word	.LC13
 1894 0004 00000000 		.word	mtx7_setup
 1895 0008 00000000 		.word	0
 1896 000c 00000000 		.word	mtx7_execute
 1897              		.section	.text.mtx8_setup,"ax",%progbits
 1898              		.align	1
 1899              		.syntax unified
 1900              		.thumb
 1901              		.thumb_func
 1902              		.fpu fpv4-sp-d16
 1903              		.type	mtx8_setup, %function
 1904              	mtx8_setup:
 1905              		@ args = 0, pretend = 0, frame = 0
 1906              		@ frame_needed = 1, uses_anonymous_args = 0
 1907 0000 80B5     		push	{r7, lr}
 1908 0002 00AF     		add	r7, sp, #0
 1909 0004 0548     		ldr	r0, .L140
 1910 0006 FFF7FEFF 		bl	chCondObjectInit
ARM GAS  /var/folders/d2/nstgp4h54kz7g1l847x_b8wc0000gn/T//ccAw0sCv.s 			page 35


 1911 000a 0548     		ldr	r0, .L140+4
 1912 000c FFF7FEFF 		bl	chMtxObjectInit
 1913 0010 0448     		ldr	r0, .L140+8
 1914 0012 FFF7FEFF 		bl	chMtxObjectInit
 1915 0016 00BF     		nop
 1916 0018 80BD     		pop	{r7, pc}
 1917              	.L141:
 1918 001a 00BF     		.align	2
 1919              	.L140:
 1920 001c 00000000 		.word	c1
 1921 0020 00000000 		.word	m1
 1922 0024 00000000 		.word	m2
 1923              		.size	mtx8_setup, .-mtx8_setup
 1924              		.section	.text.thread11,"ax",%progbits
 1925              		.align	1
 1926              		.syntax unified
 1927              		.thumb
 1928              		.thumb_func
 1929              		.fpu fpv4-sp-d16
 1930              		.type	thread11, %function
 1931              	thread11:
 1932              		@ args = 0, pretend = 0, frame = 8
 1933              		@ frame_needed = 1, uses_anonymous_args = 0
 1934 0000 80B5     		push	{r7, lr}
 1935 0002 82B0     		sub	sp, sp, #8
 1936 0004 00AF     		add	r7, sp, #0
 1937 0006 7860     		str	r0, [r7, #4]
 1938 0008 0C48     		ldr	r0, .L143
 1939 000a FFF7FEFF 		bl	chMtxLock
 1940 000e 0C48     		ldr	r0, .L143+4
 1941 0010 FFF7FEFF 		bl	chMtxLock
 1942 0014 4FF0FF31 		mov	r1, #-1
 1943 0018 0A48     		ldr	r0, .L143+8
 1944 001a FFF7FEFF 		bl	chCondWaitTimeout
 1945 001e 7B68     		ldr	r3, [r7, #4]
 1946 0020 1B78     		ldrb	r3, [r3]	@ zero_extendqisi2
 1947 0022 1846     		mov	r0, r3
 1948 0024 FFF7FEFF 		bl	test_emit_token
 1949 0028 0548     		ldr	r0, .L143+4
 1950 002a FFF7FEFF 		bl	chMtxUnlock
 1951 002e 0348     		ldr	r0, .L143
 1952 0030 FFF7FEFF 		bl	chMtxUnlock
 1953 0034 00BF     		nop
 1954 0036 0837     		adds	r7, r7, #8
 1955 0038 BD46     		mov	sp, r7
 1956              		@ sp needed
 1957 003a 80BD     		pop	{r7, pc}
 1958              	.L144:
 1959              		.align	2
 1960              	.L143:
 1961 003c 00000000 		.word	m2
 1962 0040 00000000 		.word	m1
 1963 0044 00000000 		.word	c1
 1964              		.size	thread11, .-thread11
 1965              		.section	.text.thread12,"ax",%progbits
 1966              		.align	1
 1967              		.syntax unified
ARM GAS  /var/folders/d2/nstgp4h54kz7g1l847x_b8wc0000gn/T//ccAw0sCv.s 			page 36


 1968              		.thumb
 1969              		.thumb_func
 1970              		.fpu fpv4-sp-d16
 1971              		.type	thread12, %function
 1972              	thread12:
 1973              		@ args = 0, pretend = 0, frame = 8
 1974              		@ frame_needed = 1, uses_anonymous_args = 0
 1975 0000 80B5     		push	{r7, lr}
 1976 0002 82B0     		sub	sp, sp, #8
 1977 0004 00AF     		add	r7, sp, #0
 1978 0006 7860     		str	r0, [r7, #4]
 1979 0008 0748     		ldr	r0, .L146
 1980 000a FFF7FEFF 		bl	chMtxLock
 1981 000e 7B68     		ldr	r3, [r7, #4]
 1982 0010 1B78     		ldrb	r3, [r3]	@ zero_extendqisi2
 1983 0012 1846     		mov	r0, r3
 1984 0014 FFF7FEFF 		bl	test_emit_token
 1985 0018 0348     		ldr	r0, .L146
 1986 001a FFF7FEFF 		bl	chMtxUnlock
 1987 001e 00BF     		nop
 1988 0020 0837     		adds	r7, r7, #8
 1989 0022 BD46     		mov	sp, r7
 1990              		@ sp needed
 1991 0024 80BD     		pop	{r7, pc}
 1992              	.L147:
 1993 0026 00BF     		.align	2
 1994              	.L146:
 1995 0028 00000000 		.word	m2
 1996              		.size	thread12, .-thread12
 1997              		.section	.text.mtx8_execute,"ax",%progbits
 1998              		.align	1
 1999              		.syntax unified
 2000              		.thumb
 2001              		.thumb_func
 2002              		.fpu fpv4-sp-d16
 2003              		.type	mtx8_execute, %function
 2004              	mtx8_execute:
 2005              		@ args = 0, pretend = 0, frame = 8
 2006              		@ frame_needed = 1, uses_anonymous_args = 0
 2007 0000 80B5     		push	{r7, lr}
 2008 0002 84B0     		sub	sp, sp, #16
 2009 0004 02AF     		add	r7, sp, #8
 2010 0006 FFF7FEFF 		bl	chThdGetPriorityX
 2011 000a 7860     		str	r0, [r7, #4]
 2012 000c 1D4B     		ldr	r3, .L150
 2013 000e 1868     		ldr	r0, [r3]
 2014 0010 7B68     		ldr	r3, [r7, #4]
 2015 0012 5A1C     		adds	r2, r3, #1
 2016 0014 1C4B     		ldr	r3, .L150+4
 2017 0016 0093     		str	r3, [sp]
 2018 0018 1C4B     		ldr	r3, .L150+8
 2019 001a 4FF4FC71 		mov	r1, #504
 2020 001e FFF7FEFF 		bl	chThdCreateStatic
 2021 0022 0246     		mov	r2, r0
 2022 0024 1A4B     		ldr	r3, .L150+12
 2023 0026 1A60     		str	r2, [r3]
 2024 0028 164B     		ldr	r3, .L150
ARM GAS  /var/folders/d2/nstgp4h54kz7g1l847x_b8wc0000gn/T//ccAw0sCv.s 			page 37


 2025 002a 5868     		ldr	r0, [r3, #4]
 2026 002c 7B68     		ldr	r3, [r7, #4]
 2027 002e 9A1C     		adds	r2, r3, #2
 2028 0030 184B     		ldr	r3, .L150+16
 2029 0032 0093     		str	r3, [sp]
 2030 0034 184B     		ldr	r3, .L150+20
 2031 0036 4FF4FC71 		mov	r1, #504
 2032 003a FFF7FEFF 		bl	chThdCreateStatic
 2033 003e 0246     		mov	r2, r0
 2034 0040 134B     		ldr	r3, .L150+12
 2035 0042 5A60     		str	r2, [r3, #4]
 2036 0044 0F4B     		ldr	r3, .L150
 2037 0046 9868     		ldr	r0, [r3, #8]
 2038 0048 7B68     		ldr	r3, [r7, #4]
 2039 004a DA1C     		adds	r2, r3, #3
 2040 004c 134B     		ldr	r3, .L150+24
 2041 004e 0093     		str	r3, [sp]
 2042 0050 134B     		ldr	r3, .L150+28
 2043 0052 4FF4FC71 		mov	r1, #504
 2044 0056 FFF7FEFF 		bl	chThdCreateStatic
 2045 005a 0246     		mov	r2, r0
 2046 005c 0C4B     		ldr	r3, .L150+12
 2047 005e 9A60     		str	r2, [r3, #8]
 2048 0060 1048     		ldr	r0, .L150+32
 2049 0062 FFF7FEFF 		bl	chCondSignal
 2050 0066 0F48     		ldr	r0, .L150+32
 2051 0068 FFF7FEFF 		bl	chCondSignal
 2052 006c FFF7FEFF 		bl	test_wait_threads
 2053 0070 0D49     		ldr	r1, .L150+36
 2054 0072 0120     		movs	r0, #1
 2055 0074 FFF7FEFF 		bl	_test_assert_sequence
 2056 0078 0346     		mov	r3, r0
 2057 007a 002B     		cmp	r3, #0
 2058 007c 0837     		adds	r7, r7, #8
 2059 007e BD46     		mov	sp, r7
 2060              		@ sp needed
 2061 0080 80BD     		pop	{r7, pc}
 2062              	.L151:
 2063 0082 00BF     		.align	2
 2064              	.L150:
 2065 0084 00000000 		.word	wa
 2066 0088 10000000 		.word	.LC4
 2067 008c 00000000 		.word	thread11
 2068 0090 00000000 		.word	threads
 2069 0094 08000000 		.word	.LC2
 2070 0098 00000000 		.word	thread10
 2071 009c 0C000000 		.word	.LC3
 2072 00a0 00000000 		.word	thread12
 2073 00a4 00000000 		.word	c1
 2074 00a8 40000000 		.word	.LC7
 2075              		.size	mtx8_execute, .-mtx8_execute
 2076              		.global	testmtx8
 2077              		.section	.rodata
 2078              		.align	2
 2079              	.LC14:
 2080 00f8 436F6E64 		.ascii	"CondVar, boost test\000"
 2080      5661722C 
ARM GAS  /var/folders/d2/nstgp4h54kz7g1l847x_b8wc0000gn/T//ccAw0sCv.s 			page 38


 2080      20626F6F 
 2080      73742074 
 2080      65737400 
 2081              		.section	.rodata.testmtx8,"a",%progbits
 2082              		.align	2
 2083              		.type	testmtx8, %object
 2084              		.size	testmtx8, 16
 2085              	testmtx8:
 2086 0000 F8000000 		.word	.LC14
 2087 0004 00000000 		.word	mtx8_setup
 2088 0008 00000000 		.word	0
 2089 000c 00000000 		.word	mtx8_execute
 2090              		.global	patternmtx
 2091              		.section	.rodata.patternmtx,"a",%progbits
 2092              		.align	2
 2093              		.type	patternmtx, %object
 2094              		.size	patternmtx, 36
 2095              	patternmtx:
 2096 0000 00000000 		.word	testmtx1
 2097 0004 00000000 		.word	testmtx2
 2098 0008 00000000 		.word	testmtx3
 2099 000c 00000000 		.word	testmtx4
 2100 0010 00000000 		.word	testmtx5
 2101 0014 00000000 		.word	testmtx6
 2102 0018 00000000 		.word	testmtx7
 2103 001c 00000000 		.word	testmtx8
 2104 0020 00000000 		.word	0
 2105              		.section	.rodata.__func__.7153,"a",%progbits
 2106              		.align	2
 2107              		.type	__func__.7153, %object
 2108              		.size	__func__.7153, 12
 2109              	__func__.7153:
 2110 0000 63685379 		.ascii	"chSysUnlock\000"
 2110      73556E6C 
 2110      6F636B00 
 2111              		.ident	"GCC: (GNU Tools for Arm Embedded Processors 7-2017-q4-major) 7.2.1 20170904 (release) [ARM
ARM GAS  /var/folders/d2/nstgp4h54kz7g1l847x_b8wc0000gn/T//ccAw0sCv.s 			page 39

