ARM GAS  /var/folders/d2/nstgp4h54kz7g1l847x_b8wc0000gn/T//ccRAFsEm.s 			page 1


   1              		.cpu cortex-m4
   2              		.eabi_attribute 27, 1
   3              		.eabi_attribute 28, 1
   4              		.eabi_attribute 20, 1
   5              		.eabi_attribute 21, 1
   6              		.eabi_attribute 23, 3
   7              		.eabi_attribute 24, 1
   8              		.eabi_attribute 25, 1
   9              		.eabi_attribute 26, 1
  10              		.eabi_attribute 30, 2
  11              		.eabi_attribute 34, 1
  12              		.eabi_attribute 18, 4
  13              		.file	"testevt.c"
  14              		.text
  15              	.Ltext0:
  16              		.cfi_sections	.debug_frame
  17              		.section	.text.h3,"ax",%progbits
  18              		.align	1
  19              		.p2align 4,,15
  20              		.syntax unified
  21              		.thumb
  22              		.thumb_func
  23              		.fpu fpv4-sp-d16
  24              		.type	h3, %function
  25              	h3:
  26              	.LFB222:
  27              		.file 1 "../e-puck2_main-processor/ChibiOS//test/rt/testevt.c"
  28              		.loc 1 82 0
  29              		.cfi_startproc
  30              		@ args = 0, pretend = 0, frame = 8
  31              		@ frame_needed = 0, uses_anonymous_args = 0
  32              	.LVL0:
  33 0000 00B5     		push	{lr}
  34              		.cfi_def_cfa_offset 4
  35              		.cfi_offset 14, -4
  36 0002 084B     		ldr	r3, .L7
  37 0004 83B0     		sub	sp, sp, #12
  38              		.cfi_def_cfa_offset 16
  39              		.loc 1 82 0
  40 0006 1A68     		ldr	r2, [r3]
  41 0008 0192     		str	r2, [sp, #4]
  42 000a 019A     		ldr	r2, [sp, #4]
  43 000c 1B68     		ldr	r3, [r3]
  44 000e 9A42     		cmp	r2, r3
  45 0010 05D1     		bne	.L6
  46 0012 4320     		movs	r0, #67
  47              	.LVL1:
  48 0014 03B0     		add	sp, sp, #12
  49              		.cfi_remember_state
  50              		.cfi_def_cfa_offset 4
  51              		@ sp needed
  52 0016 5DF804EB 		ldr	lr, [sp], #4
  53              		.cfi_restore 14
  54              		.cfi_def_cfa_offset 0
  55 001a FFF7FEBF 		b	test_emit_token
  56              	.LVL2:
  57              	.L6:
ARM GAS  /var/folders/d2/nstgp4h54kz7g1l847x_b8wc0000gn/T//ccRAFsEm.s 			page 2


  58              		.cfi_restore_state
  59 001e FFF7FEFF 		bl	__stack_chk_fail
  60              	.LVL3:
  61              	.L8:
  62 0022 00BF     		.align	2
  63              	.L7:
  64 0024 00000000 		.word	__stack_chk_guard
  65              		.cfi_endproc
  66              	.LFE222:
  67              		.size	h3, .-h3
  68              		.section	.text.h2,"ax",%progbits
  69              		.align	1
  70              		.p2align 4,,15
  71              		.syntax unified
  72              		.thumb
  73              		.thumb_func
  74              		.fpu fpv4-sp-d16
  75              		.type	h2, %function
  76              	h2:
  77              	.LFB221:
  78              		.loc 1 81 0
  79              		.cfi_startproc
  80              		@ args = 0, pretend = 0, frame = 8
  81              		@ frame_needed = 0, uses_anonymous_args = 0
  82              	.LVL4:
  83 0000 00B5     		push	{lr}
  84              		.cfi_def_cfa_offset 4
  85              		.cfi_offset 14, -4
  86 0002 084B     		ldr	r3, .L14
  87 0004 83B0     		sub	sp, sp, #12
  88              		.cfi_def_cfa_offset 16
  89              		.loc 1 81 0
  90 0006 1A68     		ldr	r2, [r3]
  91 0008 0192     		str	r2, [sp, #4]
  92 000a 019A     		ldr	r2, [sp, #4]
  93 000c 1B68     		ldr	r3, [r3]
  94 000e 9A42     		cmp	r2, r3
  95 0010 05D1     		bne	.L13
  96 0012 4220     		movs	r0, #66
  97              	.LVL5:
  98 0014 03B0     		add	sp, sp, #12
  99              		.cfi_remember_state
 100              		.cfi_def_cfa_offset 4
 101              		@ sp needed
 102 0016 5DF804EB 		ldr	lr, [sp], #4
 103              		.cfi_restore 14
 104              		.cfi_def_cfa_offset 0
 105 001a FFF7FEBF 		b	test_emit_token
 106              	.LVL6:
 107              	.L13:
 108              		.cfi_restore_state
 109 001e FFF7FEFF 		bl	__stack_chk_fail
 110              	.LVL7:
 111              	.L15:
 112 0022 00BF     		.align	2
 113              	.L14:
 114 0024 00000000 		.word	__stack_chk_guard
ARM GAS  /var/folders/d2/nstgp4h54kz7g1l847x_b8wc0000gn/T//ccRAFsEm.s 			page 3


 115              		.cfi_endproc
 116              	.LFE221:
 117              		.size	h2, .-h2
 118              		.section	.text.h1,"ax",%progbits
 119              		.align	1
 120              		.p2align 4,,15
 121              		.syntax unified
 122              		.thumb
 123              		.thumb_func
 124              		.fpu fpv4-sp-d16
 125              		.type	h1, %function
 126              	h1:
 127              	.LFB220:
 128              		.loc 1 80 0
 129              		.cfi_startproc
 130              		@ args = 0, pretend = 0, frame = 8
 131              		@ frame_needed = 0, uses_anonymous_args = 0
 132              	.LVL8:
 133 0000 00B5     		push	{lr}
 134              		.cfi_def_cfa_offset 4
 135              		.cfi_offset 14, -4
 136 0002 084B     		ldr	r3, .L21
 137 0004 83B0     		sub	sp, sp, #12
 138              		.cfi_def_cfa_offset 16
 139              		.loc 1 80 0
 140 0006 1A68     		ldr	r2, [r3]
 141 0008 0192     		str	r2, [sp, #4]
 142 000a 019A     		ldr	r2, [sp, #4]
 143 000c 1B68     		ldr	r3, [r3]
 144 000e 9A42     		cmp	r2, r3
 145 0010 05D1     		bne	.L20
 146 0012 4120     		movs	r0, #65
 147              	.LVL9:
 148 0014 03B0     		add	sp, sp, #12
 149              		.cfi_remember_state
 150              		.cfi_def_cfa_offset 4
 151              		@ sp needed
 152 0016 5DF804EB 		ldr	lr, [sp], #4
 153              		.cfi_restore 14
 154              		.cfi_def_cfa_offset 0
 155 001a FFF7FEBF 		b	test_emit_token
 156              	.LVL10:
 157              	.L20:
 158              		.cfi_restore_state
 159 001e FFF7FEFF 		bl	__stack_chk_fail
 160              	.LVL11:
 161              	.L22:
 162 0022 00BF     		.align	2
 163              	.L21:
 164 0024 00000000 		.word	__stack_chk_guard
 165              		.cfi_endproc
 166              	.LFE220:
 167              		.size	h1, .-h1
 168              		.section	.text.evt1_execute,"ax",%progbits
 169              		.align	1
 170              		.p2align 4,,15
 171              		.syntax unified
ARM GAS  /var/folders/d2/nstgp4h54kz7g1l847x_b8wc0000gn/T//ccRAFsEm.s 			page 4


 172              		.thumb
 173              		.thumb_func
 174              		.fpu fpv4-sp-d16
 175              		.type	evt1_execute, %function
 176              	evt1_execute:
 177              	.LFB223:
 178              		.loc 1 85 0
 179              		.cfi_startproc
 180              		@ args = 0, pretend = 0, frame = 48
 181              		@ frame_needed = 0, uses_anonymous_args = 0
 182 0000 30B5     		push	{r4, r5, lr}
 183              		.cfi_def_cfa_offset 12
 184              		.cfi_offset 4, -12
 185              		.cfi_offset 5, -8
 186              		.cfi_offset 14, -4
 187 0002 244D     		ldr	r5, .L31
 188              	.LBB149:
 189              	.LBB150:
 190              		.file 2 "../e-puck2_main-processor/ChibiOS//os/rt/include/chevents.h"
 191              		.loc 2 172 0
 192 0004 244C     		ldr	r4, .L31+4
 193              	.LBE150:
 194              	.LBE149:
 195              		.loc 1 85 0
 196 0006 2B68     		ldr	r3, [r5]
 197              	.LBB152:
 198              	.LBB151:
 199              		.loc 2 172 0
 200 0008 2460     		str	r4, [r4]
 201              	.LBE151:
 202              	.LBE152:
 203              		.loc 1 85 0
 204 000a 8DB0     		sub	sp, sp, #52
 205              		.cfi_def_cfa_offset 64
 206              	.LBB153:
 207              	.LBB154:
 208              		.loc 2 193 0
 209 000c 2046     		mov	r0, r4
 210              	.LBE154:
 211              	.LBE153:
 212              		.loc 1 85 0
 213 000e 0B93     		str	r3, [sp, #44]
 214              	.LVL12:
 215              	.LBB156:
 216              	.LBB155:
 217              		.loc 2 193 0
 218 0010 01A9     		add	r1, sp, #4
 219              	.LVL13:
 220 0012 4FF0FF33 		mov	r3, #-1
 221 0016 0122     		movs	r2, #1
 222 0018 FFF7FEFF 		bl	chEvtRegisterMaskWithFlags
 223              	.LVL14:
 224              	.LBE155:
 225              	.LBE156:
 226              	.LBB157:
 227              	.LBB158:
 228 001c 2046     		mov	r0, r4
ARM GAS  /var/folders/d2/nstgp4h54kz7g1l847x_b8wc0000gn/T//ccRAFsEm.s 			page 5


 229 001e 06A9     		add	r1, sp, #24
 230              	.LVL15:
 231 0020 4FF0FF33 		mov	r3, #-1
 232 0024 0222     		movs	r2, #2
 233 0026 FFF7FEFF 		bl	chEvtRegisterMaskWithFlags
 234              	.LVL16:
 235              	.LBE158:
 236              	.LBE157:
 237              	.LBB159:
 238              	.LBB160:
 239              		.loc 2 226 0
 240 002a 2168     		ldr	r1, [r4]
 241              	.LBE160:
 242              	.LBE159:
 243              		.loc 1 94 0
 244 002c 091B     		subs	r1, r1, r4
 245 002e 18BF     		it	ne
 246 0030 0121     		movne	r1, #1
 247 0032 0120     		movs	r0, #1
 248 0034 FFF7FEFF 		bl	_test_assert
 249              	.LVL17:
 250 0038 28B1     		cbz	r0, .L29
 251              	.L23:
 252              		.loc 1 105 0
 253 003a 0B9A     		ldr	r2, [sp, #44]
 254 003c 2B68     		ldr	r3, [r5]
 255 003e 9A42     		cmp	r2, r3
 256 0040 25D1     		bne	.L30
 257 0042 0DB0     		add	sp, sp, #52
 258              		.cfi_remember_state
 259              		.cfi_def_cfa_offset 12
 260              		@ sp needed
 261 0044 30BD     		pop	{r4, r5, pc}
 262              	.L29:
 263              		.cfi_restore_state
 264              		.loc 1 95 0
 265 0046 01A9     		add	r1, sp, #4
 266 0048 2046     		mov	r0, r4
 267 004a FFF7FEFF 		bl	chEvtUnregister
 268              	.LVL18:
 269              	.LBB161:
 270              	.LBB162:
 271              		.loc 2 226 0
 272 004e 2168     		ldr	r1, [r4]
 273              	.LBE162:
 274              	.LBE161:
 275              		.loc 1 96 0
 276 0050 091B     		subs	r1, r1, r4
 277 0052 18BF     		it	ne
 278 0054 0121     		movne	r1, #1
 279 0056 0220     		movs	r0, #2
 280 0058 FFF7FEFF 		bl	_test_assert
 281              	.LVL19:
 282 005c 0028     		cmp	r0, #0
 283 005e ECD1     		bne	.L23
 284              		.loc 1 97 0
 285 0060 06A9     		add	r1, sp, #24
ARM GAS  /var/folders/d2/nstgp4h54kz7g1l847x_b8wc0000gn/T//ccRAFsEm.s 			page 6


 286 0062 2046     		mov	r0, r4
 287 0064 FFF7FEFF 		bl	chEvtUnregister
 288              	.LVL20:
 289              		.loc 1 98 0
 290 0068 2168     		ldr	r1, [r4]
 291 006a 091B     		subs	r1, r1, r4
 292 006c B1FA81F1 		clz	r1, r1
 293 0070 0320     		movs	r0, #3
 294 0072 4909     		lsrs	r1, r1, #5
 295 0074 FFF7FEFF 		bl	_test_assert
 296              	.LVL21:
 297 0078 0028     		cmp	r0, #0
 298 007a DED1     		bne	.L23
 299              		.loc 1 103 0
 300 007c 0721     		movs	r1, #7
 301 007e 0748     		ldr	r0, .L31+8
 302 0080 FFF7FEFF 		bl	chEvtDispatch
 303              	.LVL22:
 304              		.loc 1 104 0
 305 0084 0649     		ldr	r1, .L31+12
 306 0086 0420     		movs	r0, #4
 307 0088 FFF7FEFF 		bl	_test_assert_sequence
 308              	.LVL23:
 309 008c D5E7     		b	.L23
 310              	.L30:
 311              		.loc 1 105 0
 312 008e FFF7FEFF 		bl	__stack_chk_fail
 313              	.LVL24:
 314              	.L32:
 315 0092 00BF     		.align	2
 316              	.L31:
 317 0094 00000000 		.word	__stack_chk_guard
 318 0098 00000000 		.word	.LANCHOR0
 319 009c 00000000 		.word	.LANCHOR1
 320 00a0 00000000 		.word	.LC0
 321              		.cfi_endproc
 322              	.LFE223:
 323              		.size	evt1_execute, .-evt1_execute
 324              		.section	.text.evt1_setup,"ax",%progbits
 325              		.align	1
 326              		.p2align 4,,15
 327              		.syntax unified
 328              		.thumb
 329              		.thumb_func
 330              		.fpu fpv4-sp-d16
 331              		.type	evt1_setup, %function
 332              	evt1_setup:
 333              	.LFB219:
 334              		.loc 1 75 0
 335              		.cfi_startproc
 336              		@ args = 0, pretend = 0, frame = 8
 337              		@ frame_needed = 0, uses_anonymous_args = 0
 338 0000 00B5     		push	{lr}
 339              		.cfi_def_cfa_offset 4
 340              		.cfi_offset 14, -4
 341 0002 084B     		ldr	r3, .L38
 342 0004 83B0     		sub	sp, sp, #12
ARM GAS  /var/folders/d2/nstgp4h54kz7g1l847x_b8wc0000gn/T//ccRAFsEm.s 			page 7


 343              		.cfi_def_cfa_offset 16
 344              		.loc 1 75 0
 345 0006 1A68     		ldr	r2, [r3]
 346 0008 0192     		str	r2, [sp, #4]
 347              		.loc 1 77 0
 348 000a 019A     		ldr	r2, [sp, #4]
 349 000c 1B68     		ldr	r3, [r3]
 350 000e 9A42     		cmp	r2, r3
 351 0010 06D1     		bne	.L37
 352 0012 4FF0FF30 		mov	r0, #-1
 353              		.loc 1 78 0
 354 0016 03B0     		add	sp, sp, #12
 355              		.cfi_remember_state
 356              		.cfi_def_cfa_offset 4
 357              		@ sp needed
 358 0018 5DF804EB 		ldr	lr, [sp], #4
 359              		.cfi_restore 14
 360              		.cfi_def_cfa_offset 0
 361              		.loc 1 77 0
 362 001c FFF7FEBF 		b	chEvtGetAndClearEvents
 363              	.LVL25:
 364              	.L37:
 365              		.cfi_restore_state
 366 0020 FFF7FEFF 		bl	__stack_chk_fail
 367              	.LVL26:
 368              	.L39:
 369              		.align	2
 370              	.L38:
 371 0024 00000000 		.word	__stack_chk_guard
 372              		.cfi_endproc
 373              	.LFE219:
 374              		.size	evt1_setup, .-evt1_setup
 375              		.section	.text.evt2_setup,"ax",%progbits
 376              		.align	1
 377              		.p2align 4,,15
 378              		.syntax unified
 379              		.thumb
 380              		.thumb_func
 381              		.fpu fpv4-sp-d16
 382              		.type	evt2_setup, %function
 383              	evt2_setup:
 384              	.LFB233:
 385              		.cfi_startproc
 386              		@ args = 0, pretend = 0, frame = 8
 387              		@ frame_needed = 0, uses_anonymous_args = 0
 388 0000 00B5     		push	{lr}
 389              		.cfi_def_cfa_offset 4
 390              		.cfi_offset 14, -4
 391 0002 074B     		ldr	r3, .L45
 392 0004 83B0     		sub	sp, sp, #12
 393              		.cfi_def_cfa_offset 16
 394 0006 1A68     		ldr	r2, [r3]
 395 0008 0192     		str	r2, [sp, #4]
 396 000a 019A     		ldr	r2, [sp, #4]
 397 000c 1B68     		ldr	r3, [r3]
 398 000e 9A42     		cmp	r2, r3
 399 0010 04D1     		bne	.L44
ARM GAS  /var/folders/d2/nstgp4h54kz7g1l847x_b8wc0000gn/T//ccRAFsEm.s 			page 8


 400 0012 03B0     		add	sp, sp, #12
 401              		.cfi_remember_state
 402              		.cfi_def_cfa_offset 4
 403              		@ sp needed
 404 0014 5DF804EB 		ldr	lr, [sp], #4
 405              		.cfi_restore 14
 406              		.cfi_def_cfa_offset 0
 407 0018 FFF7FEBF 		b	evt1_setup
 408              	.L44:
 409              		.cfi_restore_state
 410 001c FFF7FEFF 		bl	__stack_chk_fail
 411              	.L46:
 412              		.align	2
 413              	.L45:
 414 0020 00000000 		.word	__stack_chk_guard
 415              		.cfi_endproc
 416              	.LFE233:
 417              		.size	evt2_setup, .-evt2_setup
 418              		.section	.text.evt3_setup,"ax",%progbits
 419              		.align	1
 420              		.p2align 4,,15
 421              		.syntax unified
 422              		.thumb
 423              		.thumb_func
 424              		.fpu fpv4-sp-d16
 425              		.type	evt3_setup, %function
 426              	evt3_setup:
 427              	.LFB235:
 428              		.cfi_startproc
 429              		@ args = 0, pretend = 0, frame = 8
 430              		@ frame_needed = 0, uses_anonymous_args = 0
 431 0000 00B5     		push	{lr}
 432              		.cfi_def_cfa_offset 4
 433              		.cfi_offset 14, -4
 434 0002 074B     		ldr	r3, .L52
 435 0004 83B0     		sub	sp, sp, #12
 436              		.cfi_def_cfa_offset 16
 437 0006 1A68     		ldr	r2, [r3]
 438 0008 0192     		str	r2, [sp, #4]
 439 000a 019A     		ldr	r2, [sp, #4]
 440 000c 1B68     		ldr	r3, [r3]
 441 000e 9A42     		cmp	r2, r3
 442 0010 04D1     		bne	.L51
 443 0012 03B0     		add	sp, sp, #12
 444              		.cfi_remember_state
 445              		.cfi_def_cfa_offset 4
 446              		@ sp needed
 447 0014 5DF804EB 		ldr	lr, [sp], #4
 448              		.cfi_restore 14
 449              		.cfi_def_cfa_offset 0
 450 0018 FFF7FEBF 		b	evt1_setup
 451              	.L51:
 452              		.cfi_restore_state
 453 001c FFF7FEFF 		bl	__stack_chk_fail
 454              	.L53:
 455              		.align	2
 456              	.L52:
ARM GAS  /var/folders/d2/nstgp4h54kz7g1l847x_b8wc0000gn/T//ccRAFsEm.s 			page 9


 457 0020 00000000 		.word	__stack_chk_guard
 458              		.cfi_endproc
 459              	.LFE235:
 460              		.size	evt3_setup, .-evt3_setup
 461              		.section	.text.thread2,"ax",%progbits
 462              		.align	1
 463              		.p2align 4,,15
 464              		.syntax unified
 465              		.thumb
 466              		.thumb_func
 467              		.fpu fpv4-sp-d16
 468              		.type	thread2, %function
 469              	thread2:
 470              	.LFB226:
 471              		.loc 1 139 0
 472              		.cfi_startproc
 473              		@ args = 0, pretend = 0, frame = 8
 474              		@ frame_needed = 0, uses_anonymous_args = 0
 475              	.LVL27:
 476              		.loc 1 139 0
 477 0000 10B5     		push	{r4, lr}
 478              		.cfi_def_cfa_offset 8
 479              		.cfi_offset 4, -8
 480              		.cfi_offset 14, -4
 481 0002 0C4C     		ldr	r4, .L59
 482              	.LBB163:
 483              	.LBB164:
 484              		.loc 2 239 0
 485 0004 0C48     		ldr	r0, .L59+4
 486              	.LVL28:
 487              	.LBE164:
 488              	.LBE163:
 489              		.loc 1 139 0
 490 0006 2368     		ldr	r3, [r4]
 491 0008 82B0     		sub	sp, sp, #8
 492              		.cfi_def_cfa_offset 16
 493              	.LBB167:
 494              	.LBB165:
 495              		.loc 2 239 0
 496 000a 0021     		movs	r1, #0
 497              	.LBE165:
 498              	.LBE167:
 499              		.loc 1 139 0
 500 000c 0193     		str	r3, [sp, #4]
 501              	.LVL29:
 502              	.LBB168:
 503              	.LBB166:
 504              		.loc 2 239 0
 505 000e FFF7FEFF 		bl	chEvtBroadcastFlags
 506              	.LVL30:
 507              	.LBE166:
 508              	.LBE168:
 509              		.loc 1 143 0
 510 0012 3220     		movs	r0, #50
 511 0014 FFF7FEFF 		bl	chThdSleep
 512              	.LVL31:
 513              	.LBB169:
ARM GAS  /var/folders/d2/nstgp4h54kz7g1l847x_b8wc0000gn/T//ccRAFsEm.s 			page 10


 514              	.LBB170:
 515              		.loc 2 239 0
 516 0018 019A     		ldr	r2, [sp, #4]
 517 001a 2368     		ldr	r3, [r4]
 518 001c 9A42     		cmp	r2, r3
 519 001e 06D1     		bne	.L58
 520 0020 0648     		ldr	r0, .L59+8
 521 0022 0021     		movs	r1, #0
 522              	.LBE170:
 523              	.LBE169:
 524              		.loc 1 145 0
 525 0024 02B0     		add	sp, sp, #8
 526              		.cfi_remember_state
 527              		.cfi_def_cfa_offset 8
 528              		@ sp needed
 529 0026 BDE81040 		pop	{r4, lr}
 530              		.cfi_restore 14
 531              		.cfi_restore 4
 532              		.cfi_def_cfa_offset 0
 533              	.LBB172:
 534              	.LBB171:
 535              		.loc 2 239 0
 536 002a FFF7FEBF 		b	chEvtBroadcastFlags
 537              	.LVL32:
 538              	.L58:
 539              		.cfi_restore_state
 540 002e FFF7FEFF 		bl	__stack_chk_fail
 541              	.LVL33:
 542              	.L60:
 543 0032 00BF     		.align	2
 544              	.L59:
 545 0034 00000000 		.word	__stack_chk_guard
 546 0038 00000000 		.word	.LANCHOR0
 547 003c 00000000 		.word	.LANCHOR2
 548              	.LBE171:
 549              	.LBE172:
 550              		.cfi_endproc
 551              	.LFE226:
 552              		.size	thread2, .-thread2
 553              		.section	.text.thread1,"ax",%progbits
 554              		.align	1
 555              		.p2align 4,,15
 556              		.syntax unified
 557              		.thumb
 558              		.thumb_func
 559              		.fpu fpv4-sp-d16
 560              		.type	thread1, %function
 561              	thread1:
 562              	.LFB225:
 563              		.loc 1 133 0
 564              		.cfi_startproc
 565              		@ args = 0, pretend = 0, frame = 8
 566              		@ frame_needed = 0, uses_anonymous_args = 0
 567              	.LVL34:
 568 0000 30B5     		push	{r4, r5, lr}
 569              		.cfi_def_cfa_offset 12
 570              		.cfi_offset 4, -12
ARM GAS  /var/folders/d2/nstgp4h54kz7g1l847x_b8wc0000gn/T//ccRAFsEm.s 			page 11


 571              		.cfi_offset 5, -8
 572              		.cfi_offset 14, -4
 573 0002 0A4C     		ldr	r4, .L66
 574 0004 83B0     		sub	sp, sp, #12
 575              		.cfi_def_cfa_offset 24
 576              		.loc 1 133 0
 577 0006 2368     		ldr	r3, [r4]
 578 0008 0193     		str	r3, [sp, #4]
 579 000a 0546     		mov	r5, r0
 580              		.loc 1 135 0
 581 000c 3220     		movs	r0, #50
 582              	.LVL35:
 583 000e FFF7FEFF 		bl	chThdSleep
 584              	.LVL36:
 585              		.loc 1 136 0
 586 0012 019A     		ldr	r2, [sp, #4]
 587 0014 2368     		ldr	r3, [r4]
 588 0016 9A42     		cmp	r2, r3
 589 0018 06D1     		bne	.L65
 590 001a 2846     		mov	r0, r5
 591 001c 0121     		movs	r1, #1
 592              		.loc 1 137 0
 593 001e 03B0     		add	sp, sp, #12
 594              		.cfi_remember_state
 595              		.cfi_def_cfa_offset 12
 596              		@ sp needed
 597 0020 BDE83040 		pop	{r4, r5, lr}
 598              		.cfi_restore 14
 599              		.cfi_restore 5
 600              		.cfi_restore 4
 601              		.cfi_def_cfa_offset 0
 602              	.LVL37:
 603              		.loc 1 136 0
 604 0024 FFF7FEBF 		b	chEvtSignal
 605              	.LVL38:
 606              	.L65:
 607              		.cfi_restore_state
 608 0028 FFF7FEFF 		bl	__stack_chk_fail
 609              	.LVL39:
 610              	.L67:
 611              		.align	2
 612              	.L66:
 613 002c 00000000 		.word	__stack_chk_guard
 614              		.cfi_endproc
 615              	.LFE225:
 616              		.size	thread1, .-thread1
 617              		.section	.text.chSysUnlock,"ax",%progbits
 618              		.align	1
 619              		.p2align 4,,15
 620              		.syntax unified
 621              		.thumb
 622              		.thumb_func
 623              		.fpu fpv4-sp-d16
 624              		.type	chSysUnlock, %function
 625              	chSysUnlock:
 626              	.LFB146:
 627              		.file 3 "../e-puck2_main-processor/ChibiOS//os/rt/include/chsys.h"
ARM GAS  /var/folders/d2/nstgp4h54kz7g1l847x_b8wc0000gn/T//ccRAFsEm.s 			page 12


 628              		.loc 3 358 0
 629              		.cfi_startproc
 630              		@ args = 0, pretend = 0, frame = 8
 631              		@ frame_needed = 0, uses_anonymous_args = 0
 632 0000 10B5     		push	{r4, lr}
 633              		.cfi_def_cfa_offset 8
 634              		.cfi_offset 4, -8
 635              		.cfi_offset 14, -4
 636 0002 104C     		ldr	r4, .L74
 637 0004 82B0     		sub	sp, sp, #8
 638              		.cfi_def_cfa_offset 16
 639              		.loc 3 358 0
 640 0006 2368     		ldr	r3, [r4]
 641 0008 0193     		str	r3, [sp, #4]
 642              		.loc 3 360 0
 643 000a FFF7FEFF 		bl	_dbg_check_unlock
 644              	.LVL40:
 645              		.loc 3 361 0
 646 000e FFF7FEFF 		bl	_stats_stop_measure_crit_thd
 647              	.LVL41:
 648              		.loc 3 367 0
 649 0012 0D4B     		ldr	r3, .L74+4
 650 0014 1A68     		ldr	r2, [r3]
 651 0016 9A42     		cmp	r2, r3
 652 0018 04D0     		beq	.L69
 653              		.loc 3 367 0 is_stmt 0 discriminator 2
 654 001a 9969     		ldr	r1, [r3, #24]
 655 001c 9368     		ldr	r3, [r2, #8]
 656 001e 8A68     		ldr	r2, [r1, #8]
 657 0020 9A42     		cmp	r2, r3
 658 0022 08D3     		bcc	.L72
 659              	.L69:
 660              	.LVL42:
 661              	.LBB176:
 662              	.LBB177:
 663              	.LBB178:
 664              		.file 4 "../e-puck2_main-processor/ChibiOS//os/ext/CMSIS/include/core_cmFunc.h"
 665              		.loc 4 546 0 is_stmt 1
 666 0024 0023     		movs	r3, #0
 667              		.syntax unified
 668              	@ 546 "../e-puck2_main-processor/ChibiOS//os/ext/CMSIS/include/core_cmFunc.h" 1
 669 0026 83F31188 		MSR basepri, r3
 670              	@ 0 "" 2
 671              	.LVL43:
 672              		.thumb
 673              		.syntax unified
 674              	.LBE178:
 675              	.LBE177:
 676              	.LBE176:
 677              		.loc 3 372 0
 678 002a 019A     		ldr	r2, [sp, #4]
 679 002c 2368     		ldr	r3, [r4]
 680 002e 9A42     		cmp	r2, r3
 681 0030 05D1     		bne	.L73
 682 0032 02B0     		add	sp, sp, #8
 683              		.cfi_remember_state
 684              		.cfi_def_cfa_offset 8
ARM GAS  /var/folders/d2/nstgp4h54kz7g1l847x_b8wc0000gn/T//ccRAFsEm.s 			page 13


 685              		@ sp needed
 686 0034 10BD     		pop	{r4, pc}
 687              	.L72:
 688              		.cfi_restore_state
 689              		.loc 3 367 0 discriminator 3
 690 0036 0548     		ldr	r0, .L74+8
 691 0038 FFF7FEFF 		bl	chSysHalt
 692              	.LVL44:
 693 003c F2E7     		b	.L69
 694              	.L73:
 695              		.loc 3 372 0
 696 003e FFF7FEFF 		bl	__stack_chk_fail
 697              	.LVL45:
 698              	.L75:
 699 0042 00BF     		.align	2
 700              	.L74:
 701 0044 00000000 		.word	__stack_chk_guard
 702 0048 00000000 		.word	ch
 703 004c 00000000 		.word	.LANCHOR3
 704              		.cfi_endproc
 705              	.LFE146:
 706              		.size	chSysUnlock, .-chSysUnlock
 707              		.section	.text.evt3_execute,"ax",%progbits
 708              		.align	1
 709              		.p2align 4,,15
 710              		.syntax unified
 711              		.thumb
 712              		.thumb_func
 713              		.fpu fpv4-sp-d16
 714              		.type	evt3_execute, %function
 715              	evt3_execute:
 716              	.LFB229:
 717              		.loc 1 252 0
 718              		.cfi_startproc
 719              		@ args = 0, pretend = 0, frame = 8
 720              		@ frame_needed = 0, uses_anonymous_args = 0
 721 0000 10B5     		push	{r4, lr}
 722              		.cfi_def_cfa_offset 8
 723              		.cfi_offset 4, -8
 724              		.cfi_offset 14, -4
 725 0002 2F4C     		ldr	r4, .L85
 726 0004 82B0     		sub	sp, sp, #8
 727              		.cfi_def_cfa_offset 16
 728              		.loc 1 258 0
 729 0006 0021     		movs	r1, #0
 730              		.loc 1 252 0
 731 0008 2368     		ldr	r3, [r4]
 732 000a 0193     		str	r3, [sp, #4]
 733              		.loc 1 258 0
 734 000c 4FF0FF30 		mov	r0, #-1
 735 0010 FFF7FEFF 		bl	chEvtWaitOneTimeout
 736              	.LVL46:
 737              		.loc 1 259 0
 738 0014 B0FA80F1 		clz	r1, r0
 739 0018 4909     		lsrs	r1, r1, #5
 740 001a 0120     		movs	r0, #1
 741              	.LVL47:
ARM GAS  /var/folders/d2/nstgp4h54kz7g1l847x_b8wc0000gn/T//ccRAFsEm.s 			page 14


 742 001c FFF7FEFF 		bl	_test_assert
 743              	.LVL48:
 744 0020 28B1     		cbz	r0, .L84
 745              	.L76:
 746              		.loc 1 270 0
 747 0022 019A     		ldr	r2, [sp, #4]
 748 0024 2368     		ldr	r3, [r4]
 749 0026 9A42     		cmp	r2, r3
 750 0028 47D1     		bne	.L83
 751 002a 02B0     		add	sp, sp, #8
 752              		.cfi_remember_state
 753              		.cfi_def_cfa_offset 8
 754              		@ sp needed
 755 002c 10BD     		pop	{r4, pc}
 756              	.L84:
 757              		.cfi_restore_state
 758              		.loc 1 260 0
 759 002e 0146     		mov	r1, r0
 760 0030 4FF0FF30 		mov	r0, #-1
 761 0034 FFF7FEFF 		bl	chEvtWaitAnyTimeout
 762              	.LVL49:
 763              		.loc 1 261 0
 764 0038 B0FA80F1 		clz	r1, r0
 765 003c 4909     		lsrs	r1, r1, #5
 766 003e 0220     		movs	r0, #2
 767              	.LVL50:
 768 0040 FFF7FEFF 		bl	_test_assert
 769              	.LVL51:
 770 0044 0028     		cmp	r0, #0
 771 0046 ECD1     		bne	.L76
 772              		.loc 1 262 0
 773 0048 0146     		mov	r1, r0
 774 004a 4FF0FF30 		mov	r0, #-1
 775 004e FFF7FEFF 		bl	chEvtWaitAllTimeout
 776              	.LVL52:
 777              		.loc 1 263 0
 778 0052 B0FA80F1 		clz	r1, r0
 779 0056 4909     		lsrs	r1, r1, #5
 780 0058 0320     		movs	r0, #3
 781              	.LVL53:
 782 005a FFF7FEFF 		bl	_test_assert
 783              	.LVL54:
 784 005e 0028     		cmp	r0, #0
 785 0060 DFD1     		bne	.L76
 786              	.LBB181:
 787              	.LBB182:
 788              		.loc 1 264 0
 789 0062 0A21     		movs	r1, #10
 790 0064 4FF0FF30 		mov	r0, #-1
 791 0068 FFF7FEFF 		bl	chEvtWaitOneTimeout
 792              	.LVL55:
 793              		.loc 1 265 0
 794 006c B0FA80F1 		clz	r1, r0
 795 0070 4909     		lsrs	r1, r1, #5
 796 0072 0420     		movs	r0, #4
 797              	.LVL56:
 798 0074 FFF7FEFF 		bl	_test_assert
ARM GAS  /var/folders/d2/nstgp4h54kz7g1l847x_b8wc0000gn/T//ccRAFsEm.s 			page 15


 799              	.LVL57:
 800 0078 0028     		cmp	r0, #0
 801 007a D2D1     		bne	.L76
 802              		.loc 1 266 0
 803 007c 0A21     		movs	r1, #10
 804 007e 4FF0FF30 		mov	r0, #-1
 805 0082 FFF7FEFF 		bl	chEvtWaitAnyTimeout
 806              	.LVL58:
 807              		.loc 1 267 0
 808 0086 B0FA80F1 		clz	r1, r0
 809 008a 4909     		lsrs	r1, r1, #5
 810 008c 0520     		movs	r0, #5
 811              	.LVL59:
 812 008e FFF7FEFF 		bl	_test_assert
 813              	.LVL60:
 814 0092 0028     		cmp	r0, #0
 815 0094 C5D1     		bne	.L76
 816              		.loc 1 268 0
 817 0096 0A21     		movs	r1, #10
 818 0098 4FF0FF30 		mov	r0, #-1
 819 009c FFF7FEFF 		bl	chEvtWaitAllTimeout
 820              	.LVL61:
 821              		.loc 1 269 0
 822 00a0 019A     		ldr	r2, [sp, #4]
 823 00a2 2368     		ldr	r3, [r4]
 824 00a4 9A42     		cmp	r2, r3
 825 00a6 08D1     		bne	.L83
 826 00a8 B0FA80F1 		clz	r1, r0
 827 00ac 4909     		lsrs	r1, r1, #5
 828 00ae 0620     		movs	r0, #6
 829              	.LVL62:
 830              	.LBE182:
 831              	.LBE181:
 832              		.loc 1 270 0
 833 00b0 02B0     		add	sp, sp, #8
 834              		.cfi_remember_state
 835              		.cfi_def_cfa_offset 8
 836              		@ sp needed
 837 00b2 BDE81040 		pop	{r4, lr}
 838              		.cfi_restore 14
 839              		.cfi_restore 4
 840              		.cfi_def_cfa_offset 0
 841              	.LBB184:
 842              	.LBB183:
 843              		.loc 1 269 0
 844 00b6 FFF7FEBF 		b	_test_assert
 845              	.LVL63:
 846              	.L83:
 847              		.cfi_restore_state
 848              	.LBE183:
 849              	.LBE184:
 850              		.loc 1 270 0
 851 00ba FFF7FEFF 		bl	__stack_chk_fail
 852              	.LVL64:
 853              	.L86:
 854 00be 00BF     		.align	2
 855              	.L85:
ARM GAS  /var/folders/d2/nstgp4h54kz7g1l847x_b8wc0000gn/T//ccRAFsEm.s 			page 16


 856 00c0 00000000 		.word	__stack_chk_guard
 857              		.cfi_endproc
 858              	.LFE229:
 859              		.size	evt3_execute, .-evt3_execute
 860              		.section	.text.evt2_execute,"ax",%progbits
 861              		.align	1
 862              		.p2align 4,,15
 863              		.syntax unified
 864              		.thumb
 865              		.thumb_func
 866              		.fpu fpv4-sp-d16
 867              		.type	evt2_execute, %function
 868              	evt2_execute:
 869              	.LFB227:
 870              		.loc 1 147 0
 871              		.cfi_startproc
 872              		@ args = 0, pretend = 0, frame = 56
 873              		@ frame_needed = 0, uses_anonymous_args = 0
 874 0000 2DE9F046 		push	{r4, r5, r6, r7, r9, r10, lr}
 875              		.cfi_def_cfa_offset 28
 876              		.cfi_offset 4, -28
 877              		.cfi_offset 5, -24
 878              		.cfi_offset 6, -20
 879              		.cfi_offset 7, -16
 880              		.cfi_offset 9, -12
 881              		.cfi_offset 10, -8
 882              		.cfi_offset 14, -4
 883 0004 AC4C     		ldr	r4, .L99
 884 0006 91B0     		sub	sp, sp, #68
 885              		.cfi_def_cfa_offset 96
 886              		.loc 1 147 0
 887 0008 2368     		ldr	r3, [r4]
 888 000a 0F93     		str	r3, [sp, #60]
 889              		.loc 1 155 0
 890 000c 0720     		movs	r0, #7
 891 000e FFF7FEFF 		bl	chEvtAddEvents
 892              	.LVL65:
 893              		.loc 1 156 0
 894 0012 4FF0FF30 		mov	r0, #-1
 895 0016 FFF7FEFF 		bl	chEvtWaitOne
 896              	.LVL66:
 897              		.loc 1 157 0
 898 001a A0F10101 		sub	r1, r0, #1
 899 001e B1FA81F1 		clz	r1, r1
 900 0022 4909     		lsrs	r1, r1, #5
 901 0024 0120     		movs	r0, #1
 902              	.LVL67:
 903 0026 FFF7FEFF 		bl	_test_assert
 904              	.LVL68:
 905 002a 38B1     		cbz	r0, .L97
 906              	.L87:
 907              		.loc 1 222 0
 908 002c 0F9A     		ldr	r2, [sp, #60]
 909 002e 2368     		ldr	r3, [r4]
 910 0030 9A42     		cmp	r2, r3
 911 0032 40F03F81 		bne	.L98
 912 0036 11B0     		add	sp, sp, #68
ARM GAS  /var/folders/d2/nstgp4h54kz7g1l847x_b8wc0000gn/T//ccRAFsEm.s 			page 17


 913              		.cfi_remember_state
 914              		.cfi_def_cfa_offset 28
 915              		@ sp needed
 916 0038 BDE8F086 		pop	{r4, r5, r6, r7, r9, r10, pc}
 917              	.L97:
 918              		.cfi_restore_state
 919              		.loc 1 158 0
 920 003c 4FF0FF30 		mov	r0, #-1
 921 0040 FFF7FEFF 		bl	chEvtWaitOne
 922              	.LVL69:
 923              		.loc 1 159 0
 924 0044 A0F10201 		sub	r1, r0, #2
 925 0048 B1FA81F1 		clz	r1, r1
 926 004c 4909     		lsrs	r1, r1, #5
 927 004e 0220     		movs	r0, #2
 928              	.LVL70:
 929 0050 FFF7FEFF 		bl	_test_assert
 930              	.LVL71:
 931 0054 0028     		cmp	r0, #0
 932 0056 E9D1     		bne	.L87
 933              		.loc 1 160 0
 934 0058 4FF0FF30 		mov	r0, #-1
 935 005c FFF7FEFF 		bl	chEvtWaitOne
 936              	.LVL72:
 937              		.loc 1 161 0
 938 0060 A0F10401 		sub	r1, r0, #4
 939 0064 B1FA81F1 		clz	r1, r1
 940 0068 4909     		lsrs	r1, r1, #5
 941 006a 0320     		movs	r0, #3
 942              	.LVL73:
 943 006c FFF7FEFF 		bl	_test_assert
 944              	.LVL74:
 945 0070 0028     		cmp	r0, #0
 946 0072 DBD1     		bne	.L87
 947              	.LBB247:
 948              	.LBB248:
 949              		.loc 1 162 0
 950 0074 4FF0FF30 		mov	r0, #-1
 951 0078 FFF7FEFF 		bl	chEvtGetAndClearEvents
 952              	.LVL75:
 953              		.loc 1 163 0
 954 007c B0FA80F1 		clz	r1, r0
 955 0080 4909     		lsrs	r1, r1, #5
 956 0082 0420     		movs	r0, #4
 957              	.LVL76:
 958 0084 FFF7FEFF 		bl	_test_assert
 959              	.LVL77:
 960 0088 0028     		cmp	r0, #0
 961 008a CFD1     		bne	.L87
 962              		.loc 1 168 0
 963 008c FFF7FEFF 		bl	test_wait_tick
 964              	.LVL78:
 965              	.LBB249:
 966              	.LBB250:
 967              	.LBB251:
 968              	.LBB252:
 969              	.LBB253:
ARM GAS  /var/folders/d2/nstgp4h54kz7g1l847x_b8wc0000gn/T//ccRAFsEm.s 			page 18


 970              	.LBB254:
 971              	.LBB255:
 972              		.loc 4 546 0
 973 0090 2023     		movs	r3, #32
 974              		.syntax unified
 975              	@ 546 "../e-puck2_main-processor/ChibiOS//os/ext/CMSIS/include/core_cmFunc.h" 1
 976 0092 83F31188 		MSR basepri, r3
 977              	@ 0 "" 2
 978              	.LVL79:
 979              		.thumb
 980              		.syntax unified
 981              	.LBE255:
 982              	.LBE254:
 983              	.LBE253:
 984              	.LBE252:
 985              	.LBE251:
 986              	.LBB257:
 987              	.LBB258:
 988              		.file 5 "../e-puck2_main-processor/ChibiOS//os/rt/include/chvt.h"
 989              		.loc 5 231 0
 990 0096 894D     		ldr	r5, .L99+4
 991              	.LBE258:
 992              	.LBE257:
 993              	.LBB260:
 994              	.LBB256:
 995              		.loc 3 349 0
 996 0098 FFF7FEFF 		bl	_stats_start_measure_crit_thd
 997              	.LVL80:
 998              		.loc 3 350 0
 999 009c FFF7FEFF 		bl	_dbg_check_lock
 1000              	.LVL81:
 1001              	.LBE256:
 1002              	.LBE260:
 1003              	.LBB261:
 1004              	.LBB259:
 1005              		.loc 5 231 0
 1006 00a0 AE6A     		ldr	r6, [r5, #40]
 1007              	.LBE259:
 1008              	.LBE261:
 1009              	.LBB262:
 1010              	.LBB263:
 1011              		.loc 3 360 0
 1012 00a2 FFF7FEFF 		bl	_dbg_check_unlock
 1013              	.LVL82:
 1014              		.loc 3 361 0
 1015 00a6 FFF7FEFF 		bl	_stats_stop_measure_crit_thd
 1016              	.LVL83:
 1017              		.loc 3 367 0
 1018 00aa 2B68     		ldr	r3, [r5]
 1019 00ac AB42     		cmp	r3, r5
 1020 00ae 07D0     		beq	.L93
 1021 00b0 AA69     		ldr	r2, [r5, #24]
 1022 00b2 9B68     		ldr	r3, [r3, #8]
 1023 00b4 9268     		ldr	r2, [r2, #8]
 1024 00b6 9A42     		cmp	r2, r3
 1025 00b8 02D2     		bcs	.L93
 1026 00ba 8148     		ldr	r0, .L99+8
ARM GAS  /var/folders/d2/nstgp4h54kz7g1l847x_b8wc0000gn/T//ccRAFsEm.s 			page 19


 1027 00bc FFF7FEFF 		bl	chSysHalt
 1028              	.LVL84:
 1029              	.L93:
 1030              	.LBB264:
 1031              	.LBB265:
 1032              	.LBB266:
 1033              		.loc 4 546 0
 1034 00c0 0023     		movs	r3, #0
 1035              		.syntax unified
 1036              	@ 546 "../e-puck2_main-processor/ChibiOS//os/ext/CMSIS/include/core_cmFunc.h" 1
 1037 00c2 83F31188 		MSR basepri, r3
 1038              	@ 0 "" 2
 1039              	.LVL85:
 1040              		.thumb
 1041              		.syntax unified
 1042              	.LBE266:
 1043              	.LBE265:
 1044              	.LBE264:
 1045              	.LBE263:
 1046              	.LBE262:
 1047              	.LBE250:
 1048              	.LBE249:
 1049              		.loc 1 170 0
 1050 00c6 7F4B     		ldr	r3, .L99+12
 1051              	.LBB267:
 1052              	.LBB268:
 1053              	.LBB269:
 1054              	.LBB270:
 1055              		.file 6 "../e-puck2_main-processor/ChibiOS//os/rt/include/chthreads.h"
 1056              		.loc 6 176 0
 1057 00c8 A969     		ldr	r1, [r5, #24]
 1058              	.LBE270:
 1059              	.LBE269:
 1060              	.LBE268:
 1061              	.LBE267:
 1062              		.loc 1 170 0
 1063 00ca 1B68     		ldr	r3, [r3]
 1064 00cc 8A68     		ldr	r2, [r1, #8]
 1065 00ce 0393     		str	r3, [sp, #12]
 1066 00d0 013A     		subs	r2, r2, #1
 1067 00d2 1846     		mov	r0, r3
 1068 00d4 0091     		str	r1, [sp]
 1069 00d6 7C4B     		ldr	r3, .L99+16
 1070 00d8 7C4F     		ldr	r7, .L99+20
 1071 00da 4FF4FC71 		mov	r1, #504
 1072 00de FFF7FEFF 		bl	chThdCreateStatic
 1073              	.LVL86:
 1074 00e2 3860     		str	r0, [r7]
 1075              		.loc 1 172 0
 1076 00e4 4FF0FF30 		mov	r0, #-1
 1077 00e8 FFF7FEFF 		bl	chEvtWaitOne
 1078              	.LVL87:
 1079              		.loc 1 173 0
 1080 00ec 06F13702 		add	r2, r6, #55
 1081              		.loc 1 172 0
 1082 00f0 8146     		mov	r9, r0
 1083              	.LVL88:
ARM GAS  /var/folders/d2/nstgp4h54kz7g1l847x_b8wc0000gn/T//ccRAFsEm.s 			page 20


 1084              		.loc 1 173 0
 1085 00f2 06F13201 		add	r1, r6, #50
 1086              	.LVL89:
 1087 00f6 0520     		movs	r0, #5
 1088              	.LVL90:
 1089 00f8 FFF7FEFF 		bl	_test_assert_time_window
 1090              	.LVL91:
 1091 00fc 0028     		cmp	r0, #0
 1092 00fe 95D1     		bne	.L87
 1093              		.loc 1 174 0
 1094 0100 A9F10101 		sub	r1, r9, #1
 1095 0104 B1FA81F1 		clz	r1, r1
 1096 0108 4909     		lsrs	r1, r1, #5
 1097 010a 0620     		movs	r0, #6
 1098 010c FFF7FEFF 		bl	_test_assert
 1099              	.LVL92:
 1100 0110 0028     		cmp	r0, #0
 1101 0112 8BD1     		bne	.L87
 1102              		.loc 1 175 0
 1103 0114 4FF0FF30 		mov	r0, #-1
 1104 0118 FFF7FEFF 		bl	chEvtGetAndClearEvents
 1105              	.LVL93:
 1106              		.loc 1 176 0
 1107 011c B0FA80F1 		clz	r1, r0
 1108 0120 4909     		lsrs	r1, r1, #5
 1109 0122 0720     		movs	r0, #7
 1110              	.LVL94:
 1111 0124 FFF7FEFF 		bl	_test_assert
 1112              	.LVL95:
 1113 0128 0028     		cmp	r0, #0
 1114 012a 7FF47FAF 		bne	.L87
 1115              		.loc 1 177 0
 1116 012e FFF7FEFF 		bl	test_wait_threads
 1117              	.LVL96:
 1118              		.loc 1 182 0
 1119 0132 0520     		movs	r0, #5
 1120 0134 FFF7FEFF 		bl	chEvtAddEvents
 1121              	.LVL97:
 1122              		.loc 1 183 0
 1123 0138 4FF0FF30 		mov	r0, #-1
 1124 013c FFF7FEFF 		bl	chEvtWaitAny
 1125              	.LVL98:
 1126              		.loc 1 184 0
 1127 0140 461F     		subs	r6, r0, #5
 1128              	.LVL99:
 1129 0142 7142     		rsbs	r1, r6, #0
 1130 0144 7141     		adcs	r1, r1, r6
 1131 0146 0820     		movs	r0, #8
 1132              	.LVL100:
 1133 0148 FFF7FEFF 		bl	_test_assert
 1134              	.LVL101:
 1135 014c 0028     		cmp	r0, #0
 1136 014e 7FF46DAF 		bne	.L87
 1137              		.loc 1 185 0
 1138 0152 4FF0FF30 		mov	r0, #-1
 1139 0156 FFF7FEFF 		bl	chEvtGetAndClearEvents
 1140              	.LVL102:
ARM GAS  /var/folders/d2/nstgp4h54kz7g1l847x_b8wc0000gn/T//ccRAFsEm.s 			page 21


 1141              		.loc 1 186 0
 1142 015a B0FA80F1 		clz	r1, r0
 1143 015e 4909     		lsrs	r1, r1, #5
 1144 0160 0920     		movs	r0, #9
 1145              	.LVL103:
 1146 0162 FFF7FEFF 		bl	_test_assert
 1147              	.LVL104:
 1148 0166 0028     		cmp	r0, #0
 1149 0168 7FF460AF 		bne	.L87
 1150              		.loc 1 191 0
 1151 016c FFF7FEFF 		bl	test_wait_tick
 1152              	.LVL105:
 1153              	.LBB271:
 1154              	.LBB272:
 1155              	.LBB273:
 1156              	.LBB274:
 1157              	.LBB275:
 1158              	.LBB276:
 1159              	.LBB277:
 1160              		.loc 4 546 0
 1161 0170 4FF0200A 		mov	r10, #32
 1162              		.syntax unified
 1163              	@ 546 "../e-puck2_main-processor/ChibiOS//os/ext/CMSIS/include/core_cmFunc.h" 1
 1164 0174 8AF31188 		MSR basepri, r10
 1165              	@ 0 "" 2
 1166              	.LVL106:
 1167              		.thumb
 1168              		.syntax unified
 1169              	.LBE277:
 1170              	.LBE276:
 1171              	.LBE275:
 1172              		.loc 3 349 0
 1173 0178 FFF7FEFF 		bl	_stats_start_measure_crit_thd
 1174              	.LVL107:
 1175              		.loc 3 350 0
 1176 017c FFF7FEFF 		bl	_dbg_check_lock
 1177              	.LVL108:
 1178              	.LBE274:
 1179              	.LBE273:
 1180              	.LBB278:
 1181              	.LBB279:
 1182              		.loc 5 231 0
 1183 0180 AE6A     		ldr	r6, [r5, #40]
 1184              	.LBE279:
 1185              	.LBE278:
 1186              		.loc 5 252 0
 1187 0182 FFF7FEFF 		bl	chSysUnlock
 1188              	.LVL109:
 1189              	.LBE272:
 1190              	.LBE271:
 1191              	.LBB280:
 1192              	.LBB281:
 1193              	.LBB282:
 1194              	.LBB283:
 1195              		.loc 6 176 0
 1196 0186 A969     		ldr	r1, [r5, #24]
 1197              	.LBE283:
ARM GAS  /var/folders/d2/nstgp4h54kz7g1l847x_b8wc0000gn/T//ccRAFsEm.s 			page 22


 1198              	.LBE282:
 1199              	.LBE281:
 1200              	.LBE280:
 1201              		.loc 1 193 0
 1202 0188 4F4B     		ldr	r3, .L99+16
 1203 018a 8A68     		ldr	r2, [r1, #8]
 1204 018c 0398     		ldr	r0, [sp, #12]
 1205 018e 0091     		str	r1, [sp]
 1206 0190 013A     		subs	r2, r2, #1
 1207 0192 4FF4FC71 		mov	r1, #504
 1208 0196 FFF7FEFF 		bl	chThdCreateStatic
 1209              	.LVL110:
 1210 019a 3860     		str	r0, [r7]
 1211              		.loc 1 195 0
 1212 019c 4FF0FF30 		mov	r0, #-1
 1213 01a0 FFF7FEFF 		bl	chEvtWaitAny
 1214              	.LVL111:
 1215              		.loc 1 196 0
 1216 01a4 06F13702 		add	r2, r6, #55
 1217              		.loc 1 195 0
 1218 01a8 8146     		mov	r9, r0
 1219              	.LVL112:
 1220              		.loc 1 196 0
 1221 01aa 06F13201 		add	r1, r6, #50
 1222              	.LVL113:
 1223 01ae 0A20     		movs	r0, #10
 1224              	.LVL114:
 1225 01b0 FFF7FEFF 		bl	_test_assert_time_window
 1226              	.LVL115:
 1227 01b4 0028     		cmp	r0, #0
 1228 01b6 7FF439AF 		bne	.L87
 1229              		.loc 1 197 0
 1230 01ba 09F1FF30 		add	r0, r9, #-1
 1231 01be 4142     		rsbs	r1, r0, #0
 1232 01c0 4141     		adcs	r1, r1, r0
 1233 01c2 0B20     		movs	r0, #11
 1234 01c4 FFF7FEFF 		bl	_test_assert
 1235              	.LVL116:
 1236 01c8 0028     		cmp	r0, #0
 1237 01ca 7FF42FAF 		bne	.L87
 1238              		.loc 1 198 0
 1239 01ce 4FF0FF30 		mov	r0, #-1
 1240 01d2 FFF7FEFF 		bl	chEvtGetAndClearEvents
 1241              	.LVL117:
 1242              		.loc 1 199 0
 1243 01d6 B0FA80F1 		clz	r1, r0
 1244 01da 4909     		lsrs	r1, r1, #5
 1245 01dc 0C20     		movs	r0, #12
 1246              	.LVL118:
 1247 01de FFF7FEFF 		bl	_test_assert
 1248              	.LVL119:
 1249 01e2 0028     		cmp	r0, #0
 1250 01e4 7FF422AF 		bne	.L87
 1251              	.LBB284:
 1252              	.LBB285:
 1253              		.loc 2 172 0
 1254 01e8 DFF8F090 		ldr	r9, .L99+36
ARM GAS  /var/folders/d2/nstgp4h54kz7g1l847x_b8wc0000gn/T//ccRAFsEm.s 			page 23


 1255              	.LBE285:
 1256              	.LBE284:
 1257              	.LBB287:
 1258              	.LBB288:
 1259 01ec 384E     		ldr	r6, .L99+24
 1260              	.LVL120:
 1261              	.LBE288:
 1262              	.LBE287:
 1263              		.loc 1 200 0
 1264 01ee FFF7FEFF 		bl	test_wait_threads
 1265              	.LVL121:
 1266              	.LBB290:
 1267              	.LBB291:
 1268              		.loc 2 193 0
 1269 01f2 4846     		mov	r0, r9
 1270 01f4 05A9     		add	r1, sp, #20
 1271 01f6 4FF0FF33 		mov	r3, #-1
 1272 01fa 0122     		movs	r2, #1
 1273              	.LBE291:
 1274              	.LBE290:
 1275              	.LBB293:
 1276              	.LBB286:
 1277              		.loc 2 172 0
 1278 01fc C9F80090 		str	r9, [r9]
 1279              	.LVL122:
 1280              	.LBE286:
 1281              	.LBE293:
 1282              	.LBB294:
 1283              	.LBB289:
 1284 0200 3660     		str	r6, [r6]
 1285              	.LVL123:
 1286              	.LBE289:
 1287              	.LBE294:
 1288              	.LBB295:
 1289              	.LBB292:
 1290              		.loc 2 193 0
 1291 0202 FFF7FEFF 		bl	chEvtRegisterMaskWithFlags
 1292              	.LVL124:
 1293              	.LBE292:
 1294              	.LBE295:
 1295              	.LBB296:
 1296              	.LBB297:
 1297 0206 3046     		mov	r0, r6
 1298 0208 0AA9     		add	r1, sp, #40
 1299              	.LVL125:
 1300 020a 4FF0FF33 		mov	r3, #-1
 1301 020e 0422     		movs	r2, #4
 1302 0210 FFF7FEFF 		bl	chEvtRegisterMaskWithFlags
 1303              	.LVL126:
 1304              	.LBE297:
 1305              	.LBE296:
 1306              		.loc 1 209 0
 1307 0214 FFF7FEFF 		bl	test_wait_tick
 1308              	.LVL127:
 1309              	.LBB298:
 1310              	.LBB299:
 1311              	.LBB300:
ARM GAS  /var/folders/d2/nstgp4h54kz7g1l847x_b8wc0000gn/T//ccRAFsEm.s 			page 24


 1312              	.LBB301:
 1313              	.LBB302:
 1314              	.LBB303:
 1315              	.LBB304:
 1316              		.loc 4 546 0
 1317              		.syntax unified
 1318              	@ 546 "../e-puck2_main-processor/ChibiOS//os/ext/CMSIS/include/core_cmFunc.h" 1
 1319 0218 8AF31188 		MSR basepri, r10
 1320              	@ 0 "" 2
 1321              	.LVL128:
 1322              		.thumb
 1323              		.syntax unified
 1324              	.LBE304:
 1325              	.LBE303:
 1326              	.LBE302:
 1327              		.loc 3 349 0
 1328 021c FFF7FEFF 		bl	_stats_start_measure_crit_thd
 1329              	.LVL129:
 1330              		.loc 3 350 0
 1331 0220 FFF7FEFF 		bl	_dbg_check_lock
 1332              	.LVL130:
 1333              	.LBE301:
 1334              	.LBE300:
 1335              	.LBB305:
 1336              	.LBB306:
 1337              		.loc 5 231 0
 1338 0224 D5F828A0 		ldr	r10, [r5, #40]
 1339              	.LBE306:
 1340              	.LBE305:
 1341              		.loc 5 252 0
 1342 0228 FFF7FEFF 		bl	chSysUnlock
 1343              	.LVL131:
 1344              	.LBE299:
 1345              	.LBE298:
 1346              	.LBB307:
 1347              	.LBB308:
 1348              		.loc 6 189 0
 1349 022c AB69     		ldr	r3, [r5, #24]
 1350              	.LBE308:
 1351              	.LBE307:
 1352              		.loc 1 211 0
 1353 022e 2949     		ldr	r1, .L99+28
 1354 0230 9A68     		ldr	r2, [r3, #8]
 1355 0232 0398     		ldr	r0, [sp, #12]
 1356 0234 284B     		ldr	r3, .L99+32
 1357 0236 0091     		str	r1, [sp]
 1358 0238 013A     		subs	r2, r2, #1
 1359 023a 4FF4FC71 		mov	r1, #504
 1360 023e FFF7FEFF 		bl	chThdCreateStatic
 1361              	.LVL132:
 1362 0242 3860     		str	r0, [r7]
 1363              		.loc 1 213 0
 1364 0244 0520     		movs	r0, #5
 1365 0246 FFF7FEFF 		bl	chEvtWaitAll
 1366              	.LVL133:
 1367              		.loc 1 214 0
 1368 024a 0AF13702 		add	r2, r10, #55
ARM GAS  /var/folders/d2/nstgp4h54kz7g1l847x_b8wc0000gn/T//ccRAFsEm.s 			page 25


 1369 024e 0AF13201 		add	r1, r10, #50
 1370              	.LVL134:
 1371 0252 0D20     		movs	r0, #13
 1372 0254 FFF7FEFF 		bl	_test_assert_time_window
 1373              	.LVL135:
 1374 0258 0028     		cmp	r0, #0
 1375 025a 7FF4E7AE 		bne	.L87
 1376              		.loc 1 215 0
 1377 025e 4FF0FF30 		mov	r0, #-1
 1378 0262 FFF7FEFF 		bl	chEvtGetAndClearEvents
 1379              	.LVL136:
 1380              		.loc 1 216 0
 1381 0266 B0FA80F1 		clz	r1, r0
 1382 026a 4909     		lsrs	r1, r1, #5
 1383 026c 0E20     		movs	r0, #14
 1384              	.LVL137:
 1385 026e FFF7FEFF 		bl	_test_assert
 1386              	.LVL138:
 1387 0272 0028     		cmp	r0, #0
 1388 0274 7FF4DAAE 		bne	.L87
 1389              		.loc 1 217 0
 1390 0278 FFF7FEFF 		bl	test_wait_threads
 1391              	.LVL139:
 1392              		.loc 1 218 0
 1393 027c 05A9     		add	r1, sp, #20
 1394 027e 4846     		mov	r0, r9
 1395 0280 FFF7FEFF 		bl	chEvtUnregister
 1396              	.LVL140:
 1397              		.loc 1 219 0
 1398 0284 0AA9     		add	r1, sp, #40
 1399 0286 3046     		mov	r0, r6
 1400 0288 FFF7FEFF 		bl	chEvtUnregister
 1401              	.LVL141:
 1402              		.loc 1 220 0
 1403 028c D9F80010 		ldr	r1, [r9]
 1404 0290 A1EB0902 		sub	r2, r1, r9
 1405 0294 5142     		rsbs	r1, r2, #0
 1406 0296 5141     		adcs	r1, r1, r2
 1407 0298 0F20     		movs	r0, #15
 1408 029a FFF7FEFF 		bl	_test_assert
 1409              	.LVL142:
 1410 029e 0028     		cmp	r0, #0
 1411 02a0 7FF4C4AE 		bne	.L87
 1412              		.loc 1 221 0
 1413 02a4 3168     		ldr	r1, [r6]
 1414 02a6 8B1B     		subs	r3, r1, r6
 1415 02a8 5942     		rsbs	r1, r3, #0
 1416 02aa 5941     		adcs	r1, r1, r3
 1417 02ac 1020     		movs	r0, #16
 1418 02ae FFF7FEFF 		bl	_test_assert
 1419              	.LVL143:
 1420 02b2 BBE6     		b	.L87
 1421              	.LVL144:
 1422              	.L98:
 1423              	.LBE248:
 1424              	.LBE247:
 1425              		.loc 1 222 0
ARM GAS  /var/folders/d2/nstgp4h54kz7g1l847x_b8wc0000gn/T//ccRAFsEm.s 			page 26


 1426 02b4 FFF7FEFF 		bl	__stack_chk_fail
 1427              	.LVL145:
 1428              	.L100:
 1429              		.align	2
 1430              	.L99:
 1431 02b8 00000000 		.word	__stack_chk_guard
 1432 02bc 00000000 		.word	ch
 1433 02c0 00000000 		.word	.LANCHOR3
 1434 02c4 00000000 		.word	wa
 1435 02c8 00000000 		.word	thread1
 1436 02cc 00000000 		.word	threads
 1437 02d0 00000000 		.word	.LANCHOR2
 1438 02d4 00000000 		.word	.LC1
 1439 02d8 00000000 		.word	thread2
 1440 02dc 00000000 		.word	.LANCHOR0
 1441              		.cfi_endproc
 1442              	.LFE227:
 1443              		.size	evt2_execute, .-evt2_execute
 1444              		.global	patternevt
 1445              		.global	testevt3
 1446              		.global	testevt2
 1447              		.global	testevt1
 1448              		.section	.data.es1,"aw",%progbits
 1449              		.align	2
 1450              		.set	.LANCHOR0,. + 0
 1451              		.type	es1, %object
 1452              		.size	es1, 4
 1453              	es1:
 1454 0000 00000000 		.word	es1
 1455              		.section	.data.es2,"aw",%progbits
 1456              		.align	2
 1457              		.set	.LANCHOR2,. + 0
 1458              		.type	es2, %object
 1459              		.size	es2, 4
 1460              	es2:
 1461 0000 00000000 		.word	es2
 1462              		.section	.rodata.__func__.7153,"a",%progbits
 1463              		.align	2
 1464              		.set	.LANCHOR3,. + 0
 1465              		.type	__func__.7153, %object
 1466              		.size	__func__.7153, 12
 1467              	__func__.7153:
 1468 0000 63685379 		.ascii	"chSysUnlock\000"
 1468      73556E6C 
 1468      6F636B00 
 1469              		.section	.rodata.evhndl,"a",%progbits
 1470              		.align	2
 1471              		.set	.LANCHOR1,. + 0
 1472              		.type	evhndl, %object
 1473              		.size	evhndl, 12
 1474              	evhndl:
 1475 0000 00000000 		.word	h1
 1476 0004 00000000 		.word	h2
 1477 0008 00000000 		.word	h3
 1478              		.section	.rodata.evt1_execute.str1.4,"aMS",%progbits,1
 1479              		.align	2
 1480              	.LC0:
ARM GAS  /var/folders/d2/nstgp4h54kz7g1l847x_b8wc0000gn/T//ccRAFsEm.s 			page 27


 1481 0000 41424300 		.ascii	"ABC\000"
 1482              		.section	.rodata.evt2_execute.str1.4,"aMS",%progbits,1
 1483              		.align	2
 1484              	.LC1:
 1485 0000 4100     		.ascii	"A\000"
 1486              		.section	.rodata.patternevt,"a",%progbits
 1487              		.align	2
 1488              		.type	patternevt, %object
 1489              		.size	patternevt, 16
 1490              	patternevt:
 1491 0000 00000000 		.word	testevt1
 1492 0004 00000000 		.word	testevt2
 1493 0008 00000000 		.word	testevt3
 1494 000c 00000000 		.word	0
 1495              		.section	.rodata.str1.4,"aMS",%progbits,1
 1496              		.align	2
 1497              	.LC2:
 1498 0000 4576656E 		.ascii	"Events, timeouts\000"
 1498      74732C20 
 1498      74696D65 
 1498      6F757473 
 1498      00
 1499 0011 000000   		.space	3
 1500              	.LC3:
 1501 0014 4576656E 		.ascii	"Events, wait and broadcast\000"
 1501      74732C20 
 1501      77616974 
 1501      20616E64 
 1501      2062726F 
 1502 002f 00       		.space	1
 1503              	.LC4:
 1504 0030 4576656E 		.ascii	"Events, registration and dispatch\000"
 1504      74732C20 
 1504      72656769 
 1504      73747261 
 1504      74696F6E 
 1505              		.section	.rodata.testevt1,"a",%progbits
 1506              		.align	2
 1507              		.type	testevt1, %object
 1508              		.size	testevt1, 16
 1509              	testevt1:
 1510 0000 30000000 		.word	.LC4
 1511 0004 00000000 		.word	evt1_setup
 1512 0008 00000000 		.word	0
 1513 000c 00000000 		.word	evt1_execute
 1514              		.section	.rodata.testevt2,"a",%progbits
 1515              		.align	2
 1516              		.type	testevt2, %object
 1517              		.size	testevt2, 16
 1518              	testevt2:
 1519 0000 14000000 		.word	.LC3
 1520 0004 00000000 		.word	evt2_setup
 1521 0008 00000000 		.word	0
 1522 000c 00000000 		.word	evt2_execute
 1523              		.section	.rodata.testevt3,"a",%progbits
 1524              		.align	2
 1525              		.type	testevt3, %object
ARM GAS  /var/folders/d2/nstgp4h54kz7g1l847x_b8wc0000gn/T//ccRAFsEm.s 			page 28


 1526              		.size	testevt3, 16
 1527              	testevt3:
 1528 0000 00000000 		.word	.LC2
 1529 0004 00000000 		.word	evt3_setup
 1530 0008 00000000 		.word	0
 1531 000c 00000000 		.word	evt3_execute
 1532              		.text
 1533              	.Letext0:
 1534              		.file 7 "/Applications/Eclipse_e-puck2.app/Contents/Eclipse_e-puck2/Tools/gcc-arm-none-eabi-7-2017
 1535              		.file 8 "/Applications/Eclipse_e-puck2.app/Contents/Eclipse_e-puck2/Tools/gcc-arm-none-eabi-7-2017
 1536              		.file 9 "/Applications/Eclipse_e-puck2.app/Contents/Eclipse_e-puck2/Tools/gcc-arm-none-eabi-7-2017
 1537              		.file 10 "../e-puck2_main-processor/ChibiOS//os/rt/ports/ARMCMx/compilers/GCC/chtypes.h"
 1538              		.file 11 "../e-puck2_main-processor/ChibiOS//os/rt/include/chsystypes.h"
 1539              		.file 12 "../e-puck2_main-processor/ChibiOS//os/rt/include/chschd.h"
 1540              		.file 13 "../e-puck2_main-processor/ChibiOS//os/ext/CMSIS/include/core_cm4.h"
 1541              		.file 14 "../e-puck2_main-processor/ChibiOS//os/ext/CMSIS/ST/system_stm32f4xx.h"
 1542              		.file 15 "../e-puck2_main-processor/ChibiOS//os/rt/ports/ARMCMx/chcore.h"
 1543              		.file 16 "../e-puck2_main-processor/ChibiOS//os/rt/ports/ARMCMx/chcore_v7m.h"
 1544              		.file 17 "../e-puck2_main-processor/ChibiOS//os/rt/include/chdebug.h"
 1545              		.file 18 "../e-puck2_main-processor/ChibiOS//os/rt/include/chtm.h"
 1546              		.file 19 "../e-puck2_main-processor/ChibiOS//os/rt/include/chstats.h"
 1547              		.file 20 "../e-puck2_main-processor/ChibiOS//os/rt/include/chsem.h"
 1548              		.file 21 "../e-puck2_main-processor/ChibiOS//os/rt/include/chmtx.h"
 1549              		.file 22 "../e-puck2_main-processor/ChibiOS//os/rt/include/chregistry.h"
 1550              		.file 23 "../e-puck2_main-processor/ChibiOS//test/rt/test.h"