ARM GAS  /var/folders/d2/nstgp4h54kz7g1l847x_b8wc0000gn/T//ccYkpomi.s 			page 1


   1              		.cpu cortex-m4
   2              		.eabi_attribute 27, 1
   3              		.eabi_attribute 28, 1
   4              		.eabi_attribute 20, 1
   5              		.eabi_attribute 21, 1
   6              		.eabi_attribute 23, 3
   7              		.eabi_attribute 24, 1
   8              		.eabi_attribute 25, 1
   9              		.eabi_attribute 26, 1
  10              		.eabi_attribute 30, 6
  11              		.eabi_attribute 34, 1
  12              		.eabi_attribute 18, 4
  13              		.file	"testsys.c"
  14              		.section	.text.port_get_irq_status,"ax",%progbits
  15              		.align	1
  16              		.syntax unified
  17              		.thumb
  18              		.thumb_func
  19              		.fpu fpv4-sp-d16
  20              		.type	port_get_irq_status, %function
  21              	port_get_irq_status:
  22              		@ args = 0, pretend = 0, frame = 8
  23              		@ frame_needed = 1, uses_anonymous_args = 0
  24              		@ link register save eliminated.
  25 0000 80B4     		push	{r7}
  26 0002 83B0     		sub	sp, sp, #12
  27 0004 00AF     		add	r7, sp, #0
  28              		.syntax unified
  29              	@ 533 "../e-puck2_main-processor/ChibiOS//os/ext/CMSIS/include/core_cmFunc.h" 1
  30 0006 EFF31283 		MRS r3, basepri_max
  31              	@ 0 "" 2
  32              		.thumb
  33              		.syntax unified
  34 000a 3B60     		str	r3, [r7]
  35 000c 3B68     		ldr	r3, [r7]
  36 000e 7B60     		str	r3, [r7, #4]
  37 0010 7B68     		ldr	r3, [r7, #4]
  38 0012 1846     		mov	r0, r3
  39 0014 0C37     		adds	r7, r7, #12
  40 0016 BD46     		mov	sp, r7
  41              		@ sp needed
  42 0018 5DF8047B 		ldr	r7, [sp], #4
  43 001c 7047     		bx	lr
  44              		.size	port_get_irq_status, .-port_get_irq_status
  45              		.section	.text.port_irq_enabled,"ax",%progbits
  46              		.align	1
  47              		.syntax unified
  48              		.thumb
  49              		.thumb_func
  50              		.fpu fpv4-sp-d16
  51              		.type	port_irq_enabled, %function
  52              	port_irq_enabled:
  53              		@ args = 0, pretend = 0, frame = 8
  54              		@ frame_needed = 1, uses_anonymous_args = 0
  55              		@ link register save eliminated.
  56 0000 80B4     		push	{r7}
  57 0002 83B0     		sub	sp, sp, #12
ARM GAS  /var/folders/d2/nstgp4h54kz7g1l847x_b8wc0000gn/T//ccYkpomi.s 			page 2


  58 0004 00AF     		add	r7, sp, #0
  59 0006 7860     		str	r0, [r7, #4]
  60 0008 7B68     		ldr	r3, [r7, #4]
  61 000a 002B     		cmp	r3, #0
  62 000c 0CBF     		ite	eq
  63 000e 0123     		moveq	r3, #1
  64 0010 0023     		movne	r3, #0
  65 0012 DBB2     		uxtb	r3, r3
  66 0014 1846     		mov	r0, r3
  67 0016 0C37     		adds	r7, r7, #12
  68 0018 BD46     		mov	sp, r7
  69              		@ sp needed
  70 001a 5DF8047B 		ldr	r7, [sp], #4
  71 001e 7047     		bx	lr
  72              		.size	port_irq_enabled, .-port_irq_enabled
  73              		.section	.text.port_lock,"ax",%progbits
  74              		.align	1
  75              		.syntax unified
  76              		.thumb
  77              		.thumb_func
  78              		.fpu fpv4-sp-d16
  79              		.type	port_lock, %function
  80              	port_lock:
  81              		@ args = 0, pretend = 0, frame = 8
  82              		@ frame_needed = 1, uses_anonymous_args = 0
  83              		@ link register save eliminated.
  84 0000 80B4     		push	{r7}
  85 0002 83B0     		sub	sp, sp, #12
  86 0004 00AF     		add	r7, sp, #0
  87 0006 2023     		movs	r3, #32
  88 0008 7B60     		str	r3, [r7, #4]
  89 000a 7B68     		ldr	r3, [r7, #4]
  90              		.syntax unified
  91              	@ 546 "../e-puck2_main-processor/ChibiOS//os/ext/CMSIS/include/core_cmFunc.h" 1
  92 000c 83F31188 		MSR basepri, r3
  93              	@ 0 "" 2
  94              		.thumb
  95              		.syntax unified
  96 0010 00BF     		nop
  97 0012 0C37     		adds	r7, r7, #12
  98 0014 BD46     		mov	sp, r7
  99              		@ sp needed
 100 0016 5DF8047B 		ldr	r7, [sp], #4
 101 001a 7047     		bx	lr
 102              		.size	port_lock, .-port_lock
 103              		.section	.text.port_unlock,"ax",%progbits
 104              		.align	1
 105              		.syntax unified
 106              		.thumb
 107              		.thumb_func
 108              		.fpu fpv4-sp-d16
 109              		.type	port_unlock, %function
 110              	port_unlock:
 111              		@ args = 0, pretend = 0, frame = 8
 112              		@ frame_needed = 1, uses_anonymous_args = 0
 113              		@ link register save eliminated.
 114 0000 80B4     		push	{r7}
ARM GAS  /var/folders/d2/nstgp4h54kz7g1l847x_b8wc0000gn/T//ccYkpomi.s 			page 3


 115 0002 83B0     		sub	sp, sp, #12
 116 0004 00AF     		add	r7, sp, #0
 117 0006 0023     		movs	r3, #0
 118 0008 7B60     		str	r3, [r7, #4]
 119 000a 7B68     		ldr	r3, [r7, #4]
 120              		.syntax unified
 121              	@ 546 "../e-puck2_main-processor/ChibiOS//os/ext/CMSIS/include/core_cmFunc.h" 1
 122 000c 83F31188 		MSR basepri, r3
 123              	@ 0 "" 2
 124              		.thumb
 125              		.syntax unified
 126 0010 00BF     		nop
 127 0012 0C37     		adds	r7, r7, #12
 128 0014 BD46     		mov	sp, r7
 129              		@ sp needed
 130 0016 5DF8047B 		ldr	r7, [sp], #4
 131 001a 7047     		bx	lr
 132              		.size	port_unlock, .-port_unlock
 133              		.section	.text.port_lock_from_isr,"ax",%progbits
 134              		.align	1
 135              		.syntax unified
 136              		.thumb
 137              		.thumb_func
 138              		.fpu fpv4-sp-d16
 139              		.type	port_lock_from_isr, %function
 140              	port_lock_from_isr:
 141              		@ args = 0, pretend = 0, frame = 0
 142              		@ frame_needed = 1, uses_anonymous_args = 0
 143 0000 80B5     		push	{r7, lr}
 144 0002 00AF     		add	r7, sp, #0
 145 0004 FFF7FEFF 		bl	port_lock
 146 0008 00BF     		nop
 147 000a 80BD     		pop	{r7, pc}
 148              		.size	port_lock_from_isr, .-port_lock_from_isr
 149              		.section	.text.port_unlock_from_isr,"ax",%progbits
 150              		.align	1
 151              		.syntax unified
 152              		.thumb
 153              		.thumb_func
 154              		.fpu fpv4-sp-d16
 155              		.type	port_unlock_from_isr, %function
 156              	port_unlock_from_isr:
 157              		@ args = 0, pretend = 0, frame = 0
 158              		@ frame_needed = 1, uses_anonymous_args = 0
 159 0000 80B5     		push	{r7, lr}
 160 0002 00AF     		add	r7, sp, #0
 161 0004 FFF7FEFF 		bl	port_unlock
 162 0008 00BF     		nop
 163 000a 80BD     		pop	{r7, pc}
 164              		.size	port_unlock_from_isr, .-port_unlock_from_isr
 165              		.section	.text.port_disable,"ax",%progbits
 166              		.align	1
 167              		.syntax unified
 168              		.thumb
 169              		.thumb_func
 170              		.fpu fpv4-sp-d16
 171              		.type	port_disable, %function
ARM GAS  /var/folders/d2/nstgp4h54kz7g1l847x_b8wc0000gn/T//ccYkpomi.s 			page 4


 172              	port_disable:
 173              		@ args = 0, pretend = 0, frame = 0
 174              		@ frame_needed = 1, uses_anonymous_args = 0
 175              		@ link register save eliminated.
 176 0000 80B4     		push	{r7}
 177 0002 00AF     		add	r7, sp, #0
 178              		.syntax unified
 179              	@ 342 "../e-puck2_main-processor/ChibiOS//os/ext/CMSIS/include/core_cmFunc.h" 1
 180 0004 72B6     		cpsid i
 181              	@ 0 "" 2
 182              		.thumb
 183              		.syntax unified
 184 0006 00BF     		nop
 185 0008 BD46     		mov	sp, r7
 186              		@ sp needed
 187 000a 5DF8047B 		ldr	r7, [sp], #4
 188 000e 7047     		bx	lr
 189              		.size	port_disable, .-port_disable
 190              		.section	.text.port_suspend,"ax",%progbits
 191              		.align	1
 192              		.syntax unified
 193              		.thumb
 194              		.thumb_func
 195              		.fpu fpv4-sp-d16
 196              		.type	port_suspend, %function
 197              	port_suspend:
 198              		@ args = 0, pretend = 0, frame = 8
 199              		@ frame_needed = 1, uses_anonymous_args = 0
 200              		@ link register save eliminated.
 201 0000 80B4     		push	{r7}
 202 0002 83B0     		sub	sp, sp, #12
 203 0004 00AF     		add	r7, sp, #0
 204 0006 2023     		movs	r3, #32
 205 0008 7B60     		str	r3, [r7, #4]
 206 000a 7B68     		ldr	r3, [r7, #4]
 207              		.syntax unified
 208              	@ 546 "../e-puck2_main-processor/ChibiOS//os/ext/CMSIS/include/core_cmFunc.h" 1
 209 000c 83F31188 		MSR basepri, r3
 210              	@ 0 "" 2
 211              	@ 331 "../e-puck2_main-processor/ChibiOS//os/ext/CMSIS/include/core_cmFunc.h" 1
 212 0010 62B6     		cpsie i
 213              	@ 0 "" 2
 214              		.thumb
 215              		.syntax unified
 216 0012 00BF     		nop
 217 0014 0C37     		adds	r7, r7, #12
 218 0016 BD46     		mov	sp, r7
 219              		@ sp needed
 220 0018 5DF8047B 		ldr	r7, [sp], #4
 221 001c 7047     		bx	lr
 222              		.size	port_suspend, .-port_suspend
 223              		.section	.text.port_enable,"ax",%progbits
 224              		.align	1
 225              		.syntax unified
 226              		.thumb
 227              		.thumb_func
 228              		.fpu fpv4-sp-d16
ARM GAS  /var/folders/d2/nstgp4h54kz7g1l847x_b8wc0000gn/T//ccYkpomi.s 			page 5


 229              		.type	port_enable, %function
 230              	port_enable:
 231              		@ args = 0, pretend = 0, frame = 8
 232              		@ frame_needed = 1, uses_anonymous_args = 0
 233              		@ link register save eliminated.
 234 0000 80B4     		push	{r7}
 235 0002 83B0     		sub	sp, sp, #12
 236 0004 00AF     		add	r7, sp, #0
 237 0006 0023     		movs	r3, #0
 238 0008 7B60     		str	r3, [r7, #4]
 239 000a 7B68     		ldr	r3, [r7, #4]
 240              		.syntax unified
 241              	@ 546 "../e-puck2_main-processor/ChibiOS//os/ext/CMSIS/include/core_cmFunc.h" 1
 242 000c 83F31188 		MSR basepri, r3
 243              	@ 0 "" 2
 244              	@ 331 "../e-puck2_main-processor/ChibiOS//os/ext/CMSIS/include/core_cmFunc.h" 1
 245 0010 62B6     		cpsie i
 246              	@ 0 "" 2
 247              		.thumb
 248              		.syntax unified
 249 0012 00BF     		nop
 250 0014 0C37     		adds	r7, r7, #12
 251 0016 BD46     		mov	sp, r7
 252              		@ sp needed
 253 0018 5DF8047B 		ldr	r7, [sp], #4
 254 001c 7047     		bx	lr
 255              		.size	port_enable, .-port_enable
 256              		.section	.text.chSysDisable,"ax",%progbits
 257              		.align	1
 258              		.syntax unified
 259              		.thumb
 260              		.thumb_func
 261              		.fpu fpv4-sp-d16
 262              		.type	chSysDisable, %function
 263              	chSysDisable:
 264              		@ args = 0, pretend = 0, frame = 0
 265              		@ frame_needed = 1, uses_anonymous_args = 0
 266 0000 80B5     		push	{r7, lr}
 267 0002 00AF     		add	r7, sp, #0
 268 0004 FFF7FEFF 		bl	port_disable
 269 0008 FFF7FEFF 		bl	_dbg_check_disable
 270 000c 00BF     		nop
 271 000e 80BD     		pop	{r7, pc}
 272              		.size	chSysDisable, .-chSysDisable
 273              		.section	.text.chSysSuspend,"ax",%progbits
 274              		.align	1
 275              		.syntax unified
 276              		.thumb
 277              		.thumb_func
 278              		.fpu fpv4-sp-d16
 279              		.type	chSysSuspend, %function
 280              	chSysSuspend:
 281              		@ args = 0, pretend = 0, frame = 0
 282              		@ frame_needed = 1, uses_anonymous_args = 0
 283 0000 80B5     		push	{r7, lr}
 284 0002 00AF     		add	r7, sp, #0
 285 0004 FFF7FEFF 		bl	port_suspend
ARM GAS  /var/folders/d2/nstgp4h54kz7g1l847x_b8wc0000gn/T//ccYkpomi.s 			page 6


 286 0008 FFF7FEFF 		bl	_dbg_check_suspend
 287 000c 00BF     		nop
 288 000e 80BD     		pop	{r7, pc}
 289              		.size	chSysSuspend, .-chSysSuspend
 290              		.section	.text.chSysEnable,"ax",%progbits
 291              		.align	1
 292              		.syntax unified
 293              		.thumb
 294              		.thumb_func
 295              		.fpu fpv4-sp-d16
 296              		.type	chSysEnable, %function
 297              	chSysEnable:
 298              		@ args = 0, pretend = 0, frame = 0
 299              		@ frame_needed = 1, uses_anonymous_args = 0
 300 0000 80B5     		push	{r7, lr}
 301 0002 00AF     		add	r7, sp, #0
 302 0004 FFF7FEFF 		bl	_dbg_check_enable
 303 0008 FFF7FEFF 		bl	port_enable
 304 000c 00BF     		nop
 305 000e 80BD     		pop	{r7, pc}
 306              		.size	chSysEnable, .-chSysEnable
 307              		.section	.text.chSysLock,"ax",%progbits
 308              		.align	1
 309              		.syntax unified
 310              		.thumb
 311              		.thumb_func
 312              		.fpu fpv4-sp-d16
 313              		.type	chSysLock, %function
 314              	chSysLock:
 315              		@ args = 0, pretend = 0, frame = 0
 316              		@ frame_needed = 1, uses_anonymous_args = 0
 317 0000 80B5     		push	{r7, lr}
 318 0002 00AF     		add	r7, sp, #0
 319 0004 FFF7FEFF 		bl	port_lock
 320 0008 FFF7FEFF 		bl	_stats_start_measure_crit_thd
 321 000c FFF7FEFF 		bl	_dbg_check_lock
 322 0010 00BF     		nop
 323 0012 80BD     		pop	{r7, pc}
 324              		.size	chSysLock, .-chSysLock
 325              		.section	.text.chSysUnlock,"ax",%progbits
 326              		.align	1
 327              		.syntax unified
 328              		.thumb
 329              		.thumb_func
 330              		.fpu fpv4-sp-d16
 331              		.type	chSysUnlock, %function
 332              	chSysUnlock:
 333              		@ args = 0, pretend = 0, frame = 0
 334              		@ frame_needed = 1, uses_anonymous_args = 0
 335 0000 80B5     		push	{r7, lr}
 336 0002 00AF     		add	r7, sp, #0
 337 0004 FFF7FEFF 		bl	_dbg_check_unlock
 338 0008 FFF7FEFF 		bl	_stats_stop_measure_crit_thd
 339 000c 094B     		ldr	r3, .L19
 340 000e 1B68     		ldr	r3, [r3]
 341 0010 084A     		ldr	r2, .L19
 342 0012 9342     		cmp	r3, r2
ARM GAS  /var/folders/d2/nstgp4h54kz7g1l847x_b8wc0000gn/T//ccYkpomi.s 			page 7


 343 0014 0AD0     		beq	.L18
 344 0016 074B     		ldr	r3, .L19
 345 0018 9B69     		ldr	r3, [r3, #24]
 346 001a 9A68     		ldr	r2, [r3, #8]
 347 001c 054B     		ldr	r3, .L19
 348 001e 1B68     		ldr	r3, [r3]
 349 0020 9B68     		ldr	r3, [r3, #8]
 350 0022 9A42     		cmp	r2, r3
 351 0024 02D2     		bcs	.L18
 352 0026 0448     		ldr	r0, .L19+4
 353 0028 FFF7FEFF 		bl	chSysHalt
 354              	.L18:
 355 002c FFF7FEFF 		bl	port_unlock
 356 0030 00BF     		nop
 357 0032 80BD     		pop	{r7, pc}
 358              	.L20:
 359              		.align	2
 360              	.L19:
 361 0034 00000000 		.word	ch
 362 0038 00000000 		.word	__func__.7153
 363              		.size	chSysUnlock, .-chSysUnlock
 364              		.section	.text.chSysLockFromISR,"ax",%progbits
 365              		.align	1
 366              		.syntax unified
 367              		.thumb
 368              		.thumb_func
 369              		.fpu fpv4-sp-d16
 370              		.type	chSysLockFromISR, %function
 371              	chSysLockFromISR:
 372              		@ args = 0, pretend = 0, frame = 0
 373              		@ frame_needed = 1, uses_anonymous_args = 0
 374 0000 80B5     		push	{r7, lr}
 375 0002 00AF     		add	r7, sp, #0
 376 0004 FFF7FEFF 		bl	port_lock_from_isr
 377 0008 FFF7FEFF 		bl	_stats_start_measure_crit_isr
 378 000c FFF7FEFF 		bl	_dbg_check_lock_from_isr
 379 0010 00BF     		nop
 380 0012 80BD     		pop	{r7, pc}
 381              		.size	chSysLockFromISR, .-chSysLockFromISR
 382              		.section	.text.chSysUnlockFromISR,"ax",%progbits
 383              		.align	1
 384              		.syntax unified
 385              		.thumb
 386              		.thumb_func
 387              		.fpu fpv4-sp-d16
 388              		.type	chSysUnlockFromISR, %function
 389              	chSysUnlockFromISR:
 390              		@ args = 0, pretend = 0, frame = 0
 391              		@ frame_needed = 1, uses_anonymous_args = 0
 392 0000 80B5     		push	{r7, lr}
 393 0002 00AF     		add	r7, sp, #0
 394 0004 FFF7FEFF 		bl	_dbg_check_unlock_from_isr
 395 0008 FFF7FEFF 		bl	_stats_stop_measure_crit_isr
 396 000c FFF7FEFF 		bl	port_unlock_from_isr
 397 0010 00BF     		nop
 398 0012 80BD     		pop	{r7, pc}
 399              		.size	chSysUnlockFromISR, .-chSysUnlockFromISR
ARM GAS  /var/folders/d2/nstgp4h54kz7g1l847x_b8wc0000gn/T//ccYkpomi.s 			page 8


 400              		.section	.text.chSysUnconditionalLock,"ax",%progbits
 401              		.align	1
 402              		.syntax unified
 403              		.thumb
 404              		.thumb_func
 405              		.fpu fpv4-sp-d16
 406              		.type	chSysUnconditionalLock, %function
 407              	chSysUnconditionalLock:
 408              		@ args = 0, pretend = 0, frame = 0
 409              		@ frame_needed = 1, uses_anonymous_args = 0
 410 0000 80B5     		push	{r7, lr}
 411 0002 00AF     		add	r7, sp, #0
 412 0004 FFF7FEFF 		bl	port_get_irq_status
 413 0008 0346     		mov	r3, r0
 414 000a 1846     		mov	r0, r3
 415 000c FFF7FEFF 		bl	port_irq_enabled
 416 0010 0346     		mov	r3, r0
 417 0012 002B     		cmp	r3, #0
 418 0014 01D0     		beq	.L25
 419 0016 FFF7FEFF 		bl	chSysLock
 420              	.L25:
 421 001a 00BF     		nop
 422 001c 80BD     		pop	{r7, pc}
 423              		.size	chSysUnconditionalLock, .-chSysUnconditionalLock
 424              		.section	.text.chSysUnconditionalUnlock,"ax",%progbits
 425              		.align	1
 426              		.syntax unified
 427              		.thumb
 428              		.thumb_func
 429              		.fpu fpv4-sp-d16
 430              		.type	chSysUnconditionalUnlock, %function
 431              	chSysUnconditionalUnlock:
 432              		@ args = 0, pretend = 0, frame = 0
 433              		@ frame_needed = 1, uses_anonymous_args = 0
 434 0000 80B5     		push	{r7, lr}
 435 0002 00AF     		add	r7, sp, #0
 436 0004 FFF7FEFF 		bl	port_get_irq_status
 437 0008 0346     		mov	r3, r0
 438 000a 1846     		mov	r0, r3
 439 000c FFF7FEFF 		bl	port_irq_enabled
 440 0010 0346     		mov	r3, r0
 441 0012 83F00103 		eor	r3, r3, #1
 442 0016 DBB2     		uxtb	r3, r3
 443 0018 002B     		cmp	r3, #0
 444 001a 01D0     		beq	.L28
 445 001c FFF7FEFF 		bl	chSysUnlock
 446              	.L28:
 447 0020 00BF     		nop
 448 0022 80BD     		pop	{r7, pc}
 449              		.size	chSysUnconditionalUnlock, .-chSysUnconditionalUnlock
 450              		.section	.text.chVTObjectInit,"ax",%progbits
 451              		.align	1
 452              		.syntax unified
 453              		.thumb
 454              		.thumb_func
 455              		.fpu fpv4-sp-d16
 456              		.type	chVTObjectInit, %function
ARM GAS  /var/folders/d2/nstgp4h54kz7g1l847x_b8wc0000gn/T//ccYkpomi.s 			page 9


 457              	chVTObjectInit:
 458              		@ args = 0, pretend = 0, frame = 8
 459              		@ frame_needed = 1, uses_anonymous_args = 0
 460              		@ link register save eliminated.
 461 0000 80B4     		push	{r7}
 462 0002 83B0     		sub	sp, sp, #12
 463 0004 00AF     		add	r7, sp, #0
 464 0006 7860     		str	r0, [r7, #4]
 465 0008 7B68     		ldr	r3, [r7, #4]
 466 000a 0022     		movs	r2, #0
 467 000c DA60     		str	r2, [r3, #12]
 468 000e 00BF     		nop
 469 0010 0C37     		adds	r7, r7, #12
 470 0012 BD46     		mov	sp, r7
 471              		@ sp needed
 472 0014 5DF8047B 		ldr	r7, [sp], #4
 473 0018 7047     		bx	lr
 474              		.size	chVTObjectInit, .-chVTObjectInit
 475              		.section	.text.chVTIsArmedI,"ax",%progbits
 476              		.align	1
 477              		.syntax unified
 478              		.thumb
 479              		.thumb_func
 480              		.fpu fpv4-sp-d16
 481              		.type	chVTIsArmedI, %function
 482              	chVTIsArmedI:
 483              		@ args = 0, pretend = 0, frame = 8
 484              		@ frame_needed = 1, uses_anonymous_args = 0
 485 0000 80B5     		push	{r7, lr}
 486 0002 82B0     		sub	sp, sp, #8
 487 0004 00AF     		add	r7, sp, #0
 488 0006 7860     		str	r0, [r7, #4]
 489 0008 FFF7FEFF 		bl	chDbgCheckClassI
 490 000c 7B68     		ldr	r3, [r7, #4]
 491 000e DB68     		ldr	r3, [r3, #12]
 492 0010 002B     		cmp	r3, #0
 493 0012 14BF     		ite	ne
 494 0014 0123     		movne	r3, #1
 495 0016 0023     		moveq	r3, #0
 496 0018 DBB2     		uxtb	r3, r3
 497 001a 1846     		mov	r0, r3
 498 001c 0837     		adds	r7, r7, #8
 499 001e BD46     		mov	sp, r7
 500              		@ sp needed
 501 0020 80BD     		pop	{r7, pc}
 502              		.size	chVTIsArmedI, .-chVTIsArmedI
 503              		.section	.text.chVTIsArmed,"ax",%progbits
 504              		.align	1
 505              		.syntax unified
 506              		.thumb
 507              		.thumb_func
 508              		.fpu fpv4-sp-d16
 509              		.type	chVTIsArmed, %function
 510              	chVTIsArmed:
 511              		@ args = 0, pretend = 0, frame = 16
 512              		@ frame_needed = 1, uses_anonymous_args = 0
 513 0000 80B5     		push	{r7, lr}
ARM GAS  /var/folders/d2/nstgp4h54kz7g1l847x_b8wc0000gn/T//ccYkpomi.s 			page 10


 514 0002 84B0     		sub	sp, sp, #16
 515 0004 00AF     		add	r7, sp, #0
 516 0006 7860     		str	r0, [r7, #4]
 517 0008 FFF7FEFF 		bl	chSysLock
 518 000c 7868     		ldr	r0, [r7, #4]
 519 000e FFF7FEFF 		bl	chVTIsArmedI
 520 0012 0346     		mov	r3, r0
 521 0014 FB73     		strb	r3, [r7, #15]
 522 0016 FFF7FEFF 		bl	chSysUnlock
 523 001a FB7B     		ldrb	r3, [r7, #15]	@ zero_extendqisi2
 524 001c 1846     		mov	r0, r3
 525 001e 1037     		adds	r7, r7, #16
 526 0020 BD46     		mov	sp, r7
 527              		@ sp needed
 528 0022 80BD     		pop	{r7, pc}
 529              		.size	chVTIsArmed, .-chVTIsArmed
 530              		.section	.text.chVTResetI,"ax",%progbits
 531              		.align	1
 532              		.syntax unified
 533              		.thumb
 534              		.thumb_func
 535              		.fpu fpv4-sp-d16
 536              		.type	chVTResetI, %function
 537              	chVTResetI:
 538              		@ args = 0, pretend = 0, frame = 8
 539              		@ frame_needed = 1, uses_anonymous_args = 0
 540 0000 80B5     		push	{r7, lr}
 541 0002 82B0     		sub	sp, sp, #8
 542 0004 00AF     		add	r7, sp, #0
 543 0006 7860     		str	r0, [r7, #4]
 544 0008 7868     		ldr	r0, [r7, #4]
 545 000a FFF7FEFF 		bl	chVTIsArmedI
 546 000e 0346     		mov	r3, r0
 547 0010 002B     		cmp	r3, #0
 548 0012 02D0     		beq	.L36
 549 0014 7868     		ldr	r0, [r7, #4]
 550 0016 FFF7FEFF 		bl	chVTDoResetI
 551              	.L36:
 552 001a 00BF     		nop
 553 001c 0837     		adds	r7, r7, #8
 554 001e BD46     		mov	sp, r7
 555              		@ sp needed
 556 0020 80BD     		pop	{r7, pc}
 557              		.size	chVTResetI, .-chVTResetI
 558              		.section	.text.chVTSetI,"ax",%progbits
 559              		.align	1
 560              		.syntax unified
 561              		.thumb
 562              		.thumb_func
 563              		.fpu fpv4-sp-d16
 564              		.type	chVTSetI, %function
 565              	chVTSetI:
 566              		@ args = 0, pretend = 0, frame = 16
 567              		@ frame_needed = 1, uses_anonymous_args = 0
 568 0000 80B5     		push	{r7, lr}
 569 0002 84B0     		sub	sp, sp, #16
 570 0004 00AF     		add	r7, sp, #0
ARM GAS  /var/folders/d2/nstgp4h54kz7g1l847x_b8wc0000gn/T//ccYkpomi.s 			page 11


 571 0006 F860     		str	r0, [r7, #12]
 572 0008 B960     		str	r1, [r7, #8]
 573 000a 7A60     		str	r2, [r7, #4]
 574 000c 3B60     		str	r3, [r7]
 575 000e F868     		ldr	r0, [r7, #12]
 576 0010 FFF7FEFF 		bl	chVTResetI
 577 0014 3B68     		ldr	r3, [r7]
 578 0016 7A68     		ldr	r2, [r7, #4]
 579 0018 B968     		ldr	r1, [r7, #8]
 580 001a F868     		ldr	r0, [r7, #12]
 581 001c FFF7FEFF 		bl	chVTDoSetI
 582 0020 00BF     		nop
 583 0022 1037     		adds	r7, r7, #16
 584 0024 BD46     		mov	sp, r7
 585              		@ sp needed
 586 0026 80BD     		pop	{r7, pc}
 587              		.size	chVTSetI, .-chVTSetI
 588              		.section	.text.chVTSet,"ax",%progbits
 589              		.align	1
 590              		.syntax unified
 591              		.thumb
 592              		.thumb_func
 593              		.fpu fpv4-sp-d16
 594              		.type	chVTSet, %function
 595              	chVTSet:
 596              		@ args = 0, pretend = 0, frame = 16
 597              		@ frame_needed = 1, uses_anonymous_args = 0
 598 0000 80B5     		push	{r7, lr}
 599 0002 84B0     		sub	sp, sp, #16
 600 0004 00AF     		add	r7, sp, #0
 601 0006 F860     		str	r0, [r7, #12]
 602 0008 B960     		str	r1, [r7, #8]
 603 000a 7A60     		str	r2, [r7, #4]
 604 000c 3B60     		str	r3, [r7]
 605 000e FFF7FEFF 		bl	chSysLock
 606 0012 3B68     		ldr	r3, [r7]
 607 0014 7A68     		ldr	r2, [r7, #4]
 608 0016 B968     		ldr	r1, [r7, #8]
 609 0018 F868     		ldr	r0, [r7, #12]
 610 001a FFF7FEFF 		bl	chVTSetI
 611 001e FFF7FEFF 		bl	chSysUnlock
 612 0022 00BF     		nop
 613 0024 1037     		adds	r7, r7, #16
 614 0026 BD46     		mov	sp, r7
 615              		@ sp needed
 616 0028 80BD     		pop	{r7, pc}
 617              		.size	chVTSet, .-chVTSet
 618              		.section	.text.vtcb,"ax",%progbits
 619              		.align	1
 620              		.syntax unified
 621              		.thumb
 622              		.thumb_func
 623              		.fpu fpv4-sp-d16
 624              		.type	vtcb, %function
 625              	vtcb:
 626              		@ args = 0, pretend = 0, frame = 16
 627              		@ frame_needed = 1, uses_anonymous_args = 0
ARM GAS  /var/folders/d2/nstgp4h54kz7g1l847x_b8wc0000gn/T//ccYkpomi.s 			page 12


 628 0000 80B5     		push	{r7, lr}
 629 0002 84B0     		sub	sp, sp, #16
 630 0004 00AF     		add	r7, sp, #0
 631 0006 7860     		str	r0, [r7, #4]
 632 0008 FFF7FEFF 		bl	chSysLockFromISR
 633 000c FFF7FEFF 		bl	chSysUnlockFromISR
 634 0010 FFF7FEFF 		bl	chSysLockFromISR
 635 0014 FFF7FEFF 		bl	chSysGetStatusAndLockX
 636 0018 F860     		str	r0, [r7, #12]
 637 001a F868     		ldr	r0, [r7, #12]
 638 001c FFF7FEFF 		bl	chSysRestoreStatusX
 639 0020 FFF7FEFF 		bl	chSysUnlockFromISR
 640 0024 00BF     		nop
 641 0026 1037     		adds	r7, r7, #16
 642 0028 BD46     		mov	sp, r7
 643              		@ sp needed
 644 002a 80BD     		pop	{r7, pc}
 645              		.size	vtcb, .-vtcb
 646              		.section	.text.sys1_execute,"ax",%progbits
 647              		.align	1
 648              		.syntax unified
 649              		.thumb
 650              		.thumb_func
 651              		.fpu fpv4-sp-d16
 652              		.type	sys1_execute, %function
 653              	sys1_execute:
 654              		@ args = 0, pretend = 0, frame = 24
 655              		@ frame_needed = 1, uses_anonymous_args = 0
 656 0000 80B5     		push	{r7, lr}
 657 0002 86B0     		sub	sp, sp, #24
 658 0004 00AF     		add	r7, sp, #0
 659 0006 FFF7FEFF 		bl	chSysGetStatusAndLockX
 660 000a 7861     		str	r0, [r7, #20]
 661 000c 7869     		ldr	r0, [r7, #20]
 662 000e FFF7FEFF 		bl	chSysRestoreStatusX
 663 0012 FFF7FEFF 		bl	chSysLock
 664 0016 FFF7FEFF 		bl	chSysGetStatusAndLockX
 665 001a 7861     		str	r0, [r7, #20]
 666 001c 7869     		ldr	r0, [r7, #20]
 667 001e FFF7FEFF 		bl	chSysRestoreStatusX
 668 0022 FFF7FEFF 		bl	chSysUnlock
 669 0026 FFF7FEFF 		bl	chSysUnconditionalLock
 670 002a FFF7FEFF 		bl	chSysUnconditionalLock
 671 002e FFF7FEFF 		bl	chSysUnlock
 672 0032 FFF7FEFF 		bl	chSysLock
 673 0036 FFF7FEFF 		bl	chSysUnconditionalUnlock
 674 003a FFF7FEFF 		bl	chSysUnconditionalUnlock
 675 003e 3B46     		mov	r3, r7
 676 0040 1846     		mov	r0, r3
 677 0042 FFF7FEFF 		bl	chVTObjectInit
 678 0046 3846     		mov	r0, r7
 679 0048 0023     		movs	r3, #0
 680 004a 104A     		ldr	r2, .L43
 681 004c 0121     		movs	r1, #1
 682 004e FFF7FEFF 		bl	chVTSet
 683 0052 0A20     		movs	r0, #10
 684 0054 FFF7FEFF 		bl	chThdSleep
ARM GAS  /var/folders/d2/nstgp4h54kz7g1l847x_b8wc0000gn/T//ccYkpomi.s 			page 13


 685 0058 3B46     		mov	r3, r7
 686 005a 1846     		mov	r0, r3
 687 005c FFF7FEFF 		bl	chVTIsArmed
 688 0060 0346     		mov	r3, r0
 689 0062 002B     		cmp	r3, #0
 690 0064 14BF     		ite	ne
 691 0066 0123     		movne	r3, #1
 692 0068 0023     		moveq	r3, #0
 693 006a DBB2     		uxtb	r3, r3
 694 006c 83F00103 		eor	r3, r3, #1
 695 0070 DBB2     		uxtb	r3, r3
 696 0072 03F00103 		and	r3, r3, #1
 697 0076 DBB2     		uxtb	r3, r3
 698 0078 1946     		mov	r1, r3
 699 007a 0120     		movs	r0, #1
 700 007c FFF7FEFF 		bl	_test_assert
 701 0080 0346     		mov	r3, r0
 702 0082 002B     		cmp	r3, #0
 703 0084 1837     		adds	r7, r7, #24
 704 0086 BD46     		mov	sp, r7
 705              		@ sp needed
 706 0088 80BD     		pop	{r7, pc}
 707              	.L44:
 708 008a 00BF     		.align	2
 709              	.L43:
 710 008c 00000000 		.word	vtcb
 711              		.size	sys1_execute, .-sys1_execute
 712              		.global	testsys1
 713              		.section	.rodata
 714              		.align	2
 715              	.LC0:
 716 0000 53797374 		.ascii	"System, critical zones\000"
 716      656D2C20 
 716      63726974 
 716      6963616C 
 716      207A6F6E 
 717              		.section	.rodata.testsys1,"a",%progbits
 718              		.align	2
 719              		.type	testsys1, %object
 720              		.size	testsys1, 16
 721              	testsys1:
 722 0000 00000000 		.word	.LC0
 723 0004 00000000 		.word	0
 724 0008 00000000 		.word	0
 725 000c 00000000 		.word	sys1_execute
 726              		.section	.text.sys2_execute,"ax",%progbits
 727              		.align	1
 728              		.syntax unified
 729              		.thumb
 730              		.thumb_func
 731              		.fpu fpv4-sp-d16
 732              		.type	sys2_execute, %function
 733              	sys2_execute:
 734              		@ args = 0, pretend = 0, frame = 0
 735              		@ frame_needed = 1, uses_anonymous_args = 0
 736 0000 80B5     		push	{r7, lr}
 737 0002 00AF     		add	r7, sp, #0
ARM GAS  /var/folders/d2/nstgp4h54kz7g1l847x_b8wc0000gn/T//ccYkpomi.s 			page 14


 738 0004 FFF7FEFF 		bl	chSysSuspend
 739 0008 FFF7FEFF 		bl	chSysDisable
 740 000c FFF7FEFF 		bl	chSysSuspend
 741 0010 FFF7FEFF 		bl	chSysEnable
 742 0014 00BF     		nop
 743 0016 80BD     		pop	{r7, pc}
 744              		.size	sys2_execute, .-sys2_execute
 745              		.global	testsys2
 746              		.section	.rodata
 747 0017 00       		.align	2
 748              	.LC1:
 749 0018 53797374 		.ascii	"System, interrupts handling\000"
 749      656D2C20 
 749      696E7465 
 749      72727570 
 749      74732068 
 750              		.section	.rodata.testsys2,"a",%progbits
 751              		.align	2
 752              		.type	testsys2, %object
 753              		.size	testsys2, 16
 754              	testsys2:
 755 0000 18000000 		.word	.LC1
 756 0004 00000000 		.word	0
 757 0008 00000000 		.word	0
 758 000c 00000000 		.word	sys2_execute
 759              		.section	.text.sys3_execute,"ax",%progbits
 760              		.align	1
 761              		.syntax unified
 762              		.thumb
 763              		.thumb_func
 764              		.fpu fpv4-sp-d16
 765              		.type	sys3_execute, %function
 766              	sys3_execute:
 767              		@ args = 0, pretend = 0, frame = 8
 768              		@ frame_needed = 1, uses_anonymous_args = 0
 769 0000 80B5     		push	{r7, lr}
 770 0002 82B0     		sub	sp, sp, #8
 771 0004 00AF     		add	r7, sp, #0
 772 0006 FFF7FEFF 		bl	chSysLock
 773 000a 0120     		movs	r0, #1
 774 000c FFF7FEFF 		bl	chSysIntegrityCheckI
 775 0010 0346     		mov	r3, r0
 776 0012 FB71     		strb	r3, [r7, #7]
 777 0014 FFF7FEFF 		bl	chSysUnlock
 778 0018 FB79     		ldrb	r3, [r7, #7]	@ zero_extendqisi2
 779 001a 002B     		cmp	r3, #0
 780 001c 14BF     		ite	ne
 781 001e 0123     		movne	r3, #1
 782 0020 0023     		moveq	r3, #0
 783 0022 DBB2     		uxtb	r3, r3
 784 0024 83F00103 		eor	r3, r3, #1
 785 0028 DBB2     		uxtb	r3, r3
 786 002a 03F00103 		and	r3, r3, #1
 787 002e DBB2     		uxtb	r3, r3
 788 0030 1946     		mov	r1, r3
 789 0032 0120     		movs	r0, #1
 790 0034 FFF7FEFF 		bl	_test_assert
ARM GAS  /var/folders/d2/nstgp4h54kz7g1l847x_b8wc0000gn/T//ccYkpomi.s 			page 15


 791 0038 0346     		mov	r3, r0
 792 003a 002B     		cmp	r3, #0
 793 003c 53D1     		bne	.L51
 794 003e FFF7FEFF 		bl	chSysLock
 795 0042 0220     		movs	r0, #2
 796 0044 FFF7FEFF 		bl	chSysIntegrityCheckI
 797 0048 0346     		mov	r3, r0
 798 004a FB71     		strb	r3, [r7, #7]
 799 004c FFF7FEFF 		bl	chSysUnlock
 800 0050 FB79     		ldrb	r3, [r7, #7]	@ zero_extendqisi2
 801 0052 002B     		cmp	r3, #0
 802 0054 14BF     		ite	ne
 803 0056 0123     		movne	r3, #1
 804 0058 0023     		moveq	r3, #0
 805 005a DBB2     		uxtb	r3, r3
 806 005c 83F00103 		eor	r3, r3, #1
 807 0060 DBB2     		uxtb	r3, r3
 808 0062 03F00103 		and	r3, r3, #1
 809 0066 DBB2     		uxtb	r3, r3
 810 0068 1946     		mov	r1, r3
 811 006a 0220     		movs	r0, #2
 812 006c FFF7FEFF 		bl	_test_assert
 813 0070 0346     		mov	r3, r0
 814 0072 002B     		cmp	r3, #0
 815 0074 39D1     		bne	.L52
 816 0076 FFF7FEFF 		bl	chSysLock
 817 007a 0420     		movs	r0, #4
 818 007c FFF7FEFF 		bl	chSysIntegrityCheckI
 819 0080 0346     		mov	r3, r0
 820 0082 FB71     		strb	r3, [r7, #7]
 821 0084 FFF7FEFF 		bl	chSysUnlock
 822 0088 FB79     		ldrb	r3, [r7, #7]	@ zero_extendqisi2
 823 008a 002B     		cmp	r3, #0
 824 008c 14BF     		ite	ne
 825 008e 0123     		movne	r3, #1
 826 0090 0023     		moveq	r3, #0
 827 0092 DBB2     		uxtb	r3, r3
 828 0094 83F00103 		eor	r3, r3, #1
 829 0098 DBB2     		uxtb	r3, r3
 830 009a 03F00103 		and	r3, r3, #1
 831 009e DBB2     		uxtb	r3, r3
 832 00a0 1946     		mov	r1, r3
 833 00a2 0320     		movs	r0, #3
 834 00a4 FFF7FEFF 		bl	_test_assert
 835 00a8 0346     		mov	r3, r0
 836 00aa 002B     		cmp	r3, #0
 837 00ac 1FD1     		bne	.L53
 838 00ae FFF7FEFF 		bl	chSysLock
 839 00b2 0820     		movs	r0, #8
 840 00b4 FFF7FEFF 		bl	chSysIntegrityCheckI
 841 00b8 0346     		mov	r3, r0
 842 00ba FB71     		strb	r3, [r7, #7]
 843 00bc FFF7FEFF 		bl	chSysUnlock
 844 00c0 FB79     		ldrb	r3, [r7, #7]	@ zero_extendqisi2
 845 00c2 002B     		cmp	r3, #0
 846 00c4 14BF     		ite	ne
 847 00c6 0123     		movne	r3, #1
ARM GAS  /var/folders/d2/nstgp4h54kz7g1l847x_b8wc0000gn/T//ccYkpomi.s 			page 16


 848 00c8 0023     		moveq	r3, #0
 849 00ca DBB2     		uxtb	r3, r3
 850 00cc 83F00103 		eor	r3, r3, #1
 851 00d0 DBB2     		uxtb	r3, r3
 852 00d2 03F00103 		and	r3, r3, #1
 853 00d6 DBB2     		uxtb	r3, r3
 854 00d8 1946     		mov	r1, r3
 855 00da 0420     		movs	r0, #4
 856 00dc FFF7FEFF 		bl	_test_assert
 857 00e0 0346     		mov	r3, r0
 858 00e2 002B     		cmp	r3, #0
 859 00e4 04E0     		b	.L46
 860              	.L51:
 861 00e6 00BF     		nop
 862 00e8 02E0     		b	.L46
 863              	.L52:
 864 00ea 00BF     		nop
 865 00ec 00E0     		b	.L46
 866              	.L53:
 867 00ee 00BF     		nop
 868              	.L46:
 869 00f0 0837     		adds	r7, r7, #8
 870 00f2 BD46     		mov	sp, r7
 871              		@ sp needed
 872 00f4 80BD     		pop	{r7, pc}
 873              		.size	sys3_execute, .-sys3_execute
 874              		.global	testsys3
 875              		.section	.rodata
 876              		.align	2
 877              	.LC2:
 878 0034 53797374 		.ascii	"System, integrity\000"
 878      656D2C20 
 878      696E7465 
 878      67726974 
 878      7900
 879              		.section	.rodata.testsys3,"a",%progbits
 880              		.align	2
 881              		.type	testsys3, %object
 882              		.size	testsys3, 16
 883              	testsys3:
 884 0000 34000000 		.word	.LC2
 885 0004 00000000 		.word	0
 886 0008 00000000 		.word	0
 887 000c 00000000 		.word	sys3_execute
 888              		.global	patternsys
 889              		.section	.rodata.patternsys,"a",%progbits
 890              		.align	2
 891              		.type	patternsys, %object
 892              		.size	patternsys, 16
 893              	patternsys:
 894 0000 00000000 		.word	testsys1
 895 0004 00000000 		.word	testsys2
 896 0008 00000000 		.word	testsys3
 897 000c 00000000 		.word	0
 898              		.section	.rodata.__func__.7153,"a",%progbits
 899              		.align	2
 900              		.type	__func__.7153, %object
ARM GAS  /var/folders/d2/nstgp4h54kz7g1l847x_b8wc0000gn/T//ccYkpomi.s 			page 17


 901              		.size	__func__.7153, 12
 902              	__func__.7153:
 903 0000 63685379 		.ascii	"chSysUnlock\000"
 903      73556E6C 
 903      6F636B00 
 904              		.ident	"GCC: (GNU Tools for Arm Embedded Processors 7-2017-q4-major) 7.2.1 20170904 (release) [ARM
ARM GAS  /var/folders/d2/nstgp4h54kz7g1l847x_b8wc0000gn/T//ccYkpomi.s 			page 18


DEFINED SYMBOLS
                            *ABS*:0000000000000000 testsys.c
/var/folders/d2/nstgp4h54kz7g1l847x_b8wc0000gn/T//ccYkpomi.s:15     .text.port_get_irq_status:0000000000000000 $t
/var/folders/d2/nstgp4h54kz7g1l847x_b8wc0000gn/T//ccYkpomi.s:21     .text.port_get_irq_status:0000000000000000 port_get_irq_status
/var/folders/d2/nstgp4h54kz7g1l847x_b8wc0000gn/T//ccYkpomi.s:46     .text.port_irq_enabled:0000000000000000 $t
/var/folders/d2/nstgp4h54kz7g1l847x_b8wc0000gn/T//ccYkpomi.s:52     .text.port_irq_enabled:0000000000000000 port_irq_enabled
/var/folders/d2/nstgp4h54kz7g1l847x_b8wc0000gn/T//ccYkpomi.s:74     .text.port_lock:0000000000000000 $t
/var/folders/d2/nstgp4h54kz7g1l847x_b8wc0000gn/T//ccYkpomi.s:80     .text.port_lock:0000000000000000 port_lock
/var/folders/d2/nstgp4h54kz7g1l847x_b8wc0000gn/T//ccYkpomi.s:104    .text.port_unlock:0000000000000000 $t
/var/folders/d2/nstgp4h54kz7g1l847x_b8wc0000gn/T//ccYkpomi.s:110    .text.port_unlock:0000000000000000 port_unlock
/var/folders/d2/nstgp4h54kz7g1l847x_b8wc0000gn/T//ccYkpomi.s:134    .text.port_lock_from_isr:0000000000000000 $t
/var/folders/d2/nstgp4h54kz7g1l847x_b8wc0000gn/T//ccYkpomi.s:140    .text.port_lock_from_isr:0000000000000000 port_lock_from_isr
/var/folders/d2/nstgp4h54kz7g1l847x_b8wc0000gn/T//ccYkpomi.s:150    .text.port_unlock_from_isr:0000000000000000 $t
/var/folders/d2/nstgp4h54kz7g1l847x_b8wc0000gn/T//ccYkpomi.s:156    .text.port_unlock_from_isr:0000000000000000 port_unlock_from_isr
/var/folders/d2/nstgp4h54kz7g1l847x_b8wc0000gn/T//ccYkpomi.s:166    .text.port_disable:0000000000000000 $t
/var/folders/d2/nstgp4h54kz7g1l847x_b8wc0000gn/T//ccYkpomi.s:172    .text.port_disable:0000000000000000 port_disable
/var/folders/d2/nstgp4h54kz7g1l847x_b8wc0000gn/T//ccYkpomi.s:191    .text.port_suspend:0000000000000000 $t
/var/folders/d2/nstgp4h54kz7g1l847x_b8wc0000gn/T//ccYkpomi.s:197    .text.port_suspend:0000000000000000 port_suspend
/var/folders/d2/nstgp4h54kz7g1l847x_b8wc0000gn/T//ccYkpomi.s:224    .text.port_enable:0000000000000000 $t
/var/folders/d2/nstgp4h54kz7g1l847x_b8wc0000gn/T//ccYkpomi.s:230    .text.port_enable:0000000000000000 port_enable
/var/folders/d2/nstgp4h54kz7g1l847x_b8wc0000gn/T//ccYkpomi.s:257    .text.chSysDisable:0000000000000000 $t
/var/folders/d2/nstgp4h54kz7g1l847x_b8wc0000gn/T//ccYkpomi.s:263    .text.chSysDisable:0000000000000000 chSysDisable
/var/folders/d2/nstgp4h54kz7g1l847x_b8wc0000gn/T//ccYkpomi.s:274    .text.chSysSuspend:0000000000000000 $t
/var/folders/d2/nstgp4h54kz7g1l847x_b8wc0000gn/T//ccYkpomi.s:280    .text.chSysSuspend:0000000000000000 chSysSuspend
/var/folders/d2/nstgp4h54kz7g1l847x_b8wc0000gn/T//ccYkpomi.s:291    .text.chSysEnable:0000000000000000 $t
/var/folders/d2/nstgp4h54kz7g1l847x_b8wc0000gn/T//ccYkpomi.s:297    .text.chSysEnable:0000000000000000 chSysEnable
/var/folders/d2/nstgp4h54kz7g1l847x_b8wc0000gn/T//ccYkpomi.s:308    .text.chSysLock:0000000000000000 $t
/var/folders/d2/nstgp4h54kz7g1l847x_b8wc0000gn/T//ccYkpomi.s:314    .text.chSysLock:0000000000000000 chSysLock
/var/folders/d2/nstgp4h54kz7g1l847x_b8wc0000gn/T//ccYkpomi.s:326    .text.chSysUnlock:0000000000000000 $t
/var/folders/d2/nstgp4h54kz7g1l847x_b8wc0000gn/T//ccYkpomi.s:332    .text.chSysUnlock:0000000000000000 chSysUnlock
/var/folders/d2/nstgp4h54kz7g1l847x_b8wc0000gn/T//ccYkpomi.s:361    .text.chSysUnlock:0000000000000034 $d
/var/folders/d2/nstgp4h54kz7g1l847x_b8wc0000gn/T//ccYkpomi.s:902    .rodata.__func__.7153:0000000000000000 __func__.7153
/var/folders/d2/nstgp4h54kz7g1l847x_b8wc0000gn/T//ccYkpomi.s:365    .text.chSysLockFromISR:0000000000000000 $t
/var/folders/d2/nstgp4h54kz7g1l847x_b8wc0000gn/T//ccYkpomi.s:371    .text.chSysLockFromISR:0000000000000000 chSysLockFromISR
/var/folders/d2/nstgp4h54kz7g1l847x_b8wc0000gn/T//ccYkpomi.s:383    .text.chSysUnlockFromISR:0000000000000000 $t
/var/folders/d2/nstgp4h54kz7g1l847x_b8wc0000gn/T//ccYkpomi.s:389    .text.chSysUnlockFromISR:0000000000000000 chSysUnlockFromISR
/var/folders/d2/nstgp4h54kz7g1l847x_b8wc0000gn/T//ccYkpomi.s:401    .text.chSysUnconditionalLock:0000000000000000 $t
/var/folders/d2/nstgp4h54kz7g1l847x_b8wc0000gn/T//ccYkpomi.s:407    .text.chSysUnconditionalLock:0000000000000000 chSysUnconditionalLock
/var/folders/d2/nstgp4h54kz7g1l847x_b8wc0000gn/T//ccYkpomi.s:425    .text.chSysUnconditionalUnlock:0000000000000000 $t
/var/folders/d2/nstgp4h54kz7g1l847x_b8wc0000gn/T//ccYkpomi.s:431    .text.chSysUnconditionalUnlock:0000000000000000 chSysUnconditionalUnlock
/var/folders/d2/nstgp4h54kz7g1l847x_b8wc0000gn/T//ccYkpomi.s:451    .text.chVTObjectInit:0000000000000000 $t
/var/folders/d2/nstgp4h54kz7g1l847x_b8wc0000gn/T//ccYkpomi.s:457    .text.chVTObjectInit:0000000000000000 chVTObjectInit
/var/folders/d2/nstgp4h54kz7g1l847x_b8wc0000gn/T//ccYkpomi.s:476    .text.chVTIsArmedI:0000000000000000 $t
/var/folders/d2/nstgp4h54kz7g1l847x_b8wc0000gn/T//ccYkpomi.s:482    .text.chVTIsArmedI:0000000000000000 chVTIsArmedI
/var/folders/d2/nstgp4h54kz7g1l847x_b8wc0000gn/T//ccYkpomi.s:504    .text.chVTIsArmed:0000000000000000 $t
/var/folders/d2/nstgp4h54kz7g1l847x_b8wc0000gn/T//ccYkpomi.s:510    .text.chVTIsArmed:0000000000000000 chVTIsArmed
/var/folders/d2/nstgp4h54kz7g1l847x_b8wc0000gn/T//ccYkpomi.s:531    .text.chVTResetI:0000000000000000 $t
/var/folders/d2/nstgp4h54kz7g1l847x_b8wc0000gn/T//ccYkpomi.s:537    .text.chVTResetI:0000000000000000 chVTResetI
/var/folders/d2/nstgp4h54kz7g1l847x_b8wc0000gn/T//ccYkpomi.s:559    .text.chVTSetI:0000000000000000 $t
/var/folders/d2/nstgp4h54kz7g1l847x_b8wc0000gn/T//ccYkpomi.s:565    .text.chVTSetI:0000000000000000 chVTSetI
/var/folders/d2/nstgp4h54kz7g1l847x_b8wc0000gn/T//ccYkpomi.s:589    .text.chVTSet:0000000000000000 $t
/var/folders/d2/nstgp4h54kz7g1l847x_b8wc0000gn/T//ccYkpomi.s:595    .text.chVTSet:0000000000000000 chVTSet
/var/folders/d2/nstgp4h54kz7g1l847x_b8wc0000gn/T//ccYkpomi.s:619    .text.vtcb:0000000000000000 $t
/var/folders/d2/nstgp4h54kz7g1l847x_b8wc0000gn/T//ccYkpomi.s:625    .text.vtcb:0000000000000000 vtcb
/var/folders/d2/nstgp4h54kz7g1l847x_b8wc0000gn/T//ccYkpomi.s:647    .text.sys1_execute:0000000000000000 $t
/var/folders/d2/nstgp4h54kz7g1l847x_b8wc0000gn/T//ccYkpomi.s:653    .text.sys1_execute:0000000000000000 sys1_execute
/var/folders/d2/nstgp4h54kz7g1l847x_b8wc0000gn/T//ccYkpomi.s:710    .text.sys1_execute:000000000000008c $d
ARM GAS  /var/folders/d2/nstgp4h54kz7g1l847x_b8wc0000gn/T//ccYkpomi.s 			page 19


/var/folders/d2/nstgp4h54kz7g1l847x_b8wc0000gn/T//ccYkpomi.s:721    .rodata.testsys1:0000000000000000 testsys1
/var/folders/d2/nstgp4h54kz7g1l847x_b8wc0000gn/T//ccYkpomi.s:714    .rodata:0000000000000000 $d
/var/folders/d2/nstgp4h54kz7g1l847x_b8wc0000gn/T//ccYkpomi.s:718    .rodata.testsys1:0000000000000000 $d
/var/folders/d2/nstgp4h54kz7g1l847x_b8wc0000gn/T//ccYkpomi.s:727    .text.sys2_execute:0000000000000000 $t
/var/folders/d2/nstgp4h54kz7g1l847x_b8wc0000gn/T//ccYkpomi.s:733    .text.sys2_execute:0000000000000000 sys2_execute
/var/folders/d2/nstgp4h54kz7g1l847x_b8wc0000gn/T//ccYkpomi.s:754    .rodata.testsys2:0000000000000000 testsys2
/var/folders/d2/nstgp4h54kz7g1l847x_b8wc0000gn/T//ccYkpomi.s:751    .rodata.testsys2:0000000000000000 $d
/var/folders/d2/nstgp4h54kz7g1l847x_b8wc0000gn/T//ccYkpomi.s:760    .text.sys3_execute:0000000000000000 $t
/var/folders/d2/nstgp4h54kz7g1l847x_b8wc0000gn/T//ccYkpomi.s:766    .text.sys3_execute:0000000000000000 sys3_execute
/var/folders/d2/nstgp4h54kz7g1l847x_b8wc0000gn/T//ccYkpomi.s:883    .rodata.testsys3:0000000000000000 testsys3
/var/folders/d2/nstgp4h54kz7g1l847x_b8wc0000gn/T//ccYkpomi.s:880    .rodata.testsys3:0000000000000000 $d
/var/folders/d2/nstgp4h54kz7g1l847x_b8wc0000gn/T//ccYkpomi.s:893    .rodata.patternsys:0000000000000000 patternsys
/var/folders/d2/nstgp4h54kz7g1l847x_b8wc0000gn/T//ccYkpomi.s:890    .rodata.patternsys:0000000000000000 $d
/var/folders/d2/nstgp4h54kz7g1l847x_b8wc0000gn/T//ccYkpomi.s:899    .rodata.__func__.7153:0000000000000000 $d

UNDEFINED SYMBOLS
_dbg_check_disable
_dbg_check_suspend
_dbg_check_enable
_stats_start_measure_crit_thd
_dbg_check_lock
_dbg_check_unlock
_stats_stop_measure_crit_thd
chSysHalt
ch
_stats_start_measure_crit_isr
_dbg_check_lock_from_isr
_dbg_check_unlock_from_isr
_stats_stop_measure_crit_isr
chDbgCheckClassI
chVTDoResetI
chVTDoSetI
chSysGetStatusAndLockX
chSysRestoreStatusX
chThdSleep
_test_assert
chSysIntegrityCheckI
