ARM GAS  /var/folders/d2/nstgp4h54kz7g1l847x_b8wc0000gn/T//ccOQyc64.s 			page 1


   1              		.cpu cortex-m4
   2              		.eabi_attribute 27, 1
   3              		.eabi_attribute 28, 1
   4              		.eabi_attribute 20, 1
   5              		.eabi_attribute 21, 1
   6              		.eabi_attribute 23, 3
   7              		.eabi_attribute 24, 1
   8              		.eabi_attribute 25, 1
   9              		.eabi_attribute 26, 1
  10              		.eabi_attribute 30, 2
  11              		.eabi_attribute 34, 1
  12              		.eabi_attribute 18, 4
  13              		.file	"testmsg.c"
  14              		.text
  15              	.Ltext0:
  16              		.cfi_sections	.debug_frame
  17              		.section	.text.msg1_execute,"ax",%progbits
  18              		.align	1
  19              		.p2align 4,,15
  20              		.syntax unified
  21              		.thumb
  22              		.thumb_func
  23              		.fpu fpv4-sp-d16
  24              		.type	msg1_execute, %function
  25              	msg1_execute:
  26              	.LFB220:
  27              		.file 1 "../e-puck2_main-processor/ChibiOS//test/rt/testmsg.c"
  28              		.loc 1 66 0
  29              		.cfi_startproc
  30              		@ args = 0, pretend = 0, frame = 8
  31              		@ frame_needed = 0, uses_anonymous_args = 0
  32 0000 30B5     		push	{r4, r5, lr}
  33              		.cfi_def_cfa_offset 12
  34              		.cfi_offset 4, -12
  35              		.cfi_offset 5, -8
  36              		.cfi_offset 14, -4
  37              	.LBB16:
  38              	.LBB17:
  39              	.LBB18:
  40              	.LBB19:
  41              		.file 2 "../e-puck2_main-processor/ChibiOS//os/rt/include/chthreads.h"
  42              		.loc 2 176 0
  43 0002 1D4B     		ldr	r3, .L7
  44              	.LBE19:
  45              	.LBE18:
  46              	.LBE17:
  47              	.LBE16:
  48              		.loc 1 73 0
  49 0004 1D4A     		ldr	r2, .L7+4
  50              	.LBB23:
  51              	.LBB22:
  52              	.LBB21:
  53              	.LBB20:
  54              		.loc 2 176 0
  55 0006 9B69     		ldr	r3, [r3, #24]
  56              	.LBE20:
  57              	.LBE21:
ARM GAS  /var/folders/d2/nstgp4h54kz7g1l847x_b8wc0000gn/T//ccOQyc64.s 			page 2


  58              	.LBE22:
  59              	.LBE23:
  60              		.loc 1 66 0
  61 0008 1D4C     		ldr	r4, .L7+8
  62              		.loc 1 73 0
  63 000a 1068     		ldr	r0, [r2]
  64 000c 9A68     		ldr	r2, [r3, #8]
  65              		.loc 1 66 0
  66 000e 2168     		ldr	r1, [r4]
  67 0010 85B0     		sub	sp, sp, #20
  68              		.cfi_def_cfa_offset 32
  69              		.loc 1 73 0
  70 0012 0132     		adds	r2, r2, #1
  71 0014 0093     		str	r3, [sp]
  72              		.loc 1 66 0
  73 0016 0391     		str	r1, [sp, #12]
  74              		.loc 1 73 0
  75 0018 1A4B     		ldr	r3, .L7+12
  76 001a 4FF4FC71 		mov	r1, #504
  77 001e FFF7FEFF 		bl	chThdCreateStatic
  78              	.LVL0:
  79 0022 194B     		ldr	r3, .L7+16
  80 0024 1860     		str	r0, [r3]
  81              		.loc 1 75 0
  82 0026 FFF7FEFF 		bl	chMsgWait
  83              	.LVL1:
  84              	.LBB24:
  85              	.LBB25:
  86              		.file 3 "../e-puck2_main-processor/ChibiOS//os/rt/include/chmsg.h"
  87              		.loc 3 98 0
  88 002a 856B     		ldr	r5, [r0, #56]
  89              	.LVL2:
  90              	.LBE25:
  91              	.LBE24:
  92              		.loc 1 77 0
  93 002c 2946     		mov	r1, r5
  94 002e FFF7FEFF 		bl	chMsgRelease
  95              	.LVL3:
  96              		.loc 1 78 0
  97 0032 E8B2     		uxtb	r0, r5
  98 0034 FFF7FEFF 		bl	test_emit_token
  99              	.LVL4:
 100              		.loc 1 79 0
 101 0038 FFF7FEFF 		bl	chMsgWait
 102              	.LVL5:
 103              	.LBB26:
 104              	.LBB27:
 105              		.loc 3 98 0
 106 003c 856B     		ldr	r5, [r0, #56]
 107              	.LVL6:
 108              	.LBE27:
 109              	.LBE26:
 110              		.loc 1 81 0
 111 003e 2946     		mov	r1, r5
 112 0040 FFF7FEFF 		bl	chMsgRelease
 113              	.LVL7:
 114              		.loc 1 82 0
ARM GAS  /var/folders/d2/nstgp4h54kz7g1l847x_b8wc0000gn/T//ccOQyc64.s 			page 3


 115 0044 E8B2     		uxtb	r0, r5
 116 0046 FFF7FEFF 		bl	test_emit_token
 117              	.LVL8:
 118              		.loc 1 83 0
 119 004a FFF7FEFF 		bl	chMsgWait
 120              	.LVL9:
 121              	.LBB28:
 122              	.LBB29:
 123              		.loc 3 98 0
 124 004e 856B     		ldr	r5, [r0, #56]
 125              	.LVL10:
 126              	.LBE29:
 127              	.LBE28:
 128              		.loc 1 85 0
 129 0050 2946     		mov	r1, r5
 130 0052 FFF7FEFF 		bl	chMsgRelease
 131              	.LVL11:
 132              		.loc 1 86 0
 133 0056 E8B2     		uxtb	r0, r5
 134 0058 FFF7FEFF 		bl	test_emit_token
 135              	.LVL12:
 136              		.loc 1 87 0
 137 005c 039A     		ldr	r2, [sp, #12]
 138 005e 2368     		ldr	r3, [r4]
 139 0060 9A42     		cmp	r2, r3
 140 0062 06D1     		bne	.L6
 141 0064 0949     		ldr	r1, .L7+20
 142 0066 0120     		movs	r0, #1
 143              		.loc 1 88 0
 144 0068 05B0     		add	sp, sp, #20
 145              		.cfi_remember_state
 146              		.cfi_def_cfa_offset 12
 147              		@ sp needed
 148 006a BDE83040 		pop	{r4, r5, lr}
 149              		.cfi_restore 14
 150              		.cfi_restore 5
 151              		.cfi_restore 4
 152              		.cfi_def_cfa_offset 0
 153              		.loc 1 87 0
 154 006e FFF7FEBF 		b	_test_assert_sequence
 155              	.LVL13:
 156              	.L6:
 157              		.cfi_restore_state
 158 0072 FFF7FEFF 		bl	__stack_chk_fail
 159              	.LVL14:
 160              	.L8:
 161 0076 00BF     		.align	2
 162              	.L7:
 163 0078 00000000 		.word	ch
 164 007c 00000000 		.word	wa
 165 0080 00000000 		.word	__stack_chk_guard
 166 0084 00000000 		.word	thread
 167 0088 00000000 		.word	threads
 168 008c 00000000 		.word	.LC0
 169              		.cfi_endproc
 170              	.LFE220:
 171              		.size	msg1_execute, .-msg1_execute
ARM GAS  /var/folders/d2/nstgp4h54kz7g1l847x_b8wc0000gn/T//ccOQyc64.s 			page 4


 172              		.section	.text.thread,"ax",%progbits
 173              		.align	1
 174              		.p2align 4,,15
 175              		.syntax unified
 176              		.thumb
 177              		.thumb_func
 178              		.fpu fpv4-sp-d16
 179              		.type	thread, %function
 180              	thread:
 181              	.LFB219:
 182              		.loc 1 59 0
 183              		.cfi_startproc
 184              		@ args = 0, pretend = 0, frame = 8
 185              		@ frame_needed = 0, uses_anonymous_args = 0
 186              	.LVL15:
 187 0000 30B5     		push	{r4, r5, lr}
 188              		.cfi_def_cfa_offset 12
 189              		.cfi_offset 4, -12
 190              		.cfi_offset 5, -8
 191              		.cfi_offset 14, -4
 192 0002 0C4C     		ldr	r4, .L14
 193 0004 83B0     		sub	sp, sp, #12
 194              		.cfi_def_cfa_offset 24
 195              		.loc 1 59 0
 196 0006 2368     		ldr	r3, [r4]
 197 0008 0193     		str	r3, [sp, #4]
 198 000a 0546     		mov	r5, r0
 199              		.loc 1 61 0
 200 000c 4121     		movs	r1, #65
 201 000e FFF7FEFF 		bl	chMsgSend
 202              	.LVL16:
 203              		.loc 1 62 0
 204 0012 2846     		mov	r0, r5
 205 0014 4221     		movs	r1, #66
 206 0016 FFF7FEFF 		bl	chMsgSend
 207              	.LVL17:
 208              		.loc 1 63 0
 209 001a 019A     		ldr	r2, [sp, #4]
 210 001c 2368     		ldr	r3, [r4]
 211 001e 9A42     		cmp	r2, r3
 212 0020 06D1     		bne	.L13
 213 0022 2846     		mov	r0, r5
 214 0024 4321     		movs	r1, #67
 215              		.loc 1 64 0
 216 0026 03B0     		add	sp, sp, #12
 217              		.cfi_remember_state
 218              		.cfi_def_cfa_offset 12
 219              		@ sp needed
 220 0028 BDE83040 		pop	{r4, r5, lr}
 221              		.cfi_restore 14
 222              		.cfi_restore 5
 223              		.cfi_restore 4
 224              		.cfi_def_cfa_offset 0
 225              	.LVL18:
 226              		.loc 1 63 0
 227 002c FFF7FEBF 		b	chMsgSend
 228              	.LVL19:
ARM GAS  /var/folders/d2/nstgp4h54kz7g1l847x_b8wc0000gn/T//ccOQyc64.s 			page 5


 229              	.L13:
 230              		.cfi_restore_state
 231 0030 FFF7FEFF 		bl	__stack_chk_fail
 232              	.LVL20:
 233              	.L15:
 234              		.align	2
 235              	.L14:
 236 0034 00000000 		.word	__stack_chk_guard
 237              		.cfi_endproc
 238              	.LFE219:
 239              		.size	thread, .-thread
 240              		.global	patternmsg
 241              		.global	testmsg1
 242              		.section	.rodata.msg1_execute.str1.4,"aMS",%progbits,1
 243              		.align	2
 244              	.LC0:
 245 0000 41424300 		.ascii	"ABC\000"
 246              		.section	.rodata.patternmsg,"a",%progbits
 247              		.align	2
 248              		.type	patternmsg, %object
 249              		.size	patternmsg, 8
 250              	patternmsg:
 251 0000 00000000 		.word	testmsg1
 252 0004 00000000 		.word	0
 253              		.section	.rodata.str1.4,"aMS",%progbits,1
 254              		.align	2
 255              	.LC1:
 256 0000 4D657373 		.ascii	"Messages, loop\000"
 256      61676573 
 256      2C206C6F 
 256      6F7000
 257              		.section	.rodata.testmsg1,"a",%progbits
 258              		.align	2
 259              		.type	testmsg1, %object
 260              		.size	testmsg1, 16
 261              	testmsg1:
 262 0000 00000000 		.word	.LC1
 263 0004 00000000 		.word	0
 264 0008 00000000 		.word	0
 265 000c 00000000 		.word	msg1_execute
 266              		.text
 267              	.Letext0:
 268              		.file 4 "/Applications/Eclipse_e-puck2.app/Contents/Eclipse_e-puck2/Tools/gcc-arm-none-eabi-7-2017
 269              		.file 5 "/Applications/Eclipse_e-puck2.app/Contents/Eclipse_e-puck2/Tools/gcc-arm-none-eabi-7-2017
 270              		.file 6 "/Applications/Eclipse_e-puck2.app/Contents/Eclipse_e-puck2/Tools/gcc-arm-none-eabi-7-2017
 271              		.file 7 "../e-puck2_main-processor/ChibiOS//os/rt/ports/ARMCMx/compilers/GCC/chtypes.h"
 272              		.file 8 "../e-puck2_main-processor/ChibiOS//os/rt/include/chsystypes.h"
 273              		.file 9 "../e-puck2_main-processor/ChibiOS//os/rt/include/chschd.h"
 274              		.file 10 "../e-puck2_main-processor/ChibiOS//os/ext/CMSIS/include/core_cm4.h"
 275              		.file 11 "../e-puck2_main-processor/ChibiOS//os/ext/CMSIS/ST/system_stm32f4xx.h"
 276              		.file 12 "../e-puck2_main-processor/ChibiOS//os/rt/ports/ARMCMx/chcore.h"
 277              		.file 13 "../e-puck2_main-processor/ChibiOS//os/rt/ports/ARMCMx/chcore_v7m.h"
 278              		.file 14 "../e-puck2_main-processor/ChibiOS//os/rt/include/chdebug.h"
 279              		.file 15 "../e-puck2_main-processor/ChibiOS//os/rt/include/chtm.h"
 280              		.file 16 "../e-puck2_main-processor/ChibiOS//os/rt/include/chstats.h"
 281              		.file 17 "../e-puck2_main-processor/ChibiOS//os/rt/include/chsem.h"
 282              		.file 18 "../e-puck2_main-processor/ChibiOS//os/rt/include/chmtx.h"
ARM GAS  /var/folders/d2/nstgp4h54kz7g1l847x_b8wc0000gn/T//ccOQyc64.s 			page 6


 283              		.file 19 "../e-puck2_main-processor/ChibiOS//os/rt/include/chregistry.h"
 284              		.file 20 "../e-puck2_main-processor/ChibiOS//test/rt/test.h"
 285              		.section	.debug_info,"",%progbits
 286              	.Ldebug_info0:
 287 0000 E20D0000 		.4byte	0xde2
 288 0004 0400     		.2byte	0x4
 289 0006 00000000 		.4byte	.Ldebug_abbrev0
 290 000a 04       		.byte	0x4
 291 000b 01       		.uleb128 0x1
 292 000c 66020000 		.4byte	.LASF180
 293 0010 0C       		.byte	0xc
 294 0011 66080000 		.4byte	.LASF181
 295 0015 D0070000 		.4byte	.LASF182
 296 0019 30000000 		.4byte	.Ldebug_ranges0+0x30
 297 001d 00000000 		.4byte	0
 298 0021 00000000 		.4byte	.Ldebug_line0
 299 0025 02       		.uleb128 0x2
 300 0026 04       		.byte	0x4
 301 0027 05       		.byte	0x5
 302 0028 696E7400 		.ascii	"int\000"
 303 002c 03       		.uleb128 0x3
 304 002d 22000000 		.4byte	.LASF4
 305 0031 04       		.byte	0x4
 306 0032 D8       		.byte	0xd8
 307 0033 37000000 		.4byte	0x37
 308 0037 04       		.uleb128 0x4
 309 0038 04       		.byte	0x4
 310 0039 07       		.byte	0x7
 311 003a 59020000 		.4byte	.LASF0
 312 003e 04       		.uleb128 0x4
 313 003f 08       		.byte	0x8
 314 0040 05       		.byte	0x5
 315 0041 36010000 		.4byte	.LASF1
 316 0045 04       		.uleb128 0x4
 317 0046 08       		.byte	0x8
 318 0047 04       		.byte	0x4
 319 0048 24050000 		.4byte	.LASF2
 320 004c 04       		.uleb128 0x4
 321 004d 01       		.byte	0x1
 322 004e 06       		.byte	0x6
 323 004f 44010000 		.4byte	.LASF3
 324 0053 03       		.uleb128 0x3
 325 0054 46000000 		.4byte	.LASF5
 326 0058 05       		.byte	0x5
 327 0059 2B       		.byte	0x2b
 328 005a 5E000000 		.4byte	0x5e
 329 005e 04       		.uleb128 0x4
 330 005f 01       		.byte	0x1
 331 0060 08       		.byte	0x8
 332 0061 31060000 		.4byte	.LASF6
 333 0065 04       		.uleb128 0x4
 334 0066 02       		.byte	0x2
 335 0067 05       		.byte	0x5
 336 0068 49060000 		.4byte	.LASF7
 337 006c 03       		.uleb128 0x3
 338 006d 65070000 		.4byte	.LASF8
 339 0071 05       		.byte	0x5
ARM GAS  /var/folders/d2/nstgp4h54kz7g1l847x_b8wc0000gn/T//ccOQyc64.s 			page 7


 340 0072 39       		.byte	0x39
 341 0073 77000000 		.4byte	0x77
 342 0077 04       		.uleb128 0x4
 343 0078 02       		.byte	0x2
 344 0079 07       		.byte	0x7
 345 007a 08040000 		.4byte	.LASF9
 346 007e 03       		.uleb128 0x3
 347 007f 8E040000 		.4byte	.LASF10
 348 0083 05       		.byte	0x5
 349 0084 4D       		.byte	0x4d
 350 0085 89000000 		.4byte	0x89
 351 0089 04       		.uleb128 0x4
 352 008a 04       		.byte	0x4
 353 008b 05       		.byte	0x5
 354 008c AE010000 		.4byte	.LASF11
 355 0090 03       		.uleb128 0x3
 356 0091 A3070000 		.4byte	.LASF12
 357 0095 05       		.byte	0x5
 358 0096 4F       		.byte	0x4f
 359 0097 9B000000 		.4byte	0x9b
 360 009b 04       		.uleb128 0x4
 361 009c 04       		.byte	0x4
 362 009d 07       		.byte	0x7
 363 009e 47070000 		.4byte	.LASF13
 364 00a2 03       		.uleb128 0x3
 365 00a3 B9050000 		.4byte	.LASF14
 366 00a7 05       		.byte	0x5
 367 00a8 69       		.byte	0x69
 368 00a9 AD000000 		.4byte	0xad
 369 00ad 04       		.uleb128 0x4
 370 00ae 08       		.byte	0x8
 371 00af 07       		.byte	0x7
 372 00b0 95000000 		.4byte	.LASF15
 373 00b4 03       		.uleb128 0x3
 374 00b5 C0080000 		.4byte	.LASF16
 375 00b9 06       		.byte	0x6
 376 00ba 18       		.byte	0x18
 377 00bb 53000000 		.4byte	0x53
 378 00bf 03       		.uleb128 0x3
 379 00c0 AA030000 		.4byte	.LASF17
 380 00c4 06       		.byte	0x6
 381 00c5 24       		.byte	0x24
 382 00c6 6C000000 		.4byte	0x6c
 383 00ca 03       		.uleb128 0x3
 384 00cb 29060000 		.4byte	.LASF18
 385 00cf 06       		.byte	0x6
 386 00d0 2C       		.byte	0x2c
 387 00d1 7E000000 		.4byte	0x7e
 388 00d5 05       		.uleb128 0x5
 389 00d6 CA000000 		.4byte	0xca
 390 00da 03       		.uleb128 0x3
 391 00db 12070000 		.4byte	.LASF19
 392 00df 06       		.byte	0x6
 393 00e0 30       		.byte	0x30
 394 00e1 90000000 		.4byte	0x90
 395 00e5 03       		.uleb128 0x3
 396 00e6 30000000 		.4byte	.LASF20
ARM GAS  /var/folders/d2/nstgp4h54kz7g1l847x_b8wc0000gn/T//ccOQyc64.s 			page 8


 397 00ea 06       		.byte	0x6
 398 00eb 3C       		.byte	0x3c
 399 00ec A2000000 		.4byte	0xa2
 400 00f0 03       		.uleb128 0x3
 401 00f1 F4040000 		.4byte	.LASF21
 402 00f5 07       		.byte	0x7
 403 00f6 45       		.byte	0x45
 404 00f7 DA000000 		.4byte	0xda
 405 00fb 03       		.uleb128 0x3
 406 00fc 08010000 		.4byte	.LASF22
 407 0100 07       		.byte	0x7
 408 0101 46       		.byte	0x46
 409 0102 E5000000 		.4byte	0xe5
 410 0106 03       		.uleb128 0x3
 411 0107 94060000 		.4byte	.LASF23
 412 010b 07       		.byte	0x7
 413 010c 48       		.byte	0x48
 414 010d B4000000 		.4byte	0xb4
 415 0111 03       		.uleb128 0x3
 416 0112 C1010000 		.4byte	.LASF24
 417 0116 07       		.byte	0x7
 418 0117 49       		.byte	0x49
 419 0118 B4000000 		.4byte	0xb4
 420 011c 03       		.uleb128 0x3
 421 011d CF050000 		.4byte	.LASF25
 422 0121 07       		.byte	0x7
 423 0122 4A       		.byte	0x4a
 424 0123 B4000000 		.4byte	0xb4
 425 0127 03       		.uleb128 0x3
 426 0128 94010000 		.4byte	.LASF26
 427 012c 07       		.byte	0x7
 428 012d 4B       		.byte	0x4b
 429 012e B4000000 		.4byte	0xb4
 430 0132 03       		.uleb128 0x3
 431 0133 0B060000 		.4byte	.LASF27
 432 0137 07       		.byte	0x7
 433 0138 4C       		.byte	0x4c
 434 0139 DA000000 		.4byte	0xda
 435 013d 03       		.uleb128 0x3
 436 013e 34040000 		.4byte	.LASF28
 437 0142 07       		.byte	0x7
 438 0143 4D       		.byte	0x4d
 439 0144 CA000000 		.4byte	0xca
 440 0148 03       		.uleb128 0x3
 441 0149 82040000 		.4byte	.LASF29
 442 014d 07       		.byte	0x7
 443 014e 4F       		.byte	0x4f
 444 014f DA000000 		.4byte	0xda
 445 0153 03       		.uleb128 0x3
 446 0154 48020000 		.4byte	.LASF30
 447 0158 07       		.byte	0x7
 448 0159 51       		.byte	0x51
 449 015a CA000000 		.4byte	0xca
 450 015e 03       		.uleb128 0x3
 451 015f 3F040000 		.4byte	.LASF31
 452 0163 07       		.byte	0x7
 453 0164 52       		.byte	0x52
ARM GAS  /var/folders/d2/nstgp4h54kz7g1l847x_b8wc0000gn/T//ccOQyc64.s 			page 9


 454 0165 DA000000 		.4byte	0xda
 455 0169 03       		.uleb128 0x3
 456 016a 85070000 		.4byte	.LASF32
 457 016e 08       		.byte	0x8
 458 016f 33       		.byte	0x33
 459 0170 DA000000 		.4byte	0xda
 460 0174 05       		.uleb128 0x5
 461 0175 69010000 		.4byte	0x169
 462 0179 03       		.uleb128 0x3
 463 017a 70070000 		.4byte	.LASF33
 464 017e 08       		.byte	0x8
 465 017f 3F       		.byte	0x3f
 466 0180 84010000 		.4byte	0x184
 467 0184 06       		.uleb128 0x6
 468 0185 2A040000 		.4byte	.LASF57
 469 0189 68       		.byte	0x68
 470 018a 09       		.byte	0x9
 471 018b C2       		.byte	0xc2
 472 018c A2020000 		.4byte	0x2a2
 473 0190 07       		.uleb128 0x7
 474 0191 8D060000 		.4byte	.LASF34
 475 0195 09       		.byte	0x9
 476 0196 C3       		.byte	0xc3
 477 0197 AD020000 		.4byte	0x2ad
 478 019b 00       		.byte	0
 479 019c 07       		.uleb128 0x7
 480 019d FC050000 		.4byte	.LASF35
 481 01a1 09       		.byte	0x9
 482 01a2 C5       		.byte	0xc5
 483 01a3 AD020000 		.4byte	0x2ad
 484 01a7 04       		.byte	0x4
 485 01a8 07       		.uleb128 0x7
 486 01a9 11010000 		.4byte	.LASF36
 487 01ad 09       		.byte	0x9
 488 01ae C7       		.byte	0xc7
 489 01af 32010000 		.4byte	0x132
 490 01b3 08       		.byte	0x8
 491 01b4 07       		.uleb128 0x7
 492 01b5 6C050000 		.4byte	.LASF37
 493 01b9 09       		.byte	0x9
 494 01ba C8       		.byte	0xc8
 495 01bb 2B050000 		.4byte	0x52b
 496 01bf 0C       		.byte	0xc
 497 01c0 07       		.uleb128 0x7
 498 01c1 E1010000 		.4byte	.LASF38
 499 01c5 09       		.byte	0x9
 500 01c6 CA       		.byte	0xca
 501 01c7 AD020000 		.4byte	0x2ad
 502 01cb 10       		.byte	0x10
 503 01cc 07       		.uleb128 0x7
 504 01cd 5E050000 		.4byte	.LASF39
 505 01d1 09       		.byte	0x9
 506 01d2 CB       		.byte	0xcb
 507 01d3 AD020000 		.4byte	0x2ad
 508 01d7 14       		.byte	0x14
 509 01d8 07       		.uleb128 0x7
 510 01d9 FC080000 		.4byte	.LASF40
ARM GAS  /var/folders/d2/nstgp4h54kz7g1l847x_b8wc0000gn/T//ccOQyc64.s 			page 10


 511 01dd 09       		.byte	0x9
 512 01de D2       		.byte	0xd2
 513 01df A1080000 		.4byte	0x8a1
 514 01e3 18       		.byte	0x18
 515 01e4 07       		.uleb128 0x7
 516 01e5 4E020000 		.4byte	.LASF41
 517 01e9 09       		.byte	0x9
 518 01ea D8       		.byte	0xd8
 519 01eb B8080000 		.4byte	0x8b8
 520 01ef 1C       		.byte	0x1c
 521 01f0 07       		.uleb128 0x7
 522 01f1 53060000 		.4byte	.LASF42
 523 01f5 09       		.byte	0x9
 524 01f6 DD       		.byte	0xdd
 525 01f7 11010000 		.4byte	0x111
 526 01fb 20       		.byte	0x20
 527 01fc 07       		.uleb128 0x7
 528 01fd AB060000 		.4byte	.LASF43
 529 0201 09       		.byte	0x9
 530 0202 E1       		.byte	0xe1
 531 0203 06010000 		.4byte	0x106
 532 0207 21       		.byte	0x21
 533 0208 07       		.uleb128 0x7
 534 0209 A0050000 		.4byte	.LASF44
 535 020d 09       		.byte	0x9
 536 020e E6       		.byte	0xe6
 537 020f 1C010000 		.4byte	0x11c
 538 0213 22       		.byte	0x22
 539 0214 07       		.uleb128 0x7
 540 0215 5B060000 		.4byte	.LASF45
 541 0219 09       		.byte	0x9
 542 021a EC       		.byte	0xec
 543 021b 27010000 		.4byte	0x127
 544 021f 23       		.byte	0x23
 545 0220 07       		.uleb128 0x7
 546 0221 C3030000 		.4byte	.LASF46
 547 0225 09       		.byte	0x9
 548 0226 F3       		.byte	0xf3
 549 0227 74010000 		.4byte	0x174
 550 022b 24       		.byte	0x24
 551 022c 08       		.uleb128 0x8
 552 022d 705F7500 		.ascii	"p_u\000"
 553 0231 09       		.byte	0x9
 554 0232 3101     		.2byte	0x131
 555 0234 D0070000 		.4byte	0x7d0
 556 0238 28       		.byte	0x28
 557 0239 09       		.uleb128 0x9
 558 023a DF040000 		.4byte	.LASF47
 559 023e 09       		.byte	0x9
 560 023f 3601     		.2byte	0x136
 561 0241 B3020000 		.4byte	0x2b3
 562 0245 2C       		.byte	0x2c
 563 0246 09       		.uleb128 0x9
 564 0247 DA030000 		.4byte	.LASF48
 565 024b 09       		.byte	0x9
 566 024c 3C01     		.2byte	0x13c
 567 024e D7020000 		.4byte	0x2d7
ARM GAS  /var/folders/d2/nstgp4h54kz7g1l847x_b8wc0000gn/T//ccOQyc64.s 			page 11


 568 0252 30       		.byte	0x30
 569 0253 09       		.uleb128 0x9
 570 0254 30080000 		.4byte	.LASF49
 571 0258 09       		.byte	0x9
 572 0259 4001     		.2byte	0x140
 573 025b 3D010000 		.4byte	0x13d
 574 025f 38       		.byte	0x38
 575 0260 09       		.uleb128 0x9
 576 0261 07070000 		.4byte	.LASF50
 577 0265 09       		.byte	0x9
 578 0266 4601     		.2byte	0x146
 579 0268 48010000 		.4byte	0x148
 580 026c 3C       		.byte	0x3c
 581 026d 09       		.uleb128 0x9
 582 026e 3F060000 		.4byte	.LASF51
 583 0272 09       		.byte	0x9
 584 0273 4D01     		.2byte	0x14d
 585 0275 9B080000 		.4byte	0x89b
 586 0279 40       		.byte	0x40
 587 027a 09       		.uleb128 0x9
 588 027b 8F070000 		.4byte	.LASF52
 589 027f 09       		.byte	0x9
 590 0280 5101     		.2byte	0x151
 591 0282 32010000 		.4byte	0x132
 592 0286 44       		.byte	0x44
 593 0287 09       		.uleb128 0x9
 594 0288 6D010000 		.4byte	.LASF53
 595 028c 09       		.byte	0x9
 596 028d 5801     		.2byte	0x158
 597 028f 8A030000 		.4byte	0x38a
 598 0293 48       		.byte	0x48
 599 0294 09       		.uleb128 0x9
 600 0295 B3060000 		.4byte	.LASF54
 601 0299 09       		.byte	0x9
 602 029a 5E01     		.2byte	0x15e
 603 029c 81070000 		.4byte	0x781
 604 02a0 50       		.byte	0x50
 605 02a1 00       		.byte	0
 606 02a2 03       		.uleb128 0x3
 607 02a3 D5080000 		.4byte	.LASF55
 608 02a7 08       		.byte	0x8
 609 02a8 44       		.byte	0x44
 610 02a9 AD020000 		.4byte	0x2ad
 611 02ad 0A       		.uleb128 0xa
 612 02ae 04       		.byte	0x4
 613 02af 79010000 		.4byte	0x179
 614 02b3 03       		.uleb128 0x3
 615 02b4 B5040000 		.4byte	.LASF56
 616 02b8 08       		.byte	0x8
 617 02b9 49       		.byte	0x49
 618 02ba BE020000 		.4byte	0x2be
 619 02be 06       		.uleb128 0x6
 620 02bf 2F070000 		.4byte	.LASF58
 621 02c3 04       		.byte	0x4
 622 02c4 09       		.byte	0x9
 623 02c5 B0       		.byte	0xb0
 624 02c6 D7020000 		.4byte	0x2d7
ARM GAS  /var/folders/d2/nstgp4h54kz7g1l847x_b8wc0000gn/T//ccOQyc64.s 			page 12


 625 02ca 07       		.uleb128 0x7
 626 02cb 8D060000 		.4byte	.LASF34
 627 02cf 09       		.byte	0x9
 628 02d0 B1       		.byte	0xb1
 629 02d1 AD020000 		.4byte	0x2ad
 630 02d5 00       		.byte	0
 631 02d6 00       		.byte	0
 632 02d7 03       		.uleb128 0x3
 633 02d8 BB060000 		.4byte	.LASF59
 634 02dc 08       		.byte	0x8
 635 02dd 50       		.byte	0x50
 636 02de E2020000 		.4byte	0x2e2
 637 02e2 06       		.uleb128 0x6
 638 02e3 5C000000 		.4byte	.LASF60
 639 02e7 08       		.byte	0x8
 640 02e8 09       		.byte	0x9
 641 02e9 B7       		.byte	0xb7
 642 02ea 07030000 		.4byte	0x307
 643 02ee 07       		.uleb128 0x7
 644 02ef 8D060000 		.4byte	.LASF34
 645 02f3 09       		.byte	0x9
 646 02f4 B8       		.byte	0xb8
 647 02f5 AD020000 		.4byte	0x2ad
 648 02f9 00       		.byte	0
 649 02fa 07       		.uleb128 0x7
 650 02fb FC050000 		.4byte	.LASF35
 651 02ff 09       		.byte	0x9
 652 0300 B9       		.byte	0xb9
 653 0301 AD020000 		.4byte	0x2ad
 654 0305 04       		.byte	0x4
 655 0306 00       		.byte	0
 656 0307 03       		.uleb128 0x3
 657 0308 0D000000 		.4byte	.LASF61
 658 030c 08       		.byte	0x8
 659 030d 57       		.byte	0x57
 660 030e 12030000 		.4byte	0x312
 661 0312 0B       		.uleb128 0xb
 662 0313 74040000 		.4byte	.LASF62
 663 0317 1C       		.byte	0x1c
 664 0318 09       		.byte	0x9
 665 0319 9001     		.2byte	0x190
 666 031b 6E030000 		.4byte	0x36e
 667 031f 09       		.uleb128 0x9
 668 0320 27070000 		.4byte	.LASF63
 669 0324 09       		.byte	0x9
 670 0325 9101     		.2byte	0x191
 671 0327 D7020000 		.4byte	0x2d7
 672 032b 00       		.byte	0
 673 032c 09       		.uleb128 0x9
 674 032d D8040000 		.4byte	.LASF64
 675 0331 09       		.byte	0x9
 676 0332 9201     		.2byte	0x192
 677 0334 32010000 		.4byte	0x132
 678 0338 08       		.byte	0x8
 679 0339 09       		.uleb128 0x9
 680 033a 66050000 		.4byte	.LASF65
 681 033e 09       		.byte	0x9
ARM GAS  /var/folders/d2/nstgp4h54kz7g1l847x_b8wc0000gn/T//ccOQyc64.s 			page 13


 682 033f 9401     		.2byte	0x194
 683 0341 2B050000 		.4byte	0x52b
 684 0345 0C       		.byte	0xc
 685 0346 09       		.uleb128 0x9
 686 0347 F9010000 		.4byte	.LASF66
 687 034b 09       		.byte	0x9
 688 034c 9701     		.2byte	0x197
 689 034e AD020000 		.4byte	0x2ad
 690 0352 10       		.byte	0x10
 691 0353 09       		.uleb128 0x9
 692 0354 B1050000 		.4byte	.LASF67
 693 0358 09       		.byte	0x9
 694 0359 9801     		.2byte	0x198
 695 035b AD020000 		.4byte	0x2ad
 696 035f 14       		.byte	0x14
 697 0360 09       		.uleb128 0x9
 698 0361 A7050000 		.4byte	.LASF68
 699 0365 09       		.byte	0x9
 700 0366 9B01     		.2byte	0x19b
 701 0368 AD020000 		.4byte	0x2ad
 702 036c 18       		.byte	0x18
 703 036d 00       		.byte	0
 704 036e 03       		.uleb128 0x3
 705 036f 9A070000 		.4byte	.LASF69
 706 0373 08       		.byte	0x8
 707 0374 5C       		.byte	0x5c
 708 0375 79030000 		.4byte	0x379
 709 0379 0A       		.uleb128 0xa
 710 037a 04       		.byte	0x4
 711 037b 7F030000 		.4byte	0x37f
 712 037f 0C       		.uleb128 0xc
 713 0380 8A030000 		.4byte	0x38a
 714 0384 0D       		.uleb128 0xd
 715 0385 8A030000 		.4byte	0x38a
 716 0389 00       		.byte	0
 717 038a 0E       		.uleb128 0xe
 718 038b 04       		.byte	0x4
 719 038c 0F       		.uleb128 0xf
 720 038d 8A030000 		.4byte	0x38a
 721 0391 03       		.uleb128 0x3
 722 0392 EC050000 		.4byte	.LASF70
 723 0396 08       		.byte	0x8
 724 0397 61       		.byte	0x61
 725 0398 9C030000 		.4byte	0x39c
 726 039c 0B       		.uleb128 0xb
 727 039d CB060000 		.4byte	.LASF71
 728 03a1 14       		.byte	0x14
 729 03a2 09       		.byte	0x9
 730 03a3 6B01     		.2byte	0x16b
 731 03a5 EB030000 		.4byte	0x3eb
 732 03a9 09       		.uleb128 0x9
 733 03aa 28020000 		.4byte	.LASF72
 734 03ae 09       		.byte	0x9
 735 03af 6C01     		.2byte	0x16c
 736 03b1 BE080000 		.4byte	0x8be
 737 03b5 00       		.byte	0
 738 03b6 09       		.uleb128 0x9
ARM GAS  /var/folders/d2/nstgp4h54kz7g1l847x_b8wc0000gn/T//ccOQyc64.s 			page 14


 739 03b7 0A020000 		.4byte	.LASF73
 740 03bb 09       		.byte	0x9
 741 03bc 6D01     		.2byte	0x16d
 742 03be BE080000 		.4byte	0x8be
 743 03c2 04       		.byte	0x4
 744 03c3 09       		.uleb128 0x9
 745 03c4 D1030000 		.4byte	.LASF74
 746 03c8 09       		.byte	0x9
 747 03c9 6E01     		.2byte	0x16e
 748 03cb 69010000 		.4byte	0x169
 749 03cf 08       		.byte	0x8
 750 03d0 09       		.uleb128 0x9
 751 03d1 51090000 		.4byte	.LASF75
 752 03d5 09       		.byte	0x9
 753 03d6 6F01     		.2byte	0x16f
 754 03d8 6E030000 		.4byte	0x36e
 755 03dc 0C       		.byte	0xc
 756 03dd 09       		.uleb128 0x9
 757 03de 36080000 		.4byte	.LASF76
 758 03e2 09       		.byte	0x9
 759 03e3 7101     		.2byte	0x171
 760 03e5 8A030000 		.4byte	0x38a
 761 03e9 10       		.byte	0x10
 762 03ea 00       		.byte	0
 763 03eb 03       		.uleb128 0x3
 764 03ec E5000000 		.4byte	.LASF77
 765 03f0 08       		.byte	0x8
 766 03f1 66       		.byte	0x66
 767 03f2 F6030000 		.4byte	0x3f6
 768 03f6 0B       		.uleb128 0xb
 769 03f7 0D050000 		.4byte	.LASF78
 770 03fb 10       		.byte	0x10
 771 03fc 09       		.byte	0x9
 772 03fd 7B01     		.2byte	0x17b
 773 03ff 38040000 		.4byte	0x438
 774 0403 09       		.uleb128 0x9
 775 0404 28020000 		.4byte	.LASF72
 776 0408 09       		.byte	0x9
 777 0409 7C01     		.2byte	0x17c
 778 040b BE080000 		.4byte	0x8be
 779 040f 00       		.byte	0
 780 0410 09       		.uleb128 0x9
 781 0411 0A020000 		.4byte	.LASF73
 782 0415 09       		.byte	0x9
 783 0416 7E01     		.2byte	0x17e
 784 0418 BE080000 		.4byte	0x8be
 785 041c 04       		.byte	0x4
 786 041d 09       		.uleb128 0x9
 787 041e D1030000 		.4byte	.LASF74
 788 0422 09       		.byte	0x9
 789 0423 8001     		.2byte	0x180
 790 0425 69010000 		.4byte	0x169
 791 0429 08       		.byte	0x8
 792 042a 09       		.uleb128 0x9
 793 042b 03090000 		.4byte	.LASF79
 794 042f 09       		.byte	0x9
 795 0430 8201     		.2byte	0x182
ARM GAS  /var/folders/d2/nstgp4h54kz7g1l847x_b8wc0000gn/T//ccOQyc64.s 			page 15


 796 0432 74010000 		.4byte	0x174
 797 0436 0C       		.byte	0xc
 798 0437 00       		.byte	0
 799 0438 03       		.uleb128 0x3
 800 0439 6D000000 		.4byte	.LASF80
 801 043d 08       		.byte	0x8
 802 043e 6B       		.byte	0x6b
 803 043f 43040000 		.4byte	0x443
 804 0443 10       		.uleb128 0x10
 805 0444 12020000 		.4byte	.LASF81
 806 0448 1404     		.2byte	0x414
 807 044a 09       		.byte	0x9
 808 044b A201     		.2byte	0x1a2
 809 044d 86040000 		.4byte	0x486
 810 0451 09       		.uleb128 0x9
 811 0452 AE070000 		.4byte	.LASF82
 812 0456 09       		.byte	0x9
 813 0457 AA01     		.2byte	0x1aa
 814 0459 A7080000 		.4byte	0x8a7
 815 045d 00       		.byte	0
 816 045e 09       		.uleb128 0x9
 817 045f 9B080000 		.4byte	.LASF83
 818 0463 09       		.byte	0x9
 819 0464 AF01     		.2byte	0x1af
 820 0466 53010000 		.4byte	0x153
 821 046a 04       		.byte	0x4
 822 046b 09       		.uleb128 0x9
 823 046c 30020000 		.4byte	.LASF84
 824 0470 09       		.byte	0x9
 825 0471 B301     		.2byte	0x1b3
 826 0473 53010000 		.4byte	0x153
 827 0477 08       		.byte	0x8
 828 0478 09       		.uleb128 0x9
 829 0479 0E090000 		.4byte	.LASF85
 830 047d 09       		.byte	0x9
 831 047e B901     		.2byte	0x1b9
 832 0480 13070000 		.4byte	0x713
 833 0484 0C       		.byte	0xc
 834 0485 00       		.byte	0
 835 0486 03       		.uleb128 0x3
 836 0487 46040000 		.4byte	.LASF86
 837 048b 08       		.byte	0x8
 838 048c 70       		.byte	0x70
 839 048d 91040000 		.4byte	0x491
 840 0491 10       		.uleb128 0x10
 841 0492 A4010000 		.4byte	.LASF87
 842 0496 7006     		.2byte	0x670
 843 0498 09       		.byte	0x9
 844 0499 C201     		.2byte	0x1c2
 845 049b FE040000 		.4byte	0x4fe
 846 049f 09       		.uleb128 0x9
 847 04a0 AC080000 		.4byte	.LASF88
 848 04a4 09       		.byte	0x9
 849 04a5 C601     		.2byte	0x1c6
 850 04a7 07030000 		.4byte	0x307
 851 04ab 00       		.byte	0
 852 04ac 09       		.uleb128 0x9
ARM GAS  /var/folders/d2/nstgp4h54kz7g1l847x_b8wc0000gn/T//ccOQyc64.s 			page 16


 853 04ad 8D010000 		.4byte	.LASF89
 854 04b1 09       		.byte	0x9
 855 04b2 CA01     		.2byte	0x1ca
 856 04b4 EB030000 		.4byte	0x3eb
 857 04b8 1C       		.byte	0x1c
 858 04b9 08       		.uleb128 0x8
 859 04ba 64626700 		.ascii	"dbg\000"
 860 04be 09       		.byte	0x9
 861 04bf CE01     		.2byte	0x1ce
 862 04c1 38040000 		.4byte	0x438
 863 04c5 2C       		.byte	0x2c
 864 04c6 11       		.uleb128 0x11
 865 04c7 D5000000 		.4byte	.LASF90
 866 04cb 09       		.byte	0x9
 867 04cc D201     		.2byte	0x1d2
 868 04ce 79010000 		.4byte	0x179
 869 04d2 4004     		.2byte	0x440
 870 04d4 12       		.uleb128 0x12
 871 04d5 746D00   		.ascii	"tm\000"
 872 04d8 09       		.byte	0x9
 873 04d9 D701     		.2byte	0x1d7
 874 04db 33070000 		.4byte	0x733
 875 04df A804     		.2byte	0x4a8
 876 04e1 11       		.uleb128 0x11
 877 04e2 39000000 		.4byte	.LASF91
 878 04e6 09       		.byte	0x9
 879 04e7 DD01     		.2byte	0x1dd
 880 04e9 C5070000 		.4byte	0x7c5
 881 04ed B004     		.2byte	0x4b0
 882 04ef 11       		.uleb128 0x11
 883 04f0 39020000 		.4byte	.LASF92
 884 04f4 09       		.byte	0x9
 885 04f5 E301     		.2byte	0x1e3
 886 04f7 C4080000 		.4byte	0x8c4
 887 04fb E804     		.2byte	0x4e8
 888 04fd 00       		.byte	0
 889 04fe 13       		.uleb128 0x13
 890 04ff FB000000 		.4byte	.LASF93
 891 0503 0A       		.byte	0xa
 892 0504 A706     		.2byte	0x6a7
 893 0506 D5000000 		.4byte	0xd5
 894 050a 14       		.uleb128 0x14
 895 050b B3030000 		.4byte	.LASF94
 896 050f 0B       		.byte	0xb
 897 0510 4C       		.byte	0x4c
 898 0511 DA000000 		.4byte	0xda
 899 0515 03       		.uleb128 0x3
 900 0516 01020000 		.4byte	.LASF95
 901 051a 0C       		.byte	0xc
 902 051b 65       		.byte	0x65
 903 051c 8A030000 		.4byte	0x38a
 904 0520 03       		.uleb128 0x3
 905 0521 98040000 		.4byte	.LASF96
 906 0525 0C       		.byte	0xc
 907 0526 6D       		.byte	0x6d
 908 0527 E5000000 		.4byte	0xe5
 909 052b 06       		.uleb128 0x6
ARM GAS  /var/folders/d2/nstgp4h54kz7g1l847x_b8wc0000gn/T//ccOQyc64.s 			page 17


 910 052c 28080000 		.4byte	.LASF97
 911 0530 04       		.byte	0x4
 912 0531 0C       		.byte	0xc
 913 0532 89       		.byte	0x89
 914 0533 44050000 		.4byte	0x544
 915 0537 15       		.uleb128 0x15
 916 0538 72313300 		.ascii	"r13\000"
 917 053c 0C       		.byte	0xc
 918 053d 8A       		.byte	0x8a
 919 053e 85060000 		.4byte	0x685
 920 0542 00       		.byte	0
 921 0543 00       		.byte	0
 922 0544 06       		.uleb128 0x6
 923 0545 50000000 		.4byte	.LASF98
 924 0549 64       		.byte	0x64
 925 054a 0D       		.byte	0xd
 926 054b F4       		.byte	0xf4
 927 054c 85060000 		.4byte	0x685
 928 0550 15       		.uleb128 0x15
 929 0551 73313600 		.ascii	"s16\000"
 930 0555 0D       		.byte	0xd
 931 0556 F6       		.byte	0xf6
 932 0557 15050000 		.4byte	0x515
 933 055b 00       		.byte	0
 934 055c 15       		.uleb128 0x15
 935 055d 73313700 		.ascii	"s17\000"
 936 0561 0D       		.byte	0xd
 937 0562 F7       		.byte	0xf7
 938 0563 15050000 		.4byte	0x515
 939 0567 04       		.byte	0x4
 940 0568 15       		.uleb128 0x15
 941 0569 73313800 		.ascii	"s18\000"
 942 056d 0D       		.byte	0xd
 943 056e F8       		.byte	0xf8
 944 056f 15050000 		.4byte	0x515
 945 0573 08       		.byte	0x8
 946 0574 15       		.uleb128 0x15
 947 0575 73313900 		.ascii	"s19\000"
 948 0579 0D       		.byte	0xd
 949 057a F9       		.byte	0xf9
 950 057b 15050000 		.4byte	0x515
 951 057f 0C       		.byte	0xc
 952 0580 15       		.uleb128 0x15
 953 0581 73323000 		.ascii	"s20\000"
 954 0585 0D       		.byte	0xd
 955 0586 FA       		.byte	0xfa
 956 0587 15050000 		.4byte	0x515
 957 058b 10       		.byte	0x10
 958 058c 15       		.uleb128 0x15
 959 058d 73323100 		.ascii	"s21\000"
 960 0591 0D       		.byte	0xd
 961 0592 FB       		.byte	0xfb
 962 0593 15050000 		.4byte	0x515
 963 0597 14       		.byte	0x14
 964 0598 15       		.uleb128 0x15
 965 0599 73323200 		.ascii	"s22\000"
 966 059d 0D       		.byte	0xd
ARM GAS  /var/folders/d2/nstgp4h54kz7g1l847x_b8wc0000gn/T//ccOQyc64.s 			page 18


 967 059e FC       		.byte	0xfc
 968 059f 15050000 		.4byte	0x515
 969 05a3 18       		.byte	0x18
 970 05a4 15       		.uleb128 0x15
 971 05a5 73323300 		.ascii	"s23\000"
 972 05a9 0D       		.byte	0xd
 973 05aa FD       		.byte	0xfd
 974 05ab 15050000 		.4byte	0x515
 975 05af 1C       		.byte	0x1c
 976 05b0 15       		.uleb128 0x15
 977 05b1 73323400 		.ascii	"s24\000"
 978 05b5 0D       		.byte	0xd
 979 05b6 FE       		.byte	0xfe
 980 05b7 15050000 		.4byte	0x515
 981 05bb 20       		.byte	0x20
 982 05bc 15       		.uleb128 0x15
 983 05bd 73323500 		.ascii	"s25\000"
 984 05c1 0D       		.byte	0xd
 985 05c2 FF       		.byte	0xff
 986 05c3 15050000 		.4byte	0x515
 987 05c7 24       		.byte	0x24
 988 05c8 08       		.uleb128 0x8
 989 05c9 73323600 		.ascii	"s26\000"
 990 05cd 0D       		.byte	0xd
 991 05ce 0001     		.2byte	0x100
 992 05d0 15050000 		.4byte	0x515
 993 05d4 28       		.byte	0x28
 994 05d5 08       		.uleb128 0x8
 995 05d6 73323700 		.ascii	"s27\000"
 996 05da 0D       		.byte	0xd
 997 05db 0101     		.2byte	0x101
 998 05dd 15050000 		.4byte	0x515
 999 05e1 2C       		.byte	0x2c
 1000 05e2 08       		.uleb128 0x8
 1001 05e3 73323800 		.ascii	"s28\000"
 1002 05e7 0D       		.byte	0xd
 1003 05e8 0201     		.2byte	0x102
 1004 05ea 15050000 		.4byte	0x515
 1005 05ee 30       		.byte	0x30
 1006 05ef 08       		.uleb128 0x8
 1007 05f0 73323900 		.ascii	"s29\000"
 1008 05f4 0D       		.byte	0xd
 1009 05f5 0301     		.2byte	0x103
 1010 05f7 15050000 		.4byte	0x515
 1011 05fb 34       		.byte	0x34
 1012 05fc 08       		.uleb128 0x8
 1013 05fd 73333000 		.ascii	"s30\000"
 1014 0601 0D       		.byte	0xd
 1015 0602 0401     		.2byte	0x104
 1016 0604 15050000 		.4byte	0x515
 1017 0608 38       		.byte	0x38
 1018 0609 08       		.uleb128 0x8
 1019 060a 73333100 		.ascii	"s31\000"
 1020 060e 0D       		.byte	0xd
 1021 060f 0501     		.2byte	0x105
 1022 0611 15050000 		.4byte	0x515
 1023 0615 3C       		.byte	0x3c
ARM GAS  /var/folders/d2/nstgp4h54kz7g1l847x_b8wc0000gn/T//ccOQyc64.s 			page 19


 1024 0616 08       		.uleb128 0x8
 1025 0617 723400   		.ascii	"r4\000"
 1026 061a 0D       		.byte	0xd
 1027 061b 0701     		.2byte	0x107
 1028 061d 15050000 		.4byte	0x515
 1029 0621 40       		.byte	0x40
 1030 0622 08       		.uleb128 0x8
 1031 0623 723500   		.ascii	"r5\000"
 1032 0626 0D       		.byte	0xd
 1033 0627 0801     		.2byte	0x108
 1034 0629 15050000 		.4byte	0x515
 1035 062d 44       		.byte	0x44
 1036 062e 08       		.uleb128 0x8
 1037 062f 723600   		.ascii	"r6\000"
 1038 0632 0D       		.byte	0xd
 1039 0633 0901     		.2byte	0x109
 1040 0635 15050000 		.4byte	0x515
 1041 0639 48       		.byte	0x48
 1042 063a 08       		.uleb128 0x8
 1043 063b 723700   		.ascii	"r7\000"
 1044 063e 0D       		.byte	0xd
 1045 063f 0A01     		.2byte	0x10a
 1046 0641 15050000 		.4byte	0x515
 1047 0645 4C       		.byte	0x4c
 1048 0646 08       		.uleb128 0x8
 1049 0647 723800   		.ascii	"r8\000"
 1050 064a 0D       		.byte	0xd
 1051 064b 0B01     		.2byte	0x10b
 1052 064d 15050000 		.4byte	0x515
 1053 0651 50       		.byte	0x50
 1054 0652 08       		.uleb128 0x8
 1055 0653 723900   		.ascii	"r9\000"
 1056 0656 0D       		.byte	0xd
 1057 0657 0C01     		.2byte	0x10c
 1058 0659 15050000 		.4byte	0x515
 1059 065d 54       		.byte	0x54
 1060 065e 08       		.uleb128 0x8
 1061 065f 72313000 		.ascii	"r10\000"
 1062 0663 0D       		.byte	0xd
 1063 0664 0D01     		.2byte	0x10d
 1064 0666 15050000 		.4byte	0x515
 1065 066a 58       		.byte	0x58
 1066 066b 08       		.uleb128 0x8
 1067 066c 72313100 		.ascii	"r11\000"
 1068 0670 0D       		.byte	0xd
 1069 0671 0E01     		.2byte	0x10e
 1070 0673 15050000 		.4byte	0x515
 1071 0677 5C       		.byte	0x5c
 1072 0678 08       		.uleb128 0x8
 1073 0679 6C7200   		.ascii	"lr\000"
 1074 067c 0D       		.byte	0xd
 1075 067d 0F01     		.2byte	0x10f
 1076 067f 15050000 		.4byte	0x515
 1077 0683 60       		.byte	0x60
 1078 0684 00       		.byte	0
 1079 0685 0A       		.uleb128 0xa
 1080 0686 04       		.byte	0x4
ARM GAS  /var/folders/d2/nstgp4h54kz7g1l847x_b8wc0000gn/T//ccOQyc64.s 			page 20


 1081 0687 44050000 		.4byte	0x544
 1082 068b 16       		.uleb128 0x16
 1083 068c 10       		.byte	0x10
 1084 068d 0E       		.byte	0xe
 1085 068e 51       		.byte	0x51
 1086 068f C4060000 		.4byte	0x6c4
 1087 0693 07       		.uleb128 0x7
 1088 0694 1A000000 		.4byte	.LASF99
 1089 0698 0E       		.byte	0xe
 1090 0699 55       		.byte	0x55
 1091 069a 69010000 		.4byte	0x169
 1092 069e 00       		.byte	0
 1093 069f 07       		.uleb128 0x7
 1094 06a0 CA010000 		.4byte	.LASF100
 1095 06a4 0E       		.byte	0xe
 1096 06a5 59       		.byte	0x59
 1097 06a6 AD020000 		.4byte	0x2ad
 1098 06aa 04       		.byte	0x4
 1099 06ab 07       		.uleb128 0x7
 1100 06ac 39090000 		.4byte	.LASF101
 1101 06b0 0E       		.byte	0xe
 1102 06b1 5D       		.byte	0x5d
 1103 06b2 8A030000 		.4byte	0x38a
 1104 06b6 08       		.byte	0x8
 1105 06b7 07       		.uleb128 0x7
 1106 06b8 A3080000 		.4byte	.LASF102
 1107 06bc 0E       		.byte	0xe
 1108 06bd 61       		.byte	0x61
 1109 06be B4000000 		.4byte	0xb4
 1110 06c2 0C       		.byte	0xc
 1111 06c3 00       		.byte	0
 1112 06c4 03       		.uleb128 0x3
 1113 06c5 43050000 		.4byte	.LASF103
 1114 06c9 0E       		.byte	0xe
 1115 06ca 62       		.byte	0x62
 1116 06cb 8B060000 		.4byte	0x68b
 1117 06cf 17       		.uleb128 0x17
 1118 06d0 0804     		.2byte	0x408
 1119 06d2 0E       		.byte	0xe
 1120 06d3 67       		.byte	0x67
 1121 06d4 FD060000 		.4byte	0x6fd
 1122 06d8 07       		.uleb128 0x7
 1123 06d9 F1010000 		.4byte	.LASF104
 1124 06dd 0E       		.byte	0xe
 1125 06de 6B       		.byte	0x6b
 1126 06df 37000000 		.4byte	0x37
 1127 06e3 00       		.byte	0
 1128 06e4 07       		.uleb128 0x7
 1129 06e5 3C050000 		.4byte	.LASF105
 1130 06e9 0E       		.byte	0xe
 1131 06ea 6F       		.byte	0x6f
 1132 06eb FD060000 		.4byte	0x6fd
 1133 06ef 04       		.byte	0x4
 1134 06f0 07       		.uleb128 0x7
 1135 06f1 D7050000 		.4byte	.LASF106
 1136 06f5 0E       		.byte	0xe
 1137 06f6 73       		.byte	0x73
ARM GAS  /var/folders/d2/nstgp4h54kz7g1l847x_b8wc0000gn/T//ccOQyc64.s 			page 21


 1138 06f7 03070000 		.4byte	0x703
 1139 06fb 08       		.byte	0x8
 1140 06fc 00       		.byte	0
 1141 06fd 0A       		.uleb128 0xa
 1142 06fe 04       		.byte	0x4
 1143 06ff C4060000 		.4byte	0x6c4
 1144 0703 18       		.uleb128 0x18
 1145 0704 C4060000 		.4byte	0x6c4
 1146 0708 13070000 		.4byte	0x713
 1147 070c 19       		.uleb128 0x19
 1148 070d 37000000 		.4byte	0x37
 1149 0711 3F       		.byte	0x3f
 1150 0712 00       		.byte	0
 1151 0713 03       		.uleb128 0x3
 1152 0714 AC000000 		.4byte	.LASF107
 1153 0718 0E       		.byte	0xe
 1154 0719 74       		.byte	0x74
 1155 071a CF060000 		.4byte	0x6cf
 1156 071e 16       		.uleb128 0x16
 1157 071f 04       		.byte	0x4
 1158 0720 0F       		.byte	0xf
 1159 0721 38       		.byte	0x38
 1160 0722 33070000 		.4byte	0x733
 1161 0726 07       		.uleb128 0x7
 1162 0727 C9070000 		.4byte	.LASF108
 1163 072b 0F       		.byte	0xf
 1164 072c 3C       		.byte	0x3c
 1165 072d F0000000 		.4byte	0xf0
 1166 0731 00       		.byte	0
 1167 0732 00       		.byte	0
 1168 0733 03       		.uleb128 0x3
 1169 0734 FC040000 		.4byte	.LASF109
 1170 0738 0F       		.byte	0xf
 1171 0739 3D       		.byte	0x3d
 1172 073a 1E070000 		.4byte	0x71e
 1173 073e 16       		.uleb128 0x16
 1174 073f 18       		.byte	0x18
 1175 0740 0F       		.byte	0xf
 1176 0741 48       		.byte	0x48
 1177 0742 81070000 		.4byte	0x781
 1178 0746 07       		.uleb128 0x7
 1179 0747 79070000 		.4byte	.LASF110
 1180 074b 0F       		.byte	0xf
 1181 074c 49       		.byte	0x49
 1182 074d F0000000 		.4byte	0xf0
 1183 0751 00       		.byte	0
 1184 0752 07       		.uleb128 0x7
 1185 0753 7C000000 		.4byte	.LASF111
 1186 0757 0F       		.byte	0xf
 1187 0758 4A       		.byte	0x4a
 1188 0759 F0000000 		.4byte	0xf0
 1189 075d 04       		.byte	0x4
 1190 075e 07       		.uleb128 0x7
 1191 075f 3A040000 		.4byte	.LASF112
 1192 0763 0F       		.byte	0xf
 1193 0764 4B       		.byte	0x4b
 1194 0765 F0000000 		.4byte	0xf0
ARM GAS  /var/folders/d2/nstgp4h54kz7g1l847x_b8wc0000gn/T//ccOQyc64.s 			page 22


 1195 0769 08       		.byte	0x8
 1196 076a 15       		.uleb128 0x15
 1197 076b 6E00     		.ascii	"n\000"
 1198 076d 0F       		.byte	0xf
 1199 076e 4C       		.byte	0x4c
 1200 076f 5E010000 		.4byte	0x15e
 1201 0773 0C       		.byte	0xc
 1202 0774 07       		.uleb128 0x7
 1203 0775 C4050000 		.4byte	.LASF113
 1204 0779 0F       		.byte	0xf
 1205 077a 4D       		.byte	0x4d
 1206 077b FB000000 		.4byte	0xfb
 1207 077f 10       		.byte	0x10
 1208 0780 00       		.byte	0
 1209 0781 03       		.uleb128 0x3
 1210 0782 82000000 		.4byte	.LASF114
 1211 0786 0F       		.byte	0xf
 1212 0787 4E       		.byte	0x4e
 1213 0788 3E070000 		.4byte	0x73e
 1214 078c 16       		.uleb128 0x16
 1215 078d 38       		.byte	0x38
 1216 078e 10       		.byte	0x10
 1217 078f 38       		.byte	0x38
 1218 0790 C5070000 		.4byte	0x7c5
 1219 0794 07       		.uleb128 0x7
 1220 0795 F7030000 		.4byte	.LASF115
 1221 0799 10       		.byte	0x10
 1222 079a 39       		.byte	0x39
 1223 079b 5E010000 		.4byte	0x15e
 1224 079f 00       		.byte	0
 1225 07a0 07       		.uleb128 0x7
 1226 07a1 1A060000 		.4byte	.LASF116
 1227 07a5 10       		.byte	0x10
 1228 07a6 3A       		.byte	0x3a
 1229 07a7 5E010000 		.4byte	0x15e
 1230 07ab 04       		.byte	0x4
 1231 07ac 07       		.uleb128 0x7
 1232 07ad 26090000 		.4byte	.LASF117
 1233 07b1 10       		.byte	0x10
 1234 07b2 3B       		.byte	0x3b
 1235 07b3 81070000 		.4byte	0x781
 1236 07b7 08       		.byte	0x8
 1237 07b8 07       		.uleb128 0x7
 1238 07b9 69040000 		.4byte	.LASF118
 1239 07bd 10       		.byte	0x10
 1240 07be 3D       		.byte	0x3d
 1241 07bf 81070000 		.4byte	0x781
 1242 07c3 20       		.byte	0x20
 1243 07c4 00       		.byte	0
 1244 07c5 03       		.uleb128 0x3
 1245 07c6 1B040000 		.4byte	.LASF119
 1246 07ca 10       		.byte	0x10
 1247 07cb 3F       		.byte	0x3f
 1248 07cc 8C070000 		.4byte	0x78c
 1249 07d0 1A       		.uleb128 0x1a
 1250 07d1 04       		.byte	0x4
 1251 07d2 09       		.byte	0x9
ARM GAS  /var/folders/d2/nstgp4h54kz7g1l847x_b8wc0000gn/T//ccOQyc64.s 			page 23


 1252 07d3 FA       		.byte	0xfa
 1253 07d4 2D080000 		.4byte	0x82d
 1254 07d8 1B       		.uleb128 0x1b
 1255 07d9 29000000 		.4byte	.LASF120
 1256 07dd 09       		.byte	0x9
 1257 07de 0101     		.2byte	0x101
 1258 07e0 3D010000 		.4byte	0x13d
 1259 07e4 1B       		.uleb128 0x1b
 1260 07e5 CC000000 		.4byte	.LASF121
 1261 07e9 09       		.byte	0x9
 1262 07ea 0801     		.2byte	0x108
 1263 07ec 3D010000 		.4byte	0x13d
 1264 07f0 1B       		.uleb128 0x1b
 1265 07f1 E8080000 		.4byte	.LASF122
 1266 07f5 09       		.byte	0x9
 1267 07f6 0F01     		.2byte	0x10f
 1268 07f8 8A030000 		.4byte	0x38a
 1269 07fc 1B       		.uleb128 0x1b
 1270 07fd 9E010000 		.4byte	.LASF123
 1271 0801 09       		.byte	0x9
 1272 0802 1601     		.2byte	0x116
 1273 0804 2D080000 		.4byte	0x82d
 1274 0808 1B       		.uleb128 0x1b
 1275 0809 CA030000 		.4byte	.LASF124
 1276 080d 09       		.byte	0x9
 1277 080e 1E01     		.2byte	0x11e
 1278 0810 58080000 		.4byte	0x858
 1279 0814 1B       		.uleb128 0x1b
 1280 0815 5E070000 		.4byte	.LASF125
 1281 0819 09       		.byte	0x9
 1282 081a 2701     		.2byte	0x127
 1283 081c 9B080000 		.4byte	0x89b
 1284 0820 1B       		.uleb128 0x1b
 1285 0821 86060000 		.4byte	.LASF126
 1286 0825 09       		.byte	0x9
 1287 0826 2F01     		.2byte	0x12f
 1288 0828 48010000 		.4byte	0x148
 1289 082c 00       		.byte	0
 1290 082d 0A       		.uleb128 0xa
 1291 082e 04       		.byte	0x4
 1292 082f A2020000 		.4byte	0x2a2
 1293 0833 06       		.uleb128 0x6
 1294 0834 FA060000 		.4byte	.LASF127
 1295 0838 0C       		.byte	0xc
 1296 0839 11       		.byte	0x11
 1297 083a 34       		.byte	0x34
 1298 083b 58080000 		.4byte	0x858
 1299 083f 07       		.uleb128 0x7
 1300 0840 E9010000 		.4byte	.LASF128
 1301 0844 11       		.byte	0x11
 1302 0845 35       		.byte	0x35
 1303 0846 D7020000 		.4byte	0x2d7
 1304 084a 00       		.byte	0
 1305 084b 07       		.uleb128 0x7
 1306 084c FD030000 		.4byte	.LASF129
 1307 0850 11       		.byte	0x11
 1308 0851 37       		.byte	0x37
ARM GAS  /var/folders/d2/nstgp4h54kz7g1l847x_b8wc0000gn/T//ccOQyc64.s 			page 24


 1309 0852 53010000 		.4byte	0x153
 1310 0856 08       		.byte	0x8
 1311 0857 00       		.byte	0
 1312 0858 0A       		.uleb128 0xa
 1313 0859 04       		.byte	0x4
 1314 085a 33080000 		.4byte	0x833
 1315 085e 06       		.uleb128 0x6
 1316 085f 5D080000 		.4byte	.LASF130
 1317 0863 14       		.byte	0x14
 1318 0864 12       		.byte	0x12
 1319 0865 39       		.byte	0x39
 1320 0866 9B080000 		.4byte	0x89b
 1321 086a 07       		.uleb128 0x7
 1322 086b 75010000 		.4byte	.LASF131
 1323 086f 12       		.byte	0x12
 1324 0870 3A       		.byte	0x3a
 1325 0871 D7020000 		.4byte	0x2d7
 1326 0875 00       		.byte	0
 1327 0876 07       		.uleb128 0x7
 1328 0877 31090000 		.4byte	.LASF132
 1329 087b 12       		.byte	0x12
 1330 087c 3C       		.byte	0x3c
 1331 087d AD020000 		.4byte	0x2ad
 1332 0881 08       		.byte	0x8
 1333 0882 07       		.uleb128 0x7
 1334 0883 7E070000 		.4byte	.LASF133
 1335 0887 12       		.byte	0x12
 1336 0888 3E       		.byte	0x3e
 1337 0889 F6090000 		.4byte	0x9f6
 1338 088d 0C       		.byte	0xc
 1339 088e 07       		.uleb128 0x7
 1340 088f 22020000 		.4byte	.LASF134
 1341 0893 12       		.byte	0x12
 1342 0894 41       		.byte	0x41
 1343 0895 53010000 		.4byte	0x153
 1344 0899 10       		.byte	0x10
 1345 089a 00       		.byte	0
 1346 089b 0A       		.uleb128 0xa
 1347 089c 04       		.byte	0x4
 1348 089d 5E080000 		.4byte	0x85e
 1349 08a1 0A       		.uleb128 0xa
 1350 08a2 04       		.byte	0x4
 1351 08a3 B3080000 		.4byte	0x8b3
 1352 08a7 05       		.uleb128 0x5
 1353 08a8 A1080000 		.4byte	0x8a1
 1354 08ac 04       		.uleb128 0x4
 1355 08ad 01       		.byte	0x1
 1356 08ae 08       		.byte	0x8
 1357 08af 59070000 		.4byte	.LASF135
 1358 08b3 0F       		.uleb128 0xf
 1359 08b4 AC080000 		.4byte	0x8ac
 1360 08b8 0A       		.uleb128 0xa
 1361 08b9 04       		.byte	0x4
 1362 08ba 20050000 		.4byte	0x520
 1363 08be 0A       		.uleb128 0xa
 1364 08bf 04       		.byte	0x4
 1365 08c0 91030000 		.4byte	0x391
ARM GAS  /var/folders/d2/nstgp4h54kz7g1l847x_b8wc0000gn/T//ccOQyc64.s 			page 25


 1366 08c4 18       		.uleb128 0x18
 1367 08c5 20050000 		.4byte	0x520
 1368 08c9 D4080000 		.4byte	0x8d4
 1369 08cd 19       		.uleb128 0x19
 1370 08ce 37000000 		.4byte	0x37
 1371 08d2 30       		.byte	0x30
 1372 08d3 00       		.byte	0
 1373 08d4 1C       		.uleb128 0x1c
 1374 08d5 636800   		.ascii	"ch\000"
 1375 08d8 09       		.byte	0x9
 1376 08d9 0902     		.2byte	0x209
 1377 08db 86040000 		.4byte	0x486
 1378 08df 16       		.uleb128 0x16
 1379 08e0 16       		.byte	0x16
 1380 08e1 13       		.byte	0x13
 1381 08e2 34       		.byte	0x34
 1382 08e3 C0090000 		.4byte	0x9c0
 1383 08e7 07       		.uleb128 0x7
 1384 08e8 43090000 		.4byte	.LASF136
 1385 08ec 13       		.byte	0x13
 1386 08ed 35       		.byte	0x35
 1387 08ee C0090000 		.4byte	0x9c0
 1388 08f2 00       		.byte	0
 1389 08f3 07       		.uleb128 0x7
 1390 08f4 C4040000 		.4byte	.LASF137
 1391 08f8 13       		.byte	0x13
 1392 08f9 36       		.byte	0x36
 1393 08fa B4000000 		.4byte	0xb4
 1394 08fe 04       		.byte	0x4
 1395 08ff 07       		.uleb128 0x7
 1396 0900 3F070000 		.4byte	.LASF138
 1397 0904 13       		.byte	0x13
 1398 0905 37       		.byte	0x37
 1399 0906 B4000000 		.4byte	0xb4
 1400 090a 05       		.byte	0x5
 1401 090b 07       		.uleb128 0x7
 1402 090c 1B090000 		.4byte	.LASF139
 1403 0910 13       		.byte	0x13
 1404 0911 38       		.byte	0x38
 1405 0912 BF000000 		.4byte	0xbf
 1406 0916 06       		.byte	0x6
 1407 0917 07       		.uleb128 0x7
 1408 0918 E1050000 		.4byte	.LASF140
 1409 091c 13       		.byte	0x13
 1410 091d 39       		.byte	0x39
 1411 091e B4000000 		.4byte	0xb4
 1412 0922 08       		.byte	0x8
 1413 0923 07       		.uleb128 0x7
 1414 0924 30050000 		.4byte	.LASF141
 1415 0928 13       		.byte	0x13
 1416 0929 3A       		.byte	0x3a
 1417 092a B4000000 		.4byte	0xb4
 1418 092e 09       		.byte	0x9
 1419 092f 07       		.uleb128 0x7
 1420 0930 BE000000 		.4byte	.LASF142
 1421 0934 13       		.byte	0x13
 1422 0935 3B       		.byte	0x3b
ARM GAS  /var/folders/d2/nstgp4h54kz7g1l847x_b8wc0000gn/T//ccOQyc64.s 			page 26


 1423 0936 B4000000 		.4byte	0xb4
 1424 093a 0A       		.byte	0xa
 1425 093b 07       		.uleb128 0x7
 1426 093c 1B070000 		.4byte	.LASF143
 1427 0940 13       		.byte	0x13
 1428 0941 3C       		.byte	0x3c
 1429 0942 B4000000 		.4byte	0xb4
 1430 0946 0B       		.byte	0xb
 1431 0947 07       		.uleb128 0x7
 1432 0948 52040000 		.4byte	.LASF144
 1433 094c 13       		.byte	0x13
 1434 094d 3D       		.byte	0x3d
 1435 094e B4000000 		.4byte	0xb4
 1436 0952 0C       		.byte	0xc
 1437 0953 07       		.uleb128 0x7
 1438 0954 EF080000 		.4byte	.LASF145
 1439 0958 13       		.byte	0x13
 1440 0959 3E       		.byte	0x3e
 1441 095a B4000000 		.4byte	0xb4
 1442 095e 0D       		.byte	0xd
 1443 095f 07       		.uleb128 0x7
 1444 0960 00000000 		.4byte	.LASF146
 1445 0964 13       		.byte	0x13
 1446 0965 3F       		.byte	0x3f
 1447 0966 B4000000 		.4byte	0xb4
 1448 096a 0E       		.byte	0xe
 1449 096b 07       		.uleb128 0x7
 1450 096c 52050000 		.4byte	.LASF147
 1451 0970 13       		.byte	0x13
 1452 0971 40       		.byte	0x40
 1453 0972 B4000000 		.4byte	0xb4
 1454 0976 0F       		.byte	0xf
 1455 0977 07       		.uleb128 0x7
 1456 0978 50010000 		.4byte	.LASF148
 1457 097c 13       		.byte	0x13
 1458 097d 41       		.byte	0x41
 1459 097e B4000000 		.4byte	0xb4
 1460 0982 10       		.byte	0x10
 1461 0983 07       		.uleb128 0x7
 1462 0984 18010000 		.4byte	.LASF149
 1463 0988 13       		.byte	0x13
 1464 0989 43       		.byte	0x43
 1465 098a B4000000 		.4byte	0xb4
 1466 098e 11       		.byte	0x11
 1467 098f 07       		.uleb128 0x7
 1468 0990 60010000 		.4byte	.LASF150
 1469 0994 13       		.byte	0x13
 1470 0995 44       		.byte	0x44
 1471 0996 B4000000 		.4byte	0xb4
 1472 099a 12       		.byte	0x12
 1473 099b 07       		.uleb128 0x7
 1474 099c CC040000 		.4byte	.LASF151
 1475 09a0 13       		.byte	0x13
 1476 09a1 45       		.byte	0x45
 1477 09a2 B4000000 		.4byte	0xb4
 1478 09a6 13       		.byte	0x13
 1479 09a7 07       		.uleb128 0x7
ARM GAS  /var/folders/d2/nstgp4h54kz7g1l847x_b8wc0000gn/T//ccOQyc64.s 			page 27


 1480 09a8 9C060000 		.4byte	.LASF152
 1481 09ac 13       		.byte	0x13
 1482 09ad 46       		.byte	0x46
 1483 09ae B4000000 		.4byte	0xb4
 1484 09b2 14       		.byte	0x14
 1485 09b3 07       		.uleb128 0x7
 1486 09b4 5D040000 		.4byte	.LASF153
 1487 09b8 13       		.byte	0x13
 1488 09b9 48       		.byte	0x48
 1489 09ba B4000000 		.4byte	0xb4
 1490 09be 15       		.byte	0x15
 1491 09bf 00       		.byte	0
 1492 09c0 18       		.uleb128 0x18
 1493 09c1 AC080000 		.4byte	0x8ac
 1494 09c5 D0090000 		.4byte	0x9d0
 1495 09c9 19       		.uleb128 0x19
 1496 09ca 37000000 		.4byte	0x37
 1497 09ce 03       		.byte	0x3
 1498 09cf 00       		.byte	0
 1499 09d0 03       		.uleb128 0x3
 1500 09d1 D0010000 		.4byte	.LASF154
 1501 09d5 13       		.byte	0x13
 1502 09d6 49       		.byte	0x49
 1503 09d7 DF080000 		.4byte	0x8df
 1504 09db 0F       		.uleb128 0xf
 1505 09dc D0090000 		.4byte	0x9d0
 1506 09e0 14       		.uleb128 0x14
 1507 09e1 E5030000 		.4byte	.LASF155
 1508 09e5 13       		.byte	0x13
 1509 09e6 6E       		.byte	0x6e
 1510 09e7 DB090000 		.4byte	0x9db
 1511 09eb 03       		.uleb128 0x3
 1512 09ec 2E010000 		.4byte	.LASF156
 1513 09f0 12       		.byte	0x12
 1514 09f1 34       		.byte	0x34
 1515 09f2 5E080000 		.4byte	0x85e
 1516 09f6 0A       		.uleb128 0xa
 1517 09f7 04       		.byte	0x4
 1518 09f8 EB090000 		.4byte	0x9eb
 1519 09fc 06       		.uleb128 0x6
 1520 09fd 47080000 		.4byte	.LASF157
 1521 0a01 10       		.byte	0x10
 1522 0a02 14       		.byte	0x14
 1523 0a03 3B       		.byte	0x3b
 1524 0a04 390A0000 		.4byte	0xa39
 1525 0a08 07       		.uleb128 0x7
 1526 0a09 03040000 		.4byte	.LASF158
 1527 0a0d 14       		.byte	0x14
 1528 0a0e 3C       		.byte	0x3c
 1529 0a0f A1080000 		.4byte	0x8a1
 1530 0a13 00       		.byte	0
 1531 0a14 07       		.uleb128 0x7
 1532 0a15 84050000 		.4byte	.LASF159
 1533 0a19 14       		.byte	0x14
 1534 0a1a 3D       		.byte	0x3d
 1535 0a1b 3F0A0000 		.4byte	0xa3f
 1536 0a1f 04       		.byte	0x4
ARM GAS  /var/folders/d2/nstgp4h54kz7g1l847x_b8wc0000gn/T//ccOQyc64.s 			page 28


 1537 0a20 07       		.uleb128 0x7
 1538 0a21 25010000 		.4byte	.LASF160
 1539 0a25 14       		.byte	0x14
 1540 0a26 3E       		.byte	0x3e
 1541 0a27 3F0A0000 		.4byte	0xa3f
 1542 0a2b 08       		.byte	0x8
 1543 0a2c 07       		.uleb128 0x7
 1544 0a2d 03060000 		.4byte	.LASF161
 1545 0a31 14       		.byte	0x14
 1546 0a32 3F       		.byte	0x3f
 1547 0a33 3F0A0000 		.4byte	0xa3f
 1548 0a37 0C       		.byte	0xc
 1549 0a38 00       		.byte	0
 1550 0a39 0F       		.uleb128 0xf
 1551 0a3a FC090000 		.4byte	0x9fc
 1552 0a3e 1D       		.uleb128 0x1d
 1553 0a3f 0A       		.uleb128 0xa
 1554 0a40 04       		.byte	0x4
 1555 0a41 3E0A0000 		.4byte	0xa3e
 1556 0a45 17       		.uleb128 0x17
 1557 0a46 D809     		.2byte	0x9d8
 1558 0a48 14       		.byte	0x14
 1559 0a49 44       		.byte	0x44
 1560 0a4a 8A0A0000 		.4byte	0xa8a
 1561 0a4e 15       		.uleb128 0x15
 1562 0a4f 543000   		.ascii	"T0\000"
 1563 0a52 14       		.byte	0x14
 1564 0a53 45       		.byte	0x45
 1565 0a54 8A0A0000 		.4byte	0xa8a
 1566 0a58 00       		.byte	0
 1567 0a59 1E       		.uleb128 0x1e
 1568 0a5a 543100   		.ascii	"T1\000"
 1569 0a5d 14       		.byte	0x14
 1570 0a5e 46       		.byte	0x46
 1571 0a5f 8A0A0000 		.4byte	0xa8a
 1572 0a63 F801     		.2byte	0x1f8
 1573 0a65 1E       		.uleb128 0x1e
 1574 0a66 543200   		.ascii	"T2\000"
 1575 0a69 14       		.byte	0x14
 1576 0a6a 47       		.byte	0x47
 1577 0a6b 8A0A0000 		.4byte	0xa8a
 1578 0a6f F003     		.2byte	0x3f0
 1579 0a71 1E       		.uleb128 0x1e
 1580 0a72 543300   		.ascii	"T3\000"
 1581 0a75 14       		.byte	0x14
 1582 0a76 48       		.byte	0x48
 1583 0a77 8A0A0000 		.4byte	0xa8a
 1584 0a7b E805     		.2byte	0x5e8
 1585 0a7d 1E       		.uleb128 0x1e
 1586 0a7e 543400   		.ascii	"T4\000"
 1587 0a81 14       		.byte	0x14
 1588 0a82 49       		.byte	0x49
 1589 0a83 8A0A0000 		.4byte	0xa8a
 1590 0a87 E007     		.2byte	0x7e0
 1591 0a89 00       		.byte	0
 1592 0a8a 18       		.uleb128 0x18
 1593 0a8b 20050000 		.4byte	0x520
ARM GAS  /var/folders/d2/nstgp4h54kz7g1l847x_b8wc0000gn/T//ccOQyc64.s 			page 29


 1594 0a8f 9A0A0000 		.4byte	0xa9a
 1595 0a93 19       		.uleb128 0x19
 1596 0a94 37000000 		.4byte	0x37
 1597 0a98 3E       		.byte	0x3e
 1598 0a99 00       		.byte	0
 1599 0a9a 1F       		.uleb128 0x1f
 1600 0a9b 50080000 		.4byte	.LASF183
 1601 0a9f D809     		.2byte	0x9d8
 1602 0aa1 14       		.byte	0x14
 1603 0aa2 43       		.byte	0x43
 1604 0aa3 BD0A0000 		.4byte	0xabd
 1605 0aa7 20       		.uleb128 0x20
 1606 0aa8 776100   		.ascii	"wa\000"
 1607 0aab 14       		.byte	0x14
 1608 0aac 4A       		.byte	0x4a
 1609 0aad 450A0000 		.4byte	0xa45
 1610 0ab1 21       		.uleb128 0x21
 1611 0ab2 DA010000 		.4byte	.LASF162
 1612 0ab6 14       		.byte	0x14
 1613 0ab7 4B       		.byte	0x4b
 1614 0ab8 BD0A0000 		.4byte	0xabd
 1615 0abc 00       		.byte	0
 1616 0abd 18       		.uleb128 0x18
 1617 0abe B4000000 		.4byte	0xb4
 1618 0ac2 CE0A0000 		.4byte	0xace
 1619 0ac6 22       		.uleb128 0x22
 1620 0ac7 37000000 		.4byte	0x37
 1621 0acb D709     		.2byte	0x9d7
 1622 0acd 00       		.byte	0
 1623 0ace 14       		.uleb128 0x14
 1624 0acf B8070000 		.4byte	.LASF163
 1625 0ad3 14       		.byte	0x14
 1626 0ad4 4F       		.byte	0x4f
 1627 0ad5 D90A0000 		.4byte	0xad9
 1628 0ad9 04       		.uleb128 0x4
 1629 0ada 01       		.byte	0x1
 1630 0adb 02       		.byte	0x2
 1631 0adc 23060000 		.4byte	.LASF164
 1632 0ae0 18       		.uleb128 0x18
 1633 0ae1 AD020000 		.4byte	0x2ad
 1634 0ae5 F00A0000 		.4byte	0xaf0
 1635 0ae9 19       		.uleb128 0x19
 1636 0aea 37000000 		.4byte	0x37
 1637 0aee 04       		.byte	0x4
 1638 0aef 00       		.byte	0
 1639 0af0 14       		.uleb128 0x14
 1640 0af1 65060000 		.4byte	.LASF165
 1641 0af5 14       		.byte	0x14
 1642 0af6 A7       		.byte	0xa7
 1643 0af7 E00A0000 		.4byte	0xae0
 1644 0afb 14       		.uleb128 0x14
 1645 0afc E0000000 		.4byte	.LASF166
 1646 0b00 14       		.byte	0x14
 1647 0b01 A8       		.byte	0xa8
 1648 0b02 9A0A0000 		.4byte	0xa9a
 1649 0b06 18       		.uleb128 0x18
 1650 0b07 8C030000 		.4byte	0x38c
ARM GAS  /var/folders/d2/nstgp4h54kz7g1l847x_b8wc0000gn/T//ccOQyc64.s 			page 30


 1651 0b0b 110B0000 		.4byte	0xb11
 1652 0b0f 23       		.uleb128 0x23
 1653 0b10 00       		.byte	0
 1654 0b11 0F       		.uleb128 0xf
 1655 0b12 060B0000 		.4byte	0xb06
 1656 0b16 24       		.uleb128 0x24
 1657 0b17 776100   		.ascii	"wa\000"
 1658 0b1a 14       		.byte	0x14
 1659 0b1b A9       		.byte	0xa9
 1660 0b1c 110B0000 		.4byte	0xb11
 1661 0b20 14       		.uleb128 0x14
 1662 0b21 6D060000 		.4byte	.LASF167
 1663 0b25 14       		.byte	0x14
 1664 0b26 AA       		.byte	0xaa
 1665 0b27 D90A0000 		.4byte	0xad9
 1666 0b2b 25       		.uleb128 0x25
 1667 0b2c 7D060000 		.4byte	.LASF168
 1668 0b30 01       		.byte	0x1
 1669 0b31 5A       		.byte	0x5a
 1670 0b32 390A0000 		.4byte	0xa39
 1671 0b36 05       		.uleb128 0x5
 1672 0b37 03       		.byte	0x3
 1673 0b38 00000000 		.4byte	testmsg1
 1674 0b3c 18       		.uleb128 0x18
 1675 0b3d 570B0000 		.4byte	0xb57
 1676 0b41 4C0B0000 		.4byte	0xb4c
 1677 0b45 19       		.uleb128 0x19
 1678 0b46 37000000 		.4byte	0x37
 1679 0b4a 01       		.byte	0x1
 1680 0b4b 00       		.byte	0
 1681 0b4c 0F       		.uleb128 0xf
 1682 0b4d 3C0B0000 		.4byte	0xb3c
 1683 0b51 0A       		.uleb128 0xa
 1684 0b52 04       		.byte	0x4
 1685 0b53 390A0000 		.4byte	0xa39
 1686 0b57 0F       		.uleb128 0xf
 1687 0b58 510B0000 		.4byte	0xb51
 1688 0b5c 25       		.uleb128 0x25
 1689 0b5d E9040000 		.4byte	.LASF169
 1690 0b61 01       		.byte	0x1
 1691 0b62 66       		.byte	0x66
 1692 0b63 4C0B0000 		.4byte	0xb4c
 1693 0b67 05       		.uleb128 0x5
 1694 0b68 03       		.byte	0x3
 1695 0b69 00000000 		.4byte	patternmsg
 1696 0b6d 26       		.uleb128 0x26
 1697 0b6e C8080000 		.4byte	.LASF170
 1698 0b72 01       		.byte	0x1
 1699 0b73 42       		.byte	0x42
 1700 0b74 00000000 		.4byte	.LFB220
 1701 0b78 90000000 		.4byte	.LFE220-.LFB220
 1702 0b7c 01       		.uleb128 0x1
 1703 0b7d 9C       		.byte	0x9c
 1704 0b7e EC0C0000 		.4byte	0xcec
 1705 0b82 27       		.uleb128 0x27
 1706 0b83 747000   		.ascii	"tp\000"
 1707 0b86 01       		.byte	0x1
ARM GAS  /var/folders/d2/nstgp4h54kz7g1l847x_b8wc0000gn/T//ccOQyc64.s 			page 31


 1708 0b87 43       		.byte	0x43
 1709 0b88 AD020000 		.4byte	0x2ad
 1710 0b8c 00000000 		.4byte	.LLST0
 1711 0b90 28       		.uleb128 0x28
 1712 0b91 6D736700 		.ascii	"msg\000"
 1713 0b95 01       		.byte	0x1
 1714 0b96 44       		.byte	0x44
 1715 0b97 3D010000 		.4byte	0x13d
 1716 0b9b 29       		.uleb128 0x29
 1717 0b9c 820D0000 		.4byte	0xd82
 1718 0ba0 02000000 		.4byte	.LBB16
 1719 0ba4 00000000 		.4byte	.Ldebug_ranges0+0
 1720 0ba8 01       		.byte	0x1
 1721 0ba9 49       		.byte	0x49
 1722 0baa BE0B0000 		.4byte	0xbbe
 1723 0bae 2A       		.uleb128 0x2a
 1724 0baf 8E0D0000 		.4byte	0xd8e
 1725 0bb3 02000000 		.4byte	.LBB18
 1726 0bb7 18000000 		.4byte	.Ldebug_ranges0+0x18
 1727 0bbb 02       		.byte	0x2
 1728 0bbc BD       		.byte	0xbd
 1729 0bbd 00       		.byte	0
 1730 0bbe 2B       		.uleb128 0x2b
 1731 0bbf 670D0000 		.4byte	0xd67
 1732 0bc3 2A000000 		.4byte	.LBB24
 1733 0bc7 02000000 		.4byte	.LBE24-.LBB24
 1734 0bcb 01       		.byte	0x1
 1735 0bcc 4C       		.byte	0x4c
 1736 0bcd DB0B0000 		.4byte	0xbdb
 1737 0bd1 2C       		.uleb128 0x2c
 1738 0bd2 770D0000 		.4byte	0xd77
 1739 0bd6 29000000 		.4byte	.LLST1
 1740 0bda 00       		.byte	0
 1741 0bdb 2B       		.uleb128 0x2b
 1742 0bdc 670D0000 		.4byte	0xd67
 1743 0be0 3C000000 		.4byte	.LBB26
 1744 0be4 02000000 		.4byte	.LBE26-.LBB26
 1745 0be8 01       		.byte	0x1
 1746 0be9 50       		.byte	0x50
 1747 0bea F80B0000 		.4byte	0xbf8
 1748 0bee 2C       		.uleb128 0x2c
 1749 0bef 770D0000 		.4byte	0xd77
 1750 0bf3 3C000000 		.4byte	.LLST2
 1751 0bf7 00       		.byte	0
 1752 0bf8 2B       		.uleb128 0x2b
 1753 0bf9 670D0000 		.4byte	0xd67
 1754 0bfd 4E000000 		.4byte	.LBB28
 1755 0c01 02000000 		.4byte	.LBE28-.LBB28
 1756 0c05 01       		.byte	0x1
 1757 0c06 54       		.byte	0x54
 1758 0c07 150C0000 		.4byte	0xc15
 1759 0c0b 2C       		.uleb128 0x2c
 1760 0c0c 770D0000 		.4byte	0xd77
 1761 0c10 4F000000 		.4byte	.LLST3
 1762 0c14 00       		.byte	0
 1763 0c15 2D       		.uleb128 0x2d
 1764 0c16 22000000 		.4byte	.LVL0
ARM GAS  /var/folders/d2/nstgp4h54kz7g1l847x_b8wc0000gn/T//ccOQyc64.s 			page 32


 1765 0c1a 9A0D0000 		.4byte	0xd9a
 1766 0c1e 330C0000 		.4byte	0xc33
 1767 0c22 2E       		.uleb128 0x2e
 1768 0c23 01       		.uleb128 0x1
 1769 0c24 51       		.byte	0x51
 1770 0c25 03       		.uleb128 0x3
 1771 0c26 0A       		.byte	0xa
 1772 0c27 F801     		.2byte	0x1f8
 1773 0c29 2E       		.uleb128 0x2e
 1774 0c2a 01       		.uleb128 0x1
 1775 0c2b 53       		.byte	0x53
 1776 0c2c 05       		.uleb128 0x5
 1777 0c2d 03       		.byte	0x3
 1778 0c2e 00000000 		.4byte	thread
 1779 0c32 00       		.byte	0
 1780 0c33 2F       		.uleb128 0x2f
 1781 0c34 2A000000 		.4byte	.LVL1
 1782 0c38 A50D0000 		.4byte	0xda5
 1783 0c3c 2D       		.uleb128 0x2d
 1784 0c3d 32000000 		.4byte	.LVL3
 1785 0c41 B00D0000 		.4byte	0xdb0
 1786 0c45 500C0000 		.4byte	0xc50
 1787 0c49 2E       		.uleb128 0x2e
 1788 0c4a 01       		.uleb128 0x1
 1789 0c4b 51       		.byte	0x51
 1790 0c4c 02       		.uleb128 0x2
 1791 0c4d 75       		.byte	0x75
 1792 0c4e 00       		.sleb128 0
 1793 0c4f 00       		.byte	0
 1794 0c50 2D       		.uleb128 0x2d
 1795 0c51 38000000 		.4byte	.LVL4
 1796 0c55 BB0D0000 		.4byte	0xdbb
 1797 0c59 640C0000 		.4byte	0xc64
 1798 0c5d 2E       		.uleb128 0x2e
 1799 0c5e 01       		.uleb128 0x1
 1800 0c5f 50       		.byte	0x50
 1801 0c60 02       		.uleb128 0x2
 1802 0c61 75       		.byte	0x75
 1803 0c62 00       		.sleb128 0
 1804 0c63 00       		.byte	0
 1805 0c64 2F       		.uleb128 0x2f
 1806 0c65 3C000000 		.4byte	.LVL5
 1807 0c69 A50D0000 		.4byte	0xda5
 1808 0c6d 2D       		.uleb128 0x2d
 1809 0c6e 44000000 		.4byte	.LVL7
 1810 0c72 B00D0000 		.4byte	0xdb0
 1811 0c76 810C0000 		.4byte	0xc81
 1812 0c7a 2E       		.uleb128 0x2e
 1813 0c7b 01       		.uleb128 0x1
 1814 0c7c 51       		.byte	0x51
 1815 0c7d 02       		.uleb128 0x2
 1816 0c7e 75       		.byte	0x75
 1817 0c7f 00       		.sleb128 0
 1818 0c80 00       		.byte	0
 1819 0c81 2D       		.uleb128 0x2d
 1820 0c82 4A000000 		.4byte	.LVL8
 1821 0c86 BB0D0000 		.4byte	0xdbb
ARM GAS  /var/folders/d2/nstgp4h54kz7g1l847x_b8wc0000gn/T//ccOQyc64.s 			page 33


 1822 0c8a 950C0000 		.4byte	0xc95
 1823 0c8e 2E       		.uleb128 0x2e
 1824 0c8f 01       		.uleb128 0x1
 1825 0c90 50       		.byte	0x50
 1826 0c91 02       		.uleb128 0x2
 1827 0c92 75       		.byte	0x75
 1828 0c93 00       		.sleb128 0
 1829 0c94 00       		.byte	0
 1830 0c95 2F       		.uleb128 0x2f
 1831 0c96 4E000000 		.4byte	.LVL9
 1832 0c9a A50D0000 		.4byte	0xda5
 1833 0c9e 2D       		.uleb128 0x2d
 1834 0c9f 56000000 		.4byte	.LVL11
 1835 0ca3 B00D0000 		.4byte	0xdb0
 1836 0ca7 B20C0000 		.4byte	0xcb2
 1837 0cab 2E       		.uleb128 0x2e
 1838 0cac 01       		.uleb128 0x1
 1839 0cad 51       		.byte	0x51
 1840 0cae 02       		.uleb128 0x2
 1841 0caf 75       		.byte	0x75
 1842 0cb0 00       		.sleb128 0
 1843 0cb1 00       		.byte	0
 1844 0cb2 2D       		.uleb128 0x2d
 1845 0cb3 5C000000 		.4byte	.LVL12
 1846 0cb7 BB0D0000 		.4byte	0xdbb
 1847 0cbb C60C0000 		.4byte	0xcc6
 1848 0cbf 2E       		.uleb128 0x2e
 1849 0cc0 01       		.uleb128 0x1
 1850 0cc1 50       		.byte	0x50
 1851 0cc2 02       		.uleb128 0x2
 1852 0cc3 75       		.byte	0x75
 1853 0cc4 00       		.sleb128 0
 1854 0cc5 00       		.byte	0
 1855 0cc6 30       		.uleb128 0x30
 1856 0cc7 72000000 		.4byte	.LVL13
 1857 0ccb C60D0000 		.4byte	0xdc6
 1858 0ccf E20C0000 		.4byte	0xce2
 1859 0cd3 2E       		.uleb128 0x2e
 1860 0cd4 01       		.uleb128 0x1
 1861 0cd5 50       		.byte	0x50
 1862 0cd6 01       		.uleb128 0x1
 1863 0cd7 31       		.byte	0x31
 1864 0cd8 2E       		.uleb128 0x2e
 1865 0cd9 01       		.uleb128 0x1
 1866 0cda 51       		.byte	0x51
 1867 0cdb 05       		.uleb128 0x5
 1868 0cdc 03       		.byte	0x3
 1869 0cdd 00000000 		.4byte	.LC0
 1870 0ce1 00       		.byte	0
 1871 0ce2 2F       		.uleb128 0x2f
 1872 0ce3 76000000 		.4byte	.LVL14
 1873 0ce7 D10D0000 		.4byte	0xdd1
 1874 0ceb 00       		.byte	0
 1875 0cec 26       		.uleb128 0x26
 1876 0ced 13060000 		.4byte	.LASF171
 1877 0cf1 01       		.byte	0x1
 1878 0cf2 3B       		.byte	0x3b
ARM GAS  /var/folders/d2/nstgp4h54kz7g1l847x_b8wc0000gn/T//ccOQyc64.s 			page 34


 1879 0cf3 00000000 		.4byte	.LFB219
 1880 0cf7 38000000 		.4byte	.LFE219-.LFB219
 1881 0cfb 01       		.uleb128 0x1
 1882 0cfc 9C       		.byte	0x9c
 1883 0cfd 670D0000 		.4byte	0xd67
 1884 0d01 31       		.uleb128 0x31
 1885 0d02 7000     		.ascii	"p\000"
 1886 0d04 01       		.byte	0x1
 1887 0d05 3B       		.byte	0x3b
 1888 0d06 8A030000 		.4byte	0x38a
 1889 0d0a 62000000 		.4byte	.LLST4
 1890 0d0e 2D       		.uleb128 0x2d
 1891 0d0f 12000000 		.4byte	.LVL16
 1892 0d13 DA0D0000 		.4byte	0xdda
 1893 0d17 280D0000 		.4byte	0xd28
 1894 0d1b 2E       		.uleb128 0x2e
 1895 0d1c 01       		.uleb128 0x1
 1896 0d1d 50       		.byte	0x50
 1897 0d1e 02       		.uleb128 0x2
 1898 0d1f 75       		.byte	0x75
 1899 0d20 00       		.sleb128 0
 1900 0d21 2E       		.uleb128 0x2e
 1901 0d22 01       		.uleb128 0x1
 1902 0d23 51       		.byte	0x51
 1903 0d24 02       		.uleb128 0x2
 1904 0d25 08       		.byte	0x8
 1905 0d26 41       		.byte	0x41
 1906 0d27 00       		.byte	0
 1907 0d28 2D       		.uleb128 0x2d
 1908 0d29 1A000000 		.4byte	.LVL17
 1909 0d2d DA0D0000 		.4byte	0xdda
 1910 0d31 420D0000 		.4byte	0xd42
 1911 0d35 2E       		.uleb128 0x2e
 1912 0d36 01       		.uleb128 0x1
 1913 0d37 50       		.byte	0x50
 1914 0d38 02       		.uleb128 0x2
 1915 0d39 75       		.byte	0x75
 1916 0d3a 00       		.sleb128 0
 1917 0d3b 2E       		.uleb128 0x2e
 1918 0d3c 01       		.uleb128 0x1
 1919 0d3d 51       		.byte	0x51
 1920 0d3e 02       		.uleb128 0x2
 1921 0d3f 08       		.byte	0x8
 1922 0d40 42       		.byte	0x42
 1923 0d41 00       		.byte	0
 1924 0d42 30       		.uleb128 0x30
 1925 0d43 30000000 		.4byte	.LVL19
 1926 0d47 DA0D0000 		.4byte	0xdda
 1927 0d4b 5D0D0000 		.4byte	0xd5d
 1928 0d4f 2E       		.uleb128 0x2e
 1929 0d50 01       		.uleb128 0x1
 1930 0d51 50       		.byte	0x50
 1931 0d52 03       		.uleb128 0x3
 1932 0d53 F3       		.byte	0xf3
 1933 0d54 01       		.uleb128 0x1
 1934 0d55 50       		.byte	0x50
 1935 0d56 2E       		.uleb128 0x2e
ARM GAS  /var/folders/d2/nstgp4h54kz7g1l847x_b8wc0000gn/T//ccOQyc64.s 			page 35


 1936 0d57 01       		.uleb128 0x1
 1937 0d58 51       		.byte	0x51
 1938 0d59 02       		.uleb128 0x2
 1939 0d5a 08       		.byte	0x8
 1940 0d5b 43       		.byte	0x43
 1941 0d5c 00       		.byte	0
 1942 0d5d 2F       		.uleb128 0x2f
 1943 0d5e 34000000 		.4byte	.LVL20
 1944 0d62 D10D0000 		.4byte	0xdd1
 1945 0d66 00       		.byte	0
 1946 0d67 32       		.uleb128 0x32
 1947 0d68 EE030000 		.4byte	.LASF184
 1948 0d6c 03       		.byte	0x3
 1949 0d6d 60       		.byte	0x60
 1950 0d6e 3D010000 		.4byte	0x13d
 1951 0d72 03       		.byte	0x3
 1952 0d73 820D0000 		.4byte	0xd82
 1953 0d77 33       		.uleb128 0x33
 1954 0d78 747000   		.ascii	"tp\000"
 1955 0d7b 03       		.byte	0x3
 1956 0d7c 60       		.byte	0x60
 1957 0d7d AD020000 		.4byte	0x2ad
 1958 0d81 00       		.byte	0
 1959 0d82 34       		.uleb128 0x34
 1960 0d83 72050000 		.4byte	.LASF172
 1961 0d87 02       		.byte	0x2
 1962 0d88 BB       		.byte	0xbb
 1963 0d89 32010000 		.4byte	0x132
 1964 0d8d 03       		.byte	0x3
 1965 0d8e 34       		.uleb128 0x34
 1966 0d8f B2080000 		.4byte	.LASF173
 1967 0d93 02       		.byte	0x2
 1968 0d94 AE       		.byte	0xae
 1969 0d95 AD020000 		.4byte	0x2ad
 1970 0d99 03       		.byte	0x3
 1971 0d9a 35       		.uleb128 0x35
 1972 0d9b A3040000 		.4byte	.LASF174
 1973 0d9f A3040000 		.4byte	.LASF174
 1974 0da3 02       		.byte	0x2
 1975 0da4 89       		.byte	0x89
 1976 0da5 35       		.uleb128 0x35
 1977 0da6 3D080000 		.4byte	.LASF175
 1978 0daa 3D080000 		.4byte	.LASF175
 1979 0dae 03       		.byte	0x3
 1980 0daf 3D       		.byte	0x3d
 1981 0db0 35       		.uleb128 0x35
 1982 0db1 DC060000 		.4byte	.LASF176
 1983 0db5 DC060000 		.4byte	.LASF176
 1984 0db9 03       		.byte	0x3
 1985 0dba 3E       		.byte	0x3e
 1986 0dbb 35       		.uleb128 0x35
 1987 0dbc 7D010000 		.4byte	.LASF177
 1988 0dc0 7D010000 		.4byte	.LASF177
 1989 0dc4 14       		.byte	0x14
 1990 0dc5 58       		.byte	0x58
 1991 0dc6 35       		.uleb128 0x35
 1992 0dc7 8A050000 		.4byte	.LASF178
ARM GAS  /var/folders/d2/nstgp4h54kz7g1l847x_b8wc0000gn/T//ccOQyc64.s 			page 36


 1993 0dcb 8A050000 		.4byte	.LASF178
 1994 0dcf 14       		.byte	0x14
 1995 0dd0 5B       		.byte	0x5b
 1996 0dd1 36       		.uleb128 0x36
 1997 0dd2 E9060000 		.4byte	.LASF185
 1998 0dd6 E9060000 		.4byte	.LASF185
 1999 0dda 35       		.uleb128 0x35
 2000 0ddb B7010000 		.4byte	.LASF179
 2001 0ddf B7010000 		.4byte	.LASF179
 2002 0de3 03       		.byte	0x3
 2003 0de4 3C       		.byte	0x3c
 2004 0de5 00       		.byte	0
 2005              		.section	.debug_abbrev,"",%progbits
 2006              	.Ldebug_abbrev0:
 2007 0000 01       		.uleb128 0x1
 2008 0001 11       		.uleb128 0x11
 2009 0002 01       		.byte	0x1
 2010 0003 25       		.uleb128 0x25
 2011 0004 0E       		.uleb128 0xe
 2012 0005 13       		.uleb128 0x13
 2013 0006 0B       		.uleb128 0xb
 2014 0007 03       		.uleb128 0x3
 2015 0008 0E       		.uleb128 0xe
 2016 0009 1B       		.uleb128 0x1b
 2017 000a 0E       		.uleb128 0xe
 2018 000b 55       		.uleb128 0x55
 2019 000c 17       		.uleb128 0x17
 2020 000d 11       		.uleb128 0x11
 2021 000e 01       		.uleb128 0x1
 2022 000f 10       		.uleb128 0x10
 2023 0010 17       		.uleb128 0x17
 2024 0011 00       		.byte	0
 2025 0012 00       		.byte	0
 2026 0013 02       		.uleb128 0x2
 2027 0014 24       		.uleb128 0x24
 2028 0015 00       		.byte	0
 2029 0016 0B       		.uleb128 0xb
 2030 0017 0B       		.uleb128 0xb
 2031 0018 3E       		.uleb128 0x3e
 2032 0019 0B       		.uleb128 0xb
 2033 001a 03       		.uleb128 0x3
 2034 001b 08       		.uleb128 0x8
 2035 001c 00       		.byte	0
 2036 001d 00       		.byte	0
 2037 001e 03       		.uleb128 0x3
 2038 001f 16       		.uleb128 0x16
 2039 0020 00       		.byte	0
 2040 0021 03       		.uleb128 0x3
 2041 0022 0E       		.uleb128 0xe
 2042 0023 3A       		.uleb128 0x3a
 2043 0024 0B       		.uleb128 0xb
 2044 0025 3B       		.uleb128 0x3b
 2045 0026 0B       		.uleb128 0xb
 2046 0027 49       		.uleb128 0x49
 2047 0028 13       		.uleb128 0x13
 2048 0029 00       		.byte	0
 2049 002a 00       		.byte	0
ARM GAS  /var/folders/d2/nstgp4h54kz7g1l847x_b8wc0000gn/T//ccOQyc64.s 			page 37


 2050 002b 04       		.uleb128 0x4
 2051 002c 24       		.uleb128 0x24
 2052 002d 00       		.byte	0
 2053 002e 0B       		.uleb128 0xb
 2054 002f 0B       		.uleb128 0xb
 2055 0030 3E       		.uleb128 0x3e
 2056 0031 0B       		.uleb128 0xb
 2057 0032 03       		.uleb128 0x3
 2058 0033 0E       		.uleb128 0xe
 2059 0034 00       		.byte	0
 2060 0035 00       		.byte	0
 2061 0036 05       		.uleb128 0x5
 2062 0037 35       		.uleb128 0x35
 2063 0038 00       		.byte	0
 2064 0039 49       		.uleb128 0x49
 2065 003a 13       		.uleb128 0x13
 2066 003b 00       		.byte	0
 2067 003c 00       		.byte	0
 2068 003d 06       		.uleb128 0x6
 2069 003e 13       		.uleb128 0x13
 2070 003f 01       		.byte	0x1
 2071 0040 03       		.uleb128 0x3
 2072 0041 0E       		.uleb128 0xe
 2073 0042 0B       		.uleb128 0xb
 2074 0043 0B       		.uleb128 0xb
 2075 0044 3A       		.uleb128 0x3a
 2076 0045 0B       		.uleb128 0xb
 2077 0046 3B       		.uleb128 0x3b
 2078 0047 0B       		.uleb128 0xb
 2079 0048 01       		.uleb128 0x1
 2080 0049 13       		.uleb128 0x13
 2081 004a 00       		.byte	0
 2082 004b 00       		.byte	0
 2083 004c 07       		.uleb128 0x7
 2084 004d 0D       		.uleb128 0xd
 2085 004e 00       		.byte	0
 2086 004f 03       		.uleb128 0x3
 2087 0050 0E       		.uleb128 0xe
 2088 0051 3A       		.uleb128 0x3a
 2089 0052 0B       		.uleb128 0xb
 2090 0053 3B       		.uleb128 0x3b
 2091 0054 0B       		.uleb128 0xb
 2092 0055 49       		.uleb128 0x49
 2093 0056 13       		.uleb128 0x13
 2094 0057 38       		.uleb128 0x38
 2095 0058 0B       		.uleb128 0xb
 2096 0059 00       		.byte	0
 2097 005a 00       		.byte	0
 2098 005b 08       		.uleb128 0x8
 2099 005c 0D       		.uleb128 0xd
 2100 005d 00       		.byte	0
 2101 005e 03       		.uleb128 0x3
 2102 005f 08       		.uleb128 0x8
 2103 0060 3A       		.uleb128 0x3a
 2104 0061 0B       		.uleb128 0xb
 2105 0062 3B       		.uleb128 0x3b
 2106 0063 05       		.uleb128 0x5
ARM GAS  /var/folders/d2/nstgp4h54kz7g1l847x_b8wc0000gn/T//ccOQyc64.s 			page 38


 2107 0064 49       		.uleb128 0x49
 2108 0065 13       		.uleb128 0x13
 2109 0066 38       		.uleb128 0x38
 2110 0067 0B       		.uleb128 0xb
 2111 0068 00       		.byte	0
 2112 0069 00       		.byte	0
 2113 006a 09       		.uleb128 0x9
 2114 006b 0D       		.uleb128 0xd
 2115 006c 00       		.byte	0
 2116 006d 03       		.uleb128 0x3
 2117 006e 0E       		.uleb128 0xe
 2118 006f 3A       		.uleb128 0x3a
 2119 0070 0B       		.uleb128 0xb
 2120 0071 3B       		.uleb128 0x3b
 2121 0072 05       		.uleb128 0x5
 2122 0073 49       		.uleb128 0x49
 2123 0074 13       		.uleb128 0x13
 2124 0075 38       		.uleb128 0x38
 2125 0076 0B       		.uleb128 0xb
 2126 0077 00       		.byte	0
 2127 0078 00       		.byte	0
 2128 0079 0A       		.uleb128 0xa
 2129 007a 0F       		.uleb128 0xf
 2130 007b 00       		.byte	0
 2131 007c 0B       		.uleb128 0xb
 2132 007d 0B       		.uleb128 0xb
 2133 007e 49       		.uleb128 0x49
 2134 007f 13       		.uleb128 0x13
 2135 0080 00       		.byte	0
 2136 0081 00       		.byte	0
 2137 0082 0B       		.uleb128 0xb
 2138 0083 13       		.uleb128 0x13
 2139 0084 01       		.byte	0x1
 2140 0085 03       		.uleb128 0x3
 2141 0086 0E       		.uleb128 0xe
 2142 0087 0B       		.uleb128 0xb
 2143 0088 0B       		.uleb128 0xb
 2144 0089 3A       		.uleb128 0x3a
 2145 008a 0B       		.uleb128 0xb
 2146 008b 3B       		.uleb128 0x3b
 2147 008c 05       		.uleb128 0x5
 2148 008d 01       		.uleb128 0x1
 2149 008e 13       		.uleb128 0x13
 2150 008f 00       		.byte	0
 2151 0090 00       		.byte	0
 2152 0091 0C       		.uleb128 0xc
 2153 0092 15       		.uleb128 0x15
 2154 0093 01       		.byte	0x1
 2155 0094 27       		.uleb128 0x27
 2156 0095 19       		.uleb128 0x19
 2157 0096 01       		.uleb128 0x1
 2158 0097 13       		.uleb128 0x13
 2159 0098 00       		.byte	0
 2160 0099 00       		.byte	0
 2161 009a 0D       		.uleb128 0xd
 2162 009b 05       		.uleb128 0x5
 2163 009c 00       		.byte	0
ARM GAS  /var/folders/d2/nstgp4h54kz7g1l847x_b8wc0000gn/T//ccOQyc64.s 			page 39


 2164 009d 49       		.uleb128 0x49
 2165 009e 13       		.uleb128 0x13
 2166 009f 00       		.byte	0
 2167 00a0 00       		.byte	0
 2168 00a1 0E       		.uleb128 0xe
 2169 00a2 0F       		.uleb128 0xf
 2170 00a3 00       		.byte	0
 2171 00a4 0B       		.uleb128 0xb
 2172 00a5 0B       		.uleb128 0xb
 2173 00a6 00       		.byte	0
 2174 00a7 00       		.byte	0
 2175 00a8 0F       		.uleb128 0xf
 2176 00a9 26       		.uleb128 0x26
 2177 00aa 00       		.byte	0
 2178 00ab 49       		.uleb128 0x49
 2179 00ac 13       		.uleb128 0x13
 2180 00ad 00       		.byte	0
 2181 00ae 00       		.byte	0
 2182 00af 10       		.uleb128 0x10
 2183 00b0 13       		.uleb128 0x13
 2184 00b1 01       		.byte	0x1
 2185 00b2 03       		.uleb128 0x3
 2186 00b3 0E       		.uleb128 0xe
 2187 00b4 0B       		.uleb128 0xb
 2188 00b5 05       		.uleb128 0x5
 2189 00b6 3A       		.uleb128 0x3a
 2190 00b7 0B       		.uleb128 0xb
 2191 00b8 3B       		.uleb128 0x3b
 2192 00b9 05       		.uleb128 0x5
 2193 00ba 01       		.uleb128 0x1
 2194 00bb 13       		.uleb128 0x13
 2195 00bc 00       		.byte	0
 2196 00bd 00       		.byte	0
 2197 00be 11       		.uleb128 0x11
 2198 00bf 0D       		.uleb128 0xd
 2199 00c0 00       		.byte	0
 2200 00c1 03       		.uleb128 0x3
 2201 00c2 0E       		.uleb128 0xe
 2202 00c3 3A       		.uleb128 0x3a
 2203 00c4 0B       		.uleb128 0xb
 2204 00c5 3B       		.uleb128 0x3b
 2205 00c6 05       		.uleb128 0x5
 2206 00c7 49       		.uleb128 0x49
 2207 00c8 13       		.uleb128 0x13
 2208 00c9 38       		.uleb128 0x38
 2209 00ca 05       		.uleb128 0x5
 2210 00cb 00       		.byte	0
 2211 00cc 00       		.byte	0
 2212 00cd 12       		.uleb128 0x12
 2213 00ce 0D       		.uleb128 0xd
 2214 00cf 00       		.byte	0
 2215 00d0 03       		.uleb128 0x3
 2216 00d1 08       		.uleb128 0x8
 2217 00d2 3A       		.uleb128 0x3a
 2218 00d3 0B       		.uleb128 0xb
 2219 00d4 3B       		.uleb128 0x3b
 2220 00d5 05       		.uleb128 0x5
ARM GAS  /var/folders/d2/nstgp4h54kz7g1l847x_b8wc0000gn/T//ccOQyc64.s 			page 40


 2221 00d6 49       		.uleb128 0x49
 2222 00d7 13       		.uleb128 0x13
 2223 00d8 38       		.uleb128 0x38
 2224 00d9 05       		.uleb128 0x5
 2225 00da 00       		.byte	0
 2226 00db 00       		.byte	0
 2227 00dc 13       		.uleb128 0x13
 2228 00dd 34       		.uleb128 0x34
 2229 00de 00       		.byte	0
 2230 00df 03       		.uleb128 0x3
 2231 00e0 0E       		.uleb128 0xe
 2232 00e1 3A       		.uleb128 0x3a
 2233 00e2 0B       		.uleb128 0xb
 2234 00e3 3B       		.uleb128 0x3b
 2235 00e4 05       		.uleb128 0x5
 2236 00e5 49       		.uleb128 0x49
 2237 00e6 13       		.uleb128 0x13
 2238 00e7 3F       		.uleb128 0x3f
 2239 00e8 19       		.uleb128 0x19
 2240 00e9 3C       		.uleb128 0x3c
 2241 00ea 19       		.uleb128 0x19
 2242 00eb 00       		.byte	0
 2243 00ec 00       		.byte	0
 2244 00ed 14       		.uleb128 0x14
 2245 00ee 34       		.uleb128 0x34
 2246 00ef 00       		.byte	0
 2247 00f0 03       		.uleb128 0x3
 2248 00f1 0E       		.uleb128 0xe
 2249 00f2 3A       		.uleb128 0x3a
 2250 00f3 0B       		.uleb128 0xb
 2251 00f4 3B       		.uleb128 0x3b
 2252 00f5 0B       		.uleb128 0xb
 2253 00f6 49       		.uleb128 0x49
 2254 00f7 13       		.uleb128 0x13
 2255 00f8 3F       		.uleb128 0x3f
 2256 00f9 19       		.uleb128 0x19
 2257 00fa 3C       		.uleb128 0x3c
 2258 00fb 19       		.uleb128 0x19
 2259 00fc 00       		.byte	0
 2260 00fd 00       		.byte	0
 2261 00fe 15       		.uleb128 0x15
 2262 00ff 0D       		.uleb128 0xd
 2263 0100 00       		.byte	0
 2264 0101 03       		.uleb128 0x3
 2265 0102 08       		.uleb128 0x8
 2266 0103 3A       		.uleb128 0x3a
 2267 0104 0B       		.uleb128 0xb
 2268 0105 3B       		.uleb128 0x3b
 2269 0106 0B       		.uleb128 0xb
 2270 0107 49       		.uleb128 0x49
 2271 0108 13       		.uleb128 0x13
 2272 0109 38       		.uleb128 0x38
 2273 010a 0B       		.uleb128 0xb
 2274 010b 00       		.byte	0
 2275 010c 00       		.byte	0
 2276 010d 16       		.uleb128 0x16
 2277 010e 13       		.uleb128 0x13
ARM GAS  /var/folders/d2/nstgp4h54kz7g1l847x_b8wc0000gn/T//ccOQyc64.s 			page 41


 2278 010f 01       		.byte	0x1
 2279 0110 0B       		.uleb128 0xb
 2280 0111 0B       		.uleb128 0xb
 2281 0112 3A       		.uleb128 0x3a
 2282 0113 0B       		.uleb128 0xb
 2283 0114 3B       		.uleb128 0x3b
 2284 0115 0B       		.uleb128 0xb
 2285 0116 01       		.uleb128 0x1
 2286 0117 13       		.uleb128 0x13
 2287 0118 00       		.byte	0
 2288 0119 00       		.byte	0
 2289 011a 17       		.uleb128 0x17
 2290 011b 13       		.uleb128 0x13
 2291 011c 01       		.byte	0x1
 2292 011d 0B       		.uleb128 0xb
 2293 011e 05       		.uleb128 0x5
 2294 011f 3A       		.uleb128 0x3a
 2295 0120 0B       		.uleb128 0xb
 2296 0121 3B       		.uleb128 0x3b
 2297 0122 0B       		.uleb128 0xb
 2298 0123 01       		.uleb128 0x1
 2299 0124 13       		.uleb128 0x13
 2300 0125 00       		.byte	0
 2301 0126 00       		.byte	0
 2302 0127 18       		.uleb128 0x18
 2303 0128 01       		.uleb128 0x1
 2304 0129 01       		.byte	0x1
 2305 012a 49       		.uleb128 0x49
 2306 012b 13       		.uleb128 0x13
 2307 012c 01       		.uleb128 0x1
 2308 012d 13       		.uleb128 0x13
 2309 012e 00       		.byte	0
 2310 012f 00       		.byte	0
 2311 0130 19       		.uleb128 0x19
 2312 0131 21       		.uleb128 0x21
 2313 0132 00       		.byte	0
 2314 0133 49       		.uleb128 0x49
 2315 0134 13       		.uleb128 0x13
 2316 0135 2F       		.uleb128 0x2f
 2317 0136 0B       		.uleb128 0xb
 2318 0137 00       		.byte	0
 2319 0138 00       		.byte	0
 2320 0139 1A       		.uleb128 0x1a
 2321 013a 17       		.uleb128 0x17
 2322 013b 01       		.byte	0x1
 2323 013c 0B       		.uleb128 0xb
 2324 013d 0B       		.uleb128 0xb
 2325 013e 3A       		.uleb128 0x3a
 2326 013f 0B       		.uleb128 0xb
 2327 0140 3B       		.uleb128 0x3b
 2328 0141 0B       		.uleb128 0xb
 2329 0142 01       		.uleb128 0x1
 2330 0143 13       		.uleb128 0x13
 2331 0144 00       		.byte	0
 2332 0145 00       		.byte	0
 2333 0146 1B       		.uleb128 0x1b
 2334 0147 0D       		.uleb128 0xd
ARM GAS  /var/folders/d2/nstgp4h54kz7g1l847x_b8wc0000gn/T//ccOQyc64.s 			page 42


 2335 0148 00       		.byte	0
 2336 0149 03       		.uleb128 0x3
 2337 014a 0E       		.uleb128 0xe
 2338 014b 3A       		.uleb128 0x3a
 2339 014c 0B       		.uleb128 0xb
 2340 014d 3B       		.uleb128 0x3b
 2341 014e 05       		.uleb128 0x5
 2342 014f 49       		.uleb128 0x49
 2343 0150 13       		.uleb128 0x13
 2344 0151 00       		.byte	0
 2345 0152 00       		.byte	0
 2346 0153 1C       		.uleb128 0x1c
 2347 0154 34       		.uleb128 0x34
 2348 0155 00       		.byte	0
 2349 0156 03       		.uleb128 0x3
 2350 0157 08       		.uleb128 0x8
 2351 0158 3A       		.uleb128 0x3a
 2352 0159 0B       		.uleb128 0xb
 2353 015a 3B       		.uleb128 0x3b
 2354 015b 05       		.uleb128 0x5
 2355 015c 49       		.uleb128 0x49
 2356 015d 13       		.uleb128 0x13
 2357 015e 3F       		.uleb128 0x3f
 2358 015f 19       		.uleb128 0x19
 2359 0160 3C       		.uleb128 0x3c
 2360 0161 19       		.uleb128 0x19
 2361 0162 00       		.byte	0
 2362 0163 00       		.byte	0
 2363 0164 1D       		.uleb128 0x1d
 2364 0165 15       		.uleb128 0x15
 2365 0166 00       		.byte	0
 2366 0167 27       		.uleb128 0x27
 2367 0168 19       		.uleb128 0x19
 2368 0169 00       		.byte	0
 2369 016a 00       		.byte	0
 2370 016b 1E       		.uleb128 0x1e
 2371 016c 0D       		.uleb128 0xd
 2372 016d 00       		.byte	0
 2373 016e 03       		.uleb128 0x3
 2374 016f 08       		.uleb128 0x8
 2375 0170 3A       		.uleb128 0x3a
 2376 0171 0B       		.uleb128 0xb
 2377 0172 3B       		.uleb128 0x3b
 2378 0173 0B       		.uleb128 0xb
 2379 0174 49       		.uleb128 0x49
 2380 0175 13       		.uleb128 0x13
 2381 0176 38       		.uleb128 0x38
 2382 0177 05       		.uleb128 0x5
 2383 0178 00       		.byte	0
 2384 0179 00       		.byte	0
 2385 017a 1F       		.uleb128 0x1f
 2386 017b 17       		.uleb128 0x17
 2387 017c 01       		.byte	0x1
 2388 017d 03       		.uleb128 0x3
 2389 017e 0E       		.uleb128 0xe
 2390 017f 0B       		.uleb128 0xb
 2391 0180 05       		.uleb128 0x5
ARM GAS  /var/folders/d2/nstgp4h54kz7g1l847x_b8wc0000gn/T//ccOQyc64.s 			page 43


 2392 0181 3A       		.uleb128 0x3a
 2393 0182 0B       		.uleb128 0xb
 2394 0183 3B       		.uleb128 0x3b
 2395 0184 0B       		.uleb128 0xb
 2396 0185 01       		.uleb128 0x1
 2397 0186 13       		.uleb128 0x13
 2398 0187 00       		.byte	0
 2399 0188 00       		.byte	0
 2400 0189 20       		.uleb128 0x20
 2401 018a 0D       		.uleb128 0xd
 2402 018b 00       		.byte	0
 2403 018c 03       		.uleb128 0x3
 2404 018d 08       		.uleb128 0x8
 2405 018e 3A       		.uleb128 0x3a
 2406 018f 0B       		.uleb128 0xb
 2407 0190 3B       		.uleb128 0x3b
 2408 0191 0B       		.uleb128 0xb
 2409 0192 49       		.uleb128 0x49
 2410 0193 13       		.uleb128 0x13
 2411 0194 00       		.byte	0
 2412 0195 00       		.byte	0
 2413 0196 21       		.uleb128 0x21
 2414 0197 0D       		.uleb128 0xd
 2415 0198 00       		.byte	0
 2416 0199 03       		.uleb128 0x3
 2417 019a 0E       		.uleb128 0xe
 2418 019b 3A       		.uleb128 0x3a
 2419 019c 0B       		.uleb128 0xb
 2420 019d 3B       		.uleb128 0x3b
 2421 019e 0B       		.uleb128 0xb
 2422 019f 49       		.uleb128 0x49
 2423 01a0 13       		.uleb128 0x13
 2424 01a1 00       		.byte	0
 2425 01a2 00       		.byte	0
 2426 01a3 22       		.uleb128 0x22
 2427 01a4 21       		.uleb128 0x21
 2428 01a5 00       		.byte	0
 2429 01a6 49       		.uleb128 0x49
 2430 01a7 13       		.uleb128 0x13
 2431 01a8 2F       		.uleb128 0x2f
 2432 01a9 05       		.uleb128 0x5
 2433 01aa 00       		.byte	0
 2434 01ab 00       		.byte	0
 2435 01ac 23       		.uleb128 0x23
 2436 01ad 21       		.uleb128 0x21
 2437 01ae 00       		.byte	0
 2438 01af 00       		.byte	0
 2439 01b0 00       		.byte	0
 2440 01b1 24       		.uleb128 0x24
 2441 01b2 34       		.uleb128 0x34
 2442 01b3 00       		.byte	0
 2443 01b4 03       		.uleb128 0x3
 2444 01b5 08       		.uleb128 0x8
 2445 01b6 3A       		.uleb128 0x3a
 2446 01b7 0B       		.uleb128 0xb
 2447 01b8 3B       		.uleb128 0x3b
 2448 01b9 0B       		.uleb128 0xb
ARM GAS  /var/folders/d2/nstgp4h54kz7g1l847x_b8wc0000gn/T//ccOQyc64.s 			page 44


 2449 01ba 49       		.uleb128 0x49
 2450 01bb 13       		.uleb128 0x13
 2451 01bc 3F       		.uleb128 0x3f
 2452 01bd 19       		.uleb128 0x19
 2453 01be 3C       		.uleb128 0x3c
 2454 01bf 19       		.uleb128 0x19
 2455 01c0 00       		.byte	0
 2456 01c1 00       		.byte	0
 2457 01c2 25       		.uleb128 0x25
 2458 01c3 34       		.uleb128 0x34
 2459 01c4 00       		.byte	0
 2460 01c5 03       		.uleb128 0x3
 2461 01c6 0E       		.uleb128 0xe
 2462 01c7 3A       		.uleb128 0x3a
 2463 01c8 0B       		.uleb128 0xb
 2464 01c9 3B       		.uleb128 0x3b
 2465 01ca 0B       		.uleb128 0xb
 2466 01cb 49       		.uleb128 0x49
 2467 01cc 13       		.uleb128 0x13
 2468 01cd 3F       		.uleb128 0x3f
 2469 01ce 19       		.uleb128 0x19
 2470 01cf 02       		.uleb128 0x2
 2471 01d0 18       		.uleb128 0x18
 2472 01d1 00       		.byte	0
 2473 01d2 00       		.byte	0
 2474 01d3 26       		.uleb128 0x26
 2475 01d4 2E       		.uleb128 0x2e
 2476 01d5 01       		.byte	0x1
 2477 01d6 03       		.uleb128 0x3
 2478 01d7 0E       		.uleb128 0xe
 2479 01d8 3A       		.uleb128 0x3a
 2480 01d9 0B       		.uleb128 0xb
 2481 01da 3B       		.uleb128 0x3b
 2482 01db 0B       		.uleb128 0xb
 2483 01dc 27       		.uleb128 0x27
 2484 01dd 19       		.uleb128 0x19
 2485 01de 11       		.uleb128 0x11
 2486 01df 01       		.uleb128 0x1
 2487 01e0 12       		.uleb128 0x12
 2488 01e1 06       		.uleb128 0x6
 2489 01e2 40       		.uleb128 0x40
 2490 01e3 18       		.uleb128 0x18
 2491 01e4 9742     		.uleb128 0x2117
 2492 01e6 19       		.uleb128 0x19
 2493 01e7 01       		.uleb128 0x1
 2494 01e8 13       		.uleb128 0x13
 2495 01e9 00       		.byte	0
 2496 01ea 00       		.byte	0
 2497 01eb 27       		.uleb128 0x27
 2498 01ec 34       		.uleb128 0x34
 2499 01ed 00       		.byte	0
 2500 01ee 03       		.uleb128 0x3
 2501 01ef 08       		.uleb128 0x8
 2502 01f0 3A       		.uleb128 0x3a
 2503 01f1 0B       		.uleb128 0xb
 2504 01f2 3B       		.uleb128 0x3b
 2505 01f3 0B       		.uleb128 0xb
ARM GAS  /var/folders/d2/nstgp4h54kz7g1l847x_b8wc0000gn/T//ccOQyc64.s 			page 45


 2506 01f4 49       		.uleb128 0x49
 2507 01f5 13       		.uleb128 0x13
 2508 01f6 02       		.uleb128 0x2
 2509 01f7 17       		.uleb128 0x17
 2510 01f8 00       		.byte	0
 2511 01f9 00       		.byte	0
 2512 01fa 28       		.uleb128 0x28
 2513 01fb 34       		.uleb128 0x34
 2514 01fc 00       		.byte	0
 2515 01fd 03       		.uleb128 0x3
 2516 01fe 08       		.uleb128 0x8
 2517 01ff 3A       		.uleb128 0x3a
 2518 0200 0B       		.uleb128 0xb
 2519 0201 3B       		.uleb128 0x3b
 2520 0202 0B       		.uleb128 0xb
 2521 0203 49       		.uleb128 0x49
 2522 0204 13       		.uleb128 0x13
 2523 0205 00       		.byte	0
 2524 0206 00       		.byte	0
 2525 0207 29       		.uleb128 0x29
 2526 0208 1D       		.uleb128 0x1d
 2527 0209 01       		.byte	0x1
 2528 020a 31       		.uleb128 0x31
 2529 020b 13       		.uleb128 0x13
 2530 020c 52       		.uleb128 0x52
 2531 020d 01       		.uleb128 0x1
 2532 020e 55       		.uleb128 0x55
 2533 020f 17       		.uleb128 0x17
 2534 0210 58       		.uleb128 0x58
 2535 0211 0B       		.uleb128 0xb
 2536 0212 59       		.uleb128 0x59
 2537 0213 0B       		.uleb128 0xb
 2538 0214 01       		.uleb128 0x1
 2539 0215 13       		.uleb128 0x13
 2540 0216 00       		.byte	0
 2541 0217 00       		.byte	0
 2542 0218 2A       		.uleb128 0x2a
 2543 0219 1D       		.uleb128 0x1d
 2544 021a 00       		.byte	0
 2545 021b 31       		.uleb128 0x31
 2546 021c 13       		.uleb128 0x13
 2547 021d 52       		.uleb128 0x52
 2548 021e 01       		.uleb128 0x1
 2549 021f 55       		.uleb128 0x55
 2550 0220 17       		.uleb128 0x17
 2551 0221 58       		.uleb128 0x58
 2552 0222 0B       		.uleb128 0xb
 2553 0223 59       		.uleb128 0x59
 2554 0224 0B       		.uleb128 0xb
 2555 0225 00       		.byte	0
 2556 0226 00       		.byte	0
 2557 0227 2B       		.uleb128 0x2b
 2558 0228 1D       		.uleb128 0x1d
 2559 0229 01       		.byte	0x1
 2560 022a 31       		.uleb128 0x31
 2561 022b 13       		.uleb128 0x13
 2562 022c 11       		.uleb128 0x11
ARM GAS  /var/folders/d2/nstgp4h54kz7g1l847x_b8wc0000gn/T//ccOQyc64.s 			page 46


 2563 022d 01       		.uleb128 0x1
 2564 022e 12       		.uleb128 0x12
 2565 022f 06       		.uleb128 0x6
 2566 0230 58       		.uleb128 0x58
 2567 0231 0B       		.uleb128 0xb
 2568 0232 59       		.uleb128 0x59
 2569 0233 0B       		.uleb128 0xb
 2570 0234 01       		.uleb128 0x1
 2571 0235 13       		.uleb128 0x13
 2572 0236 00       		.byte	0
 2573 0237 00       		.byte	0
 2574 0238 2C       		.uleb128 0x2c
 2575 0239 05       		.uleb128 0x5
 2576 023a 00       		.byte	0
 2577 023b 31       		.uleb128 0x31
 2578 023c 13       		.uleb128 0x13
 2579 023d 02       		.uleb128 0x2
 2580 023e 17       		.uleb128 0x17
 2581 023f 00       		.byte	0
 2582 0240 00       		.byte	0
 2583 0241 2D       		.uleb128 0x2d
 2584 0242 898201   		.uleb128 0x4109
 2585 0245 01       		.byte	0x1
 2586 0246 11       		.uleb128 0x11
 2587 0247 01       		.uleb128 0x1
 2588 0248 31       		.uleb128 0x31
 2589 0249 13       		.uleb128 0x13
 2590 024a 01       		.uleb128 0x1
 2591 024b 13       		.uleb128 0x13
 2592 024c 00       		.byte	0
 2593 024d 00       		.byte	0
 2594 024e 2E       		.uleb128 0x2e
 2595 024f 8A8201   		.uleb128 0x410a
 2596 0252 00       		.byte	0
 2597 0253 02       		.uleb128 0x2
 2598 0254 18       		.uleb128 0x18
 2599 0255 9142     		.uleb128 0x2111
 2600 0257 18       		.uleb128 0x18
 2601 0258 00       		.byte	0
 2602 0259 00       		.byte	0
 2603 025a 2F       		.uleb128 0x2f
 2604 025b 898201   		.uleb128 0x4109
 2605 025e 00       		.byte	0
 2606 025f 11       		.uleb128 0x11
 2607 0260 01       		.uleb128 0x1
 2608 0261 31       		.uleb128 0x31
 2609 0262 13       		.uleb128 0x13
 2610 0263 00       		.byte	0
 2611 0264 00       		.byte	0
 2612 0265 30       		.uleb128 0x30
 2613 0266 898201   		.uleb128 0x4109
 2614 0269 01       		.byte	0x1
 2615 026a 11       		.uleb128 0x11
 2616 026b 01       		.uleb128 0x1
 2617 026c 9542     		.uleb128 0x2115
 2618 026e 19       		.uleb128 0x19
 2619 026f 31       		.uleb128 0x31
ARM GAS  /var/folders/d2/nstgp4h54kz7g1l847x_b8wc0000gn/T//ccOQyc64.s 			page 47


 2620 0270 13       		.uleb128 0x13
 2621 0271 01       		.uleb128 0x1
 2622 0272 13       		.uleb128 0x13
 2623 0273 00       		.byte	0
 2624 0274 00       		.byte	0
 2625 0275 31       		.uleb128 0x31
 2626 0276 05       		.uleb128 0x5
 2627 0277 00       		.byte	0
 2628 0278 03       		.uleb128 0x3
 2629 0279 08       		.uleb128 0x8
 2630 027a 3A       		.uleb128 0x3a
 2631 027b 0B       		.uleb128 0xb
 2632 027c 3B       		.uleb128 0x3b
 2633 027d 0B       		.uleb128 0xb
 2634 027e 49       		.uleb128 0x49
 2635 027f 13       		.uleb128 0x13
 2636 0280 02       		.uleb128 0x2
 2637 0281 17       		.uleb128 0x17
 2638 0282 00       		.byte	0
 2639 0283 00       		.byte	0
 2640 0284 32       		.uleb128 0x32
 2641 0285 2E       		.uleb128 0x2e
 2642 0286 01       		.byte	0x1
 2643 0287 03       		.uleb128 0x3
 2644 0288 0E       		.uleb128 0xe
 2645 0289 3A       		.uleb128 0x3a
 2646 028a 0B       		.uleb128 0xb
 2647 028b 3B       		.uleb128 0x3b
 2648 028c 0B       		.uleb128 0xb
 2649 028d 27       		.uleb128 0x27
 2650 028e 19       		.uleb128 0x19
 2651 028f 49       		.uleb128 0x49
 2652 0290 13       		.uleb128 0x13
 2653 0291 20       		.uleb128 0x20
 2654 0292 0B       		.uleb128 0xb
 2655 0293 01       		.uleb128 0x1
 2656 0294 13       		.uleb128 0x13
 2657 0295 00       		.byte	0
 2658 0296 00       		.byte	0
 2659 0297 33       		.uleb128 0x33
 2660 0298 05       		.uleb128 0x5
 2661 0299 00       		.byte	0
 2662 029a 03       		.uleb128 0x3
 2663 029b 08       		.uleb128 0x8
 2664 029c 3A       		.uleb128 0x3a
 2665 029d 0B       		.uleb128 0xb
 2666 029e 3B       		.uleb128 0x3b
 2667 029f 0B       		.uleb128 0xb
 2668 02a0 49       		.uleb128 0x49
 2669 02a1 13       		.uleb128 0x13
 2670 02a2 00       		.byte	0
 2671 02a3 00       		.byte	0
 2672 02a4 34       		.uleb128 0x34
 2673 02a5 2E       		.uleb128 0x2e
 2674 02a6 00       		.byte	0
 2675 02a7 03       		.uleb128 0x3
 2676 02a8 0E       		.uleb128 0xe
ARM GAS  /var/folders/d2/nstgp4h54kz7g1l847x_b8wc0000gn/T//ccOQyc64.s 			page 48


 2677 02a9 3A       		.uleb128 0x3a
 2678 02aa 0B       		.uleb128 0xb
 2679 02ab 3B       		.uleb128 0x3b
 2680 02ac 0B       		.uleb128 0xb
 2681 02ad 27       		.uleb128 0x27
 2682 02ae 19       		.uleb128 0x19
 2683 02af 49       		.uleb128 0x49
 2684 02b0 13       		.uleb128 0x13
 2685 02b1 20       		.uleb128 0x20
 2686 02b2 0B       		.uleb128 0xb
 2687 02b3 00       		.byte	0
 2688 02b4 00       		.byte	0
 2689 02b5 35       		.uleb128 0x35
 2690 02b6 2E       		.uleb128 0x2e
 2691 02b7 00       		.byte	0
 2692 02b8 3F       		.uleb128 0x3f
 2693 02b9 19       		.uleb128 0x19
 2694 02ba 3C       		.uleb128 0x3c
 2695 02bb 19       		.uleb128 0x19
 2696 02bc 6E       		.uleb128 0x6e
 2697 02bd 0E       		.uleb128 0xe
 2698 02be 03       		.uleb128 0x3
 2699 02bf 0E       		.uleb128 0xe
 2700 02c0 3A       		.uleb128 0x3a
 2701 02c1 0B       		.uleb128 0xb
 2702 02c2 3B       		.uleb128 0x3b
 2703 02c3 0B       		.uleb128 0xb
 2704 02c4 00       		.byte	0
 2705 02c5 00       		.byte	0
 2706 02c6 36       		.uleb128 0x36
 2707 02c7 2E       		.uleb128 0x2e
 2708 02c8 00       		.byte	0
 2709 02c9 3F       		.uleb128 0x3f
 2710 02ca 19       		.uleb128 0x19
 2711 02cb 3C       		.uleb128 0x3c
 2712 02cc 19       		.uleb128 0x19
 2713 02cd 6E       		.uleb128 0x6e
 2714 02ce 0E       		.uleb128 0xe
 2715 02cf 03       		.uleb128 0x3
 2716 02d0 0E       		.uleb128 0xe
 2717 02d1 00       		.byte	0
 2718 02d2 00       		.byte	0
 2719 02d3 00       		.byte	0
 2720              		.section	.debug_loc,"",%progbits
 2721              	.Ldebug_loc0:
 2722              	.LLST0:
 2723 0000 2A000000 		.4byte	.LVL1
 2724 0004 31000000 		.4byte	.LVL3-1
 2725 0008 0100     		.2byte	0x1
 2726 000a 50       		.byte	0x50
 2727 000b 3C000000 		.4byte	.LVL5
 2728 000f 43000000 		.4byte	.LVL7-1
 2729 0013 0100     		.2byte	0x1
 2730 0015 50       		.byte	0x50
 2731 0016 4E000000 		.4byte	.LVL9
 2732 001a 55000000 		.4byte	.LVL11-1
 2733 001e 0100     		.2byte	0x1
ARM GAS  /var/folders/d2/nstgp4h54kz7g1l847x_b8wc0000gn/T//ccOQyc64.s 			page 49


 2734 0020 50       		.byte	0x50
 2735 0021 00000000 		.4byte	0
 2736 0025 00000000 		.4byte	0
 2737              	.LLST1:
 2738 0029 2A000000 		.4byte	.LVL1
 2739 002d 2C000000 		.4byte	.LVL2
 2740 0031 0100     		.2byte	0x1
 2741 0033 50       		.byte	0x50
 2742 0034 00000000 		.4byte	0
 2743 0038 00000000 		.4byte	0
 2744              	.LLST2:
 2745 003c 3C000000 		.4byte	.LVL5
 2746 0040 3E000000 		.4byte	.LVL6
 2747 0044 0100     		.2byte	0x1
 2748 0046 50       		.byte	0x50
 2749 0047 00000000 		.4byte	0
 2750 004b 00000000 		.4byte	0
 2751              	.LLST3:
 2752 004f 4E000000 		.4byte	.LVL9
 2753 0053 50000000 		.4byte	.LVL10
 2754 0057 0100     		.2byte	0x1
 2755 0059 50       		.byte	0x50
 2756 005a 00000000 		.4byte	0
 2757 005e 00000000 		.4byte	0
 2758              	.LLST4:
 2759 0062 00000000 		.4byte	.LVL15
 2760 0066 11000000 		.4byte	.LVL16-1
 2761 006a 0100     		.2byte	0x1
 2762 006c 50       		.byte	0x50
 2763 006d 11000000 		.4byte	.LVL16-1
 2764 0071 2C000000 		.4byte	.LVL18
 2765 0075 0100     		.2byte	0x1
 2766 0077 55       		.byte	0x55
 2767 0078 2C000000 		.4byte	.LVL18
 2768 007c 2F000000 		.4byte	.LVL19-1
 2769 0080 0100     		.2byte	0x1
 2770 0082 50       		.byte	0x50
 2771 0083 2F000000 		.4byte	.LVL19-1
 2772 0087 30000000 		.4byte	.LVL19
 2773 008b 0400     		.2byte	0x4
 2774 008d F3       		.byte	0xf3
 2775 008e 01       		.uleb128 0x1
 2776 008f 50       		.byte	0x50
 2777 0090 9F       		.byte	0x9f
 2778 0091 30000000 		.4byte	.LVL19
 2779 0095 38000000 		.4byte	.LFE219
 2780 0099 0100     		.2byte	0x1
 2781 009b 55       		.byte	0x55
 2782 009c 00000000 		.4byte	0
 2783 00a0 00000000 		.4byte	0
 2784              		.section	.debug_aranges,"",%progbits
 2785 0000 24000000 		.4byte	0x24
 2786 0004 0200     		.2byte	0x2
 2787 0006 00000000 		.4byte	.Ldebug_info0
 2788 000a 04       		.byte	0x4
 2789 000b 00       		.byte	0
 2790 000c 0000     		.2byte	0
ARM GAS  /var/folders/d2/nstgp4h54kz7g1l847x_b8wc0000gn/T//ccOQyc64.s 			page 50


 2791 000e 0000     		.2byte	0
 2792 0010 00000000 		.4byte	.LFB220
 2793 0014 90000000 		.4byte	.LFE220-.LFB220
 2794 0018 00000000 		.4byte	.LFB219
 2795 001c 38000000 		.4byte	.LFE219-.LFB219
 2796 0020 00000000 		.4byte	0
 2797 0024 00000000 		.4byte	0
 2798              		.section	.debug_ranges,"",%progbits
 2799              	.Ldebug_ranges0:
 2800 0000 02000000 		.4byte	.LBB16
 2801 0004 04000000 		.4byte	.LBE16
 2802 0008 06000000 		.4byte	.LBB23
 2803 000c 08000000 		.4byte	.LBE23
 2804 0010 00000000 		.4byte	0
 2805 0014 00000000 		.4byte	0
 2806 0018 02000000 		.4byte	.LBB18
 2807 001c 04000000 		.4byte	.LBE18
 2808 0020 06000000 		.4byte	.LBB21
 2809 0024 08000000 		.4byte	.LBE21
 2810 0028 00000000 		.4byte	0
 2811 002c 00000000 		.4byte	0
 2812 0030 00000000 		.4byte	.LFB220
 2813 0034 90000000 		.4byte	.LFE220
 2814 0038 00000000 		.4byte	.LFB219
 2815 003c 38000000 		.4byte	.LFE219
 2816 0040 00000000 		.4byte	0
 2817 0044 00000000 		.4byte	0
 2818              		.section	.debug_line,"",%progbits
 2819              	.Ldebug_line0:
 2820 0000 5C040000 		.section	.debug_str,"MS",%progbits,1
 2820      0200EA03 
 2820      00000201 
 2820      FB0E0D00 
 2820      01010101 
 2821              	.LASF146:
 2822 0000 63665F6F 		.ascii	"cf_off_older\000"
 2822      66665F6F 
 2822      6C646572 
 2822      00
 2823              	.LASF61:
 2824 000d 72656164 		.ascii	"ready_list_t\000"
 2824      795F6C69 
 2824      73745F74 
 2824      00
 2825              	.LASF99:
 2826 001a 73655F74 		.ascii	"se_time\000"
 2826      696D6500 
 2827              	.LASF4:
 2828 0022 73697A65 		.ascii	"size_t\000"
 2828      5F7400
 2829              	.LASF120:
 2830 0029 7264796D 		.ascii	"rdymsg\000"
 2830      736700
 2831              	.LASF20:
 2832 0030 75696E74 		.ascii	"uint64_t\000"
 2832      36345F74 
 2832      00
ARM GAS  /var/folders/d2/nstgp4h54kz7g1l847x_b8wc0000gn/T//ccOQyc64.s 			page 51


 2833              	.LASF91:
 2834 0039 6B65726E 		.ascii	"kernel_stats\000"
 2834      656C5F73 
 2834      74617473 
 2834      00
 2835              	.LASF5:
 2836 0046 5F5F7569 		.ascii	"__uint8_t\000"
 2836      6E74385F 
 2836      7400
 2837              	.LASF98:
 2838 0050 706F7274 		.ascii	"port_intctx\000"
 2838      5F696E74 
 2838      63747800 
 2839              	.LASF60:
 2840 005c 63685F74 		.ascii	"ch_threads_queue\000"
 2840      68726561 
 2840      64735F71 
 2840      75657565 
 2840      00
 2841              	.LASF80:
 2842 006d 73797374 		.ascii	"system_debug_t\000"
 2842      656D5F64 
 2842      65627567 
 2842      5F7400
 2843              	.LASF111:
 2844 007c 776F7273 		.ascii	"worst\000"
 2844      7400
 2845              	.LASF114:
 2846 0082 74696D65 		.ascii	"time_measurement_t\000"
 2846      5F6D6561 
 2846      73757265 
 2846      6D656E74 
 2846      5F7400
 2847              	.LASF15:
 2848 0095 6C6F6E67 		.ascii	"long long unsigned int\000"
 2848      206C6F6E 
 2848      6720756E 
 2848      7369676E 
 2848      65642069 
 2849              	.LASF107:
 2850 00ac 63685F74 		.ascii	"ch_trace_buffer_t\000"
 2850      72616365 
 2850      5F627566 
 2850      6665725F 
 2850      7400
 2851              	.LASF142:
 2852 00be 63685F74 		.ascii	"ch_threadsize\000"
 2852      68726561 
 2852      6473697A 
 2852      6500
 2853              	.LASF121:
 2854 00cc 65786974 		.ascii	"exitcode\000"
 2854      636F6465 
 2854      00
 2855              	.LASF90:
 2856 00d5 6D61696E 		.ascii	"mainthread\000"
 2856      74687265 
ARM GAS  /var/folders/d2/nstgp4h54kz7g1l847x_b8wc0000gn/T//ccOQyc64.s 			page 52


 2856      616400
 2857              	.LASF166:
 2858 00e0 74657374 		.ascii	"test\000"
 2858      00
 2859              	.LASF77:
 2860 00e5 76697274 		.ascii	"virtual_timers_list_t\000"
 2860      75616C5F 
 2860      74696D65 
 2860      72735F6C 
 2860      6973745F 
 2861              	.LASF93:
 2862 00fb 49544D5F 		.ascii	"ITM_RxBuffer\000"
 2862      52784275 
 2862      66666572 
 2862      00
 2863              	.LASF22:
 2864 0108 72747469 		.ascii	"rttime_t\000"
 2864      6D655F74 
 2864      00
 2865              	.LASF36:
 2866 0111 705F7072 		.ascii	"p_prio\000"
 2866      696F00
 2867              	.LASF149:
 2868 0118 63665F6F 		.ascii	"cf_off_state\000"
 2868      66665F73 
 2868      74617465 
 2868      00
 2869              	.LASF160:
 2870 0125 74656172 		.ascii	"teardown\000"
 2870      646F776E 
 2870      00
 2871              	.LASF156:
 2872 012e 6D757465 		.ascii	"mutex_t\000"
 2872      785F7400 
 2873              	.LASF1:
 2874 0136 6C6F6E67 		.ascii	"long long int\000"
 2874      206C6F6E 
 2874      6720696E 
 2874      7400
 2875              	.LASF3:
 2876 0144 7369676E 		.ascii	"signed char\000"
 2876      65642063 
 2876      68617200 
 2877              	.LASF148:
 2878 0150 63665F6F 		.ascii	"cf_off_stklimit\000"
 2878      66665F73 
 2878      746B6C69 
 2878      6D697400 
 2879              	.LASF150:
 2880 0160 63665F6F 		.ascii	"cf_off_flags\000"
 2880      66665F66 
 2880      6C616773 
 2880      00
 2881              	.LASF53:
 2882 016d 705F6D70 		.ascii	"p_mpool\000"
 2882      6F6F6C00 
 2883              	.LASF131:
ARM GAS  /var/folders/d2/nstgp4h54kz7g1l847x_b8wc0000gn/T//ccOQyc64.s 			page 53


 2884 0175 6D5F7175 		.ascii	"m_queue\000"
 2884      65756500 
 2885              	.LASF177:
 2886 017d 74657374 		.ascii	"test_emit_token\000"
 2886      5F656D69 
 2886      745F746F 
 2886      6B656E00 
 2887              	.LASF89:
 2888 018d 76746C69 		.ascii	"vtlist\000"
 2888      737400
 2889              	.LASF26:
 2890 0194 74736C69 		.ascii	"tslices_t\000"
 2890      6365735F 
 2890      7400
 2891              	.LASF123:
 2892 019e 77747472 		.ascii	"wttrp\000"
 2892      7000
 2893              	.LASF87:
 2894 01a4 63685F73 		.ascii	"ch_system\000"
 2894      79737465 
 2894      6D00
 2895              	.LASF11:
 2896 01ae 6C6F6E67 		.ascii	"long int\000"
 2896      20696E74 
 2896      00
 2897              	.LASF179:
 2898 01b7 63684D73 		.ascii	"chMsgSend\000"
 2898      6753656E 
 2898      6400
 2899              	.LASF24:
 2900 01c1 74737461 		.ascii	"tstate_t\000"
 2900      74655F74 
 2900      00
 2901              	.LASF100:
 2902 01ca 73655F74 		.ascii	"se_tp\000"
 2902      7000
 2903              	.LASF154:
 2904 01d0 63686465 		.ascii	"chdebug_t\000"
 2904      6275675F 
 2904      7400
 2905              	.LASF162:
 2906 01da 62756666 		.ascii	"buffer\000"
 2906      657200
 2907              	.LASF38:
 2908 01e1 705F6E65 		.ascii	"p_newer\000"
 2908      77657200 
 2909              	.LASF128:
 2910 01e9 735F7175 		.ascii	"s_queue\000"
 2910      65756500 
 2911              	.LASF104:
 2912 01f1 74625F73 		.ascii	"tb_size\000"
 2912      697A6500 
 2913              	.LASF66:
 2914 01f9 725F6E65 		.ascii	"r_newer\000"
 2914      77657200 
 2915              	.LASF95:
 2916 0201 72656761 		.ascii	"regarm_t\000"
ARM GAS  /var/folders/d2/nstgp4h54kz7g1l847x_b8wc0000gn/T//ccOQyc64.s 			page 54


 2916      726D5F74 
 2916      00
 2917              	.LASF73:
 2918 020a 76745F70 		.ascii	"vt_prev\000"
 2918      72657600 
 2919              	.LASF81:
 2920 0212 63685F73 		.ascii	"ch_system_debug\000"
 2920      79737465 
 2920      6D5F6465 
 2920      62756700 
 2921              	.LASF134:
 2922 0222 6D5F636E 		.ascii	"m_cnt\000"
 2922      7400
 2923              	.LASF72:
 2924 0228 76745F6E 		.ascii	"vt_next\000"
 2924      65787400 
 2925              	.LASF84:
 2926 0230 6C6F636B 		.ascii	"lock_cnt\000"
 2926      5F636E74 
 2926      00
 2927              	.LASF92:
 2928 0239 69646C65 		.ascii	"idle_thread_wa\000"
 2928      5F746872 
 2928      6561645F 
 2928      776100
 2929              	.LASF30:
 2930 0248 636E745F 		.ascii	"cnt_t\000"
 2930      7400
 2931              	.LASF41:
 2932 024e 705F7374 		.ascii	"p_stklimit\000"
 2932      6B6C696D 
 2932      697400
 2933              	.LASF0:
 2934 0259 756E7369 		.ascii	"unsigned int\000"
 2934      676E6564 
 2934      20696E74 
 2934      00
 2935              	.LASF180:
 2936 0266 474E5520 		.ascii	"GNU C11 7.2.1 20170904 (release) [ARM/embedded-7-br"
 2936      43313120 
 2936      372E322E 
 2936      31203230 
 2936      31373039 
 2937 0299 616E6368 		.ascii	"anch revision 255204] -mcpu=cortex-m4 -mfloat-abi=h"
 2937      20726576 
 2937      6973696F 
 2937      6E203235 
 2937      35323034 
 2938 02cc 61726420 		.ascii	"ard -mfpu=fpv4-sp-d16 -mno-thumb-interwork -mthumb "
 2938      2D6D6670 
 2938      753D6670 
 2938      76342D73 
 2938      702D6431 
 2939 02ff 2D676764 		.ascii	"-ggdb -O2 -fomit-frame-pointer -falign-functions=16"
 2939      62202D4F 
 2939      32202D66 
 2939      6F6D6974 
ARM GAS  /var/folders/d2/nstgp4h54kz7g1l847x_b8wc0000gn/T//ccOQyc64.s 			page 55


 2939      2D667261 
 2940 0332 202D666E 		.ascii	" -fno-strict-aliasing -fstack-protector-all -ffunct"
 2940      6F2D7374 
 2940      72696374 
 2940      2D616C69 
 2940      6173696E 
 2941 0365 696F6E2D 		.ascii	"ion-sections -fdata-sections -fno-common -fsingle-p"
 2941      73656374 
 2941      696F6E73 
 2941      202D6664 
 2941      6174612D 
 2942 0398 72656369 		.ascii	"recision-constant\000"
 2942      73696F6E 
 2942      2D636F6E 
 2942      7374616E 
 2942      7400
 2943              	.LASF17:
 2944 03aa 75696E74 		.ascii	"uint16_t\000"
 2944      31365F74 
 2944      00
 2945              	.LASF94:
 2946 03b3 53797374 		.ascii	"SystemCoreClock\000"
 2946      656D436F 
 2946      7265436C 
 2946      6F636B00 
 2947              	.LASF46:
 2948 03c3 705F7469 		.ascii	"p_time\000"
 2948      6D6500
 2949              	.LASF124:
 2950 03ca 77747365 		.ascii	"wtsemp\000"
 2950      6D7000
 2951              	.LASF74:
 2952 03d1 76745F64 		.ascii	"vt_delta\000"
 2952      656C7461 
 2952      00
 2953              	.LASF48:
 2954 03da 705F6D73 		.ascii	"p_msgqueue\000"
 2954      67717565 
 2954      756500
 2955              	.LASF155:
 2956 03e5 63685F64 		.ascii	"ch_debug\000"
 2956      65627567 
 2956      00
 2957              	.LASF184:
 2958 03ee 63684D73 		.ascii	"chMsgGet\000"
 2958      67476574 
 2958      00
 2959              	.LASF115:
 2960 03f7 6E5F6972 		.ascii	"n_irq\000"
 2960      7100
 2961              	.LASF129:
 2962 03fd 735F636E 		.ascii	"s_cnt\000"
 2962      7400
 2963              	.LASF158:
 2964 0403 6E616D65 		.ascii	"name\000"
 2964      00
 2965              	.LASF9:
ARM GAS  /var/folders/d2/nstgp4h54kz7g1l847x_b8wc0000gn/T//ccOQyc64.s 			page 56


 2966 0408 73686F72 		.ascii	"short unsigned int\000"
 2966      7420756E 
 2966      7369676E 
 2966      65642069 
 2966      6E7400
 2967              	.LASF119:
 2968 041b 6B65726E 		.ascii	"kernel_stats_t\000"
 2968      656C5F73 
 2968      74617473 
 2968      5F7400
 2969              	.LASF57:
 2970 042a 63685F74 		.ascii	"ch_thread\000"
 2970      68726561 
 2970      6400
 2971              	.LASF28:
 2972 0434 6D73675F 		.ascii	"msg_t\000"
 2972      7400
 2973              	.LASF112:
 2974 043a 6C617374 		.ascii	"last\000"
 2974      00
 2975              	.LASF31:
 2976 043f 75636E74 		.ascii	"ucnt_t\000"
 2976      5F7400
 2977              	.LASF86:
 2978 0446 63685F73 		.ascii	"ch_system_t\000"
 2978      79737465 
 2978      6D5F7400 
 2979              	.LASF144:
 2980 0452 63665F6F 		.ascii	"cf_off_ctx\000"
 2980      66665F63 
 2980      747800
 2981              	.LASF153:
 2982 045d 63665F6F 		.ascii	"cf_off_time\000"
 2982      66665F74 
 2982      696D6500 
 2983              	.LASF118:
 2984 0469 6D5F6372 		.ascii	"m_crit_isr\000"
 2984      69745F69 
 2984      737200
 2985              	.LASF62:
 2986 0474 63685F72 		.ascii	"ch_ready_list\000"
 2986      65616479 
 2986      5F6C6973 
 2986      7400
 2987              	.LASF29:
 2988 0482 6576656E 		.ascii	"eventmask_t\000"
 2988      746D6173 
 2988      6B5F7400 
 2989              	.LASF10:
 2990 048e 5F5F696E 		.ascii	"__int32_t\000"
 2990      7433325F 
 2990      7400
 2991              	.LASF96:
 2992 0498 73746B61 		.ascii	"stkalign_t\000"
 2992      6C69676E 
 2992      5F7400
 2993              	.LASF174:
ARM GAS  /var/folders/d2/nstgp4h54kz7g1l847x_b8wc0000gn/T//ccOQyc64.s 			page 57


 2994 04a3 63685468 		.ascii	"chThdCreateStatic\000"
 2994      64437265 
 2994      61746553 
 2994      74617469 
 2994      6300
 2995              	.LASF56:
 2996 04b5 74687265 		.ascii	"threads_list_t\000"
 2996      6164735F 
 2996      6C697374 
 2996      5F7400
 2997              	.LASF137:
 2998 04c4 63685F7A 		.ascii	"ch_zero\000"
 2998      65726F00 
 2999              	.LASF151:
 3000 04cc 63665F6F 		.ascii	"cf_off_refs\000"
 3000      66665F72 
 3000      65667300 
 3001              	.LASF64:
 3002 04d8 725F7072 		.ascii	"r_prio\000"
 3002      696F00
 3003              	.LASF47:
 3004 04df 705F7761 		.ascii	"p_waiting\000"
 3004      6974696E 
 3004      6700
 3005              	.LASF169:
 3006 04e9 70617474 		.ascii	"patternmsg\000"
 3006      65726E6D 
 3006      736700
 3007              	.LASF21:
 3008 04f4 7274636E 		.ascii	"rtcnt_t\000"
 3008      745F7400 
 3009              	.LASF109:
 3010 04fc 746D5F63 		.ascii	"tm_calibration_t\000"
 3010      616C6962 
 3010      72617469 
 3010      6F6E5F74 
 3010      00
 3011              	.LASF78:
 3012 050d 63685F76 		.ascii	"ch_virtual_timers_list\000"
 3012      69727475 
 3012      616C5F74 
 3012      696D6572 
 3012      735F6C69 
 3013              	.LASF2:
 3014 0524 6C6F6E67 		.ascii	"long double\000"
 3014      20646F75 
 3014      626C6500 
 3015              	.LASF141:
 3016 0530 63685F74 		.ascii	"ch_timesize\000"
 3016      696D6573 
 3016      697A6500 
 3017              	.LASF105:
 3018 053c 74625F70 		.ascii	"tb_ptr\000"
 3018      747200
 3019              	.LASF103:
 3020 0543 63685F73 		.ascii	"ch_swc_event_t\000"
 3020      77635F65 
ARM GAS  /var/folders/d2/nstgp4h54kz7g1l847x_b8wc0000gn/T//ccOQyc64.s 			page 58


 3020      76656E74 
 3020      5F7400
 3021              	.LASF147:
 3022 0552 63665F6F 		.ascii	"cf_off_name\000"
 3022      66665F6E 
 3022      616D6500 
 3023              	.LASF39:
 3024 055e 705F6F6C 		.ascii	"p_older\000"
 3024      64657200 
 3025              	.LASF65:
 3026 0566 725F6374 		.ascii	"r_ctx\000"
 3026      7800
 3027              	.LASF37:
 3028 056c 705F6374 		.ascii	"p_ctx\000"
 3028      7800
 3029              	.LASF172:
 3030 0572 63685468 		.ascii	"chThdGetPriorityX\000"
 3030      64476574 
 3030      5072696F 
 3030      72697479 
 3030      5800
 3031              	.LASF159:
 3032 0584 73657475 		.ascii	"setup\000"
 3032      7000
 3033              	.LASF178:
 3034 058a 5F746573 		.ascii	"_test_assert_sequence\000"
 3034      745F6173 
 3034      73657274 
 3034      5F736571 
 3034      75656E63 
 3035              	.LASF44:
 3036 05a0 705F7265 		.ascii	"p_refs\000"
 3036      667300
 3037              	.LASF68:
 3038 05a7 725F6375 		.ascii	"r_current\000"
 3038      7272656E 
 3038      7400
 3039              	.LASF67:
 3040 05b1 725F6F6C 		.ascii	"r_older\000"
 3040      64657200 
 3041              	.LASF14:
 3042 05b9 5F5F7569 		.ascii	"__uint64_t\000"
 3042      6E743634 
 3042      5F7400
 3043              	.LASF113:
 3044 05c4 63756D75 		.ascii	"cumulative\000"
 3044      6C617469 
 3044      766500
 3045              	.LASF25:
 3046 05cf 74726566 		.ascii	"trefs_t\000"
 3046      735F7400 
 3047              	.LASF106:
 3048 05d7 74625F62 		.ascii	"tb_buffer\000"
 3048      75666665 
 3048      7200
 3049              	.LASF140:
 3050 05e1 63685F70 		.ascii	"ch_ptrsize\000"
ARM GAS  /var/folders/d2/nstgp4h54kz7g1l847x_b8wc0000gn/T//ccOQyc64.s 			page 59


 3050      74727369 
 3050      7A6500
 3051              	.LASF70:
 3052 05ec 76697274 		.ascii	"virtual_timer_t\000"
 3052      75616C5F 
 3052      74696D65 
 3052      725F7400 
 3053              	.LASF35:
 3054 05fc 705F7072 		.ascii	"p_prev\000"
 3054      657600
 3055              	.LASF161:
 3056 0603 65786563 		.ascii	"execute\000"
 3056      75746500 
 3057              	.LASF27:
 3058 060b 74707269 		.ascii	"tprio_t\000"
 3058      6F5F7400 
 3059              	.LASF171:
 3060 0613 74687265 		.ascii	"thread\000"
 3060      616400
 3061              	.LASF116:
 3062 061a 6E5F6374 		.ascii	"n_ctxswc\000"
 3062      78737763 
 3062      00
 3063              	.LASF164:
 3064 0623 5F426F6F 		.ascii	"_Bool\000"
 3064      6C00
 3065              	.LASF18:
 3066 0629 696E7433 		.ascii	"int32_t\000"
 3066      325F7400 
 3067              	.LASF6:
 3068 0631 756E7369 		.ascii	"unsigned char\000"
 3068      676E6564 
 3068      20636861 
 3068      7200
 3069              	.LASF51:
 3070 063f 705F6D74 		.ascii	"p_mtxlist\000"
 3070      786C6973 
 3070      7400
 3071              	.LASF7:
 3072 0649 73686F72 		.ascii	"short int\000"
 3072      7420696E 
 3072      7400
 3073              	.LASF42:
 3074 0653 705F7374 		.ascii	"p_state\000"
 3074      61746500 
 3075              	.LASF45:
 3076 065b 705F7072 		.ascii	"p_preempt\000"
 3076      65656D70 
 3076      7400
 3077              	.LASF165:
 3078 0665 74687265 		.ascii	"threads\000"
 3078      61647300 
 3079              	.LASF167:
 3080 066d 74657374 		.ascii	"test_timer_done\000"
 3080      5F74696D 
 3080      65725F64 
 3080      6F6E6500 
ARM GAS  /var/folders/d2/nstgp4h54kz7g1l847x_b8wc0000gn/T//ccOQyc64.s 			page 60


 3081              	.LASF168:
 3082 067d 74657374 		.ascii	"testmsg1\000"
 3082      6D736731 
 3082      00
 3083              	.LASF126:
 3084 0686 65776D61 		.ascii	"ewmask\000"
 3084      736B00
 3085              	.LASF34:
 3086 068d 705F6E65 		.ascii	"p_next\000"
 3086      787400
 3087              	.LASF23:
 3088 0694 746D6F64 		.ascii	"tmode_t\000"
 3088      655F7400 
 3089              	.LASF152:
 3090 069c 63665F6F 		.ascii	"cf_off_preempt\000"
 3090      66665F70 
 3090      7265656D 
 3090      707400
 3091              	.LASF43:
 3092 06ab 705F666C 		.ascii	"p_flags\000"
 3092      61677300 
 3093              	.LASF54:
 3094 06b3 705F7374 		.ascii	"p_stats\000"
 3094      61747300 
 3095              	.LASF59:
 3096 06bb 74687265 		.ascii	"threads_queue_t\000"
 3096      6164735F 
 3096      71756575 
 3096      655F7400 
 3097              	.LASF71:
 3098 06cb 63685F76 		.ascii	"ch_virtual_timer\000"
 3098      69727475 
 3098      616C5F74 
 3098      696D6572 
 3098      00
 3099              	.LASF176:
 3100 06dc 63684D73 		.ascii	"chMsgRelease\000"
 3100      6752656C 
 3100      65617365 
 3100      00
 3101              	.LASF185:
 3102 06e9 5F5F7374 		.ascii	"__stack_chk_fail\000"
 3102      61636B5F 
 3102      63686B5F 
 3102      6661696C 
 3102      00
 3103              	.LASF127:
 3104 06fa 63685F73 		.ascii	"ch_semaphore\000"
 3104      656D6170 
 3104      686F7265 
 3104      00
 3105              	.LASF50:
 3106 0707 705F6570 		.ascii	"p_epending\000"
 3106      656E6469 
 3106      6E6700
 3107              	.LASF19:
 3108 0712 75696E74 		.ascii	"uint32_t\000"
ARM GAS  /var/folders/d2/nstgp4h54kz7g1l847x_b8wc0000gn/T//ccOQyc64.s 			page 61


 3108      33325F74 
 3108      00
 3109              	.LASF143:
 3110 071b 63665F6F 		.ascii	"cf_off_prio\000"
 3110      66665F70 
 3110      72696F00 
 3111              	.LASF63:
 3112 0727 725F7175 		.ascii	"r_queue\000"
 3112      65756500 
 3113              	.LASF58:
 3114 072f 63685F74 		.ascii	"ch_threads_list\000"
 3114      68726561 
 3114      64735F6C 
 3114      69737400 
 3115              	.LASF138:
 3116 073f 63685F73 		.ascii	"ch_size\000"
 3116      697A6500 
 3117              	.LASF13:
 3118 0747 6C6F6E67 		.ascii	"long unsigned int\000"
 3118      20756E73 
 3118      69676E65 
 3118      6420696E 
 3118      7400
 3119              	.LASF135:
 3120 0759 63686172 		.ascii	"char\000"
 3120      00
 3121              	.LASF125:
 3122 075e 77746D74 		.ascii	"wtmtxp\000"
 3122      787000
 3123              	.LASF8:
 3124 0765 5F5F7569 		.ascii	"__uint16_t\000"
 3124      6E743136 
 3124      5F7400
 3125              	.LASF33:
 3126 0770 74687265 		.ascii	"thread_t\000"
 3126      61645F74 
 3126      00
 3127              	.LASF110:
 3128 0779 62657374 		.ascii	"best\000"
 3128      00
 3129              	.LASF133:
 3130 077e 6D5F6E65 		.ascii	"m_next\000"
 3130      787400
 3131              	.LASF32:
 3132 0785 73797374 		.ascii	"systime_t\000"
 3132      696D655F 
 3132      7400
 3133              	.LASF52:
 3134 078f 705F7265 		.ascii	"p_realprio\000"
 3134      616C7072 
 3134      696F00
 3135              	.LASF69:
 3136 079a 76746675 		.ascii	"vtfunc_t\000"
 3136      6E635F74 
 3136      00
 3137              	.LASF12:
 3138 07a3 5F5F7569 		.ascii	"__uint32_t\000"
ARM GAS  /var/folders/d2/nstgp4h54kz7g1l847x_b8wc0000gn/T//ccOQyc64.s 			page 62


 3138      6E743332 
 3138      5F7400
 3139              	.LASF82:
 3140 07ae 70616E69 		.ascii	"panic_msg\000"
 3140      635F6D73 
 3140      6700
 3141              	.LASF163:
 3142 07b8 74657374 		.ascii	"test_global_fail\000"
 3142      5F676C6F 
 3142      62616C5F 
 3142      6661696C 
 3142      00
 3143              	.LASF108:
 3144 07c9 6F666673 		.ascii	"offset\000"
 3144      657400
 3145              	.LASF182:
 3146 07d0 2F557365 		.ascii	"/Users/bharathkeshavamurthy/Workspaces/Talos/src/ma"
 3146      72732F62 
 3146      68617261 
 3146      74686B65 
 3146      73686176 
 3147 0803 696E2F63 		.ascii	"in/cpp/org/purdue/ece/talos/optimize\000"
 3147      70702F6F 
 3147      72672F70 
 3147      75726475 
 3147      652F6563 
 3148              	.LASF97:
 3149 0828 636F6E74 		.ascii	"context\000"
 3149      65787400 
 3150              	.LASF49:
 3151 0830 705F6D73 		.ascii	"p_msg\000"
 3151      6700
 3152              	.LASF76:
 3153 0836 76745F70 		.ascii	"vt_par\000"
 3153      617200
 3154              	.LASF175:
 3155 083d 63684D73 		.ascii	"chMsgWait\000"
 3155      67576169 
 3155      7400
 3156              	.LASF157:
 3157 0847 74657374 		.ascii	"testcase\000"
 3157      63617365 
 3157      00
 3158              	.LASF183:
 3159 0850 74657374 		.ascii	"test_buffers\000"
 3159      5F627566 
 3159      66657273 
 3159      00
 3160              	.LASF130:
 3161 085d 63685F6D 		.ascii	"ch_mutex\000"
 3161      75746578 
 3161      00
 3162              	.LASF181:
 3163 0866 2E2E2F65 		.ascii	"../e-puck2_main-processor/ChibiOS//test/rt/testmsg."
 3163      2D707563 
 3163      6B325F6D 
 3163      61696E2D 
ARM GAS  /var/folders/d2/nstgp4h54kz7g1l847x_b8wc0000gn/T//ccOQyc64.s 			page 63


 3163      70726F63 
 3164 0899 6300     		.ascii	"c\000"
 3165              	.LASF83:
 3166 089b 6973725F 		.ascii	"isr_cnt\000"
 3166      636E7400 
 3167              	.LASF102:
 3168 08a3 73655F73 		.ascii	"se_state\000"
 3168      74617465 
 3168      00
 3169              	.LASF88:
 3170 08ac 726C6973 		.ascii	"rlist\000"
 3170      7400
 3171              	.LASF173:
 3172 08b2 63685468 		.ascii	"chThdGetSelfX\000"
 3172      64476574 
 3172      53656C66 
 3172      5800
 3173              	.LASF16:
 3174 08c0 75696E74 		.ascii	"uint8_t\000"
 3174      385F7400 
 3175              	.LASF170:
 3176 08c8 6D736731 		.ascii	"msg1_execute\000"
 3176      5F657865 
 3176      63757465 
 3176      00
 3177              	.LASF55:
 3178 08d5 74687265 		.ascii	"thread_reference_t\000"
 3178      61645F72 
 3178      65666572 
 3178      656E6365 
 3178      5F7400
 3179              	.LASF122:
 3180 08e8 77746F62 		.ascii	"wtobjp\000"
 3180      6A7000
 3181              	.LASF145:
 3182 08ef 63665F6F 		.ascii	"cf_off_newer\000"
 3182      66665F6E 
 3182      65776572 
 3182      00
 3183              	.LASF40:
 3184 08fc 705F6E61 		.ascii	"p_name\000"
 3184      6D6500
 3185              	.LASF79:
 3186 0903 76745F73 		.ascii	"vt_systime\000"
 3186      79737469 
 3186      6D6500
 3187              	.LASF85:
 3188 090e 74726163 		.ascii	"trace_buffer\000"
 3188      655F6275 
 3188      66666572 
 3188      00
 3189              	.LASF139:
 3190 091b 63685F76 		.ascii	"ch_version\000"
 3190      65727369 
 3190      6F6E00
 3191              	.LASF117:
 3192 0926 6D5F6372 		.ascii	"m_crit_thd\000"
ARM GAS  /var/folders/d2/nstgp4h54kz7g1l847x_b8wc0000gn/T//ccOQyc64.s 			page 64


 3192      69745F74 
 3192      686400
 3193              	.LASF132:
 3194 0931 6D5F6F77 		.ascii	"m_owner\000"
 3194      6E657200 
 3195              	.LASF101:
 3196 0939 73655F77 		.ascii	"se_wtobjp\000"
 3196      746F626A 
 3196      7000
 3197              	.LASF136:
 3198 0943 63685F69 		.ascii	"ch_identifier\000"
 3198      64656E74 
 3198      69666965 
 3198      7200
 3199              	.LASF75:
 3200 0951 76745F66 		.ascii	"vt_func\000"
 3200      756E6300 
 3201              		.ident	"GCC: (GNU Tools for Arm Embedded Processors 7-2017-q4-major) 7.2.1 20170904 (release) [ARM
ARM GAS  /var/folders/d2/nstgp4h54kz7g1l847x_b8wc0000gn/T//ccOQyc64.s 			page 65


DEFINED SYMBOLS
                            *ABS*:0000000000000000 testmsg.c
/var/folders/d2/nstgp4h54kz7g1l847x_b8wc0000gn/T//ccOQyc64.s:18     .text.msg1_execute:0000000000000000 $t
/var/folders/d2/nstgp4h54kz7g1l847x_b8wc0000gn/T//ccOQyc64.s:25     .text.msg1_execute:0000000000000000 msg1_execute
/var/folders/d2/nstgp4h54kz7g1l847x_b8wc0000gn/T//ccOQyc64.s:163    .text.msg1_execute:0000000000000078 $d
/var/folders/d2/nstgp4h54kz7g1l847x_b8wc0000gn/T//ccOQyc64.s:180    .text.thread:0000000000000000 thread
/var/folders/d2/nstgp4h54kz7g1l847x_b8wc0000gn/T//ccOQyc64.s:173    .text.thread:0000000000000000 $t
/var/folders/d2/nstgp4h54kz7g1l847x_b8wc0000gn/T//ccOQyc64.s:236    .text.thread:0000000000000034 $d
/var/folders/d2/nstgp4h54kz7g1l847x_b8wc0000gn/T//ccOQyc64.s:250    .rodata.patternmsg:0000000000000000 patternmsg
/var/folders/d2/nstgp4h54kz7g1l847x_b8wc0000gn/T//ccOQyc64.s:261    .rodata.testmsg1:0000000000000000 testmsg1
/var/folders/d2/nstgp4h54kz7g1l847x_b8wc0000gn/T//ccOQyc64.s:243    .rodata.msg1_execute.str1.4:0000000000000000 $d
/var/folders/d2/nstgp4h54kz7g1l847x_b8wc0000gn/T//ccOQyc64.s:247    .rodata.patternmsg:0000000000000000 $d
/var/folders/d2/nstgp4h54kz7g1l847x_b8wc0000gn/T//ccOQyc64.s:254    .rodata.str1.4:0000000000000000 $d
/var/folders/d2/nstgp4h54kz7g1l847x_b8wc0000gn/T//ccOQyc64.s:258    .rodata.testmsg1:0000000000000000 $d

UNDEFINED SYMBOLS
chThdCreateStatic
chMsgWait
chMsgRelease
test_emit_token
_test_assert_sequence
__stack_chk_fail
ch
wa
__stack_chk_guard
threads
chMsgSend
