ARM GAS  /var/folders/d2/nstgp4h54kz7g1l847x_b8wc0000gn/T//ccbTEVvj.s 			page 1


   1              		.cpu cortex-m4
   2              		.eabi_attribute 27, 1
   3              		.eabi_attribute 28, 1
   4              		.eabi_attribute 20, 1
   5              		.eabi_attribute 21, 1
   6              		.eabi_attribute 23, 3
   7              		.eabi_attribute 24, 1
   8              		.eabi_attribute 25, 1
   9              		.eabi_attribute 26, 1
  10              		.eabi_attribute 30, 6
  11              		.eabi_attribute 34, 1
  12              		.eabi_attribute 18, 4
  13              		.file	"testqueues.c"
  14              		.section	.text.port_lock,"ax",%progbits
  15              		.align	1
  16              		.syntax unified
  17              		.thumb
  18              		.thumb_func
  19              		.fpu fpv4-sp-d16
  20              		.type	port_lock, %function
  21              	port_lock:
  22              		@ args = 0, pretend = 0, frame = 8
  23              		@ frame_needed = 1, uses_anonymous_args = 0
  24              		@ link register save eliminated.
  25 0000 80B4     		push	{r7}
  26 0002 83B0     		sub	sp, sp, #12
  27 0004 00AF     		add	r7, sp, #0
  28 0006 2023     		movs	r3, #32
  29 0008 7B60     		str	r3, [r7, #4]
  30 000a 7B68     		ldr	r3, [r7, #4]
  31              		.syntax unified
  32              	@ 546 "../e-puck2_main-processor/ChibiOS//os/ext/CMSIS/include/core_cmFunc.h" 1
  33 000c 83F31188 		MSR basepri, r3
  34              	@ 0 "" 2
  35              		.thumb
  36              		.syntax unified
  37 0010 00BF     		nop
  38 0012 0C37     		adds	r7, r7, #12
  39 0014 BD46     		mov	sp, r7
  40              		@ sp needed
  41 0016 5DF8047B 		ldr	r7, [sp], #4
  42 001a 7047     		bx	lr
  43              		.size	port_lock, .-port_lock
  44              		.section	.text.port_unlock,"ax",%progbits
  45              		.align	1
  46              		.syntax unified
  47              		.thumb
  48              		.thumb_func
  49              		.fpu fpv4-sp-d16
  50              		.type	port_unlock, %function
  51              	port_unlock:
  52              		@ args = 0, pretend = 0, frame = 8
  53              		@ frame_needed = 1, uses_anonymous_args = 0
  54              		@ link register save eliminated.
  55 0000 80B4     		push	{r7}
  56 0002 83B0     		sub	sp, sp, #12
  57 0004 00AF     		add	r7, sp, #0
ARM GAS  /var/folders/d2/nstgp4h54kz7g1l847x_b8wc0000gn/T//ccbTEVvj.s 			page 2


  58 0006 0023     		movs	r3, #0
  59 0008 7B60     		str	r3, [r7, #4]
  60 000a 7B68     		ldr	r3, [r7, #4]
  61              		.syntax unified
  62              	@ 546 "../e-puck2_main-processor/ChibiOS//os/ext/CMSIS/include/core_cmFunc.h" 1
  63 000c 83F31188 		MSR basepri, r3
  64              	@ 0 "" 2
  65              		.thumb
  66              		.syntax unified
  67 0010 00BF     		nop
  68 0012 0C37     		adds	r7, r7, #12
  69 0014 BD46     		mov	sp, r7
  70              		@ sp needed
  71 0016 5DF8047B 		ldr	r7, [sp], #4
  72 001a 7047     		bx	lr
  73              		.size	port_unlock, .-port_unlock
  74              		.section	.text.chSysLock,"ax",%progbits
  75              		.align	1
  76              		.syntax unified
  77              		.thumb
  78              		.thumb_func
  79              		.fpu fpv4-sp-d16
  80              		.type	chSysLock, %function
  81              	chSysLock:
  82              		@ args = 0, pretend = 0, frame = 0
  83              		@ frame_needed = 1, uses_anonymous_args = 0
  84 0000 80B5     		push	{r7, lr}
  85 0002 00AF     		add	r7, sp, #0
  86 0004 FFF7FEFF 		bl	port_lock
  87 0008 FFF7FEFF 		bl	_stats_start_measure_crit_thd
  88 000c FFF7FEFF 		bl	_dbg_check_lock
  89 0010 00BF     		nop
  90 0012 80BD     		pop	{r7, pc}
  91              		.size	chSysLock, .-chSysLock
  92              		.section	.text.chSysUnlock,"ax",%progbits
  93              		.align	1
  94              		.syntax unified
  95              		.thumb
  96              		.thumb_func
  97              		.fpu fpv4-sp-d16
  98              		.type	chSysUnlock, %function
  99              	chSysUnlock:
 100              		@ args = 0, pretend = 0, frame = 0
 101              		@ frame_needed = 1, uses_anonymous_args = 0
 102 0000 80B5     		push	{r7, lr}
 103 0002 00AF     		add	r7, sp, #0
 104 0004 FFF7FEFF 		bl	_dbg_check_unlock
 105 0008 FFF7FEFF 		bl	_stats_stop_measure_crit_thd
 106 000c 094B     		ldr	r3, .L6
 107 000e 1B68     		ldr	r3, [r3]
 108 0010 084A     		ldr	r2, .L6
 109 0012 9342     		cmp	r3, r2
 110 0014 0AD0     		beq	.L5
 111 0016 074B     		ldr	r3, .L6
 112 0018 9B69     		ldr	r3, [r3, #24]
 113 001a 9A68     		ldr	r2, [r3, #8]
 114 001c 054B     		ldr	r3, .L6
ARM GAS  /var/folders/d2/nstgp4h54kz7g1l847x_b8wc0000gn/T//ccbTEVvj.s 			page 3


 115 001e 1B68     		ldr	r3, [r3]
 116 0020 9B68     		ldr	r3, [r3, #8]
 117 0022 9A42     		cmp	r2, r3
 118 0024 02D2     		bcs	.L5
 119 0026 0448     		ldr	r0, .L6+4
 120 0028 FFF7FEFF 		bl	chSysHalt
 121              	.L5:
 122 002c FFF7FEFF 		bl	port_unlock
 123 0030 00BF     		nop
 124 0032 80BD     		pop	{r7, pc}
 125              	.L7:
 126              		.align	2
 127              	.L6:
 128 0034 00000000 		.word	ch
 129 0038 00000000 		.word	__func__.7153
 130              		.size	chSysUnlock, .-chSysUnlock
 131              		.section	.text.chThdGetSelfX,"ax",%progbits
 132              		.align	1
 133              		.syntax unified
 134              		.thumb
 135              		.thumb_func
 136              		.fpu fpv4-sp-d16
 137              		.type	chThdGetSelfX, %function
 138              	chThdGetSelfX:
 139              		@ args = 0, pretend = 0, frame = 0
 140              		@ frame_needed = 1, uses_anonymous_args = 0
 141              		@ link register save eliminated.
 142 0000 80B4     		push	{r7}
 143 0002 00AF     		add	r7, sp, #0
 144 0004 034B     		ldr	r3, .L10
 145 0006 9B69     		ldr	r3, [r3, #24]
 146 0008 1846     		mov	r0, r3
 147 000a BD46     		mov	sp, r7
 148              		@ sp needed
 149 000c 5DF8047B 		ldr	r7, [sp], #4
 150 0010 7047     		bx	lr
 151              	.L11:
 152 0012 00BF     		.align	2
 153              	.L10:
 154 0014 00000000 		.word	ch
 155              		.size	chThdGetSelfX, .-chThdGetSelfX
 156              		.section	.text.chThdGetPriorityX,"ax",%progbits
 157              		.align	1
 158              		.syntax unified
 159              		.thumb
 160              		.thumb_func
 161              		.fpu fpv4-sp-d16
 162              		.type	chThdGetPriorityX, %function
 163              	chThdGetPriorityX:
 164              		@ args = 0, pretend = 0, frame = 0
 165              		@ frame_needed = 1, uses_anonymous_args = 0
 166 0000 80B5     		push	{r7, lr}
 167 0002 00AF     		add	r7, sp, #0
 168 0004 FFF7FEFF 		bl	chThdGetSelfX
 169 0008 0346     		mov	r3, r0
 170 000a 9B68     		ldr	r3, [r3, #8]
 171 000c 1846     		mov	r0, r3
ARM GAS  /var/folders/d2/nstgp4h54kz7g1l847x_b8wc0000gn/T//ccbTEVvj.s 			page 4


 172 000e 80BD     		pop	{r7, pc}
 173              		.size	chThdGetPriorityX, .-chThdGetPriorityX
 174              		.section	.text.chIQGetFullI,"ax",%progbits
 175              		.align	1
 176              		.syntax unified
 177              		.thumb
 178              		.thumb_func
 179              		.fpu fpv4-sp-d16
 180              		.type	chIQGetFullI, %function
 181              	chIQGetFullI:
 182              		@ args = 0, pretend = 0, frame = 8
 183              		@ frame_needed = 1, uses_anonymous_args = 0
 184 0000 80B5     		push	{r7, lr}
 185 0002 82B0     		sub	sp, sp, #8
 186 0004 00AF     		add	r7, sp, #0
 187 0006 7860     		str	r0, [r7, #4]
 188 0008 FFF7FEFF 		bl	chDbgCheckClassI
 189 000c 7B68     		ldr	r3, [r7, #4]
 190 000e 9B68     		ldr	r3, [r3, #8]
 191 0010 1846     		mov	r0, r3
 192 0012 0837     		adds	r7, r7, #8
 193 0014 BD46     		mov	sp, r7
 194              		@ sp needed
 195 0016 80BD     		pop	{r7, pc}
 196              		.size	chIQGetFullI, .-chIQGetFullI
 197              		.section	.text.chIQIsEmptyI,"ax",%progbits
 198              		.align	1
 199              		.syntax unified
 200              		.thumb
 201              		.thumb_func
 202              		.fpu fpv4-sp-d16
 203              		.type	chIQIsEmptyI, %function
 204              	chIQIsEmptyI:
 205              		@ args = 0, pretend = 0, frame = 8
 206              		@ frame_needed = 1, uses_anonymous_args = 0
 207 0000 80B5     		push	{r7, lr}
 208 0002 82B0     		sub	sp, sp, #8
 209 0004 00AF     		add	r7, sp, #0
 210 0006 7860     		str	r0, [r7, #4]
 211 0008 FFF7FEFF 		bl	chDbgCheckClassI
 212 000c 7B68     		ldr	r3, [r7, #4]
 213 000e 9B68     		ldr	r3, [r3, #8]
 214 0010 002B     		cmp	r3, #0
 215 0012 0CBF     		ite	eq
 216 0014 0123     		moveq	r3, #1
 217 0016 0023     		movne	r3, #0
 218 0018 DBB2     		uxtb	r3, r3
 219 001a 1846     		mov	r0, r3
 220 001c 0837     		adds	r7, r7, #8
 221 001e BD46     		mov	sp, r7
 222              		@ sp needed
 223 0020 80BD     		pop	{r7, pc}
 224              		.size	chIQIsEmptyI, .-chIQIsEmptyI
 225              		.section	.text.chIQIsFullI,"ax",%progbits
 226              		.align	1
 227              		.syntax unified
 228              		.thumb
ARM GAS  /var/folders/d2/nstgp4h54kz7g1l847x_b8wc0000gn/T//ccbTEVvj.s 			page 5


 229              		.thumb_func
 230              		.fpu fpv4-sp-d16
 231              		.type	chIQIsFullI, %function
 232              	chIQIsFullI:
 233              		@ args = 0, pretend = 0, frame = 8
 234              		@ frame_needed = 1, uses_anonymous_args = 0
 235 0000 80B5     		push	{r7, lr}
 236 0002 82B0     		sub	sp, sp, #8
 237 0004 00AF     		add	r7, sp, #0
 238 0006 7860     		str	r0, [r7, #4]
 239 0008 FFF7FEFF 		bl	chDbgCheckClassI
 240 000c 7B68     		ldr	r3, [r7, #4]
 241 000e 5A69     		ldr	r2, [r3, #20]
 242 0010 7B68     		ldr	r3, [r7, #4]
 243 0012 9B69     		ldr	r3, [r3, #24]
 244 0014 9A42     		cmp	r2, r3
 245 0016 05D1     		bne	.L19
 246 0018 7B68     		ldr	r3, [r7, #4]
 247 001a 9B68     		ldr	r3, [r3, #8]
 248 001c 002B     		cmp	r3, #0
 249 001e 01D0     		beq	.L19
 250 0020 0123     		movs	r3, #1
 251 0022 00E0     		b	.L20
 252              	.L19:
 253 0024 0023     		movs	r3, #0
 254              	.L20:
 255 0026 03F00103 		and	r3, r3, #1
 256 002a DBB2     		uxtb	r3, r3
 257 002c 1846     		mov	r0, r3
 258 002e 0837     		adds	r7, r7, #8
 259 0030 BD46     		mov	sp, r7
 260              		@ sp needed
 261 0032 80BD     		pop	{r7, pc}
 262              		.size	chIQIsFullI, .-chIQIsFullI
 263              		.section	.text.chIQGet,"ax",%progbits
 264              		.align	1
 265              		.syntax unified
 266              		.thumb
 267              		.thumb_func
 268              		.fpu fpv4-sp-d16
 269              		.type	chIQGet, %function
 270              	chIQGet:
 271              		@ args = 0, pretend = 0, frame = 8
 272              		@ frame_needed = 1, uses_anonymous_args = 0
 273 0000 80B5     		push	{r7, lr}
 274 0002 82B0     		sub	sp, sp, #8
 275 0004 00AF     		add	r7, sp, #0
 276 0006 7860     		str	r0, [r7, #4]
 277 0008 4FF0FF31 		mov	r1, #-1
 278 000c 7868     		ldr	r0, [r7, #4]
 279 000e FFF7FEFF 		bl	chIQGetTimeout
 280 0012 0346     		mov	r3, r0
 281 0014 1846     		mov	r0, r3
 282 0016 0837     		adds	r7, r7, #8
 283 0018 BD46     		mov	sp, r7
 284              		@ sp needed
 285 001a 80BD     		pop	{r7, pc}
ARM GAS  /var/folders/d2/nstgp4h54kz7g1l847x_b8wc0000gn/T//ccbTEVvj.s 			page 6


 286              		.size	chIQGet, .-chIQGet
 287              		.section	.text.chOQGetFullI,"ax",%progbits
 288              		.align	1
 289              		.syntax unified
 290              		.thumb
 291              		.thumb_func
 292              		.fpu fpv4-sp-d16
 293              		.type	chOQGetFullI, %function
 294              	chOQGetFullI:
 295              		@ args = 0, pretend = 0, frame = 8
 296              		@ frame_needed = 1, uses_anonymous_args = 0
 297 0000 80B5     		push	{r7, lr}
 298 0002 82B0     		sub	sp, sp, #8
 299 0004 00AF     		add	r7, sp, #0
 300 0006 7860     		str	r0, [r7, #4]
 301 0008 FFF7FEFF 		bl	chDbgCheckClassI
 302 000c 7B68     		ldr	r3, [r7, #4]
 303 000e 1B69     		ldr	r3, [r3, #16]
 304 0010 1A46     		mov	r2, r3
 305 0012 7B68     		ldr	r3, [r7, #4]
 306 0014 DB68     		ldr	r3, [r3, #12]
 307 0016 D31A     		subs	r3, r2, r3
 308 0018 1A46     		mov	r2, r3
 309 001a 7B68     		ldr	r3, [r7, #4]
 310 001c 9B68     		ldr	r3, [r3, #8]
 311 001e D31A     		subs	r3, r2, r3
 312 0020 1846     		mov	r0, r3
 313 0022 0837     		adds	r7, r7, #8
 314 0024 BD46     		mov	sp, r7
 315              		@ sp needed
 316 0026 80BD     		pop	{r7, pc}
 317              		.size	chOQGetFullI, .-chOQGetFullI
 318              		.section	.text.chOQIsEmptyI,"ax",%progbits
 319              		.align	1
 320              		.syntax unified
 321              		.thumb
 322              		.thumb_func
 323              		.fpu fpv4-sp-d16
 324              		.type	chOQIsEmptyI, %function
 325              	chOQIsEmptyI:
 326              		@ args = 0, pretend = 0, frame = 8
 327              		@ frame_needed = 1, uses_anonymous_args = 0
 328 0000 80B5     		push	{r7, lr}
 329 0002 82B0     		sub	sp, sp, #8
 330 0004 00AF     		add	r7, sp, #0
 331 0006 7860     		str	r0, [r7, #4]
 332 0008 FFF7FEFF 		bl	chDbgCheckClassI
 333 000c 7B68     		ldr	r3, [r7, #4]
 334 000e 5A69     		ldr	r2, [r3, #20]
 335 0010 7B68     		ldr	r3, [r7, #4]
 336 0012 9B69     		ldr	r3, [r3, #24]
 337 0014 9A42     		cmp	r2, r3
 338 0016 05D1     		bne	.L27
 339 0018 7B68     		ldr	r3, [r7, #4]
 340 001a 9B68     		ldr	r3, [r3, #8]
 341 001c 002B     		cmp	r3, #0
 342 001e 01D0     		beq	.L27
ARM GAS  /var/folders/d2/nstgp4h54kz7g1l847x_b8wc0000gn/T//ccbTEVvj.s 			page 7


 343 0020 0123     		movs	r3, #1
 344 0022 00E0     		b	.L28
 345              	.L27:
 346 0024 0023     		movs	r3, #0
 347              	.L28:
 348 0026 03F00103 		and	r3, r3, #1
 349 002a DBB2     		uxtb	r3, r3
 350 002c 1846     		mov	r0, r3
 351 002e 0837     		adds	r7, r7, #8
 352 0030 BD46     		mov	sp, r7
 353              		@ sp needed
 354 0032 80BD     		pop	{r7, pc}
 355              		.size	chOQIsEmptyI, .-chOQIsEmptyI
 356              		.section	.text.chOQIsFullI,"ax",%progbits
 357              		.align	1
 358              		.syntax unified
 359              		.thumb
 360              		.thumb_func
 361              		.fpu fpv4-sp-d16
 362              		.type	chOQIsFullI, %function
 363              	chOQIsFullI:
 364              		@ args = 0, pretend = 0, frame = 8
 365              		@ frame_needed = 1, uses_anonymous_args = 0
 366 0000 80B5     		push	{r7, lr}
 367 0002 82B0     		sub	sp, sp, #8
 368 0004 00AF     		add	r7, sp, #0
 369 0006 7860     		str	r0, [r7, #4]
 370 0008 FFF7FEFF 		bl	chDbgCheckClassI
 371 000c 7B68     		ldr	r3, [r7, #4]
 372 000e 9B68     		ldr	r3, [r3, #8]
 373 0010 002B     		cmp	r3, #0
 374 0012 0CBF     		ite	eq
 375 0014 0123     		moveq	r3, #1
 376 0016 0023     		movne	r3, #0
 377 0018 DBB2     		uxtb	r3, r3
 378 001a 1846     		mov	r0, r3
 379 001c 0837     		adds	r7, r7, #8
 380 001e BD46     		mov	sp, r7
 381              		@ sp needed
 382 0020 80BD     		pop	{r7, pc}
 383              		.size	chOQIsFullI, .-chOQIsFullI
 384              		.section	.text.chOQPut,"ax",%progbits
 385              		.align	1
 386              		.syntax unified
 387              		.thumb
 388              		.thumb_func
 389              		.fpu fpv4-sp-d16
 390              		.type	chOQPut, %function
 391              	chOQPut:
 392              		@ args = 0, pretend = 0, frame = 8
 393              		@ frame_needed = 1, uses_anonymous_args = 0
 394 0000 80B5     		push	{r7, lr}
 395 0002 82B0     		sub	sp, sp, #8
 396 0004 00AF     		add	r7, sp, #0
 397 0006 7860     		str	r0, [r7, #4]
 398 0008 0B46     		mov	r3, r1
 399 000a FB70     		strb	r3, [r7, #3]
ARM GAS  /var/folders/d2/nstgp4h54kz7g1l847x_b8wc0000gn/T//ccbTEVvj.s 			page 8


 400 000c FB78     		ldrb	r3, [r7, #3]	@ zero_extendqisi2
 401 000e 4FF0FF32 		mov	r2, #-1
 402 0012 1946     		mov	r1, r3
 403 0014 7868     		ldr	r0, [r7, #4]
 404 0016 FFF7FEFF 		bl	chOQPutTimeout
 405 001a 0346     		mov	r3, r0
 406 001c 1846     		mov	r0, r3
 407 001e 0837     		adds	r7, r7, #8
 408 0020 BD46     		mov	sp, r7
 409              		@ sp needed
 410 0022 80BD     		pop	{r7, pc}
 411              		.size	chOQPut, .-chOQPut
 412              		.section	.text.notify,"ax",%progbits
 413              		.align	1
 414              		.syntax unified
 415              		.thumb
 416              		.thumb_func
 417              		.fpu fpv4-sp-d16
 418              		.type	notify, %function
 419              	notify:
 420              		@ args = 0, pretend = 0, frame = 8
 421              		@ frame_needed = 1, uses_anonymous_args = 0
 422              		@ link register save eliminated.
 423 0000 80B4     		push	{r7}
 424 0002 83B0     		sub	sp, sp, #12
 425 0004 00AF     		add	r7, sp, #0
 426 0006 7860     		str	r0, [r7, #4]
 427 0008 00BF     		nop
 428 000a 0C37     		adds	r7, r7, #12
 429 000c BD46     		mov	sp, r7
 430              		@ sp needed
 431 000e 5DF8047B 		ldr	r7, [sp], #4
 432 0012 7047     		bx	lr
 433              		.size	notify, .-notify
 434              		.section	.data.iq,"aw",%progbits
 435              		.align	2
 436              		.type	iq, %object
 437              		.size	iq, 36
 438              	iq:
 439 0000 00000000 		.word	iq
 440 0004 00000000 		.word	iq
 441 0008 00000000 		.word	0
 442 000c 00000000 		.word	test
 443 0010 04000000 		.word	test+4
 444 0014 00000000 		.word	test
 445 0018 00000000 		.word	test
 446 001c 00000000 		.word	notify
 447 0020 00000000 		.word	0
 448              		.section	.data.oq,"aw",%progbits
 449              		.align	2
 450              		.type	oq, %object
 451              		.size	oq, 36
 452              	oq:
 453 0000 00000000 		.word	oq
 454 0004 00000000 		.word	oq
 455 0008 04000000 		.word	4
 456 000c F8010000 		.word	test+504
ARM GAS  /var/folders/d2/nstgp4h54kz7g1l847x_b8wc0000gn/T//ccbTEVvj.s 			page 9


 457 0010 FC010000 		.word	test+508
 458 0014 F8010000 		.word	test+504
 459 0018 F8010000 		.word	test+504
 460 001c 00000000 		.word	notify
 461 0020 00000000 		.word	0
 462              		.section	.text.queues1_setup,"ax",%progbits
 463              		.align	1
 464              		.syntax unified
 465              		.thumb
 466              		.thumb_func
 467              		.fpu fpv4-sp-d16
 468              		.type	queues1_setup, %function
 469              	queues1_setup:
 470              		@ args = 0, pretend = 0, frame = 0
 471              		@ frame_needed = 1, uses_anonymous_args = 0
 472 0000 80B5     		push	{r7, lr}
 473 0002 82B0     		sub	sp, sp, #8
 474 0004 02AF     		add	r7, sp, #8
 475 0006 064B     		ldr	r3, .L36
 476 0008 1968     		ldr	r1, [r3]
 477 000a 0023     		movs	r3, #0
 478 000c 0093     		str	r3, [sp]
 479 000e 054B     		ldr	r3, .L36+4
 480 0010 0422     		movs	r2, #4
 481 0012 0548     		ldr	r0, .L36+8
 482 0014 FFF7FEFF 		bl	chIQObjectInit
 483 0018 00BF     		nop
 484 001a BD46     		mov	sp, r7
 485              		@ sp needed
 486 001c 80BD     		pop	{r7, pc}
 487              	.L37:
 488 001e 00BF     		.align	2
 489              	.L36:
 490 0020 00000000 		.word	wa
 491 0024 00000000 		.word	notify
 492 0028 00000000 		.word	iq
 493              		.size	queues1_setup, .-queues1_setup
 494              		.section	.text.thread1,"ax",%progbits
 495              		.align	1
 496              		.syntax unified
 497              		.thumb
 498              		.thumb_func
 499              		.fpu fpv4-sp-d16
 500              		.type	thread1, %function
 501              	thread1:
 502              		@ args = 0, pretend = 0, frame = 8
 503              		@ frame_needed = 1, uses_anonymous_args = 0
 504 0000 80B5     		push	{r7, lr}
 505 0002 82B0     		sub	sp, sp, #8
 506 0004 00AF     		add	r7, sp, #0
 507 0006 7860     		str	r0, [r7, #4]
 508 0008 C821     		movs	r1, #200
 509 000a 0348     		ldr	r0, .L39
 510 000c FFF7FEFF 		bl	chIQGetTimeout
 511 0010 00BF     		nop
 512 0012 0837     		adds	r7, r7, #8
 513 0014 BD46     		mov	sp, r7
ARM GAS  /var/folders/d2/nstgp4h54kz7g1l847x_b8wc0000gn/T//ccbTEVvj.s 			page 10


 514              		@ sp needed
 515 0016 80BD     		pop	{r7, pc}
 516              	.L40:
 517              		.align	2
 518              	.L39:
 519 0018 00000000 		.word	iq
 520              		.size	thread1, .-thread1
 521              		.section	.rodata
 522              		.align	2
 523              	.LC0:
 524 0000 41424344 		.ascii	"ABCD\000"
 524      00
 525              		.section	.text.queues1_execute,"ax",%progbits
 526              		.align	1
 527              		.syntax unified
 528              		.thumb
 529              		.thumb_func
 530              		.fpu fpv4-sp-d16
 531              		.type	queues1_execute, %function
 532              	queues1_execute:
 533              		@ args = 0, pretend = 0, frame = 8
 534              		@ frame_needed = 1, uses_anonymous_args = 0
 535 0000 90B5     		push	{r4, r7, lr}
 536 0002 85B0     		sub	sp, sp, #20
 537 0004 02AF     		add	r7, sp, #8
 538 0006 FFF7FEFF 		bl	chSysLock
 539 000a B948     		ldr	r0, .L67
 540 000c FFF7FEFF 		bl	chIQIsEmptyI
 541 0010 0346     		mov	r3, r0
 542 0012 1946     		mov	r1, r3
 543 0014 0120     		movs	r0, #1
 544 0016 FFF7FEFF 		bl	_test_assert
 545 001a 0346     		mov	r3, r0
 546 001c 002B     		cmp	r3, #0
 547 001e 02D0     		beq	.L42
 548 0020 FFF7FEFF 		bl	chSysUnlock
 549 0024 60E1     		b	.L41
 550              	.L42:
 551 0026 FFF7FEFF 		bl	chSysUnlock
 552 002a FFF7FEFF 		bl	chSysLock
 553 002e 0023     		movs	r3, #0
 554 0030 7B60     		str	r3, [r7, #4]
 555 0032 0AE0     		b	.L44
 556              	.L45:
 557 0034 7B68     		ldr	r3, [r7, #4]
 558 0036 DBB2     		uxtb	r3, r3
 559 0038 4133     		adds	r3, r3, #65
 560 003a DBB2     		uxtb	r3, r3
 561 003c 1946     		mov	r1, r3
 562 003e AC48     		ldr	r0, .L67
 563 0040 FFF7FEFF 		bl	chIQPutI
 564 0044 7B68     		ldr	r3, [r7, #4]
 565 0046 0133     		adds	r3, r3, #1
 566 0048 7B60     		str	r3, [r7, #4]
 567              	.L44:
 568 004a 7B68     		ldr	r3, [r7, #4]
 569 004c 032B     		cmp	r3, #3
ARM GAS  /var/folders/d2/nstgp4h54kz7g1l847x_b8wc0000gn/T//ccbTEVvj.s 			page 11


 570 004e F1D9     		bls	.L45
 571 0050 FFF7FEFF 		bl	chSysUnlock
 572 0054 FFF7FEFF 		bl	chSysLock
 573 0058 A548     		ldr	r0, .L67
 574 005a FFF7FEFF 		bl	chIQIsFullI
 575 005e 0346     		mov	r3, r0
 576 0060 1946     		mov	r1, r3
 577 0062 0220     		movs	r0, #2
 578 0064 FFF7FEFF 		bl	_test_assert
 579 0068 0346     		mov	r3, r0
 580 006a 002B     		cmp	r3, #0
 581 006c 02D0     		beq	.L46
 582 006e FFF7FEFF 		bl	chSysUnlock
 583 0072 39E1     		b	.L41
 584              	.L46:
 585 0074 FFF7FEFF 		bl	chSysUnlock
 586 0078 FFF7FEFF 		bl	chSysLock
 587 007c 0021     		movs	r1, #0
 588 007e 9C48     		ldr	r0, .L67
 589 0080 FFF7FEFF 		bl	chIQPutI
 590 0084 0346     		mov	r3, r0
 591 0086 13F1040F 		cmn	r3, #4
 592 008a 0CBF     		ite	eq
 593 008c 0123     		moveq	r3, #1
 594 008e 0023     		movne	r3, #0
 595 0090 DBB2     		uxtb	r3, r3
 596 0092 1946     		mov	r1, r3
 597 0094 0320     		movs	r0, #3
 598 0096 FFF7FEFF 		bl	_test_assert
 599 009a 0346     		mov	r3, r0
 600 009c 002B     		cmp	r3, #0
 601 009e 02D0     		beq	.L47
 602 00a0 FFF7FEFF 		bl	chSysUnlock
 603 00a4 20E1     		b	.L41
 604              	.L47:
 605 00a6 FFF7FEFF 		bl	chSysUnlock
 606 00aa 0023     		movs	r3, #0
 607 00ac 7B60     		str	r3, [r7, #4]
 608 00ae 0AE0     		b	.L48
 609              	.L49:
 610 00b0 8F48     		ldr	r0, .L67
 611 00b2 FFF7FEFF 		bl	chIQGet
 612 00b6 0346     		mov	r3, r0
 613 00b8 DBB2     		uxtb	r3, r3
 614 00ba 1846     		mov	r0, r3
 615 00bc FFF7FEFF 		bl	test_emit_token
 616 00c0 7B68     		ldr	r3, [r7, #4]
 617 00c2 0133     		adds	r3, r3, #1
 618 00c4 7B60     		str	r3, [r7, #4]
 619              	.L48:
 620 00c6 7B68     		ldr	r3, [r7, #4]
 621 00c8 032B     		cmp	r3, #3
 622 00ca F1D9     		bls	.L49
 623 00cc FFF7FEFF 		bl	chSysLock
 624 00d0 8748     		ldr	r0, .L67
 625 00d2 FFF7FEFF 		bl	chIQIsEmptyI
 626 00d6 0346     		mov	r3, r0
ARM GAS  /var/folders/d2/nstgp4h54kz7g1l847x_b8wc0000gn/T//ccbTEVvj.s 			page 12


 627 00d8 1946     		mov	r1, r3
 628 00da 0420     		movs	r0, #4
 629 00dc FFF7FEFF 		bl	_test_assert
 630 00e0 0346     		mov	r3, r0
 631 00e2 002B     		cmp	r3, #0
 632 00e4 02D0     		beq	.L50
 633 00e6 FFF7FEFF 		bl	chSysUnlock
 634 00ea FDE0     		b	.L41
 635              	.L50:
 636 00ec FFF7FEFF 		bl	chSysUnlock
 637 00f0 8049     		ldr	r1, .L67+4
 638 00f2 0520     		movs	r0, #5
 639 00f4 FFF7FEFF 		bl	_test_assert_sequence
 640 00f8 0346     		mov	r3, r0
 641 00fa 002B     		cmp	r3, #0
 642 00fc 40F0ED80 		bne	.L63
 643 0100 FFF7FEFF 		bl	chSysLock
 644 0104 0023     		movs	r3, #0
 645 0106 7B60     		str	r3, [r7, #4]
 646 0108 0AE0     		b	.L52
 647              	.L53:
 648 010a 7B68     		ldr	r3, [r7, #4]
 649 010c DBB2     		uxtb	r3, r3
 650 010e 4133     		adds	r3, r3, #65
 651 0110 DBB2     		uxtb	r3, r3
 652 0112 1946     		mov	r1, r3
 653 0114 7648     		ldr	r0, .L67
 654 0116 FFF7FEFF 		bl	chIQPutI
 655 011a 7B68     		ldr	r3, [r7, #4]
 656 011c 0133     		adds	r3, r3, #1
 657 011e 7B60     		str	r3, [r7, #4]
 658              	.L52:
 659 0120 7B68     		ldr	r3, [r7, #4]
 660 0122 032B     		cmp	r3, #3
 661 0124 F1D9     		bls	.L53
 662 0126 FFF7FEFF 		bl	chSysUnlock
 663 012a 734B     		ldr	r3, .L67+8
 664 012c 5968     		ldr	r1, [r3, #4]
 665 012e 0023     		movs	r3, #0
 666 0130 0822     		movs	r2, #8
 667 0132 6F48     		ldr	r0, .L67
 668 0134 FFF7FEFF 		bl	chIQReadTimeout
 669 0138 3860     		str	r0, [r7]
 670 013a 3B68     		ldr	r3, [r7]
 671 013c 042B     		cmp	r3, #4
 672 013e 0CBF     		ite	eq
 673 0140 0123     		moveq	r3, #1
 674 0142 0023     		movne	r3, #0
 675 0144 DBB2     		uxtb	r3, r3
 676 0146 1946     		mov	r1, r3
 677 0148 0620     		movs	r0, #6
 678 014a FFF7FEFF 		bl	_test_assert
 679 014e 0346     		mov	r3, r0
 680 0150 002B     		cmp	r3, #0
 681 0152 40F0C480 		bne	.L64
 682 0156 FFF7FEFF 		bl	chSysLock
 683 015a 6548     		ldr	r0, .L67
ARM GAS  /var/folders/d2/nstgp4h54kz7g1l847x_b8wc0000gn/T//ccbTEVvj.s 			page 13


 684 015c FFF7FEFF 		bl	chIQIsEmptyI
 685 0160 0346     		mov	r3, r0
 686 0162 1946     		mov	r1, r3
 687 0164 0720     		movs	r0, #7
 688 0166 FFF7FEFF 		bl	_test_assert
 689 016a 0346     		mov	r3, r0
 690 016c 002B     		cmp	r3, #0
 691 016e 02D0     		beq	.L55
 692 0170 FFF7FEFF 		bl	chSysUnlock
 693 0174 B8E0     		b	.L41
 694              	.L55:
 695 0176 FFF7FEFF 		bl	chSysUnlock
 696 017a FFF7FEFF 		bl	chSysLock
 697 017e 0023     		movs	r3, #0
 698 0180 7B60     		str	r3, [r7, #4]
 699 0182 0AE0     		b	.L56
 700              	.L57:
 701 0184 7B68     		ldr	r3, [r7, #4]
 702 0186 DBB2     		uxtb	r3, r3
 703 0188 4133     		adds	r3, r3, #65
 704 018a DBB2     		uxtb	r3, r3
 705 018c 1946     		mov	r1, r3
 706 018e 5848     		ldr	r0, .L67
 707 0190 FFF7FEFF 		bl	chIQPutI
 708 0194 7B68     		ldr	r3, [r7, #4]
 709 0196 0133     		adds	r3, r3, #1
 710 0198 7B60     		str	r3, [r7, #4]
 711              	.L56:
 712 019a 7B68     		ldr	r3, [r7, #4]
 713 019c 032B     		cmp	r3, #3
 714 019e F1D9     		bls	.L57
 715 01a0 FFF7FEFF 		bl	chSysUnlock
 716 01a4 544B     		ldr	r3, .L67+8
 717 01a6 5968     		ldr	r1, [r3, #4]
 718 01a8 0023     		movs	r3, #0
 719 01aa 0222     		movs	r2, #2
 720 01ac 5048     		ldr	r0, .L67
 721 01ae FFF7FEFF 		bl	chIQReadTimeout
 722 01b2 3860     		str	r0, [r7]
 723 01b4 3B68     		ldr	r3, [r7]
 724 01b6 022B     		cmp	r3, #2
 725 01b8 0CBF     		ite	eq
 726 01ba 0123     		moveq	r3, #1
 727 01bc 0023     		movne	r3, #0
 728 01be DBB2     		uxtb	r3, r3
 729 01c0 1946     		mov	r1, r3
 730 01c2 0820     		movs	r0, #8
 731 01c4 FFF7FEFF 		bl	_test_assert
 732 01c8 0346     		mov	r3, r0
 733 01ca 002B     		cmp	r3, #0
 734 01cc 40F08980 		bne	.L65
 735 01d0 494B     		ldr	r3, .L67+8
 736 01d2 5968     		ldr	r1, [r3, #4]
 737 01d4 0023     		movs	r3, #0
 738 01d6 0222     		movs	r2, #2
 739 01d8 4548     		ldr	r0, .L67
 740 01da FFF7FEFF 		bl	chIQReadTimeout
ARM GAS  /var/folders/d2/nstgp4h54kz7g1l847x_b8wc0000gn/T//ccbTEVvj.s 			page 14


 741 01de 3860     		str	r0, [r7]
 742 01e0 3B68     		ldr	r3, [r7]
 743 01e2 022B     		cmp	r3, #2
 744 01e4 0CBF     		ite	eq
 745 01e6 0123     		moveq	r3, #1
 746 01e8 0023     		movne	r3, #0
 747 01ea DBB2     		uxtb	r3, r3
 748 01ec 1946     		mov	r1, r3
 749 01ee 0920     		movs	r0, #9
 750 01f0 FFF7FEFF 		bl	_test_assert
 751 01f4 0346     		mov	r3, r0
 752 01f6 002B     		cmp	r3, #0
 753 01f8 75D1     		bne	.L66
 754 01fa FFF7FEFF 		bl	chSysLock
 755 01fe 3C48     		ldr	r0, .L67
 756 0200 FFF7FEFF 		bl	chIQIsEmptyI
 757 0204 0346     		mov	r3, r0
 758 0206 1946     		mov	r1, r3
 759 0208 0A20     		movs	r0, #10
 760 020a FFF7FEFF 		bl	_test_assert
 761 020e 0346     		mov	r3, r0
 762 0210 002B     		cmp	r3, #0
 763 0212 02D0     		beq	.L60
 764 0214 FFF7FEFF 		bl	chSysUnlock
 765 0218 66E0     		b	.L41
 766              	.L60:
 767 021a FFF7FEFF 		bl	chSysUnlock
 768 021e FFF7FEFF 		bl	chSysLock
 769 0222 0021     		movs	r1, #0
 770 0224 3248     		ldr	r0, .L67
 771 0226 FFF7FEFF 		bl	chIQPutI
 772 022a 3148     		ldr	r0, .L67
 773 022c FFF7FEFF 		bl	chIQResetI
 774 0230 FFF7FEFF 		bl	chSysUnlock
 775 0234 FFF7FEFF 		bl	chSysLock
 776 0238 2D48     		ldr	r0, .L67
 777 023a FFF7FEFF 		bl	chIQGetFullI
 778 023e 0346     		mov	r3, r0
 779 0240 002B     		cmp	r3, #0
 780 0242 0CBF     		ite	eq
 781 0244 0123     		moveq	r3, #1
 782 0246 0023     		movne	r3, #0
 783 0248 DBB2     		uxtb	r3, r3
 784 024a 1946     		mov	r1, r3
 785 024c 0B20     		movs	r0, #11
 786 024e FFF7FEFF 		bl	_test_assert
 787 0252 0346     		mov	r3, r0
 788 0254 002B     		cmp	r3, #0
 789 0256 02D0     		beq	.L61
 790 0258 FFF7FEFF 		bl	chSysUnlock
 791 025c 44E0     		b	.L41
 792              	.L61:
 793 025e FFF7FEFF 		bl	chSysUnlock
 794 0262 254B     		ldr	r3, .L67+8
 795 0264 1C68     		ldr	r4, [r3]
 796 0266 FFF7FEFF 		bl	chThdGetPriorityX
 797 026a 0346     		mov	r3, r0
ARM GAS  /var/folders/d2/nstgp4h54kz7g1l847x_b8wc0000gn/T//ccbTEVvj.s 			page 15


 798 026c 5A1C     		adds	r2, r3, #1
 799 026e 0023     		movs	r3, #0
 800 0270 0093     		str	r3, [sp]
 801 0272 224B     		ldr	r3, .L67+12
 802 0274 4FF4FC71 		mov	r1, #504
 803 0278 2046     		mov	r0, r4
 804 027a FFF7FEFF 		bl	chThdCreateStatic
 805 027e 0246     		mov	r2, r0
 806 0280 1F4B     		ldr	r3, .L67+16
 807 0282 1A60     		str	r2, [r3]
 808 0284 FFF7FEFF 		bl	chSysLock
 809 0288 1948     		ldr	r0, .L67
 810 028a FFF7FEFF 		bl	chIQGetFullI
 811 028e 0346     		mov	r3, r0
 812 0290 002B     		cmp	r3, #0
 813 0292 0CBF     		ite	eq
 814 0294 0123     		moveq	r3, #1
 815 0296 0023     		movne	r3, #0
 816 0298 DBB2     		uxtb	r3, r3
 817 029a 1946     		mov	r1, r3
 818 029c 0C20     		movs	r0, #12
 819 029e FFF7FEFF 		bl	_test_assert
 820 02a2 0346     		mov	r3, r0
 821 02a4 002B     		cmp	r3, #0
 822 02a6 02D0     		beq	.L62
 823 02a8 FFF7FEFF 		bl	chSysUnlock
 824 02ac 1CE0     		b	.L41
 825              	.L62:
 826 02ae FFF7FEFF 		bl	chSysUnlock
 827 02b2 FFF7FEFF 		bl	test_wait_threads
 828 02b6 0A21     		movs	r1, #10
 829 02b8 0D48     		ldr	r0, .L67
 830 02ba FFF7FEFF 		bl	chIQGetTimeout
 831 02be 0346     		mov	r3, r0
 832 02c0 B3F1FF3F 		cmp	r3, #-1
 833 02c4 0CBF     		ite	eq
 834 02c6 0123     		moveq	r3, #1
 835 02c8 0023     		movne	r3, #0
 836 02ca DBB2     		uxtb	r3, r3
 837 02cc 1946     		mov	r1, r3
 838 02ce 0D20     		movs	r0, #13
 839 02d0 FFF7FEFF 		bl	_test_assert
 840 02d4 0346     		mov	r3, r0
 841 02d6 002B     		cmp	r3, #0
 842 02d8 06E0     		b	.L41
 843              	.L63:
 844 02da 00BF     		nop
 845 02dc 04E0     		b	.L41
 846              	.L64:
 847 02de 00BF     		nop
 848 02e0 02E0     		b	.L41
 849              	.L65:
 850 02e2 00BF     		nop
 851 02e4 00E0     		b	.L41
 852              	.L66:
 853 02e6 00BF     		nop
 854              	.L41:
ARM GAS  /var/folders/d2/nstgp4h54kz7g1l847x_b8wc0000gn/T//ccbTEVvj.s 			page 16


 855 02e8 0C37     		adds	r7, r7, #12
 856 02ea BD46     		mov	sp, r7
 857              		@ sp needed
 858 02ec 90BD     		pop	{r4, r7, pc}
 859              	.L68:
 860 02ee 00BF     		.align	2
 861              	.L67:
 862 02f0 00000000 		.word	iq
 863 02f4 00000000 		.word	.LC0
 864 02f8 00000000 		.word	wa
 865 02fc 00000000 		.word	thread1
 866 0300 00000000 		.word	threads
 867              		.size	queues1_execute, .-queues1_execute
 868              		.global	testqueues1
 869              		.section	.rodata
 870 0005 000000   		.align	2
 871              	.LC1:
 872 0008 51756575 		.ascii	"Queues, input queues\000"
 872      65732C20 
 872      696E7075 
 872      74207175 
 872      65756573 
 873              		.section	.rodata.testqueues1,"a",%progbits
 874              		.align	2
 875              		.type	testqueues1, %object
 876              		.size	testqueues1, 16
 877              	testqueues1:
 878 0000 08000000 		.word	.LC1
 879 0004 00000000 		.word	queues1_setup
 880 0008 00000000 		.word	0
 881 000c 00000000 		.word	queues1_execute
 882              		.section	.text.queues2_setup,"ax",%progbits
 883              		.align	1
 884              		.syntax unified
 885              		.thumb
 886              		.thumb_func
 887              		.fpu fpv4-sp-d16
 888              		.type	queues2_setup, %function
 889              	queues2_setup:
 890              		@ args = 0, pretend = 0, frame = 0
 891              		@ frame_needed = 1, uses_anonymous_args = 0
 892 0000 80B5     		push	{r7, lr}
 893 0002 82B0     		sub	sp, sp, #8
 894 0004 02AF     		add	r7, sp, #8
 895 0006 064B     		ldr	r3, .L70
 896 0008 1968     		ldr	r1, [r3]
 897 000a 0023     		movs	r3, #0
 898 000c 0093     		str	r3, [sp]
 899 000e 054B     		ldr	r3, .L70+4
 900 0010 0422     		movs	r2, #4
 901 0012 0548     		ldr	r0, .L70+8
 902 0014 FFF7FEFF 		bl	chOQObjectInit
 903 0018 00BF     		nop
 904 001a BD46     		mov	sp, r7
 905              		@ sp needed
 906 001c 80BD     		pop	{r7, pc}
 907              	.L71:
ARM GAS  /var/folders/d2/nstgp4h54kz7g1l847x_b8wc0000gn/T//ccbTEVvj.s 			page 17


 908 001e 00BF     		.align	2
 909              	.L70:
 910 0020 00000000 		.word	wa
 911 0024 00000000 		.word	notify
 912 0028 00000000 		.word	oq
 913              		.size	queues2_setup, .-queues2_setup
 914              		.section	.text.thread2,"ax",%progbits
 915              		.align	1
 916              		.syntax unified
 917              		.thumb
 918              		.thumb_func
 919              		.fpu fpv4-sp-d16
 920              		.type	thread2, %function
 921              	thread2:
 922              		@ args = 0, pretend = 0, frame = 8
 923              		@ frame_needed = 1, uses_anonymous_args = 0
 924 0000 80B5     		push	{r7, lr}
 925 0002 82B0     		sub	sp, sp, #8
 926 0004 00AF     		add	r7, sp, #0
 927 0006 7860     		str	r0, [r7, #4]
 928 0008 C822     		movs	r2, #200
 929 000a 0021     		movs	r1, #0
 930 000c 0348     		ldr	r0, .L73
 931 000e FFF7FEFF 		bl	chOQPutTimeout
 932 0012 00BF     		nop
 933 0014 0837     		adds	r7, r7, #8
 934 0016 BD46     		mov	sp, r7
 935              		@ sp needed
 936 0018 80BD     		pop	{r7, pc}
 937              	.L74:
 938 001a 00BF     		.align	2
 939              	.L73:
 940 001c 00000000 		.word	oq
 941              		.size	thread2, .-thread2
 942              		.section	.text.queues2_execute,"ax",%progbits
 943              		.align	1
 944              		.syntax unified
 945              		.thumb
 946              		.thumb_func
 947              		.fpu fpv4-sp-d16
 948              		.type	queues2_execute, %function
 949              	queues2_execute:
 950              		@ args = 0, pretend = 0, frame = 16
 951              		@ frame_needed = 1, uses_anonymous_args = 0
 952 0000 90B5     		push	{r4, r7, lr}
 953 0002 87B0     		sub	sp, sp, #28
 954 0004 02AF     		add	r7, sp, #8
 955 0006 FFF7FEFF 		bl	chSysLock
 956 000a A248     		ldr	r0, .L97
 957 000c FFF7FEFF 		bl	chOQIsEmptyI
 958 0010 0346     		mov	r3, r0
 959 0012 1946     		mov	r1, r3
 960 0014 0120     		movs	r0, #1
 961 0016 FFF7FEFF 		bl	_test_assert
 962 001a 0346     		mov	r3, r0
 963 001c 002B     		cmp	r3, #0
 964 001e 02D0     		beq	.L76
ARM GAS  /var/folders/d2/nstgp4h54kz7g1l847x_b8wc0000gn/T//ccbTEVvj.s 			page 18


 965 0020 FFF7FEFF 		bl	chSysUnlock
 966 0024 32E1     		b	.L75
 967              	.L76:
 968 0026 FFF7FEFF 		bl	chSysUnlock
 969 002a 0023     		movs	r3, #0
 970 002c FB60     		str	r3, [r7, #12]
 971 002e 0AE0     		b	.L78
 972              	.L79:
 973 0030 FB68     		ldr	r3, [r7, #12]
 974 0032 DBB2     		uxtb	r3, r3
 975 0034 4133     		adds	r3, r3, #65
 976 0036 DBB2     		uxtb	r3, r3
 977 0038 1946     		mov	r1, r3
 978 003a 9648     		ldr	r0, .L97
 979 003c FFF7FEFF 		bl	chOQPut
 980 0040 FB68     		ldr	r3, [r7, #12]
 981 0042 0133     		adds	r3, r3, #1
 982 0044 FB60     		str	r3, [r7, #12]
 983              	.L78:
 984 0046 FB68     		ldr	r3, [r7, #12]
 985 0048 032B     		cmp	r3, #3
 986 004a F1D9     		bls	.L79
 987 004c FFF7FEFF 		bl	chSysLock
 988 0050 9048     		ldr	r0, .L97
 989 0052 FFF7FEFF 		bl	chOQIsFullI
 990 0056 0346     		mov	r3, r0
 991 0058 1946     		mov	r1, r3
 992 005a 0220     		movs	r0, #2
 993 005c FFF7FEFF 		bl	_test_assert
 994 0060 0346     		mov	r3, r0
 995 0062 002B     		cmp	r3, #0
 996 0064 02D0     		beq	.L80
 997 0066 FFF7FEFF 		bl	chSysUnlock
 998 006a 0FE1     		b	.L75
 999              	.L80:
 1000 006c FFF7FEFF 		bl	chSysUnlock
 1001 0070 0023     		movs	r3, #0
 1002 0072 FB60     		str	r3, [r7, #12]
 1003 0074 0FE0     		b	.L81
 1004              	.L82:
 1005 0076 FFF7FEFF 		bl	chSysLock
 1006 007a 8648     		ldr	r0, .L97
 1007 007c FFF7FEFF 		bl	chOQGetI
 1008 0080 0346     		mov	r3, r0
 1009 0082 FB71     		strb	r3, [r7, #7]
 1010 0084 FFF7FEFF 		bl	chSysUnlock
 1011 0088 FB79     		ldrb	r3, [r7, #7]	@ zero_extendqisi2
 1012 008a 1846     		mov	r0, r3
 1013 008c FFF7FEFF 		bl	test_emit_token
 1014 0090 FB68     		ldr	r3, [r7, #12]
 1015 0092 0133     		adds	r3, r3, #1
 1016 0094 FB60     		str	r3, [r7, #12]
 1017              	.L81:
 1018 0096 FB68     		ldr	r3, [r7, #12]
 1019 0098 032B     		cmp	r3, #3
 1020 009a ECD9     		bls	.L82
 1021 009c FFF7FEFF 		bl	chSysLock
ARM GAS  /var/folders/d2/nstgp4h54kz7g1l847x_b8wc0000gn/T//ccbTEVvj.s 			page 19


 1022 00a0 7C48     		ldr	r0, .L97
 1023 00a2 FFF7FEFF 		bl	chOQIsEmptyI
 1024 00a6 0346     		mov	r3, r0
 1025 00a8 1946     		mov	r1, r3
 1026 00aa 0320     		movs	r0, #3
 1027 00ac FFF7FEFF 		bl	_test_assert
 1028 00b0 0346     		mov	r3, r0
 1029 00b2 002B     		cmp	r3, #0
 1030 00b4 02D0     		beq	.L83
 1031 00b6 FFF7FEFF 		bl	chSysUnlock
 1032 00ba E7E0     		b	.L75
 1033              	.L83:
 1034 00bc FFF7FEFF 		bl	chSysUnlock
 1035 00c0 7549     		ldr	r1, .L97+4
 1036 00c2 0420     		movs	r0, #4
 1037 00c4 FFF7FEFF 		bl	_test_assert_sequence
 1038 00c8 0346     		mov	r3, r0
 1039 00ca 002B     		cmp	r3, #0
 1040 00cc 40F0D780 		bne	.L93
 1041 00d0 FFF7FEFF 		bl	chSysLock
 1042 00d4 6F48     		ldr	r0, .L97
 1043 00d6 FFF7FEFF 		bl	chOQGetI
 1044 00da 0346     		mov	r3, r0
 1045 00dc 13F1030F 		cmn	r3, #3
 1046 00e0 0CBF     		ite	eq
 1047 00e2 0123     		moveq	r3, #1
 1048 00e4 0023     		movne	r3, #0
 1049 00e6 DBB2     		uxtb	r3, r3
 1050 00e8 1946     		mov	r1, r3
 1051 00ea 0520     		movs	r0, #5
 1052 00ec FFF7FEFF 		bl	_test_assert
 1053 00f0 0346     		mov	r3, r0
 1054 00f2 002B     		cmp	r3, #0
 1055 00f4 02D0     		beq	.L85
 1056 00f6 FFF7FEFF 		bl	chSysUnlock
 1057 00fa C7E0     		b	.L75
 1058              	.L85:
 1059 00fc FFF7FEFF 		bl	chSysUnlock
 1060 0100 664B     		ldr	r3, .L97+8
 1061 0102 5968     		ldr	r1, [r3, #4]
 1062 0104 0023     		movs	r3, #0
 1063 0106 0822     		movs	r2, #8
 1064 0108 6248     		ldr	r0, .L97
 1065 010a FFF7FEFF 		bl	chOQWriteTimeout
 1066 010e B860     		str	r0, [r7, #8]
 1067 0110 BB68     		ldr	r3, [r7, #8]
 1068 0112 042B     		cmp	r3, #4
 1069 0114 0CBF     		ite	eq
 1070 0116 0123     		moveq	r3, #1
 1071 0118 0023     		movne	r3, #0
 1072 011a DBB2     		uxtb	r3, r3
 1073 011c 1946     		mov	r1, r3
 1074 011e 0620     		movs	r0, #6
 1075 0120 FFF7FEFF 		bl	_test_assert
 1076 0124 0346     		mov	r3, r0
 1077 0126 002B     		cmp	r3, #0
 1078 0128 40F0AB80 		bne	.L94
ARM GAS  /var/folders/d2/nstgp4h54kz7g1l847x_b8wc0000gn/T//ccbTEVvj.s 			page 20


 1079 012c FFF7FEFF 		bl	chSysLock
 1080 0130 5848     		ldr	r0, .L97
 1081 0132 FFF7FEFF 		bl	chOQIsFullI
 1082 0136 0346     		mov	r3, r0
 1083 0138 1946     		mov	r1, r3
 1084 013a 0720     		movs	r0, #7
 1085 013c FFF7FEFF 		bl	_test_assert
 1086 0140 0346     		mov	r3, r0
 1087 0142 002B     		cmp	r3, #0
 1088 0144 02D0     		beq	.L87
 1089 0146 FFF7FEFF 		bl	chSysUnlock
 1090 014a 9FE0     		b	.L75
 1091              	.L87:
 1092 014c FFF7FEFF 		bl	chSysUnlock
 1093 0150 524B     		ldr	r3, .L97+8
 1094 0152 1C68     		ldr	r4, [r3]
 1095 0154 FFF7FEFF 		bl	chThdGetPriorityX
 1096 0158 0346     		mov	r3, r0
 1097 015a 5A1C     		adds	r2, r3, #1
 1098 015c 0023     		movs	r3, #0
 1099 015e 0093     		str	r3, [sp]
 1100 0160 4F4B     		ldr	r3, .L97+12
 1101 0162 4FF4FC71 		mov	r1, #504
 1102 0166 2046     		mov	r0, r4
 1103 0168 FFF7FEFF 		bl	chThdCreateStatic
 1104 016c 0246     		mov	r2, r0
 1105 016e 4D4B     		ldr	r3, .L97+16
 1106 0170 1A60     		str	r2, [r3]
 1107 0172 FFF7FEFF 		bl	chSysLock
 1108 0176 4748     		ldr	r0, .L97
 1109 0178 FFF7FEFF 		bl	chOQGetFullI
 1110 017c 0346     		mov	r3, r0
 1111 017e 042B     		cmp	r3, #4
 1112 0180 0CBF     		ite	eq
 1113 0182 0123     		moveq	r3, #1
 1114 0184 0023     		movne	r3, #0
 1115 0186 DBB2     		uxtb	r3, r3
 1116 0188 1946     		mov	r1, r3
 1117 018a 0820     		movs	r0, #8
 1118 018c FFF7FEFF 		bl	_test_assert
 1119 0190 0346     		mov	r3, r0
 1120 0192 002B     		cmp	r3, #0
 1121 0194 02D0     		beq	.L88
 1122 0196 FFF7FEFF 		bl	chSysUnlock
 1123 019a 77E0     		b	.L75
 1124              	.L88:
 1125 019c FFF7FEFF 		bl	chSysUnlock
 1126 01a0 FFF7FEFF 		bl	test_wait_threads
 1127 01a4 FFF7FEFF 		bl	chSysLock
 1128 01a8 3A48     		ldr	r0, .L97
 1129 01aa FFF7FEFF 		bl	chOQResetI
 1130 01ae FFF7FEFF 		bl	chSysUnlock
 1131 01b2 FFF7FEFF 		bl	chSysLock
 1132 01b6 3748     		ldr	r0, .L97
 1133 01b8 FFF7FEFF 		bl	chOQGetFullI
 1134 01bc 0346     		mov	r3, r0
 1135 01be 002B     		cmp	r3, #0
ARM GAS  /var/folders/d2/nstgp4h54kz7g1l847x_b8wc0000gn/T//ccbTEVvj.s 			page 21


 1136 01c0 0CBF     		ite	eq
 1137 01c2 0123     		moveq	r3, #1
 1138 01c4 0023     		movne	r3, #0
 1139 01c6 DBB2     		uxtb	r3, r3
 1140 01c8 1946     		mov	r1, r3
 1141 01ca 0920     		movs	r0, #9
 1142 01cc FFF7FEFF 		bl	_test_assert
 1143 01d0 0346     		mov	r3, r0
 1144 01d2 002B     		cmp	r3, #0
 1145 01d4 02D0     		beq	.L89
 1146 01d6 FFF7FEFF 		bl	chSysUnlock
 1147 01da 57E0     		b	.L75
 1148              	.L89:
 1149 01dc FFF7FEFF 		bl	chSysUnlock
 1150 01e0 2E4B     		ldr	r3, .L97+8
 1151 01e2 5968     		ldr	r1, [r3, #4]
 1152 01e4 0023     		movs	r3, #0
 1153 01e6 0222     		movs	r2, #2
 1154 01e8 2A48     		ldr	r0, .L97
 1155 01ea FFF7FEFF 		bl	chOQWriteTimeout
 1156 01ee B860     		str	r0, [r7, #8]
 1157 01f0 BB68     		ldr	r3, [r7, #8]
 1158 01f2 022B     		cmp	r3, #2
 1159 01f4 0CBF     		ite	eq
 1160 01f6 0123     		moveq	r3, #1
 1161 01f8 0023     		movne	r3, #0
 1162 01fa DBB2     		uxtb	r3, r3
 1163 01fc 1946     		mov	r1, r3
 1164 01fe 0A20     		movs	r0, #10
 1165 0200 FFF7FEFF 		bl	_test_assert
 1166 0204 0346     		mov	r3, r0
 1167 0206 002B     		cmp	r3, #0
 1168 0208 3DD1     		bne	.L95
 1169 020a 244B     		ldr	r3, .L97+8
 1170 020c 5968     		ldr	r1, [r3, #4]
 1171 020e 0023     		movs	r3, #0
 1172 0210 0222     		movs	r2, #2
 1173 0212 2048     		ldr	r0, .L97
 1174 0214 FFF7FEFF 		bl	chOQWriteTimeout
 1175 0218 B860     		str	r0, [r7, #8]
 1176 021a BB68     		ldr	r3, [r7, #8]
 1177 021c 022B     		cmp	r3, #2
 1178 021e 0CBF     		ite	eq
 1179 0220 0123     		moveq	r3, #1
 1180 0222 0023     		movne	r3, #0
 1181 0224 DBB2     		uxtb	r3, r3
 1182 0226 1946     		mov	r1, r3
 1183 0228 0B20     		movs	r0, #11
 1184 022a FFF7FEFF 		bl	_test_assert
 1185 022e 0346     		mov	r3, r0
 1186 0230 002B     		cmp	r3, #0
 1187 0232 2AD1     		bne	.L96
 1188 0234 FFF7FEFF 		bl	chSysLock
 1189 0238 1648     		ldr	r0, .L97
 1190 023a FFF7FEFF 		bl	chOQIsFullI
 1191 023e 0346     		mov	r3, r0
 1192 0240 1946     		mov	r1, r3
ARM GAS  /var/folders/d2/nstgp4h54kz7g1l847x_b8wc0000gn/T//ccbTEVvj.s 			page 22


 1193 0242 0C20     		movs	r0, #12
 1194 0244 FFF7FEFF 		bl	_test_assert
 1195 0248 0346     		mov	r3, r0
 1196 024a 002B     		cmp	r3, #0
 1197 024c 02D0     		beq	.L92
 1198 024e FFF7FEFF 		bl	chSysUnlock
 1199 0252 1BE0     		b	.L75
 1200              	.L92:
 1201 0254 FFF7FEFF 		bl	chSysUnlock
 1202 0258 0A22     		movs	r2, #10
 1203 025a 0021     		movs	r1, #0
 1204 025c 0D48     		ldr	r0, .L97
 1205 025e FFF7FEFF 		bl	chOQPutTimeout
 1206 0262 0346     		mov	r3, r0
 1207 0264 B3F1FF3F 		cmp	r3, #-1
 1208 0268 0CBF     		ite	eq
 1209 026a 0123     		moveq	r3, #1
 1210 026c 0023     		movne	r3, #0
 1211 026e DBB2     		uxtb	r3, r3
 1212 0270 1946     		mov	r1, r3
 1213 0272 0D20     		movs	r0, #13
 1214 0274 FFF7FEFF 		bl	_test_assert
 1215 0278 0346     		mov	r3, r0
 1216 027a 002B     		cmp	r3, #0
 1217 027c 06E0     		b	.L75
 1218              	.L93:
 1219 027e 00BF     		nop
 1220 0280 04E0     		b	.L75
 1221              	.L94:
 1222 0282 00BF     		nop
 1223 0284 02E0     		b	.L75
 1224              	.L95:
 1225 0286 00BF     		nop
 1226 0288 00E0     		b	.L75
 1227              	.L96:
 1228 028a 00BF     		nop
 1229              	.L75:
 1230 028c 1437     		adds	r7, r7, #20
 1231 028e BD46     		mov	sp, r7
 1232              		@ sp needed
 1233 0290 90BD     		pop	{r4, r7, pc}
 1234              	.L98:
 1235 0292 00BF     		.align	2
 1236              	.L97:
 1237 0294 00000000 		.word	oq
 1238 0298 00000000 		.word	.LC0
 1239 029c 00000000 		.word	wa
 1240 02a0 00000000 		.word	thread2
 1241 02a4 00000000 		.word	threads
 1242              		.size	queues2_execute, .-queues2_execute
 1243              		.global	testqueues2
 1244              		.section	.rodata
 1245 001d 000000   		.align	2
 1246              	.LC2:
 1247 0020 51756575 		.ascii	"Queues, output queues\000"
 1247      65732C20 
 1247      6F757470 
ARM GAS  /var/folders/d2/nstgp4h54kz7g1l847x_b8wc0000gn/T//ccbTEVvj.s 			page 23


 1247      75742071 
 1247      75657565 
 1248              		.section	.rodata.testqueues2,"a",%progbits
 1249              		.align	2
 1250              		.type	testqueues2, %object
 1251              		.size	testqueues2, 16
 1252              	testqueues2:
 1253 0000 20000000 		.word	.LC2
 1254 0004 00000000 		.word	queues2_setup
 1255 0008 00000000 		.word	0
 1256 000c 00000000 		.word	queues2_execute
 1257              		.global	patternqueues
 1258              		.section	.rodata.patternqueues,"a",%progbits
 1259              		.align	2
 1260              		.type	patternqueues, %object
 1261              		.size	patternqueues, 12
 1262              	patternqueues:
 1263 0000 00000000 		.word	testqueues1
 1264 0004 00000000 		.word	testqueues2
 1265 0008 00000000 		.word	0
 1266              		.section	.rodata.__func__.7153,"a",%progbits
 1267              		.align	2
 1268              		.type	__func__.7153, %object
 1269              		.size	__func__.7153, 12
 1270              	__func__.7153:
 1271 0000 63685379 		.ascii	"chSysUnlock\000"
 1271      73556E6C 
 1271      6F636B00 
 1272              		.ident	"GCC: (GNU Tools for Arm Embedded Processors 7-2017-q4-major) 7.2.1 20170904 (release) [ARM
ARM GAS  /var/folders/d2/nstgp4h54kz7g1l847x_b8wc0000gn/T//ccbTEVvj.s 			page 24

