ARM GAS  /var/folders/d2/nstgp4h54kz7g1l847x_b8wc0000gn/T//ccmWFekv.s 			page 1


   1              		.cpu cortex-m4
   2              		.eabi_attribute 27, 1
   3              		.eabi_attribute 28, 1
   4              		.eabi_attribute 20, 1
   5              		.eabi_attribute 21, 1
   6              		.eabi_attribute 23, 3
   7              		.eabi_attribute 24, 1
   8              		.eabi_attribute 25, 1
   9              		.eabi_attribute 26, 1
  10              		.eabi_attribute 30, 2
  11              		.eabi_attribute 34, 1
  12              		.eabi_attribute 18, 4
  13              		.file	"testdyn.c"
  14              		.text
  15              	.Ltext0:
  16              		.cfi_sections	.debug_frame
  17              		.section	.text.dyn1_execute,"ax",%progbits
  18              		.align	1
  19              		.p2align 4,,15
  20              		.syntax unified
  21              		.thumb
  22              		.thumb_func
  23              		.fpu fpv4-sp-d16
  24              		.type	dyn1_execute, %function
  25              	dyn1_execute:
  26              	.LFB221:
  27              		.file 1 "../e-puck2_main-processor/ChibiOS//test/rt/testdyn.c"
  28              		.loc 1 82 0
  29              		.cfi_startproc
  30              		@ args = 0, pretend = 0, frame = 16
  31              		@ frame_needed = 0, uses_anonymous_args = 0
  32 0000 F0B5     		push	{r4, r5, r6, r7, lr}
  33              		.cfi_def_cfa_offset 20
  34              		.cfi_offset 4, -20
  35              		.cfi_offset 5, -16
  36              		.cfi_offset 6, -12
  37              		.cfi_offset 7, -8
  38              		.cfi_offset 14, -4
  39              	.LBB16:
  40              	.LBB17:
  41              	.LBB18:
  42              	.LBB19:
  43              		.file 2 "../e-puck2_main-processor/ChibiOS//os/rt/include/chthreads.h"
  44              		.loc 2 176 0
  45 0002 384B     		ldr	r3, .L16
  46              	.LBE19:
  47              	.LBE18:
  48              	.LBE17:
  49              	.LBE16:
  50              		.loc 1 82 0
  51 0004 384E     		ldr	r6, .L16+4
  52              	.LBB22:
  53              	.LBB20:
  54              		.loc 2 189 0
  55 0006 9A69     		ldr	r2, [r3, #24]
  56              	.LBE20:
  57              	.LBE22:
ARM GAS  /var/folders/d2/nstgp4h54kz7g1l847x_b8wc0000gn/T//ccmWFekv.s 			page 2


  58              		.loc 1 87 0
  59 0008 3848     		ldr	r0, .L16+8
  60              	.LBB23:
  61              	.LBB21:
  62              		.loc 2 189 0
  63 000a 9568     		ldr	r5, [r2, #8]
  64              	.LBE21:
  65              	.LBE23:
  66              		.loc 1 82 0
  67 000c 3368     		ldr	r3, [r6]
  68              		.loc 1 89 0
  69 000e 384C     		ldr	r4, .L16+12
  70              		.loc 1 82 0
  71 0010 87B0     		sub	sp, sp, #28
  72              		.cfi_def_cfa_offset 48
  73              		.loc 1 87 0
  74 0012 04A9     		add	r1, sp, #16
  75              		.loc 1 82 0
  76 0014 0593     		str	r3, [sp, #20]
  77              		.loc 1 87 0
  78 0016 FFF7FEFF 		bl	chHeapStatus
  79              	.LVL0:
  80              		.loc 1 89 0
  81 001a 364B     		ldr	r3, .L16+16
  82 001c 0093     		str	r3, [sp]
  83 001e 6A1E     		subs	r2, r5, #1
  84 0020 354B     		ldr	r3, .L16+20
  85 0022 3248     		ldr	r0, .L16+8
  86 0024 4FF4FC71 		mov	r1, #504
  87 0028 FFF7FEFF 		bl	chThdCreateFromHeap
  88              	.LVL1:
  89              		.loc 1 92 0
  90 002c 334B     		ldr	r3, .L16+24
  91              		.loc 1 89 0
  92 002e 2060     		str	r0, [r4]
  93              		.loc 1 92 0
  94 0030 AA1E     		subs	r2, r5, #2
  95 0032 0093     		str	r3, [sp]
  96 0034 4FF4FC71 		mov	r1, #504
  97 0038 2F4B     		ldr	r3, .L16+20
  98 003a 2C48     		ldr	r0, .L16+8
  99 003c FFF7FEFF 		bl	chThdCreateFromHeap
 100              	.LVL2:
 101              		.loc 1 96 0
 102 0040 03A9     		add	r1, sp, #12
 103              		.loc 1 92 0
 104 0042 6060     		str	r0, [r4, #4]
 105              		.loc 1 96 0
 106 0044 2948     		ldr	r0, .L16+8
 107 0046 FFF7FEFF 		bl	chHeapStatus
 108              	.LVL3:
 109              		.loc 1 97 0
 110 004a 0399     		ldr	r1, [sp, #12]
 111 004c 2748     		ldr	r0, .L16+8
 112 004e FFF7FEFF 		bl	chHeapAlloc
 113              	.LVL4:
 114              		.loc 1 98 0
ARM GAS  /var/folders/d2/nstgp4h54kz7g1l847x_b8wc0000gn/T//ccmWFekv.s 			page 3


 115 0052 2B4B     		ldr	r3, .L16+28
 116 0054 0093     		str	r3, [sp]
 117 0056 4FF4FC71 		mov	r1, #504
 118              		.loc 1 97 0
 119 005a 0746     		mov	r7, r0
 120              	.LVL5:
 121              		.loc 1 98 0
 122 005c EA1E     		subs	r2, r5, #3
 123 005e 264B     		ldr	r3, .L16+20
 124 0060 2248     		ldr	r0, .L16+8
 125              	.LVL6:
 126 0062 FFF7FEFF 		bl	chThdCreateFromHeap
 127              	.LVL7:
 128 0066 A060     		str	r0, [r4, #8]
 129              		.loc 1 101 0
 130 0068 3846     		mov	r0, r7
 131 006a FFF7FEFF 		bl	chHeapFree
 132              	.LVL8:
 133              		.loc 1 103 0
 134 006e 2168     		ldr	r1, [r4]
 135 0070 21B1     		cbz	r1, .L2
 136              		.loc 1 103 0 is_stmt 0 discriminator 1
 137 0072 6168     		ldr	r1, [r4, #4]
 138 0074 11B1     		cbz	r1, .L2
 139              		.loc 1 103 0 discriminator 3
 140 0076 A168     		ldr	r1, [r4, #8]
 141 0078 51B3     		cbz	r1, .L13
 142 007a 0021     		movs	r1, #0
 143              	.L2:
 144              		.loc 1 103 0 discriminator 12
 145 007c 0120     		movs	r0, #1
 146 007e FFF7FEFF 		bl	_test_assert
 147              	.LVL9:
 148 0082 28B1     		cbz	r0, .L14
 149              	.L1:
 150              		.loc 1 117 0 is_stmt 1
 151 0084 059A     		ldr	r2, [sp, #20]
 152 0086 3368     		ldr	r3, [r6]
 153 0088 9A42     		cmp	r2, r3
 154 008a 29D1     		bne	.L15
 155 008c 07B0     		add	sp, sp, #28
 156              		.cfi_remember_state
 157              		.cfi_def_cfa_offset 20
 158              		@ sp needed
 159 008e F0BD     		pop	{r4, r5, r6, r7, pc}
 160              	.LVL10:
 161              	.L14:
 162              		.cfi_restore_state
 163              		.loc 1 111 0
 164 0090 FFF7FEFF 		bl	test_wait_threads
 165              	.LVL11:
 166              		.loc 1 112 0
 167 0094 1B49     		ldr	r1, .L16+32
 168 0096 0220     		movs	r0, #2
 169 0098 FFF7FEFF 		bl	_test_assert_sequence
 170              	.LVL12:
 171 009c 0028     		cmp	r0, #0
ARM GAS  /var/folders/d2/nstgp4h54kz7g1l847x_b8wc0000gn/T//ccmWFekv.s 			page 4


 172 009e F1D1     		bne	.L1
 173              		.loc 1 115 0
 174 00a0 03A9     		add	r1, sp, #12
 175 00a2 1248     		ldr	r0, .L16+8
 176 00a4 FFF7FEFF 		bl	chHeapStatus
 177              	.LVL13:
 178 00a8 A0F10101 		sub	r1, r0, #1
 179 00ac B1FA81F1 		clz	r1, r1
 180 00b0 4909     		lsrs	r1, r1, #5
 181 00b2 0320     		movs	r0, #3
 182 00b4 FFF7FEFF 		bl	_test_assert
 183              	.LVL14:
 184 00b8 0028     		cmp	r0, #0
 185 00ba E3D1     		bne	.L1
 186              		.loc 1 116 0
 187 00bc DDE90313 		ldrd	r1, r3, [sp, #12]
 188 00c0 C91A     		subs	r1, r1, r3
 189 00c2 B1FA81F1 		clz	r1, r1
 190 00c6 4909     		lsrs	r1, r1, #5
 191 00c8 0420     		movs	r0, #4
 192 00ca FFF7FEFF 		bl	_test_assert
 193              	.LVL15:
 194 00ce D9E7     		b	.L1
 195              	.L13:
 196              		.loc 1 103 0 discriminator 5
 197 00d0 E368     		ldr	r3, [r4, #12]
 198 00d2 002B     		cmp	r3, #0
 199 00d4 D2D1     		bne	.L2
 200              		.loc 1 103 0 is_stmt 0 discriminator 7
 201 00d6 2169     		ldr	r1, [r4, #16]
 202 00d8 B1FA81F1 		clz	r1, r1
 203 00dc 4909     		lsrs	r1, r1, #5
 204 00de CDE7     		b	.L2
 205              	.L15:
 206              		.loc 1 117 0 is_stmt 1
 207 00e0 FFF7FEFF 		bl	__stack_chk_fail
 208              	.LVL16:
 209              	.L17:
 210              		.align	2
 211              	.L16:
 212 00e4 00000000 		.word	ch
 213 00e8 00000000 		.word	__stack_chk_guard
 214 00ec 00000000 		.word	.LANCHOR0
 215 00f0 00000000 		.word	threads
 216 00f4 00000000 		.word	.LC0
 217 00f8 00000000 		.word	thread
 218 00fc 04000000 		.word	.LC1
 219 0100 08000000 		.word	.LC2
 220 0104 0C000000 		.word	.LC3
 221              		.cfi_endproc
 222              	.LFE221:
 223              		.size	dyn1_execute, .-dyn1_execute
 224              		.section	.text.thread,"ax",%progbits
 225              		.align	1
 226              		.p2align 4,,15
 227              		.syntax unified
 228              		.thumb
ARM GAS  /var/folders/d2/nstgp4h54kz7g1l847x_b8wc0000gn/T//ccmWFekv.s 			page 5


 229              		.thumb_func
 230              		.fpu fpv4-sp-d16
 231              		.type	thread, %function
 232              	thread:
 233              	.LFB219:
 234              		.loc 1 71 0
 235              		.cfi_startproc
 236              		@ args = 0, pretend = 0, frame = 8
 237              		@ frame_needed = 0, uses_anonymous_args = 0
 238              	.LVL17:
 239 0000 00B5     		push	{lr}
 240              		.cfi_def_cfa_offset 4
 241              		.cfi_offset 14, -4
 242 0002 084B     		ldr	r3, .L23
 243 0004 83B0     		sub	sp, sp, #12
 244              		.cfi_def_cfa_offset 16
 245              		.loc 1 71 0
 246 0006 1A68     		ldr	r2, [r3]
 247 0008 0192     		str	r2, [sp, #4]
 248              		.loc 1 73 0
 249 000a 019A     		ldr	r2, [sp, #4]
 250 000c 1B68     		ldr	r3, [r3]
 251 000e 9A42     		cmp	r2, r3
 252 0010 05D1     		bne	.L22
 253 0012 0078     		ldrb	r0, [r0]	@ zero_extendqisi2
 254              	.LVL18:
 255              		.loc 1 74 0
 256 0014 03B0     		add	sp, sp, #12
 257              		.cfi_remember_state
 258              		.cfi_def_cfa_offset 4
 259              		@ sp needed
 260 0016 5DF804EB 		ldr	lr, [sp], #4
 261              		.cfi_restore 14
 262              		.cfi_def_cfa_offset 0
 263              		.loc 1 73 0
 264 001a FFF7FEBF 		b	test_emit_token
 265              	.LVL19:
 266              	.L22:
 267              		.cfi_restore_state
 268 001e FFF7FEFF 		bl	__stack_chk_fail
 269              	.LVL20:
 270              	.L24:
 271 0022 00BF     		.align	2
 272              	.L23:
 273 0024 00000000 		.word	__stack_chk_guard
 274              		.cfi_endproc
 275              	.LFE219:
 276              		.size	thread, .-thread
 277              		.section	.text.dyn1_setup,"ax",%progbits
 278              		.align	1
 279              		.p2align 4,,15
 280              		.syntax unified
 281              		.thumb
 282              		.thumb_func
 283              		.fpu fpv4-sp-d16
 284              		.type	dyn1_setup, %function
 285              	dyn1_setup:
ARM GAS  /var/folders/d2/nstgp4h54kz7g1l847x_b8wc0000gn/T//ccmWFekv.s 			page 6


 286              	.LFB220:
 287              		.loc 1 77 0
 288              		.cfi_startproc
 289              		@ args = 0, pretend = 0, frame = 8
 290              		@ frame_needed = 0, uses_anonymous_args = 0
 291 0000 00B5     		push	{lr}
 292              		.cfi_def_cfa_offset 4
 293              		.cfi_offset 14, -4
 294 0002 094B     		ldr	r3, .L30
 295 0004 83B0     		sub	sp, sp, #12
 296              		.cfi_def_cfa_offset 16
 297              		.loc 1 77 0
 298 0006 1A68     		ldr	r2, [r3]
 299 0008 0192     		str	r2, [sp, #4]
 300              		.loc 1 79 0
 301 000a 019A     		ldr	r2, [sp, #4]
 302 000c 1B68     		ldr	r3, [r3]
 303 000e 9A42     		cmp	r2, r3
 304 0010 08D1     		bne	.L29
 305 0012 0649     		ldr	r1, .L30+4
 306 0014 0648     		ldr	r0, .L30+8
 307 0016 40F6D812 		movw	r2, #2520
 308              		.loc 1 80 0
 309 001a 03B0     		add	sp, sp, #12
 310              		.cfi_remember_state
 311              		.cfi_def_cfa_offset 4
 312              		@ sp needed
 313 001c 5DF804EB 		ldr	lr, [sp], #4
 314              		.cfi_restore 14
 315              		.cfi_def_cfa_offset 0
 316              		.loc 1 79 0
 317 0020 FFF7FEBF 		b	chHeapObjectInit
 318              	.LVL21:
 319              	.L29:
 320              		.cfi_restore_state
 321 0024 FFF7FEFF 		bl	__stack_chk_fail
 322              	.LVL22:
 323              	.L31:
 324              		.align	2
 325              	.L30:
 326 0028 00000000 		.word	__stack_chk_guard
 327 002c 00000000 		.word	test
 328 0030 00000000 		.word	.LANCHOR0
 329              		.cfi_endproc
 330              	.LFE220:
 331              		.size	dyn1_setup, .-dyn1_setup
 332              		.section	.text.dyn3_setup,"ax",%progbits
 333              		.align	1
 334              		.p2align 4,,15
 335              		.syntax unified
 336              		.thumb
 337              		.thumb_func
 338              		.fpu fpv4-sp-d16
 339              		.type	dyn3_setup, %function
 340              	dyn3_setup:
 341              	.LFB228:
 342              		.cfi_startproc
ARM GAS  /var/folders/d2/nstgp4h54kz7g1l847x_b8wc0000gn/T//ccmWFekv.s 			page 7


 343              		@ args = 0, pretend = 0, frame = 8
 344              		@ frame_needed = 0, uses_anonymous_args = 0
 345 0000 00B5     		push	{lr}
 346              		.cfi_def_cfa_offset 4
 347              		.cfi_offset 14, -4
 348 0002 074B     		ldr	r3, .L37
 349 0004 83B0     		sub	sp, sp, #12
 350              		.cfi_def_cfa_offset 16
 351 0006 1A68     		ldr	r2, [r3]
 352 0008 0192     		str	r2, [sp, #4]
 353 000a 019A     		ldr	r2, [sp, #4]
 354 000c 1B68     		ldr	r3, [r3]
 355 000e 9A42     		cmp	r2, r3
 356 0010 04D1     		bne	.L36
 357 0012 03B0     		add	sp, sp, #12
 358              		.cfi_remember_state
 359              		.cfi_def_cfa_offset 4
 360              		@ sp needed
 361 0014 5DF804EB 		ldr	lr, [sp], #4
 362              		.cfi_restore 14
 363              		.cfi_def_cfa_offset 0
 364 0018 FFF7FEBF 		b	dyn1_setup
 365              	.L36:
 366              		.cfi_restore_state
 367 001c FFF7FEFF 		bl	__stack_chk_fail
 368              	.L38:
 369              		.align	2
 370              	.L37:
 371 0020 00000000 		.word	__stack_chk_guard
 372              		.cfi_endproc
 373              	.LFE228:
 374              		.size	dyn3_setup, .-dyn3_setup
 375              		.section	.text.dyn2_execute,"ax",%progbits
 376              		.align	1
 377              		.p2align 4,,15
 378              		.syntax unified
 379              		.thumb
 380              		.thumb_func
 381              		.fpu fpv4-sp-d16
 382              		.type	dyn2_execute, %function
 383              	dyn2_execute:
 384              	.LFB223:
 385              		.loc 1 143 0
 386              		.cfi_startproc
 387              		@ args = 0, pretend = 0, frame = 8
 388              		@ frame_needed = 0, uses_anonymous_args = 0
 389              		.loc 1 143 0
 390 0000 2DE9F041 		push	{r4, r5, r6, r7, r8, lr}
 391              		.cfi_def_cfa_offset 24
 392              		.cfi_offset 4, -24
 393              		.cfi_offset 5, -20
 394              		.cfi_offset 6, -16
 395              		.cfi_offset 7, -12
 396              		.cfi_offset 8, -8
 397              		.cfi_offset 14, -4
 398              	.LBB24:
 399              	.LBB25:
ARM GAS  /var/folders/d2/nstgp4h54kz7g1l847x_b8wc0000gn/T//ccmWFekv.s 			page 8


 400              	.LBB26:
 401              	.LBB27:
 402              		.loc 2 176 0
 403 0004 3A4B     		ldr	r3, .L57
 404              	.LBE27:
 405              	.LBE26:
 406              	.LBE25:
 407              	.LBE24:
 408              		.loc 1 143 0
 409 0006 3B4D     		ldr	r5, .L57+4
 410              	.LBB29:
 411              	.LBB28:
 412              		.loc 2 189 0
 413 0008 9B69     		ldr	r3, [r3, #24]
 414 000a 3B4C     		ldr	r4, .L57+8
 415 000c 9E68     		ldr	r6, [r3, #8]
 416              	.LVL23:
 417              	.LBE28:
 418              	.LBE29:
 419              		.loc 1 149 0
 420 000e DFF8F480 		ldr	r8, .L57+20
 421              		.loc 1 143 0
 422 0012 2B68     		ldr	r3, [r5]
 423 0014 82B0     		sub	sp, sp, #8
 424              		.cfi_def_cfa_offset 32
 425 0016 04F11007 		add	r7, r4, #16
 426              		.loc 1 143 0
 427 001a 0193     		str	r3, [sp, #4]
 428              	.LVL24:
 429              	.L40:
 430              		.loc 1 149 0 discriminator 3
 431 001c 54F8041B 		ldr	r1, [r4], #4
 432 0020 4046     		mov	r0, r8
 433 0022 FFF7FEFF 		bl	chPoolFree
 434              	.LVL25:
 435              		.loc 1 148 0 discriminator 3
 436 0026 A742     		cmp	r7, r4
 437 0028 F8D1     		bne	.L40
 438              		.loc 1 152 0
 439 002a 344B     		ldr	r3, .L57+12
 440 002c 344A     		ldr	r2, .L57+16
 441 002e 3548     		ldr	r0, .L57+20
 442 0030 354C     		ldr	r4, .L57+24
 443 0032 711E     		subs	r1, r6, #1
 444 0034 FFF7FEFF 		bl	chThdCreateFromMemoryPool
 445              	.LVL26:
 446              		.loc 1 153 0
 447 0038 344B     		ldr	r3, .L57+28
 448              		.loc 1 152 0
 449 003a 2060     		str	r0, [r4]
 450              		.loc 1 153 0
 451 003c 304A     		ldr	r2, .L57+16
 452 003e 3148     		ldr	r0, .L57+20
 453 0040 B11E     		subs	r1, r6, #2
 454 0042 FFF7FEFF 		bl	chThdCreateFromMemoryPool
 455              	.LVL27:
 456              		.loc 1 154 0
ARM GAS  /var/folders/d2/nstgp4h54kz7g1l847x_b8wc0000gn/T//ccmWFekv.s 			page 9


 457 0046 324B     		ldr	r3, .L57+32
 458              		.loc 1 153 0
 459 0048 6060     		str	r0, [r4, #4]
 460              		.loc 1 154 0
 461 004a 2D4A     		ldr	r2, .L57+16
 462 004c 2D48     		ldr	r0, .L57+20
 463 004e F11E     		subs	r1, r6, #3
 464 0050 FFF7FEFF 		bl	chThdCreateFromMemoryPool
 465              	.LVL28:
 466              		.loc 1 155 0
 467 0054 2F4B     		ldr	r3, .L57+36
 468              		.loc 1 154 0
 469 0056 A060     		str	r0, [r4, #8]
 470              		.loc 1 155 0
 471 0058 294A     		ldr	r2, .L57+16
 472 005a 2A48     		ldr	r0, .L57+20
 473 005c 311F     		subs	r1, r6, #4
 474 005e FFF7FEFF 		bl	chThdCreateFromMemoryPool
 475              	.LVL29:
 476              		.loc 1 156 0
 477 0062 711F     		subs	r1, r6, #5
 478              		.loc 1 155 0
 479 0064 E060     		str	r0, [r4, #12]
 480              		.loc 1 156 0
 481 0066 2C4B     		ldr	r3, .L57+40
 482 0068 254A     		ldr	r2, .L57+16
 483 006a 2648     		ldr	r0, .L57+20
 484 006c FFF7FEFF 		bl	chThdCreateFromMemoryPool
 485              	.LVL30:
 486              		.loc 1 158 0
 487 0070 2168     		ldr	r1, [r4]
 488              		.loc 1 156 0
 489 0072 2061     		str	r0, [r4, #16]
 490              		.loc 1 158 0
 491 0074 41B1     		cbz	r1, .L41
 492              		.loc 1 158 0 is_stmt 0 discriminator 1
 493 0076 6168     		ldr	r1, [r4, #4]
 494 0078 31B1     		cbz	r1, .L41
 495              		.loc 1 158 0 discriminator 3
 496 007a A168     		ldr	r1, [r4, #8]
 497 007c 21B1     		cbz	r1, .L41
 498              		.loc 1 158 0 discriminator 5
 499 007e E168     		ldr	r1, [r4, #12]
 500 0080 11B1     		cbz	r1, .L41
 501              		.loc 1 158 0 discriminator 7
 502 0082 B0FA80F1 		clz	r1, r0
 503 0086 4909     		lsrs	r1, r1, #5
 504              	.L41:
 505              		.loc 1 158 0 discriminator 12
 506 0088 0120     		movs	r0, #1
 507 008a FFF7FEFF 		bl	_test_assert
 508              	.LVL31:
 509 008e 30B1     		cbz	r0, .L56
 510              	.L39:
 511              		.loc 1 173 0 is_stmt 1
 512 0090 019A     		ldr	r2, [sp, #4]
 513 0092 2B68     		ldr	r3, [r5]
ARM GAS  /var/folders/d2/nstgp4h54kz7g1l847x_b8wc0000gn/T//ccmWFekv.s 			page 10


 514 0094 9A42     		cmp	r2, r3
 515 0096 29D1     		bne	.L55
 516 0098 02B0     		add	sp, sp, #8
 517              		.cfi_remember_state
 518              		.cfi_def_cfa_offset 24
 519              		@ sp needed
 520 009a BDE8F081 		pop	{r4, r5, r6, r7, r8, pc}
 521              	.L56:
 522              		.cfi_restore_state
 523              		.loc 1 166 0
 524 009e FFF7FEFF 		bl	test_wait_threads
 525              	.LVL32:
 526              		.loc 1 167 0
 527 00a2 1E49     		ldr	r1, .L57+44
 528 00a4 0220     		movs	r0, #2
 529 00a6 FFF7FEFF 		bl	_test_assert_sequence
 530              	.LVL33:
 531 00aa 0028     		cmp	r0, #0
 532 00ac F0D1     		bne	.L39
 533              		.loc 1 171 0
 534 00ae 154E     		ldr	r6, .L57+20
 535 00b0 0424     		movs	r4, #4
 536              	.L45:
 537              	.LVL34:
 538 00b2 3046     		mov	r0, r6
 539 00b4 FFF7FEFF 		bl	chPoolAlloc
 540              	.LVL35:
 541 00b8 011C     		adds	r1, r0, #0
 542 00ba 18BF     		it	ne
 543 00bc 0121     		movne	r1, #1
 544 00be 0320     		movs	r0, #3
 545 00c0 FFF7FEFF 		bl	_test_assert
 546              	.LVL36:
 547 00c4 0028     		cmp	r0, #0
 548 00c6 E3D1     		bne	.L39
 549              	.LVL37:
 550              		.loc 1 170 0 discriminator 2
 551 00c8 013C     		subs	r4, r4, #1
 552              	.LVL38:
 553 00ca F2D1     		bne	.L45
 554              		.loc 1 172 0
 555 00cc 0D48     		ldr	r0, .L57+20
 556 00ce FFF7FEFF 		bl	chPoolAlloc
 557              	.LVL39:
 558 00d2 019A     		ldr	r2, [sp, #4]
 559 00d4 2B68     		ldr	r3, [r5]
 560 00d6 9A42     		cmp	r2, r3
 561 00d8 08D1     		bne	.L55
 562 00da B0FA80F1 		clz	r1, r0
 563 00de 4909     		lsrs	r1, r1, #5
 564 00e0 0420     		movs	r0, #4
 565              		.loc 1 173 0
 566 00e2 02B0     		add	sp, sp, #8
 567              		.cfi_remember_state
 568              		.cfi_def_cfa_offset 24
 569              		@ sp needed
 570 00e4 BDE8F041 		pop	{r4, r5, r6, r7, r8, lr}
ARM GAS  /var/folders/d2/nstgp4h54kz7g1l847x_b8wc0000gn/T//ccmWFekv.s 			page 11


 571              		.cfi_restore 14
 572              		.cfi_restore 8
 573              		.cfi_restore 7
 574              		.cfi_restore 6
 575              		.cfi_restore 5
 576              		.cfi_restore 4
 577              		.cfi_def_cfa_offset 0
 578              	.LVL40:
 579              		.loc 1 172 0
 580 00e8 FFF7FEBF 		b	_test_assert
 581              	.LVL41:
 582              	.L55:
 583              		.cfi_restore_state
 584              		.loc 1 173 0
 585 00ec FFF7FEFF 		bl	__stack_chk_fail
 586              	.LVL42:
 587              	.L58:
 588              		.align	2
 589              	.L57:
 590 00f0 00000000 		.word	ch
 591 00f4 00000000 		.word	__stack_chk_guard
 592 00f8 00000000 		.word	wa
 593 00fc 00000000 		.word	.LC0
 594 0100 00000000 		.word	thread
 595 0104 00000000 		.word	.LANCHOR1
 596 0108 00000000 		.word	threads
 597 010c 04000000 		.word	.LC1
 598 0110 08000000 		.word	.LC2
 599 0114 00000000 		.word	.LC4
 600 0118 04000000 		.word	.LC5
 601 011c 08000000 		.word	.LC6
 602              		.cfi_endproc
 603              	.LFE223:
 604              		.size	dyn2_execute, .-dyn2_execute
 605              		.section	.text.dyn2_setup,"ax",%progbits
 606              		.align	1
 607              		.p2align 4,,15
 608              		.syntax unified
 609              		.thumb
 610              		.thumb_func
 611              		.fpu fpv4-sp-d16
 612              		.type	dyn2_setup, %function
 613              	dyn2_setup:
 614              	.LFB222:
 615              		.loc 1 138 0
 616              		.cfi_startproc
 617              		@ args = 0, pretend = 0, frame = 8
 618              		@ frame_needed = 0, uses_anonymous_args = 0
 619 0000 00B5     		push	{lr}
 620              		.cfi_def_cfa_offset 4
 621              		.cfi_offset 14, -4
 622 0002 094B     		ldr	r3, .L64
 623 0004 83B0     		sub	sp, sp, #12
 624              		.cfi_def_cfa_offset 16
 625              		.loc 1 138 0
 626 0006 1A68     		ldr	r2, [r3]
 627 0008 0192     		str	r2, [sp, #4]
ARM GAS  /var/folders/d2/nstgp4h54kz7g1l847x_b8wc0000gn/T//ccmWFekv.s 			page 12


 628              		.loc 1 140 0
 629 000a 019A     		ldr	r2, [sp, #4]
 630 000c 1B68     		ldr	r3, [r3]
 631 000e 9A42     		cmp	r2, r3
 632 0010 08D1     		bne	.L63
 633 0012 0648     		ldr	r0, .L64+4
 634 0014 0022     		movs	r2, #0
 635 0016 4FF4FC71 		mov	r1, #504
 636              		.loc 1 141 0
 637 001a 03B0     		add	sp, sp, #12
 638              		.cfi_remember_state
 639              		.cfi_def_cfa_offset 4
 640              		@ sp needed
 641 001c 5DF804EB 		ldr	lr, [sp], #4
 642              		.cfi_restore 14
 643              		.cfi_def_cfa_offset 0
 644              		.loc 1 140 0
 645 0020 FFF7FEBF 		b	chPoolObjectInit
 646              	.LVL43:
 647              	.L63:
 648              		.cfi_restore_state
 649 0024 FFF7FEFF 		bl	__stack_chk_fail
 650              	.LVL44:
 651              	.L65:
 652              		.align	2
 653              	.L64:
 654 0028 00000000 		.word	__stack_chk_guard
 655 002c 00000000 		.word	.LANCHOR1
 656              		.cfi_endproc
 657              	.LFE222:
 658              		.size	dyn2_setup, .-dyn2_setup
 659              		.section	.text.regfind,"ax",%progbits
 660              		.align	1
 661              		.p2align 4,,15
 662              		.syntax unified
 663              		.thumb
 664              		.thumb_func
 665              		.fpu fpv4-sp-d16
 666              		.type	regfind, %function
 667              	regfind:
 668              	.LFB224:
 669              		.loc 1 192 0
 670              		.cfi_startproc
 671              		@ args = 0, pretend = 0, frame = 8
 672              		@ frame_needed = 0, uses_anonymous_args = 0
 673              	.LVL45:
 674 0000 70B5     		push	{r4, r5, r6, lr}
 675              		.cfi_def_cfa_offset 16
 676              		.cfi_offset 4, -16
 677              		.cfi_offset 5, -12
 678              		.cfi_offset 6, -8
 679              		.cfi_offset 14, -4
 680 0002 0E4E     		ldr	r6, .L72
 681 0004 82B0     		sub	sp, sp, #8
 682              		.cfi_def_cfa_offset 24
 683              		.loc 1 192 0
 684 0006 3368     		ldr	r3, [r6]
ARM GAS  /var/folders/d2/nstgp4h54kz7g1l847x_b8wc0000gn/T//ccmWFekv.s 			page 13


 685 0008 0193     		str	r3, [sp, #4]
 686              	.LVL46:
 687 000a 0546     		mov	r5, r0
 688              		.loc 1 196 0
 689 000c FFF7FEFF 		bl	chRegFirstThread
 690              	.LVL47:
 691              		.loc 1 194 0
 692 0010 0024     		movs	r4, #0
 693              		.loc 1 196 0
 694 0012 0346     		mov	r3, r0
 695              	.LVL48:
 696              	.L67:
 697              		.loc 1 199 0 discriminator 1
 698 0014 1846     		mov	r0, r3
 699 0016 AB42     		cmp	r3, r5
 700 0018 08BF     		it	eq
 701 001a 44F00104 		orreq	r4, r4, #1
 702              	.LVL49:
 703 001e FFF7FEFF 		bl	chRegNextThread
 704              	.LVL50:
 705              		.loc 1 200 0 discriminator 1
 706 0022 0346     		mov	r3, r0
 707 0024 0028     		cmp	r0, #0
 708 0026 F5D1     		bne	.L67
 709              		.loc 1 202 0
 710 0028 019A     		ldr	r2, [sp, #4]
 711 002a 3368     		ldr	r3, [r6]
 712 002c 9A42     		cmp	r2, r3
 713 002e 2046     		mov	r0, r4
 714              	.LVL51:
 715 0030 01D1     		bne	.L71
 716 0032 02B0     		add	sp, sp, #8
 717              		.cfi_remember_state
 718              		.cfi_def_cfa_offset 16
 719              		@ sp needed
 720 0034 70BD     		pop	{r4, r5, r6, pc}
 721              	.LVL52:
 722              	.L71:
 723              		.cfi_restore_state
 724 0036 FFF7FEFF 		bl	__stack_chk_fail
 725              	.LVL53:
 726              	.L73:
 727 003a 00BF     		.align	2
 728              	.L72:
 729 003c 00000000 		.word	__stack_chk_guard
 730              		.cfi_endproc
 731              	.LFE224:
 732              		.size	regfind, .-regfind
 733              		.section	.text.dyn3_execute,"ax",%progbits
 734              		.align	1
 735              		.p2align 4,,15
 736              		.syntax unified
 737              		.thumb
 738              		.thumb_func
 739              		.fpu fpv4-sp-d16
 740              		.type	dyn3_execute, %function
 741              	dyn3_execute:
ARM GAS  /var/folders/d2/nstgp4h54kz7g1l847x_b8wc0000gn/T//ccmWFekv.s 			page 14


 742              	.LFB226:
 743              		.loc 1 209 0
 744              		.cfi_startproc
 745              		@ args = 0, pretend = 0, frame = 8
 746              		@ frame_needed = 0, uses_anonymous_args = 0
 747 0000 30B5     		push	{r4, r5, lr}
 748              		.cfi_def_cfa_offset 12
 749              		.cfi_offset 4, -12
 750              		.cfi_offset 5, -8
 751              		.cfi_offset 14, -4
 752              	.LBB30:
 753              	.LBB31:
 754              	.LBB32:
 755              	.LBB33:
 756              		.loc 2 176 0
 757 0002 514B     		ldr	r3, .L83
 758              	.LBE33:
 759              	.LBE32:
 760              	.LBE31:
 761              	.LBE30:
 762              		.loc 1 209 0
 763 0004 514D     		ldr	r5, .L83+4
 764              	.LBB35:
 765              	.LBB34:
 766              		.loc 2 189 0
 767 0006 9A69     		ldr	r2, [r3, #24]
 768              	.LBE34:
 769              	.LBE35:
 770              		.loc 1 209 0
 771 0008 2968     		ldr	r1, [r5]
 772              		.loc 1 214 0
 773 000a 9268     		ldr	r2, [r2, #8]
 774 000c 504B     		ldr	r3, .L83+8
 775 000e 5148     		ldr	r0, .L83+12
 776              		.loc 1 209 0
 777 0010 85B0     		sub	sp, sp, #20
 778              		.cfi_def_cfa_offset 32
 779              		.loc 1 214 0
 780 0012 013A     		subs	r2, r2, #1
 781 0014 0093     		str	r3, [sp]
 782              		.loc 1 209 0
 783 0016 0391     		str	r1, [sp, #12]
 784              		.loc 1 214 0
 785 0018 4F4B     		ldr	r3, .L83+16
 786 001a 4FF4FC71 		mov	r1, #504
 787 001e FFF7FEFF 		bl	chThdCreateFromHeap
 788              	.LVL54:
 789 0022 0446     		mov	r4, r0
 790              	.LVL55:
 791              		.loc 1 215 0
 792 0024 0120     		movs	r0, #1
 793              	.LVL56:
 794 0026 94F82210 		ldrb	r1, [r4, #34]	@ zero_extendqisi2
 795 002a 091A     		subs	r1, r1, r0
 796 002c B1FA81F1 		clz	r1, r1
 797 0030 4909     		lsrs	r1, r1, #5
 798 0032 FFF7FEFF 		bl	_test_assert
ARM GAS  /var/folders/d2/nstgp4h54kz7g1l847x_b8wc0000gn/T//ccmWFekv.s 			page 15


 799              	.LVL57:
 800 0036 30B1     		cbz	r0, .L82
 801              	.L74:
 802              		.loc 1 237 0
 803 0038 039A     		ldr	r2, [sp, #12]
 804 003a 2B68     		ldr	r3, [r5]
 805 003c 9A42     		cmp	r2, r3
 806 003e 40F08180 		bne	.L81
 807 0042 05B0     		add	sp, sp, #20
 808              		.cfi_remember_state
 809              		.cfi_def_cfa_offset 12
 810              		@ sp needed
 811 0044 30BD     		pop	{r4, r5, pc}
 812              	.LVL58:
 813              	.L82:
 814              		.cfi_restore_state
 815              		.loc 1 216 0
 816 0046 2046     		mov	r0, r4
 817 0048 FFF7FEFF 		bl	chThdAddRef
 818              	.LVL59:
 819              		.loc 1 217 0
 820 004c 94F82210 		ldrb	r1, [r4, #34]	@ zero_extendqisi2
 821 0050 0220     		movs	r0, #2
 822 0052 091A     		subs	r1, r1, r0
 823 0054 B1FA81F1 		clz	r1, r1
 824 0058 4909     		lsrs	r1, r1, #5
 825 005a FFF7FEFF 		bl	_test_assert
 826              	.LVL60:
 827 005e 0028     		cmp	r0, #0
 828 0060 EAD1     		bne	.L74
 829              		.loc 1 218 0
 830 0062 2046     		mov	r0, r4
 831 0064 FFF7FEFF 		bl	chThdRelease
 832              	.LVL61:
 833              		.loc 1 219 0
 834 0068 94F82210 		ldrb	r1, [r4, #34]	@ zero_extendqisi2
 835 006c A1F10101 		sub	r1, #1
 836 0070 B1FA81F1 		clz	r1, r1
 837 0074 0320     		movs	r0, #3
 838 0076 4909     		lsrs	r1, r1, #5
 839 0078 FFF7FEFF 		bl	_test_assert
 840              	.LVL62:
 841 007c 0028     		cmp	r0, #0
 842 007e DBD1     		bne	.L74
 843              		.loc 1 222 0
 844 0080 2046     		mov	r0, r4
 845 0082 FFF7FEFF 		bl	regfind
 846              	.LVL63:
 847 0086 0146     		mov	r1, r0
 848 0088 0420     		movs	r0, #4
 849 008a FFF7FEFF 		bl	_test_assert
 850              	.LVL64:
 851 008e 0028     		cmp	r0, #0
 852 0090 D2D1     		bne	.L74
 853              		.loc 1 223 0
 854 0092 2046     		mov	r0, r4
 855 0094 FFF7FEFF 		bl	regfind
ARM GAS  /var/folders/d2/nstgp4h54kz7g1l847x_b8wc0000gn/T//ccmWFekv.s 			page 16


 856              	.LVL65:
 857 0098 0146     		mov	r1, r0
 858 009a 0520     		movs	r0, #5
 859 009c FFF7FEFF 		bl	_test_assert
 860              	.LVL66:
 861 00a0 0028     		cmp	r0, #0
 862 00a2 C9D1     		bne	.L74
 863              		.loc 1 226 0
 864 00a4 2046     		mov	r0, r4
 865 00a6 FFF7FEFF 		bl	chThdRelease
 866              	.LVL67:
 867              		.loc 1 227 0
 868 00aa 94F82210 		ldrb	r1, [r4, #34]	@ zero_extendqisi2
 869 00ae B1FA81F1 		clz	r1, r1
 870 00b2 4909     		lsrs	r1, r1, #5
 871 00b4 0620     		movs	r0, #6
 872 00b6 FFF7FEFF 		bl	_test_assert
 873              	.LVL68:
 874 00ba 0028     		cmp	r0, #0
 875 00bc BCD1     		bne	.L74
 876              		.loc 1 228 0
 877 00be 94F82010 		ldrb	r1, [r4, #32]	@ zero_extendqisi2
 878 00c2 B1FA81F1 		clz	r1, r1
 879 00c6 4909     		lsrs	r1, r1, #5
 880 00c8 0720     		movs	r0, #7
 881 00ca FFF7FEFF 		bl	_test_assert
 882              	.LVL69:
 883 00ce 0028     		cmp	r0, #0
 884 00d0 B2D1     		bne	.L74
 885              		.loc 1 229 0
 886 00d2 2046     		mov	r0, r4
 887 00d4 FFF7FEFF 		bl	regfind
 888              	.LVL70:
 889 00d8 0146     		mov	r1, r0
 890 00da 0820     		movs	r0, #8
 891 00dc FFF7FEFF 		bl	_test_assert
 892              	.LVL71:
 893 00e0 0028     		cmp	r0, #0
 894 00e2 A9D1     		bne	.L74
 895              		.loc 1 230 0
 896 00e4 2046     		mov	r0, r4
 897 00e6 FFF7FEFF 		bl	regfind
 898              	.LVL72:
 899 00ea 0146     		mov	r1, r0
 900 00ec 0920     		movs	r0, #9
 901 00ee FFF7FEFF 		bl	_test_assert
 902              	.LVL73:
 903 00f2 0028     		cmp	r0, #0
 904 00f4 A0D1     		bne	.L74
 905              		.loc 1 231 0
 906 00f6 3220     		movs	r0, #50
 907 00f8 FFF7FEFF 		bl	chThdSleep
 908              	.LVL74:
 909              		.loc 1 232 0
 910 00fc 94F82010 		ldrb	r1, [r4, #32]	@ zero_extendqisi2
 911 0100 A1F10F03 		sub	r3, r1, #15
 912 0104 5942     		rsbs	r1, r3, #0
ARM GAS  /var/folders/d2/nstgp4h54kz7g1l847x_b8wc0000gn/T//ccmWFekv.s 			page 17


 913 0106 5941     		adcs	r1, r1, r3
 914 0108 0A20     		movs	r0, #10
 915 010a FFF7FEFF 		bl	_test_assert
 916              	.LVL75:
 917 010e 0028     		cmp	r0, #0
 918 0110 92D1     		bne	.L74
 919              		.loc 1 235 0
 920 0112 2046     		mov	r0, r4
 921 0114 FFF7FEFF 		bl	regfind
 922              	.LVL76:
 923 0118 0146     		mov	r1, r0
 924 011a 0B20     		movs	r0, #11
 925 011c FFF7FEFF 		bl	_test_assert
 926              	.LVL77:
 927 0120 0028     		cmp	r0, #0
 928 0122 89D1     		bne	.L74
 929              		.loc 1 236 0
 930 0124 2046     		mov	r0, r4
 931 0126 FFF7FEFF 		bl	regfind
 932              	.LVL78:
 933 012a 039A     		ldr	r2, [sp, #12]
 934 012c 2B68     		ldr	r3, [r5]
 935 012e 9A42     		cmp	r2, r3
 936 0130 08D1     		bne	.L81
 937 0132 80F00101 		eor	r1, r0, #1
 938 0136 C9B2     		uxtb	r1, r1
 939 0138 0C20     		movs	r0, #12
 940              		.loc 1 237 0
 941 013a 05B0     		add	sp, sp, #20
 942              		.cfi_remember_state
 943              		.cfi_def_cfa_offset 12
 944              		@ sp needed
 945 013c BDE83040 		pop	{r4, r5, lr}
 946              		.cfi_restore 14
 947              		.cfi_restore 5
 948              		.cfi_restore 4
 949              		.cfi_def_cfa_offset 0
 950              	.LVL79:
 951              		.loc 1 236 0
 952 0140 FFF7FEBF 		b	_test_assert
 953              	.LVL80:
 954              	.L81:
 955              		.cfi_restore_state
 956              		.loc 1 237 0
 957 0144 FFF7FEFF 		bl	__stack_chk_fail
 958              	.LVL81:
 959              	.L84:
 960              		.align	2
 961              	.L83:
 962 0148 00000000 		.word	ch
 963 014c 00000000 		.word	__stack_chk_guard
 964 0150 00000000 		.word	.LC0
 965 0154 00000000 		.word	.LANCHOR0
 966 0158 00000000 		.word	thread
 967              		.cfi_endproc
 968              	.LFE226:
 969              		.size	dyn3_execute, .-dyn3_execute
ARM GAS  /var/folders/d2/nstgp4h54kz7g1l847x_b8wc0000gn/T//ccmWFekv.s 			page 18


 970              		.global	patterndyn
 971              		.global	testdyn3
 972              		.global	testdyn2
 973              		.global	testdyn1
 974              		.section	.bss.heap1,"aw",%nobits
 975              		.align	3
 976              		.set	.LANCHOR0,. + 0
 977              		.type	heap1, %object
 978              		.size	heap1, 40
 979              	heap1:
 980 0000 00000000 		.space	40
 980      00000000 
 980      00000000 
 980      00000000 
 980      00000000 
 981              		.section	.bss.mp1,"aw",%nobits
 982              		.align	2
 983              		.set	.LANCHOR1,. + 0
 984              		.type	mp1, %object
 985              		.size	mp1, 12
 986              	mp1:
 987 0000 00000000 		.space	12
 987      00000000 
 987      00000000 
 988              		.section	.rodata.dyn1_execute.str1.4,"aMS",%progbits,1
 989              		.align	2
 990              	.LC0:
 991 0000 4100     		.ascii	"A\000"
 992 0002 0000     		.space	2
 993              	.LC1:
 994 0004 4200     		.ascii	"B\000"
 995 0006 0000     		.space	2
 996              	.LC2:
 997 0008 4300     		.ascii	"C\000"
 998 000a 0000     		.space	2
 999              	.LC3:
 1000 000c 414200   		.ascii	"AB\000"
 1001              		.section	.rodata.dyn2_execute.str1.4,"aMS",%progbits,1
 1002              		.align	2
 1003              	.LC4:
 1004 0000 4400     		.ascii	"D\000"
 1005 0002 0000     		.space	2
 1006              	.LC5:
 1007 0004 4500     		.ascii	"E\000"
 1008 0006 0000     		.space	2
 1009              	.LC6:
 1010 0008 41424344 		.ascii	"ABCD\000"
 1010      00
 1011              		.section	.rodata.patterndyn,"a",%progbits
 1012              		.align	2
 1013              		.type	patterndyn, %object
 1014              		.size	patterndyn, 16
 1015              	patterndyn:
 1016 0000 00000000 		.word	testdyn1
 1017 0004 00000000 		.word	testdyn2
 1018 0008 00000000 		.word	testdyn3
 1019 000c 00000000 		.word	0
ARM GAS  /var/folders/d2/nstgp4h54kz7g1l847x_b8wc0000gn/T//ccmWFekv.s 			page 19


 1020              		.section	.rodata.str1.4,"aMS",%progbits,1
 1021              		.align	2
 1022              	.LC7:
 1023 0000 44796E61 		.ascii	"Dynamic APIs, registry and references\000"
 1023      6D696320 
 1023      41504973 
 1023      2C207265 
 1023      67697374 
 1024 0026 0000     		.space	2
 1025              	.LC8:
 1026 0028 44796E61 		.ascii	"Dynamic APIs, threads creation from memory pool\000"
 1026      6D696320 
 1026      41504973 
 1026      2C207468 
 1026      72656164 
 1027              	.LC9:
 1028 0058 44796E61 		.ascii	"Dynamic APIs, threads creation from heap\000"
 1028      6D696320 
 1028      41504973 
 1028      2C207468 
 1028      72656164 
 1029              		.section	.rodata.testdyn1,"a",%progbits
 1030              		.align	2
 1031              		.type	testdyn1, %object
 1032              		.size	testdyn1, 16
 1033              	testdyn1:
 1034 0000 58000000 		.word	.LC9
 1035 0004 00000000 		.word	dyn1_setup
 1036 0008 00000000 		.word	0
 1037 000c 00000000 		.word	dyn1_execute
 1038              		.section	.rodata.testdyn2,"a",%progbits
 1039              		.align	2
 1040              		.type	testdyn2, %object
 1041              		.size	testdyn2, 16
 1042              	testdyn2:
 1043 0000 28000000 		.word	.LC8
 1044 0004 00000000 		.word	dyn2_setup
 1045 0008 00000000 		.word	0
 1046 000c 00000000 		.word	dyn2_execute
 1047              		.section	.rodata.testdyn3,"a",%progbits
 1048              		.align	2
 1049              		.type	testdyn3, %object
 1050              		.size	testdyn3, 16
 1051              	testdyn3:
 1052 0000 00000000 		.word	.LC7
 1053 0004 00000000 		.word	dyn3_setup
 1054 0008 00000000 		.word	0
 1055 000c 00000000 		.word	dyn3_execute
 1056              		.text
 1057              	.Letext0:
 1058              		.file 3 "/Applications/Eclipse_e-puck2.app/Contents/Eclipse_e-puck2/Tools/gcc-arm-none-eabi-7-2017
 1059              		.file 4 "/Applications/Eclipse_e-puck2.app/Contents/Eclipse_e-puck2/Tools/gcc-arm-none-eabi-7-2017
 1060              		.file 5 "/Applications/Eclipse_e-puck2.app/Contents/Eclipse_e-puck2/Tools/gcc-arm-none-eabi-7-2017
 1061              		.file 6 "../e-puck2_main-processor/ChibiOS//os/rt/ports/ARMCMx/compilers/GCC/chtypes.h"
 1062              		.file 7 "../e-puck2_main-processor/ChibiOS//os/rt/include/chsystypes.h"
 1063              		.file 8 "../e-puck2_main-processor/ChibiOS//os/rt/include/chschd.h"
 1064              		.file 9 "../e-puck2_main-processor/ChibiOS//os/ext/CMSIS/include/core_cm4.h"
ARM GAS  /var/folders/d2/nstgp4h54kz7g1l847x_b8wc0000gn/T//ccmWFekv.s 			page 20


 1065              		.file 10 "../e-puck2_main-processor/ChibiOS//os/ext/CMSIS/ST/system_stm32f4xx.h"
 1066              		.file 11 "../e-puck2_main-processor/ChibiOS//os/rt/ports/ARMCMx/chcore.h"
 1067              		.file 12 "../e-puck2_main-processor/ChibiOS//os/rt/ports/ARMCMx/chcore_v7m.h"
 1068              		.file 13 "../e-puck2_main-processor/ChibiOS//os/rt/include/chdebug.h"
 1069              		.file 14 "../e-puck2_main-processor/ChibiOS//os/rt/include/chtm.h"
 1070              		.file 15 "../e-puck2_main-processor/ChibiOS//os/rt/include/chstats.h"
 1071              		.file 16 "../e-puck2_main-processor/ChibiOS//os/rt/include/chsem.h"
 1072              		.file 17 "../e-puck2_main-processor/ChibiOS//os/rt/include/chmtx.h"
 1073              		.file 18 "../e-puck2_main-processor/ChibiOS//os/rt/include/chregistry.h"
 1074              		.file 19 "../e-puck2_main-processor/ChibiOS//os/rt/include/chmemcore.h"
 1075              		.file 20 "../e-puck2_main-processor/ChibiOS//os/rt/include/chheap.h"
 1076              		.file 21 "../e-puck2_main-processor/ChibiOS//os/rt/include/chmempools.h"
 1077              		.file 22 "../e-puck2_main-processor/ChibiOS//test/rt/test.h"
 1078              		.file 23 "../e-puck2_main-processor/ChibiOS//os/rt/include/chdynamic.h"