ARM GAS  /var/folders/d2/nstgp4h54kz7g1l847x_b8wc0000gn/T//cc0OwC5S.s 			page 1


   1              		.cpu cortex-m4
   2              		.eabi_attribute 27, 1
   3              		.eabi_attribute 28, 1
   4              		.eabi_attribute 20, 1
   5              		.eabi_attribute 21, 1
   6              		.eabi_attribute 23, 3
   7              		.eabi_attribute 24, 1
   8              		.eabi_attribute 25, 1
   9              		.eabi_attribute 26, 1
  10              		.eabi_attribute 30, 2
  11              		.eabi_attribute 34, 1
  12              		.eabi_attribute 18, 4
  13              		.file	"testthd.c"
  14              		.text
  15              	.Ltext0:
  16              		.cfi_sections	.debug_frame
  17              		.section	.text.thd1_execute,"ax",%progbits
  18              		.align	1
  19              		.p2align 4,,15
  20              		.syntax unified
  21              		.thumb
  22              		.thumb_func
  23              		.fpu fpv4-sp-d16
  24              		.type	thd1_execute, %function
  25              	thd1_execute:
  26              	.LFB220:
  27              		.file 1 "../e-puck2_main-processor/ChibiOS//test/rt/testthd.c"
  28              		.loc 1 65 0
  29              		.cfi_startproc
  30              		@ args = 0, pretend = 0, frame = 8
  31              		@ frame_needed = 0, uses_anonymous_args = 0
  32 0000 F0B5     		push	{r4, r5, r6, r7, lr}
  33              		.cfi_def_cfa_offset 20
  34              		.cfi_offset 4, -20
  35              		.cfi_offset 5, -16
  36              		.cfi_offset 6, -12
  37              		.cfi_offset 7, -8
  38              		.cfi_offset 14, -4
  39              	.LBB180:
  40              	.LBB181:
  41              	.LBB182:
  42              	.LBB183:
  43              		.file 2 "../e-puck2_main-processor/ChibiOS//os/rt/include/chthreads.h"
  44              		.loc 2 176 0
  45 0002 294E     		ldr	r6, .L7
  46              	.LBE183:
  47              	.LBE182:
  48              	.LBE181:
  49              	.LBE180:
  50              		.loc 1 65 0
  51 0004 294F     		ldr	r7, .L7+4
  52              	.LBB185:
  53              	.LBB184:
  54              		.loc 2 189 0
  55 0006 B369     		ldr	r3, [r6, #24]
  56              	.LBE184:
  57              	.LBE185:
ARM GAS  /var/folders/d2/nstgp4h54kz7g1l847x_b8wc0000gn/T//cc0OwC5S.s 			page 2


  58              		.loc 1 67 0
  59 0008 294D     		ldr	r5, .L7+8
  60 000a 9A68     		ldr	r2, [r3, #8]
  61              		.loc 1 65 0
  62 000c 3968     		ldr	r1, [r7]
  63              		.loc 1 67 0
  64 000e 294B     		ldr	r3, .L7+12
  65 0010 2868     		ldr	r0, [r5]
  66 0012 294C     		ldr	r4, .L7+16
  67              		.loc 1 65 0
  68 0014 85B0     		sub	sp, sp, #20
  69              		.cfi_def_cfa_offset 40
  70              		.loc 1 67 0
  71 0016 053A     		subs	r2, r2, #5
  72 0018 0093     		str	r3, [sp]
  73              		.loc 1 65 0
  74 001a 0391     		str	r1, [sp, #12]
  75              		.loc 1 67 0
  76 001c 274B     		ldr	r3, .L7+20
  77 001e 4FF4FC71 		mov	r1, #504
  78 0022 FFF7FEFF 		bl	chThdCreateStatic
  79              	.LVL0:
  80              	.LBB186:
  81              	.LBB187:
  82              		.loc 2 189 0
  83 0026 B369     		ldr	r3, [r6, #24]
  84              	.LBE187:
  85              	.LBE186:
  86              		.loc 1 67 0
  87 0028 2060     		str	r0, [r4]
  88              		.loc 1 68 0
  89 002a 9A68     		ldr	r2, [r3, #8]
  90 002c 244B     		ldr	r3, .L7+24
  91 002e 0093     		str	r3, [sp]
  92 0030 043A     		subs	r2, r2, #4
  93 0032 224B     		ldr	r3, .L7+20
  94 0034 6868     		ldr	r0, [r5, #4]
  95 0036 4FF4FC71 		mov	r1, #504
  96 003a FFF7FEFF 		bl	chThdCreateStatic
  97              	.LVL1:
  98              	.LBB188:
  99              	.LBB189:
 100              		.loc 2 189 0
 101 003e B369     		ldr	r3, [r6, #24]
 102              	.LBE189:
 103              	.LBE188:
 104              		.loc 1 68 0
 105 0040 6060     		str	r0, [r4, #4]
 106              		.loc 1 69 0
 107 0042 9A68     		ldr	r2, [r3, #8]
 108 0044 1F4B     		ldr	r3, .L7+28
 109 0046 0093     		str	r3, [sp]
 110 0048 033A     		subs	r2, r2, #3
 111 004a 1C4B     		ldr	r3, .L7+20
 112 004c A868     		ldr	r0, [r5, #8]
 113 004e 4FF4FC71 		mov	r1, #504
 114 0052 FFF7FEFF 		bl	chThdCreateStatic
ARM GAS  /var/folders/d2/nstgp4h54kz7g1l847x_b8wc0000gn/T//cc0OwC5S.s 			page 3


 115              	.LVL2:
 116              	.LBB190:
 117              	.LBB191:
 118              		.loc 2 189 0
 119 0056 B369     		ldr	r3, [r6, #24]
 120              	.LBE191:
 121              	.LBE190:
 122              		.loc 1 69 0
 123 0058 A060     		str	r0, [r4, #8]
 124              		.loc 1 70 0
 125 005a 9A68     		ldr	r2, [r3, #8]
 126 005c 1A4B     		ldr	r3, .L7+32
 127 005e 0093     		str	r3, [sp]
 128 0060 023A     		subs	r2, r2, #2
 129 0062 164B     		ldr	r3, .L7+20
 130 0064 E868     		ldr	r0, [r5, #12]
 131 0066 4FF4FC71 		mov	r1, #504
 132 006a FFF7FEFF 		bl	chThdCreateStatic
 133              	.LVL3:
 134              	.LBB192:
 135              	.LBB193:
 136              		.loc 2 189 0
 137 006e B369     		ldr	r3, [r6, #24]
 138              	.LBE193:
 139              	.LBE192:
 140              		.loc 1 70 0
 141 0070 E060     		str	r0, [r4, #12]
 142              		.loc 1 71 0
 143 0072 9A68     		ldr	r2, [r3, #8]
 144 0074 154B     		ldr	r3, .L7+36
 145 0076 0093     		str	r3, [sp]
 146 0078 013A     		subs	r2, r2, #1
 147 007a 104B     		ldr	r3, .L7+20
 148 007c 2869     		ldr	r0, [r5, #16]
 149 007e 4FF4FC71 		mov	r1, #504
 150 0082 FFF7FEFF 		bl	chThdCreateStatic
 151              	.LVL4:
 152 0086 2061     		str	r0, [r4, #16]
 153              		.loc 1 72 0
 154 0088 FFF7FEFF 		bl	test_wait_threads
 155              	.LVL5:
 156              		.loc 1 73 0
 157 008c 039A     		ldr	r2, [sp, #12]
 158 008e 3B68     		ldr	r3, [r7]
 159 0090 9A42     		cmp	r2, r3
 160 0092 06D1     		bne	.L6
 161 0094 0E49     		ldr	r1, .L7+40
 162 0096 0120     		movs	r0, #1
 163              		.loc 1 74 0
 164 0098 05B0     		add	sp, sp, #20
 165              		.cfi_remember_state
 166              		.cfi_def_cfa_offset 20
 167              		@ sp needed
 168 009a BDE8F040 		pop	{r4, r5, r6, r7, lr}
 169              		.cfi_restore 14
 170              		.cfi_restore 7
 171              		.cfi_restore 6
ARM GAS  /var/folders/d2/nstgp4h54kz7g1l847x_b8wc0000gn/T//cc0OwC5S.s 			page 4


 172              		.cfi_restore 5
 173              		.cfi_restore 4
 174              		.cfi_def_cfa_offset 0
 175              		.loc 1 73 0
 176 009e FFF7FEBF 		b	_test_assert_sequence
 177              	.LVL6:
 178              	.L6:
 179              		.cfi_restore_state
 180 00a2 FFF7FEFF 		bl	__stack_chk_fail
 181              	.LVL7:
 182              	.L8:
 183 00a6 00BF     		.align	2
 184              	.L7:
 185 00a8 00000000 		.word	ch
 186 00ac 00000000 		.word	__stack_chk_guard
 187 00b0 00000000 		.word	wa
 188 00b4 00000000 		.word	.LC0
 189 00b8 00000000 		.word	threads
 190 00bc 00000000 		.word	thread
 191 00c0 04000000 		.word	.LC1
 192 00c4 08000000 		.word	.LC2
 193 00c8 0C000000 		.word	.LC3
 194 00cc 10000000 		.word	.LC4
 195 00d0 14000000 		.word	.LC5
 196              		.cfi_endproc
 197              	.LFE220:
 198              		.size	thd1_execute, .-thd1_execute
 199              		.section	.text.thread,"ax",%progbits
 200              		.align	1
 201              		.p2align 4,,15
 202              		.syntax unified
 203              		.thumb
 204              		.thumb_func
 205              		.fpu fpv4-sp-d16
 206              		.type	thread, %function
 207              	thread:
 208              	.LFB219:
 209              		.loc 1 60 0
 210              		.cfi_startproc
 211              		@ args = 0, pretend = 0, frame = 8
 212              		@ frame_needed = 0, uses_anonymous_args = 0
 213              	.LVL8:
 214 0000 00B5     		push	{lr}
 215              		.cfi_def_cfa_offset 4
 216              		.cfi_offset 14, -4
 217 0002 084B     		ldr	r3, .L14
 218 0004 83B0     		sub	sp, sp, #12
 219              		.cfi_def_cfa_offset 16
 220              		.loc 1 60 0
 221 0006 1A68     		ldr	r2, [r3]
 222 0008 0192     		str	r2, [sp, #4]
 223              		.loc 1 62 0
 224 000a 019A     		ldr	r2, [sp, #4]
 225 000c 1B68     		ldr	r3, [r3]
 226 000e 9A42     		cmp	r2, r3
 227 0010 05D1     		bne	.L13
 228 0012 0078     		ldrb	r0, [r0]	@ zero_extendqisi2
ARM GAS  /var/folders/d2/nstgp4h54kz7g1l847x_b8wc0000gn/T//cc0OwC5S.s 			page 5


 229              	.LVL9:
 230              		.loc 1 63 0
 231 0014 03B0     		add	sp, sp, #12
 232              		.cfi_remember_state
 233              		.cfi_def_cfa_offset 4
 234              		@ sp needed
 235 0016 5DF804EB 		ldr	lr, [sp], #4
 236              		.cfi_restore 14
 237              		.cfi_def_cfa_offset 0
 238              		.loc 1 62 0
 239 001a FFF7FEBF 		b	test_emit_token
 240              	.LVL10:
 241              	.L13:
 242              		.cfi_restore_state
 243 001e FFF7FEFF 		bl	__stack_chk_fail
 244              	.LVL11:
 245              	.L15:
 246 0022 00BF     		.align	2
 247              	.L14:
 248 0024 00000000 		.word	__stack_chk_guard
 249              		.cfi_endproc
 250              	.LFE219:
 251              		.size	thread, .-thread
 252              		.section	.text.thd2_execute,"ax",%progbits
 253              		.align	1
 254              		.p2align 4,,15
 255              		.syntax unified
 256              		.thumb
 257              		.thumb_func
 258              		.fpu fpv4-sp-d16
 259              		.type	thd2_execute, %function
 260              	thd2_execute:
 261              	.LFB221:
 262              		.loc 1 93 0
 263              		.cfi_startproc
 264              		@ args = 0, pretend = 0, frame = 8
 265              		@ frame_needed = 0, uses_anonymous_args = 0
 266 0000 F0B5     		push	{r4, r5, r6, r7, lr}
 267              		.cfi_def_cfa_offset 20
 268              		.cfi_offset 4, -20
 269              		.cfi_offset 5, -16
 270              		.cfi_offset 6, -12
 271              		.cfi_offset 7, -8
 272              		.cfi_offset 14, -4
 273              	.LBB224:
 274              	.LBB225:
 275              	.LBB226:
 276              	.LBB227:
 277              		.loc 2 176 0
 278 0002 374C     		ldr	r4, .L23
 279              	.LBE227:
 280              	.LBE226:
 281              	.LBE225:
 282              	.LBE224:
 283              		.loc 1 93 0
 284 0004 374F     		ldr	r7, .L23+4
 285              	.LBB229:
ARM GAS  /var/folders/d2/nstgp4h54kz7g1l847x_b8wc0000gn/T//cc0OwC5S.s 			page 6


 286              	.LBB228:
 287              		.loc 2 189 0
 288 0006 A369     		ldr	r3, [r4, #24]
 289              	.LBE228:
 290              	.LBE229:
 291              		.loc 1 95 0
 292 0008 374E     		ldr	r6, .L23+8
 293 000a 9A68     		ldr	r2, [r3, #8]
 294              		.loc 1 93 0
 295 000c 3968     		ldr	r1, [r7]
 296              		.loc 1 95 0
 297 000e 374B     		ldr	r3, .L23+12
 298 0010 7068     		ldr	r0, [r6, #4]
 299 0012 374D     		ldr	r5, .L23+16
 300              		.loc 1 93 0
 301 0014 85B0     		sub	sp, sp, #20
 302              		.cfi_def_cfa_offset 40
 303              		.loc 1 95 0
 304 0016 043A     		subs	r2, r2, #4
 305 0018 0093     		str	r3, [sp]
 306              		.loc 1 93 0
 307 001a 0391     		str	r1, [sp, #12]
 308              		.loc 1 95 0
 309 001c 354B     		ldr	r3, .L23+20
 310 001e 4FF4FC71 		mov	r1, #504
 311 0022 FFF7FEFF 		bl	chThdCreateStatic
 312              	.LVL12:
 313              	.LBB230:
 314              	.LBB231:
 315              		.loc 2 189 0
 316 0026 A369     		ldr	r3, [r4, #24]
 317              	.LBE231:
 318              	.LBE230:
 319              		.loc 1 95 0
 320 0028 6860     		str	r0, [r5, #4]
 321              		.loc 1 96 0
 322 002a 9A68     		ldr	r2, [r3, #8]
 323 002c 324B     		ldr	r3, .L23+24
 324 002e 0093     		str	r3, [sp]
 325 0030 3068     		ldr	r0, [r6]
 326 0032 304B     		ldr	r3, .L23+20
 327 0034 053A     		subs	r2, r2, #5
 328 0036 4FF4FC71 		mov	r1, #504
 329 003a FFF7FEFF 		bl	chThdCreateStatic
 330              	.LVL13:
 331              	.LBB232:
 332              	.LBB233:
 333              		.loc 2 189 0
 334 003e A369     		ldr	r3, [r4, #24]
 335              	.LBE233:
 336              	.LBE232:
 337              		.loc 1 96 0
 338 0040 2860     		str	r0, [r5]
 339              		.loc 1 97 0
 340 0042 9A68     		ldr	r2, [r3, #8]
 341 0044 2D4B     		ldr	r3, .L23+28
 342 0046 0093     		str	r3, [sp]
ARM GAS  /var/folders/d2/nstgp4h54kz7g1l847x_b8wc0000gn/T//cc0OwC5S.s 			page 7


 343 0048 3069     		ldr	r0, [r6, #16]
 344 004a 2A4B     		ldr	r3, .L23+20
 345 004c 013A     		subs	r2, r2, #1
 346 004e 4FF4FC71 		mov	r1, #504
 347 0052 FFF7FEFF 		bl	chThdCreateStatic
 348              	.LVL14:
 349              	.LBB234:
 350              	.LBB235:
 351              		.loc 2 189 0
 352 0056 A369     		ldr	r3, [r4, #24]
 353              	.LBE235:
 354              	.LBE234:
 355              		.loc 1 97 0
 356 0058 2861     		str	r0, [r5, #16]
 357              		.loc 1 98 0
 358 005a 9A68     		ldr	r2, [r3, #8]
 359 005c 284B     		ldr	r3, .L23+32
 360 005e 0093     		str	r3, [sp]
 361 0060 F068     		ldr	r0, [r6, #12]
 362 0062 244B     		ldr	r3, .L23+20
 363 0064 023A     		subs	r2, r2, #2
 364 0066 4FF4FC71 		mov	r1, #504
 365 006a FFF7FEFF 		bl	chThdCreateStatic
 366              	.LVL15:
 367              	.LBB236:
 368              	.LBB237:
 369              	.LBB238:
 370              	.LBB239:
 371              	.LBB240:
 372              		.file 3 "../e-puck2_main-processor/ChibiOS//os/ext/CMSIS/include/core_cmFunc.h"
 373              		.loc 3 546 0
 374 006e 2023     		movs	r3, #32
 375              	.LBE240:
 376              	.LBE239:
 377              	.LBE238:
 378              	.LBE237:
 379              	.LBE236:
 380              		.loc 1 98 0
 381 0070 E860     		str	r0, [r5, #12]
 382              	.LVL16:
 383              	.LBB245:
 384              	.LBB244:
 385              	.LBB243:
 386              	.LBB242:
 387              	.LBB241:
 388              		.loc 3 546 0
 389              		.syntax unified
 390              	@ 546 "../e-puck2_main-processor/ChibiOS//os/ext/CMSIS/include/core_cmFunc.h" 1
 391 0072 83F31188 		MSR basepri, r3
 392              	@ 0 "" 2
 393              	.LVL17:
 394              		.thumb
 395              		.syntax unified
 396              	.LBE241:
 397              	.LBE242:
 398              	.LBE243:
 399              		.file 4 "../e-puck2_main-processor/ChibiOS//os/rt/include/chsys.h"
ARM GAS  /var/folders/d2/nstgp4h54kz7g1l847x_b8wc0000gn/T//cc0OwC5S.s 			page 8


 400              		.loc 4 349 0
 401 0076 FFF7FEFF 		bl	_stats_start_measure_crit_thd
 402              	.LVL18:
 403              		.loc 4 350 0
 404 007a FFF7FEFF 		bl	_dbg_check_lock
 405              	.LVL19:
 406              	.LBE244:
 407              	.LBE245:
 408              	.LBB246:
 409              	.LBB247:
 410              		.loc 2 189 0
 411 007e A369     		ldr	r3, [r4, #24]
 412              	.LBE247:
 413              	.LBE246:
 414              		.loc 1 101 0
 415 0080 B068     		ldr	r0, [r6, #8]
 416 0082 9A68     		ldr	r2, [r3, #8]
 417 0084 1F4B     		ldr	r3, .L23+36
 418 0086 0093     		str	r3, [sp]
 419 0088 033A     		subs	r2, r2, #3
 420 008a 1A4B     		ldr	r3, .L23+20
 421 008c 4FF4FC71 		mov	r1, #504
 422 0090 FFF7FEFF 		bl	chThdCreateI
 423              	.LVL20:
 424 0094 A860     		str	r0, [r5, #8]
 425              	.LBB248:
 426              	.LBB249:
 427              		.loc 4 360 0
 428 0096 FFF7FEFF 		bl	_dbg_check_unlock
 429              	.LVL21:
 430              		.loc 4 361 0
 431 009a FFF7FEFF 		bl	_stats_stop_measure_crit_thd
 432              	.LVL22:
 433              		.loc 4 367 0
 434 009e 2368     		ldr	r3, [r4]
 435 00a0 A342     		cmp	r3, r4
 436 00a2 04D0     		beq	.L17
 437 00a4 A269     		ldr	r2, [r4, #24]
 438 00a6 9B68     		ldr	r3, [r3, #8]
 439 00a8 9268     		ldr	r2, [r2, #8]
 440 00aa 9A42     		cmp	r2, r3
 441 00ac 12D3     		bcc	.L21
 442              	.L17:
 443              	.LVL23:
 444              	.LBB250:
 445              	.LBB251:
 446              	.LBB252:
 447              		.loc 3 546 0
 448 00ae 0023     		movs	r3, #0
 449              		.syntax unified
 450              	@ 546 "../e-puck2_main-processor/ChibiOS//os/ext/CMSIS/include/core_cmFunc.h" 1
 451 00b0 83F31188 		MSR basepri, r3
 452              	@ 0 "" 2
 453              	.LVL24:
 454              		.thumb
 455              		.syntax unified
 456              	.LBE252:
ARM GAS  /var/folders/d2/nstgp4h54kz7g1l847x_b8wc0000gn/T//cc0OwC5S.s 			page 9


 457              	.LBE251:
 458              	.LBE250:
 459              	.LBE249:
 460              	.LBE248:
 461              		.loc 1 103 0
 462 00b4 A868     		ldr	r0, [r5, #8]
 463 00b6 FFF7FEFF 		bl	chThdStart
 464              	.LVL25:
 465              		.loc 1 104 0
 466 00ba FFF7FEFF 		bl	test_wait_threads
 467              	.LVL26:
 468              		.loc 1 105 0
 469 00be 039A     		ldr	r2, [sp, #12]
 470 00c0 3B68     		ldr	r3, [r7]
 471 00c2 9A42     		cmp	r2, r3
 472 00c4 0AD1     		bne	.L22
 473 00c6 1049     		ldr	r1, .L23+40
 474 00c8 0120     		movs	r0, #1
 475              		.loc 1 106 0
 476 00ca 05B0     		add	sp, sp, #20
 477              		.cfi_remember_state
 478              		.cfi_def_cfa_offset 20
 479              		@ sp needed
 480 00cc BDE8F040 		pop	{r4, r5, r6, r7, lr}
 481              		.cfi_restore 14
 482              		.cfi_restore 7
 483              		.cfi_restore 6
 484              		.cfi_restore 5
 485              		.cfi_restore 4
 486              		.cfi_def_cfa_offset 0
 487              		.loc 1 105 0
 488 00d0 FFF7FEBF 		b	_test_assert_sequence
 489              	.LVL27:
 490              	.L21:
 491              		.cfi_restore_state
 492              	.LBB254:
 493              	.LBB253:
 494              		.loc 4 367 0
 495 00d4 0D48     		ldr	r0, .L23+44
 496 00d6 FFF7FEFF 		bl	chSysHalt
 497              	.LVL28:
 498 00da E8E7     		b	.L17
 499              	.L22:
 500              	.LBE253:
 501              	.LBE254:
 502              		.loc 1 105 0
 503 00dc FFF7FEFF 		bl	__stack_chk_fail
 504              	.LVL29:
 505              	.L24:
 506              		.align	2
 507              	.L23:
 508 00e0 00000000 		.word	ch
 509 00e4 00000000 		.word	__stack_chk_guard
 510 00e8 00000000 		.word	wa
 511 00ec 04000000 		.word	.LC1
 512 00f0 00000000 		.word	threads
 513 00f4 00000000 		.word	thread
ARM GAS  /var/folders/d2/nstgp4h54kz7g1l847x_b8wc0000gn/T//cc0OwC5S.s 			page 10


 514 00f8 00000000 		.word	.LC0
 515 00fc 10000000 		.word	.LC4
 516 0100 0C000000 		.word	.LC3
 517 0104 08000000 		.word	.LC2
 518 0108 14000000 		.word	.LC5
 519 010c 00000000 		.word	.LANCHOR0
 520              		.cfi_endproc
 521              	.LFE221:
 522              		.size	thd2_execute, .-thd2_execute
 523              		.section	.text.thd4_execute,"ax",%progbits
 524              		.align	1
 525              		.p2align 4,,15
 526              		.syntax unified
 527              		.thumb
 528              		.thumb_func
 529              		.fpu fpv4-sp-d16
 530              		.type	thd4_execute, %function
 531              	thd4_execute:
 532              	.LFB223:
 533              		.loc 1 188 0
 534              		.cfi_startproc
 535              		@ args = 0, pretend = 0, frame = 8
 536              		@ frame_needed = 0, uses_anonymous_args = 0
 537 0000 70B5     		push	{r4, r5, r6, lr}
 538              		.cfi_def_cfa_offset 16
 539              		.cfi_offset 4, -16
 540              		.cfi_offset 5, -12
 541              		.cfi_offset 6, -8
 542              		.cfi_offset 14, -4
 543 0002 574E     		ldr	r6, .L40
 544 0004 82B0     		sub	sp, sp, #8
 545              		.cfi_def_cfa_offset 24
 546              		.loc 1 188 0
 547 0006 3368     		ldr	r3, [r6]
 548 0008 0193     		str	r3, [sp, #4]
 549              		.loc 1 191 0
 550 000a FFF7FEFF 		bl	test_wait_tick
 551              	.LVL30:
 552              	.LBB331:
 553              	.LBB332:
 554              	.LBB333:
 555              	.LBB334:
 556              	.LBB335:
 557              	.LBB336:
 558              	.LBB337:
 559              		.loc 3 546 0
 560 000e 2023     		movs	r3, #32
 561              		.syntax unified
 562              	@ 546 "../e-puck2_main-processor/ChibiOS//os/ext/CMSIS/include/core_cmFunc.h" 1
 563 0010 83F31188 		MSR basepri, r3
 564              	@ 0 "" 2
 565              	.LVL31:
 566              		.thumb
 567              		.syntax unified
 568              	.LBE337:
 569              	.LBE336:
 570              	.LBE335:
ARM GAS  /var/folders/d2/nstgp4h54kz7g1l847x_b8wc0000gn/T//cc0OwC5S.s 			page 11


 571              	.LBE334:
 572              	.LBE333:
 573              	.LBB339:
 574              	.LBB340:
 575              		.file 5 "../e-puck2_main-processor/ChibiOS//os/rt/include/chvt.h"
 576              		.loc 5 231 0
 577 0014 534C     		ldr	r4, .L40+4
 578              	.LBE340:
 579              	.LBE339:
 580              	.LBB342:
 581              	.LBB338:
 582              		.loc 4 349 0
 583 0016 FFF7FEFF 		bl	_stats_start_measure_crit_thd
 584              	.LVL32:
 585              		.loc 4 350 0
 586 001a FFF7FEFF 		bl	_dbg_check_lock
 587              	.LVL33:
 588              	.LBE338:
 589              	.LBE342:
 590              	.LBB343:
 591              	.LBB341:
 592              		.loc 5 231 0
 593 001e A56A     		ldr	r5, [r4, #40]
 594              	.LBE341:
 595              	.LBE343:
 596              	.LBB344:
 597              	.LBB345:
 598              		.loc 4 360 0
 599 0020 FFF7FEFF 		bl	_dbg_check_unlock
 600              	.LVL34:
 601              		.loc 4 361 0
 602 0024 FFF7FEFF 		bl	_stats_stop_measure_crit_thd
 603              	.LVL35:
 604              		.loc 4 367 0
 605 0028 2368     		ldr	r3, [r4]
 606 002a A342     		cmp	r3, r4
 607 002c 04D0     		beq	.L26
 608 002e A269     		ldr	r2, [r4, #24]
 609 0030 9B68     		ldr	r3, [r3, #8]
 610 0032 9268     		ldr	r2, [r2, #8]
 611 0034 9A42     		cmp	r2, r3
 612 0036 13D3     		bcc	.L37
 613              	.L26:
 614              	.LVL36:
 615              	.LBB346:
 616              	.LBB347:
 617              	.LBB348:
 618              		.loc 3 546 0
 619 0038 0023     		movs	r3, #0
 620              		.syntax unified
 621              	@ 546 "../e-puck2_main-processor/ChibiOS//os/ext/CMSIS/include/core_cmFunc.h" 1
 622 003a 83F31188 		MSR basepri, r3
 623              	@ 0 "" 2
 624              	.LVL37:
 625              		.thumb
 626              		.syntax unified
 627              	.LBE348:
ARM GAS  /var/folders/d2/nstgp4h54kz7g1l847x_b8wc0000gn/T//cc0OwC5S.s 			page 12


 628              	.LBE347:
 629              	.LBE346:
 630              	.LBE345:
 631              	.LBE344:
 632              	.LBE332:
 633              	.LBE331:
 634              		.loc 1 195 0
 635 003e 6420     		movs	r0, #100
 636 0040 FFF7FEFF 		bl	chThdSleep
 637              	.LVL38:
 638              		.loc 1 196 0
 639 0044 05F16502 		add	r2, r5, #101
 640 0048 05F16401 		add	r1, r5, #100
 641 004c 0120     		movs	r0, #1
 642 004e FFF7FEFF 		bl	_test_assert_time_window
 643              	.LVL39:
 644 0052 48B1     		cbz	r0, .L38
 645              	.L25:
 646              		.loc 1 220 0
 647 0054 019A     		ldr	r2, [sp, #4]
 648 0056 3368     		ldr	r3, [r6]
 649 0058 9A42     		cmp	r2, r3
 650 005a 7FD1     		bne	.L36
 651 005c 02B0     		add	sp, sp, #8
 652              		.cfi_remember_state
 653              		.cfi_def_cfa_offset 16
 654              		@ sp needed
 655 005e 70BD     		pop	{r4, r5, r6, pc}
 656              	.L37:
 657              		.cfi_restore_state
 658              	.LBB352:
 659              	.LBB351:
 660              	.LBB350:
 661              	.LBB349:
 662              		.loc 4 367 0
 663 0060 4148     		ldr	r0, .L40+8
 664 0062 FFF7FEFF 		bl	chSysHalt
 665              	.LVL40:
 666 0066 E7E7     		b	.L26
 667              	.L38:
 668              	.LVL41:
 669              	.LBE349:
 670              	.LBE350:
 671              	.LBE351:
 672              	.LBE352:
 673              	.LBB353:
 674              	.LBB354:
 675              	.LBB355:
 676              	.LBB356:
 677              	.LBB357:
 678              	.LBB358:
 679              	.LBB359:
 680              		.loc 3 546 0
 681 0068 2023     		movs	r3, #32
 682              		.syntax unified
 683              	@ 546 "../e-puck2_main-processor/ChibiOS//os/ext/CMSIS/include/core_cmFunc.h" 1
 684 006a 83F31188 		MSR basepri, r3
ARM GAS  /var/folders/d2/nstgp4h54kz7g1l847x_b8wc0000gn/T//cc0OwC5S.s 			page 13


 685              	@ 0 "" 2
 686              	.LVL42:
 687              		.thumb
 688              		.syntax unified
 689              	.LBE359:
 690              	.LBE358:
 691              	.LBE357:
 692              		.loc 4 349 0
 693 006e FFF7FEFF 		bl	_stats_start_measure_crit_thd
 694              	.LVL43:
 695              		.loc 4 350 0
 696 0072 FFF7FEFF 		bl	_dbg_check_lock
 697              	.LVL44:
 698              	.LBE356:
 699              	.LBE355:
 700              	.LBB360:
 701              	.LBB361:
 702              		.loc 5 231 0
 703 0076 A56A     		ldr	r5, [r4, #40]
 704              	.LBE361:
 705              	.LBE360:
 706              	.LBB362:
 707              	.LBB363:
 708              		.loc 4 360 0
 709 0078 FFF7FEFF 		bl	_dbg_check_unlock
 710              	.LVL45:
 711              		.loc 4 361 0
 712 007c FFF7FEFF 		bl	_stats_stop_measure_crit_thd
 713              	.LVL46:
 714              		.loc 4 367 0
 715 0080 2368     		ldr	r3, [r4]
 716 0082 A342     		cmp	r3, r4
 717 0084 04D0     		beq	.L29
 718 0086 A269     		ldr	r2, [r4, #24]
 719 0088 9B68     		ldr	r3, [r3, #8]
 720 008a 9268     		ldr	r2, [r2, #8]
 721 008c 9A42     		cmp	r2, r3
 722 008e 61D3     		bcc	.L39
 723              	.L29:
 724              	.LVL47:
 725              	.LBB364:
 726              	.LBB365:
 727              	.LBB366:
 728              		.loc 3 546 0
 729 0090 0023     		movs	r3, #0
 730              		.syntax unified
 731              	@ 546 "../e-puck2_main-processor/ChibiOS//os/ext/CMSIS/include/core_cmFunc.h" 1
 732 0092 83F31188 		MSR basepri, r3
 733              	@ 0 "" 2
 734              	.LVL48:
 735              		.thumb
 736              		.syntax unified
 737              	.LBE366:
 738              	.LBE365:
 739              	.LBE364:
 740              	.LBE363:
 741              	.LBE362:
ARM GAS  /var/folders/d2/nstgp4h54kz7g1l847x_b8wc0000gn/T//cc0OwC5S.s 			page 14


 742              	.LBE354:
 743              	.LBE353:
 744              		.loc 1 202 0
 745 0096 6420     		movs	r0, #100
 746 0098 FFF7FEFF 		bl	chThdSleep
 747              	.LVL49:
 748              		.loc 1 203 0
 749 009c 05F16502 		add	r2, r5, #101
 750 00a0 05F16401 		add	r1, r5, #100
 751 00a4 0220     		movs	r0, #2
 752 00a6 FFF7FEFF 		bl	_test_assert_time_window
 753              	.LVL50:
 754 00aa 0028     		cmp	r0, #0
 755 00ac D2D1     		bne	.L25
 756              	.LVL51:
 757              	.LBB370:
 758              	.LBB371:
 759              	.LBB372:
 760              	.LBB373:
 761              	.LBB374:
 762              	.LBB375:
 763              	.LBB376:
 764              	.LBB377:
 765              	.LBB378:
 766              		.loc 3 546 0
 767 00ae 2023     		movs	r3, #32
 768              		.syntax unified
 769              	@ 546 "../e-puck2_main-processor/ChibiOS//os/ext/CMSIS/include/core_cmFunc.h" 1
 770 00b0 83F31188 		MSR basepri, r3
 771              	@ 0 "" 2
 772              	.LVL52:
 773              		.thumb
 774              		.syntax unified
 775              	.LBE378:
 776              	.LBE377:
 777              	.LBE376:
 778              		.loc 4 349 0
 779 00b4 FFF7FEFF 		bl	_stats_start_measure_crit_thd
 780              	.LVL53:
 781              		.loc 4 350 0
 782 00b8 FFF7FEFF 		bl	_dbg_check_lock
 783              	.LVL54:
 784              	.LBE375:
 785              	.LBE374:
 786              	.LBB379:
 787              	.LBB380:
 788              		.loc 5 231 0
 789 00bc A56A     		ldr	r5, [r4, #40]
 790              	.LBE380:
 791              	.LBE379:
 792              	.LBB381:
 793              	.LBB382:
 794              		.loc 4 360 0
 795 00be FFF7FEFF 		bl	_dbg_check_unlock
 796              	.LVL55:
 797              		.loc 4 361 0
 798 00c2 FFF7FEFF 		bl	_stats_stop_measure_crit_thd
ARM GAS  /var/folders/d2/nstgp4h54kz7g1l847x_b8wc0000gn/T//cc0OwC5S.s 			page 15


 799              	.LVL56:
 800              		.loc 4 367 0
 801 00c6 2368     		ldr	r3, [r4]
 802 00c8 A342     		cmp	r3, r4
 803 00ca 07D0     		beq	.L31
 804 00cc A269     		ldr	r2, [r4, #24]
 805 00ce 9B68     		ldr	r3, [r3, #8]
 806 00d0 9268     		ldr	r2, [r2, #8]
 807 00d2 9A42     		cmp	r2, r3
 808 00d4 02D2     		bcs	.L31
 809 00d6 2448     		ldr	r0, .L40+8
 810 00d8 FFF7FEFF 		bl	chSysHalt
 811              	.LVL57:
 812              	.L31:
 813              	.LBB383:
 814              	.LBB384:
 815              	.LBB385:
 816              		.loc 3 546 0
 817 00dc 0023     		movs	r3, #0
 818              		.syntax unified
 819              	@ 546 "../e-puck2_main-processor/ChibiOS//os/ext/CMSIS/include/core_cmFunc.h" 1
 820 00de 83F31188 		MSR basepri, r3
 821              	@ 0 "" 2
 822              	.LVL58:
 823              		.thumb
 824              		.syntax unified
 825              	.LBE385:
 826              	.LBE384:
 827              	.LBE383:
 828              	.LBE382:
 829              	.LBE381:
 830              	.LBE373:
 831              	.LBE372:
 832              		.loc 1 209 0
 833 00e2 4FF47A70 		mov	r0, #1000
 834 00e6 FFF7FEFF 		bl	chThdSleep
 835              	.LVL59:
 836              		.loc 1 210 0
 837 00ea 05F2E932 		addw	r2, r5, #1001
 838 00ee 05F57A71 		add	r1, r5, #1000
 839 00f2 0320     		movs	r0, #3
 840 00f4 FFF7FEFF 		bl	_test_assert_time_window
 841              	.LVL60:
 842 00f8 0028     		cmp	r0, #0
 843 00fa ABD1     		bne	.L25
 844              	.LVL61:
 845              	.LBB386:
 846              	.LBB387:
 847              	.LBB388:
 848              	.LBB389:
 849              	.LBB390:
 850              	.LBB391:
 851              	.LBB392:
 852              		.loc 3 546 0
 853 00fc 2023     		movs	r3, #32
 854              		.syntax unified
 855              	@ 546 "../e-puck2_main-processor/ChibiOS//os/ext/CMSIS/include/core_cmFunc.h" 1
ARM GAS  /var/folders/d2/nstgp4h54kz7g1l847x_b8wc0000gn/T//cc0OwC5S.s 			page 16


 856 00fe 83F31188 		MSR basepri, r3
 857              	@ 0 "" 2
 858              	.LVL62:
 859              		.thumb
 860              		.syntax unified
 861              	.LBE392:
 862              	.LBE391:
 863              	.LBE390:
 864              		.loc 4 349 0
 865 0102 FFF7FEFF 		bl	_stats_start_measure_crit_thd
 866              	.LVL63:
 867              		.loc 4 350 0
 868 0106 FFF7FEFF 		bl	_dbg_check_lock
 869              	.LVL64:
 870              	.LBE389:
 871              	.LBE388:
 872              	.LBB393:
 873              	.LBB394:
 874              		.loc 5 231 0
 875 010a A56A     		ldr	r5, [r4, #40]
 876              	.LBE394:
 877              	.LBE393:
 878              	.LBB395:
 879              	.LBB396:
 880              		.loc 4 360 0
 881 010c FFF7FEFF 		bl	_dbg_check_unlock
 882              	.LVL65:
 883              		.loc 4 361 0
 884 0110 FFF7FEFF 		bl	_stats_stop_measure_crit_thd
 885              	.LVL66:
 886              		.loc 4 367 0
 887 0114 2368     		ldr	r3, [r4]
 888 0116 A342     		cmp	r3, r4
 889 0118 07D0     		beq	.L32
 890 011a A269     		ldr	r2, [r4, #24]
 891 011c 9B68     		ldr	r3, [r3, #8]
 892 011e 9268     		ldr	r2, [r2, #8]
 893 0120 9A42     		cmp	r2, r3
 894 0122 02D2     		bcs	.L32
 895 0124 1048     		ldr	r0, .L40+8
 896 0126 FFF7FEFF 		bl	chSysHalt
 897              	.LVL67:
 898              	.L32:
 899              	.LBB397:
 900              	.LBB398:
 901              	.LBB399:
 902              		.loc 3 546 0
 903 012a 0023     		movs	r3, #0
 904              		.syntax unified
 905              	@ 546 "../e-puck2_main-processor/ChibiOS//os/ext/CMSIS/include/core_cmFunc.h" 1
 906 012c 83F31188 		MSR basepri, r3
 907              	@ 0 "" 2
 908              	.LVL68:
 909              		.thumb
 910              		.syntax unified
 911              	.LBE399:
 912              	.LBE398:
ARM GAS  /var/folders/d2/nstgp4h54kz7g1l847x_b8wc0000gn/T//cc0OwC5S.s 			page 17


 913              	.LBE397:
 914              	.LBE396:
 915              	.LBE395:
 916              	.LBE387:
 917              	.LBE386:
 918              		.loc 1 215 0
 919 0130 05F16404 		add	r4, r5, #100
 920              	.LVL69:
 921              		.loc 1 216 0
 922 0134 2046     		mov	r0, r4
 923 0136 FFF7FEFF 		bl	chThdSleepUntil
 924              	.LVL70:
 925              		.loc 1 217 0
 926 013a 019A     		ldr	r2, [sp, #4]
 927 013c 3368     		ldr	r3, [r6]
 928 013e 9A42     		cmp	r2, r3
 929 0140 0CD1     		bne	.L36
 930 0142 05F16502 		add	r2, r5, #101
 931 0146 2146     		mov	r1, r4
 932 0148 0420     		movs	r0, #4
 933              	.LBE371:
 934              	.LBE370:
 935              		.loc 1 220 0
 936 014a 02B0     		add	sp, sp, #8
 937              		.cfi_remember_state
 938              		.cfi_def_cfa_offset 16
 939              		@ sp needed
 940 014c BDE87040 		pop	{r4, r5, r6, lr}
 941              		.cfi_restore 14
 942              		.cfi_restore 6
 943              		.cfi_restore 5
 944              		.cfi_restore 4
 945              		.cfi_def_cfa_offset 0
 946              	.LVL71:
 947              	.LBB401:
 948              	.LBB400:
 949              		.loc 1 217 0
 950 0150 FFF7FEBF 		b	_test_assert_time_window
 951              	.LVL72:
 952              	.L39:
 953              		.cfi_restore_state
 954              	.LBE400:
 955              	.LBE401:
 956              	.LBB402:
 957              	.LBB369:
 958              	.LBB368:
 959              	.LBB367:
 960              		.loc 4 367 0
 961 0154 0448     		ldr	r0, .L40+8
 962 0156 FFF7FEFF 		bl	chSysHalt
 963              	.LVL73:
 964 015a 99E7     		b	.L29
 965              	.L36:
 966              	.LBE367:
 967              	.LBE368:
 968              	.LBE369:
 969              	.LBE402:
ARM GAS  /var/folders/d2/nstgp4h54kz7g1l847x_b8wc0000gn/T//cc0OwC5S.s 			page 18


 970              		.loc 1 220 0
 971 015c FFF7FEFF 		bl	__stack_chk_fail
 972              	.LVL74:
 973              	.L41:
 974              		.align	2
 975              	.L40:
 976 0160 00000000 		.word	__stack_chk_guard
 977 0164 00000000 		.word	ch
 978 0168 00000000 		.word	.LANCHOR0
 979              		.cfi_endproc
 980              	.LFE223:
 981              		.size	thd4_execute, .-thd4_execute
 982              		.section	.text.thd3_execute,"ax",%progbits
 983              		.align	1
 984              		.p2align 4,,15
 985              		.syntax unified
 986              		.thumb
 987              		.thumb_func
 988              		.fpu fpv4-sp-d16
 989              		.type	thd3_execute, %function
 990              	thd3_execute:
 991              	.LFB222:
 992              		.loc 1 125 0
 993              		.cfi_startproc
 994              		@ args = 0, pretend = 0, frame = 8
 995              		@ frame_needed = 0, uses_anonymous_args = 0
 996 0000 2DE9F041 		push	{r4, r5, r6, r7, r8, lr}
 997              		.cfi_def_cfa_offset 24
 998              		.cfi_offset 4, -24
 999              		.cfi_offset 5, -20
 1000              		.cfi_offset 6, -16
 1001              		.cfi_offset 7, -12
 1002              		.cfi_offset 8, -8
 1003              		.cfi_offset 14, -4
 1004              	.LBB453:
 1005              	.LBB454:
 1006              	.LBB455:
 1007              	.LBB456:
 1008              		.loc 2 176 0
 1009 0004 694E     		ldr	r6, .L52
 1010              	.LBE456:
 1011              	.LBE455:
 1012              	.LBE454:
 1013              	.LBE453:
 1014              		.loc 1 125 0
 1015 0006 6A4D     		ldr	r5, .L52+4
 1016              	.LBB459:
 1017              	.LBB457:
 1018              		.loc 2 189 0
 1019 0008 B269     		ldr	r2, [r6, #24]
 1020              	.LBE457:
 1021              	.LBE459:
 1022              		.loc 1 125 0
 1023 000a 2B68     		ldr	r3, [r5]
 1024              	.LBB460:
 1025              	.LBB458:
 1026              		.loc 2 189 0
ARM GAS  /var/folders/d2/nstgp4h54kz7g1l847x_b8wc0000gn/T//cc0OwC5S.s 			page 19


 1027 000c 9468     		ldr	r4, [r2, #8]
 1028              	.LBE458:
 1029              	.LBE460:
 1030              		.loc 1 125 0
 1031 000e 82B0     		sub	sp, sp, #8
 1032              		.cfi_def_cfa_offset 32
 1033              		.loc 1 129 0
 1034 0010 671C     		adds	r7, r4, #1
 1035 0012 3846     		mov	r0, r7
 1036              		.loc 1 125 0
 1037 0014 0193     		str	r3, [sp, #4]
 1038              		.loc 1 129 0
 1039 0016 FFF7FEFF 		bl	chThdSetPriority
 1040              	.LVL75:
 1041              		.loc 1 130 0
 1042 001a 011B     		subs	r1, r0, r4
 1043 001c B1FA81F1 		clz	r1, r1
 1044              		.loc 1 129 0
 1045 0020 8046     		mov	r8, r0
 1046              	.LVL76:
 1047              		.loc 1 130 0
 1048 0022 4909     		lsrs	r1, r1, #5
 1049 0024 0120     		movs	r0, #1
 1050              	.LVL77:
 1051 0026 FFF7FEFF 		bl	_test_assert
 1052              	.LVL78:
 1053 002a 38B1     		cbz	r0, .L50
 1054              	.LVL79:
 1055              	.L42:
 1056              		.loc 1 171 0
 1057 002c 019A     		ldr	r2, [sp, #4]
 1058 002e 2B68     		ldr	r3, [r5]
 1059 0030 9A42     		cmp	r2, r3
 1060 0032 40F0B980 		bne	.L51
 1061 0036 02B0     		add	sp, sp, #8
 1062              		.cfi_remember_state
 1063              		.cfi_def_cfa_offset 24
 1064              		@ sp needed
 1065 0038 BDE8F081 		pop	{r4, r5, r6, r7, r8, pc}
 1066              	.LVL80:
 1067              	.L50:
 1068              		.cfi_restore_state
 1069              	.LBB461:
 1070              	.LBB462:
 1071              		.loc 2 189 0
 1072 003c B369     		ldr	r3, [r6, #24]
 1073              	.LBE462:
 1074              	.LBE461:
 1075              		.loc 1 132 0
 1076 003e 9968     		ldr	r1, [r3, #8]
 1077 0040 C91B     		subs	r1, r1, r7
 1078 0042 B1FA81F1 		clz	r1, r1
 1079 0046 0220     		movs	r0, #2
 1080 0048 4909     		lsrs	r1, r1, #5
 1081 004a FFF7FEFF 		bl	_test_assert
 1082              	.LVL81:
 1083 004e 0028     		cmp	r0, #0
ARM GAS  /var/folders/d2/nstgp4h54kz7g1l847x_b8wc0000gn/T//cc0OwC5S.s 			page 20


 1084 0050 ECD1     		bne	.L42
 1085              		.loc 1 134 0
 1086 0052 4046     		mov	r0, r8
 1087 0054 FFF7FEFF 		bl	chThdSetPriority
 1088              	.LVL82:
 1089              		.loc 1 135 0
 1090 0058 391A     		subs	r1, r7, r0
 1091 005a B1FA81F1 		clz	r1, r1
 1092 005e 4909     		lsrs	r1, r1, #5
 1093 0060 0320     		movs	r0, #3
 1094              	.LVL83:
 1095 0062 FFF7FEFF 		bl	_test_assert
 1096              	.LVL84:
 1097 0066 0028     		cmp	r0, #0
 1098 0068 E0D1     		bne	.L42
 1099              	.LBB463:
 1100              	.LBB464:
 1101              		.loc 2 189 0
 1102 006a B369     		ldr	r3, [r6, #24]
 1103              	.LBE464:
 1104              	.LBE463:
 1105              		.loc 1 137 0
 1106 006c 9968     		ldr	r1, [r3, #8]
 1107 006e 091B     		subs	r1, r1, r4
 1108 0070 B1FA81F1 		clz	r1, r1
 1109 0074 0420     		movs	r0, #4
 1110 0076 4909     		lsrs	r1, r1, #5
 1111 0078 FFF7FEFF 		bl	_test_assert
 1112              	.LVL85:
 1113 007c 0028     		cmp	r0, #0
 1114 007e D5D1     		bne	.L42
 1115              	.LVL86:
 1116              	.LBB465:
 1117              	.LBB466:
 1118              	.LBB467:
 1119              	.LBB468:
 1120              	.LBB469:
 1121              		.loc 3 546 0
 1122 0080 2023     		movs	r3, #32
 1123              		.syntax unified
 1124              	@ 546 "../e-puck2_main-processor/ChibiOS//os/ext/CMSIS/include/core_cmFunc.h" 1
 1125 0082 83F31188 		MSR basepri, r3
 1126              	@ 0 "" 2
 1127              	.LVL87:
 1128              		.thumb
 1129              		.syntax unified
 1130              	.LBE469:
 1131              	.LBE468:
 1132              	.LBE467:
 1133              		.loc 4 349 0
 1134 0086 FFF7FEFF 		bl	_stats_start_measure_crit_thd
 1135              	.LVL88:
 1136              		.loc 4 350 0
 1137 008a FFF7FEFF 		bl	_dbg_check_lock
 1138              	.LVL89:
 1139              	.LBE466:
 1140              	.LBE465:
ARM GAS  /var/folders/d2/nstgp4h54kz7g1l847x_b8wc0000gn/T//cc0OwC5S.s 			page 21


 1141              	.LBB470:
 1142              	.LBB471:
 1143              		.loc 2 176 0
 1144 008e B269     		ldr	r2, [r6, #24]
 1145              	.LBE471:
 1146              	.LBE470:
 1147              		.loc 1 143 0
 1148 0090 9368     		ldr	r3, [r2, #8]
 1149 0092 0233     		adds	r3, r3, #2
 1150 0094 9360     		str	r3, [r2, #8]
 1151              	.LBB472:
 1152              	.LBB473:
 1153              		.loc 4 360 0
 1154 0096 FFF7FEFF 		bl	_dbg_check_unlock
 1155              	.LVL90:
 1156              		.loc 4 361 0
 1157 009a FFF7FEFF 		bl	_stats_stop_measure_crit_thd
 1158              	.LVL91:
 1159              		.loc 4 367 0
 1160 009e 3368     		ldr	r3, [r6]
 1161 00a0 B342     		cmp	r3, r6
 1162 00a2 07D0     		beq	.L46
 1163 00a4 B269     		ldr	r2, [r6, #24]
 1164 00a6 9B68     		ldr	r3, [r3, #8]
 1165 00a8 9268     		ldr	r2, [r2, #8]
 1166 00aa 9A42     		cmp	r2, r3
 1167 00ac 02D2     		bcs	.L46
 1168 00ae 4148     		ldr	r0, .L52+8
 1169 00b0 FFF7FEFF 		bl	chSysHalt
 1170              	.LVL92:
 1171              	.L46:
 1172              	.LBB474:
 1173              	.LBB475:
 1174              	.LBB476:
 1175              		.loc 3 546 0
 1176 00b4 0023     		movs	r3, #0
 1177              		.syntax unified
 1178              	@ 546 "../e-puck2_main-processor/ChibiOS//os/ext/CMSIS/include/core_cmFunc.h" 1
 1179 00b6 83F31188 		MSR basepri, r3
 1180              	@ 0 "" 2
 1181              	.LVL93:
 1182              		.thumb
 1183              		.syntax unified
 1184              	.LBE476:
 1185              	.LBE475:
 1186              	.LBE474:
 1187              	.LBE473:
 1188              	.LBE472:
 1189              	.LBB477:
 1190              	.LBB478:
 1191              		.loc 2 189 0
 1192 00ba B369     		ldr	r3, [r6, #24]
 1193              	.LBE478:
 1194              	.LBE477:
 1195              		.loc 1 145 0
 1196 00bc 9968     		ldr	r1, [r3, #8]
 1197 00be 04F10208 		add	r8, r4, #2
ARM GAS  /var/folders/d2/nstgp4h54kz7g1l847x_b8wc0000gn/T//cc0OwC5S.s 			page 22


 1198 00c2 A1EB0801 		sub	r1, r1, r8
 1199 00c6 B1FA81F1 		clz	r1, r1
 1200 00ca 4909     		lsrs	r1, r1, #5
 1201 00cc 0520     		movs	r0, #5
 1202 00ce FFF7FEFF 		bl	_test_assert
 1203              	.LVL94:
 1204 00d2 0028     		cmp	r0, #0
 1205 00d4 AAD1     		bne	.L42
 1206              		.loc 1 149 0
 1207 00d6 3846     		mov	r0, r7
 1208 00d8 FFF7FEFF 		bl	chThdSetPriority
 1209              	.LVL95:
 1210              		.loc 1 150 0
 1211 00dc 011B     		subs	r1, r0, r4
 1212 00de B1FA81F1 		clz	r1, r1
 1213 00e2 4909     		lsrs	r1, r1, #5
 1214 00e4 0620     		movs	r0, #6
 1215              	.LVL96:
 1216 00e6 FFF7FEFF 		bl	_test_assert
 1217              	.LVL97:
 1218 00ea 0028     		cmp	r0, #0
 1219 00ec 9ED1     		bne	.L42
 1220              		.loc 1 152 0
 1221 00ee B369     		ldr	r3, [r6, #24]
 1222 00f0 9968     		ldr	r1, [r3, #8]
 1223 00f2 A1EB0801 		sub	r1, r1, r8
 1224 00f6 B1FA81F1 		clz	r1, r1
 1225 00fa 4909     		lsrs	r1, r1, #5
 1226 00fc 0720     		movs	r0, #7
 1227 00fe FFF7FEFF 		bl	_test_assert
 1228              	.LVL98:
 1229 0102 0028     		cmp	r0, #0
 1230 0104 92D1     		bne	.L42
 1231              		.loc 1 154 0
 1232 0106 B369     		ldr	r3, [r6, #24]
 1233 0108 596C     		ldr	r1, [r3, #68]
 1234 010a A1EB070C 		sub	ip, r1, r7
 1235 010e DCF10001 		rsbs	r1, ip, #0
 1236 0112 41EB0C01 		adc	r1, r1, ip
 1237 0116 0820     		movs	r0, #8
 1238 0118 FFF7FEFF 		bl	_test_assert
 1239              	.LVL99:
 1240 011c 0028     		cmp	r0, #0
 1241 011e 85D1     		bne	.L42
 1242              		.loc 1 158 0
 1243 0120 04F10308 		add	r8, r4, #3
 1244 0124 4046     		mov	r0, r8
 1245 0126 FFF7FEFF 		bl	chThdSetPriority
 1246              	.LVL100:
 1247              		.loc 1 159 0
 1248 012a 381A     		subs	r0, r7, r0
 1249              	.LVL101:
 1250 012c 4142     		rsbs	r1, r0, #0
 1251 012e 4141     		adcs	r1, r1, r0
 1252 0130 0920     		movs	r0, #9
 1253 0132 FFF7FEFF 		bl	_test_assert
 1254              	.LVL102:
ARM GAS  /var/folders/d2/nstgp4h54kz7g1l847x_b8wc0000gn/T//cc0OwC5S.s 			page 23


 1255 0136 0028     		cmp	r0, #0
 1256 0138 7FF478AF 		bne	.L42
 1257              		.loc 1 161 0
 1258 013c B369     		ldr	r3, [r6, #24]
 1259 013e 9968     		ldr	r1, [r3, #8]
 1260 0140 A1EB0802 		sub	r2, r1, r8
 1261 0144 5142     		rsbs	r1, r2, #0
 1262 0146 5141     		adcs	r1, r1, r2
 1263 0148 0A20     		movs	r0, #10
 1264 014a FFF7FEFF 		bl	_test_assert
 1265              	.LVL103:
 1266 014e 0028     		cmp	r0, #0
 1267 0150 7FF46CAF 		bne	.L42
 1268              		.loc 1 163 0
 1269 0154 B369     		ldr	r3, [r6, #24]
 1270 0156 596C     		ldr	r1, [r3, #68]
 1271 0158 A1EB0803 		sub	r3, r1, r8
 1272 015c 5942     		rsbs	r1, r3, #0
 1273 015e 5941     		adcs	r1, r1, r3
 1274 0160 0B20     		movs	r0, #11
 1275 0162 FFF7FEFF 		bl	_test_assert
 1276              	.LVL104:
 1277 0166 0028     		cmp	r0, #0
 1278 0168 7FF460AF 		bne	.L42
 1279              	.LVL105:
 1280              	.LBB479:
 1281              	.LBB480:
 1282              	.LBB481:
 1283              	.LBB482:
 1284              	.LBB483:
 1285              		.loc 3 546 0
 1286 016c 2023     		movs	r3, #32
 1287              		.syntax unified
 1288              	@ 546 "../e-puck2_main-processor/ChibiOS//os/ext/CMSIS/include/core_cmFunc.h" 1
 1289 016e 83F31188 		MSR basepri, r3
 1290              	@ 0 "" 2
 1291              	.LVL106:
 1292              		.thumb
 1293              		.syntax unified
 1294              	.LBE483:
 1295              	.LBE482:
 1296              	.LBE481:
 1297              		.loc 4 349 0
 1298 0172 FFF7FEFF 		bl	_stats_start_measure_crit_thd
 1299              	.LVL107:
 1300              		.loc 4 350 0
 1301 0176 FFF7FEFF 		bl	_dbg_check_lock
 1302              	.LVL108:
 1303              	.LBE480:
 1304              	.LBE479:
 1305              	.LBB484:
 1306              	.LBB485:
 1307              		.loc 2 176 0
 1308 017a B369     		ldr	r3, [r6, #24]
 1309              	.LBE485:
 1310              	.LBE484:
 1311              		.loc 1 167 0
ARM GAS  /var/folders/d2/nstgp4h54kz7g1l847x_b8wc0000gn/T//cc0OwC5S.s 			page 24


 1312 017c 9C60     		str	r4, [r3, #8]
 1313              		.loc 1 168 0
 1314 017e B369     		ldr	r3, [r6, #24]
 1315 0180 5C64     		str	r4, [r3, #68]
 1316              	.LBB486:
 1317              	.LBB487:
 1318              		.loc 4 360 0
 1319 0182 FFF7FEFF 		bl	_dbg_check_unlock
 1320              	.LVL109:
 1321              		.loc 4 361 0
 1322 0186 FFF7FEFF 		bl	_stats_stop_measure_crit_thd
 1323              	.LVL110:
 1324              		.loc 4 367 0
 1325 018a 3368     		ldr	r3, [r6]
 1326 018c B342     		cmp	r3, r6
 1327 018e 07D0     		beq	.L47
 1328 0190 B269     		ldr	r2, [r6, #24]
 1329 0192 9B68     		ldr	r3, [r3, #8]
 1330 0194 9268     		ldr	r2, [r2, #8]
 1331 0196 9A42     		cmp	r2, r3
 1332 0198 02D2     		bcs	.L47
 1333 019a 0648     		ldr	r0, .L52+8
 1334 019c FFF7FEFF 		bl	chSysHalt
 1335              	.LVL111:
 1336              	.L47:
 1337              	.LBB488:
 1338              	.LBB489:
 1339              	.LBB490:
 1340              		.loc 3 546 0
 1341 01a0 0023     		movs	r3, #0
 1342              		.syntax unified
 1343              	@ 546 "../e-puck2_main-processor/ChibiOS//os/ext/CMSIS/include/core_cmFunc.h" 1
 1344 01a2 83F31188 		MSR basepri, r3
 1345              	@ 0 "" 2
 1346              	.LVL112:
 1347              		.thumb
 1348              		.syntax unified
 1349 01a6 41E7     		b	.L42
 1350              	.L51:
 1351              	.LBE490:
 1352              	.LBE489:
 1353              	.LBE488:
 1354              	.LBE487:
 1355              	.LBE486:
 1356              		.loc 1 171 0
 1357 01a8 FFF7FEFF 		bl	__stack_chk_fail
 1358              	.LVL113:
 1359              	.L53:
 1360              		.align	2
 1361              	.L52:
 1362 01ac 00000000 		.word	ch
 1363 01b0 00000000 		.word	__stack_chk_guard
 1364 01b4 00000000 		.word	.LANCHOR0
 1365              		.cfi_endproc
 1366              	.LFE222:
 1367              		.size	thd3_execute, .-thd3_execute
 1368              		.global	patternthd
ARM GAS  /var/folders/d2/nstgp4h54kz7g1l847x_b8wc0000gn/T//cc0OwC5S.s 			page 25


 1369              		.global	testthd4
 1370              		.global	testthd3
 1371              		.global	testthd2
 1372              		.global	testthd1
 1373              		.section	.rodata.__func__.7153,"a",%progbits
 1374              		.align	2
 1375              		.set	.LANCHOR0,. + 0
 1376              		.type	__func__.7153, %object
 1377              		.size	__func__.7153, 12
 1378              	__func__.7153:
 1379 0000 63685379 		.ascii	"chSysUnlock\000"
 1379      73556E6C 
 1379      6F636B00 
 1380              		.section	.rodata.patternthd,"a",%progbits
 1381              		.align	2
 1382              		.type	patternthd, %object
 1383              		.size	patternthd, 20
 1384              	patternthd:
 1385 0000 00000000 		.word	testthd1
 1386 0004 00000000 		.word	testthd2
 1387 0008 00000000 		.word	testthd3
 1388 000c 00000000 		.word	testthd4
 1389 0010 00000000 		.word	0
 1390              		.section	.rodata.str1.4,"aMS",%progbits,1
 1391              		.align	2
 1392              	.LC6:
 1393 0000 54687265 		.ascii	"Threads, delays\000"
 1393      6164732C 
 1393      2064656C 
 1393      61797300 
 1394              	.LC7:
 1395 0010 54687265 		.ascii	"Threads, priority change\000"
 1395      6164732C 
 1395      20707269 
 1395      6F726974 
 1395      79206368 
 1396 0029 000000   		.space	3
 1397              	.LC8:
 1398 002c 54687265 		.ascii	"Threads, enqueuing test #2\000"
 1398      6164732C 
 1398      20656E71 
 1398      75657569 
 1398      6E672074 
 1399 0047 00       		.space	1
 1400              	.LC9:
 1401 0048 54687265 		.ascii	"Threads, enqueuing test #1\000"
 1401      6164732C 
 1401      20656E71 
 1401      75657569 
 1401      6E672074 
 1402              		.section	.rodata.testthd1,"a",%progbits
 1403              		.align	2
 1404              		.type	testthd1, %object
 1405              		.size	testthd1, 16
 1406              	testthd1:
 1407 0000 48000000 		.word	.LC9
 1408 0004 00000000 		.word	0
ARM GAS  /var/folders/d2/nstgp4h54kz7g1l847x_b8wc0000gn/T//cc0OwC5S.s 			page 26


 1409 0008 00000000 		.word	0
 1410 000c 00000000 		.word	thd1_execute
 1411              		.section	.rodata.testthd2,"a",%progbits
 1412              		.align	2
 1413              		.type	testthd2, %object
 1414              		.size	testthd2, 16
 1415              	testthd2:
 1416 0000 2C000000 		.word	.LC8
 1417 0004 00000000 		.word	0
 1418 0008 00000000 		.word	0
 1419 000c 00000000 		.word	thd2_execute
 1420              		.section	.rodata.testthd3,"a",%progbits
 1421              		.align	2
 1422              		.type	testthd3, %object
 1423              		.size	testthd3, 16
 1424              	testthd3:
 1425 0000 10000000 		.word	.LC7
 1426 0004 00000000 		.word	0
 1427 0008 00000000 		.word	0
 1428 000c 00000000 		.word	thd3_execute
 1429              		.section	.rodata.testthd4,"a",%progbits
 1430              		.align	2
 1431              		.type	testthd4, %object
 1432              		.size	testthd4, 16
 1433              	testthd4:
 1434 0000 00000000 		.word	.LC6
 1435 0004 00000000 		.word	0
 1436 0008 00000000 		.word	0
 1437 000c 00000000 		.word	thd4_execute
 1438              		.section	.rodata.thd1_execute.str1.4,"aMS",%progbits,1
 1439              		.align	2
 1440              	.LC0:
 1441 0000 4500     		.ascii	"E\000"
 1442 0002 0000     		.space	2
 1443              	.LC1:
 1444 0004 4400     		.ascii	"D\000"
 1445 0006 0000     		.space	2
 1446              	.LC2:
 1447 0008 4300     		.ascii	"C\000"
 1448 000a 0000     		.space	2
 1449              	.LC3:
 1450 000c 4200     		.ascii	"B\000"
 1451 000e 0000     		.space	2
 1452              	.LC4:
 1453 0010 4100     		.ascii	"A\000"
 1454 0012 0000     		.space	2
 1455              	.LC5:
 1456 0014 41424344 		.ascii	"ABCDE\000"
 1456      4500
 1457              		.text
 1458              	.Letext0:
 1459              		.file 6 "/Applications/Eclipse_e-puck2.app/Contents/Eclipse_e-puck2/Tools/gcc-arm-none-eabi-7-2017
 1460              		.file 7 "/Applications/Eclipse_e-puck2.app/Contents/Eclipse_e-puck2/Tools/gcc-arm-none-eabi-7-2017
 1461              		.file 8 "/Applications/Eclipse_e-puck2.app/Contents/Eclipse_e-puck2/Tools/gcc-arm-none-eabi-7-2017
 1462              		.file 9 "../e-puck2_main-processor/ChibiOS//os/rt/ports/ARMCMx/compilers/GCC/chtypes.h"
 1463              		.file 10 "../e-puck2_main-processor/ChibiOS//os/rt/include/chsystypes.h"
 1464              		.file 11 "../e-puck2_main-processor/ChibiOS//os/rt/include/chschd.h"
ARM GAS  /var/folders/d2/nstgp4h54kz7g1l847x_b8wc0000gn/T//cc0OwC5S.s 			page 27


 1465              		.file 12 "../e-puck2_main-processor/ChibiOS//os/ext/CMSIS/include/core_cm4.h"
 1466              		.file 13 "../e-puck2_main-processor/ChibiOS//os/ext/CMSIS/ST/system_stm32f4xx.h"
 1467              		.file 14 "../e-puck2_main-processor/ChibiOS//os/rt/ports/ARMCMx/chcore.h"
 1468              		.file 15 "../e-puck2_main-processor/ChibiOS//os/rt/ports/ARMCMx/chcore_v7m.h"
 1469              		.file 16 "../e-puck2_main-processor/ChibiOS//os/rt/include/chdebug.h"
 1470              		.file 17 "../e-puck2_main-processor/ChibiOS//os/rt/include/chtm.h"
 1471              		.file 18 "../e-puck2_main-processor/ChibiOS//os/rt/include/chstats.h"
 1472              		.file 19 "../e-puck2_main-processor/ChibiOS//os/rt/include/chsem.h"
 1473              		.file 20 "../e-puck2_main-processor/ChibiOS//os/rt/include/chmtx.h"
 1474              		.file 21 "../e-puck2_main-processor/ChibiOS//os/rt/include/chregistry.h"
 1475              		.file 22 "../e-puck2_main-processor/ChibiOS//test/rt/test.h"